; ModuleID = 'Project_CodeNet_C++1400/p00100/s493698693.cpp'
source_filename = "Project_CodeNet_C++1400/p00100/s493698693.cpp"
target datalayout = "e-m:e-p270:32:32-p271:32:32-p272:64:64-i64:64-f80:128-n8:16:32:64-S128"
target triple = "x86_64-pc-linux-gnu"

%"class.std::ios_base::Init" = type { i8 }
%"class.std::basic_istream" = type { i32 (...)**, i64, %"class.std::basic_ios" }
%"class.std::basic_ios" = type { %"class.std::ios_base", %"class.std::basic_ostream"*, i8, i8, %"class.std::basic_streambuf"*, %"class.std::ctype"*, %"class.std::num_put"*, %"class.std::num_get"* }
%"class.std::ios_base" = type { i32 (...)**, i64, i64, i32, i32, i32, %"struct.std::ios_base::_Callback_list"*, %"struct.std::ios_base::_Words", [8 x %"struct.std::ios_base::_Words"], i32, %"struct.std::ios_base::_Words"*, %"class.std::locale" }
%"struct.std::ios_base::_Callback_list" = type { %"struct.std::ios_base::_Callback_list"*, void (i32, %"class.std::ios_base"*, i32)*, i32, i32 }
%"struct.std::ios_base::_Words" = type { i8*, i64 }
%"class.std::locale" = type { %"class.std::locale::_Impl"* }
%"class.std::locale::_Impl" = type { i32, %"class.std::locale::facet"**, i64, %"class.std::locale::facet"**, i8** }
%"class.std::locale::facet" = type <{ i32 (...)**, i32, [4 x i8] }>
%"class.std::basic_ostream" = type { i32 (...)**, %"class.std::basic_ios" }
%"class.std::basic_streambuf" = type { i32 (...)**, i8*, i8*, i8*, i8*, i8*, i8*, %"class.std::locale" }
%"class.std::ctype" = type <{ %"class.std::locale::facet.base", [4 x i8], %struct.__locale_struct*, i8, [7 x i8], i32*, i32*, i16*, i8, [256 x i8], [256 x i8], i8, [6 x i8] }>
%"class.std::locale::facet.base" = type <{ i32 (...)**, i32 }>
%struct.__locale_struct = type { [13 x %struct.__locale_data*], i16*, i32*, i32*, [13 x i8*] }
%struct.__locale_data = type opaque
%"class.std::num_put" = type { %"class.std::locale::facet.base", [4 x i8] }
%"class.std::num_get" = type { %"class.std::locale::facet.base", [4 x i8] }
%"class.std::map" = type { %"class.std::_Rb_tree" }
%"class.std::_Rb_tree" = type { %"struct.std::_Rb_tree<int, std::pair<const int, long long>, std::_Select1st<std::pair<const int, long long>>, std::less<int>>::_Rb_tree_impl" }
%"struct.std::_Rb_tree<int, std::pair<const int, long long>, std::_Select1st<std::pair<const int, long long>>, std::less<int>>::_Rb_tree_impl" = type { %"struct.std::_Rb_tree_key_compare", %"struct.std::_Rb_tree_header" }
%"struct.std::_Rb_tree_key_compare" = type { %"struct.std::less" }
%"struct.std::less" = type { i8 }
%"struct.std::_Rb_tree_header" = type { %"struct.std::_Rb_tree_node_base", i64 }
%"struct.std::_Rb_tree_node_base" = type { i32, %"struct.std::_Rb_tree_node_base"*, %"struct.std::_Rb_tree_node_base"*, %"struct.std::_Rb_tree_node_base"* }
%"struct.std::_Rb_tree_node" = type { %"struct.std::_Rb_tree_node_base", %"struct.__gnu_cxx::__aligned_membuf" }
%"struct.__gnu_cxx::__aligned_membuf" = type { [16 x i8] }

$__clang_call_terminate = comdat any

$_ZNSt8_Rb_treeIiSt4pairIKixESt10_Select1stIS2_ESt4lessIiESaIS2_EED2Ev = comdat any

$_ZNSt8_Rb_treeIiSt4pairIKixESt10_Select1stIS2_ESt4lessIiESaIS2_EE8_M_eraseEPSt13_Rb_tree_nodeIS2_E = comdat any

$_ZNSt8_Rb_treeIiSt4pairIKixESt10_Select1stIS2_ESt4lessIiESaIS2_EE29_M_get_insert_hint_unique_posESt23_Rb_tree_const_iteratorIS2_ERS1_ = comdat any

@_ZStL8__ioinit = internal global %"class.std::ios_base::Init" zeroinitializer, align 1
@__dso_handle = external hidden global i8
@_ZSt3cin = external global %"class.std::basic_istream", align 8
@_ZSt4cout = external global %"class.std::basic_ostream", align 8
@.str = private unnamed_addr constant [3 x i8] c"NA\00", align 1
@.str.1 = private unnamed_addr constant [26 x i8] c"vector::_M_realloc_insert\00", align 1
@llvm.global_ctors = appending global [1 x { i32, void ()*, i8* }] [{ i32, void ()*, i8* } { i32 65535, void ()* @_GLOBAL__sub_I_s493698693.cpp, i8* null }]

declare void @_ZNSt8ios_base4InitC1Ev(%"class.std::ios_base::Init"* nonnull align 1 dereferenceable(1)) unnamed_addr #0

; Function Attrs: nounwind
declare void @_ZNSt8ios_base4InitD1Ev(%"class.std::ios_base::Init"* nonnull align 1 dereferenceable(1)) unnamed_addr #1

; Function Attrs: nofree nounwind
declare i32 @__cxa_atexit(void (i8*)*, i8*, i8*) local_unnamed_addr #2

; Function Attrs: norecurse sspstrong uwtable
define dso_local i32 @main() local_unnamed_addr #3 personality i8* bitcast (i32 (...)* @__gxx_personality_v0 to i8*) {
  %1 = alloca i32, align 4
  %2 = alloca %"class.std::map", align 8
  %3 = alloca i32, align 4
  %4 = alloca i32, align 4
  %5 = alloca i32, align 4
  %6 = bitcast i32* %1 to i8*
  call void @llvm.lifetime.start.p0i8(i64 4, i8* nonnull %6) #14
  %7 = getelementptr inbounds %"class.std::map", %"class.std::map"* %2, i64 0, i32 0, i32 0, i32 0, i32 0, i32 0
  %8 = getelementptr inbounds i8, i8* %7, i64 8
  %9 = bitcast i8* %8 to i32*
  %10 = getelementptr inbounds i8, i8* %7, i64 16
  %11 = bitcast i8* %10 to %"struct.std::_Rb_tree_node_base"**
  %12 = getelementptr inbounds i8, i8* %7, i64 24
  %13 = bitcast i8* %12 to i8**
  %14 = getelementptr inbounds i8, i8* %7, i64 32
  %15 = bitcast i8* %14 to i8**
  %16 = getelementptr inbounds i8, i8* %7, i64 40
  %17 = bitcast i8* %16 to i64*
  %18 = bitcast i32* %3 to i8*
  %19 = bitcast i32* %4 to i8*
  %20 = bitcast i32* %5 to i8*
  %21 = bitcast i8* %10 to %"struct.std::_Rb_tree_node"**
  %22 = bitcast i8* %8 to %"struct.std::_Rb_tree_node_base"*
  %23 = getelementptr inbounds %"class.std::map", %"class.std::map"* %2, i64 0, i32 0
  %24 = call nonnull align 8 dereferenceable(16) %"class.std::basic_istream"* @_ZNSirsERi(%"class.std::basic_istream"* nonnull align 8 dereferenceable(16) @_ZSt3cin, i32* nonnull align 4 dereferenceable(4) %1)
  %25 = bitcast %"class.std::basic_istream"* %24 to i8**
  %26 = load i8*, i8** %25, align 8, !tbaa !5
  %27 = getelementptr i8, i8* %26, i64 -24
  %28 = bitcast i8* %27 to i64*
  %29 = load i64, i64* %28, align 8
  %30 = bitcast %"class.std::basic_istream"* %24 to i8*
  %31 = add nsw i64 %29, 32
  %32 = getelementptr inbounds i8, i8* %30, i64 %31
  %33 = bitcast i8* %32 to i32*
  %34 = load i32, i32* %33, align 8, !tbaa !8
  %35 = and i32 %34, 5
  %36 = icmp eq i32 %35, 0
  %37 = load i32, i32* %1, align 4
  %38 = icmp ne i32 %37, 0
  %39 = select i1 %36, i1 %38, i1 false
  br i1 %39, label %40, label %450

40:                                               ; preds = %0, %426
  %41 = phi i32 [ %440, %426 ], [ %37, %0 ]
  call void @llvm.lifetime.start.p0i8(i64 48, i8* nonnull %7) #14
  store i32 0, i32* %9, align 8, !tbaa !18
  store %"struct.std::_Rb_tree_node_base"* null, %"struct.std::_Rb_tree_node_base"** %11, align 8, !tbaa !22
  store i8* %8, i8** %13, align 8, !tbaa !23
  store i8* %8, i8** %15, align 8, !tbaa !24
  store i64 0, i64* %17, align 8, !tbaa !25
  %42 = icmp sgt i32 %41, 0
  br i1 %42, label %48, label %378

43:                                               ; preds = %322
  %44 = and i8 %326, 1
  %45 = icmp eq i8 %44, 0
  br i1 %45, label %378, label %46

46:                                               ; preds = %43
  %47 = icmp eq i32* %325, %324
  br i1 %47, label %416, label %334

48:                                               ; preds = %40, %322
  %49 = phi i8 [ %326, %322 ], [ 0, %40 ]
  %50 = phi i32 [ %327, %322 ], [ 0, %40 ]
  %51 = phi i32* [ %325, %322 ], [ null, %40 ]
  %52 = phi i32* [ %324, %322 ], [ null, %40 ]
  %53 = phi i32* [ %323, %322 ], [ null, %40 ]
  call void @llvm.lifetime.start.p0i8(i64 4, i8* nonnull %18) #14
  call void @llvm.lifetime.start.p0i8(i64 4, i8* nonnull %19) #14
  call void @llvm.lifetime.start.p0i8(i64 4, i8* nonnull %20) #14
  %54 = invoke nonnull align 8 dereferenceable(16) %"class.std::basic_istream"* @_ZNSirsERi(%"class.std::basic_istream"* nonnull align 8 dereferenceable(16) @_ZSt3cin, i32* nonnull align 4 dereferenceable(4) %3)
          to label %55 unwind label %316

55:                                               ; preds = %48
  %56 = invoke nonnull align 8 dereferenceable(16) %"class.std::basic_istream"* @_ZNSirsERi(%"class.std::basic_istream"* nonnull align 8 dereferenceable(16) %54, i32* nonnull align 4 dereferenceable(4) %4)
          to label %57 unwind label %316

57:                                               ; preds = %55
  %58 = invoke nonnull align 8 dereferenceable(16) %"class.std::basic_istream"* @_ZNSirsERi(%"class.std::basic_istream"* nonnull align 8 dereferenceable(16) %56, i32* nonnull align 4 dereferenceable(4) %5)
          to label %59 unwind label %316

59:                                               ; preds = %57
  %60 = load i32, i32* %4, align 4, !tbaa !26
  %61 = load i32, i32* %5, align 4, !tbaa !26
  %62 = load %"struct.std::_Rb_tree_node"*, %"struct.std::_Rb_tree_node"** %21, align 8, !tbaa !22
  %63 = load i32, i32* %3, align 4
  %64 = icmp eq %"struct.std::_Rb_tree_node"* %62, null
  br i1 %64, label %88, label %65

65:                                               ; preds = %59, %65
  %66 = phi %"struct.std::_Rb_tree_node"* [ %78, %65 ], [ %62, %59 ]
  %67 = phi %"struct.std::_Rb_tree_node_base"* [ %75, %65 ], [ %22, %59 ]
  %68 = getelementptr inbounds %"struct.std::_Rb_tree_node", %"struct.std::_Rb_tree_node"* %66, i64 0, i32 1
  %69 = bitcast %"struct.__gnu_cxx::__aligned_membuf"* %68 to i32*
  %70 = load i32, i32* %69, align 4, !tbaa !26
  %71 = icmp slt i32 %70, %63
  %72 = getelementptr inbounds %"struct.std::_Rb_tree_node", %"struct.std::_Rb_tree_node"* %66, i64 0, i32 0, i32 3
  %73 = getelementptr %"struct.std::_Rb_tree_node", %"struct.std::_Rb_tree_node"* %66, i64 0, i32 0
  %74 = getelementptr inbounds %"struct.std::_Rb_tree_node", %"struct.std::_Rb_tree_node"* %66, i64 0, i32 0, i32 2
  %75 = select i1 %71, %"struct.std::_Rb_tree_node_base"* %67, %"struct.std::_Rb_tree_node_base"* %73
  %76 = select i1 %71, %"struct.std::_Rb_tree_node_base"** %72, %"struct.std::_Rb_tree_node_base"** %74
  %77 = bitcast %"struct.std::_Rb_tree_node_base"** %76 to %"struct.std::_Rb_tree_node"**
  %78 = load %"struct.std::_Rb_tree_node"*, %"struct.std::_Rb_tree_node"** %77, align 8, !tbaa !27
  %79 = icmp eq %"struct.std::_Rb_tree_node"* %78, null
  br i1 %79, label %80, label %65, !llvm.loop !28

80:                                               ; preds = %65
  %81 = icmp eq %"struct.std::_Rb_tree_node_base"* %75, %22
  br i1 %81, label %88, label %82

82:                                               ; preds = %80
  %83 = getelementptr inbounds %"struct.std::_Rb_tree_node_base", %"struct.std::_Rb_tree_node_base"* %67, i64 1, i32 0
  %84 = getelementptr inbounds %"struct.std::_Rb_tree_node_base", %"struct.std::_Rb_tree_node_base"* %73, i64 1, i32 0
  %85 = select i1 %71, i32* %83, i32* %84
  %86 = load i32, i32* %85, align 4, !tbaa !26
  %87 = icmp slt i32 %63, %86
  br i1 %87, label %88, label %127

88:                                               ; preds = %82, %80, %59
  %89 = phi %"struct.std::_Rb_tree_node_base"* [ %75, %82 ], [ %22, %80 ], [ %22, %59 ]
  %90 = invoke noalias nonnull i8* @_Znwm(i64 48) #15
          to label %91 unwind label %316

91:                                               ; preds = %88
  %92 = getelementptr inbounds i8, i8* %90, i64 32
  %93 = bitcast i8* %92 to i32*
  %94 = load i32, i32* %3, align 4, !tbaa !26
  store i32 %94, i32* %93, align 8, !tbaa !30
  %95 = getelementptr inbounds i8, i8* %90, i64 40
  %96 = bitcast i8* %95 to i64*
  store i64 0, i64* %96, align 8, !tbaa !33
  %97 = invoke { %"struct.std::_Rb_tree_node_base"*, %"struct.std::_Rb_tree_node_base"* } @_ZNSt8_Rb_treeIiSt4pairIKixESt10_Select1stIS2_ESt4lessIiESaIS2_EE29_M_get_insert_hint_unique_posESt23_Rb_tree_const_iteratorIS2_ERS1_(%"class.std::_Rb_tree"* nonnull align 8 dereferenceable(48) %23, %"struct.std::_Rb_tree_node_base"* %89, i32* nonnull align 4 dereferenceable(4) %93)
          to label %98 unwind label %116

98:                                               ; preds = %91
  %99 = extractvalue { %"struct.std::_Rb_tree_node_base"*, %"struct.std::_Rb_tree_node_base"* } %97, 0
  %100 = extractvalue { %"struct.std::_Rb_tree_node_base"*, %"struct.std::_Rb_tree_node_base"* } %97, 1
  %101 = icmp eq %"struct.std::_Rb_tree_node_base"* %100, null
  br i1 %101, label %120, label %102

102:                                              ; preds = %98
  %103 = icmp ne %"struct.std::_Rb_tree_node_base"* %99, null
  %104 = icmp eq %"struct.std::_Rb_tree_node_base"* %100, %22
  %105 = select i1 %103, i1 true, i1 %104
  br i1 %105, label %111, label %106

106:                                              ; preds = %102
  %107 = getelementptr inbounds %"struct.std::_Rb_tree_node_base", %"struct.std::_Rb_tree_node_base"* %100, i64 1, i32 0
  %108 = load i32, i32* %93, align 4, !tbaa !26
  %109 = load i32, i32* %107, align 4, !tbaa !26
  %110 = icmp slt i32 %108, %109
  br label %111

111:                                              ; preds = %106, %102
  %112 = phi i1 [ %110, %106 ], [ true, %102 ]
  %113 = bitcast i8* %90 to %"struct.std::_Rb_tree_node_base"*
  call void @_ZSt29_Rb_tree_insert_and_rebalancebPSt18_Rb_tree_node_baseS0_RS_(i1 zeroext %112, %"struct.std::_Rb_tree_node_base"* nonnull %113, %"struct.std::_Rb_tree_node_base"* nonnull %100, %"struct.std::_Rb_tree_node_base"* nonnull align 8 dereferenceable(32) %22) #14
  %114 = load i64, i64* %17, align 8, !tbaa !25
  %115 = add i64 %114, 1
  store i64 %115, i64* %17, align 8, !tbaa !25
  br label %127

116:                                              ; preds = %91
  %117 = landingpad { i8*, i32 }
          catch i8* null
  %118 = extractvalue { i8*, i32 } %117, 0
  %119 = call i8* @__cxa_begin_catch(i8* %118) #14
  call void @_ZdlPv(i8* nonnull %90) #14
  invoke void @__cxa_rethrow() #16
          to label %126 unwind label %121

120:                                              ; preds = %98
  call void @_ZdlPv(i8* nonnull %90) #14
  br label %127

121:                                              ; preds = %116
  %122 = landingpad { i8*, i32 }
          cleanup
  invoke void @__cxa_end_catch()
          to label %332 unwind label %123

123:                                              ; preds = %121
  %124 = landingpad { i8*, i32 }
          catch i8* null
  %125 = extractvalue { i8*, i32 } %124, 0
  call void @__clang_call_terminate(i8* %125) #17
  unreachable

126:                                              ; preds = %116
  unreachable

127:                                              ; preds = %82, %120, %111
  %128 = phi %"struct.std::_Rb_tree_node_base"* [ %75, %82 ], [ %99, %120 ], [ %113, %111 ]
  %129 = getelementptr inbounds %"struct.std::_Rb_tree_node_base", %"struct.std::_Rb_tree_node_base"* %128, i64 1, i32 1
  %130 = bitcast %"struct.std::_Rb_tree_node_base"** %129 to i64*
  %131 = sext i32 %60 to i64
  %132 = sext i32 %61 to i64
  %133 = mul nsw i64 %132, %131
  %134 = load i64, i64* %130, align 8, !tbaa !34
  %135 = add nsw i64 %134, %133
  store i64 %135, i64* %130, align 8, !tbaa !34
  %136 = ptrtoint i32* %52 to i64
  %137 = ptrtoint i32* %51 to i64
  %138 = sub i64 %136, %137
  %139 = icmp sgt i64 %138, 15
  br i1 %139, label %140, label %167

140:                                              ; preds = %127
  %141 = lshr i64 %138, 4
  %142 = load i32, i32* %3, align 4, !tbaa !26
  br label %143

143:                                              ; preds = %160, %140
  %144 = phi i64 [ %141, %140 ], [ %162, %160 ]
  %145 = phi i32* [ %51, %140 ], [ %161, %160 ]
  %146 = load i32, i32* %145, align 4, !tbaa !26
  %147 = icmp eq i32 %146, %142
  br i1 %147, label %201, label %148

148:                                              ; preds = %143
  %149 = getelementptr inbounds i32, i32* %145, i64 1
  %150 = load i32, i32* %149, align 4, !tbaa !26
  %151 = icmp eq i32 %150, %142
  br i1 %151, label %199, label %152

152:                                              ; preds = %148
  %153 = getelementptr inbounds i32, i32* %145, i64 2
  %154 = load i32, i32* %153, align 4, !tbaa !26
  %155 = icmp eq i32 %154, %142
  br i1 %155, label %197, label %156

156:                                              ; preds = %152
  %157 = getelementptr inbounds i32, i32* %145, i64 3
  %158 = load i32, i32* %157, align 4, !tbaa !26
  %159 = icmp eq i32 %158, %142
  br i1 %159, label %195, label %160

160:                                              ; preds = %156
  %161 = getelementptr inbounds i32, i32* %145, i64 4
  %162 = add nsw i64 %144, -1
  %163 = icmp sgt i64 %144, 1
  br i1 %163, label %143, label %164, !llvm.loop !35

164:                                              ; preds = %160
  %165 = ptrtoint i32* %161 to i64
  %166 = sub i64 %136, %165
  br label %167

167:                                              ; preds = %164, %127
  %168 = phi i64 [ %166, %164 ], [ %138, %127 ]
  %169 = phi i32* [ %161, %164 ], [ %51, %127 ]
  %170 = ashr exact i64 %168, 2
  switch i64 %170, label %171 [
    i64 3, label %177
    i64 2, label %175
    i64 1, label %173
  ]

171:                                              ; preds = %167
  %172 = load i32, i32* %3, align 4
  br label %205

173:                                              ; preds = %167
  %174 = load i32, i32* %3, align 4, !tbaa !26
  br label %190

175:                                              ; preds = %167
  %176 = load i32, i32* %3, align 4, !tbaa !26
  br label %183

177:                                              ; preds = %167
  %178 = load i32, i32* %169, align 4, !tbaa !26
  %179 = load i32, i32* %3, align 4, !tbaa !26
  %180 = icmp eq i32 %178, %179
  br i1 %180, label %201, label %181

181:                                              ; preds = %177
  %182 = getelementptr inbounds i32, i32* %169, i64 1
  br label %183

183:                                              ; preds = %181, %175
  %184 = phi i32 [ %176, %175 ], [ %179, %181 ]
  %185 = phi i32* [ %169, %175 ], [ %182, %181 ]
  %186 = load i32, i32* %185, align 4, !tbaa !26
  %187 = icmp eq i32 %186, %184
  br i1 %187, label %201, label %188

188:                                              ; preds = %183
  %189 = getelementptr inbounds i32, i32* %185, i64 1
  br label %190

190:                                              ; preds = %188, %173
  %191 = phi i32 [ %174, %173 ], [ %184, %188 ]
  %192 = phi i32* [ %169, %173 ], [ %189, %188 ]
  %193 = load i32, i32* %192, align 4, !tbaa !26
  %194 = icmp eq i32 %193, %191
  br i1 %194, label %201, label %205

195:                                              ; preds = %156
  %196 = getelementptr inbounds i32, i32* %145, i64 3
  br label %201

197:                                              ; preds = %152
  %198 = getelementptr inbounds i32, i32* %145, i64 2
  br label %201

199:                                              ; preds = %148
  %200 = getelementptr inbounds i32, i32* %145, i64 1
  br label %201

201:                                              ; preds = %143, %195, %197, %199, %190, %183, %177
  %202 = phi i32 [ %178, %177 ], [ %184, %183 ], [ %191, %190 ], [ %142, %199 ], [ %142, %197 ], [ %142, %195 ], [ %142, %143 ]
  %203 = phi i32* [ %169, %177 ], [ %185, %183 ], [ %192, %190 ], [ %200, %199 ], [ %198, %197 ], [ %196, %195 ], [ %145, %143 ]
  %204 = icmp eq i32* %203, %52
  br i1 %204, label %205, label %322

205:                                              ; preds = %171, %190, %201
  %206 = phi i32 [ %172, %171 ], [ %191, %190 ], [ %202, %201 ]
  %207 = load %"struct.std::_Rb_tree_node"*, %"struct.std::_Rb_tree_node"** %21, align 8, !tbaa !22
  %208 = icmp eq %"struct.std::_Rb_tree_node"* %207, null
  br i1 %208, label %232, label %209

209:                                              ; preds = %205, %209
  %210 = phi %"struct.std::_Rb_tree_node"* [ %222, %209 ], [ %207, %205 ]
  %211 = phi %"struct.std::_Rb_tree_node_base"* [ %219, %209 ], [ %22, %205 ]
  %212 = getelementptr inbounds %"struct.std::_Rb_tree_node", %"struct.std::_Rb_tree_node"* %210, i64 0, i32 1
  %213 = bitcast %"struct.__gnu_cxx::__aligned_membuf"* %212 to i32*
  %214 = load i32, i32* %213, align 4, !tbaa !26
  %215 = icmp slt i32 %214, %206
  %216 = getelementptr inbounds %"struct.std::_Rb_tree_node", %"struct.std::_Rb_tree_node"* %210, i64 0, i32 0, i32 3
  %217 = getelementptr %"struct.std::_Rb_tree_node", %"struct.std::_Rb_tree_node"* %210, i64 0, i32 0
  %218 = getelementptr inbounds %"struct.std::_Rb_tree_node", %"struct.std::_Rb_tree_node"* %210, i64 0, i32 0, i32 2
  %219 = select i1 %215, %"struct.std::_Rb_tree_node_base"* %211, %"struct.std::_Rb_tree_node_base"* %217
  %220 = select i1 %215, %"struct.std::_Rb_tree_node_base"** %216, %"struct.std::_Rb_tree_node_base"** %218
  %221 = bitcast %"struct.std::_Rb_tree_node_base"** %220 to %"struct.std::_Rb_tree_node"**
  %222 = load %"struct.std::_Rb_tree_node"*, %"struct.std::_Rb_tree_node"** %221, align 8, !tbaa !27
  %223 = icmp eq %"struct.std::_Rb_tree_node"* %222, null
  br i1 %223, label %224, label %209, !llvm.loop !28

224:                                              ; preds = %209
  %225 = icmp eq %"struct.std::_Rb_tree_node_base"* %219, %22
  br i1 %225, label %232, label %226

226:                                              ; preds = %224
  %227 = getelementptr inbounds %"struct.std::_Rb_tree_node_base", %"struct.std::_Rb_tree_node_base"* %211, i64 1, i32 0
  %228 = getelementptr inbounds %"struct.std::_Rb_tree_node_base", %"struct.std::_Rb_tree_node_base"* %217, i64 1, i32 0
  %229 = select i1 %215, i32* %227, i32* %228
  %230 = load i32, i32* %229, align 4, !tbaa !26
  %231 = icmp slt i32 %206, %230
  br i1 %231, label %232, label %271

232:                                              ; preds = %226, %224, %205
  %233 = phi %"struct.std::_Rb_tree_node_base"* [ %219, %226 ], [ %22, %224 ], [ %22, %205 ]
  %234 = invoke noalias nonnull i8* @_Znwm(i64 48) #15
          to label %235 unwind label %320

235:                                              ; preds = %232
  %236 = getelementptr inbounds i8, i8* %234, i64 32
  %237 = bitcast i8* %236 to i32*
  %238 = load i32, i32* %3, align 4, !tbaa !26
  store i32 %238, i32* %237, align 8, !tbaa !30
  %239 = getelementptr inbounds i8, i8* %234, i64 40
  %240 = bitcast i8* %239 to i64*
  store i64 0, i64* %240, align 8, !tbaa !33
  %241 = invoke { %"struct.std::_Rb_tree_node_base"*, %"struct.std::_Rb_tree_node_base"* } @_ZNSt8_Rb_treeIiSt4pairIKixESt10_Select1stIS2_ESt4lessIiESaIS2_EE29_M_get_insert_hint_unique_posESt23_Rb_tree_const_iteratorIS2_ERS1_(%"class.std::_Rb_tree"* nonnull align 8 dereferenceable(48) %23, %"struct.std::_Rb_tree_node_base"* %233, i32* nonnull align 4 dereferenceable(4) %237)
          to label %242 unwind label %260

242:                                              ; preds = %235
  %243 = extractvalue { %"struct.std::_Rb_tree_node_base"*, %"struct.std::_Rb_tree_node_base"* } %241, 0
  %244 = extractvalue { %"struct.std::_Rb_tree_node_base"*, %"struct.std::_Rb_tree_node_base"* } %241, 1
  %245 = icmp eq %"struct.std::_Rb_tree_node_base"* %244, null
  br i1 %245, label %264, label %246

246:                                              ; preds = %242
  %247 = icmp ne %"struct.std::_Rb_tree_node_base"* %243, null
  %248 = icmp eq %"struct.std::_Rb_tree_node_base"* %244, %22
  %249 = select i1 %247, i1 true, i1 %248
  br i1 %249, label %255, label %250

250:                                              ; preds = %246
  %251 = getelementptr inbounds %"struct.std::_Rb_tree_node_base", %"struct.std::_Rb_tree_node_base"* %244, i64 1, i32 0
  %252 = load i32, i32* %237, align 4, !tbaa !26
  %253 = load i32, i32* %251, align 4, !tbaa !26
  %254 = icmp slt i32 %252, %253
  br label %255

255:                                              ; preds = %250, %246
  %256 = phi i1 [ %254, %250 ], [ true, %246 ]
  %257 = bitcast i8* %234 to %"struct.std::_Rb_tree_node_base"*
  call void @_ZSt29_Rb_tree_insert_and_rebalancebPSt18_Rb_tree_node_baseS0_RS_(i1 zeroext %256, %"struct.std::_Rb_tree_node_base"* nonnull %257, %"struct.std::_Rb_tree_node_base"* nonnull %244, %"struct.std::_Rb_tree_node_base"* nonnull align 8 dereferenceable(32) %22) #14
  %258 = load i64, i64* %17, align 8, !tbaa !25
  %259 = add i64 %258, 1
  store i64 %259, i64* %17, align 8, !tbaa !25
  br label %271

260:                                              ; preds = %235
  %261 = landingpad { i8*, i32 }
          catch i8* null
  %262 = extractvalue { i8*, i32 } %261, 0
  %263 = call i8* @__cxa_begin_catch(i8* %262) #14
  call void @_ZdlPv(i8* nonnull %234) #14
  invoke void @__cxa_rethrow() #16
          to label %270 unwind label %265

264:                                              ; preds = %242
  call void @_ZdlPv(i8* nonnull %234) #14
  br label %271

265:                                              ; preds = %260
  %266 = landingpad { i8*, i32 }
          cleanup
  invoke void @__cxa_end_catch()
          to label %332 unwind label %267

267:                                              ; preds = %265
  %268 = landingpad { i8*, i32 }
          catch i8* null
  %269 = extractvalue { i8*, i32 } %268, 0
  call void @__clang_call_terminate(i8* %269) #17
  unreachable

270:                                              ; preds = %260
  unreachable

271:                                              ; preds = %226, %264, %255
  %272 = phi %"struct.std::_Rb_tree_node_base"* [ %219, %226 ], [ %243, %264 ], [ %257, %255 ]
  %273 = getelementptr inbounds %"struct.std::_Rb_tree_node_base", %"struct.std::_Rb_tree_node_base"* %272, i64 1, i32 1
  %274 = bitcast %"struct.std::_Rb_tree_node_base"** %273 to i64*
  %275 = load i64, i64* %274, align 8, !tbaa !34
  %276 = icmp sgt i64 %275, 999999
  br i1 %276, label %277, label %322

277:                                              ; preds = %271
  %278 = icmp eq i32* %52, %53
  br i1 %278, label %282, label %279

279:                                              ; preds = %277
  %280 = load i32, i32* %3, align 4, !tbaa !26
  store i32 %280, i32* %52, align 4, !tbaa !26
  %281 = getelementptr inbounds i32, i32* %52, i64 1
  br label %322

282:                                              ; preds = %277
  %283 = ashr exact i64 %138, 2
  %284 = icmp eq i64 %138, 9223372036854775804
  br i1 %284, label %285, label %287

285:                                              ; preds = %282
  invoke void @_ZSt20__throw_length_errorPKc(i8* getelementptr inbounds ([26 x i8], [26 x i8]* @.str.1, i64 0, i64 0)) #16
          to label %286 unwind label %318

286:                                              ; preds = %285
  unreachable

287:                                              ; preds = %282
  %288 = icmp eq i64 %138, 0
  %289 = select i1 %288, i64 1, i64 %283
  %290 = add nsw i64 %289, %283
  %291 = icmp ult i64 %290, %283
  %292 = icmp ugt i64 %290, 2305843009213693951
  %293 = or i1 %291, %292
  %294 = select i1 %293, i64 2305843009213693951, i64 %290
  %295 = icmp eq i64 %294, 0
  br i1 %295, label %301, label %296

296:                                              ; preds = %287
  %297 = shl nuw nsw i64 %294, 2
  %298 = invoke noalias nonnull i8* @_Znwm(i64 %297) #15
          to label %299 unwind label %316

299:                                              ; preds = %296
  %300 = bitcast i8* %298 to i32*
  br label %301

301:                                              ; preds = %299, %287
  %302 = phi i32* [ %300, %299 ], [ null, %287 ]
  %303 = getelementptr inbounds i32, i32* %302, i64 %283
  %304 = load i32, i32* %3, align 4, !tbaa !26
  store i32 %304, i32* %303, align 4, !tbaa !26
  %305 = icmp sgt i64 %138, 0
  br i1 %305, label %306, label %309

306:                                              ; preds = %301
  %307 = bitcast i32* %302 to i8*
  %308 = bitcast i32* %51 to i8*
  call void @llvm.memmove.p0i8.p0i8.i64(i8* align 4 %307, i8* align 4 %308, i64 %138, i1 false) #14
  br label %309

309:                                              ; preds = %306, %301
  %310 = getelementptr inbounds i32, i32* %303, i64 1
  %311 = icmp eq i32* %51, null
  br i1 %311, label %314, label %312

312:                                              ; preds = %309
  %313 = bitcast i32* %51 to i8*
  call void @_ZdlPv(i8* nonnull %313) #14
  br label %314

314:                                              ; preds = %312, %309
  %315 = getelementptr inbounds i32, i32* %302, i64 %294
  br label %322

316:                                              ; preds = %48, %55, %57, %296, %88
  %317 = landingpad { i8*, i32 }
          cleanup
  br label %332

318:                                              ; preds = %285
  %319 = landingpad { i8*, i32 }
          cleanup
  br label %332

320:                                              ; preds = %232
  %321 = landingpad { i8*, i32 }
          cleanup
  br label %332

322:                                              ; preds = %201, %314, %279, %271
  %323 = phi i32* [ %53, %271 ], [ %315, %314 ], [ %53, %279 ], [ %53, %201 ]
  %324 = phi i32* [ %52, %271 ], [ %310, %314 ], [ %281, %279 ], [ %52, %201 ]
  %325 = phi i32* [ %51, %271 ], [ %302, %314 ], [ %51, %279 ], [ %51, %201 ]
  %326 = phi i8 [ %49, %271 ], [ 1, %314 ], [ 1, %279 ], [ %49, %201 ]
  call void @llvm.lifetime.end.p0i8(i64 4, i8* nonnull %20) #14
  call void @llvm.lifetime.end.p0i8(i64 4, i8* nonnull %19) #14
  call void @llvm.lifetime.end.p0i8(i64 4, i8* nonnull %18) #14
  %327 = add nuw nsw i32 %50, 1
  %328 = load i32, i32* %1, align 4, !tbaa !26
  %329 = icmp slt i32 %328, 4000
  %330 = select i1 %329, i32 %328, i32 4000
  %331 = icmp slt i32 %327, %330
  br i1 %331, label %48, label %43, !llvm.loop !36

332:                                              ; preds = %316, %318, %265, %320, %121
  %333 = phi { i8*, i32 } [ %122, %121 ], [ %321, %320 ], [ %266, %265 ], [ %317, %316 ], [ %319, %318 ]
  call void @llvm.lifetime.end.p0i8(i64 4, i8* nonnull %20) #14
  call void @llvm.lifetime.end.p0i8(i64 4, i8* nonnull %19) #14
  call void @llvm.lifetime.end.p0i8(i64 4, i8* nonnull %18) #14
  br label %443

334:                                              ; preds = %46, %371
  %335 = phi i32* [ %372, %371 ], [ %325, %46 ]
  %336 = load i32, i32* %335, align 4, !tbaa !26
  %337 = invoke nonnull align 8 dereferenceable(8) %"class.std::basic_ostream"* @_ZNSolsEi(%"class.std::basic_ostream"* nonnull align 8 dereferenceable(8) @_ZSt4cout, i32 %336)
          to label %338 unwind label %374

338:                                              ; preds = %334
  %339 = bitcast %"class.std::basic_ostream"* %337 to i8**
  %340 = load i8*, i8** %339, align 8, !tbaa !5
  %341 = getelementptr i8, i8* %340, i64 -24
  %342 = bitcast i8* %341 to i64*
  %343 = load i64, i64* %342, align 8
  %344 = bitcast %"class.std::basic_ostream"* %337 to i8*
  %345 = add nsw i64 %343, 240
  %346 = getelementptr inbounds i8, i8* %344, i64 %345
  %347 = bitcast i8* %346 to %"class.std::ctype"**
  %348 = load %"class.std::ctype"*, %"class.std::ctype"** %347, align 8, !tbaa !37
  %349 = icmp eq %"class.std::ctype"* %348, null
  br i1 %349, label %350, label %352

350:                                              ; preds = %338
  invoke void @_ZSt16__throw_bad_castv() #16
          to label %351 unwind label %376

351:                                              ; preds = %350
  unreachable

352:                                              ; preds = %338
  %353 = getelementptr inbounds %"class.std::ctype", %"class.std::ctype"* %348, i64 0, i32 8
  %354 = load i8, i8* %353, align 8, !tbaa !40
  %355 = icmp eq i8 %354, 0
  br i1 %355, label %359, label %356

356:                                              ; preds = %352
  %357 = getelementptr inbounds %"class.std::ctype", %"class.std::ctype"* %348, i64 0, i32 9, i64 10
  %358 = load i8, i8* %357, align 1, !tbaa !42
  br label %366

359:                                              ; preds = %352
  invoke void @_ZNKSt5ctypeIcE13_M_widen_initEv(%"class.std::ctype"* nonnull align 8 dereferenceable(570) %348)
          to label %360 unwind label %374

360:                                              ; preds = %359
  %361 = bitcast %"class.std::ctype"* %348 to i8 (%"class.std::ctype"*, i8)***
  %362 = load i8 (%"class.std::ctype"*, i8)**, i8 (%"class.std::ctype"*, i8)*** %361, align 8, !tbaa !5
  %363 = getelementptr inbounds i8 (%"class.std::ctype"*, i8)*, i8 (%"class.std::ctype"*, i8)** %362, i64 6
  %364 = load i8 (%"class.std::ctype"*, i8)*, i8 (%"class.std::ctype"*, i8)** %363, align 8
  %365 = invoke signext i8 %364(%"class.std::ctype"* nonnull align 8 dereferenceable(570) %348, i8 signext 10)
          to label %366 unwind label %374

366:                                              ; preds = %360, %356
  %367 = phi i8 [ %358, %356 ], [ %365, %360 ]
  %368 = invoke nonnull align 8 dereferenceable(8) %"class.std::basic_ostream"* @_ZNSo3putEc(%"class.std::basic_ostream"* nonnull align 8 dereferenceable(8) %337, i8 signext %367)
          to label %369 unwind label %374

369:                                              ; preds = %366
  %370 = invoke nonnull align 8 dereferenceable(8) %"class.std::basic_ostream"* @_ZNSo5flushEv(%"class.std::basic_ostream"* nonnull align 8 dereferenceable(8) %368)
          to label %371 unwind label %374

371:                                              ; preds = %369
  %372 = getelementptr inbounds i32, i32* %335, i64 1
  %373 = icmp eq i32* %372, %324
  br i1 %373, label %416, label %334, !llvm.loop !43

374:                                              ; preds = %334, %359, %360, %366, %369
  %375 = landingpad { i8*, i32 }
          cleanup
  br label %443

376:                                              ; preds = %350
  %377 = landingpad { i8*, i32 }
          cleanup
  br label %443

378:                                              ; preds = %40, %43
  %379 = phi i32* [ %325, %43 ], [ null, %40 ]
  %380 = invoke nonnull align 8 dereferenceable(8) %"class.std::basic_ostream"* @_ZSt16__ostream_insertIcSt11char_traitsIcEERSt13basic_ostreamIT_T0_ES6_PKS3_l(%"class.std::basic_ostream"* nonnull align 8 dereferenceable(8) @_ZSt4cout, i8* nonnull getelementptr inbounds ([3 x i8], [3 x i8]* @.str, i64 0, i64 0), i64 2)
          to label %381 unwind label %412

381:                                              ; preds = %378
  %382 = load i8*, i8** bitcast (%"class.std::basic_ostream"* @_ZSt4cout to i8**), align 8, !tbaa !5
  %383 = getelementptr i8, i8* %382, i64 -24
  %384 = bitcast i8* %383 to i64*
  %385 = load i64, i64* %384, align 8
  %386 = add nsw i64 %385, 240
  %387 = getelementptr inbounds i8, i8* bitcast (%"class.std::basic_ostream"* @_ZSt4cout to i8*), i64 %386
  %388 = bitcast i8* %387 to %"class.std::ctype"**
  %389 = load %"class.std::ctype"*, %"class.std::ctype"** %388, align 8, !tbaa !37
  %390 = icmp eq %"class.std::ctype"* %389, null
  br i1 %390, label %391, label %393

391:                                              ; preds = %381
  invoke void @_ZSt16__throw_bad_castv() #16
          to label %392 unwind label %414

392:                                              ; preds = %391
  unreachable

393:                                              ; preds = %381
  %394 = getelementptr inbounds %"class.std::ctype", %"class.std::ctype"* %389, i64 0, i32 8
  %395 = load i8, i8* %394, align 8, !tbaa !40
  %396 = icmp eq i8 %395, 0
  br i1 %396, label %400, label %397

397:                                              ; preds = %393
  %398 = getelementptr inbounds %"class.std::ctype", %"class.std::ctype"* %389, i64 0, i32 9, i64 10
  %399 = load i8, i8* %398, align 1, !tbaa !42
  br label %407

400:                                              ; preds = %393
  invoke void @_ZNKSt5ctypeIcE13_M_widen_initEv(%"class.std::ctype"* nonnull align 8 dereferenceable(570) %389)
          to label %401 unwind label %412

401:                                              ; preds = %400
  %402 = bitcast %"class.std::ctype"* %389 to i8 (%"class.std::ctype"*, i8)***
  %403 = load i8 (%"class.std::ctype"*, i8)**, i8 (%"class.std::ctype"*, i8)*** %402, align 8, !tbaa !5
  %404 = getelementptr inbounds i8 (%"class.std::ctype"*, i8)*, i8 (%"class.std::ctype"*, i8)** %403, i64 6
  %405 = load i8 (%"class.std::ctype"*, i8)*, i8 (%"class.std::ctype"*, i8)** %404, align 8
  %406 = invoke signext i8 %405(%"class.std::ctype"* nonnull align 8 dereferenceable(570) %389, i8 signext 10)
          to label %407 unwind label %412

407:                                              ; preds = %401, %397
  %408 = phi i8 [ %399, %397 ], [ %406, %401 ]
  %409 = invoke nonnull align 8 dereferenceable(8) %"class.std::basic_ostream"* @_ZNSo3putEc(%"class.std::basic_ostream"* nonnull align 8 dereferenceable(8) @_ZSt4cout, i8 signext %408)
          to label %410 unwind label %412

410:                                              ; preds = %407
  %411 = invoke nonnull align 8 dereferenceable(8) %"class.std::basic_ostream"* @_ZNSo5flushEv(%"class.std::basic_ostream"* nonnull align 8 dereferenceable(8) %409)
          to label %416 unwind label %412

412:                                              ; preds = %378, %400, %401, %407, %410
  %413 = landingpad { i8*, i32 }
          cleanup
  br label %443

414:                                              ; preds = %391
  %415 = landingpad { i8*, i32 }
          cleanup
  br label %443

416:                                              ; preds = %371, %46, %410
  %417 = phi i32* [ %325, %46 ], [ %379, %410 ], [ %325, %371 ]
  %418 = load %"struct.std::_Rb_tree_node"*, %"struct.std::_Rb_tree_node"** %21, align 8, !tbaa !22
  invoke void @_ZNSt8_Rb_treeIiSt4pairIKixESt10_Select1stIS2_ESt4lessIiESaIS2_EE8_M_eraseEPSt13_Rb_tree_nodeIS2_E(%"class.std::_Rb_tree"* nonnull align 8 dereferenceable(48) %23, %"struct.std::_Rb_tree_node"* %418)
          to label %422 unwind label %419

419:                                              ; preds = %416
  %420 = landingpad { i8*, i32 }
          catch i8* null
  %421 = extractvalue { i8*, i32 } %420, 0
  call void @__clang_call_terminate(i8* %421) #17
  unreachable

422:                                              ; preds = %416
  call void @llvm.lifetime.end.p0i8(i64 48, i8* nonnull %7) #14
  %423 = icmp eq i32* %417, null
  br i1 %423, label %426, label %424

424:                                              ; preds = %422
  %425 = bitcast i32* %417 to i8*
  call void @_ZdlPv(i8* nonnull %425) #14
  br label %426

426:                                              ; preds = %422, %424
  %427 = call nonnull align 8 dereferenceable(16) %"class.std::basic_istream"* @_ZNSirsERi(%"class.std::basic_istream"* nonnull align 8 dereferenceable(16) @_ZSt3cin, i32* nonnull align 4 dereferenceable(4) %1)
  %428 = bitcast %"class.std::basic_istream"* %427 to i8**
  %429 = load i8*, i8** %428, align 8, !tbaa !5
  %430 = getelementptr i8, i8* %429, i64 -24
  %431 = bitcast i8* %430 to i64*
  %432 = load i64, i64* %431, align 8
  %433 = bitcast %"class.std::basic_istream"* %427 to i8*
  %434 = add nsw i64 %432, 32
  %435 = getelementptr inbounds i8, i8* %433, i64 %434
  %436 = bitcast i8* %435 to i32*
  %437 = load i32, i32* %436, align 8, !tbaa !8
  %438 = and i32 %437, 5
  %439 = icmp eq i32 %438, 0
  %440 = load i32, i32* %1, align 4
  %441 = icmp ne i32 %440, 0
  %442 = select i1 %439, i1 %441, i1 false
  br i1 %442, label %40, label %450, !llvm.loop !44

443:                                              ; preds = %412, %414, %374, %376, %332
  %444 = phi i32* [ %51, %332 ], [ %325, %374 ], [ %325, %376 ], [ %379, %412 ], [ %379, %414 ]
  %445 = phi { i8*, i32 } [ %333, %332 ], [ %375, %374 ], [ %377, %376 ], [ %413, %412 ], [ %415, %414 ]
  call void @_ZNSt8_Rb_treeIiSt4pairIKixESt10_Select1stIS2_ESt4lessIiESaIS2_EED2Ev(%"class.std::_Rb_tree"* nonnull align 8 dereferenceable(48) %23) #14
  call void @llvm.lifetime.end.p0i8(i64 48, i8* nonnull %7) #14
  %446 = icmp eq i32* %444, null
  br i1 %446, label %449, label %447

447:                                              ; preds = %443
  %448 = bitcast i32* %444 to i8*
  call void @_ZdlPv(i8* nonnull %448) #14
  br label %449

449:                                              ; preds = %443, %447
  call void @llvm.lifetime.end.p0i8(i64 4, i8* nonnull %6) #14
  resume { i8*, i32 } %445

450:                                              ; preds = %426, %0
  call void @llvm.lifetime.end.p0i8(i64 4, i8* nonnull %6) #14
  ret i32 0
}

; Function Attrs: argmemonly mustprogress nofree nosync nounwind willreturn
declare void @llvm.lifetime.start.p0i8(i64 immarg, i8* nocapture) #4

declare nonnull align 8 dereferenceable(16) %"class.std::basic_istream"* @_ZNSirsERi(%"class.std::basic_istream"* nonnull align 8 dereferenceable(16), i32* nonnull align 4 dereferenceable(4)) local_unnamed_addr #0

declare i32 @__gxx_personality_v0(...)

; Function Attrs: argmemonly mustprogress nofree nosync nounwind willreturn
declare void @llvm.lifetime.end.p0i8(i64 immarg, i8* nocapture) #4

declare nonnull align 8 dereferenceable(8) %"class.std::basic_ostream"* @_ZNSolsEi(%"class.std::basic_ostream"* nonnull align 8 dereferenceable(8), i32) local_unnamed_addr #0

; Function Attrs: noinline noreturn nounwind
define linkonce_odr hidden void @__clang_call_terminate(i8* %0) local_unnamed_addr #5 comdat {
  %2 = tail call i8* @__cxa_begin_catch(i8* %0) #14
  tail call void @_ZSt9terminatev() #17
  unreachable
}

declare i8* @__cxa_begin_catch(i8*) local_unnamed_addr

declare void @_ZSt9terminatev() local_unnamed_addr

; Function Attrs: nounwind sspstrong uwtable
define linkonce_odr dso_local void @_ZNSt8_Rb_treeIiSt4pairIKixESt10_Select1stIS2_ESt4lessIiESaIS2_EED2Ev(%"class.std::_Rb_tree"* nonnull align 8 dereferenceable(48) %0) unnamed_addr #6 comdat align 2 personality i8* bitcast (i32 (...)* @__gxx_personality_v0 to i8*) {
  %2 = getelementptr inbounds %"class.std::_Rb_tree", %"class.std::_Rb_tree"* %0, i64 0, i32 0, i32 0, i32 0, i32 0
  %3 = getelementptr inbounds i8, i8* %2, i64 16
  %4 = bitcast i8* %3 to %"struct.std::_Rb_tree_node"**
  %5 = load %"struct.std::_Rb_tree_node"*, %"struct.std::_Rb_tree_node"** %4, align 8, !tbaa !22
  invoke void @_ZNSt8_Rb_treeIiSt4pairIKixESt10_Select1stIS2_ESt4lessIiESaIS2_EE8_M_eraseEPSt13_Rb_tree_nodeIS2_E(%"class.std::_Rb_tree"* nonnull align 8 dereferenceable(48) %0, %"struct.std::_Rb_tree_node"* %5)
          to label %6 unwind label %7

6:                                                ; preds = %1
  ret void

7:                                                ; preds = %1
  %8 = landingpad { i8*, i32 }
          catch i8* null
  %9 = extractvalue { i8*, i32 } %8, 0
  tail call void @__clang_call_terminate(i8* %9) #17
  unreachable
}

; Function Attrs: mustprogress sspstrong uwtable
define linkonce_odr dso_local void @_ZNSt8_Rb_treeIiSt4pairIKixESt10_Select1stIS2_ESt4lessIiESaIS2_EE8_M_eraseEPSt13_Rb_tree_nodeIS2_E(%"class.std::_Rb_tree"* nonnull align 8 dereferenceable(48) %0, %"struct.std::_Rb_tree_node"* %1) local_unnamed_addr #7 comdat align 2 personality i32 (...)* @__gxx_personality_v0 {
  %3 = icmp eq %"struct.std::_Rb_tree_node"* %1, null
  br i1 %3, label %14, label %4

4:                                                ; preds = %2, %4
  %5 = phi %"struct.std::_Rb_tree_node"* [ %11, %4 ], [ %1, %2 ]
  %6 = getelementptr inbounds %"struct.std::_Rb_tree_node", %"struct.std::_Rb_tree_node"* %5, i64 0, i32 0, i32 3
  %7 = bitcast %"struct.std::_Rb_tree_node_base"** %6 to %"struct.std::_Rb_tree_node"**
  %8 = load %"struct.std::_Rb_tree_node"*, %"struct.std::_Rb_tree_node"** %7, align 8, !tbaa !45
  tail call void @_ZNSt8_Rb_treeIiSt4pairIKixESt10_Select1stIS2_ESt4lessIiESaIS2_EE8_M_eraseEPSt13_Rb_tree_nodeIS2_E(%"class.std::_Rb_tree"* nonnull align 8 dereferenceable(48) %0, %"struct.std::_Rb_tree_node"* %8)
  %9 = getelementptr inbounds %"struct.std::_Rb_tree_node", %"struct.std::_Rb_tree_node"* %5, i64 0, i32 0, i32 2
  %10 = bitcast %"struct.std::_Rb_tree_node_base"** %9 to %"struct.std::_Rb_tree_node"**
  %11 = load %"struct.std::_Rb_tree_node"*, %"struct.std::_Rb_tree_node"** %10, align 8, !tbaa !46
  %12 = bitcast %"struct.std::_Rb_tree_node"* %5 to i8*
  tail call void @_ZdlPv(i8* nonnull %12) #14
  %13 = icmp eq %"struct.std::_Rb_tree_node"* %11, null
  br i1 %13, label %14, label %4, !llvm.loop !47

14:                                               ; preds = %4, %2
  ret void
}

; Function Attrs: nobuiltin nounwind
declare void @_ZdlPv(i8*) local_unnamed_addr #8

; Function Attrs: sspstrong uwtable
define linkonce_odr dso_local { %"struct.std::_Rb_tree_node_base"*, %"struct.std::_Rb_tree_node_base"* } @_ZNSt8_Rb_treeIiSt4pairIKixESt10_Select1stIS2_ESt4lessIiESaIS2_EE29_M_get_insert_hint_unique_posESt23_Rb_tree_const_iteratorIS2_ERS1_(%"class.std::_Rb_tree"* nonnull align 8 dereferenceable(48) %0, %"struct.std::_Rb_tree_node_base"* %1, i32* nonnull align 4 dereferenceable(4) %2) local_unnamed_addr #9 comdat align 2 {
  %4 = getelementptr inbounds %"class.std::_Rb_tree", %"class.std::_Rb_tree"* %0, i64 0, i32 0, i32 0, i32 0, i32 0
  %5 = getelementptr inbounds i8, i8* %4, i64 8
  %6 = bitcast i8* %5 to %"struct.std::_Rb_tree_node_base"*
  %7 = icmp eq %"struct.std::_Rb_tree_node_base"* %6, %1
  br i1 %7, label %8, label %59

8:                                                ; preds = %3
  %9 = getelementptr inbounds i8, i8* %4, i64 40
  %10 = bitcast i8* %9 to i64*
  %11 = load i64, i64* %10, align 8, !tbaa !25
  %12 = icmp eq i64 %11, 0
  br i1 %12, label %13, label %15

13:                                               ; preds = %8
  %14 = load i32, i32* %2, align 4
  br label %23

15:                                               ; preds = %8
  %16 = getelementptr inbounds i8, i8* %4, i64 32
  %17 = bitcast i8* %16 to %"struct.std::_Rb_tree_node_base"**
  %18 = load %"struct.std::_Rb_tree_node_base"*, %"struct.std::_Rb_tree_node_base"** %17, align 8, !tbaa !27
  %19 = getelementptr inbounds %"struct.std::_Rb_tree_node_base", %"struct.std::_Rb_tree_node_base"* %18, i64 1, i32 0
  %20 = load i32, i32* %19, align 4, !tbaa !26
  %21 = load i32, i32* %2, align 4, !tbaa !26
  %22 = icmp slt i32 %20, %21
  br i1 %22, label %167, label %23

23:                                               ; preds = %13, %15
  %24 = phi i32 [ %14, %13 ], [ %21, %15 ]
  %25 = getelementptr inbounds i8, i8* %4, i64 16
  %26 = bitcast i8* %25 to %"struct.std::_Rb_tree_node"**
  %27 = load %"struct.std::_Rb_tree_node"*, %"struct.std::_Rb_tree_node"** %26, align 8, !tbaa !27
  %28 = icmp eq %"struct.std::_Rb_tree_node"* %27, null
  br i1 %28, label %43, label %29

29:                                               ; preds = %23, %29
  %30 = phi %"struct.std::_Rb_tree_node"* [ %39, %29 ], [ %27, %23 ]
  %31 = getelementptr inbounds %"struct.std::_Rb_tree_node", %"struct.std::_Rb_tree_node"* %30, i64 0, i32 1
  %32 = bitcast %"struct.__gnu_cxx::__aligned_membuf"* %31 to i32*
  %33 = load i32, i32* %32, align 4, !tbaa !26
  %34 = icmp slt i32 %24, %33
  %35 = getelementptr inbounds %"struct.std::_Rb_tree_node", %"struct.std::_Rb_tree_node"* %30, i64 0, i32 0, i32 2
  %36 = getelementptr inbounds %"struct.std::_Rb_tree_node", %"struct.std::_Rb_tree_node"* %30, i64 0, i32 0, i32 3
  %37 = select i1 %34, %"struct.std::_Rb_tree_node_base"** %35, %"struct.std::_Rb_tree_node_base"** %36
  %38 = bitcast %"struct.std::_Rb_tree_node_base"** %37 to %"struct.std::_Rb_tree_node"**
  %39 = load %"struct.std::_Rb_tree_node"*, %"struct.std::_Rb_tree_node"** %38, align 8, !tbaa !27
  %40 = icmp eq %"struct.std::_Rb_tree_node"* %39, null
  br i1 %40, label %41, label %29, !llvm.loop !48

41:                                               ; preds = %29
  %42 = getelementptr %"struct.std::_Rb_tree_node", %"struct.std::_Rb_tree_node"* %30, i64 0, i32 0
  br i1 %34, label %43, label %51

43:                                               ; preds = %41, %23
  %44 = phi %"struct.std::_Rb_tree_node_base"* [ %42, %41 ], [ %1, %23 ]
  %45 = getelementptr inbounds i8, i8* %4, i64 24
  %46 = bitcast i8* %45 to %"struct.std::_Rb_tree_node_base"**
  %47 = load %"struct.std::_Rb_tree_node_base"*, %"struct.std::_Rb_tree_node_base"** %46, align 8, !tbaa !23
  %48 = icmp eq %"struct.std::_Rb_tree_node_base"* %44, %47
  br i1 %48, label %167, label %49

49:                                               ; preds = %43
  %50 = tail call %"struct.std::_Rb_tree_node_base"* @_ZSt18_Rb_tree_decrementPSt18_Rb_tree_node_base(%"struct.std::_Rb_tree_node_base"* %44) #18
  br label %51

51:                                               ; preds = %49, %41
  %52 = phi %"struct.std::_Rb_tree_node_base"* [ %44, %49 ], [ %42, %41 ]
  %53 = phi %"struct.std::_Rb_tree_node_base"* [ %50, %49 ], [ %42, %41 ]
  %54 = getelementptr inbounds %"struct.std::_Rb_tree_node_base", %"struct.std::_Rb_tree_node_base"* %53, i64 1, i32 0
  %55 = load i32, i32* %54, align 4, !tbaa !26
  %56 = icmp slt i32 %55, %24
  %57 = select i1 %56, %"struct.std::_Rb_tree_node_base"* null, %"struct.std::_Rb_tree_node_base"* %53
  %58 = select i1 %56, %"struct.std::_Rb_tree_node_base"* %52, %"struct.std::_Rb_tree_node_base"* null
  br label %167

59:                                               ; preds = %3
  %60 = getelementptr inbounds %"struct.std::_Rb_tree_node_base", %"struct.std::_Rb_tree_node_base"* %1, i64 1, i32 0
  %61 = load i32, i32* %2, align 4, !tbaa !26
  %62 = load i32, i32* %60, align 4, !tbaa !26
  %63 = icmp slt i32 %61, %62
  br i1 %63, label %64, label %113

64:                                               ; preds = %59
  %65 = getelementptr inbounds i8, i8* %4, i64 24
  %66 = bitcast i8* %65 to %"struct.std::_Rb_tree_node_base"**
  %67 = load %"struct.std::_Rb_tree_node_base"*, %"struct.std::_Rb_tree_node_base"** %66, align 8, !tbaa !27
  %68 = icmp eq %"struct.std::_Rb_tree_node_base"* %67, %1
  br i1 %68, label %167, label %69

69:                                               ; preds = %64
  %70 = tail call %"struct.std::_Rb_tree_node_base"* @_ZSt18_Rb_tree_decrementPSt18_Rb_tree_node_base(%"struct.std::_Rb_tree_node_base"* nonnull %1) #18
  %71 = getelementptr inbounds %"struct.std::_Rb_tree_node_base", %"struct.std::_Rb_tree_node_base"* %70, i64 1, i32 0
  %72 = load i32, i32* %71, align 4, !tbaa !26
  %73 = icmp slt i32 %72, %61
  br i1 %73, label %74, label %81

74:                                               ; preds = %69
  %75 = getelementptr inbounds %"struct.std::_Rb_tree_node_base", %"struct.std::_Rb_tree_node_base"* %70, i64 0, i32 3
  %76 = bitcast %"struct.std::_Rb_tree_node_base"** %75 to %"struct.std::_Rb_tree_node"**
  %77 = load %"struct.std::_Rb_tree_node"*, %"struct.std::_Rb_tree_node"** %76, align 8, !tbaa !45
  %78 = icmp eq %"struct.std::_Rb_tree_node"* %77, null
  %79 = select i1 %78, %"struct.std::_Rb_tree_node_base"* null, %"struct.std::_Rb_tree_node_base"* %1
  %80 = select i1 %78, %"struct.std::_Rb_tree_node_base"* %70, %"struct.std::_Rb_tree_node_base"* %1
  br label %167

81:                                               ; preds = %69
  %82 = getelementptr inbounds i8, i8* %4, i64 16
  %83 = bitcast i8* %82 to %"struct.std::_Rb_tree_node"**
  %84 = load %"struct.std::_Rb_tree_node"*, %"struct.std::_Rb_tree_node"** %83, align 8, !tbaa !27
  %85 = icmp eq %"struct.std::_Rb_tree_node"* %84, null
  br i1 %85, label %100, label %86

86:                                               ; preds = %81, %86
  %87 = phi %"struct.std::_Rb_tree_node"* [ %96, %86 ], [ %84, %81 ]
  %88 = getelementptr inbounds %"struct.std::_Rb_tree_node", %"struct.std::_Rb_tree_node"* %87, i64 0, i32 1
  %89 = bitcast %"struct.__gnu_cxx::__aligned_membuf"* %88 to i32*
  %90 = load i32, i32* %89, align 4, !tbaa !26
  %91 = icmp slt i32 %61, %90
  %92 = getelementptr inbounds %"struct.std::_Rb_tree_node", %"struct.std::_Rb_tree_node"* %87, i64 0, i32 0, i32 2
  %93 = getelementptr inbounds %"struct.std::_Rb_tree_node", %"struct.std::_Rb_tree_node"* %87, i64 0, i32 0, i32 3
  %94 = select i1 %91, %"struct.std::_Rb_tree_node_base"** %92, %"struct.std::_Rb_tree_node_base"** %93
  %95 = bitcast %"struct.std::_Rb_tree_node_base"** %94 to %"struct.std::_Rb_tree_node"**
  %96 = load %"struct.std::_Rb_tree_node"*, %"struct.std::_Rb_tree_node"** %95, align 8, !tbaa !27
  %97 = icmp eq %"struct.std::_Rb_tree_node"* %96, null
  br i1 %97, label %98, label %86, !llvm.loop !48

98:                                               ; preds = %86
  %99 = getelementptr %"struct.std::_Rb_tree_node", %"struct.std::_Rb_tree_node"* %87, i64 0, i32 0
  br i1 %91, label %100, label %105

100:                                              ; preds = %98, %81
  %101 = phi %"struct.std::_Rb_tree_node_base"* [ %99, %98 ], [ %6, %81 ]
  %102 = icmp eq %"struct.std::_Rb_tree_node_base"* %101, %67
  br i1 %102, label %167, label %103

103:                                              ; preds = %100
  %104 = tail call %"struct.std::_Rb_tree_node_base"* @_ZSt18_Rb_tree_decrementPSt18_Rb_tree_node_base(%"struct.std::_Rb_tree_node_base"* %101) #18
  br label %105

105:                                              ; preds = %103, %98
  %106 = phi %"struct.std::_Rb_tree_node_base"* [ %101, %103 ], [ %99, %98 ]
  %107 = phi %"struct.std::_Rb_tree_node_base"* [ %104, %103 ], [ %99, %98 ]
  %108 = getelementptr inbounds %"struct.std::_Rb_tree_node_base", %"struct.std::_Rb_tree_node_base"* %107, i64 1, i32 0
  %109 = load i32, i32* %108, align 4, !tbaa !26
  %110 = icmp slt i32 %109, %61
  %111 = select i1 %110, %"struct.std::_Rb_tree_node_base"* null, %"struct.std::_Rb_tree_node_base"* %107
  %112 = select i1 %110, %"struct.std::_Rb_tree_node_base"* %106, %"struct.std::_Rb_tree_node_base"* null
  br label %167

113:                                              ; preds = %59
  %114 = icmp slt i32 %62, %61
  br i1 %114, label %115, label %167

115:                                              ; preds = %113
  %116 = getelementptr inbounds i8, i8* %4, i64 32
  %117 = bitcast i8* %116 to %"struct.std::_Rb_tree_node_base"**
  %118 = load %"struct.std::_Rb_tree_node_base"*, %"struct.std::_Rb_tree_node_base"** %117, align 8, !tbaa !27
  %119 = icmp eq %"struct.std::_Rb_tree_node_base"* %118, %1
  br i1 %119, label %167, label %120

120:                                              ; preds = %115
  %121 = tail call %"struct.std::_Rb_tree_node_base"* @_ZSt18_Rb_tree_incrementPSt18_Rb_tree_node_base(%"struct.std::_Rb_tree_node_base"* nonnull %1) #18
  %122 = getelementptr inbounds %"struct.std::_Rb_tree_node_base", %"struct.std::_Rb_tree_node_base"* %121, i64 1, i32 0
  %123 = load i32, i32* %122, align 4, !tbaa !26
  %124 = icmp slt i32 %61, %123
  br i1 %124, label %125, label %132

125:                                              ; preds = %120
  %126 = getelementptr inbounds %"struct.std::_Rb_tree_node_base", %"struct.std::_Rb_tree_node_base"* %1, i64 0, i32 3
  %127 = bitcast %"struct.std::_Rb_tree_node_base"** %126 to %"struct.std::_Rb_tree_node"**
  %128 = load %"struct.std::_Rb_tree_node"*, %"struct.std::_Rb_tree_node"** %127, align 8, !tbaa !45
  %129 = icmp eq %"struct.std::_Rb_tree_node"* %128, null
  %130 = select i1 %129, %"struct.std::_Rb_tree_node_base"* null, %"struct.std::_Rb_tree_node_base"* %121
  %131 = select i1 %129, %"struct.std::_Rb_tree_node_base"* %1, %"struct.std::_Rb_tree_node_base"* %121
  br label %167

132:                                              ; preds = %120
  %133 = getelementptr inbounds i8, i8* %4, i64 16
  %134 = bitcast i8* %133 to %"struct.std::_Rb_tree_node"**
  %135 = load %"struct.std::_Rb_tree_node"*, %"struct.std::_Rb_tree_node"** %134, align 8, !tbaa !27
  %136 = icmp eq %"struct.std::_Rb_tree_node"* %135, null
  br i1 %136, label %151, label %137

137:                                              ; preds = %132, %137
  %138 = phi %"struct.std::_Rb_tree_node"* [ %147, %137 ], [ %135, %132 ]
  %139 = getelementptr inbounds %"struct.std::_Rb_tree_node", %"struct.std::_Rb_tree_node"* %138, i64 0, i32 1
  %140 = bitcast %"struct.__gnu_cxx::__aligned_membuf"* %139 to i32*
  %141 = load i32, i32* %140, align 4, !tbaa !26
  %142 = icmp slt i32 %61, %141
  %143 = getelementptr inbounds %"struct.std::_Rb_tree_node", %"struct.std::_Rb_tree_node"* %138, i64 0, i32 0, i32 2
  %144 = getelementptr inbounds %"struct.std::_Rb_tree_node", %"struct.std::_Rb_tree_node"* %138, i64 0, i32 0, i32 3
  %145 = select i1 %142, %"struct.std::_Rb_tree_node_base"** %143, %"struct.std::_Rb_tree_node_base"** %144
  %146 = bitcast %"struct.std::_Rb_tree_node_base"** %145 to %"struct.std::_Rb_tree_node"**
  %147 = load %"struct.std::_Rb_tree_node"*, %"struct.std::_Rb_tree_node"** %146, align 8, !tbaa !27
  %148 = icmp eq %"struct.std::_Rb_tree_node"* %147, null
  br i1 %148, label %149, label %137, !llvm.loop !48

149:                                              ; preds = %137
  %150 = getelementptr %"struct.std::_Rb_tree_node", %"struct.std::_Rb_tree_node"* %138, i64 0, i32 0
  br i1 %142, label %151, label %159

151:                                              ; preds = %149, %132
  %152 = phi %"struct.std::_Rb_tree_node_base"* [ %150, %149 ], [ %6, %132 ]
  %153 = getelementptr inbounds i8, i8* %4, i64 24
  %154 = bitcast i8* %153 to %"struct.std::_Rb_tree_node_base"**
  %155 = load %"struct.std::_Rb_tree_node_base"*, %"struct.std::_Rb_tree_node_base"** %154, align 8, !tbaa !23
  %156 = icmp eq %"struct.std::_Rb_tree_node_base"* %152, %155
  br i1 %156, label %167, label %157

157:                                              ; preds = %151
  %158 = tail call %"struct.std::_Rb_tree_node_base"* @_ZSt18_Rb_tree_decrementPSt18_Rb_tree_node_base(%"struct.std::_Rb_tree_node_base"* %152) #18
  br label %159

159:                                              ; preds = %157, %149
  %160 = phi %"struct.std::_Rb_tree_node_base"* [ %152, %157 ], [ %150, %149 ]
  %161 = phi %"struct.std::_Rb_tree_node_base"* [ %158, %157 ], [ %150, %149 ]
  %162 = getelementptr inbounds %"struct.std::_Rb_tree_node_base", %"struct.std::_Rb_tree_node_base"* %161, i64 1, i32 0
  %163 = load i32, i32* %162, align 4, !tbaa !26
  %164 = icmp slt i32 %163, %61
  %165 = select i1 %164, %"struct.std::_Rb_tree_node_base"* null, %"struct.std::_Rb_tree_node_base"* %161
  %166 = select i1 %164, %"struct.std::_Rb_tree_node_base"* %160, %"struct.std::_Rb_tree_node_base"* null
  br label %167

167:                                              ; preds = %159, %151, %105, %100, %51, %43, %125, %74, %113, %115, %64, %15
  %168 = phi %"struct.std::_Rb_tree_node_base"* [ null, %15 ], [ %1, %64 ], [ null, %115 ], [ %1, %113 ], [ %79, %74 ], [ %130, %125 ], [ %57, %51 ], [ null, %43 ], [ %111, %105 ], [ null, %100 ], [ %165, %159 ], [ null, %151 ]
  %169 = phi %"struct.std::_Rb_tree_node_base"* [ %18, %15 ], [ %1, %64 ], [ %1, %115 ], [ null, %113 ], [ %80, %74 ], [ %131, %125 ], [ %58, %51 ], [ %44, %43 ], [ %112, %105 ], [ %67, %100 ], [ %166, %159 ], [ %152, %151 ]
  %170 = insertvalue { %"struct.std::_Rb_tree_node_base"*, %"struct.std::_Rb_tree_node_base"* } undef, %"struct.std::_Rb_tree_node_base"* %168, 0
  %171 = insertvalue { %"struct.std::_Rb_tree_node_base"*, %"struct.std::_Rb_tree_node_base"* } %170, %"struct.std::_Rb_tree_node_base"* %169, 1
  ret { %"struct.std::_Rb_tree_node_base"*, %"struct.std::_Rb_tree_node_base"* } %171
}

declare void @__cxa_rethrow() local_unnamed_addr

declare void @__cxa_end_catch() local_unnamed_addr

; Function Attrs: nobuiltin allocsize(0)
declare nonnull i8* @_Znwm(i64) local_unnamed_addr #10

; Function Attrs: mustprogress nofree nounwind readonly willreturn
declare %"struct.std::_Rb_tree_node_base"* @_ZSt18_Rb_tree_decrementPSt18_Rb_tree_node_base(%"struct.std::_Rb_tree_node_base"*) local_unnamed_addr #11

; Function Attrs: mustprogress nofree nounwind readonly willreturn
declare %"struct.std::_Rb_tree_node_base"* @_ZSt18_Rb_tree_incrementPSt18_Rb_tree_node_base(%"struct.std::_Rb_tree_node_base"*) local_unnamed_addr #11

; Function Attrs: nounwind
declare void @_ZSt29_Rb_tree_insert_and_rebalancebPSt18_Rb_tree_node_baseS0_RS_(i1 zeroext, %"struct.std::_Rb_tree_node_base"*, %"struct.std::_Rb_tree_node_base"*, %"struct.std::_Rb_tree_node_base"* nonnull align 8 dereferenceable(32)) local_unnamed_addr #1

; Function Attrs: noreturn
declare void @_ZSt20__throw_length_errorPKc(i8*) local_unnamed_addr #12

; Function Attrs: argmemonly mustprogress nofree nounwind willreturn
declare void @llvm.memmove.p0i8.p0i8.i64(i8* nocapture writeonly, i8* nocapture readonly, i64, i1 immarg) #13

declare nonnull align 8 dereferenceable(8) %"class.std::basic_ostream"* @_ZNSo3putEc(%"class.std::basic_ostream"* nonnull align 8 dereferenceable(8), i8 signext) local_unnamed_addr #0

declare nonnull align 8 dereferenceable(8) %"class.std::basic_ostream"* @_ZNSo5flushEv(%"class.std::basic_ostream"* nonnull align 8 dereferenceable(8)) local_unnamed_addr #0

; Function Attrs: noreturn
declare void @_ZSt16__throw_bad_castv() local_unnamed_addr #12

declare void @_ZNKSt5ctypeIcE13_M_widen_initEv(%"class.std::ctype"* nonnull align 8 dereferenceable(570)) local_unnamed_addr #0

declare nonnull align 8 dereferenceable(8) %"class.std::basic_ostream"* @_ZSt16__ostream_insertIcSt11char_traitsIcEERSt13basic_ostreamIT_T0_ES6_PKS3_l(%"class.std::basic_ostream"* nonnull align 8 dereferenceable(8), i8*, i64) local_unnamed_addr #0

; Function Attrs: sspstrong uwtable
define internal void @_GLOBAL__sub_I_s493698693.cpp() #9 section ".text.startup" {
  tail call void @_ZNSt8ios_base4InitC1Ev(%"class.std::ios_base::Init"* nonnull align 1 dereferenceable(1) @_ZStL8__ioinit)
  %1 = tail call i32 @__cxa_atexit(void (i8*)* bitcast (void (%"class.std::ios_base::Init"*)* @_ZNSt8ios_base4InitD1Ev to void (i8*)*), i8* getelementptr inbounds (%"class.std::ios_base::Init", %"class.std::ios_base::Init"* @_ZStL8__ioinit, i64 0, i32 0), i8* nonnull @__dso_handle) #14
  ret void
}

attributes #0 = { "frame-pointer"="none" "no-trapping-math"="true" "stack-protector-buffer-size"="8" "target-cpu"="x86-64" "target-features"="+cx8,+fxsr,+mmx,+sse,+sse2,+x87" "tune-cpu"="generic" }
attributes #1 = { nounwind "frame-pointer"="none" "no-trapping-math"="true" "stack-protector-buffer-size"="8" "target-cpu"="x86-64" "target-features"="+cx8,+fxsr,+mmx,+sse,+sse2,+x87" "tune-cpu"="generic" }
attributes #2 = { nofree nounwind }
attributes #3 = { norecurse sspstrong uwtable "frame-pointer"="none" "min-legal-vector-width"="0" "no-trapping-math"="true" "stack-protector-buffer-size"="8" "target-cpu"="x86-64" "target-features"="+cx8,+fxsr,+mmx,+sse,+sse2,+x87" "tune-cpu"="generic" }
attributes #4 = { argmemonly mustprogress nofree nosync nounwind willreturn }
attributes #5 = { noinline noreturn nounwind }
attributes #6 = { nounwind sspstrong uwtable "frame-pointer"="none" "min-legal-vector-width"="0" "no-trapping-math"="true" "stack-protector-buffer-size"="8" "target-cpu"="x86-64" "target-features"="+cx8,+fxsr,+mmx,+sse,+sse2,+x87" "tune-cpu"="generic" }
attributes #7 = { mustprogress sspstrong uwtable "frame-pointer"="none" "min-legal-vector-width"="0" "no-trapping-math"="true" "stack-protector-buffer-size"="8" "target-cpu"="x86-64" "target-features"="+cx8,+fxsr,+mmx,+sse,+sse2,+x87" "tune-cpu"="generic" }
attributes #8 = { nobuiltin nounwind "frame-pointer"="none" "no-trapping-math"="true" "stack-protector-buffer-size"="8" "target-cpu"="x86-64" "target-features"="+cx8,+fxsr,+mmx,+sse,+sse2,+x87" "tune-cpu"="generic" }
attributes #9 = { sspstrong uwtable "frame-pointer"="none" "min-legal-vector-width"="0" "no-trapping-math"="true" "stack-protector-buffer-size"="8" "target-cpu"="x86-64" "target-features"="+cx8,+fxsr,+mmx,+sse,+sse2,+x87" "tune-cpu"="generic" }
attributes #10 = { nobuiltin allocsize(0) "frame-pointer"="none" "no-trapping-math"="true" "stack-protector-buffer-size"="8" "target-cpu"="x86-64" "target-features"="+cx8,+fxsr,+mmx,+sse,+sse2,+x87" "tune-cpu"="generic" }
attributes #11 = { mustprogress nofree nounwind readonly willreturn "frame-pointer"="none" "no-trapping-math"="true" "stack-protector-buffer-size"="8" "target-cpu"="x86-64" "target-features"="+cx8,+fxsr,+mmx,+sse,+sse2,+x87" "tune-cpu"="generic" }
attributes #12 = { noreturn "frame-pointer"="none" "no-trapping-math"="true" "stack-protector-buffer-size"="8" "target-cpu"="x86-64" "target-features"="+cx8,+fxsr,+mmx,+sse,+sse2,+x87" "tune-cpu"="generic" }
attributes #13 = { argmemonly mustprogress nofree nounwind willreturn }
attributes #14 = { nounwind }
attributes #15 = { allocsize(0) }
attributes #16 = { noreturn }
attributes #17 = { noreturn nounwind }
attributes #18 = { nounwind readonly willreturn }

!llvm.module.flags = !{!0, !1, !2, !3}
!llvm.ident = !{!4}

!0 = !{i32 1, !"wchar_size", i32 4}
!1 = !{i32 7, !"PIC Level", i32 2}
!2 = !{i32 7, !"PIE Level", i32 2}
!3 = !{i32 7, !"uwtable", i32 1}
!4 = !{!"clang version 13.0.0"}
!5 = !{!6, !6, i64 0}
!6 = !{!"vtable pointer", !7, i64 0}
!7 = !{!"Simple C++ TBAA"}
!8 = !{!9, !13, i64 32}
!9 = !{!"_ZTSSt8ios_base", !10, i64 8, !10, i64 16, !12, i64 24, !13, i64 28, !13, i64 32, !14, i64 40, !15, i64 48, !11, i64 64, !16, i64 192, !14, i64 200, !17, i64 208}
!10 = !{!"long", !11, i64 0}
!11 = !{!"omnipotent char", !7, i64 0}
!12 = !{!"_ZTSSt13_Ios_Fmtflags", !11, i64 0}
!13 = !{!"_ZTSSt12_Ios_Iostate", !11, i64 0}
!14 = !{!"any pointer", !11, i64 0}
!15 = !{!"_ZTSNSt8ios_base6_WordsE", !14, i64 0, !10, i64 8}
!16 = !{!"int", !11, i64 0}
!17 = !{!"_ZTSSt6locale", !14, i64 0}
!18 = !{!19, !21, i64 0}
!19 = !{!"_ZTSSt15_Rb_tree_header", !20, i64 0, !10, i64 32}
!20 = !{!"_ZTSSt18_Rb_tree_node_base", !21, i64 0, !14, i64 8, !14, i64 16, !14, i64 24}
!21 = !{!"_ZTSSt14_Rb_tree_color", !11, i64 0}
!22 = !{!19, !14, i64 8}
!23 = !{!19, !14, i64 16}
!24 = !{!19, !14, i64 24}
!25 = !{!19, !10, i64 32}
!26 = !{!16, !16, i64 0}
!27 = !{!14, !14, i64 0}
!28 = distinct !{!28, !29}
!29 = !{!"llvm.loop.mustprogress"}
!30 = !{!31, !16, i64 0}
!31 = !{!"_ZTSSt4pairIKixE", !16, i64 0, !32, i64 8}
!32 = !{!"long long", !11, i64 0}
!33 = !{!31, !32, i64 8}
!34 = !{!32, !32, i64 0}
!35 = distinct !{!35, !29}
!36 = distinct !{!36, !29}
!37 = !{!38, !14, i64 240}
!38 = !{!"_ZTSSt9basic_iosIcSt11char_traitsIcEE", !14, i64 216, !11, i64 224, !39, i64 225, !14, i64 232, !14, i64 240, !14, i64 248, !14, i64 256}
!39 = !{!"bool", !11, i64 0}
!40 = !{!41, !11, i64 56}
!41 = !{!"_ZTSSt5ctypeIcE", !14, i64 16, !39, i64 24, !14, i64 32, !14, i64 40, !14, i64 48, !11, i64 56, !11, i64 57, !11, i64 313, !11, i64 569}
!42 = !{!11, !11, i64 0}
!43 = distinct !{!43, !29}
!44 = distinct !{!44, !29}
!45 = !{!20, !14, i64 24}
!46 = !{!20, !14, i64 16}
!47 = distinct !{!47, !29}
!48 = distinct !{!48, !29}
