; ModuleID = 'Project_CodeNet_C++1400/p03575/s301713658.cpp'
source_filename = "Project_CodeNet_C++1400/p03575/s301713658.cpp"
target datalayout = "e-m:e-i64:64-f80:128-n8:16:32:64-S128"
target triple = "x86_64-unknown-linux-gnu"

%"class.std::ios_base::Init" = type { i8 }
%"class.std::basic_istream" = type { i32 (...)**, i64, %"class.std::basic_ios" }
%"class.std::basic_ios" = type { %"class.std::ios_base", %"class.std::basic_ostream"*, i8, i8, %"class.std::basic_streambuf"*, %"class.std::ctype"*, %"class.std::num_put"*, %"class.std::num_get"* }
%"class.std::ios_base" = type { i32 (...)**, i64, i64, i32, i32, i32, %"struct.std::ios_base::_Callback_list"*, %"struct.std::ios_base::_Words", [8 x %"struct.std::ios_base::_Words"], i32, %"struct.std::ios_base::_Words"*, %"class.std::locale" }
%"struct.std::ios_base::_Callback_list" = type { %"struct.std::ios_base::_Callback_list"*, void (i32, %"class.std::ios_base"*, i32)*, i32, i32 }
%"struct.std::ios_base::_Words" = type { i8*, i64 }
%"class.std::locale" = type { %"class.std::locale::_Impl"* }
%"class.std::locale::_Impl" = type { i32, %"class.std::locale::facet"**, i64, %"class.std::locale::facet"**, i8** }
%"class.std::locale::facet" = type <{ i32 (...)**, i32, [4 x i8] }>
%"class.std::basic_ostream" = type { i32 (...)**, %"class.std::basic_ios" }
%"class.std::basic_streambuf" = type { i32 (...)**, i8*, i8*, i8*, i8*, i8*, i8*, %"class.std::locale" }
%"class.std::ctype" = type <{ %"class.std::locale::facet.base", [4 x i8], %struct.__locale_struct*, i8, [7 x i8], i32*, i32*, i16*, i8, [256 x i8], [256 x i8], i8, [6 x i8] }>
%"class.std::locale::facet.base" = type <{ i32 (...)**, i32 }>
%struct.__locale_struct = type { [13 x %struct.__locale_data*], i16*, i32*, i32*, [13 x i8*] }
%struct.__locale_data = type opaque
%"class.std::num_put" = type { %"class.std::locale::facet.base", [4 x i8] }
%"class.std::num_get" = type { %"class.std::locale::facet.base", [4 x i8] }
%"struct.std::piecewise_construct_t" = type { i8 }
%"class.std::vector.0" = type { %"struct.std::_Vector_base.1" }
%"struct.std::_Vector_base.1" = type { %"struct.std::_Vector_base<long long, std::allocator<long long> >::_Vector_impl" }
%"struct.std::_Vector_base<long long, std::allocator<long long> >::_Vector_impl" = type { i64*, i64*, i64* }
%"class.std::vector" = type { %"struct.std::_Vector_base" }
%"struct.std::_Vector_base" = type { %"struct.std::_Vector_base<std::vector<long long, std::allocator<long long> >, std::allocator<std::vector<long long, std::allocator<long long> > > >::_Vector_impl" }
%"struct.std::_Vector_base<std::vector<long long, std::allocator<long long> >, std::allocator<std::vector<long long, std::allocator<long long> > > >::_Vector_impl" = type { %"class.std::vector.0"*, %"class.std::vector.0"*, %"class.std::vector.0"* }
%"class.std::allocator" = type { i8 }
%"class.std::allocator.2" = type { i8 }
%"class.__gnu_cxx::__normal_iterator.46" = type { i64* }
%"class.std::vector.5" = type { %"struct.std::_Vector_base.6" }
%"struct.std::_Vector_base.6" = type { %"struct.std::_Vector_base<std::vector<char, std::allocator<char> >, std::allocator<std::vector<char, std::allocator<char> > > >::_Vector_impl" }
%"struct.std::_Vector_base<std::vector<char, std::allocator<char> >, std::allocator<std::vector<char, std::allocator<char> > > >::_Vector_impl" = type { %"class.std::vector.10"*, %"class.std::vector.10"*, %"class.std::vector.10"* }
%"class.std::vector.10" = type { %"struct.std::_Vector_base.11" }
%"struct.std::_Vector_base.11" = type { %"struct.std::_Vector_base<char, std::allocator<char> >::_Vector_impl" }
%"struct.std::_Vector_base<char, std::allocator<char> >::_Vector_impl" = type { i8*, i8*, i8* }
%"class.std::queue" = type { %"class.std::deque" }
%"class.std::deque" = type { %"class.std::_Deque_base" }
%"class.std::_Deque_base" = type { %"struct.std::_Deque_base<std::pair<int, int>, std::allocator<std::pair<int, int> > >::_Deque_impl" }
%"struct.std::_Deque_base<std::pair<int, int>, std::allocator<std::pair<int, int> > >::_Deque_impl" = type { %"struct.std::pair"**, i64, %"struct.std::_Deque_iterator", %"struct.std::_Deque_iterator" }
%"struct.std::pair" = type { i32, i32 }
%"struct.std::_Deque_iterator" = type { %"struct.std::pair"*, %"struct.std::pair"*, %"struct.std::pair"*, %"struct.std::pair"** }
%"class.std::allocator.15" = type { i8 }
%"class.__gnu_cxx::new_allocator.3" = type { i8 }
%"class.std::map" = type { %"class.std::_Rb_tree" }
%"class.std::_Rb_tree" = type { %"struct.std::_Rb_tree<long long, std::pair<const long long, long long>, std::_Select1st<std::pair<const long long, long long> >, std::less<long long>, std::allocator<std::pair<const long long, long long> > >::_Rb_tree_impl" }
%"struct.std::_Rb_tree<long long, std::pair<const long long, long long>, std::_Select1st<std::pair<const long long, long long> >, std::less<long long>, std::allocator<std::pair<const long long, long long> > >::_Rb_tree_impl" = type { %"struct.std::less", %"struct.std::_Rb_tree_node_base", i64 }
%"struct.std::less" = type { i8 }
%"struct.std::_Rb_tree_node_base" = type { i32, %"struct.std::_Rb_tree_node_base"*, %"struct.std::_Rb_tree_node_base"*, %"struct.std::_Rb_tree_node_base"* }
%"struct.std::_Rb_tree_iterator" = type { %"struct.std::_Rb_tree_node_base"* }
%"struct.std::_Rb_tree_const_iterator" = type { %"struct.std::_Rb_tree_node_base"* }
%"class.std::tuple" = type { %"struct.std::_Tuple_impl" }
%"struct.std::_Tuple_impl" = type { %"struct.std::_Head_base" }
%"struct.std::_Head_base" = type { i64* }
%"class.std::tuple.50" = type { i8 }
%"struct.std::pair.44" = type { i64, i64 }
%"class.std::vector.21" = type { %"struct.std::_Vector_base.22" }
%"struct.std::_Vector_base.22" = type { %"struct.std::_Vector_base<std::vector<Edge, std::allocator<Edge> >, std::allocator<std::vector<Edge, std::allocator<Edge> > > >::_Vector_impl" }
%"struct.std::_Vector_base<std::vector<Edge, std::allocator<Edge> >, std::allocator<std::vector<Edge, std::allocator<Edge> > > >::_Vector_impl" = type { %"class.std::vector.26"*, %"class.std::vector.26"*, %"class.std::vector.26"* }
%"class.std::vector.26" = type { %"struct.std::_Vector_base.27" }
%"struct.std::_Vector_base.27" = type { %"struct.std::_Vector_base<Edge, std::allocator<Edge> >::_Vector_impl" }
%"struct.std::_Vector_base<Edge, std::allocator<Edge> >::_Vector_impl" = type { %struct.Edge*, %struct.Edge*, %struct.Edge* }
%struct.Edge = type { i64, i64 }
%"class.std::priority_queue" = type <{ %"class.std::vector.31", %"struct.std::greater", [7 x i8] }>
%"class.std::vector.31" = type { %"struct.std::_Vector_base.32" }
%"struct.std::_Vector_base.32" = type { %"struct.std::_Vector_base<std::pair<long long, long long>, std::allocator<std::pair<long long, long long> > >::_Vector_impl" }
%"struct.std::_Vector_base<std::pair<long long, long long>, std::allocator<std::pair<long long, long long> > >::_Vector_impl" = type { %"struct.std::pair.36"*, %"struct.std::pair.36"*, %"struct.std::pair.36"* }
%"struct.std::pair.36" = type { i64, i64 }
%"struct.std::greater" = type { i8 }
%"class.__gnu_cxx::__normal_iterator" = type { %struct.Edge* }
%"class.__gnu_cxx::__normal_iterator.38" = type { i64* }
%"class.__gnu_cxx::__normal_iterator.53" = type { %"struct.std::pair.36"* }
%"class.std::allocator.33" = type { i8 }
%"struct.std::random_access_iterator_tag" = type { i8 }
%"class.std::vector.39" = type { %"struct.std::_Vector_base.40" }
%"struct.std::_Vector_base.40" = type { %"struct.std::_Vector_base<std::__cxx11::basic_string<char>, std::allocator<std::__cxx11::basic_string<char> > >::_Vector_impl" }
%"struct.std::_Vector_base<std::__cxx11::basic_string<char>, std::allocator<std::__cxx11::basic_string<char> > >::_Vector_impl" = type { %"class.std::__cxx11::basic_string"*, %"class.std::__cxx11::basic_string"*, %"class.std::__cxx11::basic_string"* }
%"class.std::__cxx11::basic_string" = type { %"struct.std::__cxx11::basic_string<char, std::char_traits<char>, std::allocator<char> >::_Alloc_hider", i64, %union.anon }
%"struct.std::__cxx11::basic_string<char, std::char_traits<char>, std::allocator<char> >::_Alloc_hider" = type { i8* }
%union.anon = type { i64, [8 x i8] }
%"class.std::__cxx11::basic_stringstream" = type { %"class.std::basic_iostream.base", %"class.std::__cxx11::basic_stringbuf", %"class.std::basic_ios" }
%"class.std::basic_iostream.base" = type { %"class.std::basic_istream.base", %"class.std::basic_ostream.base" }
%"class.std::basic_istream.base" = type { i32 (...)**, i64 }
%"class.std::basic_ostream.base" = type { i32 (...)** }
%"class.std::__cxx11::basic_stringbuf" = type { %"class.std::basic_streambuf", i32, %"class.std::__cxx11::basic_string" }
%"class.std::allocator.41" = type { i8 }
%"struct.__gnu_cxx::__ops::_Iter_less_iter" = type { i8 }
%"class.std::allocator.23" = type { i8 }
%"class.__gnu_cxx::new_allocator.24" = type { i8 }
%"class.std::allocator.28" = type { i8 }
%"struct.std::_Rb_tree_node" = type { %"struct.std::_Rb_tree_node_base", %"struct.__gnu_cxx::__aligned_membuf" }
%"struct.__gnu_cxx::__aligned_membuf" = type { [16 x i8] }
%"class.std::allocator.18" = type { i8 }
%"class.__gnu_cxx::new_allocator.19" = type { i8 }
%"class.__gnu_cxx::new_allocator" = type { i8 }
%"class.std::move_iterator" = type { %"class.std::vector.0"* }
%"class.std::move_iterator.45" = type { i64* }
%"class.__gnu_cxx::new_allocator.16" = type { i8 }
%"class.std::allocator.47" = type { i8 }
%"class.__gnu_cxx::new_allocator.48" = type { i8 }
%"struct.std::integral_constant" = type { i8 }
%"struct.__gnu_cxx::__allocator_always_compares_equal" = type { i8 }
%"struct.std::pair.51" = type { %"struct.std::_Rb_tree_node_base"*, %"struct.std::_Rb_tree_node_base"* }
%"struct.std::_Select1st" = type { i8 }
%"struct.std::_Index_tuple" = type { i8 }
%"struct.std::_Index_tuple.52" = type { i8 }
%"class.__gnu_cxx::new_allocator.34" = type { i8 }
%"struct.__gnu_cxx::__ops::_Iter_comp_iter" = type { %"struct.std::greater" }
%"struct.__gnu_cxx::__ops::_Iter_comp_val" = type { %"struct.std::greater" }
%"class.std::move_iterator.54" = type { %"struct.std::pair.36"* }
%"class.__gnu_cxx::__normal_iterator.55" = type { %"struct.std::pair.36"* }
%"class.__gnu_cxx::new_allocator.42" = type { i8 }
%"class.std::move_iterator.56" = type { %"class.std::__cxx11::basic_string"* }
%"struct.__gnu_cxx::__ops::_Iter_less_val" = type { i8 }
%"struct.__gnu_cxx::__ops::_Val_less_iter" = type { i8 }
%"class.__gnu_cxx::new_allocator.29" = type { i8 }
%"class.std::move_iterator.57" = type { %struct.Edge* }

$_ZSt4acosIiEN9__gnu_cxx11__enable_ifIXsr12__is_integerIT_EE7__valueEdE6__typeES2_ = comdat any

$_ZNKSt6vectorIxSaIxEE4sizeEv = comdat any

$_ZNSt6vectorIS_IxSaIxEESaIS1_EE9push_backERKS1_ = comdat any

$_ZNSt6vectorIxSaIxEE9push_backERKx = comdat any

$_ZNSt6vectorIxSaIxEEC2ERKS1_ = comdat any

$_ZNSt6vectorIxSaIxEED2Ev = comdat any

$_ZNSt6vectorIxSaIxEE8pop_backEv = comdat any

$_ZNSt5dequeISt4pairIiiESaIS1_EEC2Ev = comdat any

$_ZNSt5queueISt4pairIiiESt5dequeIS1_SaIS1_EEEC2EOS4_ = comdat any

$_ZNSt5dequeISt4pairIiiESaIS1_EED2Ev = comdat any

$_ZNSt6vectorIS_IxSaIxEESaIS1_EEC2Ev = comdat any

$_ZNSaIxEC2Ev = comdat any

$_ZNSt6vectorIxSaIxEEC2EmRKS0_ = comdat any

$_ZNSaIxED2Ev = comdat any

$_ZNSt5queueISt4pairIiiESt5dequeIS1_SaIS1_EEE4pushEOS1_ = comdat any

$_ZSt9make_pairIRiS0_ESt4pairINSt17__decay_and_stripIT_E6__typeENS2_IT0_E6__typeEEOS3_OS6_ = comdat any

$_ZNKSt5queueISt4pairIiiESt5dequeIS1_SaIS1_EEE4sizeEv = comdat any

$_ZNSt5queueISt4pairIiiESt5dequeIS1_SaIS1_EEE5frontEv = comdat any

$_ZNSt5queueISt4pairIiiESt5dequeIS1_SaIS1_EEE3popEv = comdat any

$_ZNSt6vectorIS_IcSaIcEESaIS1_EEixEm = comdat any

$_ZNSt6vectorIcSaIcEEixEm = comdat any

$_ZNSt6vectorIS_IxSaIxEESaIS1_EEixEm = comdat any

$_ZNSt6vectorIxSaIxEEixEm = comdat any

$_ZSt3minIxERKT_S2_S2_ = comdat any

$_ZSt9make_pairIiiESt4pairINSt17__decay_and_stripIT_E6__typeENS1_IT0_E6__typeEEOS2_OS5_ = comdat any

$_ZNSt6vectorIS_IxSaIxEESaIS1_EED2Ev = comdat any

$_ZNSt5queueISt4pairIiiESt5dequeIS1_SaIS1_EEED2Ev = comdat any

$_ZNSt3mapIxxSt4lessIxESaISt4pairIKxxEEEC2Ev = comdat any

$_ZNSt3mapIxxSt4lessIxESaISt4pairIKxxEEEixERS3_ = comdat any

$_ZNSt3mapIxxSt4lessIxESaISt4pairIKxxEEED2Ev = comdat any

$_ZNKSt6vectorIS_I4EdgeSaIS0_EESaIS2_EE4sizeEv = comdat any

$_ZNSt6vectorIxSaIxEE6resizeEmRKx = comdat any

$_ZNSt6vectorISt4pairIxxESaIS1_EEC2Ev = comdat any

$_ZNSt14priority_queueISt4pairIxxESt6vectorIS1_SaIS1_EESt7greaterIS1_EEC2ERKS6_OS4_ = comdat any

$_ZNSt6vectorISt4pairIxxESaIS1_EED2Ev = comdat any

$_ZNSt14priority_queueISt4pairIxxESt6vectorIS1_SaIS1_EESt7greaterIS1_EE7emplaceIJRxRiEEEvDpOT_ = comdat any

$_ZNKSt14priority_queueISt4pairIxxESt6vectorIS1_SaIS1_EESt7greaterIS1_EE5emptyEv = comdat any

$_ZNKSt14priority_queueISt4pairIxxESt6vectorIS1_SaIS1_EESt7greaterIS1_EE3topEv = comdat any

$_ZNSt14priority_queueISt4pairIxxESt6vectorIS1_SaIS1_EESt7greaterIS1_EE3popEv = comdat any

$_ZNKSt6vectorIS_I4EdgeSaIS0_EESaIS2_EEixEm = comdat any

$_ZNKSt6vectorI4EdgeSaIS0_EE5beginEv = comdat any

$_ZNKSt6vectorI4EdgeSaIS0_EE3endEv = comdat any

$_ZN9__gnu_cxxneIPK4EdgeSt6vectorIS1_SaIS1_EEEEbRKNS_17__normal_iteratorIT_T0_EESC_ = comdat any

$_ZNK9__gnu_cxx17__normal_iteratorIPK4EdgeSt6vectorIS1_SaIS1_EEEdeEv = comdat any

$_ZNSt14priority_queueISt4pairIxxESt6vectorIS1_SaIS1_EESt7greaterIS1_EE7emplaceIJRxRKxEEEvDpOT_ = comdat any

$_ZN9__gnu_cxx17__normal_iteratorIPK4EdgeSt6vectorIS1_SaIS1_EEEppEv = comdat any

$_ZNSt14priority_queueISt4pairIxxESt6vectorIS1_SaIS1_EESt7greaterIS1_EED2Ev = comdat any

$_ZNSt6vectorIxSaIxEEC2Ev = comdat any

$_ZNKSt6vectorIxSaIxEEixEm = comdat any

$_ZSt7reverseIN9__gnu_cxx17__normal_iteratorIPxSt6vectorIxSaIxEEEEEvT_S7_ = comdat any

$_ZNSt6vectorIxSaIxEE5beginEv = comdat any

$_ZNSt6vectorIxSaIxEE3endEv = comdat any

$_ZNSt6vectorINSt7__cxx1112basic_stringIcSt11char_traitsIcESaIcEEESaIS5_EEC2Ev = comdat any

$_ZStorSt13_Ios_OpenmodeS_ = comdat any

$_ZNSt6vectorINSt7__cxx1112basic_stringIcSt11char_traitsIcESaIcEEESaIS5_EE9push_backERKS5_ = comdat any

$_ZNSt6vectorINSt7__cxx1112basic_stringIcSt11char_traitsIcESaIcEEESaIS5_EED2Ev = comdat any

$_ZNSt6vectorIxSaIxEE9push_backEOx = comdat any

$_ZSt4sortIN9__gnu_cxx17__normal_iteratorIPxSt6vectorIxSaIxEEEEEvT_S7_ = comdat any

$_ZSt5beginISt6vectorIxSaIxEEEDTcldtfp_5beginEERT_ = comdat any

$_ZSt3endISt6vectorIxSaIxEEEDTcldtfp_3endEERT_ = comdat any

$_ZNSt6vectorISt4pairIxxESaIS1_EE9push_backEOS1_ = comdat any

$_ZSt9make_pairIRxS0_ESt4pairINSt17__decay_and_stripIT_E6__typeENS2_IT0_E6__typeEEOS3_OS6_ = comdat any

$_ZNSaISt6vectorI4EdgeSaIS0_EEEC2Ev = comdat any

$_ZNSt6vectorIS_I4EdgeSaIS0_EESaIS2_EEC2EmRKS3_ = comdat any

$_ZNSaISt6vectorI4EdgeSaIS0_EEED2Ev = comdat any

$_ZNSt6vectorISt4pairIxxESaIS1_EEixEm = comdat any

$_ZNSt6vectorIS_I4EdgeSaIS0_EESaIS2_EEixEm = comdat any

$_ZNSt6vectorI4EdgeSaIS0_EE9push_backERKS0_ = comdat any

$_ZNSt6vectorIS_I4EdgeSaIS0_EESaIS2_EED2Ev = comdat any

$_ZSt7forwardIRiEOT_RNSt16remove_referenceIS1_E4typeE = comdat any

$_ZNSt4pairIiiEC2IRiS2_vEEOT_OT0_ = comdat any

$_ZSt7forwardIiEOT_RNSt16remove_referenceIS0_E4typeE = comdat any

$_ZNSt4pairIiiEC2IiivEEOT_OT0_ = comdat any

$_ZNSt8_Rb_treeIxSt4pairIKxxESt10_Select1stIS2_ESt4lessIxESaIS2_EED2Ev = comdat any

$_ZNSt8_Rb_treeIxSt4pairIKxxESt10_Select1stIS2_ESt4lessIxESaIS2_EE8_M_eraseEPSt13_Rb_tree_nodeIS2_E = comdat any

$_ZNSt8_Rb_treeIxSt4pairIKxxESt10_Select1stIS2_ESt4lessIxESaIS2_EE8_M_beginEv = comdat any

$_ZNSt8_Rb_treeIxSt4pairIKxxESt10_Select1stIS2_ESt4lessIxESaIS2_EE13_Rb_tree_implIS6_Lb1EED2Ev = comdat any

$__clang_call_terminate = comdat any

$_ZNSt8_Rb_treeIxSt4pairIKxxESt10_Select1stIS2_ESt4lessIxESaIS2_EE8_S_rightEPSt18_Rb_tree_node_base = comdat any

$_ZNSt8_Rb_treeIxSt4pairIKxxESt10_Select1stIS2_ESt4lessIxESaIS2_EE7_S_leftEPSt18_Rb_tree_node_base = comdat any

$_ZNSt8_Rb_treeIxSt4pairIKxxESt10_Select1stIS2_ESt4lessIxESaIS2_EE12_M_drop_nodeEPSt13_Rb_tree_nodeIS2_E = comdat any

$_ZNSt8_Rb_treeIxSt4pairIKxxESt10_Select1stIS2_ESt4lessIxESaIS2_EE15_M_destroy_nodeEPSt13_Rb_tree_nodeIS2_E = comdat any

$_ZNSt8_Rb_treeIxSt4pairIKxxESt10_Select1stIS2_ESt4lessIxESaIS2_EE11_M_put_nodeEPSt13_Rb_tree_nodeIS2_E = comdat any

$_ZNSt16allocator_traitsISaISt13_Rb_tree_nodeISt4pairIKxxEEEE7destroyIS3_EEvRS5_PT_ = comdat any

$_ZNSt8_Rb_treeIxSt4pairIKxxESt10_Select1stIS2_ESt4lessIxESaIS2_EE21_M_get_Node_allocatorEv = comdat any

$_ZNSt13_Rb_tree_nodeISt4pairIKxxEE9_M_valptrEv = comdat any

$_ZN9__gnu_cxx13new_allocatorISt13_Rb_tree_nodeISt4pairIKxxEEE7destroyIS4_EEvPT_ = comdat any

$_ZN9__gnu_cxx16__aligned_membufISt4pairIKxxEE6_M_ptrEv = comdat any

$_ZN9__gnu_cxx16__aligned_membufISt4pairIKxxEE7_M_addrEv = comdat any

$_ZNSt16allocator_traitsISaISt13_Rb_tree_nodeISt4pairIKxxEEEE10deallocateERS5_PS4_m = comdat any

$_ZN9__gnu_cxx13new_allocatorISt13_Rb_tree_nodeISt4pairIKxxEEE10deallocateEPS5_m = comdat any

$_ZNSaISt13_Rb_tree_nodeISt4pairIKxxEEED2Ev = comdat any

$_ZN9__gnu_cxx13new_allocatorISt13_Rb_tree_nodeISt4pairIKxxEEED2Ev = comdat any

$_ZSt7forwardIRxEOT_RNSt16remove_referenceIS1_E4typeE = comdat any

$_ZNSt4pairIxxEC2IRxS2_vEEOT_OT0_ = comdat any

$_ZNSt16allocator_traitsISaISt6vectorIxSaIxEEEE9constructIS2_JRKS2_EEEvRS3_PT_DpOT0_ = comdat any

$_ZNSt6vectorIS_IxSaIxEESaIS1_EE19_M_emplace_back_auxIJRKS1_EEEvDpOT_ = comdat any

$_ZN9__gnu_cxx13new_allocatorISt6vectorIxSaIxEEE9constructIS3_JRKS3_EEEvPT_DpOT0_ = comdat any

$_ZSt7forwardIRKSt6vectorIxSaIxEEEOT_RNSt16remove_referenceIS5_E4typeE = comdat any

$_ZNKSt6vectorIS_IxSaIxEESaIS1_EE12_M_check_lenEmPKc = comdat any

$_ZNSt12_Vector_baseISt6vectorIxSaIxEESaIS2_EE11_M_allocateEm = comdat any

$_ZNKSt6vectorIS_IxSaIxEESaIS1_EE4sizeEv = comdat any

$_ZSt34__uninitialized_move_if_noexcept_aIPSt6vectorIxSaIxEES3_SaIS2_EET0_T_S6_S5_RT1_ = comdat any

$_ZNSt12_Vector_baseISt6vectorIxSaIxEESaIS2_EE19_M_get_Tp_allocatorEv = comdat any

$_ZNSt16allocator_traitsISaISt6vectorIxSaIxEEEE7destroyIS2_EEvRS3_PT_ = comdat any

$_ZSt8_DestroyIPSt6vectorIxSaIxEES2_EvT_S4_RSaIT0_E = comdat any

$_ZNSt12_Vector_baseISt6vectorIxSaIxEESaIS2_EE13_M_deallocateEPS2_m = comdat any

$_ZNKSt6vectorIS_IxSaIxEESaIS1_EE8max_sizeEv = comdat any

$_ZSt3maxImERKT_S2_S2_ = comdat any

$_ZNSt16allocator_traitsISaISt6vectorIxSaIxEEEE8max_sizeERKS3_ = comdat any

$_ZNKSt12_Vector_baseISt6vectorIxSaIxEESaIS2_EE19_M_get_Tp_allocatorEv = comdat any

$_ZNK9__gnu_cxx13new_allocatorISt6vectorIxSaIxEEE8max_sizeEv = comdat any

$_ZNSt16allocator_traitsISaISt6vectorIxSaIxEEEE8allocateERS3_m = comdat any

$_ZN9__gnu_cxx13new_allocatorISt6vectorIxSaIxEEE8allocateEmPKv = comdat any

$_ZSt22__uninitialized_copy_aISt13move_iteratorIPSt6vectorIxSaIxEEES4_S3_ET0_T_S7_S6_RSaIT1_E = comdat any

$_ZSt32__make_move_if_noexcept_iteratorIPSt6vectorIxSaIxEESt13move_iteratorIS3_EET0_T_ = comdat any

$_ZSt18uninitialized_copyISt13move_iteratorIPSt6vectorIxSaIxEEES4_ET0_T_S7_S6_ = comdat any

$_ZNSt20__uninitialized_copyILb0EE13__uninit_copyISt13move_iteratorIPSt6vectorIxSaIxEEES6_EET0_T_S9_S8_ = comdat any

$_ZStneIPSt6vectorIxSaIxEEEbRKSt13move_iteratorIT_ES8_ = comdat any

$_ZSt10_ConstructISt6vectorIxSaIxEEJS2_EEvPT_DpOT0_ = comdat any

$_ZSt11__addressofISt6vectorIxSaIxEEEPT_RS3_ = comdat any

$_ZNKSt13move_iteratorIPSt6vectorIxSaIxEEEdeEv = comdat any

$_ZNSt13move_iteratorIPSt6vectorIxSaIxEEEppEv = comdat any

$_ZSt8_DestroyIPSt6vectorIxSaIxEEEvT_S4_ = comdat any

$_ZSteqIPSt6vectorIxSaIxEEEbRKSt13move_iteratorIT_ES8_ = comdat any

$_ZNKSt13move_iteratorIPSt6vectorIxSaIxEEE4baseEv = comdat any

$_ZSt7forwardISt6vectorIxSaIxEEEOT_RNSt16remove_referenceIS3_E4typeE = comdat any

$_ZNSt6vectorIxSaIxEEC2EOS1_ = comdat any

$_ZSt4moveIRSt6vectorIxSaIxEEEONSt16remove_referenceIT_E4typeEOS5_ = comdat any

$_ZNSt12_Vector_baseIxSaIxEEC2EOS1_ = comdat any

$_ZSt4moveIRSaIxEEONSt16remove_referenceIT_E4typeEOS3_ = comdat any

$_ZNSt12_Vector_baseIxSaIxEE19_M_get_Tp_allocatorEv = comdat any

$_ZNSt12_Vector_baseIxSaIxEE12_Vector_implC2EOS0_ = comdat any

$_ZNSt12_Vector_baseIxSaIxEE12_Vector_impl12_M_swap_dataERS2_ = comdat any

$_ZN9__gnu_cxx13new_allocatorIxEC2ERKS1_ = comdat any

$_ZSt4swapIPxEvRT_S2_ = comdat any

$_ZSt4moveIRPxEONSt16remove_referenceIT_E4typeEOS3_ = comdat any

$_ZNSt12_Destroy_auxILb0EE9__destroyIPSt6vectorIxSaIxEEEEvT_S6_ = comdat any

$_ZSt8_DestroyISt6vectorIxSaIxEEEvPT_ = comdat any

$_ZNSt13move_iteratorIPSt6vectorIxSaIxEEEC2ES3_ = comdat any

$_ZN9__gnu_cxx13new_allocatorISt6vectorIxSaIxEEE7destroyIS3_EEvPT_ = comdat any

$_ZNSt16allocator_traitsISaISt6vectorIxSaIxEEEE10deallocateERS3_PS2_m = comdat any

$_ZN9__gnu_cxx13new_allocatorISt6vectorIxSaIxEEE10deallocateEPS3_m = comdat any

$_ZNSt16allocator_traitsISaIxEE9constructIxJRKxEEEvRS0_PT_DpOT0_ = comdat any

$_ZNSt6vectorIxSaIxEE19_M_emplace_back_auxIJRKxEEEvDpOT_ = comdat any

$_ZN9__gnu_cxx13new_allocatorIxE9constructIxJRKxEEEvPT_DpOT0_ = comdat any

$_ZSt7forwardIRKxEOT_RNSt16remove_referenceIS2_E4typeE = comdat any

$_ZNKSt6vectorIxSaIxEE12_M_check_lenEmPKc = comdat any

$_ZNSt12_Vector_baseIxSaIxEE11_M_allocateEm = comdat any

$_ZSt34__uninitialized_move_if_noexcept_aIPxS0_SaIxEET0_T_S3_S2_RT1_ = comdat any

$_ZNSt16allocator_traitsISaIxEE7destroyIxEEvRS0_PT_ = comdat any

$_ZSt8_DestroyIPxxEvT_S1_RSaIT0_E = comdat any

$_ZNSt12_Vector_baseIxSaIxEE13_M_deallocateEPxm = comdat any

$_ZNKSt6vectorIxSaIxEE8max_sizeEv = comdat any

$_ZNSt16allocator_traitsISaIxEE8max_sizeERKS0_ = comdat any

$_ZNKSt12_Vector_baseIxSaIxEE19_M_get_Tp_allocatorEv = comdat any

$_ZNK9__gnu_cxx13new_allocatorIxE8max_sizeEv = comdat any

$_ZNSt16allocator_traitsISaIxEE8allocateERS0_m = comdat any

$_ZN9__gnu_cxx13new_allocatorIxE8allocateEmPKv = comdat any

$_ZSt22__uninitialized_copy_aISt13move_iteratorIPxES1_xET0_T_S4_S3_RSaIT1_E = comdat any

$_ZSt32__make_move_if_noexcept_iteratorIPxSt13move_iteratorIS0_EET0_T_ = comdat any

$_ZSt18uninitialized_copyISt13move_iteratorIPxES1_ET0_T_S4_S3_ = comdat any

$_ZNSt20__uninitialized_copyILb1EE13__uninit_copyISt13move_iteratorIPxES3_EET0_T_S6_S5_ = comdat any

$_ZSt4copyISt13move_iteratorIPxES1_ET0_T_S4_S3_ = comdat any

$_ZSt14__copy_move_a2ILb1EPxS0_ET1_T0_S2_S1_ = comdat any

$_ZSt12__miter_baseISt13move_iteratorIPxEENSt11_Miter_baseIT_E13iterator_typeES4_ = comdat any

$_ZSt13__copy_move_aILb1EPxS0_ET1_T0_S2_S1_ = comdat any

$_ZSt12__niter_baseIPxENSt11_Niter_baseIT_E13iterator_typeES2_ = comdat any

$_ZNSt11__copy_moveILb1ELb1ESt26random_access_iterator_tagE8__copy_mIxEEPT_PKS3_S6_S4_ = comdat any

$_ZNSt10_Iter_baseIPxLb0EE7_S_baseES0_ = comdat any

$_ZNSt10_Iter_baseISt13move_iteratorIPxELb1EE7_S_baseES2_ = comdat any

$_ZNKSt13move_iteratorIPxE4baseEv = comdat any

$_ZNSt13move_iteratorIPxEC2ES0_ = comdat any

$_ZN9__gnu_cxx13new_allocatorIxE7destroyIxEEvPT_ = comdat any

$_ZSt8_DestroyIPxEvT_S1_ = comdat any

$_ZNSt12_Destroy_auxILb1EE9__destroyIPxEEvT_S3_ = comdat any

$_ZNSt16allocator_traitsISaIxEE10deallocateERS0_Pxm = comdat any

$_ZN9__gnu_cxx13new_allocatorIxE10deallocateEPxm = comdat any

$_ZN9__gnu_cxx14__alloc_traitsISaIxEE17_S_select_on_copyERKS1_ = comdat any

$_ZNSt12_Vector_baseIxSaIxEEC2EmRKS0_ = comdat any

$_ZSt22__uninitialized_copy_aIN9__gnu_cxx17__normal_iteratorIPKxSt6vectorIxSaIxEEEEPxxET0_T_SA_S9_RSaIT1_E = comdat any

$_ZNKSt6vectorIxSaIxEE5beginEv = comdat any

$_ZNKSt6vectorIxSaIxEE3endEv = comdat any

$_ZNSt12_Vector_baseIxSaIxEED2Ev = comdat any

$_ZNSt16allocator_traitsISaIxEE37select_on_container_copy_constructionERKS0_ = comdat any

$_ZNSaIxEC2ERKS_ = comdat any

$_ZNSt12_Vector_baseIxSaIxEE12_Vector_implC2ERKS0_ = comdat any

$_ZNSt12_Vector_baseIxSaIxEE17_M_create_storageEm = comdat any

$_ZNSt12_Vector_baseIxSaIxEE12_Vector_implD2Ev = comdat any

$_ZN9__gnu_cxx13new_allocatorIxED2Ev = comdat any

$_ZSt18uninitialized_copyIN9__gnu_cxx17__normal_iteratorIPKxSt6vectorIxSaIxEEEEPxET0_T_SA_S9_ = comdat any

$_ZNSt20__uninitialized_copyILb1EE13__uninit_copyIN9__gnu_cxx17__normal_iteratorIPKxSt6vectorIxSaIxEEEEPxEET0_T_SC_SB_ = comdat any

$_ZSt4copyIN9__gnu_cxx17__normal_iteratorIPKxSt6vectorIxSaIxEEEEPxET0_T_SA_S9_ = comdat any

$_ZSt14__copy_move_a2ILb0EN9__gnu_cxx17__normal_iteratorIPKxSt6vectorIxSaIxEEEEPxET1_T0_SA_S9_ = comdat any

$_ZSt12__miter_baseIN9__gnu_cxx17__normal_iteratorIPKxSt6vectorIxSaIxEEEEENSt11_Miter_baseIT_E13iterator_typeES9_ = comdat any

$_ZSt13__copy_move_aILb0EPKxPxET1_T0_S4_S3_ = comdat any

$_ZSt12__niter_baseIN9__gnu_cxx17__normal_iteratorIPKxSt6vectorIxSaIxEEEEENSt11_Niter_baseIT_E13iterator_typeES9_ = comdat any

$_ZNSt11__copy_moveILb0ELb1ESt26random_access_iterator_tagE8__copy_mIxEEPT_PKS3_S6_S4_ = comdat any

$_ZNSt10_Iter_baseIN9__gnu_cxx17__normal_iteratorIPKxSt6vectorIxSaIxEEEELb1EE7_S_baseES7_ = comdat any

$_ZNK9__gnu_cxx17__normal_iteratorIPKxSt6vectorIxSaIxEEE4baseEv = comdat any

$_ZNSt10_Iter_baseIN9__gnu_cxx17__normal_iteratorIPKxSt6vectorIxSaIxEEEELb0EE7_S_baseES7_ = comdat any

$_ZN9__gnu_cxx17__normal_iteratorIPKxSt6vectorIxSaIxEEEC2ERKS2_ = comdat any

$_ZNSt11_Deque_baseISt4pairIiiESaIS1_EEC2Ev = comdat any

$_ZNSt11_Deque_baseISt4pairIiiESaIS1_EE11_Deque_implC2Ev = comdat any

$_ZNSt11_Deque_baseISt4pairIiiESaIS1_EE17_M_initialize_mapEm = comdat any

$_ZNSt11_Deque_baseISt4pairIiiESaIS1_EE11_Deque_implD2Ev = comdat any

$_ZNSaISt4pairIiiEEC2Ev = comdat any

$_ZNSt15_Deque_iteratorISt4pairIiiERS1_PS1_EC2Ev = comdat any

$_ZN9__gnu_cxx13new_allocatorISt4pairIiiEEC2Ev = comdat any

$_ZSt16__deque_buf_sizem = comdat any

$_ZNSt11_Deque_baseISt4pairIiiESaIS1_EE15_M_allocate_mapEm = comdat any

$_ZNSt11_Deque_baseISt4pairIiiESaIS1_EE15_M_create_nodesEPPS1_S5_ = comdat any

$_ZNSt11_Deque_baseISt4pairIiiESaIS1_EE17_M_deallocate_mapEPPS1_m = comdat any

$_ZNSt15_Deque_iteratorISt4pairIiiERS1_PS1_E11_M_set_nodeEPS3_ = comdat any

$_ZNKSt11_Deque_baseISt4pairIiiESaIS1_EE20_M_get_map_allocatorEv = comdat any

$_ZNSt16allocator_traitsISaIPSt4pairIiiEEE8allocateERS3_m = comdat any

$_ZNSaIPSt4pairIiiEED2Ev = comdat any

$_ZNKSt11_Deque_baseISt4pairIiiESaIS1_EE19_M_get_Tp_allocatorEv = comdat any

$_ZNSaIPSt4pairIiiEEC2IS0_EERKSaIT_E = comdat any

$_ZN9__gnu_cxx13new_allocatorIPSt4pairIiiEEC2Ev = comdat any

$_ZN9__gnu_cxx13new_allocatorIPSt4pairIiiEE8allocateEmPKv = comdat any

$_ZNK9__gnu_cxx13new_allocatorIPSt4pairIiiEE8max_sizeEv = comdat any

$_ZN9__gnu_cxx13new_allocatorIPSt4pairIiiEED2Ev = comdat any

$_ZNSt11_Deque_baseISt4pairIiiESaIS1_EE16_M_allocate_nodeEv = comdat any

$_ZNSt11_Deque_baseISt4pairIiiESaIS1_EE16_M_destroy_nodesEPPS1_S5_ = comdat any

$_ZNSt16allocator_traitsISaISt4pairIiiEEE8allocateERS2_m = comdat any

$_ZN9__gnu_cxx13new_allocatorISt4pairIiiEE8allocateEmPKv = comdat any

$_ZNK9__gnu_cxx13new_allocatorISt4pairIiiEE8max_sizeEv = comdat any

$_ZNSt11_Deque_baseISt4pairIiiESaIS1_EE18_M_deallocate_nodeEPS1_ = comdat any

$_ZNSt16allocator_traitsISaISt4pairIiiEEE10deallocateERS2_PS1_m = comdat any

$_ZN9__gnu_cxx13new_allocatorISt4pairIiiEE10deallocateEPS2_m = comdat any

$_ZNSt16allocator_traitsISaIPSt4pairIiiEEE10deallocateERS3_PS2_m = comdat any

$_ZN9__gnu_cxx13new_allocatorIPSt4pairIiiEE10deallocateEPS3_m = comdat any

$_ZNSt15_Deque_iteratorISt4pairIiiERS1_PS1_E14_S_buffer_sizeEv = comdat any

$_ZNSaISt4pairIiiEED2Ev = comdat any

$_ZN9__gnu_cxx13new_allocatorISt4pairIiiEED2Ev = comdat any

$_ZNSt5dequeISt4pairIiiESaIS1_EE15_M_destroy_dataESt15_Deque_iteratorIS1_RS1_PS1_ES7_RKS2_ = comdat any

$_ZNSt5dequeISt4pairIiiESaIS1_EE5beginEv = comdat any

$_ZNSt5dequeISt4pairIiiESaIS1_EE3endEv = comdat any

$_ZNSt11_Deque_baseISt4pairIiiESaIS1_EE19_M_get_Tp_allocatorEv = comdat any

$_ZNSt11_Deque_baseISt4pairIiiESaIS1_EED2Ev = comdat any

$_ZNSt15_Deque_iteratorISt4pairIiiERS1_PS1_EC2ERKS4_ = comdat any

$_ZSt4moveIRSt5dequeISt4pairIiiESaIS2_EEEONSt16remove_referenceIT_E4typeEOS7_ = comdat any

$_ZNSt5dequeISt4pairIiiESaIS1_EEC2EOS3_ = comdat any

$_ZNSt11_Deque_baseISt4pairIiiESaIS1_EEC2EOS3_ = comdat any

$_ZSt4moveIRSt11_Deque_baseISt4pairIiiESaIS2_EEEONSt16remove_referenceIT_E4typeEOS7_ = comdat any

$_ZNSt11_Deque_baseISt4pairIiiESaIS1_EEC2EOS3_St17integral_constantIbLb1EE = comdat any

$_ZSt4moveIRSaISt4pairIiiEEEONSt16remove_referenceIT_E4typeEOS5_ = comdat any

$_ZNSt11_Deque_baseISt4pairIiiESaIS1_EE11_Deque_implC2EOS2_ = comdat any

$_ZNSt11_Deque_baseISt4pairIiiESaIS1_EE11_Deque_impl12_M_swap_dataERS4_ = comdat any

$_ZNSaISt4pairIiiEEC2ERKS1_ = comdat any

$_ZN9__gnu_cxx13new_allocatorISt4pairIiiEEC2ERKS3_ = comdat any

$_ZSt4swapISt15_Deque_iteratorISt4pairIiiERS2_PS2_EEvRT_S7_ = comdat any

$_ZSt4swapIPPSt4pairIiiEEvRT_S5_ = comdat any

$_ZSt4swapImEvRT_S1_ = comdat any

$_ZSt4moveIRSt15_Deque_iteratorISt4pairIiiERS2_PS2_EEONSt16remove_referenceIT_E4typeEOS8_ = comdat any

$_ZSt4moveIRPPSt4pairIiiEEONSt16remove_referenceIT_E4typeEOS6_ = comdat any

$_ZSt4moveIRmEONSt16remove_referenceIT_E4typeEOS2_ = comdat any

$_ZNSt12_Vector_baseISt6vectorIxSaIxEESaIS2_EEC2Ev = comdat any

$_ZNSt12_Vector_baseISt6vectorIxSaIxEESaIS2_EE12_Vector_implC2Ev = comdat any

$_ZNSaISt6vectorIxSaIxEEEC2Ev = comdat any

$_ZN9__gnu_cxx13new_allocatorISt6vectorIxSaIxEEEC2Ev = comdat any

$_ZNSt12_Vector_baseISt6vectorIxSaIxEESaIS2_EED2Ev = comdat any

$_ZNSt12_Vector_baseISt6vectorIxSaIxEESaIS2_EE12_Vector_implD2Ev = comdat any

$_ZNSaISt6vectorIxSaIxEEED2Ev = comdat any

$_ZN9__gnu_cxx13new_allocatorISt6vectorIxSaIxEEED2Ev = comdat any

$_ZN9__gnu_cxx13new_allocatorIxEC2Ev = comdat any

$_ZNSt6vectorIxSaIxEE21_M_default_initializeEm = comdat any

$_ZSt27__uninitialized_default_n_aIPxmxET_S1_T0_RSaIT1_E = comdat any

$_ZSt25__uninitialized_default_nIPxmET_S1_T0_ = comdat any

$_ZNSt27__uninitialized_default_n_1ILb1EE18__uninit_default_nIPxmEET_S3_T0_ = comdat any

$_ZSt6fill_nIPxmxET_S1_T0_RKT1_ = comdat any

$_ZSt10__fill_n_aIPxmxEN9__gnu_cxx11__enable_ifIXsr11__is_scalarIT1_EE7__valueET_E6__typeES4_T0_RKS3_ = comdat any

$_ZNSt5dequeISt4pairIiiESaIS1_EE9push_backEOS1_ = comdat any

$_ZSt4moveIRSt4pairIiiEEONSt16remove_referenceIT_E4typeEOS4_ = comdat any

$_ZNSt5dequeISt4pairIiiESaIS1_EE12emplace_backIJS1_EEEvDpOT_ = comdat any

$_ZNSt16allocator_traitsISaISt4pairIiiEEE9constructIS1_JS1_EEEvRS2_PT_DpOT0_ = comdat any

$_ZSt7forwardISt4pairIiiEEOT_RNSt16remove_referenceIS2_E4typeE = comdat any

$_ZNSt5dequeISt4pairIiiESaIS1_EE16_M_push_back_auxIJS1_EEEvDpOT_ = comdat any

$_ZN9__gnu_cxx13new_allocatorISt4pairIiiEE9constructIS2_JS2_EEEvPT_DpOT0_ = comdat any

$_ZNSt5dequeISt4pairIiiESaIS1_EE22_M_reserve_map_at_backEm = comdat any

$_ZNSt5dequeISt4pairIiiESaIS1_EE17_M_reallocate_mapEmb = comdat any

$_ZSt4copyIPPSt4pairIiiES3_ET0_T_S5_S4_ = comdat any

$_ZSt13copy_backwardIPPSt4pairIiiES3_ET0_T_S5_S4_ = comdat any

$_ZSt14__copy_move_a2ILb0EPPSt4pairIiiES3_ET1_T0_S5_S4_ = comdat any

$_ZSt12__miter_baseIPPSt4pairIiiEENSt11_Miter_baseIT_E13iterator_typeES5_ = comdat any

$_ZSt13__copy_move_aILb0EPPSt4pairIiiES3_ET1_T0_S5_S4_ = comdat any

$_ZSt12__niter_baseIPPSt4pairIiiEENSt11_Niter_baseIT_E13iterator_typeES5_ = comdat any

$_ZNSt11__copy_moveILb0ELb1ESt26random_access_iterator_tagE8__copy_mIPSt4pairIiiEEEPT_PKS6_S9_S7_ = comdat any

$_ZNSt10_Iter_baseIPPSt4pairIiiELb0EE7_S_baseES3_ = comdat any

$_ZSt23__copy_move_backward_a2ILb0EPPSt4pairIiiES3_ET1_T0_S5_S4_ = comdat any

$_ZSt22__copy_move_backward_aILb0EPPSt4pairIiiES3_ET1_T0_S5_S4_ = comdat any

$_ZNSt20__copy_move_backwardILb0ELb1ESt26random_access_iterator_tagE13__copy_move_bIPSt4pairIiiEEEPT_PKS6_S9_S7_ = comdat any

$_ZNKSt5dequeISt4pairIiiESaIS1_EE4sizeEv = comdat any

$_ZStmiISt4pairIiiERS1_PS1_ENSt15_Deque_iteratorIT_T0_T1_E15difference_typeERKS8_SB_ = comdat any

$_ZNSt5dequeISt4pairIiiESaIS1_EE5frontEv = comdat any

$_ZNKSt15_Deque_iteratorISt4pairIiiERS1_PS1_EdeEv = comdat any

$_ZNSt5dequeISt4pairIiiESaIS1_EE9pop_frontEv = comdat any

$_ZNSt16allocator_traitsISaISt4pairIiiEEE7destroyIS1_EEvRS2_PT_ = comdat any

$_ZNSt5dequeISt4pairIiiESaIS1_EE16_M_pop_front_auxEv = comdat any

$_ZN9__gnu_cxx13new_allocatorISt4pairIiiEE7destroyIS2_EEvPT_ = comdat any

$_ZNSt8_Rb_treeIxSt4pairIKxxESt10_Select1stIS2_ESt4lessIxESaIS2_EEC2Ev = comdat any

$_ZNSt8_Rb_treeIxSt4pairIKxxESt10_Select1stIS2_ESt4lessIxESaIS2_EE13_Rb_tree_implIS6_Lb1EEC2Ev = comdat any

$_ZNSaISt13_Rb_tree_nodeISt4pairIKxxEEEC2Ev = comdat any

$_ZNSt8_Rb_treeIxSt4pairIKxxESt10_Select1stIS2_ESt4lessIxESaIS2_EE13_Rb_tree_implIS6_Lb1EE13_M_initializeEv = comdat any

$_ZN9__gnu_cxx13new_allocatorISt13_Rb_tree_nodeISt4pairIKxxEEEC2Ev = comdat any

$_ZNSt3mapIxxSt4lessIxESaISt4pairIKxxEEE11lower_boundERS3_ = comdat any

$_ZNKSt17_Rb_tree_iteratorISt4pairIKxxEEeqERKS3_ = comdat any

$_ZNSt3mapIxxSt4lessIxESaISt4pairIKxxEEE3endEv = comdat any

$_ZNKSt3mapIxxSt4lessIxESaISt4pairIKxxEEE8key_compEv = comdat any

$_ZNKSt4lessIxEclERKxS2_ = comdat any

$_ZNKSt17_Rb_tree_iteratorISt4pairIKxxEEdeEv = comdat any

$_ZNSt8_Rb_treeIxSt4pairIKxxESt10_Select1stIS2_ESt4lessIxESaIS2_EE22_M_emplace_hint_uniqueIJRKSt21piecewise_construct_tSt5tupleIJRS1_EESD_IJEEEEESt17_Rb_tree_iteratorIS2_ESt23_Rb_tree_const_iteratorIS2_EDpOT_ = comdat any

$_ZNSt23_Rb_tree_const_iteratorISt4pairIKxxEEC2ERKSt17_Rb_tree_iteratorIS2_E = comdat any

$_ZNSt5tupleIJRKxEEC2ES1_ = comdat any

$_ZNSt8_Rb_treeIxSt4pairIKxxESt10_Select1stIS2_ESt4lessIxESaIS2_EE11lower_boundERS1_ = comdat any

$_ZNSt8_Rb_treeIxSt4pairIKxxESt10_Select1stIS2_ESt4lessIxESaIS2_EE14_M_lower_boundEPSt13_Rb_tree_nodeIS2_ESB_RS1_ = comdat any

$_ZNSt8_Rb_treeIxSt4pairIKxxESt10_Select1stIS2_ESt4lessIxESaIS2_EE6_M_endEv = comdat any

$_ZNSt8_Rb_treeIxSt4pairIKxxESt10_Select1stIS2_ESt4lessIxESaIS2_EE6_S_keyEPKSt13_Rb_tree_nodeIS2_E = comdat any

$_ZNSt17_Rb_tree_iteratorISt4pairIKxxEEC2EPSt18_Rb_tree_node_base = comdat any

$_ZNKSt10_Select1stISt4pairIKxxEEclERKS2_ = comdat any

$_ZNSt8_Rb_treeIxSt4pairIKxxESt10_Select1stIS2_ESt4lessIxESaIS2_EE8_S_valueEPKSt13_Rb_tree_nodeIS2_E = comdat any

$_ZNKSt13_Rb_tree_nodeISt4pairIKxxEE9_M_valptrEv = comdat any

$_ZNK9__gnu_cxx16__aligned_membufISt4pairIKxxEE6_M_ptrEv = comdat any

$_ZNK9__gnu_cxx16__aligned_membufISt4pairIKxxEE7_M_addrEv = comdat any

$_ZNSt8_Rb_treeIxSt4pairIKxxESt10_Select1stIS2_ESt4lessIxESaIS2_EE3endEv = comdat any

$_ZNKSt8_Rb_treeIxSt4pairIKxxESt10_Select1stIS2_ESt4lessIxESaIS2_EE8key_compEv = comdat any

$_ZNSt8_Rb_treeIxSt4pairIKxxESt10_Select1stIS2_ESt4lessIxESaIS2_EE14_M_create_nodeIJRKSt21piecewise_construct_tSt5tupleIJRS1_EESD_IJEEEEEPSt13_Rb_tree_nodeIS2_EDpOT_ = comdat any

$_ZSt7forwardIRKSt21piecewise_construct_tEOT_RNSt16remove_referenceIS3_E4typeE = comdat any

$_ZSt7forwardISt5tupleIJRKxEEEOT_RNSt16remove_referenceIS4_E4typeE = comdat any

$_ZSt7forwardISt5tupleIJEEEOT_RNSt16remove_referenceIS2_E4typeE = comdat any

$_ZNSt8_Rb_treeIxSt4pairIKxxESt10_Select1stIS2_ESt4lessIxESaIS2_EE29_M_get_insert_hint_unique_posESt23_Rb_tree_const_iteratorIS2_ERS1_ = comdat any

$_ZNSt8_Rb_treeIxSt4pairIKxxESt10_Select1stIS2_ESt4lessIxESaIS2_EE14_M_insert_nodeEPSt18_Rb_tree_node_baseSA_PSt13_Rb_tree_nodeIS2_E = comdat any

$_ZNSt8_Rb_treeIxSt4pairIKxxESt10_Select1stIS2_ESt4lessIxESaIS2_EE11_M_get_nodeEv = comdat any

$_ZNSt8_Rb_treeIxSt4pairIKxxESt10_Select1stIS2_ESt4lessIxESaIS2_EE17_M_construct_nodeIJRKSt21piecewise_construct_tSt5tupleIJRS1_EESD_IJEEEEEvPSt13_Rb_tree_nodeIS2_EDpOT_ = comdat any

$_ZNSt16allocator_traitsISaISt13_Rb_tree_nodeISt4pairIKxxEEEE8allocateERS5_m = comdat any

$_ZN9__gnu_cxx13new_allocatorISt13_Rb_tree_nodeISt4pairIKxxEEE8allocateEmPKv = comdat any

$_ZNK9__gnu_cxx13new_allocatorISt13_Rb_tree_nodeISt4pairIKxxEEE8max_sizeEv = comdat any

$_ZNSt16allocator_traitsISaISt13_Rb_tree_nodeISt4pairIKxxEEEE9constructIS3_JRKSt21piecewise_construct_tSt5tupleIJRS2_EESB_IJEEEEEvRS5_PT_DpOT0_ = comdat any

$_ZN9__gnu_cxx13new_allocatorISt13_Rb_tree_nodeISt4pairIKxxEEE9constructIS4_JRKSt21piecewise_construct_tSt5tupleIJRS3_EESB_IJEEEEEvPT_DpOT0_ = comdat any

$_ZNSt5tupleIJRKxEEC2EOS2_ = comdat any

$_ZNSt4pairIKxxEC2IJRS0_EJEEESt21piecewise_construct_tSt5tupleIJDpT_EES5_IJDpT0_EE = comdat any

$_ZNSt11_Tuple_implILm0EJRKxEEC2EOS2_ = comdat any

$_ZNSt11_Tuple_implILm0EJRKxEE7_M_headERS2_ = comdat any

$_ZNSt10_Head_baseILm0ERKxLb0EEC2ES1_ = comdat any

$_ZNSt10_Head_baseILm0ERKxLb0EE7_M_headERS2_ = comdat any

$_ZNSt4pairIKxxEC2IJRS0_EJLm0EEJEJEEERSt5tupleIJDpT_EERS4_IJDpT1_EESt12_Index_tupleIJXspT0_EEESD_IJXspT2_EEE = comdat any

$_ZSt3getILm0EJRKxEERNSt13tuple_elementIXT_ESt5tupleIJDpT0_EEE4typeERS6_ = comdat any

$_ZSt12__get_helperILm0ERKxJEERT0_RSt11_Tuple_implIXT_EJS2_DpT1_EE = comdat any

$_ZNKSt23_Rb_tree_const_iteratorISt4pairIKxxEE13_M_const_castEv = comdat any

$_ZNKSt8_Rb_treeIxSt4pairIKxxESt10_Select1stIS2_ESt4lessIxESaIS2_EE4sizeEv = comdat any

$_ZNSt8_Rb_treeIxSt4pairIKxxESt10_Select1stIS2_ESt4lessIxESaIS2_EE6_S_keyEPKSt18_Rb_tree_node_base = comdat any

$_ZNSt8_Rb_treeIxSt4pairIKxxESt10_Select1stIS2_ESt4lessIxESaIS2_EE12_M_rightmostEv = comdat any

$_ZNSt4pairIPSt18_Rb_tree_node_baseS1_EC2IRS1_vEERKS1_OT_ = comdat any

$_ZNSt8_Rb_treeIxSt4pairIKxxESt10_Select1stIS2_ESt4lessIxESaIS2_EE24_M_get_insert_unique_posERS1_ = comdat any

$_ZNSt8_Rb_treeIxSt4pairIKxxESt10_Select1stIS2_ESt4lessIxESaIS2_EE11_M_leftmostEv = comdat any

$_ZNSt4pairIPSt18_Rb_tree_node_baseS1_EC2IRS1_S4_vEEOT_OT0_ = comdat any

$_ZNSt17_Rb_tree_iteratorISt4pairIKxxEEmmEv = comdat any

$_ZNSt17_Rb_tree_iteratorISt4pairIKxxEEppEv = comdat any

$_ZNSt4pairIPSt18_Rb_tree_node_baseS1_EC2IRS1_vEEOT_RKS1_ = comdat any

$_ZNSt8_Rb_treeIxSt4pairIKxxESt10_Select1stIS2_ESt4lessIxESaIS2_EE8_S_valueEPKSt18_Rb_tree_node_base = comdat any

$_ZSt7forwardIRPSt18_Rb_tree_node_baseEOT_RNSt16remove_referenceIS3_E4typeE = comdat any

$_ZNSt8_Rb_treeIxSt4pairIKxxESt10_Select1stIS2_ESt4lessIxESaIS2_EE5beginEv = comdat any

$_ZNSt4pairIPSt18_Rb_tree_node_baseS1_EC2IRPSt13_Rb_tree_nodeIS_IKxxEES9_vEEOT_OT0_ = comdat any

$_ZSt7forwardIRPSt13_Rb_tree_nodeISt4pairIKxxEEEOT_RNSt16remove_referenceIS7_E4typeE = comdat any

$_ZNSt11_Tuple_implILm0EJRKxEEC2ES1_ = comdat any

$_ZNSt6vectorIxSaIxEE6insertEN9__gnu_cxx17__normal_iteratorIPKxS1_EEmRS4_ = comdat any

$_ZN9__gnu_cxx17__normal_iteratorIPKxSt6vectorIxSaIxEEEC2IPxEERKNS0_IT_NS_11__enable_ifIXsr3std10__are_sameIS9_S8_EE7__valueES5_E6__typeEEE = comdat any

$_ZNSt6vectorIxSaIxEE15_M_erase_at_endEPx = comdat any

$_ZN9__gnu_cxxmiIPKxSt6vectorIxSaIxEEEENS_17__normal_iteratorIT_T0_E15difference_typeERKS9_SC_ = comdat any

$_ZNKSt6vectorIxSaIxEE6cbeginEv = comdat any

$_ZNSt6vectorIxSaIxEE14_M_fill_insertEN9__gnu_cxx17__normal_iteratorIPxS1_EEmRKx = comdat any

$_ZNK9__gnu_cxx17__normal_iteratorIPxSt6vectorIxSaIxEEEplEl = comdat any

$_ZN9__gnu_cxxmiIPxSt6vectorIxSaIxEEEENS_17__normal_iteratorIT_T0_E15difference_typeERKS8_SB_ = comdat any

$_ZSt22__uninitialized_move_aIPxS0_SaIxEET0_T_S3_S2_RT1_ = comdat any

$_ZSt13move_backwardIPxS0_ET0_T_S2_S1_ = comdat any

$_ZNK9__gnu_cxx17__normal_iteratorIPxSt6vectorIxSaIxEEE4baseEv = comdat any

$_ZSt4fillIPxxEvT_S1_RKT0_ = comdat any

$_ZSt24__uninitialized_fill_n_aIPxmxxET_S1_T0_RKT1_RSaIT2_E = comdat any

$_ZSt18make_move_iteratorIPxESt13move_iteratorIT_ES2_ = comdat any

$_ZSt23__copy_move_backward_a2ILb1EPxS0_ET1_T0_S2_S1_ = comdat any

$_ZSt12__miter_baseIPxENSt11_Miter_baseIT_E13iterator_typeES2_ = comdat any

$_ZSt22__copy_move_backward_aILb1EPxS0_ET1_T0_S2_S1_ = comdat any

$_ZNSt20__copy_move_backwardILb1ELb1ESt26random_access_iterator_tagE13__copy_move_bIxEEPT_PKS3_S6_S4_ = comdat any

$_ZSt8__fill_aIPxxEN9__gnu_cxx11__enable_ifIXsr11__is_scalarIT0_EE7__valueEvE6__typeET_S6_RKS3_ = comdat any

$_ZSt20uninitialized_fill_nIPxmxET_S1_T0_RKT1_ = comdat any

$_ZNSt22__uninitialized_fill_nILb1EE15__uninit_fill_nIPxmxEET_S3_T0_RKT1_ = comdat any

$_ZN9__gnu_cxx17__normal_iteratorIPxSt6vectorIxSaIxEEEC2ERKS1_ = comdat any

$_ZNSt12_Vector_baseISt4pairIxxESaIS1_EEC2Ev = comdat any

$_ZNSt12_Vector_baseISt4pairIxxESaIS1_EE12_Vector_implC2Ev = comdat any

$_ZNSaISt4pairIxxEEC2Ev = comdat any

$_ZN9__gnu_cxx13new_allocatorISt4pairIxxEEC2Ev = comdat any

$_ZSt8_DestroyIPSt4pairIxxES1_EvT_S3_RSaIT0_E = comdat any

$_ZNSt12_Vector_baseISt4pairIxxESaIS1_EE19_M_get_Tp_allocatorEv = comdat any

$_ZNSt12_Vector_baseISt4pairIxxESaIS1_EED2Ev = comdat any

$_ZSt8_DestroyIPSt4pairIxxEEvT_S3_ = comdat any

$_ZNSt12_Destroy_auxILb1EE9__destroyIPSt4pairIxxEEEvT_S5_ = comdat any

$_ZNSt12_Vector_baseISt4pairIxxESaIS1_EE13_M_deallocateEPS1_m = comdat any

$_ZNSt12_Vector_baseISt4pairIxxESaIS1_EE12_Vector_implD2Ev = comdat any

$_ZNSt16allocator_traitsISaISt4pairIxxEEE10deallocateERS2_PS1_m = comdat any

$_ZN9__gnu_cxx13new_allocatorISt4pairIxxEE10deallocateEPS2_m = comdat any

$_ZNSaISt4pairIxxEED2Ev = comdat any

$_ZN9__gnu_cxx13new_allocatorISt4pairIxxEED2Ev = comdat any

$_ZSt4moveIRSt6vectorISt4pairIxxESaIS2_EEEONSt16remove_referenceIT_E4typeEOS7_ = comdat any

$_ZNSt6vectorISt4pairIxxESaIS1_EEC2EOS3_ = comdat any

$_ZSt9make_heapIN9__gnu_cxx17__normal_iteratorIPSt4pairIxxESt6vectorIS3_SaIS3_EEEESt7greaterIS3_EEvT_SB_T0_ = comdat any

$_ZNSt6vectorISt4pairIxxESaIS1_EE5beginEv = comdat any

$_ZNSt6vectorISt4pairIxxESaIS1_EE3endEv = comdat any

$_ZNSt12_Vector_baseISt4pairIxxESaIS1_EEC2EOS3_ = comdat any

$_ZSt4moveIRSaISt4pairIxxEEEONSt16remove_referenceIT_E4typeEOS5_ = comdat any

$_ZNSt12_Vector_baseISt4pairIxxESaIS1_EE12_Vector_implC2EOS2_ = comdat any

$_ZNSt12_Vector_baseISt4pairIxxESaIS1_EE12_Vector_impl12_M_swap_dataERS4_ = comdat any

$_ZNSaISt4pairIxxEEC2ERKS1_ = comdat any

$_ZN9__gnu_cxx13new_allocatorISt4pairIxxEEC2ERKS3_ = comdat any

$_ZSt4swapIPSt4pairIxxEEvRT_S4_ = comdat any

$_ZSt4moveIRPSt4pairIxxEEONSt16remove_referenceIT_E4typeEOS5_ = comdat any

$_ZSt11__make_heapIN9__gnu_cxx17__normal_iteratorIPSt4pairIxxESt6vectorIS3_SaIS3_EEEENS0_5__ops15_Iter_comp_iterISt7greaterIS3_EEEEvT_SE_T0_ = comdat any

$_ZN9__gnu_cxx5__ops16__iter_comp_iterISt7greaterISt4pairIxxEEEENS0_15_Iter_comp_iterIT_EES7_ = comdat any

$_ZN9__gnu_cxxmiIPSt4pairIxxESt6vectorIS2_SaIS2_EEEENS_17__normal_iteratorIT_T0_E15difference_typeERKSA_SD_ = comdat any

$_ZSt4moveIRSt4pairIxxEEONSt16remove_referenceIT_E4typeEOS4_ = comdat any

$_ZNK9__gnu_cxx17__normal_iteratorIPSt4pairIxxESt6vectorIS2_SaIS2_EEEplEl = comdat any

$_ZNK9__gnu_cxx17__normal_iteratorIPSt4pairIxxESt6vectorIS2_SaIS2_EEEdeEv = comdat any

$_ZSt13__adjust_heapIN9__gnu_cxx17__normal_iteratorIPSt4pairIxxESt6vectorIS3_SaIS3_EEEElS3_NS0_5__ops15_Iter_comp_iterISt7greaterIS3_EEEEvT_T0_SF_T1_T2_ = comdat any

$_ZNK9__gnu_cxx17__normal_iteratorIPSt4pairIxxESt6vectorIS2_SaIS2_EEE4baseEv = comdat any

$_ZN9__gnu_cxx17__normal_iteratorIPSt4pairIxxESt6vectorIS2_SaIS2_EEEC2ERKS3_ = comdat any

$_ZN9__gnu_cxx5__ops15_Iter_comp_iterISt7greaterISt4pairIxxEEEclINS_17__normal_iteratorIPS4_St6vectorIS4_SaIS4_EEEESD_EEbT_T0_ = comdat any

$_ZNSt4pairIxxEaSEOS0_ = comdat any

$_ZSt11__push_heapIN9__gnu_cxx17__normal_iteratorIPSt4pairIxxESt6vectorIS3_SaIS3_EEEElS3_NS0_5__ops14_Iter_comp_valISt7greaterIS3_EEEEvT_T0_SF_T1_T2_ = comdat any

$_ZN9__gnu_cxx5__ops15__iter_comp_valISt7greaterISt4pairIxxEEEENS0_14_Iter_comp_valIT_EENS0_15_Iter_comp_iterIS7_EE = comdat any

$_ZNKSt7greaterISt4pairIxxEEclERKS1_S4_ = comdat any

$_ZStgtIxxEbRKSt4pairIT_T0_ES5_ = comdat any

$_ZStltIxxEbRKSt4pairIT_T0_ES5_ = comdat any

$_ZSt7forwardIxEOT_RNSt16remove_referenceIS0_E4typeE = comdat any

$_ZN9__gnu_cxx5__ops14_Iter_comp_valISt7greaterISt4pairIxxEEEclINS_17__normal_iteratorIPS4_St6vectorIS4_SaIS4_EEEES4_EEbT_RT0_ = comdat any

$_ZN9__gnu_cxx5__ops14_Iter_comp_valISt7greaterISt4pairIxxEEEC2ES5_ = comdat any

$_ZN9__gnu_cxx5__ops15_Iter_comp_iterISt7greaterISt4pairIxxEEEC2ES5_ = comdat any

$_ZNSt6vectorISt4pairIxxESaIS1_EE12emplace_backIJRxRiEEEvDpOT_ = comdat any

$_ZSt9push_heapIN9__gnu_cxx17__normal_iteratorIPSt4pairIxxESt6vectorIS3_SaIS3_EEEESt7greaterIS3_EEvT_SB_T0_ = comdat any

$_ZNSt16allocator_traitsISaISt4pairIxxEEE9constructIS1_JRxRiEEEvRS2_PT_DpOT0_ = comdat any

$_ZNSt6vectorISt4pairIxxESaIS1_EE19_M_emplace_back_auxIJRxRiEEEvDpOT_ = comdat any

$_ZN9__gnu_cxx13new_allocatorISt4pairIxxEE9constructIS2_JRxRiEEEvPT_DpOT0_ = comdat any

$_ZNSt4pairIxxEC2IRxRivEEOT_OT0_ = comdat any

$_ZNKSt6vectorISt4pairIxxESaIS1_EE12_M_check_lenEmPKc = comdat any

$_ZNSt12_Vector_baseISt4pairIxxESaIS1_EE11_M_allocateEm = comdat any

$_ZNKSt6vectorISt4pairIxxESaIS1_EE4sizeEv = comdat any

$_ZSt34__uninitialized_move_if_noexcept_aIPSt4pairIxxES2_SaIS1_EET0_T_S5_S4_RT1_ = comdat any

$_ZNSt16allocator_traitsISaISt4pairIxxEEE7destroyIS1_EEvRS2_PT_ = comdat any

$_ZNKSt6vectorISt4pairIxxESaIS1_EE8max_sizeEv = comdat any

$_ZNSt16allocator_traitsISaISt4pairIxxEEE8max_sizeERKS2_ = comdat any

$_ZNKSt12_Vector_baseISt4pairIxxESaIS1_EE19_M_get_Tp_allocatorEv = comdat any

$_ZNK9__gnu_cxx13new_allocatorISt4pairIxxEE8max_sizeEv = comdat any

$_ZNSt16allocator_traitsISaISt4pairIxxEEE8allocateERS2_m = comdat any

$_ZN9__gnu_cxx13new_allocatorISt4pairIxxEE8allocateEmPKv = comdat any

$_ZSt22__uninitialized_copy_aISt13move_iteratorIPSt4pairIxxEES3_S2_ET0_T_S6_S5_RSaIT1_E = comdat any

$_ZSt32__make_move_if_noexcept_iteratorIPSt4pairIxxESt13move_iteratorIS2_EET0_T_ = comdat any

$_ZSt18uninitialized_copyISt13move_iteratorIPSt4pairIxxEES3_ET0_T_S6_S5_ = comdat any

$_ZNSt20__uninitialized_copyILb0EE13__uninit_copyISt13move_iteratorIPSt4pairIxxEES5_EET0_T_S8_S7_ = comdat any

$_ZStneIPSt4pairIxxEEbRKSt13move_iteratorIT_ES7_ = comdat any

$_ZSt10_ConstructISt4pairIxxEJS1_EEvPT_DpOT0_ = comdat any

$_ZSt11__addressofISt4pairIxxEEPT_RS2_ = comdat any

$_ZNKSt13move_iteratorIPSt4pairIxxEEdeEv = comdat any

$_ZNSt13move_iteratorIPSt4pairIxxEEppEv = comdat any

$_ZSteqIPSt4pairIxxEEbRKSt13move_iteratorIT_ES7_ = comdat any

$_ZNKSt13move_iteratorIPSt4pairIxxEE4baseEv = comdat any

$_ZSt7forwardISt4pairIxxEEOT_RNSt16remove_referenceIS2_E4typeE = comdat any

$_ZNSt13move_iteratorIPSt4pairIxxEEC2ES2_ = comdat any

$_ZN9__gnu_cxx13new_allocatorISt4pairIxxEE7destroyIS2_EEvPT_ = comdat any

$_ZNK9__gnu_cxx17__normal_iteratorIPSt4pairIxxESt6vectorIS2_SaIS2_EEEmiEl = comdat any

$_ZN9__gnu_cxx5__ops15__iter_comp_valISt7greaterISt4pairIxxEEEENS0_14_Iter_comp_valIT_EES7_ = comdat any

$_ZNKSt6vectorISt4pairIxxESaIS1_EE5emptyEv = comdat any

$_ZN9__gnu_cxxeqIPKSt4pairIxxESt6vectorIS2_SaIS2_EEEEbRKNS_17__normal_iteratorIT_T0_EESD_ = comdat any

$_ZNKSt6vectorISt4pairIxxESaIS1_EE5beginEv = comdat any

$_ZNKSt6vectorISt4pairIxxESaIS1_EE3endEv = comdat any

$_ZNK9__gnu_cxx17__normal_iteratorIPKSt4pairIxxESt6vectorIS2_SaIS2_EEE4baseEv = comdat any

$_ZN9__gnu_cxx17__normal_iteratorIPKSt4pairIxxESt6vectorIS2_SaIS2_EEEC2ERKS4_ = comdat any

$_ZNKSt6vectorISt4pairIxxESaIS1_EE5frontEv = comdat any

$_ZNK9__gnu_cxx17__normal_iteratorIPKSt4pairIxxESt6vectorIS2_SaIS2_EEEdeEv = comdat any

$_ZSt8pop_heapIN9__gnu_cxx17__normal_iteratorIPSt4pairIxxESt6vectorIS3_SaIS3_EEEESt7greaterIS3_EEvT_SB_T0_ = comdat any

$_ZNSt6vectorISt4pairIxxESaIS1_EE8pop_backEv = comdat any

$_ZN9__gnu_cxx17__normal_iteratorIPSt4pairIxxESt6vectorIS2_SaIS2_EEEmmEv = comdat any

$_ZSt10__pop_heapIN9__gnu_cxx17__normal_iteratorIPSt4pairIxxESt6vectorIS3_SaIS3_EEEENS0_5__ops15_Iter_comp_iterISt7greaterIS3_EEEEvT_SE_SE_T0_ = comdat any

$_ZN9__gnu_cxx17__normal_iteratorIPK4EdgeSt6vectorIS1_SaIS1_EEEC2ERKS3_ = comdat any

$_ZNK9__gnu_cxx17__normal_iteratorIPK4EdgeSt6vectorIS1_SaIS1_EEE4baseEv = comdat any

$_ZNSt6vectorISt4pairIxxESaIS1_EE12emplace_backIJRxRKxEEEvDpOT_ = comdat any

$_ZNSt16allocator_traitsISaISt4pairIxxEEE9constructIS1_JRxRKxEEEvRS2_PT_DpOT0_ = comdat any

$_ZNSt6vectorISt4pairIxxESaIS1_EE19_M_emplace_back_auxIJRxRKxEEEvDpOT_ = comdat any

$_ZN9__gnu_cxx13new_allocatorISt4pairIxxEE9constructIS2_JRxRKxEEEvPT_DpOT0_ = comdat any

$_ZNSt4pairIxxEC2IRxvEEOT_RKx = comdat any

$_ZNSt12_Vector_baseIxSaIxEEC2Ev = comdat any

$_ZNSt12_Vector_baseIxSaIxEE12_Vector_implC2Ev = comdat any

$_ZSt9__reverseIN9__gnu_cxx17__normal_iteratorIPxSt6vectorIxSaIxEEEEEvT_S7_St26random_access_iterator_tag = comdat any

$_ZSt19__iterator_categoryIN9__gnu_cxx17__normal_iteratorIPxSt6vectorIxSaIxEEEEENSt15iterator_traitsIT_E17iterator_categoryERKS8_ = comdat any

$_ZN9__gnu_cxxeqIPxSt6vectorIxSaIxEEEEbRKNS_17__normal_iteratorIT_T0_EESA_ = comdat any

$_ZN9__gnu_cxx17__normal_iteratorIPxSt6vectorIxSaIxEEEmmEv = comdat any

$_ZN9__gnu_cxxltIPxSt6vectorIxSaIxEEEEbRKNS_17__normal_iteratorIT_T0_EESA_ = comdat any

$_ZSt9iter_swapIN9__gnu_cxx17__normal_iteratorIPxSt6vectorIxSaIxEEEES6_EvT_T0_ = comdat any

$_ZN9__gnu_cxx17__normal_iteratorIPxSt6vectorIxSaIxEEEppEv = comdat any

$_ZSt4swapIxEvRT_S1_ = comdat any

$_ZNK9__gnu_cxx17__normal_iteratorIPxSt6vectorIxSaIxEEEdeEv = comdat any

$_ZSt4moveIRxEONSt16remove_referenceIT_E4typeEOS2_ = comdat any

$_ZNSt12_Vector_baseINSt7__cxx1112basic_stringIcSt11char_traitsIcESaIcEEESaIS5_EEC2Ev = comdat any

$_ZNSt12_Vector_baseINSt7__cxx1112basic_stringIcSt11char_traitsIcESaIcEEESaIS5_EE12_Vector_implC2Ev = comdat any

$_ZNSaINSt7__cxx1112basic_stringIcSt11char_traitsIcESaIcEEEEC2Ev = comdat any

$_ZN9__gnu_cxx13new_allocatorINSt7__cxx1112basic_stringIcSt11char_traitsIcESaIcEEEEC2Ev = comdat any

$_ZSt8_DestroyIPNSt7__cxx1112basic_stringIcSt11char_traitsIcESaIcEEES5_EvT_S7_RSaIT0_E = comdat any

$_ZNSt12_Vector_baseINSt7__cxx1112basic_stringIcSt11char_traitsIcESaIcEEESaIS5_EE19_M_get_Tp_allocatorEv = comdat any

$_ZNSt12_Vector_baseINSt7__cxx1112basic_stringIcSt11char_traitsIcESaIcEEESaIS5_EED2Ev = comdat any

$_ZSt8_DestroyIPNSt7__cxx1112basic_stringIcSt11char_traitsIcESaIcEEEEvT_S7_ = comdat any

$_ZNSt12_Destroy_auxILb0EE9__destroyIPNSt7__cxx1112basic_stringIcSt11char_traitsIcESaIcEEEEEvT_S9_ = comdat any

$_ZSt8_DestroyINSt7__cxx1112basic_stringIcSt11char_traitsIcESaIcEEEEvPT_ = comdat any

$_ZSt11__addressofINSt7__cxx1112basic_stringIcSt11char_traitsIcESaIcEEEEPT_RS6_ = comdat any

$_ZNSt12_Vector_baseINSt7__cxx1112basic_stringIcSt11char_traitsIcESaIcEEESaIS5_EE13_M_deallocateEPS5_m = comdat any

$_ZNSt12_Vector_baseINSt7__cxx1112basic_stringIcSt11char_traitsIcESaIcEEESaIS5_EE12_Vector_implD2Ev = comdat any

$_ZNSt16allocator_traitsISaINSt7__cxx1112basic_stringIcSt11char_traitsIcESaIcEEEEE10deallocateERS6_PS5_m = comdat any

$_ZN9__gnu_cxx13new_allocatorINSt7__cxx1112basic_stringIcSt11char_traitsIcESaIcEEEE10deallocateEPS6_m = comdat any

$_ZNSaINSt7__cxx1112basic_stringIcSt11char_traitsIcESaIcEEEED2Ev = comdat any

$_ZN9__gnu_cxx13new_allocatorINSt7__cxx1112basic_stringIcSt11char_traitsIcESaIcEEEED2Ev = comdat any

$_ZNSt16allocator_traitsISaINSt7__cxx1112basic_stringIcSt11char_traitsIcESaIcEEEEE9constructIS5_JRKS5_EEEvRS6_PT_DpOT0_ = comdat any

$_ZNSt6vectorINSt7__cxx1112basic_stringIcSt11char_traitsIcESaIcEEESaIS5_EE19_M_emplace_back_auxIJRKS5_EEEvDpOT_ = comdat any

$_ZN9__gnu_cxx13new_allocatorINSt7__cxx1112basic_stringIcSt11char_traitsIcESaIcEEEE9constructIS6_JRKS6_EEEvPT_DpOT0_ = comdat any

$_ZSt7forwardIRKNSt7__cxx1112basic_stringIcSt11char_traitsIcESaIcEEEEOT_RNSt16remove_referenceIS8_E4typeE = comdat any

$_ZNKSt6vectorINSt7__cxx1112basic_stringIcSt11char_traitsIcESaIcEEESaIS5_EE12_M_check_lenEmPKc = comdat any

$_ZNSt12_Vector_baseINSt7__cxx1112basic_stringIcSt11char_traitsIcESaIcEEESaIS5_EE11_M_allocateEm = comdat any

$_ZNKSt6vectorINSt7__cxx1112basic_stringIcSt11char_traitsIcESaIcEEESaIS5_EE4sizeEv = comdat any

$_ZSt34__uninitialized_move_if_noexcept_aIPNSt7__cxx1112basic_stringIcSt11char_traitsIcESaIcEEES6_SaIS5_EET0_T_S9_S8_RT1_ = comdat any

$_ZNSt16allocator_traitsISaINSt7__cxx1112basic_stringIcSt11char_traitsIcESaIcEEEEE7destroyIS5_EEvRS6_PT_ = comdat any

$_ZNKSt6vectorINSt7__cxx1112basic_stringIcSt11char_traitsIcESaIcEEESaIS5_EE8max_sizeEv = comdat any

$_ZNSt16allocator_traitsISaINSt7__cxx1112basic_stringIcSt11char_traitsIcESaIcEEEEE8max_sizeERKS6_ = comdat any

$_ZNKSt12_Vector_baseINSt7__cxx1112basic_stringIcSt11char_traitsIcESaIcEEESaIS5_EE19_M_get_Tp_allocatorEv = comdat any

$_ZNK9__gnu_cxx13new_allocatorINSt7__cxx1112basic_stringIcSt11char_traitsIcESaIcEEEE8max_sizeEv = comdat any

$_ZNSt16allocator_traitsISaINSt7__cxx1112basic_stringIcSt11char_traitsIcESaIcEEEEE8allocateERS6_m = comdat any

$_ZN9__gnu_cxx13new_allocatorINSt7__cxx1112basic_stringIcSt11char_traitsIcESaIcEEEE8allocateEmPKv = comdat any

$_ZSt22__uninitialized_copy_aISt13move_iteratorIPNSt7__cxx1112basic_stringIcSt11char_traitsIcESaIcEEEES7_S6_ET0_T_SA_S9_RSaIT1_E = comdat any

$_ZSt32__make_move_if_noexcept_iteratorIPNSt7__cxx1112basic_stringIcSt11char_traitsIcESaIcEEESt13move_iteratorIS6_EET0_T_ = comdat any

$_ZSt18uninitialized_copyISt13move_iteratorIPNSt7__cxx1112basic_stringIcSt11char_traitsIcESaIcEEEES7_ET0_T_SA_S9_ = comdat any

$_ZNSt20__uninitialized_copyILb0EE13__uninit_copyISt13move_iteratorIPNSt7__cxx1112basic_stringIcSt11char_traitsIcESaIcEEEES9_EET0_T_SC_SB_ = comdat any

$_ZStneIPNSt7__cxx1112basic_stringIcSt11char_traitsIcESaIcEEEEbRKSt13move_iteratorIT_ESB_ = comdat any

$_ZSt10_ConstructINSt7__cxx1112basic_stringIcSt11char_traitsIcESaIcEEEJS5_EEvPT_DpOT0_ = comdat any

$_ZNKSt13move_iteratorIPNSt7__cxx1112basic_stringIcSt11char_traitsIcESaIcEEEEdeEv = comdat any

$_ZNSt13move_iteratorIPNSt7__cxx1112basic_stringIcSt11char_traitsIcESaIcEEEEppEv = comdat any

$_ZSteqIPNSt7__cxx1112basic_stringIcSt11char_traitsIcESaIcEEEEbRKSt13move_iteratorIT_ESB_ = comdat any

$_ZNKSt13move_iteratorIPNSt7__cxx1112basic_stringIcSt11char_traitsIcESaIcEEEE4baseEv = comdat any

$_ZSt7forwardINSt7__cxx1112basic_stringIcSt11char_traitsIcESaIcEEEEOT_RNSt16remove_referenceIS6_E4typeE = comdat any

$_ZNSt13move_iteratorIPNSt7__cxx1112basic_stringIcSt11char_traitsIcESaIcEEEEC2ES6_ = comdat any

$_ZN9__gnu_cxx13new_allocatorINSt7__cxx1112basic_stringIcSt11char_traitsIcESaIcEEEE7destroyIS6_EEvPT_ = comdat any

$_ZNSt6vectorIxSaIxEE12emplace_backIJxEEEvDpOT_ = comdat any

$_ZNSt16allocator_traitsISaIxEE9constructIxJxEEEvRS0_PT_DpOT0_ = comdat any

$_ZNSt6vectorIxSaIxEE19_M_emplace_back_auxIJxEEEvDpOT_ = comdat any

$_ZN9__gnu_cxx13new_allocatorIxE9constructIxJxEEEvPT_DpOT0_ = comdat any

$_ZSt6__sortIN9__gnu_cxx17__normal_iteratorIPxSt6vectorIxSaIxEEEENS0_5__ops15_Iter_less_iterEEvT_S9_T0_ = comdat any

$_ZN9__gnu_cxx5__ops16__iter_less_iterEv = comdat any

$_ZN9__gnu_cxxneIPxSt6vectorIxSaIxEEEEbRKNS_17__normal_iteratorIT_T0_EESA_ = comdat any

$_ZSt16__introsort_loopIN9__gnu_cxx17__normal_iteratorIPxSt6vectorIxSaIxEEEElNS0_5__ops15_Iter_less_iterEEvT_S9_T0_T1_ = comdat any

$_ZSt4__lgl = comdat any

$_ZSt22__final_insertion_sortIN9__gnu_cxx17__normal_iteratorIPxSt6vectorIxSaIxEEEENS0_5__ops15_Iter_less_iterEEvT_S9_T0_ = comdat any

$_ZSt14__partial_sortIN9__gnu_cxx17__normal_iteratorIPxSt6vectorIxSaIxEEEENS0_5__ops15_Iter_less_iterEEvT_S9_S9_T0_ = comdat any

$_ZSt27__unguarded_partition_pivotIN9__gnu_cxx17__normal_iteratorIPxSt6vectorIxSaIxEEEENS0_5__ops15_Iter_less_iterEET_S9_S9_T0_ = comdat any

$_ZSt13__heap_selectIN9__gnu_cxx17__normal_iteratorIPxSt6vectorIxSaIxEEEENS0_5__ops15_Iter_less_iterEEvT_S9_S9_T0_ = comdat any

$_ZSt11__sort_heapIN9__gnu_cxx17__normal_iteratorIPxSt6vectorIxSaIxEEEENS0_5__ops15_Iter_less_iterEEvT_S9_T0_ = comdat any

$_ZSt11__make_heapIN9__gnu_cxx17__normal_iteratorIPxSt6vectorIxSaIxEEEENS0_5__ops15_Iter_less_iterEEvT_S9_T0_ = comdat any

$_ZNK9__gnu_cxx5__ops15_Iter_less_iterclINS_17__normal_iteratorIPxSt6vectorIxSaIxEEEES8_EEbT_T0_ = comdat any

$_ZSt10__pop_heapIN9__gnu_cxx17__normal_iteratorIPxSt6vectorIxSaIxEEEENS0_5__ops15_Iter_less_iterEEvT_S9_S9_T0_ = comdat any

$_ZSt13__adjust_heapIN9__gnu_cxx17__normal_iteratorIPxSt6vectorIxSaIxEEEElxNS0_5__ops15_Iter_less_iterEEvT_T0_SA_T1_T2_ = comdat any

$_ZSt11__push_heapIN9__gnu_cxx17__normal_iteratorIPxSt6vectorIxSaIxEEEElxNS0_5__ops14_Iter_less_valEEvT_T0_SA_T1_T2_ = comdat any

$_ZN9__gnu_cxx5__ops15__iter_comp_valENS0_15_Iter_less_iterE = comdat any

$_ZNK9__gnu_cxx5__ops14_Iter_less_valclINS_17__normal_iteratorIPxSt6vectorIxSaIxEEEExEEbT_RT0_ = comdat any

$_ZSt22__move_median_to_firstIN9__gnu_cxx17__normal_iteratorIPxSt6vectorIxSaIxEEEENS0_5__ops15_Iter_less_iterEEvT_S9_S9_S9_T0_ = comdat any

$_ZNK9__gnu_cxx17__normal_iteratorIPxSt6vectorIxSaIxEEEmiEl = comdat any

$_ZSt21__unguarded_partitionIN9__gnu_cxx17__normal_iteratorIPxSt6vectorIxSaIxEEEENS0_5__ops15_Iter_less_iterEET_S9_S9_S9_T0_ = comdat any

$_ZSt16__insertion_sortIN9__gnu_cxx17__normal_iteratorIPxSt6vectorIxSaIxEEEENS0_5__ops15_Iter_less_iterEEvT_S9_T0_ = comdat any

$_ZSt26__unguarded_insertion_sortIN9__gnu_cxx17__normal_iteratorIPxSt6vectorIxSaIxEEEENS0_5__ops15_Iter_less_iterEEvT_S9_T0_ = comdat any

$_ZSt13move_backwardIN9__gnu_cxx17__normal_iteratorIPxSt6vectorIxSaIxEEEES6_ET0_T_S8_S7_ = comdat any

$_ZSt25__unguarded_linear_insertIN9__gnu_cxx17__normal_iteratorIPxSt6vectorIxSaIxEEEENS0_5__ops14_Val_less_iterEEvT_T0_ = comdat any

$_ZN9__gnu_cxx5__ops15__val_comp_iterENS0_15_Iter_less_iterE = comdat any

$_ZSt23__copy_move_backward_a2ILb1EN9__gnu_cxx17__normal_iteratorIPxSt6vectorIxSaIxEEEES6_ET1_T0_S8_S7_ = comdat any

$_ZSt12__miter_baseIN9__gnu_cxx17__normal_iteratorIPxSt6vectorIxSaIxEEEEENSt11_Miter_baseIT_E13iterator_typeES8_ = comdat any

$_ZSt12__niter_baseIN9__gnu_cxx17__normal_iteratorIPxSt6vectorIxSaIxEEEEENSt11_Niter_baseIT_E13iterator_typeES8_ = comdat any

$_ZNSt10_Iter_baseIN9__gnu_cxx17__normal_iteratorIPxSt6vectorIxSaIxEEEELb1EE7_S_baseES6_ = comdat any

$_ZNSt10_Iter_baseIN9__gnu_cxx17__normal_iteratorIPxSt6vectorIxSaIxEEEELb0EE7_S_baseES6_ = comdat any

$_ZNK9__gnu_cxx5__ops14_Val_less_iterclIxNS_17__normal_iteratorIPxSt6vectorIxSaIxEEEEEEbRT_T0_ = comdat any

$_ZNSt6vectorISt4pairIxxESaIS1_EE12emplace_backIJS1_EEEvDpOT_ = comdat any

$_ZNSt16allocator_traitsISaISt4pairIxxEEE9constructIS1_JS1_EEEvRS2_PT_DpOT0_ = comdat any

$_ZNSt6vectorISt4pairIxxESaIS1_EE19_M_emplace_back_auxIJS1_EEEvDpOT_ = comdat any

$_ZN9__gnu_cxx13new_allocatorISt4pairIxxEE9constructIS2_JS2_EEEvPT_DpOT0_ = comdat any

$_ZN9__gnu_cxx13new_allocatorISt6vectorI4EdgeSaIS2_EEEC2Ev = comdat any

$_ZN9__gnu_cxx13new_allocatorISt6vectorI4EdgeSaIS2_EEED2Ev = comdat any

$_ZNSt12_Vector_baseISt6vectorI4EdgeSaIS1_EESaIS3_EEC2EmRKS4_ = comdat any

$_ZNSt6vectorIS_I4EdgeSaIS0_EESaIS2_EE21_M_default_initializeEm = comdat any

$_ZNSt12_Vector_baseISt6vectorI4EdgeSaIS1_EESaIS3_EED2Ev = comdat any

$_ZNSt12_Vector_baseISt6vectorI4EdgeSaIS1_EESaIS3_EE12_Vector_implC2ERKS4_ = comdat any

$_ZNSt12_Vector_baseISt6vectorI4EdgeSaIS1_EESaIS3_EE17_M_create_storageEm = comdat any

$_ZNSt12_Vector_baseISt6vectorI4EdgeSaIS1_EESaIS3_EE12_Vector_implD2Ev = comdat any

$_ZNSaISt6vectorI4EdgeSaIS0_EEEC2ERKS3_ = comdat any

$_ZN9__gnu_cxx13new_allocatorISt6vectorI4EdgeSaIS2_EEEC2ERKS5_ = comdat any

$_ZNSt12_Vector_baseISt6vectorI4EdgeSaIS1_EESaIS3_EE11_M_allocateEm = comdat any

$_ZNSt16allocator_traitsISaISt6vectorI4EdgeSaIS1_EEEE8allocateERS4_m = comdat any

$_ZN9__gnu_cxx13new_allocatorISt6vectorI4EdgeSaIS2_EEE8allocateEmPKv = comdat any

$_ZNK9__gnu_cxx13new_allocatorISt6vectorI4EdgeSaIS2_EEE8max_sizeEv = comdat any

$_ZSt27__uninitialized_default_n_aIPSt6vectorI4EdgeSaIS1_EEmS3_ET_S5_T0_RSaIT1_E = comdat any

$_ZNSt12_Vector_baseISt6vectorI4EdgeSaIS1_EESaIS3_EE19_M_get_Tp_allocatorEv = comdat any

$_ZSt25__uninitialized_default_nIPSt6vectorI4EdgeSaIS1_EEmET_S5_T0_ = comdat any

$_ZNSt27__uninitialized_default_n_1ILb0EE18__uninit_default_nIPSt6vectorI4EdgeSaIS3_EEmEET_S7_T0_ = comdat any

$_ZSt10_ConstructISt6vectorI4EdgeSaIS1_EEJEEvPT_DpOT0_ = comdat any

$_ZSt11__addressofISt6vectorI4EdgeSaIS1_EEEPT_RS4_ = comdat any

$_ZSt8_DestroyIPSt6vectorI4EdgeSaIS1_EEEvT_S5_ = comdat any

$_ZNSt6vectorI4EdgeSaIS0_EEC2Ev = comdat any

$_ZNSt12_Vector_baseI4EdgeSaIS0_EEC2Ev = comdat any

$_ZNSt12_Vector_baseI4EdgeSaIS0_EE12_Vector_implC2Ev = comdat any

$_ZNSaI4EdgeEC2Ev = comdat any

$_ZN9__gnu_cxx13new_allocatorI4EdgeEC2Ev = comdat any

$_ZNSt12_Destroy_auxILb0EE9__destroyIPSt6vectorI4EdgeSaIS3_EEEEvT_S7_ = comdat any

$_ZSt8_DestroyISt6vectorI4EdgeSaIS1_EEEvPT_ = comdat any

$_ZNSt6vectorI4EdgeSaIS0_EED2Ev = comdat any

$_ZSt8_DestroyIP4EdgeS0_EvT_S2_RSaIT0_E = comdat any

$_ZNSt12_Vector_baseI4EdgeSaIS0_EE19_M_get_Tp_allocatorEv = comdat any

$_ZNSt12_Vector_baseI4EdgeSaIS0_EED2Ev = comdat any

$_ZSt8_DestroyIP4EdgeEvT_S2_ = comdat any

$_ZNSt12_Destroy_auxILb1EE9__destroyIP4EdgeEEvT_S4_ = comdat any

$_ZNSt12_Vector_baseI4EdgeSaIS0_EE13_M_deallocateEPS0_m = comdat any

$_ZNSt12_Vector_baseI4EdgeSaIS0_EE12_Vector_implD2Ev = comdat any

$_ZNSt16allocator_traitsISaI4EdgeEE10deallocateERS1_PS0_m = comdat any

$_ZN9__gnu_cxx13new_allocatorI4EdgeE10deallocateEPS1_m = comdat any

$_ZNSaI4EdgeED2Ev = comdat any

$_ZN9__gnu_cxx13new_allocatorI4EdgeED2Ev = comdat any

$_ZNSt12_Vector_baseISt6vectorI4EdgeSaIS1_EESaIS3_EE13_M_deallocateEPS3_m = comdat any

$_ZNSt16allocator_traitsISaISt6vectorI4EdgeSaIS1_EEEE10deallocateERS4_PS3_m = comdat any

$_ZN9__gnu_cxx13new_allocatorISt6vectorI4EdgeSaIS2_EEE10deallocateEPS4_m = comdat any

$_ZSt8_DestroyIPSt6vectorI4EdgeSaIS1_EES3_EvT_S5_RSaIT0_E = comdat any

$_ZNSt16allocator_traitsISaI4EdgeEE9constructIS0_JRKS0_EEEvRS1_PT_DpOT0_ = comdat any

$_ZNSt6vectorI4EdgeSaIS0_EE19_M_emplace_back_auxIJRKS0_EEEvDpOT_ = comdat any

$_ZN9__gnu_cxx13new_allocatorI4EdgeE9constructIS1_JRKS1_EEEvPT_DpOT0_ = comdat any

$_ZSt7forwardIRK4EdgeEOT_RNSt16remove_referenceIS3_E4typeE = comdat any

$_ZNKSt6vectorI4EdgeSaIS0_EE12_M_check_lenEmPKc = comdat any

$_ZNSt12_Vector_baseI4EdgeSaIS0_EE11_M_allocateEm = comdat any

$_ZNKSt6vectorI4EdgeSaIS0_EE4sizeEv = comdat any

$_ZSt34__uninitialized_move_if_noexcept_aIP4EdgeS1_SaIS0_EET0_T_S4_S3_RT1_ = comdat any

$_ZNSt16allocator_traitsISaI4EdgeEE7destroyIS0_EEvRS1_PT_ = comdat any

$_ZNKSt6vectorI4EdgeSaIS0_EE8max_sizeEv = comdat any

$_ZNSt16allocator_traitsISaI4EdgeEE8max_sizeERKS1_ = comdat any

$_ZNKSt12_Vector_baseI4EdgeSaIS0_EE19_M_get_Tp_allocatorEv = comdat any

$_ZNK9__gnu_cxx13new_allocatorI4EdgeE8max_sizeEv = comdat any

$_ZNSt16allocator_traitsISaI4EdgeEE8allocateERS1_m = comdat any

$_ZN9__gnu_cxx13new_allocatorI4EdgeE8allocateEmPKv = comdat any

$_ZSt22__uninitialized_copy_aISt13move_iteratorIP4EdgeES2_S1_ET0_T_S5_S4_RSaIT1_E = comdat any

$_ZSt32__make_move_if_noexcept_iteratorIP4EdgeSt13move_iteratorIS1_EET0_T_ = comdat any

$_ZSt18uninitialized_copyISt13move_iteratorIP4EdgeES2_ET0_T_S5_S4_ = comdat any

$_ZNSt20__uninitialized_copyILb1EE13__uninit_copyISt13move_iteratorIP4EdgeES4_EET0_T_S7_S6_ = comdat any

$_ZSt4copyISt13move_iteratorIP4EdgeES2_ET0_T_S5_S4_ = comdat any

$_ZSt14__copy_move_a2ILb1EP4EdgeS1_ET1_T0_S3_S2_ = comdat any

$_ZSt12__miter_baseISt13move_iteratorIP4EdgeEENSt11_Miter_baseIT_E13iterator_typeES5_ = comdat any

$_ZSt13__copy_move_aILb1EP4EdgeS1_ET1_T0_S3_S2_ = comdat any

$_ZSt12__niter_baseIP4EdgeENSt11_Niter_baseIT_E13iterator_typeES3_ = comdat any

$_ZNSt11__copy_moveILb1ELb1ESt26random_access_iterator_tagE8__copy_mI4EdgeEEPT_PKS4_S7_S5_ = comdat any

$_ZNSt10_Iter_baseIP4EdgeLb0EE7_S_baseES1_ = comdat any

$_ZNSt10_Iter_baseISt13move_iteratorIP4EdgeELb1EE7_S_baseES3_ = comdat any

$_ZNKSt13move_iteratorIP4EdgeE4baseEv = comdat any

$_ZNSt13move_iteratorIP4EdgeEC2ES1_ = comdat any

$_ZN9__gnu_cxx13new_allocatorI4EdgeE7destroyIS1_EEvPT_ = comdat any

@_ZStL8__ioinit = internal global %"class.std::ios_base::Init" zeroinitializer, align 1
@__dso_handle = external global i8
@_ZL2PI = internal global x86_fp80 0xK00000000000000000000, align 16
@_ZL3INF = internal constant i64 1152921504606846976, align 8
@_ZSt3cin = external global %"class.std::basic_istream", align 8
@_ZSt4cout = external global %"class.std::basic_ostream", align 8
@.str = private unnamed_addr constant [28 x i8] c"vector::_M_emplace_back_aux\00", align 1
@_ZStL19piecewise_construct = internal constant %"struct.std::piecewise_construct_t" undef, align 1
@.str.2 = private unnamed_addr constant [23 x i8] c"vector::_M_fill_insert\00", align 1
@llvm.global_ctors = appending global [1 x { i32, void ()*, i8* }] [{ i32, void ()*, i8* } { i32 65535, void ()* @_GLOBAL__sub_I_s301713658.cpp, i8* null }]
@x = common global i32 0
@y = common global i32 0
@x.3 = common global i32 0
@y.4 = common global i32 0
@x.5 = common global i32 0
@y.6 = common global i32 0
@x.7 = common global i32 0
@y.8 = common global i32 0
@x.9 = common global i32 0
@y.10 = common global i32 0
@x.11 = common global i32 0
@y.12 = common global i32 0
@x.13 = common global i32 0
@y.14 = common global i32 0
@x.15 = common global i32 0
@y.16 = common global i32 0
@x.17 = common global i32 0
@y.18 = common global i32 0
@x.19 = common global i32 0
@y.20 = common global i32 0
@x.21 = common global i32 0
@y.22 = common global i32 0
@x.23 = common global i32 0
@y.24 = common global i32 0
@x.25 = common global i32 0
@y.26 = common global i32 0
@x.27 = common global i32 0
@y.28 = common global i32 0
@x.29 = common global i32 0
@y.30 = common global i32 0
@x.31 = common global i32 0
@y.32 = common global i32 0
@x.33 = common global i32 0
@y.34 = common global i32 0
@x.35 = common global i32 0
@y.36 = common global i32 0
@x.37 = common global i32 0
@y.38 = common global i32 0
@x.39 = common global i32 0
@y.40 = common global i32 0
@x.41 = common global i32 0
@y.42 = common global i32 0
@x.43 = common global i32 0
@y.44 = common global i32 0
@x.45 = common global i32 0
@y.46 = common global i32 0
@x.47 = common global i32 0
@y.48 = common global i32 0
@x.49 = common global i32 0
@y.50 = common global i32 0
@x.51 = common global i32 0
@y.52 = common global i32 0
@x.53 = common global i32 0
@y.54 = common global i32 0
@x.55 = common global i32 0
@y.56 = common global i32 0
@x.57 = common global i32 0
@y.58 = common global i32 0
@x.59 = common global i32 0
@y.60 = common global i32 0
@x.61 = common global i32 0
@y.62 = common global i32 0
@x.63 = common global i32 0
@y.64 = common global i32 0
@x.65 = common global i32 0
@y.66 = common global i32 0
@x.67 = common global i32 0
@y.68 = common global i32 0
@x.69 = common global i32 0
@y.70 = common global i32 0
@x.71 = common global i32 0
@y.72 = common global i32 0
@x.73 = common global i32 0
@y.74 = common global i32 0
@x.75 = common global i32 0
@y.76 = common global i32 0
@x.77 = common global i32 0
@y.78 = common global i32 0
@x.79 = common global i32 0
@y.80 = common global i32 0
@x.81 = common global i32 0
@y.82 = common global i32 0
@x.83 = common global i32 0
@y.84 = common global i32 0
@x.85 = common global i32 0
@y.86 = common global i32 0
@x.87 = common global i32 0
@y.88 = common global i32 0
@x.89 = common global i32 0
@y.90 = common global i32 0
@x.91 = common global i32 0
@y.92 = common global i32 0
@x.93 = common global i32 0
@y.94 = common global i32 0
@x.95 = common global i32 0
@y.96 = common global i32 0
@x.97 = common global i32 0
@y.98 = common global i32 0
@x.99 = common global i32 0
@y.100 = common global i32 0
@x.101 = common global i32 0
@y.102 = common global i32 0
@x.103 = common global i32 0
@y.104 = common global i32 0
@x.105 = common global i32 0
@y.106 = common global i32 0
@x.107 = common global i32 0
@y.108 = common global i32 0
@x.109 = common global i32 0
@y.110 = common global i32 0
@x.111 = common global i32 0
@y.112 = common global i32 0
@x.113 = common global i32 0
@y.114 = common global i32 0
@x.115 = common global i32 0
@y.116 = common global i32 0
@x.117 = common global i32 0
@y.118 = common global i32 0
@x.119 = common global i32 0
@y.120 = common global i32 0
@x.121 = common global i32 0
@y.122 = common global i32 0
@x.123 = common global i32 0
@y.124 = common global i32 0
@x.125 = common global i32 0
@y.126 = common global i32 0
@x.127 = common global i32 0
@y.128 = common global i32 0
@x.129 = common global i32 0
@y.130 = common global i32 0
@x.131 = common global i32 0
@y.132 = common global i32 0
@x.133 = common global i32 0
@y.134 = common global i32 0
@x.135 = common global i32 0
@y.136 = common global i32 0
@x.137 = common global i32 0
@y.138 = common global i32 0
@x.139 = common global i32 0
@y.140 = common global i32 0
@x.141 = common global i32 0
@y.142 = common global i32 0
@x.143 = common global i32 0
@y.144 = common global i32 0
@x.145 = common global i32 0
@y.146 = common global i32 0
@x.147 = common global i32 0
@y.148 = common global i32 0
@x.149 = common global i32 0
@y.150 = common global i32 0
@x.151 = common global i32 0
@y.152 = common global i32 0
@x.153 = common global i32 0
@y.154 = common global i32 0
@x.155 = common global i32 0
@y.156 = common global i32 0
@x.157 = common global i32 0
@y.158 = common global i32 0
@x.159 = common global i32 0
@y.160 = common global i32 0
@x.161 = common global i32 0
@y.162 = common global i32 0
@x.163 = common global i32 0
@y.164 = common global i32 0
@x.165 = common global i32 0
@y.166 = common global i32 0
@x.167 = common global i32 0
@y.168 = common global i32 0
@x.169 = common global i32 0
@y.170 = common global i32 0
@x.171 = common global i32 0
@y.172 = common global i32 0
@x.173 = common global i32 0
@y.174 = common global i32 0
@x.175 = common global i32 0
@y.176 = common global i32 0
@x.177 = common global i32 0
@y.178 = common global i32 0
@x.179 = common global i32 0
@y.180 = common global i32 0
@x.181 = common global i32 0
@y.182 = common global i32 0
@x.183 = common global i32 0
@y.184 = common global i32 0
@x.185 = common global i32 0
@y.186 = common global i32 0
@x.187 = common global i32 0
@y.188 = common global i32 0
@x.189 = common global i32 0
@y.190 = common global i32 0
@x.191 = common global i32 0
@y.192 = common global i32 0
@x.193 = common global i32 0
@y.194 = common global i32 0
@x.195 = common global i32 0
@y.196 = common global i32 0
@x.197 = common global i32 0
@y.198 = common global i32 0
@x.199 = common global i32 0
@y.200 = common global i32 0
@x.201 = common global i32 0
@y.202 = common global i32 0
@x.203 = common global i32 0
@y.204 = common global i32 0
@x.205 = common global i32 0
@y.206 = common global i32 0
@x.207 = common global i32 0
@y.208 = common global i32 0
@x.209 = common global i32 0
@y.210 = common global i32 0
@x.211 = common global i32 0
@y.212 = common global i32 0
@x.213 = common global i32 0
@y.214 = common global i32 0
@x.215 = common global i32 0
@y.216 = common global i32 0
@x.217 = common global i32 0
@y.218 = common global i32 0
@x.219 = common global i32 0
@y.220 = common global i32 0
@x.221 = common global i32 0
@y.222 = common global i32 0
@x.223 = common global i32 0
@y.224 = common global i32 0
@x.225 = common global i32 0
@y.226 = common global i32 0
@x.227 = common global i32 0
@y.228 = common global i32 0
@x.229 = common global i32 0
@y.230 = common global i32 0
@x.231 = common global i32 0
@y.232 = common global i32 0
@x.233 = common global i32 0
@y.234 = common global i32 0
@x.235 = common global i32 0
@y.236 = common global i32 0
@x.237 = common global i32 0
@y.238 = common global i32 0
@x.239 = common global i32 0
@y.240 = common global i32 0
@x.241 = common global i32 0
@y.242 = common global i32 0
@x.243 = common global i32 0
@y.244 = common global i32 0
@x.245 = common global i32 0
@y.246 = common global i32 0
@x.247 = common global i32 0
@y.248 = common global i32 0
@x.249 = common global i32 0
@y.250 = common global i32 0
@x.251 = common global i32 0
@y.252 = common global i32 0
@x.253 = common global i32 0
@y.254 = common global i32 0
@x.255 = common global i32 0
@y.256 = common global i32 0
@x.257 = common global i32 0
@y.258 = common global i32 0
@x.259 = common global i32 0
@y.260 = common global i32 0
@x.261 = common global i32 0
@y.262 = common global i32 0
@x.263 = common global i32 0
@y.264 = common global i32 0
@x.265 = common global i32 0
@y.266 = common global i32 0
@x.267 = common global i32 0
@y.268 = common global i32 0
@x.269 = common global i32 0
@y.270 = common global i32 0
@x.271 = common global i32 0
@y.272 = common global i32 0
@x.273 = common global i32 0
@y.274 = common global i32 0
@x.275 = common global i32 0
@y.276 = common global i32 0
@x.277 = common global i32 0
@y.278 = common global i32 0
@x.279 = common global i32 0
@y.280 = common global i32 0
@x.281 = common global i32 0
@y.282 = common global i32 0
@x.283 = common global i32 0
@y.284 = common global i32 0
@x.285 = common global i32 0
@y.286 = common global i32 0
@x.287 = common global i32 0
@y.288 = common global i32 0
@x.289 = common global i32 0
@y.290 = common global i32 0
@x.291 = common global i32 0
@y.292 = common global i32 0
@x.293 = common global i32 0
@y.294 = common global i32 0
@x.295 = common global i32 0
@y.296 = common global i32 0
@x.297 = common global i32 0
@y.298 = common global i32 0
@x.299 = common global i32 0
@y.300 = common global i32 0
@x.301 = common global i32 0
@y.302 = common global i32 0
@x.303 = common global i32 0
@y.304 = common global i32 0
@x.305 = common global i32 0
@y.306 = common global i32 0
@x.307 = common global i32 0
@y.308 = common global i32 0
@x.309 = common global i32 0
@y.310 = common global i32 0
@x.311 = common global i32 0
@y.312 = common global i32 0
@x.313 = common global i32 0
@y.314 = common global i32 0
@x.315 = common global i32 0
@y.316 = common global i32 0
@x.317 = common global i32 0
@y.318 = common global i32 0
@x.319 = common global i32 0
@y.320 = common global i32 0
@x.321 = common global i32 0
@y.322 = common global i32 0
@x.323 = common global i32 0
@y.324 = common global i32 0
@x.325 = common global i32 0
@y.326 = common global i32 0
@x.327 = common global i32 0
@y.328 = common global i32 0
@x.329 = common global i32 0
@y.330 = common global i32 0
@x.331 = common global i32 0
@y.332 = common global i32 0
@x.333 = common global i32 0
@y.334 = common global i32 0
@x.335 = common global i32 0
@y.336 = common global i32 0
@x.337 = common global i32 0
@y.338 = common global i32 0
@x.339 = common global i32 0
@y.340 = common global i32 0
@x.341 = common global i32 0
@y.342 = common global i32 0
@x.343 = common global i32 0
@y.344 = common global i32 0
@x.345 = common global i32 0
@y.346 = common global i32 0
@x.347 = common global i32 0
@y.348 = common global i32 0
@x.349 = common global i32 0
@y.350 = common global i32 0
@x.351 = common global i32 0
@y.352 = common global i32 0
@x.353 = common global i32 0
@y.354 = common global i32 0
@x.355 = common global i32 0
@y.356 = common global i32 0
@x.357 = common global i32 0
@y.358 = common global i32 0
@x.359 = common global i32 0
@y.360 = common global i32 0
@x.361 = common global i32 0
@y.362 = common global i32 0
@x.363 = common global i32 0
@y.364 = common global i32 0
@x.365 = common global i32 0
@y.366 = common global i32 0
@x.367 = common global i32 0
@y.368 = common global i32 0
@x.369 = common global i32 0
@y.370 = common global i32 0
@x.371 = common global i32 0
@y.372 = common global i32 0
@x.373 = common global i32 0
@y.374 = common global i32 0
@x.375 = common global i32 0
@y.376 = common global i32 0
@x.377 = common global i32 0
@y.378 = common global i32 0
@x.379 = common global i32 0
@y.380 = common global i32 0
@x.381 = common global i32 0
@y.382 = common global i32 0
@x.383 = common global i32 0
@y.384 = common global i32 0
@x.385 = common global i32 0
@y.386 = common global i32 0
@x.387 = common global i32 0
@y.388 = common global i32 0
@x.389 = common global i32 0
@y.390 = common global i32 0
@x.391 = common global i32 0
@y.392 = common global i32 0
@x.393 = common global i32 0
@y.394 = common global i32 0
@x.395 = common global i32 0
@y.396 = common global i32 0
@x.397 = common global i32 0
@y.398 = common global i32 0
@x.399 = common global i32 0
@y.400 = common global i32 0
@x.401 = common global i32 0
@y.402 = common global i32 0
@x.403 = common global i32 0
@y.404 = common global i32 0
@x.405 = common global i32 0
@y.406 = common global i32 0
@x.407 = common global i32 0
@y.408 = common global i32 0
@x.409 = common global i32 0
@y.410 = common global i32 0
@x.411 = common global i32 0
@y.412 = common global i32 0
@x.413 = common global i32 0
@y.414 = common global i32 0
@x.415 = common global i32 0
@y.416 = common global i32 0
@x.417 = common global i32 0
@y.418 = common global i32 0
@x.419 = common global i32 0
@y.420 = common global i32 0
@x.421 = common global i32 0
@y.422 = common global i32 0
@x.423 = common global i32 0
@y.424 = common global i32 0
@x.425 = common global i32 0
@y.426 = common global i32 0
@x.427 = common global i32 0
@y.428 = common global i32 0
@x.429 = common global i32 0
@y.430 = common global i32 0
@x.431 = common global i32 0
@y.432 = common global i32 0
@x.433 = common global i32 0
@y.434 = common global i32 0
@x.435 = common global i32 0
@y.436 = common global i32 0
@x.437 = common global i32 0
@y.438 = common global i32 0
@x.439 = common global i32 0
@y.440 = common global i32 0
@x.441 = common global i32 0
@y.442 = common global i32 0
@x.443 = common global i32 0
@y.444 = common global i32 0
@x.445 = common global i32 0
@y.446 = common global i32 0
@x.447 = common global i32 0
@y.448 = common global i32 0
@x.449 = common global i32 0
@y.450 = common global i32 0
@x.451 = common global i32 0
@y.452 = common global i32 0
@x.453 = common global i32 0
@y.454 = common global i32 0
@x.455 = common global i32 0
@y.456 = common global i32 0
@x.457 = common global i32 0
@y.458 = common global i32 0
@x.459 = common global i32 0
@y.460 = common global i32 0
@x.461 = common global i32 0
@y.462 = common global i32 0
@x.463 = common global i32 0
@y.464 = common global i32 0
@x.465 = common global i32 0
@y.466 = common global i32 0
@x.467 = common global i32 0
@y.468 = common global i32 0
@x.469 = common global i32 0
@y.470 = common global i32 0
@x.471 = common global i32 0
@y.472 = common global i32 0
@x.473 = common global i32 0
@y.474 = common global i32 0
@x.475 = common global i32 0
@y.476 = common global i32 0
@x.477 = common global i32 0
@y.478 = common global i32 0
@x.479 = common global i32 0
@y.480 = common global i32 0
@x.481 = common global i32 0
@y.482 = common global i32 0
@x.483 = common global i32 0
@y.484 = common global i32 0
@x.485 = common global i32 0
@y.486 = common global i32 0
@x.487 = common global i32 0
@y.488 = common global i32 0
@x.489 = common global i32 0
@y.490 = common global i32 0
@x.491 = common global i32 0
@y.492 = common global i32 0
@x.493 = common global i32 0
@y.494 = common global i32 0
@x.495 = common global i32 0
@y.496 = common global i32 0
@x.497 = common global i32 0
@y.498 = common global i32 0
@x.499 = common global i32 0
@y.500 = common global i32 0
@x.501 = common global i32 0
@y.502 = common global i32 0
@x.503 = common global i32 0
@y.504 = common global i32 0
@x.505 = common global i32 0
@y.506 = common global i32 0
@x.507 = common global i32 0
@y.508 = common global i32 0
@x.509 = common global i32 0
@y.510 = common global i32 0
@x.511 = common global i32 0
@y.512 = common global i32 0
@x.513 = common global i32 0
@y.514 = common global i32 0
@x.515 = common global i32 0
@y.516 = common global i32 0
@x.517 = common global i32 0
@y.518 = common global i32 0
@x.519 = common global i32 0
@y.520 = common global i32 0
@x.521 = common global i32 0
@y.522 = common global i32 0
@x.523 = common global i32 0
@y.524 = common global i32 0
@x.525 = common global i32 0
@y.526 = common global i32 0
@x.527 = common global i32 0
@y.528 = common global i32 0
@x.529 = common global i32 0
@y.530 = common global i32 0
@x.531 = common global i32 0
@y.532 = common global i32 0
@x.533 = common global i32 0
@y.534 = common global i32 0
@x.535 = common global i32 0
@y.536 = common global i32 0
@x.537 = common global i32 0
@y.538 = common global i32 0
@x.539 = common global i32 0
@y.540 = common global i32 0
@x.541 = common global i32 0
@y.542 = common global i32 0
@x.543 = common global i32 0
@y.544 = common global i32 0
@x.545 = common global i32 0
@y.546 = common global i32 0
@x.547 = common global i32 0
@y.548 = common global i32 0
@x.549 = common global i32 0
@y.550 = common global i32 0
@x.551 = common global i32 0
@y.552 = common global i32 0
@x.553 = common global i32 0
@y.554 = common global i32 0
@x.555 = common global i32 0
@y.556 = common global i32 0
@x.557 = common global i32 0
@y.558 = common global i32 0
@x.559 = common global i32 0
@y.560 = common global i32 0
@x.561 = common global i32 0
@y.562 = common global i32 0
@x.563 = common global i32 0
@y.564 = common global i32 0
@x.565 = common global i32 0
@y.566 = common global i32 0
@x.567 = common global i32 0
@y.568 = common global i32 0
@x.569 = common global i32 0
@y.570 = common global i32 0
@x.571 = common global i32 0
@y.572 = common global i32 0
@x.573 = common global i32 0
@y.574 = common global i32 0
@x.575 = common global i32 0
@y.576 = common global i32 0
@x.577 = common global i32 0
@y.578 = common global i32 0
@x.579 = common global i32 0
@y.580 = common global i32 0
@x.581 = common global i32 0
@y.582 = common global i32 0
@x.583 = common global i32 0
@y.584 = common global i32 0
@x.585 = common global i32 0
@y.586 = common global i32 0
@x.587 = common global i32 0
@y.588 = common global i32 0
@x.589 = common global i32 0
@y.590 = common global i32 0
@x.591 = common global i32 0
@y.592 = common global i32 0
@x.593 = common global i32 0
@y.594 = common global i32 0
@x.595 = common global i32 0
@y.596 = common global i32 0
@x.597 = common global i32 0
@y.598 = common global i32 0
@x.599 = common global i32 0
@y.600 = common global i32 0
@x.601 = common global i32 0
@y.602 = common global i32 0
@x.603 = common global i32 0
@y.604 = common global i32 0
@x.605 = common global i32 0
@y.606 = common global i32 0
@x.607 = common global i32 0
@y.608 = common global i32 0
@x.609 = common global i32 0
@y.610 = common global i32 0
@x.611 = common global i32 0
@y.612 = common global i32 0
@x.613 = common global i32 0
@y.614 = common global i32 0
@x.615 = common global i32 0
@y.616 = common global i32 0
@x.617 = common global i32 0
@y.618 = common global i32 0
@x.619 = common global i32 0
@y.620 = common global i32 0
@x.621 = common global i32 0
@y.622 = common global i32 0
@x.623 = common global i32 0
@y.624 = common global i32 0
@x.625 = common global i32 0
@y.626 = common global i32 0
@x.627 = common global i32 0
@y.628 = common global i32 0
@x.629 = common global i32 0
@y.630 = common global i32 0
@x.631 = common global i32 0
@y.632 = common global i32 0
@x.633 = common global i32 0
@y.634 = common global i32 0
@x.635 = common global i32 0
@y.636 = common global i32 0
@x.637 = common global i32 0
@y.638 = common global i32 0
@x.639 = common global i32 0
@y.640 = common global i32 0
@x.641 = common global i32 0
@y.642 = common global i32 0
@x.643 = common global i32 0
@y.644 = common global i32 0
@x.645 = common global i32 0
@y.646 = common global i32 0
@x.647 = common global i32 0
@y.648 = common global i32 0
@x.649 = common global i32 0
@y.650 = common global i32 0
@x.651 = common global i32 0
@y.652 = common global i32 0
@x.653 = common global i32 0
@y.654 = common global i32 0
@x.655 = common global i32 0
@y.656 = common global i32 0
@x.657 = common global i32 0
@y.658 = common global i32 0
@x.659 = common global i32 0
@y.660 = common global i32 0
@x.661 = common global i32 0
@y.662 = common global i32 0
@x.663 = common global i32 0
@y.664 = common global i32 0
@x.665 = common global i32 0
@y.666 = common global i32 0
@x.667 = common global i32 0
@y.668 = common global i32 0
@x.669 = common global i32 0
@y.670 = common global i32 0
@x.671 = common global i32 0
@y.672 = common global i32 0
@x.673 = common global i32 0
@y.674 = common global i32 0
@x.675 = common global i32 0
@y.676 = common global i32 0
@x.677 = common global i32 0
@y.678 = common global i32 0
@x.679 = common global i32 0
@y.680 = common global i32 0
@x.681 = common global i32 0
@y.682 = common global i32 0
@x.683 = common global i32 0
@y.684 = common global i32 0
@x.685 = common global i32 0
@y.686 = common global i32 0
@x.687 = common global i32 0
@y.688 = common global i32 0
@x.689 = common global i32 0
@y.690 = common global i32 0
@x.691 = common global i32 0
@y.692 = common global i32 0
@x.693 = common global i32 0
@y.694 = common global i32 0
@x.695 = common global i32 0
@y.696 = common global i32 0
@x.697 = common global i32 0
@y.698 = common global i32 0
@x.699 = common global i32 0
@y.700 = common global i32 0
@x.701 = common global i32 0
@y.702 = common global i32 0
@x.703 = common global i32 0
@y.704 = common global i32 0
@x.705 = common global i32 0
@y.706 = common global i32 0
@x.707 = common global i32 0
@y.708 = common global i32 0
@x.709 = common global i32 0
@y.710 = common global i32 0
@x.711 = common global i32 0
@y.712 = common global i32 0
@x.713 = common global i32 0
@y.714 = common global i32 0
@x.715 = common global i32 0
@y.716 = common global i32 0
@x.717 = common global i32 0
@y.718 = common global i32 0
@x.719 = common global i32 0
@y.720 = common global i32 0
@x.721 = common global i32 0
@y.722 = common global i32 0
@x.723 = common global i32 0
@y.724 = common global i32 0
@x.725 = common global i32 0
@y.726 = common global i32 0
@x.727 = common global i32 0
@y.728 = common global i32 0
@x.729 = common global i32 0
@y.730 = common global i32 0
@x.731 = common global i32 0
@y.732 = common global i32 0
@x.733 = common global i32 0
@y.734 = common global i32 0
@x.735 = common global i32 0
@y.736 = common global i32 0
@x.737 = common global i32 0
@y.738 = common global i32 0
@x.739 = common global i32 0
@y.740 = common global i32 0
@x.741 = common global i32 0
@y.742 = common global i32 0
@x.743 = common global i32 0
@y.744 = common global i32 0
@x.745 = common global i32 0
@y.746 = common global i32 0
@x.747 = common global i32 0
@y.748 = common global i32 0
@x.749 = common global i32 0
@y.750 = common global i32 0
@x.751 = common global i32 0
@y.752 = common global i32 0
@x.753 = common global i32 0
@y.754 = common global i32 0
@x.755 = common global i32 0
@y.756 = common global i32 0
@x.757 = common global i32 0
@y.758 = common global i32 0
@x.759 = common global i32 0
@y.760 = common global i32 0
@x.761 = common global i32 0
@y.762 = common global i32 0
@x.763 = common global i32 0
@y.764 = common global i32 0
@x.765 = common global i32 0
@y.766 = common global i32 0
@x.767 = common global i32 0
@y.768 = common global i32 0
@x.769 = common global i32 0
@y.770 = common global i32 0
@x.771 = common global i32 0
@y.772 = common global i32 0
@x.773 = common global i32 0
@y.774 = common global i32 0
@x.775 = common global i32 0
@y.776 = common global i32 0
@x.777 = common global i32 0
@y.778 = common global i32 0
@x.779 = common global i32 0
@y.780 = common global i32 0
@x.781 = common global i32 0
@y.782 = common global i32 0
@x.783 = common global i32 0
@y.784 = common global i32 0
@x.785 = common global i32 0
@y.786 = common global i32 0
@x.787 = common global i32 0
@y.788 = common global i32 0
@x.789 = common global i32 0
@y.790 = common global i32 0
@x.791 = common global i32 0
@y.792 = common global i32 0
@x.793 = common global i32 0
@y.794 = common global i32 0
@x.795 = common global i32 0
@y.796 = common global i32 0
@x.797 = common global i32 0
@y.798 = common global i32 0
@x.799 = common global i32 0
@y.800 = common global i32 0
@x.801 = common global i32 0
@y.802 = common global i32 0
@x.803 = common global i32 0
@y.804 = common global i32 0
@x.805 = common global i32 0
@y.806 = common global i32 0
@x.807 = common global i32 0
@y.808 = common global i32 0
@x.809 = common global i32 0
@y.810 = common global i32 0
@x.811 = common global i32 0
@y.812 = common global i32 0
@x.813 = common global i32 0
@y.814 = common global i32 0
@x.815 = common global i32 0
@y.816 = common global i32 0
@x.817 = common global i32 0
@y.818 = common global i32 0
@x.819 = common global i32 0
@y.820 = common global i32 0
@x.821 = common global i32 0
@y.822 = common global i32 0
@x.823 = common global i32 0
@y.824 = common global i32 0
@x.825 = common global i32 0
@y.826 = common global i32 0
@x.827 = common global i32 0
@y.828 = common global i32 0
@x.829 = common global i32 0
@y.830 = common global i32 0
@x.831 = common global i32 0
@y.832 = common global i32 0
@x.833 = common global i32 0
@y.834 = common global i32 0
@x.835 = common global i32 0
@y.836 = common global i32 0
@x.837 = common global i32 0
@y.838 = common global i32 0
@x.839 = common global i32 0
@y.840 = common global i32 0
@x.841 = common global i32 0
@y.842 = common global i32 0
@x.843 = common global i32 0
@y.844 = common global i32 0
@x.845 = common global i32 0
@y.846 = common global i32 0
@x.847 = common global i32 0
@y.848 = common global i32 0
@x.849 = common global i32 0
@y.850 = common global i32 0
@x.851 = common global i32 0
@y.852 = common global i32 0
@x.853 = common global i32 0
@y.854 = common global i32 0
@x.855 = common global i32 0
@y.856 = common global i32 0
@x.857 = common global i32 0
@y.858 = common global i32 0
@x.859 = common global i32 0
@y.860 = common global i32 0
@x.861 = common global i32 0
@y.862 = common global i32 0
@x.863 = common global i32 0
@y.864 = common global i32 0
@x.865 = common global i32 0
@y.866 = common global i32 0
@x.867 = common global i32 0
@y.868 = common global i32 0
@x.869 = common global i32 0
@y.870 = common global i32 0
@x.871 = common global i32 0
@y.872 = common global i32 0
@x.873 = common global i32 0
@y.874 = common global i32 0
@x.875 = common global i32 0
@y.876 = common global i32 0
@x.877 = common global i32 0
@y.878 = common global i32 0
@x.879 = common global i32 0
@y.880 = common global i32 0
@x.881 = common global i32 0
@y.882 = common global i32 0
@x.883 = common global i32 0
@y.884 = common global i32 0
@x.885 = common global i32 0
@y.886 = common global i32 0
@x.887 = common global i32 0
@y.888 = common global i32 0
@x.889 = common global i32 0
@y.890 = common global i32 0
@x.891 = common global i32 0
@y.892 = common global i32 0
@x.893 = common global i32 0
@y.894 = common global i32 0
@x.895 = common global i32 0
@y.896 = common global i32 0
@x.897 = common global i32 0
@y.898 = common global i32 0
@x.899 = common global i32 0
@y.900 = common global i32 0
@x.901 = common global i32 0
@y.902 = common global i32 0
@x.903 = common global i32 0
@y.904 = common global i32 0
@x.905 = common global i32 0
@y.906 = common global i32 0
@x.907 = common global i32 0
@y.908 = common global i32 0
@x.909 = common global i32 0
@y.910 = common global i32 0
@x.911 = common global i32 0
@y.912 = common global i32 0
@x.913 = common global i32 0
@y.914 = common global i32 0
@x.915 = common global i32 0
@y.916 = common global i32 0
@x.917 = common global i32 0
@y.918 = common global i32 0
@x.919 = common global i32 0
@y.920 = common global i32 0
@x.921 = common global i32 0
@y.922 = common global i32 0
@x.923 = common global i32 0
@y.924 = common global i32 0
@x.925 = common global i32 0
@y.926 = common global i32 0
@x.927 = common global i32 0
@y.928 = common global i32 0
@x.929 = common global i32 0
@y.930 = common global i32 0
@x.931 = common global i32 0
@y.932 = common global i32 0
@x.933 = common global i32 0
@y.934 = common global i32 0
@x.935 = common global i32 0
@y.936 = common global i32 0
@x.937 = common global i32 0
@y.938 = common global i32 0
@x.939 = common global i32 0
@y.940 = common global i32 0
@x.941 = common global i32 0
@y.942 = common global i32 0
@x.943 = common global i32 0
@y.944 = common global i32 0
@x.945 = common global i32 0
@y.946 = common global i32 0
@x.947 = common global i32 0
@y.948 = common global i32 0
@x.949 = common global i32 0
@y.950 = common global i32 0
@x.951 = common global i32 0
@y.952 = common global i32 0
@x.953 = common global i32 0
@y.954 = common global i32 0
@x.955 = common global i32 0
@y.956 = common global i32 0
@x.957 = common global i32 0
@y.958 = common global i32 0
@x.959 = common global i32 0
@y.960 = common global i32 0
@x.961 = common global i32 0
@y.962 = common global i32 0
@x.963 = common global i32 0
@y.964 = common global i32 0
@x.965 = common global i32 0
@y.966 = common global i32 0
@x.967 = common global i32 0
@y.968 = common global i32 0
@x.969 = common global i32 0
@y.970 = common global i32 0
@x.971 = common global i32 0
@y.972 = common global i32 0
@x.973 = common global i32 0
@y.974 = common global i32 0
@x.975 = common global i32 0
@y.976 = common global i32 0
@x.977 = common global i32 0
@y.978 = common global i32 0
@x.979 = common global i32 0
@y.980 = common global i32 0
@x.981 = common global i32 0
@y.982 = common global i32 0
@x.983 = common global i32 0
@y.984 = common global i32 0
@x.985 = common global i32 0
@y.986 = common global i32 0
@x.987 = common global i32 0
@y.988 = common global i32 0
@x.989 = common global i32 0
@y.990 = common global i32 0
@x.991 = common global i32 0
@y.992 = common global i32 0
@x.993 = common global i32 0
@y.994 = common global i32 0
@x.995 = common global i32 0
@y.996 = common global i32 0
@x.997 = common global i32 0
@y.998 = common global i32 0
@x.999 = common global i32 0
@y.1000 = common global i32 0
@x.1001 = common global i32 0
@y.1002 = common global i32 0
@x.1003 = common global i32 0
@y.1004 = common global i32 0
@x.1005 = common global i32 0
@y.1006 = common global i32 0
@x.1007 = common global i32 0
@y.1008 = common global i32 0
@x.1009 = common global i32 0
@y.1010 = common global i32 0
@x.1011 = common global i32 0
@y.1012 = common global i32 0
@x.1013 = common global i32 0
@y.1014 = common global i32 0
@x.1015 = common global i32 0
@y.1016 = common global i32 0
@x.1017 = common global i32 0
@y.1018 = common global i32 0
@x.1019 = common global i32 0
@y.1020 = common global i32 0
@x.1021 = common global i32 0
@y.1022 = common global i32 0
@x.1023 = common global i32 0
@y.1024 = common global i32 0
@x.1025 = common global i32 0
@y.1026 = common global i32 0
@x.1027 = common global i32 0
@y.1028 = common global i32 0
@x.1029 = common global i32 0
@y.1030 = common global i32 0
@x.1031 = common global i32 0
@y.1032 = common global i32 0
@x.1033 = common global i32 0
@y.1034 = common global i32 0
@x.1035 = common global i32 0
@y.1036 = common global i32 0
@x.1037 = common global i32 0
@y.1038 = common global i32 0
@x.1039 = common global i32 0
@y.1040 = common global i32 0
@x.1041 = common global i32 0
@y.1042 = common global i32 0
@x.1043 = common global i32 0
@y.1044 = common global i32 0
@x.1045 = common global i32 0
@y.1046 = common global i32 0
@x.1047 = common global i32 0
@y.1048 = common global i32 0
@x.1049 = common global i32 0
@y.1050 = common global i32 0
@x.1051 = common global i32 0
@y.1052 = common global i32 0
@x.1053 = common global i32 0
@y.1054 = common global i32 0
@x.1055 = common global i32 0
@y.1056 = common global i32 0
@x.1057 = common global i32 0
@y.1058 = common global i32 0
@x.1059 = common global i32 0
@y.1060 = common global i32 0
@x.1061 = common global i32 0
@y.1062 = common global i32 0
@x.1063 = common global i32 0
@y.1064 = common global i32 0
@x.1065 = common global i32 0
@y.1066 = common global i32 0
@x.1067 = common global i32 0
@y.1068 = common global i32 0
@x.1069 = common global i32 0
@y.1070 = common global i32 0
@x.1071 = common global i32 0
@y.1072 = common global i32 0
@x.1073 = common global i32 0
@y.1074 = common global i32 0
@x.1075 = common global i32 0
@y.1076 = common global i32 0
@x.1077 = common global i32 0
@y.1078 = common global i32 0
@x.1079 = common global i32 0
@y.1080 = common global i32 0
@x.1081 = common global i32 0
@y.1082 = common global i32 0
@x.1083 = common global i32 0
@y.1084 = common global i32 0
@x.1085 = common global i32 0
@y.1086 = common global i32 0
@x.1087 = common global i32 0
@y.1088 = common global i32 0
@x.1089 = common global i32 0
@y.1090 = common global i32 0
@x.1091 = common global i32 0
@y.1092 = common global i32 0
@x.1093 = common global i32 0
@y.1094 = common global i32 0
@x.1095 = common global i32 0
@y.1096 = common global i32 0
@x.1097 = common global i32 0
@y.1098 = common global i32 0
@x.1099 = common global i32 0
@y.1100 = common global i32 0
@x.1101 = common global i32 0
@y.1102 = common global i32 0
@x.1103 = common global i32 0
@y.1104 = common global i32 0
@x.1105 = common global i32 0
@y.1106 = common global i32 0
@x.1107 = common global i32 0
@y.1108 = common global i32 0
@x.1109 = common global i32 0
@y.1110 = common global i32 0
@x.1111 = common global i32 0
@y.1112 = common global i32 0
@x.1113 = common global i32 0
@y.1114 = common global i32 0
@x.1115 = common global i32 0
@y.1116 = common global i32 0
@x.1117 = common global i32 0
@y.1118 = common global i32 0
@x.1119 = common global i32 0
@y.1120 = common global i32 0
@x.1121 = common global i32 0
@y.1122 = common global i32 0
@x.1123 = common global i32 0
@y.1124 = common global i32 0
@x.1125 = common global i32 0
@y.1126 = common global i32 0
@x.1127 = common global i32 0
@y.1128 = common global i32 0
@x.1129 = common global i32 0
@y.1130 = common global i32 0
@x.1131 = common global i32 0
@y.1132 = common global i32 0
@x.1133 = common global i32 0
@y.1134 = common global i32 0
@x.1135 = common global i32 0
@y.1136 = common global i32 0
@x.1137 = common global i32 0
@y.1138 = common global i32 0
@x.1139 = common global i32 0
@y.1140 = common global i32 0
@x.1141 = common global i32 0
@y.1142 = common global i32 0
@x.1143 = common global i32 0
@y.1144 = common global i32 0
@x.1145 = common global i32 0
@y.1146 = common global i32 0
@x.1147 = common global i32 0
@y.1148 = common global i32 0
@x.1149 = common global i32 0
@y.1150 = common global i32 0
@x.1151 = common global i32 0
@y.1152 = common global i32 0
@x.1153 = common global i32 0
@y.1154 = common global i32 0
@x.1155 = common global i32 0
@y.1156 = common global i32 0
@x.1157 = common global i32 0
@y.1158 = common global i32 0
@x.1159 = common global i32 0
@y.1160 = common global i32 0
@x.1161 = common global i32 0
@y.1162 = common global i32 0
@x.1163 = common global i32 0
@y.1164 = common global i32 0
@x.1165 = common global i32 0
@y.1166 = common global i32 0
@x.1167 = common global i32 0
@y.1168 = common global i32 0
@x.1169 = common global i32 0
@y.1170 = common global i32 0
@x.1171 = common global i32 0
@y.1172 = common global i32 0
@x.1173 = common global i32 0
@y.1174 = common global i32 0
@x.1175 = common global i32 0
@y.1176 = common global i32 0
@x.1177 = common global i32 0
@y.1178 = common global i32 0
@x.1179 = common global i32 0
@y.1180 = common global i32 0
@x.1181 = common global i32 0
@y.1182 = common global i32 0
@x.1183 = common global i32 0
@y.1184 = common global i32 0
@x.1185 = common global i32 0
@y.1186 = common global i32 0
@x.1187 = common global i32 0
@y.1188 = common global i32 0
@x.1189 = common global i32 0
@y.1190 = common global i32 0
@x.1191 = common global i32 0
@y.1192 = common global i32 0
@x.1193 = common global i32 0
@y.1194 = common global i32 0
@x.1195 = common global i32 0
@y.1196 = common global i32 0
@x.1197 = common global i32 0
@y.1198 = common global i32 0
@x.1199 = common global i32 0
@y.1200 = common global i32 0
@x.1201 = common global i32 0
@y.1202 = common global i32 0
@x.1203 = common global i32 0
@y.1204 = common global i32 0
@x.1205 = common global i32 0
@y.1206 = common global i32 0
@x.1207 = common global i32 0
@y.1208 = common global i32 0
@x.1209 = common global i32 0
@y.1210 = common global i32 0
@x.1211 = common global i32 0
@y.1212 = common global i32 0
@x.1213 = common global i32 0
@y.1214 = common global i32 0
@x.1215 = common global i32 0
@y.1216 = common global i32 0
@x.1217 = common global i32 0
@y.1218 = common global i32 0
@x.1219 = common global i32 0
@y.1220 = common global i32 0
@x.1221 = common global i32 0
@y.1222 = common global i32 0
@x.1223 = common global i32 0
@y.1224 = common global i32 0
@x.1225 = common global i32 0
@y.1226 = common global i32 0
@x.1227 = common global i32 0
@y.1228 = common global i32 0
@x.1229 = common global i32 0
@y.1230 = common global i32 0
@x.1231 = common global i32 0
@y.1232 = common global i32 0
@x.1233 = common global i32 0
@y.1234 = common global i32 0
@x.1235 = common global i32 0
@y.1236 = common global i32 0
@x.1237 = common global i32 0
@y.1238 = common global i32 0
@x.1239 = common global i32 0
@y.1240 = common global i32 0
@x.1241 = common global i32 0
@y.1242 = common global i32 0
@x.1243 = common global i32 0
@y.1244 = common global i32 0
@x.1245 = common global i32 0
@y.1246 = common global i32 0
@x.1247 = common global i32 0
@y.1248 = common global i32 0
@x.1249 = common global i32 0
@y.1250 = common global i32 0
@x.1251 = common global i32 0
@y.1252 = common global i32 0
@x.1253 = common global i32 0
@y.1254 = common global i32 0
@x.1255 = common global i32 0
@y.1256 = common global i32 0
@x.1257 = common global i32 0
@y.1258 = common global i32 0
@x.1259 = common global i32 0
@y.1260 = common global i32 0
@x.1261 = common global i32 0
@y.1262 = common global i32 0
@x.1263 = common global i32 0
@y.1264 = common global i32 0
@x.1265 = common global i32 0
@y.1266 = common global i32 0
@x.1267 = common global i32 0
@y.1268 = common global i32 0
@x.1269 = common global i32 0
@y.1270 = common global i32 0
@x.1271 = common global i32 0
@y.1272 = common global i32 0
@x.1273 = common global i32 0
@y.1274 = common global i32 0
@x.1275 = common global i32 0
@y.1276 = common global i32 0
@x.1277 = common global i32 0
@y.1278 = common global i32 0
@x.1279 = common global i32 0
@y.1280 = common global i32 0
@x.1281 = common global i32 0
@y.1282 = common global i32 0
@x.1283 = common global i32 0
@y.1284 = common global i32 0
@x.1285 = common global i32 0
@y.1286 = common global i32 0
@x.1287 = common global i32 0
@y.1288 = common global i32 0
@x.1289 = common global i32 0
@y.1290 = common global i32 0
@x.1291 = common global i32 0
@y.1292 = common global i32 0
@x.1293 = common global i32 0
@y.1294 = common global i32 0
@x.1295 = common global i32 0
@y.1296 = common global i32 0
@x.1297 = common global i32 0
@y.1298 = common global i32 0
@x.1299 = common global i32 0
@y.1300 = common global i32 0
@x.1301 = common global i32 0
@y.1302 = common global i32 0
@x.1303 = common global i32 0
@y.1304 = common global i32 0
@x.1305 = common global i32 0
@y.1306 = common global i32 0
@x.1307 = common global i32 0
@y.1308 = common global i32 0
@x.1309 = common global i32 0
@y.1310 = common global i32 0
@x.1311 = common global i32 0
@y.1312 = common global i32 0
@x.1313 = common global i32 0
@y.1314 = common global i32 0
@x.1315 = common global i32 0
@y.1316 = common global i32 0
@x.1317 = common global i32 0
@y.1318 = common global i32 0
@x.1319 = common global i32 0
@y.1320 = common global i32 0
@x.1321 = common global i32 0
@y.1322 = common global i32 0
@x.1323 = common global i32 0
@y.1324 = common global i32 0
@x.1325 = common global i32 0
@y.1326 = common global i32 0
@x.1327 = common global i32 0
@y.1328 = common global i32 0
@x.1329 = common global i32 0
@y.1330 = common global i32 0
@x.1331 = common global i32 0
@y.1332 = common global i32 0
@x.1333 = common global i32 0
@y.1334 = common global i32 0
@x.1335 = common global i32 0
@y.1336 = common global i32 0
@x.1337 = common global i32 0
@y.1338 = common global i32 0
@x.1339 = common global i32 0
@y.1340 = common global i32 0
@x.1341 = common global i32 0
@y.1342 = common global i32 0
@x.1343 = common global i32 0
@y.1344 = common global i32 0
@x.1345 = common global i32 0
@y.1346 = common global i32 0
@x.1347 = common global i32 0
@y.1348 = common global i32 0
@x.1349 = common global i32 0
@y.1350 = common global i32 0

; Function Attrs: noinline uwtable
define internal void @__cxx_global_var_init() #0 section ".text.startup" {
  %1 = load i32, i32* @x
  %2 = load i32, i32* @y
  %3 = sub i32 %1, 1
  %4 = mul i32 %1, %3
  %5 = urem i32 %4, 2
  %6 = icmp eq i32 %5, 0
  %7 = icmp slt i32 %2, 10
  %8 = or i1 %6, %7
  br i1 %8, label %9, label %20

; <label>:9:                                      ; preds = %0, %20
  call void @_ZNSt8ios_base4InitC1Ev(%"class.std::ios_base::Init"* @_ZStL8__ioinit)
  %10 = call i32 @__cxa_atexit(void (i8*)* bitcast (void (%"class.std::ios_base::Init"*)* @_ZNSt8ios_base4InitD1Ev to void (i8*)*), i8* getelementptr inbounds (%"class.std::ios_base::Init", %"class.std::ios_base::Init"* @_ZStL8__ioinit, i32 0, i32 0), i8* @__dso_handle) #3
  %11 = load i32, i32* @x
  %12 = load i32, i32* @y
  %13 = sub i32 %11, 1
  %14 = mul i32 %11, %13
  %15 = urem i32 %14, 2
  %16 = icmp eq i32 %15, 0
  %17 = icmp slt i32 %12, 10
  %18 = or i1 %16, %17
  br i1 %18, label %19, label %20

; <label>:19:                                     ; preds = %9
  ret void

; <label>:20:                                     ; preds = %9, %0
  call void @_ZNSt8ios_base4InitC1Ev(%"class.std::ios_base::Init"* @_ZStL8__ioinit)
  %21 = call i32 @__cxa_atexit(void (i8*)* bitcast (void (%"class.std::ios_base::Init"*)* @_ZNSt8ios_base4InitD1Ev to void (i8*)*), i8* getelementptr inbounds (%"class.std::ios_base::Init", %"class.std::ios_base::Init"* @_ZStL8__ioinit, i32 0, i32 0), i8* @__dso_handle) #3
  br label %9
}

declare void @_ZNSt8ios_base4InitC1Ev(%"class.std::ios_base::Init"*) unnamed_addr #1

; Function Attrs: nounwind
declare void @_ZNSt8ios_base4InitD1Ev(%"class.std::ios_base::Init"*) unnamed_addr #2

; Function Attrs: nounwind
declare i32 @__cxa_atexit(void (i8*)*, i8*, i8*) #3

; Function Attrs: noinline uwtable
define internal void @__cxx_global_var_init.1() #0 section ".text.startup" {
  %1 = call double @_ZSt4acosIiEN9__gnu_cxx11__enable_ifIXsr12__is_integerIT_EE7__valueEdE6__typeES2_(i32 -1)
  %2 = fpext double %1 to x86_fp80
  store x86_fp80 %2, x86_fp80* @_ZL2PI, align 16
  ret void
}

; Function Attrs: noinline nounwind uwtable
define linkonce_odr double @_ZSt4acosIiEN9__gnu_cxx11__enable_ifIXsr12__is_integerIT_EE7__valueEdE6__typeES2_(i32) #4 comdat {
  %2 = alloca i32, align 4
  store i32 %0, i32* %2, align 4
  %3 = load i32, i32* %2, align 4
  %4 = sitofp i32 %3 to double
  %5 = call double @acos(double %4) #14
  ret double %5
}

; Function Attrs: noinline nounwind uwtable
define zeroext i1 @_Z8is_primex(i64) #4 {
  %2 = alloca i1, align 1
  %3 = alloca i64, align 8
  %4 = alloca i64, align 8
  store i64 %0, i64* %3, align 8
  store i64 2, i64* %4, align 8
  br label %5

; <label>:5:                                      ; preds = %56, %1
  %6 = load i64, i64* %4, align 8
  %7 = load i64, i64* %4, align 8
  %8 = mul nsw i64 %6, %7
  %9 = load i64, i64* %3, align 8
  %10 = icmp sle i64 %8, %9
  br i1 %10, label %11, label %57

; <label>:11:                                     ; preds = %5
  %12 = load i64, i64* %3, align 8
  %13 = load i64, i64* %4, align 8
  %14 = srem i64 %12, %13
  %15 = icmp eq i64 %14, 0
  br i1 %15, label %16, label %35

; <label>:16:                                     ; preds = %11
  %17 = load i32, i32* @x.7
  %18 = load i32, i32* @y.8
  %19 = sub i32 %17, 1
  %20 = mul i32 %17, %19
  %21 = urem i32 %20, 2
  %22 = icmp eq i32 %21, 0
  %23 = icmp slt i32 %18, 10
  %24 = or i1 %22, %23
  br i1 %24, label %25, label %60

; <label>:25:                                     ; preds = %16, %60
  store i1 false, i1* %2, align 1
  %26 = load i32, i32* @x.7
  %27 = load i32, i32* @y.8
  %28 = sub i32 %26, 1
  %29 = mul i32 %26, %28
  %30 = urem i32 %29, 2
  %31 = icmp eq i32 %30, 0
  %32 = icmp slt i32 %27, 10
  %33 = or i1 %31, %32
  br i1 %33, label %34, label %60

; <label>:34:                                     ; preds = %25
  br label %58

; <label>:35:                                     ; preds = %11
  br label %36

; <label>:36:                                     ; preds = %35
  %37 = load i32, i32* @x.7
  %38 = load i32, i32* @y.8
  %39 = sub i32 %37, 1
  %40 = mul i32 %37, %39
  %41 = urem i32 %40, 2
  %42 = icmp eq i32 %41, 0
  %43 = icmp slt i32 %38, 10
  %44 = or i1 %42, %43
  br i1 %44, label %45, label %61

; <label>:45:                                     ; preds = %36, %61
  %46 = load i64, i64* %4, align 8
  %47 = add nsw i64 %46, 1
  store i64 %47, i64* %4, align 8
  %48 = load i32, i32* @x.7
  %49 = load i32, i32* @y.8
  %50 = sub i32 %48, 1
  %51 = mul i32 %48, %50
  %52 = urem i32 %51, 2
  %53 = icmp eq i32 %52, 0
  %54 = icmp slt i32 %49, 10
  %55 = or i1 %53, %54
  br i1 %55, label %56, label %61

; <label>:56:                                     ; preds = %45
  br label %5

; <label>:57:                                     ; preds = %5
  store i1 true, i1* %2, align 1
  br label %58

; <label>:58:                                     ; preds = %57, %34
  %59 = load i1, i1* %2, align 1
  ret i1 %59

; <label>:60:                                     ; preds = %25, %16
  store i1 false, i1* %2, align 1
  br label %25

; <label>:61:                                     ; preds = %45, %36
  %62 = load i64, i64* %4, align 8
  %63 = sub i64 0, %62
  %64 = add i64 %63, 1
  %65 = sub i64 %62, 1
  %66 = mul i64 %65, 1
  %67 = sub i64 0, %62
  %68 = add i64 %67, 1
  %69 = shl i64 %62, 1
  %70 = shl i64 %62, 1
  %71 = add nsw i64 %62, 1
  store i64 %71, i64* %4, align 8
  br label %45
}

; Function Attrs: noinline nounwind uwtable
define i64 @_Z6modpowxxx(i64, i64, i64) #4 {
  %4 = alloca i64, align 8
  %5 = alloca i64, align 8
  %6 = alloca i64, align 8
  %7 = alloca i64, align 8
  store i64 %0, i64* %4, align 8
  store i64 %1, i64* %5, align 8
  store i64 %2, i64* %6, align 8
  store i64 1, i64* %7, align 8
  br label %8

; <label>:8:                                      ; preds = %64, %3
  %9 = load i64, i64* %5, align 8
  %10 = icmp ne i64 %9, 0
  br i1 %10, label %11, label %65

; <label>:11:                                     ; preds = %8
  %12 = load i32, i32* @x.9
  %13 = load i32, i32* @y.10
  %14 = sub i32 %12, 1
  %15 = mul i32 %12, %14
  %16 = urem i32 %15, 2
  %17 = icmp eq i32 %16, 0
  %18 = icmp slt i32 %13, 10
  %19 = or i1 %17, %18
  br i1 %19, label %20, label %85

; <label>:20:                                     ; preds = %11, %85
  %21 = load i64, i64* %5, align 8
  %22 = and i64 %21, 1
  %23 = icmp ne i64 %22, 0
  %24 = load i32, i32* @x.9
  %25 = load i32, i32* @y.10
  %26 = sub i32 %24, 1
  %27 = mul i32 %24, %26
  %28 = urem i32 %27, 2
  %29 = icmp eq i32 %28, 0
  %30 = icmp slt i32 %25, 10
  %31 = or i1 %29, %30
  br i1 %31, label %32, label %85

; <label>:32:                                     ; preds = %20
  br i1 %23, label %33, label %39

; <label>:33:                                     ; preds = %32
  %34 = load i64, i64* %7, align 8
  %35 = load i64, i64* %4, align 8
  %36 = mul nsw i64 %34, %35
  %37 = load i64, i64* %6, align 8
  %38 = srem i64 %36, %37
  store i64 %38, i64* %7, align 8
  br label %39

; <label>:39:                                     ; preds = %33, %32
  %40 = load i32, i32* @x.9
  %41 = load i32, i32* @y.10
  %42 = sub i32 %40, 1
  %43 = mul i32 %40, %42
  %44 = urem i32 %43, 2
  %45 = icmp eq i32 %44, 0
  %46 = icmp slt i32 %41, 10
  %47 = or i1 %45, %46
  br i1 %47, label %48, label %92

; <label>:48:                                     ; preds = %39, %92
  %49 = load i64, i64* %4, align 8
  %50 = load i64, i64* %4, align 8
  %51 = mul nsw i64 %49, %50
  %52 = load i64, i64* %6, align 8
  %53 = srem i64 %51, %52
  store i64 %53, i64* %4, align 8
  %54 = load i64, i64* %5, align 8
  %55 = ashr i64 %54, 1
  store i64 %55, i64* %5, align 8
  %56 = load i32, i32* @x.9
  %57 = load i32, i32* @y.10
  %58 = sub i32 %56, 1
  %59 = mul i32 %56, %58
  %60 = urem i32 %59, 2
  %61 = icmp eq i32 %60, 0
  %62 = icmp slt i32 %57, 10
  %63 = or i1 %61, %62
  br i1 %63, label %64, label %92

; <label>:64:                                     ; preds = %48
  br label %8

; <label>:65:                                     ; preds = %8
  %66 = load i32, i32* @x.9
  %67 = load i32, i32* @y.10
  %68 = sub i32 %66, 1
  %69 = mul i32 %66, %68
  %70 = urem i32 %69, 2
  %71 = icmp eq i32 %70, 0
  %72 = icmp slt i32 %67, 10
  %73 = or i1 %71, %72
  br i1 %73, label %74, label %125

; <label>:74:                                     ; preds = %65, %125
  %75 = load i64, i64* %7, align 8
  %76 = load i32, i32* @x.9
  %77 = load i32, i32* @y.10
  %78 = sub i32 %76, 1
  %79 = mul i32 %76, %78
  %80 = urem i32 %79, 2
  %81 = icmp eq i32 %80, 0
  %82 = icmp slt i32 %77, 10
  %83 = or i1 %81, %82
  br i1 %83, label %84, label %125

; <label>:84:                                     ; preds = %74
  ret i64 %75

; <label>:85:                                     ; preds = %20, %11
  %86 = load i64, i64* %5, align 8
  %87 = shl i64 %86, 1
  %88 = sub i64 %86, 1
  %89 = mul i64 %88, 1
  %90 = and i64 %86, 1
  %91 = icmp ne i64 %90, 0
  br label %20

; <label>:92:                                     ; preds = %48, %39
  %93 = load i64, i64* %4, align 8
  %94 = load i64, i64* %4, align 8
  %95 = mul nsw i64 %93, %94
  %96 = load i64, i64* %6, align 8
  %97 = sub i64 0, %95
  %98 = add i64 %97, %96
  %99 = sub i64 0, %95
  %100 = add i64 %99, %96
  %101 = sub i64 %95, %96
  %102 = mul i64 %101, %96
  %103 = sub i64 0, %95
  %104 = add i64 %103, %96
  %105 = sub i64 %95, %96
  %106 = mul i64 %105, %96
  %107 = srem i64 %95, %96
  store i64 %107, i64* %4, align 8
  %108 = load i64, i64* %5, align 8
  %109 = shl i64 %108, 1
  %110 = sub i64 0, %108
  %111 = add i64 %110, 1
  %112 = sub i64 %108, 1
  %113 = mul i64 %112, 1
  %114 = sub i64 %108, 1
  %115 = mul i64 %114, 1
  %116 = sub i64 %108, 1
  %117 = mul i64 %116, 1
  %118 = sub i64 0, %108
  %119 = add i64 %118, 1
  %120 = sub i64 0, %108
  %121 = add i64 %120, 1
  %122 = sub i64 0, %108
  %123 = add i64 %122, 1
  %124 = ashr i64 %108, 1
  store i64 %124, i64* %5, align 8
  br label %48

; <label>:125:                                    ; preds = %74, %65
  %126 = load i64, i64* %7, align 8
  br label %74
}

; Function Attrs: noinline nounwind uwtable
define i64 @_Z5combixx(i64, i64) #4 {
  %3 = alloca i64, align 8
  %4 = alloca i64, align 8
  %5 = alloca i64, align 8
  %6 = alloca i64, align 8
  %7 = alloca i64, align 8
  %8 = alloca i64, align 8
  store i64 %0, i64* %3, align 8
  store i64 %1, i64* %4, align 8
  store i64 1, i64* %5, align 8
  store i64 1, i64* %6, align 8
  %9 = load i64, i64* %3, align 8
  %10 = load i64, i64* %4, align 8
  %11 = sub nsw i64 %9, %10
  %12 = add nsw i64 %11, 1
  store i64 %12, i64* %7, align 8
  br label %13

; <label>:13:                                     ; preds = %60, %2
  %14 = load i32, i32* @x.11
  %15 = load i32, i32* @y.12
  %16 = sub i32 %14, 1
  %17 = mul i32 %14, %16
  %18 = urem i32 %17, 2
  %19 = icmp eq i32 %18, 0
  %20 = icmp slt i32 %15, 10
  %21 = or i1 %19, %20
  br i1 %21, label %22, label %102

; <label>:22:                                     ; preds = %13, %102
  %23 = load i64, i64* %7, align 8
  %24 = load i64, i64* %3, align 8
  %25 = icmp sle i64 %23, %24
  %26 = load i32, i32* @x.11
  %27 = load i32, i32* @y.12
  %28 = sub i32 %26, 1
  %29 = mul i32 %26, %28
  %30 = urem i32 %29, 2
  %31 = icmp eq i32 %30, 0
  %32 = icmp slt i32 %27, 10
  %33 = or i1 %31, %32
  br i1 %33, label %34, label %102

; <label>:34:                                     ; preds = %22
  br i1 %25, label %35, label %63

; <label>:35:                                     ; preds = %34
  %36 = load i32, i32* @x.11
  %37 = load i32, i32* @y.12
  %38 = sub i32 %36, 1
  %39 = mul i32 %36, %38
  %40 = urem i32 %39, 2
  %41 = icmp eq i32 %40, 0
  %42 = icmp slt i32 %37, 10
  %43 = or i1 %41, %42
  br i1 %43, label %44, label %106

; <label>:44:                                     ; preds = %35, %106
  %45 = load i64, i64* %7, align 8
  %46 = srem i64 %45, 1000000007
  %47 = load i64, i64* %5, align 8
  %48 = mul nsw i64 %47, %46
  store i64 %48, i64* %5, align 8
  %49 = load i64, i64* %5, align 8
  %50 = srem i64 %49, 1000000007
  store i64 %50, i64* %5, align 8
  %51 = load i32, i32* @x.11
  %52 = load i32, i32* @y.12
  %53 = sub i32 %51, 1
  %54 = mul i32 %51, %53
  %55 = urem i32 %54, 2
  %56 = icmp eq i32 %55, 0
  %57 = icmp slt i32 %52, 10
  %58 = or i1 %56, %57
  br i1 %58, label %59, label %106

; <label>:59:                                     ; preds = %44
  br label %60

; <label>:60:                                     ; preds = %59
  %61 = load i64, i64* %7, align 8
  %62 = add nsw i64 %61, 1
  store i64 %62, i64* %7, align 8
  br label %13

; <label>:63:                                     ; preds = %34
  store i64 2, i64* %8, align 8
  br label %64

; <label>:64:                                     ; preds = %91, %63
  %65 = load i64, i64* %8, align 8
  %66 = load i64, i64* %4, align 8
  %67 = icmp sle i64 %65, %66
  br i1 %67, label %68, label %94

; <label>:68:                                     ; preds = %64
  %69 = load i32, i32* @x.11
  %70 = load i32, i32* @y.12
  %71 = sub i32 %69, 1
  %72 = mul i32 %69, %71
  %73 = urem i32 %72, 2
  %74 = icmp eq i32 %73, 0
  %75 = icmp slt i32 %70, 10
  %76 = or i1 %74, %75
  br i1 %76, label %77, label %132

; <label>:77:                                     ; preds = %68, %132
  %78 = load i64, i64* %6, align 8
  %79 = load i64, i64* %8, align 8
  %80 = mul nsw i64 %78, %79
  %81 = srem i64 %80, 1000000007
  store i64 %81, i64* %6, align 8
  %82 = load i32, i32* @x.11
  %83 = load i32, i32* @y.12
  %84 = sub i32 %82, 1
  %85 = mul i32 %82, %84
  %86 = urem i32 %85, 2
  %87 = icmp eq i32 %86, 0
  %88 = icmp slt i32 %83, 10
  %89 = or i1 %87, %88
  br i1 %89, label %90, label %132

; <label>:90:                                     ; preds = %77
  br label %91

; <label>:91:                                     ; preds = %90
  %92 = load i64, i64* %8, align 8
  %93 = add nsw i64 %92, 1
  store i64 %93, i64* %8, align 8
  br label %64

; <label>:94:                                     ; preds = %64
  %95 = load i64, i64* %6, align 8
  %96 = call i64 @_Z6modpowxxx(i64 %95, i64 1000000005, i64 1000000007)
  store i64 %96, i64* %6, align 8
  %97 = load i64, i64* %5, align 8
  %98 = srem i64 %97, 1000000007
  %99 = load i64, i64* %6, align 8
  %100 = mul nsw i64 %98, %99
  %101 = srem i64 %100, 1000000007
  ret i64 %101

; <label>:102:                                    ; preds = %22, %13
  %103 = load i64, i64* %7, align 8
  %104 = load i64, i64* %3, align 8
  %105 = icmp sle i64 %103, %104
  br label %22

; <label>:106:                                    ; preds = %44, %35
  %107 = load i64, i64* %7, align 8
  %108 = srem i64 %107, 1000000007
  %109 = load i64, i64* %5, align 8
  %110 = sub i64 %109, %108
  %111 = mul i64 %110, %108
  %112 = sub i64 0, %109
  %113 = add i64 %112, %108
  %114 = sub i64 0, %109
  %115 = add i64 %114, %108
  %116 = shl i64 %109, %108
  %117 = mul nsw i64 %109, %108
  store i64 %117, i64* %5, align 8
  %118 = load i64, i64* %5, align 8
  %119 = shl i64 %118, 1000000007
  %120 = sub i64 %118, 1000000007
  %121 = mul i64 %120, 1000000007
  %122 = shl i64 %118, 1000000007
  %123 = sub i64 %118, 1000000007
  %124 = mul i64 %123, 1000000007
  %125 = shl i64 %118, 1000000007
  %126 = shl i64 %118, 1000000007
  %127 = sub i64 0, %118
  %128 = add i64 %127, 1000000007
  %129 = sub i64 0, %118
  %130 = add i64 %129, 1000000007
  %131 = srem i64 %118, 1000000007
  store i64 %131, i64* %5, align 8
  br label %44

; <label>:132:                                    ; preds = %77, %68
  %133 = load i64, i64* %6, align 8
  %134 = load i64, i64* %8, align 8
  %135 = sub i64 %133, %134
  %136 = mul i64 %135, %134
  %137 = shl i64 %133, %134
  %138 = sub i64 0, %133
  %139 = add i64 %138, %134
  %140 = shl i64 %133, %134
  %141 = sub i64 0, %133
  %142 = add i64 %141, %134
  %143 = sub i64 %133, %134
  %144 = mul i64 %143, %134
  %145 = sub i64 0, %133
  %146 = add i64 %145, %134
  %147 = mul nsw i64 %133, %134
  %148 = sub i64 0, %147
  %149 = add i64 %148, 1000000007
  %150 = sub i64 0, %147
  %151 = add i64 %150, 1000000007
  %152 = sub i64 %147, 1000000007
  %153 = mul i64 %152, 1000000007
  %154 = srem i64 %147, 1000000007
  store i64 %154, i64* %6, align 8
  br label %77
}

; Function Attrs: noinline uwtable
define void @_Z3dfsSt6vectorIxSaIxEExxxRS_IS1_SaIS1_EE(%"class.std::vector.0"*, i64, i64, i64, %"class.std::vector"* dereferenceable(24)) #0 personality i8* bitcast (i32 (...)* @__gxx_personality_v0 to i8*) {
  %6 = alloca i64, align 8
  %7 = alloca i64, align 8
  %8 = alloca i64, align 8
  %9 = alloca %"class.std::vector"*, align 8
  %10 = alloca i64, align 8
  %11 = alloca %"class.std::vector.0", align 8
  %12 = alloca i8*
  %13 = alloca i32
  store i64 %1, i64* %6, align 8
  store i64 %2, i64* %7, align 8
  store i64 %3, i64* %8, align 8
  store %"class.std::vector"* %4, %"class.std::vector"** %9, align 8
  %14 = call i64 @_ZNKSt6vectorIxSaIxEE4sizeEv(%"class.std::vector.0"* %0) #3
  %15 = load i64, i64* %8, align 8
  %16 = icmp eq i64 %14, %15
  br i1 %16, label %17, label %37

; <label>:17:                                     ; preds = %5
  %18 = load i32, i32* @x.13
  %19 = load i32, i32* @y.14
  %20 = sub i32 %18, 1
  %21 = mul i32 %18, %20
  %22 = urem i32 %21, 2
  %23 = icmp eq i32 %22, 0
  %24 = icmp slt i32 %19, 10
  %25 = or i1 %23, %24
  br i1 %25, label %26, label %123

; <label>:26:                                     ; preds = %17, %123
  %27 = load %"class.std::vector"*, %"class.std::vector"** %9, align 8
  call void @_ZNSt6vectorIS_IxSaIxEESaIS1_EE9push_backERKS1_(%"class.std::vector"* %27, %"class.std::vector.0"* dereferenceable(24) %0)
  %28 = load i32, i32* @x.13
  %29 = load i32, i32* @y.14
  %30 = sub i32 %28, 1
  %31 = mul i32 %28, %30
  %32 = urem i32 %31, 2
  %33 = icmp eq i32 %32, 0
  %34 = icmp slt i32 %29, 10
  %35 = or i1 %33, %34
  br i1 %35, label %36, label %123

; <label>:36:                                     ; preds = %26
  br label %117

; <label>:37:                                     ; preds = %5
  %38 = call i64 @_ZNKSt6vectorIxSaIxEE4sizeEv(%"class.std::vector.0"* %0) #3
  %39 = icmp ugt i64 %38, 0
  br i1 %39, label %40, label %41

; <label>:40:                                     ; preds = %37
  br label %61

; <label>:41:                                     ; preds = %37
  %42 = load i32, i32* @x.13
  %43 = load i32, i32* @y.14
  %44 = sub i32 %42, 1
  %45 = mul i32 %42, %44
  %46 = urem i32 %45, 2
  %47 = icmp eq i32 %46, 0
  %48 = icmp slt i32 %43, 10
  %49 = or i1 %47, %48
  br i1 %49, label %50, label %125

; <label>:50:                                     ; preds = %41, %125
  %51 = load i64, i64* %6, align 8
  %52 = load i32, i32* @x.13
  %53 = load i32, i32* @y.14
  %54 = sub i32 %52, 1
  %55 = mul i32 %52, %54
  %56 = urem i32 %55, 2
  %57 = icmp eq i32 %56, 0
  %58 = icmp slt i32 %53, 10
  %59 = or i1 %57, %58
  br i1 %59, label %60, label %125

; <label>:60:                                     ; preds = %50
  br label %61

; <label>:61:                                     ; preds = %60, %40
  %62 = phi i64 [ 0, %40 ], [ %51, %60 ]
  %63 = load i32, i32* @x.13
  %64 = load i32, i32* @y.14
  %65 = sub i32 %63, 1
  %66 = mul i32 %63, %65
  %67 = urem i32 %66, 2
  %68 = icmp eq i32 %67, 0
  %69 = icmp slt i32 %64, 10
  %70 = or i1 %68, %69
  br i1 %70, label %71, label %127

; <label>:71:                                     ; preds = %61, %127
  store i64 %62, i64* %10, align 8
  %72 = load i32, i32* @x.13
  %73 = load i32, i32* @y.14
  %74 = sub i32 %72, 1
  %75 = mul i32 %72, %74
  %76 = urem i32 %75, 2
  %77 = icmp eq i32 %76, 0
  %78 = icmp slt i32 %73, 10
  %79 = or i1 %77, %78
  br i1 %79, label %80, label %127

; <label>:80:                                     ; preds = %71
  br label %81

; <label>:81:                                     ; preds = %109, %80
  %82 = load i64, i64* %10, align 8
  %83 = load i64, i64* %7, align 8
  %84 = icmp sle i64 %82, %83
  br i1 %84, label %85, label %116

; <label>:85:                                     ; preds = %81
  call void @_ZNSt6vectorIxSaIxEE9push_backERKx(%"class.std::vector.0"* %0, i64* dereferenceable(8) %10)
  call void @_ZNSt6vectorIxSaIxEEC2ERKS1_(%"class.std::vector.0"* %11, %"class.std::vector.0"* dereferenceable(24) %0)
  %86 = load i64, i64* %6, align 8
  %87 = load i64, i64* %7, align 8
  %88 = load i64, i64* %8, align 8
  %89 = load %"class.std::vector"*, %"class.std::vector"** %9, align 8
  invoke void @_Z3dfsSt6vectorIxSaIxEExxxRS_IS1_SaIS1_EE(%"class.std::vector.0"* %11, i64 %86, i64 %87, i64 %88, %"class.std::vector"* dereferenceable(24) %89)
          to label %90 unwind label %112

; <label>:90:                                     ; preds = %85
  %91 = load i32, i32* @x.13
  %92 = load i32, i32* @y.14
  %93 = sub i32 %91, 1
  %94 = mul i32 %91, %93
  %95 = urem i32 %94, 2
  %96 = icmp eq i32 %95, 0
  %97 = icmp slt i32 %92, 10
  %98 = or i1 %96, %97
  br i1 %98, label %99, label %128

; <label>:99:                                     ; preds = %90, %128
  call void @_ZNSt6vectorIxSaIxEED2Ev(%"class.std::vector.0"* %11) #3
  call void @_ZNSt6vectorIxSaIxEE8pop_backEv(%"class.std::vector.0"* %0) #3
  %100 = load i32, i32* @x.13
  %101 = load i32, i32* @y.14
  %102 = sub i32 %100, 1
  %103 = mul i32 %100, %102
  %104 = urem i32 %103, 2
  %105 = icmp eq i32 %104, 0
  %106 = icmp slt i32 %101, 10
  %107 = or i1 %105, %106
  br i1 %107, label %108, label %128

; <label>:108:                                    ; preds = %99
  br label %109

; <label>:109:                                    ; preds = %108
  %110 = load i64, i64* %10, align 8
  %111 = add nsw i64 %110, 1
  store i64 %111, i64* %10, align 8
  br label %81

; <label>:112:                                    ; preds = %85
  %113 = landingpad { i8*, i32 }
          cleanup
  %114 = extractvalue { i8*, i32 } %113, 0
  store i8* %114, i8** %12, align 8
  %115 = extractvalue { i8*, i32 } %113, 1
  store i32 %115, i32* %13, align 4
  call void @_ZNSt6vectorIxSaIxEED2Ev(%"class.std::vector.0"* %11) #3
  br label %118

; <label>:116:                                    ; preds = %81
  br label %117

; <label>:117:                                    ; preds = %116, %36
  ret void

; <label>:118:                                    ; preds = %112
  %119 = load i8*, i8** %12, align 8
  %120 = load i32, i32* %13, align 4
  %121 = insertvalue { i8*, i32 } undef, i8* %119, 0
  %122 = insertvalue { i8*, i32 } %121, i32 %120, 1
  resume { i8*, i32 } %122

; <label>:123:                                    ; preds = %26, %17
  %124 = load %"class.std::vector"*, %"class.std::vector"** %9, align 8
  call void @_ZNSt6vectorIS_IxSaIxEESaIS1_EE9push_backERKS1_(%"class.std::vector"* %124, %"class.std::vector.0"* dereferenceable(24) %0)
  br label %26

; <label>:125:                                    ; preds = %50, %41
  %126 = load i64, i64* %6, align 8
  br label %50

; <label>:127:                                    ; preds = %71, %61
  store i64 %62, i64* %10, align 8
  br label %71

; <label>:128:                                    ; preds = %99, %90
  call void @_ZNSt6vectorIxSaIxEED2Ev(%"class.std::vector.0"* %11) #3
  call void @_ZNSt6vectorIxSaIxEE8pop_backEv(%"class.std::vector.0"* %0) #3
  br label %99
}

; Function Attrs: noinline nounwind uwtable
define linkonce_odr i64 @_ZNKSt6vectorIxSaIxEE4sizeEv(%"class.std::vector.0"*) #4 comdat align 2 {
  %2 = alloca %"class.std::vector.0"*, align 8
  store %"class.std::vector.0"* %0, %"class.std::vector.0"** %2, align 8
  %3 = load %"class.std::vector.0"*, %"class.std::vector.0"** %2, align 8
  %4 = bitcast %"class.std::vector.0"* %3 to %"struct.std::_Vector_base.1"*
  %5 = getelementptr inbounds %"struct.std::_Vector_base.1", %"struct.std::_Vector_base.1"* %4, i32 0, i32 0
  %6 = getelementptr inbounds %"struct.std::_Vector_base<long long, std::allocator<long long> >::_Vector_impl", %"struct.std::_Vector_base<long long, std::allocator<long long> >::_Vector_impl"* %5, i32 0, i32 1
  %7 = load i64*, i64** %6, align 8
  %8 = bitcast %"class.std::vector.0"* %3 to %"struct.std::_Vector_base.1"*
  %9 = getelementptr inbounds %"struct.std::_Vector_base.1", %"struct.std::_Vector_base.1"* %8, i32 0, i32 0
  %10 = getelementptr inbounds %"struct.std::_Vector_base<long long, std::allocator<long long> >::_Vector_impl", %"struct.std::_Vector_base<long long, std::allocator<long long> >::_Vector_impl"* %9, i32 0, i32 0
  %11 = load i64*, i64** %10, align 8
  %12 = ptrtoint i64* %7 to i64
  %13 = ptrtoint i64* %11 to i64
  %14 = sub i64 %12, %13
  %15 = sdiv exact i64 %14, 8
  ret i64 %15
}

; Function Attrs: noinline uwtable
define linkonce_odr void @_ZNSt6vectorIS_IxSaIxEESaIS1_EE9push_backERKS1_(%"class.std::vector"*, %"class.std::vector.0"* dereferenceable(24)) #0 comdat align 2 {
  %3 = alloca %"class.std::vector"*, align 8
  %4 = alloca %"class.std::vector.0"*, align 8
  store %"class.std::vector"* %0, %"class.std::vector"** %3, align 8
  store %"class.std::vector.0"* %1, %"class.std::vector.0"** %4, align 8
  %5 = load %"class.std::vector"*, %"class.std::vector"** %3, align 8
  %6 = bitcast %"class.std::vector"* %5 to %"struct.std::_Vector_base"*
  %7 = getelementptr inbounds %"struct.std::_Vector_base", %"struct.std::_Vector_base"* %6, i32 0, i32 0
  %8 = getelementptr inbounds %"struct.std::_Vector_base<std::vector<long long, std::allocator<long long> >, std::allocator<std::vector<long long, std::allocator<long long> > > >::_Vector_impl", %"struct.std::_Vector_base<std::vector<long long, std::allocator<long long> >, std::allocator<std::vector<long long, std::allocator<long long> > > >::_Vector_impl"* %7, i32 0, i32 1
  %9 = load %"class.std::vector.0"*, %"class.std::vector.0"** %8, align 8
  %10 = bitcast %"class.std::vector"* %5 to %"struct.std::_Vector_base"*
  %11 = getelementptr inbounds %"struct.std::_Vector_base", %"struct.std::_Vector_base"* %10, i32 0, i32 0
  %12 = getelementptr inbounds %"struct.std::_Vector_base<std::vector<long long, std::allocator<long long> >, std::allocator<std::vector<long long, std::allocator<long long> > > >::_Vector_impl", %"struct.std::_Vector_base<std::vector<long long, std::allocator<long long> >, std::allocator<std::vector<long long, std::allocator<long long> > > >::_Vector_impl"* %11, i32 0, i32 2
  %13 = load %"class.std::vector.0"*, %"class.std::vector.0"** %12, align 8
  %14 = icmp ne %"class.std::vector.0"* %9, %13
  br i1 %14, label %15, label %29

; <label>:15:                                     ; preds = %2
  %16 = bitcast %"class.std::vector"* %5 to %"struct.std::_Vector_base"*
  %17 = getelementptr inbounds %"struct.std::_Vector_base", %"struct.std::_Vector_base"* %16, i32 0, i32 0
  %18 = bitcast %"struct.std::_Vector_base<std::vector<long long, std::allocator<long long> >, std::allocator<std::vector<long long, std::allocator<long long> > > >::_Vector_impl"* %17 to %"class.std::allocator"*
  %19 = bitcast %"class.std::vector"* %5 to %"struct.std::_Vector_base"*
  %20 = getelementptr inbounds %"struct.std::_Vector_base", %"struct.std::_Vector_base"* %19, i32 0, i32 0
  %21 = getelementptr inbounds %"struct.std::_Vector_base<std::vector<long long, std::allocator<long long> >, std::allocator<std::vector<long long, std::allocator<long long> > > >::_Vector_impl", %"struct.std::_Vector_base<std::vector<long long, std::allocator<long long> >, std::allocator<std::vector<long long, std::allocator<long long> > > >::_Vector_impl"* %20, i32 0, i32 1
  %22 = load %"class.std::vector.0"*, %"class.std::vector.0"** %21, align 8
  %23 = load %"class.std::vector.0"*, %"class.std::vector.0"** %4, align 8
  call void @_ZNSt16allocator_traitsISaISt6vectorIxSaIxEEEE9constructIS2_JRKS2_EEEvRS3_PT_DpOT0_(%"class.std::allocator"* dereferenceable(1) %18, %"class.std::vector.0"* %22, %"class.std::vector.0"* dereferenceable(24) %23)
  %24 = bitcast %"class.std::vector"* %5 to %"struct.std::_Vector_base"*
  %25 = getelementptr inbounds %"struct.std::_Vector_base", %"struct.std::_Vector_base"* %24, i32 0, i32 0
  %26 = getelementptr inbounds %"struct.std::_Vector_base<std::vector<long long, std::allocator<long long> >, std::allocator<std::vector<long long, std::allocator<long long> > > >::_Vector_impl", %"struct.std::_Vector_base<std::vector<long long, std::allocator<long long> >, std::allocator<std::vector<long long, std::allocator<long long> > > >::_Vector_impl"* %25, i32 0, i32 1
  %27 = load %"class.std::vector.0"*, %"class.std::vector.0"** %26, align 8
  %28 = getelementptr inbounds %"class.std::vector.0", %"class.std::vector.0"* %27, i32 1
  store %"class.std::vector.0"* %28, %"class.std::vector.0"** %26, align 8
  br label %31

; <label>:29:                                     ; preds = %2
  %30 = load %"class.std::vector.0"*, %"class.std::vector.0"** %4, align 8
  call void @_ZNSt6vectorIS_IxSaIxEESaIS1_EE19_M_emplace_back_auxIJRKS1_EEEvDpOT_(%"class.std::vector"* %5, %"class.std::vector.0"* dereferenceable(24) %30)
  br label %31

; <label>:31:                                     ; preds = %29, %15
  %32 = load i32, i32* @x.17
  %33 = load i32, i32* @y.18
  %34 = sub i32 %32, 1
  %35 = mul i32 %32, %34
  %36 = urem i32 %35, 2
  %37 = icmp eq i32 %36, 0
  %38 = icmp slt i32 %33, 10
  %39 = or i1 %37, %38
  br i1 %39, label %40, label %50

; <label>:40:                                     ; preds = %31, %50
  %41 = load i32, i32* @x.17
  %42 = load i32, i32* @y.18
  %43 = sub i32 %41, 1
  %44 = mul i32 %41, %43
  %45 = urem i32 %44, 2
  %46 = icmp eq i32 %45, 0
  %47 = icmp slt i32 %42, 10
  %48 = or i1 %46, %47
  br i1 %48, label %49, label %50

; <label>:49:                                     ; preds = %40
  ret void

; <label>:50:                                     ; preds = %40, %31
  br label %40
}

; Function Attrs: noinline uwtable
define linkonce_odr void @_ZNSt6vectorIxSaIxEE9push_backERKx(%"class.std::vector.0"*, i64* dereferenceable(8)) #0 comdat align 2 {
  %3 = alloca %"class.std::vector.0"*, align 8
  %4 = alloca i64*, align 8
  store %"class.std::vector.0"* %0, %"class.std::vector.0"** %3, align 8
  store i64* %1, i64** %4, align 8
  %5 = load %"class.std::vector.0"*, %"class.std::vector.0"** %3, align 8
  %6 = bitcast %"class.std::vector.0"* %5 to %"struct.std::_Vector_base.1"*
  %7 = getelementptr inbounds %"struct.std::_Vector_base.1", %"struct.std::_Vector_base.1"* %6, i32 0, i32 0
  %8 = getelementptr inbounds %"struct.std::_Vector_base<long long, std::allocator<long long> >::_Vector_impl", %"struct.std::_Vector_base<long long, std::allocator<long long> >::_Vector_impl"* %7, i32 0, i32 1
  %9 = load i64*, i64** %8, align 8
  %10 = bitcast %"class.std::vector.0"* %5 to %"struct.std::_Vector_base.1"*
  %11 = getelementptr inbounds %"struct.std::_Vector_base.1", %"struct.std::_Vector_base.1"* %10, i32 0, i32 0
  %12 = getelementptr inbounds %"struct.std::_Vector_base<long long, std::allocator<long long> >::_Vector_impl", %"struct.std::_Vector_base<long long, std::allocator<long long> >::_Vector_impl"* %11, i32 0, i32 2
  %13 = load i64*, i64** %12, align 8
  %14 = icmp ne i64* %9, %13
  br i1 %14, label %15, label %29

; <label>:15:                                     ; preds = %2
  %16 = bitcast %"class.std::vector.0"* %5 to %"struct.std::_Vector_base.1"*
  %17 = getelementptr inbounds %"struct.std::_Vector_base.1", %"struct.std::_Vector_base.1"* %16, i32 0, i32 0
  %18 = bitcast %"struct.std::_Vector_base<long long, std::allocator<long long> >::_Vector_impl"* %17 to %"class.std::allocator.2"*
  %19 = bitcast %"class.std::vector.0"* %5 to %"struct.std::_Vector_base.1"*
  %20 = getelementptr inbounds %"struct.std::_Vector_base.1", %"struct.std::_Vector_base.1"* %19, i32 0, i32 0
  %21 = getelementptr inbounds %"struct.std::_Vector_base<long long, std::allocator<long long> >::_Vector_impl", %"struct.std::_Vector_base<long long, std::allocator<long long> >::_Vector_impl"* %20, i32 0, i32 1
  %22 = load i64*, i64** %21, align 8
  %23 = load i64*, i64** %4, align 8
  call void @_ZNSt16allocator_traitsISaIxEE9constructIxJRKxEEEvRS0_PT_DpOT0_(%"class.std::allocator.2"* dereferenceable(1) %18, i64* %22, i64* dereferenceable(8) %23)
  %24 = bitcast %"class.std::vector.0"* %5 to %"struct.std::_Vector_base.1"*
  %25 = getelementptr inbounds %"struct.std::_Vector_base.1", %"struct.std::_Vector_base.1"* %24, i32 0, i32 0
  %26 = getelementptr inbounds %"struct.std::_Vector_base<long long, std::allocator<long long> >::_Vector_impl", %"struct.std::_Vector_base<long long, std::allocator<long long> >::_Vector_impl"* %25, i32 0, i32 1
  %27 = load i64*, i64** %26, align 8
  %28 = getelementptr inbounds i64, i64* %27, i32 1
  store i64* %28, i64** %26, align 8
  br label %31

; <label>:29:                                     ; preds = %2
  %30 = load i64*, i64** %4, align 8
  call void @_ZNSt6vectorIxSaIxEE19_M_emplace_back_auxIJRKxEEEvDpOT_(%"class.std::vector.0"* %5, i64* dereferenceable(8) %30)
  br label %31

; <label>:31:                                     ; preds = %29, %15
  ret void
}

; Function Attrs: noinline uwtable
define linkonce_odr void @_ZNSt6vectorIxSaIxEEC2ERKS1_(%"class.std::vector.0"*, %"class.std::vector.0"* dereferenceable(24)) unnamed_addr #0 comdat align 2 personality i8* bitcast (i32 (...)* @__gxx_personality_v0 to i8*) {
  %3 = alloca %"class.std::vector.0"*, align 8
  %4 = alloca %"class.std::vector.0"*, align 8
  %5 = alloca %"class.std::allocator.2", align 1
  %6 = alloca i8*
  %7 = alloca i32
  %8 = alloca %"class.__gnu_cxx::__normal_iterator.46", align 8
  %9 = alloca %"class.__gnu_cxx::__normal_iterator.46", align 8
  store %"class.std::vector.0"* %0, %"class.std::vector.0"** %3, align 8
  store %"class.std::vector.0"* %1, %"class.std::vector.0"** %4, align 8
  %10 = load %"class.std::vector.0"*, %"class.std::vector.0"** %3, align 8
  %11 = bitcast %"class.std::vector.0"* %10 to %"struct.std::_Vector_base.1"*
  %12 = load %"class.std::vector.0"*, %"class.std::vector.0"** %4, align 8
  %13 = call i64 @_ZNKSt6vectorIxSaIxEE4sizeEv(%"class.std::vector.0"* %12) #3
  %14 = load %"class.std::vector.0"*, %"class.std::vector.0"** %4, align 8
  %15 = bitcast %"class.std::vector.0"* %14 to %"struct.std::_Vector_base.1"*
  %16 = call dereferenceable(1) %"class.std::allocator.2"* @_ZNKSt12_Vector_baseIxSaIxEE19_M_get_Tp_allocatorEv(%"struct.std::_Vector_base.1"* %15) #3
  call void @_ZN9__gnu_cxx14__alloc_traitsISaIxEE17_S_select_on_copyERKS1_(%"class.std::allocator.2"* sret %5, %"class.std::allocator.2"* dereferenceable(1) %16)
  invoke void @_ZNSt12_Vector_baseIxSaIxEEC2EmRKS0_(%"struct.std::_Vector_base.1"* %11, i64 %13, %"class.std::allocator.2"* dereferenceable(1) %5)
          to label %17 unwind label %39

; <label>:17:                                     ; preds = %2
  call void @_ZNSaIxED2Ev(%"class.std::allocator.2"* %5) #3
  %18 = load %"class.std::vector.0"*, %"class.std::vector.0"** %4, align 8
  %19 = call i64* @_ZNKSt6vectorIxSaIxEE5beginEv(%"class.std::vector.0"* %18) #3
  %20 = getelementptr inbounds %"class.__gnu_cxx::__normal_iterator.46", %"class.__gnu_cxx::__normal_iterator.46"* %8, i32 0, i32 0
  store i64* %19, i64** %20, align 8
  %21 = load %"class.std::vector.0"*, %"class.std::vector.0"** %4, align 8
  %22 = call i64* @_ZNKSt6vectorIxSaIxEE3endEv(%"class.std::vector.0"* %21) #3
  %23 = getelementptr inbounds %"class.__gnu_cxx::__normal_iterator.46", %"class.__gnu_cxx::__normal_iterator.46"* %9, i32 0, i32 0
  store i64* %22, i64** %23, align 8
  %24 = bitcast %"class.std::vector.0"* %10 to %"struct.std::_Vector_base.1"*
  %25 = getelementptr inbounds %"struct.std::_Vector_base.1", %"struct.std::_Vector_base.1"* %24, i32 0, i32 0
  %26 = getelementptr inbounds %"struct.std::_Vector_base<long long, std::allocator<long long> >::_Vector_impl", %"struct.std::_Vector_base<long long, std::allocator<long long> >::_Vector_impl"* %25, i32 0, i32 0
  %27 = load i64*, i64** %26, align 8
  %28 = bitcast %"class.std::vector.0"* %10 to %"struct.std::_Vector_base.1"*
  %29 = call dereferenceable(1) %"class.std::allocator.2"* @_ZNSt12_Vector_baseIxSaIxEE19_M_get_Tp_allocatorEv(%"struct.std::_Vector_base.1"* %28) #3
  %30 = getelementptr inbounds %"class.__gnu_cxx::__normal_iterator.46", %"class.__gnu_cxx::__normal_iterator.46"* %8, i32 0, i32 0
  %31 = load i64*, i64** %30, align 8
  %32 = getelementptr inbounds %"class.__gnu_cxx::__normal_iterator.46", %"class.__gnu_cxx::__normal_iterator.46"* %9, i32 0, i32 0
  %33 = load i64*, i64** %32, align 8
  %34 = invoke i64* @_ZSt22__uninitialized_copy_aIN9__gnu_cxx17__normal_iteratorIPKxSt6vectorIxSaIxEEEEPxxET0_T_SA_S9_RSaIT1_E(i64* %31, i64* %33, i64* %27, %"class.std::allocator.2"* dereferenceable(1) %29)
          to label %35 unwind label %43

; <label>:35:                                     ; preds = %17
  %36 = bitcast %"class.std::vector.0"* %10 to %"struct.std::_Vector_base.1"*
  %37 = getelementptr inbounds %"struct.std::_Vector_base.1", %"struct.std::_Vector_base.1"* %36, i32 0, i32 0
  %38 = getelementptr inbounds %"struct.std::_Vector_base<long long, std::allocator<long long> >::_Vector_impl", %"struct.std::_Vector_base<long long, std::allocator<long long> >::_Vector_impl"* %37, i32 0, i32 1
  store i64* %34, i64** %38, align 8
  ret void

; <label>:39:                                     ; preds = %2
  %40 = landingpad { i8*, i32 }
          cleanup
  %41 = extractvalue { i8*, i32 } %40, 0
  store i8* %41, i8** %6, align 8
  %42 = extractvalue { i8*, i32 } %40, 1
  store i32 %42, i32* %7, align 4
  call void @_ZNSaIxED2Ev(%"class.std::allocator.2"* %5) #3
  br label %48

; <label>:43:                                     ; preds = %17
  %44 = landingpad { i8*, i32 }
          cleanup
  %45 = extractvalue { i8*, i32 } %44, 0
  store i8* %45, i8** %6, align 8
  %46 = extractvalue { i8*, i32 } %44, 1
  store i32 %46, i32* %7, align 4
  %47 = bitcast %"class.std::vector.0"* %10 to %"struct.std::_Vector_base.1"*
  call void @_ZNSt12_Vector_baseIxSaIxEED2Ev(%"struct.std::_Vector_base.1"* %47) #3
  br label %48

; <label>:48:                                     ; preds = %43, %39
  %49 = load i32, i32* @x.21
  %50 = load i32, i32* @y.22
  %51 = sub i32 %49, 1
  %52 = mul i32 %49, %51
  %53 = urem i32 %52, 2
  %54 = icmp eq i32 %53, 0
  %55 = icmp slt i32 %50, 10
  %56 = or i1 %54, %55
  br i1 %56, label %57, label %71

; <label>:57:                                     ; preds = %48, %71
  %58 = load i8*, i8** %6, align 8
  %59 = load i32, i32* %7, align 4
  %60 = insertvalue { i8*, i32 } undef, i8* %58, 0
  %61 = insertvalue { i8*, i32 } %60, i32 %59, 1
  %62 = load i32, i32* @x.21
  %63 = load i32, i32* @y.22
  %64 = sub i32 %62, 1
  %65 = mul i32 %62, %64
  %66 = urem i32 %65, 2
  %67 = icmp eq i32 %66, 0
  %68 = icmp slt i32 %63, 10
  %69 = or i1 %67, %68
  br i1 %69, label %70, label %71

; <label>:70:                                     ; preds = %57
  resume { i8*, i32 } %61

; <label>:71:                                     ; preds = %57, %48
  %72 = load i8*, i8** %6, align 8
  %73 = load i32, i32* %7, align 4
  %74 = insertvalue { i8*, i32 } undef, i8* %72, 0
  %75 = insertvalue { i8*, i32 } %74, i32 %73, 1
  br label %57
}

declare i32 @__gxx_personality_v0(...)

; Function Attrs: noinline nounwind uwtable
define linkonce_odr void @_ZNSt6vectorIxSaIxEED2Ev(%"class.std::vector.0"*) unnamed_addr #4 comdat align 2 personality i8* bitcast (i32 (...)* @__gxx_personality_v0 to i8*) {
  %2 = load i32, i32* @x.23
  %3 = load i32, i32* @y.24
  %4 = sub i32 %2, 1
  %5 = mul i32 %2, %4
  %6 = urem i32 %5, 2
  %7 = icmp eq i32 %6, 0
  %8 = icmp slt i32 %3, 10
  %9 = or i1 %7, %8
  br i1 %9, label %10, label %43

; <label>:10:                                     ; preds = %1, %43
  %11 = alloca %"class.std::vector.0"*, align 8
  %12 = alloca i8*
  %13 = alloca i32
  store %"class.std::vector.0"* %0, %"class.std::vector.0"** %11, align 8
  %14 = load %"class.std::vector.0"*, %"class.std::vector.0"** %11, align 8
  %15 = bitcast %"class.std::vector.0"* %14 to %"struct.std::_Vector_base.1"*
  %16 = getelementptr inbounds %"struct.std::_Vector_base.1", %"struct.std::_Vector_base.1"* %15, i32 0, i32 0
  %17 = getelementptr inbounds %"struct.std::_Vector_base<long long, std::allocator<long long> >::_Vector_impl", %"struct.std::_Vector_base<long long, std::allocator<long long> >::_Vector_impl"* %16, i32 0, i32 0
  %18 = load i64*, i64** %17, align 8
  %19 = bitcast %"class.std::vector.0"* %14 to %"struct.std::_Vector_base.1"*
  %20 = getelementptr inbounds %"struct.std::_Vector_base.1", %"struct.std::_Vector_base.1"* %19, i32 0, i32 0
  %21 = getelementptr inbounds %"struct.std::_Vector_base<long long, std::allocator<long long> >::_Vector_impl", %"struct.std::_Vector_base<long long, std::allocator<long long> >::_Vector_impl"* %20, i32 0, i32 1
  %22 = load i64*, i64** %21, align 8
  %23 = bitcast %"class.std::vector.0"* %14 to %"struct.std::_Vector_base.1"*
  %24 = call dereferenceable(1) %"class.std::allocator.2"* @_ZNSt12_Vector_baseIxSaIxEE19_M_get_Tp_allocatorEv(%"struct.std::_Vector_base.1"* %23) #3
  %25 = load i32, i32* @x.23
  %26 = load i32, i32* @y.24
  %27 = sub i32 %25, 1
  %28 = mul i32 %25, %27
  %29 = urem i32 %28, 2
  %30 = icmp eq i32 %29, 0
  %31 = icmp slt i32 %26, 10
  %32 = or i1 %30, %31
  br i1 %32, label %33, label %43

; <label>:33:                                     ; preds = %10
  invoke void @_ZSt8_DestroyIPxxEvT_S1_RSaIT0_E(i64* %18, i64* %22, %"class.std::allocator.2"* dereferenceable(1) %24)
          to label %34 unwind label %36

; <label>:34:                                     ; preds = %33
  %35 = bitcast %"class.std::vector.0"* %14 to %"struct.std::_Vector_base.1"*
  call void @_ZNSt12_Vector_baseIxSaIxEED2Ev(%"struct.std::_Vector_base.1"* %35) #3
  ret void

; <label>:36:                                     ; preds = %33
  %37 = landingpad { i8*, i32 }
          catch i8* null
  %38 = extractvalue { i8*, i32 } %37, 0
  store i8* %38, i8** %12, align 8
  %39 = extractvalue { i8*, i32 } %37, 1
  store i32 %39, i32* %13, align 4
  %40 = bitcast %"class.std::vector.0"* %14 to %"struct.std::_Vector_base.1"*
  call void @_ZNSt12_Vector_baseIxSaIxEED2Ev(%"struct.std::_Vector_base.1"* %40) #3
  br label %41

; <label>:41:                                     ; preds = %36
  %42 = load i8*, i8** %12, align 8
  call void @__clang_call_terminate(i8* %42) #12
  unreachable

; <label>:43:                                     ; preds = %10, %1
  %44 = alloca %"class.std::vector.0"*, align 8
  %45 = alloca i8*
  %46 = alloca i32
  store %"class.std::vector.0"* %0, %"class.std::vector.0"** %44, align 8
  %47 = load %"class.std::vector.0"*, %"class.std::vector.0"** %44, align 8
  %48 = bitcast %"class.std::vector.0"* %47 to %"struct.std::_Vector_base.1"*
  %49 = getelementptr inbounds %"struct.std::_Vector_base.1", %"struct.std::_Vector_base.1"* %48, i32 0, i32 0
  %50 = getelementptr inbounds %"struct.std::_Vector_base<long long, std::allocator<long long> >::_Vector_impl", %"struct.std::_Vector_base<long long, std::allocator<long long> >::_Vector_impl"* %49, i32 0, i32 0
  %51 = load i64*, i64** %50, align 8
  %52 = bitcast %"class.std::vector.0"* %47 to %"struct.std::_Vector_base.1"*
  %53 = getelementptr inbounds %"struct.std::_Vector_base.1", %"struct.std::_Vector_base.1"* %52, i32 0, i32 0
  %54 = getelementptr inbounds %"struct.std::_Vector_base<long long, std::allocator<long long> >::_Vector_impl", %"struct.std::_Vector_base<long long, std::allocator<long long> >::_Vector_impl"* %53, i32 0, i32 1
  %55 = load i64*, i64** %54, align 8
  %56 = bitcast %"class.std::vector.0"* %47 to %"struct.std::_Vector_base.1"*
  %57 = call dereferenceable(1) %"class.std::allocator.2"* @_ZNSt12_Vector_baseIxSaIxEE19_M_get_Tp_allocatorEv(%"struct.std::_Vector_base.1"* %56) #3
  br label %10
}

; Function Attrs: noinline nounwind uwtable
define linkonce_odr void @_ZNSt6vectorIxSaIxEE8pop_backEv(%"class.std::vector.0"*) #4 comdat align 2 personality i8* bitcast (i32 (...)* @__gxx_personality_v0 to i8*) {
  %2 = alloca %"class.std::vector.0"*, align 8
  store %"class.std::vector.0"* %0, %"class.std::vector.0"** %2, align 8
  %3 = load %"class.std::vector.0"*, %"class.std::vector.0"** %2, align 8
  %4 = bitcast %"class.std::vector.0"* %3 to %"struct.std::_Vector_base.1"*
  %5 = getelementptr inbounds %"struct.std::_Vector_base.1", %"struct.std::_Vector_base.1"* %4, i32 0, i32 0
  %6 = getelementptr inbounds %"struct.std::_Vector_base<long long, std::allocator<long long> >::_Vector_impl", %"struct.std::_Vector_base<long long, std::allocator<long long> >::_Vector_impl"* %5, i32 0, i32 1
  %7 = load i64*, i64** %6, align 8
  %8 = getelementptr inbounds i64, i64* %7, i32 -1
  store i64* %8, i64** %6, align 8
  %9 = bitcast %"class.std::vector.0"* %3 to %"struct.std::_Vector_base.1"*
  %10 = getelementptr inbounds %"struct.std::_Vector_base.1", %"struct.std::_Vector_base.1"* %9, i32 0, i32 0
  %11 = bitcast %"struct.std::_Vector_base<long long, std::allocator<long long> >::_Vector_impl"* %10 to %"class.std::allocator.2"*
  %12 = bitcast %"class.std::vector.0"* %3 to %"struct.std::_Vector_base.1"*
  %13 = getelementptr inbounds %"struct.std::_Vector_base.1", %"struct.std::_Vector_base.1"* %12, i32 0, i32 0
  %14 = getelementptr inbounds %"struct.std::_Vector_base<long long, std::allocator<long long> >::_Vector_impl", %"struct.std::_Vector_base<long long, std::allocator<long long> >::_Vector_impl"* %13, i32 0, i32 1
  %15 = load i64*, i64** %14, align 8
  invoke void @_ZNSt16allocator_traitsISaIxEE7destroyIxEEvRS0_PT_(%"class.std::allocator.2"* dereferenceable(1) %11, i64* %15)
          to label %16 unwind label %17

; <label>:16:                                     ; preds = %1
  ret void

; <label>:17:                                     ; preds = %1
  %18 = landingpad { i8*, i32 }
          catch i8* null
  %19 = extractvalue { i8*, i32 } %18, 0
  call void @__clang_call_terminate(i8* %19) #12
  unreachable
}

; Function Attrs: noinline uwtable
define i32 @_Z3bfsiiiiiiSt6vectorIS_IcSaIcEESaIS1_EE(i32, i32, i32, i32, i32, i32, %"class.std::vector.5"*) #0 personality i8* bitcast (i32 (...)* @__gxx_personality_v0 to i8*) {
  %8 = alloca i32, align 4
  %9 = alloca i32, align 4
  %10 = alloca i32, align 4
  %11 = alloca i32, align 4
  %12 = alloca i32, align 4
  %13 = alloca i32, align 4
  %14 = alloca %"class.std::queue", align 8
  %15 = alloca %"class.std::deque", align 8
  %16 = alloca i8*
  %17 = alloca i32
  %18 = alloca %"class.std::vector", align 8
  %19 = alloca i32, align 4
  %20 = alloca %"class.std::vector.0", align 8
  %21 = alloca %"class.std::allocator.2", align 1
  %22 = alloca %"struct.std::pair", align 4
  %23 = alloca %"struct.std::pair", align 4
  %24 = alloca i32, align 4
  %25 = alloca i32, align 4
  %26 = alloca i64, align 8
  %27 = alloca %"struct.std::pair", align 4
  %28 = alloca i32, align 4
  %29 = alloca i32, align 4
  store i32 %0, i32* %8, align 4
  store i32 %1, i32* %9, align 4
  store i32 %2, i32* %10, align 4
  store i32 %3, i32* %11, align 4
  store i32 %4, i32* %12, align 4
  store i32 %5, i32* %13, align 4
  call void @_ZNSt5dequeISt4pairIiiESaIS1_EEC2Ev(%"class.std::deque"* %15)
  invoke void @_ZNSt5queueISt4pairIiiESt5dequeIS1_SaIS1_EEEC2EOS4_(%"class.std::queue"* %14, %"class.std::deque"* dereferenceable(80) %15)
          to label %30 unwind label %79

; <label>:30:                                     ; preds = %7
  %31 = load i32, i32* @x.27
  %32 = load i32, i32* @y.28
  %33 = sub i32 %31, 1
  %34 = mul i32 %31, %33
  %35 = urem i32 %34, 2
  %36 = icmp eq i32 %35, 0
  %37 = icmp slt i32 %32, 10
  %38 = or i1 %36, %37
  br i1 %38, label %39, label %488

; <label>:39:                                     ; preds = %30, %488
  call void @_ZNSt5dequeISt4pairIiiESaIS1_EED2Ev(%"class.std::deque"* %15) #3
  call void @_ZNSt6vectorIS_IxSaIxEESaIS1_EEC2Ev(%"class.std::vector"* %18) #3
  store i32 0, i32* %19, align 4
  %40 = load i32, i32* @x.27
  %41 = load i32, i32* @y.28
  %42 = sub i32 %40, 1
  %43 = mul i32 %40, %42
  %44 = urem i32 %43, 2
  %45 = icmp eq i32 %44, 0
  %46 = icmp slt i32 %41, 10
  %47 = or i1 %45, %46
  br i1 %47, label %48, label %488

; <label>:48:                                     ; preds = %39
  br label %49

; <label>:49:                                     ; preds = %76, %48
  %50 = load i32, i32* %19, align 4
  %51 = load i32, i32* %12, align 4
  %52 = icmp slt i32 %50, %51
  br i1 %52, label %53, label %109

; <label>:53:                                     ; preds = %49
  %54 = load i32, i32* %13, align 4
  %55 = sext i32 %54 to i64
  call void @_ZNSaIxEC2Ev(%"class.std::allocator.2"* %21) #3
  invoke void @_ZNSt6vectorIxSaIxEEC2EmRKS0_(%"class.std::vector.0"* %20, i64 %55, %"class.std::allocator.2"* dereferenceable(1) %21)
          to label %56 unwind label %83

; <label>:56:                                     ; preds = %53
  %57 = load i32, i32* @x.27
  %58 = load i32, i32* @y.28
  %59 = sub i32 %57, 1
  %60 = mul i32 %57, %59
  %61 = urem i32 %60, 2
  %62 = icmp eq i32 %61, 0
  %63 = icmp slt i32 %58, 10
  %64 = or i1 %62, %63
  br i1 %64, label %65, label %489

; <label>:65:                                     ; preds = %56, %489
  call void @_ZNSaIxED2Ev(%"class.std::allocator.2"* %21) #3
  %66 = load i32, i32* @x.27
  %67 = load i32, i32* @y.28
  %68 = sub i32 %66, 1
  %69 = mul i32 %66, %68
  %70 = urem i32 %69, 2
  %71 = icmp eq i32 %70, 0
  %72 = icmp slt i32 %67, 10
  %73 = or i1 %71, %72
  br i1 %73, label %74, label %489

; <label>:74:                                     ; preds = %65
  invoke void @_ZNSt6vectorIS_IxSaIxEESaIS1_EE9push_backERKS1_(%"class.std::vector"* %18, %"class.std::vector.0"* dereferenceable(24) %20)
          to label %75 unwind label %87

; <label>:75:                                     ; preds = %74
  call void @_ZNSt6vectorIxSaIxEED2Ev(%"class.std::vector.0"* %20) #3
  br label %76

; <label>:76:                                     ; preds = %75
  %77 = load i32, i32* %19, align 4
  %78 = add nsw i32 %77, 1
  store i32 %78, i32* %19, align 4
  br label %49

; <label>:79:                                     ; preds = %7
  %80 = landingpad { i8*, i32 }
          cleanup
  %81 = extractvalue { i8*, i32 } %80, 0
  store i8* %81, i8** %16, align 8
  %82 = extractvalue { i8*, i32 } %80, 1
  store i32 %82, i32* %17, align 4
  call void @_ZNSt5dequeISt4pairIiiESaIS1_EED2Ev(%"class.std::deque"* %15) #3
  br label %483

; <label>:83:                                     ; preds = %53
  %84 = landingpad { i8*, i32 }
          cleanup
  %85 = extractvalue { i8*, i32 } %84, 0
  store i8* %85, i8** %16, align 8
  %86 = extractvalue { i8*, i32 } %84, 1
  store i32 %86, i32* %17, align 4
  call void @_ZNSaIxED2Ev(%"class.std::allocator.2"* %21) #3
  br label %482

; <label>:87:                                     ; preds = %74
  %88 = load i32, i32* @x.27
  %89 = load i32, i32* @y.28
  %90 = sub i32 %88, 1
  %91 = mul i32 %88, %90
  %92 = urem i32 %91, 2
  %93 = icmp eq i32 %92, 0
  %94 = icmp slt i32 %89, 10
  %95 = or i1 %93, %94
  br i1 %95, label %96, label %490

; <label>:96:                                     ; preds = %87, %490
  %97 = landingpad { i8*, i32 }
          cleanup
  %98 = extractvalue { i8*, i32 } %97, 0
  store i8* %98, i8** %16, align 8
  %99 = extractvalue { i8*, i32 } %97, 1
  store i32 %99, i32* %17, align 4
  call void @_ZNSt6vectorIxSaIxEED2Ev(%"class.std::vector.0"* %20) #3
  %100 = load i32, i32* @x.27
  %101 = load i32, i32* @y.28
  %102 = sub i32 %100, 1
  %103 = mul i32 %100, %102
  %104 = urem i32 %103, 2
  %105 = icmp eq i32 %104, 0
  %106 = icmp slt i32 %101, 10
  %107 = or i1 %105, %106
  br i1 %107, label %108, label %490

; <label>:108:                                    ; preds = %96
  br label %482

; <label>:109:                                    ; preds = %49
  %110 = invoke i64 @_ZSt9make_pairIRiS0_ESt4pairINSt17__decay_and_stripIT_E6__typeENS2_IT0_E6__typeEEOS3_OS6_(i32* dereferenceable(4) %8, i32* dereferenceable(4) %9)
          to label %111 unwind label %189

; <label>:111:                                    ; preds = %109
  %112 = bitcast %"struct.std::pair"* %22 to i64*
  store i64 %110, i64* %112, align 4
  invoke void @_ZNSt5queueISt4pairIiiESt5dequeIS1_SaIS1_EEE4pushEOS1_(%"class.std::queue"* %14, %"struct.std::pair"* dereferenceable(8) %22)
          to label %113 unwind label %189

; <label>:113:                                    ; preds = %111
  br label %114

; <label>:114:                                    ; preds = %472, %113
  %115 = invoke i64 @_ZNKSt5queueISt4pairIiiESt5dequeIS1_SaIS1_EEE4sizeEv(%"class.std::queue"* %14)
          to label %116 unwind label %189

; <label>:116:                                    ; preds = %114
  %117 = load i32, i32* @x.27
  %118 = load i32, i32* @y.28
  %119 = sub i32 %117, 1
  %120 = mul i32 %117, %119
  %121 = urem i32 %120, 2
  %122 = icmp eq i32 %121, 0
  %123 = icmp slt i32 %118, 10
  %124 = or i1 %122, %123
  br i1 %124, label %125, label %494

; <label>:125:                                    ; preds = %116, %494
  %126 = icmp ugt i64 %115, 0
  %127 = load i32, i32* @x.27
  %128 = load i32, i32* @y.28
  %129 = sub i32 %127, 1
  %130 = mul i32 %127, %129
  %131 = urem i32 %130, 2
  %132 = icmp eq i32 %131, 0
  %133 = icmp slt i32 %128, 10
  %134 = or i1 %132, %133
  br i1 %134, label %135, label %494

; <label>:135:                                    ; preds = %125
  br i1 %126, label %136, label %473

; <label>:136:                                    ; preds = %135
  %137 = invoke dereferenceable(8) %"struct.std::pair"* @_ZNSt5queueISt4pairIiiESt5dequeIS1_SaIS1_EEE5frontEv(%"class.std::queue"* %14)
          to label %138 unwind label %189

; <label>:138:                                    ; preds = %136
  %139 = bitcast %"struct.std::pair"* %23 to i8*
  %140 = bitcast %"struct.std::pair"* %137 to i8*
  call void @llvm.memcpy.p0i8.p0i8.i64(i8* %139, i8* %140, i64 8, i32 4, i1 false)
  invoke void @_ZNSt5queueISt4pairIiiESt5dequeIS1_SaIS1_EEE3popEv(%"class.std::queue"* %14)
          to label %141 unwind label %189

; <label>:141:                                    ; preds = %138
  %142 = getelementptr inbounds %"struct.std::pair", %"struct.std::pair"* %23, i32 0, i32 0
  %143 = load i32, i32* %142, align 4
  %144 = sext i32 %143 to i64
  %145 = call dereferenceable(24) %"class.std::vector.10"* @_ZNSt6vectorIS_IcSaIcEESaIS1_EEixEm(%"class.std::vector.5"* %6, i64 %144) #3
  %146 = getelementptr inbounds %"struct.std::pair", %"struct.std::pair"* %23, i32 0, i32 1
  %147 = load i32, i32* %146, align 4
  %148 = sext i32 %147 to i64
  %149 = call dereferenceable(1) i8* @_ZNSt6vectorIcSaIcEEixEm(%"class.std::vector.10"* %145, i64 %148) #3
  store i8 35, i8* %149, align 1
  store i32 -1, i32* %24, align 4
  br label %150

; <label>:150:                                    ; preds = %451, %141
  %151 = load i32, i32* %24, align 4
  %152 = icmp sle i32 %151, 1
  br i1 %152, label %153, label %454

; <label>:153:                                    ; preds = %150
  %154 = load i32, i32* @x.27
  %155 = load i32, i32* @y.28
  %156 = sub i32 %154, 1
  %157 = mul i32 %154, %156
  %158 = urem i32 %157, 2
  %159 = icmp eq i32 %158, 0
  %160 = icmp slt i32 %155, 10
  %161 = or i1 %159, %160
  br i1 %161, label %162, label %496

; <label>:162:                                    ; preds = %153, %496
  store i32 -1, i32* %25, align 4
  %163 = load i32, i32* @x.27
  %164 = load i32, i32* @y.28
  %165 = sub i32 %163, 1
  %166 = mul i32 %163, %165
  %167 = urem i32 %166, 2
  %168 = icmp eq i32 %167, 0
  %169 = icmp slt i32 %164, 10
  %170 = or i1 %168, %169
  br i1 %170, label %171, label %496

; <label>:171:                                    ; preds = %162
  br label %172

; <label>:172:                                    ; preds = %449, %171
  %173 = load i32, i32* %25, align 4
  %174 = icmp sle i32 %173, 1
  br i1 %174, label %175, label %450

; <label>:175:                                    ; preds = %172
  %176 = getelementptr inbounds %"struct.std::pair", %"struct.std::pair"* %23, i32 0, i32 0
  %177 = load i32, i32* %176, align 4
  %178 = load i32, i32* %24, align 4
  %179 = add nsw i32 %177, %178
  %180 = icmp slt i32 %179, 0
  br i1 %180, label %188, label %181

; <label>:181:                                    ; preds = %175
  %182 = getelementptr inbounds %"struct.std::pair", %"struct.std::pair"* %23, i32 0, i32 0
  %183 = load i32, i32* %182, align 4
  %184 = load i32, i32* %24, align 4
  %185 = add nsw i32 %183, %184
  %186 = load i32, i32* %12, align 4
  %187 = icmp sge i32 %185, %186
  br i1 %187, label %188, label %211

; <label>:188:                                    ; preds = %181, %175
  br label %429

; <label>:189:                                    ; preds = %426, %416, %400, %138, %136, %114, %111, %109
  %190 = load i32, i32* @x.27
  %191 = load i32, i32* @y.28
  %192 = sub i32 %190, 1
  %193 = mul i32 %190, %192
  %194 = urem i32 %193, 2
  %195 = icmp eq i32 %194, 0
  %196 = icmp slt i32 %191, 10
  %197 = or i1 %195, %196
  br i1 %197, label %198, label %497

; <label>:198:                                    ; preds = %189, %497
  %199 = landingpad { i8*, i32 }
          cleanup
  %200 = extractvalue { i8*, i32 } %199, 0
  store i8* %200, i8** %16, align 8
  %201 = extractvalue { i8*, i32 } %199, 1
  store i32 %201, i32* %17, align 4
  %202 = load i32, i32* @x.27
  %203 = load i32, i32* @y.28
  %204 = sub i32 %202, 1
  %205 = mul i32 %202, %204
  %206 = urem i32 %205, 2
  %207 = icmp eq i32 %206, 0
  %208 = icmp slt i32 %203, 10
  %209 = or i1 %207, %208
  br i1 %209, label %210, label %497

; <label>:210:                                    ; preds = %198
  br label %482

; <label>:211:                                    ; preds = %181
  %212 = load i32, i32* @x.27
  %213 = load i32, i32* @y.28
  %214 = sub i32 %212, 1
  %215 = mul i32 %212, %214
  %216 = urem i32 %215, 2
  %217 = icmp eq i32 %216, 0
  %218 = icmp slt i32 %213, 10
  %219 = or i1 %217, %218
  br i1 %219, label %220, label %501

; <label>:220:                                    ; preds = %211, %501
  %221 = getelementptr inbounds %"struct.std::pair", %"struct.std::pair"* %23, i32 0, i32 1
  %222 = load i32, i32* %221, align 4
  %223 = load i32, i32* %25, align 4
  %224 = add nsw i32 %222, %223
  %225 = icmp slt i32 %224, 0
  %226 = load i32, i32* @x.27
  %227 = load i32, i32* @y.28
  %228 = sub i32 %226, 1
  %229 = mul i32 %226, %228
  %230 = urem i32 %229, 2
  %231 = icmp eq i32 %230, 0
  %232 = icmp slt i32 %227, 10
  %233 = or i1 %231, %232
  br i1 %233, label %234, label %501

; <label>:234:                                    ; preds = %220
  br i1 %225, label %242, label %235

; <label>:235:                                    ; preds = %234
  %236 = getelementptr inbounds %"struct.std::pair", %"struct.std::pair"* %23, i32 0, i32 1
  %237 = load i32, i32* %236, align 4
  %238 = load i32, i32* %25, align 4
  %239 = add nsw i32 %237, %238
  %240 = load i32, i32* %13, align 4
  %241 = icmp sge i32 %239, %240
  br i1 %241, label %242, label %261

; <label>:242:                                    ; preds = %235, %234
  %243 = load i32, i32* @x.27
  %244 = load i32, i32* @y.28
  %245 = sub i32 %243, 1
  %246 = mul i32 %243, %245
  %247 = urem i32 %246, 2
  %248 = icmp eq i32 %247, 0
  %249 = icmp slt i32 %244, 10
  %250 = or i1 %248, %249
  br i1 %250, label %251, label %512

; <label>:251:                                    ; preds = %242, %512
  %252 = load i32, i32* @x.27
  %253 = load i32, i32* @y.28
  %254 = sub i32 %252, 1
  %255 = mul i32 %252, %254
  %256 = urem i32 %255, 2
  %257 = icmp eq i32 %256, 0
  %258 = icmp slt i32 %253, 10
  %259 = or i1 %257, %258
  br i1 %259, label %260, label %512

; <label>:260:                                    ; preds = %251
  br label %429

; <label>:261:                                    ; preds = %235
  %262 = load i32, i32* %24, align 4
  %263 = icmp ne i32 %262, 0
  br i1 %263, label %264, label %268

; <label>:264:                                    ; preds = %261
  %265 = load i32, i32* %25, align 4
  %266 = icmp ne i32 %265, 0
  br i1 %266, label %267, label %268

; <label>:267:                                    ; preds = %264
  br label %429

; <label>:268:                                    ; preds = %264, %261
  %269 = load i32, i32* %24, align 4
  %270 = icmp eq i32 %269, 0
  br i1 %270, label %271, label %275

; <label>:271:                                    ; preds = %268
  %272 = load i32, i32* %25, align 4
  %273 = icmp eq i32 %272, 0
  br i1 %273, label %274, label %275

; <label>:274:                                    ; preds = %271
  br label %429

; <label>:275:                                    ; preds = %271, %268
  %276 = load i32, i32* @x.27
  %277 = load i32, i32* @y.28
  %278 = sub i32 %276, 1
  %279 = mul i32 %276, %278
  %280 = urem i32 %279, 2
  %281 = icmp eq i32 %280, 0
  %282 = icmp slt i32 %277, 10
  %283 = or i1 %281, %282
  br i1 %283, label %284, label %513

; <label>:284:                                    ; preds = %275, %513
  %285 = getelementptr inbounds %"struct.std::pair", %"struct.std::pair"* %23, i32 0, i32 0
  %286 = load i32, i32* %285, align 4
  %287 = load i32, i32* %24, align 4
  %288 = add nsw i32 %286, %287
  %289 = sext i32 %288 to i64
  %290 = call dereferenceable(24) %"class.std::vector.10"* @_ZNSt6vectorIS_IcSaIcEESaIS1_EEixEm(%"class.std::vector.5"* %6, i64 %289) #3
  %291 = getelementptr inbounds %"struct.std::pair", %"struct.std::pair"* %23, i32 0, i32 1
  %292 = load i32, i32* %291, align 4
  %293 = load i32, i32* %25, align 4
  %294 = add nsw i32 %292, %293
  %295 = sext i32 %294 to i64
  %296 = call dereferenceable(1) i8* @_ZNSt6vectorIcSaIcEEixEm(%"class.std::vector.10"* %290, i64 %295) #3
  %297 = load i8, i8* %296, align 1
  %298 = sext i8 %297 to i32
  %299 = icmp eq i32 %298, 35
  %300 = load i32, i32* @x.27
  %301 = load i32, i32* @y.28
  %302 = sub i32 %300, 1
  %303 = mul i32 %300, %302
  %304 = urem i32 %303, 2
  %305 = icmp eq i32 %304, 0
  %306 = icmp slt i32 %301, 10
  %307 = or i1 %305, %306
  br i1 %307, label %308, label %513

; <label>:308:                                    ; preds = %284
  br i1 %299, label %309, label %310

; <label>:309:                                    ; preds = %308
  br label %429

; <label>:310:                                    ; preds = %308
  %311 = getelementptr inbounds %"struct.std::pair", %"struct.std::pair"* %23, i32 0, i32 0
  %312 = load i32, i32* %311, align 4
  %313 = load i32, i32* %24, align 4
  %314 = add nsw i32 %312, %313
  %315 = sext i32 %314 to i64
  %316 = call dereferenceable(24) %"class.std::vector.10"* @_ZNSt6vectorIS_IcSaIcEESaIS1_EEixEm(%"class.std::vector.5"* %6, i64 %315) #3
  %317 = getelementptr inbounds %"struct.std::pair", %"struct.std::pair"* %23, i32 0, i32 1
  %318 = load i32, i32* %317, align 4
  %319 = load i32, i32* %25, align 4
  %320 = add nsw i32 %318, %319
  %321 = sext i32 %320 to i64
  %322 = call dereferenceable(1) i8* @_ZNSt6vectorIcSaIcEEixEm(%"class.std::vector.10"* %316, i64 %321) #3
  store i8 35, i8* %322, align 1
  %323 = getelementptr inbounds %"struct.std::pair", %"struct.std::pair"* %23, i32 0, i32 0
  %324 = load i32, i32* %323, align 4
  %325 = load i32, i32* %24, align 4
  %326 = add nsw i32 %324, %325
  %327 = sext i32 %326 to i64
  %328 = call dereferenceable(24) %"class.std::vector.0"* @_ZNSt6vectorIS_IxSaIxEESaIS1_EEixEm(%"class.std::vector"* %18, i64 %327) #3
  %329 = getelementptr inbounds %"struct.std::pair", %"struct.std::pair"* %23, i32 0, i32 1
  %330 = load i32, i32* %329, align 4
  %331 = load i32, i32* %25, align 4
  %332 = add nsw i32 %330, %331
  %333 = sext i32 %332 to i64
  %334 = call dereferenceable(8) i64* @_ZNSt6vectorIxSaIxEEixEm(%"class.std::vector.0"* %328, i64 %333) #3
  %335 = load i64, i64* %334, align 8
  %336 = icmp eq i64 %335, 0
  br i1 %336, label %337, label %360

; <label>:337:                                    ; preds = %310
  %338 = getelementptr inbounds %"struct.std::pair", %"struct.std::pair"* %23, i32 0, i32 0
  %339 = load i32, i32* %338, align 4
  %340 = sext i32 %339 to i64
  %341 = call dereferenceable(24) %"class.std::vector.0"* @_ZNSt6vectorIS_IxSaIxEESaIS1_EEixEm(%"class.std::vector"* %18, i64 %340) #3
  %342 = getelementptr inbounds %"struct.std::pair", %"struct.std::pair"* %23, i32 0, i32 1
  %343 = load i32, i32* %342, align 4
  %344 = sext i32 %343 to i64
  %345 = call dereferenceable(8) i64* @_ZNSt6vectorIxSaIxEEixEm(%"class.std::vector.0"* %341, i64 %344) #3
  %346 = load i64, i64* %345, align 8
  %347 = add nsw i64 %346, 1
  %348 = getelementptr inbounds %"struct.std::pair", %"struct.std::pair"* %23, i32 0, i32 0
  %349 = load i32, i32* %348, align 4
  %350 = load i32, i32* %24, align 4
  %351 = add nsw i32 %349, %350
  %352 = sext i32 %351 to i64
  %353 = call dereferenceable(24) %"class.std::vector.0"* @_ZNSt6vectorIS_IxSaIxEESaIS1_EEixEm(%"class.std::vector"* %18, i64 %352) #3
  %354 = getelementptr inbounds %"struct.std::pair", %"struct.std::pair"* %23, i32 0, i32 1
  %355 = load i32, i32* %354, align 4
  %356 = load i32, i32* %25, align 4
  %357 = add nsw i32 %355, %356
  %358 = sext i32 %357 to i64
  %359 = call dereferenceable(8) i64* @_ZNSt6vectorIxSaIxEEixEm(%"class.std::vector.0"* %353, i64 %358) #3
  store i64 %347, i64* %359, align 8
  br label %416

; <label>:360:                                    ; preds = %310
  %361 = load i32, i32* @x.27
  %362 = load i32, i32* @y.28
  %363 = sub i32 %361, 1
  %364 = mul i32 %361, %363
  %365 = urem i32 %364, 2
  %366 = icmp eq i32 %365, 0
  %367 = icmp slt i32 %362, 10
  %368 = or i1 %366, %367
  br i1 %368, label %369, label %543

; <label>:369:                                    ; preds = %360, %543
  %370 = getelementptr inbounds %"struct.std::pair", %"struct.std::pair"* %23, i32 0, i32 0
  %371 = load i32, i32* %370, align 4
  %372 = load i32, i32* %24, align 4
  %373 = add nsw i32 %371, %372
  %374 = sext i32 %373 to i64
  %375 = call dereferenceable(24) %"class.std::vector.0"* @_ZNSt6vectorIS_IxSaIxEESaIS1_EEixEm(%"class.std::vector"* %18, i64 %374) #3
  %376 = getelementptr inbounds %"struct.std::pair", %"struct.std::pair"* %23, i32 0, i32 1
  %377 = load i32, i32* %376, align 4
  %378 = load i32, i32* %25, align 4
  %379 = add nsw i32 %377, %378
  %380 = sext i32 %379 to i64
  %381 = call dereferenceable(8) i64* @_ZNSt6vectorIxSaIxEEixEm(%"class.std::vector.0"* %375, i64 %380) #3
  %382 = getelementptr inbounds %"struct.std::pair", %"struct.std::pair"* %23, i32 0, i32 0
  %383 = load i32, i32* %382, align 4
  %384 = sext i32 %383 to i64
  %385 = call dereferenceable(24) %"class.std::vector.0"* @_ZNSt6vectorIS_IxSaIxEESaIS1_EEixEm(%"class.std::vector"* %18, i64 %384) #3
  %386 = getelementptr inbounds %"struct.std::pair", %"struct.std::pair"* %23, i32 0, i32 1
  %387 = load i32, i32* %386, align 4
  %388 = sext i32 %387 to i64
  %389 = call dereferenceable(8) i64* @_ZNSt6vectorIxSaIxEEixEm(%"class.std::vector.0"* %385, i64 %388) #3
  %390 = load i64, i64* %389, align 8
  %391 = add nsw i64 %390, 1
  store i64 %391, i64* %26, align 8
  %392 = load i32, i32* @x.27
  %393 = load i32, i32* @y.28
  %394 = sub i32 %392, 1
  %395 = mul i32 %392, %394
  %396 = urem i32 %395, 2
  %397 = icmp eq i32 %396, 0
  %398 = icmp slt i32 %393, 10
  %399 = or i1 %397, %398
  br i1 %399, label %400, label %543

; <label>:400:                                    ; preds = %369
  %401 = invoke dereferenceable(8) i64* @_ZSt3minIxERKT_S2_S2_(i64* dereferenceable(8) %381, i64* dereferenceable(8) %26)
          to label %402 unwind label %189

; <label>:402:                                    ; preds = %400
  %403 = load i64, i64* %401, align 8
  %404 = getelementptr inbounds %"struct.std::pair", %"struct.std::pair"* %23, i32 0, i32 0
  %405 = load i32, i32* %404, align 4
  %406 = load i32, i32* %24, align 4
  %407 = add nsw i32 %405, %406
  %408 = sext i32 %407 to i64
  %409 = call dereferenceable(24) %"class.std::vector.0"* @_ZNSt6vectorIS_IxSaIxEESaIS1_EEixEm(%"class.std::vector"* %18, i64 %408) #3
  %410 = getelementptr inbounds %"struct.std::pair", %"struct.std::pair"* %23, i32 0, i32 1
  %411 = load i32, i32* %410, align 4
  %412 = load i32, i32* %25, align 4
  %413 = add nsw i32 %411, %412
  %414 = sext i32 %413 to i64
  %415 = call dereferenceable(8) i64* @_ZNSt6vectorIxSaIxEEixEm(%"class.std::vector.0"* %409, i64 %414) #3
  store i64 %403, i64* %415, align 8
  br label %416

; <label>:416:                                    ; preds = %402, %337
  %417 = getelementptr inbounds %"struct.std::pair", %"struct.std::pair"* %23, i32 0, i32 0
  %418 = load i32, i32* %417, align 4
  %419 = load i32, i32* %24, align 4
  %420 = add nsw i32 %418, %419
  store i32 %420, i32* %28, align 4
  %421 = getelementptr inbounds %"struct.std::pair", %"struct.std::pair"* %23, i32 0, i32 1
  %422 = load i32, i32* %421, align 4
  %423 = load i32, i32* %25, align 4
  %424 = add nsw i32 %422, %423
  store i32 %424, i32* %29, align 4
  %425 = invoke i64 @_ZSt9make_pairIiiESt4pairINSt17__decay_and_stripIT_E6__typeENS1_IT0_E6__typeEEOS2_OS5_(i32* dereferenceable(4) %28, i32* dereferenceable(4) %29)
          to label %426 unwind label %189

; <label>:426:                                    ; preds = %416
  %427 = bitcast %"struct.std::pair"* %27 to i64*
  store i64 %425, i64* %427, align 4
  invoke void @_ZNSt5queueISt4pairIiiESt5dequeIS1_SaIS1_EEE4pushEOS1_(%"class.std::queue"* %14, %"struct.std::pair"* dereferenceable(8) %27)
          to label %428 unwind label %189

; <label>:428:                                    ; preds = %426
  br label %429

; <label>:429:                                    ; preds = %428, %309, %274, %267, %260, %188
  %430 = load i32, i32* @x.27
  %431 = load i32, i32* @y.28
  %432 = sub i32 %430, 1
  %433 = mul i32 %430, %432
  %434 = urem i32 %433, 2
  %435 = icmp eq i32 %434, 0
  %436 = icmp slt i32 %431, 10
  %437 = or i1 %435, %436
  br i1 %437, label %438, label %588

; <label>:438:                                    ; preds = %429, %588
  %439 = load i32, i32* %25, align 4
  %440 = add nsw i32 %439, 1
  store i32 %440, i32* %25, align 4
  %441 = load i32, i32* @x.27
  %442 = load i32, i32* @y.28
  %443 = sub i32 %441, 1
  %444 = mul i32 %441, %443
  %445 = urem i32 %444, 2
  %446 = icmp eq i32 %445, 0
  %447 = icmp slt i32 %442, 10
  %448 = or i1 %446, %447
  br i1 %448, label %449, label %588

; <label>:449:                                    ; preds = %438
  br label %172

; <label>:450:                                    ; preds = %172
  br label %451

; <label>:451:                                    ; preds = %450
  %452 = load i32, i32* %24, align 4
  %453 = add nsw i32 %452, 1
  store i32 %453, i32* %24, align 4
  br label %150

; <label>:454:                                    ; preds = %150
  %455 = load i32, i32* @x.27
  %456 = load i32, i32* @y.28
  %457 = sub i32 %455, 1
  %458 = mul i32 %455, %457
  %459 = urem i32 %458, 2
  %460 = icmp eq i32 %459, 0
  %461 = icmp slt i32 %456, 10
  %462 = or i1 %460, %461
  br i1 %462, label %463, label %595

; <label>:463:                                    ; preds = %454, %595
  %464 = load i32, i32* @x.27
  %465 = load i32, i32* @y.28
  %466 = sub i32 %464, 1
  %467 = mul i32 %464, %466
  %468 = urem i32 %467, 2
  %469 = icmp eq i32 %468, 0
  %470 = icmp slt i32 %465, 10
  %471 = or i1 %469, %470
  br i1 %471, label %472, label %595

; <label>:472:                                    ; preds = %463
  br label %114

; <label>:473:                                    ; preds = %135
  %474 = load i32, i32* %11, align 4
  %475 = sext i32 %474 to i64
  %476 = call dereferenceable(24) %"class.std::vector.0"* @_ZNSt6vectorIS_IxSaIxEESaIS1_EEixEm(%"class.std::vector"* %18, i64 %475) #3
  %477 = load i32, i32* %10, align 4
  %478 = sext i32 %477 to i64
  %479 = call dereferenceable(8) i64* @_ZNSt6vectorIxSaIxEEixEm(%"class.std::vector.0"* %476, i64 %478) #3
  %480 = load i64, i64* %479, align 8
  %481 = trunc i64 %480 to i32
  call void @_ZNSt6vectorIS_IxSaIxEESaIS1_EED2Ev(%"class.std::vector"* %18) #3
  call void @_ZNSt5queueISt4pairIiiESt5dequeIS1_SaIS1_EEED2Ev(%"class.std::queue"* %14) #3
  ret i32 %481

; <label>:482:                                    ; preds = %210, %108, %83
  call void @_ZNSt6vectorIS_IxSaIxEESaIS1_EED2Ev(%"class.std::vector"* %18) #3
  call void @_ZNSt5queueISt4pairIiiESt5dequeIS1_SaIS1_EEED2Ev(%"class.std::queue"* %14) #3
  br label %483

; <label>:483:                                    ; preds = %482, %79
  %484 = load i8*, i8** %16, align 8
  %485 = load i32, i32* %17, align 4
  %486 = insertvalue { i8*, i32 } undef, i8* %484, 0
  %487 = insertvalue { i8*, i32 } %486, i32 %485, 1
  resume { i8*, i32 } %487

; <label>:488:                                    ; preds = %39, %30
  call void @_ZNSt5dequeISt4pairIiiESaIS1_EED2Ev(%"class.std::deque"* %15) #3
  call void @_ZNSt6vectorIS_IxSaIxEESaIS1_EEC2Ev(%"class.std::vector"* %18) #3
  store i32 0, i32* %19, align 4
  br label %39

; <label>:489:                                    ; preds = %65, %56
  call void @_ZNSaIxED2Ev(%"class.std::allocator.2"* %21) #3
  br label %65

; <label>:490:                                    ; preds = %96, %87
  %491 = landingpad { i8*, i32 }
          cleanup
  %492 = extractvalue { i8*, i32 } %491, 0
  store i8* %492, i8** %16, align 8
  %493 = extractvalue { i8*, i32 } %491, 1
  store i32 %493, i32* %17, align 4
  call void @_ZNSt6vectorIxSaIxEED2Ev(%"class.std::vector.0"* %20) #3
  br label %96

; <label>:494:                                    ; preds = %125, %116
  %495 = icmp ugt i64 %115, 0
  br label %125

; <label>:496:                                    ; preds = %162, %153
  store i32 -1, i32* %25, align 4
  br label %162

; <label>:497:                                    ; preds = %198, %189
  %498 = landingpad { i8*, i32 }
          cleanup
  %499 = extractvalue { i8*, i32 } %498, 0
  store i8* %499, i8** %16, align 8
  %500 = extractvalue { i8*, i32 } %498, 1
  store i32 %500, i32* %17, align 4
  br label %198

; <label>:501:                                    ; preds = %220, %211
  %502 = getelementptr inbounds %"struct.std::pair", %"struct.std::pair"* %23, i32 0, i32 1
  %503 = load i32, i32* %502, align 4
  %504 = load i32, i32* %25, align 4
  %505 = sub i32 0, %503
  %506 = add i32 %505, %504
  %507 = sub i32 %503, %504
  %508 = mul i32 %507, %504
  %509 = shl i32 %503, %504
  %510 = add nsw i32 %503, %504
  %511 = icmp slt i32 %510, 0
  br label %220

; <label>:512:                                    ; preds = %251, %242
  br label %251

; <label>:513:                                    ; preds = %284, %275
  %514 = getelementptr inbounds %"struct.std::pair", %"struct.std::pair"* %23, i32 0, i32 0
  %515 = load i32, i32* %514, align 4
  %516 = load i32, i32* %24, align 4
  %517 = shl i32 %515, %516
  %518 = shl i32 %515, %516
  %519 = shl i32 %515, %516
  %520 = sub i32 0, %515
  %521 = add i32 %520, %516
  %522 = sub i32 %515, %516
  %523 = mul i32 %522, %516
  %524 = shl i32 %515, %516
  %525 = add nsw i32 %515, %516
  %526 = sext i32 %525 to i64
  %527 = call dereferenceable(24) %"class.std::vector.10"* @_ZNSt6vectorIS_IcSaIcEESaIS1_EEixEm(%"class.std::vector.5"* %6, i64 %526) #3
  %528 = getelementptr inbounds %"struct.std::pair", %"struct.std::pair"* %23, i32 0, i32 1
  %529 = load i32, i32* %528, align 4
  %530 = load i32, i32* %25, align 4
  %531 = sub i32 %529, %530
  %532 = mul i32 %531, %530
  %533 = sub i32 %529, %530
  %534 = mul i32 %533, %530
  %535 = sub i32 %529, %530
  %536 = mul i32 %535, %530
  %537 = add nsw i32 %529, %530
  %538 = sext i32 %537 to i64
  %539 = call dereferenceable(1) i8* @_ZNSt6vectorIcSaIcEEixEm(%"class.std::vector.10"* %527, i64 %538) #3
  %540 = load i8, i8* %539, align 1
  %541 = sext i8 %540 to i32
  %542 = icmp eq i32 %541, 35
  br label %284

; <label>:543:                                    ; preds = %369, %360
  %544 = getelementptr inbounds %"struct.std::pair", %"struct.std::pair"* %23, i32 0, i32 0
  %545 = load i32, i32* %544, align 4
  %546 = load i32, i32* %24, align 4
  %547 = sub i32 %545, %546
  %548 = mul i32 %547, %546
  %549 = sub i32 0, %545
  %550 = add i32 %549, %546
  %551 = shl i32 %545, %546
  %552 = shl i32 %545, %546
  %553 = sub i32 0, %545
  %554 = add i32 %553, %546
  %555 = shl i32 %545, %546
  %556 = sub i32 %545, %546
  %557 = mul i32 %556, %546
  %558 = add nsw i32 %545, %546
  %559 = sext i32 %558 to i64
  %560 = call dereferenceable(24) %"class.std::vector.0"* @_ZNSt6vectorIS_IxSaIxEESaIS1_EEixEm(%"class.std::vector"* %18, i64 %559) #3
  %561 = getelementptr inbounds %"struct.std::pair", %"struct.std::pair"* %23, i32 0, i32 1
  %562 = load i32, i32* %561, align 4
  %563 = load i32, i32* %25, align 4
  %564 = add nsw i32 %562, %563
  %565 = sext i32 %564 to i64
  %566 = call dereferenceable(8) i64* @_ZNSt6vectorIxSaIxEEixEm(%"class.std::vector.0"* %560, i64 %565) #3
  %567 = getelementptr inbounds %"struct.std::pair", %"struct.std::pair"* %23, i32 0, i32 0
  %568 = load i32, i32* %567, align 4
  %569 = sext i32 %568 to i64
  %570 = call dereferenceable(24) %"class.std::vector.0"* @_ZNSt6vectorIS_IxSaIxEESaIS1_EEixEm(%"class.std::vector"* %18, i64 %569) #3
  %571 = getelementptr inbounds %"struct.std::pair", %"struct.std::pair"* %23, i32 0, i32 1
  %572 = load i32, i32* %571, align 4
  %573 = sext i32 %572 to i64
  %574 = call dereferenceable(8) i64* @_ZNSt6vectorIxSaIxEEixEm(%"class.std::vector.0"* %570, i64 %573) #3
  %575 = load i64, i64* %574, align 8
  %576 = shl i64 %575, 1
  %577 = sub i64 0, %575
  %578 = add i64 %577, 1
  %579 = sub i64 %575, 1
  %580 = mul i64 %579, 1
  %581 = shl i64 %575, 1
  %582 = shl i64 %575, 1
  %583 = sub i64 0, %575
  %584 = add i64 %583, 1
  %585 = sub i64 0, %575
  %586 = add i64 %585, 1
  %587 = add nsw i64 %575, 1
  store i64 %587, i64* %26, align 8
  br label %369

; <label>:588:                                    ; preds = %438, %429
  %589 = load i32, i32* %25, align 4
  %590 = sub i32 0, %589
  %591 = add i32 %590, 1
  %592 = sub i32 %589, 1
  %593 = mul i32 %592, 1
  %594 = add nsw i32 %589, 1
  store i32 %594, i32* %25, align 4
  br label %438

; <label>:595:                                    ; preds = %463, %454
  br label %463
}

; Function Attrs: noinline uwtable
define linkonce_odr void @_ZNSt5dequeISt4pairIiiESaIS1_EEC2Ev(%"class.std::deque"*) unnamed_addr #0 comdat align 2 {
  %2 = alloca %"class.std::deque"*, align 8
  store %"class.std::deque"* %0, %"class.std::deque"** %2, align 8
  %3 = load %"class.std::deque"*, %"class.std::deque"** %2, align 8
  %4 = bitcast %"class.std::deque"* %3 to %"class.std::_Deque_base"*
  call void @_ZNSt11_Deque_baseISt4pairIiiESaIS1_EEC2Ev(%"class.std::_Deque_base"* %4)
  ret void
}

; Function Attrs: noinline uwtable
define linkonce_odr void @_ZNSt5queueISt4pairIiiESt5dequeIS1_SaIS1_EEEC2EOS4_(%"class.std::queue"*, %"class.std::deque"* dereferenceable(80)) unnamed_addr #0 comdat align 2 {
  %3 = alloca %"class.std::queue"*, align 8
  %4 = alloca %"class.std::deque"*, align 8
  store %"class.std::queue"* %0, %"class.std::queue"** %3, align 8
  store %"class.std::deque"* %1, %"class.std::deque"** %4, align 8
  %5 = load %"class.std::queue"*, %"class.std::queue"** %3, align 8
  %6 = getelementptr inbounds %"class.std::queue", %"class.std::queue"* %5, i32 0, i32 0
  %7 = load %"class.std::deque"*, %"class.std::deque"** %4, align 8
  %8 = call dereferenceable(80) %"class.std::deque"* @_ZSt4moveIRSt5dequeISt4pairIiiESaIS2_EEEONSt16remove_referenceIT_E4typeEOS7_(%"class.std::deque"* dereferenceable(80) %7) #3
  call void @_ZNSt5dequeISt4pairIiiESaIS1_EEC2EOS3_(%"class.std::deque"* %6, %"class.std::deque"* dereferenceable(80) %8)
  ret void
}

; Function Attrs: noinline nounwind uwtable
define linkonce_odr void @_ZNSt5dequeISt4pairIiiESaIS1_EED2Ev(%"class.std::deque"*) unnamed_addr #4 comdat align 2 personality i8* bitcast (i32 (...)* @__gxx_personality_v0 to i8*) {
  %2 = alloca %"class.std::deque"*, align 8
  %3 = alloca %"struct.std::_Deque_iterator", align 8
  %4 = alloca %"struct.std::_Deque_iterator", align 8
  %5 = alloca i8*
  %6 = alloca i32
  store %"class.std::deque"* %0, %"class.std::deque"** %2, align 8
  %7 = load %"class.std::deque"*, %"class.std::deque"** %2, align 8
  call void @_ZNSt5dequeISt4pairIiiESaIS1_EE5beginEv(%"struct.std::_Deque_iterator"* sret %3, %"class.std::deque"* %7) #3
  call void @_ZNSt5dequeISt4pairIiiESaIS1_EE3endEv(%"struct.std::_Deque_iterator"* sret %4, %"class.std::deque"* %7) #3
  %8 = bitcast %"class.std::deque"* %7 to %"class.std::_Deque_base"*
  %9 = call dereferenceable(1) %"class.std::allocator.15"* @_ZNSt11_Deque_baseISt4pairIiiESaIS1_EE19_M_get_Tp_allocatorEv(%"class.std::_Deque_base"* %8) #3
  invoke void @_ZNSt5dequeISt4pairIiiESaIS1_EE15_M_destroy_dataESt15_Deque_iteratorIS1_RS1_PS1_ES7_RKS2_(%"class.std::deque"* %7, %"struct.std::_Deque_iterator"* %3, %"struct.std::_Deque_iterator"* %4, %"class.std::allocator.15"* dereferenceable(1) %9)
          to label %10 unwind label %12

; <label>:10:                                     ; preds = %1
  %11 = bitcast %"class.std::deque"* %7 to %"class.std::_Deque_base"*
  call void @_ZNSt11_Deque_baseISt4pairIiiESaIS1_EED2Ev(%"class.std::_Deque_base"* %11) #3
  ret void

; <label>:12:                                     ; preds = %1
  %13 = landingpad { i8*, i32 }
          catch i8* null
  %14 = extractvalue { i8*, i32 } %13, 0
  store i8* %14, i8** %5, align 8
  %15 = extractvalue { i8*, i32 } %13, 1
  store i32 %15, i32* %6, align 4
  %16 = bitcast %"class.std::deque"* %7 to %"class.std::_Deque_base"*
  call void @_ZNSt11_Deque_baseISt4pairIiiESaIS1_EED2Ev(%"class.std::_Deque_base"* %16) #3
  br label %17

; <label>:17:                                     ; preds = %12
  %18 = load i32, i32* @x.33
  %19 = load i32, i32* @y.34
  %20 = sub i32 %18, 1
  %21 = mul i32 %18, %20
  %22 = urem i32 %21, 2
  %23 = icmp eq i32 %22, 0
  %24 = icmp slt i32 %19, 10
  %25 = or i1 %23, %24
  br i1 %25, label %26, label %37

; <label>:26:                                     ; preds = %17, %37
  %27 = load i8*, i8** %5, align 8
  call void @__clang_call_terminate(i8* %27) #12
  %28 = load i32, i32* @x.33
  %29 = load i32, i32* @y.34
  %30 = sub i32 %28, 1
  %31 = mul i32 %28, %30
  %32 = urem i32 %31, 2
  %33 = icmp eq i32 %32, 0
  %34 = icmp slt i32 %29, 10
  %35 = or i1 %33, %34
  br i1 %35, label %36, label %37

; <label>:36:                                     ; preds = %26
  unreachable

; <label>:37:                                     ; preds = %26, %17
  %38 = load i8*, i8** %5, align 8
  call void @__clang_call_terminate(i8* %38) #12
  br label %26
}

; Function Attrs: noinline nounwind uwtable
define linkonce_odr void @_ZNSt6vectorIS_IxSaIxEESaIS1_EEC2Ev(%"class.std::vector"*) unnamed_addr #4 comdat align 2 personality i8* bitcast (i32 (...)* @__gxx_personality_v0 to i8*) {
  %2 = load i32, i32* @x.35
  %3 = load i32, i32* @y.36
  %4 = sub i32 %2, 1
  %5 = mul i32 %2, %4
  %6 = urem i32 %5, 2
  %7 = icmp eq i32 %6, 0
  %8 = icmp slt i32 %3, 10
  %9 = or i1 %7, %8
  br i1 %9, label %10, label %45

; <label>:10:                                     ; preds = %1, %45
  %11 = alloca %"class.std::vector"*, align 8
  store %"class.std::vector"* %0, %"class.std::vector"** %11, align 8
  %12 = load %"class.std::vector"*, %"class.std::vector"** %11, align 8
  %13 = bitcast %"class.std::vector"* %12 to %"struct.std::_Vector_base"*
  %14 = load i32, i32* @x.35
  %15 = load i32, i32* @y.36
  %16 = sub i32 %14, 1
  %17 = mul i32 %14, %16
  %18 = urem i32 %17, 2
  %19 = icmp eq i32 %18, 0
  %20 = icmp slt i32 %15, 10
  %21 = or i1 %19, %20
  br i1 %21, label %22, label %45

; <label>:22:                                     ; preds = %10
  invoke void @_ZNSt12_Vector_baseISt6vectorIxSaIxEESaIS2_EEC2Ev(%"struct.std::_Vector_base"* %13)
          to label %23 unwind label %24

; <label>:23:                                     ; preds = %22
  ret void

; <label>:24:                                     ; preds = %22
  %25 = load i32, i32* @x.35
  %26 = load i32, i32* @y.36
  %27 = sub i32 %25, 1
  %28 = mul i32 %25, %27
  %29 = urem i32 %28, 2
  %30 = icmp eq i32 %29, 0
  %31 = icmp slt i32 %26, 10
  %32 = or i1 %30, %31
  br i1 %32, label %33, label %49

; <label>:33:                                     ; preds = %24, %49
  %34 = landingpad { i8*, i32 }
          catch i8* null
  %35 = extractvalue { i8*, i32 } %34, 0
  call void @__clang_call_terminate(i8* %35) #12
  %36 = load i32, i32* @x.35
  %37 = load i32, i32* @y.36
  %38 = sub i32 %36, 1
  %39 = mul i32 %36, %38
  %40 = urem i32 %39, 2
  %41 = icmp eq i32 %40, 0
  %42 = icmp slt i32 %37, 10
  %43 = or i1 %41, %42
  br i1 %43, label %44, label %49

; <label>:44:                                     ; preds = %33
  unreachable

; <label>:45:                                     ; preds = %10, %1
  %46 = alloca %"class.std::vector"*, align 8
  store %"class.std::vector"* %0, %"class.std::vector"** %46, align 8
  %47 = load %"class.std::vector"*, %"class.std::vector"** %46, align 8
  %48 = bitcast %"class.std::vector"* %47 to %"struct.std::_Vector_base"*
  br label %10

; <label>:49:                                     ; preds = %33, %24
  %50 = landingpad { i8*, i32 }
          catch i8* null
  %51 = extractvalue { i8*, i32 } %50, 0
  call void @__clang_call_terminate(i8* %51) #12
  br label %33
}

; Function Attrs: noinline nounwind uwtable
define linkonce_odr void @_ZNSaIxEC2Ev(%"class.std::allocator.2"*) unnamed_addr #4 comdat align 2 {
  %2 = load i32, i32* @x.37
  %3 = load i32, i32* @y.38
  %4 = sub i32 %2, 1
  %5 = mul i32 %2, %4
  %6 = urem i32 %5, 2
  %7 = icmp eq i32 %6, 0
  %8 = icmp slt i32 %3, 10
  %9 = or i1 %7, %8
  br i1 %9, label %10, label %23

; <label>:10:                                     ; preds = %1, %23
  %11 = alloca %"class.std::allocator.2"*, align 8
  store %"class.std::allocator.2"* %0, %"class.std::allocator.2"** %11, align 8
  %12 = load %"class.std::allocator.2"*, %"class.std::allocator.2"** %11, align 8
  %13 = bitcast %"class.std::allocator.2"* %12 to %"class.__gnu_cxx::new_allocator.3"*
  call void @_ZN9__gnu_cxx13new_allocatorIxEC2Ev(%"class.__gnu_cxx::new_allocator.3"* %13) #3
  %14 = load i32, i32* @x.37
  %15 = load i32, i32* @y.38
  %16 = sub i32 %14, 1
  %17 = mul i32 %14, %16
  %18 = urem i32 %17, 2
  %19 = icmp eq i32 %18, 0
  %20 = icmp slt i32 %15, 10
  %21 = or i1 %19, %20
  br i1 %21, label %22, label %23

; <label>:22:                                     ; preds = %10
  ret void

; <label>:23:                                     ; preds = %10, %1
  %24 = alloca %"class.std::allocator.2"*, align 8
  store %"class.std::allocator.2"* %0, %"class.std::allocator.2"** %24, align 8
  %25 = load %"class.std::allocator.2"*, %"class.std::allocator.2"** %24, align 8
  %26 = bitcast %"class.std::allocator.2"* %25 to %"class.__gnu_cxx::new_allocator.3"*
  call void @_ZN9__gnu_cxx13new_allocatorIxEC2Ev(%"class.__gnu_cxx::new_allocator.3"* %26) #3
  br label %10
}

; Function Attrs: noinline uwtable
define linkonce_odr void @_ZNSt6vectorIxSaIxEEC2EmRKS0_(%"class.std::vector.0"*, i64, %"class.std::allocator.2"* dereferenceable(1)) unnamed_addr #0 comdat align 2 personality i8* bitcast (i32 (...)* @__gxx_personality_v0 to i8*) {
  %4 = load i32, i32* @x.39
  %5 = load i32, i32* @y.40
  %6 = sub i32 %4, 1
  %7 = mul i32 %4, %6
  %8 = urem i32 %7, 2
  %9 = icmp eq i32 %8, 0
  %10 = icmp slt i32 %5, 10
  %11 = or i1 %9, %10
  br i1 %11, label %12, label %61

; <label>:12:                                     ; preds = %3, %61
  %13 = alloca %"class.std::vector.0"*, align 8
  %14 = alloca i64, align 8
  %15 = alloca %"class.std::allocator.2"*, align 8
  %16 = alloca i8*
  %17 = alloca i32
  store %"class.std::vector.0"* %0, %"class.std::vector.0"** %13, align 8
  store i64 %1, i64* %14, align 8
  store %"class.std::allocator.2"* %2, %"class.std::allocator.2"** %15, align 8
  %18 = load %"class.std::vector.0"*, %"class.std::vector.0"** %13, align 8
  %19 = bitcast %"class.std::vector.0"* %18 to %"struct.std::_Vector_base.1"*
  %20 = load i64, i64* %14, align 8
  %21 = load %"class.std::allocator.2"*, %"class.std::allocator.2"** %15, align 8
  call void @_ZNSt12_Vector_baseIxSaIxEEC2EmRKS0_(%"struct.std::_Vector_base.1"* %19, i64 %20, %"class.std::allocator.2"* dereferenceable(1) %21)
  %22 = load i64, i64* %14, align 8
  %23 = load i32, i32* @x.39
  %24 = load i32, i32* @y.40
  %25 = sub i32 %23, 1
  %26 = mul i32 %23, %25
  %27 = urem i32 %26, 2
  %28 = icmp eq i32 %27, 0
  %29 = icmp slt i32 %24, 10
  %30 = or i1 %28, %29
  br i1 %30, label %31, label %61

; <label>:31:                                     ; preds = %12
  invoke void @_ZNSt6vectorIxSaIxEE21_M_default_initializeEm(%"class.std::vector.0"* %18, i64 %22)
          to label %32 unwind label %51

; <label>:32:                                     ; preds = %31
  %33 = load i32, i32* @x.39
  %34 = load i32, i32* @y.40
  %35 = sub i32 %33, 1
  %36 = mul i32 %33, %35
  %37 = urem i32 %36, 2
  %38 = icmp eq i32 %37, 0
  %39 = icmp slt i32 %34, 10
  %40 = or i1 %38, %39
  br i1 %40, label %41, label %72

; <label>:41:                                     ; preds = %32, %72
  %42 = load i32, i32* @x.39
  %43 = load i32, i32* @y.40
  %44 = sub i32 %42, 1
  %45 = mul i32 %42, %44
  %46 = urem i32 %45, 2
  %47 = icmp eq i32 %46, 0
  %48 = icmp slt i32 %43, 10
  %49 = or i1 %47, %48
  br i1 %49, label %50, label %72

; <label>:50:                                     ; preds = %41
  ret void

; <label>:51:                                     ; preds = %31
  %52 = landingpad { i8*, i32 }
          cleanup
  %53 = extractvalue { i8*, i32 } %52, 0
  store i8* %53, i8** %16, align 8
  %54 = extractvalue { i8*, i32 } %52, 1
  store i32 %54, i32* %17, align 4
  %55 = bitcast %"class.std::vector.0"* %18 to %"struct.std::_Vector_base.1"*
  call void @_ZNSt12_Vector_baseIxSaIxEED2Ev(%"struct.std::_Vector_base.1"* %55) #3
  br label %56

; <label>:56:                                     ; preds = %51
  %57 = load i8*, i8** %16, align 8
  %58 = load i32, i32* %17, align 4
  %59 = insertvalue { i8*, i32 } undef, i8* %57, 0
  %60 = insertvalue { i8*, i32 } %59, i32 %58, 1
  resume { i8*, i32 } %60

; <label>:61:                                     ; preds = %12, %3
  %62 = alloca %"class.std::vector.0"*, align 8
  %63 = alloca i64, align 8
  %64 = alloca %"class.std::allocator.2"*, align 8
  %65 = alloca i8*
  %66 = alloca i32
  store %"class.std::vector.0"* %0, %"class.std::vector.0"** %62, align 8
  store i64 %1, i64* %63, align 8
  store %"class.std::allocator.2"* %2, %"class.std::allocator.2"** %64, align 8
  %67 = load %"class.std::vector.0"*, %"class.std::vector.0"** %62, align 8
  %68 = bitcast %"class.std::vector.0"* %67 to %"struct.std::_Vector_base.1"*
  %69 = load i64, i64* %63, align 8
  %70 = load %"class.std::allocator.2"*, %"class.std::allocator.2"** %64, align 8
  call void @_ZNSt12_Vector_baseIxSaIxEEC2EmRKS0_(%"struct.std::_Vector_base.1"* %68, i64 %69, %"class.std::allocator.2"* dereferenceable(1) %70)
  %71 = load i64, i64* %63, align 8
  br label %12

; <label>:72:                                     ; preds = %41, %32
  br label %41
}

; Function Attrs: noinline nounwind uwtable
define linkonce_odr void @_ZNSaIxED2Ev(%"class.std::allocator.2"*) unnamed_addr #4 comdat align 2 {
  %2 = alloca %"class.std::allocator.2"*, align 8
  store %"class.std::allocator.2"* %0, %"class.std::allocator.2"** %2, align 8
  %3 = load %"class.std::allocator.2"*, %"class.std::allocator.2"** %2, align 8
  %4 = bitcast %"class.std::allocator.2"* %3 to %"class.__gnu_cxx::new_allocator.3"*
  call void @_ZN9__gnu_cxx13new_allocatorIxED2Ev(%"class.__gnu_cxx::new_allocator.3"* %4) #3
  ret void
}

; Function Attrs: noinline uwtable
define linkonce_odr void @_ZNSt5queueISt4pairIiiESt5dequeIS1_SaIS1_EEE4pushEOS1_(%"class.std::queue"*, %"struct.std::pair"* dereferenceable(8)) #0 comdat align 2 {
  %3 = load i32, i32* @x.43
  %4 = load i32, i32* @y.44
  %5 = sub i32 %3, 1
  %6 = mul i32 %3, %5
  %7 = urem i32 %6, 2
  %8 = icmp eq i32 %7, 0
  %9 = icmp slt i32 %4, 10
  %10 = or i1 %8, %9
  br i1 %10, label %11, label %27

; <label>:11:                                     ; preds = %2, %27
  %12 = alloca %"class.std::queue"*, align 8
  %13 = alloca %"struct.std::pair"*, align 8
  store %"class.std::queue"* %0, %"class.std::queue"** %12, align 8
  store %"struct.std::pair"* %1, %"struct.std::pair"** %13, align 8
  %14 = load %"class.std::queue"*, %"class.std::queue"** %12, align 8
  %15 = getelementptr inbounds %"class.std::queue", %"class.std::queue"* %14, i32 0, i32 0
  %16 = load %"struct.std::pair"*, %"struct.std::pair"** %13, align 8
  %17 = call dereferenceable(8) %"struct.std::pair"* @_ZSt4moveIRSt4pairIiiEEONSt16remove_referenceIT_E4typeEOS4_(%"struct.std::pair"* dereferenceable(8) %16) #3
  call void @_ZNSt5dequeISt4pairIiiESaIS1_EE9push_backEOS1_(%"class.std::deque"* %15, %"struct.std::pair"* dereferenceable(8) %17)
  %18 = load i32, i32* @x.43
  %19 = load i32, i32* @y.44
  %20 = sub i32 %18, 1
  %21 = mul i32 %18, %20
  %22 = urem i32 %21, 2
  %23 = icmp eq i32 %22, 0
  %24 = icmp slt i32 %19, 10
  %25 = or i1 %23, %24
  br i1 %25, label %26, label %27

; <label>:26:                                     ; preds = %11
  ret void

; <label>:27:                                     ; preds = %11, %2
  %28 = alloca %"class.std::queue"*, align 8
  %29 = alloca %"struct.std::pair"*, align 8
  store %"class.std::queue"* %0, %"class.std::queue"** %28, align 8
  store %"struct.std::pair"* %1, %"struct.std::pair"** %29, align 8
  %30 = load %"class.std::queue"*, %"class.std::queue"** %28, align 8
  %31 = getelementptr inbounds %"class.std::queue", %"class.std::queue"* %30, i32 0, i32 0
  %32 = load %"struct.std::pair"*, %"struct.std::pair"** %29, align 8
  %33 = call dereferenceable(8) %"struct.std::pair"* @_ZSt4moveIRSt4pairIiiEEONSt16remove_referenceIT_E4typeEOS4_(%"struct.std::pair"* dereferenceable(8) %32) #3
  call void @_ZNSt5dequeISt4pairIiiESaIS1_EE9push_backEOS1_(%"class.std::deque"* %31, %"struct.std::pair"* dereferenceable(8) %33)
  br label %11
}

; Function Attrs: noinline uwtable
define linkonce_odr i64 @_ZSt9make_pairIRiS0_ESt4pairINSt17__decay_and_stripIT_E6__typeENS2_IT0_E6__typeEEOS3_OS6_(i32* dereferenceable(4), i32* dereferenceable(4)) #0 comdat {
  %3 = alloca %"struct.std::pair", align 4
  %4 = alloca i32*, align 8
  %5 = alloca i32*, align 8
  store i32* %0, i32** %4, align 8
  store i32* %1, i32** %5, align 8
  %6 = load i32*, i32** %4, align 8
  %7 = call dereferenceable(4) i32* @_ZSt7forwardIRiEOT_RNSt16remove_referenceIS1_E4typeE(i32* dereferenceable(4) %6) #3
  %8 = load i32*, i32** %5, align 8
  %9 = call dereferenceable(4) i32* @_ZSt7forwardIRiEOT_RNSt16remove_referenceIS1_E4typeE(i32* dereferenceable(4) %8) #3
  call void @_ZNSt4pairIiiEC2IRiS2_vEEOT_OT0_(%"struct.std::pair"* %3, i32* dereferenceable(4) %7, i32* dereferenceable(4) %9)
  %10 = bitcast %"struct.std::pair"* %3 to i64*
  %11 = load i64, i64* %10, align 4
  ret i64 %11
}

; Function Attrs: noinline nounwind uwtable
define linkonce_odr i64 @_ZNKSt5queueISt4pairIiiESt5dequeIS1_SaIS1_EEE4sizeEv(%"class.std::queue"*) #4 comdat align 2 {
  %2 = alloca %"class.std::queue"*, align 8
  store %"class.std::queue"* %0, %"class.std::queue"** %2, align 8
  %3 = load %"class.std::queue"*, %"class.std::queue"** %2, align 8
  %4 = getelementptr inbounds %"class.std::queue", %"class.std::queue"* %3, i32 0, i32 0
  %5 = call i64 @_ZNKSt5dequeISt4pairIiiESaIS1_EE4sizeEv(%"class.std::deque"* %4) #3
  ret i64 %5
}

; Function Attrs: noinline nounwind uwtable
define linkonce_odr dereferenceable(8) %"struct.std::pair"* @_ZNSt5queueISt4pairIiiESt5dequeIS1_SaIS1_EEE5frontEv(%"class.std::queue"*) #4 comdat align 2 {
  %2 = alloca %"class.std::queue"*, align 8
  store %"class.std::queue"* %0, %"class.std::queue"** %2, align 8
  %3 = load %"class.std::queue"*, %"class.std::queue"** %2, align 8
  %4 = getelementptr inbounds %"class.std::queue", %"class.std::queue"* %3, i32 0, i32 0
  %5 = call dereferenceable(8) %"struct.std::pair"* @_ZNSt5dequeISt4pairIiiESaIS1_EE5frontEv(%"class.std::deque"* %4) #3
  ret %"struct.std::pair"* %5
}

; Function Attrs: argmemonly nounwind
declare void @llvm.memcpy.p0i8.p0i8.i64(i8* nocapture writeonly, i8* nocapture readonly, i64, i32, i1) #5

; Function Attrs: noinline nounwind uwtable
define linkonce_odr void @_ZNSt5queueISt4pairIiiESt5dequeIS1_SaIS1_EEE3popEv(%"class.std::queue"*) #4 comdat align 2 {
  %2 = alloca %"class.std::queue"*, align 8
  store %"class.std::queue"* %0, %"class.std::queue"** %2, align 8
  %3 = load %"class.std::queue"*, %"class.std::queue"** %2, align 8
  %4 = getelementptr inbounds %"class.std::queue", %"class.std::queue"* %3, i32 0, i32 0
  call void @_ZNSt5dequeISt4pairIiiESaIS1_EE9pop_frontEv(%"class.std::deque"* %4) #3
  ret void
}

; Function Attrs: noinline nounwind uwtable
define linkonce_odr dereferenceable(24) %"class.std::vector.10"* @_ZNSt6vectorIS_IcSaIcEESaIS1_EEixEm(%"class.std::vector.5"*, i64) #4 comdat align 2 {
  %3 = alloca %"class.std::vector.5"*, align 8
  %4 = alloca i64, align 8
  store %"class.std::vector.5"* %0, %"class.std::vector.5"** %3, align 8
  store i64 %1, i64* %4, align 8
  %5 = load %"class.std::vector.5"*, %"class.std::vector.5"** %3, align 8
  %6 = bitcast %"class.std::vector.5"* %5 to %"struct.std::_Vector_base.6"*
  %7 = getelementptr inbounds %"struct.std::_Vector_base.6", %"struct.std::_Vector_base.6"* %6, i32 0, i32 0
  %8 = getelementptr inbounds %"struct.std::_Vector_base<std::vector<char, std::allocator<char> >, std::allocator<std::vector<char, std::allocator<char> > > >::_Vector_impl", %"struct.std::_Vector_base<std::vector<char, std::allocator<char> >, std::allocator<std::vector<char, std::allocator<char> > > >::_Vector_impl"* %7, i32 0, i32 0
  %9 = load %"class.std::vector.10"*, %"class.std::vector.10"** %8, align 8
  %10 = load i64, i64* %4, align 8
  %11 = getelementptr inbounds %"class.std::vector.10", %"class.std::vector.10"* %9, i64 %10
  ret %"class.std::vector.10"* %11
}

; Function Attrs: noinline nounwind uwtable
define linkonce_odr dereferenceable(1) i8* @_ZNSt6vectorIcSaIcEEixEm(%"class.std::vector.10"*, i64) #4 comdat align 2 {
  %3 = load i32, i32* @x.55
  %4 = load i32, i32* @y.56
  %5 = sub i32 %3, 1
  %6 = mul i32 %3, %5
  %7 = urem i32 %6, 2
  %8 = icmp eq i32 %7, 0
  %9 = icmp slt i32 %4, 10
  %10 = or i1 %8, %9
  br i1 %10, label %11, label %30

; <label>:11:                                     ; preds = %2, %30
  %12 = alloca %"class.std::vector.10"*, align 8
  %13 = alloca i64, align 8
  store %"class.std::vector.10"* %0, %"class.std::vector.10"** %12, align 8
  store i64 %1, i64* %13, align 8
  %14 = load %"class.std::vector.10"*, %"class.std::vector.10"** %12, align 8
  %15 = bitcast %"class.std::vector.10"* %14 to %"struct.std::_Vector_base.11"*
  %16 = getelementptr inbounds %"struct.std::_Vector_base.11", %"struct.std::_Vector_base.11"* %15, i32 0, i32 0
  %17 = getelementptr inbounds %"struct.std::_Vector_base<char, std::allocator<char> >::_Vector_impl", %"struct.std::_Vector_base<char, std::allocator<char> >::_Vector_impl"* %16, i32 0, i32 0
  %18 = load i8*, i8** %17, align 8
  %19 = load i64, i64* %13, align 8
  %20 = getelementptr inbounds i8, i8* %18, i64 %19
  %21 = load i32, i32* @x.55
  %22 = load i32, i32* @y.56
  %23 = sub i32 %21, 1
  %24 = mul i32 %21, %23
  %25 = urem i32 %24, 2
  %26 = icmp eq i32 %25, 0
  %27 = icmp slt i32 %22, 10
  %28 = or i1 %26, %27
  br i1 %28, label %29, label %30

; <label>:29:                                     ; preds = %11
  ret i8* %20

; <label>:30:                                     ; preds = %11, %2
  %31 = alloca %"class.std::vector.10"*, align 8
  %32 = alloca i64, align 8
  store %"class.std::vector.10"* %0, %"class.std::vector.10"** %31, align 8
  store i64 %1, i64* %32, align 8
  %33 = load %"class.std::vector.10"*, %"class.std::vector.10"** %31, align 8
  %34 = bitcast %"class.std::vector.10"* %33 to %"struct.std::_Vector_base.11"*
  %35 = getelementptr inbounds %"struct.std::_Vector_base.11", %"struct.std::_Vector_base.11"* %34, i32 0, i32 0
  %36 = getelementptr inbounds %"struct.std::_Vector_base<char, std::allocator<char> >::_Vector_impl", %"struct.std::_Vector_base<char, std::allocator<char> >::_Vector_impl"* %35, i32 0, i32 0
  %37 = load i8*, i8** %36, align 8
  %38 = load i64, i64* %32, align 8
  %39 = getelementptr inbounds i8, i8* %37, i64 %38
  br label %11
}

; Function Attrs: noinline nounwind uwtable
define linkonce_odr dereferenceable(24) %"class.std::vector.0"* @_ZNSt6vectorIS_IxSaIxEESaIS1_EEixEm(%"class.std::vector"*, i64) #4 comdat align 2 {
  %3 = alloca %"class.std::vector"*, align 8
  %4 = alloca i64, align 8
  store %"class.std::vector"* %0, %"class.std::vector"** %3, align 8
  store i64 %1, i64* %4, align 8
  %5 = load %"class.std::vector"*, %"class.std::vector"** %3, align 8
  %6 = bitcast %"class.std::vector"* %5 to %"struct.std::_Vector_base"*
  %7 = getelementptr inbounds %"struct.std::_Vector_base", %"struct.std::_Vector_base"* %6, i32 0, i32 0
  %8 = getelementptr inbounds %"struct.std::_Vector_base<std::vector<long long, std::allocator<long long> >, std::allocator<std::vector<long long, std::allocator<long long> > > >::_Vector_impl", %"struct.std::_Vector_base<std::vector<long long, std::allocator<long long> >, std::allocator<std::vector<long long, std::allocator<long long> > > >::_Vector_impl"* %7, i32 0, i32 0
  %9 = load %"class.std::vector.0"*, %"class.std::vector.0"** %8, align 8
  %10 = load i64, i64* %4, align 8
  %11 = getelementptr inbounds %"class.std::vector.0", %"class.std::vector.0"* %9, i64 %10
  ret %"class.std::vector.0"* %11
}

; Function Attrs: noinline nounwind uwtable
define linkonce_odr dereferenceable(8) i64* @_ZNSt6vectorIxSaIxEEixEm(%"class.std::vector.0"*, i64) #4 comdat align 2 {
  %3 = alloca %"class.std::vector.0"*, align 8
  %4 = alloca i64, align 8
  store %"class.std::vector.0"* %0, %"class.std::vector.0"** %3, align 8
  store i64 %1, i64* %4, align 8
  %5 = load %"class.std::vector.0"*, %"class.std::vector.0"** %3, align 8
  %6 = bitcast %"class.std::vector.0"* %5 to %"struct.std::_Vector_base.1"*
  %7 = getelementptr inbounds %"struct.std::_Vector_base.1", %"struct.std::_Vector_base.1"* %6, i32 0, i32 0
  %8 = getelementptr inbounds %"struct.std::_Vector_base<long long, std::allocator<long long> >::_Vector_impl", %"struct.std::_Vector_base<long long, std::allocator<long long> >::_Vector_impl"* %7, i32 0, i32 0
  %9 = load i64*, i64** %8, align 8
  %10 = load i64, i64* %4, align 8
  %11 = getelementptr inbounds i64, i64* %9, i64 %10
  ret i64* %11
}

; Function Attrs: noinline nounwind uwtable
define linkonce_odr dereferenceable(8) i64* @_ZSt3minIxERKT_S2_S2_(i64* dereferenceable(8), i64* dereferenceable(8)) #4 comdat {
  %3 = alloca i64*, align 8
  %4 = alloca i64*, align 8
  %5 = alloca i64*, align 8
  store i64* %0, i64** %4, align 8
  store i64* %1, i64** %5, align 8
  %6 = load i64*, i64** %5, align 8
  %7 = load i64, i64* %6, align 8
  %8 = load i64*, i64** %4, align 8
  %9 = load i64, i64* %8, align 8
  %10 = icmp slt i64 %7, %9
  br i1 %10, label %11, label %13

; <label>:11:                                     ; preds = %2
  %12 = load i64*, i64** %5, align 8
  store i64* %12, i64** %3, align 8
  br label %15

; <label>:13:                                     ; preds = %2
  %14 = load i64*, i64** %4, align 8
  store i64* %14, i64** %3, align 8
  br label %15

; <label>:15:                                     ; preds = %13, %11
  %16 = load i64*, i64** %3, align 8
  ret i64* %16
}

; Function Attrs: noinline uwtable
define linkonce_odr i64 @_ZSt9make_pairIiiESt4pairINSt17__decay_and_stripIT_E6__typeENS1_IT0_E6__typeEEOS2_OS5_(i32* dereferenceable(4), i32* dereferenceable(4)) #0 comdat {
  %3 = alloca %"struct.std::pair", align 4
  %4 = alloca i32*, align 8
  %5 = alloca i32*, align 8
  store i32* %0, i32** %4, align 8
  store i32* %1, i32** %5, align 8
  %6 = load i32*, i32** %4, align 8
  %7 = call dereferenceable(4) i32* @_ZSt7forwardIiEOT_RNSt16remove_referenceIS0_E4typeE(i32* dereferenceable(4) %6) #3
  %8 = load i32*, i32** %5, align 8
  %9 = call dereferenceable(4) i32* @_ZSt7forwardIiEOT_RNSt16remove_referenceIS0_E4typeE(i32* dereferenceable(4) %8) #3
  call void @_ZNSt4pairIiiEC2IiivEEOT_OT0_(%"struct.std::pair"* %3, i32* dereferenceable(4) %7, i32* dereferenceable(4) %9)
  %10 = bitcast %"struct.std::pair"* %3 to i64*
  %11 = load i64, i64* %10, align 4
  ret i64 %11
}

; Function Attrs: noinline nounwind uwtable
define linkonce_odr void @_ZNSt6vectorIS_IxSaIxEESaIS1_EED2Ev(%"class.std::vector"*) unnamed_addr #4 comdat align 2 personality i8* bitcast (i32 (...)* @__gxx_personality_v0 to i8*) {
  %2 = load i32, i32* @x.65
  %3 = load i32, i32* @y.66
  %4 = sub i32 %2, 1
  %5 = mul i32 %2, %4
  %6 = urem i32 %5, 2
  %7 = icmp eq i32 %6, 0
  %8 = icmp slt i32 %3, 10
  %9 = or i1 %7, %8
  br i1 %9, label %10, label %43

; <label>:10:                                     ; preds = %1, %43
  %11 = alloca %"class.std::vector"*, align 8
  %12 = alloca i8*
  %13 = alloca i32
  store %"class.std::vector"* %0, %"class.std::vector"** %11, align 8
  %14 = load %"class.std::vector"*, %"class.std::vector"** %11, align 8
  %15 = bitcast %"class.std::vector"* %14 to %"struct.std::_Vector_base"*
  %16 = getelementptr inbounds %"struct.std::_Vector_base", %"struct.std::_Vector_base"* %15, i32 0, i32 0
  %17 = getelementptr inbounds %"struct.std::_Vector_base<std::vector<long long, std::allocator<long long> >, std::allocator<std::vector<long long, std::allocator<long long> > > >::_Vector_impl", %"struct.std::_Vector_base<std::vector<long long, std::allocator<long long> >, std::allocator<std::vector<long long, std::allocator<long long> > > >::_Vector_impl"* %16, i32 0, i32 0
  %18 = load %"class.std::vector.0"*, %"class.std::vector.0"** %17, align 8
  %19 = bitcast %"class.std::vector"* %14 to %"struct.std::_Vector_base"*
  %20 = getelementptr inbounds %"struct.std::_Vector_base", %"struct.std::_Vector_base"* %19, i32 0, i32 0
  %21 = getelementptr inbounds %"struct.std::_Vector_base<std::vector<long long, std::allocator<long long> >, std::allocator<std::vector<long long, std::allocator<long long> > > >::_Vector_impl", %"struct.std::_Vector_base<std::vector<long long, std::allocator<long long> >, std::allocator<std::vector<long long, std::allocator<long long> > > >::_Vector_impl"* %20, i32 0, i32 1
  %22 = load %"class.std::vector.0"*, %"class.std::vector.0"** %21, align 8
  %23 = bitcast %"class.std::vector"* %14 to %"struct.std::_Vector_base"*
  %24 = call dereferenceable(1) %"class.std::allocator"* @_ZNSt12_Vector_baseISt6vectorIxSaIxEESaIS2_EE19_M_get_Tp_allocatorEv(%"struct.std::_Vector_base"* %23) #3
  %25 = load i32, i32* @x.65
  %26 = load i32, i32* @y.66
  %27 = sub i32 %25, 1
  %28 = mul i32 %25, %27
  %29 = urem i32 %28, 2
  %30 = icmp eq i32 %29, 0
  %31 = icmp slt i32 %26, 10
  %32 = or i1 %30, %31
  br i1 %32, label %33, label %43

; <label>:33:                                     ; preds = %10
  invoke void @_ZSt8_DestroyIPSt6vectorIxSaIxEES2_EvT_S4_RSaIT0_E(%"class.std::vector.0"* %18, %"class.std::vector.0"* %22, %"class.std::allocator"* dereferenceable(1) %24)
          to label %34 unwind label %36

; <label>:34:                                     ; preds = %33
  %35 = bitcast %"class.std::vector"* %14 to %"struct.std::_Vector_base"*
  call void @_ZNSt12_Vector_baseISt6vectorIxSaIxEESaIS2_EED2Ev(%"struct.std::_Vector_base"* %35) #3
  ret void

; <label>:36:                                     ; preds = %33
  %37 = landingpad { i8*, i32 }
          catch i8* null
  %38 = extractvalue { i8*, i32 } %37, 0
  store i8* %38, i8** %12, align 8
  %39 = extractvalue { i8*, i32 } %37, 1
  store i32 %39, i32* %13, align 4
  %40 = bitcast %"class.std::vector"* %14 to %"struct.std::_Vector_base"*
  call void @_ZNSt12_Vector_baseISt6vectorIxSaIxEESaIS2_EED2Ev(%"struct.std::_Vector_base"* %40) #3
  br label %41

; <label>:41:                                     ; preds = %36
  %42 = load i8*, i8** %12, align 8
  call void @__clang_call_terminate(i8* %42) #12
  unreachable

; <label>:43:                                     ; preds = %10, %1
  %44 = alloca %"class.std::vector"*, align 8
  %45 = alloca i8*
  %46 = alloca i32
  store %"class.std::vector"* %0, %"class.std::vector"** %44, align 8
  %47 = load %"class.std::vector"*, %"class.std::vector"** %44, align 8
  %48 = bitcast %"class.std::vector"* %47 to %"struct.std::_Vector_base"*
  %49 = getelementptr inbounds %"struct.std::_Vector_base", %"struct.std::_Vector_base"* %48, i32 0, i32 0
  %50 = getelementptr inbounds %"struct.std::_Vector_base<std::vector<long long, std::allocator<long long> >, std::allocator<std::vector<long long, std::allocator<long long> > > >::_Vector_impl", %"struct.std::_Vector_base<std::vector<long long, std::allocator<long long> >, std::allocator<std::vector<long long, std::allocator<long long> > > >::_Vector_impl"* %49, i32 0, i32 0
  %51 = load %"class.std::vector.0"*, %"class.std::vector.0"** %50, align 8
  %52 = bitcast %"class.std::vector"* %47 to %"struct.std::_Vector_base"*
  %53 = getelementptr inbounds %"struct.std::_Vector_base", %"struct.std::_Vector_base"* %52, i32 0, i32 0
  %54 = getelementptr inbounds %"struct.std::_Vector_base<std::vector<long long, std::allocator<long long> >, std::allocator<std::vector<long long, std::allocator<long long> > > >::_Vector_impl", %"struct.std::_Vector_base<std::vector<long long, std::allocator<long long> >, std::allocator<std::vector<long long, std::allocator<long long> > > >::_Vector_impl"* %53, i32 0, i32 1
  %55 = load %"class.std::vector.0"*, %"class.std::vector.0"** %54, align 8
  %56 = bitcast %"class.std::vector"* %47 to %"struct.std::_Vector_base"*
  %57 = call dereferenceable(1) %"class.std::allocator"* @_ZNSt12_Vector_baseISt6vectorIxSaIxEESaIS2_EE19_M_get_Tp_allocatorEv(%"struct.std::_Vector_base"* %56) #3
  br label %10
}

; Function Attrs: noinline nounwind uwtable
define linkonce_odr void @_ZNSt5queueISt4pairIiiESt5dequeIS1_SaIS1_EEED2Ev(%"class.std::queue"*) unnamed_addr #4 comdat align 2 {
  %2 = load i32, i32* @x.67
  %3 = load i32, i32* @y.68
  %4 = sub i32 %2, 1
  %5 = mul i32 %2, %4
  %6 = urem i32 %5, 2
  %7 = icmp eq i32 %6, 0
  %8 = icmp slt i32 %3, 10
  %9 = or i1 %7, %8
  br i1 %9, label %10, label %23

; <label>:10:                                     ; preds = %1, %23
  %11 = alloca %"class.std::queue"*, align 8
  store %"class.std::queue"* %0, %"class.std::queue"** %11, align 8
  %12 = load %"class.std::queue"*, %"class.std::queue"** %11, align 8
  %13 = getelementptr inbounds %"class.std::queue", %"class.std::queue"* %12, i32 0, i32 0
  call void @_ZNSt5dequeISt4pairIiiESaIS1_EED2Ev(%"class.std::deque"* %13) #3
  %14 = load i32, i32* @x.67
  %15 = load i32, i32* @y.68
  %16 = sub i32 %14, 1
  %17 = mul i32 %14, %16
  %18 = urem i32 %17, 2
  %19 = icmp eq i32 %18, 0
  %20 = icmp slt i32 %15, 10
  %21 = or i1 %19, %20
  br i1 %21, label %22, label %23

; <label>:22:                                     ; preds = %10
  ret void

; <label>:23:                                     ; preds = %10, %1
  %24 = alloca %"class.std::queue"*, align 8
  store %"class.std::queue"* %0, %"class.std::queue"** %24, align 8
  %25 = load %"class.std::queue"*, %"class.std::queue"** %24, align 8
  %26 = getelementptr inbounds %"class.std::queue", %"class.std::queue"* %25, i32 0, i32 0
  call void @_ZNSt5dequeISt4pairIiiESaIS1_EED2Ev(%"class.std::deque"* %26) #3
  br label %10
}

; Function Attrs: noinline uwtable
define i64 @_Z12modfactorialx(i64) #0 {
  %2 = load i32, i32* @x.69
  %3 = load i32, i32* @y.70
  %4 = sub i32 %2, 1
  %5 = mul i32 %2, %4
  %6 = urem i32 %5, 2
  %7 = icmp eq i32 %6, 0
  %8 = icmp slt i32 %3, 10
  %9 = or i1 %7, %8
  br i1 %9, label %10, label %71

; <label>:10:                                     ; preds = %1, %71
  %11 = alloca i64, align 8
  %12 = alloca i64, align 8
  store i64 %0, i64* %12, align 8
  %13 = load i64, i64* %12, align 8
  %14 = icmp eq i64 %13, 1
  %15 = load i32, i32* @x.69
  %16 = load i32, i32* @y.70
  %17 = sub i32 %15, 1
  %18 = mul i32 %15, %17
  %19 = urem i32 %18, 2
  %20 = icmp eq i32 %19, 0
  %21 = icmp slt i32 %16, 10
  %22 = or i1 %20, %21
  br i1 %22, label %23, label %71

; <label>:23:                                     ; preds = %10
  br i1 %14, label %24, label %43

; <label>:24:                                     ; preds = %23
  %25 = load i32, i32* @x.69
  %26 = load i32, i32* @y.70
  %27 = sub i32 %25, 1
  %28 = mul i32 %25, %27
  %29 = urem i32 %28, 2
  %30 = icmp eq i32 %29, 0
  %31 = icmp slt i32 %26, 10
  %32 = or i1 %30, %31
  br i1 %32, label %33, label %76

; <label>:33:                                     ; preds = %24, %76
  store i64 1, i64* %11, align 8
  %34 = load i32, i32* @x.69
  %35 = load i32, i32* @y.70
  %36 = sub i32 %34, 1
  %37 = mul i32 %34, %36
  %38 = urem i32 %37, 2
  %39 = icmp eq i32 %38, 0
  %40 = icmp slt i32 %35, 10
  %41 = or i1 %39, %40
  br i1 %41, label %42, label %76

; <label>:42:                                     ; preds = %33
  br label %69

; <label>:43:                                     ; preds = %23
  %44 = load i32, i32* @x.69
  %45 = load i32, i32* @y.70
  %46 = sub i32 %44, 1
  %47 = mul i32 %44, %46
  %48 = urem i32 %47, 2
  %49 = icmp eq i32 %48, 0
  %50 = icmp slt i32 %45, 10
  %51 = or i1 %49, %50
  br i1 %51, label %52, label %77

; <label>:52:                                     ; preds = %43, %77
  %53 = load i64, i64* %12, align 8
  %54 = srem i64 %53, 1000000007
  %55 = load i64, i64* %12, align 8
  %56 = sub nsw i64 %55, 1
  %57 = call i64 @_Z12modfactorialx(i64 %56)
  %58 = srem i64 %57, 1000000007
  %59 = mul nsw i64 %54, %58
  store i64 %59, i64* %11, align 8
  %60 = load i32, i32* @x.69
  %61 = load i32, i32* @y.70
  %62 = sub i32 %60, 1
  %63 = mul i32 %60, %62
  %64 = urem i32 %63, 2
  %65 = icmp eq i32 %64, 0
  %66 = icmp slt i32 %61, 10
  %67 = or i1 %65, %66
  br i1 %67, label %68, label %77

; <label>:68:                                     ; preds = %52
  br label %69

; <label>:69:                                     ; preds = %68, %42
  %70 = load i64, i64* %11, align 8
  ret i64 %70

; <label>:71:                                     ; preds = %10, %1
  %72 = alloca i64, align 8
  %73 = alloca i64, align 8
  store i64 %0, i64* %73, align 8
  %74 = load i64, i64* %73, align 8
  %75 = icmp eq i64 %74, 1
  br label %10

; <label>:76:                                     ; preds = %33, %24
  store i64 1, i64* %11, align 8
  br label %33

; <label>:77:                                     ; preds = %52, %43
  %78 = load i64, i64* %12, align 8
  %79 = sub i64 %78, 1000000007
  %80 = mul i64 %79, 1000000007
  %81 = sub i64 0, %78
  %82 = add i64 %81, 1000000007
  %83 = srem i64 %78, 1000000007
  %84 = load i64, i64* %12, align 8
  %85 = shl i64 %84, 1
  %86 = sub i64 %84, 1
  %87 = mul i64 %86, 1
  %88 = sub i64 %84, 1
  %89 = mul i64 %88, 1
  %90 = shl i64 %84, 1
  %91 = sub i64 0, %84
  %92 = add i64 %91, 1
  %93 = sub nsw i64 %84, 1
  %94 = call i64 @_Z12modfactorialx(i64 %93)
  %95 = shl i64 %94, 1000000007
  %96 = srem i64 %94, 1000000007
  %97 = sub i64 0, %83
  %98 = add i64 %97, %96
  %99 = sub i64 0, %83
  %100 = add i64 %99, %96
  %101 = sub i64 0, %83
  %102 = add i64 %101, %96
  %103 = sub i64 0, %83
  %104 = add i64 %103, %96
  %105 = mul nsw i64 %83, %96
  store i64 %105, i64* %11, align 8
  br label %52
}

; Function Attrs: noinline uwtable
define i64 @_Z3gcdxx(i64, i64) #0 {
  %3 = load i32, i32* @x.71
  %4 = load i32, i32* @y.72
  %5 = sub i32 %3, 1
  %6 = mul i32 %3, %5
  %7 = urem i32 %6, 2
  %8 = icmp eq i32 %7, 0
  %9 = icmp slt i32 %4, 10
  %10 = or i1 %8, %9
  br i1 %10, label %11, label %74

; <label>:11:                                     ; preds = %2, %74
  %12 = alloca i64, align 8
  %13 = alloca i64, align 8
  %14 = alloca i64, align 8
  store i64 %0, i64* %13, align 8
  store i64 %1, i64* %14, align 8
  %15 = load i64, i64* %13, align 8
  %16 = load i64, i64* %14, align 8
  %17 = srem i64 %15, %16
  %18 = icmp eq i64 %17, 0
  %19 = load i32, i32* @x.71
  %20 = load i32, i32* @y.72
  %21 = sub i32 %19, 1
  %22 = mul i32 %19, %21
  %23 = urem i32 %22, 2
  %24 = icmp eq i32 %23, 0
  %25 = icmp slt i32 %20, 10
  %26 = or i1 %24, %25
  br i1 %26, label %27, label %74

; <label>:27:                                     ; preds = %11
  br i1 %18, label %28, label %48

; <label>:28:                                     ; preds = %27
  %29 = load i32, i32* @x.71
  %30 = load i32, i32* @y.72
  %31 = sub i32 %29, 1
  %32 = mul i32 %29, %31
  %33 = urem i32 %32, 2
  %34 = icmp eq i32 %33, 0
  %35 = icmp slt i32 %30, 10
  %36 = or i1 %34, %35
  br i1 %36, label %37, label %92

; <label>:37:                                     ; preds = %28, %92
  %38 = load i64, i64* %14, align 8
  store i64 %38, i64* %12, align 8
  %39 = load i32, i32* @x.71
  %40 = load i32, i32* @y.72
  %41 = sub i32 %39, 1
  %42 = mul i32 %39, %41
  %43 = urem i32 %42, 2
  %44 = icmp eq i32 %43, 0
  %45 = icmp slt i32 %40, 10
  %46 = or i1 %44, %45
  br i1 %46, label %47, label %92

; <label>:47:                                     ; preds = %37
  br label %54

; <label>:48:                                     ; preds = %27
  %49 = load i64, i64* %14, align 8
  %50 = load i64, i64* %13, align 8
  %51 = load i64, i64* %14, align 8
  %52 = srem i64 %50, %51
  %53 = call i64 @_Z3gcdxx(i64 %49, i64 %52)
  store i64 %53, i64* %12, align 8
  br label %54

; <label>:54:                                     ; preds = %48, %47
  %55 = load i32, i32* @x.71
  %56 = load i32, i32* @y.72
  %57 = sub i32 %55, 1
  %58 = mul i32 %55, %57
  %59 = urem i32 %58, 2
  %60 = icmp eq i32 %59, 0
  %61 = icmp slt i32 %56, 10
  %62 = or i1 %60, %61
  br i1 %62, label %63, label %94

; <label>:63:                                     ; preds = %54, %94
  %64 = load i64, i64* %12, align 8
  %65 = load i32, i32* @x.71
  %66 = load i32, i32* @y.72
  %67 = sub i32 %65, 1
  %68 = mul i32 %65, %67
  %69 = urem i32 %68, 2
  %70 = icmp eq i32 %69, 0
  %71 = icmp slt i32 %66, 10
  %72 = or i1 %70, %71
  br i1 %72, label %73, label %94

; <label>:73:                                     ; preds = %63
  ret i64 %64

; <label>:74:                                     ; preds = %11, %2
  %75 = alloca i64, align 8
  %76 = alloca i64, align 8
  %77 = alloca i64, align 8
  store i64 %0, i64* %76, align 8
  store i64 %1, i64* %77, align 8
  %78 = load i64, i64* %76, align 8
  %79 = load i64, i64* %77, align 8
  %80 = shl i64 %78, %79
  %81 = sub i64 0, %78
  %82 = add i64 %81, %79
  %83 = shl i64 %78, %79
  %84 = sub i64 %78, %79
  %85 = mul i64 %84, %79
  %86 = sub i64 %78, %79
  %87 = mul i64 %86, %79
  %88 = sub i64 %78, %79
  %89 = mul i64 %88, %79
  %90 = srem i64 %78, %79
  %91 = icmp eq i64 %90, 0
  br label %11

; <label>:92:                                     ; preds = %37, %28
  %93 = load i64, i64* %14, align 8
  store i64 %93, i64* %12, align 8
  br label %37

; <label>:94:                                     ; preds = %63, %54
  %95 = load i64, i64* %12, align 8
  br label %63
}

; Function Attrs: noinline uwtable
define i64 @_Z3lcmxx(i64, i64) #0 {
  %3 = alloca i64, align 8
  %4 = alloca i64, align 8
  store i64 %0, i64* %3, align 8
  store i64 %1, i64* %4, align 8
  %5 = load i64, i64* %3, align 8
  %6 = load i64, i64* %3, align 8
  %7 = load i64, i64* %4, align 8
  %8 = call i64 @_Z3gcdxx(i64 %6, i64 %7)
  %9 = sdiv i64 %5, %8
  %10 = load i64, i64* %4, align 8
  %11 = mul nsw i64 %9, %10
  ret i64 %11
}

; Function Attrs: noinline uwtable
define void @_Z12prime_factorx(%"class.std::map"* noalias sret, i64) #0 personality i8* bitcast (i32 (...)* @__gxx_personality_v0 to i8*) {
  %3 = alloca i64, align 8
  %4 = alloca i1, align 1
  %5 = alloca i64, align 8
  %6 = alloca i8*
  %7 = alloca i32
  store i64 %1, i64* %3, align 8
  store i1 false, i1* %4, align 1
  call void @_ZNSt3mapIxxSt4lessIxESaISt4pairIKxxEEEC2Ev(%"class.std::map"* %0) #3
  store i64 2, i64* %5, align 8
  br label %8

; <label>:8:                                      ; preds = %51, %2
  %9 = load i64, i64* %5, align 8
  %10 = load i64, i64* %5, align 8
  %11 = mul nsw i64 %9, %10
  %12 = load i64, i64* %3, align 8
  %13 = icmp sle i64 %11, %12
  br i1 %13, label %14, label %54

; <label>:14:                                     ; preds = %8
  br label %15

; <label>:15:                                     ; preds = %45, %14
  %16 = load i64, i64* %3, align 8
  %17 = load i64, i64* %5, align 8
  %18 = srem i64 %16, %17
  %19 = icmp eq i64 %18, 0
  br i1 %19, label %20, label %50

; <label>:20:                                     ; preds = %15
  %21 = invoke dereferenceable(8) i64* @_ZNSt3mapIxxSt4lessIxESaISt4pairIKxxEEEixERS3_(%"class.std::map"* %0, i64* dereferenceable(8) %5)
          to label %22 unwind label %46

; <label>:22:                                     ; preds = %20
  %23 = load i32, i32* @x.75
  %24 = load i32, i32* @y.76
  %25 = sub i32 %23, 1
  %26 = mul i32 %23, %25
  %27 = urem i32 %26, 2
  %28 = icmp eq i32 %27, 0
  %29 = icmp slt i32 %24, 10
  %30 = or i1 %28, %29
  br i1 %30, label %31, label %123

; <label>:31:                                     ; preds = %22, %123
  %32 = load i64, i64* %21, align 8
  %33 = add nsw i64 %32, 1
  store i64 %33, i64* %21, align 8
  %34 = load i64, i64* %5, align 8
  %35 = load i64, i64* %3, align 8
  %36 = sdiv i64 %35, %34
  store i64 %36, i64* %3, align 8
  %37 = load i32, i32* @x.75
  %38 = load i32, i32* @y.76
  %39 = sub i32 %37, 1
  %40 = mul i32 %37, %39
  %41 = urem i32 %40, 2
  %42 = icmp eq i32 %41, 0
  %43 = icmp slt i32 %38, 10
  %44 = or i1 %42, %43
  br i1 %44, label %45, label %123

; <label>:45:                                     ; preds = %31
  br label %15

; <label>:46:                                     ; preds = %75, %20
  %47 = landingpad { i8*, i32 }
          cleanup
  %48 = extractvalue { i8*, i32 } %47, 0
  store i8* %48, i8** %6, align 8
  %49 = extractvalue { i8*, i32 } %47, 1
  store i32 %49, i32* %7, align 4
  call void @_ZNSt3mapIxxSt4lessIxESaISt4pairIKxxEEED2Ev(%"class.std::map"* %0) #3
  br label %118

; <label>:50:                                     ; preds = %15
  br label %51

; <label>:51:                                     ; preds = %50
  %52 = load i64, i64* %5, align 8
  %53 = add nsw i64 %52, 1
  store i64 %53, i64* %5, align 8
  br label %8

; <label>:54:                                     ; preds = %8
  %55 = load i64, i64* %3, align 8
  %56 = icmp ne i64 %55, 1
  br i1 %56, label %57, label %78

; <label>:57:                                     ; preds = %54
  %58 = load i32, i32* @x.75
  %59 = load i32, i32* @y.76
  %60 = sub i32 %58, 1
  %61 = mul i32 %58, %60
  %62 = urem i32 %61, 2
  %63 = icmp eq i32 %62, 0
  %64 = icmp slt i32 %59, 10
  %65 = or i1 %63, %64
  br i1 %65, label %66, label %145

; <label>:66:                                     ; preds = %57, %145
  %67 = load i32, i32* @x.75
  %68 = load i32, i32* @y.76
  %69 = sub i32 %67, 1
  %70 = mul i32 %67, %69
  %71 = urem i32 %70, 2
  %72 = icmp eq i32 %71, 0
  %73 = icmp slt i32 %68, 10
  %74 = or i1 %72, %73
  br i1 %74, label %75, label %145

; <label>:75:                                     ; preds = %66
  %76 = invoke dereferenceable(8) i64* @_ZNSt3mapIxxSt4lessIxESaISt4pairIKxxEEEixERS3_(%"class.std::map"* %0, i64* dereferenceable(8) %3)
          to label %77 unwind label %46

; <label>:77:                                     ; preds = %75
  store i64 1, i64* %76, align 8
  br label %78

; <label>:78:                                     ; preds = %77, %54
  store i1 true, i1* %4, align 1
  %79 = load i1, i1* %4, align 1
  br i1 %79, label %99, label %80

; <label>:80:                                     ; preds = %78
  %81 = load i32, i32* @x.75
  %82 = load i32, i32* @y.76
  %83 = sub i32 %81, 1
  %84 = mul i32 %81, %83
  %85 = urem i32 %84, 2
  %86 = icmp eq i32 %85, 0
  %87 = icmp slt i32 %82, 10
  %88 = or i1 %86, %87
  br i1 %88, label %89, label %146

; <label>:89:                                     ; preds = %80, %146
  call void @_ZNSt3mapIxxSt4lessIxESaISt4pairIKxxEEED2Ev(%"class.std::map"* %0) #3
  %90 = load i32, i32* @x.75
  %91 = load i32, i32* @y.76
  %92 = sub i32 %90, 1
  %93 = mul i32 %90, %92
  %94 = urem i32 %93, 2
  %95 = icmp eq i32 %94, 0
  %96 = icmp slt i32 %91, 10
  %97 = or i1 %95, %96
  br i1 %97, label %98, label %146

; <label>:98:                                     ; preds = %89
  br label %99

; <label>:99:                                     ; preds = %98, %78
  %100 = load i32, i32* @x.75
  %101 = load i32, i32* @y.76
  %102 = sub i32 %100, 1
  %103 = mul i32 %100, %102
  %104 = urem i32 %103, 2
  %105 = icmp eq i32 %104, 0
  %106 = icmp slt i32 %101, 10
  %107 = or i1 %105, %106
  br i1 %107, label %108, label %147

; <label>:108:                                    ; preds = %99, %147
  %109 = load i32, i32* @x.75
  %110 = load i32, i32* @y.76
  %111 = sub i32 %109, 1
  %112 = mul i32 %109, %111
  %113 = urem i32 %112, 2
  %114 = icmp eq i32 %113, 0
  %115 = icmp slt i32 %110, 10
  %116 = or i1 %114, %115
  br i1 %116, label %117, label %147

; <label>:117:                                    ; preds = %108
  ret void

; <label>:118:                                    ; preds = %46
  %119 = load i8*, i8** %6, align 8
  %120 = load i32, i32* %7, align 4
  %121 = insertvalue { i8*, i32 } undef, i8* %119, 0
  %122 = insertvalue { i8*, i32 } %121, i32 %120, 1
  resume { i8*, i32 } %122

; <label>:123:                                    ; preds = %31, %22
  %124 = load i64, i64* %21, align 8
  %125 = sub i64 %124, 1
  %126 = mul i64 %125, 1
  %127 = sub i64 %124, 1
  %128 = mul i64 %127, 1
  %129 = sub i64 0, %124
  %130 = add i64 %129, 1
  %131 = sub i64 %124, 1
  %132 = mul i64 %131, 1
  %133 = shl i64 %124, 1
  %134 = add nsw i64 %124, 1
  store i64 %134, i64* %21, align 8
  %135 = load i64, i64* %5, align 8
  %136 = load i64, i64* %3, align 8
  %137 = sub i64 %136, %135
  %138 = mul i64 %137, %135
  %139 = sub i64 0, %136
  %140 = add i64 %139, %135
  %141 = sub i64 %136, %135
  %142 = mul i64 %141, %135
  %143 = shl i64 %136, %135
  %144 = sdiv i64 %136, %135
  store i64 %144, i64* %3, align 8
  br label %31

; <label>:145:                                    ; preds = %66, %57
  br label %66

; <label>:146:                                    ; preds = %89, %80
  call void @_ZNSt3mapIxxSt4lessIxESaISt4pairIKxxEEED2Ev(%"class.std::map"* %0) #3
  br label %89

; <label>:147:                                    ; preds = %108, %99
  br label %108
}

; Function Attrs: noinline nounwind uwtable
define linkonce_odr void @_ZNSt3mapIxxSt4lessIxESaISt4pairIKxxEEEC2Ev(%"class.std::map"*) unnamed_addr #4 comdat align 2 personality i8* bitcast (i32 (...)* @__gxx_personality_v0 to i8*) {
  %2 = alloca %"class.std::map"*, align 8
  store %"class.std::map"* %0, %"class.std::map"** %2, align 8
  %3 = load %"class.std::map"*, %"class.std::map"** %2, align 8
  %4 = getelementptr inbounds %"class.std::map", %"class.std::map"* %3, i32 0, i32 0
  invoke void @_ZNSt8_Rb_treeIxSt4pairIKxxESt10_Select1stIS2_ESt4lessIxESaIS2_EEC2Ev(%"class.std::_Rb_tree"* %4)
          to label %5 unwind label %6

; <label>:5:                                      ; preds = %1
  ret void

; <label>:6:                                      ; preds = %1
  %7 = landingpad { i8*, i32 }
          catch i8* null
  %8 = extractvalue { i8*, i32 } %7, 0
  call void @__clang_call_terminate(i8* %8) #12
  unreachable
}

; Function Attrs: noinline uwtable
define linkonce_odr dereferenceable(8) i64* @_ZNSt3mapIxxSt4lessIxESaISt4pairIKxxEEEixERS3_(%"class.std::map"*, i64* dereferenceable(8)) #0 comdat align 2 {
  %3 = alloca %"class.std::map"*, align 8
  %4 = alloca i64*, align 8
  %5 = alloca %"struct.std::_Rb_tree_iterator", align 8
  %6 = alloca %"struct.std::_Rb_tree_iterator", align 8
  %7 = alloca %"struct.std::less", align 1
  %8 = alloca %"struct.std::_Rb_tree_iterator", align 8
  %9 = alloca %"struct.std::_Rb_tree_const_iterator", align 8
  %10 = alloca %"class.std::tuple", align 8
  %11 = alloca %"class.std::tuple.50", align 1
  store %"class.std::map"* %0, %"class.std::map"** %3, align 8
  store i64* %1, i64** %4, align 8
  %12 = load %"class.std::map"*, %"class.std::map"** %3, align 8
  %13 = load i64*, i64** %4, align 8
  %14 = call %"struct.std::_Rb_tree_node_base"* @_ZNSt3mapIxxSt4lessIxESaISt4pairIKxxEEE11lower_boundERS3_(%"class.std::map"* %12, i64* dereferenceable(8) %13)
  %15 = getelementptr inbounds %"struct.std::_Rb_tree_iterator", %"struct.std::_Rb_tree_iterator"* %5, i32 0, i32 0
  store %"struct.std::_Rb_tree_node_base"* %14, %"struct.std::_Rb_tree_node_base"** %15, align 8
  %16 = call %"struct.std::_Rb_tree_node_base"* @_ZNSt3mapIxxSt4lessIxESaISt4pairIKxxEEE3endEv(%"class.std::map"* %12) #3
  %17 = getelementptr inbounds %"struct.std::_Rb_tree_iterator", %"struct.std::_Rb_tree_iterator"* %6, i32 0, i32 0
  store %"struct.std::_Rb_tree_node_base"* %16, %"struct.std::_Rb_tree_node_base"** %17, align 8
  %18 = call zeroext i1 @_ZNKSt17_Rb_tree_iteratorISt4pairIKxxEEeqERKS3_(%"struct.std::_Rb_tree_iterator"* %5, %"struct.std::_Rb_tree_iterator"* dereferenceable(8) %6) #3
  br i1 %18, label %24, label %19

; <label>:19:                                     ; preds = %2
  call void @_ZNKSt3mapIxxSt4lessIxESaISt4pairIKxxEEE8key_compEv(%"class.std::map"* %12)
  %20 = load i64*, i64** %4, align 8
  %21 = call dereferenceable(16) %"struct.std::pair.44"* @_ZNKSt17_Rb_tree_iteratorISt4pairIKxxEEdeEv(%"struct.std::_Rb_tree_iterator"* %5) #3
  %22 = getelementptr inbounds %"struct.std::pair.44", %"struct.std::pair.44"* %21, i32 0, i32 0
  %23 = call zeroext i1 @_ZNKSt4lessIxEclERKxS2_(%"struct.std::less"* %7, i64* dereferenceable(8) %20, i64* dereferenceable(8) %22)
  br label %24

; <label>:24:                                     ; preds = %19, %2
  %25 = phi i1 [ true, %2 ], [ %23, %19 ]
  br i1 %25, label %26, label %53

; <label>:26:                                     ; preds = %24
  %27 = load i32, i32* @x.79
  %28 = load i32, i32* @y.80
  %29 = sub i32 %27, 1
  %30 = mul i32 %27, %29
  %31 = urem i32 %30, 2
  %32 = icmp eq i32 %31, 0
  %33 = icmp slt i32 %28, 10
  %34 = or i1 %32, %33
  br i1 %34, label %35, label %56

; <label>:35:                                     ; preds = %26, %56
  %36 = getelementptr inbounds %"class.std::map", %"class.std::map"* %12, i32 0, i32 0
  call void @_ZNSt23_Rb_tree_const_iteratorISt4pairIKxxEEC2ERKSt17_Rb_tree_iteratorIS2_E(%"struct.std::_Rb_tree_const_iterator"* %9, %"struct.std::_Rb_tree_iterator"* dereferenceable(8) %5) #3
  %37 = load i64*, i64** %4, align 8
  call void @_ZNSt5tupleIJRKxEEC2ES1_(%"class.std::tuple"* %10, i64* dereferenceable(8) %37)
  %38 = getelementptr inbounds %"struct.std::_Rb_tree_const_iterator", %"struct.std::_Rb_tree_const_iterator"* %9, i32 0, i32 0
  %39 = load %"struct.std::_Rb_tree_node_base"*, %"struct.std::_Rb_tree_node_base"** %38, align 8
  %40 = call %"struct.std::_Rb_tree_node_base"* @_ZNSt8_Rb_treeIxSt4pairIKxxESt10_Select1stIS2_ESt4lessIxESaIS2_EE22_M_emplace_hint_uniqueIJRKSt21piecewise_construct_tSt5tupleIJRS1_EESD_IJEEEEESt17_Rb_tree_iteratorIS2_ESt23_Rb_tree_const_iteratorIS2_EDpOT_(%"class.std::_Rb_tree"* %36, %"struct.std::_Rb_tree_node_base"* %39, %"struct.std::piecewise_construct_t"* dereferenceable(1) @_ZStL19piecewise_construct, %"class.std::tuple"* dereferenceable(8) %10, %"class.std::tuple.50"* dereferenceable(1) %11)
  %41 = getelementptr inbounds %"struct.std::_Rb_tree_iterator", %"struct.std::_Rb_tree_iterator"* %8, i32 0, i32 0
  store %"struct.std::_Rb_tree_node_base"* %40, %"struct.std::_Rb_tree_node_base"** %41, align 8
  %42 = bitcast %"struct.std::_Rb_tree_iterator"* %5 to i8*
  %43 = bitcast %"struct.std::_Rb_tree_iterator"* %8 to i8*
  call void @llvm.memcpy.p0i8.p0i8.i64(i8* %42, i8* %43, i64 8, i32 8, i1 false)
  %44 = load i32, i32* @x.79
  %45 = load i32, i32* @y.80
  %46 = sub i32 %44, 1
  %47 = mul i32 %44, %46
  %48 = urem i32 %47, 2
  %49 = icmp eq i32 %48, 0
  %50 = icmp slt i32 %45, 10
  %51 = or i1 %49, %50
  br i1 %51, label %52, label %56

; <label>:52:                                     ; preds = %35
  br label %53

; <label>:53:                                     ; preds = %52, %24
  %54 = call dereferenceable(16) %"struct.std::pair.44"* @_ZNKSt17_Rb_tree_iteratorISt4pairIKxxEEdeEv(%"struct.std::_Rb_tree_iterator"* %5) #3
  %55 = getelementptr inbounds %"struct.std::pair.44", %"struct.std::pair.44"* %54, i32 0, i32 1
  ret i64* %55

; <label>:56:                                     ; preds = %35, %26
  %57 = getelementptr inbounds %"class.std::map", %"class.std::map"* %12, i32 0, i32 0
  call void @_ZNSt23_Rb_tree_const_iteratorISt4pairIKxxEEC2ERKSt17_Rb_tree_iteratorIS2_E(%"struct.std::_Rb_tree_const_iterator"* %9, %"struct.std::_Rb_tree_iterator"* dereferenceable(8) %5) #3
  %58 = load i64*, i64** %4, align 8
  call void @_ZNSt5tupleIJRKxEEC2ES1_(%"class.std::tuple"* %10, i64* dereferenceable(8) %58)
  %59 = getelementptr inbounds %"struct.std::_Rb_tree_const_iterator", %"struct.std::_Rb_tree_const_iterator"* %9, i32 0, i32 0
  %60 = load %"struct.std::_Rb_tree_node_base"*, %"struct.std::_Rb_tree_node_base"** %59, align 8
  %61 = call %"struct.std::_Rb_tree_node_base"* @_ZNSt8_Rb_treeIxSt4pairIKxxESt10_Select1stIS2_ESt4lessIxESaIS2_EE22_M_emplace_hint_uniqueIJRKSt21piecewise_construct_tSt5tupleIJRS1_EESD_IJEEEEESt17_Rb_tree_iteratorIS2_ESt23_Rb_tree_const_iteratorIS2_EDpOT_(%"class.std::_Rb_tree"* %57, %"struct.std::_Rb_tree_node_base"* %60, %"struct.std::piecewise_construct_t"* dereferenceable(1) @_ZStL19piecewise_construct, %"class.std::tuple"* dereferenceable(8) %10, %"class.std::tuple.50"* dereferenceable(1) %11)
  %62 = getelementptr inbounds %"struct.std::_Rb_tree_iterator", %"struct.std::_Rb_tree_iterator"* %8, i32 0, i32 0
  store %"struct.std::_Rb_tree_node_base"* %61, %"struct.std::_Rb_tree_node_base"** %62, align 8
  %63 = bitcast %"struct.std::_Rb_tree_iterator"* %5 to i8*
  %64 = bitcast %"struct.std::_Rb_tree_iterator"* %8 to i8*
  call void @llvm.memcpy.p0i8.p0i8.i64(i8* %63, i8* %64, i64 8, i32 8, i1 false)
  br label %35
}

; Function Attrs: noinline nounwind uwtable
define linkonce_odr void @_ZNSt3mapIxxSt4lessIxESaISt4pairIKxxEEED2Ev(%"class.std::map"*) unnamed_addr #4 comdat align 2 {
  %2 = load i32, i32* @x.81
  %3 = load i32, i32* @y.82
  %4 = sub i32 %2, 1
  %5 = mul i32 %2, %4
  %6 = urem i32 %5, 2
  %7 = icmp eq i32 %6, 0
  %8 = icmp slt i32 %3, 10
  %9 = or i1 %7, %8
  br i1 %9, label %10, label %23

; <label>:10:                                     ; preds = %1, %23
  %11 = alloca %"class.std::map"*, align 8
  store %"class.std::map"* %0, %"class.std::map"** %11, align 8
  %12 = load %"class.std::map"*, %"class.std::map"** %11, align 8
  %13 = getelementptr inbounds %"class.std::map", %"class.std::map"* %12, i32 0, i32 0
  call void @_ZNSt8_Rb_treeIxSt4pairIKxxESt10_Select1stIS2_ESt4lessIxESaIS2_EED2Ev(%"class.std::_Rb_tree"* %13) #3
  %14 = load i32, i32* @x.81
  %15 = load i32, i32* @y.82
  %16 = sub i32 %14, 1
  %17 = mul i32 %14, %16
  %18 = urem i32 %17, 2
  %19 = icmp eq i32 %18, 0
  %20 = icmp slt i32 %15, 10
  %21 = or i1 %19, %20
  br i1 %21, label %22, label %23

; <label>:22:                                     ; preds = %10
  ret void

; <label>:23:                                     ; preds = %10, %1
  %24 = alloca %"class.std::map"*, align 8
  store %"class.std::map"* %0, %"class.std::map"** %24, align 8
  %25 = load %"class.std::map"*, %"class.std::map"** %24, align 8
  %26 = getelementptr inbounds %"class.std::map", %"class.std::map"* %25, i32 0, i32 0
  call void @_ZNSt8_Rb_treeIxSt4pairIKxxESt10_Select1stIS2_ESt4lessIxESaIS2_EED2Ev(%"class.std::_Rb_tree"* %26) #3
  br label %10
}

; Function Attrs: noinline uwtable
define void @_Z8dijkstraRKSt6vectorIS_I4EdgeSaIS0_EESaIS2_EEiRS_IxSaIxEES9_(%"class.std::vector.21"* dereferenceable(24), i32, %"class.std::vector.0"* dereferenceable(24), %"class.std::vector.0"* dereferenceable(24)) #0 personality i8* bitcast (i32 (...)* @__gxx_personality_v0 to i8*) {
  %5 = alloca %"class.std::vector.21"*, align 8
  %6 = alloca i32, align 4
  %7 = alloca %"class.std::vector.0"*, align 8
  %8 = alloca %"class.std::vector.0"*, align 8
  %9 = alloca i32, align 4
  %10 = alloca i64, align 8
  %11 = alloca %"class.std::priority_queue", align 8
  %12 = alloca %"struct.std::greater", align 1
  %13 = alloca %"class.std::vector.31", align 8
  %14 = alloca i8*
  %15 = alloca i32
  %16 = alloca %"struct.std::pair.36", align 8
  %17 = alloca i32, align 4
  %18 = alloca %"class.std::vector.26"*, align 8
  %19 = alloca %"class.__gnu_cxx::__normal_iterator", align 8
  %20 = alloca %"class.__gnu_cxx::__normal_iterator", align 8
  %21 = alloca %struct.Edge*, align 8
  store %"class.std::vector.21"* %0, %"class.std::vector.21"** %5, align 8
  store i32 %1, i32* %6, align 4
  store %"class.std::vector.0"* %2, %"class.std::vector.0"** %7, align 8
  store %"class.std::vector.0"* %3, %"class.std::vector.0"** %8, align 8
  %22 = load %"class.std::vector.21"*, %"class.std::vector.21"** %5, align 8
  %23 = call i64 @_ZNKSt6vectorIS_I4EdgeSaIS0_EESaIS2_EE4sizeEv(%"class.std::vector.21"* %22) #3
  %24 = trunc i64 %23 to i32
  store i32 %24, i32* %9, align 4
  %25 = load %"class.std::vector.0"*, %"class.std::vector.0"** %7, align 8
  %26 = load i32, i32* %9, align 4
  %27 = sext i32 %26 to i64
  call void @_ZNSt6vectorIxSaIxEE6resizeEmRKx(%"class.std::vector.0"* %25, i64 %27, i64* dereferenceable(8) @_ZL3INF)
  %28 = load %"class.std::vector.0"*, %"class.std::vector.0"** %8, align 8
  %29 = load i32, i32* %9, align 4
  %30 = sext i32 %29 to i64
  store i64 -1, i64* %10, align 8
  call void @_ZNSt6vectorIxSaIxEE6resizeEmRKx(%"class.std::vector.0"* %28, i64 %30, i64* dereferenceable(8) %10)
  call void @_ZNSt6vectorISt4pairIxxESaIS1_EEC2Ev(%"class.std::vector.31"* %13) #3
  invoke void @_ZNSt14priority_queueISt4pairIxxESt6vectorIS1_SaIS1_EESt7greaterIS1_EEC2ERKS6_OS4_(%"class.std::priority_queue"* %11, %"struct.std::greater"* dereferenceable(1) %12, %"class.std::vector.31"* dereferenceable(24) %13)
          to label %31 unwind label %99

; <label>:31:                                     ; preds = %4
  call void @_ZNSt6vectorISt4pairIxxESaIS1_EED2Ev(%"class.std::vector.31"* %13) #3
  %32 = load %"class.std::vector.0"*, %"class.std::vector.0"** %7, align 8
  %33 = load i32, i32* %6, align 4
  %34 = sext i32 %33 to i64
  %35 = call dereferenceable(8) i64* @_ZNSt6vectorIxSaIxEEixEm(%"class.std::vector.0"* %32, i64 %34) #3
  store i64 0, i64* %35, align 8
  %36 = load %"class.std::vector.0"*, %"class.std::vector.0"** %7, align 8
  %37 = load i32, i32* %6, align 4
  %38 = sext i32 %37 to i64
  %39 = call dereferenceable(8) i64* @_ZNSt6vectorIxSaIxEEixEm(%"class.std::vector.0"* %36, i64 %38) #3
  invoke void @_ZNSt14priority_queueISt4pairIxxESt6vectorIS1_SaIS1_EESt7greaterIS1_EE7emplaceIJRxRiEEEvDpOT_(%"class.std::priority_queue"* %11, i64* dereferenceable(8) %39, i32* dereferenceable(4) %6)
          to label %40 unwind label %103

; <label>:40:                                     ; preds = %31
  br label %41

; <label>:41:                                     ; preds = %261, %98, %40
  %42 = invoke zeroext i1 @_ZNKSt14priority_queueISt4pairIxxESt6vectorIS1_SaIS1_EESt7greaterIS1_EE5emptyEv(%"class.std::priority_queue"* %11)
          to label %43 unwind label %103

; <label>:43:                                     ; preds = %41
  %44 = load i32, i32* @x.83
  %45 = load i32, i32* @y.84
  %46 = sub i32 %44, 1
  %47 = mul i32 %44, %46
  %48 = urem i32 %47, 2
  %49 = icmp eq i32 %48, 0
  %50 = icmp slt i32 %45, 10
  %51 = or i1 %49, %50
  br i1 %51, label %52, label %286

; <label>:52:                                     ; preds = %43, %286
  %53 = xor i1 %42, true
  %54 = load i32, i32* @x.83
  %55 = load i32, i32* @y.84
  %56 = sub i32 %54, 1
  %57 = mul i32 %54, %56
  %58 = urem i32 %57, 2
  %59 = icmp eq i32 %58, 0
  %60 = icmp slt i32 %55, 10
  %61 = or i1 %59, %60
  br i1 %61, label %62, label %286

; <label>:62:                                     ; preds = %52
  br i1 %53, label %63, label %262

; <label>:63:                                     ; preds = %62
  %64 = invoke dereferenceable(16) %"struct.std::pair.36"* @_ZNKSt14priority_queueISt4pairIxxESt6vectorIS1_SaIS1_EESt7greaterIS1_EE3topEv(%"class.std::priority_queue"* %11)
          to label %65 unwind label %103

; <label>:65:                                     ; preds = %63
  %66 = bitcast %"struct.std::pair.36"* %16 to i8*
  %67 = bitcast %"struct.std::pair.36"* %64 to i8*
  call void @llvm.memcpy.p0i8.p0i8.i64(i8* %66, i8* %67, i64 16, i32 8, i1 false)
  invoke void @_ZNSt14priority_queueISt4pairIxxESt6vectorIS1_SaIS1_EESt7greaterIS1_EE3popEv(%"class.std::priority_queue"* %11)
          to label %68 unwind label %103

; <label>:68:                                     ; preds = %65
  %69 = getelementptr inbounds %"struct.std::pair.36", %"struct.std::pair.36"* %16, i32 0, i32 1
  %70 = load i64, i64* %69, align 8
  %71 = trunc i64 %70 to i32
  store i32 %71, i32* %17, align 4
  %72 = load %"class.std::vector.0"*, %"class.std::vector.0"** %7, align 8
  %73 = load i32, i32* %17, align 4
  %74 = sext i32 %73 to i64
  %75 = call dereferenceable(8) i64* @_ZNSt6vectorIxSaIxEEixEm(%"class.std::vector.0"* %72, i64 %74) #3
  %76 = load i64, i64* %75, align 8
  %77 = getelementptr inbounds %"struct.std::pair.36", %"struct.std::pair.36"* %16, i32 0, i32 0
  %78 = load i64, i64* %77, align 8
  %79 = icmp slt i64 %76, %78
  br i1 %79, label %80, label %107

; <label>:80:                                     ; preds = %68
  %81 = load i32, i32* @x.83
  %82 = load i32, i32* @y.84
  %83 = sub i32 %81, 1
  %84 = mul i32 %81, %83
  %85 = urem i32 %84, 2
  %86 = icmp eq i32 %85, 0
  %87 = icmp slt i32 %82, 10
  %88 = or i1 %86, %87
  br i1 %88, label %89, label %302

; <label>:89:                                     ; preds = %80, %302
  %90 = load i32, i32* @x.83
  %91 = load i32, i32* @y.84
  %92 = sub i32 %90, 1
  %93 = mul i32 %90, %92
  %94 = urem i32 %93, 2
  %95 = icmp eq i32 %94, 0
  %96 = icmp slt i32 %91, 10
  %97 = or i1 %95, %96
  br i1 %97, label %98, label %302

; <label>:98:                                     ; preds = %89
  br label %41

; <label>:99:                                     ; preds = %4
  %100 = landingpad { i8*, i32 }
          cleanup
  %101 = extractvalue { i8*, i32 } %100, 0
  store i8* %101, i8** %14, align 8
  %102 = extractvalue { i8*, i32 } %100, 1
  store i32 %102, i32* %15, align 4
  call void @_ZNSt6vectorISt4pairIxxESaIS1_EED2Ev(%"class.std::vector.31"* %13) #3
  br label %281

; <label>:103:                                    ; preds = %156, %65, %63, %41, %31
  %104 = landingpad { i8*, i32 }
          cleanup
  %105 = extractvalue { i8*, i32 } %104, 0
  store i8* %105, i8** %14, align 8
  %106 = extractvalue { i8*, i32 } %104, 1
  store i32 %106, i32* %15, align 4
  call void @_ZNSt14priority_queueISt4pairIxxESt6vectorIS1_SaIS1_EESt7greaterIS1_EED2Ev(%"class.std::priority_queue"* %11) #3
  br label %281

; <label>:107:                                    ; preds = %68
  %108 = load %"class.std::vector.21"*, %"class.std::vector.21"** %5, align 8
  %109 = load i32, i32* %17, align 4
  %110 = sext i32 %109 to i64
  %111 = call dereferenceable(24) %"class.std::vector.26"* @_ZNKSt6vectorIS_I4EdgeSaIS0_EESaIS2_EEixEm(%"class.std::vector.21"* %108, i64 %110) #3
  store %"class.std::vector.26"* %111, %"class.std::vector.26"** %18, align 8
  %112 = load %"class.std::vector.26"*, %"class.std::vector.26"** %18, align 8
  %113 = call %struct.Edge* @_ZNKSt6vectorI4EdgeSaIS0_EE5beginEv(%"class.std::vector.26"* %112) #3
  %114 = getelementptr inbounds %"class.__gnu_cxx::__normal_iterator", %"class.__gnu_cxx::__normal_iterator"* %19, i32 0, i32 0
  store %struct.Edge* %113, %struct.Edge** %114, align 8
  %115 = load %"class.std::vector.26"*, %"class.std::vector.26"** %18, align 8
  %116 = call %struct.Edge* @_ZNKSt6vectorI4EdgeSaIS0_EE3endEv(%"class.std::vector.26"* %115) #3
  %117 = getelementptr inbounds %"class.__gnu_cxx::__normal_iterator", %"class.__gnu_cxx::__normal_iterator"* %20, i32 0, i32 0
  store %struct.Edge* %116, %struct.Edge** %117, align 8
  br label %118

; <label>:118:                                    ; preds = %242, %107
  %119 = call zeroext i1 @_ZN9__gnu_cxxneIPK4EdgeSt6vectorIS1_SaIS1_EEEEbRKNS_17__normal_iteratorIT_T0_EESC_(%"class.__gnu_cxx::__normal_iterator"* dereferenceable(8) %19, %"class.__gnu_cxx::__normal_iterator"* dereferenceable(8) %20) #3
  br i1 %119, label %120, label %243

; <label>:120:                                    ; preds = %118
  %121 = load i32, i32* @x.83
  %122 = load i32, i32* @y.84
  %123 = sub i32 %121, 1
  %124 = mul i32 %121, %123
  %125 = urem i32 %124, 2
  %126 = icmp eq i32 %125, 0
  %127 = icmp slt i32 %122, 10
  %128 = or i1 %126, %127
  br i1 %128, label %129, label %303

; <label>:129:                                    ; preds = %120, %303
  %130 = call dereferenceable(16) %struct.Edge* @_ZNK9__gnu_cxx17__normal_iteratorIPK4EdgeSt6vectorIS1_SaIS1_EEEdeEv(%"class.__gnu_cxx::__normal_iterator"* %19) #3
  store %struct.Edge* %130, %struct.Edge** %21, align 8
  %131 = load %"class.std::vector.0"*, %"class.std::vector.0"** %7, align 8
  %132 = load %struct.Edge*, %struct.Edge** %21, align 8
  %133 = getelementptr inbounds %struct.Edge, %struct.Edge* %132, i32 0, i32 0
  %134 = load i64, i64* %133, align 8
  %135 = call dereferenceable(8) i64* @_ZNSt6vectorIxSaIxEEixEm(%"class.std::vector.0"* %131, i64 %134) #3
  %136 = load i64, i64* %135, align 8
  %137 = load %"class.std::vector.0"*, %"class.std::vector.0"** %7, align 8
  %138 = load i32, i32* %17, align 4
  %139 = sext i32 %138 to i64
  %140 = call dereferenceable(8) i64* @_ZNSt6vectorIxSaIxEEixEm(%"class.std::vector.0"* %137, i64 %139) #3
  %141 = load i64, i64* %140, align 8
  %142 = load %struct.Edge*, %struct.Edge** %21, align 8
  %143 = getelementptr inbounds %struct.Edge, %struct.Edge* %142, i32 0, i32 1
  %144 = load i64, i64* %143, align 8
  %145 = add nsw i64 %141, %144
  %146 = icmp sgt i64 %136, %145
  %147 = load i32, i32* @x.83
  %148 = load i32, i32* @y.84
  %149 = sub i32 %147, 1
  %150 = mul i32 %147, %149
  %151 = urem i32 %150, 2
  %152 = icmp eq i32 %151, 0
  %153 = icmp slt i32 %148, 10
  %154 = or i1 %152, %153
  br i1 %154, label %155, label %303

; <label>:155:                                    ; preds = %129
  br i1 %146, label %156, label %204

; <label>:156:                                    ; preds = %155
  %157 = load %"class.std::vector.0"*, %"class.std::vector.0"** %7, align 8
  %158 = load i32, i32* %17, align 4
  %159 = sext i32 %158 to i64
  %160 = call dereferenceable(8) i64* @_ZNSt6vectorIxSaIxEEixEm(%"class.std::vector.0"* %157, i64 %159) #3
  %161 = load i64, i64* %160, align 8
  %162 = load %struct.Edge*, %struct.Edge** %21, align 8
  %163 = getelementptr inbounds %struct.Edge, %struct.Edge* %162, i32 0, i32 1
  %164 = load i64, i64* %163, align 8
  %165 = add nsw i64 %161, %164
  %166 = load %"class.std::vector.0"*, %"class.std::vector.0"** %7, align 8
  %167 = load %struct.Edge*, %struct.Edge** %21, align 8
  %168 = getelementptr inbounds %struct.Edge, %struct.Edge* %167, i32 0, i32 0
  %169 = load i64, i64* %168, align 8
  %170 = call dereferenceable(8) i64* @_ZNSt6vectorIxSaIxEEixEm(%"class.std::vector.0"* %166, i64 %169) #3
  store i64 %165, i64* %170, align 8
  %171 = load i32, i32* %17, align 4
  %172 = sext i32 %171 to i64
  %173 = load %"class.std::vector.0"*, %"class.std::vector.0"** %8, align 8
  %174 = load %struct.Edge*, %struct.Edge** %21, align 8
  %175 = getelementptr inbounds %struct.Edge, %struct.Edge* %174, i32 0, i32 0
  %176 = load i64, i64* %175, align 8
  %177 = call dereferenceable(8) i64* @_ZNSt6vectorIxSaIxEEixEm(%"class.std::vector.0"* %173, i64 %176) #3
  store i64 %172, i64* %177, align 8
  %178 = load %"class.std::vector.0"*, %"class.std::vector.0"** %7, align 8
  %179 = load %struct.Edge*, %struct.Edge** %21, align 8
  %180 = getelementptr inbounds %struct.Edge, %struct.Edge* %179, i32 0, i32 0
  %181 = load i64, i64* %180, align 8
  %182 = call dereferenceable(8) i64* @_ZNSt6vectorIxSaIxEEixEm(%"class.std::vector.0"* %178, i64 %181) #3
  %183 = load %struct.Edge*, %struct.Edge** %21, align 8
  %184 = getelementptr inbounds %struct.Edge, %struct.Edge* %183, i32 0, i32 0
  invoke void @_ZNSt14priority_queueISt4pairIxxESt6vectorIS1_SaIS1_EESt7greaterIS1_EE7emplaceIJRxRKxEEEvDpOT_(%"class.std::priority_queue"* %11, i64* dereferenceable(8) %182, i64* dereferenceable(8) %184)
          to label %185 unwind label %103

; <label>:185:                                    ; preds = %156
  %186 = load i32, i32* @x.83
  %187 = load i32, i32* @y.84
  %188 = sub i32 %186, 1
  %189 = mul i32 %186, %188
  %190 = urem i32 %189, 2
  %191 = icmp eq i32 %190, 0
  %192 = icmp slt i32 %187, 10
  %193 = or i1 %191, %192
  br i1 %193, label %194, label %331

; <label>:194:                                    ; preds = %185, %331
  %195 = load i32, i32* @x.83
  %196 = load i32, i32* @y.84
  %197 = sub i32 %195, 1
  %198 = mul i32 %195, %197
  %199 = urem i32 %198, 2
  %200 = icmp eq i32 %199, 0
  %201 = icmp slt i32 %196, 10
  %202 = or i1 %200, %201
  br i1 %202, label %203, label %331

; <label>:203:                                    ; preds = %194
  br label %204

; <label>:204:                                    ; preds = %203, %155
  %205 = load i32, i32* @x.83
  %206 = load i32, i32* @y.84
  %207 = sub i32 %205, 1
  %208 = mul i32 %205, %207
  %209 = urem i32 %208, 2
  %210 = icmp eq i32 %209, 0
  %211 = icmp slt i32 %206, 10
  %212 = or i1 %210, %211
  br i1 %212, label %213, label %332

; <label>:213:                                    ; preds = %204, %332
  %214 = load i32, i32* @x.83
  %215 = load i32, i32* @y.84
  %216 = sub i32 %214, 1
  %217 = mul i32 %214, %216
  %218 = urem i32 %217, 2
  %219 = icmp eq i32 %218, 0
  %220 = icmp slt i32 %215, 10
  %221 = or i1 %219, %220
  br i1 %221, label %222, label %332

; <label>:222:                                    ; preds = %213
  br label %223

; <label>:223:                                    ; preds = %222
  %224 = load i32, i32* @x.83
  %225 = load i32, i32* @y.84
  %226 = sub i32 %224, 1
  %227 = mul i32 %224, %226
  %228 = urem i32 %227, 2
  %229 = icmp eq i32 %228, 0
  %230 = icmp slt i32 %225, 10
  %231 = or i1 %229, %230
  br i1 %231, label %232, label %333

; <label>:232:                                    ; preds = %223, %333
  %233 = call dereferenceable(8) %"class.__gnu_cxx::__normal_iterator"* @_ZN9__gnu_cxx17__normal_iteratorIPK4EdgeSt6vectorIS1_SaIS1_EEEppEv(%"class.__gnu_cxx::__normal_iterator"* %19) #3
  %234 = load i32, i32* @x.83
  %235 = load i32, i32* @y.84
  %236 = sub i32 %234, 1
  %237 = mul i32 %234, %236
  %238 = urem i32 %237, 2
  %239 = icmp eq i32 %238, 0
  %240 = icmp slt i32 %235, 10
  %241 = or i1 %239, %240
  br i1 %241, label %242, label %333

; <label>:242:                                    ; preds = %232
  br label %118

; <label>:243:                                    ; preds = %118
  %244 = load i32, i32* @x.83
  %245 = load i32, i32* @y.84
  %246 = sub i32 %244, 1
  %247 = mul i32 %244, %246
  %248 = urem i32 %247, 2
  %249 = icmp eq i32 %248, 0
  %250 = icmp slt i32 %245, 10
  %251 = or i1 %249, %250
  br i1 %251, label %252, label %335

; <label>:252:                                    ; preds = %243, %335
  %253 = load i32, i32* @x.83
  %254 = load i32, i32* @y.84
  %255 = sub i32 %253, 1
  %256 = mul i32 %253, %255
  %257 = urem i32 %256, 2
  %258 = icmp eq i32 %257, 0
  %259 = icmp slt i32 %254, 10
  %260 = or i1 %258, %259
  br i1 %260, label %261, label %335

; <label>:261:                                    ; preds = %252
  br label %41

; <label>:262:                                    ; preds = %62
  %263 = load i32, i32* @x.83
  %264 = load i32, i32* @y.84
  %265 = sub i32 %263, 1
  %266 = mul i32 %263, %265
  %267 = urem i32 %266, 2
  %268 = icmp eq i32 %267, 0
  %269 = icmp slt i32 %264, 10
  %270 = or i1 %268, %269
  br i1 %270, label %271, label %336

; <label>:271:                                    ; preds = %262, %336
  call void @_ZNSt14priority_queueISt4pairIxxESt6vectorIS1_SaIS1_EESt7greaterIS1_EED2Ev(%"class.std::priority_queue"* %11) #3
  %272 = load i32, i32* @x.83
  %273 = load i32, i32* @y.84
  %274 = sub i32 %272, 1
  %275 = mul i32 %272, %274
  %276 = urem i32 %275, 2
  %277 = icmp eq i32 %276, 0
  %278 = icmp slt i32 %273, 10
  %279 = or i1 %277, %278
  br i1 %279, label %280, label %336

; <label>:280:                                    ; preds = %271
  ret void

; <label>:281:                                    ; preds = %103, %99
  %282 = load i8*, i8** %14, align 8
  %283 = load i32, i32* %15, align 4
  %284 = insertvalue { i8*, i32 } undef, i8* %282, 0
  %285 = insertvalue { i8*, i32 } %284, i32 %283, 1
  resume { i8*, i32 } %285

; <label>:286:                                    ; preds = %52, %43
  %287 = sub i1 false, %42
  %288 = add i1 %287, true
  %289 = sub i1 %42, true
  %290 = mul i1 %289, true
  %291 = sub i1 false, %42
  %292 = add i1 %291, true
  %293 = shl i1 %42, true
  %294 = sub i1 false, %42
  %295 = add i1 %294, true
  %296 = shl i1 %42, true
  %297 = sub i1 %42, true
  %298 = mul i1 %297, true
  %299 = shl i1 %42, true
  %300 = shl i1 %42, true
  %301 = xor i1 %42, true
  br label %52

; <label>:302:                                    ; preds = %89, %80
  br label %89

; <label>:303:                                    ; preds = %129, %120
  %304 = call dereferenceable(16) %struct.Edge* @_ZNK9__gnu_cxx17__normal_iteratorIPK4EdgeSt6vectorIS1_SaIS1_EEEdeEv(%"class.__gnu_cxx::__normal_iterator"* %19) #3
  store %struct.Edge* %304, %struct.Edge** %21, align 8
  %305 = load %"class.std::vector.0"*, %"class.std::vector.0"** %7, align 8
  %306 = load %struct.Edge*, %struct.Edge** %21, align 8
  %307 = getelementptr inbounds %struct.Edge, %struct.Edge* %306, i32 0, i32 0
  %308 = load i64, i64* %307, align 8
  %309 = call dereferenceable(8) i64* @_ZNSt6vectorIxSaIxEEixEm(%"class.std::vector.0"* %305, i64 %308) #3
  %310 = load i64, i64* %309, align 8
  %311 = load %"class.std::vector.0"*, %"class.std::vector.0"** %7, align 8
  %312 = load i32, i32* %17, align 4
  %313 = sext i32 %312 to i64
  %314 = call dereferenceable(8) i64* @_ZNSt6vectorIxSaIxEEixEm(%"class.std::vector.0"* %311, i64 %313) #3
  %315 = load i64, i64* %314, align 8
  %316 = load %struct.Edge*, %struct.Edge** %21, align 8
  %317 = getelementptr inbounds %struct.Edge, %struct.Edge* %316, i32 0, i32 1
  %318 = load i64, i64* %317, align 8
  %319 = sub i64 %315, %318
  %320 = mul i64 %319, %318
  %321 = sub i64 0, %315
  %322 = add i64 %321, %318
  %323 = sub i64 %315, %318
  %324 = mul i64 %323, %318
  %325 = sub i64 %315, %318
  %326 = mul i64 %325, %318
  %327 = sub i64 %315, %318
  %328 = mul i64 %327, %318
  %329 = add nsw i64 %315, %318
  %330 = icmp sgt i64 %310, %329
  br label %129

; <label>:331:                                    ; preds = %194, %185
  br label %194

; <label>:332:                                    ; preds = %213, %204
  br label %213

; <label>:333:                                    ; preds = %232, %223
  %334 = call dereferenceable(8) %"class.__gnu_cxx::__normal_iterator"* @_ZN9__gnu_cxx17__normal_iteratorIPK4EdgeSt6vectorIS1_SaIS1_EEEppEv(%"class.__gnu_cxx::__normal_iterator"* %19) #3
  br label %232

; <label>:335:                                    ; preds = %252, %243
  br label %252

; <label>:336:                                    ; preds = %271, %262
  call void @_ZNSt14priority_queueISt4pairIxxESt6vectorIS1_SaIS1_EESt7greaterIS1_EED2Ev(%"class.std::priority_queue"* %11) #3
  br label %271
}

; Function Attrs: noinline nounwind uwtable
define linkonce_odr i64 @_ZNKSt6vectorIS_I4EdgeSaIS0_EESaIS2_EE4sizeEv(%"class.std::vector.21"*) #4 comdat align 2 {
  %2 = alloca %"class.std::vector.21"*, align 8
  store %"class.std::vector.21"* %0, %"class.std::vector.21"** %2, align 8
  %3 = load %"class.std::vector.21"*, %"class.std::vector.21"** %2, align 8
  %4 = bitcast %"class.std::vector.21"* %3 to %"struct.std::_Vector_base.22"*
  %5 = getelementptr inbounds %"struct.std::_Vector_base.22", %"struct.std::_Vector_base.22"* %4, i32 0, i32 0
  %6 = getelementptr inbounds %"struct.std::_Vector_base<std::vector<Edge, std::allocator<Edge> >, std::allocator<std::vector<Edge, std::allocator<Edge> > > >::_Vector_impl", %"struct.std::_Vector_base<std::vector<Edge, std::allocator<Edge> >, std::allocator<std::vector<Edge, std::allocator<Edge> > > >::_Vector_impl"* %5, i32 0, i32 1
  %7 = load %"class.std::vector.26"*, %"class.std::vector.26"** %6, align 8
  %8 = bitcast %"class.std::vector.21"* %3 to %"struct.std::_Vector_base.22"*
  %9 = getelementptr inbounds %"struct.std::_Vector_base.22", %"struct.std::_Vector_base.22"* %8, i32 0, i32 0
  %10 = getelementptr inbounds %"struct.std::_Vector_base<std::vector<Edge, std::allocator<Edge> >, std::allocator<std::vector<Edge, std::allocator<Edge> > > >::_Vector_impl", %"struct.std::_Vector_base<std::vector<Edge, std::allocator<Edge> >, std::allocator<std::vector<Edge, std::allocator<Edge> > > >::_Vector_impl"* %9, i32 0, i32 0
  %11 = load %"class.std::vector.26"*, %"class.std::vector.26"** %10, align 8
  %12 = ptrtoint %"class.std::vector.26"* %7 to i64
  %13 = ptrtoint %"class.std::vector.26"* %11 to i64
  %14 = sub i64 %12, %13
  %15 = sdiv exact i64 %14, 24
  ret i64 %15
}

; Function Attrs: noinline uwtable
define linkonce_odr void @_ZNSt6vectorIxSaIxEE6resizeEmRKx(%"class.std::vector.0"*, i64, i64* dereferenceable(8)) #0 comdat align 2 {
  %4 = alloca %"class.std::vector.0"*, align 8
  %5 = alloca i64, align 8
  %6 = alloca i64*, align 8
  %7 = alloca %"class.__gnu_cxx::__normal_iterator.46", align 8
  %8 = alloca %"class.__gnu_cxx::__normal_iterator.38", align 8
  %9 = alloca %"class.__gnu_cxx::__normal_iterator.38", align 8
  store %"class.std::vector.0"* %0, %"class.std::vector.0"** %4, align 8
  store i64 %1, i64* %5, align 8
  store i64* %2, i64** %6, align 8
  %10 = load %"class.std::vector.0"*, %"class.std::vector.0"** %4, align 8
  %11 = load i64, i64* %5, align 8
  %12 = call i64 @_ZNKSt6vectorIxSaIxEE4sizeEv(%"class.std::vector.0"* %10) #3
  %13 = icmp ugt i64 %11, %12
  br i1 %13, label %14, label %43

; <label>:14:                                     ; preds = %3
  %15 = load i32, i32* @x.87
  %16 = load i32, i32* @y.88
  %17 = sub i32 %15, 1
  %18 = mul i32 %15, %17
  %19 = urem i32 %18, 2
  %20 = icmp eq i32 %19, 0
  %21 = icmp slt i32 %16, 10
  %22 = or i1 %20, %21
  br i1 %22, label %23, label %92

; <label>:23:                                     ; preds = %14, %92
  %24 = call i64* @_ZNSt6vectorIxSaIxEE3endEv(%"class.std::vector.0"* %10) #3
  %25 = getelementptr inbounds %"class.__gnu_cxx::__normal_iterator.38", %"class.__gnu_cxx::__normal_iterator.38"* %8, i32 0, i32 0
  store i64* %24, i64** %25, align 8
  call void @_ZN9__gnu_cxx17__normal_iteratorIPKxSt6vectorIxSaIxEEEC2IPxEERKNS0_IT_NS_11__enable_ifIXsr3std10__are_sameIS9_S8_EE7__valueES5_E6__typeEEE(%"class.__gnu_cxx::__normal_iterator.46"* %7, %"class.__gnu_cxx::__normal_iterator.38"* dereferenceable(8) %8) #3
  %26 = load i64, i64* %5, align 8
  %27 = call i64 @_ZNKSt6vectorIxSaIxEE4sizeEv(%"class.std::vector.0"* %10) #3
  %28 = sub i64 %26, %27
  %29 = load i64*, i64** %6, align 8
  %30 = getelementptr inbounds %"class.__gnu_cxx::__normal_iterator.46", %"class.__gnu_cxx::__normal_iterator.46"* %7, i32 0, i32 0
  %31 = load i64*, i64** %30, align 8
  %32 = call i64* @_ZNSt6vectorIxSaIxEE6insertEN9__gnu_cxx17__normal_iteratorIPKxS1_EEmRS4_(%"class.std::vector.0"* %10, i64* %31, i64 %28, i64* dereferenceable(8) %29)
  %33 = getelementptr inbounds %"class.__gnu_cxx::__normal_iterator.38", %"class.__gnu_cxx::__normal_iterator.38"* %9, i32 0, i32 0
  store i64* %32, i64** %33, align 8
  %34 = load i32, i32* @x.87
  %35 = load i32, i32* @y.88
  %36 = sub i32 %34, 1
  %37 = mul i32 %34, %36
  %38 = urem i32 %37, 2
  %39 = icmp eq i32 %38, 0
  %40 = icmp slt i32 %35, 10
  %41 = or i1 %39, %40
  br i1 %41, label %42, label %92

; <label>:42:                                     ; preds = %23
  br label %73

; <label>:43:                                     ; preds = %3
  %44 = load i32, i32* @x.87
  %45 = load i32, i32* @y.88
  %46 = sub i32 %44, 1
  %47 = mul i32 %44, %46
  %48 = urem i32 %47, 2
  %49 = icmp eq i32 %48, 0
  %50 = icmp slt i32 %45, 10
  %51 = or i1 %49, %50
  br i1 %51, label %52, label %112

; <label>:52:                                     ; preds = %43, %112
  %53 = load i64, i64* %5, align 8
  %54 = call i64 @_ZNKSt6vectorIxSaIxEE4sizeEv(%"class.std::vector.0"* %10) #3
  %55 = icmp ult i64 %53, %54
  %56 = load i32, i32* @x.87
  %57 = load i32, i32* @y.88
  %58 = sub i32 %56, 1
  %59 = mul i32 %56, %58
  %60 = urem i32 %59, 2
  %61 = icmp eq i32 %60, 0
  %62 = icmp slt i32 %57, 10
  %63 = or i1 %61, %62
  br i1 %63, label %64, label %112

; <label>:64:                                     ; preds = %52
  br i1 %55, label %65, label %72

; <label>:65:                                     ; preds = %64
  %66 = bitcast %"class.std::vector.0"* %10 to %"struct.std::_Vector_base.1"*
  %67 = getelementptr inbounds %"struct.std::_Vector_base.1", %"struct.std::_Vector_base.1"* %66, i32 0, i32 0
  %68 = getelementptr inbounds %"struct.std::_Vector_base<long long, std::allocator<long long> >::_Vector_impl", %"struct.std::_Vector_base<long long, std::allocator<long long> >::_Vector_impl"* %67, i32 0, i32 0
  %69 = load i64*, i64** %68, align 8
  %70 = load i64, i64* %5, align 8
  %71 = getelementptr inbounds i64, i64* %69, i64 %70
  call void @_ZNSt6vectorIxSaIxEE15_M_erase_at_endEPx(%"class.std::vector.0"* %10, i64* %71) #3
  br label %72

; <label>:72:                                     ; preds = %65, %64
  br label %73

; <label>:73:                                     ; preds = %72, %42
  %74 = load i32, i32* @x.87
  %75 = load i32, i32* @y.88
  %76 = sub i32 %74, 1
  %77 = mul i32 %74, %76
  %78 = urem i32 %77, 2
  %79 = icmp eq i32 %78, 0
  %80 = icmp slt i32 %75, 10
  %81 = or i1 %79, %80
  br i1 %81, label %82, label %116

; <label>:82:                                     ; preds = %73, %116
  %83 = load i32, i32* @x.87
  %84 = load i32, i32* @y.88
  %85 = sub i32 %83, 1
  %86 = mul i32 %83, %85
  %87 = urem i32 %86, 2
  %88 = icmp eq i32 %87, 0
  %89 = icmp slt i32 %84, 10
  %90 = or i1 %88, %89
  br i1 %90, label %91, label %116

; <label>:91:                                     ; preds = %82
  ret void

; <label>:92:                                     ; preds = %23, %14
  %93 = call i64* @_ZNSt6vectorIxSaIxEE3endEv(%"class.std::vector.0"* %10) #3
  %94 = getelementptr inbounds %"class.__gnu_cxx::__normal_iterator.38", %"class.__gnu_cxx::__normal_iterator.38"* %8, i32 0, i32 0
  store i64* %93, i64** %94, align 8
  call void @_ZN9__gnu_cxx17__normal_iteratorIPKxSt6vectorIxSaIxEEEC2IPxEERKNS0_IT_NS_11__enable_ifIXsr3std10__are_sameIS9_S8_EE7__valueES5_E6__typeEEE(%"class.__gnu_cxx::__normal_iterator.46"* %7, %"class.__gnu_cxx::__normal_iterator.38"* dereferenceable(8) %8) #3
  %95 = load i64, i64* %5, align 8
  %96 = call i64 @_ZNKSt6vectorIxSaIxEE4sizeEv(%"class.std::vector.0"* %10) #3
  %97 = sub i64 0, %95
  %98 = add i64 %97, %96
  %99 = sub i64 0, %95
  %100 = add i64 %99, %96
  %101 = shl i64 %95, %96
  %102 = sub i64 0, %95
  %103 = add i64 %102, %96
  %104 = sub i64 %95, %96
  %105 = mul i64 %104, %96
  %106 = sub i64 %95, %96
  %107 = load i64*, i64** %6, align 8
  %108 = getelementptr inbounds %"class.__gnu_cxx::__normal_iterator.46", %"class.__gnu_cxx::__normal_iterator.46"* %7, i32 0, i32 0
  %109 = load i64*, i64** %108, align 8
  %110 = call i64* @_ZNSt6vectorIxSaIxEE6insertEN9__gnu_cxx17__normal_iteratorIPKxS1_EEmRS4_(%"class.std::vector.0"* %10, i64* %109, i64 %106, i64* dereferenceable(8) %107)
  %111 = getelementptr inbounds %"class.__gnu_cxx::__normal_iterator.38", %"class.__gnu_cxx::__normal_iterator.38"* %9, i32 0, i32 0
  store i64* %110, i64** %111, align 8
  br label %23

; <label>:112:                                    ; preds = %52, %43
  %113 = load i64, i64* %5, align 8
  %114 = call i64 @_ZNKSt6vectorIxSaIxEE4sizeEv(%"class.std::vector.0"* %10) #3
  %115 = icmp ult i64 %113, %114
  br label %52

; <label>:116:                                    ; preds = %82, %73
  br label %82
}

; Function Attrs: noinline nounwind uwtable
define linkonce_odr void @_ZNSt6vectorISt4pairIxxESaIS1_EEC2Ev(%"class.std::vector.31"*) unnamed_addr #4 comdat align 2 personality i8* bitcast (i32 (...)* @__gxx_personality_v0 to i8*) {
  %2 = alloca %"class.std::vector.31"*, align 8
  store %"class.std::vector.31"* %0, %"class.std::vector.31"** %2, align 8
  %3 = load %"class.std::vector.31"*, %"class.std::vector.31"** %2, align 8
  %4 = bitcast %"class.std::vector.31"* %3 to %"struct.std::_Vector_base.32"*
  invoke void @_ZNSt12_Vector_baseISt4pairIxxESaIS1_EEC2Ev(%"struct.std::_Vector_base.32"* %4)
          to label %5 unwind label %6

; <label>:5:                                      ; preds = %1
  ret void

; <label>:6:                                      ; preds = %1
  %7 = landingpad { i8*, i32 }
          catch i8* null
  %8 = extractvalue { i8*, i32 } %7, 0
  call void @__clang_call_terminate(i8* %8) #12
  unreachable
}

; Function Attrs: noinline uwtable
define linkonce_odr void @_ZNSt14priority_queueISt4pairIxxESt6vectorIS1_SaIS1_EESt7greaterIS1_EEC2ERKS6_OS4_(%"class.std::priority_queue"*, %"struct.std::greater"* dereferenceable(1), %"class.std::vector.31"* dereferenceable(24)) unnamed_addr #0 comdat align 2 personality i8* bitcast (i32 (...)* @__gxx_personality_v0 to i8*) {
  %4 = alloca %"class.std::priority_queue"*, align 8
  %5 = alloca %"struct.std::greater"*, align 8
  %6 = alloca %"class.std::vector.31"*, align 8
  %7 = alloca %"class.__gnu_cxx::__normal_iterator.53", align 8
  %8 = alloca %"class.__gnu_cxx::__normal_iterator.53", align 8
  %9 = alloca %"struct.std::greater", align 1
  %10 = alloca i8*
  %11 = alloca i32
  store %"class.std::priority_queue"* %0, %"class.std::priority_queue"** %4, align 8
  store %"struct.std::greater"* %1, %"struct.std::greater"** %5, align 8
  store %"class.std::vector.31"* %2, %"class.std::vector.31"** %6, align 8
  %12 = load %"class.std::priority_queue"*, %"class.std::priority_queue"** %4, align 8
  %13 = getelementptr inbounds %"class.std::priority_queue", %"class.std::priority_queue"* %12, i32 0, i32 0
  %14 = load %"class.std::vector.31"*, %"class.std::vector.31"** %6, align 8
  %15 = call dereferenceable(24) %"class.std::vector.31"* @_ZSt4moveIRSt6vectorISt4pairIxxESaIS2_EEEONSt16remove_referenceIT_E4typeEOS7_(%"class.std::vector.31"* dereferenceable(24) %14) #3
  call void @_ZNSt6vectorISt4pairIxxESaIS1_EEC2EOS3_(%"class.std::vector.31"* %13, %"class.std::vector.31"* dereferenceable(24) %15) #3
  %16 = getelementptr inbounds %"class.std::priority_queue", %"class.std::priority_queue"* %12, i32 0, i32 1
  %17 = load %"struct.std::greater"*, %"struct.std::greater"** %5, align 8
  %18 = getelementptr inbounds %"class.std::priority_queue", %"class.std::priority_queue"* %12, i32 0, i32 0
  %19 = call %"struct.std::pair.36"* @_ZNSt6vectorISt4pairIxxESaIS1_EE5beginEv(%"class.std::vector.31"* %18) #3
  %20 = getelementptr inbounds %"class.__gnu_cxx::__normal_iterator.53", %"class.__gnu_cxx::__normal_iterator.53"* %7, i32 0, i32 0
  store %"struct.std::pair.36"* %19, %"struct.std::pair.36"** %20, align 8
  %21 = getelementptr inbounds %"class.std::priority_queue", %"class.std::priority_queue"* %12, i32 0, i32 0
  %22 = call %"struct.std::pair.36"* @_ZNSt6vectorISt4pairIxxESaIS1_EE3endEv(%"class.std::vector.31"* %21) #3
  %23 = getelementptr inbounds %"class.__gnu_cxx::__normal_iterator.53", %"class.__gnu_cxx::__normal_iterator.53"* %8, i32 0, i32 0
  store %"struct.std::pair.36"* %22, %"struct.std::pair.36"** %23, align 8
  %24 = getelementptr inbounds %"class.std::priority_queue", %"class.std::priority_queue"* %12, i32 0, i32 1
  %25 = getelementptr inbounds %"class.__gnu_cxx::__normal_iterator.53", %"class.__gnu_cxx::__normal_iterator.53"* %7, i32 0, i32 0
  %26 = load %"struct.std::pair.36"*, %"struct.std::pair.36"** %25, align 8
  %27 = getelementptr inbounds %"class.__gnu_cxx::__normal_iterator.53", %"class.__gnu_cxx::__normal_iterator.53"* %8, i32 0, i32 0
  %28 = load %"struct.std::pair.36"*, %"struct.std::pair.36"** %27, align 8
  invoke void @_ZSt9make_heapIN9__gnu_cxx17__normal_iteratorIPSt4pairIxxESt6vectorIS3_SaIS3_EEEESt7greaterIS3_EEvT_SB_T0_(%"struct.std::pair.36"* %26, %"struct.std::pair.36"* %28)
          to label %29 unwind label %30

; <label>:29:                                     ; preds = %3
  ret void

; <label>:30:                                     ; preds = %3
  %31 = landingpad { i8*, i32 }
          cleanup
  %32 = extractvalue { i8*, i32 } %31, 0
  store i8* %32, i8** %10, align 8
  %33 = extractvalue { i8*, i32 } %31, 1
  store i32 %33, i32* %11, align 4
  call void @_ZNSt6vectorISt4pairIxxESaIS1_EED2Ev(%"class.std::vector.31"* %13) #3
  br label %34

; <label>:34:                                     ; preds = %30
  %35 = load i32, i32* @x.91
  %36 = load i32, i32* @y.92
  %37 = sub i32 %35, 1
  %38 = mul i32 %35, %37
  %39 = urem i32 %38, 2
  %40 = icmp eq i32 %39, 0
  %41 = icmp slt i32 %36, 10
  %42 = or i1 %40, %41
  br i1 %42, label %43, label %57

; <label>:43:                                     ; preds = %34, %57
  %44 = load i8*, i8** %10, align 8
  %45 = load i32, i32* %11, align 4
  %46 = insertvalue { i8*, i32 } undef, i8* %44, 0
  %47 = insertvalue { i8*, i32 } %46, i32 %45, 1
  %48 = load i32, i32* @x.91
  %49 = load i32, i32* @y.92
  %50 = sub i32 %48, 1
  %51 = mul i32 %48, %50
  %52 = urem i32 %51, 2
  %53 = icmp eq i32 %52, 0
  %54 = icmp slt i32 %49, 10
  %55 = or i1 %53, %54
  br i1 %55, label %56, label %57

; <label>:56:                                     ; preds = %43
  resume { i8*, i32 } %47

; <label>:57:                                     ; preds = %43, %34
  %58 = load i8*, i8** %10, align 8
  %59 = load i32, i32* %11, align 4
  %60 = insertvalue { i8*, i32 } undef, i8* %58, 0
  %61 = insertvalue { i8*, i32 } %60, i32 %59, 1
  br label %43
}

; Function Attrs: noinline nounwind uwtable
define linkonce_odr void @_ZNSt6vectorISt4pairIxxESaIS1_EED2Ev(%"class.std::vector.31"*) unnamed_addr #4 comdat align 2 personality i8* bitcast (i32 (...)* @__gxx_personality_v0 to i8*) {
  %2 = alloca %"class.std::vector.31"*, align 8
  %3 = alloca i8*
  %4 = alloca i32
  store %"class.std::vector.31"* %0, %"class.std::vector.31"** %2, align 8
  %5 = load %"class.std::vector.31"*, %"class.std::vector.31"** %2, align 8
  %6 = bitcast %"class.std::vector.31"* %5 to %"struct.std::_Vector_base.32"*
  %7 = getelementptr inbounds %"struct.std::_Vector_base.32", %"struct.std::_Vector_base.32"* %6, i32 0, i32 0
  %8 = getelementptr inbounds %"struct.std::_Vector_base<std::pair<long long, long long>, std::allocator<std::pair<long long, long long> > >::_Vector_impl", %"struct.std::_Vector_base<std::pair<long long, long long>, std::allocator<std::pair<long long, long long> > >::_Vector_impl"* %7, i32 0, i32 0
  %9 = load %"struct.std::pair.36"*, %"struct.std::pair.36"** %8, align 8
  %10 = bitcast %"class.std::vector.31"* %5 to %"struct.std::_Vector_base.32"*
  %11 = getelementptr inbounds %"struct.std::_Vector_base.32", %"struct.std::_Vector_base.32"* %10, i32 0, i32 0
  %12 = getelementptr inbounds %"struct.std::_Vector_base<std::pair<long long, long long>, std::allocator<std::pair<long long, long long> > >::_Vector_impl", %"struct.std::_Vector_base<std::pair<long long, long long>, std::allocator<std::pair<long long, long long> > >::_Vector_impl"* %11, i32 0, i32 1
  %13 = load %"struct.std::pair.36"*, %"struct.std::pair.36"** %12, align 8
  %14 = bitcast %"class.std::vector.31"* %5 to %"struct.std::_Vector_base.32"*
  %15 = call dereferenceable(1) %"class.std::allocator.33"* @_ZNSt12_Vector_baseISt4pairIxxESaIS1_EE19_M_get_Tp_allocatorEv(%"struct.std::_Vector_base.32"* %14) #3
  invoke void @_ZSt8_DestroyIPSt4pairIxxES1_EvT_S3_RSaIT0_E(%"struct.std::pair.36"* %9, %"struct.std::pair.36"* %13, %"class.std::allocator.33"* dereferenceable(1) %15)
          to label %16 unwind label %36

; <label>:16:                                     ; preds = %1
  %17 = load i32, i32* @x.93
  %18 = load i32, i32* @y.94
  %19 = sub i32 %17, 1
  %20 = mul i32 %17, %19
  %21 = urem i32 %20, 2
  %22 = icmp eq i32 %21, 0
  %23 = icmp slt i32 %18, 10
  %24 = or i1 %22, %23
  br i1 %24, label %25, label %43

; <label>:25:                                     ; preds = %16, %43
  %26 = bitcast %"class.std::vector.31"* %5 to %"struct.std::_Vector_base.32"*
  call void @_ZNSt12_Vector_baseISt4pairIxxESaIS1_EED2Ev(%"struct.std::_Vector_base.32"* %26) #3
  %27 = load i32, i32* @x.93
  %28 = load i32, i32* @y.94
  %29 = sub i32 %27, 1
  %30 = mul i32 %27, %29
  %31 = urem i32 %30, 2
  %32 = icmp eq i32 %31, 0
  %33 = icmp slt i32 %28, 10
  %34 = or i1 %32, %33
  br i1 %34, label %35, label %43

; <label>:35:                                     ; preds = %25
  ret void

; <label>:36:                                     ; preds = %1
  %37 = landingpad { i8*, i32 }
          catch i8* null
  %38 = extractvalue { i8*, i32 } %37, 0
  store i8* %38, i8** %3, align 8
  %39 = extractvalue { i8*, i32 } %37, 1
  store i32 %39, i32* %4, align 4
  %40 = bitcast %"class.std::vector.31"* %5 to %"struct.std::_Vector_base.32"*
  call void @_ZNSt12_Vector_baseISt4pairIxxESaIS1_EED2Ev(%"struct.std::_Vector_base.32"* %40) #3
  br label %41

; <label>:41:                                     ; preds = %36
  %42 = load i8*, i8** %3, align 8
  call void @__clang_call_terminate(i8* %42) #12
  unreachable

; <label>:43:                                     ; preds = %25, %16
  %44 = bitcast %"class.std::vector.31"* %5 to %"struct.std::_Vector_base.32"*
  call void @_ZNSt12_Vector_baseISt4pairIxxESaIS1_EED2Ev(%"struct.std::_Vector_base.32"* %44) #3
  br label %25
}

; Function Attrs: noinline uwtable
define linkonce_odr void @_ZNSt14priority_queueISt4pairIxxESt6vectorIS1_SaIS1_EESt7greaterIS1_EE7emplaceIJRxRiEEEvDpOT_(%"class.std::priority_queue"*, i64* dereferenceable(8), i32* dereferenceable(4)) #0 comdat align 2 {
  %4 = alloca %"class.std::priority_queue"*, align 8
  %5 = alloca i64*, align 8
  %6 = alloca i32*, align 8
  %7 = alloca %"class.__gnu_cxx::__normal_iterator.53", align 8
  %8 = alloca %"class.__gnu_cxx::__normal_iterator.53", align 8
  %9 = alloca %"struct.std::greater", align 1
  store %"class.std::priority_queue"* %0, %"class.std::priority_queue"** %4, align 8
  store i64* %1, i64** %5, align 8
  store i32* %2, i32** %6, align 8
  %10 = load %"class.std::priority_queue"*, %"class.std::priority_queue"** %4, align 8
  %11 = getelementptr inbounds %"class.std::priority_queue", %"class.std::priority_queue"* %10, i32 0, i32 0
  %12 = load i64*, i64** %5, align 8
  %13 = call dereferenceable(8) i64* @_ZSt7forwardIRxEOT_RNSt16remove_referenceIS1_E4typeE(i64* dereferenceable(8) %12) #3
  %14 = load i32*, i32** %6, align 8
  %15 = call dereferenceable(4) i32* @_ZSt7forwardIRiEOT_RNSt16remove_referenceIS1_E4typeE(i32* dereferenceable(4) %14) #3
  call void @_ZNSt6vectorISt4pairIxxESaIS1_EE12emplace_backIJRxRiEEEvDpOT_(%"class.std::vector.31"* %11, i64* dereferenceable(8) %13, i32* dereferenceable(4) %15)
  %16 = getelementptr inbounds %"class.std::priority_queue", %"class.std::priority_queue"* %10, i32 0, i32 0
  %17 = call %"struct.std::pair.36"* @_ZNSt6vectorISt4pairIxxESaIS1_EE5beginEv(%"class.std::vector.31"* %16) #3
  %18 = getelementptr inbounds %"class.__gnu_cxx::__normal_iterator.53", %"class.__gnu_cxx::__normal_iterator.53"* %7, i32 0, i32 0
  store %"struct.std::pair.36"* %17, %"struct.std::pair.36"** %18, align 8
  %19 = getelementptr inbounds %"class.std::priority_queue", %"class.std::priority_queue"* %10, i32 0, i32 0
  %20 = call %"struct.std::pair.36"* @_ZNSt6vectorISt4pairIxxESaIS1_EE3endEv(%"class.std::vector.31"* %19) #3
  %21 = getelementptr inbounds %"class.__gnu_cxx::__normal_iterator.53", %"class.__gnu_cxx::__normal_iterator.53"* %8, i32 0, i32 0
  store %"struct.std::pair.36"* %20, %"struct.std::pair.36"** %21, align 8
  %22 = getelementptr inbounds %"class.std::priority_queue", %"class.std::priority_queue"* %10, i32 0, i32 1
  %23 = getelementptr inbounds %"class.__gnu_cxx::__normal_iterator.53", %"class.__gnu_cxx::__normal_iterator.53"* %7, i32 0, i32 0
  %24 = load %"struct.std::pair.36"*, %"struct.std::pair.36"** %23, align 8
  %25 = getelementptr inbounds %"class.__gnu_cxx::__normal_iterator.53", %"class.__gnu_cxx::__normal_iterator.53"* %8, i32 0, i32 0
  %26 = load %"struct.std::pair.36"*, %"struct.std::pair.36"** %25, align 8
  call void @_ZSt9push_heapIN9__gnu_cxx17__normal_iteratorIPSt4pairIxxESt6vectorIS3_SaIS3_EEEESt7greaterIS3_EEvT_SB_T0_(%"struct.std::pair.36"* %24, %"struct.std::pair.36"* %26)
  ret void
}

; Function Attrs: noinline nounwind uwtable
define linkonce_odr zeroext i1 @_ZNKSt14priority_queueISt4pairIxxESt6vectorIS1_SaIS1_EESt7greaterIS1_EE5emptyEv(%"class.std::priority_queue"*) #4 comdat align 2 {
  %2 = alloca %"class.std::priority_queue"*, align 8
  store %"class.std::priority_queue"* %0, %"class.std::priority_queue"** %2, align 8
  %3 = load %"class.std::priority_queue"*, %"class.std::priority_queue"** %2, align 8
  %4 = getelementptr inbounds %"class.std::priority_queue", %"class.std::priority_queue"* %3, i32 0, i32 0
  %5 = call zeroext i1 @_ZNKSt6vectorISt4pairIxxESaIS1_EE5emptyEv(%"class.std::vector.31"* %4) #3
  ret i1 %5
}

; Function Attrs: noinline nounwind uwtable
define linkonce_odr dereferenceable(16) %"struct.std::pair.36"* @_ZNKSt14priority_queueISt4pairIxxESt6vectorIS1_SaIS1_EESt7greaterIS1_EE3topEv(%"class.std::priority_queue"*) #4 comdat align 2 {
  %2 = alloca %"class.std::priority_queue"*, align 8
  store %"class.std::priority_queue"* %0, %"class.std::priority_queue"** %2, align 8
  %3 = load %"class.std::priority_queue"*, %"class.std::priority_queue"** %2, align 8
  %4 = getelementptr inbounds %"class.std::priority_queue", %"class.std::priority_queue"* %3, i32 0, i32 0
  %5 = call dereferenceable(16) %"struct.std::pair.36"* @_ZNKSt6vectorISt4pairIxxESaIS1_EE5frontEv(%"class.std::vector.31"* %4) #3
  ret %"struct.std::pair.36"* %5
}

; Function Attrs: noinline uwtable
define linkonce_odr void @_ZNSt14priority_queueISt4pairIxxESt6vectorIS1_SaIS1_EESt7greaterIS1_EE3popEv(%"class.std::priority_queue"*) #0 comdat align 2 {
  %2 = alloca %"class.std::priority_queue"*, align 8
  %3 = alloca %"class.__gnu_cxx::__normal_iterator.53", align 8
  %4 = alloca %"class.__gnu_cxx::__normal_iterator.53", align 8
  %5 = alloca %"struct.std::greater", align 1
  store %"class.std::priority_queue"* %0, %"class.std::priority_queue"** %2, align 8
  %6 = load %"class.std::priority_queue"*, %"class.std::priority_queue"** %2, align 8
  %7 = getelementptr inbounds %"class.std::priority_queue", %"class.std::priority_queue"* %6, i32 0, i32 0
  %8 = call %"struct.std::pair.36"* @_ZNSt6vectorISt4pairIxxESaIS1_EE5beginEv(%"class.std::vector.31"* %7) #3
  %9 = getelementptr inbounds %"class.__gnu_cxx::__normal_iterator.53", %"class.__gnu_cxx::__normal_iterator.53"* %3, i32 0, i32 0
  store %"struct.std::pair.36"* %8, %"struct.std::pair.36"** %9, align 8
  %10 = getelementptr inbounds %"class.std::priority_queue", %"class.std::priority_queue"* %6, i32 0, i32 0
  %11 = call %"struct.std::pair.36"* @_ZNSt6vectorISt4pairIxxESaIS1_EE3endEv(%"class.std::vector.31"* %10) #3
  %12 = getelementptr inbounds %"class.__gnu_cxx::__normal_iterator.53", %"class.__gnu_cxx::__normal_iterator.53"* %4, i32 0, i32 0
  store %"struct.std::pair.36"* %11, %"struct.std::pair.36"** %12, align 8
  %13 = getelementptr inbounds %"class.std::priority_queue", %"class.std::priority_queue"* %6, i32 0, i32 1
  %14 = getelementptr inbounds %"class.__gnu_cxx::__normal_iterator.53", %"class.__gnu_cxx::__normal_iterator.53"* %3, i32 0, i32 0
  %15 = load %"struct.std::pair.36"*, %"struct.std::pair.36"** %14, align 8
  %16 = getelementptr inbounds %"class.__gnu_cxx::__normal_iterator.53", %"class.__gnu_cxx::__normal_iterator.53"* %4, i32 0, i32 0
  %17 = load %"struct.std::pair.36"*, %"struct.std::pair.36"** %16, align 8
  call void @_ZSt8pop_heapIN9__gnu_cxx17__normal_iteratorIPSt4pairIxxESt6vectorIS3_SaIS3_EEEESt7greaterIS3_EEvT_SB_T0_(%"struct.std::pair.36"* %15, %"struct.std::pair.36"* %17)
  %18 = getelementptr inbounds %"class.std::priority_queue", %"class.std::priority_queue"* %6, i32 0, i32 0
  call void @_ZNSt6vectorISt4pairIxxESaIS1_EE8pop_backEv(%"class.std::vector.31"* %18) #3
  ret void
}

; Function Attrs: noinline nounwind uwtable
define linkonce_odr dereferenceable(24) %"class.std::vector.26"* @_ZNKSt6vectorIS_I4EdgeSaIS0_EESaIS2_EEixEm(%"class.std::vector.21"*, i64) #4 comdat align 2 {
  %3 = alloca %"class.std::vector.21"*, align 8
  %4 = alloca i64, align 8
  store %"class.std::vector.21"* %0, %"class.std::vector.21"** %3, align 8
  store i64 %1, i64* %4, align 8
  %5 = load %"class.std::vector.21"*, %"class.std::vector.21"** %3, align 8
  %6 = bitcast %"class.std::vector.21"* %5 to %"struct.std::_Vector_base.22"*
  %7 = getelementptr inbounds %"struct.std::_Vector_base.22", %"struct.std::_Vector_base.22"* %6, i32 0, i32 0
  %8 = getelementptr inbounds %"struct.std::_Vector_base<std::vector<Edge, std::allocator<Edge> >, std::allocator<std::vector<Edge, std::allocator<Edge> > > >::_Vector_impl", %"struct.std::_Vector_base<std::vector<Edge, std::allocator<Edge> >, std::allocator<std::vector<Edge, std::allocator<Edge> > > >::_Vector_impl"* %7, i32 0, i32 0
  %9 = load %"class.std::vector.26"*, %"class.std::vector.26"** %8, align 8
  %10 = load i64, i64* %4, align 8
  %11 = getelementptr inbounds %"class.std::vector.26", %"class.std::vector.26"* %9, i64 %10
  ret %"class.std::vector.26"* %11
}

; Function Attrs: noinline nounwind uwtable
define linkonce_odr %struct.Edge* @_ZNKSt6vectorI4EdgeSaIS0_EE5beginEv(%"class.std::vector.26"*) #4 comdat align 2 {
  %2 = load i32, i32* @x.105
  %3 = load i32, i32* @y.106
  %4 = sub i32 %2, 1
  %5 = mul i32 %2, %4
  %6 = urem i32 %5, 2
  %7 = icmp eq i32 %6, 0
  %8 = icmp slt i32 %3, 10
  %9 = or i1 %7, %8
  br i1 %9, label %10, label %30

; <label>:10:                                     ; preds = %1, %30
  %11 = alloca %"class.__gnu_cxx::__normal_iterator", align 8
  %12 = alloca %"class.std::vector.26"*, align 8
  %13 = alloca %struct.Edge*, align 8
  store %"class.std::vector.26"* %0, %"class.std::vector.26"** %12, align 8
  %14 = load %"class.std::vector.26"*, %"class.std::vector.26"** %12, align 8
  %15 = bitcast %"class.std::vector.26"* %14 to %"struct.std::_Vector_base.27"*
  %16 = getelementptr inbounds %"struct.std::_Vector_base.27", %"struct.std::_Vector_base.27"* %15, i32 0, i32 0
  %17 = getelementptr inbounds %"struct.std::_Vector_base<Edge, std::allocator<Edge> >::_Vector_impl", %"struct.std::_Vector_base<Edge, std::allocator<Edge> >::_Vector_impl"* %16, i32 0, i32 0
  %18 = load %struct.Edge*, %struct.Edge** %17, align 8
  store %struct.Edge* %18, %struct.Edge** %13, align 8
  call void @_ZN9__gnu_cxx17__normal_iteratorIPK4EdgeSt6vectorIS1_SaIS1_EEEC2ERKS3_(%"class.__gnu_cxx::__normal_iterator"* %11, %struct.Edge** dereferenceable(8) %13) #3
  %19 = getelementptr inbounds %"class.__gnu_cxx::__normal_iterator", %"class.__gnu_cxx::__normal_iterator"* %11, i32 0, i32 0
  %20 = load %struct.Edge*, %struct.Edge** %19, align 8
  %21 = load i32, i32* @x.105
  %22 = load i32, i32* @y.106
  %23 = sub i32 %21, 1
  %24 = mul i32 %21, %23
  %25 = urem i32 %24, 2
  %26 = icmp eq i32 %25, 0
  %27 = icmp slt i32 %22, 10
  %28 = or i1 %26, %27
  br i1 %28, label %29, label %30

; <label>:29:                                     ; preds = %10
  ret %struct.Edge* %20

; <label>:30:                                     ; preds = %10, %1
  %31 = alloca %"class.__gnu_cxx::__normal_iterator", align 8
  %32 = alloca %"class.std::vector.26"*, align 8
  %33 = alloca %struct.Edge*, align 8
  store %"class.std::vector.26"* %0, %"class.std::vector.26"** %32, align 8
  %34 = load %"class.std::vector.26"*, %"class.std::vector.26"** %32, align 8
  %35 = bitcast %"class.std::vector.26"* %34 to %"struct.std::_Vector_base.27"*
  %36 = getelementptr inbounds %"struct.std::_Vector_base.27", %"struct.std::_Vector_base.27"* %35, i32 0, i32 0
  %37 = getelementptr inbounds %"struct.std::_Vector_base<Edge, std::allocator<Edge> >::_Vector_impl", %"struct.std::_Vector_base<Edge, std::allocator<Edge> >::_Vector_impl"* %36, i32 0, i32 0
  %38 = load %struct.Edge*, %struct.Edge** %37, align 8
  store %struct.Edge* %38, %struct.Edge** %33, align 8
  call void @_ZN9__gnu_cxx17__normal_iteratorIPK4EdgeSt6vectorIS1_SaIS1_EEEC2ERKS3_(%"class.__gnu_cxx::__normal_iterator"* %31, %struct.Edge** dereferenceable(8) %33) #3
  %39 = getelementptr inbounds %"class.__gnu_cxx::__normal_iterator", %"class.__gnu_cxx::__normal_iterator"* %31, i32 0, i32 0
  %40 = load %struct.Edge*, %struct.Edge** %39, align 8
  br label %10
}

; Function Attrs: noinline nounwind uwtable
define linkonce_odr %struct.Edge* @_ZNKSt6vectorI4EdgeSaIS0_EE3endEv(%"class.std::vector.26"*) #4 comdat align 2 {
  %2 = alloca %"class.__gnu_cxx::__normal_iterator", align 8
  %3 = alloca %"class.std::vector.26"*, align 8
  %4 = alloca %struct.Edge*, align 8
  store %"class.std::vector.26"* %0, %"class.std::vector.26"** %3, align 8
  %5 = load %"class.std::vector.26"*, %"class.std::vector.26"** %3, align 8
  %6 = bitcast %"class.std::vector.26"* %5 to %"struct.std::_Vector_base.27"*
  %7 = getelementptr inbounds %"struct.std::_Vector_base.27", %"struct.std::_Vector_base.27"* %6, i32 0, i32 0
  %8 = getelementptr inbounds %"struct.std::_Vector_base<Edge, std::allocator<Edge> >::_Vector_impl", %"struct.std::_Vector_base<Edge, std::allocator<Edge> >::_Vector_impl"* %7, i32 0, i32 1
  %9 = load %struct.Edge*, %struct.Edge** %8, align 8
  store %struct.Edge* %9, %struct.Edge** %4, align 8
  call void @_ZN9__gnu_cxx17__normal_iteratorIPK4EdgeSt6vectorIS1_SaIS1_EEEC2ERKS3_(%"class.__gnu_cxx::__normal_iterator"* %2, %struct.Edge** dereferenceable(8) %4) #3
  %10 = getelementptr inbounds %"class.__gnu_cxx::__normal_iterator", %"class.__gnu_cxx::__normal_iterator"* %2, i32 0, i32 0
  %11 = load %struct.Edge*, %struct.Edge** %10, align 8
  ret %struct.Edge* %11
}

; Function Attrs: noinline nounwind uwtable
define linkonce_odr zeroext i1 @_ZN9__gnu_cxxneIPK4EdgeSt6vectorIS1_SaIS1_EEEEbRKNS_17__normal_iteratorIT_T0_EESC_(%"class.__gnu_cxx::__normal_iterator"* dereferenceable(8), %"class.__gnu_cxx::__normal_iterator"* dereferenceable(8)) #4 comdat {
  %3 = alloca %"class.__gnu_cxx::__normal_iterator"*, align 8
  %4 = alloca %"class.__gnu_cxx::__normal_iterator"*, align 8
  store %"class.__gnu_cxx::__normal_iterator"* %0, %"class.__gnu_cxx::__normal_iterator"** %3, align 8
  store %"class.__gnu_cxx::__normal_iterator"* %1, %"class.__gnu_cxx::__normal_iterator"** %4, align 8
  %5 = load %"class.__gnu_cxx::__normal_iterator"*, %"class.__gnu_cxx::__normal_iterator"** %3, align 8
  %6 = call dereferenceable(8) %struct.Edge** @_ZNK9__gnu_cxx17__normal_iteratorIPK4EdgeSt6vectorIS1_SaIS1_EEE4baseEv(%"class.__gnu_cxx::__normal_iterator"* %5) #3
  %7 = load %struct.Edge*, %struct.Edge** %6, align 8
  %8 = load %"class.__gnu_cxx::__normal_iterator"*, %"class.__gnu_cxx::__normal_iterator"** %4, align 8
  %9 = call dereferenceable(8) %struct.Edge** @_ZNK9__gnu_cxx17__normal_iteratorIPK4EdgeSt6vectorIS1_SaIS1_EEE4baseEv(%"class.__gnu_cxx::__normal_iterator"* %8) #3
  %10 = load %struct.Edge*, %struct.Edge** %9, align 8
  %11 = icmp ne %struct.Edge* %7, %10
  ret i1 %11
}

; Function Attrs: noinline nounwind uwtable
define linkonce_odr dereferenceable(16) %struct.Edge* @_ZNK9__gnu_cxx17__normal_iteratorIPK4EdgeSt6vectorIS1_SaIS1_EEEdeEv(%"class.__gnu_cxx::__normal_iterator"*) #4 comdat align 2 {
  %2 = alloca %"class.__gnu_cxx::__normal_iterator"*, align 8
  store %"class.__gnu_cxx::__normal_iterator"* %0, %"class.__gnu_cxx::__normal_iterator"** %2, align 8
  %3 = load %"class.__gnu_cxx::__normal_iterator"*, %"class.__gnu_cxx::__normal_iterator"** %2, align 8
  %4 = getelementptr inbounds %"class.__gnu_cxx::__normal_iterator", %"class.__gnu_cxx::__normal_iterator"* %3, i32 0, i32 0
  %5 = load %struct.Edge*, %struct.Edge** %4, align 8
  ret %struct.Edge* %5
}

; Function Attrs: noinline uwtable
define linkonce_odr void @_ZNSt14priority_queueISt4pairIxxESt6vectorIS1_SaIS1_EESt7greaterIS1_EE7emplaceIJRxRKxEEEvDpOT_(%"class.std::priority_queue"*, i64* dereferenceable(8), i64* dereferenceable(8)) #0 comdat align 2 {
  %4 = alloca %"class.std::priority_queue"*, align 8
  %5 = alloca i64*, align 8
  %6 = alloca i64*, align 8
  %7 = alloca %"class.__gnu_cxx::__normal_iterator.53", align 8
  %8 = alloca %"class.__gnu_cxx::__normal_iterator.53", align 8
  %9 = alloca %"struct.std::greater", align 1
  store %"class.std::priority_queue"* %0, %"class.std::priority_queue"** %4, align 8
  store i64* %1, i64** %5, align 8
  store i64* %2, i64** %6, align 8
  %10 = load %"class.std::priority_queue"*, %"class.std::priority_queue"** %4, align 8
  %11 = getelementptr inbounds %"class.std::priority_queue", %"class.std::priority_queue"* %10, i32 0, i32 0
  %12 = load i64*, i64** %5, align 8
  %13 = call dereferenceable(8) i64* @_ZSt7forwardIRxEOT_RNSt16remove_referenceIS1_E4typeE(i64* dereferenceable(8) %12) #3
  %14 = load i64*, i64** %6, align 8
  %15 = call dereferenceable(8) i64* @_ZSt7forwardIRKxEOT_RNSt16remove_referenceIS2_E4typeE(i64* dereferenceable(8) %14) #3
  call void @_ZNSt6vectorISt4pairIxxESaIS1_EE12emplace_backIJRxRKxEEEvDpOT_(%"class.std::vector.31"* %11, i64* dereferenceable(8) %13, i64* dereferenceable(8) %15)
  %16 = getelementptr inbounds %"class.std::priority_queue", %"class.std::priority_queue"* %10, i32 0, i32 0
  %17 = call %"struct.std::pair.36"* @_ZNSt6vectorISt4pairIxxESaIS1_EE5beginEv(%"class.std::vector.31"* %16) #3
  %18 = getelementptr inbounds %"class.__gnu_cxx::__normal_iterator.53", %"class.__gnu_cxx::__normal_iterator.53"* %7, i32 0, i32 0
  store %"struct.std::pair.36"* %17, %"struct.std::pair.36"** %18, align 8
  %19 = getelementptr inbounds %"class.std::priority_queue", %"class.std::priority_queue"* %10, i32 0, i32 0
  %20 = call %"struct.std::pair.36"* @_ZNSt6vectorISt4pairIxxESaIS1_EE3endEv(%"class.std::vector.31"* %19) #3
  %21 = getelementptr inbounds %"class.__gnu_cxx::__normal_iterator.53", %"class.__gnu_cxx::__normal_iterator.53"* %8, i32 0, i32 0
  store %"struct.std::pair.36"* %20, %"struct.std::pair.36"** %21, align 8
  %22 = getelementptr inbounds %"class.std::priority_queue", %"class.std::priority_queue"* %10, i32 0, i32 1
  %23 = getelementptr inbounds %"class.__gnu_cxx::__normal_iterator.53", %"class.__gnu_cxx::__normal_iterator.53"* %7, i32 0, i32 0
  %24 = load %"struct.std::pair.36"*, %"struct.std::pair.36"** %23, align 8
  %25 = getelementptr inbounds %"class.__gnu_cxx::__normal_iterator.53", %"class.__gnu_cxx::__normal_iterator.53"* %8, i32 0, i32 0
  %26 = load %"struct.std::pair.36"*, %"struct.std::pair.36"** %25, align 8
  call void @_ZSt9push_heapIN9__gnu_cxx17__normal_iteratorIPSt4pairIxxESt6vectorIS3_SaIS3_EEEESt7greaterIS3_EEvT_SB_T0_(%"struct.std::pair.36"* %24, %"struct.std::pair.36"* %26)
  ret void
}

; Function Attrs: noinline nounwind uwtable
define linkonce_odr dereferenceable(8) %"class.__gnu_cxx::__normal_iterator"* @_ZN9__gnu_cxx17__normal_iteratorIPK4EdgeSt6vectorIS1_SaIS1_EEEppEv(%"class.__gnu_cxx::__normal_iterator"*) #4 comdat align 2 {
  %2 = alloca %"class.__gnu_cxx::__normal_iterator"*, align 8
  store %"class.__gnu_cxx::__normal_iterator"* %0, %"class.__gnu_cxx::__normal_iterator"** %2, align 8
  %3 = load %"class.__gnu_cxx::__normal_iterator"*, %"class.__gnu_cxx::__normal_iterator"** %2, align 8
  %4 = getelementptr inbounds %"class.__gnu_cxx::__normal_iterator", %"class.__gnu_cxx::__normal_iterator"* %3, i32 0, i32 0
  %5 = load %struct.Edge*, %struct.Edge** %4, align 8
  %6 = getelementptr inbounds %struct.Edge, %struct.Edge* %5, i32 1
  store %struct.Edge* %6, %struct.Edge** %4, align 8
  ret %"class.__gnu_cxx::__normal_iterator"* %3
}

; Function Attrs: noinline nounwind uwtable
define linkonce_odr void @_ZNSt14priority_queueISt4pairIxxESt6vectorIS1_SaIS1_EESt7greaterIS1_EED2Ev(%"class.std::priority_queue"*) unnamed_addr #4 comdat align 2 {
  %2 = load i32, i32* @x.117
  %3 = load i32, i32* @y.118
  %4 = sub i32 %2, 1
  %5 = mul i32 %2, %4
  %6 = urem i32 %5, 2
  %7 = icmp eq i32 %6, 0
  %8 = icmp slt i32 %3, 10
  %9 = or i1 %7, %8
  br i1 %9, label %10, label %23

; <label>:10:                                     ; preds = %1, %23
  %11 = alloca %"class.std::priority_queue"*, align 8
  store %"class.std::priority_queue"* %0, %"class.std::priority_queue"** %11, align 8
  %12 = load %"class.std::priority_queue"*, %"class.std::priority_queue"** %11, align 8
  %13 = getelementptr inbounds %"class.std::priority_queue", %"class.std::priority_queue"* %12, i32 0, i32 0
  call void @_ZNSt6vectorISt4pairIxxESaIS1_EED2Ev(%"class.std::vector.31"* %13) #3
  %14 = load i32, i32* @x.117
  %15 = load i32, i32* @y.118
  %16 = sub i32 %14, 1
  %17 = mul i32 %14, %16
  %18 = urem i32 %17, 2
  %19 = icmp eq i32 %18, 0
  %20 = icmp slt i32 %15, 10
  %21 = or i1 %19, %20
  br i1 %21, label %22, label %23

; <label>:22:                                     ; preds = %10
  ret void

; <label>:23:                                     ; preds = %10, %1
  %24 = alloca %"class.std::priority_queue"*, align 8
  store %"class.std::priority_queue"* %0, %"class.std::priority_queue"** %24, align 8
  %25 = load %"class.std::priority_queue"*, %"class.std::priority_queue"** %24, align 8
  %26 = getelementptr inbounds %"class.std::priority_queue", %"class.std::priority_queue"* %25, i32 0, i32 0
  call void @_ZNSt6vectorISt4pairIxxESaIS1_EED2Ev(%"class.std::vector.31"* %26) #3
  br label %10
}

; Function Attrs: noinline uwtable
define void @_Z8get_pathRKSt6vectorIxSaIxEEx(%"class.std::vector.0"* noalias sret, %"class.std::vector.0"* dereferenceable(24), i64) #0 personality i8* bitcast (i32 (...)* @__gxx_personality_v0 to i8*) {
  %4 = alloca %"class.std::vector.0"*, align 8
  %5 = alloca i64, align 8
  %6 = alloca i1, align 1
  %7 = alloca i64, align 8
  %8 = alloca i8*
  %9 = alloca i32
  %10 = alloca %"class.__gnu_cxx::__normal_iterator.38", align 8
  %11 = alloca %"class.__gnu_cxx::__normal_iterator.38", align 8
  store %"class.std::vector.0"* %1, %"class.std::vector.0"** %4, align 8
  store i64 %2, i64* %5, align 8
  store i1 false, i1* %6, align 1
  call void @_ZNSt6vectorIxSaIxEEC2Ev(%"class.std::vector.0"* %0) #3
  %12 = load i64, i64* %5, align 8
  store i64 %12, i64* %7, align 8
  br label %13

; <label>:13:                                     ; preds = %54, %3
  %14 = load i32, i32* @x.119
  %15 = load i32, i32* @y.120
  %16 = sub i32 %14, 1
  %17 = mul i32 %14, %16
  %18 = urem i32 %17, 2
  %19 = icmp eq i32 %18, 0
  %20 = icmp slt i32 %15, 10
  %21 = or i1 %19, %20
  br i1 %21, label %22, label %99

; <label>:22:                                     ; preds = %13, %99
  %23 = load i64, i64* %7, align 8
  %24 = icmp ne i64 %23, -1
  %25 = load i32, i32* @x.119
  %26 = load i32, i32* @y.120
  %27 = sub i32 %25, 1
  %28 = mul i32 %25, %27
  %29 = urem i32 %28, 2
  %30 = icmp eq i32 %29, 0
  %31 = icmp slt i32 %26, 10
  %32 = or i1 %30, %31
  br i1 %32, label %33, label %99

; <label>:33:                                     ; preds = %22
  br i1 %24, label %34, label %63

; <label>:34:                                     ; preds = %33
  %35 = load i32, i32* @x.119
  %36 = load i32, i32* @y.120
  %37 = sub i32 %35, 1
  %38 = mul i32 %35, %37
  %39 = urem i32 %38, 2
  %40 = icmp eq i32 %39, 0
  %41 = icmp slt i32 %36, 10
  %42 = or i1 %40, %41
  br i1 %42, label %43, label %102

; <label>:43:                                     ; preds = %34, %102
  %44 = load i32, i32* @x.119
  %45 = load i32, i32* @y.120
  %46 = sub i32 %44, 1
  %47 = mul i32 %44, %46
  %48 = urem i32 %47, 2
  %49 = icmp eq i32 %48, 0
  %50 = icmp slt i32 %45, 10
  %51 = or i1 %49, %50
  br i1 %51, label %52, label %102

; <label>:52:                                     ; preds = %43
  invoke void @_ZNSt6vectorIxSaIxEE9push_backERKx(%"class.std::vector.0"* %0, i64* dereferenceable(8) %7)
          to label %53 unwind label %59

; <label>:53:                                     ; preds = %52
  br label %54

; <label>:54:                                     ; preds = %53
  %55 = load %"class.std::vector.0"*, %"class.std::vector.0"** %4, align 8
  %56 = load i64, i64* %7, align 8
  %57 = call dereferenceable(8) i64* @_ZNKSt6vectorIxSaIxEEixEm(%"class.std::vector.0"* %55, i64 %56) #3
  %58 = load i64, i64* %57, align 8
  store i64 %58, i64* %7, align 8
  br label %13

; <label>:59:                                     ; preds = %89, %52
  %60 = landingpad { i8*, i32 }
          cleanup
  %61 = extractvalue { i8*, i32 } %60, 0
  store i8* %61, i8** %8, align 8
  %62 = extractvalue { i8*, i32 } %60, 1
  store i32 %62, i32* %9, align 4
  call void @_ZNSt6vectorIxSaIxEED2Ev(%"class.std::vector.0"* %0) #3
  br label %94

; <label>:63:                                     ; preds = %33
  %64 = load i32, i32* @x.119
  %65 = load i32, i32* @y.120
  %66 = sub i32 %64, 1
  %67 = mul i32 %64, %66
  %68 = urem i32 %67, 2
  %69 = icmp eq i32 %68, 0
  %70 = icmp slt i32 %65, 10
  %71 = or i1 %69, %70
  br i1 %71, label %72, label %103

; <label>:72:                                     ; preds = %63, %103
  %73 = call i64* @_ZNSt6vectorIxSaIxEE5beginEv(%"class.std::vector.0"* %0) #3
  %74 = getelementptr inbounds %"class.__gnu_cxx::__normal_iterator.38", %"class.__gnu_cxx::__normal_iterator.38"* %10, i32 0, i32 0
  store i64* %73, i64** %74, align 8
  %75 = call i64* @_ZNSt6vectorIxSaIxEE3endEv(%"class.std::vector.0"* %0) #3
  %76 = getelementptr inbounds %"class.__gnu_cxx::__normal_iterator.38", %"class.__gnu_cxx::__normal_iterator.38"* %11, i32 0, i32 0
  store i64* %75, i64** %76, align 8
  %77 = getelementptr inbounds %"class.__gnu_cxx::__normal_iterator.38", %"class.__gnu_cxx::__normal_iterator.38"* %10, i32 0, i32 0
  %78 = load i64*, i64** %77, align 8
  %79 = getelementptr inbounds %"class.__gnu_cxx::__normal_iterator.38", %"class.__gnu_cxx::__normal_iterator.38"* %11, i32 0, i32 0
  %80 = load i64*, i64** %79, align 8
  %81 = load i32, i32* @x.119
  %82 = load i32, i32* @y.120
  %83 = sub i32 %81, 1
  %84 = mul i32 %81, %83
  %85 = urem i32 %84, 2
  %86 = icmp eq i32 %85, 0
  %87 = icmp slt i32 %82, 10
  %88 = or i1 %86, %87
  br i1 %88, label %89, label %103

; <label>:89:                                     ; preds = %72
  invoke void @_ZSt7reverseIN9__gnu_cxx17__normal_iteratorIPxSt6vectorIxSaIxEEEEEvT_S7_(i64* %78, i64* %80)
          to label %90 unwind label %59

; <label>:90:                                     ; preds = %89
  store i1 true, i1* %6, align 1
  %91 = load i1, i1* %6, align 1
  br i1 %91, label %93, label %92

; <label>:92:                                     ; preds = %90
  call void @_ZNSt6vectorIxSaIxEED2Ev(%"class.std::vector.0"* %0) #3
  br label %93

; <label>:93:                                     ; preds = %92, %90
  ret void

; <label>:94:                                     ; preds = %59
  %95 = load i8*, i8** %8, align 8
  %96 = load i32, i32* %9, align 4
  %97 = insertvalue { i8*, i32 } undef, i8* %95, 0
  %98 = insertvalue { i8*, i32 } %97, i32 %96, 1
  resume { i8*, i32 } %98

; <label>:99:                                     ; preds = %22, %13
  %100 = load i64, i64* %7, align 8
  %101 = icmp ne i64 %100, -1
  br label %22

; <label>:102:                                    ; preds = %43, %34
  br label %43

; <label>:103:                                    ; preds = %72, %63
  %104 = call i64* @_ZNSt6vectorIxSaIxEE5beginEv(%"class.std::vector.0"* %0) #3
  %105 = getelementptr inbounds %"class.__gnu_cxx::__normal_iterator.38", %"class.__gnu_cxx::__normal_iterator.38"* %10, i32 0, i32 0
  store i64* %104, i64** %105, align 8
  %106 = call i64* @_ZNSt6vectorIxSaIxEE3endEv(%"class.std::vector.0"* %0) #3
  %107 = getelementptr inbounds %"class.__gnu_cxx::__normal_iterator.38", %"class.__gnu_cxx::__normal_iterator.38"* %11, i32 0, i32 0
  store i64* %106, i64** %107, align 8
  %108 = getelementptr inbounds %"class.__gnu_cxx::__normal_iterator.38", %"class.__gnu_cxx::__normal_iterator.38"* %10, i32 0, i32 0
  %109 = load i64*, i64** %108, align 8
  %110 = getelementptr inbounds %"class.__gnu_cxx::__normal_iterator.38", %"class.__gnu_cxx::__normal_iterator.38"* %11, i32 0, i32 0
  %111 = load i64*, i64** %110, align 8
  br label %72
}

; Function Attrs: noinline nounwind uwtable
define linkonce_odr void @_ZNSt6vectorIxSaIxEEC2Ev(%"class.std::vector.0"*) unnamed_addr #4 comdat align 2 personality i8* bitcast (i32 (...)* @__gxx_personality_v0 to i8*) {
  %2 = alloca %"class.std::vector.0"*, align 8
  store %"class.std::vector.0"* %0, %"class.std::vector.0"** %2, align 8
  %3 = load %"class.std::vector.0"*, %"class.std::vector.0"** %2, align 8
  %4 = bitcast %"class.std::vector.0"* %3 to %"struct.std::_Vector_base.1"*
  invoke void @_ZNSt12_Vector_baseIxSaIxEEC2Ev(%"struct.std::_Vector_base.1"* %4)
          to label %5 unwind label %24

; <label>:5:                                      ; preds = %1
  %6 = load i32, i32* @x.121
  %7 = load i32, i32* @y.122
  %8 = sub i32 %6, 1
  %9 = mul i32 %6, %8
  %10 = urem i32 %9, 2
  %11 = icmp eq i32 %10, 0
  %12 = icmp slt i32 %7, 10
  %13 = or i1 %11, %12
  br i1 %13, label %14, label %27

; <label>:14:                                     ; preds = %5, %27
  %15 = load i32, i32* @x.121
  %16 = load i32, i32* @y.122
  %17 = sub i32 %15, 1
  %18 = mul i32 %15, %17
  %19 = urem i32 %18, 2
  %20 = icmp eq i32 %19, 0
  %21 = icmp slt i32 %16, 10
  %22 = or i1 %20, %21
  br i1 %22, label %23, label %27

; <label>:23:                                     ; preds = %14
  ret void

; <label>:24:                                     ; preds = %1
  %25 = landingpad { i8*, i32 }
          catch i8* null
  %26 = extractvalue { i8*, i32 } %25, 0
  call void @__clang_call_terminate(i8* %26) #12
  unreachable

; <label>:27:                                     ; preds = %14, %5
  br label %14
}

; Function Attrs: noinline nounwind uwtable
define linkonce_odr dereferenceable(8) i64* @_ZNKSt6vectorIxSaIxEEixEm(%"class.std::vector.0"*, i64) #4 comdat align 2 {
  %3 = alloca %"class.std::vector.0"*, align 8
  %4 = alloca i64, align 8
  store %"class.std::vector.0"* %0, %"class.std::vector.0"** %3, align 8
  store i64 %1, i64* %4, align 8
  %5 = load %"class.std::vector.0"*, %"class.std::vector.0"** %3, align 8
  %6 = bitcast %"class.std::vector.0"* %5 to %"struct.std::_Vector_base.1"*
  %7 = getelementptr inbounds %"struct.std::_Vector_base.1", %"struct.std::_Vector_base.1"* %6, i32 0, i32 0
  %8 = getelementptr inbounds %"struct.std::_Vector_base<long long, std::allocator<long long> >::_Vector_impl", %"struct.std::_Vector_base<long long, std::allocator<long long> >::_Vector_impl"* %7, i32 0, i32 0
  %9 = load i64*, i64** %8, align 8
  %10 = load i64, i64* %4, align 8
  %11 = getelementptr inbounds i64, i64* %9, i64 %10
  ret i64* %11
}

; Function Attrs: noinline uwtable
define linkonce_odr void @_ZSt7reverseIN9__gnu_cxx17__normal_iteratorIPxSt6vectorIxSaIxEEEEEvT_S7_(i64*, i64*) #0 comdat {
  %3 = load i32, i32* @x.125
  %4 = load i32, i32* @y.126
  %5 = sub i32 %3, 1
  %6 = mul i32 %3, %5
  %7 = urem i32 %6, 2
  %8 = icmp eq i32 %7, 0
  %9 = icmp slt i32 %4, 10
  %10 = or i1 %8, %9
  br i1 %10, label %11, label %37

; <label>:11:                                     ; preds = %2, %37
  %12 = alloca %"class.__gnu_cxx::__normal_iterator.38", align 8
  %13 = alloca %"class.__gnu_cxx::__normal_iterator.38", align 8
  %14 = alloca %"class.__gnu_cxx::__normal_iterator.38", align 8
  %15 = alloca %"class.__gnu_cxx::__normal_iterator.38", align 8
  %16 = alloca %"struct.std::random_access_iterator_tag", align 1
  %17 = alloca %"struct.std::random_access_iterator_tag", align 1
  %18 = getelementptr inbounds %"class.__gnu_cxx::__normal_iterator.38", %"class.__gnu_cxx::__normal_iterator.38"* %12, i32 0, i32 0
  store i64* %0, i64** %18, align 8
  %19 = getelementptr inbounds %"class.__gnu_cxx::__normal_iterator.38", %"class.__gnu_cxx::__normal_iterator.38"* %13, i32 0, i32 0
  store i64* %1, i64** %19, align 8
  %20 = bitcast %"class.__gnu_cxx::__normal_iterator.38"* %14 to i8*
  %21 = bitcast %"class.__gnu_cxx::__normal_iterator.38"* %12 to i8*
  call void @llvm.memcpy.p0i8.p0i8.i64(i8* %20, i8* %21, i64 8, i32 8, i1 false)
  %22 = bitcast %"class.__gnu_cxx::__normal_iterator.38"* %15 to i8*
  %23 = bitcast %"class.__gnu_cxx::__normal_iterator.38"* %13 to i8*
  call void @llvm.memcpy.p0i8.p0i8.i64(i8* %22, i8* %23, i64 8, i32 8, i1 false)
  call void @_ZSt19__iterator_categoryIN9__gnu_cxx17__normal_iteratorIPxSt6vectorIxSaIxEEEEENSt15iterator_traitsIT_E17iterator_categoryERKS8_(%"class.__gnu_cxx::__normal_iterator.38"* dereferenceable(8) %12)
  %24 = getelementptr inbounds %"class.__gnu_cxx::__normal_iterator.38", %"class.__gnu_cxx::__normal_iterator.38"* %14, i32 0, i32 0
  %25 = load i64*, i64** %24, align 8
  %26 = getelementptr inbounds %"class.__gnu_cxx::__normal_iterator.38", %"class.__gnu_cxx::__normal_iterator.38"* %15, i32 0, i32 0
  %27 = load i64*, i64** %26, align 8
  call void @_ZSt9__reverseIN9__gnu_cxx17__normal_iteratorIPxSt6vectorIxSaIxEEEEEvT_S7_St26random_access_iterator_tag(i64* %25, i64* %27)
  %28 = load i32, i32* @x.125
  %29 = load i32, i32* @y.126
  %30 = sub i32 %28, 1
  %31 = mul i32 %28, %30
  %32 = urem i32 %31, 2
  %33 = icmp eq i32 %32, 0
  %34 = icmp slt i32 %29, 10
  %35 = or i1 %33, %34
  br i1 %35, label %36, label %37

; <label>:36:                                     ; preds = %11
  ret void

; <label>:37:                                     ; preds = %11, %2
  %38 = alloca %"class.__gnu_cxx::__normal_iterator.38", align 8
  %39 = alloca %"class.__gnu_cxx::__normal_iterator.38", align 8
  %40 = alloca %"class.__gnu_cxx::__normal_iterator.38", align 8
  %41 = alloca %"class.__gnu_cxx::__normal_iterator.38", align 8
  %42 = alloca %"struct.std::random_access_iterator_tag", align 1
  %43 = alloca %"struct.std::random_access_iterator_tag", align 1
  %44 = getelementptr inbounds %"class.__gnu_cxx::__normal_iterator.38", %"class.__gnu_cxx::__normal_iterator.38"* %38, i32 0, i32 0
  store i64* %0, i64** %44, align 8
  %45 = getelementptr inbounds %"class.__gnu_cxx::__normal_iterator.38", %"class.__gnu_cxx::__normal_iterator.38"* %39, i32 0, i32 0
  store i64* %1, i64** %45, align 8
  %46 = bitcast %"class.__gnu_cxx::__normal_iterator.38"* %40 to i8*
  %47 = bitcast %"class.__gnu_cxx::__normal_iterator.38"* %38 to i8*
  call void @llvm.memcpy.p0i8.p0i8.i64(i8* %46, i8* %47, i64 8, i32 8, i1 false)
  %48 = bitcast %"class.__gnu_cxx::__normal_iterator.38"* %41 to i8*
  %49 = bitcast %"class.__gnu_cxx::__normal_iterator.38"* %39 to i8*
  call void @llvm.memcpy.p0i8.p0i8.i64(i8* %48, i8* %49, i64 8, i32 8, i1 false)
  call void @_ZSt19__iterator_categoryIN9__gnu_cxx17__normal_iteratorIPxSt6vectorIxSaIxEEEEENSt15iterator_traitsIT_E17iterator_categoryERKS8_(%"class.__gnu_cxx::__normal_iterator.38"* dereferenceable(8) %38)
  %50 = getelementptr inbounds %"class.__gnu_cxx::__normal_iterator.38", %"class.__gnu_cxx::__normal_iterator.38"* %40, i32 0, i32 0
  %51 = load i64*, i64** %50, align 8
  %52 = getelementptr inbounds %"class.__gnu_cxx::__normal_iterator.38", %"class.__gnu_cxx::__normal_iterator.38"* %41, i32 0, i32 0
  %53 = load i64*, i64** %52, align 8
  call void @_ZSt9__reverseIN9__gnu_cxx17__normal_iteratorIPxSt6vectorIxSaIxEEEEEvT_S7_St26random_access_iterator_tag(i64* %51, i64* %53)
  br label %11
}

; Function Attrs: noinline nounwind uwtable
define linkonce_odr i64* @_ZNSt6vectorIxSaIxEE5beginEv(%"class.std::vector.0"*) #4 comdat align 2 {
  %2 = alloca %"class.__gnu_cxx::__normal_iterator.38", align 8
  %3 = alloca %"class.std::vector.0"*, align 8
  store %"class.std::vector.0"* %0, %"class.std::vector.0"** %3, align 8
  %4 = load %"class.std::vector.0"*, %"class.std::vector.0"** %3, align 8
  %5 = bitcast %"class.std::vector.0"* %4 to %"struct.std::_Vector_base.1"*
  %6 = getelementptr inbounds %"struct.std::_Vector_base.1", %"struct.std::_Vector_base.1"* %5, i32 0, i32 0
  %7 = getelementptr inbounds %"struct.std::_Vector_base<long long, std::allocator<long long> >::_Vector_impl", %"struct.std::_Vector_base<long long, std::allocator<long long> >::_Vector_impl"* %6, i32 0, i32 0
  call void @_ZN9__gnu_cxx17__normal_iteratorIPxSt6vectorIxSaIxEEEC2ERKS1_(%"class.__gnu_cxx::__normal_iterator.38"* %2, i64** dereferenceable(8) %7) #3
  %8 = getelementptr inbounds %"class.__gnu_cxx::__normal_iterator.38", %"class.__gnu_cxx::__normal_iterator.38"* %2, i32 0, i32 0
  %9 = load i64*, i64** %8, align 8
  ret i64* %9
}

; Function Attrs: noinline nounwind uwtable
define linkonce_odr i64* @_ZNSt6vectorIxSaIxEE3endEv(%"class.std::vector.0"*) #4 comdat align 2 {
  %2 = alloca %"class.__gnu_cxx::__normal_iterator.38", align 8
  %3 = alloca %"class.std::vector.0"*, align 8
  store %"class.std::vector.0"* %0, %"class.std::vector.0"** %3, align 8
  %4 = load %"class.std::vector.0"*, %"class.std::vector.0"** %3, align 8
  %5 = bitcast %"class.std::vector.0"* %4 to %"struct.std::_Vector_base.1"*
  %6 = getelementptr inbounds %"struct.std::_Vector_base.1", %"struct.std::_Vector_base.1"* %5, i32 0, i32 0
  %7 = getelementptr inbounds %"struct.std::_Vector_base<long long, std::allocator<long long> >::_Vector_impl", %"struct.std::_Vector_base<long long, std::allocator<long long> >::_Vector_impl"* %6, i32 0, i32 1
  call void @_ZN9__gnu_cxx17__normal_iteratorIPxSt6vectorIxSaIxEEEC2ERKS1_(%"class.__gnu_cxx::__normal_iterator.38"* %2, i64** dereferenceable(8) %7) #3
  %8 = getelementptr inbounds %"class.__gnu_cxx::__normal_iterator.38", %"class.__gnu_cxx::__normal_iterator.38"* %2, i32 0, i32 0
  %9 = load i64*, i64** %8, align 8
  ret i64* %9
}

; Function Attrs: noinline uwtable
define void @_Z5splitRNSt7__cxx1112basic_stringIcSt11char_traitsIcESaIcEEEc(%"class.std::vector.39"* noalias sret, %"class.std::__cxx11::basic_string"* dereferenceable(32), i8 signext) #0 personality i8* bitcast (i32 (...)* @__gxx_personality_v0 to i8*) {
  %4 = load i32, i32* @x.131
  %5 = load i32, i32* @y.132
  %6 = sub i32 %4, 1
  %7 = mul i32 %4, %6
  %8 = urem i32 %7, 2
  %9 = icmp eq i32 %8, 0
  %10 = icmp slt i32 %5, 10
  %11 = or i1 %9, %10
  br i1 %11, label %12, label %143

; <label>:12:                                     ; preds = %3, %143
  %13 = alloca %"class.std::__cxx11::basic_string"*, align 8
  %14 = alloca i8, align 1
  %15 = alloca i1, align 1
  %16 = alloca %"class.std::__cxx11::basic_stringstream", align 8
  %17 = alloca i8*
  %18 = alloca i32
  %19 = alloca %"class.std::__cxx11::basic_string", align 8
  store %"class.std::__cxx11::basic_string"* %1, %"class.std::__cxx11::basic_string"** %13, align 8
  store i8 %2, i8* %14, align 1
  store i1 false, i1* %15, align 1
  call void @_ZNSt6vectorINSt7__cxx1112basic_stringIcSt11char_traitsIcESaIcEEESaIS5_EEC2Ev(%"class.std::vector.39"* %0) #3
  %20 = load %"class.std::__cxx11::basic_string"*, %"class.std::__cxx11::basic_string"** %13, align 8
  %21 = load i32, i32* @x.131
  %22 = load i32, i32* @y.132
  %23 = sub i32 %21, 1
  %24 = mul i32 %21, %23
  %25 = urem i32 %24, 2
  %26 = icmp eq i32 %25, 0
  %27 = icmp slt i32 %22, 10
  %28 = or i1 %26, %27
  br i1 %28, label %29, label %143

; <label>:29:                                     ; preds = %12
  %30 = invoke i32 @_ZStorSt13_Ios_OpenmodeS_(i32 16, i32 8)
          to label %31 unwind label %106

; <label>:31:                                     ; preds = %29
  invoke void @_ZNSt7__cxx1118basic_stringstreamIcSt11char_traitsIcESaIcEEC1ERKNS_12basic_stringIcS2_S3_EESt13_Ios_Openmode(%"class.std::__cxx11::basic_stringstream"* %16, %"class.std::__cxx11::basic_string"* dereferenceable(32) %20, i32 %30)
          to label %32 unwind label %106

; <label>:32:                                     ; preds = %31
  %33 = load i32, i32* @x.131
  %34 = load i32, i32* @y.132
  %35 = sub i32 %33, 1
  %36 = mul i32 %33, %35
  %37 = urem i32 %36, 2
  %38 = icmp eq i32 %37, 0
  %39 = icmp slt i32 %34, 10
  %40 = or i1 %38, %39
  br i1 %40, label %41, label %152

; <label>:41:                                     ; preds = %32, %152
  call void @_ZNSt7__cxx1112basic_stringIcSt11char_traitsIcESaIcEEC1Ev(%"class.std::__cxx11::basic_string"* %19) #3
  %42 = load i32, i32* @x.131
  %43 = load i32, i32* @y.132
  %44 = sub i32 %42, 1
  %45 = mul i32 %42, %44
  %46 = urem i32 %45, 2
  %47 = icmp eq i32 %46, 0
  %48 = icmp slt i32 %43, 10
  %49 = or i1 %47, %48
  br i1 %49, label %50, label %152

; <label>:50:                                     ; preds = %41
  br label %51

; <label>:51:                                     ; preds = %114, %50
  %52 = bitcast %"class.std::__cxx11::basic_stringstream"* %16 to %"class.std::basic_istream"*
  %53 = load i8, i8* %14, align 1
  %54 = invoke dereferenceable(280) %"class.std::basic_istream"* @_ZSt7getlineIcSt11char_traitsIcESaIcEERSt13basic_istreamIT_T0_ES7_RNSt7__cxx1112basic_stringIS4_S5_T1_EES4_(%"class.std::basic_istream"* dereferenceable(280) %52, %"class.std::__cxx11::basic_string"* dereferenceable(32) %19, i8 signext %53)
          to label %55 unwind label %110

; <label>:55:                                     ; preds = %51
  %56 = load i32, i32* @x.131
  %57 = load i32, i32* @y.132
  %58 = sub i32 %56, 1
  %59 = mul i32 %56, %58
  %60 = urem i32 %59, 2
  %61 = icmp eq i32 %60, 0
  %62 = icmp slt i32 %57, 10
  %63 = or i1 %61, %62
  br i1 %63, label %64, label %153

; <label>:64:                                     ; preds = %55, %153
  %65 = bitcast %"class.std::basic_istream"* %54 to i8**
  %66 = load i8*, i8** %65, align 8
  %67 = getelementptr i8, i8* %66, i64 -24
  %68 = bitcast i8* %67 to i64*
  %69 = load i64, i64* %68, align 8
  %70 = bitcast %"class.std::basic_istream"* %54 to i8*
  %71 = getelementptr inbounds i8, i8* %70, i64 %69
  %72 = bitcast i8* %71 to %"class.std::basic_ios"*
  %73 = load i32, i32* @x.131
  %74 = load i32, i32* @y.132
  %75 = sub i32 %73, 1
  %76 = mul i32 %73, %75
  %77 = urem i32 %76, 2
  %78 = icmp eq i32 %77, 0
  %79 = icmp slt i32 %74, 10
  %80 = or i1 %78, %79
  br i1 %80, label %81, label %153

; <label>:81:                                     ; preds = %64
  %82 = invoke zeroext i1 @_ZNKSt9basic_iosIcSt11char_traitsIcEEcvbEv(%"class.std::basic_ios"* %72)
          to label %83 unwind label %110

; <label>:83:                                     ; preds = %81
  br i1 %82, label %84, label %115

; <label>:84:                                     ; preds = %83
  %85 = call zeroext i1 @_ZNKSt7__cxx1112basic_stringIcSt11char_traitsIcESaIcEE5emptyEv(%"class.std::__cxx11::basic_string"* %19) #3
  br i1 %85, label %114, label %86

; <label>:86:                                     ; preds = %84
  %87 = load i32, i32* @x.131
  %88 = load i32, i32* @y.132
  %89 = sub i32 %87, 1
  %90 = mul i32 %87, %89
  %91 = urem i32 %90, 2
  %92 = icmp eq i32 %91, 0
  %93 = icmp slt i32 %88, 10
  %94 = or i1 %92, %93
  br i1 %94, label %95, label %162

; <label>:95:                                     ; preds = %86, %162
  %96 = load i32, i32* @x.131
  %97 = load i32, i32* @y.132
  %98 = sub i32 %96, 1
  %99 = mul i32 %96, %98
  %100 = urem i32 %99, 2
  %101 = icmp eq i32 %100, 0
  %102 = icmp slt i32 %97, 10
  %103 = or i1 %101, %102
  br i1 %103, label %104, label %162

; <label>:104:                                    ; preds = %95
  invoke void @_ZNSt6vectorINSt7__cxx1112basic_stringIcSt11char_traitsIcESaIcEEESaIS5_EE9push_backERKS5_(%"class.std::vector.39"* %0, %"class.std::__cxx11::basic_string"* dereferenceable(32) %19)
          to label %105 unwind label %110

; <label>:105:                                    ; preds = %104
  br label %114

; <label>:106:                                    ; preds = %31, %29
  %107 = landingpad { i8*, i32 }
          cleanup
  %108 = extractvalue { i8*, i32 } %107, 0
  store i8* %108, i8** %17, align 8
  %109 = extractvalue { i8*, i32 } %107, 1
  store i32 %109, i32* %18, align 4
  br label %137

; <label>:110:                                    ; preds = %104, %81, %51
  %111 = landingpad { i8*, i32 }
          cleanup
  %112 = extractvalue { i8*, i32 } %111, 0
  store i8* %112, i8** %17, align 8
  %113 = extractvalue { i8*, i32 } %111, 1
  store i32 %113, i32* %18, align 4
  call void @_ZNSt7__cxx1112basic_stringIcSt11char_traitsIcESaIcEED1Ev(%"class.std::__cxx11::basic_string"* %19) #3
  call void @_ZNSt7__cxx1118basic_stringstreamIcSt11char_traitsIcESaIcEED1Ev(%"class.std::__cxx11::basic_stringstream"* %16) #3
  br label %137

; <label>:114:                                    ; preds = %105, %84
  br label %51

; <label>:115:                                    ; preds = %83
  store i1 true, i1* %15, align 1
  call void @_ZNSt7__cxx1112basic_stringIcSt11char_traitsIcESaIcEED1Ev(%"class.std::__cxx11::basic_string"* %19) #3
  call void @_ZNSt7__cxx1118basic_stringstreamIcSt11char_traitsIcESaIcEED1Ev(%"class.std::__cxx11::basic_stringstream"* %16) #3
  %116 = load i1, i1* %15, align 1
  br i1 %116, label %118, label %117

; <label>:117:                                    ; preds = %115
  call void @_ZNSt6vectorINSt7__cxx1112basic_stringIcSt11char_traitsIcESaIcEEESaIS5_EED2Ev(%"class.std::vector.39"* %0) #3
  br label %118

; <label>:118:                                    ; preds = %117, %115
  %119 = load i32, i32* @x.131
  %120 = load i32, i32* @y.132
  %121 = sub i32 %119, 1
  %122 = mul i32 %119, %121
  %123 = urem i32 %122, 2
  %124 = icmp eq i32 %123, 0
  %125 = icmp slt i32 %120, 10
  %126 = or i1 %124, %125
  br i1 %126, label %127, label %163

; <label>:127:                                    ; preds = %118, %163
  %128 = load i32, i32* @x.131
  %129 = load i32, i32* @y.132
  %130 = sub i32 %128, 1
  %131 = mul i32 %128, %130
  %132 = urem i32 %131, 2
  %133 = icmp eq i32 %132, 0
  %134 = icmp slt i32 %129, 10
  %135 = or i1 %133, %134
  br i1 %135, label %136, label %163

; <label>:136:                                    ; preds = %127
  ret void

; <label>:137:                                    ; preds = %110, %106
  call void @_ZNSt6vectorINSt7__cxx1112basic_stringIcSt11char_traitsIcESaIcEEESaIS5_EED2Ev(%"class.std::vector.39"* %0) #3
  br label %138

; <label>:138:                                    ; preds = %137
  %139 = load i8*, i8** %17, align 8
  %140 = load i32, i32* %18, align 4
  %141 = insertvalue { i8*, i32 } undef, i8* %139, 0
  %142 = insertvalue { i8*, i32 } %141, i32 %140, 1
  resume { i8*, i32 } %142

; <label>:143:                                    ; preds = %12, %3
  %144 = alloca %"class.std::__cxx11::basic_string"*, align 8
  %145 = alloca i8, align 1
  %146 = alloca i1, align 1
  %147 = alloca %"class.std::__cxx11::basic_stringstream", align 8
  %148 = alloca i8*
  %149 = alloca i32
  %150 = alloca %"class.std::__cxx11::basic_string", align 8
  store %"class.std::__cxx11::basic_string"* %1, %"class.std::__cxx11::basic_string"** %144, align 8
  store i8 %2, i8* %145, align 1
  store i1 false, i1* %146, align 1
  call void @_ZNSt6vectorINSt7__cxx1112basic_stringIcSt11char_traitsIcESaIcEEESaIS5_EEC2Ev(%"class.std::vector.39"* %0) #3
  %151 = load %"class.std::__cxx11::basic_string"*, %"class.std::__cxx11::basic_string"** %144, align 8
  br label %12

; <label>:152:                                    ; preds = %41, %32
  call void @_ZNSt7__cxx1112basic_stringIcSt11char_traitsIcESaIcEEC1Ev(%"class.std::__cxx11::basic_string"* %19) #3
  br label %41

; <label>:153:                                    ; preds = %64, %55
  %154 = bitcast %"class.std::basic_istream"* %54 to i8**
  %155 = load i8*, i8** %154, align 8
  %156 = getelementptr i8, i8* %155, i64 -24
  %157 = bitcast i8* %156 to i64*
  %158 = load i64, i64* %157, align 8
  %159 = bitcast %"class.std::basic_istream"* %54 to i8*
  %160 = getelementptr inbounds i8, i8* %159, i64 %158
  %161 = bitcast i8* %160 to %"class.std::basic_ios"*
  br label %64

; <label>:162:                                    ; preds = %95, %86
  br label %95

; <label>:163:                                    ; preds = %127, %118
  br label %127
}

; Function Attrs: noinline nounwind uwtable
define linkonce_odr void @_ZNSt6vectorINSt7__cxx1112basic_stringIcSt11char_traitsIcESaIcEEESaIS5_EEC2Ev(%"class.std::vector.39"*) unnamed_addr #4 comdat align 2 personality i8* bitcast (i32 (...)* @__gxx_personality_v0 to i8*) {
  %2 = alloca %"class.std::vector.39"*, align 8
  store %"class.std::vector.39"* %0, %"class.std::vector.39"** %2, align 8
  %3 = load %"class.std::vector.39"*, %"class.std::vector.39"** %2, align 8
  %4 = bitcast %"class.std::vector.39"* %3 to %"struct.std::_Vector_base.40"*
  invoke void @_ZNSt12_Vector_baseINSt7__cxx1112basic_stringIcSt11char_traitsIcESaIcEEESaIS5_EEC2Ev(%"struct.std::_Vector_base.40"* %4)
          to label %5 unwind label %24

; <label>:5:                                      ; preds = %1
  %6 = load i32, i32* @x.133
  %7 = load i32, i32* @y.134
  %8 = sub i32 %6, 1
  %9 = mul i32 %6, %8
  %10 = urem i32 %9, 2
  %11 = icmp eq i32 %10, 0
  %12 = icmp slt i32 %7, 10
  %13 = or i1 %11, %12
  br i1 %13, label %14, label %45

; <label>:14:                                     ; preds = %5, %45
  %15 = load i32, i32* @x.133
  %16 = load i32, i32* @y.134
  %17 = sub i32 %15, 1
  %18 = mul i32 %15, %17
  %19 = urem i32 %18, 2
  %20 = icmp eq i32 %19, 0
  %21 = icmp slt i32 %16, 10
  %22 = or i1 %20, %21
  br i1 %22, label %23, label %45

; <label>:23:                                     ; preds = %14
  ret void

; <label>:24:                                     ; preds = %1
  %25 = load i32, i32* @x.133
  %26 = load i32, i32* @y.134
  %27 = sub i32 %25, 1
  %28 = mul i32 %25, %27
  %29 = urem i32 %28, 2
  %30 = icmp eq i32 %29, 0
  %31 = icmp slt i32 %26, 10
  %32 = or i1 %30, %31
  br i1 %32, label %33, label %46

; <label>:33:                                     ; preds = %24, %46
  %34 = landingpad { i8*, i32 }
          catch i8* null
  %35 = extractvalue { i8*, i32 } %34, 0
  call void @__clang_call_terminate(i8* %35) #12
  %36 = load i32, i32* @x.133
  %37 = load i32, i32* @y.134
  %38 = sub i32 %36, 1
  %39 = mul i32 %36, %38
  %40 = urem i32 %39, 2
  %41 = icmp eq i32 %40, 0
  %42 = icmp slt i32 %37, 10
  %43 = or i1 %41, %42
  br i1 %43, label %44, label %46

; <label>:44:                                     ; preds = %33
  unreachable

; <label>:45:                                     ; preds = %14, %5
  br label %14

; <label>:46:                                     ; preds = %33, %24
  %47 = landingpad { i8*, i32 }
          catch i8* null
  %48 = extractvalue { i8*, i32 } %47, 0
  call void @__clang_call_terminate(i8* %48) #12
  br label %33
}

; Function Attrs: noinline nounwind uwtable
define linkonce_odr i32 @_ZStorSt13_Ios_OpenmodeS_(i32, i32) #4 comdat {
  %3 = alloca i32, align 4
  %4 = alloca i32, align 4
  store i32 %0, i32* %3, align 4
  store i32 %1, i32* %4, align 4
  %5 = load i32, i32* %3, align 4
  %6 = load i32, i32* %4, align 4
  %7 = or i32 %5, %6
  ret i32 %7
}

declare void @_ZNSt7__cxx1118basic_stringstreamIcSt11char_traitsIcESaIcEEC1ERKNS_12basic_stringIcS2_S3_EESt13_Ios_Openmode(%"class.std::__cxx11::basic_stringstream"*, %"class.std::__cxx11::basic_string"* dereferenceable(32), i32) unnamed_addr #1

; Function Attrs: nounwind
declare void @_ZNSt7__cxx1112basic_stringIcSt11char_traitsIcESaIcEEC1Ev(%"class.std::__cxx11::basic_string"*) unnamed_addr #2

declare dereferenceable(280) %"class.std::basic_istream"* @_ZSt7getlineIcSt11char_traitsIcESaIcEERSt13basic_istreamIT_T0_ES7_RNSt7__cxx1112basic_stringIS4_S5_T1_EES4_(%"class.std::basic_istream"* dereferenceable(280), %"class.std::__cxx11::basic_string"* dereferenceable(32), i8 signext) #1

declare zeroext i1 @_ZNKSt9basic_iosIcSt11char_traitsIcEEcvbEv(%"class.std::basic_ios"*) #1

; Function Attrs: nounwind
declare zeroext i1 @_ZNKSt7__cxx1112basic_stringIcSt11char_traitsIcESaIcEE5emptyEv(%"class.std::__cxx11::basic_string"*) #2

; Function Attrs: noinline uwtable
define linkonce_odr void @_ZNSt6vectorINSt7__cxx1112basic_stringIcSt11char_traitsIcESaIcEEESaIS5_EE9push_backERKS5_(%"class.std::vector.39"*, %"class.std::__cxx11::basic_string"* dereferenceable(32)) #0 comdat align 2 {
  %3 = load i32, i32* @x.137
  %4 = load i32, i32* @y.138
  %5 = sub i32 %3, 1
  %6 = mul i32 %3, %5
  %7 = urem i32 %6, 2
  %8 = icmp eq i32 %7, 0
  %9 = icmp slt i32 %4, 10
  %10 = or i1 %8, %9
  br i1 %10, label %11, label %86

; <label>:11:                                     ; preds = %2, %86
  %12 = alloca %"class.std::vector.39"*, align 8
  %13 = alloca %"class.std::__cxx11::basic_string"*, align 8
  store %"class.std::vector.39"* %0, %"class.std::vector.39"** %12, align 8
  store %"class.std::__cxx11::basic_string"* %1, %"class.std::__cxx11::basic_string"** %13, align 8
  %14 = load %"class.std::vector.39"*, %"class.std::vector.39"** %12, align 8
  %15 = bitcast %"class.std::vector.39"* %14 to %"struct.std::_Vector_base.40"*
  %16 = getelementptr inbounds %"struct.std::_Vector_base.40", %"struct.std::_Vector_base.40"* %15, i32 0, i32 0
  %17 = getelementptr inbounds %"struct.std::_Vector_base<std::__cxx11::basic_string<char>, std::allocator<std::__cxx11::basic_string<char> > >::_Vector_impl", %"struct.std::_Vector_base<std::__cxx11::basic_string<char>, std::allocator<std::__cxx11::basic_string<char> > >::_Vector_impl"* %16, i32 0, i32 1
  %18 = load %"class.std::__cxx11::basic_string"*, %"class.std::__cxx11::basic_string"** %17, align 8
  %19 = bitcast %"class.std::vector.39"* %14 to %"struct.std::_Vector_base.40"*
  %20 = getelementptr inbounds %"struct.std::_Vector_base.40", %"struct.std::_Vector_base.40"* %19, i32 0, i32 0
  %21 = getelementptr inbounds %"struct.std::_Vector_base<std::__cxx11::basic_string<char>, std::allocator<std::__cxx11::basic_string<char> > >::_Vector_impl", %"struct.std::_Vector_base<std::__cxx11::basic_string<char>, std::allocator<std::__cxx11::basic_string<char> > >::_Vector_impl"* %20, i32 0, i32 2
  %22 = load %"class.std::__cxx11::basic_string"*, %"class.std::__cxx11::basic_string"** %21, align 8
  %23 = icmp ne %"class.std::__cxx11::basic_string"* %18, %22
  %24 = load i32, i32* @x.137
  %25 = load i32, i32* @y.138
  %26 = sub i32 %24, 1
  %27 = mul i32 %24, %26
  %28 = urem i32 %27, 2
  %29 = icmp eq i32 %28, 0
  %30 = icmp slt i32 %25, 10
  %31 = or i1 %29, %30
  br i1 %31, label %32, label %86

; <label>:32:                                     ; preds = %11
  br i1 %23, label %33, label %47

; <label>:33:                                     ; preds = %32
  %34 = bitcast %"class.std::vector.39"* %14 to %"struct.std::_Vector_base.40"*
  %35 = getelementptr inbounds %"struct.std::_Vector_base.40", %"struct.std::_Vector_base.40"* %34, i32 0, i32 0
  %36 = bitcast %"struct.std::_Vector_base<std::__cxx11::basic_string<char>, std::allocator<std::__cxx11::basic_string<char> > >::_Vector_impl"* %35 to %"class.std::allocator.41"*
  %37 = bitcast %"class.std::vector.39"* %14 to %"struct.std::_Vector_base.40"*
  %38 = getelementptr inbounds %"struct.std::_Vector_base.40", %"struct.std::_Vector_base.40"* %37, i32 0, i32 0
  %39 = getelementptr inbounds %"struct.std::_Vector_base<std::__cxx11::basic_string<char>, std::allocator<std::__cxx11::basic_string<char> > >::_Vector_impl", %"struct.std::_Vector_base<std::__cxx11::basic_string<char>, std::allocator<std::__cxx11::basic_string<char> > >::_Vector_impl"* %38, i32 0, i32 1
  %40 = load %"class.std::__cxx11::basic_string"*, %"class.std::__cxx11::basic_string"** %39, align 8
  %41 = load %"class.std::__cxx11::basic_string"*, %"class.std::__cxx11::basic_string"** %13, align 8
  call void @_ZNSt16allocator_traitsISaINSt7__cxx1112basic_stringIcSt11char_traitsIcESaIcEEEEE9constructIS5_JRKS5_EEEvRS6_PT_DpOT0_(%"class.std::allocator.41"* dereferenceable(1) %36, %"class.std::__cxx11::basic_string"* %40, %"class.std::__cxx11::basic_string"* dereferenceable(32) %41)
  %42 = bitcast %"class.std::vector.39"* %14 to %"struct.std::_Vector_base.40"*
  %43 = getelementptr inbounds %"struct.std::_Vector_base.40", %"struct.std::_Vector_base.40"* %42, i32 0, i32 0
  %44 = getelementptr inbounds %"struct.std::_Vector_base<std::__cxx11::basic_string<char>, std::allocator<std::__cxx11::basic_string<char> > >::_Vector_impl", %"struct.std::_Vector_base<std::__cxx11::basic_string<char>, std::allocator<std::__cxx11::basic_string<char> > >::_Vector_impl"* %43, i32 0, i32 1
  %45 = load %"class.std::__cxx11::basic_string"*, %"class.std::__cxx11::basic_string"** %44, align 8
  %46 = getelementptr inbounds %"class.std::__cxx11::basic_string", %"class.std::__cxx11::basic_string"* %45, i32 1
  store %"class.std::__cxx11::basic_string"* %46, %"class.std::__cxx11::basic_string"** %44, align 8
  br label %67

; <label>:47:                                     ; preds = %32
  %48 = load i32, i32* @x.137
  %49 = load i32, i32* @y.138
  %50 = sub i32 %48, 1
  %51 = mul i32 %48, %50
  %52 = urem i32 %51, 2
  %53 = icmp eq i32 %52, 0
  %54 = icmp slt i32 %49, 10
  %55 = or i1 %53, %54
  br i1 %55, label %56, label %99

; <label>:56:                                     ; preds = %47, %99
  %57 = load %"class.std::__cxx11::basic_string"*, %"class.std::__cxx11::basic_string"** %13, align 8
  call void @_ZNSt6vectorINSt7__cxx1112basic_stringIcSt11char_traitsIcESaIcEEESaIS5_EE19_M_emplace_back_auxIJRKS5_EEEvDpOT_(%"class.std::vector.39"* %14, %"class.std::__cxx11::basic_string"* dereferenceable(32) %57)
  %58 = load i32, i32* @x.137
  %59 = load i32, i32* @y.138
  %60 = sub i32 %58, 1
  %61 = mul i32 %58, %60
  %62 = urem i32 %61, 2
  %63 = icmp eq i32 %62, 0
  %64 = icmp slt i32 %59, 10
  %65 = or i1 %63, %64
  br i1 %65, label %66, label %99

; <label>:66:                                     ; preds = %56
  br label %67

; <label>:67:                                     ; preds = %66, %33
  %68 = load i32, i32* @x.137
  %69 = load i32, i32* @y.138
  %70 = sub i32 %68, 1
  %71 = mul i32 %68, %70
  %72 = urem i32 %71, 2
  %73 = icmp eq i32 %72, 0
  %74 = icmp slt i32 %69, 10
  %75 = or i1 %73, %74
  br i1 %75, label %76, label %101

; <label>:76:                                     ; preds = %67, %101
  %77 = load i32, i32* @x.137
  %78 = load i32, i32* @y.138
  %79 = sub i32 %77, 1
  %80 = mul i32 %77, %79
  %81 = urem i32 %80, 2
  %82 = icmp eq i32 %81, 0
  %83 = icmp slt i32 %78, 10
  %84 = or i1 %82, %83
  br i1 %84, label %85, label %101

; <label>:85:                                     ; preds = %76
  ret void

; <label>:86:                                     ; preds = %11, %2
  %87 = alloca %"class.std::vector.39"*, align 8
  %88 = alloca %"class.std::__cxx11::basic_string"*, align 8
  store %"class.std::vector.39"* %0, %"class.std::vector.39"** %87, align 8
  store %"class.std::__cxx11::basic_string"* %1, %"class.std::__cxx11::basic_string"** %88, align 8
  %89 = load %"class.std::vector.39"*, %"class.std::vector.39"** %87, align 8
  %90 = bitcast %"class.std::vector.39"* %89 to %"struct.std::_Vector_base.40"*
  %91 = getelementptr inbounds %"struct.std::_Vector_base.40", %"struct.std::_Vector_base.40"* %90, i32 0, i32 0
  %92 = getelementptr inbounds %"struct.std::_Vector_base<std::__cxx11::basic_string<char>, std::allocator<std::__cxx11::basic_string<char> > >::_Vector_impl", %"struct.std::_Vector_base<std::__cxx11::basic_string<char>, std::allocator<std::__cxx11::basic_string<char> > >::_Vector_impl"* %91, i32 0, i32 1
  %93 = load %"class.std::__cxx11::basic_string"*, %"class.std::__cxx11::basic_string"** %92, align 8
  %94 = bitcast %"class.std::vector.39"* %89 to %"struct.std::_Vector_base.40"*
  %95 = getelementptr inbounds %"struct.std::_Vector_base.40", %"struct.std::_Vector_base.40"* %94, i32 0, i32 0
  %96 = getelementptr inbounds %"struct.std::_Vector_base<std::__cxx11::basic_string<char>, std::allocator<std::__cxx11::basic_string<char> > >::_Vector_impl", %"struct.std::_Vector_base<std::__cxx11::basic_string<char>, std::allocator<std::__cxx11::basic_string<char> > >::_Vector_impl"* %95, i32 0, i32 2
  %97 = load %"class.std::__cxx11::basic_string"*, %"class.std::__cxx11::basic_string"** %96, align 8
  %98 = icmp ne %"class.std::__cxx11::basic_string"* %93, %97
  br label %11

; <label>:99:                                     ; preds = %56, %47
  %100 = load %"class.std::__cxx11::basic_string"*, %"class.std::__cxx11::basic_string"** %13, align 8
  call void @_ZNSt6vectorINSt7__cxx1112basic_stringIcSt11char_traitsIcESaIcEEESaIS5_EE19_M_emplace_back_auxIJRKS5_EEEvDpOT_(%"class.std::vector.39"* %14, %"class.std::__cxx11::basic_string"* dereferenceable(32) %100)
  br label %56

; <label>:101:                                    ; preds = %76, %67
  br label %76
}

; Function Attrs: nounwind
declare void @_ZNSt7__cxx1112basic_stringIcSt11char_traitsIcESaIcEED1Ev(%"class.std::__cxx11::basic_string"*) unnamed_addr #2

; Function Attrs: nounwind
declare void @_ZNSt7__cxx1118basic_stringstreamIcSt11char_traitsIcESaIcEED1Ev(%"class.std::__cxx11::basic_stringstream"*) unnamed_addr #2

; Function Attrs: noinline nounwind uwtable
define linkonce_odr void @_ZNSt6vectorINSt7__cxx1112basic_stringIcSt11char_traitsIcESaIcEEESaIS5_EED2Ev(%"class.std::vector.39"*) unnamed_addr #4 comdat align 2 personality i8* bitcast (i32 (...)* @__gxx_personality_v0 to i8*) {
  %2 = alloca %"class.std::vector.39"*, align 8
  %3 = alloca i8*
  %4 = alloca i32
  store %"class.std::vector.39"* %0, %"class.std::vector.39"** %2, align 8
  %5 = load %"class.std::vector.39"*, %"class.std::vector.39"** %2, align 8
  %6 = bitcast %"class.std::vector.39"* %5 to %"struct.std::_Vector_base.40"*
  %7 = getelementptr inbounds %"struct.std::_Vector_base.40", %"struct.std::_Vector_base.40"* %6, i32 0, i32 0
  %8 = getelementptr inbounds %"struct.std::_Vector_base<std::__cxx11::basic_string<char>, std::allocator<std::__cxx11::basic_string<char> > >::_Vector_impl", %"struct.std::_Vector_base<std::__cxx11::basic_string<char>, std::allocator<std::__cxx11::basic_string<char> > >::_Vector_impl"* %7, i32 0, i32 0
  %9 = load %"class.std::__cxx11::basic_string"*, %"class.std::__cxx11::basic_string"** %8, align 8
  %10 = bitcast %"class.std::vector.39"* %5 to %"struct.std::_Vector_base.40"*
  %11 = getelementptr inbounds %"struct.std::_Vector_base.40", %"struct.std::_Vector_base.40"* %10, i32 0, i32 0
  %12 = getelementptr inbounds %"struct.std::_Vector_base<std::__cxx11::basic_string<char>, std::allocator<std::__cxx11::basic_string<char> > >::_Vector_impl", %"struct.std::_Vector_base<std::__cxx11::basic_string<char>, std::allocator<std::__cxx11::basic_string<char> > >::_Vector_impl"* %11, i32 0, i32 1
  %13 = load %"class.std::__cxx11::basic_string"*, %"class.std::__cxx11::basic_string"** %12, align 8
  %14 = bitcast %"class.std::vector.39"* %5 to %"struct.std::_Vector_base.40"*
  %15 = call dereferenceable(1) %"class.std::allocator.41"* @_ZNSt12_Vector_baseINSt7__cxx1112basic_stringIcSt11char_traitsIcESaIcEEESaIS5_EE19_M_get_Tp_allocatorEv(%"struct.std::_Vector_base.40"* %14) #3
  invoke void @_ZSt8_DestroyIPNSt7__cxx1112basic_stringIcSt11char_traitsIcESaIcEEES5_EvT_S7_RSaIT0_E(%"class.std::__cxx11::basic_string"* %9, %"class.std::__cxx11::basic_string"* %13, %"class.std::allocator.41"* dereferenceable(1) %15)
          to label %16 unwind label %36

; <label>:16:                                     ; preds = %1
  %17 = load i32, i32* @x.139
  %18 = load i32, i32* @y.140
  %19 = sub i32 %17, 1
  %20 = mul i32 %17, %19
  %21 = urem i32 %20, 2
  %22 = icmp eq i32 %21, 0
  %23 = icmp slt i32 %18, 10
  %24 = or i1 %22, %23
  br i1 %24, label %25, label %43

; <label>:25:                                     ; preds = %16, %43
  %26 = bitcast %"class.std::vector.39"* %5 to %"struct.std::_Vector_base.40"*
  call void @_ZNSt12_Vector_baseINSt7__cxx1112basic_stringIcSt11char_traitsIcESaIcEEESaIS5_EED2Ev(%"struct.std::_Vector_base.40"* %26) #3
  %27 = load i32, i32* @x.139
  %28 = load i32, i32* @y.140
  %29 = sub i32 %27, 1
  %30 = mul i32 %27, %29
  %31 = urem i32 %30, 2
  %32 = icmp eq i32 %31, 0
  %33 = icmp slt i32 %28, 10
  %34 = or i1 %32, %33
  br i1 %34, label %35, label %43

; <label>:35:                                     ; preds = %25
  ret void

; <label>:36:                                     ; preds = %1
  %37 = landingpad { i8*, i32 }
          catch i8* null
  %38 = extractvalue { i8*, i32 } %37, 0
  store i8* %38, i8** %3, align 8
  %39 = extractvalue { i8*, i32 } %37, 1
  store i32 %39, i32* %4, align 4
  %40 = bitcast %"class.std::vector.39"* %5 to %"struct.std::_Vector_base.40"*
  call void @_ZNSt12_Vector_baseINSt7__cxx1112basic_stringIcSt11char_traitsIcESaIcEEESaIS5_EED2Ev(%"struct.std::_Vector_base.40"* %40) #3
  br label %41

; <label>:41:                                     ; preds = %36
  %42 = load i8*, i8** %3, align 8
  call void @__clang_call_terminate(i8* %42) #12
  unreachable

; <label>:43:                                     ; preds = %25, %16
  %44 = bitcast %"class.std::vector.39"* %5 to %"struct.std::_Vector_base.40"*
  call void @_ZNSt12_Vector_baseINSt7__cxx1112basic_stringIcSt11char_traitsIcESaIcEEESaIS5_EED2Ev(%"struct.std::_Vector_base.40"* %44) #3
  br label %25
}

; Function Attrs: noinline uwtable
define void @_Z7divisorx(%"class.std::vector.0"* noalias sret, i64) #0 personality i8* bitcast (i32 (...)* @__gxx_personality_v0 to i8*) {
  %3 = alloca i64, align 8
  %4 = alloca i1, align 1
  %5 = alloca i64, align 8
  %6 = alloca i8*
  %7 = alloca i32
  %8 = alloca i64, align 8
  %9 = alloca %"class.__gnu_cxx::__normal_iterator.38", align 8
  %10 = alloca %"class.__gnu_cxx::__normal_iterator.38", align 8
  store i64 %1, i64* %3, align 8
  store i1 false, i1* %4, align 1
  call void @_ZNSt6vectorIxSaIxEEC2Ev(%"class.std::vector.0"* %0) #3
  store i64 1, i64* %5, align 8
  br label %11

; <label>:11:                                     ; preds = %94, %2
  %12 = load i32, i32* @x.141
  %13 = load i32, i32* @y.142
  %14 = sub i32 %12, 1
  %15 = mul i32 %12, %14
  %16 = urem i32 %15, 2
  %17 = icmp eq i32 %16, 0
  %18 = icmp slt i32 %13, 10
  %19 = or i1 %17, %18
  br i1 %19, label %20, label %117

; <label>:20:                                     ; preds = %11, %117
  %21 = load i64, i64* %5, align 8
  %22 = load i64, i64* %5, align 8
  %23 = mul nsw i64 %21, %22
  %24 = load i64, i64* %3, align 8
  %25 = icmp sle i64 %23, %24
  %26 = load i32, i32* @x.141
  %27 = load i32, i32* @y.142
  %28 = sub i32 %26, 1
  %29 = mul i32 %26, %28
  %30 = urem i32 %29, 2
  %31 = icmp eq i32 %30, 0
  %32 = icmp slt i32 %27, 10
  %33 = or i1 %31, %32
  br i1 %33, label %34, label %117

; <label>:34:                                     ; preds = %20
  br i1 %25, label %35, label %97

; <label>:35:                                     ; preds = %34
  %36 = load i32, i32* @x.141
  %37 = load i32, i32* @y.142
  %38 = sub i32 %36, 1
  %39 = mul i32 %36, %38
  %40 = urem i32 %39, 2
  %41 = icmp eq i32 %40, 0
  %42 = icmp slt i32 %37, 10
  %43 = or i1 %41, %42
  br i1 %43, label %44, label %129

; <label>:44:                                     ; preds = %35, %129
  %45 = load i64, i64* %3, align 8
  %46 = load i64, i64* %5, align 8
  %47 = srem i64 %45, %46
  %48 = icmp eq i64 %47, 0
  %49 = load i32, i32* @x.141
  %50 = load i32, i32* @y.142
  %51 = sub i32 %49, 1
  %52 = mul i32 %49, %51
  %53 = urem i32 %52, 2
  %54 = icmp eq i32 %53, 0
  %55 = icmp slt i32 %50, 10
  %56 = or i1 %54, %55
  br i1 %56, label %57, label %129

; <label>:57:                                     ; preds = %44
  br i1 %48, label %58, label %93

; <label>:58:                                     ; preds = %57
  invoke void @_ZNSt6vectorIxSaIxEE9push_backERKx(%"class.std::vector.0"* %0, i64* dereferenceable(8) %5)
          to label %59 unwind label %88

; <label>:59:                                     ; preds = %58
  %60 = load i32, i32* @x.141
  %61 = load i32, i32* @y.142
  %62 = sub i32 %60, 1
  %63 = mul i32 %60, %62
  %64 = urem i32 %63, 2
  %65 = icmp eq i32 %64, 0
  %66 = icmp slt i32 %61, 10
  %67 = or i1 %65, %66
  br i1 %67, label %68, label %148

; <label>:68:                                     ; preds = %59, %148
  %69 = load i64, i64* %5, align 8
  %70 = load i64, i64* %5, align 8
  %71 = mul nsw i64 %69, %70
  %72 = load i64, i64* %3, align 8
  %73 = icmp ne i64 %71, %72
  %74 = load i32, i32* @x.141
  %75 = load i32, i32* @y.142
  %76 = sub i32 %74, 1
  %77 = mul i32 %74, %76
  %78 = urem i32 %77, 2
  %79 = icmp eq i32 %78, 0
  %80 = icmp slt i32 %75, 10
  %81 = or i1 %79, %80
  br i1 %81, label %82, label %148

; <label>:82:                                     ; preds = %68
  br i1 %73, label %83, label %92

; <label>:83:                                     ; preds = %82
  %84 = load i64, i64* %3, align 8
  %85 = load i64, i64* %5, align 8
  %86 = sdiv i64 %84, %85
  store i64 %86, i64* %8, align 8
  invoke void @_ZNSt6vectorIxSaIxEE9push_backEOx(%"class.std::vector.0"* %0, i64* dereferenceable(8) %8)
          to label %87 unwind label %88

; <label>:87:                                     ; preds = %83
  br label %92

; <label>:88:                                     ; preds = %102, %99, %97, %83, %58
  %89 = landingpad { i8*, i32 }
          cleanup
  %90 = extractvalue { i8*, i32 } %89, 0
  store i8* %90, i8** %6, align 8
  %91 = extractvalue { i8*, i32 } %89, 1
  store i32 %91, i32* %7, align 4
  call void @_ZNSt6vectorIxSaIxEED2Ev(%"class.std::vector.0"* %0) #3
  br label %112

; <label>:92:                                     ; preds = %87, %82
  br label %93

; <label>:93:                                     ; preds = %92, %57
  br label %94

; <label>:94:                                     ; preds = %93
  %95 = load i64, i64* %5, align 8
  %96 = add nsw i64 %95, 1
  store i64 %96, i64* %5, align 8
  br label %11

; <label>:97:                                     ; preds = %34
  %98 = invoke i64* @_ZSt5beginISt6vectorIxSaIxEEEDTcldtfp_5beginEERT_(%"class.std::vector.0"* dereferenceable(24) %0)
          to label %99 unwind label %88

; <label>:99:                                     ; preds = %97
  %100 = getelementptr inbounds %"class.__gnu_cxx::__normal_iterator.38", %"class.__gnu_cxx::__normal_iterator.38"* %9, i32 0, i32 0
  store i64* %98, i64** %100, align 8
  %101 = invoke i64* @_ZSt3endISt6vectorIxSaIxEEEDTcldtfp_3endEERT_(%"class.std::vector.0"* dereferenceable(24) %0)
          to label %102 unwind label %88

; <label>:102:                                    ; preds = %99
  %103 = getelementptr inbounds %"class.__gnu_cxx::__normal_iterator.38", %"class.__gnu_cxx::__normal_iterator.38"* %10, i32 0, i32 0
  store i64* %101, i64** %103, align 8
  %104 = getelementptr inbounds %"class.__gnu_cxx::__normal_iterator.38", %"class.__gnu_cxx::__normal_iterator.38"* %9, i32 0, i32 0
  %105 = load i64*, i64** %104, align 8
  %106 = getelementptr inbounds %"class.__gnu_cxx::__normal_iterator.38", %"class.__gnu_cxx::__normal_iterator.38"* %10, i32 0, i32 0
  %107 = load i64*, i64** %106, align 8
  invoke void @_ZSt4sortIN9__gnu_cxx17__normal_iteratorIPxSt6vectorIxSaIxEEEEEvT_S7_(i64* %105, i64* %107)
          to label %108 unwind label %88

; <label>:108:                                    ; preds = %102
  store i1 true, i1* %4, align 1
  %109 = load i1, i1* %4, align 1
  br i1 %109, label %111, label %110

; <label>:110:                                    ; preds = %108
  call void @_ZNSt6vectorIxSaIxEED2Ev(%"class.std::vector.0"* %0) #3
  br label %111

; <label>:111:                                    ; preds = %110, %108
  ret void

; <label>:112:                                    ; preds = %88
  %113 = load i8*, i8** %6, align 8
  %114 = load i32, i32* %7, align 4
  %115 = insertvalue { i8*, i32 } undef, i8* %113, 0
  %116 = insertvalue { i8*, i32 } %115, i32 %114, 1
  resume { i8*, i32 } %116

; <label>:117:                                    ; preds = %20, %11
  %118 = load i64, i64* %5, align 8
  %119 = load i64, i64* %5, align 8
  %120 = sub i64 0, %118
  %121 = add i64 %120, %119
  %122 = sub i64 0, %118
  %123 = add i64 %122, %119
  %124 = shl i64 %118, %119
  %125 = shl i64 %118, %119
  %126 = mul nsw i64 %118, %119
  %127 = load i64, i64* %3, align 8
  %128 = icmp sle i64 %126, %127
  br label %20

; <label>:129:                                    ; preds = %44, %35
  %130 = load i64, i64* %3, align 8
  %131 = load i64, i64* %5, align 8
  %132 = shl i64 %130, %131
  %133 = sub i64 %130, %131
  %134 = mul i64 %133, %131
  %135 = sub i64 0, %130
  %136 = add i64 %135, %131
  %137 = sub i64 0, %130
  %138 = add i64 %137, %131
  %139 = shl i64 %130, %131
  %140 = sub i64 %130, %131
  %141 = mul i64 %140, %131
  %142 = sub i64 %130, %131
  %143 = mul i64 %142, %131
  %144 = sub i64 %130, %131
  %145 = mul i64 %144, %131
  %146 = srem i64 %130, %131
  %147 = icmp eq i64 %146, 0
  br label %44

; <label>:148:                                    ; preds = %68, %59
  %149 = load i64, i64* %5, align 8
  %150 = load i64, i64* %5, align 8
  %151 = sub i64 0, %149
  %152 = add i64 %151, %150
  %153 = shl i64 %149, %150
  %154 = shl i64 %149, %150
  %155 = mul nsw i64 %149, %150
  %156 = load i64, i64* %3, align 8
  %157 = icmp ne i64 %155, %156
  br label %68
}

; Function Attrs: noinline uwtable
define linkonce_odr void @_ZNSt6vectorIxSaIxEE9push_backEOx(%"class.std::vector.0"*, i64* dereferenceable(8)) #0 comdat align 2 {
  %3 = alloca %"class.std::vector.0"*, align 8
  %4 = alloca i64*, align 8
  store %"class.std::vector.0"* %0, %"class.std::vector.0"** %3, align 8
  store i64* %1, i64** %4, align 8
  %5 = load %"class.std::vector.0"*, %"class.std::vector.0"** %3, align 8
  %6 = load i64*, i64** %4, align 8
  %7 = call dereferenceable(8) i64* @_ZSt4moveIRxEONSt16remove_referenceIT_E4typeEOS2_(i64* dereferenceable(8) %6) #3
  call void @_ZNSt6vectorIxSaIxEE12emplace_backIJxEEEvDpOT_(%"class.std::vector.0"* %5, i64* dereferenceable(8) %7)
  ret void
}

; Function Attrs: noinline uwtable
define linkonce_odr void @_ZSt4sortIN9__gnu_cxx17__normal_iteratorIPxSt6vectorIxSaIxEEEEEvT_S7_(i64*, i64*) #0 comdat {
  %3 = load i32, i32* @x.145
  %4 = load i32, i32* @y.146
  %5 = sub i32 %3, 1
  %6 = mul i32 %3, %5
  %7 = urem i32 %6, 2
  %8 = icmp eq i32 %7, 0
  %9 = icmp slt i32 %4, 10
  %10 = or i1 %8, %9
  br i1 %10, label %11, label %37

; <label>:11:                                     ; preds = %2, %37
  %12 = alloca %"class.__gnu_cxx::__normal_iterator.38", align 8
  %13 = alloca %"class.__gnu_cxx::__normal_iterator.38", align 8
  %14 = alloca %"class.__gnu_cxx::__normal_iterator.38", align 8
  %15 = alloca %"class.__gnu_cxx::__normal_iterator.38", align 8
  %16 = alloca %"struct.__gnu_cxx::__ops::_Iter_less_iter", align 1
  %17 = alloca %"struct.__gnu_cxx::__ops::_Iter_less_iter", align 1
  %18 = getelementptr inbounds %"class.__gnu_cxx::__normal_iterator.38", %"class.__gnu_cxx::__normal_iterator.38"* %12, i32 0, i32 0
  store i64* %0, i64** %18, align 8
  %19 = getelementptr inbounds %"class.__gnu_cxx::__normal_iterator.38", %"class.__gnu_cxx::__normal_iterator.38"* %13, i32 0, i32 0
  store i64* %1, i64** %19, align 8
  %20 = bitcast %"class.__gnu_cxx::__normal_iterator.38"* %14 to i8*
  %21 = bitcast %"class.__gnu_cxx::__normal_iterator.38"* %12 to i8*
  call void @llvm.memcpy.p0i8.p0i8.i64(i8* %20, i8* %21, i64 8, i32 8, i1 false)
  %22 = bitcast %"class.__gnu_cxx::__normal_iterator.38"* %15 to i8*
  %23 = bitcast %"class.__gnu_cxx::__normal_iterator.38"* %13 to i8*
  call void @llvm.memcpy.p0i8.p0i8.i64(i8* %22, i8* %23, i64 8, i32 8, i1 false)
  call void @_ZN9__gnu_cxx5__ops16__iter_less_iterEv()
  %24 = getelementptr inbounds %"class.__gnu_cxx::__normal_iterator.38", %"class.__gnu_cxx::__normal_iterator.38"* %14, i32 0, i32 0
  %25 = load i64*, i64** %24, align 8
  %26 = getelementptr inbounds %"class.__gnu_cxx::__normal_iterator.38", %"class.__gnu_cxx::__normal_iterator.38"* %15, i32 0, i32 0
  %27 = load i64*, i64** %26, align 8
  call void @_ZSt6__sortIN9__gnu_cxx17__normal_iteratorIPxSt6vectorIxSaIxEEEENS0_5__ops15_Iter_less_iterEEvT_S9_T0_(i64* %25, i64* %27)
  %28 = load i32, i32* @x.145
  %29 = load i32, i32* @y.146
  %30 = sub i32 %28, 1
  %31 = mul i32 %28, %30
  %32 = urem i32 %31, 2
  %33 = icmp eq i32 %32, 0
  %34 = icmp slt i32 %29, 10
  %35 = or i1 %33, %34
  br i1 %35, label %36, label %37

; <label>:36:                                     ; preds = %11
  ret void

; <label>:37:                                     ; preds = %11, %2
  %38 = alloca %"class.__gnu_cxx::__normal_iterator.38", align 8
  %39 = alloca %"class.__gnu_cxx::__normal_iterator.38", align 8
  %40 = alloca %"class.__gnu_cxx::__normal_iterator.38", align 8
  %41 = alloca %"class.__gnu_cxx::__normal_iterator.38", align 8
  %42 = alloca %"struct.__gnu_cxx::__ops::_Iter_less_iter", align 1
  %43 = alloca %"struct.__gnu_cxx::__ops::_Iter_less_iter", align 1
  %44 = getelementptr inbounds %"class.__gnu_cxx::__normal_iterator.38", %"class.__gnu_cxx::__normal_iterator.38"* %38, i32 0, i32 0
  store i64* %0, i64** %44, align 8
  %45 = getelementptr inbounds %"class.__gnu_cxx::__normal_iterator.38", %"class.__gnu_cxx::__normal_iterator.38"* %39, i32 0, i32 0
  store i64* %1, i64** %45, align 8
  %46 = bitcast %"class.__gnu_cxx::__normal_iterator.38"* %40 to i8*
  %47 = bitcast %"class.__gnu_cxx::__normal_iterator.38"* %38 to i8*
  call void @llvm.memcpy.p0i8.p0i8.i64(i8* %46, i8* %47, i64 8, i32 8, i1 false)
  %48 = bitcast %"class.__gnu_cxx::__normal_iterator.38"* %41 to i8*
  %49 = bitcast %"class.__gnu_cxx::__normal_iterator.38"* %39 to i8*
  call void @llvm.memcpy.p0i8.p0i8.i64(i8* %48, i8* %49, i64 8, i32 8, i1 false)
  call void @_ZN9__gnu_cxx5__ops16__iter_less_iterEv()
  %50 = getelementptr inbounds %"class.__gnu_cxx::__normal_iterator.38", %"class.__gnu_cxx::__normal_iterator.38"* %40, i32 0, i32 0
  %51 = load i64*, i64** %50, align 8
  %52 = getelementptr inbounds %"class.__gnu_cxx::__normal_iterator.38", %"class.__gnu_cxx::__normal_iterator.38"* %41, i32 0, i32 0
  %53 = load i64*, i64** %52, align 8
  call void @_ZSt6__sortIN9__gnu_cxx17__normal_iteratorIPxSt6vectorIxSaIxEEEENS0_5__ops15_Iter_less_iterEEvT_S9_T0_(i64* %51, i64* %53)
  br label %11
}

; Function Attrs: noinline nounwind uwtable
define linkonce_odr i64* @_ZSt5beginISt6vectorIxSaIxEEEDTcldtfp_5beginEERT_(%"class.std::vector.0"* dereferenceable(24)) #4 comdat {
  %2 = alloca %"class.__gnu_cxx::__normal_iterator.38", align 8
  %3 = alloca %"class.std::vector.0"*, align 8
  store %"class.std::vector.0"* %0, %"class.std::vector.0"** %3, align 8
  %4 = load %"class.std::vector.0"*, %"class.std::vector.0"** %3, align 8
  %5 = call i64* @_ZNSt6vectorIxSaIxEE5beginEv(%"class.std::vector.0"* %4) #3
  %6 = getelementptr inbounds %"class.__gnu_cxx::__normal_iterator.38", %"class.__gnu_cxx::__normal_iterator.38"* %2, i32 0, i32 0
  store i64* %5, i64** %6, align 8
  %7 = getelementptr inbounds %"class.__gnu_cxx::__normal_iterator.38", %"class.__gnu_cxx::__normal_iterator.38"* %2, i32 0, i32 0
  %8 = load i64*, i64** %7, align 8
  ret i64* %8
}

; Function Attrs: noinline nounwind uwtable
define linkonce_odr i64* @_ZSt3endISt6vectorIxSaIxEEEDTcldtfp_3endEERT_(%"class.std::vector.0"* dereferenceable(24)) #4 comdat {
  %2 = load i32, i32* @x.149
  %3 = load i32, i32* @y.150
  %4 = sub i32 %2, 1
  %5 = mul i32 %2, %4
  %6 = urem i32 %5, 2
  %7 = icmp eq i32 %6, 0
  %8 = icmp slt i32 %3, 10
  %9 = or i1 %7, %8
  br i1 %9, label %10, label %27

; <label>:10:                                     ; preds = %1, %27
  %11 = alloca %"class.__gnu_cxx::__normal_iterator.38", align 8
  %12 = alloca %"class.std::vector.0"*, align 8
  store %"class.std::vector.0"* %0, %"class.std::vector.0"** %12, align 8
  %13 = load %"class.std::vector.0"*, %"class.std::vector.0"** %12, align 8
  %14 = call i64* @_ZNSt6vectorIxSaIxEE3endEv(%"class.std::vector.0"* %13) #3
  %15 = getelementptr inbounds %"class.__gnu_cxx::__normal_iterator.38", %"class.__gnu_cxx::__normal_iterator.38"* %11, i32 0, i32 0
  store i64* %14, i64** %15, align 8
  %16 = getelementptr inbounds %"class.__gnu_cxx::__normal_iterator.38", %"class.__gnu_cxx::__normal_iterator.38"* %11, i32 0, i32 0
  %17 = load i64*, i64** %16, align 8
  %18 = load i32, i32* @x.149
  %19 = load i32, i32* @y.150
  %20 = sub i32 %18, 1
  %21 = mul i32 %18, %20
  %22 = urem i32 %21, 2
  %23 = icmp eq i32 %22, 0
  %24 = icmp slt i32 %19, 10
  %25 = or i1 %23, %24
  br i1 %25, label %26, label %27

; <label>:26:                                     ; preds = %10
  ret i64* %17

; <label>:27:                                     ; preds = %10, %1
  %28 = alloca %"class.__gnu_cxx::__normal_iterator.38", align 8
  %29 = alloca %"class.std::vector.0"*, align 8
  store %"class.std::vector.0"* %0, %"class.std::vector.0"** %29, align 8
  %30 = load %"class.std::vector.0"*, %"class.std::vector.0"** %29, align 8
  %31 = call i64* @_ZNSt6vectorIxSaIxEE3endEv(%"class.std::vector.0"* %30) #3
  %32 = getelementptr inbounds %"class.__gnu_cxx::__normal_iterator.38", %"class.__gnu_cxx::__normal_iterator.38"* %28, i32 0, i32 0
  store i64* %31, i64** %32, align 8
  %33 = getelementptr inbounds %"class.__gnu_cxx::__normal_iterator.38", %"class.__gnu_cxx::__normal_iterator.38"* %28, i32 0, i32 0
  %34 = load i64*, i64** %33, align 8
  br label %10
}

; Function Attrs: noinline norecurse uwtable
define i32 @main() #6 personality i8* bitcast (i32 (...)* @__gxx_personality_v0 to i8*) {
  %1 = load i32, i32* @x.151
  %2 = load i32, i32* @y.152
  %3 = sub i32 %1, 1
  %4 = mul i32 %1, %3
  %5 = urem i32 %4, 2
  %6 = icmp eq i32 %5, 0
  %7 = icmp slt i32 %2, 10
  %8 = or i1 %6, %7
  br i1 %8, label %9, label %462

; <label>:9:                                      ; preds = %0, %462
  %10 = alloca i32, align 4
  %11 = alloca i64, align 8
  %12 = alloca i64, align 8
  %13 = alloca %"class.std::vector.31", align 8
  %14 = alloca i32, align 4
  %15 = alloca i64, align 8
  %16 = alloca i64, align 8
  %17 = alloca i8*
  %18 = alloca i32
  %19 = alloca %"struct.std::pair.36", align 8
  %20 = alloca i64, align 8
  %21 = alloca i32, align 4
  %22 = alloca %"class.std::vector.21", align 8
  %23 = alloca %"class.std::allocator.23", align 1
  %24 = alloca i32, align 4
  %25 = alloca %struct.Edge, align 8
  %26 = alloca i32, align 4
  %27 = alloca %"class.std::vector.0", align 8
  %28 = alloca %"class.std::vector.0", align 8
  %29 = alloca i8, align 1
  %30 = alloca i32, align 4
  %31 = alloca i32
  store i32 0, i32* %10, align 4
  %32 = call dereferenceable(280) %"class.std::basic_istream"* @_ZNSirsERx(%"class.std::basic_istream"* @_ZSt3cin, i64* dereferenceable(8) %11)
  %33 = call dereferenceable(280) %"class.std::basic_istream"* @_ZNSirsERx(%"class.std::basic_istream"* %32, i64* dereferenceable(8) %12)
  call void @_ZNSt6vectorISt4pairIxxESaIS1_EEC2Ev(%"class.std::vector.31"* %13) #3
  store i32 0, i32* %14, align 4
  %34 = load i32, i32* @x.151
  %35 = load i32, i32* @y.152
  %36 = sub i32 %34, 1
  %37 = mul i32 %34, %36
  %38 = urem i32 %37, 2
  %39 = icmp eq i32 %38, 0
  %40 = icmp slt i32 %35, 10
  %41 = or i1 %39, %40
  br i1 %41, label %42, label %462

; <label>:42:                                     ; preds = %9
  br label %43

; <label>:43:                                     ; preds = %103, %42
  %44 = load i32, i32* %14, align 4
  %45 = sext i32 %44 to i64
  %46 = load i64, i64* %12, align 8
  %47 = icmp slt i64 %45, %46
  br i1 %47, label %48, label %108

; <label>:48:                                     ; preds = %43
  %49 = invoke dereferenceable(280) %"class.std::basic_istream"* @_ZNSirsERx(%"class.std::basic_istream"* @_ZSt3cin, i64* dereferenceable(8) %15)
          to label %50 unwind label %104

; <label>:50:                                     ; preds = %48
  %51 = invoke dereferenceable(280) %"class.std::basic_istream"* @_ZNSirsERx(%"class.std::basic_istream"* %49, i64* dereferenceable(8) %16)
          to label %52 unwind label %104

; <label>:52:                                     ; preds = %50
  %53 = load i32, i32* @x.151
  %54 = load i32, i32* @y.152
  %55 = sub i32 %53, 1
  %56 = mul i32 %53, %55
  %57 = urem i32 %56, 2
  %58 = icmp eq i32 %57, 0
  %59 = icmp slt i32 %54, 10
  %60 = or i1 %58, %59
  br i1 %60, label %61, label %487

; <label>:61:                                     ; preds = %52, %487
  %62 = load i64, i64* %15, align 8
  %63 = add nsw i64 %62, -1
  store i64 %63, i64* %15, align 8
  %64 = load i64, i64* %16, align 8
  %65 = add nsw i64 %64, -1
  store i64 %65, i64* %16, align 8
  %66 = load i32, i32* @x.151
  %67 = load i32, i32* @y.152
  %68 = sub i32 %66, 1
  %69 = mul i32 %66, %68
  %70 = urem i32 %69, 2
  %71 = icmp eq i32 %70, 0
  %72 = icmp slt i32 %67, 10
  %73 = or i1 %71, %72
  br i1 %73, label %74, label %487

; <label>:74:                                     ; preds = %61
  %75 = invoke { i64, i64 } @_ZSt9make_pairIRxS0_ESt4pairINSt17__decay_and_stripIT_E6__typeENS2_IT0_E6__typeEEOS3_OS6_(i64* dereferenceable(8) %15, i64* dereferenceable(8) %16)
          to label %76 unwind label %104

; <label>:76:                                     ; preds = %74
  %77 = bitcast %"struct.std::pair.36"* %19 to { i64, i64 }*
  %78 = getelementptr inbounds { i64, i64 }, { i64, i64 }* %77, i32 0, i32 0
  %79 = extractvalue { i64, i64 } %75, 0
  store i64 %79, i64* %78, align 8
  %80 = getelementptr inbounds { i64, i64 }, { i64, i64 }* %77, i32 0, i32 1
  %81 = extractvalue { i64, i64 } %75, 1
  store i64 %81, i64* %80, align 8
  invoke void @_ZNSt6vectorISt4pairIxxESaIS1_EE9push_backEOS1_(%"class.std::vector.31"* %13, %"struct.std::pair.36"* dereferenceable(16) %19)
          to label %82 unwind label %104

; <label>:82:                                     ; preds = %76
  br label %83

; <label>:83:                                     ; preds = %82
  %84 = load i32, i32* @x.151
  %85 = load i32, i32* @y.152
  %86 = sub i32 %84, 1
  %87 = mul i32 %84, %86
  %88 = urem i32 %87, 2
  %89 = icmp eq i32 %88, 0
  %90 = icmp slt i32 %85, 10
  %91 = or i1 %89, %90
  br i1 %91, label %92, label %504

; <label>:92:                                     ; preds = %83, %504
  %93 = load i32, i32* %14, align 4
  %94 = add nsw i32 %93, 1
  store i32 %94, i32* %14, align 4
  %95 = load i32, i32* @x.151
  %96 = load i32, i32* @y.152
  %97 = sub i32 %95, 1
  %98 = mul i32 %95, %97
  %99 = urem i32 %98, 2
  %100 = icmp eq i32 %99, 0
  %101 = icmp slt i32 %96, 10
  %102 = or i1 %100, %101
  br i1 %102, label %103, label %504

; <label>:103:                                    ; preds = %92
  br label %43

; <label>:104:                                    ; preds = %433, %430, %76, %74, %50, %48
  %105 = landingpad { i8*, i32 }
          cleanup
  %106 = extractvalue { i8*, i32 } %105, 0
  store i8* %106, i8** %17, align 8
  %107 = extractvalue { i8*, i32 } %105, 1
  store i32 %107, i32* %18, align 4
  br label %437

; <label>:108:                                    ; preds = %43
  store i64 0, i64* %20, align 8
  store i32 0, i32* %21, align 4
  br label %109

; <label>:109:                                    ; preds = %428, %108
  %110 = load i32, i32* %21, align 4
  %111 = sext i32 %110 to i64
  %112 = load i64, i64* %12, align 8
  %113 = icmp slt i64 %111, %112
  br i1 %113, label %114, label %430

; <label>:114:                                    ; preds = %109
  %115 = load i64, i64* %11, align 8
  call void @_ZNSaISt6vectorI4EdgeSaIS0_EEEC2Ev(%"class.std::allocator.23"* %23) #3
  invoke void @_ZNSt6vectorIS_I4EdgeSaIS0_EESaIS2_EEC2EmRKS3_(%"class.std::vector.21"* %22, i64 %115, %"class.std::allocator.23"* dereferenceable(1) %23)
          to label %116 unwind label %145

; <label>:116:                                    ; preds = %114
  call void @_ZNSaISt6vectorI4EdgeSaIS0_EEED2Ev(%"class.std::allocator.23"* %23) #3
  store i32 0, i32* %24, align 4
  br label %117

; <label>:117:                                    ; preds = %232, %116
  %118 = load i32, i32* %24, align 4
  %119 = sext i32 %118 to i64
  %120 = load i64, i64* %12, align 8
  %121 = icmp slt i64 %119, %120
  br i1 %121, label %122, label %239

; <label>:122:                                    ; preds = %117
  %123 = load i32, i32* @x.151
  %124 = load i32, i32* @y.152
  %125 = sub i32 %123, 1
  %126 = mul i32 %123, %125
  %127 = urem i32 %126, 2
  %128 = icmp eq i32 %127, 0
  %129 = icmp slt i32 %124, 10
  %130 = or i1 %128, %129
  br i1 %130, label %131, label %509

; <label>:131:                                    ; preds = %122, %509
  %132 = load i32, i32* %21, align 4
  %133 = load i32, i32* %24, align 4
  %134 = icmp eq i32 %132, %133
  %135 = load i32, i32* @x.151
  %136 = load i32, i32* @y.152
  %137 = sub i32 %135, 1
  %138 = mul i32 %135, %137
  %139 = urem i32 %138, 2
  %140 = icmp eq i32 %139, 0
  %141 = icmp slt i32 %136, 10
  %142 = or i1 %140, %141
  br i1 %142, label %143, label %509

; <label>:143:                                    ; preds = %131
  br i1 %134, label %144, label %167

; <label>:144:                                    ; preds = %143
  br label %232

; <label>:145:                                    ; preds = %114
  %146 = load i32, i32* @x.151
  %147 = load i32, i32* @y.152
  %148 = sub i32 %146, 1
  %149 = mul i32 %146, %148
  %150 = urem i32 %149, 2
  %151 = icmp eq i32 %150, 0
  %152 = icmp slt i32 %147, 10
  %153 = or i1 %151, %152
  br i1 %153, label %154, label %513

; <label>:154:                                    ; preds = %145, %513
  %155 = landingpad { i8*, i32 }
          cleanup
  %156 = extractvalue { i8*, i32 } %155, 0
  store i8* %156, i8** %17, align 8
  %157 = extractvalue { i8*, i32 } %155, 1
  store i32 %157, i32* %18, align 4
  call void @_ZNSaISt6vectorI4EdgeSaIS0_EEED2Ev(%"class.std::allocator.23"* %23) #3
  %158 = load i32, i32* @x.151
  %159 = load i32, i32* @y.152
  %160 = sub i32 %158, 1
  %161 = mul i32 %158, %160
  %162 = urem i32 %161, 2
  %163 = icmp eq i32 %162, 0
  %164 = icmp slt i32 %159, 10
  %165 = or i1 %163, %164
  br i1 %165, label %166, label %513

; <label>:166:                                    ; preds = %154
  br label %437

; <label>:167:                                    ; preds = %143
  %168 = load i32, i32* @x.151
  %169 = load i32, i32* @y.152
  %170 = sub i32 %168, 1
  %171 = mul i32 %168, %170
  %172 = urem i32 %171, 2
  %173 = icmp eq i32 %172, 0
  %174 = icmp slt i32 %169, 10
  %175 = or i1 %173, %174
  br i1 %175, label %176, label %517

; <label>:176:                                    ; preds = %167, %517
  %177 = load i32, i32* %24, align 4
  %178 = sext i32 %177 to i64
  %179 = call dereferenceable(16) %"struct.std::pair.36"* @_ZNSt6vectorISt4pairIxxESaIS1_EEixEm(%"class.std::vector.31"* %13, i64 %178) #3
  %180 = getelementptr inbounds %"struct.std::pair.36", %"struct.std::pair.36"* %179, i32 0, i32 1
  %181 = load i64, i64* %180, align 8
  %182 = getelementptr inbounds %struct.Edge, %struct.Edge* %25, i32 0, i32 0
  store i64 %181, i64* %182, align 8
  %183 = getelementptr inbounds %struct.Edge, %struct.Edge* %25, i32 0, i32 1
  store i64 1, i64* %183, align 8
  %184 = load i32, i32* %24, align 4
  %185 = sext i32 %184 to i64
  %186 = call dereferenceable(16) %"struct.std::pair.36"* @_ZNSt6vectorISt4pairIxxESaIS1_EEixEm(%"class.std::vector.31"* %13, i64 %185) #3
  %187 = getelementptr inbounds %"struct.std::pair.36", %"struct.std::pair.36"* %186, i32 0, i32 0
  %188 = load i64, i64* %187, align 8
  %189 = call dereferenceable(24) %"class.std::vector.26"* @_ZNSt6vectorIS_I4EdgeSaIS0_EESaIS2_EEixEm(%"class.std::vector.21"* %22, i64 %188) #3
  %190 = load i32, i32* @x.151
  %191 = load i32, i32* @y.152
  %192 = sub i32 %190, 1
  %193 = mul i32 %190, %192
  %194 = urem i32 %193, 2
  %195 = icmp eq i32 %194, 0
  %196 = icmp slt i32 %191, 10
  %197 = or i1 %195, %196
  br i1 %197, label %198, label %517

; <label>:198:                                    ; preds = %176
  invoke void @_ZNSt6vectorI4EdgeSaIS0_EE9push_backERKS0_(%"class.std::vector.26"* %189, %struct.Edge* dereferenceable(16) %25)
          to label %199 unwind label %235

; <label>:199:                                    ; preds = %198
  %200 = load i32, i32* @x.151
  %201 = load i32, i32* @y.152
  %202 = sub i32 %200, 1
  %203 = mul i32 %200, %202
  %204 = urem i32 %203, 2
  %205 = icmp eq i32 %204, 0
  %206 = icmp slt i32 %201, 10
  %207 = or i1 %205, %206
  br i1 %207, label %208, label %531

; <label>:208:                                    ; preds = %199, %531
  %209 = load i32, i32* %24, align 4
  %210 = sext i32 %209 to i64
  %211 = call dereferenceable(16) %"struct.std::pair.36"* @_ZNSt6vectorISt4pairIxxESaIS1_EEixEm(%"class.std::vector.31"* %13, i64 %210) #3
  %212 = getelementptr inbounds %"struct.std::pair.36", %"struct.std::pair.36"* %211, i32 0, i32 0
  %213 = load i64, i64* %212, align 8
  %214 = getelementptr inbounds %struct.Edge, %struct.Edge* %25, i32 0, i32 0
  store i64 %213, i64* %214, align 8
  %215 = getelementptr inbounds %struct.Edge, %struct.Edge* %25, i32 0, i32 1
  store i64 1, i64* %215, align 8
  %216 = load i32, i32* %24, align 4
  %217 = sext i32 %216 to i64
  %218 = call dereferenceable(16) %"struct.std::pair.36"* @_ZNSt6vectorISt4pairIxxESaIS1_EEixEm(%"class.std::vector.31"* %13, i64 %217) #3
  %219 = getelementptr inbounds %"struct.std::pair.36", %"struct.std::pair.36"* %218, i32 0, i32 1
  %220 = load i64, i64* %219, align 8
  %221 = call dereferenceable(24) %"class.std::vector.26"* @_ZNSt6vectorIS_I4EdgeSaIS0_EESaIS2_EEixEm(%"class.std::vector.21"* %22, i64 %220) #3
  %222 = load i32, i32* @x.151
  %223 = load i32, i32* @y.152
  %224 = sub i32 %222, 1
  %225 = mul i32 %222, %224
  %226 = urem i32 %225, 2
  %227 = icmp eq i32 %226, 0
  %228 = icmp slt i32 %223, 10
  %229 = or i1 %227, %228
  br i1 %229, label %230, label %531

; <label>:230:                                    ; preds = %208
  invoke void @_ZNSt6vectorI4EdgeSaIS0_EE9push_backERKS0_(%"class.std::vector.26"* %221, %struct.Edge* dereferenceable(16) %25)
          to label %231 unwind label %235

; <label>:231:                                    ; preds = %230
  br label %232

; <label>:232:                                    ; preds = %231, %144
  %233 = load i32, i32* %24, align 4
  %234 = add nsw i32 %233, 1
  store i32 %234, i32* %24, align 4
  br label %117

; <label>:235:                                    ; preds = %230, %198
  %236 = landingpad { i8*, i32 }
          cleanup
  %237 = extractvalue { i8*, i32 } %236, 0
  store i8* %237, i8** %17, align 8
  %238 = extractvalue { i8*, i32 } %236, 1
  store i32 %238, i32* %18, align 4
  br label %429

; <label>:239:                                    ; preds = %117
  store i32 0, i32* %26, align 4
  br label %240

; <label>:240:                                    ; preds = %404, %239
  %241 = load i32, i32* %26, align 4
  %242 = sext i32 %241 to i64
  %243 = load i64, i64* %11, align 8
  %244 = icmp slt i64 %242, %243
  br i1 %244, label %245, label %407

; <label>:245:                                    ; preds = %240
  %246 = load i32, i32* @x.151
  %247 = load i32, i32* @y.152
  %248 = sub i32 %246, 1
  %249 = mul i32 %246, %248
  %250 = urem i32 %249, 2
  %251 = icmp eq i32 %250, 0
  %252 = icmp slt i32 %247, 10
  %253 = or i1 %251, %252
  br i1 %253, label %254, label %545

; <label>:254:                                    ; preds = %245, %545
  call void @_ZNSt6vectorIxSaIxEEC2Ev(%"class.std::vector.0"* %27) #3
  call void @_ZNSt6vectorIxSaIxEEC2Ev(%"class.std::vector.0"* %28) #3
  %255 = load i32, i32* %26, align 4
  %256 = load i32, i32* @x.151
  %257 = load i32, i32* @y.152
  %258 = sub i32 %256, 1
  %259 = mul i32 %256, %258
  %260 = urem i32 %259, 2
  %261 = icmp eq i32 %260, 0
  %262 = icmp slt i32 %257, 10
  %263 = or i1 %261, %262
  br i1 %263, label %264, label %545

; <label>:264:                                    ; preds = %254
  invoke void @_Z8dijkstraRKSt6vectorIS_I4EdgeSaIS0_EESaIS2_EEiRS_IxSaIxEES9_(%"class.std::vector.21"* dereferenceable(24) %22, i32 %255, %"class.std::vector.0"* dereferenceable(24) %27, %"class.std::vector.0"* dereferenceable(24) %28)
          to label %265 unwind label %316

; <label>:265:                                    ; preds = %264
  %266 = load i32, i32* @x.151
  %267 = load i32, i32* @y.152
  %268 = sub i32 %266, 1
  %269 = mul i32 %266, %268
  %270 = urem i32 %269, 2
  %271 = icmp eq i32 %270, 0
  %272 = icmp slt i32 %267, 10
  %273 = or i1 %271, %272
  br i1 %273, label %274, label %547

; <label>:274:                                    ; preds = %265, %547
  store i8 1, i8* %29, align 1
  store i32 0, i32* %30, align 4
  %275 = load i32, i32* @x.151
  %276 = load i32, i32* @y.152
  %277 = sub i32 %275, 1
  %278 = mul i32 %275, %277
  %279 = urem i32 %278, 2
  %280 = icmp eq i32 %279, 0
  %281 = icmp slt i32 %276, 10
  %282 = or i1 %280, %281
  br i1 %282, label %283, label %547

; <label>:283:                                    ; preds = %274
  br label %284

; <label>:284:                                    ; preds = %359, %283
  %285 = load i32, i32* %30, align 4
  %286 = sext i32 %285 to i64
  %287 = call i64 @_ZNKSt6vectorIxSaIxEE4sizeEv(%"class.std::vector.0"* %27) #3
  %288 = icmp ult i64 %286, %287
  br i1 %288, label %289, label %360

; <label>:289:                                    ; preds = %284
  %290 = load i32, i32* %30, align 4
  %291 = sext i32 %290 to i64
  %292 = call dereferenceable(8) i64* @_ZNSt6vectorIxSaIxEEixEm(%"class.std::vector.0"* %27, i64 %291) #3
  %293 = load i64, i64* %292, align 8
  %294 = icmp eq i64 %293, 1152921504606846976
  br i1 %294, label %295, label %338

; <label>:295:                                    ; preds = %289
  %296 = load i32, i32* @x.151
  %297 = load i32, i32* @y.152
  %298 = sub i32 %296, 1
  %299 = mul i32 %296, %298
  %300 = urem i32 %299, 2
  %301 = icmp eq i32 %300, 0
  %302 = icmp slt i32 %297, 10
  %303 = or i1 %301, %302
  br i1 %303, label %304, label %548

; <label>:304:                                    ; preds = %295, %548
  %305 = load i64, i64* %20, align 8
  %306 = add nsw i64 %305, 1
  store i64 %306, i64* %20, align 8
  store i8 0, i8* %29, align 1
  %307 = load i32, i32* @x.151
  %308 = load i32, i32* @y.152
  %309 = sub i32 %307, 1
  %310 = mul i32 %307, %309
  %311 = urem i32 %310, 2
  %312 = icmp eq i32 %311, 0
  %313 = icmp slt i32 %308, 10
  %314 = or i1 %312, %313
  br i1 %314, label %315, label %548

; <label>:315:                                    ; preds = %304
  br label %360

; <label>:316:                                    ; preds = %264
  %317 = load i32, i32* @x.151
  %318 = load i32, i32* @y.152
  %319 = sub i32 %317, 1
  %320 = mul i32 %317, %319
  %321 = urem i32 %320, 2
  %322 = icmp eq i32 %321, 0
  %323 = icmp slt i32 %318, 10
  %324 = or i1 %322, %323
  br i1 %324, label %325, label %553

; <label>:325:                                    ; preds = %316, %553
  %326 = landingpad { i8*, i32 }
          cleanup
  %327 = extractvalue { i8*, i32 } %326, 0
  store i8* %327, i8** %17, align 8
  %328 = extractvalue { i8*, i32 } %326, 1
  store i32 %328, i32* %18, align 4
  call void @_ZNSt6vectorIxSaIxEED2Ev(%"class.std::vector.0"* %28) #3
  call void @_ZNSt6vectorIxSaIxEED2Ev(%"class.std::vector.0"* %27) #3
  %329 = load i32, i32* @x.151
  %330 = load i32, i32* @y.152
  %331 = sub i32 %329, 1
  %332 = mul i32 %329, %331
  %333 = urem i32 %332, 2
  %334 = icmp eq i32 %333, 0
  %335 = icmp slt i32 %330, 10
  %336 = or i1 %334, %335
  br i1 %336, label %337, label %553

; <label>:337:                                    ; preds = %325
  br label %429

; <label>:338:                                    ; preds = %289
  br label %339

; <label>:339:                                    ; preds = %338
  %340 = load i32, i32* @x.151
  %341 = load i32, i32* @y.152
  %342 = sub i32 %340, 1
  %343 = mul i32 %340, %342
  %344 = urem i32 %343, 2
  %345 = icmp eq i32 %344, 0
  %346 = icmp slt i32 %341, 10
  %347 = or i1 %345, %346
  br i1 %347, label %348, label %557

; <label>:348:                                    ; preds = %339, %557
  %349 = load i32, i32* %30, align 4
  %350 = add nsw i32 %349, 1
  store i32 %350, i32* %30, align 4
  %351 = load i32, i32* @x.151
  %352 = load i32, i32* @y.152
  %353 = sub i32 %351, 1
  %354 = mul i32 %351, %353
  %355 = urem i32 %354, 2
  %356 = icmp eq i32 %355, 0
  %357 = icmp slt i32 %352, 10
  %358 = or i1 %356, %357
  br i1 %358, label %359, label %557

; <label>:359:                                    ; preds = %348
  br label %284

; <label>:360:                                    ; preds = %315, %284
  %361 = load i32, i32* @x.151
  %362 = load i32, i32* @y.152
  %363 = sub i32 %361, 1
  %364 = mul i32 %361, %363
  %365 = urem i32 %364, 2
  %366 = icmp eq i32 %365, 0
  %367 = icmp slt i32 %362, 10
  %368 = or i1 %366, %367
  br i1 %368, label %369, label %573

; <label>:369:                                    ; preds = %360, %573
  %370 = load i8, i8* %29, align 1
  %371 = trunc i8 %370 to i1
  %372 = load i32, i32* @x.151
  %373 = load i32, i32* @y.152
  %374 = sub i32 %372, 1
  %375 = mul i32 %372, %374
  %376 = urem i32 %375, 2
  %377 = icmp eq i32 %376, 0
  %378 = icmp slt i32 %373, 10
  %379 = or i1 %377, %378
  br i1 %379, label %380, label %573

; <label>:380:                                    ; preds = %369
  br i1 %371, label %400, label %381

; <label>:381:                                    ; preds = %380
  %382 = load i32, i32* @x.151
  %383 = load i32, i32* @y.152
  %384 = sub i32 %382, 1
  %385 = mul i32 %382, %384
  %386 = urem i32 %385, 2
  %387 = icmp eq i32 %386, 0
  %388 = icmp slt i32 %383, 10
  %389 = or i1 %387, %388
  br i1 %389, label %390, label %576

; <label>:390:                                    ; preds = %381, %576
  store i32 11, i32* %31, align 4
  %391 = load i32, i32* @x.151
  %392 = load i32, i32* @y.152
  %393 = sub i32 %391, 1
  %394 = mul i32 %391, %393
  %395 = urem i32 %394, 2
  %396 = icmp eq i32 %395, 0
  %397 = icmp slt i32 %392, 10
  %398 = or i1 %396, %397
  br i1 %398, label %399, label %576

; <label>:399:                                    ; preds = %390
  br label %401

; <label>:400:                                    ; preds = %380
  store i32 0, i32* %31, align 4
  br label %401

; <label>:401:                                    ; preds = %400, %399
  call void @_ZNSt6vectorIxSaIxEED2Ev(%"class.std::vector.0"* %28) #3
  call void @_ZNSt6vectorIxSaIxEED2Ev(%"class.std::vector.0"* %27) #3
  %402 = load i32, i32* %31, align 4
  switch i32 %402, label %461 [
    i32 0, label %403
    i32 11, label %407
  ]

; <label>:403:                                    ; preds = %401
  br label %404

; <label>:404:                                    ; preds = %403
  %405 = load i32, i32* %26, align 4
  %406 = add nsw i32 %405, 1
  store i32 %406, i32* %26, align 4
  br label %240

; <label>:407:                                    ; preds = %401, %240
  call void @_ZNSt6vectorIS_I4EdgeSaIS0_EESaIS2_EED2Ev(%"class.std::vector.21"* %22) #3
  br label %408

; <label>:408:                                    ; preds = %407
  %409 = load i32, i32* @x.151
  %410 = load i32, i32* @y.152
  %411 = sub i32 %409, 1
  %412 = mul i32 %409, %411
  %413 = urem i32 %412, 2
  %414 = icmp eq i32 %413, 0
  %415 = icmp slt i32 %410, 10
  %416 = or i1 %414, %415
  br i1 %416, label %417, label %577

; <label>:417:                                    ; preds = %408, %577
  %418 = load i32, i32* %21, align 4
  %419 = add nsw i32 %418, 1
  store i32 %419, i32* %21, align 4
  %420 = load i32, i32* @x.151
  %421 = load i32, i32* @y.152
  %422 = sub i32 %420, 1
  %423 = mul i32 %420, %422
  %424 = urem i32 %423, 2
  %425 = icmp eq i32 %424, 0
  %426 = icmp slt i32 %421, 10
  %427 = or i1 %425, %426
  br i1 %427, label %428, label %577

; <label>:428:                                    ; preds = %417
  br label %109

; <label>:429:                                    ; preds = %337, %235
  call void @_ZNSt6vectorIS_I4EdgeSaIS0_EESaIS2_EED2Ev(%"class.std::vector.21"* %22) #3
  br label %437

; <label>:430:                                    ; preds = %109
  %431 = load i64, i64* %20, align 8
  %432 = invoke dereferenceable(272) %"class.std::basic_ostream"* @_ZNSolsEx(%"class.std::basic_ostream"* @_ZSt4cout, i64 %431)
          to label %433 unwind label %104

; <label>:433:                                    ; preds = %430
  %434 = invoke dereferenceable(272) %"class.std::basic_ostream"* @_ZNSolsEPFRSoS_E(%"class.std::basic_ostream"* %432, %"class.std::basic_ostream"* (%"class.std::basic_ostream"*)* @_ZSt4endlIcSt11char_traitsIcEERSt13basic_ostreamIT_T0_ES6_)
          to label %435 unwind label %104

; <label>:435:                                    ; preds = %433
  store i32 0, i32* %10, align 4
  store i32 1, i32* %31, align 4
  call void @_ZNSt6vectorISt4pairIxxESaIS1_EED2Ev(%"class.std::vector.31"* %13) #3
  %436 = load i32, i32* %10, align 4
  ret i32 %436

; <label>:437:                                    ; preds = %429, %166, %104
  call void @_ZNSt6vectorISt4pairIxxESaIS1_EED2Ev(%"class.std::vector.31"* %13) #3
  br label %438

; <label>:438:                                    ; preds = %437
  %439 = load i32, i32* @x.151
  %440 = load i32, i32* @y.152
  %441 = sub i32 %439, 1
  %442 = mul i32 %439, %441
  %443 = urem i32 %442, 2
  %444 = icmp eq i32 %443, 0
  %445 = icmp slt i32 %440, 10
  %446 = or i1 %444, %445
  br i1 %446, label %447, label %583

; <label>:447:                                    ; preds = %438, %583
  %448 = load i8*, i8** %17, align 8
  %449 = load i32, i32* %18, align 4
  %450 = insertvalue { i8*, i32 } undef, i8* %448, 0
  %451 = insertvalue { i8*, i32 } %450, i32 %449, 1
  %452 = load i32, i32* @x.151
  %453 = load i32, i32* @y.152
  %454 = sub i32 %452, 1
  %455 = mul i32 %452, %454
  %456 = urem i32 %455, 2
  %457 = icmp eq i32 %456, 0
  %458 = icmp slt i32 %453, 10
  %459 = or i1 %457, %458
  br i1 %459, label %460, label %583

; <label>:460:                                    ; preds = %447
  resume { i8*, i32 } %451

; <label>:461:                                    ; preds = %401
  unreachable

; <label>:462:                                    ; preds = %9, %0
  %463 = alloca i32, align 4
  %464 = alloca i64, align 8
  %465 = alloca i64, align 8
  %466 = alloca %"class.std::vector.31", align 8
  %467 = alloca i32, align 4
  %468 = alloca i64, align 8
  %469 = alloca i64, align 8
  %470 = alloca i8*
  %471 = alloca i32
  %472 = alloca %"struct.std::pair.36", align 8
  %473 = alloca i64, align 8
  %474 = alloca i32, align 4
  %475 = alloca %"class.std::vector.21", align 8
  %476 = alloca %"class.std::allocator.23", align 1
  %477 = alloca i32, align 4
  %478 = alloca %struct.Edge, align 8
  %479 = alloca i32, align 4
  %480 = alloca %"class.std::vector.0", align 8
  %481 = alloca %"class.std::vector.0", align 8
  %482 = alloca i8, align 1
  %483 = alloca i32, align 4
  %484 = alloca i32
  store i32 0, i32* %463, align 4
  %485 = call dereferenceable(280) %"class.std::basic_istream"* @_ZNSirsERx(%"class.std::basic_istream"* @_ZSt3cin, i64* dereferenceable(8) %464)
  %486 = call dereferenceable(280) %"class.std::basic_istream"* @_ZNSirsERx(%"class.std::basic_istream"* %485, i64* dereferenceable(8) %465)
  call void @_ZNSt6vectorISt4pairIxxESaIS1_EEC2Ev(%"class.std::vector.31"* %466) #3
  store i32 0, i32* %467, align 4
  br label %9

; <label>:487:                                    ; preds = %61, %52
  %488 = load i64, i64* %15, align 8
  %489 = shl i64 %488, -1
  %490 = add nsw i64 %488, -1
  store i64 %490, i64* %15, align 8
  %491 = load i64, i64* %16, align 8
  %492 = shl i64 %491, -1
  %493 = sub i64 %491, -1
  %494 = mul i64 %493, -1
  %495 = shl i64 %491, -1
  %496 = sub i64 %491, -1
  %497 = mul i64 %496, -1
  %498 = sub i64 %491, -1
  %499 = mul i64 %498, -1
  %500 = sub i64 %491, -1
  %501 = mul i64 %500, -1
  %502 = shl i64 %491, -1
  %503 = add nsw i64 %491, -1
  store i64 %503, i64* %16, align 8
  br label %61

; <label>:504:                                    ; preds = %92, %83
  %505 = load i32, i32* %14, align 4
  %506 = sub i32 %505, 1
  %507 = mul i32 %506, 1
  %508 = add nsw i32 %505, 1
  store i32 %508, i32* %14, align 4
  br label %92

; <label>:509:                                    ; preds = %131, %122
  %510 = load i32, i32* %21, align 4
  %511 = load i32, i32* %24, align 4
  %512 = icmp eq i32 %510, %511
  br label %131

; <label>:513:                                    ; preds = %154, %145
  %514 = landingpad { i8*, i32 }
          cleanup
  %515 = extractvalue { i8*, i32 } %514, 0
  store i8* %515, i8** %17, align 8
  %516 = extractvalue { i8*, i32 } %514, 1
  store i32 %516, i32* %18, align 4
  call void @_ZNSaISt6vectorI4EdgeSaIS0_EEED2Ev(%"class.std::allocator.23"* %23) #3
  br label %154

; <label>:517:                                    ; preds = %176, %167
  %518 = load i32, i32* %24, align 4
  %519 = sext i32 %518 to i64
  %520 = call dereferenceable(16) %"struct.std::pair.36"* @_ZNSt6vectorISt4pairIxxESaIS1_EEixEm(%"class.std::vector.31"* %13, i64 %519) #3
  %521 = getelementptr inbounds %"struct.std::pair.36", %"struct.std::pair.36"* %520, i32 0, i32 1
  %522 = load i64, i64* %521, align 8
  %523 = getelementptr inbounds %struct.Edge, %struct.Edge* %25, i32 0, i32 0
  store i64 %522, i64* %523, align 8
  %524 = getelementptr inbounds %struct.Edge, %struct.Edge* %25, i32 0, i32 1
  store i64 1, i64* %524, align 8
  %525 = load i32, i32* %24, align 4
  %526 = sext i32 %525 to i64
  %527 = call dereferenceable(16) %"struct.std::pair.36"* @_ZNSt6vectorISt4pairIxxESaIS1_EEixEm(%"class.std::vector.31"* %13, i64 %526) #3
  %528 = getelementptr inbounds %"struct.std::pair.36", %"struct.std::pair.36"* %527, i32 0, i32 0
  %529 = load i64, i64* %528, align 8
  %530 = call dereferenceable(24) %"class.std::vector.26"* @_ZNSt6vectorIS_I4EdgeSaIS0_EESaIS2_EEixEm(%"class.std::vector.21"* %22, i64 %529) #3
  br label %176

; <label>:531:                                    ; preds = %208, %199
  %532 = load i32, i32* %24, align 4
  %533 = sext i32 %532 to i64
  %534 = call dereferenceable(16) %"struct.std::pair.36"* @_ZNSt6vectorISt4pairIxxESaIS1_EEixEm(%"class.std::vector.31"* %13, i64 %533) #3
  %535 = getelementptr inbounds %"struct.std::pair.36", %"struct.std::pair.36"* %534, i32 0, i32 0
  %536 = load i64, i64* %535, align 8
  %537 = getelementptr inbounds %struct.Edge, %struct.Edge* %25, i32 0, i32 0
  store i64 %536, i64* %537, align 8
  %538 = getelementptr inbounds %struct.Edge, %struct.Edge* %25, i32 0, i32 1
  store i64 1, i64* %538, align 8
  %539 = load i32, i32* %24, align 4
  %540 = sext i32 %539 to i64
  %541 = call dereferenceable(16) %"struct.std::pair.36"* @_ZNSt6vectorISt4pairIxxESaIS1_EEixEm(%"class.std::vector.31"* %13, i64 %540) #3
  %542 = getelementptr inbounds %"struct.std::pair.36", %"struct.std::pair.36"* %541, i32 0, i32 1
  %543 = load i64, i64* %542, align 8
  %544 = call dereferenceable(24) %"class.std::vector.26"* @_ZNSt6vectorIS_I4EdgeSaIS0_EESaIS2_EEixEm(%"class.std::vector.21"* %22, i64 %543) #3
  br label %208

; <label>:545:                                    ; preds = %254, %245
  call void @_ZNSt6vectorIxSaIxEEC2Ev(%"class.std::vector.0"* %27) #3
  call void @_ZNSt6vectorIxSaIxEEC2Ev(%"class.std::vector.0"* %28) #3
  %546 = load i32, i32* %26, align 4
  br label %254

; <label>:547:                                    ; preds = %274, %265
  store i8 1, i8* %29, align 1
  store i32 0, i32* %30, align 4
  br label %274

; <label>:548:                                    ; preds = %304, %295
  %549 = load i64, i64* %20, align 8
  %550 = sub i64 0, %549
  %551 = add i64 %550, 1
  %552 = add nsw i64 %549, 1
  store i64 %552, i64* %20, align 8
  store i8 0, i8* %29, align 1
  br label %304

; <label>:553:                                    ; preds = %325, %316
  %554 = landingpad { i8*, i32 }
          cleanup
  %555 = extractvalue { i8*, i32 } %554, 0
  store i8* %555, i8** %17, align 8
  %556 = extractvalue { i8*, i32 } %554, 1
  store i32 %556, i32* %18, align 4
  call void @_ZNSt6vectorIxSaIxEED2Ev(%"class.std::vector.0"* %28) #3
  call void @_ZNSt6vectorIxSaIxEED2Ev(%"class.std::vector.0"* %27) #3
  br label %325

; <label>:557:                                    ; preds = %348, %339
  %558 = load i32, i32* %30, align 4
  %559 = sub i32 %558, 1
  %560 = mul i32 %559, 1
  %561 = sub i32 0, %558
  %562 = add i32 %561, 1
  %563 = sub i32 0, %558
  %564 = add i32 %563, 1
  %565 = shl i32 %558, 1
  %566 = sub i32 %558, 1
  %567 = mul i32 %566, 1
  %568 = sub i32 0, %558
  %569 = add i32 %568, 1
  %570 = sub i32 0, %558
  %571 = add i32 %570, 1
  %572 = add nsw i32 %558, 1
  store i32 %572, i32* %30, align 4
  br label %348

; <label>:573:                                    ; preds = %369, %360
  %574 = load i8, i8* %29, align 1
  %575 = trunc i8 %574 to i1
  br label %369

; <label>:576:                                    ; preds = %390, %381
  store i32 11, i32* %31, align 4
  br label %390

; <label>:577:                                    ; preds = %417, %408
  %578 = load i32, i32* %21, align 4
  %579 = sub i32 0, %578
  %580 = add i32 %579, 1
  %581 = shl i32 %578, 1
  %582 = add nsw i32 %578, 1
  store i32 %582, i32* %21, align 4
  br label %417

; <label>:583:                                    ; preds = %447, %438
  %584 = load i8*, i8** %17, align 8
  %585 = load i32, i32* %18, align 4
  %586 = insertvalue { i8*, i32 } undef, i8* %584, 0
  %587 = insertvalue { i8*, i32 } %586, i32 %585, 1
  br label %447
}

declare dereferenceable(280) %"class.std::basic_istream"* @_ZNSirsERx(%"class.std::basic_istream"*, i64* dereferenceable(8)) #1

; Function Attrs: noinline uwtable
define linkonce_odr void @_ZNSt6vectorISt4pairIxxESaIS1_EE9push_backEOS1_(%"class.std::vector.31"*, %"struct.std::pair.36"* dereferenceable(16)) #0 comdat align 2 {
  %3 = load i32, i32* @x.153
  %4 = load i32, i32* @y.154
  %5 = sub i32 %3, 1
  %6 = mul i32 %3, %5
  %7 = urem i32 %6, 2
  %8 = icmp eq i32 %7, 0
  %9 = icmp slt i32 %4, 10
  %10 = or i1 %8, %9
  br i1 %10, label %11, label %26

; <label>:11:                                     ; preds = %2, %26
  %12 = alloca %"class.std::vector.31"*, align 8
  %13 = alloca %"struct.std::pair.36"*, align 8
  store %"class.std::vector.31"* %0, %"class.std::vector.31"** %12, align 8
  store %"struct.std::pair.36"* %1, %"struct.std::pair.36"** %13, align 8
  %14 = load %"class.std::vector.31"*, %"class.std::vector.31"** %12, align 8
  %15 = load %"struct.std::pair.36"*, %"struct.std::pair.36"** %13, align 8
  %16 = call dereferenceable(16) %"struct.std::pair.36"* @_ZSt4moveIRSt4pairIxxEEONSt16remove_referenceIT_E4typeEOS4_(%"struct.std::pair.36"* dereferenceable(16) %15) #3
  call void @_ZNSt6vectorISt4pairIxxESaIS1_EE12emplace_backIJS1_EEEvDpOT_(%"class.std::vector.31"* %14, %"struct.std::pair.36"* dereferenceable(16) %16)
  %17 = load i32, i32* @x.153
  %18 = load i32, i32* @y.154
  %19 = sub i32 %17, 1
  %20 = mul i32 %17, %19
  %21 = urem i32 %20, 2
  %22 = icmp eq i32 %21, 0
  %23 = icmp slt i32 %18, 10
  %24 = or i1 %22, %23
  br i1 %24, label %25, label %26

; <label>:25:                                     ; preds = %11
  ret void

; <label>:26:                                     ; preds = %11, %2
  %27 = alloca %"class.std::vector.31"*, align 8
  %28 = alloca %"struct.std::pair.36"*, align 8
  store %"class.std::vector.31"* %0, %"class.std::vector.31"** %27, align 8
  store %"struct.std::pair.36"* %1, %"struct.std::pair.36"** %28, align 8
  %29 = load %"class.std::vector.31"*, %"class.std::vector.31"** %27, align 8
  %30 = load %"struct.std::pair.36"*, %"struct.std::pair.36"** %28, align 8
  %31 = call dereferenceable(16) %"struct.std::pair.36"* @_ZSt4moveIRSt4pairIxxEEONSt16remove_referenceIT_E4typeEOS4_(%"struct.std::pair.36"* dereferenceable(16) %30) #3
  call void @_ZNSt6vectorISt4pairIxxESaIS1_EE12emplace_backIJS1_EEEvDpOT_(%"class.std::vector.31"* %29, %"struct.std::pair.36"* dereferenceable(16) %31)
  br label %11
}

; Function Attrs: noinline uwtable
define linkonce_odr { i64, i64 } @_ZSt9make_pairIRxS0_ESt4pairINSt17__decay_and_stripIT_E6__typeENS2_IT0_E6__typeEEOS3_OS6_(i64* dereferenceable(8), i64* dereferenceable(8)) #0 comdat {
  %3 = load i32, i32* @x.155
  %4 = load i32, i32* @y.156
  %5 = sub i32 %3, 1
  %6 = mul i32 %3, %5
  %7 = urem i32 %6, 2
  %8 = icmp eq i32 %7, 0
  %9 = icmp slt i32 %4, 10
  %10 = or i1 %8, %9
  br i1 %10, label %11, label %30

; <label>:11:                                     ; preds = %2, %30
  %12 = alloca %"struct.std::pair.36", align 8
  %13 = alloca i64*, align 8
  %14 = alloca i64*, align 8
  store i64* %0, i64** %13, align 8
  store i64* %1, i64** %14, align 8
  %15 = load i64*, i64** %13, align 8
  %16 = call dereferenceable(8) i64* @_ZSt7forwardIRxEOT_RNSt16remove_referenceIS1_E4typeE(i64* dereferenceable(8) %15) #3
  %17 = load i64*, i64** %14, align 8
  %18 = call dereferenceable(8) i64* @_ZSt7forwardIRxEOT_RNSt16remove_referenceIS1_E4typeE(i64* dereferenceable(8) %17) #3
  call void @_ZNSt4pairIxxEC2IRxS2_vEEOT_OT0_(%"struct.std::pair.36"* %12, i64* dereferenceable(8) %16, i64* dereferenceable(8) %18)
  %19 = bitcast %"struct.std::pair.36"* %12 to { i64, i64 }*
  %20 = load { i64, i64 }, { i64, i64 }* %19, align 8
  %21 = load i32, i32* @x.155
  %22 = load i32, i32* @y.156
  %23 = sub i32 %21, 1
  %24 = mul i32 %21, %23
  %25 = urem i32 %24, 2
  %26 = icmp eq i32 %25, 0
  %27 = icmp slt i32 %22, 10
  %28 = or i1 %26, %27
  br i1 %28, label %29, label %30

; <label>:29:                                     ; preds = %11
  ret { i64, i64 } %20

; <label>:30:                                     ; preds = %11, %2
  %31 = alloca %"struct.std::pair.36", align 8
  %32 = alloca i64*, align 8
  %33 = alloca i64*, align 8
  store i64* %0, i64** %32, align 8
  store i64* %1, i64** %33, align 8
  %34 = load i64*, i64** %32, align 8
  %35 = call dereferenceable(8) i64* @_ZSt7forwardIRxEOT_RNSt16remove_referenceIS1_E4typeE(i64* dereferenceable(8) %34) #3
  %36 = load i64*, i64** %33, align 8
  %37 = call dereferenceable(8) i64* @_ZSt7forwardIRxEOT_RNSt16remove_referenceIS1_E4typeE(i64* dereferenceable(8) %36) #3
  call void @_ZNSt4pairIxxEC2IRxS2_vEEOT_OT0_(%"struct.std::pair.36"* %31, i64* dereferenceable(8) %35, i64* dereferenceable(8) %37)
  %38 = bitcast %"struct.std::pair.36"* %31 to { i64, i64 }*
  %39 = load { i64, i64 }, { i64, i64 }* %38, align 8
  br label %11
}

; Function Attrs: noinline nounwind uwtable
define linkonce_odr void @_ZNSaISt6vectorI4EdgeSaIS0_EEEC2Ev(%"class.std::allocator.23"*) unnamed_addr #4 comdat align 2 {
  %2 = load i32, i32* @x.157
  %3 = load i32, i32* @y.158
  %4 = sub i32 %2, 1
  %5 = mul i32 %2, %4
  %6 = urem i32 %5, 2
  %7 = icmp eq i32 %6, 0
  %8 = icmp slt i32 %3, 10
  %9 = or i1 %7, %8
  br i1 %9, label %10, label %23

; <label>:10:                                     ; preds = %1, %23
  %11 = alloca %"class.std::allocator.23"*, align 8
  store %"class.std::allocator.23"* %0, %"class.std::allocator.23"** %11, align 8
  %12 = load %"class.std::allocator.23"*, %"class.std::allocator.23"** %11, align 8
  %13 = bitcast %"class.std::allocator.23"* %12 to %"class.__gnu_cxx::new_allocator.24"*
  call void @_ZN9__gnu_cxx13new_allocatorISt6vectorI4EdgeSaIS2_EEEC2Ev(%"class.__gnu_cxx::new_allocator.24"* %13) #3
  %14 = load i32, i32* @x.157
  %15 = load i32, i32* @y.158
  %16 = sub i32 %14, 1
  %17 = mul i32 %14, %16
  %18 = urem i32 %17, 2
  %19 = icmp eq i32 %18, 0
  %20 = icmp slt i32 %15, 10
  %21 = or i1 %19, %20
  br i1 %21, label %22, label %23

; <label>:22:                                     ; preds = %10
  ret void

; <label>:23:                                     ; preds = %10, %1
  %24 = alloca %"class.std::allocator.23"*, align 8
  store %"class.std::allocator.23"* %0, %"class.std::allocator.23"** %24, align 8
  %25 = load %"class.std::allocator.23"*, %"class.std::allocator.23"** %24, align 8
  %26 = bitcast %"class.std::allocator.23"* %25 to %"class.__gnu_cxx::new_allocator.24"*
  call void @_ZN9__gnu_cxx13new_allocatorISt6vectorI4EdgeSaIS2_EEEC2Ev(%"class.__gnu_cxx::new_allocator.24"* %26) #3
  br label %10
}

; Function Attrs: noinline uwtable
define linkonce_odr void @_ZNSt6vectorIS_I4EdgeSaIS0_EESaIS2_EEC2EmRKS3_(%"class.std::vector.21"*, i64, %"class.std::allocator.23"* dereferenceable(1)) unnamed_addr #0 comdat align 2 personality i8* bitcast (i32 (...)* @__gxx_personality_v0 to i8*) {
  %4 = load i32, i32* @x.159
  %5 = load i32, i32* @y.160
  %6 = sub i32 %4, 1
  %7 = mul i32 %4, %6
  %8 = urem i32 %7, 2
  %9 = icmp eq i32 %8, 0
  %10 = icmp slt i32 %5, 10
  %11 = or i1 %9, %10
  br i1 %11, label %12, label %61

; <label>:12:                                     ; preds = %3, %61
  %13 = alloca %"class.std::vector.21"*, align 8
  %14 = alloca i64, align 8
  %15 = alloca %"class.std::allocator.23"*, align 8
  %16 = alloca i8*
  %17 = alloca i32
  store %"class.std::vector.21"* %0, %"class.std::vector.21"** %13, align 8
  store i64 %1, i64* %14, align 8
  store %"class.std::allocator.23"* %2, %"class.std::allocator.23"** %15, align 8
  %18 = load %"class.std::vector.21"*, %"class.std::vector.21"** %13, align 8
  %19 = bitcast %"class.std::vector.21"* %18 to %"struct.std::_Vector_base.22"*
  %20 = load i64, i64* %14, align 8
  %21 = load %"class.std::allocator.23"*, %"class.std::allocator.23"** %15, align 8
  call void @_ZNSt12_Vector_baseISt6vectorI4EdgeSaIS1_EESaIS3_EEC2EmRKS4_(%"struct.std::_Vector_base.22"* %19, i64 %20, %"class.std::allocator.23"* dereferenceable(1) %21)
  %22 = load i64, i64* %14, align 8
  %23 = load i32, i32* @x.159
  %24 = load i32, i32* @y.160
  %25 = sub i32 %23, 1
  %26 = mul i32 %23, %25
  %27 = urem i32 %26, 2
  %28 = icmp eq i32 %27, 0
  %29 = icmp slt i32 %24, 10
  %30 = or i1 %28, %29
  br i1 %30, label %31, label %61

; <label>:31:                                     ; preds = %12
  invoke void @_ZNSt6vectorIS_I4EdgeSaIS0_EESaIS2_EE21_M_default_initializeEm(%"class.std::vector.21"* %18, i64 %22)
          to label %32 unwind label %51

; <label>:32:                                     ; preds = %31
  %33 = load i32, i32* @x.159
  %34 = load i32, i32* @y.160
  %35 = sub i32 %33, 1
  %36 = mul i32 %33, %35
  %37 = urem i32 %36, 2
  %38 = icmp eq i32 %37, 0
  %39 = icmp slt i32 %34, 10
  %40 = or i1 %38, %39
  br i1 %40, label %41, label %72

; <label>:41:                                     ; preds = %32, %72
  %42 = load i32, i32* @x.159
  %43 = load i32, i32* @y.160
  %44 = sub i32 %42, 1
  %45 = mul i32 %42, %44
  %46 = urem i32 %45, 2
  %47 = icmp eq i32 %46, 0
  %48 = icmp slt i32 %43, 10
  %49 = or i1 %47, %48
  br i1 %49, label %50, label %72

; <label>:50:                                     ; preds = %41
  ret void

; <label>:51:                                     ; preds = %31
  %52 = landingpad { i8*, i32 }
          cleanup
  %53 = extractvalue { i8*, i32 } %52, 0
  store i8* %53, i8** %16, align 8
  %54 = extractvalue { i8*, i32 } %52, 1
  store i32 %54, i32* %17, align 4
  %55 = bitcast %"class.std::vector.21"* %18 to %"struct.std::_Vector_base.22"*
  call void @_ZNSt12_Vector_baseISt6vectorI4EdgeSaIS1_EESaIS3_EED2Ev(%"struct.std::_Vector_base.22"* %55) #3
  br label %56

; <label>:56:                                     ; preds = %51
  %57 = load i8*, i8** %16, align 8
  %58 = load i32, i32* %17, align 4
  %59 = insertvalue { i8*, i32 } undef, i8* %57, 0
  %60 = insertvalue { i8*, i32 } %59, i32 %58, 1
  resume { i8*, i32 } %60

; <label>:61:                                     ; preds = %12, %3
  %62 = alloca %"class.std::vector.21"*, align 8
  %63 = alloca i64, align 8
  %64 = alloca %"class.std::allocator.23"*, align 8
  %65 = alloca i8*
  %66 = alloca i32
  store %"class.std::vector.21"* %0, %"class.std::vector.21"** %62, align 8
  store i64 %1, i64* %63, align 8
  store %"class.std::allocator.23"* %2, %"class.std::allocator.23"** %64, align 8
  %67 = load %"class.std::vector.21"*, %"class.std::vector.21"** %62, align 8
  %68 = bitcast %"class.std::vector.21"* %67 to %"struct.std::_Vector_base.22"*
  %69 = load i64, i64* %63, align 8
  %70 = load %"class.std::allocator.23"*, %"class.std::allocator.23"** %64, align 8
  call void @_ZNSt12_Vector_baseISt6vectorI4EdgeSaIS1_EESaIS3_EEC2EmRKS4_(%"struct.std::_Vector_base.22"* %68, i64 %69, %"class.std::allocator.23"* dereferenceable(1) %70)
  %71 = load i64, i64* %63, align 8
  br label %12

; <label>:72:                                     ; preds = %41, %32
  br label %41
}

; Function Attrs: noinline nounwind uwtable
define linkonce_odr void @_ZNSaISt6vectorI4EdgeSaIS0_EEED2Ev(%"class.std::allocator.23"*) unnamed_addr #4 comdat align 2 {
  %2 = alloca %"class.std::allocator.23"*, align 8
  store %"class.std::allocator.23"* %0, %"class.std::allocator.23"** %2, align 8
  %3 = load %"class.std::allocator.23"*, %"class.std::allocator.23"** %2, align 8
  %4 = bitcast %"class.std::allocator.23"* %3 to %"class.__gnu_cxx::new_allocator.24"*
  call void @_ZN9__gnu_cxx13new_allocatorISt6vectorI4EdgeSaIS2_EEED2Ev(%"class.__gnu_cxx::new_allocator.24"* %4) #3
  ret void
}

; Function Attrs: noinline nounwind uwtable
define linkonce_odr dereferenceable(16) %"struct.std::pair.36"* @_ZNSt6vectorISt4pairIxxESaIS1_EEixEm(%"class.std::vector.31"*, i64) #4 comdat align 2 {
  %3 = alloca %"class.std::vector.31"*, align 8
  %4 = alloca i64, align 8
  store %"class.std::vector.31"* %0, %"class.std::vector.31"** %3, align 8
  store i64 %1, i64* %4, align 8
  %5 = load %"class.std::vector.31"*, %"class.std::vector.31"** %3, align 8
  %6 = bitcast %"class.std::vector.31"* %5 to %"struct.std::_Vector_base.32"*
  %7 = getelementptr inbounds %"struct.std::_Vector_base.32", %"struct.std::_Vector_base.32"* %6, i32 0, i32 0
  %8 = getelementptr inbounds %"struct.std::_Vector_base<std::pair<long long, long long>, std::allocator<std::pair<long long, long long> > >::_Vector_impl", %"struct.std::_Vector_base<std::pair<long long, long long>, std::allocator<std::pair<long long, long long> > >::_Vector_impl"* %7, i32 0, i32 0
  %9 = load %"struct.std::pair.36"*, %"struct.std::pair.36"** %8, align 8
  %10 = load i64, i64* %4, align 8
  %11 = getelementptr inbounds %"struct.std::pair.36", %"struct.std::pair.36"* %9, i64 %10
  ret %"struct.std::pair.36"* %11
}

; Function Attrs: noinline nounwind uwtable
define linkonce_odr dereferenceable(24) %"class.std::vector.26"* @_ZNSt6vectorIS_I4EdgeSaIS0_EESaIS2_EEixEm(%"class.std::vector.21"*, i64) #4 comdat align 2 {
  %3 = alloca %"class.std::vector.21"*, align 8
  %4 = alloca i64, align 8
  store %"class.std::vector.21"* %0, %"class.std::vector.21"** %3, align 8
  store i64 %1, i64* %4, align 8
  %5 = load %"class.std::vector.21"*, %"class.std::vector.21"** %3, align 8
  %6 = bitcast %"class.std::vector.21"* %5 to %"struct.std::_Vector_base.22"*
  %7 = getelementptr inbounds %"struct.std::_Vector_base.22", %"struct.std::_Vector_base.22"* %6, i32 0, i32 0
  %8 = getelementptr inbounds %"struct.std::_Vector_base<std::vector<Edge, std::allocator<Edge> >, std::allocator<std::vector<Edge, std::allocator<Edge> > > >::_Vector_impl", %"struct.std::_Vector_base<std::vector<Edge, std::allocator<Edge> >, std::allocator<std::vector<Edge, std::allocator<Edge> > > >::_Vector_impl"* %7, i32 0, i32 0
  %9 = load %"class.std::vector.26"*, %"class.std::vector.26"** %8, align 8
  %10 = load i64, i64* %4, align 8
  %11 = getelementptr inbounds %"class.std::vector.26", %"class.std::vector.26"* %9, i64 %10
  ret %"class.std::vector.26"* %11
}

; Function Attrs: noinline uwtable
define linkonce_odr void @_ZNSt6vectorI4EdgeSaIS0_EE9push_backERKS0_(%"class.std::vector.26"*, %struct.Edge* dereferenceable(16)) #0 comdat align 2 {
  %3 = alloca %"class.std::vector.26"*, align 8
  %4 = alloca %struct.Edge*, align 8
  store %"class.std::vector.26"* %0, %"class.std::vector.26"** %3, align 8
  store %struct.Edge* %1, %struct.Edge** %4, align 8
  %5 = load %"class.std::vector.26"*, %"class.std::vector.26"** %3, align 8
  %6 = bitcast %"class.std::vector.26"* %5 to %"struct.std::_Vector_base.27"*
  %7 = getelementptr inbounds %"struct.std::_Vector_base.27", %"struct.std::_Vector_base.27"* %6, i32 0, i32 0
  %8 = getelementptr inbounds %"struct.std::_Vector_base<Edge, std::allocator<Edge> >::_Vector_impl", %"struct.std::_Vector_base<Edge, std::allocator<Edge> >::_Vector_impl"* %7, i32 0, i32 1
  %9 = load %struct.Edge*, %struct.Edge** %8, align 8
  %10 = bitcast %"class.std::vector.26"* %5 to %"struct.std::_Vector_base.27"*
  %11 = getelementptr inbounds %"struct.std::_Vector_base.27", %"struct.std::_Vector_base.27"* %10, i32 0, i32 0
  %12 = getelementptr inbounds %"struct.std::_Vector_base<Edge, std::allocator<Edge> >::_Vector_impl", %"struct.std::_Vector_base<Edge, std::allocator<Edge> >::_Vector_impl"* %11, i32 0, i32 2
  %13 = load %struct.Edge*, %struct.Edge** %12, align 8
  %14 = icmp ne %struct.Edge* %9, %13
  br i1 %14, label %15, label %47

; <label>:15:                                     ; preds = %2
  %16 = load i32, i32* @x.167
  %17 = load i32, i32* @y.168
  %18 = sub i32 %16, 1
  %19 = mul i32 %16, %18
  %20 = urem i32 %19, 2
  %21 = icmp eq i32 %20, 0
  %22 = icmp slt i32 %17, 10
  %23 = or i1 %21, %22
  br i1 %23, label %24, label %50

; <label>:24:                                     ; preds = %15, %50
  %25 = bitcast %"class.std::vector.26"* %5 to %"struct.std::_Vector_base.27"*
  %26 = getelementptr inbounds %"struct.std::_Vector_base.27", %"struct.std::_Vector_base.27"* %25, i32 0, i32 0
  %27 = bitcast %"struct.std::_Vector_base<Edge, std::allocator<Edge> >::_Vector_impl"* %26 to %"class.std::allocator.28"*
  %28 = bitcast %"class.std::vector.26"* %5 to %"struct.std::_Vector_base.27"*
  %29 = getelementptr inbounds %"struct.std::_Vector_base.27", %"struct.std::_Vector_base.27"* %28, i32 0, i32 0
  %30 = getelementptr inbounds %"struct.std::_Vector_base<Edge, std::allocator<Edge> >::_Vector_impl", %"struct.std::_Vector_base<Edge, std::allocator<Edge> >::_Vector_impl"* %29, i32 0, i32 1
  %31 = load %struct.Edge*, %struct.Edge** %30, align 8
  %32 = load %struct.Edge*, %struct.Edge** %4, align 8
  call void @_ZNSt16allocator_traitsISaI4EdgeEE9constructIS0_JRKS0_EEEvRS1_PT_DpOT0_(%"class.std::allocator.28"* dereferenceable(1) %27, %struct.Edge* %31, %struct.Edge* dereferenceable(16) %32)
  %33 = bitcast %"class.std::vector.26"* %5 to %"struct.std::_Vector_base.27"*
  %34 = getelementptr inbounds %"struct.std::_Vector_base.27", %"struct.std::_Vector_base.27"* %33, i32 0, i32 0
  %35 = getelementptr inbounds %"struct.std::_Vector_base<Edge, std::allocator<Edge> >::_Vector_impl", %"struct.std::_Vector_base<Edge, std::allocator<Edge> >::_Vector_impl"* %34, i32 0, i32 1
  %36 = load %struct.Edge*, %struct.Edge** %35, align 8
  %37 = getelementptr inbounds %struct.Edge, %struct.Edge* %36, i32 1
  store %struct.Edge* %37, %struct.Edge** %35, align 8
  %38 = load i32, i32* @x.167
  %39 = load i32, i32* @y.168
  %40 = sub i32 %38, 1
  %41 = mul i32 %38, %40
  %42 = urem i32 %41, 2
  %43 = icmp eq i32 %42, 0
  %44 = icmp slt i32 %39, 10
  %45 = or i1 %43, %44
  br i1 %45, label %46, label %50

; <label>:46:                                     ; preds = %24
  br label %49

; <label>:47:                                     ; preds = %2
  %48 = load %struct.Edge*, %struct.Edge** %4, align 8
  call void @_ZNSt6vectorI4EdgeSaIS0_EE19_M_emplace_back_auxIJRKS0_EEEvDpOT_(%"class.std::vector.26"* %5, %struct.Edge* dereferenceable(16) %48)
  br label %49

; <label>:49:                                     ; preds = %47, %46
  ret void

; <label>:50:                                     ; preds = %24, %15
  %51 = bitcast %"class.std::vector.26"* %5 to %"struct.std::_Vector_base.27"*
  %52 = getelementptr inbounds %"struct.std::_Vector_base.27", %"struct.std::_Vector_base.27"* %51, i32 0, i32 0
  %53 = bitcast %"struct.std::_Vector_base<Edge, std::allocator<Edge> >::_Vector_impl"* %52 to %"class.std::allocator.28"*
  %54 = bitcast %"class.std::vector.26"* %5 to %"struct.std::_Vector_base.27"*
  %55 = getelementptr inbounds %"struct.std::_Vector_base.27", %"struct.std::_Vector_base.27"* %54, i32 0, i32 0
  %56 = getelementptr inbounds %"struct.std::_Vector_base<Edge, std::allocator<Edge> >::_Vector_impl", %"struct.std::_Vector_base<Edge, std::allocator<Edge> >::_Vector_impl"* %55, i32 0, i32 1
  %57 = load %struct.Edge*, %struct.Edge** %56, align 8
  %58 = load %struct.Edge*, %struct.Edge** %4, align 8
  call void @_ZNSt16allocator_traitsISaI4EdgeEE9constructIS0_JRKS0_EEEvRS1_PT_DpOT0_(%"class.std::allocator.28"* dereferenceable(1) %53, %struct.Edge* %57, %struct.Edge* dereferenceable(16) %58)
  %59 = bitcast %"class.std::vector.26"* %5 to %"struct.std::_Vector_base.27"*
  %60 = getelementptr inbounds %"struct.std::_Vector_base.27", %"struct.std::_Vector_base.27"* %59, i32 0, i32 0
  %61 = getelementptr inbounds %"struct.std::_Vector_base<Edge, std::allocator<Edge> >::_Vector_impl", %"struct.std::_Vector_base<Edge, std::allocator<Edge> >::_Vector_impl"* %60, i32 0, i32 1
  %62 = load %struct.Edge*, %struct.Edge** %61, align 8
  %63 = getelementptr inbounds %struct.Edge, %struct.Edge* %62, i32 1
  store %struct.Edge* %63, %struct.Edge** %61, align 8
  br label %24
}

; Function Attrs: noinline nounwind uwtable
define linkonce_odr void @_ZNSt6vectorIS_I4EdgeSaIS0_EESaIS2_EED2Ev(%"class.std::vector.21"*) unnamed_addr #4 comdat align 2 personality i8* bitcast (i32 (...)* @__gxx_personality_v0 to i8*) {
  %2 = alloca %"class.std::vector.21"*, align 8
  %3 = alloca i8*
  %4 = alloca i32
  store %"class.std::vector.21"* %0, %"class.std::vector.21"** %2, align 8
  %5 = load %"class.std::vector.21"*, %"class.std::vector.21"** %2, align 8
  %6 = bitcast %"class.std::vector.21"* %5 to %"struct.std::_Vector_base.22"*
  %7 = getelementptr inbounds %"struct.std::_Vector_base.22", %"struct.std::_Vector_base.22"* %6, i32 0, i32 0
  %8 = getelementptr inbounds %"struct.std::_Vector_base<std::vector<Edge, std::allocator<Edge> >, std::allocator<std::vector<Edge, std::allocator<Edge> > > >::_Vector_impl", %"struct.std::_Vector_base<std::vector<Edge, std::allocator<Edge> >, std::allocator<std::vector<Edge, std::allocator<Edge> > > >::_Vector_impl"* %7, i32 0, i32 0
  %9 = load %"class.std::vector.26"*, %"class.std::vector.26"** %8, align 8
  %10 = bitcast %"class.std::vector.21"* %5 to %"struct.std::_Vector_base.22"*
  %11 = getelementptr inbounds %"struct.std::_Vector_base.22", %"struct.std::_Vector_base.22"* %10, i32 0, i32 0
  %12 = getelementptr inbounds %"struct.std::_Vector_base<std::vector<Edge, std::allocator<Edge> >, std::allocator<std::vector<Edge, std::allocator<Edge> > > >::_Vector_impl", %"struct.std::_Vector_base<std::vector<Edge, std::allocator<Edge> >, std::allocator<std::vector<Edge, std::allocator<Edge> > > >::_Vector_impl"* %11, i32 0, i32 1
  %13 = load %"class.std::vector.26"*, %"class.std::vector.26"** %12, align 8
  %14 = bitcast %"class.std::vector.21"* %5 to %"struct.std::_Vector_base.22"*
  %15 = call dereferenceable(1) %"class.std::allocator.23"* @_ZNSt12_Vector_baseISt6vectorI4EdgeSaIS1_EESaIS3_EE19_M_get_Tp_allocatorEv(%"struct.std::_Vector_base.22"* %14) #3
  invoke void @_ZSt8_DestroyIPSt6vectorI4EdgeSaIS1_EES3_EvT_S5_RSaIT0_E(%"class.std::vector.26"* %9, %"class.std::vector.26"* %13, %"class.std::allocator.23"* dereferenceable(1) %15)
          to label %16 unwind label %18

; <label>:16:                                     ; preds = %1
  %17 = bitcast %"class.std::vector.21"* %5 to %"struct.std::_Vector_base.22"*
  call void @_ZNSt12_Vector_baseISt6vectorI4EdgeSaIS1_EESaIS3_EED2Ev(%"struct.std::_Vector_base.22"* %17) #3
  ret void

; <label>:18:                                     ; preds = %1
  %19 = load i32, i32* @x.169
  %20 = load i32, i32* @y.170
  %21 = sub i32 %19, 1
  %22 = mul i32 %19, %21
  %23 = urem i32 %22, 2
  %24 = icmp eq i32 %23, 0
  %25 = icmp slt i32 %20, 10
  %26 = or i1 %24, %25
  br i1 %26, label %27, label %43

; <label>:27:                                     ; preds = %18, %43
  %28 = landingpad { i8*, i32 }
          catch i8* null
  %29 = extractvalue { i8*, i32 } %28, 0
  store i8* %29, i8** %3, align 8
  %30 = extractvalue { i8*, i32 } %28, 1
  store i32 %30, i32* %4, align 4
  %31 = bitcast %"class.std::vector.21"* %5 to %"struct.std::_Vector_base.22"*
  call void @_ZNSt12_Vector_baseISt6vectorI4EdgeSaIS1_EESaIS3_EED2Ev(%"struct.std::_Vector_base.22"* %31) #3
  %32 = load i32, i32* @x.169
  %33 = load i32, i32* @y.170
  %34 = sub i32 %32, 1
  %35 = mul i32 %32, %34
  %36 = urem i32 %35, 2
  %37 = icmp eq i32 %36, 0
  %38 = icmp slt i32 %33, 10
  %39 = or i1 %37, %38
  br i1 %39, label %40, label %43

; <label>:40:                                     ; preds = %27
  br label %41

; <label>:41:                                     ; preds = %40
  %42 = load i8*, i8** %3, align 8
  call void @__clang_call_terminate(i8* %42) #12
  unreachable

; <label>:43:                                     ; preds = %27, %18
  %44 = landingpad { i8*, i32 }
          catch i8* null
  %45 = extractvalue { i8*, i32 } %44, 0
  store i8* %45, i8** %3, align 8
  %46 = extractvalue { i8*, i32 } %44, 1
  store i32 %46, i32* %4, align 4
  %47 = bitcast %"class.std::vector.21"* %5 to %"struct.std::_Vector_base.22"*
  call void @_ZNSt12_Vector_baseISt6vectorI4EdgeSaIS1_EESaIS3_EED2Ev(%"struct.std::_Vector_base.22"* %47) #3
  br label %27
}

declare dereferenceable(272) %"class.std::basic_ostream"* @_ZNSolsEx(%"class.std::basic_ostream"*, i64) #1

declare dereferenceable(272) %"class.std::basic_ostream"* @_ZNSolsEPFRSoS_E(%"class.std::basic_ostream"*, %"class.std::basic_ostream"* (%"class.std::basic_ostream"*)*) #1

declare dereferenceable(272) %"class.std::basic_ostream"* @_ZSt4endlIcSt11char_traitsIcEERSt13basic_ostreamIT_T0_ES6_(%"class.std::basic_ostream"* dereferenceable(272)) #1

; Function Attrs: nounwind readnone
declare double @acos(double) #7

; Function Attrs: noinline nounwind uwtable
define linkonce_odr dereferenceable(4) i32* @_ZSt7forwardIRiEOT_RNSt16remove_referenceIS1_E4typeE(i32* dereferenceable(4)) #4 comdat {
  %2 = load i32, i32* @x.171
  %3 = load i32, i32* @y.172
  %4 = sub i32 %2, 1
  %5 = mul i32 %2, %4
  %6 = urem i32 %5, 2
  %7 = icmp eq i32 %6, 0
  %8 = icmp slt i32 %3, 10
  %9 = or i1 %7, %8
  br i1 %9, label %10, label %22

; <label>:10:                                     ; preds = %1, %22
  %11 = alloca i32*, align 8
  store i32* %0, i32** %11, align 8
  %12 = load i32*, i32** %11, align 8
  %13 = load i32, i32* @x.171
  %14 = load i32, i32* @y.172
  %15 = sub i32 %13, 1
  %16 = mul i32 %13, %15
  %17 = urem i32 %16, 2
  %18 = icmp eq i32 %17, 0
  %19 = icmp slt i32 %14, 10
  %20 = or i1 %18, %19
  br i1 %20, label %21, label %22

; <label>:21:                                     ; preds = %10
  ret i32* %12

; <label>:22:                                     ; preds = %10, %1
  %23 = alloca i32*, align 8
  store i32* %0, i32** %23, align 8
  %24 = load i32*, i32** %23, align 8
  br label %10
}

; Function Attrs: noinline nounwind uwtable
define linkonce_odr void @_ZNSt4pairIiiEC2IRiS2_vEEOT_OT0_(%"struct.std::pair"*, i32* dereferenceable(4), i32* dereferenceable(4)) unnamed_addr #4 comdat align 2 {
  %4 = alloca %"struct.std::pair"*, align 8
  %5 = alloca i32*, align 8
  %6 = alloca i32*, align 8
  store %"struct.std::pair"* %0, %"struct.std::pair"** %4, align 8
  store i32* %1, i32** %5, align 8
  store i32* %2, i32** %6, align 8
  %7 = load %"struct.std::pair"*, %"struct.std::pair"** %4, align 8
  %8 = getelementptr inbounds %"struct.std::pair", %"struct.std::pair"* %7, i32 0, i32 0
  %9 = load i32*, i32** %5, align 8
  %10 = call dereferenceable(4) i32* @_ZSt7forwardIRiEOT_RNSt16remove_referenceIS1_E4typeE(i32* dereferenceable(4) %9) #3
  %11 = load i32, i32* %10, align 4
  store i32 %11, i32* %8, align 4
  %12 = getelementptr inbounds %"struct.std::pair", %"struct.std::pair"* %7, i32 0, i32 1
  %13 = load i32*, i32** %6, align 8
  %14 = call dereferenceable(4) i32* @_ZSt7forwardIRiEOT_RNSt16remove_referenceIS1_E4typeE(i32* dereferenceable(4) %13) #3
  %15 = load i32, i32* %14, align 4
  store i32 %15, i32* %12, align 4
  ret void
}

; Function Attrs: noinline nounwind uwtable
define linkonce_odr dereferenceable(4) i32* @_ZSt7forwardIiEOT_RNSt16remove_referenceIS0_E4typeE(i32* dereferenceable(4)) #4 comdat {
  %2 = load i32, i32* @x.175
  %3 = load i32, i32* @y.176
  %4 = sub i32 %2, 1
  %5 = mul i32 %2, %4
  %6 = urem i32 %5, 2
  %7 = icmp eq i32 %6, 0
  %8 = icmp slt i32 %3, 10
  %9 = or i1 %7, %8
  br i1 %9, label %10, label %22

; <label>:10:                                     ; preds = %1, %22
  %11 = alloca i32*, align 8
  store i32* %0, i32** %11, align 8
  %12 = load i32*, i32** %11, align 8
  %13 = load i32, i32* @x.175
  %14 = load i32, i32* @y.176
  %15 = sub i32 %13, 1
  %16 = mul i32 %13, %15
  %17 = urem i32 %16, 2
  %18 = icmp eq i32 %17, 0
  %19 = icmp slt i32 %14, 10
  %20 = or i1 %18, %19
  br i1 %20, label %21, label %22

; <label>:21:                                     ; preds = %10
  ret i32* %12

; <label>:22:                                     ; preds = %10, %1
  %23 = alloca i32*, align 8
  store i32* %0, i32** %23, align 8
  %24 = load i32*, i32** %23, align 8
  br label %10
}

; Function Attrs: noinline nounwind uwtable
define linkonce_odr void @_ZNSt4pairIiiEC2IiivEEOT_OT0_(%"struct.std::pair"*, i32* dereferenceable(4), i32* dereferenceable(4)) unnamed_addr #4 comdat align 2 {
  %4 = load i32, i32* @x.177
  %5 = load i32, i32* @y.178
  %6 = sub i32 %4, 1
  %7 = mul i32 %4, %6
  %8 = urem i32 %7, 2
  %9 = icmp eq i32 %8, 0
  %10 = icmp slt i32 %5, 10
  %11 = or i1 %9, %10
  br i1 %11, label %12, label %34

; <label>:12:                                     ; preds = %3, %34
  %13 = alloca %"struct.std::pair"*, align 8
  %14 = alloca i32*, align 8
  %15 = alloca i32*, align 8
  store %"struct.std::pair"* %0, %"struct.std::pair"** %13, align 8
  store i32* %1, i32** %14, align 8
  store i32* %2, i32** %15, align 8
  %16 = load %"struct.std::pair"*, %"struct.std::pair"** %13, align 8
  %17 = getelementptr inbounds %"struct.std::pair", %"struct.std::pair"* %16, i32 0, i32 0
  %18 = load i32*, i32** %14, align 8
  %19 = call dereferenceable(4) i32* @_ZSt7forwardIiEOT_RNSt16remove_referenceIS0_E4typeE(i32* dereferenceable(4) %18) #3
  %20 = load i32, i32* %19, align 4
  store i32 %20, i32* %17, align 4
  %21 = getelementptr inbounds %"struct.std::pair", %"struct.std::pair"* %16, i32 0, i32 1
  %22 = load i32*, i32** %15, align 8
  %23 = call dereferenceable(4) i32* @_ZSt7forwardIiEOT_RNSt16remove_referenceIS0_E4typeE(i32* dereferenceable(4) %22) #3
  %24 = load i32, i32* %23, align 4
  store i32 %24, i32* %21, align 4
  %25 = load i32, i32* @x.177
  %26 = load i32, i32* @y.178
  %27 = sub i32 %25, 1
  %28 = mul i32 %25, %27
  %29 = urem i32 %28, 2
  %30 = icmp eq i32 %29, 0
  %31 = icmp slt i32 %26, 10
  %32 = or i1 %30, %31
  br i1 %32, label %33, label %34

; <label>:33:                                     ; preds = %12
  ret void

; <label>:34:                                     ; preds = %12, %3
  %35 = alloca %"struct.std::pair"*, align 8
  %36 = alloca i32*, align 8
  %37 = alloca i32*, align 8
  store %"struct.std::pair"* %0, %"struct.std::pair"** %35, align 8
  store i32* %1, i32** %36, align 8
  store i32* %2, i32** %37, align 8
  %38 = load %"struct.std::pair"*, %"struct.std::pair"** %35, align 8
  %39 = getelementptr inbounds %"struct.std::pair", %"struct.std::pair"* %38, i32 0, i32 0
  %40 = load i32*, i32** %36, align 8
  %41 = call dereferenceable(4) i32* @_ZSt7forwardIiEOT_RNSt16remove_referenceIS0_E4typeE(i32* dereferenceable(4) %40) #3
  %42 = load i32, i32* %41, align 4
  store i32 %42, i32* %39, align 4
  %43 = getelementptr inbounds %"struct.std::pair", %"struct.std::pair"* %38, i32 0, i32 1
  %44 = load i32*, i32** %37, align 8
  %45 = call dereferenceable(4) i32* @_ZSt7forwardIiEOT_RNSt16remove_referenceIS0_E4typeE(i32* dereferenceable(4) %44) #3
  %46 = load i32, i32* %45, align 4
  store i32 %46, i32* %43, align 4
  br label %12
}

; Function Attrs: noinline nounwind uwtable
define linkonce_odr void @_ZNSt8_Rb_treeIxSt4pairIKxxESt10_Select1stIS2_ESt4lessIxESaIS2_EED2Ev(%"class.std::_Rb_tree"*) unnamed_addr #4 comdat align 2 personality i8* bitcast (i32 (...)* @__gxx_personality_v0 to i8*) {
  %2 = load i32, i32* @x.179
  %3 = load i32, i32* @y.180
  %4 = sub i32 %2, 1
  %5 = mul i32 %2, %4
  %6 = urem i32 %5, 2
  %7 = icmp eq i32 %6, 0
  %8 = icmp slt i32 %3, 10
  %9 = or i1 %7, %8
  br i1 %9, label %10, label %70

; <label>:10:                                     ; preds = %1, %70
  %11 = alloca %"class.std::_Rb_tree"*, align 8
  %12 = alloca i8*
  %13 = alloca i32
  store %"class.std::_Rb_tree"* %0, %"class.std::_Rb_tree"** %11, align 8
  %14 = load %"class.std::_Rb_tree"*, %"class.std::_Rb_tree"** %11, align 8
  %15 = call %"struct.std::_Rb_tree_node"* @_ZNSt8_Rb_treeIxSt4pairIKxxESt10_Select1stIS2_ESt4lessIxESaIS2_EE8_M_beginEv(%"class.std::_Rb_tree"* %14) #3
  %16 = load i32, i32* @x.179
  %17 = load i32, i32* @y.180
  %18 = sub i32 %16, 1
  %19 = mul i32 %16, %18
  %20 = urem i32 %19, 2
  %21 = icmp eq i32 %20, 0
  %22 = icmp slt i32 %17, 10
  %23 = or i1 %21, %22
  br i1 %23, label %24, label %70

; <label>:24:                                     ; preds = %10
  invoke void @_ZNSt8_Rb_treeIxSt4pairIKxxESt10_Select1stIS2_ESt4lessIxESaIS2_EE8_M_eraseEPSt13_Rb_tree_nodeIS2_E(%"class.std::_Rb_tree"* %14, %"struct.std::_Rb_tree_node"* %15)
          to label %25 unwind label %45

; <label>:25:                                     ; preds = %24
  %26 = load i32, i32* @x.179
  %27 = load i32, i32* @y.180
  %28 = sub i32 %26, 1
  %29 = mul i32 %26, %28
  %30 = urem i32 %29, 2
  %31 = icmp eq i32 %30, 0
  %32 = icmp slt i32 %27, 10
  %33 = or i1 %31, %32
  br i1 %33, label %34, label %76

; <label>:34:                                     ; preds = %25, %76
  %35 = getelementptr inbounds %"class.std::_Rb_tree", %"class.std::_Rb_tree"* %14, i32 0, i32 0
  call void @_ZNSt8_Rb_treeIxSt4pairIKxxESt10_Select1stIS2_ESt4lessIxESaIS2_EE13_Rb_tree_implIS6_Lb1EED2Ev(%"struct.std::_Rb_tree<long long, std::pair<const long long, long long>, std::_Select1st<std::pair<const long long, long long> >, std::less<long long>, std::allocator<std::pair<const long long, long long> > >::_Rb_tree_impl"* %35) #3
  %36 = load i32, i32* @x.179
  %37 = load i32, i32* @y.180
  %38 = sub i32 %36, 1
  %39 = mul i32 %36, %38
  %40 = urem i32 %39, 2
  %41 = icmp eq i32 %40, 0
  %42 = icmp slt i32 %37, 10
  %43 = or i1 %41, %42
  br i1 %43, label %44, label %76

; <label>:44:                                     ; preds = %34
  ret void

; <label>:45:                                     ; preds = %24
  %46 = landingpad { i8*, i32 }
          catch i8* null
  %47 = extractvalue { i8*, i32 } %46, 0
  store i8* %47, i8** %12, align 8
  %48 = extractvalue { i8*, i32 } %46, 1
  store i32 %48, i32* %13, align 4
  %49 = getelementptr inbounds %"class.std::_Rb_tree", %"class.std::_Rb_tree"* %14, i32 0, i32 0
  call void @_ZNSt8_Rb_treeIxSt4pairIKxxESt10_Select1stIS2_ESt4lessIxESaIS2_EE13_Rb_tree_implIS6_Lb1EED2Ev(%"struct.std::_Rb_tree<long long, std::pair<const long long, long long>, std::_Select1st<std::pair<const long long, long long> >, std::less<long long>, std::allocator<std::pair<const long long, long long> > >::_Rb_tree_impl"* %49) #3
  br label %50

; <label>:50:                                     ; preds = %45
  %51 = load i32, i32* @x.179
  %52 = load i32, i32* @y.180
  %53 = sub i32 %51, 1
  %54 = mul i32 %51, %53
  %55 = urem i32 %54, 2
  %56 = icmp eq i32 %55, 0
  %57 = icmp slt i32 %52, 10
  %58 = or i1 %56, %57
  br i1 %58, label %59, label %78

; <label>:59:                                     ; preds = %50, %78
  %60 = load i8*, i8** %12, align 8
  call void @__clang_call_terminate(i8* %60) #12
  %61 = load i32, i32* @x.179
  %62 = load i32, i32* @y.180
  %63 = sub i32 %61, 1
  %64 = mul i32 %61, %63
  %65 = urem i32 %64, 2
  %66 = icmp eq i32 %65, 0
  %67 = icmp slt i32 %62, 10
  %68 = or i1 %66, %67
  br i1 %68, label %69, label %78

; <label>:69:                                     ; preds = %59
  unreachable

; <label>:70:                                     ; preds = %10, %1
  %71 = alloca %"class.std::_Rb_tree"*, align 8
  %72 = alloca i8*
  %73 = alloca i32
  store %"class.std::_Rb_tree"* %0, %"class.std::_Rb_tree"** %71, align 8
  %74 = load %"class.std::_Rb_tree"*, %"class.std::_Rb_tree"** %71, align 8
  %75 = call %"struct.std::_Rb_tree_node"* @_ZNSt8_Rb_treeIxSt4pairIKxxESt10_Select1stIS2_ESt4lessIxESaIS2_EE8_M_beginEv(%"class.std::_Rb_tree"* %74) #3
  br label %10

; <label>:76:                                     ; preds = %34, %25
  %77 = getelementptr inbounds %"class.std::_Rb_tree", %"class.std::_Rb_tree"* %14, i32 0, i32 0
  call void @_ZNSt8_Rb_treeIxSt4pairIKxxESt10_Select1stIS2_ESt4lessIxESaIS2_EE13_Rb_tree_implIS6_Lb1EED2Ev(%"struct.std::_Rb_tree<long long, std::pair<const long long, long long>, std::_Select1st<std::pair<const long long, long long> >, std::less<long long>, std::allocator<std::pair<const long long, long long> > >::_Rb_tree_impl"* %77) #3
  br label %34

; <label>:78:                                     ; preds = %59, %50
  %79 = load i8*, i8** %12, align 8
  call void @__clang_call_terminate(i8* %79) #12
  br label %59
}

; Function Attrs: noinline uwtable
define linkonce_odr void @_ZNSt8_Rb_treeIxSt4pairIKxxESt10_Select1stIS2_ESt4lessIxESaIS2_EE8_M_eraseEPSt13_Rb_tree_nodeIS2_E(%"class.std::_Rb_tree"*, %"struct.std::_Rb_tree_node"*) #0 comdat align 2 {
  %3 = alloca %"class.std::_Rb_tree"*, align 8
  %4 = alloca %"struct.std::_Rb_tree_node"*, align 8
  %5 = alloca %"struct.std::_Rb_tree_node"*, align 8
  store %"class.std::_Rb_tree"* %0, %"class.std::_Rb_tree"** %3, align 8
  store %"struct.std::_Rb_tree_node"* %1, %"struct.std::_Rb_tree_node"** %4, align 8
  %6 = load %"class.std::_Rb_tree"*, %"class.std::_Rb_tree"** %3, align 8
  br label %7

; <label>:7:                                      ; preds = %54, %2
  %8 = load i32, i32* @x.181
  %9 = load i32, i32* @y.182
  %10 = sub i32 %8, 1
  %11 = mul i32 %8, %10
  %12 = urem i32 %11, 2
  %13 = icmp eq i32 %12, 0
  %14 = icmp slt i32 %9, 10
  %15 = or i1 %13, %14
  br i1 %15, label %16, label %74

; <label>:16:                                     ; preds = %7, %74
  %17 = load %"struct.std::_Rb_tree_node"*, %"struct.std::_Rb_tree_node"** %4, align 8
  %18 = icmp ne %"struct.std::_Rb_tree_node"* %17, null
  %19 = load i32, i32* @x.181
  %20 = load i32, i32* @y.182
  %21 = sub i32 %19, 1
  %22 = mul i32 %19, %21
  %23 = urem i32 %22, 2
  %24 = icmp eq i32 %23, 0
  %25 = icmp slt i32 %20, 10
  %26 = or i1 %24, %25
  br i1 %26, label %27, label %74

; <label>:27:                                     ; preds = %16
  br i1 %18, label %28, label %55

; <label>:28:                                     ; preds = %27
  %29 = load i32, i32* @x.181
  %30 = load i32, i32* @y.182
  %31 = sub i32 %29, 1
  %32 = mul i32 %29, %31
  %33 = urem i32 %32, 2
  %34 = icmp eq i32 %33, 0
  %35 = icmp slt i32 %30, 10
  %36 = or i1 %34, %35
  br i1 %36, label %37, label %77

; <label>:37:                                     ; preds = %28, %77
  %38 = load %"struct.std::_Rb_tree_node"*, %"struct.std::_Rb_tree_node"** %4, align 8
  %39 = bitcast %"struct.std::_Rb_tree_node"* %38 to %"struct.std::_Rb_tree_node_base"*
  %40 = call %"struct.std::_Rb_tree_node"* @_ZNSt8_Rb_treeIxSt4pairIKxxESt10_Select1stIS2_ESt4lessIxESaIS2_EE8_S_rightEPSt18_Rb_tree_node_base(%"struct.std::_Rb_tree_node_base"* %39) #3
  call void @_ZNSt8_Rb_treeIxSt4pairIKxxESt10_Select1stIS2_ESt4lessIxESaIS2_EE8_M_eraseEPSt13_Rb_tree_nodeIS2_E(%"class.std::_Rb_tree"* %6, %"struct.std::_Rb_tree_node"* %40)
  %41 = load %"struct.std::_Rb_tree_node"*, %"struct.std::_Rb_tree_node"** %4, align 8
  %42 = bitcast %"struct.std::_Rb_tree_node"* %41 to %"struct.std::_Rb_tree_node_base"*
  %43 = call %"struct.std::_Rb_tree_node"* @_ZNSt8_Rb_treeIxSt4pairIKxxESt10_Select1stIS2_ESt4lessIxESaIS2_EE7_S_leftEPSt18_Rb_tree_node_base(%"struct.std::_Rb_tree_node_base"* %42) #3
  store %"struct.std::_Rb_tree_node"* %43, %"struct.std::_Rb_tree_node"** %5, align 8
  %44 = load %"struct.std::_Rb_tree_node"*, %"struct.std::_Rb_tree_node"** %4, align 8
  call void @_ZNSt8_Rb_treeIxSt4pairIKxxESt10_Select1stIS2_ESt4lessIxESaIS2_EE12_M_drop_nodeEPSt13_Rb_tree_nodeIS2_E(%"class.std::_Rb_tree"* %6, %"struct.std::_Rb_tree_node"* %44) #3
  %45 = load %"struct.std::_Rb_tree_node"*, %"struct.std::_Rb_tree_node"** %5, align 8
  store %"struct.std::_Rb_tree_node"* %45, %"struct.std::_Rb_tree_node"** %4, align 8
  %46 = load i32, i32* @x.181
  %47 = load i32, i32* @y.182
  %48 = sub i32 %46, 1
  %49 = mul i32 %46, %48
  %50 = urem i32 %49, 2
  %51 = icmp eq i32 %50, 0
  %52 = icmp slt i32 %47, 10
  %53 = or i1 %51, %52
  br i1 %53, label %54, label %77

; <label>:54:                                     ; preds = %37
  br label %7

; <label>:55:                                     ; preds = %27
  %56 = load i32, i32* @x.181
  %57 = load i32, i32* @y.182
  %58 = sub i32 %56, 1
  %59 = mul i32 %56, %58
  %60 = urem i32 %59, 2
  %61 = icmp eq i32 %60, 0
  %62 = icmp slt i32 %57, 10
  %63 = or i1 %61, %62
  br i1 %63, label %64, label %86

; <label>:64:                                     ; preds = %55, %86
  %65 = load i32, i32* @x.181
  %66 = load i32, i32* @y.182
  %67 = sub i32 %65, 1
  %68 = mul i32 %65, %67
  %69 = urem i32 %68, 2
  %70 = icmp eq i32 %69, 0
  %71 = icmp slt i32 %66, 10
  %72 = or i1 %70, %71
  br i1 %72, label %73, label %86

; <label>:73:                                     ; preds = %64
  ret void

; <label>:74:                                     ; preds = %16, %7
  %75 = load %"struct.std::_Rb_tree_node"*, %"struct.std::_Rb_tree_node"** %4, align 8
  %76 = icmp ne %"struct.std::_Rb_tree_node"* %75, null
  br label %16

; <label>:77:                                     ; preds = %37, %28
  %78 = load %"struct.std::_Rb_tree_node"*, %"struct.std::_Rb_tree_node"** %4, align 8
  %79 = bitcast %"struct.std::_Rb_tree_node"* %78 to %"struct.std::_Rb_tree_node_base"*
  %80 = call %"struct.std::_Rb_tree_node"* @_ZNSt8_Rb_treeIxSt4pairIKxxESt10_Select1stIS2_ESt4lessIxESaIS2_EE8_S_rightEPSt18_Rb_tree_node_base(%"struct.std::_Rb_tree_node_base"* %79) #3
  call void @_ZNSt8_Rb_treeIxSt4pairIKxxESt10_Select1stIS2_ESt4lessIxESaIS2_EE8_M_eraseEPSt13_Rb_tree_nodeIS2_E(%"class.std::_Rb_tree"* %6, %"struct.std::_Rb_tree_node"* %80)
  %81 = load %"struct.std::_Rb_tree_node"*, %"struct.std::_Rb_tree_node"** %4, align 8
  %82 = bitcast %"struct.std::_Rb_tree_node"* %81 to %"struct.std::_Rb_tree_node_base"*
  %83 = call %"struct.std::_Rb_tree_node"* @_ZNSt8_Rb_treeIxSt4pairIKxxESt10_Select1stIS2_ESt4lessIxESaIS2_EE7_S_leftEPSt18_Rb_tree_node_base(%"struct.std::_Rb_tree_node_base"* %82) #3
  store %"struct.std::_Rb_tree_node"* %83, %"struct.std::_Rb_tree_node"** %5, align 8
  %84 = load %"struct.std::_Rb_tree_node"*, %"struct.std::_Rb_tree_node"** %4, align 8
  call void @_ZNSt8_Rb_treeIxSt4pairIKxxESt10_Select1stIS2_ESt4lessIxESaIS2_EE12_M_drop_nodeEPSt13_Rb_tree_nodeIS2_E(%"class.std::_Rb_tree"* %6, %"struct.std::_Rb_tree_node"* %84) #3
  %85 = load %"struct.std::_Rb_tree_node"*, %"struct.std::_Rb_tree_node"** %5, align 8
  store %"struct.std::_Rb_tree_node"* %85, %"struct.std::_Rb_tree_node"** %4, align 8
  br label %37

; <label>:86:                                     ; preds = %64, %55
  br label %64
}

; Function Attrs: noinline nounwind uwtable
define linkonce_odr %"struct.std::_Rb_tree_node"* @_ZNSt8_Rb_treeIxSt4pairIKxxESt10_Select1stIS2_ESt4lessIxESaIS2_EE8_M_beginEv(%"class.std::_Rb_tree"*) #4 comdat align 2 {
  %2 = alloca %"class.std::_Rb_tree"*, align 8
  store %"class.std::_Rb_tree"* %0, %"class.std::_Rb_tree"** %2, align 8
  %3 = load %"class.std::_Rb_tree"*, %"class.std::_Rb_tree"** %2, align 8
  %4 = getelementptr inbounds %"class.std::_Rb_tree", %"class.std::_Rb_tree"* %3, i32 0, i32 0
  %5 = getelementptr inbounds %"struct.std::_Rb_tree<long long, std::pair<const long long, long long>, std::_Select1st<std::pair<const long long, long long> >, std::less<long long>, std::allocator<std::pair<const long long, long long> > >::_Rb_tree_impl", %"struct.std::_Rb_tree<long long, std::pair<const long long, long long>, std::_Select1st<std::pair<const long long, long long> >, std::less<long long>, std::allocator<std::pair<const long long, long long> > >::_Rb_tree_impl"* %4, i32 0, i32 1
  %6 = getelementptr inbounds %"struct.std::_Rb_tree_node_base", %"struct.std::_Rb_tree_node_base"* %5, i32 0, i32 1
  %7 = load %"struct.std::_Rb_tree_node_base"*, %"struct.std::_Rb_tree_node_base"** %6, align 8
  %8 = bitcast %"struct.std::_Rb_tree_node_base"* %7 to %"struct.std::_Rb_tree_node"*
  ret %"struct.std::_Rb_tree_node"* %8
}

; Function Attrs: noinline nounwind uwtable
define linkonce_odr void @_ZNSt8_Rb_treeIxSt4pairIKxxESt10_Select1stIS2_ESt4lessIxESaIS2_EE13_Rb_tree_implIS6_Lb1EED2Ev(%"struct.std::_Rb_tree<long long, std::pair<const long long, long long>, std::_Select1st<std::pair<const long long, long long> >, std::less<long long>, std::allocator<std::pair<const long long, long long> > >::_Rb_tree_impl"*) unnamed_addr #4 comdat align 2 {
  %2 = alloca %"struct.std::_Rb_tree<long long, std::pair<const long long, long long>, std::_Select1st<std::pair<const long long, long long> >, std::less<long long>, std::allocator<std::pair<const long long, long long> > >::_Rb_tree_impl"*, align 8
  store %"struct.std::_Rb_tree<long long, std::pair<const long long, long long>, std::_Select1st<std::pair<const long long, long long> >, std::less<long long>, std::allocator<std::pair<const long long, long long> > >::_Rb_tree_impl"* %0, %"struct.std::_Rb_tree<long long, std::pair<const long long, long long>, std::_Select1st<std::pair<const long long, long long> >, std::less<long long>, std::allocator<std::pair<const long long, long long> > >::_Rb_tree_impl"** %2, align 8
  %3 = load %"struct.std::_Rb_tree<long long, std::pair<const long long, long long>, std::_Select1st<std::pair<const long long, long long> >, std::less<long long>, std::allocator<std::pair<const long long, long long> > >::_Rb_tree_impl"*, %"struct.std::_Rb_tree<long long, std::pair<const long long, long long>, std::_Select1st<std::pair<const long long, long long> >, std::less<long long>, std::allocator<std::pair<const long long, long long> > >::_Rb_tree_impl"** %2, align 8
  %4 = bitcast %"struct.std::_Rb_tree<long long, std::pair<const long long, long long>, std::_Select1st<std::pair<const long long, long long> >, std::less<long long>, std::allocator<std::pair<const long long, long long> > >::_Rb_tree_impl"* %3 to %"class.std::allocator.18"*
  call void @_ZNSaISt13_Rb_tree_nodeISt4pairIKxxEEED2Ev(%"class.std::allocator.18"* %4) #3
  ret void
}

; Function Attrs: noinline noreturn nounwind
define linkonce_odr hidden void @__clang_call_terminate(i8*) #8 comdat {
  %2 = call i8* @__cxa_begin_catch(i8* %0) #3
  call void @_ZSt9terminatev() #12
  unreachable
}

declare i8* @__cxa_begin_catch(i8*)

declare void @_ZSt9terminatev()

; Function Attrs: noinline nounwind uwtable
define linkonce_odr %"struct.std::_Rb_tree_node"* @_ZNSt8_Rb_treeIxSt4pairIKxxESt10_Select1stIS2_ESt4lessIxESaIS2_EE8_S_rightEPSt18_Rb_tree_node_base(%"struct.std::_Rb_tree_node_base"*) #4 comdat align 2 {
  %2 = alloca %"struct.std::_Rb_tree_node_base"*, align 8
  store %"struct.std::_Rb_tree_node_base"* %0, %"struct.std::_Rb_tree_node_base"** %2, align 8
  %3 = load %"struct.std::_Rb_tree_node_base"*, %"struct.std::_Rb_tree_node_base"** %2, align 8
  %4 = getelementptr inbounds %"struct.std::_Rb_tree_node_base", %"struct.std::_Rb_tree_node_base"* %3, i32 0, i32 3
  %5 = load %"struct.std::_Rb_tree_node_base"*, %"struct.std::_Rb_tree_node_base"** %4, align 8
  %6 = bitcast %"struct.std::_Rb_tree_node_base"* %5 to %"struct.std::_Rb_tree_node"*
  ret %"struct.std::_Rb_tree_node"* %6
}

; Function Attrs: noinline nounwind uwtable
define linkonce_odr %"struct.std::_Rb_tree_node"* @_ZNSt8_Rb_treeIxSt4pairIKxxESt10_Select1stIS2_ESt4lessIxESaIS2_EE7_S_leftEPSt18_Rb_tree_node_base(%"struct.std::_Rb_tree_node_base"*) #4 comdat align 2 {
  %2 = load i32, i32* @x.191
  %3 = load i32, i32* @y.192
  %4 = sub i32 %2, 1
  %5 = mul i32 %2, %4
  %6 = urem i32 %5, 2
  %7 = icmp eq i32 %6, 0
  %8 = icmp slt i32 %3, 10
  %9 = or i1 %7, %8
  br i1 %9, label %10, label %25

; <label>:10:                                     ; preds = %1, %25
  %11 = alloca %"struct.std::_Rb_tree_node_base"*, align 8
  store %"struct.std::_Rb_tree_node_base"* %0, %"struct.std::_Rb_tree_node_base"** %11, align 8
  %12 = load %"struct.std::_Rb_tree_node_base"*, %"struct.std::_Rb_tree_node_base"** %11, align 8
  %13 = getelementptr inbounds %"struct.std::_Rb_tree_node_base", %"struct.std::_Rb_tree_node_base"* %12, i32 0, i32 2
  %14 = load %"struct.std::_Rb_tree_node_base"*, %"struct.std::_Rb_tree_node_base"** %13, align 8
  %15 = bitcast %"struct.std::_Rb_tree_node_base"* %14 to %"struct.std::_Rb_tree_node"*
  %16 = load i32, i32* @x.191
  %17 = load i32, i32* @y.192
  %18 = sub i32 %16, 1
  %19 = mul i32 %16, %18
  %20 = urem i32 %19, 2
  %21 = icmp eq i32 %20, 0
  %22 = icmp slt i32 %17, 10
  %23 = or i1 %21, %22
  br i1 %23, label %24, label %25

; <label>:24:                                     ; preds = %10
  ret %"struct.std::_Rb_tree_node"* %15

; <label>:25:                                     ; preds = %10, %1
  %26 = alloca %"struct.std::_Rb_tree_node_base"*, align 8
  store %"struct.std::_Rb_tree_node_base"* %0, %"struct.std::_Rb_tree_node_base"** %26, align 8
  %27 = load %"struct.std::_Rb_tree_node_base"*, %"struct.std::_Rb_tree_node_base"** %26, align 8
  %28 = getelementptr inbounds %"struct.std::_Rb_tree_node_base", %"struct.std::_Rb_tree_node_base"* %27, i32 0, i32 2
  %29 = load %"struct.std::_Rb_tree_node_base"*, %"struct.std::_Rb_tree_node_base"** %28, align 8
  %30 = bitcast %"struct.std::_Rb_tree_node_base"* %29 to %"struct.std::_Rb_tree_node"*
  br label %10
}

; Function Attrs: noinline nounwind uwtable
define linkonce_odr void @_ZNSt8_Rb_treeIxSt4pairIKxxESt10_Select1stIS2_ESt4lessIxESaIS2_EE12_M_drop_nodeEPSt13_Rb_tree_nodeIS2_E(%"class.std::_Rb_tree"*, %"struct.std::_Rb_tree_node"*) #4 comdat align 2 {
  %3 = alloca %"class.std::_Rb_tree"*, align 8
  %4 = alloca %"struct.std::_Rb_tree_node"*, align 8
  store %"class.std::_Rb_tree"* %0, %"class.std::_Rb_tree"** %3, align 8
  store %"struct.std::_Rb_tree_node"* %1, %"struct.std::_Rb_tree_node"** %4, align 8
  %5 = load %"class.std::_Rb_tree"*, %"class.std::_Rb_tree"** %3, align 8
  %6 = load %"struct.std::_Rb_tree_node"*, %"struct.std::_Rb_tree_node"** %4, align 8
  call void @_ZNSt8_Rb_treeIxSt4pairIKxxESt10_Select1stIS2_ESt4lessIxESaIS2_EE15_M_destroy_nodeEPSt13_Rb_tree_nodeIS2_E(%"class.std::_Rb_tree"* %5, %"struct.std::_Rb_tree_node"* %6) #3
  %7 = load %"struct.std::_Rb_tree_node"*, %"struct.std::_Rb_tree_node"** %4, align 8
  call void @_ZNSt8_Rb_treeIxSt4pairIKxxESt10_Select1stIS2_ESt4lessIxESaIS2_EE11_M_put_nodeEPSt13_Rb_tree_nodeIS2_E(%"class.std::_Rb_tree"* %5, %"struct.std::_Rb_tree_node"* %7) #3
  ret void
}

; Function Attrs: noinline nounwind uwtable
define linkonce_odr void @_ZNSt8_Rb_treeIxSt4pairIKxxESt10_Select1stIS2_ESt4lessIxESaIS2_EE15_M_destroy_nodeEPSt13_Rb_tree_nodeIS2_E(%"class.std::_Rb_tree"*, %"struct.std::_Rb_tree_node"*) #4 comdat align 2 personality i8* bitcast (i32 (...)* @__gxx_personality_v0 to i8*) {
  %3 = alloca %"class.std::_Rb_tree"*, align 8
  %4 = alloca %"struct.std::_Rb_tree_node"*, align 8
  store %"class.std::_Rb_tree"* %0, %"class.std::_Rb_tree"** %3, align 8
  store %"struct.std::_Rb_tree_node"* %1, %"struct.std::_Rb_tree_node"** %4, align 8
  %5 = load %"class.std::_Rb_tree"*, %"class.std::_Rb_tree"** %3, align 8
  %6 = call dereferenceable(1) %"class.std::allocator.18"* @_ZNSt8_Rb_treeIxSt4pairIKxxESt10_Select1stIS2_ESt4lessIxESaIS2_EE21_M_get_Node_allocatorEv(%"class.std::_Rb_tree"* %5) #3
  %7 = load %"struct.std::_Rb_tree_node"*, %"struct.std::_Rb_tree_node"** %4, align 8
  %8 = invoke %"struct.std::pair.44"* @_ZNSt13_Rb_tree_nodeISt4pairIKxxEE9_M_valptrEv(%"struct.std::_Rb_tree_node"* %7)
          to label %9 unwind label %30

; <label>:9:                                      ; preds = %2
  invoke void @_ZNSt16allocator_traitsISaISt13_Rb_tree_nodeISt4pairIKxxEEEE7destroyIS3_EEvRS5_PT_(%"class.std::allocator.18"* dereferenceable(1) %6, %"struct.std::pair.44"* %8)
          to label %10 unwind label %30

; <label>:10:                                     ; preds = %9
  %11 = load i32, i32* @x.195
  %12 = load i32, i32* @y.196
  %13 = sub i32 %11, 1
  %14 = mul i32 %11, %13
  %15 = urem i32 %14, 2
  %16 = icmp eq i32 %15, 0
  %17 = icmp slt i32 %12, 10
  %18 = or i1 %16, %17
  br i1 %18, label %19, label %33

; <label>:19:                                     ; preds = %10, %33
  %20 = load %"struct.std::_Rb_tree_node"*, %"struct.std::_Rb_tree_node"** %4, align 8
  %21 = load i32, i32* @x.195
  %22 = load i32, i32* @y.196
  %23 = sub i32 %21, 1
  %24 = mul i32 %21, %23
  %25 = urem i32 %24, 2
  %26 = icmp eq i32 %25, 0
  %27 = icmp slt i32 %22, 10
  %28 = or i1 %26, %27
  br i1 %28, label %29, label %33

; <label>:29:                                     ; preds = %19
  ret void

; <label>:30:                                     ; preds = %9, %2
  %31 = landingpad { i8*, i32 }
          catch i8* null
  %32 = extractvalue { i8*, i32 } %31, 0
  call void @__clang_call_terminate(i8* %32) #12
  unreachable

; <label>:33:                                     ; preds = %19, %10
  %34 = load %"struct.std::_Rb_tree_node"*, %"struct.std::_Rb_tree_node"** %4, align 8
  br label %19
}

; Function Attrs: noinline nounwind uwtable
define linkonce_odr void @_ZNSt8_Rb_treeIxSt4pairIKxxESt10_Select1stIS2_ESt4lessIxESaIS2_EE11_M_put_nodeEPSt13_Rb_tree_nodeIS2_E(%"class.std::_Rb_tree"*, %"struct.std::_Rb_tree_node"*) #4 comdat align 2 personality i8* bitcast (i32 (...)* @__gxx_personality_v0 to i8*) {
  %3 = alloca %"class.std::_Rb_tree"*, align 8
  %4 = alloca %"struct.std::_Rb_tree_node"*, align 8
  store %"class.std::_Rb_tree"* %0, %"class.std::_Rb_tree"** %3, align 8
  store %"struct.std::_Rb_tree_node"* %1, %"struct.std::_Rb_tree_node"** %4, align 8
  %5 = load %"class.std::_Rb_tree"*, %"class.std::_Rb_tree"** %3, align 8
  %6 = call dereferenceable(1) %"class.std::allocator.18"* @_ZNSt8_Rb_treeIxSt4pairIKxxESt10_Select1stIS2_ESt4lessIxESaIS2_EE21_M_get_Node_allocatorEv(%"class.std::_Rb_tree"* %5) #3
  %7 = load %"struct.std::_Rb_tree_node"*, %"struct.std::_Rb_tree_node"** %4, align 8
  invoke void @_ZNSt16allocator_traitsISaISt13_Rb_tree_nodeISt4pairIKxxEEEE10deallocateERS5_PS4_m(%"class.std::allocator.18"* dereferenceable(1) %6, %"struct.std::_Rb_tree_node"* %7, i64 1)
          to label %8 unwind label %9

; <label>:8:                                      ; preds = %2
  ret void

; <label>:9:                                      ; preds = %2
  %10 = landingpad { i8*, i32 }
          catch i8* null
  %11 = extractvalue { i8*, i32 } %10, 0
  call void @__clang_call_terminate(i8* %11) #12
  unreachable
}

; Function Attrs: noinline uwtable
define linkonce_odr void @_ZNSt16allocator_traitsISaISt13_Rb_tree_nodeISt4pairIKxxEEEE7destroyIS3_EEvRS5_PT_(%"class.std::allocator.18"* dereferenceable(1), %"struct.std::pair.44"*) #0 comdat align 2 {
  %3 = alloca %"class.std::allocator.18"*, align 8
  %4 = alloca %"struct.std::pair.44"*, align 8
  store %"class.std::allocator.18"* %0, %"class.std::allocator.18"** %3, align 8
  store %"struct.std::pair.44"* %1, %"struct.std::pair.44"** %4, align 8
  %5 = load %"class.std::allocator.18"*, %"class.std::allocator.18"** %3, align 8
  %6 = bitcast %"class.std::allocator.18"* %5 to %"class.__gnu_cxx::new_allocator.19"*
  %7 = load %"struct.std::pair.44"*, %"struct.std::pair.44"** %4, align 8
  call void @_ZN9__gnu_cxx13new_allocatorISt13_Rb_tree_nodeISt4pairIKxxEEE7destroyIS4_EEvPT_(%"class.__gnu_cxx::new_allocator.19"* %6, %"struct.std::pair.44"* %7)
  ret void
}

; Function Attrs: noinline nounwind uwtable
define linkonce_odr dereferenceable(1) %"class.std::allocator.18"* @_ZNSt8_Rb_treeIxSt4pairIKxxESt10_Select1stIS2_ESt4lessIxESaIS2_EE21_M_get_Node_allocatorEv(%"class.std::_Rb_tree"*) #4 comdat align 2 {
  %2 = load i32, i32* @x.201
  %3 = load i32, i32* @y.202
  %4 = sub i32 %2, 1
  %5 = mul i32 %2, %4
  %6 = urem i32 %5, 2
  %7 = icmp eq i32 %6, 0
  %8 = icmp slt i32 %3, 10
  %9 = or i1 %7, %8
  br i1 %9, label %10, label %24

; <label>:10:                                     ; preds = %1, %24
  %11 = alloca %"class.std::_Rb_tree"*, align 8
  store %"class.std::_Rb_tree"* %0, %"class.std::_Rb_tree"** %11, align 8
  %12 = load %"class.std::_Rb_tree"*, %"class.std::_Rb_tree"** %11, align 8
  %13 = getelementptr inbounds %"class.std::_Rb_tree", %"class.std::_Rb_tree"* %12, i32 0, i32 0
  %14 = bitcast %"struct.std::_Rb_tree<long long, std::pair<const long long, long long>, std::_Select1st<std::pair<const long long, long long> >, std::less<long long>, std::allocator<std::pair<const long long, long long> > >::_Rb_tree_impl"* %13 to %"class.std::allocator.18"*
  %15 = load i32, i32* @x.201
  %16 = load i32, i32* @y.202
  %17 = sub i32 %15, 1
  %18 = mul i32 %15, %17
  %19 = urem i32 %18, 2
  %20 = icmp eq i32 %19, 0
  %21 = icmp slt i32 %16, 10
  %22 = or i1 %20, %21
  br i1 %22, label %23, label %24

; <label>:23:                                     ; preds = %10
  ret %"class.std::allocator.18"* %14

; <label>:24:                                     ; preds = %10, %1
  %25 = alloca %"class.std::_Rb_tree"*, align 8
  store %"class.std::_Rb_tree"* %0, %"class.std::_Rb_tree"** %25, align 8
  %26 = load %"class.std::_Rb_tree"*, %"class.std::_Rb_tree"** %25, align 8
  %27 = getelementptr inbounds %"class.std::_Rb_tree", %"class.std::_Rb_tree"* %26, i32 0, i32 0
  %28 = bitcast %"struct.std::_Rb_tree<long long, std::pair<const long long, long long>, std::_Select1st<std::pair<const long long, long long> >, std::less<long long>, std::allocator<std::pair<const long long, long long> > >::_Rb_tree_impl"* %27 to %"class.std::allocator.18"*
  br label %10
}

; Function Attrs: noinline nounwind uwtable
define linkonce_odr %"struct.std::pair.44"* @_ZNSt13_Rb_tree_nodeISt4pairIKxxEE9_M_valptrEv(%"struct.std::_Rb_tree_node"*) #4 comdat align 2 {
  %2 = load i32, i32* @x.203
  %3 = load i32, i32* @y.204
  %4 = sub i32 %2, 1
  %5 = mul i32 %2, %4
  %6 = urem i32 %5, 2
  %7 = icmp eq i32 %6, 0
  %8 = icmp slt i32 %3, 10
  %9 = or i1 %7, %8
  br i1 %9, label %10, label %24

; <label>:10:                                     ; preds = %1, %24
  %11 = alloca %"struct.std::_Rb_tree_node"*, align 8
  store %"struct.std::_Rb_tree_node"* %0, %"struct.std::_Rb_tree_node"** %11, align 8
  %12 = load %"struct.std::_Rb_tree_node"*, %"struct.std::_Rb_tree_node"** %11, align 8
  %13 = getelementptr inbounds %"struct.std::_Rb_tree_node", %"struct.std::_Rb_tree_node"* %12, i32 0, i32 1
  %14 = call %"struct.std::pair.44"* @_ZN9__gnu_cxx16__aligned_membufISt4pairIKxxEE6_M_ptrEv(%"struct.__gnu_cxx::__aligned_membuf"* %13) #3
  %15 = load i32, i32* @x.203
  %16 = load i32, i32* @y.204
  %17 = sub i32 %15, 1
  %18 = mul i32 %15, %17
  %19 = urem i32 %18, 2
  %20 = icmp eq i32 %19, 0
  %21 = icmp slt i32 %16, 10
  %22 = or i1 %20, %21
  br i1 %22, label %23, label %24

; <label>:23:                                     ; preds = %10
  ret %"struct.std::pair.44"* %14

; <label>:24:                                     ; preds = %10, %1
  %25 = alloca %"struct.std::_Rb_tree_node"*, align 8
  store %"struct.std::_Rb_tree_node"* %0, %"struct.std::_Rb_tree_node"** %25, align 8
  %26 = load %"struct.std::_Rb_tree_node"*, %"struct.std::_Rb_tree_node"** %25, align 8
  %27 = getelementptr inbounds %"struct.std::_Rb_tree_node", %"struct.std::_Rb_tree_node"* %26, i32 0, i32 1
  %28 = call %"struct.std::pair.44"* @_ZN9__gnu_cxx16__aligned_membufISt4pairIKxxEE6_M_ptrEv(%"struct.__gnu_cxx::__aligned_membuf"* %27) #3
  br label %10
}

; Function Attrs: noinline nounwind uwtable
define linkonce_odr void @_ZN9__gnu_cxx13new_allocatorISt13_Rb_tree_nodeISt4pairIKxxEEE7destroyIS4_EEvPT_(%"class.__gnu_cxx::new_allocator.19"*, %"struct.std::pair.44"*) #4 comdat align 2 {
  %3 = load i32, i32* @x.205
  %4 = load i32, i32* @y.206
  %5 = sub i32 %3, 1
  %6 = mul i32 %3, %5
  %7 = urem i32 %6, 2
  %8 = icmp eq i32 %7, 0
  %9 = icmp slt i32 %4, 10
  %10 = or i1 %8, %9
  br i1 %10, label %11, label %25

; <label>:11:                                     ; preds = %2, %25
  %12 = alloca %"class.__gnu_cxx::new_allocator.19"*, align 8
  %13 = alloca %"struct.std::pair.44"*, align 8
  store %"class.__gnu_cxx::new_allocator.19"* %0, %"class.__gnu_cxx::new_allocator.19"** %12, align 8
  store %"struct.std::pair.44"* %1, %"struct.std::pair.44"** %13, align 8
  %14 = load %"class.__gnu_cxx::new_allocator.19"*, %"class.__gnu_cxx::new_allocator.19"** %12, align 8
  %15 = load %"struct.std::pair.44"*, %"struct.std::pair.44"** %13, align 8
  %16 = load i32, i32* @x.205
  %17 = load i32, i32* @y.206
  %18 = sub i32 %16, 1
  %19 = mul i32 %16, %18
  %20 = urem i32 %19, 2
  %21 = icmp eq i32 %20, 0
  %22 = icmp slt i32 %17, 10
  %23 = or i1 %21, %22
  br i1 %23, label %24, label %25

; <label>:24:                                     ; preds = %11
  ret void

; <label>:25:                                     ; preds = %11, %2
  %26 = alloca %"class.__gnu_cxx::new_allocator.19"*, align 8
  %27 = alloca %"struct.std::pair.44"*, align 8
  store %"class.__gnu_cxx::new_allocator.19"* %0, %"class.__gnu_cxx::new_allocator.19"** %26, align 8
  store %"struct.std::pair.44"* %1, %"struct.std::pair.44"** %27, align 8
  %28 = load %"class.__gnu_cxx::new_allocator.19"*, %"class.__gnu_cxx::new_allocator.19"** %26, align 8
  %29 = load %"struct.std::pair.44"*, %"struct.std::pair.44"** %27, align 8
  br label %11
}

; Function Attrs: noinline nounwind uwtable
define linkonce_odr %"struct.std::pair.44"* @_ZN9__gnu_cxx16__aligned_membufISt4pairIKxxEE6_M_ptrEv(%"struct.__gnu_cxx::__aligned_membuf"*) #4 comdat align 2 {
  %2 = load i32, i32* @x.207
  %3 = load i32, i32* @y.208
  %4 = sub i32 %2, 1
  %5 = mul i32 %2, %4
  %6 = urem i32 %5, 2
  %7 = icmp eq i32 %6, 0
  %8 = icmp slt i32 %3, 10
  %9 = or i1 %7, %8
  br i1 %9, label %10, label %24

; <label>:10:                                     ; preds = %1, %24
  %11 = alloca %"struct.__gnu_cxx::__aligned_membuf"*, align 8
  store %"struct.__gnu_cxx::__aligned_membuf"* %0, %"struct.__gnu_cxx::__aligned_membuf"** %11, align 8
  %12 = load %"struct.__gnu_cxx::__aligned_membuf"*, %"struct.__gnu_cxx::__aligned_membuf"** %11, align 8
  %13 = call i8* @_ZN9__gnu_cxx16__aligned_membufISt4pairIKxxEE7_M_addrEv(%"struct.__gnu_cxx::__aligned_membuf"* %12) #3
  %14 = bitcast i8* %13 to %"struct.std::pair.44"*
  %15 = load i32, i32* @x.207
  %16 = load i32, i32* @y.208
  %17 = sub i32 %15, 1
  %18 = mul i32 %15, %17
  %19 = urem i32 %18, 2
  %20 = icmp eq i32 %19, 0
  %21 = icmp slt i32 %16, 10
  %22 = or i1 %20, %21
  br i1 %22, label %23, label %24

; <label>:23:                                     ; preds = %10
  ret %"struct.std::pair.44"* %14

; <label>:24:                                     ; preds = %10, %1
  %25 = alloca %"struct.__gnu_cxx::__aligned_membuf"*, align 8
  store %"struct.__gnu_cxx::__aligned_membuf"* %0, %"struct.__gnu_cxx::__aligned_membuf"** %25, align 8
  %26 = load %"struct.__gnu_cxx::__aligned_membuf"*, %"struct.__gnu_cxx::__aligned_membuf"** %25, align 8
  %27 = call i8* @_ZN9__gnu_cxx16__aligned_membufISt4pairIKxxEE7_M_addrEv(%"struct.__gnu_cxx::__aligned_membuf"* %26) #3
  %28 = bitcast i8* %27 to %"struct.std::pair.44"*
  br label %10
}

; Function Attrs: noinline nounwind uwtable
define linkonce_odr i8* @_ZN9__gnu_cxx16__aligned_membufISt4pairIKxxEE7_M_addrEv(%"struct.__gnu_cxx::__aligned_membuf"*) #4 comdat align 2 {
  %2 = alloca %"struct.__gnu_cxx::__aligned_membuf"*, align 8
  store %"struct.__gnu_cxx::__aligned_membuf"* %0, %"struct.__gnu_cxx::__aligned_membuf"** %2, align 8
  %3 = load %"struct.__gnu_cxx::__aligned_membuf"*, %"struct.__gnu_cxx::__aligned_membuf"** %2, align 8
  %4 = getelementptr inbounds %"struct.__gnu_cxx::__aligned_membuf", %"struct.__gnu_cxx::__aligned_membuf"* %3, i32 0, i32 0
  %5 = bitcast [16 x i8]* %4 to i8*
  ret i8* %5
}

; Function Attrs: noinline uwtable
define linkonce_odr void @_ZNSt16allocator_traitsISaISt13_Rb_tree_nodeISt4pairIKxxEEEE10deallocateERS5_PS4_m(%"class.std::allocator.18"* dereferenceable(1), %"struct.std::_Rb_tree_node"*, i64) #0 comdat align 2 {
  %4 = alloca %"class.std::allocator.18"*, align 8
  %5 = alloca %"struct.std::_Rb_tree_node"*, align 8
  %6 = alloca i64, align 8
  store %"class.std::allocator.18"* %0, %"class.std::allocator.18"** %4, align 8
  store %"struct.std::_Rb_tree_node"* %1, %"struct.std::_Rb_tree_node"** %5, align 8
  store i64 %2, i64* %6, align 8
  %7 = load %"class.std::allocator.18"*, %"class.std::allocator.18"** %4, align 8
  %8 = bitcast %"class.std::allocator.18"* %7 to %"class.__gnu_cxx::new_allocator.19"*
  %9 = load %"struct.std::_Rb_tree_node"*, %"struct.std::_Rb_tree_node"** %5, align 8
  %10 = load i64, i64* %6, align 8
  call void @_ZN9__gnu_cxx13new_allocatorISt13_Rb_tree_nodeISt4pairIKxxEEE10deallocateEPS5_m(%"class.__gnu_cxx::new_allocator.19"* %8, %"struct.std::_Rb_tree_node"* %9, i64 %10)
  ret void
}

; Function Attrs: noinline nounwind uwtable
define linkonce_odr void @_ZN9__gnu_cxx13new_allocatorISt13_Rb_tree_nodeISt4pairIKxxEEE10deallocateEPS5_m(%"class.__gnu_cxx::new_allocator.19"*, %"struct.std::_Rb_tree_node"*, i64) #4 comdat align 2 {
  %4 = load i32, i32* @x.213
  %5 = load i32, i32* @y.214
  %6 = sub i32 %4, 1
  %7 = mul i32 %4, %6
  %8 = urem i32 %7, 2
  %9 = icmp eq i32 %8, 0
  %10 = icmp slt i32 %5, 10
  %11 = or i1 %9, %10
  br i1 %11, label %12, label %28

; <label>:12:                                     ; preds = %3, %28
  %13 = alloca %"class.__gnu_cxx::new_allocator.19"*, align 8
  %14 = alloca %"struct.std::_Rb_tree_node"*, align 8
  %15 = alloca i64, align 8
  store %"class.__gnu_cxx::new_allocator.19"* %0, %"class.__gnu_cxx::new_allocator.19"** %13, align 8
  store %"struct.std::_Rb_tree_node"* %1, %"struct.std::_Rb_tree_node"** %14, align 8
  store i64 %2, i64* %15, align 8
  %16 = load %"class.__gnu_cxx::new_allocator.19"*, %"class.__gnu_cxx::new_allocator.19"** %13, align 8
  %17 = load %"struct.std::_Rb_tree_node"*, %"struct.std::_Rb_tree_node"** %14, align 8
  %18 = bitcast %"struct.std::_Rb_tree_node"* %17 to i8*
  call void @_ZdlPv(i8* %18) #3
  %19 = load i32, i32* @x.213
  %20 = load i32, i32* @y.214
  %21 = sub i32 %19, 1
  %22 = mul i32 %19, %21
  %23 = urem i32 %22, 2
  %24 = icmp eq i32 %23, 0
  %25 = icmp slt i32 %20, 10
  %26 = or i1 %24, %25
  br i1 %26, label %27, label %28

; <label>:27:                                     ; preds = %12
  ret void

; <label>:28:                                     ; preds = %12, %3
  %29 = alloca %"class.__gnu_cxx::new_allocator.19"*, align 8
  %30 = alloca %"struct.std::_Rb_tree_node"*, align 8
  %31 = alloca i64, align 8
  store %"class.__gnu_cxx::new_allocator.19"* %0, %"class.__gnu_cxx::new_allocator.19"** %29, align 8
  store %"struct.std::_Rb_tree_node"* %1, %"struct.std::_Rb_tree_node"** %30, align 8
  store i64 %2, i64* %31, align 8
  %32 = load %"class.__gnu_cxx::new_allocator.19"*, %"class.__gnu_cxx::new_allocator.19"** %29, align 8
  %33 = load %"struct.std::_Rb_tree_node"*, %"struct.std::_Rb_tree_node"** %30, align 8
  %34 = bitcast %"struct.std::_Rb_tree_node"* %33 to i8*
  call void @_ZdlPv(i8* %34) #3
  br label %12
}

; Function Attrs: nobuiltin nounwind
declare void @_ZdlPv(i8*) #9

; Function Attrs: noinline nounwind uwtable
define linkonce_odr void @_ZNSaISt13_Rb_tree_nodeISt4pairIKxxEEED2Ev(%"class.std::allocator.18"*) unnamed_addr #4 comdat align 2 {
  %2 = load i32, i32* @x.215
  %3 = load i32, i32* @y.216
  %4 = sub i32 %2, 1
  %5 = mul i32 %2, %4
  %6 = urem i32 %5, 2
  %7 = icmp eq i32 %6, 0
  %8 = icmp slt i32 %3, 10
  %9 = or i1 %7, %8
  br i1 %9, label %10, label %23

; <label>:10:                                     ; preds = %1, %23
  %11 = alloca %"class.std::allocator.18"*, align 8
  store %"class.std::allocator.18"* %0, %"class.std::allocator.18"** %11, align 8
  %12 = load %"class.std::allocator.18"*, %"class.std::allocator.18"** %11, align 8
  %13 = bitcast %"class.std::allocator.18"* %12 to %"class.__gnu_cxx::new_allocator.19"*
  call void @_ZN9__gnu_cxx13new_allocatorISt13_Rb_tree_nodeISt4pairIKxxEEED2Ev(%"class.__gnu_cxx::new_allocator.19"* %13) #3
  %14 = load i32, i32* @x.215
  %15 = load i32, i32* @y.216
  %16 = sub i32 %14, 1
  %17 = mul i32 %14, %16
  %18 = urem i32 %17, 2
  %19 = icmp eq i32 %18, 0
  %20 = icmp slt i32 %15, 10
  %21 = or i1 %19, %20
  br i1 %21, label %22, label %23

; <label>:22:                                     ; preds = %10
  ret void

; <label>:23:                                     ; preds = %10, %1
  %24 = alloca %"class.std::allocator.18"*, align 8
  store %"class.std::allocator.18"* %0, %"class.std::allocator.18"** %24, align 8
  %25 = load %"class.std::allocator.18"*, %"class.std::allocator.18"** %24, align 8
  %26 = bitcast %"class.std::allocator.18"* %25 to %"class.__gnu_cxx::new_allocator.19"*
  call void @_ZN9__gnu_cxx13new_allocatorISt13_Rb_tree_nodeISt4pairIKxxEEED2Ev(%"class.__gnu_cxx::new_allocator.19"* %26) #3
  br label %10
}

; Function Attrs: noinline nounwind uwtable
define linkonce_odr void @_ZN9__gnu_cxx13new_allocatorISt13_Rb_tree_nodeISt4pairIKxxEEED2Ev(%"class.__gnu_cxx::new_allocator.19"*) unnamed_addr #4 comdat align 2 {
  %2 = alloca %"class.__gnu_cxx::new_allocator.19"*, align 8
  store %"class.__gnu_cxx::new_allocator.19"* %0, %"class.__gnu_cxx::new_allocator.19"** %2, align 8
  %3 = load %"class.__gnu_cxx::new_allocator.19"*, %"class.__gnu_cxx::new_allocator.19"** %2, align 8
  ret void
}

; Function Attrs: noinline nounwind uwtable
define linkonce_odr dereferenceable(8) i64* @_ZSt7forwardIRxEOT_RNSt16remove_referenceIS1_E4typeE(i64* dereferenceable(8)) #4 comdat {
  %2 = alloca i64*, align 8
  store i64* %0, i64** %2, align 8
  %3 = load i64*, i64** %2, align 8
  ret i64* %3
}

; Function Attrs: noinline nounwind uwtable
define linkonce_odr void @_ZNSt4pairIxxEC2IRxS2_vEEOT_OT0_(%"struct.std::pair.36"*, i64* dereferenceable(8), i64* dereferenceable(8)) unnamed_addr #4 comdat align 2 {
  %4 = load i32, i32* @x.221
  %5 = load i32, i32* @y.222
  %6 = sub i32 %4, 1
  %7 = mul i32 %4, %6
  %8 = urem i32 %7, 2
  %9 = icmp eq i32 %8, 0
  %10 = icmp slt i32 %5, 10
  %11 = or i1 %9, %10
  br i1 %11, label %12, label %34

; <label>:12:                                     ; preds = %3, %34
  %13 = alloca %"struct.std::pair.36"*, align 8
  %14 = alloca i64*, align 8
  %15 = alloca i64*, align 8
  store %"struct.std::pair.36"* %0, %"struct.std::pair.36"** %13, align 8
  store i64* %1, i64** %14, align 8
  store i64* %2, i64** %15, align 8
  %16 = load %"struct.std::pair.36"*, %"struct.std::pair.36"** %13, align 8
  %17 = getelementptr inbounds %"struct.std::pair.36", %"struct.std::pair.36"* %16, i32 0, i32 0
  %18 = load i64*, i64** %14, align 8
  %19 = call dereferenceable(8) i64* @_ZSt7forwardIRxEOT_RNSt16remove_referenceIS1_E4typeE(i64* dereferenceable(8) %18) #3
  %20 = load i64, i64* %19, align 8
  store i64 %20, i64* %17, align 8
  %21 = getelementptr inbounds %"struct.std::pair.36", %"struct.std::pair.36"* %16, i32 0, i32 1
  %22 = load i64*, i64** %15, align 8
  %23 = call dereferenceable(8) i64* @_ZSt7forwardIRxEOT_RNSt16remove_referenceIS1_E4typeE(i64* dereferenceable(8) %22) #3
  %24 = load i64, i64* %23, align 8
  store i64 %24, i64* %21, align 8
  %25 = load i32, i32* @x.221
  %26 = load i32, i32* @y.222
  %27 = sub i32 %25, 1
  %28 = mul i32 %25, %27
  %29 = urem i32 %28, 2
  %30 = icmp eq i32 %29, 0
  %31 = icmp slt i32 %26, 10
  %32 = or i1 %30, %31
  br i1 %32, label %33, label %34

; <label>:33:                                     ; preds = %12
  ret void

; <label>:34:                                     ; preds = %12, %3
  %35 = alloca %"struct.std::pair.36"*, align 8
  %36 = alloca i64*, align 8
  %37 = alloca i64*, align 8
  store %"struct.std::pair.36"* %0, %"struct.std::pair.36"** %35, align 8
  store i64* %1, i64** %36, align 8
  store i64* %2, i64** %37, align 8
  %38 = load %"struct.std::pair.36"*, %"struct.std::pair.36"** %35, align 8
  %39 = getelementptr inbounds %"struct.std::pair.36", %"struct.std::pair.36"* %38, i32 0, i32 0
  %40 = load i64*, i64** %36, align 8
  %41 = call dereferenceable(8) i64* @_ZSt7forwardIRxEOT_RNSt16remove_referenceIS1_E4typeE(i64* dereferenceable(8) %40) #3
  %42 = load i64, i64* %41, align 8
  store i64 %42, i64* %39, align 8
  %43 = getelementptr inbounds %"struct.std::pair.36", %"struct.std::pair.36"* %38, i32 0, i32 1
  %44 = load i64*, i64** %37, align 8
  %45 = call dereferenceable(8) i64* @_ZSt7forwardIRxEOT_RNSt16remove_referenceIS1_E4typeE(i64* dereferenceable(8) %44) #3
  %46 = load i64, i64* %45, align 8
  store i64 %46, i64* %43, align 8
  br label %12
}

; Function Attrs: noinline uwtable
define linkonce_odr void @_ZNSt16allocator_traitsISaISt6vectorIxSaIxEEEE9constructIS2_JRKS2_EEEvRS3_PT_DpOT0_(%"class.std::allocator"* dereferenceable(1), %"class.std::vector.0"*, %"class.std::vector.0"* dereferenceable(24)) #0 comdat align 2 {
  %4 = alloca %"class.std::allocator"*, align 8
  %5 = alloca %"class.std::vector.0"*, align 8
  %6 = alloca %"class.std::vector.0"*, align 8
  store %"class.std::allocator"* %0, %"class.std::allocator"** %4, align 8
  store %"class.std::vector.0"* %1, %"class.std::vector.0"** %5, align 8
  store %"class.std::vector.0"* %2, %"class.std::vector.0"** %6, align 8
  %7 = load %"class.std::allocator"*, %"class.std::allocator"** %4, align 8
  %8 = bitcast %"class.std::allocator"* %7 to %"class.__gnu_cxx::new_allocator"*
  %9 = load %"class.std::vector.0"*, %"class.std::vector.0"** %5, align 8
  %10 = load %"class.std::vector.0"*, %"class.std::vector.0"** %6, align 8
  %11 = call dereferenceable(24) %"class.std::vector.0"* @_ZSt7forwardIRKSt6vectorIxSaIxEEEOT_RNSt16remove_referenceIS5_E4typeE(%"class.std::vector.0"* dereferenceable(24) %10) #3
  call void @_ZN9__gnu_cxx13new_allocatorISt6vectorIxSaIxEEE9constructIS3_JRKS3_EEEvPT_DpOT0_(%"class.__gnu_cxx::new_allocator"* %8, %"class.std::vector.0"* %9, %"class.std::vector.0"* dereferenceable(24) %11)
  ret void
}

; Function Attrs: noinline uwtable
define linkonce_odr void @_ZNSt6vectorIS_IxSaIxEESaIS1_EE19_M_emplace_back_auxIJRKS1_EEEvDpOT_(%"class.std::vector"*, %"class.std::vector.0"* dereferenceable(24)) #0 comdat align 2 personality i8* bitcast (i32 (...)* @__gxx_personality_v0 to i8*) {
  %3 = alloca %"class.std::vector"*, align 8
  %4 = alloca %"class.std::vector.0"*, align 8
  %5 = alloca i64, align 8
  %6 = alloca %"class.std::vector.0"*, align 8
  %7 = alloca %"class.std::vector.0"*, align 8
  %8 = alloca i8*
  %9 = alloca i32
  store %"class.std::vector"* %0, %"class.std::vector"** %3, align 8
  store %"class.std::vector.0"* %1, %"class.std::vector.0"** %4, align 8
  %10 = load %"class.std::vector"*, %"class.std::vector"** %3, align 8
  %11 = call i64 @_ZNKSt6vectorIS_IxSaIxEESaIS1_EE12_M_check_lenEmPKc(%"class.std::vector"* %10, i64 1, i8* getelementptr inbounds ([28 x i8], [28 x i8]* @.str, i32 0, i32 0))
  store i64 %11, i64* %5, align 8
  %12 = bitcast %"class.std::vector"* %10 to %"struct.std::_Vector_base"*
  %13 = load i64, i64* %5, align 8
  %14 = call %"class.std::vector.0"* @_ZNSt12_Vector_baseISt6vectorIxSaIxEESaIS2_EE11_M_allocateEm(%"struct.std::_Vector_base"* %12, i64 %13)
  store %"class.std::vector.0"* %14, %"class.std::vector.0"** %6, align 8
  %15 = load %"class.std::vector.0"*, %"class.std::vector.0"** %6, align 8
  store %"class.std::vector.0"* %15, %"class.std::vector.0"** %7, align 8
  %16 = bitcast %"class.std::vector"* %10 to %"struct.std::_Vector_base"*
  %17 = getelementptr inbounds %"struct.std::_Vector_base", %"struct.std::_Vector_base"* %16, i32 0, i32 0
  %18 = bitcast %"struct.std::_Vector_base<std::vector<long long, std::allocator<long long> >, std::allocator<std::vector<long long, std::allocator<long long> > > >::_Vector_impl"* %17 to %"class.std::allocator"*
  %19 = load %"class.std::vector.0"*, %"class.std::vector.0"** %6, align 8
  %20 = call i64 @_ZNKSt6vectorIS_IxSaIxEESaIS1_EE4sizeEv(%"class.std::vector"* %10) #3
  %21 = getelementptr inbounds %"class.std::vector.0", %"class.std::vector.0"* %19, i64 %20
  %22 = load %"class.std::vector.0"*, %"class.std::vector.0"** %4, align 8
  %23 = call dereferenceable(24) %"class.std::vector.0"* @_ZSt7forwardIRKSt6vectorIxSaIxEEEOT_RNSt16remove_referenceIS5_E4typeE(%"class.std::vector.0"* dereferenceable(24) %22) #3
  invoke void @_ZNSt16allocator_traitsISaISt6vectorIxSaIxEEEE9constructIS2_JRKS2_EEEvRS3_PT_DpOT0_(%"class.std::allocator"* dereferenceable(1) %18, %"class.std::vector.0"* %21, %"class.std::vector.0"* dereferenceable(24) %23)
          to label %24 unwind label %58

; <label>:24:                                     ; preds = %2
  store %"class.std::vector.0"* null, %"class.std::vector.0"** %7, align 8
  %25 = bitcast %"class.std::vector"* %10 to %"struct.std::_Vector_base"*
  %26 = getelementptr inbounds %"struct.std::_Vector_base", %"struct.std::_Vector_base"* %25, i32 0, i32 0
  %27 = getelementptr inbounds %"struct.std::_Vector_base<std::vector<long long, std::allocator<long long> >, std::allocator<std::vector<long long, std::allocator<long long> > > >::_Vector_impl", %"struct.std::_Vector_base<std::vector<long long, std::allocator<long long> >, std::allocator<std::vector<long long, std::allocator<long long> > > >::_Vector_impl"* %26, i32 0, i32 0
  %28 = load %"class.std::vector.0"*, %"class.std::vector.0"** %27, align 8
  %29 = bitcast %"class.std::vector"* %10 to %"struct.std::_Vector_base"*
  %30 = getelementptr inbounds %"struct.std::_Vector_base", %"struct.std::_Vector_base"* %29, i32 0, i32 0
  %31 = getelementptr inbounds %"struct.std::_Vector_base<std::vector<long long, std::allocator<long long> >, std::allocator<std::vector<long long, std::allocator<long long> > > >::_Vector_impl", %"struct.std::_Vector_base<std::vector<long long, std::allocator<long long> >, std::allocator<std::vector<long long, std::allocator<long long> > > >::_Vector_impl"* %30, i32 0, i32 1
  %32 = load %"class.std::vector.0"*, %"class.std::vector.0"** %31, align 8
  %33 = load %"class.std::vector.0"*, %"class.std::vector.0"** %6, align 8
  %34 = bitcast %"class.std::vector"* %10 to %"struct.std::_Vector_base"*
  %35 = call dereferenceable(1) %"class.std::allocator"* @_ZNSt12_Vector_baseISt6vectorIxSaIxEESaIS2_EE19_M_get_Tp_allocatorEv(%"struct.std::_Vector_base"* %34) #3
  %36 = invoke %"class.std::vector.0"* @_ZSt34__uninitialized_move_if_noexcept_aIPSt6vectorIxSaIxEES3_SaIS2_EET0_T_S6_S5_RT1_(%"class.std::vector.0"* %28, %"class.std::vector.0"* %32, %"class.std::vector.0"* %33, %"class.std::allocator"* dereferenceable(1) %35)
          to label %37 unwind label %58

; <label>:37:                                     ; preds = %24
  %38 = load i32, i32* @x.225
  %39 = load i32, i32* @y.226
  %40 = sub i32 %38, 1
  %41 = mul i32 %38, %40
  %42 = urem i32 %41, 2
  %43 = icmp eq i32 %42, 0
  %44 = icmp slt i32 %39, 10
  %45 = or i1 %43, %44
  br i1 %45, label %46, label %196

; <label>:46:                                     ; preds = %37, %196
  store %"class.std::vector.0"* %36, %"class.std::vector.0"** %7, align 8
  %47 = load %"class.std::vector.0"*, %"class.std::vector.0"** %7, align 8
  %48 = getelementptr inbounds %"class.std::vector.0", %"class.std::vector.0"* %47, i32 1
  store %"class.std::vector.0"* %48, %"class.std::vector.0"** %7, align 8
  %49 = load i32, i32* @x.225
  %50 = load i32, i32* @y.226
  %51 = sub i32 %49, 1
  %52 = mul i32 %49, %51
  %53 = urem i32 %52, 2
  %54 = icmp eq i32 %53, 0
  %55 = icmp slt i32 %50, 10
  %56 = or i1 %54, %55
  br i1 %56, label %57, label %196

; <label>:57:                                     ; preds = %46
  br label %127

; <label>:58:                                     ; preds = %24, %2
  %59 = landingpad { i8*, i32 }
          catch i8* null
  %60 = extractvalue { i8*, i32 } %59, 0
  store i8* %60, i8** %8, align 8
  %61 = extractvalue { i8*, i32 } %59, 1
  store i32 %61, i32* %9, align 4
  br label %62

; <label>:62:                                     ; preds = %58
  %63 = load i8*, i8** %8, align 8
  %64 = call i8* @__cxa_begin_catch(i8* %63) #3
  %65 = load %"class.std::vector.0"*, %"class.std::vector.0"** %7, align 8
  %66 = icmp ne %"class.std::vector.0"* %65, null
  br i1 %66, label %97, label %67

; <label>:67:                                     ; preds = %62
  %68 = load i32, i32* @x.225
  %69 = load i32, i32* @y.226
  %70 = sub i32 %68, 1
  %71 = mul i32 %68, %70
  %72 = urem i32 %71, 2
  %73 = icmp eq i32 %72, 0
  %74 = icmp slt i32 %69, 10
  %75 = or i1 %73, %74
  br i1 %75, label %76, label %199

; <label>:76:                                     ; preds = %67, %199
  %77 = bitcast %"class.std::vector"* %10 to %"struct.std::_Vector_base"*
  %78 = getelementptr inbounds %"struct.std::_Vector_base", %"struct.std::_Vector_base"* %77, i32 0, i32 0
  %79 = bitcast %"struct.std::_Vector_base<std::vector<long long, std::allocator<long long> >, std::allocator<std::vector<long long, std::allocator<long long> > > >::_Vector_impl"* %78 to %"class.std::allocator"*
  %80 = load %"class.std::vector.0"*, %"class.std::vector.0"** %6, align 8
  %81 = call i64 @_ZNKSt6vectorIS_IxSaIxEESaIS1_EE4sizeEv(%"class.std::vector"* %10) #3
  %82 = getelementptr inbounds %"class.std::vector.0", %"class.std::vector.0"* %80, i64 %81
  %83 = load i32, i32* @x.225
  %84 = load i32, i32* @y.226
  %85 = sub i32 %83, 1
  %86 = mul i32 %83, %85
  %87 = urem i32 %86, 2
  %88 = icmp eq i32 %87, 0
  %89 = icmp slt i32 %84, 10
  %90 = or i1 %88, %89
  br i1 %90, label %91, label %199

; <label>:91:                                     ; preds = %76
  invoke void @_ZNSt16allocator_traitsISaISt6vectorIxSaIxEEEE7destroyIS2_EEvRS3_PT_(%"class.std::allocator"* dereferenceable(1) %79, %"class.std::vector.0"* %82)
          to label %92 unwind label %93

; <label>:92:                                     ; preds = %91
  br label %121

; <label>:93:                                     ; preds = %125, %121, %119, %91
  %94 = landingpad { i8*, i32 }
          cleanup
  %95 = extractvalue { i8*, i32 } %94, 0
  store i8* %95, i8** %8, align 8
  %96 = extractvalue { i8*, i32 } %94, 1
  store i32 %96, i32* %9, align 4
  invoke void @__cxa_end_catch()
          to label %126 unwind label %192

; <label>:97:                                     ; preds = %62
  %98 = load i32, i32* @x.225
  %99 = load i32, i32* @y.226
  %100 = sub i32 %98, 1
  %101 = mul i32 %98, %100
  %102 = urem i32 %101, 2
  %103 = icmp eq i32 %102, 0
  %104 = icmp slt i32 %99, 10
  %105 = or i1 %103, %104
  br i1 %105, label %106, label %206

; <label>:106:                                    ; preds = %97, %206
  %107 = load %"class.std::vector.0"*, %"class.std::vector.0"** %6, align 8
  %108 = load %"class.std::vector.0"*, %"class.std::vector.0"** %7, align 8
  %109 = bitcast %"class.std::vector"* %10 to %"struct.std::_Vector_base"*
  %110 = call dereferenceable(1) %"class.std::allocator"* @_ZNSt12_Vector_baseISt6vectorIxSaIxEESaIS2_EE19_M_get_Tp_allocatorEv(%"struct.std::_Vector_base"* %109) #3
  %111 = load i32, i32* @x.225
  %112 = load i32, i32* @y.226
  %113 = sub i32 %111, 1
  %114 = mul i32 %111, %113
  %115 = urem i32 %114, 2
  %116 = icmp eq i32 %115, 0
  %117 = icmp slt i32 %112, 10
  %118 = or i1 %116, %117
  br i1 %118, label %119, label %206

; <label>:119:                                    ; preds = %106
  invoke void @_ZSt8_DestroyIPSt6vectorIxSaIxEES2_EvT_S4_RSaIT0_E(%"class.std::vector.0"* %107, %"class.std::vector.0"* %108, %"class.std::allocator"* dereferenceable(1) %110)
          to label %120 unwind label %93

; <label>:120:                                    ; preds = %119
  br label %121

; <label>:121:                                    ; preds = %120, %92
  %122 = bitcast %"class.std::vector"* %10 to %"struct.std::_Vector_base"*
  %123 = load %"class.std::vector.0"*, %"class.std::vector.0"** %6, align 8
  %124 = load i64, i64* %5, align 8
  invoke void @_ZNSt12_Vector_baseISt6vectorIxSaIxEESaIS2_EE13_M_deallocateEPS2_m(%"struct.std::_Vector_base"* %122, %"class.std::vector.0"* %123, i64 %124)
          to label %125 unwind label %93

; <label>:125:                                    ; preds = %121
  invoke void @__cxa_rethrow() #15
          to label %195 unwind label %93

; <label>:126:                                    ; preds = %93
  br label %187

; <label>:127:                                    ; preds = %57
  %128 = load i32, i32* @x.225
  %129 = load i32, i32* @y.226
  %130 = sub i32 %128, 1
  %131 = mul i32 %128, %130
  %132 = urem i32 %131, 2
  %133 = icmp eq i32 %132, 0
  %134 = icmp slt i32 %129, 10
  %135 = or i1 %133, %134
  br i1 %135, label %136, label %211

; <label>:136:                                    ; preds = %127, %211
  %137 = bitcast %"class.std::vector"* %10 to %"struct.std::_Vector_base"*
  %138 = getelementptr inbounds %"struct.std::_Vector_base", %"struct.std::_Vector_base"* %137, i32 0, i32 0
  %139 = getelementptr inbounds %"struct.std::_Vector_base<std::vector<long long, std::allocator<long long> >, std::allocator<std::vector<long long, std::allocator<long long> > > >::_Vector_impl", %"struct.std::_Vector_base<std::vector<long long, std::allocator<long long> >, std::allocator<std::vector<long long, std::allocator<long long> > > >::_Vector_impl"* %138, i32 0, i32 0
  %140 = load %"class.std::vector.0"*, %"class.std::vector.0"** %139, align 8
  %141 = bitcast %"class.std::vector"* %10 to %"struct.std::_Vector_base"*
  %142 = getelementptr inbounds %"struct.std::_Vector_base", %"struct.std::_Vector_base"* %141, i32 0, i32 0
  %143 = getelementptr inbounds %"struct.std::_Vector_base<std::vector<long long, std::allocator<long long> >, std::allocator<std::vector<long long, std::allocator<long long> > > >::_Vector_impl", %"struct.std::_Vector_base<std::vector<long long, std::allocator<long long> >, std::allocator<std::vector<long long, std::allocator<long long> > > >::_Vector_impl"* %142, i32 0, i32 1
  %144 = load %"class.std::vector.0"*, %"class.std::vector.0"** %143, align 8
  %145 = bitcast %"class.std::vector"* %10 to %"struct.std::_Vector_base"*
  %146 = call dereferenceable(1) %"class.std::allocator"* @_ZNSt12_Vector_baseISt6vectorIxSaIxEESaIS2_EE19_M_get_Tp_allocatorEv(%"struct.std::_Vector_base"* %145) #3
  call void @_ZSt8_DestroyIPSt6vectorIxSaIxEES2_EvT_S4_RSaIT0_E(%"class.std::vector.0"* %140, %"class.std::vector.0"* %144, %"class.std::allocator"* dereferenceable(1) %146)
  %147 = bitcast %"class.std::vector"* %10 to %"struct.std::_Vector_base"*
  %148 = bitcast %"class.std::vector"* %10 to %"struct.std::_Vector_base"*
  %149 = getelementptr inbounds %"struct.std::_Vector_base", %"struct.std::_Vector_base"* %148, i32 0, i32 0
  %150 = getelementptr inbounds %"struct.std::_Vector_base<std::vector<long long, std::allocator<long long> >, std::allocator<std::vector<long long, std::allocator<long long> > > >::_Vector_impl", %"struct.std::_Vector_base<std::vector<long long, std::allocator<long long> >, std::allocator<std::vector<long long, std::allocator<long long> > > >::_Vector_impl"* %149, i32 0, i32 0
  %151 = load %"class.std::vector.0"*, %"class.std::vector.0"** %150, align 8
  %152 = bitcast %"class.std::vector"* %10 to %"struct.std::_Vector_base"*
  %153 = getelementptr inbounds %"struct.std::_Vector_base", %"struct.std::_Vector_base"* %152, i32 0, i32 0
  %154 = getelementptr inbounds %"struct.std::_Vector_base<std::vector<long long, std::allocator<long long> >, std::allocator<std::vector<long long, std::allocator<long long> > > >::_Vector_impl", %"struct.std::_Vector_base<std::vector<long long, std::allocator<long long> >, std::allocator<std::vector<long long, std::allocator<long long> > > >::_Vector_impl"* %153, i32 0, i32 2
  %155 = load %"class.std::vector.0"*, %"class.std::vector.0"** %154, align 8
  %156 = bitcast %"class.std::vector"* %10 to %"struct.std::_Vector_base"*
  %157 = getelementptr inbounds %"struct.std::_Vector_base", %"struct.std::_Vector_base"* %156, i32 0, i32 0
  %158 = getelementptr inbounds %"struct.std::_Vector_base<std::vector<long long, std::allocator<long long> >, std::allocator<std::vector<long long, std::allocator<long long> > > >::_Vector_impl", %"struct.std::_Vector_base<std::vector<long long, std::allocator<long long> >, std::allocator<std::vector<long long, std::allocator<long long> > > >::_Vector_impl"* %157, i32 0, i32 0
  %159 = load %"class.std::vector.0"*, %"class.std::vector.0"** %158, align 8
  %160 = ptrtoint %"class.std::vector.0"* %155 to i64
  %161 = ptrtoint %"class.std::vector.0"* %159 to i64
  %162 = sub i64 %160, %161
  %163 = sdiv exact i64 %162, 24
  call void @_ZNSt12_Vector_baseISt6vectorIxSaIxEESaIS2_EE13_M_deallocateEPS2_m(%"struct.std::_Vector_base"* %147, %"class.std::vector.0"* %151, i64 %163)
  %164 = load %"class.std::vector.0"*, %"class.std::vector.0"** %6, align 8
  %165 = bitcast %"class.std::vector"* %10 to %"struct.std::_Vector_base"*
  %166 = getelementptr inbounds %"struct.std::_Vector_base", %"struct.std::_Vector_base"* %165, i32 0, i32 0
  %167 = getelementptr inbounds %"struct.std::_Vector_base<std::vector<long long, std::allocator<long long> >, std::allocator<std::vector<long long, std::allocator<long long> > > >::_Vector_impl", %"struct.std::_Vector_base<std::vector<long long, std::allocator<long long> >, std::allocator<std::vector<long long, std::allocator<long long> > > >::_Vector_impl"* %166, i32 0, i32 0
  store %"class.std::vector.0"* %164, %"class.std::vector.0"** %167, align 8
  %168 = load %"class.std::vector.0"*, %"class.std::vector.0"** %7, align 8
  %169 = bitcast %"class.std::vector"* %10 to %"struct.std::_Vector_base"*
  %170 = getelementptr inbounds %"struct.std::_Vector_base", %"struct.std::_Vector_base"* %169, i32 0, i32 0
  %171 = getelementptr inbounds %"struct.std::_Vector_base<std::vector<long long, std::allocator<long long> >, std::allocator<std::vector<long long, std::allocator<long long> > > >::_Vector_impl", %"struct.std::_Vector_base<std::vector<long long, std::allocator<long long> >, std::allocator<std::vector<long long, std::allocator<long long> > > >::_Vector_impl"* %170, i32 0, i32 1
  store %"class.std::vector.0"* %168, %"class.std::vector.0"** %171, align 8
  %172 = load %"class.std::vector.0"*, %"class.std::vector.0"** %6, align 8
  %173 = load i64, i64* %5, align 8
  %174 = getelementptr inbounds %"class.std::vector.0", %"class.std::vector.0"* %172, i64 %173
  %175 = bitcast %"class.std::vector"* %10 to %"struct.std::_Vector_base"*
  %176 = getelementptr inbounds %"struct.std::_Vector_base", %"struct.std::_Vector_base"* %175, i32 0, i32 0
  %177 = getelementptr inbounds %"struct.std::_Vector_base<std::vector<long long, std::allocator<long long> >, std::allocator<std::vector<long long, std::allocator<long long> > > >::_Vector_impl", %"struct.std::_Vector_base<std::vector<long long, std::allocator<long long> >, std::allocator<std::vector<long long, std::allocator<long long> > > >::_Vector_impl"* %176, i32 0, i32 2
  store %"class.std::vector.0"* %174, %"class.std::vector.0"** %177, align 8
  %178 = load i32, i32* @x.225
  %179 = load i32, i32* @y.226
  %180 = sub i32 %178, 1
  %181 = mul i32 %178, %180
  %182 = urem i32 %181, 2
  %183 = icmp eq i32 %182, 0
  %184 = icmp slt i32 %179, 10
  %185 = or i1 %183, %184
  br i1 %185, label %186, label %211

; <label>:186:                                    ; preds = %136
  ret void

; <label>:187:                                    ; preds = %126
  %188 = load i8*, i8** %8, align 8
  %189 = load i32, i32* %9, align 4
  %190 = insertvalue { i8*, i32 } undef, i8* %188, 0
  %191 = insertvalue { i8*, i32 } %190, i32 %189, 1
  resume { i8*, i32 } %191

; <label>:192:                                    ; preds = %93
  %193 = landingpad { i8*, i32 }
          catch i8* null
  %194 = extractvalue { i8*, i32 } %193, 0
  call void @__clang_call_terminate(i8* %194) #12
  unreachable

; <label>:195:                                    ; preds = %125
  unreachable

; <label>:196:                                    ; preds = %46, %37
  store %"class.std::vector.0"* %36, %"class.std::vector.0"** %7, align 8
  %197 = load %"class.std::vector.0"*, %"class.std::vector.0"** %7, align 8
  %198 = getelementptr inbounds %"class.std::vector.0", %"class.std::vector.0"* %197, i32 1
  store %"class.std::vector.0"* %198, %"class.std::vector.0"** %7, align 8
  br label %46

; <label>:199:                                    ; preds = %76, %67
  %200 = bitcast %"class.std::vector"* %10 to %"struct.std::_Vector_base"*
  %201 = getelementptr inbounds %"struct.std::_Vector_base", %"struct.std::_Vector_base"* %200, i32 0, i32 0
  %202 = bitcast %"struct.std::_Vector_base<std::vector<long long, std::allocator<long long> >, std::allocator<std::vector<long long, std::allocator<long long> > > >::_Vector_impl"* %201 to %"class.std::allocator"*
  %203 = load %"class.std::vector.0"*, %"class.std::vector.0"** %6, align 8
  %204 = call i64 @_ZNKSt6vectorIS_IxSaIxEESaIS1_EE4sizeEv(%"class.std::vector"* %10) #3
  %205 = getelementptr inbounds %"class.std::vector.0", %"class.std::vector.0"* %203, i64 %204
  br label %76

; <label>:206:                                    ; preds = %106, %97
  %207 = load %"class.std::vector.0"*, %"class.std::vector.0"** %6, align 8
  %208 = load %"class.std::vector.0"*, %"class.std::vector.0"** %7, align 8
  %209 = bitcast %"class.std::vector"* %10 to %"struct.std::_Vector_base"*
  %210 = call dereferenceable(1) %"class.std::allocator"* @_ZNSt12_Vector_baseISt6vectorIxSaIxEESaIS2_EE19_M_get_Tp_allocatorEv(%"struct.std::_Vector_base"* %209) #3
  br label %106

; <label>:211:                                    ; preds = %136, %127
  %212 = bitcast %"class.std::vector"* %10 to %"struct.std::_Vector_base"*
  %213 = getelementptr inbounds %"struct.std::_Vector_base", %"struct.std::_Vector_base"* %212, i32 0, i32 0
  %214 = getelementptr inbounds %"struct.std::_Vector_base<std::vector<long long, std::allocator<long long> >, std::allocator<std::vector<long long, std::allocator<long long> > > >::_Vector_impl", %"struct.std::_Vector_base<std::vector<long long, std::allocator<long long> >, std::allocator<std::vector<long long, std::allocator<long long> > > >::_Vector_impl"* %213, i32 0, i32 0
  %215 = load %"class.std::vector.0"*, %"class.std::vector.0"** %214, align 8
  %216 = bitcast %"class.std::vector"* %10 to %"struct.std::_Vector_base"*
  %217 = getelementptr inbounds %"struct.std::_Vector_base", %"struct.std::_Vector_base"* %216, i32 0, i32 0
  %218 = getelementptr inbounds %"struct.std::_Vector_base<std::vector<long long, std::allocator<long long> >, std::allocator<std::vector<long long, std::allocator<long long> > > >::_Vector_impl", %"struct.std::_Vector_base<std::vector<long long, std::allocator<long long> >, std::allocator<std::vector<long long, std::allocator<long long> > > >::_Vector_impl"* %217, i32 0, i32 1
  %219 = load %"class.std::vector.0"*, %"class.std::vector.0"** %218, align 8
  %220 = bitcast %"class.std::vector"* %10 to %"struct.std::_Vector_base"*
  %221 = call dereferenceable(1) %"class.std::allocator"* @_ZNSt12_Vector_baseISt6vectorIxSaIxEESaIS2_EE19_M_get_Tp_allocatorEv(%"struct.std::_Vector_base"* %220) #3
  call void @_ZSt8_DestroyIPSt6vectorIxSaIxEES2_EvT_S4_RSaIT0_E(%"class.std::vector.0"* %215, %"class.std::vector.0"* %219, %"class.std::allocator"* dereferenceable(1) %221)
  %222 = bitcast %"class.std::vector"* %10 to %"struct.std::_Vector_base"*
  %223 = bitcast %"class.std::vector"* %10 to %"struct.std::_Vector_base"*
  %224 = getelementptr inbounds %"struct.std::_Vector_base", %"struct.std::_Vector_base"* %223, i32 0, i32 0
  %225 = getelementptr inbounds %"struct.std::_Vector_base<std::vector<long long, std::allocator<long long> >, std::allocator<std::vector<long long, std::allocator<long long> > > >::_Vector_impl", %"struct.std::_Vector_base<std::vector<long long, std::allocator<long long> >, std::allocator<std::vector<long long, std::allocator<long long> > > >::_Vector_impl"* %224, i32 0, i32 0
  %226 = load %"class.std::vector.0"*, %"class.std::vector.0"** %225, align 8
  %227 = bitcast %"class.std::vector"* %10 to %"struct.std::_Vector_base"*
  %228 = getelementptr inbounds %"struct.std::_Vector_base", %"struct.std::_Vector_base"* %227, i32 0, i32 0
  %229 = getelementptr inbounds %"struct.std::_Vector_base<std::vector<long long, std::allocator<long long> >, std::allocator<std::vector<long long, std::allocator<long long> > > >::_Vector_impl", %"struct.std::_Vector_base<std::vector<long long, std::allocator<long long> >, std::allocator<std::vector<long long, std::allocator<long long> > > >::_Vector_impl"* %228, i32 0, i32 2
  %230 = load %"class.std::vector.0"*, %"class.std::vector.0"** %229, align 8
  %231 = bitcast %"class.std::vector"* %10 to %"struct.std::_Vector_base"*
  %232 = getelementptr inbounds %"struct.std::_Vector_base", %"struct.std::_Vector_base"* %231, i32 0, i32 0
  %233 = getelementptr inbounds %"struct.std::_Vector_base<std::vector<long long, std::allocator<long long> >, std::allocator<std::vector<long long, std::allocator<long long> > > >::_Vector_impl", %"struct.std::_Vector_base<std::vector<long long, std::allocator<long long> >, std::allocator<std::vector<long long, std::allocator<long long> > > >::_Vector_impl"* %232, i32 0, i32 0
  %234 = load %"class.std::vector.0"*, %"class.std::vector.0"** %233, align 8
  %235 = ptrtoint %"class.std::vector.0"* %230 to i64
  %236 = ptrtoint %"class.std::vector.0"* %234 to i64
  %237 = shl i64 %235, %236
  %238 = shl i64 %235, %236
  %239 = sub i64 %235, %236
  %240 = sub i64 0, %239
  %241 = add i64 %240, 24
  %242 = sdiv exact i64 %239, 24
  call void @_ZNSt12_Vector_baseISt6vectorIxSaIxEESaIS2_EE13_M_deallocateEPS2_m(%"struct.std::_Vector_base"* %222, %"class.std::vector.0"* %226, i64 %242)
  %243 = load %"class.std::vector.0"*, %"class.std::vector.0"** %6, align 8
  %244 = bitcast %"class.std::vector"* %10 to %"struct.std::_Vector_base"*
  %245 = getelementptr inbounds %"struct.std::_Vector_base", %"struct.std::_Vector_base"* %244, i32 0, i32 0
  %246 = getelementptr inbounds %"struct.std::_Vector_base<std::vector<long long, std::allocator<long long> >, std::allocator<std::vector<long long, std::allocator<long long> > > >::_Vector_impl", %"struct.std::_Vector_base<std::vector<long long, std::allocator<long long> >, std::allocator<std::vector<long long, std::allocator<long long> > > >::_Vector_impl"* %245, i32 0, i32 0
  store %"class.std::vector.0"* %243, %"class.std::vector.0"** %246, align 8
  %247 = load %"class.std::vector.0"*, %"class.std::vector.0"** %7, align 8
  %248 = bitcast %"class.std::vector"* %10 to %"struct.std::_Vector_base"*
  %249 = getelementptr inbounds %"struct.std::_Vector_base", %"struct.std::_Vector_base"* %248, i32 0, i32 0
  %250 = getelementptr inbounds %"struct.std::_Vector_base<std::vector<long long, std::allocator<long long> >, std::allocator<std::vector<long long, std::allocator<long long> > > >::_Vector_impl", %"struct.std::_Vector_base<std::vector<long long, std::allocator<long long> >, std::allocator<std::vector<long long, std::allocator<long long> > > >::_Vector_impl"* %249, i32 0, i32 1
  store %"class.std::vector.0"* %247, %"class.std::vector.0"** %250, align 8
  %251 = load %"class.std::vector.0"*, %"class.std::vector.0"** %6, align 8
  %252 = load i64, i64* %5, align 8
  %253 = getelementptr inbounds %"class.std::vector.0", %"class.std::vector.0"* %251, i64 %252
  %254 = bitcast %"class.std::vector"* %10 to %"struct.std::_Vector_base"*
  %255 = getelementptr inbounds %"struct.std::_Vector_base", %"struct.std::_Vector_base"* %254, i32 0, i32 0
  %256 = getelementptr inbounds %"struct.std::_Vector_base<std::vector<long long, std::allocator<long long> >, std::allocator<std::vector<long long, std::allocator<long long> > > >::_Vector_impl", %"struct.std::_Vector_base<std::vector<long long, std::allocator<long long> >, std::allocator<std::vector<long long, std::allocator<long long> > > >::_Vector_impl"* %255, i32 0, i32 2
  store %"class.std::vector.0"* %253, %"class.std::vector.0"** %256, align 8
  br label %136
}

; Function Attrs: noinline uwtable
define linkonce_odr void @_ZN9__gnu_cxx13new_allocatorISt6vectorIxSaIxEEE9constructIS3_JRKS3_EEEvPT_DpOT0_(%"class.__gnu_cxx::new_allocator"*, %"class.std::vector.0"*, %"class.std::vector.0"* dereferenceable(24)) #0 comdat align 2 {
  %4 = alloca %"class.__gnu_cxx::new_allocator"*, align 8
  %5 = alloca %"class.std::vector.0"*, align 8
  %6 = alloca %"class.std::vector.0"*, align 8
  store %"class.__gnu_cxx::new_allocator"* %0, %"class.__gnu_cxx::new_allocator"** %4, align 8
  store %"class.std::vector.0"* %1, %"class.std::vector.0"** %5, align 8
  store %"class.std::vector.0"* %2, %"class.std::vector.0"** %6, align 8
  %7 = load %"class.__gnu_cxx::new_allocator"*, %"class.__gnu_cxx::new_allocator"** %4, align 8
  %8 = load %"class.std::vector.0"*, %"class.std::vector.0"** %5, align 8
  %9 = bitcast %"class.std::vector.0"* %8 to i8*
  %10 = bitcast i8* %9 to %"class.std::vector.0"*
  %11 = load %"class.std::vector.0"*, %"class.std::vector.0"** %6, align 8
  %12 = call dereferenceable(24) %"class.std::vector.0"* @_ZSt7forwardIRKSt6vectorIxSaIxEEEOT_RNSt16remove_referenceIS5_E4typeE(%"class.std::vector.0"* dereferenceable(24) %11) #3
  call void @_ZNSt6vectorIxSaIxEEC2ERKS1_(%"class.std::vector.0"* %10, %"class.std::vector.0"* dereferenceable(24) %12)
  ret void
}

; Function Attrs: noinline nounwind uwtable
define linkonce_odr dereferenceable(24) %"class.std::vector.0"* @_ZSt7forwardIRKSt6vectorIxSaIxEEEOT_RNSt16remove_referenceIS5_E4typeE(%"class.std::vector.0"* dereferenceable(24)) #4 comdat {
  %2 = load i32, i32* @x.229
  %3 = load i32, i32* @y.230
  %4 = sub i32 %2, 1
  %5 = mul i32 %2, %4
  %6 = urem i32 %5, 2
  %7 = icmp eq i32 %6, 0
  %8 = icmp slt i32 %3, 10
  %9 = or i1 %7, %8
  br i1 %9, label %10, label %22

; <label>:10:                                     ; preds = %1, %22
  %11 = alloca %"class.std::vector.0"*, align 8
  store %"class.std::vector.0"* %0, %"class.std::vector.0"** %11, align 8
  %12 = load %"class.std::vector.0"*, %"class.std::vector.0"** %11, align 8
  %13 = load i32, i32* @x.229
  %14 = load i32, i32* @y.230
  %15 = sub i32 %13, 1
  %16 = mul i32 %13, %15
  %17 = urem i32 %16, 2
  %18 = icmp eq i32 %17, 0
  %19 = icmp slt i32 %14, 10
  %20 = or i1 %18, %19
  br i1 %20, label %21, label %22

; <label>:21:                                     ; preds = %10
  ret %"class.std::vector.0"* %12

; <label>:22:                                     ; preds = %10, %1
  %23 = alloca %"class.std::vector.0"*, align 8
  store %"class.std::vector.0"* %0, %"class.std::vector.0"** %23, align 8
  %24 = load %"class.std::vector.0"*, %"class.std::vector.0"** %23, align 8
  br label %10
}

; Function Attrs: noinline uwtable
define linkonce_odr i64 @_ZNKSt6vectorIS_IxSaIxEESaIS1_EE12_M_check_lenEmPKc(%"class.std::vector"*, i64, i8*) #0 comdat align 2 {
  %4 = load i32, i32* @x.231
  %5 = load i32, i32* @y.232
  %6 = sub i32 %4, 1
  %7 = mul i32 %4, %6
  %8 = urem i32 %7, 2
  %9 = icmp eq i32 %8, 0
  %10 = icmp slt i32 %5, 10
  %11 = or i1 %9, %10
  br i1 %11, label %12, label %72

; <label>:12:                                     ; preds = %3, %72
  %13 = alloca %"class.std::vector"*, align 8
  %14 = alloca i64, align 8
  %15 = alloca i8*, align 8
  %16 = alloca i64, align 8
  %17 = alloca i64, align 8
  store %"class.std::vector"* %0, %"class.std::vector"** %13, align 8
  store i64 %1, i64* %14, align 8
  store i8* %2, i8** %15, align 8
  %18 = load %"class.std::vector"*, %"class.std::vector"** %13, align 8
  %19 = call i64 @_ZNKSt6vectorIS_IxSaIxEESaIS1_EE8max_sizeEv(%"class.std::vector"* %18) #3
  %20 = call i64 @_ZNKSt6vectorIS_IxSaIxEESaIS1_EE4sizeEv(%"class.std::vector"* %18) #3
  %21 = sub i64 %19, %20
  %22 = load i64, i64* %14, align 8
  %23 = icmp ult i64 %21, %22
  %24 = load i32, i32* @x.231
  %25 = load i32, i32* @y.232
  %26 = sub i32 %24, 1
  %27 = mul i32 %24, %26
  %28 = urem i32 %27, 2
  %29 = icmp eq i32 %28, 0
  %30 = icmp slt i32 %25, 10
  %31 = or i1 %29, %30
  br i1 %31, label %32, label %72

; <label>:32:                                     ; preds = %12
  br i1 %23, label %33, label %35

; <label>:33:                                     ; preds = %32
  %34 = load i8*, i8** %15, align 8
  call void @_ZSt20__throw_length_errorPKc(i8* %34) #15
  unreachable

; <label>:35:                                     ; preds = %32
  %36 = call i64 @_ZNKSt6vectorIS_IxSaIxEESaIS1_EE4sizeEv(%"class.std::vector"* %18) #3
  %37 = call i64 @_ZNKSt6vectorIS_IxSaIxEESaIS1_EE4sizeEv(%"class.std::vector"* %18) #3
  store i64 %37, i64* %17, align 8
  %38 = call dereferenceable(8) i64* @_ZSt3maxImERKT_S2_S2_(i64* dereferenceable(8) %17, i64* dereferenceable(8) %14)
  %39 = load i64, i64* %38, align 8
  %40 = add i64 %36, %39
  store i64 %40, i64* %16, align 8
  %41 = load i64, i64* %16, align 8
  %42 = call i64 @_ZNKSt6vectorIS_IxSaIxEESaIS1_EE4sizeEv(%"class.std::vector"* %18) #3
  %43 = icmp ult i64 %41, %42
  br i1 %43, label %48, label %44

; <label>:44:                                     ; preds = %35
  %45 = load i64, i64* %16, align 8
  %46 = call i64 @_ZNKSt6vectorIS_IxSaIxEESaIS1_EE8max_sizeEv(%"class.std::vector"* %18) #3
  %47 = icmp ugt i64 %45, %46
  br i1 %47, label %48, label %50

; <label>:48:                                     ; preds = %44, %35
  %49 = call i64 @_ZNKSt6vectorIS_IxSaIxEESaIS1_EE8max_sizeEv(%"class.std::vector"* %18) #3
  br label %52

; <label>:50:                                     ; preds = %44
  %51 = load i64, i64* %16, align 8
  br label %52

; <label>:52:                                     ; preds = %50, %48
  %53 = phi i64 [ %49, %48 ], [ %51, %50 ]
  %54 = load i32, i32* @x.231
  %55 = load i32, i32* @y.232
  %56 = sub i32 %54, 1
  %57 = mul i32 %54, %56
  %58 = urem i32 %57, 2
  %59 = icmp eq i32 %58, 0
  %60 = icmp slt i32 %55, 10
  %61 = or i1 %59, %60
  br i1 %61, label %62, label %95

; <label>:62:                                     ; preds = %52, %95
  %63 = load i32, i32* @x.231
  %64 = load i32, i32* @y.232
  %65 = sub i32 %63, 1
  %66 = mul i32 %63, %65
  %67 = urem i32 %66, 2
  %68 = icmp eq i32 %67, 0
  %69 = icmp slt i32 %64, 10
  %70 = or i1 %68, %69
  br i1 %70, label %71, label %95

; <label>:71:                                     ; preds = %62
  ret i64 %53

; <label>:72:                                     ; preds = %12, %3
  %73 = alloca %"class.std::vector"*, align 8
  %74 = alloca i64, align 8
  %75 = alloca i8*, align 8
  %76 = alloca i64, align 8
  %77 = alloca i64, align 8
  store %"class.std::vector"* %0, %"class.std::vector"** %73, align 8
  store i64 %1, i64* %74, align 8
  store i8* %2, i8** %75, align 8
  %78 = load %"class.std::vector"*, %"class.std::vector"** %73, align 8
  %79 = call i64 @_ZNKSt6vectorIS_IxSaIxEESaIS1_EE8max_sizeEv(%"class.std::vector"* %78) #3
  %80 = call i64 @_ZNKSt6vectorIS_IxSaIxEESaIS1_EE4sizeEv(%"class.std::vector"* %78) #3
  %81 = sub i64 0, %79
  %82 = add i64 %81, %80
  %83 = sub i64 %79, %80
  %84 = mul i64 %83, %80
  %85 = sub i64 %79, %80
  %86 = mul i64 %85, %80
  %87 = sub i64 %79, %80
  %88 = mul i64 %87, %80
  %89 = sub i64 0, %79
  %90 = add i64 %89, %80
  %91 = shl i64 %79, %80
  %92 = sub i64 %79, %80
  %93 = load i64, i64* %74, align 8
  %94 = icmp ult i64 %92, %93
  br label %12

; <label>:95:                                     ; preds = %62, %52
  br label %62
}

; Function Attrs: noinline uwtable
define linkonce_odr %"class.std::vector.0"* @_ZNSt12_Vector_baseISt6vectorIxSaIxEESaIS2_EE11_M_allocateEm(%"struct.std::_Vector_base"*, i64) #0 comdat align 2 {
  %3 = alloca %"struct.std::_Vector_base"*, align 8
  %4 = alloca i64, align 8
  store %"struct.std::_Vector_base"* %0, %"struct.std::_Vector_base"** %3, align 8
  store i64 %1, i64* %4, align 8
  %5 = load %"struct.std::_Vector_base"*, %"struct.std::_Vector_base"** %3, align 8
  %6 = load i64, i64* %4, align 8
  %7 = icmp ne i64 %6, 0
  br i1 %7, label %8, label %13

; <label>:8:                                      ; preds = %2
  %9 = getelementptr inbounds %"struct.std::_Vector_base", %"struct.std::_Vector_base"* %5, i32 0, i32 0
  %10 = bitcast %"struct.std::_Vector_base<std::vector<long long, std::allocator<long long> >, std::allocator<std::vector<long long, std::allocator<long long> > > >::_Vector_impl"* %9 to %"class.std::allocator"*
  %11 = load i64, i64* %4, align 8
  %12 = call %"class.std::vector.0"* @_ZNSt16allocator_traitsISaISt6vectorIxSaIxEEEE8allocateERS3_m(%"class.std::allocator"* dereferenceable(1) %10, i64 %11)
  br label %14

; <label>:13:                                     ; preds = %2
  br label %14

; <label>:14:                                     ; preds = %13, %8
  %15 = phi %"class.std::vector.0"* [ %12, %8 ], [ null, %13 ]
  ret %"class.std::vector.0"* %15
}

; Function Attrs: noinline nounwind uwtable
define linkonce_odr i64 @_ZNKSt6vectorIS_IxSaIxEESaIS1_EE4sizeEv(%"class.std::vector"*) #4 comdat align 2 {
  %2 = load i32, i32* @x.235
  %3 = load i32, i32* @y.236
  %4 = sub i32 %2, 1
  %5 = mul i32 %2, %4
  %6 = urem i32 %5, 2
  %7 = icmp eq i32 %6, 0
  %8 = icmp slt i32 %3, 10
  %9 = or i1 %7, %8
  br i1 %9, label %10, label %34

; <label>:10:                                     ; preds = %1, %34
  %11 = alloca %"class.std::vector"*, align 8
  store %"class.std::vector"* %0, %"class.std::vector"** %11, align 8
  %12 = load %"class.std::vector"*, %"class.std::vector"** %11, align 8
  %13 = bitcast %"class.std::vector"* %12 to %"struct.std::_Vector_base"*
  %14 = getelementptr inbounds %"struct.std::_Vector_base", %"struct.std::_Vector_base"* %13, i32 0, i32 0
  %15 = getelementptr inbounds %"struct.std::_Vector_base<std::vector<long long, std::allocator<long long> >, std::allocator<std::vector<long long, std::allocator<long long> > > >::_Vector_impl", %"struct.std::_Vector_base<std::vector<long long, std::allocator<long long> >, std::allocator<std::vector<long long, std::allocator<long long> > > >::_Vector_impl"* %14, i32 0, i32 1
  %16 = load %"class.std::vector.0"*, %"class.std::vector.0"** %15, align 8
  %17 = bitcast %"class.std::vector"* %12 to %"struct.std::_Vector_base"*
  %18 = getelementptr inbounds %"struct.std::_Vector_base", %"struct.std::_Vector_base"* %17, i32 0, i32 0
  %19 = getelementptr inbounds %"struct.std::_Vector_base<std::vector<long long, std::allocator<long long> >, std::allocator<std::vector<long long, std::allocator<long long> > > >::_Vector_impl", %"struct.std::_Vector_base<std::vector<long long, std::allocator<long long> >, std::allocator<std::vector<long long, std::allocator<long long> > > >::_Vector_impl"* %18, i32 0, i32 0
  %20 = load %"class.std::vector.0"*, %"class.std::vector.0"** %19, align 8
  %21 = ptrtoint %"class.std::vector.0"* %16 to i64
  %22 = ptrtoint %"class.std::vector.0"* %20 to i64
  %23 = sub i64 %21, %22
  %24 = sdiv exact i64 %23, 24
  %25 = load i32, i32* @x.235
  %26 = load i32, i32* @y.236
