; ModuleID = 'Project_CodeNet_C++1400/p03224/s601692440.cpp'
source_filename = "Project_CodeNet_C++1400/p03224/s601692440.cpp"
target datalayout = "e-m:e-i64:64-f80:128-n8:16:32:64-S128"
target triple = "x86_64-unknown-linux-gnu"

%"class.std::ios_base::Init" = type { i8 }
%"class.std::vector" = type { %"struct.std::_Vector_base" }
%"struct.std::_Vector_base" = type { %"struct.std::_Vector_base<int, std::allocator<int> >::_Vector_impl" }
%"struct.std::_Vector_base<int, std::allocator<int> >::_Vector_impl" = type { i32*, i32*, i32* }
%"class.std::basic_ostream" = type { i32 (...)**, %"class.std::basic_ios" }
%"class.std::basic_ios" = type { %"class.std::ios_base", %"class.std::basic_ostream"*, i8, i8, %"class.std::basic_streambuf"*, %"class.std::ctype"*, %"class.std::num_put"*, %"class.std::num_get"* }
%"class.std::ios_base" = type { i32 (...)**, i64, i64, i32, i32, i32, %"struct.std::ios_base::_Callback_list"*, %"struct.std::ios_base::_Words", [8 x %"struct.std::ios_base::_Words"], i32, %"struct.std::ios_base::_Words"*, %"class.std::locale" }
%"struct.std::ios_base::_Callback_list" = type { %"struct.std::ios_base::_Callback_list"*, void (i32, %"class.std::ios_base"*, i32)*, i32, i32 }
%"struct.std::ios_base::_Words" = type { i8*, i64 }
%"class.std::locale" = type { %"class.std::locale::_Impl"* }
%"class.std::locale::_Impl" = type { i32, %"class.std::locale::facet"**, i64, %"class.std::locale::facet"**, i8** }
%"class.std::locale::facet" = type <{ i32 (...)**, i32, [4 x i8] }>
%"class.std::basic_streambuf" = type { i32 (...)**, i8*, i8*, i8*, i8*, i8*, i8*, %"class.std::locale" }
%"class.std::ctype" = type <{ %"class.std::locale::facet.base", [4 x i8], %struct.__locale_struct*, i8, [7 x i8], i32*, i32*, i16*, i8, [256 x i8], [256 x i8], i8, [6 x i8] }>
%"class.std::locale::facet.base" = type <{ i32 (...)**, i32 }>
%struct.__locale_struct = type { [13 x %struct.__locale_data*], i16*, i32*, i32*, [13 x i8*] }
%struct.__locale_data = type opaque
%"class.std::num_put" = type { %"class.std::locale::facet.base", [4 x i8] }
%"class.std::num_get" = type { %"class.std::locale::facet.base", [4 x i8] }
%"class.std::allocator" = type { i8 }
%"class.__gnu_cxx::__normal_iterator" = type { i32* }
%"class.__gnu_cxx::new_allocator" = type { i8 }
%"class.std::move_iterator" = type { i32* }

$_ZNSt6vectorIiSaIiEEC2Ev = comdat any

$_ZNSt6vectorIiSaIiEED2Ev = comdat any

$_Z4readv = comdat any

$_ZNSt6vectorIiSaIiEE9push_backERKi = comdat any

$_Z3wrix = comdat any

$_ZNKSt6vectorIiSaIiEE4sizeEv = comdat any

$_ZNSt6vectorIiSaIiEE5beginEv = comdat any

$_ZNSt6vectorIiSaIiEE3endEv = comdat any

$_ZN9__gnu_cxxneIPiSt6vectorIiSaIiEEEEbRKNS_17__normal_iteratorIT_T0_EESA_ = comdat any

$_ZNK9__gnu_cxx17__normal_iteratorIPiSt6vectorIiSaIiEEEdeEv = comdat any

$_ZN9__gnu_cxx17__normal_iteratorIPiSt6vectorIiSaIiEEEppEv = comdat any

$_Z5writex = comdat any

$_ZNSt12_Vector_baseIiSaIiEEC2Ev = comdat any

$__clang_call_terminate = comdat any

$_ZNSt12_Vector_baseIiSaIiEE12_Vector_implC2Ev = comdat any

$_ZNSaIiEC2Ev = comdat any

$_ZN9__gnu_cxx13new_allocatorIiEC2Ev = comdat any

$_ZSt8_DestroyIPiiEvT_S1_RSaIT0_E = comdat any

$_ZNSt12_Vector_baseIiSaIiEE19_M_get_Tp_allocatorEv = comdat any

$_ZNSt12_Vector_baseIiSaIiEED2Ev = comdat any

$_ZSt8_DestroyIPiEvT_S1_ = comdat any

$_ZNSt12_Destroy_auxILb1EE9__destroyIPiEEvT_S3_ = comdat any

$_ZNSt12_Vector_baseIiSaIiEE13_M_deallocateEPim = comdat any

$_ZNSt12_Vector_baseIiSaIiEE12_Vector_implD2Ev = comdat any

$_ZNSt16allocator_traitsISaIiEE10deallocateERS0_Pim = comdat any

$_ZN9__gnu_cxx13new_allocatorIiE10deallocateEPim = comdat any

$_ZNSaIiED2Ev = comdat any

$_ZN9__gnu_cxx13new_allocatorIiED2Ev = comdat any

$_ZNSt16allocator_traitsISaIiEE9constructIiJRKiEEEvRS0_PT_DpOT0_ = comdat any

$_ZNSt6vectorIiSaIiEE19_M_emplace_back_auxIJRKiEEEvDpOT_ = comdat any

$_ZN9__gnu_cxx13new_allocatorIiE9constructIiJRKiEEEvPT_DpOT0_ = comdat any

$_ZSt7forwardIRKiEOT_RNSt16remove_referenceIS2_E4typeE = comdat any

$_ZNKSt6vectorIiSaIiEE12_M_check_lenEmPKc = comdat any

$_ZNSt12_Vector_baseIiSaIiEE11_M_allocateEm = comdat any

$_ZSt34__uninitialized_move_if_noexcept_aIPiS0_SaIiEET0_T_S3_S2_RT1_ = comdat any

$_ZNSt16allocator_traitsISaIiEE7destroyIiEEvRS0_PT_ = comdat any

$_ZNKSt6vectorIiSaIiEE8max_sizeEv = comdat any

$_ZSt3maxImERKT_S2_S2_ = comdat any

$_ZNSt16allocator_traitsISaIiEE8max_sizeERKS0_ = comdat any

$_ZNKSt12_Vector_baseIiSaIiEE19_M_get_Tp_allocatorEv = comdat any

$_ZNK9__gnu_cxx13new_allocatorIiE8max_sizeEv = comdat any

$_ZNSt16allocator_traitsISaIiEE8allocateERS0_m = comdat any

$_ZN9__gnu_cxx13new_allocatorIiE8allocateEmPKv = comdat any

$_ZSt22__uninitialized_copy_aISt13move_iteratorIPiES1_iET0_T_S4_S3_RSaIT1_E = comdat any

$_ZSt32__make_move_if_noexcept_iteratorIPiSt13move_iteratorIS0_EET0_T_ = comdat any

$_ZSt18uninitialized_copyISt13move_iteratorIPiES1_ET0_T_S4_S3_ = comdat any

$_ZNSt20__uninitialized_copyILb1EE13__uninit_copyISt13move_iteratorIPiES3_EET0_T_S6_S5_ = comdat any

$_ZSt4copyISt13move_iteratorIPiES1_ET0_T_S4_S3_ = comdat any

$_ZSt14__copy_move_a2ILb1EPiS0_ET1_T0_S2_S1_ = comdat any

$_ZSt12__miter_baseISt13move_iteratorIPiEENSt11_Miter_baseIT_E13iterator_typeES4_ = comdat any

$_ZSt13__copy_move_aILb1EPiS0_ET1_T0_S2_S1_ = comdat any

$_ZSt12__niter_baseIPiENSt11_Niter_baseIT_E13iterator_typeES2_ = comdat any

$_ZNSt11__copy_moveILb1ELb1ESt26random_access_iterator_tagE8__copy_mIiEEPT_PKS3_S6_S4_ = comdat any

$_ZNSt10_Iter_baseIPiLb0EE7_S_baseES0_ = comdat any

$_ZNSt10_Iter_baseISt13move_iteratorIPiELb1EE7_S_baseES2_ = comdat any

$_ZNKSt13move_iteratorIPiE4baseEv = comdat any

$_ZNSt13move_iteratorIPiEC2ES0_ = comdat any

$_ZN9__gnu_cxx13new_allocatorIiE7destroyIiEEvPT_ = comdat any

$_ZN9__gnu_cxx17__normal_iteratorIPiSt6vectorIiSaIiEEEC2ERKS1_ = comdat any

$_ZNK9__gnu_cxx17__normal_iteratorIPiSt6vectorIiSaIiEEE4baseEv = comdat any

@_ZStL8__ioinit = internal global %"class.std::ios_base::Init" zeroinitializer, align 1
@__dso_handle = external global i8
@v = global [1000 x %"class.std::vector"] zeroinitializer, align 16
@dq = global i32 0, align 4
@.str = private unnamed_addr constant [4 x i8] c"Yes\00", align 1
@_ZSt4cout = external global %"class.std::basic_ostream", align 8
@.str.2 = private unnamed_addr constant [1 x i8] zeroinitializer, align 1
@.str.3 = private unnamed_addr constant [3 x i8] c"No\00", align 1
@.str.4 = private unnamed_addr constant [28 x i8] c"vector::_M_emplace_back_aux\00", align 1
@llvm.global_ctors = appending global [1 x { i32, void ()*, i8* }] [{ i32, void ()*, i8* } { i32 65535, void ()* @_GLOBAL__sub_I_s601692440.cpp, i8* null }]
@x = common global i32 0
@y = common global i32 0
@x.5 = common global i32 0
@y.6 = common global i32 0
@x.7 = common global i32 0
@y.8 = common global i32 0
@x.9 = common global i32 0
@y.10 = common global i32 0
@x.11 = common global i32 0
@y.12 = common global i32 0
@x.13 = common global i32 0
@y.14 = common global i32 0
@x.15 = common global i32 0
@y.16 = common global i32 0
@x.17 = common global i32 0
@y.18 = common global i32 0
@x.19 = common global i32 0
@y.20 = common global i32 0
@x.21 = common global i32 0
@y.22 = common global i32 0
@x.23 = common global i32 0
@y.24 = common global i32 0
@x.25 = common global i32 0
@y.26 = common global i32 0
@x.27 = common global i32 0
@y.28 = common global i32 0
@x.29 = common global i32 0
@y.30 = common global i32 0
@x.31 = common global i32 0
@y.32 = common global i32 0
@x.33 = common global i32 0
@y.34 = common global i32 0
@x.35 = common global i32 0
@y.36 = common global i32 0
@x.37 = common global i32 0
@y.38 = common global i32 0
@x.39 = common global i32 0
@y.40 = common global i32 0
@x.41 = common global i32 0
@y.42 = common global i32 0
@x.43 = common global i32 0
@y.44 = common global i32 0
@x.45 = common global i32 0
@y.46 = common global i32 0
@x.47 = common global i32 0
@y.48 = common global i32 0
@x.49 = common global i32 0
@y.50 = common global i32 0
@x.51 = common global i32 0
@y.52 = common global i32 0
@x.53 = common global i32 0
@y.54 = common global i32 0
@x.55 = common global i32 0
@y.56 = common global i32 0
@x.57 = common global i32 0
@y.58 = common global i32 0
@x.59 = common global i32 0
@y.60 = common global i32 0
@x.61 = common global i32 0
@y.62 = common global i32 0
@x.63 = common global i32 0
@y.64 = common global i32 0
@x.65 = common global i32 0
@y.66 = common global i32 0
@x.67 = common global i32 0
@y.68 = common global i32 0
@x.69 = common global i32 0
@y.70 = common global i32 0
@x.71 = common global i32 0
@y.72 = common global i32 0
@x.73 = common global i32 0
@y.74 = common global i32 0
@x.75 = common global i32 0
@y.76 = common global i32 0
@x.77 = common global i32 0
@y.78 = common global i32 0
@x.79 = common global i32 0
@y.80 = common global i32 0
@x.81 = common global i32 0
@y.82 = common global i32 0
@x.83 = common global i32 0
@y.84 = common global i32 0
@x.85 = common global i32 0
@y.86 = common global i32 0
@x.87 = common global i32 0
@y.88 = common global i32 0
@x.89 = common global i32 0
@y.90 = common global i32 0
@x.91 = common global i32 0
@y.92 = common global i32 0
@x.93 = common global i32 0
@y.94 = common global i32 0
@x.95 = common global i32 0
@y.96 = common global i32 0
@x.97 = common global i32 0
@y.98 = common global i32 0
@x.99 = common global i32 0
@y.100 = common global i32 0
@x.101 = common global i32 0
@y.102 = common global i32 0
@x.103 = common global i32 0
@y.104 = common global i32 0
@x.105 = common global i32 0
@y.106 = common global i32 0
@x.107 = common global i32 0
@y.108 = common global i32 0
@x.109 = common global i32 0
@y.110 = common global i32 0
@x.111 = common global i32 0
@y.112 = common global i32 0
@x.113 = common global i32 0
@y.114 = common global i32 0
@x.115 = common global i32 0
@y.116 = common global i32 0
@x.117 = common global i32 0
@y.118 = common global i32 0
@x.119 = common global i32 0
@y.120 = common global i32 0
@x.121 = common global i32 0
@y.122 = common global i32 0
@x.123 = common global i32 0
@y.124 = common global i32 0
@x.125 = common global i32 0
@y.126 = common global i32 0
@x.127 = common global i32 0
@y.128 = common global i32 0
@x.129 = common global i32 0
@y.130 = common global i32 0
@x.131 = common global i32 0
@y.132 = common global i32 0

; Function Attrs: noinline uwtable
define internal void @__cxx_global_var_init() #0 section ".text.startup" {
  %1 = alloca i1
  %2 = alloca i1
  %3 = load i32, i32* @x
  %4 = load i32, i32* @y
  %5 = sub i32 0, 1
  %6 = add i32 %3, %5
  %7 = sub i32 %3, 1
  %8 = mul i32 %3, %6
  %9 = urem i32 %8, 2
  %10 = icmp eq i32 %9, 0
  store i1 %10, i1* %2
  %11 = icmp slt i32 %4, 10
  store i1 %11, i1* %1
  %12 = alloca i32
  store i32 1598421339, i32* %12
  br label %13

; <label>:13:                                     ; preds = %0, %67
  %14 = load i32, i32* %12
  switch i32 %14, label %15 [
    i32 1598421339, label %16
    i32 -234294603, label %36
    i32 334821514, label %64
    i32 70362810, label %65
  ]

; <label>:15:                                     ; preds = %13
  br label %67

; <label>:16:                                     ; preds = %13
  %17 = load volatile i1, i1* %2
  %18 = load volatile i1, i1* %1
  %19 = xor i1 %17, true
  %20 = xor i1 %18, true
  %21 = xor i1 true, true
  %22 = and i1 %19, true
  %23 = and i1 %17, %21
  %24 = and i1 %20, true
  %25 = and i1 %18, %21
  %26 = or i1 %22, %23
  %27 = or i1 %24, %25
  %28 = xor i1 %26, %27
  %29 = or i1 %19, %20
  %30 = xor i1 %29, true
  %31 = or i1 true, %21
  %32 = and i1 %30, %31
  %33 = or i1 %28, %32
  %34 = or i1 %17, %18
  %35 = select i1 %33, i32 -234294603, i32 70362810
  store i32 %35, i32* %12
  br label %67

; <label>:36:                                     ; preds = %13
  call void @_ZNSt8ios_base4InitC1Ev(%"class.std::ios_base::Init"* @_ZStL8__ioinit)
  %37 = call i32 @__cxa_atexit(void (i8*)* bitcast (void (%"class.std::ios_base::Init"*)* @_ZNSt8ios_base4InitD1Ev to void (i8*)*), i8* getelementptr inbounds (%"class.std::ios_base::Init", %"class.std::ios_base::Init"* @_ZStL8__ioinit, i32 0, i32 0), i8* @__dso_handle) #3
  %38 = load i32, i32* @x
  %39 = load i32, i32* @y
  %40 = sub i32 0, 1
  %41 = add i32 %38, %40
  %42 = sub i32 %38, 1
  %43 = mul i32 %38, %41
  %44 = urem i32 %43, 2
  %45 = icmp eq i32 %44, 0
  %46 = icmp slt i32 %39, 10
  %47 = xor i1 %45, true
  %48 = xor i1 %46, true
  %49 = xor i1 false, true
  %50 = and i1 %47, false
  %51 = and i1 %45, %49
  %52 = and i1 %48, false
  %53 = and i1 %46, %49
  %54 = or i1 %50, %51
  %55 = or i1 %52, %53
  %56 = xor i1 %54, %55
  %57 = or i1 %47, %48
  %58 = xor i1 %57, true
  %59 = or i1 false, %49
  %60 = and i1 %58, %59
  %61 = or i1 %56, %60
  %62 = or i1 %45, %46
  %63 = select i1 %61, i32 334821514, i32 70362810
  store i32 %63, i32* %12
  br label %67

; <label>:64:                                     ; preds = %13
  ret void

; <label>:65:                                     ; preds = %13
  call void @_ZNSt8ios_base4InitC1Ev(%"class.std::ios_base::Init"* @_ZStL8__ioinit)
  %66 = call i32 @__cxa_atexit(void (i8*)* bitcast (void (%"class.std::ios_base::Init"*)* @_ZNSt8ios_base4InitD1Ev to void (i8*)*), i8* getelementptr inbounds (%"class.std::ios_base::Init", %"class.std::ios_base::Init"* @_ZStL8__ioinit, i32 0, i32 0), i8* @__dso_handle) #3
  store i32 -234294603, i32* %12
  br label %67

; <label>:67:                                     ; preds = %65, %36, %16, %15
  br label %13
}

declare void @_ZNSt8ios_base4InitC1Ev(%"class.std::ios_base::Init"*) unnamed_addr #1

; Function Attrs: nounwind
declare void @_ZNSt8ios_base4InitD1Ev(%"class.std::ios_base::Init"*) unnamed_addr #2

; Function Attrs: nounwind
declare i32 @__cxa_atexit(void (i8*)*, i8*, i8*) #3

; Function Attrs: noinline uwtable
define internal void @__cxx_global_var_init.1() #0 section ".text.startup" {
  %1 = alloca %"class.std::vector"*
  %2 = alloca i1
  %3 = alloca %"class.std::vector"*
  %4 = alloca i32
  store i32 13403491, i32* %4
  %5 = alloca %"class.std::vector"*
  store %"class.std::vector"* getelementptr inbounds ([1000 x %"class.std::vector"], [1000 x %"class.std::vector"]* @v, i32 0, i32 0), %"class.std::vector"** %5
  br label %6

; <label>:6:                                      ; preds = %0, %125
  %7 = load i32, i32* %4
  switch i32 %7, label %8 [
    i32 13403491, label %9
    i32 379050067, label %37
    i32 247680177, label %69
    i32 2042043472, label %73
    i32 -695045809, label %101
    i32 954075801, label %117
    i32 -472412282, label %118
    i32 1381390575, label %123
  ]

; <label>:8:                                      ; preds = %6
  br label %125

; <label>:9:                                      ; preds = %6
  %10 = load %"class.std::vector"*, %"class.std::vector"** %5
  store %"class.std::vector"* %10, %"class.std::vector"** %1
  %11 = load i32, i32* @x.5
  %12 = load i32, i32* @y.6
  %13 = sub i32 0, 1
  %14 = add i32 %11, %13
  %15 = sub i32 %11, 1
  %16 = mul i32 %11, %14
  %17 = urem i32 %16, 2
  %18 = icmp eq i32 %17, 0
  %19 = icmp slt i32 %12, 10
  %20 = xor i1 %18, true
  %21 = xor i1 %19, true
  %22 = xor i1 true, true
  %23 = and i1 %20, true
  %24 = and i1 %18, %22
  %25 = and i1 %21, true
  %26 = and i1 %19, %22
  %27 = or i1 %23, %24
  %28 = or i1 %25, %26
  %29 = xor i1 %27, %28
  %30 = or i1 %20, %21
  %31 = xor i1 %30, true
  %32 = or i1 true, %22
  %33 = and i1 %31, %32
  %34 = or i1 %29, %33
  %35 = or i1 %18, %19
  %36 = select i1 %34, i32 379050067, i32 -472412282
  store i32 %36, i32* %4
  br label %125

; <label>:37:                                     ; preds = %6
  %38 = load volatile %"class.std::vector"*, %"class.std::vector"** %1
  call void @_ZNSt6vectorIiSaIiEEC2Ev(%"class.std::vector"* %38) #3
  %39 = load volatile %"class.std::vector"*, %"class.std::vector"** %1
  %40 = getelementptr inbounds %"class.std::vector", %"class.std::vector"* %39, i64 1
  store %"class.std::vector"* %40, %"class.std::vector"** %3
  %41 = load volatile %"class.std::vector"*, %"class.std::vector"** %3
  %42 = icmp eq %"class.std::vector"* %41, getelementptr inbounds (%"class.std::vector", %"class.std::vector"* getelementptr inbounds ([1000 x %"class.std::vector"], [1000 x %"class.std::vector"]* @v, i32 0, i32 0), i64 1000)
  store i1 %42, i1* %2
  %43 = load i32, i32* @x.5
  %44 = load i32, i32* @y.6
  %45 = sub i32 0, 1
  %46 = add i32 %43, %45
  %47 = sub i32 %43, 1
  %48 = mul i32 %43, %46
  %49 = urem i32 %48, 2
  %50 = icmp eq i32 %49, 0
  %51 = icmp slt i32 %44, 10
  %52 = xor i1 %50, true
  %53 = xor i1 %51, true
  %54 = xor i1 false, true
  %55 = and i1 %52, false
  %56 = and i1 %50, %54
  %57 = and i1 %53, false
  %58 = and i1 %51, %54
  %59 = or i1 %55, %56
  %60 = or i1 %57, %58
  %61 = xor i1 %59, %60
  %62 = or i1 %52, %53
  %63 = xor i1 %62, true
  %64 = or i1 false, %54
  %65 = and i1 %63, %64
  %66 = or i1 %61, %65
  %67 = or i1 %50, %51
  %68 = select i1 %66, i32 247680177, i32 -472412282
  store i32 %68, i32* %4
  br label %125

; <label>:69:                                     ; preds = %6
  %70 = load volatile i1, i1* %2
  %71 = select i1 %70, i32 2042043472, i32 13403491
  store i32 %71, i32* %4
  %72 = load volatile %"class.std::vector"*, %"class.std::vector"** %3
  store %"class.std::vector"* %72, %"class.std::vector"** %5
  br label %125

; <label>:73:                                     ; preds = %6
  %74 = load i32, i32* @x.5
  %75 = load i32, i32* @y.6
  %76 = sub i32 %74, 221188914
  %77 = sub i32 %76, 1
  %78 = add i32 %77, 221188914
  %79 = sub i32 %74, 1
  %80 = mul i32 %74, %78
  %81 = urem i32 %80, 2
  %82 = icmp eq i32 %81, 0
  %83 = icmp slt i32 %75, 10
  %84 = xor i1 %82, true
  %85 = xor i1 %83, true
  %86 = xor i1 true, true
  %87 = and i1 %84, true
  %88 = and i1 %82, %86
  %89 = and i1 %85, true
  %90 = and i1 %83, %86
  %91 = or i1 %87, %88
  %92 = or i1 %89, %90
  %93 = xor i1 %91, %92
  %94 = or i1 %84, %85
  %95 = xor i1 %94, true
  %96 = or i1 true, %86
  %97 = and i1 %95, %96
  %98 = or i1 %93, %97
  %99 = or i1 %82, %83
  %100 = select i1 %98, i32 -695045809, i32 1381390575
  store i32 %100, i32* %4
  br label %125

; <label>:101:                                    ; preds = %6
  %102 = call i32 @__cxa_atexit(void (i8*)* @__cxx_global_array_dtor, i8* null, i8* @__dso_handle) #3
  %103 = load i32, i32* @x.5
  %104 = load i32, i32* @y.6
  %105 = sub i32 0, 1
  %106 = add i32 %103, %105
  %107 = sub i32 %103, 1
  %108 = mul i32 %103, %106
  %109 = urem i32 %108, 2
  %110 = icmp eq i32 %109, 0
  %111 = icmp slt i32 %104, 10
  %112 = and i1 %110, %111
  %113 = xor i1 %110, %111
  %114 = or i1 %112, %113
  %115 = or i1 %110, %111
  %116 = select i1 %114, i32 954075801, i32 1381390575
  store i32 %116, i32* %4
  br label %125

; <label>:117:                                    ; preds = %6
  ret void

; <label>:118:                                    ; preds = %6
  %119 = load volatile %"class.std::vector"*, %"class.std::vector"** %1
  call void @_ZNSt6vectorIiSaIiEEC2Ev(%"class.std::vector"* %119) #3
  %120 = load volatile %"class.std::vector"*, %"class.std::vector"** %1
  %121 = getelementptr inbounds %"class.std::vector", %"class.std::vector"* %120, i64 1
  %122 = icmp eq %"class.std::vector"* %121, getelementptr inbounds (%"class.std::vector", %"class.std::vector"* getelementptr inbounds ([1000 x %"class.std::vector"], [1000 x %"class.std::vector"]* @v, i32 0, i32 0), i64 1000)
  store i32 379050067, i32* %4
  br label %125

; <label>:123:                                    ; preds = %6
  %124 = call i32 @__cxa_atexit(void (i8*)* @__cxx_global_array_dtor, i8* null, i8* @__dso_handle) #3
  store i32 -695045809, i32* %4
  br label %125

; <label>:125:                                    ; preds = %123, %118, %101, %73, %69, %37, %9, %8
  br label %6
}

; Function Attrs: noinline nounwind uwtable
define linkonce_odr void @_ZNSt6vectorIiSaIiEEC2Ev(%"class.std::vector"*) unnamed_addr #4 comdat align 2 personality i8* bitcast (i32 (...)* @__gxx_personality_v0 to i8*) {
  %2 = load i32, i32* @x.7
  %3 = load i32, i32* @y.8
  %4 = sub i32 %2, 865530620
  %5 = sub i32 %4, 1
  %6 = add i32 %5, 865530620
  %7 = sub i32 %2, 1
  %8 = mul i32 %2, %6
  %9 = urem i32 %8, 2
  %10 = icmp eq i32 %9, 0
  %11 = icmp slt i32 %3, 10
  %12 = xor i1 %10, true
  %13 = xor i1 %11, true
  %14 = xor i1 true, true
  %15 = and i1 %12, true
  %16 = and i1 %10, %14
  %17 = and i1 %13, true
  %18 = and i1 %11, %14
  %19 = or i1 %15, %16
  %20 = or i1 %17, %18
  %21 = xor i1 %19, %20
  %22 = or i1 %12, %13
  %23 = xor i1 %22, true
  %24 = or i1 true, %14
  %25 = and i1 %23, %24
  %26 = or i1 %21, %25
  %27 = or i1 %10, %11
  br i1 %26, label %28, label %62

; <label>:28:                                     ; preds = %1, %62
  %29 = alloca %"class.std::vector"*, align 8
  store %"class.std::vector"* %0, %"class.std::vector"** %29, align 8
  %30 = load %"class.std::vector"*, %"class.std::vector"** %29, align 8
  %31 = bitcast %"class.std::vector"* %30 to %"struct.std::_Vector_base"*
  %32 = load i32, i32* @x.7
  %33 = load i32, i32* @y.8
  %34 = sub i32 0, 1
  %35 = add i32 %32, %34
  %36 = sub i32 %32, 1
  %37 = mul i32 %32, %35
  %38 = urem i32 %37, 2
  %39 = icmp eq i32 %38, 0
  %40 = icmp slt i32 %33, 10
  %41 = xor i1 %39, true
  %42 = xor i1 %40, true
  %43 = xor i1 true, true
  %44 = and i1 %41, true
  %45 = and i1 %39, %43
  %46 = and i1 %42, true
  %47 = and i1 %40, %43
  %48 = or i1 %44, %45
  %49 = or i1 %46, %47
  %50 = xor i1 %48, %49
  %51 = or i1 %41, %42
  %52 = xor i1 %51, true
  %53 = or i1 true, %43
  %54 = and i1 %52, %53
  %55 = or i1 %50, %54
  %56 = or i1 %39, %40
  br i1 %55, label %57, label %62

; <label>:57:                                     ; preds = %28
  invoke void @_ZNSt12_Vector_baseIiSaIiEEC2Ev(%"struct.std::_Vector_base"* %31)
          to label %58 unwind label %59

; <label>:58:                                     ; preds = %57
  ret void

; <label>:59:                                     ; preds = %57
  %60 = landingpad { i8*, i32 }
          catch i8* null
  %61 = extractvalue { i8*, i32 } %60, 0
  call void @__clang_call_terminate(i8* %61) #12
  unreachable

; <label>:62:                                     ; preds = %28, %1
  %63 = alloca %"class.std::vector"*, align 8
  store %"class.std::vector"* %0, %"class.std::vector"** %63, align 8
  %64 = load %"class.std::vector"*, %"class.std::vector"** %63, align 8
  %65 = bitcast %"class.std::vector"* %64 to %"struct.std::_Vector_base"*
  br label %28
}

; Function Attrs: noinline uwtable
define internal void @__cxx_global_array_dtor(i8*) #0 section ".text.startup" {
  %2 = alloca %"class.std::vector"*
  %3 = alloca i1
  %4 = alloca %"class.std::vector"*
  %5 = alloca i1
  %6 = alloca i1
  %7 = load i32, i32* @x.9
  %8 = load i32, i32* @y.10
  %9 = sub i32 %7, 1421631862
  %10 = sub i32 %9, 1
  %11 = add i32 %10, 1421631862
  %12 = sub i32 %7, 1
  %13 = mul i32 %7, %11
  %14 = urem i32 %13, 2
  %15 = icmp eq i32 %14, 0
  store i1 %15, i1* %6
  %16 = icmp slt i32 %8, 10
  store i1 %16, i1* %5
  %17 = alloca i32
  store i32 237172035, i32* %17
  %18 = alloca %"class.std::vector"*
  br label %19

; <label>:19:                                     ; preds = %1, %130
  %20 = load i32, i32* %17
  switch i32 %20, label %21 [
    i32 237172035, label %22
    i32 -1287280951, label %30
    i32 1507515845, label %47
    i32 604036012, label %48
    i32 1626682658, label %65
    i32 961878223, label %86
    i32 581612279, label %90
    i32 367773029, label %106
    i32 -543944522, label %122
    i32 -1877805082, label %123
    i32 725288661, label %125
    i32 -1832817920, label %129
  ]

; <label>:21:                                     ; preds = %19
  br label %130

; <label>:22:                                     ; preds = %19
  %23 = load volatile i1, i1* %6
  %24 = load volatile i1, i1* %5
  %25 = and i1 %23, %24
  %26 = xor i1 %23, %24
  %27 = or i1 %25, %26
  %28 = or i1 %23, %24
  %29 = select i1 %27, i32 -1287280951, i32 -1877805082
  store i32 %29, i32* %17
  br label %130

; <label>:30:                                     ; preds = %19
  %31 = alloca i8*, align 8
  store i8* %0, i8** %31, align 8
  %32 = load i32, i32* @x.9
  %33 = load i32, i32* @y.10
  %34 = add i32 %32, -1918964267
  %35 = sub i32 %34, 1
  %36 = sub i32 %35, -1918964267
  %37 = sub i32 %32, 1
  %38 = mul i32 %32, %36
  %39 = urem i32 %38, 2
  %40 = icmp eq i32 %39, 0
  %41 = icmp slt i32 %33, 10
  %42 = and i1 %40, %41
  %43 = xor i1 %40, %41
  %44 = or i1 %42, %43
  %45 = or i1 %40, %41
  %46 = select i1 %44, i32 1507515845, i32 -1877805082
  store i32 %46, i32* %17
  br label %130

; <label>:47:                                     ; preds = %19
  store i32 604036012, i32* %17
  store %"class.std::vector"* getelementptr inbounds (%"class.std::vector", %"class.std::vector"* getelementptr inbounds ([1000 x %"class.std::vector"], [1000 x %"class.std::vector"]* @v, i32 0, i32 0), i64 1000), %"class.std::vector"** %18
  br label %130

; <label>:48:                                     ; preds = %19
  %49 = load %"class.std::vector"*, %"class.std::vector"** %18
  store %"class.std::vector"* %49, %"class.std::vector"** %2
  %50 = load i32, i32* @x.9
  %51 = load i32, i32* @y.10
  %52 = sub i32 %50, -1662109341
  %53 = sub i32 %52, 1
  %54 = add i32 %53, -1662109341
  %55 = sub i32 %50, 1
  %56 = mul i32 %50, %54
  %57 = urem i32 %56, 2
  %58 = icmp eq i32 %57, 0
  %59 = icmp slt i32 %51, 10
  %60 = and i1 %58, %59
  %61 = xor i1 %58, %59
  %62 = or i1 %60, %61
  %63 = or i1 %58, %59
  %64 = select i1 %62, i32 1626682658, i32 725288661
  store i32 %64, i32* %17
  br label %130

; <label>:65:                                     ; preds = %19
  %66 = load volatile %"class.std::vector"*, %"class.std::vector"** %2
  %67 = getelementptr inbounds %"class.std::vector", %"class.std::vector"* %66, i64 -1
  store %"class.std::vector"* %67, %"class.std::vector"** %4
  %68 = load volatile %"class.std::vector"*, %"class.std::vector"** %4
  call void @_ZNSt6vectorIiSaIiEED2Ev(%"class.std::vector"* %68) #3
  %69 = load volatile %"class.std::vector"*, %"class.std::vector"** %4
  %70 = icmp eq %"class.std::vector"* %69, getelementptr inbounds ([1000 x %"class.std::vector"], [1000 x %"class.std::vector"]* @v, i32 0, i32 0)
  store i1 %70, i1* %3
  %71 = load i32, i32* @x.9
  %72 = load i32, i32* @y.10
  %73 = add i32 %71, 1340921889
  %74 = sub i32 %73, 1
  %75 = sub i32 %74, 1340921889
  %76 = sub i32 %71, 1
  %77 = mul i32 %71, %75
  %78 = urem i32 %77, 2
  %79 = icmp eq i32 %78, 0
  %80 = icmp slt i32 %72, 10
  %81 = and i1 %79, %80
  %82 = xor i1 %79, %80
  %83 = or i1 %81, %82
  %84 = or i1 %79, %80
  %85 = select i1 %83, i32 961878223, i32 725288661
  store i32 %85, i32* %17
  br label %130

; <label>:86:                                     ; preds = %19
  %87 = load volatile i1, i1* %3
  %88 = select i1 %87, i32 581612279, i32 604036012
  store i32 %88, i32* %17
  %89 = load volatile %"class.std::vector"*, %"class.std::vector"** %4
  store %"class.std::vector"* %89, %"class.std::vector"** %18
  br label %130

; <label>:90:                                     ; preds = %19
  %91 = load i32, i32* @x.9
  %92 = load i32, i32* @y.10
  %93 = sub i32 %91, 2003752392
  %94 = sub i32 %93, 1
  %95 = add i32 %94, 2003752392
  %96 = sub i32 %91, 1
  %97 = mul i32 %91, %95
  %98 = urem i32 %97, 2
  %99 = icmp eq i32 %98, 0
  %100 = icmp slt i32 %92, 10
  %101 = and i1 %99, %100
  %102 = xor i1 %99, %100
  %103 = or i1 %101, %102
  %104 = or i1 %99, %100
  %105 = select i1 %103, i32 367773029, i32 -1832817920
  store i32 %105, i32* %17
  br label %130

; <label>:106:                                    ; preds = %19
  %107 = load i32, i32* @x.9
  %108 = load i32, i32* @y.10
  %109 = add i32 %107, -1658087971
  %110 = sub i32 %109, 1
  %111 = sub i32 %110, -1658087971
  %112 = sub i32 %107, 1
  %113 = mul i32 %107, %111
  %114 = urem i32 %113, 2
  %115 = icmp eq i32 %114, 0
  %116 = icmp slt i32 %108, 10
  %117 = and i1 %115, %116
  %118 = xor i1 %115, %116
  %119 = or i1 %117, %118
  %120 = or i1 %115, %116
  %121 = select i1 %119, i32 -543944522, i32 -1832817920
  store i32 %121, i32* %17
  br label %130

; <label>:122:                                    ; preds = %19
  ret void

; <label>:123:                                    ; preds = %19
  %124 = alloca i8*, align 8
  store i8* %0, i8** %124, align 8
  store i32 -1287280951, i32* %17
  br label %130

; <label>:125:                                    ; preds = %19
  %126 = load volatile %"class.std::vector"*, %"class.std::vector"** %2
  %127 = getelementptr inbounds %"class.std::vector", %"class.std::vector"* %126, i64 -1
  call void @_ZNSt6vectorIiSaIiEED2Ev(%"class.std::vector"* %127) #3
  %128 = icmp eq %"class.std::vector"* %127, getelementptr inbounds ([1000 x %"class.std::vector"], [1000 x %"class.std::vector"]* @v, i32 0, i32 0)
  store i32 1626682658, i32* %17
  br label %130

; <label>:129:                                    ; preds = %19
  store i32 367773029, i32* %17
  br label %130

; <label>:130:                                    ; preds = %129, %125, %123, %106, %90, %86, %65, %48, %47, %30, %22, %21
  br label %19
}

; Function Attrs: noinline nounwind uwtable
define linkonce_odr void @_ZNSt6vectorIiSaIiEED2Ev(%"class.std::vector"*) unnamed_addr #4 comdat align 2 personality i8* bitcast (i32 (...)* @__gxx_personality_v0 to i8*) {
  %2 = alloca %"class.std::vector"*, align 8
  %3 = alloca i8*
  %4 = alloca i32
  store %"class.std::vector"* %0, %"class.std::vector"** %2, align 8
  %5 = load %"class.std::vector"*, %"class.std::vector"** %2, align 8
  %6 = bitcast %"class.std::vector"* %5 to %"struct.std::_Vector_base"*
  %7 = getelementptr inbounds %"struct.std::_Vector_base", %"struct.std::_Vector_base"* %6, i32 0, i32 0
  %8 = getelementptr inbounds %"struct.std::_Vector_base<int, std::allocator<int> >::_Vector_impl", %"struct.std::_Vector_base<int, std::allocator<int> >::_Vector_impl"* %7, i32 0, i32 0
  %9 = load i32*, i32** %8, align 8
  %10 = bitcast %"class.std::vector"* %5 to %"struct.std::_Vector_base"*
  %11 = getelementptr inbounds %"struct.std::_Vector_base", %"struct.std::_Vector_base"* %10, i32 0, i32 0
  %12 = getelementptr inbounds %"struct.std::_Vector_base<int, std::allocator<int> >::_Vector_impl", %"struct.std::_Vector_base<int, std::allocator<int> >::_Vector_impl"* %11, i32 0, i32 1
  %13 = load i32*, i32** %12, align 8
  %14 = bitcast %"class.std::vector"* %5 to %"struct.std::_Vector_base"*
  %15 = call dereferenceable(1) %"class.std::allocator"* @_ZNSt12_Vector_baseIiSaIiEE19_M_get_Tp_allocatorEv(%"struct.std::_Vector_base"* %14) #3
  invoke void @_ZSt8_DestroyIPiiEvT_S1_RSaIT0_E(i32* %9, i32* %13, %"class.std::allocator"* dereferenceable(1) %15)
          to label %16 unwind label %18

; <label>:16:                                     ; preds = %1
  %17 = bitcast %"class.std::vector"* %5 to %"struct.std::_Vector_base"*
  call void @_ZNSt12_Vector_baseIiSaIiEED2Ev(%"struct.std::_Vector_base"* %17) #3
  ret void

; <label>:18:                                     ; preds = %1
  %19 = load i32, i32* @x.11
  %20 = load i32, i32* @y.12
  %21 = add i32 %19, -1000438762
  %22 = sub i32 %21, 1
  %23 = sub i32 %22, -1000438762
  %24 = sub i32 %19, 1
  %25 = mul i32 %19, %23
  %26 = urem i32 %25, 2
  %27 = icmp eq i32 %26, 0
  %28 = icmp slt i32 %20, 10
  %29 = xor i1 %27, true
  %30 = xor i1 %28, true
  %31 = xor i1 false, true
  %32 = and i1 %29, false
  %33 = and i1 %27, %31
  %34 = and i1 %30, false
  %35 = and i1 %28, %31
  %36 = or i1 %32, %33
  %37 = or i1 %34, %35
  %38 = xor i1 %36, %37
  %39 = or i1 %29, %30
  %40 = xor i1 %39, true
  %41 = or i1 false, %31
  %42 = and i1 %40, %41
  %43 = or i1 %38, %42
  %44 = or i1 %27, %28
  br i1 %43, label %45, label %79

; <label>:45:                                     ; preds = %18, %79
  %46 = landingpad { i8*, i32 }
          catch i8* null
  %47 = extractvalue { i8*, i32 } %46, 0
  store i8* %47, i8** %3, align 8
  %48 = extractvalue { i8*, i32 } %46, 1
  store i32 %48, i32* %4, align 4
  %49 = bitcast %"class.std::vector"* %5 to %"struct.std::_Vector_base"*
  call void @_ZNSt12_Vector_baseIiSaIiEED2Ev(%"struct.std::_Vector_base"* %49) #3
  %50 = load i32, i32* @x.11
  %51 = load i32, i32* @y.12
  %52 = add i32 %50, -5799541
  %53 = sub i32 %52, 1
  %54 = sub i32 %53, -5799541
  %55 = sub i32 %50, 1
  %56 = mul i32 %50, %54
  %57 = urem i32 %56, 2
  %58 = icmp eq i32 %57, 0
  %59 = icmp slt i32 %51, 10
  %60 = xor i1 %58, true
  %61 = xor i1 %59, true
  %62 = xor i1 true, true
  %63 = and i1 %60, true
  %64 = and i1 %58, %62
  %65 = and i1 %61, true
  %66 = and i1 %59, %62
  %67 = or i1 %63, %64
  %68 = or i1 %65, %66
  %69 = xor i1 %67, %68
  %70 = or i1 %60, %61
  %71 = xor i1 %70, true
  %72 = or i1 true, %62
  %73 = and i1 %71, %72
  %74 = or i1 %69, %73
  %75 = or i1 %58, %59
  br i1 %74, label %76, label %79

; <label>:76:                                     ; preds = %45
  br label %77

; <label>:77:                                     ; preds = %76
  %78 = load i8*, i8** %3, align 8
  call void @__clang_call_terminate(i8* %78) #12
  unreachable

; <label>:79:                                     ; preds = %45, %18
  %80 = landingpad { i8*, i32 }
          catch i8* null
  %81 = extractvalue { i8*, i32 } %80, 0
  store i8* %81, i8** %3, align 8
  %82 = extractvalue { i8*, i32 } %80, 1
  store i32 %82, i32* %4, align 4
  %83 = bitcast %"class.std::vector"* %5 to %"struct.std::_Vector_base"*
  call void @_ZNSt12_Vector_baseIiSaIiEED2Ev(%"struct.std::_Vector_base"* %83) #3
  br label %45
}

; Function Attrs: noinline norecurse uwtable
define i32 @main() #5 {
  %1 = alloca i1
  %2 = alloca i32, align 4
  %3 = alloca i32, align 4
  %4 = alloca i32, align 4
  %5 = alloca i32, align 4
  %6 = alloca i32, align 4
  %7 = alloca i32, align 4
  %8 = alloca %"class.std::vector"*, align 8
  %9 = alloca %"class.__gnu_cxx::__normal_iterator", align 8
  %10 = alloca %"class.__gnu_cxx::__normal_iterator", align 8
  %11 = alloca i32, align 4
  store i32 0, i32* %2, align 4
  %12 = call i64 @_Z4readv()
  %13 = trunc i64 %12 to i32
  store i32 %13, i32* %3, align 4
  store i32 1, i32* %4, align 4
  %14 = alloca i32
  store i32 1797809158, i32* %14
  br label %15

; <label>:15:                                     ; preds = %0, %250
  %16 = load i32, i32* %14
  switch i32 %16, label %17 [
    i32 1797809158, label %18
    i32 -1794755377, label %30
    i32 1680405045, label %41
    i32 -640547944, label %42
    i32 1346458508, label %47
    i32 -1638356120, label %53
    i32 -862522892, label %58
    i32 969959783, label %70
    i32 -240491818, label %75
    i32 1098821620, label %76
    i32 736554586, label %83
    i32 715704908, label %88
    i32 -343582300, label %93
    i32 47847447, label %107
    i32 687973084, label %123
    i32 712806671, label %151
    i32 1148665710, label %154
    i32 -436666667, label %159
    i32 466058775, label %175
    i32 1316898802, label %192
    i32 -777233044, label %193
    i32 -1593918675, label %195
    i32 -718560887, label %202
    i32 361649581, label %217
    i32 2009364201, label %233
    i32 909864917, label %234
    i32 -1672824972, label %235
    i32 899183188, label %241
    i32 357561275, label %243
    i32 2108465085, label %245
    i32 -437075963, label %247
    i32 -744260448, label %249
  ]

; <label>:17:                                     ; preds = %15
  br label %250

; <label>:18:                                     ; preds = %15
  %19 = load i32, i32* %4, align 4
  %20 = load i32, i32* %4, align 4
  %21 = sub i32 %20, -2090126588
  %22 = sub i32 %21, 1
  %23 = add i32 %22, -2090126588
  %24 = sub nsw i32 %20, 1
  %25 = mul nsw i32 %19, %23
  %26 = sdiv i32 %25, 2
  %27 = load i32, i32* %3, align 4
  %28 = icmp sle i32 %26, %27
  %29 = select i1 %28, i32 -1794755377, i32 899183188
  store i32 %29, i32* %14
  br label %250

; <label>:30:                                     ; preds = %15
  %31 = load i32, i32* %4, align 4
  %32 = load i32, i32* %4, align 4
  %33 = sub i32 0, 1
  %34 = add i32 %32, %33
  %35 = sub nsw i32 %32, 1
  %36 = mul nsw i32 %31, %34
  %37 = sdiv i32 %36, 2
  %38 = load i32, i32* %3, align 4
  %39 = icmp eq i32 %37, %38
  %40 = select i1 %39, i32 1680405045, i32 909864917
  store i32 %40, i32* %14
  br label %250

; <label>:41:                                     ; preds = %15
  store i32 1, i32* %5, align 4
  store i32 -640547944, i32* %14
  br label %250

; <label>:42:                                     ; preds = %15
  %43 = load i32, i32* %5, align 4
  %44 = load i32, i32* %4, align 4
  %45 = icmp sle i32 %43, %44
  %46 = select i1 %45, i32 1346458508, i32 736554586
  store i32 %46, i32* %14
  br label %250

; <label>:47:                                     ; preds = %15
  %48 = load i32, i32* %5, align 4
  %49 = sub i32 %48, 2116442170
  %50 = add i32 %49, 1
  %51 = add i32 %50, 2116442170
  %52 = add nsw i32 %48, 1
  store i32 %51, i32* %6, align 4
  store i32 -1638356120, i32* %14
  br label %250

; <label>:53:                                     ; preds = %15
  %54 = load i32, i32* %6, align 4
  %55 = load i32, i32* %4, align 4
  %56 = icmp sle i32 %54, %55
  %57 = select i1 %56, i32 -862522892, i32 -240491818
  store i32 %57, i32* %14
  br label %250

; <label>:58:                                     ; preds = %15
  %59 = load i32, i32* %5, align 4
  %60 = sext i32 %59 to i64
  %61 = getelementptr inbounds [1000 x %"class.std::vector"], [1000 x %"class.std::vector"]* @v, i64 0, i64 %60
  %62 = load i32, i32* @dq, align 4
  %63 = sub i32 %62, -1709900305
  %64 = add i32 %63, 1
  %65 = add i32 %64, -1709900305
  %66 = add nsw i32 %62, 1
  store i32 %65, i32* @dq, align 4
  call void @_ZNSt6vectorIiSaIiEE9push_backERKi(%"class.std::vector"* %61, i32* dereferenceable(4) @dq)
  %67 = load i32, i32* %6, align 4
  %68 = sext i32 %67 to i64
  %69 = getelementptr inbounds [1000 x %"class.std::vector"], [1000 x %"class.std::vector"]* @v, i64 0, i64 %68
  call void @_ZNSt6vectorIiSaIiEE9push_backERKi(%"class.std::vector"* %69, i32* dereferenceable(4) @dq)
  store i32 969959783, i32* %14
  br label %250

; <label>:70:                                     ; preds = %15
  %71 = load i32, i32* %6, align 4
  %72 = sub i32 0, 1
  %73 = sub i32 %71, %72
  %74 = add nsw i32 %71, 1
  store i32 %73, i32* %6, align 4
  store i32 -1638356120, i32* %14
  br label %250

; <label>:75:                                     ; preds = %15
  store i32 1098821620, i32* %14
  br label %250

; <label>:76:                                     ; preds = %15
  %77 = load i32, i32* %5, align 4
  %78 = sub i32 0, %77
  %79 = sub i32 0, 1
  %80 = add i32 %78, %79
  %81 = sub i32 0, %80
  %82 = add nsw i32 %77, 1
  store i32 %81, i32* %5, align 4
  store i32 -640547944, i32* %14
  br label %250

; <label>:83:                                     ; preds = %15
  %84 = call i32 @puts(i8* getelementptr inbounds ([4 x i8], [4 x i8]* @.str, i32 0, i32 0))
  %85 = load i32, i32* %4, align 4
  %86 = call dereferenceable(272) %"class.std::basic_ostream"* @_ZNSolsEi(%"class.std::basic_ostream"* @_ZSt4cout, i32 %85)
  %87 = call dereferenceable(272) %"class.std::basic_ostream"* @_ZNSolsEPFRSoS_E(%"class.std::basic_ostream"* %86, %"class.std::basic_ostream"* (%"class.std::basic_ostream"*)* @_ZSt4endlIcSt11char_traitsIcEERSt13basic_ostreamIT_T0_ES6_)
  store i32 1, i32* %7, align 4
  store i32 715704908, i32* %14
  br label %250

; <label>:88:                                     ; preds = %15
  %89 = load i32, i32* %7, align 4
  %90 = load i32, i32* %4, align 4
  %91 = icmp sle i32 %89, %90
  %92 = select i1 %91, i32 -343582300, i32 -718560887
  store i32 %92, i32* %14
  br label %250

; <label>:93:                                     ; preds = %15
  %94 = load i32, i32* %7, align 4
  %95 = sext i32 %94 to i64
  %96 = getelementptr inbounds [1000 x %"class.std::vector"], [1000 x %"class.std::vector"]* @v, i64 0, i64 %95
  %97 = call i64 @_ZNKSt6vectorIiSaIiEE4sizeEv(%"class.std::vector"* %96) #3
  call void @_Z3wrix(i64 %97)
  %98 = load i32, i32* %7, align 4
  %99 = sext i32 %98 to i64
  %100 = getelementptr inbounds [1000 x %"class.std::vector"], [1000 x %"class.std::vector"]* @v, i64 0, i64 %99
  store %"class.std::vector"* %100, %"class.std::vector"** %8, align 8
  %101 = load %"class.std::vector"*, %"class.std::vector"** %8, align 8
  %102 = call i32* @_ZNSt6vectorIiSaIiEE5beginEv(%"class.std::vector"* %101) #3
  %103 = getelementptr inbounds %"class.__gnu_cxx::__normal_iterator", %"class.__gnu_cxx::__normal_iterator"* %9, i32 0, i32 0
  store i32* %102, i32** %103, align 8
  %104 = load %"class.std::vector"*, %"class.std::vector"** %8, align 8
  %105 = call i32* @_ZNSt6vectorIiSaIiEE3endEv(%"class.std::vector"* %104) #3
  %106 = getelementptr inbounds %"class.__gnu_cxx::__normal_iterator", %"class.__gnu_cxx::__normal_iterator"* %10, i32 0, i32 0
  store i32* %105, i32** %106, align 8
  store i32 47847447, i32* %14
  br label %250

; <label>:107:                                    ; preds = %15
  %108 = load i32, i32* @x.13
  %109 = load i32, i32* @y.14
  %110 = add i32 %108, -769894455
  %111 = sub i32 %110, 1
  %112 = sub i32 %111, -769894455
  %113 = sub i32 %108, 1
  %114 = mul i32 %108, %112
  %115 = urem i32 %114, 2
  %116 = icmp eq i32 %115, 0
  %117 = icmp slt i32 %109, 10
  %118 = and i1 %116, %117
  %119 = xor i1 %116, %117
  %120 = or i1 %118, %119
  %121 = or i1 %116, %117
  %122 = select i1 %120, i32 687973084, i32 2108465085
  store i32 %122, i32* %14
  br label %250

; <label>:123:                                    ; preds = %15
  %124 = call zeroext i1 @_ZN9__gnu_cxxneIPiSt6vectorIiSaIiEEEEbRKNS_17__normal_iteratorIT_T0_EESA_(%"class.__gnu_cxx::__normal_iterator"* dereferenceable(8) %9, %"class.__gnu_cxx::__normal_iterator"* dereferenceable(8) %10) #3
  store i1 %124, i1* %1
  %125 = load i32, i32* @x.13
  %126 = load i32, i32* @y.14
  %127 = sub i32 0, 1
  %128 = add i32 %125, %127
  %129 = sub i32 %125, 1
  %130 = mul i32 %125, %128
  %131 = urem i32 %130, 2
  %132 = icmp eq i32 %131, 0
  %133 = icmp slt i32 %126, 10
  %134 = xor i1 %132, true
  %135 = xor i1 %133, true
  %136 = xor i1 true, true
  %137 = and i1 %134, true
  %138 = and i1 %132, %136
  %139 = and i1 %135, true
  %140 = and i1 %133, %136
  %141 = or i1 %137, %138
  %142 = or i1 %139, %140
  %143 = xor i1 %141, %142
  %144 = or i1 %134, %135
  %145 = xor i1 %144, true
  %146 = or i1 true, %136
  %147 = and i1 %145, %146
  %148 = or i1 %143, %147
  %149 = or i1 %132, %133
  %150 = select i1 %148, i32 712806671, i32 2108465085
  store i32 %150, i32* %14
  br label %250

; <label>:151:                                    ; preds = %15
  %152 = load volatile i1, i1* %1
  %153 = select i1 %152, i32 1148665710, i32 -777233044
  store i32 %153, i32* %14
  br label %250

; <label>:154:                                    ; preds = %15
  %155 = call dereferenceable(4) i32* @_ZNK9__gnu_cxx17__normal_iteratorIPiSt6vectorIiSaIiEEEdeEv(%"class.__gnu_cxx::__normal_iterator"* %9) #3
  %156 = load i32, i32* %155, align 4
  store i32 %156, i32* %11, align 4
  %157 = load i32, i32* %11, align 4
  %158 = sext i32 %157 to i64
  call void @_Z3wrix(i64 %158)
  store i32 -436666667, i32* %14
  br label %250

; <label>:159:                                    ; preds = %15
  %160 = load i32, i32* @x.13
  %161 = load i32, i32* @y.14
  %162 = add i32 %160, -442578149
  %163 = sub i32 %162, 1
  %164 = sub i32 %163, -442578149
  %165 = sub i32 %160, 1
  %166 = mul i32 %160, %164
  %167 = urem i32 %166, 2
  %168 = icmp eq i32 %167, 0
  %169 = icmp slt i32 %161, 10
  %170 = and i1 %168, %169
  %171 = xor i1 %168, %169
  %172 = or i1 %170, %171
  %173 = or i1 %168, %169
  %174 = select i1 %172, i32 466058775, i32 -437075963
  store i32 %174, i32* %14
  br label %250

; <label>:175:                                    ; preds = %15
  %176 = call dereferenceable(8) %"class.__gnu_cxx::__normal_iterator"* @_ZN9__gnu_cxx17__normal_iteratorIPiSt6vectorIiSaIiEEEppEv(%"class.__gnu_cxx::__normal_iterator"* %9) #3
  %177 = load i32, i32* @x.13
  %178 = load i32, i32* @y.14
  %179 = add i32 %177, -1413747485
  %180 = sub i32 %179, 1
  %181 = sub i32 %180, -1413747485
  %182 = sub i32 %177, 1
  %183 = mul i32 %177, %181
  %184 = urem i32 %183, 2
  %185 = icmp eq i32 %184, 0
  %186 = icmp slt i32 %178, 10
  %187 = and i1 %185, %186
  %188 = xor i1 %185, %186
  %189 = or i1 %187, %188
  %190 = or i1 %185, %186
  %191 = select i1 %189, i32 1316898802, i32 -437075963
  store i32 %191, i32* %14
  br label %250

; <label>:192:                                    ; preds = %15
  store i32 47847447, i32* %14
  br label %250

; <label>:193:                                    ; preds = %15
  %194 = call i32 @puts(i8* getelementptr inbounds ([1 x i8], [1 x i8]* @.str.2, i32 0, i32 0))
  store i32 -1593918675, i32* %14
  br label %250

; <label>:195:                                    ; preds = %15
  %196 = load i32, i32* %7, align 4
  %197 = sub i32 0, %196
  %198 = sub i32 0, 1
  %199 = add i32 %197, %198
  %200 = sub i32 0, %199
  %201 = add nsw i32 %196, 1
  store i32 %200, i32* %7, align 4
  store i32 715704908, i32* %14
  br label %250

; <label>:202:                                    ; preds = %15
  %203 = load i32, i32* @x.13
  %204 = load i32, i32* @y.14
  %205 = sub i32 0, 1
  %206 = add i32 %203, %205
  %207 = sub i32 %203, 1
  %208 = mul i32 %203, %206
  %209 = urem i32 %208, 2
  %210 = icmp eq i32 %209, 0
  %211 = icmp slt i32 %204, 10
  %212 = and i1 %210, %211
  %213 = xor i1 %210, %211
  %214 = or i1 %212, %213
  %215 = or i1 %210, %211
  %216 = select i1 %214, i32 361649581, i32 -744260448
  store i32 %216, i32* %14
  br label %250

; <label>:217:                                    ; preds = %15
  store i32 0, i32* %2, align 4
  %218 = load i32, i32* @x.13
  %219 = load i32, i32* @y.14
  %220 = sub i32 %218, 2130118569
  %221 = sub i32 %220, 1
  %222 = add i32 %221, 2130118569
  %223 = sub i32 %218, 1
  %224 = mul i32 %218, %222
  %225 = urem i32 %224, 2
  %226 = icmp eq i32 %225, 0
  %227 = icmp slt i32 %219, 10
  %228 = and i1 %226, %227
  %229 = xor i1 %226, %227
  %230 = or i1 %228, %229
  %231 = or i1 %226, %227
  %232 = select i1 %230, i32 2009364201, i32 -744260448
  store i32 %232, i32* %14
  br label %250

; <label>:233:                                    ; preds = %15
  store i32 357561275, i32* %14
  br label %250

; <label>:234:                                    ; preds = %15
  store i32 -1672824972, i32* %14
  br label %250

; <label>:235:                                    ; preds = %15
  %236 = load i32, i32* %4, align 4
  %237 = add i32 %236, -908903525
  %238 = add i32 %237, 1
  %239 = sub i32 %238, -908903525
  %240 = add nsw i32 %236, 1
  store i32 %239, i32* %4, align 4
  store i32 1797809158, i32* %14
  br label %250

; <label>:241:                                    ; preds = %15
  %242 = call i32 @puts(i8* getelementptr inbounds ([3 x i8], [3 x i8]* @.str.3, i32 0, i32 0))
  store i32 357561275, i32* %14
  br label %250

; <label>:243:                                    ; preds = %15
  %244 = load i32, i32* %2, align 4
  ret i32 %244

; <label>:245:                                    ; preds = %15
  %246 = call zeroext i1 @_ZN9__gnu_cxxneIPiSt6vectorIiSaIiEEEEbRKNS_17__normal_iteratorIT_T0_EESA_(%"class.__gnu_cxx::__normal_iterator"* dereferenceable(8) %9, %"class.__gnu_cxx::__normal_iterator"* dereferenceable(8) %10) #3
  store i32 687973084, i32* %14
  br label %250

; <label>:247:                                    ; preds = %15
  %248 = call dereferenceable(8) %"class.__gnu_cxx::__normal_iterator"* @_ZN9__gnu_cxx17__normal_iteratorIPiSt6vectorIiSaIiEEEppEv(%"class.__gnu_cxx::__normal_iterator"* %9) #3
  store i32 466058775, i32* %14
  br label %250

; <label>:249:                                    ; preds = %15
  store i32 0, i32* %2, align 4
  store i32 361649581, i32* %14
  br label %250

; <label>:250:                                    ; preds = %249, %247, %245, %241, %235, %234, %233, %217, %202, %195, %193, %192, %175, %159, %154, %151, %123, %107, %93, %88, %83, %76, %75, %70, %58, %53, %47, %42, %41, %30, %18, %17
  br label %15
}

; Function Attrs: noinline uwtable
define linkonce_odr i64 @_Z4readv() #0 comdat {
  %1 = alloca i64
  %2 = alloca i64
  %3 = alloca i1
  %4 = alloca i64, align 8
  %5 = alloca i8, align 1
  %6 = alloca i8, align 1
  store i64 0, i64* %4, align 8
  %7 = call i32 @getchar()
  %8 = trunc i32 %7 to i8
  store i8 %8, i8* %5, align 1
  store i8 1, i8* %6, align 1
  %9 = alloca i32
  store i32 1896103816, i32* %9
  %10 = alloca i64
  br label %11

; <label>:11:                                     ; preds = %0, %404
  %12 = load i32, i32* %9
  switch i32 %12, label %13 [
    i32 1896103816, label %14
    i32 1863883136, label %31
    i32 182136053, label %36
    i32 421531614, label %37
    i32 1168881568, label %38
    i32 -6951816, label %53
    i32 -778406568, label %83
    i32 -1314940234, label %84
    i32 -1658233562, label %85
    i32 2009612743, label %91
    i32 -120393379, label %106
    i32 -926584343, label %134
    i32 1823796526, label %135
    i32 -286718758, label %150
    i32 1602225338, label %180
    i32 160859549, label %181
    i32 69273386, label %209
    i32 1075802677, label %239
    i32 -1575137365, label %242
    i32 -1951264058, label %269
    i32 599787491, label %298
    i32 -1104865711, label %300
    i32 1535415776, label %305
    i32 2060290103, label %321
    i32 1232132587, label %349
    i32 20657984, label %351
    i32 618892989, label %354
    i32 -425968289, label %395
    i32 1381054580, label %398
    i32 -1234139309, label %401
    i32 -1241273422, label %403
  ]

; <label>:13:                                     ; preds = %11
  br label %404

; <label>:14:                                     ; preds = %11
  %15 = load i8, i8* %5, align 1
  %16 = sext i8 %15 to i32
  %17 = call i32 @isdigit(i32 %16) #13
  %18 = icmp ne i32 %17, 0
  %19 = xor i1 %18, true
  %20 = and i1 false, %19
  %21 = xor i1 false, true
  %22 = and i1 %18, %21
  %23 = xor i1 true, true
  %24 = and i1 %23, false
  %25 = and i1 true, %21
  %26 = or i1 %20, %22
  %27 = or i1 %24, %25
  %28 = xor i1 %26, %27
  %29 = xor i1 %18, true
  %30 = select i1 %28, i32 1863883136, i32 -1314940234
  store i32 %30, i32* %9
  br label %404

; <label>:31:                                     ; preds = %11
  %32 = load i8, i8* %5, align 1
  %33 = sext i8 %32 to i32
  %34 = icmp eq i32 %33, 45
  %35 = select i1 %34, i32 182136053, i32 421531614
  store i32 %35, i32* %9
  br label %404

; <label>:36:                                     ; preds = %11
  store i8 0, i8* %6, align 1
  store i32 421531614, i32* %9
  br label %404

; <label>:37:                                     ; preds = %11
  store i32 1168881568, i32* %9
  br label %404

; <label>:38:                                     ; preds = %11
  %39 = load i32, i32* @x.15
  %40 = load i32, i32* @y.16
  %41 = sub i32 0, 1
  %42 = add i32 %39, %41
  %43 = sub i32 %39, 1
  %44 = mul i32 %39, %42
  %45 = urem i32 %44, 2
  %46 = icmp eq i32 %45, 0
  %47 = icmp slt i32 %40, 10
  %48 = and i1 %46, %47
  %49 = xor i1 %46, %47
  %50 = or i1 %48, %49
  %51 = or i1 %46, %47
  %52 = select i1 %50, i32 -6951816, i32 20657984
  store i32 %52, i32* %9
  br label %404

; <label>:53:                                     ; preds = %11
  %54 = call i32 @getchar()
  %55 = trunc i32 %54 to i8
  store i8 %55, i8* %5, align 1
  %56 = load i32, i32* @x.15
  %57 = load i32, i32* @y.16
  %58 = add i32 %56, 1297021507
  %59 = sub i32 %58, 1
  %60 = sub i32 %59, 1297021507
  %61 = sub i32 %56, 1
  %62 = mul i32 %56, %60
  %63 = urem i32 %62, 2
  %64 = icmp eq i32 %63, 0
  %65 = icmp slt i32 %57, 10
  %66 = xor i1 %64, true
  %67 = xor i1 %65, true
  %68 = xor i1 true, true
  %69 = and i1 %66, true
  %70 = and i1 %64, %68
  %71 = and i1 %67, true
  %72 = and i1 %65, %68
  %73 = or i1 %69, %70
  %74 = or i1 %71, %72
  %75 = xor i1 %73, %74
  %76 = or i1 %66, %67
  %77 = xor i1 %76, true
  %78 = or i1 true, %68
  %79 = and i1 %77, %78
  %80 = or i1 %75, %79
  %81 = or i1 %64, %65
  %82 = select i1 %80, i32 -778406568, i32 20657984
  store i32 %82, i32* %9
  br label %404

; <label>:83:                                     ; preds = %11
  store i32 1896103816, i32* %9
  br label %404

; <label>:84:                                     ; preds = %11
  store i32 -1658233562, i32* %9
  br label %404

; <label>:85:                                     ; preds = %11
  %86 = load i8, i8* %5, align 1
  %87 = sext i8 %86 to i32
  %88 = call i32 @isdigit(i32 %87) #13
  %89 = icmp ne i32 %88, 0
  %90 = select i1 %89, i32 2009612743, i32 160859549
  store i32 %90, i32* %9
  br label %404

; <label>:91:                                     ; preds = %11
  %92 = load i32, i32* @x.15
  %93 = load i32, i32* @y.16
  %94 = sub i32 0, 1
  %95 = add i32 %92, %94
  %96 = sub i32 %92, 1
  %97 = mul i32 %92, %95
  %98 = urem i32 %97, 2
  %99 = icmp eq i32 %98, 0
  %100 = icmp slt i32 %93, 10
  %101 = and i1 %99, %100
  %102 = xor i1 %99, %100
  %103 = or i1 %101, %102
  %104 = or i1 %99, %100
  %105 = select i1 %103, i32 -120393379, i32 618892989
  store i32 %105, i32* %9
  br label %404

; <label>:106:                                    ; preds = %11
  %107 = load i64, i64* %4, align 8
  %108 = mul nsw i64 %107, 10
  %109 = load i8, i8* %5, align 1
  %110 = sext i8 %109 to i64
  %111 = sub i64 0, %108
  %112 = sub i64 0, %110
  %113 = add i64 %111, %112
  %114 = sub i64 0, %113
  %115 = add nsw i64 %108, %110
  %116 = sub i64 0, 48
  %117 = add i64 %114, %116
  %118 = sub nsw i64 %114, 48
  store i64 %117, i64* %4, align 8
  %119 = load i32, i32* @x.15
  %120 = load i32, i32* @y.16
  %121 = sub i32 %119, -2104436433
  %122 = sub i32 %121, 1
  %123 = add i32 %122, -2104436433
  %124 = sub i32 %119, 1
  %125 = mul i32 %119, %123
  %126 = urem i32 %125, 2
  %127 = icmp eq i32 %126, 0
  %128 = icmp slt i32 %120, 10
  %129 = and i1 %127, %128
  %130 = xor i1 %127, %128
  %131 = or i1 %129, %130
  %132 = or i1 %127, %128
  %133 = select i1 %131, i32 -926584343, i32 618892989
  store i32 %133, i32* %9
  br label %404

; <label>:134:                                    ; preds = %11
  store i32 1823796526, i32* %9
  br label %404

; <label>:135:                                    ; preds = %11
  %136 = load i32, i32* @x.15
  %137 = load i32, i32* @y.16
  %138 = sub i32 0, 1
  %139 = add i32 %136, %138
  %140 = sub i32 %136, 1
  %141 = mul i32 %136, %139
  %142 = urem i32 %141, 2
  %143 = icmp eq i32 %142, 0
  %144 = icmp slt i32 %137, 10
  %145 = and i1 %143, %144
  %146 = xor i1 %143, %144
  %147 = or i1 %145, %146
  %148 = or i1 %143, %144
  %149 = select i1 %147, i32 -286718758, i32 -425968289
  store i32 %149, i32* %9
  br label %404

; <label>:150:                                    ; preds = %11
  %151 = call i32 @getchar()
  %152 = trunc i32 %151 to i8
  store i8 %152, i8* %5, align 1
  %153 = load i32, i32* @x.15
  %154 = load i32, i32* @y.16
  %155 = sub i32 %153, 852725006
  %156 = sub i32 %155, 1
  %157 = add i32 %156, 852725006
  %158 = sub i32 %153, 1
  %159 = mul i32 %153, %157
  %160 = urem i32 %159, 2
  %161 = icmp eq i32 %160, 0
  %162 = icmp slt i32 %154, 10
  %163 = xor i1 %161, true
  %164 = xor i1 %162, true
  %165 = xor i1 false, true
  %166 = and i1 %163, false
  %167 = and i1 %161, %165
  %168 = and i1 %164, false
  %169 = and i1 %162, %165
  %170 = or i1 %166, %167
  %171 = or i1 %168, %169
  %172 = xor i1 %170, %171
  %173 = or i1 %163, %164
  %174 = xor i1 %173, true
  %175 = or i1 false, %165
  %176 = and i1 %174, %175
  %177 = or i1 %172, %176
  %178 = or i1 %161, %162
  %179 = select i1 %177, i32 1602225338, i32 -425968289
  store i32 %179, i32* %9
  br label %404

; <label>:180:                                    ; preds = %11
  store i32 -1658233562, i32* %9
  br label %404

; <label>:181:                                    ; preds = %11
  %182 = load i32, i32* @x.15
  %183 = load i32, i32* @y.16
  %184 = sub i32 %182, -403679202
  %185 = sub i32 %184, 1
  %186 = add i32 %185, -403679202
  %187 = sub i32 %182, 1
  %188 = mul i32 %182, %186
  %189 = urem i32 %188, 2
  %190 = icmp eq i32 %189, 0
  %191 = icmp slt i32 %183, 10
  %192 = xor i1 %190, true
  %193 = xor i1 %191, true
  %194 = xor i1 false, true
  %195 = and i1 %192, false
  %196 = and i1 %190, %194
  %197 = and i1 %193, false
  %198 = and i1 %191, %194
  %199 = or i1 %195, %196
  %200 = or i1 %197, %198
  %201 = xor i1 %199, %200
  %202 = or i1 %192, %193
  %203 = xor i1 %202, true
  %204 = or i1 false, %194
  %205 = and i1 %203, %204
  %206 = or i1 %201, %205
  %207 = or i1 %190, %191
  %208 = select i1 %206, i32 69273386, i32 1381054580
  store i32 %208, i32* %9
  br label %404

; <label>:209:                                    ; preds = %11
  %210 = load i8, i8* %6, align 1
  %211 = trunc i8 %210 to i1
  store i1 %211, i1* %3
  %212 = load i32, i32* @x.15
  %213 = load i32, i32* @y.16
  %214 = sub i32 %212, 1840036330
  %215 = sub i32 %214, 1
  %216 = add i32 %215, 1840036330
  %217 = sub i32 %212, 1
  %218 = mul i32 %212, %216
  %219 = urem i32 %218, 2
  %220 = icmp eq i32 %219, 0
  %221 = icmp slt i32 %213, 10
  %222 = xor i1 %220, true
  %223 = xor i1 %221, true
  %224 = xor i1 false, true
  %225 = and i1 %222, false
  %226 = and i1 %220, %224
  %227 = and i1 %223, false
  %228 = and i1 %221, %224
  %229 = or i1 %225, %226
  %230 = or i1 %227, %228
  %231 = xor i1 %229, %230
  %232 = or i1 %222, %223
  %233 = xor i1 %232, true
  %234 = or i1 false, %224
  %235 = and i1 %233, %234
  %236 = or i1 %231, %235
  %237 = or i1 %220, %221
  %238 = select i1 %236, i32 1075802677, i32 1381054580
  store i32 %238, i32* %9
  br label %404

; <label>:239:                                    ; preds = %11
  %240 = load volatile i1, i1* %3
  %241 = select i1 %240, i32 -1575137365, i32 -1104865711
  store i32 %241, i32* %9
  br label %404

; <label>:242:                                    ; preds = %11
  %243 = load i32, i32* @x.15
  %244 = load i32, i32* @y.16
  %245 = sub i32 0, 1
  %246 = add i32 %243, %245
  %247 = sub i32 %243, 1
  %248 = mul i32 %243, %246
  %249 = urem i32 %248, 2
  %250 = icmp eq i32 %249, 0
  %251 = icmp slt i32 %244, 10
  %252 = xor i1 %250, true
  %253 = xor i1 %251, true
  %254 = xor i1 false, true
  %255 = and i1 %252, false
  %256 = and i1 %250, %254
  %257 = and i1 %253, false
  %258 = and i1 %251, %254
  %259 = or i1 %255, %256
  %260 = or i1 %257, %258
  %261 = xor i1 %259, %260
  %262 = or i1 %252, %253
  %263 = xor i1 %262, true
  %264 = or i1 false, %254
  %265 = and i1 %263, %264
  %266 = or i1 %261, %265
  %267 = or i1 %250, %251
  %268 = select i1 %266, i32 -1951264058, i32 -1234139309
  store i32 %268, i32* %9
  br label %404

; <label>:269:                                    ; preds = %11
  %270 = load i64, i64* %4, align 8
  store i64 %270, i64* %2
  %271 = load i32, i32* @x.15
  %272 = load i32, i32* @y.16
  %273 = sub i32 %271, 1437646676
  %274 = sub i32 %273, 1
  %275 = add i32 %274, 1437646676
  %276 = sub i32 %271, 1
  %277 = mul i32 %271, %275
  %278 = urem i32 %277, 2
  %279 = icmp eq i32 %278, 0
  %280 = icmp slt i32 %272, 10
  %281 = xor i1 %279, true
  %282 = xor i1 %280, true
  %283 = xor i1 true, true
  %284 = and i1 %281, true
  %285 = and i1 %279, %283
  %286 = and i1 %282, true
  %287 = and i1 %280, %283
  %288 = or i1 %284, %285
  %289 = or i1 %286, %287
  %290 = xor i1 %288, %289
  %291 = or i1 %281, %282
  %292 = xor i1 %291, true
  %293 = or i1 true, %283
  %294 = and i1 %292, %293
  %295 = or i1 %290, %294
  %296 = or i1 %279, %280
  %297 = select i1 %295, i32 599787491, i32 -1234139309
  store i32 %297, i32* %9
  br label %404

; <label>:298:                                    ; preds = %11
  store i32 1535415776, i32* %9
  %299 = load volatile i64, i64* %2
  store i64 %299, i64* %10
  br label %404

; <label>:300:                                    ; preds = %11
  %301 = load i64, i64* %4, align 8
  %302 = sub i64 0, %301
  %303 = add i64 0, %302
  %304 = sub nsw i64 0, %301
  store i32 1535415776, i32* %9
  store i64 %303, i64* %10
  br label %404

; <label>:305:                                    ; preds = %11
  %306 = load i64, i64* %10
  store i64 %306, i64* %1
  %307 = load i32, i32* @x.15
  %308 = load i32, i32* @y.16
  %309 = sub i32 0, 1
  %310 = add i32 %307, %309
  %311 = sub i32 %307, 1
  %312 = mul i32 %307, %310
  %313 = urem i32 %312, 2
  %314 = icmp eq i32 %313, 0
  %315 = icmp slt i32 %308, 10
  %316 = and i1 %314, %315
  %317 = xor i1 %314, %315
  %318 = or i1 %316, %317
  %319 = or i1 %314, %315
  %320 = select i1 %318, i32 2060290103, i32 -1241273422
  store i32 %320, i32* %9
  br label %404

; <label>:321:                                    ; preds = %11
  %322 = load i32, i32* @x.15
  %323 = load i32, i32* @y.16
  %324 = add i32 %322, -1247906753
  %325 = sub i32 %324, 1
  %326 = sub i32 %325, -1247906753
  %327 = sub i32 %322, 1
  %328 = mul i32 %322, %326
  %329 = urem i32 %328, 2
  %330 = icmp eq i32 %329, 0
  %331 = icmp slt i32 %323, 10
  %332 = xor i1 %330, true
  %333 = xor i1 %331, true
  %334 = xor i1 false, true
  %335 = and i1 %332, false
  %336 = and i1 %330, %334
  %337 = and i1 %333, false
  %338 = and i1 %331, %334
  %339 = or i1 %335, %336
  %340 = or i1 %337, %338
  %341 = xor i1 %339, %340
  %342 = or i1 %332, %333
  %343 = xor i1 %342, true
  %344 = or i1 false, %334
  %345 = and i1 %343, %344
  %346 = or i1 %341, %345
  %347 = or i1 %330, %331
  %348 = select i1 %346, i32 1232132587, i32 -1241273422
  store i32 %348, i32* %9
  br label %404

; <label>:349:                                    ; preds = %11
  %350 = load volatile i64, i64* %1
  ret i64 %350

; <label>:351:                                    ; preds = %11
  %352 = call i32 @getchar()
  %353 = trunc i32 %352 to i8
  store i8 %353, i8* %5, align 1
  store i32 -6951816, i32* %9
  br label %404

; <label>:354:                                    ; preds = %11
  %355 = load i64, i64* %4, align 8
  %356 = shl i64 %355, 10
  %357 = sub i64 0, -6006818934548351626
  %358 = sub i64 %357, %355
  %359 = add i64 %358, -6006818934548351626
  %360 = sub i64 0, %355
  %361 = sub i64 0, 10
  %362 = sub i64 %359, %361
  %363 = add i64 %359, 10
  %364 = sub i64 0, 2515268425289164537
  %365 = sub i64 %364, %355
  %366 = add i64 %365, 2515268425289164537
  %367 = sub i64 0, %355
  %368 = sub i64 0, %366
  %369 = sub i64 0, 10
  %370 = add i64 %368, %369
  %371 = sub i64 0, %370
  %372 = add i64 %366, 10
  %373 = shl i64 %355, 10
  %374 = add i64 %355, -7525534644008172761
  %375 = sub i64 %374, 10
  %376 = sub i64 %375, -7525534644008172761
  %377 = sub i64 %355, 10
  %378 = mul i64 %376, 10
  %379 = mul nsw i64 %355, 10
  %380 = load i8, i8* %5, align 1
  %381 = sext i8 %380 to i64
  %382 = add i64 %379, -4456444744574516839
  %383 = add i64 %382, %381
  %384 = sub i64 %383, -4456444744574516839
  %385 = add nsw i64 %379, %381
  %386 = sub i64 %384, -5964818609267312444
  %387 = sub i64 %386, 48
  %388 = add i64 %387, -5964818609267312444
  %389 = sub i64 %384, 48
  %390 = mul i64 %388, 48
  %391 = shl i64 %384, 48
  %392 = sub i64 0, 48
  %393 = add i64 %384, %392
  %394 = sub nsw i64 %384, 48
  store i64 %393, i64* %4, align 8
  store i32 -120393379, i32* %9
  br label %404

; <label>:395:                                    ; preds = %11
  %396 = call i32 @getchar()
  %397 = trunc i32 %396 to i8
  store i8 %397, i8* %5, align 1
  store i32 -286718758, i32* %9
  br label %404

; <label>:398:                                    ; preds = %11
  %399 = load i8, i8* %6, align 1
  %400 = trunc i8 %399 to i1
  store i32 69273386, i32* %9
  br label %404

; <label>:401:                                    ; preds = %11
  %402 = load i64, i64* %4, align 8
  store i32 -1951264058, i32* %9
  br label %404

; <label>:403:                                    ; preds = %11
  store i32 2060290103, i32* %9
  br label %404

; <label>:404:                                    ; preds = %403, %401, %398, %395, %354, %351, %321, %305, %300, %298, %269, %242, %239, %209, %181, %180, %150, %135, %134, %106, %91, %85, %84, %83, %53, %38, %37, %36, %31, %14, %13
  br label %11
}

; Function Attrs: noinline uwtable
define linkonce_odr void @_ZNSt6vectorIiSaIiEE9push_backERKi(%"class.std::vector"*, i32* dereferenceable(4)) #0 comdat align 2 {
  %3 = alloca i32*
  %4 = alloca i32*
  %5 = alloca %"class.std::vector"*
  %6 = alloca %"class.std::vector"*, align 8
  %7 = alloca i32*, align 8
  store %"class.std::vector"* %0, %"class.std::vector"** %6, align 8
  store i32* %1, i32** %7, align 8
  %8 = load %"class.std::vector"*, %"class.std::vector"** %6, align 8
  store %"class.std::vector"* %8, %"class.std::vector"** %5
  %9 = load volatile %"class.std::vector"*, %"class.std::vector"** %5
  %10 = bitcast %"class.std::vector"* %9 to %"struct.std::_Vector_base"*
  %11 = getelementptr inbounds %"struct.std::_Vector_base", %"struct.std::_Vector_base"* %10, i32 0, i32 0
  %12 = getelementptr inbounds %"struct.std::_Vector_base<int, std::allocator<int> >::_Vector_impl", %"struct.std::_Vector_base<int, std::allocator<int> >::_Vector_impl"* %11, i32 0, i32 1
  %13 = load i32*, i32** %12, align 8
  store i32* %13, i32** %4
  %14 = load volatile %"class.std::vector"*, %"class.std::vector"** %5
  %15 = bitcast %"class.std::vector"* %14 to %"struct.std::_Vector_base"*
  %16 = getelementptr inbounds %"struct.std::_Vector_base", %"struct.std::_Vector_base"* %15, i32 0, i32 0
  %17 = getelementptr inbounds %"struct.std::_Vector_base<int, std::allocator<int> >::_Vector_impl", %"struct.std::_Vector_base<int, std::allocator<int> >::_Vector_impl"* %16, i32 0, i32 2
  %18 = load i32*, i32** %17, align 8
  store i32* %18, i32** %3
  %19 = alloca i32
  store i32 528343420, i32* %19
  br label %20

; <label>:20:                                     ; preds = %2, %82
  %21 = load i32, i32* %19
  switch i32 %21, label %22 [
    i32 528343420, label %23
    i32 1321400580, label %28
    i32 -1128059086, label %45
    i32 1166107488, label %48
    i32 668497563, label %64
    i32 -98565145, label %80
    i32 1800394804, label %81
  ]

; <label>:22:                                     ; preds = %20
  br label %82

; <label>:23:                                     ; preds = %20
  %24 = load volatile i32*, i32** %4
  %25 = load volatile i32*, i32** %3
  %26 = icmp ne i32* %24, %25
  %27 = select i1 %26, i32 1321400580, i32 -1128059086
  store i32 %27, i32* %19
  br label %82

; <label>:28:                                     ; preds = %20
  %29 = load volatile %"class.std::vector"*, %"class.std::vector"** %5
  %30 = bitcast %"class.std::vector"* %29 to %"struct.std::_Vector_base"*
  %31 = getelementptr inbounds %"struct.std::_Vector_base", %"struct.std::_Vector_base"* %30, i32 0, i32 0
  %32 = bitcast %"struct.std::_Vector_base<int, std::allocator<int> >::_Vector_impl"* %31 to %"class.std::allocator"*
  %33 = load volatile %"class.std::vector"*, %"class.std::vector"** %5
  %34 = bitcast %"class.std::vector"* %33 to %"struct.std::_Vector_base"*
  %35 = getelementptr inbounds %"struct.std::_Vector_base", %"struct.std::_Vector_base"* %34, i32 0, i32 0
  %36 = getelementptr inbounds %"struct.std::_Vector_base<int, std::allocator<int> >::_Vector_impl", %"struct.std::_Vector_base<int, std::allocator<int> >::_Vector_impl"* %35, i32 0, i32 1
  %37 = load i32*, i32** %36, align 8
  %38 = load i32*, i32** %7, align 8
  call void @_ZNSt16allocator_traitsISaIiEE9constructIiJRKiEEEvRS0_PT_DpOT0_(%"class.std::allocator"* dereferenceable(1) %32, i32* %37, i32* dereferenceable(4) %38)
  %39 = load volatile %"class.std::vector"*, %"class.std::vector"** %5
  %40 = bitcast %"class.std::vector"* %39 to %"struct.std::_Vector_base"*
  %41 = getelementptr inbounds %"struct.std::_Vector_base", %"struct.std::_Vector_base"* %40, i32 0, i32 0
  %42 = getelementptr inbounds %"struct.std::_Vector_base<int, std::allocator<int> >::_Vector_impl", %"struct.std::_Vector_base<int, std::allocator<int> >::_Vector_impl"* %41, i32 0, i32 1
  %43 = load i32*, i32** %42, align 8
  %44 = getelementptr inbounds i32, i32* %43, i32 1
  store i32* %44, i32** %42, align 8
  store i32 1166107488, i32* %19
  br label %82

; <label>:45:                                     ; preds = %20
  %46 = load i32*, i32** %7, align 8
  %47 = load volatile %"class.std::vector"*, %"class.std::vector"** %5
  call void @_ZNSt6vectorIiSaIiEE19_M_emplace_back_auxIJRKiEEEvDpOT_(%"class.std::vector"* %47, i32* dereferenceable(4) %46)
  store i32 1166107488, i32* %19
  br label %82

; <label>:48:                                     ; preds = %20
  %49 = load i32, i32* @x.17
  %50 = load i32, i32* @y.18
  %51 = add i32 %49, 1877247699
  %52 = sub i32 %51, 1
  %53 = sub i32 %52, 1877247699
  %54 = sub i32 %49, 1
  %55 = mul i32 %49, %53
  %56 = urem i32 %55, 2
  %57 = icmp eq i32 %56, 0
  %58 = icmp slt i32 %50, 10
  %59 = and i1 %57, %58
  %60 = xor i1 %57, %58
  %61 = or i1 %59, %60
  %62 = or i1 %57, %58
  %63 = select i1 %61, i32 668497563, i32 1800394804
  store i32 %63, i32* %19
  br label %82

; <label>:64:                                     ; preds = %20
  %65 = load i32, i32* @x.17
  %66 = load i32, i32* @y.18
  %67 = add i32 %65, 2021598748
  %68 = sub i32 %67, 1
  %69 = sub i32 %68, 2021598748
  %70 = sub i32 %65, 1
  %71 = mul i32 %65, %69
  %72 = urem i32 %71, 2
  %73 = icmp eq i32 %72, 0
  %74 = icmp slt i32 %66, 10
  %75 = and i1 %73, %74
  %76 = xor i1 %73, %74
  %77 = or i1 %75, %76
  %78 = or i1 %73, %74
  %79 = select i1 %77, i32 -98565145, i32 1800394804
  store i32 %79, i32* %19
  br label %82

; <label>:80:                                     ; preds = %20
  ret void

; <label>:81:                                     ; preds = %20
  store i32 668497563, i32* %19
  br label %82

; <label>:82:                                     ; preds = %81, %64, %48, %45, %28, %23, %22
  br label %20
}

declare i32 @puts(i8*) #1

declare dereferenceable(272) %"class.std::basic_ostream"* @_ZNSolsEi(%"class.std::basic_ostream"*, i32) #1

declare dereferenceable(272) %"class.std::basic_ostream"* @_ZNSolsEPFRSoS_E(%"class.std::basic_ostream"*, %"class.std::basic_ostream"* (%"class.std::basic_ostream"*)*) #1

declare dereferenceable(272) %"class.std::basic_ostream"* @_ZSt4endlIcSt11char_traitsIcEERSt13basic_ostreamIT_T0_ES6_(%"class.std::basic_ostream"* dereferenceable(272)) #1

; Function Attrs: noinline uwtable
define linkonce_odr void @_Z3wrix(i64) #0 comdat {
  %2 = alloca i64, align 8
  store i64 %0, i64* %2, align 8
  %3 = load i64, i64* %2, align 8
  call void @_Z5writex(i64 %3)
  %4 = call i32 @putchar(i32 32)
  ret void
}

; Function Attrs: noinline nounwind uwtable
define linkonce_odr i64 @_ZNKSt6vectorIiSaIiEE4sizeEv(%"class.std::vector"*) #4 comdat align 2 {
  %2 = alloca %"class.std::vector"*, align 8
  store %"class.std::vector"* %0, %"class.std::vector"** %2, align 8
  %3 = load %"class.std::vector"*, %"class.std::vector"** %2, align 8
  %4 = bitcast %"class.std::vector"* %3 to %"struct.std::_Vector_base"*
  %5 = getelementptr inbounds %"struct.std::_Vector_base", %"struct.std::_Vector_base"* %4, i32 0, i32 0
  %6 = getelementptr inbounds %"struct.std::_Vector_base<int, std::allocator<int> >::_Vector_impl", %"struct.std::_Vector_base<int, std::allocator<int> >::_Vector_impl"* %5, i32 0, i32 1
  %7 = load i32*, i32** %6, align 8
  %8 = bitcast %"class.std::vector"* %3 to %"struct.std::_Vector_base"*
  %9 = getelementptr inbounds %"struct.std::_Vector_base", %"struct.std::_Vector_base"* %8, i32 0, i32 0
  %10 = getelementptr inbounds %"struct.std::_Vector_base<int, std::allocator<int> >::_Vector_impl", %"struct.std::_Vector_base<int, std::allocator<int> >::_Vector_impl"* %9, i32 0, i32 0
  %11 = load i32*, i32** %10, align 8
  %12 = ptrtoint i32* %7 to i64
  %13 = ptrtoint i32* %11 to i64
  %14 = add i64 %12, 5746990319352292171
  %15 = sub i64 %14, %13
  %16 = sub i64 %15, 5746990319352292171
  %17 = sub i64 %12, %13
  %18 = sdiv exact i64 %16, 4
  ret i64 %18
}

; Function Attrs: noinline nounwind uwtable
define linkonce_odr i32* @_ZNSt6vectorIiSaIiEE5beginEv(%"class.std::vector"*) #4 comdat align 2 {
  %2 = alloca %"class.__gnu_cxx::__normal_iterator", align 8
  %3 = alloca %"class.std::vector"*, align 8
  store %"class.std::vector"* %0, %"class.std::vector"** %3, align 8
  %4 = load %"class.std::vector"*, %"class.std::vector"** %3, align 8
  %5 = bitcast %"class.std::vector"* %4 to %"struct.std::_Vector_base"*
  %6 = getelementptr inbounds %"struct.std::_Vector_base", %"struct.std::_Vector_base"* %5, i32 0, i32 0
  %7 = getelementptr inbounds %"struct.std::_Vector_base<int, std::allocator<int> >::_Vector_impl", %"struct.std::_Vector_base<int, std::allocator<int> >::_Vector_impl"* %6, i32 0, i32 0
  call void @_ZN9__gnu_cxx17__normal_iteratorIPiSt6vectorIiSaIiEEEC2ERKS1_(%"class.__gnu_cxx::__normal_iterator"* %2, i32** dereferenceable(8) %7) #3
  %8 = getelementptr inbounds %"class.__gnu_cxx::__normal_iterator", %"class.__gnu_cxx::__normal_iterator"* %2, i32 0, i32 0
  %9 = load i32*, i32** %8, align 8
  ret i32* %9
}

; Function Attrs: noinline nounwind uwtable
define linkonce_odr i32* @_ZNSt6vectorIiSaIiEE3endEv(%"class.std::vector"*) #4 comdat align 2 {
  %2 = alloca %"class.__gnu_cxx::__normal_iterator", align 8
  %3 = alloca %"class.std::vector"*, align 8
  store %"class.std::vector"* %0, %"class.std::vector"** %3, align 8
  %4 = load %"class.std::vector"*, %"class.std::vector"** %3, align 8
  %5 = bitcast %"class.std::vector"* %4 to %"struct.std::_Vector_base"*
  %6 = getelementptr inbounds %"struct.std::_Vector_base", %"struct.std::_Vector_base"* %5, i32 0, i32 0
  %7 = getelementptr inbounds %"struct.std::_Vector_base<int, std::allocator<int> >::_Vector_impl", %"struct.std::_Vector_base<int, std::allocator<int> >::_Vector_impl"* %6, i32 0, i32 1
  call void @_ZN9__gnu_cxx17__normal_iteratorIPiSt6vectorIiSaIiEEEC2ERKS1_(%"class.__gnu_cxx::__normal_iterator"* %2, i32** dereferenceable(8) %7) #3
  %8 = getelementptr inbounds %"class.__gnu_cxx::__normal_iterator", %"class.__gnu_cxx::__normal_iterator"* %2, i32 0, i32 0
  %9 = load i32*, i32** %8, align 8
  ret i32* %9
}

; Function Attrs: noinline nounwind uwtable
define linkonce_odr zeroext i1 @_ZN9__gnu_cxxneIPiSt6vectorIiSaIiEEEEbRKNS_17__normal_iteratorIT_T0_EESA_(%"class.__gnu_cxx::__normal_iterator"* dereferenceable(8), %"class.__gnu_cxx::__normal_iterator"* dereferenceable(8)) #4 comdat {
  %3 = alloca i1
  %4 = alloca i1
  %5 = alloca i1
  %6 = load i32, i32* @x.27
  %7 = load i32, i32* @y.28
  %8 = sub i32 %6, -581399541
  %9 = sub i32 %8, 1
  %10 = add i32 %9, -581399541
  %11 = sub i32 %6, 1
  %12 = mul i32 %6, %10
  %13 = urem i32 %12, 2
  %14 = icmp eq i32 %13, 0
  store i1 %14, i1* %5
  %15 = icmp slt i32 %7, 10
  store i1 %15, i1* %4
  %16 = alloca i32
  store i32 -1281624894, i32* %16
  br label %17

; <label>:17:                                     ; preds = %2, %89
  %18 = load i32, i32* %16
  switch i32 %18, label %19 [
    i32 -1281624894, label %20
    i32 1215325768, label %40
    i32 1751462260, label %77
    i32 1817032195, label %79
  ]

; <label>:19:                                     ; preds = %17
  br label %89

; <label>:20:                                     ; preds = %17
  %21 = load volatile i1, i1* %5
  %22 = load volatile i1, i1* %4
  %23 = xor i1 %21, true
  %24 = xor i1 %22, true
  %25 = xor i1 false, true
  %26 = and i1 %23, false
  %27 = and i1 %21, %25
  %28 = and i1 %24, false
  %29 = and i1 %22, %25
  %30 = or i1 %26, %27
  %31 = or i1 %28, %29
  %32 = xor i1 %30, %31
  %33 = or i1 %23, %24
  %34 = xor i1 %33, true
  %35 = or i1 false, %25
  %36 = and i1 %34, %35
  %37 = or i1 %32, %36
  %38 = or i1 %21, %22
  %39 = select i1 %37, i32 1215325768, i32 1817032195
  store i32 %39, i32* %16
  br label %89

; <label>:40:                                     ; preds = %17
  %41 = alloca %"class.__gnu_cxx::__normal_iterator"*, align 8
  %42 = alloca %"class.__gnu_cxx::__normal_iterator"*, align 8
  store %"class.__gnu_cxx::__normal_iterator"* %0, %"class.__gnu_cxx::__normal_iterator"** %41, align 8
  store %"class.__gnu_cxx::__normal_iterator"* %1, %"class.__gnu_cxx::__normal_iterator"** %42, align 8
  %43 = load %"class.__gnu_cxx::__normal_iterator"*, %"class.__gnu_cxx::__normal_iterator"** %41, align 8
  %44 = call dereferenceable(8) i32** @_ZNK9__gnu_cxx17__normal_iteratorIPiSt6vectorIiSaIiEEE4baseEv(%"class.__gnu_cxx::__normal_iterator"* %43) #3
  %45 = load i32*, i32** %44, align 8
  %46 = load %"class.__gnu_cxx::__normal_iterator"*, %"class.__gnu_cxx::__normal_iterator"** %42, align 8
  %47 = call dereferenceable(8) i32** @_ZNK9__gnu_cxx17__normal_iteratorIPiSt6vectorIiSaIiEEE4baseEv(%"class.__gnu_cxx::__normal_iterator"* %46) #3
  %48 = load i32*, i32** %47, align 8
  %49 = icmp ne i32* %45, %48
  store i1 %49, i1* %3
  %50 = load i32, i32* @x.27
  %51 = load i32, i32* @y.28
  %52 = add i32 %50, 1737618441
  %53 = sub i32 %52, 1
  %54 = sub i32 %53, 1737618441
  %55 = sub i32 %50, 1
  %56 = mul i32 %50, %54
  %57 = urem i32 %56, 2
  %58 = icmp eq i32 %57, 0
  %59 = icmp slt i32 %51, 10
  %60 = xor i1 %58, true
  %61 = xor i1 %59, true
  %62 = xor i1 true, true
  %63 = and i1 %60, true
  %64 = and i1 %58, %62
  %65 = and i1 %61, true
  %66 = and i1 %59, %62
  %67 = or i1 %63, %64
  %68 = or i1 %65, %66
  %69 = xor i1 %67, %68
  %70 = or i1 %60, %61
  %71 = xor i1 %70, true
  %72 = or i1 true, %62
  %73 = and i1 %71, %72
  %74 = or i1 %69, %73
  %75 = or i1 %58, %59
  %76 = select i1 %74, i32 1751462260, i32 1817032195
  store i32 %76, i32* %16
  br label %89

; <label>:77:                                     ; preds = %17
  %78 = load volatile i1, i1* %3
  ret i1 %78

; <label>:79:                                     ; preds = %17
  %80 = alloca %"class.__gnu_cxx::__normal_iterator"*, align 8
  %81 = alloca %"class.__gnu_cxx::__normal_iterator"*, align 8
  store %"class.__gnu_cxx::__normal_iterator"* %0, %"class.__gnu_cxx::__normal_iterator"** %80, align 8
  store %"class.__gnu_cxx::__normal_iterator"* %1, %"class.__gnu_cxx::__normal_iterator"** %81, align 8
  %82 = load %"class.__gnu_cxx::__normal_iterator"*, %"class.__gnu_cxx::__normal_iterator"** %80, align 8
  %83 = call dereferenceable(8) i32** @_ZNK9__gnu_cxx17__normal_iteratorIPiSt6vectorIiSaIiEEE4baseEv(%"class.__gnu_cxx::__normal_iterator"* %82) #3
  %84 = load i32*, i32** %83, align 8
  %85 = load %"class.__gnu_cxx::__normal_iterator"*, %"class.__gnu_cxx::__normal_iterator"** %81, align 8
  %86 = call dereferenceable(8) i32** @_ZNK9__gnu_cxx17__normal_iteratorIPiSt6vectorIiSaIiEEE4baseEv(%"class.__gnu_cxx::__normal_iterator"* %85) #3
  %87 = load i32*, i32** %86, align 8
  %88 = icmp ne i32* %84, %87
  store i32 1215325768, i32* %16
  br label %89

; <label>:89:                                     ; preds = %79, %40, %20, %19
  br label %17
}

; Function Attrs: noinline nounwind uwtable
define linkonce_odr dereferenceable(4) i32* @_ZNK9__gnu_cxx17__normal_iteratorIPiSt6vectorIiSaIiEEEdeEv(%"class.__gnu_cxx::__normal_iterator"*) #4 comdat align 2 {
  %2 = alloca %"class.__gnu_cxx::__normal_iterator"*, align 8
  store %"class.__gnu_cxx::__normal_iterator"* %0, %"class.__gnu_cxx::__normal_iterator"** %2, align 8
  %3 = load %"class.__gnu_cxx::__normal_iterator"*, %"class.__gnu_cxx::__normal_iterator"** %2, align 8
  %4 = getelementptr inbounds %"class.__gnu_cxx::__normal_iterator", %"class.__gnu_cxx::__normal_iterator"* %3, i32 0, i32 0
  %5 = load i32*, i32** %4, align 8
  ret i32* %5
}

; Function Attrs: noinline nounwind uwtable
define linkonce_odr dereferenceable(8) %"class.__gnu_cxx::__normal_iterator"* @_ZN9__gnu_cxx17__normal_iteratorIPiSt6vectorIiSaIiEEEppEv(%"class.__gnu_cxx::__normal_iterator"*) #4 comdat align 2 {
  %2 = alloca %"class.__gnu_cxx::__normal_iterator"*, align 8
  store %"class.__gnu_cxx::__normal_iterator"* %0, %"class.__gnu_cxx::__normal_iterator"** %2, align 8
  %3 = load %"class.__gnu_cxx::__normal_iterator"*, %"class.__gnu_cxx::__normal_iterator"** %2, align 8
  %4 = getelementptr inbounds %"class.__gnu_cxx::__normal_iterator", %"class.__gnu_cxx::__normal_iterator"* %3, i32 0, i32 0
  %5 = load i32*, i32** %4, align 8
  %6 = getelementptr inbounds i32, i32* %5, i32 1
  store i32* %6, i32** %4, align 8
  ret %"class.__gnu_cxx::__normal_iterator"* %3
}

declare i32 @getchar() #1

; Function Attrs: nounwind readonly
declare i32 @isdigit(i32) #6

; Function Attrs: noinline uwtable
define linkonce_odr void @_Z5writex(i64) #0 comdat {
  %2 = alloca i64
  %3 = alloca i64, align 8
  store i64 %0, i64* %3, align 8
  %4 = load i64, i64* %3, align 8
  store i64 %4, i64* %2
  %5 = alloca i32
  store i32 2023195722, i32* %5
  br label %6

; <label>:6:                                      ; preds = %1, %34
  %7 = load i32, i32* %5
  switch i32 %7, label %8 [
    i32 2023195722, label %9
    i32 -667412662, label %13
    i32 1276368998, label %19
    i32 -1493186213, label %23
    i32 887389685, label %26
  ]

; <label>:8:                                      ; preds = %6
  br label %34

; <label>:9:                                      ; preds = %6
  %10 = load volatile i64, i64* %2
  %11 = icmp slt i64 %10, 0
  %12 = select i1 %11, i32 -667412662, i32 1276368998
  store i32 %12, i32* %5
  br label %34

; <label>:13:                                     ; preds = %6
  %14 = load i64, i64* %3, align 8
  %15 = sub i64 0, %14
  %16 = add i64 0, %15
  %17 = sub nsw i64 0, %14
  store i64 %16, i64* %3, align 8
  %18 = call i32 @putchar(i32 45)
  store i32 1276368998, i32* %5
  br label %34

; <label>:19:                                     ; preds = %6
  %20 = load i64, i64* %3, align 8
  %21 = icmp sge i64 %20, 10
  %22 = select i1 %21, i32 -1493186213, i32 887389685
  store i32 %22, i32* %5
  br label %34

; <label>:23:                                     ; preds = %6
  %24 = load i64, i64* %3, align 8
  %25 = sdiv i64 %24, 10
  call void @_Z5writex(i64 %25)
  store i32 887389685, i32* %5
  br label %34

; <label>:26:                                     ; preds = %6
  %27 = load i64, i64* %3, align 8
  %28 = srem i64 %27, 10
  %29 = sub i64 0, %28
  %30 = sub i64 48, %29
  %31 = add nsw i64 48, %28
  %32 = trunc i64 %30 to i32
  %33 = call i32 @putchar(i32 %32)
  ret void

; <label>:34:                                     ; preds = %23, %19, %13, %9, %8
  br label %6
}

declare i32 @putchar(i32) #1

; Function Attrs: noinline uwtable
define linkonce_odr void @_ZNSt12_Vector_baseIiSaIiEEC2Ev(%"struct.std::_Vector_base"*) unnamed_addr #0 comdat align 2 {
  %2 = alloca i1
  %3 = alloca i1
  %4 = load i32, i32* @x.35
  %5 = load i32, i32* @y.36
  %6 = add i32 %4, 479316598
  %7 = sub i32 %6, 1
  %8 = sub i32 %7, 479316598
  %9 = sub i32 %4, 1
  %10 = mul i32 %4, %8
  %11 = urem i32 %10, 2
  %12 = icmp eq i32 %11, 0
  store i1 %12, i1* %3
  %13 = icmp slt i32 %5, 10
  store i1 %13, i1* %2
  %14 = alloca i32
  store i32 950508936, i32* %14
  br label %15

; <label>:15:                                     ; preds = %1, %73
  %16 = load i32, i32* %14
  switch i32 %16, label %17 [
    i32 950508936, label %18
    i32 1497210381, label %38
    i32 21399650, label %68
    i32 -543281301, label %69
  ]

; <label>:17:                                     ; preds = %15
  br label %73

; <label>:18:                                     ; preds = %15
  %19 = load volatile i1, i1* %3
  %20 = load volatile i1, i1* %2
  %21 = xor i1 %19, true
  %22 = xor i1 %20, true
  %23 = xor i1 false, true
  %24 = and i1 %21, false
  %25 = and i1 %19, %23
  %26 = and i1 %22, false
  %27 = and i1 %20, %23
  %28 = or i1 %24, %25
  %29 = or i1 %26, %27
  %30 = xor i1 %28, %29
  %31 = or i1 %21, %22
  %32 = xor i1 %31, true
  %33 = or i1 false, %23
  %34 = and i1 %32, %33
  %35 = or i1 %30, %34
  %36 = or i1 %19, %20
  %37 = select i1 %35, i32 1497210381, i32 -543281301
  store i32 %37, i32* %14
  br label %73

; <label>:38:                                     ; preds = %15
  %39 = alloca %"struct.std::_Vector_base"*, align 8
  store %"struct.std::_Vector_base"* %0, %"struct.std::_Vector_base"** %39, align 8
  %40 = load %"struct.std::_Vector_base"*, %"struct.std::_Vector_base"** %39, align 8
  %41 = getelementptr inbounds %"struct.std::_Vector_base", %"struct.std::_Vector_base"* %40, i32 0, i32 0
  call void @_ZNSt12_Vector_baseIiSaIiEE12_Vector_implC2Ev(%"struct.std::_Vector_base<int, std::allocator<int> >::_Vector_impl"* %41)
  %42 = load i32, i32* @x.35
  %43 = load i32, i32* @y.36
  %44 = sub i32 0, 1
  %45 = add i32 %42, %44
  %46 = sub i32 %42, 1
  %47 = mul i32 %42, %45
  %48 = urem i32 %47, 2
  %49 = icmp eq i32 %48, 0
  %50 = icmp slt i32 %43, 10
  %51 = xor i1 %49, true
  %52 = xor i1 %50, true
  %53 = xor i1 true, true
  %54 = and i1 %51, true
  %55 = and i1 %49, %53
  %56 = and i1 %52, true
  %57 = and i1 %50, %53
  %58 = or i1 %54, %55
  %59 = or i1 %56, %57
  %60 = xor i1 %58, %59
  %61 = or i1 %51, %52
  %62 = xor i1 %61, true
  %63 = or i1 true, %53
  %64 = and i1 %62, %63
  %65 = or i1 %60, %64
  %66 = or i1 %49, %50
  %67 = select i1 %65, i32 21399650, i32 -543281301
  store i32 %67, i32* %14
  br label %73

; <label>:68:                                     ; preds = %15
  ret void

; <label>:69:                                     ; preds = %15
  %70 = alloca %"struct.std::_Vector_base"*, align 8
  store %"struct.std::_Vector_base"* %0, %"struct.std::_Vector_base"** %70, align 8
  %71 = load %"struct.std::_Vector_base"*, %"struct.std::_Vector_base"** %70, align 8
  %72 = getelementptr inbounds %"struct.std::_Vector_base", %"struct.std::_Vector_base"* %71, i32 0, i32 0
  call void @_ZNSt12_Vector_baseIiSaIiEE12_Vector_implC2Ev(%"struct.std::_Vector_base<int, std::allocator<int> >::_Vector_impl"* %72)
  store i32 1497210381, i32* %14
  br label %73

; <label>:73:                                     ; preds = %69, %38, %18, %17
  br label %15
}

declare i32 @__gxx_personality_v0(...)

; Function Attrs: noinline noreturn nounwind
define linkonce_odr hidden void @__clang_call_terminate(i8*) #7 comdat {
  %2 = alloca i1
  %3 = alloca i1
  %4 = load i32, i32* @x.37
  %5 = load i32, i32* @y.38
  %6 = sub i32 0, 1
  %7 = add i32 %4, %6
  %8 = sub i32 %4, 1
  %9 = mul i32 %4, %7
  %10 = urem i32 %9, 2
  %11 = icmp eq i32 %10, 0
  store i1 %11, i1* %3
  %12 = icmp slt i32 %5, 10
  store i1 %12, i1* %2
  %13 = alloca i32
  store i32 -657958164, i32* %13
  br label %14

; <label>:14:                                     ; preds = %1, %56
  %15 = load i32, i32* %13
  switch i32 %15, label %16 [
    i32 -657958164, label %17
    i32 -761470620, label %37
    i32 467102984, label %53
    i32 -1787843727, label %54
  ]

; <label>:16:                                     ; preds = %14
  br label %56

; <label>:17:                                     ; preds = %14
  %18 = load volatile i1, i1* %3
  %19 = load volatile i1, i1* %2
  %20 = xor i1 %18, true
  %21 = xor i1 %19, true
  %22 = xor i1 true, true
  %23 = and i1 %20, true
  %24 = and i1 %18, %22
  %25 = and i1 %21, true
  %26 = and i1 %19, %22
  %27 = or i1 %23, %24
  %28 = or i1 %25, %26
  %29 = xor i1 %27, %28
  %30 = or i1 %20, %21
  %31 = xor i1 %30, true
  %32 = or i1 true, %22
  %33 = and i1 %31, %32
  %34 = or i1 %29, %33
  %35 = or i1 %18, %19
  %36 = select i1 %34, i32 -761470620, i32 -1787843727
  store i32 %36, i32* %13
  br label %56

; <label>:37:                                     ; preds = %14
  %38 = call i8* @__cxa_begin_catch(i8* %0) #3
  call void @_ZSt9terminatev() #12
  %39 = load i32, i32* @x.37
  %40 = load i32, i32* @y.38
  %41 = sub i32 0, 1
  %42 = add i32 %39, %41
  %43 = sub i32 %39, 1
  %44 = mul i32 %39, %42
  %45 = urem i32 %44, 2
  %46 = icmp eq i32 %45, 0
  %47 = icmp slt i32 %40, 10
  %48 = and i1 %46, %47
  %49 = xor i1 %46, %47
  %50 = or i1 %48, %49
  %51 = or i1 %46, %47
  %52 = select i1 %50, i32 467102984, i32 -1787843727
  store i32 %52, i32* %13
  br label %56

; <label>:53:                                     ; preds = %14
  unreachable

; <label>:54:                                     ; preds = %14
  %55 = call i8* @__cxa_begin_catch(i8* %0) #3
  call void @_ZSt9terminatev() #12
  store i32 -761470620, i32* %13
  br label %56

; <label>:56:                                     ; preds = %54, %37, %17, %16
  br label %14
}

declare i8* @__cxa_begin_catch(i8*)

declare void @_ZSt9terminatev()

; Function Attrs: noinline nounwind uwtable
define linkonce_odr void @_ZNSt12_Vector_baseIiSaIiEE12_Vector_implC2Ev(%"struct.std::_Vector_base<int, std::allocator<int> >::_Vector_impl"*) unnamed_addr #4 comdat align 2 {
  %2 = alloca %"struct.std::_Vector_base<int, std::allocator<int> >::_Vector_impl"*, align 8
  store %"struct.std::_Vector_base<int, std::allocator<int> >::_Vector_impl"* %0, %"struct.std::_Vector_base<int, std::allocator<int> >::_Vector_impl"** %2, align 8
  %3 = load %"struct.std::_Vector_base<int, std::allocator<int> >::_Vector_impl"*, %"struct.std::_Vector_base<int, std::allocator<int> >::_Vector_impl"** %2, align 8
  %4 = bitcast %"struct.std::_Vector_base<int, std::allocator<int> >::_Vector_impl"* %3 to %"class.std::allocator"*
  call void @_ZNSaIiEC2Ev(%"class.std::allocator"* %4) #3
  %5 = getelementptr inbounds %"struct.std::_Vector_base<int, std::allocator<int> >::_Vector_impl", %"struct.std::_Vector_base<int, std::allocator<int> >::_Vector_impl"* %3, i32 0, i32 0
  store i32* null, i32** %5, align 8
  %6 = getelementptr inbounds %"struct.std::_Vector_base<int, std::allocator<int> >::_Vector_impl", %"struct.std::_Vector_base<int, std::allocator<int> >::_Vector_impl"* %3, i32 0, i32 1
  store i32* null, i32** %6, align 8
  %7 = getelementptr inbounds %"struct.std::_Vector_base<int, std::allocator<int> >::_Vector_impl", %"struct.std::_Vector_base<int, std::allocator<int> >::_Vector_impl"* %3, i32 0, i32 2
  store i32* null, i32** %7, align 8
  ret void
}

; Function Attrs: noinline nounwind uwtable
define linkonce_odr void @_ZNSaIiEC2Ev(%"class.std::allocator"*) unnamed_addr #4 comdat align 2 {
  %2 = alloca i1
  %3 = alloca i1
  %4 = load i32, i32* @x.41
  %5 = load i32, i32* @y.42
  %6 = sub i32 0, 1
  %7 = add i32 %4, %6
  %8 = sub i32 %4, 1
  %9 = mul i32 %4, %7
  %10 = urem i32 %9, 2
  %11 = icmp eq i32 %10, 0
  store i1 %11, i1* %3
  %12 = icmp slt i32 %5, 10
  store i1 %12, i1* %2
  %13 = alloca i32
  store i32 -1189325465, i32* %13
  br label %14

; <label>:14:                                     ; preds = %1, %61
  %15 = load i32, i32* %13
  switch i32 %15, label %16 [
    i32 -1189325465, label %17
    i32 1451355157, label %37
    i32 -92834110, label %56
    i32 -1826319432, label %57
  ]

; <label>:16:                                     ; preds = %14
  br label %61

; <label>:17:                                     ; preds = %14
  %18 = load volatile i1, i1* %3
  %19 = load volatile i1, i1* %2
  %20 = xor i1 %18, true
  %21 = xor i1 %19, true
  %22 = xor i1 false, true
  %23 = and i1 %20, false
  %24 = and i1 %18, %22
  %25 = and i1 %21, false
  %26 = and i1 %19, %22
  %27 = or i1 %23, %24
  %28 = or i1 %25, %26
  %29 = xor i1 %27, %28
  %30 = or i1 %20, %21
  %31 = xor i1 %30, true
  %32 = or i1 false, %22
  %33 = and i1 %31, %32
  %34 = or i1 %29, %33
  %35 = or i1 %18, %19
  %36 = select i1 %34, i32 1451355157, i32 -1826319432
  store i32 %36, i32* %13
  br label %61

; <label>:37:                                     ; preds = %14
  %38 = alloca %"class.std::allocator"*, align 8
  store %"class.std::allocator"* %0, %"class.std::allocator"** %38, align 8
  %39 = load %"class.std::allocator"*, %"class.std::allocator"** %38, align 8
  %40 = bitcast %"class.std::allocator"* %39 to %"class.__gnu_cxx::new_allocator"*
  call void @_ZN9__gnu_cxx13new_allocatorIiEC2Ev(%"class.__gnu_cxx::new_allocator"* %40) #3
  %41 = load i32, i32* @x.41
  %42 = load i32, i32* @y.42
  %43 = add i32 %41, -1579985161
  %44 = sub i32 %43, 1
  %45 = sub i32 %44, -1579985161
  %46 = sub i32 %41, 1
  %47 = mul i32 %41, %45
  %48 = urem i32 %47, 2
  %49 = icmp eq i32 %48, 0
  %50 = icmp slt i32 %42, 10
  %51 = and i1 %49, %50
  %52 = xor i1 %49, %50
  %53 = or i1 %51, %52
  %54 = or i1 %49, %50
  %55 = select i1 %53, i32 -92834110, i32 -1826319432
  store i32 %55, i32* %13
  br label %61

; <label>:56:                                     ; preds = %14
  ret void

; <label>:57:                                     ; preds = %14
  %58 = alloca %"class.std::allocator"*, align 8
  store %"class.std::allocator"* %0, %"class.std::allocator"** %58, align 8
  %59 = load %"class.std::allocator"*, %"class.std::allocator"** %58, align 8
  %60 = bitcast %"class.std::allocator"* %59 to %"class.__gnu_cxx::new_allocator"*
  call void @_ZN9__gnu_cxx13new_allocatorIiEC2Ev(%"class.__gnu_cxx::new_allocator"* %60) #3
  store i32 1451355157, i32* %13
  br label %61

; <label>:61:                                     ; preds = %57, %37, %17, %16
  br label %14
}

; Function Attrs: noinline nounwind uwtable
define linkonce_odr void @_ZN9__gnu_cxx13new_allocatorIiEC2Ev(%"class.__gnu_cxx::new_allocator"*) unnamed_addr #4 comdat align 2 {
  %2 = alloca %"class.__gnu_cxx::new_allocator"*, align 8
  store %"class.__gnu_cxx::new_allocator"* %0, %"class.__gnu_cxx::new_allocator"** %2, align 8
  %3 = load %"class.__gnu_cxx::new_allocator"*, %"class.__gnu_cxx::new_allocator"** %2, align 8
  ret void
}

; Function Attrs: noinline uwtable
define linkonce_odr void @_ZSt8_DestroyIPiiEvT_S1_RSaIT0_E(i32*, i32*, %"class.std::allocator"* dereferenceable(1)) #0 comdat {
  %4 = alloca i32*, align 8
  %5 = alloca i32*, align 8
  %6 = alloca %"class.std::allocator"*, align 8
  store i32* %0, i32** %4, align 8
  store i32* %1, i32** %5, align 8
  store %"class.std::allocator"* %2, %"class.std::allocator"** %6, align 8
  %7 = load i32*, i32** %4, align 8
  %8 = load i32*, i32** %5, align 8
  call void @_ZSt8_DestroyIPiEvT_S1_(i32* %7, i32* %8)
  ret void
}

; Function Attrs: noinline nounwind uwtable
define linkonce_odr dereferenceable(1) %"class.std::allocator"* @_ZNSt12_Vector_baseIiSaIiEE19_M_get_Tp_allocatorEv(%"struct.std::_Vector_base"*) #4 comdat align 2 {
  %2 = alloca %"class.std::allocator"*
  %3 = alloca i1
  %4 = alloca i1
  %5 = load i32, i32* @x.47
  %6 = load i32, i32* @y.48
  %7 = sub i32 0, 1
  %8 = add i32 %5, %7
  %9 = sub i32 %5, 1
  %10 = mul i32 %5, %8
  %11 = urem i32 %10, 2
  %12 = icmp eq i32 %11, 0
  store i1 %12, i1* %4
  %13 = icmp slt i32 %6, 10
  store i1 %13, i1* %3
  %14 = alloca i32
  store i32 1050505037, i32* %14
  br label %15

; <label>:15:                                     ; preds = %1, %65
  %16 = load i32, i32* %14
  switch i32 %16, label %17 [
    i32 1050505037, label %18
    i32 -430161321, label %38
    i32 -1426172809, label %58
    i32 -851859531, label %60
  ]

; <label>:17:                                     ; preds = %15
  br label %65

; <label>:18:                                     ; preds = %15
  %19 = load volatile i1, i1* %4
  %20 = load volatile i1, i1* %3
  %21 = xor i1 %19, true
  %22 = xor i1 %20, true
  %23 = xor i1 true, true
  %24 = and i1 %21, true
  %25 = and i1 %19, %23
  %26 = and i1 %22, true
  %27 = and i1 %20, %23
  %28 = or i1 %24, %25
  %29 = or i1 %26, %27
  %30 = xor i1 %28, %29
  %31 = or i1 %21, %22
  %32 = xor i1 %31, true
  %33 = or i1 true, %23
  %34 = and i1 %32, %33
  %35 = or i1 %30, %34
  %36 = or i1 %19, %20
  %37 = select i1 %35, i32 -430161321, i32 -851859531
  store i32 %37, i32* %14
  br label %65

; <label>:38:                                     ; preds = %15
  %39 = alloca %"struct.std::_Vector_base"*, align 8
  store %"struct.std::_Vector_base"* %0, %"struct.std::_Vector_base"** %39, align 8
  %40 = load %"struct.std::_Vector_base"*, %"struct.std::_Vector_base"** %39, align 8
  %41 = getelementptr inbounds %"struct.std::_Vector_base", %"struct.std::_Vector_base"* %40, i32 0, i32 0
  %42 = bitcast %"struct.std::_Vector_base<int, std::allocator<int> >::_Vector_impl"* %41 to %"class.std::allocator"*
  store %"class.std::allocator"* %42, %"class.std::allocator"** %2
  %43 = load i32, i32* @x.47
  %44 = load i32, i32* @y.48
  %45 = add i32 %43, 1017815593
  %46 = sub i32 %45, 1
  %47 = sub i32 %46, 1017815593
  %48 = sub i32 %43, 1
  %49 = mul i32 %43, %47
  %50 = urem i32 %49, 2
  %51 = icmp eq i32 %50, 0
  %52 = icmp slt i32 %44, 10
  %53 = and i1 %51, %52
  %54 = xor i1 %51, %52
  %55 = or i1 %53, %54
  %56 = or i1 %51, %52
  %57 = select i1 %55, i32 -1426172809, i32 -851859531
  store i32 %57, i32* %14
  br label %65

; <label>:58:                                     ; preds = %15
  %59 = load volatile %"class.std::allocator"*, %"class.std::allocator"** %2
  ret %"class.std::allocator"* %59

; <label>:60:                                     ; preds = %15
  %61 = alloca %"struct.std::_Vector_base"*, align 8
  store %"struct.std::_Vector_base"* %0, %"struct.std::_Vector_base"** %61, align 8
  %62 = load %"struct.std::_Vector_base"*, %"struct.std::_Vector_base"** %61, align 8
  %63 = getelementptr inbounds %"struct.std::_Vector_base", %"struct.std::_Vector_base"* %62, i32 0, i32 0
  %64 = bitcast %"struct.std::_Vector_base<int, std::allocator<int> >::_Vector_impl"* %63 to %"class.std::allocator"*
  store i32 -430161321, i32* %14
  br label %65

; <label>:65:                                     ; preds = %60, %38, %18, %17
  br label %15
}

; Function Attrs: noinline nounwind uwtable
define linkonce_odr void @_ZNSt12_Vector_baseIiSaIiEED2Ev(%"struct.std::_Vector_base"*) unnamed_addr #4 comdat align 2 personality i8* bitcast (i32 (...)* @__gxx_personality_v0 to i8*) {
  %2 = load i32, i32* @x.49
  %3 = load i32, i32* @y.50
  %4 = sub i32 %2, 1673016399
  %5 = sub i32 %4, 1
  %6 = add i32 %5, 1673016399
  %7 = sub i32 %2, 1
  %8 = mul i32 %2, %6
  %9 = urem i32 %8, 2
  %10 = icmp eq i32 %9, 0
  %11 = icmp slt i32 %3, 10
  %12 = and i1 %10, %11
  %13 = xor i1 %10, %11
  %14 = or i1 %12, %13
  %15 = or i1 %10, %11
  br i1 %14, label %16, label %102

; <label>:16:                                     ; preds = %1, %102
  %17 = alloca %"struct.std::_Vector_base"*, align 8
  %18 = alloca i8*
  %19 = alloca i32
  store %"struct.std::_Vector_base"* %0, %"struct.std::_Vector_base"** %17, align 8
  %20 = load %"struct.std::_Vector_base"*, %"struct.std::_Vector_base"** %17, align 8
  %21 = getelementptr inbounds %"struct.std::_Vector_base", %"struct.std::_Vector_base"* %20, i32 0, i32 0
  %22 = getelementptr inbounds %"struct.std::_Vector_base<int, std::allocator<int> >::_Vector_impl", %"struct.std::_Vector_base<int, std::allocator<int> >::_Vector_impl"* %21, i32 0, i32 0
  %23 = load i32*, i32** %22, align 8
  %24 = getelementptr inbounds %"struct.std::_Vector_base", %"struct.std::_Vector_base"* %20, i32 0, i32 0
  %25 = getelementptr inbounds %"struct.std::_Vector_base<int, std::allocator<int> >::_Vector_impl", %"struct.std::_Vector_base<int, std::allocator<int> >::_Vector_impl"* %24, i32 0, i32 2
  %26 = load i32*, i32** %25, align 8
  %27 = getelementptr inbounds %"struct.std::_Vector_base", %"struct.std::_Vector_base"* %20, i32 0, i32 0
  %28 = getelementptr inbounds %"struct.std::_Vector_base<int, std::allocator<int> >::_Vector_impl", %"struct.std::_Vector_base<int, std::allocator<int> >::_Vector_impl"* %27, i32 0, i32 0
  %29 = load i32*, i32** %28, align 8
  %30 = ptrtoint i32* %26 to i64
  %31 = ptrtoint i32* %29 to i64
  %32 = sub i64 %30, 8875630718035526048
  %33 = sub i64 %32, %31
  %34 = add i64 %33, 8875630718035526048
  %35 = sub i64 %30, %31
  %36 = sdiv exact i64 %34, 4
  %37 = load i32, i32* @x.49
  %38 = load i32, i32* @y.50
  %39 = sub i32 0, 1
  %40 = add i32 %37, %39
  %41 = sub i32 %37, 1
  %42 = mul i32 %37, %40
  %43 = urem i32 %42, 2
  %44 = icmp eq i32 %43, 0
  %45 = icmp slt i32 %38, 10
  %46 = xor i1 %44, true
  %47 = xor i1 %45, true
  %48 = xor i1 false, true
  %49 = and i1 %46, false
  %50 = and i1 %44, %48
  %51 = and i1 %47, false
  %52 = and i1 %45, %48
  %53 = or i1 %49, %50
  %54 = or i1 %51, %52
  %55 = xor i1 %53, %54
  %56 = or i1 %46, %47
  %57 = xor i1 %56, true
  %58 = or i1 false, %48
  %59 = and i1 %57, %58
  %60 = or i1 %55, %59
  %61 = or i1 %44, %45
  br i1 %60, label %62, label %102

; <label>:62:                                     ; preds = %16
  invoke void @_ZNSt12_Vector_baseIiSaIiEE13_M_deallocateEPim(%"struct.std::_Vector_base"* %20, i32* %23, i64 %36)
          to label %63 unwind label %65

; <label>:63:                                     ; preds = %62
  %64 = getelementptr inbounds %"struct.std::_Vector_base", %"struct.std::_Vector_base"* %20, i32 0, i32 0
  call void @_ZNSt12_Vector_baseIiSaIiEE12_Vector_implD2Ev(%"struct.std::_Vector_base<int, std::allocator<int> >::_Vector_impl"* %64) #3
  ret void

; <label>:65:                                     ; preds = %62
  %66 = load i32, i32* @x.49
  %67 = load i32, i32* @y.50
  %68 = sub i32 %66, -291366329
  %69 = sub i32 %68, 1
  %70 = add i32 %69, -291366329
  %71 = sub i32 %66, 1
  %72 = mul i32 %66, %70
  %73 = urem i32 %72, 2
  %74 = icmp eq i32 %73, 0
  %75 = icmp slt i32 %67, 10
  %76 = and i1 %74, %75
  %77 = xor i1 %74, %75
  %78 = or i1 %76, %77
  %79 = or i1 %74, %75
  br i1 %78, label %80, label %140

; <label>:80:                                     ; preds = %65, %140
  %81 = landingpad { i8*, i32 }
          catch i8* null
  %82 = extractvalue { i8*, i32 } %81, 0
  store i8* %82, i8** %18, align 8
  %83 = extractvalue { i8*, i32 } %81, 1
  store i32 %83, i32* %19, align 4
  %84 = getelementptr inbounds %"struct.std::_Vector_base", %"struct.std::_Vector_base"* %20, i32 0, i32 0
  call void @_ZNSt12_Vector_baseIiSaIiEE12_Vector_implD2Ev(%"struct.std::_Vector_base<int, std::allocator<int> >::_Vector_impl"* %84) #3
  %85 = load i32, i32* @x.49
  %86 = load i32, i32* @y.50
  %87 = add i32 %85, 1253916652
  %88 = sub i32 %87, 1
  %89 = sub i32 %88, 1253916652
  %90 = sub i32 %85, 1
  %91 = mul i32 %85, %89
  %92 = urem i32 %91, 2
  %93 = icmp eq i32 %92, 0
  %94 = icmp slt i32 %86, 10
  %95 = and i1 %93, %94
  %96 = xor i1 %93, %94
  %97 = or i1 %95, %96
  %98 = or i1 %93, %94
  br i1 %97, label %99, label %140

; <label>:99:                                     ; preds = %80
  br label %100

; <label>:100:                                    ; preds = %99
  %101 = load i8*, i8** %18, align 8
  call void @__clang_call_terminate(i8* %101) #12
  unreachable

; <label>:102:                                    ; preds = %16, %1
  %103 = alloca %"struct.std::_Vector_base"*, align 8
  %104 = alloca i8*
  %105 = alloca i32
  store %"struct.std::_Vector_base"* %0, %"struct.std::_Vector_base"** %103, align 8
  %106 = load %"struct.std::_Vector_base"*, %"struct.std::_Vector_base"** %103, align 8
  %107 = getelementptr inbounds %"struct.std::_Vector_base", %"struct.std::_Vector_base"* %106, i32 0, i32 0
  %108 = getelementptr inbounds %"struct.std::_Vector_base<int, std::allocator<int> >::_Vector_impl", %"struct.std::_Vector_base<int, std::allocator<int> >::_Vector_impl"* %107, i32 0, i32 0
  %109 = load i32*, i32** %108, align 8
  %110 = getelementptr inbounds %"struct.std::_Vector_base", %"struct.std::_Vector_base"* %106, i32 0, i32 0
  %111 = getelementptr inbounds %"struct.std::_Vector_base<int, std::allocator<int> >::_Vector_impl", %"struct.std::_Vector_base<int, std::allocator<int> >::_Vector_impl"* %110, i32 0, i32 2
  %112 = load i32*, i32** %111, align 8
  %113 = getelementptr inbounds %"struct.std::_Vector_base", %"struct.std::_Vector_base"* %106, i32 0, i32 0
  %114 = getelementptr inbounds %"struct.std::_Vector_base<int, std::allocator<int> >::_Vector_impl", %"struct.std::_Vector_base<int, std::allocator<int> >::_Vector_impl"* %113, i32 0, i32 0
  %115 = load i32*, i32** %114, align 8
  %116 = ptrtoint i32* %112 to i64
  %117 = ptrtoint i32* %115 to i64
  %118 = shl i64 %116, %117
  %119 = add i64 %116, -5423780416716435553
  %120 = sub i64 %119, %117
  %121 = sub i64 %120, -5423780416716435553
  %122 = sub i64 %116, %117
  %123 = sub i64 %121, -1453717916088685263
  %124 = sub i64 %123, 4
  %125 = add i64 %124, -1453717916088685263
  %126 = sub i64 %121, 4
  %127 = mul i64 %125, 4
  %128 = sub i64 %121, 1361085219559837703
  %129 = sub i64 %128, 4
  %130 = add i64 %129, 1361085219559837703
  %131 = sub i64 %121, 4
  %132 = mul i64 %130, 4
  %133 = shl i64 %121, 4
  %134 = add i64 %121, 3704032927380222761
  %135 = sub i64 %134, 4
  %136 = sub i64 %135, 3704032927380222761
  %137 = sub i64 %121, 4
  %138 = mul i64 %136, 4
  %139 = sdiv exact i64 %121, 4
  br label %16

; <label>:140:                                    ; preds = %80, %65
  %141 = landingpad { i8*, i32 }
          catch i8* null
  %142 = extractvalue { i8*, i32 } %141, 0
  store i8* %142, i8** %18, align 8
  %143 = extractvalue { i8*, i32 } %141, 1
  store i32 %143, i32* %19, align 4
  %144 = getelementptr inbounds %"struct.std::_Vector_base", %"struct.std::_Vector_base"* %20, i32 0, i32 0
  call void @_ZNSt12_Vector_baseIiSaIiEE12_Vector_implD2Ev(%"struct.std::_Vector_base<int, std::allocator<int> >::_Vector_impl"* %144) #3
  br label %80
}

; Function Attrs: noinline uwtable
define linkonce_odr void @_ZSt8_DestroyIPiEvT_S1_(i32*, i32*) #0 comdat {
  %3 = alloca i32*, align 8
  %4 = alloca i32*, align 8
  store i32* %0, i32** %3, align 8
  store i32* %1, i32** %4, align 8
  %5 = load i32*, i32** %3, align 8
  %6 = load i32*, i32** %4, align 8
  call void @_ZNSt12_Destroy_auxILb1EE9__destroyIPiEEvT_S3_(i32* %5, i32* %6)
  ret void
}

; Function Attrs: noinline nounwind uwtable
define linkonce_odr void @_ZNSt12_Destroy_auxILb1EE9__destroyIPiEEvT_S3_(i32*, i32*) #4 comdat align 2 {
  %3 = alloca i32*, align 8
  %4 = alloca i32*, align 8
  store i32* %0, i32** %3, align 8
  store i32* %1, i32** %4, align 8
  ret void
}

; Function Attrs: noinline uwtable
define linkonce_odr void @_ZNSt12_Vector_baseIiSaIiEE13_M_deallocateEPim(%"struct.std::_Vector_base"*, i32*, i64) #0 comdat align 2 {
  %4 = alloca i32*
  %5 = alloca %"struct.std::_Vector_base"*
  %6 = alloca %"struct.std::_Vector_base"*, align 8
  %7 = alloca i32*, align 8
  %8 = alloca i64, align 8
  store %"struct.std::_Vector_base"* %0, %"struct.std::_Vector_base"** %6, align 8
  store i32* %1, i32** %7, align 8
  store i64 %2, i64* %8, align 8
  %9 = load %"struct.std::_Vector_base"*, %"struct.std::_Vector_base"** %6, align 8
  store %"struct.std::_Vector_base"* %9, %"struct.std::_Vector_base"** %5
  %10 = load i32*, i32** %7, align 8
  store i32* %10, i32** %4
  %11 = alloca i32
  store i32 1589796188, i32* %11
  br label %12

; <label>:12:                                     ; preds = %3, %120
  %13 = load i32, i32* %11
  switch i32 %13, label %14 [
    i32 1589796188, label %15
    i32 -1418862201, label %19
    i32 -701567274, label %47
    i32 193493257, label %80
    i32 -367931806, label %81
    i32 -2065873493, label %97
    i32 -1478175752, label %112
    i32 1729716443, label %113
    i32 1720224445, label %119
  ]

; <label>:14:                                     ; preds = %12
  br label %120

; <label>:15:                                     ; preds = %12
  %16 = load volatile i32*, i32** %4
  %17 = icmp ne i32* %16, null
  %18 = select i1 %17, i32 -1418862201, i32 -367931806
  store i32 %18, i32* %11
  br label %120

; <label>:19:                                     ; preds = %12
  %20 = load i32, i32* @x.55
  %21 = load i32, i32* @y.56
  %22 = sub i32 %20, 388712484
  %23 = sub i32 %22, 1
  %24 = add i32 %23, 388712484
  %25 = sub i32 %20, 1
  %26 = mul i32 %20, %24
  %27 = urem i32 %26, 2
  %28 = icmp eq i32 %27, 0
  %29 = icmp slt i32 %21, 10
  %30 = xor i1 %28, true
  %31 = xor i1 %29, true
  %32 = xor i1 true, true
  %33 = and i1 %30, true
  %34 = and i1 %28, %32
  %35 = and i1 %31, true
  %36 = and i1 %29, %32
  %37 = or i1 %33, %34
  %38 = or i1 %35, %36
  %39 = xor i1 %37, %38
  %40 = or i1 %30, %31
  %41 = xor i1 %40, true
  %42 = or i1 true, %32
  %43 = and i1 %41, %42
  %44 = or i1 %39, %43
  %45 = or i1 %28, %29
  %46 = select i1 %44, i32 -701567274, i32 1729716443
  store i32 %46, i32* %11
  br label %120

; <label>:47:                                     ; preds = %12
  %48 = load volatile %"struct.std::_Vector_base"*, %"struct.std::_Vector_base"** %5
  %49 = getelementptr inbounds %"struct.std::_Vector_base", %"struct.std::_Vector_base"* %48, i32 0, i32 0
  %50 = bitcast %"struct.std::_Vector_base<int, std::allocator<int> >::_Vector_impl"* %49 to %"class.std::allocator"*
  %51 = load i32*, i32** %7, align 8
  %52 = load i64, i64* %8, align 8
  call void @_ZNSt16allocator_traitsISaIiEE10deallocateERS0_Pim(%"class.std::allocator"* dereferenceable(1) %50, i32* %51, i64 %52)
  %53 = load i32, i32* @x.55
  %54 = load i32, i32* @y.56
  %55 = sub i32 %53, -2024169994
  %56 = sub i32 %55, 1
  %57 = add i32 %56, -2024169994
  %58 = sub i32 %53, 1
  %59 = mul i32 %53, %57
  %60 = urem i32 %59, 2
  %61 = icmp eq i32 %60, 0
  %62 = icmp slt i32 %54, 10
  %63 = xor i1 %61, true
  %64 = xor i1 %62, true
  %65 = xor i1 true, true
  %66 = and i1 %63, true
  %67 = and i1 %61, %65
  %68 = and i1 %64, true
  %69 = and i1 %62, %65
  %70 = or i1 %66, %67
  %71 = or i1 %68, %69
  %72 = xor i1 %70, %71
  %73 = or i1 %63, %64
  %74 = xor i1 %73, true
  %75 = or i1 true, %65
  %76 = and i1 %74, %75
  %77 = or i1 %72, %76
  %78 = or i1 %61, %62
  %79 = select i1 %77, i32 193493257, i32 1729716443
  store i32 %79, i32* %11
  br label %120

; <label>:80:                                     ; preds = %12
  store i32 -367931806, i32* %11
  br label %120

; <label>:81:                                     ; preds = %12
  %82 = load i32, i32* @x.55
  %83 = load i32, i32* @y.56
  %84 = add i32 %82, 660894267
  %85 = sub i32 %84, 1
  %86 = sub i32 %85, 660894267
  %87 = sub i32 %82, 1
  %88 = mul i32 %82, %86
  %89 = urem i32 %88, 2
  %90 = icmp eq i32 %89, 0
  %91 = icmp slt i32 %83, 10
  %92 = and i1 %90, %91
  %93 = xor i1 %90, %91
  %94 = or i1 %92, %93
  %95 = or i1 %90, %91
  %96 = select i1 %94, i32 -2065873493, i32 1720224445
  store i32 %96, i32* %11
  br label %120

; <label>:97:                                     ; preds = %12
  %98 = load i32, i32* @x.55
  %99 = load i32, i32* @y.56
  %100 = sub i32 0, 1
  %101 = add i32 %98, %100
  %102 = sub i32 %98, 1
  %103 = mul i32 %98, %101
  %104 = urem i32 %103, 2
  %105 = icmp eq i32 %104, 0
  %106 = icmp slt i32 %99, 10
  %107 = and i1 %105, %106
  %108 = xor i1 %105, %106
  %109 = or i1 %107, %108
  %110 = or i1 %105, %106
  %111 = select i1 %109, i32 -1478175752, i32 1720224445
  store i32 %111, i32* %11
  br label %120

; <label>:112:                                    ; preds = %12
  ret void

; <label>:113:                                    ; preds = %12
  %114 = load volatile %"struct.std::_Vector_base"*, %"struct.std::_Vector_base"** %5
  %115 = getelementptr inbounds %"struct.std::_Vector_base", %"struct.std::_Vector_base"* %114, i32 0, i32 0
  %116 = bitcast %"struct.std::_Vector_base<int, std::allocator<int> >::_Vector_impl"* %115 to %"class.std::allocator"*
  %117 = load i32*, i32** %7, align 8
  %118 = load i64, i64* %8, align 8
  call void @_ZNSt16allocator_traitsISaIiEE10deallocateERS0_Pim(%"class.std::allocator"* dereferenceable(1) %116, i32* %117, i64 %118)
  store i32 -701567274, i32* %11
  br label %120

; <label>:119:                                    ; preds = %12
  store i32 -2065873493, i32* %11
  br label %120

; <label>:120:                                    ; preds = %119, %113, %97, %81, %80, %47, %19, %15, %14
  br label %12
}

; Function Attrs: noinline nounwind uwtable
define linkonce_odr void @_ZNSt12_Vector_baseIiSaIiEE12_Vector_implD2Ev(%"struct.std::_Vector_base<int, std::allocator<int> >::_Vector_impl"*) unnamed_addr #4 comdat align 2 {
  %2 = alloca i1
  %3 = alloca i1
  %4 = load i32, i32* @x.57
  %5 = load i32, i32* @y.58
  %6 = sub i32 %4, -2069026573
  %7 = sub i32 %6, 1
  %8 = add i32 %7, -2069026573
  %9 = sub i32 %4, 1
  %10 = mul i32 %4, %8
  %11 = urem i32 %10, 2
  %12 = icmp eq i32 %11, 0
  store i1 %12, i1* %3
  %13 = icmp slt i32 %5, 10
  store i1 %13, i1* %2
  %14 = alloca i32
  store i32 -335584796, i32* %14
  br label %15

; <label>:15:                                     ; preds = %1, %49
  %16 = load i32, i32* %14
  switch i32 %16, label %17 [
    i32 -335584796, label %18
    i32 -1906370619, label %26
    i32 446007982, label %44
    i32 604456889, label %45
  ]

; <label>:17:                                     ; preds = %15
  br label %49

; <label>:18:                                     ; preds = %15
  %19 = load volatile i1, i1* %3
  %20 = load volatile i1, i1* %2
  %21 = and i1 %19, %20
  %22 = xor i1 %19, %20
  %23 = or i1 %21, %22
  %24 = or i1 %19, %20
  %25 = select i1 %23, i32 -1906370619, i32 604456889
  store i32 %25, i32* %14
  br label %49

; <label>:26:                                     ; preds = %15
  %27 = alloca %"struct.std::_Vector_base<int, std::allocator<int> >::_Vector_impl"*, align 8
  store %"struct.std::_Vector_base<int, std::allocator<int> >::_Vector_impl"* %0, %"struct.std::_Vector_base<int, std::allocator<int> >::_Vector_impl"** %27, align 8
  %28 = load %"struct.std::_Vector_base<int, std::allocator<int> >::_Vector_impl"*, %"struct.std::_Vector_base<int, std::allocator<int> >::_Vector_impl"** %27, align 8
  %29 = bitcast %"struct.std::_Vector_base<int, std::allocator<int> >::_Vector_impl"* %28 to %"class.std::allocator"*
  call void @_ZNSaIiED2Ev(%"class.std::allocator"* %29) #3
  %30 = load i32, i32* @x.57
  %31 = load i32, i32* @y.58
  %32 = sub i32 0, 1
  %33 = add i32 %30, %32
  %34 = sub i32 %30, 1
  %35 = mul i32 %30, %33
  %36 = urem i32 %35, 2
  %37 = icmp eq i32 %36, 0
  %38 = icmp slt i32 %31, 10
  %39 = and i1 %37, %38
  %40 = xor i1 %37, %38
  %41 = or i1 %39, %40
  %42 = or i1 %37, %38
  %43 = select i1 %41, i32 446007982, i32 604456889
  store i32 %43, i32* %14
  br label %49

; <label>:44:                                     ; preds = %15
  ret void

; <label>:45:                                     ; preds = %15
  %46 = alloca %"struct.std::_Vector_base<int, std::allocator<int> >::_Vector_impl"*, align 8
  store %"struct.std::_Vector_base<int, std::allocator<int> >::_Vector_impl"* %0, %"struct.std::_Vector_base<int, std::allocator<int> >::_Vector_impl"** %46, align 8
  %47 = load %"struct.std::_Vector_base<int, std::allocator<int> >::_Vector_impl"*, %"struct.std::_Vector_base<int, std::allocator<int> >::_Vector_impl"** %46, align 8
  %48 = bitcast %"struct.std::_Vector_base<int, std::allocator<int> >::_Vector_impl"* %47 to %"class.std::allocator"*
  call void @_ZNSaIiED2Ev(%"class.std::allocator"* %48) #3
  store i32 -1906370619, i32* %14
  br label %49

; <label>:49:                                     ; preds = %45, %26, %18, %17
  br label %15
}

; Function Attrs: noinline uwtable
define linkonce_odr void @_ZNSt16allocator_traitsISaIiEE10deallocateERS0_Pim(%"class.std::allocator"* dereferenceable(1), i32*, i64) #0 comdat align 2 {
  %4 = alloca %"class.std::allocator"*, align 8
  %5 = alloca i32*, align 8
  %6 = alloca i64, align 8
  store %"class.std::allocator"* %0, %"class.std::allocator"** %4, align 8
  store i32* %1, i32** %5, align 8
  store i64 %2, i64* %6, align 8
  %7 = load %"class.std::allocator"*, %"class.std::allocator"** %4, align 8
  %8 = bitcast %"class.std::allocator"* %7 to %"class.__gnu_cxx::new_allocator"*
  %9 = load i32*, i32** %5, align 8
  %10 = load i64, i64* %6, align 8
  call void @_ZN9__gnu_cxx13new_allocatorIiE10deallocateEPim(%"class.__gnu_cxx::new_allocator"* %8, i32* %9, i64 %10)
  ret void
}

; Function Attrs: noinline nounwind uwtable
define linkonce_odr void @_ZN9__gnu_cxx13new_allocatorIiE10deallocateEPim(%"class.__gnu_cxx::new_allocator"*, i32*, i64) #4 comdat align 2 {
  %4 = alloca i1
  %5 = alloca i1
  %6 = load i32, i32* @x.61
  %7 = load i32, i32* @y.62
  %8 = sub i32 %6, 1117512833
  %9 = sub i32 %8, 1
  %10 = add i32 %9, 1117512833
  %11 = sub i32 %6, 1
  %12 = mul i32 %6, %10
  %13 = urem i32 %12, 2
  %14 = icmp eq i32 %13, 0
  store i1 %14, i1* %5
  %15 = icmp slt i32 %7, 10
  store i1 %15, i1* %4
  %16 = alloca i32
  store i32 -559496714, i32* %16
  br label %17

; <label>:17:                                     ; preds = %3, %81
  %18 = load i32, i32* %16
  switch i32 %18, label %19 [
    i32 -559496714, label %20
    i32 352583146, label %40
    i32 -1602114620, label %73
    i32 -795888955, label %74
  ]

; <label>:19:                                     ; preds = %17
  br label %81

; <label>:20:                                     ; preds = %17
  %21 = load volatile i1, i1* %5
  %22 = load volatile i1, i1* %4
  %23 = xor i1 %21, true
  %24 = xor i1 %22, true
  %25 = xor i1 true, true
  %26 = and i1 %23, true
  %27 = and i1 %21, %25
  %28 = and i1 %24, true
  %29 = and i1 %22, %25
  %30 = or i1 %26, %27
  %31 = or i1 %28, %29
  %32 = xor i1 %30, %31
  %33 = or i1 %23, %24
  %34 = xor i1 %33, true
  %35 = or i1 true, %25
  %36 = and i1 %34, %35
  %37 = or i1 %32, %36
  %38 = or i1 %21, %22
  %39 = select i1 %37, i32 352583146, i32 -795888955
  store i32 %39, i32* %16
  br label %81

; <label>:40:                                     ; preds = %17
  %41 = alloca %"class.__gnu_cxx::new_allocator"*, align 8
  %42 = alloca i32*, align 8
  %43 = alloca i64, align 8
  store %"class.__gnu_cxx::new_allocator"* %0, %"class.__gnu_cxx::new_allocator"** %41, align 8
  store i32* %1, i32** %42, align 8
  store i64 %2, i64* %43, align 8
  %44 = load %"class.__gnu_cxx::new_allocator"*, %"class.__gnu_cxx::new_allocator"** %41, align 8
  %45 = load i32*, i32** %42, align 8
  %46 = bitcast i32* %45 to i8*
  call void @_ZdlPv(i8* %46) #3
  %47 = load i32, i32* @x.61
  %48 = load i32, i32* @y.62
  %49 = sub i32 0, 1
  %50 = add i32 %47, %49
  %51 = sub i32 %47, 1
  %52 = mul i32 %47, %50
  %53 = urem i32 %52, 2
  %54 = icmp eq i32 %53, 0
  %55 = icmp slt i32 %48, 10
  %56 = xor i1 %54, true
  %57 = xor i1 %55, true
  %58 = xor i1 true, true
  %59 = and i1 %56, true
  %60 = and i1 %54, %58
  %61 = and i1 %57, true
  %62 = and i1 %55, %58
  %63 = or i1 %59, %60
  %64 = or i1 %61, %62
  %65 = xor i1 %63, %64
  %66 = or i1 %56, %57
  %67 = xor i1 %66, true
  %68 = or i1 true, %58
  %69 = and i1 %67, %68
  %70 = or i1 %65, %69
  %71 = or i1 %54, %55
  %72 = select i1 %70, i32 -1602114620, i32 -795888955
  store i32 %72, i32* %16
  br label %81

; <label>:73:                                     ; preds = %17
  ret void

; <label>:74:                                     ; preds = %17
  %75 = alloca %"class.__gnu_cxx::new_allocator"*, align 8
  %76 = alloca i32*, align 8
  %77 = alloca i64, align 8
  store %"class.__gnu_cxx::new_allocator"* %0, %"class.__gnu_cxx::new_allocator"** %75, align 8
  store i32* %1, i32** %76, align 8
  store i64 %2, i64* %77, align 8
  %78 = load %"class.__gnu_cxx::new_allocator"*, %"class.__gnu_cxx::new_allocator"** %75, align 8
  %79 = load i32*, i32** %76, align 8
  %80 = bitcast i32* %79 to i8*
  call void @_ZdlPv(i8* %80) #3
  store i32 352583146, i32* %16
  br label %81

; <label>:81:                                     ; preds = %74, %40, %20, %19
  br label %17
}

; Function Attrs: nobuiltin nounwind
declare void @_ZdlPv(i8*) #8

; Function Attrs: noinline nounwind uwtable
define linkonce_odr void @_ZNSaIiED2Ev(%"class.std::allocator"*) unnamed_addr #4 comdat align 2 {
  %2 = alloca i1
  %3 = alloca i1
  %4 = load i32, i32* @x.63
  %5 = load i32, i32* @y.64
  %6 = sub i32 0, 1
  %7 = add i32 %4, %6
  %8 = sub i32 %4, 1
  %9 = mul i32 %4, %7
  %10 = urem i32 %9, 2
  %11 = icmp eq i32 %10, 0
  store i1 %11, i1* %3
  %12 = icmp slt i32 %5, 10
  store i1 %12, i1* %2
  %13 = alloca i32
  store i32 1744140139, i32* %13
  br label %14

; <label>:14:                                     ; preds = %1, %60
  %15 = load i32, i32* %13
  switch i32 %15, label %16 [
    i32 1744140139, label %17
    i32 -234903979, label %25
    i32 -1820773164, label %55
    i32 -1369915963, label %56
  ]

; <label>:16:                                     ; preds = %14
  br label %60

; <label>:17:                                     ; preds = %14
  %18 = load volatile i1, i1* %3
  %19 = load volatile i1, i1* %2
  %20 = and i1 %18, %19
  %21 = xor i1 %18, %19
  %22 = or i1 %20, %21
  %23 = or i1 %18, %19
  %24 = select i1 %22, i32 -234903979, i32 -1369915963
  store i32 %24, i32* %13
  br label %60

; <label>:25:                                     ; preds = %14
  %26 = alloca %"class.std::allocator"*, align 8
  store %"class.std::allocator"* %0, %"class.std::allocator"** %26, align 8
  %27 = load %"class.std::allocator"*, %"class.std::allocator"** %26, align 8
  %28 = bitcast %"class.std::allocator"* %27 to %"class.__gnu_cxx::new_allocator"*
  call void @_ZN9__gnu_cxx13new_allocatorIiED2Ev(%"class.__gnu_cxx::new_allocator"* %28) #3
  %29 = load i32, i32* @x.63
  %30 = load i32, i32* @y.64
  %31 = sub i32 0, 1
  %32 = add i32 %29, %31
  %33 = sub i32 %29, 1
  %34 = mul i32 %29, %32
  %35 = urem i32 %34, 2
  %36 = icmp eq i32 %35, 0
  %37 = icmp slt i32 %30, 10
  %38 = xor i1 %36, true
  %39 = xor i1 %37, true
  %40 = xor i1 false, true
  %41 = and i1 %38, false
  %42 = and i1 %36, %40
  %43 = and i1 %39, false
  %44 = and i1 %37, %40
  %45 = or i1 %41, %42
  %46 = or i1 %43, %44
  %47 = xor i1 %45, %46
  %48 = or i1 %38, %39
  %49 = xor i1 %48, true
  %50 = or i1 false, %40
  %51 = and i1 %49, %50
  %52 = or i1 %47, %51
  %53 = or i1 %36, %37
  %54 = select i1 %52, i32 -1820773164, i32 -1369915963
  store i32 %54, i32* %13
  br label %60

; <label>:55:                                     ; preds = %14
  ret void

; <label>:56:                                     ; preds = %14
  %57 = alloca %"class.std::allocator"*, align 8
  store %"class.std::allocator"* %0, %"class.std::allocator"** %57, align 8
  %58 = load %"class.std::allocator"*, %"class.std::allocator"** %57, align 8
  %59 = bitcast %"class.std::allocator"* %58 to %"class.__gnu_cxx::new_allocator"*
  call void @_ZN9__gnu_cxx13new_allocatorIiED2Ev(%"class.__gnu_cxx::new_allocator"* %59) #3
  store i32 -234903979, i32* %13
  br label %60

; <label>:60:                                     ; preds = %56, %25, %17, %16
  br label %14
}

; Function Attrs: noinline nounwind uwtable
define linkonce_odr void @_ZN9__gnu_cxx13new_allocatorIiED2Ev(%"class.__gnu_cxx::new_allocator"*) unnamed_addr #4 comdat align 2 {
  %2 = alloca i1
  %3 = alloca i1
  %4 = load i32, i32* @x.65
  %5 = load i32, i32* @y.66
  %6 = sub i32 %4, 1993559781
  %7 = sub i32 %6, 1
  %8 = add i32 %7, 1993559781
  %9 = sub i32 %4, 1
  %10 = mul i32 %4, %8
  %11 = urem i32 %10, 2
  %12 = icmp eq i32 %11, 0
  store i1 %12, i1* %3
  %13 = icmp slt i32 %5, 10
  store i1 %13, i1* %2
  %14 = alloca i32
  store i32 366366099, i32* %14
  br label %15

; <label>:15:                                     ; preds = %1, %47
  %16 = load i32, i32* %14
  switch i32 %16, label %17 [
    i32 366366099, label %18
    i32 -1513644858, label %26
    i32 211854947, label %43
    i32 484656574, label %44
  ]

; <label>:17:                                     ; preds = %15
  br label %47

; <label>:18:                                     ; preds = %15
  %19 = load volatile i1, i1* %3
  %20 = load volatile i1, i1* %2
  %21 = and i1 %19, %20
  %22 = xor i1 %19, %20
  %23 = or i1 %21, %22
  %24 = or i1 %19, %20
  %25 = select i1 %23, i32 -1513644858, i32 484656574
  store i32 %25, i32* %14
  br label %47

; <label>:26:                                     ; preds = %15
  %27 = alloca %"class.__gnu_cxx::new_allocator"*, align 8
  store %"class.__gnu_cxx::new_allocator"* %0, %"class.__gnu_cxx::new_allocator"** %27, align 8
  %28 = load %"class.__gnu_cxx::new_allocator"*, %"class.__gnu_cxx::new_allocator"** %27, align 8
  %29 = load i32, i32* @x.65
  %30 = load i32, i32* @y.66
  %31 = sub i32 0, 1
  %32 = add i32 %29, %31
  %33 = sub i32 %29, 1
  %34 = mul i32 %29, %32
  %35 = urem i32 %34, 2
  %36 = icmp eq i32 %35, 0
  %37 = icmp slt i32 %30, 10
  %38 = and i1 %36, %37
  %39 = xor i1 %36, %37
  %40 = or i1 %38, %39
  %41 = or i1 %36, %37
  %42 = select i1 %40, i32 211854947, i32 484656574
  store i32 %42, i32* %14
  br label %47

; <label>:43:                                     ; preds = %15
  ret void

; <label>:44:                                     ; preds = %15
  %45 = alloca %"class.__gnu_cxx::new_allocator"*, align 8
  store %"class.__gnu_cxx::new_allocator"* %0, %"class.__gnu_cxx::new_allocator"** %45, align 8
  %46 = load %"class.__gnu_cxx::new_allocator"*, %"class.__gnu_cxx::new_allocator"** %45, align 8
  store i32 -1513644858, i32* %14
  br label %47

; <label>:47:                                     ; preds = %44, %26, %18, %17
  br label %15
}

; Function Attrs: noinline uwtable
define linkonce_odr void @_ZNSt16allocator_traitsISaIiEE9constructIiJRKiEEEvRS0_PT_DpOT0_(%"class.std::allocator"* dereferenceable(1), i32*, i32* dereferenceable(4)) #0 comdat align 2 {
  %4 = alloca %"class.std::allocator"*, align 8
  %5 = alloca i32*, align 8
  %6 = alloca i32*, align 8
  store %"class.std::allocator"* %0, %"class.std::allocator"** %4, align 8
  store i32* %1, i32** %5, align 8
  store i32* %2, i32** %6, align 8
  %7 = load %"class.std::allocator"*, %"class.std::allocator"** %4, align 8
  %8 = bitcast %"class.std::allocator"* %7 to %"class.__gnu_cxx::new_allocator"*
  %9 = load i32*, i32** %5, align 8
  %10 = load i32*, i32** %6, align 8
  %11 = call dereferenceable(4) i32* @_ZSt7forwardIRKiEOT_RNSt16remove_referenceIS2_E4typeE(i32* dereferenceable(4) %10) #3
  call void @_ZN9__gnu_cxx13new_allocatorIiE9constructIiJRKiEEEvPT_DpOT0_(%"class.__gnu_cxx::new_allocator"* %8, i32* %9, i32* dereferenceable(4) %11)
  ret void
}

; Function Attrs: noinline uwtable
define linkonce_odr void @_ZNSt6vectorIiSaIiEE19_M_emplace_back_auxIJRKiEEEvDpOT_(%"class.std::vector"*, i32* dereferenceable(4)) #0 comdat align 2 personality i8* bitcast (i32 (...)* @__gxx_personality_v0 to i8*) {
  %3 = load i32, i32* @x.69
  %4 = load i32, i32* @y.70
  %5 = sub i32 %3, -929826608
  %6 = sub i32 %5, 1
  %7 = add i32 %6, -929826608
  %8 = sub i32 %3, 1
  %9 = mul i32 %3, %7
  %10 = urem i32 %9, 2
  %11 = icmp eq i32 %10, 0
  %12 = icmp slt i32 %4, 10
  %13 = and i1 %11, %12
  %14 = xor i1 %11, %12
  %15 = or i1 %13, %14
  %16 = or i1 %11, %12
  br i1 %15, label %17, label %446

; <label>:17:                                     ; preds = %2, %446
  %18 = alloca %"class.std::vector"*, align 8
  %19 = alloca i32*, align 8
  %20 = alloca i64, align 8
  %21 = alloca i32*, align 8
  %22 = alloca i32*, align 8
  %23 = alloca i8*
  %24 = alloca i32
  store %"class.std::vector"* %0, %"class.std::vector"** %18, align 8
  store i32* %1, i32** %19, align 8
  %25 = load %"class.std::vector"*, %"class.std::vector"** %18, align 8
  %26 = call i64 @_ZNKSt6vectorIiSaIiEE12_M_check_lenEmPKc(%"class.std::vector"* %25, i64 1, i8* getelementptr inbounds ([28 x i8], [28 x i8]* @.str.4, i32 0, i32 0))
  store i64 %26, i64* %20, align 8
  %27 = bitcast %"class.std::vector"* %25 to %"struct.std::_Vector_base"*
  %28 = load i64, i64* %20, align 8
  %29 = call i32* @_ZNSt12_Vector_baseIiSaIiEE11_M_allocateEm(%"struct.std::_Vector_base"* %27, i64 %28)
  store i32* %29, i32** %21, align 8
  %30 = load i32*, i32** %21, align 8
  store i32* %30, i32** %22, align 8
  %31 = bitcast %"class.std::vector"* %25 to %"struct.std::_Vector_base"*
  %32 = getelementptr inbounds %"struct.std::_Vector_base", %"struct.std::_Vector_base"* %31, i32 0, i32 0
  %33 = bitcast %"struct.std::_Vector_base<int, std::allocator<int> >::_Vector_impl"* %32 to %"class.std::allocator"*
  %34 = load i32*, i32** %21, align 8
  %35 = call i64 @_ZNKSt6vectorIiSaIiEE4sizeEv(%"class.std::vector"* %25) #3
  %36 = getelementptr inbounds i32, i32* %34, i64 %35
  %37 = load i32*, i32** %19, align 8
  %38 = call dereferenceable(4) i32* @_ZSt7forwardIRKiEOT_RNSt16remove_referenceIS2_E4typeE(i32* dereferenceable(4) %37) #3
  %39 = load i32, i32* @x.69
  %40 = load i32, i32* @y.70
  %41 = add i32 %39, 942019537
  %42 = sub i32 %41, 1
  %43 = sub i32 %42, 942019537
  %44 = sub i32 %39, 1
  %45 = mul i32 %39, %43
  %46 = urem i32 %45, 2
  %47 = icmp eq i32 %46, 0
  %48 = icmp slt i32 %40, 10
  %49 = and i1 %47, %48
  %50 = xor i1 %47, %48
  %51 = or i1 %49, %50
  %52 = or i1 %47, %48
  br i1 %51, label %53, label %446

; <label>:53:                                     ; preds = %17
  invoke void @_ZNSt16allocator_traitsISaIiEE9constructIiJRKiEEEvRS0_PT_DpOT0_(%"class.std::allocator"* dereferenceable(1) %33, i32* %36, i32* dereferenceable(4) %38)
          to label %54 unwind label %100

; <label>:54:                                     ; preds = %53
  store i32* null, i32** %22, align 8
  %55 = bitcast %"class.std::vector"* %25 to %"struct.std::_Vector_base"*
  %56 = getelementptr inbounds %"struct.std::_Vector_base", %"struct.std::_Vector_base"* %55, i32 0, i32 0
  %57 = getelementptr inbounds %"struct.std::_Vector_base<int, std::allocator<int> >::_Vector_impl", %"struct.std::_Vector_base<int, std::allocator<int> >::_Vector_impl"* %56, i32 0, i32 0
  %58 = load i32*, i32** %57, align 8
  %59 = bitcast %"class.std::vector"* %25 to %"struct.std::_Vector_base"*
  %60 = getelementptr inbounds %"struct.std::_Vector_base", %"struct.std::_Vector_base"* %59, i32 0, i32 0
  %61 = getelementptr inbounds %"struct.std::_Vector_base<int, std::allocator<int> >::_Vector_impl", %"struct.std::_Vector_base<int, std::allocator<int> >::_Vector_impl"* %60, i32 0, i32 1
  %62 = load i32*, i32** %61, align 8
  %63 = load i32*, i32** %21, align 8
  %64 = bitcast %"class.std::vector"* %25 to %"struct.std::_Vector_base"*
  %65 = call dereferenceable(1) %"class.std::allocator"* @_ZNSt12_Vector_baseIiSaIiEE19_M_get_Tp_allocatorEv(%"struct.std::_Vector_base"* %64) #3
  %66 = invoke i32* @_ZSt34__uninitialized_move_if_noexcept_aIPiS0_SaIiEET0_T_S3_S2_RT1_(i32* %58, i32* %62, i32* %63, %"class.std::allocator"* dereferenceable(1) %65)
          to label %67 unwind label %100

; <label>:67:                                     ; preds = %54
  %68 = load i32, i32* @x.69
  %69 = load i32, i32* @y.70
  %70 = add i32 %68, 261796601
  %71 = sub i32 %70, 1
  %72 = sub i32 %71, 261796601
  %73 = sub i32 %68, 1
  %74 = mul i32 %68, %72
  %75 = urem i32 %74, 2
  %76 = icmp eq i32 %75, 0
  %77 = icmp slt i32 %69, 10
  %78 = and i1 %76, %77
  %79 = xor i1 %76, %77
  %80 = or i1 %78, %79
  %81 = or i1 %76, %77
  br i1 %80, label %82, label %468

; <label>:82:                                     ; preds = %67, %468
  store i32* %66, i32** %22, align 8
  %83 = load i32*, i32** %22, align 8
  %84 = getelementptr inbounds i32, i32* %83, i32 1
  store i32* %84, i32** %22, align 8
  %85 = load i32, i32* @x.69
  %86 = load i32, i32* @y.70
  %87 = add i32 %85, 149288397
  %88 = sub i32 %87, 1
  %89 = sub i32 %88, 149288397
  %90 = sub i32 %85, 1
  %91 = mul i32 %85, %89
  %92 = urem i32 %91, 2
  %93 = icmp eq i32 %92, 0
  %94 = icmp slt i32 %86, 10
  %95 = and i1 %93, %94
  %96 = xor i1 %93, %94
  %97 = or i1 %95, %96
  %98 = or i1 %93, %94
  br i1 %97, label %99, label %468

; <label>:99:                                     ; preds = %82
  br label %352

; <label>:100:                                    ; preds = %54, %53
  %101 = landingpad { i8*, i32 }
          catch i8* null
  %102 = extractvalue { i8*, i32 } %101, 0
  store i8* %102, i8** %23, align 8
  %103 = extractvalue { i8*, i32 } %101, 1
  store i32 %103, i32* %24, align 4
  br label %104

; <label>:104:                                    ; preds = %100
  %105 = load i8*, i8** %23, align 8
  %106 = call i8* @__cxa_begin_catch(i8* %105) #3
  %107 = load i32*, i32** %22, align 8
  %108 = icmp ne i32* %107, null
  br i1 %108, label %204, label %109

; <label>:109:                                    ; preds = %104
  %110 = load i32, i32* @x.69
  %111 = load i32, i32* @y.70
  %112 = add i32 %110, 365945666
  %113 = sub i32 %112, 1
  %114 = sub i32 %113, 365945666
  %115 = sub i32 %110, 1
  %116 = mul i32 %110, %114
  %117 = urem i32 %116, 2
  %118 = icmp eq i32 %117, 0
  %119 = icmp slt i32 %111, 10
  %120 = and i1 %118, %119
  %121 = xor i1 %118, %119
  %122 = or i1 %120, %121
  %123 = or i1 %118, %119
  br i1 %122, label %124, label %471

; <label>:124:                                    ; preds = %109, %471
  %125 = bitcast %"class.std::vector"* %25 to %"struct.std::_Vector_base"*
  %126 = getelementptr inbounds %"struct.std::_Vector_base", %"struct.std::_Vector_base"* %125, i32 0, i32 0
  %127 = bitcast %"struct.std::_Vector_base<int, std::allocator<int> >::_Vector_impl"* %126 to %"class.std::allocator"*
  %128 = load i32*, i32** %21, align 8
  %129 = call i64 @_ZNKSt6vectorIiSaIiEE4sizeEv(%"class.std::vector"* %25) #3
  %130 = getelementptr inbounds i32, i32* %128, i64 %129
  %131 = load i32, i32* @x.69
  %132 = load i32, i32* @y.70
  %133 = sub i32 %131, 1144312392
  %134 = sub i32 %133, 1
  %135 = add i32 %134, 1144312392
  %136 = sub i32 %131, 1
  %137 = mul i32 %131, %135
  %138 = urem i32 %137, 2
  %139 = icmp eq i32 %138, 0
  %140 = icmp slt i32 %132, 10
  %141 = xor i1 %139, true
  %142 = xor i1 %140, true
  %143 = xor i1 true, true
  %144 = and i1 %141, true
  %145 = and i1 %139, %143
  %146 = and i1 %142, true
  %147 = and i1 %140, %143
  %148 = or i1 %144, %145
  %149 = or i1 %146, %147
  %150 = xor i1 %148, %149
  %151 = or i1 %141, %142
  %152 = xor i1 %151, true
  %153 = or i1 true, %143
  %154 = and i1 %152, %153
  %155 = or i1 %150, %154
  %156 = or i1 %139, %140
  br i1 %155, label %157, label %471

; <label>:157:                                    ; preds = %124
  invoke void @_ZNSt16allocator_traitsISaIiEE7destroyIiEEvRS0_PT_(%"class.std::allocator"* dereferenceable(1) %127, i32* %130)
          to label %158 unwind label %200

; <label>:158:                                    ; preds = %157
  %159 = load i32, i32* @x.69
  %160 = load i32, i32* @y.70
  %161 = add i32 %159, -1760104364
  %162 = sub i32 %161, 1
  %163 = sub i32 %162, -1760104364
  %164 = sub i32 %159, 1
  %165 = mul i32 %159, %163
  %166 = urem i32 %165, 2
  %167 = icmp eq i32 %166, 0
  %168 = icmp slt i32 %160, 10
  %169 = xor i1 %167, true
  %170 = xor i1 %168, true
  %171 = xor i1 false, true
  %172 = and i1 %169, false
  %173 = and i1 %167, %171
  %174 = and i1 %170, false
  %175 = and i1 %168, %171
  %176 = or i1 %172, %173
  %177 = or i1 %174, %175
  %178 = xor i1 %176, %177
  %179 = or i1 %169, %170
  %180 = xor i1 %179, true
  %181 = or i1 false, %171
  %182 = and i1 %180, %181
  %183 = or i1 %178, %182
  %184 = or i1 %167, %168
  br i1 %183, label %185, label %478

; <label>:185:                                    ; preds = %158, %478
  %186 = load i32, i32* @x.69
  %187 = load i32, i32* @y.70
  %188 = sub i32 0, 1
  %189 = add i32 %186, %188
  %190 = sub i32 %186, 1
  %191 = mul i32 %186, %189
  %192 = urem i32 %191, 2
  %193 = icmp eq i32 %192, 0
  %194 = icmp slt i32 %187, 10
  %195 = and i1 %193, %194
  %196 = xor i1 %193, %194
  %197 = or i1 %195, %196
  %198 = or i1 %193, %194
  br i1 %197, label %199, label %478

; <label>:199:                                    ; preds = %185
  br label %264

; <label>:200:                                    ; preds = %350, %320, %262, %157
  %201 = landingpad { i8*, i32 }
          cleanup
  %202 = extractvalue { i8*, i32 } %201, 0
  store i8* %202, i8** %23, align 8
  %203 = extractvalue { i8*, i32 } %201, 1
  store i32 %203, i32* %24, align 4
  invoke void @__cxa_end_catch()
          to label %351 unwind label %401

; <label>:204:                                    ; preds = %104
  %205 = load i32, i32* @x.69
  %206 = load i32, i32* @y.70
  %207 = sub i32 %205, 1053466791
  %208 = sub i32 %207, 1
  %209 = add i32 %208, 1053466791
  %210 = sub i32 %205, 1
  %211 = mul i32 %205, %209
  %212 = urem i32 %211, 2
  %213 = icmp eq i32 %212, 0
  %214 = icmp slt i32 %206, 10
  %215 = xor i1 %213, true
  %216 = xor i1 %214, true
  %217 = xor i1 true, true
  %218 = and i1 %215, true
  %219 = and i1 %213, %217
  %220 = and i1 %216, true
  %221 = and i1 %214, %217
  %222 = or i1 %218, %219
  %223 = or i1 %220, %221
  %224 = xor i1 %222, %223
  %225 = or i1 %215, %216
  %226 = xor i1 %225, true
  %227 = or i1 true, %217
  %228 = and i1 %226, %227
  %229 = or i1 %224, %228
  %230 = or i1 %213, %214
  br i1 %229, label %231, label %479

; <label>:231:                                    ; preds = %204, %479
  %232 = load i32*, i32** %21, align 8
  %233 = load i32*, i32** %22, align 8
  %234 = bitcast %"class.std::vector"* %25 to %"struct.std::_Vector_base"*
  %235 = call dereferenceable(1) %"class.std::allocator"* @_ZNSt12_Vector_baseIiSaIiEE19_M_get_Tp_allocatorEv(%"struct.std::_Vector_base"* %234) #3
  %236 = load i32, i32* @x.69
  %237 = load i32, i32* @y.70
  %238 = add i32 %236, 841852913
  %239 = sub i32 %238, 1
  %240 = sub i32 %239, 841852913
  %241 = sub i32 %236, 1
  %242 = mul i32 %236, %240
  %243 = urem i32 %242, 2
  %244 = icmp eq i32 %243, 0
  %245 = icmp slt i32 %237, 10
  %246 = xor i1 %244, true
  %247 = xor i1 %245, true
  %248 = xor i1 true, true
  %249 = and i1 %246, true
  %250 = and i1 %244, %248
  %251 = and i1 %247, true
  %252 = and i1 %245, %248
  %253 = or i1 %249, %250
  %254 = or i1 %251, %252
  %255 = xor i1 %253, %254
  %256 = or i1 %246, %247
  %257 = xor i1 %256, true
  %258 = or i1 true, %248
  %259 = and i1 %257, %258
  %260 = or i1 %255, %259
  %261 = or i1 %244, %245
  br i1 %260, label %262, label %479

; <label>:262:                                    ; preds = %231
  invoke void @_ZSt8_DestroyIPiiEvT_S1_RSaIT0_E(i32* %232, i32* %233, %"class.std::allocator"* dereferenceable(1) %235)
          to label %263 unwind label %200

; <label>:263:                                    ; preds = %262
  br label %264

; <label>:264:                                    ; preds = %263, %199
  %265 = load i32, i32* @x.69
  %266 = load i32, i32* @y.70
  %267 = add i32 %265, -554493315
  %268 = sub i32 %267, 1
  %269 = sub i32 %268, -554493315
  %270 = sub i32 %265, 1
  %271 = mul i32 %265, %269
  %272 = urem i32 %271, 2
  %273 = icmp eq i32 %272, 0
  %274 = icmp slt i32 %266, 10
  %275 = xor i1 %273, true
  %276 = xor i1 %274, true
  %277 = xor i1 true, true
  %278 = and i1 %275, true
  %279 = and i1 %273, %277
  %280 = and i1 %276, true
  %281 = and i1 %274, %277
  %282 = or i1 %278, %279
  %283 = or i1 %280, %281
  %284 = xor i1 %282, %283
  %285 = or i1 %275, %276
  %286 = xor i1 %285, true
  %287 = or i1 true, %277
  %288 = and i1 %286, %287
  %289 = or i1 %284, %288
  %290 = or i1 %273, %274
  br i1 %289, label %291, label %484

; <label>:291:                                    ; preds = %264, %484
  %292 = bitcast %"class.std::vector"* %25 to %"struct.std::_Vector_base"*
  %293 = load i32*, i32** %21, align 8
  %294 = load i64, i64* %20, align 8
  %295 = load i32, i32* @x.69
  %296 = load i32, i32* @y.70
  %297 = sub i32 0, 1
  %298 = add i32 %295, %297
  %299 = sub i32 %295, 1
  %300 = mul i32 %295, %298
  %301 = urem i32 %300, 2
  %302 = icmp eq i32 %301, 0
  %303 = icmp slt i32 %296, 10
  %304 = xor i1 %302, true
  %305 = xor i1 %303, true
  %306 = xor i1 true, true
  %307 = and i1 %304, true
  %308 = and i1 %302, %306
  %309 = and i1 %305, true
  %310 = and i1 %303, %306
  %311 = or i1 %307, %308
  %312 = or i1 %309, %310
  %313 = xor i1 %311, %312
  %314 = or i1 %304, %305
  %315 = xor i1 %314, true
  %316 = or i1 true, %306
  %317 = and i1 %315, %316
  %318 = or i1 %313, %317
  %319 = or i1 %302, %303
  br i1 %318, label %320, label %484

; <label>:320:                                    ; preds = %291
  invoke void @_ZNSt12_Vector_baseIiSaIiEE13_M_deallocateEPim(%"struct.std::_Vector_base"* %292, i32* %293, i64 %294)
          to label %321 unwind label %200

; <label>:321:                                    ; preds = %320
  %322 = load i32, i32* @x.69
  %323 = load i32, i32* @y.70
  %324 = sub i32 0, 1
  %325 = add i32 %322, %324
  %326 = sub i32 %322, 1
  %327 = mul i32 %322, %325
  %328 = urem i32 %327, 2
  %329 = icmp eq i32 %328, 0
  %330 = icmp slt i32 %323, 10
  %331 = and i1 %329, %330
  %332 = xor i1 %329, %330
  %333 = or i1 %331, %332
  %334 = or i1 %329, %330
  br i1 %333, label %335, label %488

; <label>:335:                                    ; preds = %321, %488
  %336 = load i32, i32* @x.69
  %337 = load i32, i32* @y.70
  %338 = sub i32 %336, -538418184
  %339 = sub i32 %338, 1
  %340 = add i32 %339, -538418184
  %341 = sub i32 %336, 1
  %342 = mul i32 %336, %340
  %343 = urem i32 %342, 2
  %344 = icmp eq i32 %343, 0
  %345 = icmp slt i32 %337, 10
  %346 = and i1 %344, %345
  %347 = xor i1 %344, %345
  %348 = or i1 %346, %347
  %349 = or i1 %344, %345
  br i1 %348, label %350, label %488

; <label>:350:                                    ; preds = %335
  invoke void @__cxa_rethrow() #14
          to label %445 unwind label %200

; <label>:351:                                    ; preds = %200
  br label %396

; <label>:352:                                    ; preds = %99
  %353 = bitcast %"class.std::vector"* %25 to %"struct.std::_Vector_base"*
  %354 = getelementptr inbounds %"struct.std::_Vector_base", %"struct.std::_Vector_base"* %353, i32 0, i32 0
  %355 = getelementptr inbounds %"struct.std::_Vector_base<int, std::allocator<int> >::_Vector_impl", %"struct.std::_Vector_base<int, std::allocator<int> >::_Vector_impl"* %354, i32 0, i32 0
  %356 = load i32*, i32** %355, align 8
  %357 = bitcast %"class.std::vector"* %25 to %"struct.std::_Vector_base"*
  %358 = getelementptr inbounds %"struct.std::_Vector_base", %"struct.std::_Vector_base"* %357, i32 0, i32 0
  %359 = getelementptr inbounds %"struct.std::_Vector_base<int, std::allocator<int> >::_Vector_impl", %"struct.std::_Vector_base<int, std::allocator<int> >::_Vector_impl"* %358, i32 0, i32 1
  %360 = load i32*, i32** %359, align 8
  %361 = bitcast %"class.std::vector"* %25 to %"struct.std::_Vector_base"*
  %362 = call dereferenceable(1) %"class.std::allocator"* @_ZNSt12_Vector_baseIiSaIiEE19_M_get_Tp_allocatorEv(%"struct.std::_Vector_base"* %361) #3
  call void @_ZSt8_DestroyIPiiEvT_S1_RSaIT0_E(i32* %356, i32* %360, %"class.std::allocator"* dereferenceable(1) %362)
  %363 = bitcast %"class.std::vector"* %25 to %"struct.std::_Vector_base"*
  %364 = bitcast %"class.std::vector"* %25 to %"struct.std::_Vector_base"*
  %365 = getelementptr inbounds %"struct.std::_Vector_base", %"struct.std::_Vector_base"* %364, i32 0, i32 0
  %366 = getelementptr inbounds %"struct.std::_Vector_base<int, std::allocator<int> >::_Vector_impl", %"struct.std::_Vector_base<int, std::allocator<int> >::_Vector_impl"* %365, i32 0, i32 0
  %367 = load i32*, i32** %366, align 8
  %368 = bitcast %"class.std::vector"* %25 to %"struct.std::_Vector_base"*
  %369 = getelementptr inbounds %"struct.std::_Vector_base", %"struct.std::_Vector_base"* %368, i32 0, i32 0
  %370 = getelementptr inbounds %"struct.std::_Vector_base<int, std::allocator<int> >::_Vector_impl", %"struct.std::_Vector_base<int, std::allocator<int> >::_Vector_impl"* %369, i32 0, i32 2
  %371 = load i32*, i32** %370, align 8
  %372 = bitcast %"class.std::vector"* %25 to %"struct.std::_Vector_base"*
  %373 = getelementptr inbounds %"struct.std::_Vector_base", %"struct.std::_Vector_base"* %372, i32 0, i32 0
  %374 = getelementptr inbounds %"struct.std::_Vector_base<int, std::allocator<int> >::_Vector_impl", %"struct.std::_Vector_base<int, std::allocator<int> >::_Vector_impl"* %373, i32 0, i32 0
  %375 = load i32*, i32** %374, align 8
  %376 = ptrtoint i32* %371 to i64
  %377 = ptrtoint i32* %375 to i64
  %378 = sub i64 0, %377
  %379 = add i64 %376, %378
  %380 = sub i64 %376, %377
  %381 = sdiv exact i64 %379, 4
  call void @_ZNSt12_Vector_baseIiSaIiEE13_M_deallocateEPim(%"struct.std::_Vector_base"* %363, i32* %367, i64 %381)
  %382 = load i32*, i32** %21, align 8
  %383 = bitcast %"class.std::vector"* %25 to %"struct.std::_Vector_base"*
  %384 = getelementptr inbounds %"struct.std::_Vector_base", %"struct.std::_Vector_base"* %383, i32 0, i32 0
  %385 = getelementptr inbounds %"struct.std::_Vector_base<int, std::allocator<int> >::_Vector_impl", %"struct.std::_Vector_base<int, std::allocator<int> >::_Vector_impl"* %384, i32 0, i32 0
  store i32* %382, i32** %385, align 8
  %386 = load i32*, i32** %22, align 8
  %387 = bitcast %"class.std::vector"* %25 to %"struct.std::_Vector_base"*
  %388 = getelementptr inbounds %"struct.std::_Vector_base", %"struct.std::_Vector_base"* %387, i32 0, i32 0
  %389 = getelementptr inbounds %"struct.std::_Vector_base<int, std::allocator<int> >::_Vector_impl", %"struct.std::_Vector_base<int, std::allocator<int> >::_Vector_impl"* %388, i32 0, i32 1
  store i32* %386, i32** %389, align 8
  %390 = load i32*, i32** %21, align 8
  %391 = load i64, i64* %20, align 8
  %392 = getelementptr inbounds i32, i32* %390, i64 %391
  %393 = bitcast %"class.std::vector"* %25 to %"struct.std::_Vector_base"*
  %394 = getelementptr inbounds %"struct.std::_Vector_base", %"struct.std::_Vector_base"* %393, i32 0, i32 0
  %395 = getelementptr inbounds %"struct.std::_Vector_base<int, std::allocator<int> >::_Vector_impl", %"struct.std::_Vector_base<int, std::allocator<int> >::_Vector_impl"* %394, i32 0, i32 2
  store i32* %392, i32** %395, align 8
  ret void

; <label>:396:                                    ; preds = %351
  %397 = load i8*, i8** %23, align 8
  %398 = load i32, i32* %24, align 4
  %399 = insertvalue { i8*, i32 } undef, i8* %397, 0
  %400 = insertvalue { i8*, i32 } %399, i32 %398, 1
  resume { i8*, i32 } %400

; <label>:401:                                    ; preds = %200
  %402 = load i32, i32* @x.69
  %403 = load i32, i32* @y.70
  %404 = sub i32 0, 1
  %405 = add i32 %402, %404
  %406 = sub i32 %402, 1
  %407 = mul i32 %402, %405
  %408 = urem i32 %407, 2
  %409 = icmp eq i32 %408, 0
  %410 = icmp slt i32 %403, 10
  %411 = and i1 %409, %410
  %412 = xor i1 %409, %410
  %413 = or i1 %411, %412
  %414 = or i1 %409, %410
  br i1 %413, label %415, label %489

; <label>:415:                                    ; preds = %401, %489
  %416 = landingpad { i8*, i32 }
          catch i8* null
  %417 = extractvalue { i8*, i32 } %416, 0
  call void @__clang_call_terminate(i8* %417) #12
  %418 = load i32, i32* @x.69
  %419 = load i32, i32* @y.70
  %420 = add i32 %418, -167911444
  %421 = sub i32 %420, 1
  %422 = sub i32 %421, -167911444
  %423 = sub i32 %418, 1
  %424 = mul i32 %418, %422
  %425 = urem i32 %424, 2
  %426 = icmp eq i32 %425, 0
  %427 = icmp slt i32 %419, 10
  %428 = xor i1 %426, true
  %429 = xor i1 %427, true
  %430 = xor i1 false, true
  %431 = and i1 %428, false
  %432 = and i1 %426, %430
  %433 = and i1 %429, false
  %434 = and i1 %427, %430
  %435 = or i1 %431, %432
  %436 = or i1 %433, %434
  %437 = xor i1 %435, %436
  %438 = or i1 %428, %429
  %439 = xor i1 %438, true
  %440 = or i1 false, %430
  %441 = and i1 %439, %440
  %442 = or i1 %437, %441
  %443 = or i1 %426, %427
  br i1 %442, label %444, label %489

; <label>:444:                                    ; preds = %415
  unreachable

; <label>:445:                                    ; preds = %350
  unreachable

; <label>:446:                                    ; preds = %17, %2
  %447 = alloca %"class.std::vector"*, align 8
  %448 = alloca i32*, align 8
  %449 = alloca i64, align 8
  %450 = alloca i32*, align 8
  %451 = alloca i32*, align 8
  %452 = alloca i8*
  %453 = alloca i32
  store %"class.std::vector"* %0, %"class.std::vector"** %447, align 8
  store i32* %1, i32** %448, align 8
  %454 = load %"class.std::vector"*, %"class.std::vector"** %447, align 8
  %455 = call i64 @_ZNKSt6vectorIiSaIiEE12_M_check_lenEmPKc(%"class.std::vector"* %454, i64 1, i8* getelementptr inbounds ([28 x i8], [28 x i8]* @.str.4, i32 0, i32 0))
  store i64 %455, i64* %449, align 8
  %456 = bitcast %"class.std::vector"* %454 to %"struct.std::_Vector_base"*
  %457 = load i64, i64* %449, align 8
  %458 = call i32* @_ZNSt12_Vector_baseIiSaIiEE11_M_allocateEm(%"struct.std::_Vector_base"* %456, i64 %457)
  store i32* %458, i32** %450, align 8
  %459 = load i32*, i32** %450, align 8
  store i32* %459, i32** %451, align 8
  %460 = bitcast %"class.std::vector"* %454 to %"struct.std::_Vector_base"*
  %461 = getelementptr inbounds %"struct.std::_Vector_base", %"struct.std::_Vector_base"* %460, i32 0, i32 0
  %462 = bitcast %"struct.std::_Vector_base<int, std::allocator<int> >::_Vector_impl"* %461 to %"class.std::allocator"*
  %463 = load i32*, i32** %450, align 8
  %464 = call i64 @_ZNKSt6vectorIiSaIiEE4sizeEv(%"class.std::vector"* %454) #3
  %465 = getelementptr inbounds i32, i32* %463, i64 %464
  %466 = load i32*, i32** %448, align 8
  %467 = call dereferenceable(4) i32* @_ZSt7forwardIRKiEOT_RNSt16remove_referenceIS2_E4typeE(i32* dereferenceable(4) %466) #3
  br label %17

; <label>:468:                                    ; preds = %82, %67
  store i32* %66, i32** %22, align 8
  %469 = load i32*, i32** %22, align 8
  %470 = getelementptr inbounds i32, i32* %469, i32 1
  store i32* %470, i32** %22, align 8
  br label %82

; <label>:471:                                    ; preds = %124, %109
  %472 = bitcast %"class.std::vector"* %25 to %"struct.std::_Vector_base"*
  %473 = getelementptr inbounds %"struct.std::_Vector_base", %"struct.std::_Vector_base"* %472, i32 0, i32 0
  %474 = bitcast %"struct.std::_Vector_base<int, std::allocator<int> >::_Vector_impl"* %473 to %"class.std::allocator"*
  %475 = load i32*, i32** %21, align 8
  %476 = call i64 @_ZNKSt6vectorIiSaIiEE4sizeEv(%"class.std::vector"* %25) #3
  %477 = getelementptr inbounds i32, i32* %475, i64 %476
  br label %124

; <label>:478:                                    ; preds = %185, %158
  br label %185

; <label>:479:                                    ; preds = %231, %204
  %480 = load i32*, i32** %21, align 8
  %481 = load i32*, i32** %22, align 8
  %482 = bitcast %"class.std::vector"* %25 to %"struct.std::_Vector_base"*
  %483 = call dereferenceable(1) %"class.std::allocator"* @_ZNSt12_Vector_baseIiSaIiEE19_M_get_Tp_allocatorEv(%"struct.std::_Vector_base"* %482) #3
  br label %231

; <label>:484:                                    ; preds = %291, %264
  %485 = bitcast %"class.std::vector"* %25 to %"struct.std::_Vector_base"*
  %486 = load i32*, i32** %21, align 8
  %487 = load i64, i64* %20, align 8
  br label %291

; <label>:488:                                    ; preds = %335, %321
  br label %335

; <label>:489:                                    ; preds = %415, %401
  %490 = landingpad { i8*, i32 }
          catch i8* null
  %491 = extractvalue { i8*, i32 } %490, 0
  call void @__clang_call_terminate(i8* %491) #12
  br label %415
}

; Function Attrs: noinline nounwind uwtable
define linkonce_odr void @_ZN9__gnu_cxx13new_allocatorIiE9constructIiJRKiEEEvPT_DpOT0_(%"class.__gnu_cxx::new_allocator"*, i32*, i32* dereferenceable(4)) #4 comdat align 2 {
  %4 = alloca i1
  %5 = alloca i1
  %6 = load i32, i32* @x.71
  %7 = load i32, i32* @y.72
  %8 = sub i32 0, 1
  %9 = add i32 %6, %8
  %10 = sub i32 %6, 1
  %11 = mul i32 %6, %9
  %12 = urem i32 %11, 2
  %13 = icmp eq i32 %12, 0
  store i1 %13, i1* %5
  %14 = icmp slt i32 %7, 10
  store i1 %14, i1* %4
  %15 = alloca i32
  store i32 1327732215, i32* %15
  br label %16

; <label>:16:                                     ; preds = %3, %88
  %17 = load i32, i32* %15
  switch i32 %17, label %18 [
    i32 1327732215, label %19
    i32 1709713003, label %39
    i32 1878514325, label %76
    i32 113646248, label %77
  ]

; <label>:18:                                     ; preds = %16
  br label %88

; <label>:19:                                     ; preds = %16
  %20 = load volatile i1, i1* %5
  %21 = load volatile i1, i1* %4
  %22 = xor i1 %20, true
  %23 = xor i1 %21, true
  %24 = xor i1 false, true
  %25 = and i1 %22, false
  %26 = and i1 %20, %24
  %27 = and i1 %23, false
  %28 = and i1 %21, %24
  %29 = or i1 %25, %26
  %30 = or i1 %27, %28
  %31 = xor i1 %29, %30
  %32 = or i1 %22, %23
  %33 = xor i1 %32, true
  %34 = or i1 false, %24
  %35 = and i1 %33, %34
  %36 = or i1 %31, %35
  %37 = or i1 %20, %21
  %38 = select i1 %36, i32 1709713003, i32 113646248
  store i32 %38, i32* %15
  br label %88

; <label>:39:                                     ; preds = %16
  %40 = alloca %"class.__gnu_cxx::new_allocator"*, align 8
  %41 = alloca i32*, align 8
  %42 = alloca i32*, align 8
  store %"class.__gnu_cxx::new_allocator"* %0, %"class.__gnu_cxx::new_allocator"** %40, align 8
  store i32* %1, i32** %41, align 8
  store i32* %2, i32** %42, align 8
  %43 = load %"class.__gnu_cxx::new_allocator"*, %"class.__gnu_cxx::new_allocator"** %40, align 8
  %44 = load i32*, i32** %41, align 8
  %45 = bitcast i32* %44 to i8*
  %46 = bitcast i8* %45 to i32*
  %47 = load i32*, i32** %42, align 8
  %48 = call dereferenceable(4) i32* @_ZSt7forwardIRKiEOT_RNSt16remove_referenceIS2_E4typeE(i32* dereferenceable(4) %47) #3
  %49 = load i32, i32* %48, align 4
  store i32 %49, i32* %46, align 4
  %50 = load i32, i32* @x.71
  %51 = load i32, i32* @y.72
  %52 = sub i32 0, 1
  %53 = add i32 %50, %52
  %54 = sub i32 %50, 1
  %55 = mul i32 %50, %53
  %56 = urem i32 %55, 2
  %57 = icmp eq i32 %56, 0
  %58 = icmp slt i32 %51, 10
  %59 = xor i1 %57, true
  %60 = xor i1 %58, true
  %61 = xor i1 false, true
  %62 = and i1 %59, false
  %63 = and i1 %57, %61
  %64 = and i1 %60, false
  %65 = and i1 %58, %61
  %66 = or i1 %62, %63
  %67 = or i1 %64, %65
  %68 = xor i1 %66, %67
  %69 = or i1 %59, %60
  %70 = xor i1 %69, true
  %71 = or i1 false, %61
  %72 = and i1 %70, %71
  %73 = or i1 %68, %72
  %74 = or i1 %57, %58
  %75 = select i1 %73, i32 1878514325, i32 113646248
  store i32 %75, i32* %15
  br label %88

; <label>:76:                                     ; preds = %16
  ret void

; <label>:77:                                     ; preds = %16
  %78 = alloca %"class.__gnu_cxx::new_allocator"*, align 8
  %79 = alloca i32*, align 8
  %80 = alloca i32*, align 8
  store %"class.__gnu_cxx::new_allocator"* %0, %"class.__gnu_cxx::new_allocator"** %78, align 8
  store i32* %1, i32** %79, align 8
  store i32* %2, i32** %80, align 8
  %81 = load %"class.__gnu_cxx::new_allocator"*, %"class.__gnu_cxx::new_allocator"** %78, align 8
  %82 = load i32*, i32** %79, align 8
  %83 = bitcast i32* %82 to i8*
  %84 = bitcast i8* %83 to i32*
  %85 = load i32*, i32** %80, align 8
  %86 = call dereferenceable(4) i32* @_ZSt7forwardIRKiEOT_RNSt16remove_referenceIS2_E4typeE(i32* dereferenceable(4) %85) #3
  %87 = load i32, i32* %86, align 4
  store i32 %87, i32* %84, align 4
  store i32 1709713003, i32* %15
  br label %88

; <label>:88:                                     ; preds = %77, %39, %19, %18
  br label %16
}

; Function Attrs: noinline nounwind uwtable
define linkonce_odr dereferenceable(4) i32* @_ZSt7forwardIRKiEOT_RNSt16remove_referenceIS2_E4typeE(i32* dereferenceable(4)) #4 comdat {
  %2 = alloca i32*, align 8
  store i32* %0, i32** %2, align 8
  %3 = load i32*, i32** %2, align 8
  ret i32* %3
}

; Function Attrs: noinline uwtable
define linkonce_odr i64 @_ZNKSt6vectorIiSaIiEE12_M_check_lenEmPKc(%"class.std::vector"*, i64, i8*) #0 comdat align 2 {
  %4 = alloca i64
  %5 = alloca i64
  %6 = alloca %"class.std::vector"*
  %7 = alloca %"class.std::vector"*, align 8
  %8 = alloca i64, align 8
  %9 = alloca i8*, align 8
  %10 = alloca i64, align 8
  %11 = alloca i64, align 8
  store %"class.std::vector"* %0, %"class.std::vector"** %7, align 8
  store i64 %1, i64* %8, align 8
  store i8* %2, i8** %9, align 8
  %12 = load %"class.std::vector"*, %"class.std::vector"** %7, align 8
  store %"class.std::vector"* %12, %"class.std::vector"** %6
  %13 = load volatile %"class.std::vector"*, %"class.std::vector"** %6
  %14 = call i64 @_ZNKSt6vectorIiSaIiEE8max_sizeEv(%"class.std::vector"* %13) #3
  %15 = load volatile %"class.std::vector"*, %"class.std::vector"** %6
  %16 = call i64 @_ZNKSt6vectorIiSaIiEE4sizeEv(%"class.std::vector"* %15) #3
  %17 = add i64 %14, 2626957050279044602
  %18 = sub i64 %17, %16
  %19 = sub i64 %18, 2626957050279044602
  %20 = sub i64 %14, %16
  store i64 %19, i64* %5
  %21 = load i64, i64* %8, align 8
  store i64 %21, i64* %4
  %22 = alloca i32
  store i32 934662034, i32* %22
  %23 = alloca i64
  br label %24

; <label>:24:                                     ; preds = %3, %63
  %25 = load i32, i32* %22
  switch i32 %25, label %26 [
    i32 934662034, label %27
    i32 1055567700, label %32
    i32 206372288, label %34
    i32 1380453788, label %50
    i32 484846194, label %56
    i32 411664360, label %59
    i32 465246902, label %61
  ]

; <label>:26:                                     ; preds = %24
  br label %63

; <label>:27:                                     ; preds = %24
  %28 = load volatile i64, i64* %5
  %29 = load volatile i64, i64* %4
  %30 = icmp ult i64 %28, %29
  %31 = select i1 %30, i32 1055567700, i32 206372288
  store i32 %31, i32* %22
  br label %63

; <label>:32:                                     ; preds = %24
  %33 = load i8*, i8** %9, align 8
  call void @_ZSt20__throw_length_errorPKc(i8* %33) #14
  unreachable

; <label>:34:                                     ; preds = %24
  %35 = load volatile %"class.std::vector"*, %"class.std::vector"** %6
  %36 = call i64 @_ZNKSt6vectorIiSaIiEE4sizeEv(%"class.std::vector"* %35) #3
  %37 = load volatile %"class.std::vector"*, %"class.std::vector"** %6
  %38 = call i64 @_ZNKSt6vectorIiSaIiEE4sizeEv(%"class.std::vector"* %37) #3
  store i64 %38, i64* %11, align 8
  %39 = call dereferenceable(8) i64* @_ZSt3maxImERKT_S2_S2_(i64* dereferenceable(8) %11, i64* dereferenceable(8) %8)
  %40 = load i64, i64* %39, align 8
  %41 = sub i64 %36, -5953025225676256734
  %42 = add i64 %41, %40
  %43 = add i64 %42, -5953025225676256734
  %44 = add i64 %36, %40
  store i64 %43, i64* %10, align 8
  %45 = load i64, i64* %10, align 8
  %46 = load volatile %"class.std::vector"*, %"class.std::vector"** %6
  %47 = call i64 @_ZNKSt6vectorIiSaIiEE4sizeEv(%"class.std::vector"* %46) #3
  %48 = icmp ult i64 %45, %47
  %49 = select i1 %48, i32 484846194, i32 1380453788
  store i32 %49, i32* %22
  br label %63

; <label>:50:                                     ; preds = %24
  %51 = load i64, i64* %10, align 8
  %52 = load volatile %"class.std::vector"*, %"class.std::vector"** %6
  %53 = call i64 @_ZNKSt6vectorIiSaIiEE8max_sizeEv(%"class.std::vector"* %52) #3
  %54 = icmp ugt i64 %51, %53
  %55 = select i1 %54, i32 484846194, i32 411664360
  store i32 %55, i32* %22
  br label %63

; <label>:56:                                     ; preds = %24
  %57 = load volatile %"class.std::vector"*, %"class.std::vector"** %6
  %58 = call i64 @_ZNKSt6vectorIiSaIiEE8max_sizeEv(%"class.std::vector"* %57) #3
  store i32 465246902, i32* %22
  store i64 %58, i64* %23
  br label %63

; <label>:59:                                     ; preds = %24
  %60 = load i64, i64* %10, align 8
  store i32 465246902, i32* %22
  store i64 %60, i64* %23
  br label %63

; <label>:61:                                     ; preds = %24
  %62 = load i64, i64* %23
  ret i64 %62

; <label>:63:                                     ; preds = %59, %56, %50, %34, %27, %26
  br label %24
}

; Function Attrs: noinline uwtable
define linkonce_odr i32* @_ZNSt12_Vector_baseIiSaIiEE11_M_allocateEm(%"struct.std::_Vector_base"*, i64) #0 comdat align 2 {
  %3 = alloca i32*
  %4 = alloca i64
  %5 = alloca %"struct.std::_Vector_base"*
  %6 = alloca %"struct.std::_Vector_base"*, align 8
  %7 = alloca i64, align 8
  store %"struct.std::_Vector_base"* %0, %"struct.std::_Vector_base"** %6, align 8
  store i64 %1, i64* %7, align 8
  %8 = load %"struct.std::_Vector_base"*, %"struct.std::_Vector_base"** %6, align 8
  store %"struct.std::_Vector_base"* %8, %"struct.std::_Vector_base"** %5
  %9 = load i64, i64* %7, align 8
  store i64 %9, i64* %4
  %10 = alloca i32
  store i32 360328182, i32* %10
  %11 = alloca i32*
  br label %12

; <label>:12:                                     ; preds = %2, %109
  %13 = load i32, i32* %10
  switch i32 %13, label %14 [
    i32 360328182, label %15
    i32 907876290, label %19
    i32 -883416454, label %34
    i32 1707677559, label %55
    i32 -1445847814, label %57
    i32 -1068952865, label %84
    i32 -1308006346, label %99
    i32 -1600440577, label %100
    i32 2045010078, label %102
    i32 -741664936, label %108
  ]

; <label>:14:                                     ; preds = %12
  br label %109

; <label>:15:                                     ; preds = %12
  %16 = load volatile i64, i64* %4
  %17 = icmp ne i64 %16, 0
  %18 = select i1 %17, i32 907876290, i32 -1445847814
  store i32 %18, i32* %10
  br label %109

; <label>:19:                                     ; preds = %12
  %20 = load i32, i32* @x.77
  %21 = load i32, i32* @y.78
  %22 = sub i32 0, 1
  %23 = add i32 %20, %22
  %24 = sub i32 %20, 1
  %25 = mul i32 %20, %23
  %26 = urem i32 %25, 2
  %27 = icmp eq i32 %26, 0
  %28 = icmp slt i32 %21, 10
  %29 = and i1 %27, %28
  %30 = xor i1 %27, %28
  %31 = or i1 %29, %30
  %32 = or i1 %27, %28
  %33 = select i1 %31, i32 -883416454, i32 2045010078
  store i32 %33, i32* %10
  br label %109

; <label>:34:                                     ; preds = %12
  %35 = load volatile %"struct.std::_Vector_base"*, %"struct.std::_Vector_base"** %5
  %36 = getelementptr inbounds %"struct.std::_Vector_base", %"struct.std::_Vector_base"* %35, i32 0, i32 0
  %37 = bitcast %"struct.std::_Vector_base<int, std::allocator<int> >::_Vector_impl"* %36 to %"class.std::allocator"*
  %38 = load i64, i64* %7, align 8
  %39 = call i32* @_ZNSt16allocator_traitsISaIiEE8allocateERS0_m(%"class.std::allocator"* dereferenceable(1) %37, i64 %38)
  store i32* %39, i32** %3
  %40 = load i32, i32* @x.77
  %41 = load i32, i32* @y.78
  %42 = add i32 %40, -826047450
  %43 = sub i32 %42, 1
  %44 = sub i32 %43, -826047450
  %45 = sub i32 %40, 1
  %46 = mul i32 %40, %44
  %47 = urem i32 %46, 2
  %48 = icmp eq i32 %47, 0
  %49 = icmp slt i32 %41, 10
  %50 = and i1 %48, %49
  %51 = xor i1 %48, %49
  %52 = or i1 %50, %51
  %53 = or i1 %48, %49
  %54 = select i1 %52, i32 1707677559, i32 2045010078
  store i32 %54, i32* %10
  br label %109

; <label>:55:                                     ; preds = %12
  store i32 -1600440577, i32* %10
  %56 = load volatile i32*, i32** %3
  store i32* %56, i32** %11
  br label %109

; <label>:57:                                     ; preds = %12
  %58 = load i32, i32* @x.77
  %59 = load i32, i32* @y.78
  %60 = sub i32 0, 1
  %61 = add i32 %58, %60
  %62 = sub i32 %58, 1
  %63 = mul i32 %58, %61
  %64 = urem i32 %63, 2
  %65 = icmp eq i32 %64, 0
  %66 = icmp slt i32 %59, 10
  %67 = xor i1 %65, true
  %68 = xor i1 %66, true
  %69 = xor i1 true, true
  %70 = and i1 %67, true
  %71 = and i1 %65, %69
  %72 = and i1 %68, true
  %73 = and i1 %66, %69
  %74 = or i1 %70, %71
  %75 = or i1 %72, %73
  %76 = xor i1 %74, %75
  %77 = or i1 %67, %68
  %78 = xor i1 %77, true
  %79 = or i1 true, %69
  %80 = and i1 %78, %79
  %81 = or i1 %76, %80
  %82 = or i1 %65, %66
  %83 = select i1 %81, i32 -1068952865, i32 -741664936
  store i32 %83, i32* %10
  br label %109

; <label>:84:                                     ; preds = %12
  %85 = load i32, i32* @x.77
  %86 = load i32, i32* @y.78
  %87 = sub i32 0, 1
  %88 = add i32 %85, %87
  %89 = sub i32 %85, 1
  %90 = mul i32 %85, %88
  %91 = urem i32 %90, 2
  %92 = icmp eq i32 %91, 0
  %93 = icmp slt i32 %86, 10
  %94 = and i1 %92, %93
  %95 = xor i1 %92, %93
  %96 = or i1 %94, %95
  %97 = or i1 %92, %93
  %98 = select i1 %96, i32 -1308006346, i32 -741664936
  store i32 %98, i32* %10
  br label %109

; <label>:99:                                     ; preds = %12
  store i32 -1600440577, i32* %10
  store i32* null, i32** %11
  br label %109

; <label>:100:                                    ; preds = %12
  %101 = load i32*, i32** %11
  ret i32* %101

; <label>:102:                                    ; preds = %12
  %103 = load volatile %"struct.std::_Vector_base"*, %"struct.std::_Vector_base"** %5
  %104 = getelementptr inbounds %"struct.std::_Vector_base", %"struct.std::_Vector_base"* %103, i32 0, i32 0
  %105 = bitcast %"struct.std::_Vector_base<int, std::allocator<int> >::_Vector_impl"* %104 to %"class.std::allocator"*
  %106 = load i64, i64* %7, align 8
  %107 = call i32* @_ZNSt16allocator_traitsISaIiEE8allocateERS0_m(%"class.std::allocator"* dereferenceable(1) %105, i64 %106)
  store i32 -883416454, i32* %10
  br label %109

; <label>:108:                                    ; preds = %12
  store i32 -1068952865, i32* %10
  br label %109

; <label>:109:                                    ; preds = %108, %102, %99, %84, %57, %55, %34, %19, %15, %14
  br label %12
}

; Function Attrs: noinline uwtable
define linkonce_odr i32* @_ZSt34__uninitialized_move_if_noexcept_aIPiS0_SaIiEET0_T_S3_S2_RT1_(i32*, i32*, i32*, %"class.std::allocator"* dereferenceable(1)) #0 comdat {
  %5 = alloca i32*
  %6 = alloca i1
  %7 = alloca i1
  %8 = load i32, i32* @x.79
  %9 = load i32, i32* @y.80
  %10 = add i32 %8, 1425077669
  %11 = sub i32 %10, 1
  %12 = sub i32 %11, 1425077669
  %13 = sub i32 %8, 1
  %14 = mul i32 %8, %12
  %15 = urem i32 %14, 2
  %16 = icmp eq i32 %15, 0
  store i1 %16, i1* %7
  %17 = icmp slt i32 %9, 10
  store i1 %17, i1* %6
  %18 = alloca i32
  store i32 -648121984, i32* %18
  br label %19

; <label>:19:                                     ; preds = %4, %87
  %20 = load i32, i32* %18
  switch i32 %20, label %21 [
    i32 -648121984, label %22
    i32 1521410968, label %30
    i32 -987455395, label %65
    i32 1037485772, label %67
  ]

; <label>:21:                                     ; preds = %19
  br label %87

; <label>:22:                                     ; preds = %19
  %23 = load volatile i1, i1* %7
  %24 = load volatile i1, i1* %6
  %25 = and i1 %23, %24
  %26 = xor i1 %23, %24
  %27 = or i1 %25, %26
  %28 = or i1 %23, %24
  %29 = select i1 %27, i32 1521410968, i32 1037485772
  store i32 %29, i32* %18
  br label %87

; <label>:30:                                     ; preds = %19
  %31 = alloca i32*, align 8
  %32 = alloca i32*, align 8
  %33 = alloca i32*, align 8
  %34 = alloca %"class.std::allocator"*, align 8
  %35 = alloca %"class.std::move_iterator", align 8
  %36 = alloca %"class.std::move_iterator", align 8
  store i32* %0, i32** %31, align 8
  store i32* %1, i32** %32, align 8
  store i32* %2, i32** %33, align 8
  store %"class.std::allocator"* %3, %"class.std::allocator"** %34, align 8
  %37 = load i32*, i32** %31, align 8
  %38 = call i32* @_ZSt32__make_move_if_noexcept_iteratorIPiSt13move_iteratorIS0_EET0_T_(i32* %37)
  %39 = getelementptr inbounds %"class.std::move_iterator", %"class.std::move_iterator"* %35, i32 0, i32 0
  store i32* %38, i32** %39, align 8
  %40 = load i32*, i32** %32, align 8
  %41 = call i32* @_ZSt32__make_move_if_noexcept_iteratorIPiSt13move_iteratorIS0_EET0_T_(i32* %40)
  %42 = getelementptr inbounds %"class.std::move_iterator", %"class.std::move_iterator"* %36, i32 0, i32 0
  store i32* %41, i32** %42, align 8
  %43 = load i32*, i32** %33, align 8
  %44 = load %"class.std::allocator"*, %"class.std::allocator"** %34, align 8
  %45 = getelementptr inbounds %"class.std::move_iterator", %"class.std::move_iterator"* %35, i32 0, i32 0
  %46 = load i32*, i32** %45, align 8
  %47 = getelementptr inbounds %"class.std::move_iterator", %"class.std::move_iterator"* %36, i32 0, i32 0
  %48 = load i32*, i32** %47, align 8
  %49 = call i32* @_ZSt22__uninitialized_copy_aISt13move_iteratorIPiES1_iET0_T_S4_S3_RSaIT1_E(i32* %46, i32* %48, i32* %43, %"class.std::allocator"* dereferenceable(1) %44)
  store i32* %49, i32** %5
  %50 = load i32, i32* @x.79
  %51 = load i32, i32* @y.80
  %52 = add i32 %50, 1697115820
  %53 = sub i32 %52, 1
  %54 = sub i32 %53, 1697115820
  %55 = sub i32 %50, 1
  %56 = mul i32 %50, %54
  %57 = urem i32 %56, 2
  %58 = icmp eq i32 %57, 0
  %59 = icmp slt i32 %51, 10
  %60 = and i1 %58, %59
  %61 = xor i1 %58, %59
  %62 = or i1 %60, %61
  %63 = or i1 %58, %59
  %64 = select i1 %62, i32 -987455395, i32 1037485772
  store i32 %64, i32* %18
  br label %87

; <label>:65:                                     ; preds = %19
  %66 = load volatile i32*, i32** %5
  ret i32* %66

; <label>:67:                                     ; preds = %19
  %68 = alloca i32*, align 8
  %69 = alloca i32*, align 8
  %70 = alloca i32*, align 8
  %71 = alloca %"class.std::allocator"*, align 8
  %72 = alloca %"class.std::move_iterator", align 8
  %73 = alloca %"class.std::move_iterator", align 8
  store i32* %0, i32** %68, align 8
  store i32* %1, i32** %69, align 8
  store i32* %2, i32** %70, align 8
  store %"class.std::allocator"* %3, %"class.std::allocator"** %71, align 8
  %74 = load i32*, i32** %68, align 8
  %75 = call i32* @_ZSt32__make_move_if_noexcept_iteratorIPiSt13move_iteratorIS0_EET0_T_(i32* %74)
  %76 = getelementptr inbounds %"class.std::move_iterator", %"class.std::move_iterator"* %72, i32 0, i32 0
  store i32* %75, i32** %76, align 8
  %77 = load i32*, i32** %69, align 8
  %78 = call i32* @_ZSt32__make_move_if_noexcept_iteratorIPiSt13move_iteratorIS0_EET0_T_(i32* %77)
  %79 = getelementptr inbounds %"class.std::move_iterator", %"class.std::move_iterator"* %73, i32 0, i32 0
  store i32* %78, i32** %79, align 8
  %80 = load i32*, i32** %70, align 8
  %81 = load %"class.std::allocator"*, %"class.std::allocator"** %71, align 8
  %82 = getelementptr inbounds %"class.std::move_iterator", %"class.std::move_iterator"* %72, i32 0, i32 0
  %83 = load i32*, i32** %82, align 8
  %84 = getelementptr inbounds %"class.std::move_iterator", %"class.std::move_iterator"* %73, i32 0, i32 0
  %85 = load i32*, i32** %84, align 8
  %86 = call i32* @_ZSt22__uninitialized_copy_aISt13move_iteratorIPiES1_iET0_T_S4_S3_RSaIT1_E(i32* %83, i32* %85, i32* %80, %"class.std::allocator"* dereferenceable(1) %81)
  store i32 1521410968, i32* %18
  br label %87

; <label>:87:                                     ; preds = %67, %30, %22, %21
  br label %19
}

; Function Attrs: noinline uwtable
define linkonce_odr void @_ZNSt16allocator_traitsISaIiEE7destroyIiEEvRS0_PT_(%"class.std::allocator"* dereferenceable(1), i32*) #0 comdat align 2 {
  %3 = alloca %"class.std::allocator"*, align 8
  %4 = alloca i32*, align 8
  store %"class.std::allocator"* %0, %"class.std::allocator"** %3, align 8
  store i32* %1, i32** %4, align 8
  %5 = load %"class.std::allocator"*, %"class.std::allocator"** %3, align 8
  %6 = bitcast %"class.std::allocator"* %5 to %"class.__gnu_cxx::new_allocator"*
  %7 = load i32*, i32** %4, align 8
  call void @_ZN9__gnu_cxx13new_allocatorIiE7destroyIiEEvPT_(%"class.__gnu_cxx::new_allocator"* %6, i32* %7)
  ret void
}

declare void @__cxa_rethrow()

declare void @__cxa_end_catch()

; Function Attrs: noinline nounwind uwtable
define linkonce_odr i64 @_ZNKSt6vectorIiSaIiEE8max_sizeEv(%"class.std::vector"*) #4 comdat align 2 {
  %2 = alloca %"class.std::vector"*, align 8
  store %"class.std::vector"* %0, %"class.std::vector"** %2, align 8
  %3 = load %"class.std::vector"*, %"class.std::vector"** %2, align 8
  %4 = bitcast %"class.std::vector"* %3 to %"struct.std::_Vector_base"*
  %5 = call dereferenceable(1) %"class.std::allocator"* @_ZNKSt12_Vector_baseIiSaIiEE19_M_get_Tp_allocatorEv(%"struct.std::_Vector_base"* %4) #3
  %6 = call i64 @_ZNSt16allocator_traitsISaIiEE8max_sizeERKS0_(%"class.std::allocator"* dereferenceable(1) %5) #3
  ret i64 %6
}

; Function Attrs: noreturn
declare void @_ZSt20__throw_length_errorPKc(i8*) #9

; Function Attrs: noinline nounwind uwtable
define linkonce_odr dereferenceable(8) i64* @_ZSt3maxImERKT_S2_S2_(i64* dereferenceable(8), i64* dereferenceable(8)) #4 comdat {
  %3 = alloca i64*
  %4 = alloca i64
  %5 = alloca i64
  %6 = alloca i64*, align 8
  %7 = alloca i64*, align 8
  %8 = alloca i64*, align 8
  store i64* %0, i64** %7, align 8
  store i64* %1, i64** %8, align 8
  %9 = load i64*, i64** %7, align 8
  %10 = load i64, i64* %9, align 8
  store i64 %10, i64* %5
  %11 = load i64*, i64** %8, align 8
  %12 = load i64, i64* %11, align 8
  store i64 %12, i64* %4
  %13 = alloca i32
  store i32 -230215218, i32* %13
  br label %14

; <label>:14:                                     ; preds = %2, %108
  %15 = load i32, i32* %13
  switch i32 %15, label %16 [
    i32 -230215218, label %17
    i32 -1724623595, label %22
    i32 1705522264, label %24
    i32 115057332, label %51
    i32 1379287299, label %68
    i32 -42665542, label %69
    i32 -65066455, label %85
    i32 -938316111, label %102
    i32 -1187770155, label %104
    i32 2125731205, label %106
  ]

; <label>:16:                                     ; preds = %14
  br label %108

; <label>:17:                                     ; preds = %14
  %18 = load volatile i64, i64* %5
  %19 = load volatile i64, i64* %4
  %20 = icmp ult i64 %18, %19
  %21 = select i1 %20, i32 -1724623595, i32 1705522264
  store i32 %21, i32* %13
  br label %108

; <label>:22:                                     ; preds = %14
  %23 = load i64*, i64** %8, align 8
  store i64* %23, i64** %6, align 8
  store i32 -42665542, i32* %13
  br label %108

; <label>:24:                                     ; preds = %14
  %25 = load i32, i32* @x.85
  %26 = load i32, i32* @y.86
  %27 = sub i32 0, 1
  %28 = add i32 %25, %27
  %29 = sub i32 %25, 1
  %30 = mul i32 %25, %28
  %31 = urem i32 %30, 2
  %32 = icmp eq i32 %31, 0
  %33 = icmp slt i32 %26, 10
  %34 = xor i1 %32, true
  %35 = xor i1 %33, true
  %36 = xor i1 false, true
  %37 = and i1 %34, false
  %38 = and i1 %32, %36
  %39 = and i1 %35, false
  %40 = and i1 %33, %36
  %41 = or i1 %37, %38
  %42 = or i1 %39, %40
  %43 = xor i1 %41, %42
  %44 = or i1 %34, %35
  %45 = xor i1 %44, true
  %46 = or i1 false, %36
  %47 = and i1 %45, %46
  %48 = or i1 %43, %47
  %49 = or i1 %32, %33
  %50 = select i1 %48, i32 115057332, i32 -1187770155
  store i32 %50, i32* %13
  br label %108

; <label>:51:                                     ; preds = %14
  %52 = load i64*, i64** %7, align 8
  store i64* %52, i64** %6, align 8
  %53 = load i32, i32* @x.85
  %54 = load i32, i32* @y.86
  %55 = add i32 %53, 1627803428
  %56 = sub i32 %55, 1
  %57 = sub i32 %56, 1627803428
  %58 = sub i32 %53, 1
  %59 = mul i32 %53, %57
  %60 = urem i32 %59, 2
  %61 = icmp eq i32 %60, 0
  %62 = icmp slt i32 %54, 10
  %63 = and i1 %61, %62
  %64 = xor i1 %61, %62
  %65 = or i1 %63, %64
  %66 = or i1 %61, %62
  %67 = select i1 %65, i32 1379287299, i32 -1187770155
  store i32 %67, i32* %13
  br label %108

; <label>:68:                                     ; preds = %14
  store i32 -42665542, i32* %13
  br label %108

; <label>:69:                                     ; preds = %14
  %70 = load i32, i32* @x.85
  %71 = load i32, i32* @y.86
  %72 = add i32 %70, -1155833493
  %73 = sub i32 %72, 1
  %74 = sub i32 %73, -1155833493
  %75 = sub i32 %70, 1
  %76 = mul i32 %70, %74
  %77 = urem i32 %76, 2
  %78 = icmp eq i32 %77, 0
  %79 = icmp slt i32 %71, 10
  %80 = and i1 %78, %79
  %81 = xor i1 %78, %79
  %82 = or i1 %80, %81
  %83 = or i1 %78, %79
  %84 = select i1 %82, i32 -65066455, i32 2125731205
  store i32 %84, i32* %13
  br label %108

; <label>:85:                                     ; preds = %14
  %86 = load i64*, i64** %6, align 8
  store i64* %86, i64** %3
  %87 = load i32, i32* @x.85
  %88 = load i32, i32* @y.86
  %89 = add i32 %87, 273783630
  %90 = sub i32 %89, 1
  %91 = sub i32 %90, 273783630
  %92 = sub i32 %87, 1
  %93 = mul i32 %87, %91
  %94 = urem i32 %93, 2
  %95 = icmp eq i32 %94, 0
  %96 = icmp slt i32 %88, 10
  %97 = and i1 %95, %96
  %98 = xor i1 %95, %96
  %99 = or i1 %97, %98
  %100 = or i1 %95, %96
  %101 = select i1 %99, i32 -938316111, i32 2125731205
  store i32 %101, i32* %13
  br label %108

; <label>:102:                                    ; preds = %14
  %103 = load volatile i64*, i64** %3
  ret i64* %103

; <label>:104:                                    ; preds = %14
  %105 = load i64*, i64** %7, align 8
  store i64* %105, i64** %6, align 8
  store i32 115057332, i32* %13
  br label %108

; <label>:106:                                    ; preds = %14
  %107 = load i64*, i64** %6, align 8
  store i32 -65066455, i32* %13
  br label %108

; <label>:108:                                    ; preds = %106, %104, %85, %69, %68, %51, %24, %22, %17, %16
  br label %14
}

; Function Attrs: noinline nounwind uwtable
define linkonce_odr i64 @_ZNSt16allocator_traitsISaIiEE8max_sizeERKS0_(%"class.std::allocator"* dereferenceable(1)) #4 comdat align 2 {
  %2 = alloca %"class.std::allocator"*, align 8
  store %"class.std::allocator"* %0, %"class.std::allocator"** %2, align 8
  %3 = load %"class.std::allocator"*, %"class.std::allocator"** %2, align 8
  %4 = bitcast %"class.std::allocator"* %3 to %"class.__gnu_cxx::new_allocator"*
  %5 = call i64 @_ZNK9__gnu_cxx13new_allocatorIiE8max_sizeEv(%"class.__gnu_cxx::new_allocator"* %4) #3
  ret i64 %5
}

; Function Attrs: noinline nounwind uwtable
define linkonce_odr dereferenceable(1) %"class.std::allocator"* @_ZNKSt12_Vector_baseIiSaIiEE19_M_get_Tp_allocatorEv(%"struct.std::_Vector_base"*) #4 comdat align 2 {
  %2 = alloca %"struct.std::_Vector_base"*, align 8
  store %"struct.std::_Vector_base"* %0, %"struct.std::_Vector_base"** %2, align 8
  %3 = load %"struct.std::_Vector_base"*, %"struct.std::_Vector_base"** %2, align 8
  %4 = getelementptr inbounds %"struct.std::_Vector_base", %"struct.std::_Vector_base"* %3, i32 0, i32 0
  %5 = bitcast %"struct.std::_Vector_base<int, std::allocator<int> >::_Vector_impl"* %4 to %"class.std::allocator"*
  ret %"class.std::allocator"* %5
}

; Function Attrs: noinline nounwind uwtable
define linkonce_odr i64 @_ZNK9__gnu_cxx13new_allocatorIiE8max_sizeEv(%"class.__gnu_cxx::new_allocator"*) #4 comdat align 2 {
  %2 = alloca i1
  %3 = alloca i1
  %4 = load i32, i32* @x.91
  %5 = load i32, i32* @y.92
  %6 = add i32 %4, -1104126354
  %7 = sub i32 %6, 1
  %8 = sub i32 %7, -1104126354
  %9 = sub i32 %4, 1
  %10 = mul i32 %4, %8
  %11 = urem i32 %10, 2
  %12 = icmp eq i32 %11, 0
  store i1 %12, i1* %3
  %13 = icmp slt i32 %5, 10
  store i1 %13, i1* %2
  %14 = alloca i32
  store i32 1516556774, i32* %14
  br label %15

; <label>:15:                                     ; preds = %1, %60
  %16 = load i32, i32* %14
  switch i32 %16, label %17 [
    i32 1516556774, label %18
    i32 -370395455, label %26
    i32 -452635597, label %56
    i32 1952890582, label %57
  ]

; <label>:17:                                     ; preds = %15
  br label %60

; <label>:18:                                     ; preds = %15
  %19 = load volatile i1, i1* %3
  %20 = load volatile i1, i1* %2
  %21 = and i1 %19, %20
  %22 = xor i1 %19, %20
  %23 = or i1 %21, %22
  %24 = or i1 %19, %20
  %25 = select i1 %23, i32 -370395455, i32 1952890582
  store i32 %25, i32* %14
  br label %60

; <label>:26:                                     ; preds = %15
  %27 = alloca %"class.__gnu_cxx::new_allocator"*, align 8
  store %"class.__gnu_cxx::new_allocator"* %0, %"class.__gnu_cxx::new_allocator"** %27, align 8
  %28 = load %"class.__gnu_cxx::new_allocator"*, %"class.__gnu_cxx::new_allocator"** %27, align 8
  %29 = load i32, i32* @x.91
  %30 = load i32, i32* @y.92
  %31 = add i32 %29, 1943897609
  %32 = sub i32 %31, 1
  %33 = sub i32 %32, 1943897609
  %34 = sub i32 %29, 1
  %35 = mul i32 %29, %33
  %36 = urem i32 %35, 2
  %37 = icmp eq i32 %36, 0
  %38 = icmp slt i32 %30, 10
  %39 = xor i1 %37, true
  %40 = xor i1 %38, true
  %41 = xor i1 false, true
  %42 = and i1 %39, false
  %43 = and i1 %37, %41
  %44 = and i1 %40, false
  %45 = and i1 %38, %41
  %46 = or i1 %42, %43
  %47 = or i1 %44, %45
  %48 = xor i1 %46, %47
  %49 = or i1 %39, %40
  %50 = xor i1 %49, true
  %51 = or i1 false, %41
  %52 = and i1 %50, %51
  %53 = or i1 %48, %52
  %54 = or i1 %37, %38
  %55 = select i1 %53, i32 -452635597, i32 1952890582
  store i32 %55, i32* %14
  br label %60

; <label>:56:                                     ; preds = %15
  ret i64 4611686018427387903

; <label>:57:                                     ; preds = %15
  %58 = alloca %"class.__gnu_cxx::new_allocator"*, align 8
  store %"class.__gnu_cxx::new_allocator"* %0, %"class.__gnu_cxx::new_allocator"** %58, align 8
  %59 = load %"class.__gnu_cxx::new_allocator"*, %"class.__gnu_cxx::new_allocator"** %58, align 8
  store i32 -370395455, i32* %14
  br label %60

; <label>:60:                                     ; preds = %57, %26, %18, %17
  br label %15
}

; Function Attrs: noinline uwtable
define linkonce_odr i32* @_ZNSt16allocator_traitsISaIiEE8allocateERS0_m(%"class.std::allocator"* dereferenceable(1), i64) #0 comdat align 2 {
  %3 = alloca %"class.std::allocator"*, align 8
  %4 = alloca i64, align 8
  store %"class.std::allocator"* %0, %"class.std::allocator"** %3, align 8
  store i64 %1, i64* %4, align 8
  %5 = load %"class.std::allocator"*, %"class.std::allocator"** %3, align 8
  %6 = bitcast %"class.std::allocator"* %5 to %"class.__gnu_cxx::new_allocator"*
  %7 = load i64, i64* %4, align 8
  %8 = call i32* @_ZN9__gnu_cxx13new_allocatorIiE8allocateEmPKv(%"class.__gnu_cxx::new_allocator"* %6, i64 %7, i8* null)
  ret i32* %8
}

; Function Attrs: noinline uwtable
define linkonce_odr i32* @_ZN9__gnu_cxx13new_allocatorIiE8allocateEmPKv(%"class.__gnu_cxx::new_allocator"*, i64, i8*) #0 comdat align 2 {
  %4 = alloca i64
  %5 = alloca i64
  %6 = alloca %"class.__gnu_cxx::new_allocator"*, align 8
  %7 = alloca i64, align 8
  %8 = alloca i8*, align 8
  store %"class.__gnu_cxx::new_allocator"* %0, %"class.__gnu_cxx::new_allocator"** %6, align 8
  store i64 %1, i64* %7, align 8
  store i8* %2, i8** %8, align 8
  %9 = load %"class.__gnu_cxx::new_allocator"*, %"class.__gnu_cxx::new_allocator"** %6, align 8
  %10 = load i64, i64* %7, align 8
  store i64 %10, i64* %5
  %11 = call i64 @_ZNK9__gnu_cxx13new_allocatorIiE8max_sizeEv(%"class.__gnu_cxx::new_allocator"* %9) #3
  store i64 %11, i64* %4
  %12 = alloca i32
  store i32 -139843401, i32* %12
  br label %13

; <label>:13:                                     ; preds = %3, %27
  %14 = load i32, i32* %12
  switch i32 %14, label %15 [
    i32 -139843401, label %16
    i32 -1599827071, label %21
    i32 1049157511, label %22
  ]

; <label>:15:                                     ; preds = %13
  br label %27

; <label>:16:                                     ; preds = %13
  %17 = load volatile i64, i64* %5
  %18 = load volatile i64, i64* %4
  %19 = icmp ugt i64 %17, %18
  %20 = select i1 %19, i32 -1599827071, i32 1049157511
  store i32 %20, i32* %12
  br label %27

; <label>:21:                                     ; preds = %13
  call void @_ZSt17__throw_bad_allocv() #14
  unreachable

; <label>:22:                                     ; preds = %13
  %23 = load i64, i64* %7, align 8
  %24 = mul i64 %23, 4
  %25 = call i8* @_Znwm(i64 %24)
  %26 = bitcast i8* %25 to i32*
  ret i32* %26

; <label>:27:                                     ; preds = %16, %15
  br label %13
}

; Function Attrs: noreturn
declare void @_ZSt17__throw_bad_allocv() #9

; Function Attrs: nobuiltin
declare noalias i8* @_Znwm(i64) #10

; Function Attrs: noinline uwtable
define linkonce_odr i32* @_ZSt22__uninitialized_copy_aISt13move_iteratorIPiES1_iET0_T_S4_S3_RSaIT1_E(i32*, i32*, i32*, %"class.std::allocator"* dereferenceable(1)) #0 comdat {
  %5 = alloca i32*
  %6 = alloca i1
  %7 = alloca i1
  %8 = load i32, i32* @x.97
  %9 = load i32, i32* @y.98
  %10 = sub i32 %8, 382766181
  %11 = sub i32 %10, 1
  %12 = add i32 %11, 382766181
  %13 = sub i32 %8, 1
  %14 = mul i32 %8, %12
  %15 = urem i32 %14, 2
  %16 = icmp eq i32 %15, 0
  store i1 %16, i1* %7
  %17 = icmp slt i32 %9, 10
  store i1 %17, i1* %6
  %18 = alloca i32
  store i32 -380706885, i32* %18
  br label %19

; <label>:19:                                     ; preds = %4, %84
  %20 = load i32, i32* %18
  switch i32 %20, label %21 [
    i32 -380706885, label %22
    i32 -1816077406, label %30
    i32 -1618053622, label %63
    i32 166491271, label %65
  ]

; <label>:21:                                     ; preds = %19
  br label %84

; <label>:22:                                     ; preds = %19
  %23 = load volatile i1, i1* %7
  %24 = load volatile i1, i1* %6
  %25 = and i1 %23, %24
  %26 = xor i1 %23, %24
  %27 = or i1 %25, %26
  %28 = or i1 %23, %24
  %29 = select i1 %27, i32 -1816077406, i32 166491271
  store i32 %29, i32* %18
  br label %84

; <label>:30:                                     ; preds = %19
  %31 = alloca %"class.std::move_iterator", align 8
  %32 = alloca %"class.std::move_iterator", align 8
  %33 = alloca i32*, align 8
  %34 = alloca %"class.std::allocator"*, align 8
  %35 = alloca %"class.std::move_iterator", align 8
  %36 = alloca %"class.std::move_iterator", align 8
  %37 = getelementptr inbounds %"class.std::move_iterator", %"class.std::move_iterator"* %31, i32 0, i32 0
  store i32* %0, i32** %37, align 8
  %38 = getelementptr inbounds %"class.std::move_iterator", %"class.std::move_iterator"* %32, i32 0, i32 0
  store i32* %1, i32** %38, align 8
  store i32* %2, i32** %33, align 8
  store %"class.std::allocator"* %3, %"class.std::allocator"** %34, align 8
  %39 = bitcast %"class.std::move_iterator"* %35 to i8*
  %40 = bitcast %"class.std::move_iterator"* %31 to i8*
  call void @llvm.memcpy.p0i8.p0i8.i64(i8* %39, i8* %40, i64 8, i32 8, i1 false)
  %41 = bitcast %"class.std::move_iterator"* %36 to i8*
  %42 = bitcast %"class.std::move_iterator"* %32 to i8*
  call void @llvm.memcpy.p0i8.p0i8.i64(i8* %41, i8* %42, i64 8, i32 8, i1 false)
  %43 = load i32*, i32** %33, align 8
  %44 = getelementptr inbounds %"class.std::move_iterator", %"class.std::move_iterator"* %35, i32 0, i32 0
  %45 = load i32*, i32** %44, align 8
  %46 = getelementptr inbounds %"class.std::move_iterator", %"class.std::move_iterator"* %36, i32 0, i32 0
  %47 = load i32*, i32** %46, align 8
  %48 = call i32* @_ZSt18uninitialized_copyISt13move_iteratorIPiES1_ET0_T_S4_S3_(i32* %45, i32* %47, i32* %43)
  store i32* %48, i32** %5
  %49 = load i32, i32* @x.97
  %50 = load i32, i32* @y.98
  %51 = sub i32 0, 1
  %52 = add i32 %49, %51
  %53 = sub i32 %49, 1
  %54 = mul i32 %49, %52
  %55 = urem i32 %54, 2
  %56 = icmp eq i32 %55, 0
  %57 = icmp slt i32 %50, 10
  %58 = and i1 %56, %57
  %59 = xor i1 %56, %57
  %60 = or i1 %58, %59
  %61 = or i1 %56, %57
  %62 = select i1 %60, i32 -1618053622, i32 166491271
  store i32 %62, i32* %18
  br label %84

; <label>:63:                                     ; preds = %19
  %64 = load volatile i32*, i32** %5
  ret i32* %64

; <label>:65:                                     ; preds = %19
  %66 = alloca %"class.std::move_iterator", align 8
  %67 = alloca %"class.std::move_iterator", align 8
  %68 = alloca i32*, align 8
  %69 = alloca %"class.std::allocator"*, align 8
  %70 = alloca %"class.std::move_iterator", align 8
  %71 = alloca %"class.std::move_iterator", align 8
  %72 = getelementptr inbounds %"class.std::move_iterator", %"class.std::move_iterator"* %66, i32 0, i32 0
  store i32* %0, i32** %72, align 8
  %73 = getelementptr inbounds %"class.std::move_iterator", %"class.std::move_iterator"* %67, i32 0, i32 0
  store i32* %1, i32** %73, align 8
  store i32* %2, i32** %68, align 8
  store %"class.std::allocator"* %3, %"class.std::allocator"** %69, align 8
  %74 = bitcast %"class.std::move_iterator"* %70 to i8*
  %75 = bitcast %"class.std::move_iterator"* %66 to i8*
  call void @llvm.memcpy.p0i8.p0i8.i64(i8* %74, i8* %75, i64 8, i32 8, i1 false)
  %76 = bitcast %"class.std::move_iterator"* %71 to i8*
  %77 = bitcast %"class.std::move_iterator"* %67 to i8*
  call void @llvm.memcpy.p0i8.p0i8.i64(i8* %76, i8* %77, i64 8, i32 8, i1 false)
  %78 = load i32*, i32** %68, align 8
  %79 = getelementptr inbounds %"class.std::move_iterator", %"class.std::move_iterator"* %70, i32 0, i32 0
  %80 = load i32*, i32** %79, align 8
  %81 = getelementptr inbounds %"class.std::move_iterator", %"class.std::move_iterator"* %71, i32 0, i32 0
  %82 = load i32*, i32** %81, align 8
  %83 = call i32* @_ZSt18uninitialized_copyISt13move_iteratorIPiES1_ET0_T_S4_S3_(i32* %80, i32* %82, i32* %78)
  store i32 -1816077406, i32* %18
  br label %84

; <label>:84:                                     ; preds = %65, %30, %22, %21
  br label %19
}

; Function Attrs: noinline uwtable
define linkonce_odr i32* @_ZSt32__make_move_if_noexcept_iteratorIPiSt13move_iteratorIS0_EET0_T_(i32*) #0 comdat {
  %2 = alloca i32*
  %3 = alloca i1
  %4 = alloca i1
  %5 = load i32, i32* @x.99
  %6 = load i32, i32* @y.100
  %7 = add i32 %5, 1829641822
  %8 = sub i32 %7, 1
  %9 = sub i32 %8, 1829641822
  %10 = sub i32 %5, 1
  %11 = mul i32 %5, %9
  %12 = urem i32 %11, 2
  %13 = icmp eq i32 %12, 0
  store i1 %13, i1* %4
  %14 = icmp slt i32 %6, 10
  store i1 %14, i1* %3
  %15 = alloca i32
  store i32 379163919, i32* %15
  br label %16

; <label>:16:                                     ; preds = %1, %68
  %17 = load i32, i32* %15
  switch i32 %17, label %18 [
    i32 379163919, label %19
    i32 -689796537, label %27
    i32 -560739991, label %60
    i32 -583540809, label %62
  ]

; <label>:18:                                     ; preds = %16
  br label %68

; <label>:19:                                     ; preds = %16
  %20 = load volatile i1, i1* %4
  %21 = load volatile i1, i1* %3
  %22 = and i1 %20, %21
  %23 = xor i1 %20, %21
  %24 = or i1 %22, %23
  %25 = or i1 %20, %21
  %26 = select i1 %24, i32 -689796537, i32 -583540809
  store i32 %26, i32* %15
  br label %68

; <label>:27:                                     ; preds = %16
  %28 = alloca %"class.std::move_iterator", align 8
  %29 = alloca i32*, align 8
  store i32* %0, i32** %29, align 8
  %30 = load i32*, i32** %29, align 8
  call void @_ZNSt13move_iteratorIPiEC2ES0_(%"class.std::move_iterator"* %28, i32* %30)
  %31 = getelementptr inbounds %"class.std::move_iterator", %"class.std::move_iterator"* %28, i32 0, i32 0
  %32 = load i32*, i32** %31, align 8
  store i32* %32, i32** %2
  %33 = load i32, i32* @x.99
  %34 = load i32, i32* @y.100
  %35 = add i32 %33, -318705416
  %36 = sub i32 %35, 1
  %37 = sub i32 %36, -318705416
  %38 = sub i32 %33, 1
  %39 = mul i32 %33, %37
  %40 = urem i32 %39, 2
  %41 = icmp eq i32 %40, 0
  %42 = icmp slt i32 %34, 10
  %43 = xor i1 %41, true
  %44 = xor i1 %42, true
  %45 = xor i1 true, true
  %46 = and i1 %43, true
  %47 = and i1 %41, %45
  %48 = and i1 %44, true
  %49 = and i1 %42, %45
  %50 = or i1 %46, %47
  %51 = or i1 %48, %49
  %52 = xor i1 %50, %51
  %53 = or i1 %43, %44
  %54 = xor i1 %53, true
  %55 = or i1 true, %45
  %56 = and i1 %54, %55
  %57 = or i1 %52, %56
  %58 = or i1 %41, %42
  %59 = select i1 %57, i32 -560739991, i32 -583540809
  store i32 %59, i32* %15
  br label %68

; <label>:60:                                     ; preds = %16
  %61 = load volatile i32*, i32** %2
  ret i32* %61

; <label>:62:                                     ; preds = %16
  %63 = alloca %"class.std::move_iterator", align 8
  %64 = alloca i32*, align 8
  store i32* %0, i32** %64, align 8
  %65 = load i32*, i32** %64, align 8
  call void @_ZNSt13move_iteratorIPiEC2ES0_(%"class.std::move_iterator"* %63, i32* %65)
  %66 = getelementptr inbounds %"class.std::move_iterator", %"class.std::move_iterator"* %63, i32 0, i32 0
  %67 = load i32*, i32** %66, align 8
  store i32 -689796537, i32* %15
  br label %68

; <label>:68:                                     ; preds = %62, %27, %19, %18
  br label %16
}

; Function Attrs: noinline uwtable
define linkonce_odr i32* @_ZSt18uninitialized_copyISt13move_iteratorIPiES1_ET0_T_S4_S3_(i32*, i32*, i32*) #0 comdat {
  %4 = alloca %"class.std::move_iterator", align 8
  %5 = alloca %"class.std::move_iterator", align 8
  %6 = alloca i32*, align 8
  %7 = alloca i8, align 1
  %8 = alloca %"class.std::move_iterator", align 8
  %9 = alloca %"class.std::move_iterator", align 8
  %10 = getelementptr inbounds %"class.std::move_iterator", %"class.std::move_iterator"* %4, i32 0, i32 0
  store i32* %0, i32** %10, align 8
  %11 = getelementptr inbounds %"class.std::move_iterator", %"class.std::move_iterator"* %5, i32 0, i32 0
  store i32* %1, i32** %11, align 8
  store i32* %2, i32** %6, align 8
  store i8 1, i8* %7, align 1
  %12 = bitcast %"class.std::move_iterator"* %8 to i8*
  %13 = bitcast %"class.std::move_iterator"* %4 to i8*
  call void @llvm.memcpy.p0i8.p0i8.i64(i8* %12, i8* %13, i64 8, i32 8, i1 false)
  %14 = bitcast %"class.std::move_iterator"* %9 to i8*
  %15 = bitcast %"class.std::move_iterator"* %5 to i8*
  call void @llvm.memcpy.p0i8.p0i8.i64(i8* %14, i8* %15, i64 8, i32 8, i1 false)
  %16 = load i32*, i32** %6, align 8
  %17 = getelementptr inbounds %"class.std::move_iterator", %"class.std::move_iterator"* %8, i32 0, i32 0
  %18 = load i32*, i32** %17, align 8
  %19 = getelementptr inbounds %"class.std::move_iterator", %"class.std::move_iterator"* %9, i32 0, i32 0
  %20 = load i32*, i32** %19, align 8
  %21 = call i32* @_ZNSt20__uninitialized_copyILb1EE13__uninit_copyISt13move_iteratorIPiES3_EET0_T_S6_S5_(i32* %18, i32* %20, i32* %16)
  ret i32* %21
}

; Function Attrs: argmemonly nounwind
declare void @llvm.memcpy.p0i8.p0i8.i64(i8* nocapture writeonly, i8* nocapture readonly, i64, i32, i1) #11

; Function Attrs: noinline uwtable
define linkonce_odr i32* @_ZNSt20__uninitialized_copyILb1EE13__uninit_copyISt13move_iteratorIPiES3_EET0_T_S6_S5_(i32*, i32*, i32*) #0 comdat align 2 {
  %4 = alloca %"class.std::move_iterator", align 8
  %5 = alloca %"class.std::move_iterator", align 8
  %6 = alloca i32*, align 8
  %7 = alloca %"class.std::move_iterator", align 8
  %8 = alloca %"class.std::move_iterator", align 8
  %9 = getelementptr inbounds %"class.std::move_iterator", %"class.std::move_iterator"* %4, i32 0, i32 0
  store i32* %0, i32** %9, align 8
  %10 = getelementptr inbounds %"class.std::move_iterator", %"class.std::move_iterator"* %5, i32 0, i32 0
  store i32* %1, i32** %10, align 8
  store i32* %2, i32** %6, align 8
  %11 = bitcast %"class.std::move_iterator"* %7 to i8*
  %12 = bitcast %"class.std::move_iterator"* %4 to i8*
  call void @llvm.memcpy.p0i8.p0i8.i64(i8* %11, i8* %12, i64 8, i32 8, i1 false)
  %13 = bitcast %"class.std::move_iterator"* %8 to i8*
  %14 = bitcast %"class.std::move_iterator"* %5 to i8*
  call void @llvm.memcpy.p0i8.p0i8.i64(i8* %13, i8* %14, i64 8, i32 8, i1 false)
  %15 = load i32*, i32** %6, align 8
  %16 = getelementptr inbounds %"class.std::move_iterator", %"class.std::move_iterator"* %7, i32 0, i32 0
  %17 = load i32*, i32** %16, align 8
  %18 = getelementptr inbounds %"class.std::move_iterator", %"class.std::move_iterator"* %8, i32 0, i32 0
  %19 = load i32*, i32** %18, align 8
  %20 = call i32* @_ZSt4copyISt13move_iteratorIPiES1_ET0_T_S4_S3_(i32* %17, i32* %19, i32* %15)
  ret i32* %20
}

; Function Attrs: noinline uwtable
define linkonce_odr i32* @_ZSt4copyISt13move_iteratorIPiES1_ET0_T_S4_S3_(i32*, i32*, i32*) #0 comdat {
  %4 = alloca %"class.std::move_iterator", align 8
  %5 = alloca %"class.std::move_iterator", align 8
  %6 = alloca i32*, align 8
  %7 = alloca %"class.std::move_iterator", align 8
  %8 = alloca %"class.std::move_iterator", align 8
  %9 = getelementptr inbounds %"class.std::move_iterator", %"class.std::move_iterator"* %4, i32 0, i32 0
  store i32* %0, i32** %9, align 8
  %10 = getelementptr inbounds %"class.std::move_iterator", %"class.std::move_iterator"* %5, i32 0, i32 0
  store i32* %1, i32** %10, align 8
  store i32* %2, i32** %6, align 8
  %11 = bitcast %"class.std::move_iterator"* %7 to i8*
  %12 = bitcast %"class.std::move_iterator"* %4 to i8*
  call void @llvm.memcpy.p0i8.p0i8.i64(i8* %11, i8* %12, i64 8, i32 8, i1 false)
  %13 = getelementptr inbounds %"class.std::move_iterator", %"class.std::move_iterator"* %7, i32 0, i32 0
  %14 = load i32*, i32** %13, align 8
  %15 = call i32* @_ZSt12__miter_baseISt13move_iteratorIPiEENSt11_Miter_baseIT_E13iterator_typeES4_(i32* %14)
  %16 = bitcast %"class.std::move_iterator"* %8 to i8*
  %17 = bitcast %"class.std::move_iterator"* %5 to i8*
  call void @llvm.memcpy.p0i8.p0i8.i64(i8* %16, i8* %17, i64 8, i32 8, i1 false)
  %18 = getelementptr inbounds %"class.std::move_iterator", %"class.std::move_iterator"* %8, i32 0, i32 0
  %19 = load i32*, i32** %18, align 8
  %20 = call i32* @_ZSt12__miter_baseISt13move_iteratorIPiEENSt11_Miter_baseIT_E13iterator_typeES4_(i32* %19)
  %21 = load i32*, i32** %6, align 8
  %22 = call i32* @_ZSt14__copy_move_a2ILb1EPiS0_ET1_T0_S2_S1_(i32* %15, i32* %20, i32* %21)
  ret i32* %22
}

; Function Attrs: noinline uwtable
define linkonce_odr i32* @_ZSt14__copy_move_a2ILb1EPiS0_ET1_T0_S2_S1_(i32*, i32*, i32*) #0 comdat {
  %4 = alloca i32*
  %5 = alloca i1
  %6 = alloca i1
  %7 = load i32, i32* @x.107
  %8 = load i32, i32* @y.108
  %9 = sub i32 0, 1
  %10 = add i32 %7, %9
  %11 = sub i32 %7, 1
  %12 = mul i32 %7, %10
  %13 = urem i32 %12, 2
  %14 = icmp eq i32 %13, 0
  store i1 %14, i1* %6
  %15 = icmp slt i32 %8, 10
  store i1 %15, i1* %5
  %16 = alloca i32
  store i32 826416216, i32* %16
  br label %17

; <label>:17:                                     ; preds = %3, %79
  %18 = load i32, i32* %16
  switch i32 %18, label %19 [
    i32 826416216, label %20
    i32 2089184238, label %28
    i32 -560977684, label %66
    i32 -782207378, label %68
  ]

; <label>:19:                                     ; preds = %17
  br label %79

; <label>:20:                                     ; preds = %17
  %21 = load volatile i1, i1* %6
  %22 = load volatile i1, i1* %5
  %23 = and i1 %21, %22
  %24 = xor i1 %21, %22
  %25 = or i1 %23, %24
  %26 = or i1 %21, %22
  %27 = select i1 %25, i32 2089184238, i32 -782207378
  store i32 %27, i32* %16
  br label %79

; <label>:28:                                     ; preds = %17
  %29 = alloca i32*, align 8
  %30 = alloca i32*, align 8
  %31 = alloca i32*, align 8
  store i32* %0, i32** %29, align 8
  store i32* %1, i32** %30, align 8
  store i32* %2, i32** %31, align 8
  %32 = load i32*, i32** %29, align 8
  %33 = call i32* @_ZSt12__niter_baseIPiENSt11_Niter_baseIT_E13iterator_typeES2_(i32* %32)
  %34 = load i32*, i32** %30, align 8
  %35 = call i32* @_ZSt12__niter_baseIPiENSt11_Niter_baseIT_E13iterator_typeES2_(i32* %34)
  %36 = load i32*, i32** %31, align 8
  %37 = call i32* @_ZSt12__niter_baseIPiENSt11_Niter_baseIT_E13iterator_typeES2_(i32* %36)
  %38 = call i32* @_ZSt13__copy_move_aILb1EPiS0_ET1_T0_S2_S1_(i32* %33, i32* %35, i32* %37)
  store i32* %38, i32** %4
  %39 = load i32, i32* @x.107
  %40 = load i32, i32* @y.108
  %41 = sub i32 %39, -870375762
  %42 = sub i32 %41, 1
  %43 = add i32 %42, -870375762
  %44 = sub i32 %39, 1
  %45 = mul i32 %39, %43
  %46 = urem i32 %45, 2
  %47 = icmp eq i32 %46, 0
  %48 = icmp slt i32 %40, 10
  %49 = xor i1 %47, true
  %50 = xor i1 %48, true
  %51 = xor i1 false, true
  %52 = and i1 %49, false
  %53 = and i1 %47, %51
  %54 = and i1 %50, false
  %55 = and i1 %48, %51
  %56 = or i1 %52, %53
  %57 = or i1 %54, %55
  %58 = xor i1 %56, %57
  %59 = or i1 %49, %50
  %60 = xor i1 %59, true
  %61 = or i1 false, %51
  %62 = and i1 %60, %61
  %63 = or i1 %58, %62
  %64 = or i1 %47, %48
  %65 = select i1 %63, i32 -560977684, i32 -782207378
  store i32 %65, i32* %16
  br label %79

; <label>:66:                                     ; preds = %17
  %67 = load volatile i32*, i32** %4
  ret i32* %67

; <label>:68:                                     ; preds = %17
  %69 = alloca i32*, align 8
  %70 = alloca i32*, align 8
  %71 = alloca i32*, align 8
  store i32* %0, i32** %69, align 8
  store i32* %1, i32** %70, align 8
  store i32* %2, i32** %71, align 8
  %72 = load i32*, i32** %69, align 8
  %73 = call i32* @_ZSt12__niter_baseIPiENSt11_Niter_baseIT_E13iterator_typeES2_(i32* %72)
  %74 = load i32*, i32** %70, align 8
  %75 = call i32* @_ZSt12__niter_baseIPiENSt11_Niter_baseIT_E13iterator_typeES2_(i32* %74)
  %76 = load i32*, i32** %71, align 8
  %77 = call i32* @_ZSt12__niter_baseIPiENSt11_Niter_baseIT_E13iterator_typeES2_(i32* %76)
  %78 = call i32* @_ZSt13__copy_move_aILb1EPiS0_ET1_T0_S2_S1_(i32* %73, i32* %75, i32* %77)
  store i32 2089184238, i32* %16
  br label %79

; <label>:79:                                     ; preds = %68, %28, %20, %19
  br label %17
}

; Function Attrs: noinline uwtable
define linkonce_odr i32* @_ZSt12__miter_baseISt13move_iteratorIPiEENSt11_Miter_baseIT_E13iterator_typeES4_(i32*) #0 comdat {
  %2 = alloca i32*
  %3 = alloca i1
  %4 = alloca i1
  %5 = load i32, i32* @x.109
  %6 = load i32, i32* @y.110
  %7 = sub i32 %5, 985887827
  %8 = sub i32 %7, 1
  %9 = add i32 %8, 985887827
  %10 = sub i32 %5, 1
  %11 = mul i32 %5, %9
  %12 = urem i32 %11, 2
  %13 = icmp eq i32 %12, 0
  store i1 %13, i1* %4
  %14 = icmp slt i32 %6, 10
  store i1 %14, i1* %3
  %15 = alloca i32
  store i32 1855154074, i32* %15
  br label %16

; <label>:16:                                     ; preds = %1, %74
  %17 = load i32, i32* %15
  switch i32 %17, label %18 [
    i32 1855154074, label %19
    i32 999557670, label %39
    i32 1729079861, label %63
    i32 1496556598, label %65
  ]

; <label>:18:                                     ; preds = %16
  br label %74

; <label>:19:                                     ; preds = %16
  %20 = load volatile i1, i1* %4
  %21 = load volatile i1, i1* %3
  %22 = xor i1 %20, true
  %23 = xor i1 %21, true
  %24 = xor i1 false, true
  %25 = and i1 %22, false
  %26 = and i1 %20, %24
  %27 = and i1 %23, false
  %28 = and i1 %21, %24
  %29 = or i1 %25, %26
  %30 = or i1 %27, %28
  %31 = xor i1 %29, %30
  %32 = or i1 %22, %23
  %33 = xor i1 %32, true
  %34 = or i1 false, %24
  %35 = and i1 %33, %34
  %36 = or i1 %31, %35
  %37 = or i1 %20, %21
  %38 = select i1 %36, i32 999557670, i32 1496556598
  store i32 %38, i32* %15
  br label %74

; <label>:39:                                     ; preds = %16
  %40 = alloca %"class.std::move_iterator", align 8
  %41 = alloca %"class.std::move_iterator", align 8
  %42 = getelementptr inbounds %"class.std::move_iterator", %"class.std::move_iterator"* %40, i32 0, i32 0
  store i32* %0, i32** %42, align 8
  %43 = bitcast %"class.std::move_iterator"* %41 to i8*
  %44 = bitcast %"class.std::move_iterator"* %40 to i8*
  call void @llvm.memcpy.p0i8.p0i8.i64(i8* %43, i8* %44, i64 8, i32 8, i1 false)
  %45 = getelementptr inbounds %"class.std::move_iterator", %"class.std::move_iterator"* %41, i32 0, i32 0
  %46 = load i32*, i32** %45, align 8
  %47 = call i32* @_ZNSt10_Iter_baseISt13move_iteratorIPiELb1EE7_S_baseES2_(i32* %46)
  store i32* %47, i32** %2
  %48 = load i32, i32* @x.109
  %49 = load i32, i32* @y.110
  %50 = add i32 %48, 2033166293
  %51 = sub i32 %50, 1
  %52 = sub i32 %51, 2033166293
  %53 = sub i32 %48, 1
  %54 = mul i32 %48, %52
  %55 = urem i32 %54, 2
  %56 = icmp eq i32 %55, 0
  %57 = icmp slt i32 %49, 10
  %58 = and i1 %56, %57
  %59 = xor i1 %56, %57
  %60 = or i1 %58, %59
  %61 = or i1 %56, %57
  %62 = select i1 %60, i32 1729079861, i32 1496556598
  store i32 %62, i32* %15
  br label %74

; <label>:63:                                     ; preds = %16
  %64 = load volatile i32*, i32** %2
  ret i32* %64

; <label>:65:                                     ; preds = %16
  %66 = alloca %"class.std::move_iterator", align 8
  %67 = alloca %"class.std::move_iterator", align 8
  %68 = getelementptr inbounds %"class.std::move_iterator", %"class.std::move_iterator"* %66, i32 0, i32 0
  store i32* %0, i32** %68, align 8
  %69 = bitcast %"class.std::move_iterator"* %67 to i8*
  %70 = bitcast %"class.std::move_iterator"* %66 to i8*
  call void @llvm.memcpy.p0i8.p0i8.i64(i8* %69, i8* %70, i64 8, i32 8, i1 false)
  %71 = getelementptr inbounds %"class.std::move_iterator", %"class.std::move_iterator"* %67, i32 0, i32 0
  %72 = load i32*, i32** %71, align 8
  %73 = call i32* @_ZNSt10_Iter_baseISt13move_iteratorIPiELb1EE7_S_baseES2_(i32* %72)
  store i32 999557670, i32* %15
  br label %74

; <label>:74:                                     ; preds = %65, %39, %19, %18
  br label %16
}

; Function Attrs: noinline uwtable
define linkonce_odr i32* @_ZSt13__copy_move_aILb1EPiS0_ET1_T0_S2_S1_(i32*, i32*, i32*) #0 comdat {
  %4 = alloca i32*, align 8
  %5 = alloca i32*, align 8
  %6 = alloca i32*, align 8
  %7 = alloca i8, align 1
  store i32* %0, i32** %4, align 8
  store i32* %1, i32** %5, align 8
  store i32* %2, i32** %6, align 8
  store i8 1, i8* %7, align 1
  %8 = load i32*, i32** %4, align 8
  %9 = load i32*, i32** %5, align 8
  %10 = load i32*, i32** %6, align 8
  %11 = call i32* @_ZNSt11__copy_moveILb1ELb1ESt26random_access_iterator_tagE8__copy_mIiEEPT_PKS3_S6_S4_(i32* %8, i32* %9, i32* %10)
  ret i32* %11
}

; Function Attrs: noinline uwtable
define linkonce_odr i32* @_ZSt12__niter_baseIPiENSt11_Niter_baseIT_E13iterator_typeES2_(i32*) #0 comdat {
  %2 = alloca i32*
  %3 = alloca i1
  %4 = alloca i1
  %5 = load i32, i32* @x.113
  %6 = load i32, i32* @y.114
  %7 = sub i32 0, 1
  %8 = add i32 %5, %7
  %9 = sub i32 %5, 1
  %10 = mul i32 %5, %8
  %11 = urem i32 %10, 2
  %12 = icmp eq i32 %11, 0
  store i1 %12, i1* %4
  %13 = icmp slt i32 %6, 10
  store i1 %13, i1* %3
  %14 = alloca i32
  store i32 -835327009, i32* %14
  br label %15

; <label>:15:                                     ; preds = %1, %50
  %16 = load i32, i32* %14
  switch i32 %16, label %17 [
    i32 -835327009, label %18
    i32 1093487706, label %26
    i32 -1144492131, label %44
    i32 -449481616, label %46
  ]

; <label>:17:                                     ; preds = %15
  br label %50

; <label>:18:                                     ; preds = %15
  %19 = load volatile i1, i1* %4
  %20 = load volatile i1, i1* %3
  %21 = and i1 %19, %20
  %22 = xor i1 %19, %20
  %23 = or i1 %21, %22
  %24 = or i1 %19, %20
  %25 = select i1 %23, i32 1093487706, i32 -449481616
  store i32 %25, i32* %14
  br label %50

; <label>:26:                                     ; preds = %15
  %27 = alloca i32*, align 8
  store i32* %0, i32** %27, align 8
  %28 = load i32*, i32** %27, align 8
  %29 = call i32* @_ZNSt10_Iter_baseIPiLb0EE7_S_baseES0_(i32* %28)
  store i32* %29, i32** %2
  %30 = load i32, i32* @x.113
  %31 = load i32, i32* @y.114
  %32 = sub i32 0, 1
  %33 = add i32 %30, %32
  %34 = sub i32 %30, 1
  %35 = mul i32 %30, %33
  %36 = urem i32 %35, 2
  %37 = icmp eq i32 %36, 0
  %38 = icmp slt i32 %31, 10
  %39 = and i1 %37, %38
  %40 = xor i1 %37, %38
  %41 = or i1 %39, %40
  %42 = or i1 %37, %38
  %43 = select i1 %41, i32 -1144492131, i32 -449481616
  store i32 %43, i32* %14
  br label %50

; <label>:44:                                     ; preds = %15
  %45 = load volatile i32*, i32** %2
  ret i32* %45

; <label>:46:                                     ; preds = %15
  %47 = alloca i32*, align 8
  store i32* %0, i32** %47, align 8
  %48 = load i32*, i32** %47, align 8
  %49 = call i32* @_ZNSt10_Iter_baseIPiLb0EE7_S_baseES0_(i32* %48)
  store i32 1093487706, i32* %14
  br label %50

; <label>:50:                                     ; preds = %46, %26, %18, %17
  br label %15
}

; Function Attrs: noinline nounwind uwtable
define linkonce_odr i32* @_ZNSt11__copy_moveILb1ELb1ESt26random_access_iterator_tagE8__copy_mIiEEPT_PKS3_S6_S4_(i32*, i32*, i32*) #4 comdat align 2 {
  %4 = alloca i32*
  %5 = alloca i1
  %6 = alloca i64*
  %7 = alloca i32**
  %8 = alloca i32**
  %9 = alloca i1
  %10 = alloca i1
  %11 = load i32, i32* @x.115
  %12 = load i32, i32* @y.116
  %13 = sub i32 0, 1
  %14 = add i32 %11, %13
  %15 = sub i32 %11, 1
  %16 = mul i32 %11, %14
  %17 = urem i32 %16, 2
  %18 = icmp eq i32 %17, 0
  store i1 %18, i1* %10
  %19 = icmp slt i32 %12, 10
  store i1 %19, i1* %9
  %20 = alloca i32
  store i32 -1809690892, i32* %20
  br label %21

; <label>:21:                                     ; preds = %3, %199
  %22 = load i32, i32* %20
  switch i32 %22, label %23 [
    i32 -1809690892, label %24
    i32 -504974145, label %44
    i32 1144199837, label %90
    i32 -1792383613, label %93
    i32 1213424294, label %103
    i32 -657904112, label %119
    i32 -1715406105, label %139
    i32 -22435026, label %141
    i32 -1329849157, label %193
  ]

; <label>:23:                                     ; preds = %21
  br label %199

; <label>:24:                                     ; preds = %21
  %25 = load volatile i1, i1* %10
  %26 = load volatile i1, i1* %9
  %27 = xor i1 %25, true
  %28 = xor i1 %26, true
  %29 = xor i1 true, true
  %30 = and i1 %27, true
  %31 = and i1 %25, %29
  %32 = and i1 %28, true
  %33 = and i1 %26, %29
  %34 = or i1 %30, %31
  %35 = or i1 %32, %33
  %36 = xor i1 %34, %35
  %37 = or i1 %27, %28
  %38 = xor i1 %37, true
  %39 = or i1 true, %29
  %40 = and i1 %38, %39
  %41 = or i1 %36, %40
  %42 = or i1 %25, %26
  %43 = select i1 %41, i32 -504974145, i32 -22435026
  store i32 %43, i32* %20
  br label %199

; <label>:44:                                     ; preds = %21
  %45 = alloca i32*, align 8
  store i32** %45, i32*** %8
  %46 = alloca i32*, align 8
  %47 = alloca i32*, align 8
  store i32** %47, i32*** %7
  %48 = alloca i64, align 8
  store i64* %48, i64** %6
  %49 = load volatile i32**, i32*** %8
  store i32* %0, i32** %49, align 8
  store i32* %1, i32** %46, align 8
  %50 = load volatile i32**, i32*** %7
  store i32* %2, i32** %50, align 8
  %51 = load i32*, i32** %46, align 8
  %52 = load volatile i32**, i32*** %8
  %53 = load i32*, i32** %52, align 8
  %54 = ptrtoint i32* %51 to i64
  %55 = ptrtoint i32* %53 to i64
  %56 = sub i64 0, %55
  %57 = add i64 %54, %56
  %58 = sub i64 %54, %55
  %59 = sdiv exact i64 %57, 4
  %60 = load volatile i64*, i64** %6
  store i64 %59, i64* %60, align 8
  %61 = load volatile i64*, i64** %6
  %62 = load i64, i64* %61, align 8
  %63 = icmp ne i64 %62, 0
  store i1 %63, i1* %5
  %64 = load i32, i32* @x.115
  %65 = load i32, i32* @y.116
  %66 = sub i32 0, 1
  %67 = add i32 %64, %66
  %68 = sub i32 %64, 1
  %69 = mul i32 %64, %67
  %70 = urem i32 %69, 2
  %71 = icmp eq i32 %70, 0
  %72 = icmp slt i32 %65, 10
  %73 = xor i1 %71, true
  %74 = xor i1 %72, true
  %75 = xor i1 true, true
  %76 = and i1 %73, true
  %77 = and i1 %71, %75
  %78 = and i1 %74, true
  %79 = and i1 %72, %75
  %80 = or i1 %76, %77
  %81 = or i1 %78, %79
  %82 = xor i1 %80, %81
  %83 = or i1 %73, %74
  %84 = xor i1 %83, true
  %85 = or i1 true, %75
  %86 = and i1 %84, %85
  %87 = or i1 %82, %86
  %88 = or i1 %71, %72
  %89 = select i1 %87, i32 1144199837, i32 -22435026
  store i32 %89, i32* %20
  br label %199

; <label>:90:                                     ; preds = %21
  %91 = load volatile i1, i1* %5
  %92 = select i1 %91, i32 -1792383613, i32 1213424294
  store i32 %92, i32* %20
  br label %199

; <label>:93:                                     ; preds = %21
  %94 = load volatile i32**, i32*** %7
  %95 = load i32*, i32** %94, align 8
  %96 = bitcast i32* %95 to i8*
  %97 = load volatile i32**, i32*** %8
  %98 = load i32*, i32** %97, align 8
  %99 = bitcast i32* %98 to i8*
  %100 = load volatile i64*, i64** %6
  %101 = load i64, i64* %100, align 8
  %102 = mul i64 4, %101
  call void @llvm.memmove.p0i8.p0i8.i64(i8* %96, i8* %99, i64 %102, i32 4, i1 false)
  store i32 1213424294, i32* %20
  br label %199

; <label>:103:                                    ; preds = %21
  %104 = load i32, i32* @x.115
  %105 = load i32, i32* @y.116
  %106 = sub i32 %104, -793720424
  %107 = sub i32 %106, 1
  %108 = add i32 %107, -793720424
  %109 = sub i32 %104, 1
  %110 = mul i32 %104, %108
  %111 = urem i32 %110, 2
  %112 = icmp eq i32 %111, 0
  %113 = icmp slt i32 %105, 10
  %114 = and i1 %112, %113
  %115 = xor i1 %112, %113
  %116 = or i1 %114, %115
  %117 = or i1 %112, %113
  %118 = select i1 %116, i32 -657904112, i32 -1329849157
  store i32 %118, i32* %20
  br label %199

; <label>:119:                                    ; preds = %21
  %120 = load volatile i32**, i32*** %7
  %121 = load i32*, i32** %120, align 8
  %122 = load volatile i64*, i64** %6
  %123 = load i64, i64* %122, align 8
  %124 = getelementptr inbounds i32, i32* %121, i64 %123
  store i32* %124, i32** %4
  %125 = load i32, i32* @x.115
  %126 = load i32, i32* @y.116
  %127 = sub i32 0, 1
  %128 = add i32 %125, %127
  %129 = sub i32 %125, 1
  %130 = mul i32 %125, %128
  %131 = urem i32 %130, 2
  %132 = icmp eq i32 %131, 0
  %133 = icmp slt i32 %126, 10
  %134 = and i1 %132, %133
  %135 = xor i1 %132, %133
  %136 = or i1 %134, %135
  %137 = or i1 %132, %133
  %138 = select i1 %136, i32 -1715406105, i32 -1329849157
  store i32 %138, i32* %20
  br label %199

; <label>:139:                                    ; preds = %21
  %140 = load volatile i32*, i32** %4
  ret i32* %140

; <label>:141:                                    ; preds = %21
  %142 = alloca i32*, align 8
  %143 = alloca i32*, align 8
  %144 = alloca i32*, align 8
  %145 = alloca i64, align 8
  store i32* %0, i32** %142, align 8
  store i32* %1, i32** %143, align 8
  store i32* %2, i32** %144, align 8
  %146 = load i32*, i32** %143, align 8
  %147 = load i32*, i32** %142, align 8
  %148 = ptrtoint i32* %146 to i64
  %149 = ptrtoint i32* %147 to i64
  %150 = add i64 %148, 8014510528966008124
  %151 = sub i64 %150, %149
  %152 = sub i64 %151, 8014510528966008124
  %153 = sub i64 %148, %149
  %154 = mul i64 %152, %149
  %155 = add i64 %148, 2785685644511001466
  %156 = sub i64 %155, %149
  %157 = sub i64 %156, 2785685644511001466
  %158 = sub i64 %148, %149
  %159 = mul i64 %157, %149
  %160 = sub i64 0, %149
  %161 = add i64 %148, %160
  %162 = sub i64 %148, %149
  %163 = mul i64 %161, %149
  %164 = sub i64 0, %149
  %165 = add i64 %148, %164
  %166 = sub i64 %148, %149
  %167 = mul i64 %165, %149
  %168 = sub i64 0, %148
  %169 = add i64 0, %168
  %170 = sub i64 0, %148
  %171 = add i64 %169, 7006446384756288199
  %172 = add i64 %171, %149
  %173 = sub i64 %172, 7006446384756288199
  %174 = add i64 %169, %149
  %175 = sub i64 0, %149
  %176 = add i64 %148, %175
  %177 = sub i64 %148, %149
  %178 = shl i64 %176, 4
  %179 = sub i64 0, 4
  %180 = add i64 %176, %179
  %181 = sub i64 %176, 4
  %182 = mul i64 %180, 4
  %183 = sub i64 0, 7395516481343104594
  %184 = sub i64 %183, %176
  %185 = add i64 %184, 7395516481343104594
  %186 = sub i64 0, %176
  %187 = sub i64 0, 4
  %188 = sub i64 %185, %187
  %189 = add i64 %185, 4
  %190 = sdiv exact i64 %176, 4
  store i64 %190, i64* %145, align 8
  %191 = load i64, i64* %145, align 8
  %192 = icmp ne i64 %191, 0
  store i32 -504974145, i32* %20
  br label %199

; <label>:193:                                    ; preds = %21
  %194 = load volatile i32**, i32*** %7
  %195 = load i32*, i32** %194, align 8
  %196 = load volatile i64*, i64** %6
  %197 = load i64, i64* %196, align 8
  %198 = getelementptr inbounds i32, i32* %195, i64 %197
  store i32 -657904112, i32* %20
  br label %199

; <label>:199:                                    ; preds = %193, %141, %119, %103, %93, %90, %44, %24, %23
  br label %21
}

; Function Attrs: argmemonly nounwind
declare void @llvm.memmove.p0i8.p0i8.i64(i8* nocapture, i8* nocapture readonly, i64, i32, i1) #11

; Function Attrs: noinline nounwind uwtable
define linkonce_odr i32* @_ZNSt10_Iter_baseIPiLb0EE7_S_baseES0_(i32*) #4 comdat align 2 {
  %2 = alloca i32*
  %3 = alloca i1
  %4 = alloca i1
  %5 = load i32, i32* @x.117
  %6 = load i32, i32* @y.118
  %7 = add i32 %5, -1251964445
  %8 = sub i32 %7, 1
  %9 = sub i32 %8, -1251964445
  %10 = sub i32 %5, 1
  %11 = mul i32 %5, %9
  %12 = urem i32 %11, 2
  %13 = icmp eq i32 %12, 0
  store i1 %13, i1* %4
  %14 = icmp slt i32 %6, 10
  store i1 %14, i1* %3
  %15 = alloca i32
  store i32 112902193, i32* %15
  br label %16

; <label>:16:                                     ; preds = %1, %62
  %17 = load i32, i32* %15
  switch i32 %17, label %18 [
    i32 112902193, label %19
    i32 -175971119, label %39
    i32 695632563, label %57
    i32 -1380321926, label %59
  ]

; <label>:18:                                     ; preds = %16
  br label %62

; <label>:19:                                     ; preds = %16
  %20 = load volatile i1, i1* %4
  %21 = load volatile i1, i1* %3
  %22 = xor i1 %20, true
  %23 = xor i1 %21, true
  %24 = xor i1 true, true
  %25 = and i1 %22, true
  %26 = and i1 %20, %24
  %27 = and i1 %23, true
  %28 = and i1 %21, %24
  %29 = or i1 %25, %26
  %30 = or i1 %27, %28
  %31 = xor i1 %29, %30
  %32 = or i1 %22, %23
  %33 = xor i1 %32, true
  %34 = or i1 true, %24
  %35 = and i1 %33, %34
  %36 = or i1 %31, %35
  %37 = or i1 %20, %21
  %38 = select i1 %36, i32 -175971119, i32 -1380321926
  store i32 %38, i32* %15
  br label %62

; <label>:39:                                     ; preds = %16
  %40 = alloca i32*, align 8
  store i32* %0, i32** %40, align 8
  %41 = load i32*, i32** %40, align 8
  store i32* %41, i32** %2
  %42 = load i32, i32* @x.117
  %43 = load i32, i32* @y.118
  %44 = add i32 %42, 1188894283
  %45 = sub i32 %44, 1
  %46 = sub i32 %45, 1188894283
  %47 = sub i32 %42, 1
  %48 = mul i32 %42, %46
  %49 = urem i32 %48, 2
  %50 = icmp eq i32 %49, 0
  %51 = icmp slt i32 %43, 10
  %52 = and i1 %50, %51
  %53 = xor i1 %50, %51
  %54 = or i1 %52, %53
  %55 = or i1 %50, %51
  %56 = select i1 %54, i32 695632563, i32 -1380321926
  store i32 %56, i32* %15
  br label %62

; <label>:57:                                     ; preds = %16
  %58 = load volatile i32*, i32** %2
  ret i32* %58

; <label>:59:                                     ; preds = %16
  %60 = alloca i32*, align 8
  store i32* %0, i32** %60, align 8
  %61 = load i32*, i32** %60, align 8
  store i32 -175971119, i32* %15
  br label %62

; <label>:62:                                     ; preds = %59, %39, %19, %18
  br label %16
}

; Function Attrs: noinline uwtable
define linkonce_odr i32* @_ZNSt10_Iter_baseISt13move_iteratorIPiELb1EE7_S_baseES2_(i32*) #0 comdat align 2 {
  %2 = alloca i32*
  %3 = alloca i1
  %4 = alloca i1
  %5 = load i32, i32* @x.119
  %6 = load i32, i32* @y.120
  %7 = sub i32 %5, 1938916704
  %8 = sub i32 %7, 1
  %9 = add i32 %8, 1938916704
  %10 = sub i32 %5, 1
  %11 = mul i32 %5, %9
  %12 = urem i32 %11, 2
  %13 = icmp eq i32 %12, 0
  store i1 %13, i1* %4
  %14 = icmp slt i32 %6, 10
  store i1 %14, i1* %3
  %15 = alloca i32
  store i32 667535352, i32* %15
  br label %16

; <label>:16:                                     ; preds = %1, %52
  %17 = load i32, i32* %15
  switch i32 %17, label %18 [
    i32 667535352, label %19
    i32 -180282133, label %27
    i32 1595308061, label %46
    i32 -1518025690, label %48
  ]

; <label>:18:                                     ; preds = %16
  br label %52

; <label>:19:                                     ; preds = %16
  %20 = load volatile i1, i1* %4
  %21 = load volatile i1, i1* %3
  %22 = and i1 %20, %21
  %23 = xor i1 %20, %21
  %24 = or i1 %22, %23
  %25 = or i1 %20, %21
  %26 = select i1 %24, i32 -180282133, i32 -1518025690
  store i32 %26, i32* %15
  br label %52

; <label>:27:                                     ; preds = %16
  %28 = alloca %"class.std::move_iterator", align 8
  %29 = getelementptr inbounds %"class.std::move_iterator", %"class.std::move_iterator"* %28, i32 0, i32 0
  store i32* %0, i32** %29, align 8
  %30 = call i32* @_ZNKSt13move_iteratorIPiE4baseEv(%"class.std::move_iterator"* %28)
  store i32* %30, i32** %2
  %31 = load i32, i32* @x.119
  %32 = load i32, i32* @y.120
  %33 = add i32 %31, 150063356
  %34 = sub i32 %33, 1
  %35 = sub i32 %34, 150063356
  %36 = sub i32 %31, 1
  %37 = mul i32 %31, %35
  %38 = urem i32 %37, 2
  %39 = icmp eq i32 %38, 0
  %40 = icmp slt i32 %32, 10
  %41 = and i1 %39, %40
  %42 = xor i1 %39, %40
  %43 = or i1 %41, %42
  %44 = or i1 %39, %40
  %45 = select i1 %43, i32 1595308061, i32 -1518025690
  store i32 %45, i32* %15
  br label %52

; <label>:46:                                     ; preds = %16
  %47 = load volatile i32*, i32** %2
  ret i32* %47

; <label>:48:                                     ; preds = %16
  %49 = alloca %"class.std::move_iterator", align 8
  %50 = getelementptr inbounds %"class.std::move_iterator", %"class.std::move_iterator"* %49, i32 0, i32 0
  store i32* %0, i32** %50, align 8
  %51 = call i32* @_ZNKSt13move_iteratorIPiE4baseEv(%"class.std::move_iterator"* %49)
  store i32 -180282133, i32* %15
  br label %52

; <label>:52:                                     ; preds = %48, %27, %19, %18
  br label %16
}

; Function Attrs: noinline nounwind uwtable
define linkonce_odr i32* @_ZNKSt13move_iteratorIPiE4baseEv(%"class.std::move_iterator"*) #4 comdat align 2 {
  %2 = alloca i32*
  %3 = alloca i1
  %4 = alloca i1
  %5 = load i32, i32* @x.121
  %6 = load i32, i32* @y.122
  %7 = sub i32 %5, -1617959840
  %8 = sub i32 %7, 1
  %9 = add i32 %8, -1617959840
  %10 = sub i32 %5, 1
  %11 = mul i32 %5, %9
  %12 = urem i32 %11, 2
  %13 = icmp eq i32 %12, 0
  store i1 %13, i1* %4
  %14 = icmp slt i32 %6, 10
  store i1 %14, i1* %3
  %15 = alloca i32
  store i32 1993038543, i32* %15
  br label %16

; <label>:16:                                     ; preds = %1, %66
  %17 = load i32, i32* %15
  switch i32 %17, label %18 [
    i32 1993038543, label %19
    i32 -578623079, label %27
    i32 -373300431, label %59
    i32 -1134158087, label %61
  ]

; <label>:18:                                     ; preds = %16
  br label %66

; <label>:19:                                     ; preds = %16
  %20 = load volatile i1, i1* %4
  %21 = load volatile i1, i1* %3
  %22 = and i1 %20, %21
  %23 = xor i1 %20, %21
  %24 = or i1 %22, %23
  %25 = or i1 %20, %21
  %26 = select i1 %24, i32 -578623079, i32 -1134158087
  store i32 %26, i32* %15
  br label %66

; <label>:27:                                     ; preds = %16
  %28 = alloca %"class.std::move_iterator"*, align 8
  store %"class.std::move_iterator"* %0, %"class.std::move_iterator"** %28, align 8
  %29 = load %"class.std::move_iterator"*, %"class.std::move_iterator"** %28, align 8
  %30 = getelementptr inbounds %"class.std::move_iterator", %"class.std::move_iterator"* %29, i32 0, i32 0
  %31 = load i32*, i32** %30, align 8
  store i32* %31, i32** %2
  %32 = load i32, i32* @x.121
  %33 = load i32, i32* @y.122
  %34 = sub i32 %32, 629274550
  %35 = sub i32 %34, 1
  %36 = add i32 %35, 629274550
  %37 = sub i32 %32, 1
  %38 = mul i32 %32, %36
  %39 = urem i32 %38, 2
  %40 = icmp eq i32 %39, 0
  %41 = icmp slt i32 %33, 10
  %42 = xor i1 %40, true
  %43 = xor i1 %41, true
  %44 = xor i1 false, true
  %45 = and i1 %42, false
  %46 = and i1 %40, %44
  %47 = and i1 %43, false
  %48 = and i1 %41, %44
  %49 = or i1 %45, %46
  %50 = or i1 %47, %48
  %51 = xor i1 %49, %50
  %52 = or i1 %42, %43
  %53 = xor i1 %52, true
  %54 = or i1 false, %44
  %55 = and i1 %53, %54
  %56 = or i1 %51, %55
  %57 = or i1 %40, %41
  %58 = select i1 %56, i32 -373300431, i32 -1134158087
  store i32 %58, i32* %15
  br label %66

; <label>:59:                                     ; preds = %16
  %60 = load volatile i32*, i32** %2
  ret i32* %60

; <label>:61:                                     ; preds = %16
  %62 = alloca %"class.std::move_iterator"*, align 8
  store %"class.std::move_iterator"* %0, %"class.std::move_iterator"** %62, align 8
  %63 = load %"class.std::move_iterator"*, %"class.std::move_iterator"** %62, align 8
  %64 = getelementptr inbounds %"class.std::move_iterator", %"class.std::move_iterator"* %63, i32 0, i32 0
  %65 = load i32*, i32** %64, align 8
  store i32 -578623079, i32* %15
  br label %66

; <label>:66:                                     ; preds = %61, %27, %19, %18
  br label %16
}

; Function Attrs: noinline nounwind uwtable
define linkonce_odr void @_ZNSt13move_iteratorIPiEC2ES0_(%"class.std::move_iterator"*, i32*) unnamed_addr #4 comdat align 2 {
  %3 = alloca %"class.std::move_iterator"*, align 8
  %4 = alloca i32*, align 8
  store %"class.std::move_iterator"* %0, %"class.std::move_iterator"** %3, align 8
  store i32* %1, i32** %4, align 8
  %5 = load %"class.std::move_iterator"*, %"class.std::move_iterator"** %3, align 8
  %6 = getelementptr inbounds %"class.std::move_iterator", %"class.std::move_iterator"* %5, i32 0, i32 0
  %7 = load i32*, i32** %4, align 8
  store i32* %7, i32** %6, align 8
  ret void
}

; Function Attrs: noinline nounwind uwtable
define linkonce_odr void @_ZN9__gnu_cxx13new_allocatorIiE7destroyIiEEvPT_(%"class.__gnu_cxx::new_allocator"*, i32*) #4 comdat align 2 {
  %3 = alloca %"class.__gnu_cxx::new_allocator"*, align 8
  %4 = alloca i32*, align 8
  store %"class.__gnu_cxx::new_allocator"* %0, %"class.__gnu_cxx::new_allocator"** %3, align 8
  store i32* %1, i32** %4, align 8
  %5 = load %"class.__gnu_cxx::new_allocator"*, %"class.__gnu_cxx::new_allocator"** %3, align 8
  ret void
}

; Function Attrs: noinline nounwind uwtable
define linkonce_odr void @_ZN9__gnu_cxx17__normal_iteratorIPiSt6vectorIiSaIiEEEC2ERKS1_(%"class.__gnu_cxx::__normal_iterator"*, i32** dereferenceable(8)) unnamed_addr #4 comdat align 2 {
  %3 = alloca %"class.__gnu_cxx::__normal_iterator"*, align 8
  %4 = alloca i32**, align 8
  store %"class.__gnu_cxx::__normal_iterator"* %0, %"class.__gnu_cxx::__normal_iterator"** %3, align 8
  store i32** %1, i32*** %4, align 8
  %5 = load %"class.__gnu_cxx::__normal_iterator"*, %"class.__gnu_cxx::__normal_iterator"** %3, align 8
  %6 = getelementptr inbounds %"class.__gnu_cxx::__normal_iterator", %"class.__gnu_cxx::__normal_iterator"* %5, i32 0, i32 0
  %7 = load i32**, i32*** %4, align 8
  %8 = load i32*, i32** %7, align 8
  store i32* %8, i32** %6, align 8
  ret void
}

; Function Attrs: noinline nounwind uwtable
define linkonce_odr dereferenceable(8) i32** @_ZNK9__gnu_cxx17__normal_iteratorIPiSt6vectorIiSaIiEEE4baseEv(%"class.__gnu_cxx::__normal_iterator"*) #4 comdat align 2 {
  %2 = alloca i32**
  %3 = alloca i1
  %4 = alloca i1
  %5 = load i32, i32* @x.129
  %6 = load i32, i32* @y.130
  %7 = sub i32 0, 1
  %8 = add i32 %5, %7
  %9 = sub i32 %5, 1
  %10 = mul i32 %5, %8
  %11 = urem i32 %10, 2
  %12 = icmp eq i32 %11, 0
  store i1 %12, i1* %4
  %13 = icmp slt i32 %6, 10
  store i1 %13, i1* %3
  %14 = alloca i32
  store i32 -537548685, i32* %14
  br label %15

; <label>:15:                                     ; preds = %1, %62
  %16 = load i32, i32* %14
  switch i32 %16, label %17 [
    i32 -537548685, label %18
    i32 -1390925996, label %38
    i32 -1889199629, label %56
    i32 1928838414, label %58
  ]

; <label>:17:                                     ; preds = %15
  br label %62

; <label>:18:                                     ; preds = %15
  %19 = load volatile i1, i1* %4
  %20 = load volatile i1, i1* %3
  %21 = xor i1 %19, true
  %22 = xor i1 %20, true
  %23 = xor i1 false, true
  %24 = and i1 %21, false
  %25 = and i1 %19, %23
  %26 = and i1 %22, false
  %27 = and i1 %20, %23
  %28 = or i1 %24, %25
  %29 = or i1 %26, %27
  %30 = xor i1 %28, %29
  %31 = or i1 %21, %22
  %32 = xor i1 %31, true
  %33 = or i1 false, %23
  %34 = and i1 %32, %33
  %35 = or i1 %30, %34
  %36 = or i1 %19, %20
  %37 = select i1 %35, i32 -1390925996, i32 1928838414
  store i32 %37, i32* %14
  br label %62

; <label>:38:                                     ; preds = %15
  %39 = alloca %"class.__gnu_cxx::__normal_iterator"*, align 8
  store %"class.__gnu_cxx::__normal_iterator"* %0, %"class.__gnu_cxx::__normal_iterator"** %39, align 8
  %40 = load %"class.__gnu_cxx::__normal_iterator"*, %"class.__gnu_cxx::__normal_iterator"** %39, align 8
  %41 = getelementptr inbounds %"class.__gnu_cxx::__normal_iterator", %"class.__gnu_cxx::__normal_iterator"* %40, i32 0, i32 0
  store i32** %41, i32*** %2
  %42 = load i32, i32* @x.129
  %43 = load i32, i32* @y.130
  %44 = sub i32 0, 1
  %45 = add i32 %42, %44
  %46 = sub i32 %42, 1
  %47 = mul i32 %42, %45
  %48 = urem i32 %47, 2
  %49 = icmp eq i32 %48, 0
  %50 = icmp slt i32 %43, 10
  %51 = and i1 %49, %50
  %52 = xor i1 %49, %50
  %53 = or i1 %51, %52
  %54 = or i1 %49, %50
  %55 = select i1 %53, i32 -1889199629, i32 1928838414
  store i32 %55, i32* %14
  br label %62

; <label>:56:                                     ; preds = %15
  %57 = load volatile i32**, i32*** %2
  ret i32** %57

; <label>:58:                                     ; preds = %15
  %59 = alloca %"class.__gnu_cxx::__normal_iterator"*, align 8
  store %"class.__gnu_cxx::__normal_iterator"* %0, %"class.__gnu_cxx::__normal_iterator"** %59, align 8
  %60 = load %"class.__gnu_cxx::__normal_iterator"*, %"class.__gnu_cxx::__normal_iterator"** %59, align 8
  %61 = getelementptr inbounds %"class.__gnu_cxx::__normal_iterator", %"class.__gnu_cxx::__normal_iterator"* %60, i32 0, i32 0
  store i32 -1390925996, i32* %14
  br label %62

; <label>:62:                                     ; preds = %58, %38, %18, %17
  br label %15
}

; Function Attrs: noinline uwtable
define internal void @_GLOBAL__sub_I_s601692440.cpp() #0 section ".text.startup" {
  call void @__cxx_global_var_init()
  call void @__cxx_global_var_init.1()
  ret void
}

attributes #0 = { noinline uwtable "correctly-rounded-divide-sqrt-fp-math"="false" "disable-tail-calls"="false" "less-precise-fpmad"="false" "no-frame-pointer-elim"="true" "no-frame-pointer-elim-non-leaf" "no-infs-fp-math"="false" "no-jump-tables"="false" "no-nans-fp-math"="false" "no-signed-zeros-fp-math"="false" "no-trapping-math"="false" "stack-protector-buffer-size"="8" "target-cpu"="x86-64" "target-features"="+fxsr,+mmx,+sse,+sse2,+x87" "unsafe-fp-math"="false" "use-soft-float"="false" }
attributes #1 = { "correctly-rounded-divide-sqrt-fp-math"="false" "disable-tail-calls"="false" "less-precise-fpmad"="false" "no-frame-pointer-elim"="true" "no-frame-pointer-elim-non-leaf" "no-infs-fp-math"="false" "no-nans-fp-math"="false" "no-signed-zeros-fp-math"="false" "no-trapping-math"="false" "stack-protector-buffer-size"="8" "target-cpu"="x86-64" "target-features"="+fxsr,+mmx,+sse,+sse2,+x87" "unsafe-fp-math"="false" "use-soft-float"="false" }
attributes #2 = { nounwind "correctly-rounded-divide-sqrt-fp-math"="false" "disable-tail-calls"="false" "less-precise-fpmad"="false" "no-frame-pointer-elim"="true" "no-frame-pointer-elim-non-leaf" "no-infs-fp-math"="false" "no-nans-fp-math"="false" "no-signed-zeros-fp-math"="false" "no-trapping-math"="false" "stack-protector-buffer-size"="8" "target-cpu"="x86-64" "target-features"="+fxsr,+mmx,+sse,+sse2,+x87" "unsafe-fp-math"="false" "use-soft-float"="false" }
attributes #3 = { nounwind }
attributes #4 = { noinline nounwind uwtable "correctly-rounded-divide-sqrt-fp-math"="false" "disable-tail-calls"="false" "less-precise-fpmad"="false" "no-frame-pointer-elim"="true" "no-frame-pointer-elim-non-leaf" "no-infs-fp-math"="false" "no-jump-tables"="false" "no-nans-fp-math"="false" "no-signed-zeros-fp-math"="false" "no-trapping-math"="false" "stack-protector-buffer-size"="8" "target-cpu"="x86-64" "target-features"="+fxsr,+mmx,+sse,+sse2,+x87" "unsafe-fp-math"="false" "use-soft-float"="false" }
attributes #5 = { noinline norecurse uwtable "correctly-rounded-divide-sqrt-fp-math"="false" "disable-tail-calls"="false" "less-precise-fpmad"="false" "no-frame-pointer-elim"="true" "no-frame-pointer-elim-non-leaf" "no-infs-fp-math"="false" "no-jump-tables"="false" "no-nans-fp-math"="false" "no-signed-zeros-fp-math"="false" "no-trapping-math"="false" "stack-protector-buffer-size"="8" "target-cpu"="x86-64" "target-features"="+fxsr,+mmx,+sse,+sse2,+x87" "unsafe-fp-math"="false" "use-soft-float"="false" }
attributes #6 = { nounwind readonly "correctly-rounded-divide-sqrt-fp-math"="false" "disable-tail-calls"="false" "less-precise-fpmad"="false" "no-frame-pointer-elim"="true" "no-frame-pointer-elim-non-leaf" "no-infs-fp-math"="false" "no-nans-fp-math"="false" "no-signed-zeros-fp-math"="false" "no-trapping-math"="false" "stack-protector-buffer-size"="8" "target-cpu"="x86-64" "target-features"="+fxsr,+mmx,+sse,+sse2,+x87" "unsafe-fp-math"="false" "use-soft-float"="false" }
attributes #7 = { noinline noreturn nounwind }
attributes #8 = { nobuiltin nounwind "correctly-rounded-divide-sqrt-fp-math"="false" "disable-tail-calls"="false" "less-precise-fpmad"="false" "no-frame-pointer-elim"="true" "no-frame-pointer-elim-non-leaf" "no-infs-fp-math"="false" "no-nans-fp-math"="false" "no-signed-zeros-fp-math"="false" "no-trapping-math"="false" "stack-protector-buffer-size"="8" "target-cpu"="x86-64" "target-features"="+fxsr,+mmx,+sse,+sse2,+x87" "unsafe-fp-math"="false" "use-soft-float"="false" }
attributes #9 = { noreturn "correctly-rounded-divide-sqrt-fp-math"="false" "disable-tail-calls"="false" "less-precise-fpmad"="false" "no-frame-pointer-elim"="true" "no-frame-pointer-elim-non-leaf" "no-infs-fp-math"="false" "no-nans-fp-math"="false" "no-signed-zeros-fp-math"="false" "no-trapping-math"="false" "stack-protector-buffer-size"="8" "target-cpu"="x86-64" "target-features"="+fxsr,+mmx,+sse,+sse2,+x87" "unsafe-fp-math"="false" "use-soft-float"="false" }
attributes #10 = { nobuiltin "correctly-rounded-divide-sqrt-fp-math"="false" "disable-tail-calls"="false" "less-precise-fpmad"="false" "no-frame-pointer-elim"="true" "no-frame-pointer-elim-non-leaf" "no-infs-fp-math"="false" "no-nans-fp-math"="false" "no-signed-zeros-fp-math"="false" "no-trapping-math"="false" "stack-protector-buffer-size"="8" "target-cpu"="x86-64" "target-features"="+fxsr,+mmx,+sse,+sse2,+x87" "unsafe-fp-math"="false" "use-soft-float"="false" }
attributes #11 = { argmemonly nounwind }
attributes #12 = { noreturn nounwind }
attributes #13 = { nounwind readonly }
attributes #14 = { noreturn }

!llvm.ident = !{!0}

!0 = !{!"Obfuscator-LLVM clang version 4.0.1  (based on Obfuscator-LLVM 4.0.1)"}
