; ModuleID = 'Project_CodeNet_C++1400/p03354/s596957618.cpp'
source_filename = "Project_CodeNet_C++1400/p03354/s596957618.cpp"
target datalayout = "e-m:e-i64:64-f80:128-n8:16:32:64-S128"
target triple = "x86_64-unknown-linux-gnu"

%"class.std::ios_base::Init" = type { i8 }
%"class.std::basic_ostream" = type { i32 (...)**, %"class.std::basic_ios" }
%"class.std::basic_ios" = type { %"class.std::ios_base", %"class.std::basic_ostream"*, i8, i8, %"class.std::basic_streambuf"*, %"class.std::ctype"*, %"class.std::num_put"*, %"class.std::num_get"* }
%"class.std::ios_base" = type { i32 (...)**, i64, i64, i32, i32, i32, %"struct.std::ios_base::_Callback_list"*, %"struct.std::ios_base::_Words", [8 x %"struct.std::ios_base::_Words"], i32, %"struct.std::ios_base::_Words"*, %"class.std::locale" }
%"struct.std::ios_base::_Callback_list" = type { %"struct.std::ios_base::_Callback_list"*, void (i32, %"class.std::ios_base"*, i32)*, i32, i32 }
%"struct.std::ios_base::_Words" = type { i8*, i64 }
%"class.std::locale" = type { %"class.std::locale::_Impl"* }
%"class.std::locale::_Impl" = type { i32, %"class.std::locale::facet"**, i64, %"class.std::locale::facet"**, i8** }
%"class.std::locale::facet" = type <{ i32 (...)**, i32, [4 x i8] }>
%"class.std::basic_streambuf" = type { i32 (...)**, i8*, i8*, i8*, i8*, i8*, i8*, %"class.std::locale" }
%"class.std::ctype" = type <{ %"class.std::locale::facet.base", [4 x i8], %struct.__locale_struct*, i8, [7 x i8], i32*, i32*, i16*, i8, [256 x i8], [256 x i8], i8, [6 x i8] }>
%"class.std::locale::facet.base" = type <{ i32 (...)**, i32 }>
%struct.__locale_struct = type { [13 x %struct.__locale_data*], i16*, i32*, i32*, [13 x i8*] }
%struct.__locale_data = type opaque
%"class.std::num_put" = type { %"class.std::locale::facet.base", [4 x i8] }
%"class.std::num_get" = type { %"class.std::locale::facet.base", [4 x i8] }
%"class.std::basic_istream" = type { i32 (...)**, i64, %"class.std::basic_ios" }
%"class.std::__cxx11::basic_string" = type { %"struct.std::__cxx11::basic_string<char, std::char_traits<char>, std::allocator<char> >::_Alloc_hider", i64, %union.anon }
%"struct.std::__cxx11::basic_string<char, std::char_traits<char>, std::allocator<char> >::_Alloc_hider" = type { i8* }
%union.anon = type { i64, [8 x i8] }
%"class.std::allocator" = type { i8 }
%"class.std::__debug::vector" = type { %"class.__gnu_debug::_Safe_container.base", %"class.std::__cxx1998::vector", %"class.__gnu_debug::_Safe_vector" }
%"class.__gnu_debug::_Safe_container.base" = type { %"class.__gnu_debug::_Safe_sequence.base" }
%"class.__gnu_debug::_Safe_sequence.base" = type { %"class.__gnu_debug::_Safe_sequence_base.base" }
%"class.__gnu_debug::_Safe_sequence_base.base" = type <{ %"class.__gnu_debug::_Safe_iterator_base"*, %"class.__gnu_debug::_Safe_iterator_base"*, i32 }>
%"class.__gnu_debug::_Safe_iterator_base" = type { %"class.__gnu_debug::_Safe_sequence_base"*, i32, %"class.__gnu_debug::_Safe_iterator_base"*, %"class.__gnu_debug::_Safe_iterator_base"* }
%"class.__gnu_debug::_Safe_sequence_base" = type <{ %"class.__gnu_debug::_Safe_iterator_base"*, %"class.__gnu_debug::_Safe_iterator_base"*, i32, [4 x i8] }>
%"class.std::__cxx1998::vector" = type { %"struct.std::__cxx1998::_Vector_base" }
%"struct.std::__cxx1998::_Vector_base" = type { %"struct.std::__cxx1998::_Vector_base<int, std::allocator<int> >::_Vector_impl" }
%"struct.std::__cxx1998::_Vector_base<int, std::allocator<int> >::_Vector_impl" = type { i32*, i32*, i32* }
%"class.__gnu_debug::_Safe_vector" = type { i64 }
%"class.std::allocator.0" = type { i8 }
%class.Unionfind = type <{ i32, [4 x i8], %"class.std::__debug::vector", %"class.std::__debug::vector", %"class.std::__debug::vector", i32, [4 x i8] }>
%"class.std::__debug::vector.3" = type { %"class.__gnu_debug::_Safe_container.base.7", %"class.std::__cxx1998::vector.8", %"class.__gnu_debug::_Safe_vector.13" }
%"class.__gnu_debug::_Safe_container.base.7" = type { %"class.__gnu_debug::_Safe_sequence.base.6" }
%"class.__gnu_debug::_Safe_sequence.base.6" = type { %"class.__gnu_debug::_Safe_sequence_base.base" }
%"class.std::__cxx1998::vector.8" = type { %"struct.std::__cxx1998::_Vector_base.9" }
%"struct.std::__cxx1998::_Vector_base.9" = type { %"struct.std::__cxx1998::_Vector_base<std::__debug::vector<int, std::allocator<int> >, std::allocator<std::__debug::vector<int, std::allocator<int> > > >::_Vector_impl" }
%"struct.std::__cxx1998::_Vector_base<std::__debug::vector<int, std::allocator<int> >, std::allocator<std::__debug::vector<int, std::allocator<int> > > >::_Vector_impl" = type { %"class.std::__debug::vector"*, %"class.std::__debug::vector"*, %"class.std::__debug::vector"* }
%"class.__gnu_debug::_Safe_vector.13" = type { i64 }
%"class.__gnu_debug::_Safe_iterator" = type { %"class.__gnu_cxx::__normal_iterator", %"class.__gnu_debug::_Safe_iterator_base" }
%"class.__gnu_cxx::__normal_iterator" = type { %"class.std::__debug::vector"* }
%"class.std::__debug::set" = type { %"class.__gnu_debug::_Safe_container.base.17", %"class.std::__cxx1998::set" }
%"class.__gnu_debug::_Safe_container.base.17" = type { %"class.__gnu_debug::_Safe_node_sequence.base" }
%"class.__gnu_debug::_Safe_node_sequence.base" = type { %"class.__gnu_debug::_Safe_sequence.base.16" }
%"class.__gnu_debug::_Safe_sequence.base.16" = type { %"class.__gnu_debug::_Safe_sequence_base.base" }
%"class.std::__cxx1998::set" = type { %"class.std::_Rb_tree" }
%"class.std::_Rb_tree" = type { %"struct.std::_Rb_tree<int, int, std::_Identity<int>, std::less<int>, std::allocator<int> >::_Rb_tree_impl" }
%"struct.std::_Rb_tree<int, int, std::_Identity<int>, std::less<int>, std::allocator<int> >::_Rb_tree_impl" = type { %"struct.std::less", %"struct.std::_Rb_tree_node_base", i64 }
%"struct.std::less" = type { i8 }
%"struct.std::_Rb_tree_node_base" = type { i32, %"struct.std::_Rb_tree_node_base"*, %"struct.std::_Rb_tree_node_base"*, %"struct.std::_Rb_tree_node_base"* }
%"class.__gnu_debug::_Safe_iterator.21" = type { %"class.__gnu_cxx::__normal_iterator.22", %"class.__gnu_debug::_Safe_iterator_base" }
%"class.__gnu_cxx::__normal_iterator.22" = type { i32* }
%"struct.std::pair" = type <{ %"class.__gnu_debug::_Safe_iterator.23", i8, [7 x i8] }>
%"class.__gnu_debug::_Safe_iterator.23" = type { %"struct.std::_Rb_tree_const_iterator", %"class.__gnu_debug::_Safe_iterator_base" }
%"struct.std::_Rb_tree_const_iterator" = type { %"struct.std::_Rb_tree_node_base"* }
%"class.__gnu_cxx::new_allocator.1" = type { i8 }
%"class.__gnu_debug::_Safe_container" = type { %"class.__gnu_debug::_Safe_sequence.base", [4 x i8] }
%"class.__gnu_debug::_Error_formatter" = type <{ i8*, i64, [9 x %"struct.__gnu_debug::_Error_formatter::_Parameter"], i64, i8*, i64, i64, i8, i8, [6 x i8] }>
%"struct.__gnu_debug::_Error_formatter::_Parameter" = type { i32, %union.anon.24 }
%union.anon.24 = type { %struct.anon }
%struct.anon = type { i8*, i8*, %"class.std::type_info"*, i32, i32, i8*, %"class.std::type_info"* }
%"class.std::type_info" = type { i32 (...)**, i8* }
%"class.std::allocator.10" = type { i8 }
%"class.__gnu_debug::_Safe_container.14" = type { %"class.__gnu_debug::_Safe_node_sequence.base", [4 x i8] }
%"struct.std::pair.30" = type <{ %"struct.std::_Rb_tree_const_iterator", i8, [7 x i8] }>
%"class.__gnu_cxx::__scoped_lock" = type { %"class.__gnu_cxx::__mutex"* }
%"class.__gnu_cxx::__mutex" = type { %union.pthread_mutex_t }
%union.pthread_mutex_t = type { %"struct.(anonymous union)::__pthread_mutex_s" }
%"struct.(anonymous union)::__pthread_mutex_s" = type { i32, i32, i32, i32, i32, i16, i16, %struct.__pthread_internal_list }
%struct.__pthread_internal_list = type { %struct.__pthread_internal_list*, %struct.__pthread_internal_list* }
%"class.__gnu_debug::_Safe_container.4" = type { %"class.__gnu_debug::_Safe_sequence.base.6", [4 x i8] }
%"class.__gnu_debug::_Safe_sequence" = type { %"class.__gnu_debug::_Safe_sequence_base.base", [4 x i8] }
%"class.__gnu_cxx::new_allocator.11" = type { i8 }
%"class.__gnu_cxx::__normal_iterator.28" = type { i32* }
%"class.__gnu_debug::_Safe_sequence.5" = type { %"class.__gnu_debug::_Safe_sequence_base.base", [4 x i8] }
%"struct.__gnu_debug::_Error_formatter::_Is_sequence" = type { i8 }
%struct.anon.25 = type { i8*, i8*, %"class.std::type_info"* }
%struct.anon.26 = type { i8*, i64 }
%"class.std::move_iterator" = type { i32* }
%"struct.std::__false_type" = type { i8 }
%"struct.__gnu_debug::_Error_formatter::_Is_iterator" = type { i8 }
%"struct.std::random_access_iterator_tag" = type { i8 }
%"class.std::move_iterator.29" = type { %"class.std::__debug::vector"* }
%"class.__gnu_debug::_Safe_node_sequence" = type { %"class.__gnu_debug::_Safe_sequence.base.16", [4 x i8] }
%"class.__gnu_debug::_Safe_sequence.15" = type { %"class.__gnu_debug::_Safe_sequence_base.base", [4 x i8] }
%"class.std::allocator.18" = type { i8 }
%"class.__gnu_cxx::new_allocator.19" = type { i8 }
%"struct.std::_Rb_tree_node" = type <{ %"struct.std::_Rb_tree_node_base", %"struct.__gnu_cxx::__aligned_membuf", [4 x i8] }>
%"struct.__gnu_cxx::__aligned_membuf" = type { [4 x i8] }
%"class.__gnu_cxx::new_allocator" = type { i8 }
%"struct.std::forward_iterator_tag" = type { i8 }
%"class.__gnu_cxx::__concurrence_lock_error" = type { %"class.std::exception" }
%"class.std::exception" = type { i32 (...)** }
%"class.__gnu_cxx::__concurrence_unlock_error" = type { %"class.std::exception" }
%"struct.std::pair.32" = type <{ %"struct.std::_Rb_tree_iterator", i8, [7 x i8] }>
%"struct.std::_Rb_tree_iterator" = type { %"struct.std::_Rb_tree_node_base"* }
%"struct.std::pair.34" = type { %"struct.std::_Rb_tree_node_base"*, %"struct.std::_Rb_tree_node_base"* }
%"struct.std::_Identity" = type { i8 }
%"struct.std::_Rb_tree<int, int, std::_Identity<int>, std::less<int>, std::allocator<int> >::_Alloc_node" = type { %"class.std::_Rb_tree"* }

$_ZStplIcSt11char_traitsIcESaIcEENSt7__cxx1112basic_stringIT_T0_T1_EEOS8_S5_ = comdat any

$_ZStplIcSt11char_traitsIcESaIcEENSt7__cxx1112basic_stringIT_T0_T1_EES5_RKS8_ = comdat any

$_ZNSt7__cxx1112basic_stringIcSt11char_traitsIcESaIcEED2Ev = comdat any

$_ZNSt7__cxx1112basic_stringIcSt11char_traitsIcESaIcEEC2EPKcRKS3_ = comdat any

$_ZNSaIiEC2Ev = comdat any

$_ZNSt7__debug6vectorIiSaIiEEC2EmRKS1_ = comdat any

$_ZNSaIiED2Ev = comdat any

$_ZN9UnionfindC2Ei = comdat any

$_ZNSt7__debug6vectorIiSaIiEEixEm = comdat any

$_ZN9Unionfind5uniteEii = comdat any

$_ZN9Unionfind5groupEv = comdat any

$_ZNSt7__debug6vectorINS0_IiSaIiEEESaIS2_EE5beginEv = comdat any

$_ZNSt7__debug6vectorINS0_IiSaIiEEESaIS2_EE3endEv = comdat any

$_ZN11__gnu_debugneIN9__gnu_cxx17__normal_iteratorIPNSt7__debug6vectorIiSaIiEEENSt9__cxx19986vectorIS6_SaIS6_EEEEENS4_IS6_SA_EEEEbRKNS_14_Safe_iteratorIT_T0_EESJ_ = comdat any

$_ZNK11__gnu_debug14_Safe_iteratorIN9__gnu_cxx17__normal_iteratorIPNSt7__debug6vectorIiSaIiEEENSt9__cxx19986vectorIS6_SaIS6_EEEEENS4_IS6_SA_EEEdeEv = comdat any

$_ZNSt7__debug6vectorIiSaIiEEC2ERKS2_ = comdat any

$_ZNSt7__debug3setIiSt4lessIiESaIiEEC2Ev = comdat any

$_ZNSt7__debug6vectorIiSaIiEE5beginEv = comdat any

$_ZNSt7__debug6vectorIiSaIiEE3endEv = comdat any

$_ZN11__gnu_debugneIN9__gnu_cxx17__normal_iteratorIPiNSt9__cxx19986vectorIiSaIiEEEEENSt7__debug6vectorIiS6_EEEEbRKNS_14_Safe_iteratorIT_T0_EESH_ = comdat any

$_ZNK11__gnu_debug14_Safe_iteratorIN9__gnu_cxx17__normal_iteratorIPiNSt9__cxx19986vectorIiSaIiEEEEENSt7__debug6vectorIiS6_EEEdeEv = comdat any

$_ZNSt7__debug3setIiSt4lessIiESaIiEE6insertERKi = comdat any

$_ZNSt4pairIN11__gnu_debug14_Safe_iteratorISt23_Rb_tree_const_iteratorIiENSt7__debug3setIiSt4lessIiESaIiEEEEEbED2Ev = comdat any

$_ZN11__gnu_debug14_Safe_iteratorIN9__gnu_cxx17__normal_iteratorIPiNSt9__cxx19986vectorIiSaIiEEEEENSt7__debug6vectorIiS6_EEEppEv = comdat any

$_ZN11__gnu_debug14_Safe_iteratorIN9__gnu_cxx17__normal_iteratorIPiNSt9__cxx19986vectorIiSaIiEEEEENSt7__debug6vectorIiS6_EEED2Ev = comdat any

$_ZN11__gnu_debugneISt23_Rb_tree_const_iteratorIiENSt7__debug3setIiSt4lessIiESaIiEEEEEbRKNS_14_Safe_iteratorIT_T0_EESE_ = comdat any

$_ZNSt7__debug3setIiSt4lessIiESaIiEE4findERKi = comdat any

$_ZNSt7__debug3setIiSt4lessIiESaIiEE3endEv = comdat any

$_ZN11__gnu_debug14_Safe_iteratorISt23_Rb_tree_const_iteratorIiENSt7__debug3setIiSt4lessIiESaIiEEEED2Ev = comdat any

$_ZNSt7__debug3setIiSt4lessIiESaIiEED2Ev = comdat any

$_ZNSt7__debug6vectorIiSaIiEED2Ev = comdat any

$_ZN11__gnu_debug14_Safe_iteratorIN9__gnu_cxx17__normal_iteratorIPNSt7__debug6vectorIiSaIiEEENSt9__cxx19986vectorIS6_SaIS6_EEEEENS4_IS6_SA_EEEppEv = comdat any

$_ZN11__gnu_debug14_Safe_iteratorIN9__gnu_cxx17__normal_iteratorIPNSt7__debug6vectorIiSaIiEEENSt9__cxx19986vectorIS6_SaIS6_EEEEENS4_IS6_SA_EEED2Ev = comdat any

$_ZNSt7__debug6vectorINS0_IiSaIiEEESaIS2_EED2Ev = comdat any

$_ZN9UnionfindD2Ev = comdat any

$_ZNSt7__debug6vectorIiSaIiEEC2EmRKiRKS1_ = comdat any

$_ZN11__gnu_debug15_Safe_containerINSt7__debug6vectorIiSaIiEEES3_NS_14_Safe_sequenceELb1EEC2Ev = comdat any

$_ZNSt9__cxx19986vectorIiSaIiEEC2EmRKiRKS1_ = comdat any

$_ZN11__gnu_debug12_Safe_vectorINSt7__debug6vectorIiSaIiEEENSt9__cxx19986vectorIiS3_EEEC2Ev = comdat any

$_ZN11__gnu_debug15_Safe_containerINSt7__debug6vectorIiSaIiEEES3_NS_14_Safe_sequenceELb1EED2Ev = comdat any

$_ZN11__gnu_debug14_Safe_sequenceINSt7__debug6vectorIiSaIiEEEEC2Ev = comdat any

$_ZN11__gnu_debug19_Safe_sequence_baseC2Ev = comdat any

$_ZNSt9__cxx199812_Vector_baseIiSaIiEEC2EmRKS1_ = comdat any

$_ZNSt9__cxx19986vectorIiSaIiEE18_M_fill_initializeEmRKi = comdat any

$_ZNSt9__cxx199812_Vector_baseIiSaIiEED2Ev = comdat any

$_ZNSt9__cxx199812_Vector_baseIiSaIiEE12_Vector_implC2ERKS1_ = comdat any

$_ZNSt9__cxx199812_Vector_baseIiSaIiEE17_M_create_storageEm = comdat any

$_ZNSt9__cxx199812_Vector_baseIiSaIiEE12_Vector_implD2Ev = comdat any

$_ZN9__gnu_cxx13new_allocatorIiEC2ERKS1_ = comdat any

$_ZNSt9__cxx199812_Vector_baseIiSaIiEE11_M_allocateEm = comdat any

$_ZNSt16allocator_traitsISaIiEE8allocateERS0_m = comdat any

$_ZN9__gnu_cxx13new_allocatorIiE8allocateEmPKv = comdat any

$_ZNK9__gnu_cxx13new_allocatorIiE8max_sizeEv = comdat any

$_ZN9__gnu_cxx13new_allocatorIiED2Ev = comdat any

$_ZSt24__uninitialized_fill_n_aIPimiiET_S1_T0_RKT1_RSaIT2_E = comdat any

$_ZNSt9__cxx199812_Vector_baseIiSaIiEE19_M_get_Tp_allocatorEv = comdat any

$_ZSt20uninitialized_fill_nIPimiET_S1_T0_RKT1_ = comdat any

$_ZNSt22__uninitialized_fill_nILb1EE15__uninit_fill_nIPimiEET_S3_T0_RKT1_ = comdat any

$_ZSt6fill_nIPimiET_S1_T0_RKT1_ = comdat any

$_ZSt10__fill_n_aIPimiEN9__gnu_cxx11__enable_ifIXsr11__is_scalarIT1_EE7__valueET_E6__typeES4_T0_RKS3_ = comdat any

$_ZSt12__niter_baseIPiENSt11_Niter_baseIT_E13iterator_typeES2_ = comdat any

$_ZNSt10_Iter_baseIPiLb0EE7_S_baseES0_ = comdat any

$_ZNSt9__cxx199812_Vector_baseIiSaIiEE13_M_deallocateEPim = comdat any

$__clang_call_terminate = comdat any

$_ZNSt16allocator_traitsISaIiEE10deallocateERS0_Pim = comdat any

$_ZN9__gnu_cxx13new_allocatorIiE10deallocateEPim = comdat any

$_ZN11__gnu_debug12_Safe_vectorINSt7__debug6vectorIiSaIiEEENSt9__cxx19986vectorIiS3_EEE29_M_update_guaranteed_capacityEv = comdat any

$_ZNK11__gnu_debug12_Safe_vectorINSt7__debug6vectorIiSaIiEEENSt9__cxx19986vectorIiS3_EEE6_M_seqEv = comdat any

$_ZNKSt9__cxx19986vectorIiSaIiEE4sizeEv = comdat any

$_ZN11__gnu_debug14_Safe_sequenceINSt7__debug6vectorIiSaIiEEEED2Ev = comdat any

$_ZN11__gnu_debug19_Safe_sequence_baseD2Ev = comdat any

$_ZN9Unionfind4rootEi = comdat any

$_ZNSt7__debug6vectorINS0_IiSaIiEEESaIS2_EEC2Ev = comdat any

$_ZNSaINSt7__debug6vectorIiSaIiEEEEC2Ev = comdat any

$_ZNSt7__debug6vectorINS0_IiSaIiEEESaIS2_EEC2EmRKS3_ = comdat any

$_ZNSaINSt7__debug6vectorIiSaIiEEEED2Ev = comdat any

$_ZNSt7__debug6vectorINS0_IiSaIiEEESaIS2_EEixEm = comdat any

$_ZNSt7__debug6vectorIiSaIiEE9push_backERKi = comdat any

$_ZNKSt9__cxx19986vectorIiSaIiEE5emptyEv = comdat any

$_ZNSt7__debug6vectorINS0_IiSaIiEEESaIS2_EE9push_backERKS2_ = comdat any

$_ZN11__gnu_debug15_Safe_containerINSt7__debug6vectorINS2_IiSaIiEEESaIS4_EEES5_NS_14_Safe_sequenceELb1EEC2Ev = comdat any

$_ZNSt9__cxx19986vectorINSt7__debug6vectorIiSaIiEEESaIS4_EEC2Ev = comdat any

$_ZN11__gnu_debug12_Safe_vectorINSt7__debug6vectorINS2_IiSaIiEEESaIS4_EEENSt9__cxx19986vectorIS4_S5_EEEC2Ev = comdat any

$_ZN11__gnu_debug14_Safe_sequenceINSt7__debug6vectorINS2_IiSaIiEEESaIS4_EEEEC2Ev = comdat any

$_ZNSt9__cxx199812_Vector_baseINSt7__debug6vectorIiSaIiEEESaIS4_EEC2Ev = comdat any

$_ZNSt9__cxx199812_Vector_baseINSt7__debug6vectorIiSaIiEEESaIS4_EE12_Vector_implC2Ev = comdat any

$_ZN9__gnu_cxx13new_allocatorINSt7__debug6vectorIiSaIiEEEEC2Ev = comdat any

$_ZN11__gnu_debug12_Safe_vectorINSt7__debug6vectorINS2_IiSaIiEEESaIS4_EEENSt9__cxx19986vectorIS4_S5_EEE29_M_update_guaranteed_capacityEv = comdat any

$_ZNK11__gnu_debug12_Safe_vectorINSt7__debug6vectorINS2_IiSaIiEEESaIS4_EEENSt9__cxx19986vectorIS4_S5_EEE6_M_seqEv = comdat any

$_ZNKSt9__cxx19986vectorINSt7__debug6vectorIiSaIiEEESaIS4_EE4sizeEv = comdat any

$_ZNSt9__cxx19986vectorINSt7__debug6vectorIiSaIiEEESaIS4_EEC2EmRKS5_ = comdat any

$_ZN11__gnu_debug12_Safe_vectorINSt7__debug6vectorINS2_IiSaIiEEESaIS4_EEENSt9__cxx19986vectorIS4_S5_EEEC2Em = comdat any

$_ZN11__gnu_debug15_Safe_containerINSt7__debug6vectorINS2_IiSaIiEEESaIS4_EEES5_NS_14_Safe_sequenceELb1EED2Ev = comdat any

$_ZNSt9__cxx199812_Vector_baseINSt7__debug6vectorIiSaIiEEESaIS4_EEC2EmRKS5_ = comdat any

$_ZNSt9__cxx19986vectorINSt7__debug6vectorIiSaIiEEESaIS4_EE21_M_default_initializeEm = comdat any

$_ZNSt9__cxx199812_Vector_baseINSt7__debug6vectorIiSaIiEEESaIS4_EED2Ev = comdat any

$_ZNSt9__cxx199812_Vector_baseINSt7__debug6vectorIiSaIiEEESaIS4_EE12_Vector_implC2ERKS5_ = comdat any

$_ZNSt9__cxx199812_Vector_baseINSt7__debug6vectorIiSaIiEEESaIS4_EE17_M_create_storageEm = comdat any

$_ZNSt9__cxx199812_Vector_baseINSt7__debug6vectorIiSaIiEEESaIS4_EE12_Vector_implD2Ev = comdat any

$_ZNSaINSt7__debug6vectorIiSaIiEEEEC2ERKS3_ = comdat any

$_ZN9__gnu_cxx13new_allocatorINSt7__debug6vectorIiSaIiEEEEC2ERKS5_ = comdat any

$_ZNSt9__cxx199812_Vector_baseINSt7__debug6vectorIiSaIiEEESaIS4_EE11_M_allocateEm = comdat any

$_ZNSt16allocator_traitsISaINSt7__debug6vectorIiSaIiEEEEE8allocateERS4_m = comdat any

$_ZN9__gnu_cxx13new_allocatorINSt7__debug6vectorIiSaIiEEEE8allocateEmPKv = comdat any

$_ZNK9__gnu_cxx13new_allocatorINSt7__debug6vectorIiSaIiEEEE8max_sizeEv = comdat any

$_ZN9__gnu_cxx13new_allocatorINSt7__debug6vectorIiSaIiEEEED2Ev = comdat any

$_ZSt27__uninitialized_default_n_aIPNSt7__debug6vectorIiSaIiEEEmS3_ET_S5_T0_RSaIT1_E = comdat any

$_ZNSt9__cxx199812_Vector_baseINSt7__debug6vectorIiSaIiEEESaIS4_EE19_M_get_Tp_allocatorEv = comdat any

$_ZSt25__uninitialized_default_nIPNSt7__debug6vectorIiSaIiEEEmET_S5_T0_ = comdat any

$_ZNSt27__uninitialized_default_n_1ILb0EE18__uninit_default_nIPNSt7__debug6vectorIiSaIiEEEmEET_S7_T0_ = comdat any

$_ZSt10_ConstructINSt7__debug6vectorIiSaIiEEEJEEvPT_DpOT0_ = comdat any

$_ZSt11__addressofINSt7__debug6vectorIiSaIiEEEEPT_RS4_ = comdat any

$_ZSt8_DestroyIPNSt7__debug6vectorIiSaIiEEEEvT_S5_ = comdat any

$_ZNSt7__debug6vectorIiSaIiEEC2Ev = comdat any

$_ZNSt9__cxx19986vectorIiSaIiEEC2Ev = comdat any

$_ZNSt9__cxx199812_Vector_baseIiSaIiEEC2Ev = comdat any

$_ZNSt9__cxx199812_Vector_baseIiSaIiEE12_Vector_implC2Ev = comdat any

$_ZN9__gnu_cxx13new_allocatorIiEC2Ev = comdat any

$_ZNSt12_Destroy_auxILb0EE9__destroyIPNSt7__debug6vectorIiSaIiEEEEEvT_S7_ = comdat any

$_ZSt8_DestroyINSt7__debug6vectorIiSaIiEEEEvPT_ = comdat any

$_ZNSt9__cxx199812_Vector_baseINSt7__debug6vectorIiSaIiEEESaIS4_EE13_M_deallocateEPS4_m = comdat any

$_ZNSt16allocator_traitsISaINSt7__debug6vectorIiSaIiEEEEE10deallocateERS4_PS3_m = comdat any

$_ZN9__gnu_cxx13new_allocatorINSt7__debug6vectorIiSaIiEEEE10deallocateEPS4_m = comdat any

$_ZN11__gnu_debug14_Safe_sequenceINSt7__debug6vectorINS2_IiSaIiEEESaIS4_EEEED2Ev = comdat any

$_ZN11__gnu_debug16_Error_formatter5_M_atEPKcm = comdat any

$_ZNK11__gnu_debug16_Error_formatter11_M_sequenceINSt7__debug6vectorINS3_IiSaIiEEESaIS5_EEEEERKS0_RKT_PKc = comdat any

$_ZNK11__gnu_debug16_Error_formatter10_M_integerElPKc = comdat any

$_ZNSt7__debug6vectorINS0_IiSaIiEEESaIS2_EE7_M_baseEv = comdat any

$_ZNSt9__cxx19986vectorINSt7__debug6vectorIiSaIiEEESaIS4_EEixEm = comdat any

$_ZN11__gnu_debug16_Error_formatterC2EPKcm = comdat any

$_ZN11__gnu_debug16_Error_formatter10_ParameterC2Ev = comdat any

$_ZN11__gnu_debug16_Error_formatter10_ParameterC2INSt7__debug6vectorINS4_IiSaIiEEESaIS6_EEEEERKT_PKcNS0_12_Is_sequenceE = comdat any

$_ZN11__gnu_debug16_Error_formatter10_ParameterC2ElPKc = comdat any

$_ZNK11__gnu_debug12_Safe_vectorINSt7__debug6vectorIiSaIiEEENSt9__cxx19986vectorIiS3_EEE24_M_requires_reallocationEm = comdat any

$_ZNSt9__cxx19986vectorIiSaIiEE9push_backERKi = comdat any

$_ZNK11__gnu_debug19_Safe_sequence_base17_M_invalidate_allEv = comdat any

$_ZNKSt7__debug6vectorIiSaIiEE8capacityEv = comdat any

$_ZNKSt9__cxx19986vectorIiSaIiEE8capacityEv = comdat any

$_ZNSt16allocator_traitsISaIiEE9constructIiJRKiEEEvRS0_PT_DpOT0_ = comdat any

$_ZNSt9__cxx19986vectorIiSaIiEE19_M_emplace_back_auxIJRKiEEEvDpOT_ = comdat any

$_ZN9__gnu_cxx13new_allocatorIiE9constructIiJRKiEEEvPT_DpOT0_ = comdat any

$_ZSt7forwardIRKiEOT_RNSt16remove_referenceIS2_E4typeE = comdat any

$_ZNKSt9__cxx19986vectorIiSaIiEE12_M_check_lenEmPKc = comdat any

$_ZSt34__uninitialized_move_if_noexcept_aIPiS0_SaIiEET0_T_S3_S2_RT1_ = comdat any

$_ZNSt16allocator_traitsISaIiEE7destroyIiEEvRS0_PT_ = comdat any

$_ZSt8_DestroyIPiiEvT_S1_RSaIT0_E = comdat any

$_ZNKSt9__cxx19986vectorIiSaIiEE8max_sizeEv = comdat any

$_ZSt3maxImERKT_S2_S2_ = comdat any

$_ZNSt16allocator_traitsISaIiEE8max_sizeERKS0_ = comdat any

$_ZNKSt9__cxx199812_Vector_baseIiSaIiEE19_M_get_Tp_allocatorEv = comdat any

$_ZSt22__uninitialized_copy_aISt13move_iteratorIPiES1_iET0_T_S4_S3_RSaIT1_E = comdat any

$_ZSt32__make_move_if_noexcept_iteratorIPiSt13move_iteratorIS0_EET0_T_ = comdat any

$_ZSt18uninitialized_copyISt13move_iteratorIPiES1_ET0_T_S4_S3_ = comdat any

$_ZNSt20__uninitialized_copyILb1EE13__uninit_copyISt13move_iteratorIPiES3_EET0_T_S6_S5_ = comdat any

$_ZSt4copyISt13move_iteratorIPiES1_ET0_T_S4_S3_ = comdat any

$_ZN11__gnu_debug13__valid_rangeISt13move_iteratorIPiEEEbRKT_S6_ = comdat any

$_ZNK11__gnu_debug16_Error_formatter11_M_iteratorISt13move_iteratorIPiEEERKS0_RKT_PKc = comdat any

$_ZSt14__copy_move_a2ILb1EPiS0_ET1_T0_S2_S1_ = comdat any

$_ZSt12__miter_baseISt13move_iteratorIPiEENSt11_Miter_baseIT_E13iterator_typeES4_ = comdat any

$_ZN11__gnu_debug17__valid_range_auxISt13move_iteratorIPiEEEbRKT_S6_St12__false_type = comdat any

$_ZN11__gnu_debug18__valid_range_aux2ISt13move_iteratorIPiEEEbRKT_S6_St26random_access_iterator_tag = comdat any

$_ZSt19__iterator_categoryISt13move_iteratorIPiEENSt15iterator_traitsIT_E17iterator_categoryERKS4_ = comdat any

$_ZStmiIPiEDTmicldtfp_4baseEcldtfp0_4baseEERKSt13move_iteratorIT_ES6_ = comdat any

$_ZNKSt13move_iteratorIPiE4baseEv = comdat any

$_ZN11__gnu_debug16_Error_formatter10_ParameterC2ISt13move_iteratorIPiEEERKT_PKcNS0_12_Is_iteratorE = comdat any

$_ZN11__gnu_debug16__check_singularISt13move_iteratorIPiEEEbRKT_ = comdat any

$_ZN11__gnu_debug20__check_singular_auxEPKv = comdat any

$_ZSt13__copy_move_aILb1EPiS0_ET1_T0_S2_S1_ = comdat any

$_ZNSt11__copy_moveILb1ELb1ESt26random_access_iterator_tagE8__copy_mIiEEPT_PKS3_S6_S4_ = comdat any

$_ZNSt10_Iter_baseISt13move_iteratorIPiELb1EE7_S_baseES2_ = comdat any

$_ZNSt13move_iteratorIPiEC2ES0_ = comdat any

$_ZN9__gnu_cxx13new_allocatorIiE7destroyIiEEvPT_ = comdat any

$_ZSt8_DestroyIPiEvT_S1_ = comdat any

$_ZNSt12_Destroy_auxILb1EE9__destroyIPiEEvT_S3_ = comdat any

$_ZN9__gnu_cxxeqIPKiNSt9__cxx19986vectorIiSaIiEEEEEbRKNS_17__normal_iteratorIT_T0_EESC_ = comdat any

$_ZNKSt9__cxx19986vectorIiSaIiEE5beginEv = comdat any

$_ZNKSt9__cxx19986vectorIiSaIiEE3endEv = comdat any

$_ZNK9__gnu_cxx17__normal_iteratorIPKiNSt9__cxx19986vectorIiSaIiEEEE4baseEv = comdat any

$_ZN9__gnu_cxx17__normal_iteratorIPKiNSt9__cxx19986vectorIiSaIiEEEEC2ERKS2_ = comdat any

$_ZNK11__gnu_debug12_Safe_vectorINSt7__debug6vectorINS2_IiSaIiEEESaIS4_EEENSt9__cxx19986vectorIS4_S5_EEE24_M_requires_reallocationEm = comdat any

$_ZNSt9__cxx19986vectorINSt7__debug6vectorIiSaIiEEESaIS4_EE9push_backERKS4_ = comdat any

$_ZNKSt7__debug6vectorINS0_IiSaIiEEESaIS2_EE8capacityEv = comdat any

$_ZNKSt9__cxx19986vectorINSt7__debug6vectorIiSaIiEEESaIS4_EE8capacityEv = comdat any

$_ZNSt16allocator_traitsISaINSt7__debug6vectorIiSaIiEEEEE9constructIS3_JRKS3_EEEvRS4_PT_DpOT0_ = comdat any

$_ZNSt9__cxx19986vectorINSt7__debug6vectorIiSaIiEEESaIS4_EE19_M_emplace_back_auxIJRKS4_EEEvDpOT_ = comdat any

$_ZN9__gnu_cxx13new_allocatorINSt7__debug6vectorIiSaIiEEEE9constructIS4_JRKS4_EEEvPT_DpOT0_ = comdat any

$_ZSt7forwardIRKNSt7__debug6vectorIiSaIiEEEEOT_RNSt16remove_referenceIS6_E4typeE = comdat any

$_ZNKSt9__cxx19986vectorINSt7__debug6vectorIiSaIiEEESaIS4_EE12_M_check_lenEmPKc = comdat any

$_ZSt34__uninitialized_move_if_noexcept_aIPNSt7__debug6vectorIiSaIiEEES4_SaIS3_EET0_T_S7_S6_RT1_ = comdat any

$_ZNSt16allocator_traitsISaINSt7__debug6vectorIiSaIiEEEEE7destroyIS3_EEvRS4_PT_ = comdat any

$_ZSt8_DestroyIPNSt7__debug6vectorIiSaIiEEES3_EvT_S5_RSaIT0_E = comdat any

$_ZNKSt9__cxx19986vectorINSt7__debug6vectorIiSaIiEEESaIS4_EE8max_sizeEv = comdat any

$_ZNSt16allocator_traitsISaINSt7__debug6vectorIiSaIiEEEEE8max_sizeERKS4_ = comdat any

$_ZNKSt9__cxx199812_Vector_baseINSt7__debug6vectorIiSaIiEEESaIS4_EE19_M_get_Tp_allocatorEv = comdat any

$_ZSt22__uninitialized_copy_aISt13move_iteratorIPNSt7__debug6vectorIiSaIiEEEES5_S4_ET0_T_S8_S7_RSaIT1_E = comdat any

$_ZSt32__make_move_if_noexcept_iteratorIPNSt7__debug6vectorIiSaIiEEESt13move_iteratorIS4_EET0_T_ = comdat any

$_ZSt18uninitialized_copyISt13move_iteratorIPNSt7__debug6vectorIiSaIiEEEES5_ET0_T_S8_S7_ = comdat any

$_ZNSt20__uninitialized_copyILb0EE13__uninit_copyISt13move_iteratorIPNSt7__debug6vectorIiSaIiEEEES7_EET0_T_SA_S9_ = comdat any

$_ZStneIPNSt7__debug6vectorIiSaIiEEEEbRKSt13move_iteratorIT_ES9_ = comdat any

$_ZSt10_ConstructINSt7__debug6vectorIiSaIiEEEJS3_EEvPT_DpOT0_ = comdat any

$_ZNKSt13move_iteratorIPNSt7__debug6vectorIiSaIiEEEEdeEv = comdat any

$_ZNSt13move_iteratorIPNSt7__debug6vectorIiSaIiEEEEppEv = comdat any

$_ZSteqIPNSt7__debug6vectorIiSaIiEEEEbRKSt13move_iteratorIT_ES9_ = comdat any

$_ZNKSt13move_iteratorIPNSt7__debug6vectorIiSaIiEEEE4baseEv = comdat any

$_ZSt7forwardINSt7__debug6vectorIiSaIiEEEEOT_RNSt16remove_referenceIS4_E4typeE = comdat any

$_ZNSt7__debug6vectorIiSaIiEEC2EOS2_ = comdat any

$_ZN11__gnu_debug15_Safe_containerINSt7__debug6vectorIiSaIiEEES3_NS_14_Safe_sequenceELb1EEC2EOS6_ = comdat any

$_ZNSt9__cxx19986vectorIiSaIiEEC2EOS2_ = comdat any

$_ZN11__gnu_debug12_Safe_vectorINSt7__debug6vectorIiSaIiEEENSt9__cxx19986vectorIiS3_EEEC2EOS8_ = comdat any

$_ZSt4moveIRNSt9__cxx19986vectorIiSaIiEEEEONSt16remove_referenceIT_E4typeEOS6_ = comdat any

$_ZNSt9__cxx199812_Vector_baseIiSaIiEEC2EOS2_ = comdat any

$_ZSt4moveIRSaIiEEONSt16remove_referenceIT_E4typeEOS3_ = comdat any

$_ZNSt9__cxx199812_Vector_baseIiSaIiEE12_Vector_implC2EOS1_ = comdat any

$_ZNSt9__cxx199812_Vector_baseIiSaIiEE12_Vector_impl12_M_swap_dataERS3_ = comdat any

$_ZSt4swapIPiEvRT_S2_ = comdat any

$_ZSt4moveIRPiEONSt16remove_referenceIT_E4typeEOS3_ = comdat any

$_ZNSt13move_iteratorIPNSt7__debug6vectorIiSaIiEEEEC2ES4_ = comdat any

$_ZN9__gnu_cxx13new_allocatorINSt7__debug6vectorIiSaIiEEEE7destroyIS4_EEvPT_ = comdat any

$_ZN11__gnu_debug15_Safe_containerINSt7__debug6vectorIiSaIiEEES3_NS_14_Safe_sequenceELb1EEC2ERKS6_ = comdat any

$_ZNSt9__cxx19986vectorIiSaIiEEC2ERKS2_ = comdat any

$_ZN11__gnu_debug12_Safe_vectorINSt7__debug6vectorIiSaIiEEENSt9__cxx19986vectorIiS3_EEEC2ERKS8_ = comdat any

$_ZN11__gnu_debug14_Safe_sequenceINSt7__debug6vectorIiSaIiEEEEC2ERKS5_ = comdat any

$_ZN11__gnu_debug19_Safe_sequence_baseC2ERKS0_ = comdat any

$_ZN9__gnu_cxx14__alloc_traitsISaIiEE17_S_select_on_copyERKS1_ = comdat any

$_ZSt22__uninitialized_copy_aIN9__gnu_cxx17__normal_iteratorIPKiNSt9__cxx19986vectorIiSaIiEEEEEPiiET0_T_SB_SA_RSaIT1_E = comdat any

$_ZNSt16allocator_traitsISaIiEE37select_on_container_copy_constructionERKS0_ = comdat any

$_ZNSaIiEC2ERKS_ = comdat any

$_ZSt18uninitialized_copyIN9__gnu_cxx17__normal_iteratorIPKiNSt9__cxx19986vectorIiSaIiEEEEEPiET0_T_SB_SA_ = comdat any

$_ZNSt20__uninitialized_copyILb1EE13__uninit_copyIN9__gnu_cxx17__normal_iteratorIPKiNSt9__cxx19986vectorIiSaIiEEEEEPiEET0_T_SD_SC_ = comdat any

$_ZSt4copyIN9__gnu_cxx17__normal_iteratorIPKiNSt9__cxx19986vectorIiSaIiEEEEEPiET0_T_SB_SA_ = comdat any

$_ZN11__gnu_debug13__valid_rangeIN9__gnu_cxx17__normal_iteratorIPKiNSt9__cxx19986vectorIiSaIiEEEEEEEbRKT_SC_ = comdat any

$_ZNK11__gnu_debug16_Error_formatter11_M_iteratorIN9__gnu_cxx17__normal_iteratorIPKiNSt9__cxx19986vectorIiSaIiEEEEEEERKS0_RKT_PKc = comdat any

$_ZSt14__copy_move_a2ILb0EN9__gnu_cxx17__normal_iteratorIPKiNSt9__cxx19986vectorIiSaIiEEEEEPiET1_T0_SB_SA_ = comdat any

$_ZSt12__miter_baseIN9__gnu_cxx17__normal_iteratorIPKiNSt9__cxx19986vectorIiSaIiEEEEEENSt11_Miter_baseIT_E13iterator_typeESA_ = comdat any

$_ZN11__gnu_debug17__valid_range_auxIN9__gnu_cxx17__normal_iteratorIPKiNSt9__cxx19986vectorIiSaIiEEEEEEEbRKT_SC_St12__false_type = comdat any

$_ZN11__gnu_debug18__valid_range_aux2IN9__gnu_cxx17__normal_iteratorIPKiNSt9__cxx19986vectorIiSaIiEEEEEEEbRKT_SC_St26random_access_iterator_tag = comdat any

$_ZSt19__iterator_categoryIN9__gnu_cxx17__normal_iteratorIPKiNSt9__cxx19986vectorIiSaIiEEEEEENSt15iterator_traitsIT_E17iterator_categoryERKSA_ = comdat any

$_ZN9__gnu_cxxmiIPKiNSt9__cxx19986vectorIiSaIiEEEEENS_17__normal_iteratorIT_T0_E15difference_typeERKSA_SD_ = comdat any

$_ZN11__gnu_debug16_Error_formatter10_ParameterC2IN9__gnu_cxx17__normal_iteratorIPKiNSt9__cxx19986vectorIiSaIiEEEEEEERKT_PKcNS0_12_Is_iteratorE = comdat any

$_ZN11__gnu_debug16__check_singularIN9__gnu_cxx17__normal_iteratorIPKiNSt9__cxx19986vectorIiSaIiEEEEEEEbRKT_ = comdat any

$_ZSt13__copy_move_aILb0EPKiPiET1_T0_S4_S3_ = comdat any

$_ZSt12__niter_baseIN9__gnu_cxx17__normal_iteratorIPKiNSt9__cxx19986vectorIiSaIiEEEEEENSt11_Niter_baseIT_E13iterator_typeESA_ = comdat any

$_ZNSt11__copy_moveILb0ELb1ESt26random_access_iterator_tagE8__copy_mIiEEPT_PKS3_S6_S4_ = comdat any

$_ZNSt10_Iter_baseIN9__gnu_cxx17__normal_iteratorIPKiNSt9__cxx19986vectorIiSaIiEEEEELb1EE7_S_baseES8_ = comdat any

$_ZNSt10_Iter_baseIN9__gnu_cxx17__normal_iteratorIPKiNSt9__cxx19986vectorIiSaIiEEEEELb0EE7_S_baseES8_ = comdat any

$_ZN11__gnu_debug15_Safe_containerINSt7__debug3setIiSt4lessIiESaIiEEES5_NS_19_Safe_node_sequenceELb1EEC2Ev = comdat any

$_ZNSt9__cxx19983setIiSt4lessIiESaIiEEC2Ev = comdat any

$_ZN11__gnu_debug19_Safe_node_sequenceINSt7__debug3setIiSt4lessIiESaIiEEEEC2Ev = comdat any

$_ZN11__gnu_debug14_Safe_sequenceINSt7__debug3setIiSt4lessIiESaIiEEEEC2Ev = comdat any

$_ZNSt8_Rb_treeIiiSt9_IdentityIiESt4lessIiESaIiEEC2Ev = comdat any

$_ZNSt8_Rb_treeIiiSt9_IdentityIiESt4lessIiESaIiEE13_Rb_tree_implIS3_Lb1EEC2Ev = comdat any

$_ZNSaISt13_Rb_tree_nodeIiEEC2Ev = comdat any

$_ZNSt8_Rb_treeIiiSt9_IdentityIiESt4lessIiESaIiEE13_Rb_tree_implIS3_Lb1EE13_M_initializeEv = comdat any

$_ZNSaISt13_Rb_tree_nodeIiEED2Ev = comdat any

$_ZN9__gnu_cxx13new_allocatorISt13_Rb_tree_nodeIiEEC2Ev = comdat any

$_ZN9__gnu_cxx13new_allocatorISt13_Rb_tree_nodeIiEED2Ev = comdat any

$_ZN11__gnu_debug19_Safe_iterator_baseD2Ev = comdat any

$_ZNSt9__cxx19983setIiSt4lessIiESaIiEED2Ev = comdat any

$_ZN11__gnu_debug15_Safe_containerINSt7__debug3setIiSt4lessIiESaIiEEES5_NS_19_Safe_node_sequenceELb1EED2Ev = comdat any

$_ZNSt8_Rb_treeIiiSt9_IdentityIiESt4lessIiESaIiEED2Ev = comdat any

$_ZNSt8_Rb_treeIiiSt9_IdentityIiESt4lessIiESaIiEE8_M_eraseEPSt13_Rb_tree_nodeIiE = comdat any

$_ZNSt8_Rb_treeIiiSt9_IdentityIiESt4lessIiESaIiEE8_M_beginEv = comdat any

$_ZNSt8_Rb_treeIiiSt9_IdentityIiESt4lessIiESaIiEE13_Rb_tree_implIS3_Lb1EED2Ev = comdat any

$_ZNSt8_Rb_treeIiiSt9_IdentityIiESt4lessIiESaIiEE8_S_rightEPSt18_Rb_tree_node_base = comdat any

$_ZNSt8_Rb_treeIiiSt9_IdentityIiESt4lessIiESaIiEE7_S_leftEPSt18_Rb_tree_node_base = comdat any

$_ZNSt8_Rb_treeIiiSt9_IdentityIiESt4lessIiESaIiEE12_M_drop_nodeEPSt13_Rb_tree_nodeIiE = comdat any

$_ZNSt8_Rb_treeIiiSt9_IdentityIiESt4lessIiESaIiEE15_M_destroy_nodeEPSt13_Rb_tree_nodeIiE = comdat any

$_ZNSt8_Rb_treeIiiSt9_IdentityIiESt4lessIiESaIiEE11_M_put_nodeEPSt13_Rb_tree_nodeIiE = comdat any

$_ZNSt16allocator_traitsISaISt13_Rb_tree_nodeIiEEE7destroyIiEEvRS2_PT_ = comdat any

$_ZNSt8_Rb_treeIiiSt9_IdentityIiESt4lessIiESaIiEE21_M_get_Node_allocatorEv = comdat any

$_ZNSt13_Rb_tree_nodeIiE9_M_valptrEv = comdat any

$_ZN9__gnu_cxx13new_allocatorISt13_Rb_tree_nodeIiEE7destroyIiEEvPT_ = comdat any

$_ZN9__gnu_cxx16__aligned_membufIiE6_M_ptrEv = comdat any

$_ZN9__gnu_cxx16__aligned_membufIiE7_M_addrEv = comdat any

$_ZNSt16allocator_traitsISaISt13_Rb_tree_nodeIiEEE10deallocateERS2_PS1_m = comdat any

$_ZN9__gnu_cxx13new_allocatorISt13_Rb_tree_nodeIiEE10deallocateEPS2_m = comdat any

$_ZN11__gnu_debug19_Safe_node_sequenceINSt7__debug3setIiSt4lessIiESaIiEEEED2Ev = comdat any

$_ZN11__gnu_debug14_Safe_sequenceINSt7__debug3setIiSt4lessIiESaIiEEEED2Ev = comdat any

$_ZNSt9__cxx19986vectorIiSaIiEED2Ev = comdat any

$_ZNSt9__cxx19986vectorINSt7__debug6vectorIiSaIiEEESaIS4_EED2Ev = comdat any

$_ZNSt7__cxx1112basic_stringIcSt11char_traitsIcESaIcEE10_M_disposeEv = comdat any

$_ZNSt7__cxx1112basic_stringIcSt11char_traitsIcESaIcEE12_Alloc_hiderD2Ev = comdat any

$_ZNKSt7__cxx1112basic_stringIcSt11char_traitsIcESaIcEE11_M_is_localEv = comdat any

$_ZNSt7__cxx1112basic_stringIcSt11char_traitsIcESaIcEE10_M_destroyEm = comdat any

$_ZNKSt7__cxx1112basic_stringIcSt11char_traitsIcESaIcEE7_M_dataEv = comdat any

$_ZNKSt7__cxx1112basic_stringIcSt11char_traitsIcESaIcEE13_M_local_dataEv = comdat any

$_ZNSt14pointer_traitsIPKcE10pointer_toERS0_ = comdat any

$_ZSt9addressofIKcEPT_RS1_ = comdat any

$_ZSt11__addressofIKcEPT_RS1_ = comdat any

$_ZNSt16allocator_traitsISaIcEE10deallocateERS0_Pcm = comdat any

$_ZNSt7__cxx1112basic_stringIcSt11char_traitsIcESaIcEE16_M_get_allocatorEv = comdat any

$_ZN9__gnu_cxx13new_allocatorIcE10deallocateEPcm = comdat any

$_ZNSt7__cxx1112basic_stringIcSt11char_traitsIcESaIcEEC2Ev = comdat any

$_ZNKSt7__cxx1112basic_stringIcSt11char_traitsIcESaIcEE4sizeEv = comdat any

$_ZNSt7__cxx1112basic_stringIcSt11char_traitsIcESaIcEE7reserveEm = comdat any

$_ZNSt7__cxx1112basic_stringIcSt11char_traitsIcESaIcEE6appendEmc = comdat any

$_ZNSt7__cxx1112basic_stringIcSt11char_traitsIcESaIcEE6appendERKS4_ = comdat any

$_ZNSt7__cxx1112basic_stringIcSt11char_traitsIcESaIcEE13_M_local_dataEv = comdat any

$_ZNSt7__cxx1112basic_stringIcSt11char_traitsIcESaIcEE12_Alloc_hiderC2EPcRKS3_ = comdat any

$_ZNSt7__cxx1112basic_stringIcSt11char_traitsIcESaIcEE13_M_set_lengthEm = comdat any

$_ZNSt14pointer_traitsIPcE10pointer_toERc = comdat any

$_ZSt9addressofIcEPT_RS0_ = comdat any

$_ZSt11__addressofIcEPT_RS0_ = comdat any

$_ZNSt7__cxx1112basic_stringIcSt11char_traitsIcESaIcEE9_M_lengthEm = comdat any

$_ZNSt11char_traitsIcE6assignERcRKc = comdat any

$_ZNKSt7__cxx1112basic_stringIcSt11char_traitsIcESaIcEE6lengthEv = comdat any

$_ZNKSt7__cxx1112basic_stringIcSt11char_traitsIcESaIcEE8capacityEv = comdat any

$_ZNSt7__cxx1112basic_stringIcSt11char_traitsIcESaIcEE9_M_createERmm = comdat any

$_ZNSt7__cxx1112basic_stringIcSt11char_traitsIcESaIcEE7_S_copyEPcPKcm = comdat any

$_ZNSt7__cxx1112basic_stringIcSt11char_traitsIcESaIcEE7_M_dataEPc = comdat any

$_ZNSt7__cxx1112basic_stringIcSt11char_traitsIcESaIcEE11_M_capacityEm = comdat any

$_ZNKSt7__cxx1112basic_stringIcSt11char_traitsIcESaIcEE8max_sizeEv = comdat any

$_ZNSt16allocator_traitsISaIcEE8allocateERS0_m = comdat any

$_ZNSt16allocator_traitsISaIcEE8max_sizeERKS0_ = comdat any

$_ZNKSt7__cxx1112basic_stringIcSt11char_traitsIcESaIcEE16_M_get_allocatorEv = comdat any

$_ZNK9__gnu_cxx13new_allocatorIcE8max_sizeEv = comdat any

$_ZN9__gnu_cxx13new_allocatorIcE8allocateEmPKv = comdat any

$_ZNSt11char_traitsIcE4copyEPcPKcm = comdat any

$_ZNSt7__cxx1112basic_stringIcSt11char_traitsIcESaIcEE14_M_replace_auxEmmmc = comdat any

$_ZNKSt7__cxx1112basic_stringIcSt11char_traitsIcESaIcEE15_M_check_lengthEmmPKc = comdat any

$_ZNSt7__cxx1112basic_stringIcSt11char_traitsIcESaIcEE7_S_moveEPcPKcm = comdat any

$_ZNSt7__cxx1112basic_stringIcSt11char_traitsIcESaIcEE9_M_mutateEmmPKcm = comdat any

$_ZNSt7__cxx1112basic_stringIcSt11char_traitsIcESaIcEE9_S_assignEPcmc = comdat any

$_ZNSt11char_traitsIcE4moveEPcPKcm = comdat any

$_ZNSt11char_traitsIcE6assignEPcmc = comdat any

$_ZNSt7__cxx1112basic_stringIcSt11char_traitsIcESaIcEE9_M_appendEPKcm = comdat any

$_ZSt4moveIRNSt7__cxx1112basic_stringIcSt11char_traitsIcESaIcEEEEONSt16remove_referenceIT_E4typeEOS8_ = comdat any

$_ZNSt7__cxx1112basic_stringIcSt11char_traitsIcESaIcEEC2EOS4_ = comdat any

$_ZSt4moveIRSaIcEEONSt16remove_referenceIT_E4typeEOS3_ = comdat any

$_ZNSt7__cxx1112basic_stringIcSt11char_traitsIcESaIcEE12_M_constructIPKcEEvT_S8_ = comdat any

$_ZNSt11char_traitsIcE6lengthEPKc = comdat any

$_ZNSt7__cxx1112basic_stringIcSt11char_traitsIcESaIcEE16_M_construct_auxIPKcEEvT_S8_St12__false_type = comdat any

$_ZNSt7__cxx1112basic_stringIcSt11char_traitsIcESaIcEE12_M_constructIPKcEEvT_S8_St20forward_iterator_tag = comdat any

$_ZN9__gnu_cxx17__is_null_pointerIKcEEbPT_ = comdat any

$_ZSt8distanceIPKcENSt15iterator_traitsIT_E15difference_typeES3_S3_ = comdat any

$_ZNSt7__cxx1112basic_stringIcSt11char_traitsIcESaIcEE13_S_copy_charsEPcPKcS7_ = comdat any

$_ZSt10__distanceIPKcENSt15iterator_traitsIT_E15difference_typeES3_S3_St26random_access_iterator_tag = comdat any

$_ZSt19__iterator_categoryIPKcENSt15iterator_traitsIT_E17iterator_categoryERKS3_ = comdat any

$_ZNSt9__cxx19986vectorIiSaIiEEC2EmRKS1_ = comdat any

$_ZN11__gnu_debug12_Safe_vectorINSt7__debug6vectorIiSaIiEEENSt9__cxx19986vectorIiS3_EEEC2Em = comdat any

$_ZNSt9__cxx19986vectorIiSaIiEE21_M_default_initializeEm = comdat any

$_ZSt27__uninitialized_default_n_aIPimiET_S1_T0_RSaIT1_E = comdat any

$_ZSt25__uninitialized_default_nIPimET_S1_T0_ = comdat any

$_ZNSt27__uninitialized_default_n_1ILb1EE18__uninit_default_nIPimEET_S3_T0_ = comdat any

$_ZNK11__gnu_debug16_Error_formatter11_M_sequenceINSt7__debug6vectorIiSaIiEEEEERKS0_RKT_PKc = comdat any

$_ZNSt7__debug6vectorIiSaIiEE7_M_baseEv = comdat any

$_ZNSt9__cxx19986vectorIiSaIiEEixEm = comdat any

$_ZN11__gnu_debug16_Error_formatter10_ParameterC2INSt7__debug6vectorIiSaIiEEEEERKT_PKcNS0_12_Is_sequenceE = comdat any

$_ZNSt9__cxx19986vectorINSt7__debug6vectorIiSaIiEEESaIS4_EE5beginEv = comdat any

$_ZN11__gnu_debug14_Safe_iteratorIN9__gnu_cxx17__normal_iteratorIPNSt7__debug6vectorIiSaIiEEENSt9__cxx19986vectorIS6_SaIS6_EEEEENS4_IS6_SA_EEEC2ERKSC_PKNS_19_Safe_sequence_baseE = comdat any

$_ZN9__gnu_cxx17__normal_iteratorIPNSt7__debug6vectorIiSaIiEEENSt9__cxx19986vectorIS4_SaIS4_EEEEC2ERKS5_ = comdat any

$_ZNK11__gnu_debug14_Safe_iteratorIN9__gnu_cxx17__normal_iteratorIPNSt7__debug6vectorIiSaIiEEENSt9__cxx19986vectorIS6_SaIS6_EEEEENS4_IS6_SA_EEE11_M_constantEv = comdat any

$_ZN11__gnu_debug19_Safe_iterator_baseC2EPKNS_19_Safe_sequence_baseEb = comdat any

$_ZNK11__gnu_debug16_Error_formatter11_M_iteratorINS_14_Safe_iteratorIN9__gnu_cxx17__normal_iteratorIPNSt7__debug6vectorIiSaIiEEENSt9__cxx19986vectorIS8_SaIS8_EEEEENS6_IS8_SC_EEEEEERKS0_RKT_PKc = comdat any

$_ZN11__gnu_debug16_Error_formatter10_ParameterC2IN9__gnu_cxx17__normal_iteratorIPNSt7__debug6vectorIiSaIiEEENSt9__cxx19986vectorIS8_SaIS8_EEEEENS6_IS8_SC_EEEERKNS_14_Safe_iteratorIT_T0_EEPKcNS0_12_Is_iteratorE = comdat any

$_ZNK11__gnu_debug14_Safe_iteratorIN9__gnu_cxx17__normal_iteratorIPNSt7__debug6vectorIiSaIiEEENSt9__cxx19986vectorIS6_SaIS6_EEEEENS4_IS6_SA_EEE15_M_get_sequenceEv = comdat any

$_ZNK11__gnu_debug14_Safe_iteratorIN9__gnu_cxx17__normal_iteratorIPNSt7__debug6vectorIiSaIiEEENSt9__cxx19986vectorIS6_SaIS6_EEEEENS4_IS6_SA_EEE18_M_is_before_beginEv = comdat any

$_ZNK11__gnu_debug14_Safe_iteratorIN9__gnu_cxx17__normal_iteratorIPNSt7__debug6vectorIiSaIiEEENSt9__cxx19986vectorIS6_SaIS6_EEEEENS4_IS6_SA_EEE9_M_is_endEv = comdat any

$_ZNK11__gnu_debug14_Safe_iteratorIN9__gnu_cxx17__normal_iteratorIPNSt7__debug6vectorIiSaIiEEENSt9__cxx19986vectorIS6_SaIS6_EEEEENS4_IS6_SA_EEE11_M_is_beginEv = comdat any

$_ZN11__gnu_debug18_BeforeBeginHelperINSt7__debug6vectorINS2_IiSaIiEEESaIS4_EEEE5_S_IsIN9__gnu_cxx17__normal_iteratorIPS4_NSt9__cxx19986vectorIS4_S5_EEEEEEbRKNS_14_Safe_iteratorIT_S6_EE = comdat any

$_ZN9__gnu_cxxeqIPNSt7__debug6vectorIiSaIiEEENSt9__cxx19986vectorIS4_SaIS4_EEEEEbRKNS_17__normal_iteratorIT_T0_EESF_ = comdat any

$_ZNK11__gnu_debug14_Safe_iteratorIN9__gnu_cxx17__normal_iteratorIPNSt7__debug6vectorIiSaIiEEENSt9__cxx19986vectorIS6_SaIS6_EEEEENS4_IS6_SA_EEE4baseEv = comdat any

$_ZNSt9__cxx19986vectorINSt7__debug6vectorIiSaIiEEESaIS4_EE3endEv = comdat any

$_ZNK9__gnu_cxx17__normal_iteratorIPNSt7__debug6vectorIiSaIiEEENSt9__cxx19986vectorIS4_SaIS4_EEEE4baseEv = comdat any

$_ZN9__gnu_cxxneIPNSt7__debug6vectorIiSaIiEEENSt9__cxx19986vectorIS4_SaIS4_EEEEEbRKNS_17__normal_iteratorIT_T0_EESF_ = comdat any

$_ZNK11__gnu_debug14_Safe_iteratorIN9__gnu_cxx17__normal_iteratorIPNSt7__debug6vectorIiSaIiEEENSt9__cxx19986vectorIS6_SaIS6_EEEEENS4_IS6_SA_EEE16_M_incrementableEv = comdat any

$_ZN9__gnu_cxx13__scoped_lockC2ERNS_7__mutexE = comdat any

$_ZN9__gnu_cxx13__scoped_lockD2Ev = comdat any

$_ZN11__gnu_debug14_Safe_iteratorIN9__gnu_cxx17__normal_iteratorIPNSt7__debug6vectorIiSaIiEEENSt9__cxx19986vectorIS6_SaIS6_EEEEENS4_IS6_SA_EEE4baseEv = comdat any

$_ZN9__gnu_cxx17__normal_iteratorIPNSt7__debug6vectorIiSaIiEEENSt9__cxx19986vectorIS4_SaIS4_EEEEppEv = comdat any

$_ZN9__gnu_cxx7__mutex4lockEv = comdat any

$_ZN9__gnu_cxx30__throw_concurrence_lock_errorEv = comdat any

$_ZN9__gnu_cxx24__concurrence_lock_errorC2Ev = comdat any

$_ZN9__gnu_cxx24__concurrence_lock_errorD2Ev = comdat any

$_ZNSt9exceptionC2Ev = comdat any

$_ZN9__gnu_cxx24__concurrence_lock_errorD0Ev = comdat any

$_ZNK9__gnu_cxx24__concurrence_lock_error4whatEv = comdat any

$_ZN9__gnu_cxx7__mutex6unlockEv = comdat any

$_ZN9__gnu_cxx32__throw_concurrence_unlock_errorEv = comdat any

$_ZN9__gnu_cxx26__concurrence_unlock_errorC2Ev = comdat any

$_ZN9__gnu_cxx26__concurrence_unlock_errorD2Ev = comdat any

$_ZN9__gnu_cxx26__concurrence_unlock_errorD0Ev = comdat any

$_ZNK9__gnu_cxx26__concurrence_unlock_error4whatEv = comdat any

$_ZNK11__gnu_debug14_Safe_iteratorIN9__gnu_cxx17__normal_iteratorIPNSt7__debug6vectorIiSaIiEEENSt9__cxx19986vectorIS6_SaIS6_EEEEENS4_IS6_SA_EEE18_M_dereferenceableEv = comdat any

$_ZNK9__gnu_cxx17__normal_iteratorIPNSt7__debug6vectorIiSaIiEEENSt9__cxx19986vectorIS4_SaIS4_EEEEdeEv = comdat any

$_ZNSt9__cxx19986vectorIiSaIiEE5beginEv = comdat any

$_ZN11__gnu_debug14_Safe_iteratorIN9__gnu_cxx17__normal_iteratorIPiNSt9__cxx19986vectorIiSaIiEEEEENSt7__debug6vectorIiS6_EEEC2ERKS8_PKNS_19_Safe_sequence_baseE = comdat any

$_ZN9__gnu_cxx17__normal_iteratorIPiNSt9__cxx19986vectorIiSaIiEEEEC2ERKS1_ = comdat any

$_ZNK11__gnu_debug14_Safe_iteratorIN9__gnu_cxx17__normal_iteratorIPiNSt9__cxx19986vectorIiSaIiEEEEENSt7__debug6vectorIiS6_EEE11_M_constantEv = comdat any

$_ZNK11__gnu_debug16_Error_formatter11_M_iteratorINS_14_Safe_iteratorIN9__gnu_cxx17__normal_iteratorIPiNSt9__cxx19986vectorIiSaIiEEEEENSt7__debug6vectorIiS8_EEEEEERKS0_RKT_PKc = comdat any

$_ZN11__gnu_debug16_Error_formatter10_ParameterC2IN9__gnu_cxx17__normal_iteratorIPiNSt9__cxx19986vectorIiSaIiEEEEENSt7__debug6vectorIiS8_EEEERKNS_14_Safe_iteratorIT_T0_EEPKcNS0_12_Is_iteratorE = comdat any

$_ZNK11__gnu_debug14_Safe_iteratorIN9__gnu_cxx17__normal_iteratorIPiNSt9__cxx19986vectorIiSaIiEEEEENSt7__debug6vectorIiS6_EEE15_M_get_sequenceEv = comdat any

$_ZNK11__gnu_debug14_Safe_iteratorIN9__gnu_cxx17__normal_iteratorIPiNSt9__cxx19986vectorIiSaIiEEEEENSt7__debug6vectorIiS6_EEE18_M_is_before_beginEv = comdat any

$_ZNK11__gnu_debug14_Safe_iteratorIN9__gnu_cxx17__normal_iteratorIPiNSt9__cxx19986vectorIiSaIiEEEEENSt7__debug6vectorIiS6_EEE9_M_is_endEv = comdat any

$_ZNK11__gnu_debug14_Safe_iteratorIN9__gnu_cxx17__normal_iteratorIPiNSt9__cxx19986vectorIiSaIiEEEEENSt7__debug6vectorIiS6_EEE11_M_is_beginEv = comdat any

$_ZN11__gnu_debug18_BeforeBeginHelperINSt7__debug6vectorIiSaIiEEEE5_S_IsIN9__gnu_cxx17__normal_iteratorIPiNSt9__cxx19986vectorIiS3_EEEEEEbRKNS_14_Safe_iteratorIT_S4_EE = comdat any

$_ZN9__gnu_cxxeqIPiNSt9__cxx19986vectorIiSaIiEEEEEbRKNS_17__normal_iteratorIT_T0_EESB_ = comdat any

$_ZNK11__gnu_debug14_Safe_iteratorIN9__gnu_cxx17__normal_iteratorIPiNSt9__cxx19986vectorIiSaIiEEEEENSt7__debug6vectorIiS6_EEE4baseEv = comdat any

$_ZNSt9__cxx19986vectorIiSaIiEE3endEv = comdat any

$_ZNK9__gnu_cxx17__normal_iteratorIPiNSt9__cxx19986vectorIiSaIiEEEE4baseEv = comdat any

$_ZN9__gnu_cxxneIPiNSt9__cxx19986vectorIiSaIiEEEEEbRKNS_17__normal_iteratorIT_T0_EESB_ = comdat any

$_ZNK11__gnu_debug14_Safe_iteratorIN9__gnu_cxx17__normal_iteratorIPiNSt9__cxx19986vectorIiSaIiEEEEENSt7__debug6vectorIiS6_EEE16_M_incrementableEv = comdat any

$_ZN11__gnu_debug14_Safe_iteratorIN9__gnu_cxx17__normal_iteratorIPiNSt9__cxx19986vectorIiSaIiEEEEENSt7__debug6vectorIiS6_EEE4baseEv = comdat any

$_ZN9__gnu_cxx17__normal_iteratorIPiNSt9__cxx19986vectorIiSaIiEEEEppEv = comdat any

$_ZNK11__gnu_debug14_Safe_iteratorIN9__gnu_cxx17__normal_iteratorIPiNSt9__cxx19986vectorIiSaIiEEEEENSt7__debug6vectorIiS6_EEE18_M_dereferenceableEv = comdat any

$_ZNK9__gnu_cxx17__normal_iteratorIPiNSt9__cxx19986vectorIiSaIiEEEEdeEv = comdat any

$_ZNSt9__cxx19983setIiSt4lessIiESaIiEE6insertERKi = comdat any

$_ZN11__gnu_debug14_Safe_iteratorISt23_Rb_tree_const_iteratorIiENSt7__debug3setIiSt4lessIiESaIiEEEEC2ERKS2_PKNS_19_Safe_sequence_baseE = comdat any

$_ZNSt4pairIN11__gnu_debug14_Safe_iteratorISt23_Rb_tree_const_iteratorIiENSt7__debug3setIiSt4lessIiESaIiEEEEEbEC2ISA_RbvEEOT_OT0_ = comdat any

$_ZNSt8_Rb_treeIiiSt9_IdentityIiESt4lessIiESaIiEE16_M_insert_uniqueIRKiEESt4pairISt17_Rb_tree_iteratorIiEbEOT_ = comdat any

$_ZNSt4pairISt23_Rb_tree_const_iteratorIiEbEC2IRSt17_Rb_tree_iteratorIiERbvEEOT_OT0_ = comdat any

$_ZNSt8_Rb_treeIiiSt9_IdentityIiESt4lessIiESaIiEE24_M_get_insert_unique_posERKi = comdat any

$_ZNKSt9_IdentityIiEclERKi = comdat any

$_ZNSt8_Rb_treeIiiSt9_IdentityIiESt4lessIiESaIiEE11_Alloc_nodeC2ERS5_ = comdat any

$_ZNSt8_Rb_treeIiiSt9_IdentityIiESt4lessIiESaIiEE10_M_insert_IRKiNS5_11_Alloc_nodeEEESt17_Rb_tree_iteratorIiEPSt18_Rb_tree_node_baseSD_OT_RT0_ = comdat any

$_ZNSt4pairISt17_Rb_tree_iteratorIiEbEC2IS1_bvEEOT_OT0_ = comdat any

$_ZNSt17_Rb_tree_iteratorIiEC2EPSt18_Rb_tree_node_base = comdat any

$_ZNSt8_Rb_treeIiiSt9_IdentityIiESt4lessIiESaIiEE6_M_endEv = comdat any

$_ZNKSt4lessIiEclERKiS2_ = comdat any

$_ZNSt8_Rb_treeIiiSt9_IdentityIiESt4lessIiESaIiEE6_S_keyEPKSt13_Rb_tree_nodeIiE = comdat any

$_ZNKSt17_Rb_tree_iteratorIiEeqERKS0_ = comdat any

$_ZNSt8_Rb_treeIiiSt9_IdentityIiESt4lessIiESaIiEE5beginEv = comdat any

$_ZNSt4pairIPSt18_Rb_tree_node_baseS1_EC2IRPSt13_Rb_tree_nodeIiES7_vEEOT_OT0_ = comdat any

$_ZNSt17_Rb_tree_iteratorIiEmmEv = comdat any

$_ZNSt8_Rb_treeIiiSt9_IdentityIiESt4lessIiESaIiEE6_S_keyEPKSt18_Rb_tree_node_base = comdat any

$_ZNSt4pairIPSt18_Rb_tree_node_baseS1_EC2IRS1_vEEOT_RKS1_ = comdat any

$_ZNSt8_Rb_treeIiiSt9_IdentityIiESt4lessIiESaIiEE8_S_valueEPKSt13_Rb_tree_nodeIiE = comdat any

$_ZNKSt13_Rb_tree_nodeIiE9_M_valptrEv = comdat any

$_ZNK9__gnu_cxx16__aligned_membufIiE6_M_ptrEv = comdat any

$_ZNK9__gnu_cxx16__aligned_membufIiE7_M_addrEv = comdat any

$_ZSt7forwardIRPSt13_Rb_tree_nodeIiEEOT_RNSt16remove_referenceIS4_E4typeE = comdat any

$_ZNSt8_Rb_treeIiiSt9_IdentityIiESt4lessIiESaIiEE8_S_valueEPKSt18_Rb_tree_node_base = comdat any

$_ZSt7forwardIRPSt18_Rb_tree_node_baseEOT_RNSt16remove_referenceIS3_E4typeE = comdat any

$_ZNKSt8_Rb_treeIiiSt9_IdentityIiESt4lessIiESaIiEE11_Alloc_nodeclIRKiEEPSt13_Rb_tree_nodeIiEOT_ = comdat any

$_ZNSt8_Rb_treeIiiSt9_IdentityIiESt4lessIiESaIiEE14_M_create_nodeIJRKiEEEPSt13_Rb_tree_nodeIiEDpOT_ = comdat any

$_ZNSt8_Rb_treeIiiSt9_IdentityIiESt4lessIiESaIiEE11_M_get_nodeEv = comdat any

$_ZNSt8_Rb_treeIiiSt9_IdentityIiESt4lessIiESaIiEE17_M_construct_nodeIJRKiEEEvPSt13_Rb_tree_nodeIiEDpOT_ = comdat any

$_ZNSt16allocator_traitsISaISt13_Rb_tree_nodeIiEEE8allocateERS2_m = comdat any

$_ZN9__gnu_cxx13new_allocatorISt13_Rb_tree_nodeIiEE8allocateEmPKv = comdat any

$_ZNK9__gnu_cxx13new_allocatorISt13_Rb_tree_nodeIiEE8max_sizeEv = comdat any

$_ZNSt16allocator_traitsISaISt13_Rb_tree_nodeIiEEE9constructIiJRKiEEEvRS2_PT_DpOT0_ = comdat any

$_ZN9__gnu_cxx13new_allocatorISt13_Rb_tree_nodeIiEE9constructIiJRKiEEEvPT_DpOT0_ = comdat any

$_ZSt7forwardISt17_Rb_tree_iteratorIiEEOT_RNSt16remove_referenceIS2_E4typeE = comdat any

$_ZSt7forwardIbEOT_RNSt16remove_referenceIS0_E4typeE = comdat any

$_ZSt7forwardIRSt17_Rb_tree_iteratorIiEEOT_RNSt16remove_referenceIS3_E4typeE = comdat any

$_ZNSt23_Rb_tree_const_iteratorIiEC2ERKSt17_Rb_tree_iteratorIiE = comdat any

$_ZSt7forwardIRbEOT_RNSt16remove_referenceIS1_E4typeE = comdat any

$_ZNK11__gnu_debug14_Safe_iteratorISt23_Rb_tree_const_iteratorIiENSt7__debug3setIiSt4lessIiESaIiEEEE11_M_constantEv = comdat any

$_ZNK11__gnu_debug16_Error_formatter11_M_iteratorINS_14_Safe_iteratorISt23_Rb_tree_const_iteratorIiENSt7__debug3setIiSt4lessIiESaIiEEEEEEERKS0_RKT_PKc = comdat any

$_ZN11__gnu_debug16_Error_formatter10_ParameterC2ISt23_Rb_tree_const_iteratorIiENSt7__debug3setIiSt4lessIiESaIiEEEEERKNS_14_Safe_iteratorIT_T0_EEPKcNS0_12_Is_iteratorE = comdat any

$_ZNK11__gnu_debug14_Safe_iteratorISt23_Rb_tree_const_iteratorIiENSt7__debug3setIiSt4lessIiESaIiEEEE15_M_get_sequenceEv = comdat any

$_ZNK11__gnu_debug14_Safe_iteratorISt23_Rb_tree_const_iteratorIiENSt7__debug3setIiSt4lessIiESaIiEEEE18_M_is_before_beginEv = comdat any

$_ZNK11__gnu_debug14_Safe_iteratorISt23_Rb_tree_const_iteratorIiENSt7__debug3setIiSt4lessIiESaIiEEEE9_M_is_endEv = comdat any

$_ZNK11__gnu_debug14_Safe_iteratorISt23_Rb_tree_const_iteratorIiENSt7__debug3setIiSt4lessIiESaIiEEEE11_M_is_beginEv = comdat any

$_ZN11__gnu_debug18_BeforeBeginHelperINSt7__debug3setIiSt4lessIiESaIiEEEE5_S_IsISt23_Rb_tree_const_iteratorIiEEEbRKNS_14_Safe_iteratorIT_S6_EE = comdat any

$_ZNK11__gnu_debug14_Safe_iteratorISt23_Rb_tree_const_iteratorIiENSt7__debug3setIiSt4lessIiESaIiEEEE4baseEv = comdat any

$_ZNKSt23_Rb_tree_const_iteratorIiEeqERKS0_ = comdat any

$_ZNKSt7__debug3setIiSt4lessIiESaIiEE7_M_baseEv = comdat any

$_ZNKSt9__cxx19983setIiSt4lessIiESaIiEE3endEv = comdat any

$_ZNKSt8_Rb_treeIiiSt9_IdentityIiESt4lessIiESaIiEE3endEv = comdat any

$_ZNSt23_Rb_tree_const_iteratorIiEC2EPKSt18_Rb_tree_node_base = comdat any

$_ZNKSt9__cxx19983setIiSt4lessIiESaIiEE5beginEv = comdat any

$_ZNKSt8_Rb_treeIiiSt9_IdentityIiESt4lessIiESaIiEE5beginEv = comdat any

$_ZSt7forwardIN11__gnu_debug14_Safe_iteratorISt23_Rb_tree_const_iteratorIiENSt7__debug3setIiSt4lessIiESaIiEEEEEEOT_RNSt16remove_referenceISB_E4typeE = comdat any

$_ZN11__gnu_debug14_Safe_iteratorISt23_Rb_tree_const_iteratorIiENSt7__debug3setIiSt4lessIiESaIiEEEEC2EOS9_ = comdat any

$_ZN11__gnu_debug19_Safe_iterator_baseC2Ev = comdat any

$_ZN11__gnu_debug14_Safe_iteratorISt23_Rb_tree_const_iteratorIiENSt7__debug3setIiSt4lessIiESaIiEEEE4baseEv = comdat any

$_ZNSt23_Rb_tree_const_iteratorIiEC2Ev = comdat any

$_ZSt4swapISt23_Rb_tree_const_iteratorIiEEvRT_S3_ = comdat any

$_ZN11__gnu_debug14_Safe_iteratorISt23_Rb_tree_const_iteratorIiENSt7__debug3setIiSt4lessIiESaIiEEEE9_M_attachEPNS_19_Safe_sequence_baseE = comdat any

$_ZSt4moveIRSt23_Rb_tree_const_iteratorIiEEONSt16remove_referenceIT_E4typeEOS4_ = comdat any

$_ZNSt9__cxx19983setIiSt4lessIiESaIiEE4findERKi = comdat any

$_ZNSt8_Rb_treeIiiSt9_IdentityIiESt4lessIiESaIiEE4findERKi = comdat any

$_ZNSt8_Rb_treeIiiSt9_IdentityIiESt4lessIiESaIiEE14_M_lower_boundEPSt13_Rb_tree_nodeIiES8_RKi = comdat any

$_ZNSt8_Rb_treeIiiSt9_IdentityIiESt4lessIiESaIiEE3endEv = comdat any

$_ZNKSt23_Rb_tree_const_iteratorIiEneERKS0_ = comdat any

$_ZTSNSt7__debug6vectorINS0_IiSaIiEEESaIS2_EEE = comdat any

$_ZTSN11__gnu_debug15_Safe_containerINSt7__debug6vectorINS2_IiSaIiEEESaIS4_EEES5_NS_14_Safe_sequenceELb1EEE = comdat any

$_ZTSN11__gnu_debug14_Safe_sequenceINSt7__debug6vectorINS2_IiSaIiEEESaIS4_EEEEE = comdat any

$_ZTSN11__gnu_debug19_Safe_sequence_baseE = comdat any

$_ZTIN11__gnu_debug19_Safe_sequence_baseE = comdat any

$_ZTIN11__gnu_debug14_Safe_sequenceINSt7__debug6vectorINS2_IiSaIiEEESaIS4_EEEEE = comdat any

$_ZTIN11__gnu_debug15_Safe_containerINSt7__debug6vectorINS2_IiSaIiEEESaIS4_EEES5_NS_14_Safe_sequenceELb1EEE = comdat any

$_ZTSNSt9__cxx19986vectorINSt7__debug6vectorIiSaIiEEESaIS4_EEE = comdat any

$_ZTSNSt9__cxx199812_Vector_baseINSt7__debug6vectorIiSaIiEEESaIS4_EEE = comdat any

$_ZTINSt9__cxx199812_Vector_baseINSt7__debug6vectorIiSaIiEEESaIS4_EEE = comdat any

$_ZTINSt9__cxx19986vectorINSt7__debug6vectorIiSaIiEEESaIS4_EEE = comdat any

$_ZTSN11__gnu_debug12_Safe_vectorINSt7__debug6vectorINS2_IiSaIiEEESaIS4_EEENSt9__cxx19986vectorIS4_S5_EEEE = comdat any

$_ZTIN11__gnu_debug12_Safe_vectorINSt7__debug6vectorINS2_IiSaIiEEESaIS4_EEENSt9__cxx19986vectorIS4_S5_EEEE = comdat any

$_ZTINSt7__debug6vectorINS0_IiSaIiEEESaIS2_EEE = comdat any

$_ZTSSt13move_iteratorIPiE = comdat any

$_ZTISt13move_iteratorIPiE = comdat any

$_ZTSN9__gnu_cxx17__normal_iteratorIPKiNSt9__cxx19986vectorIiSaIiEEEEE = comdat any

$_ZTIN9__gnu_cxx17__normal_iteratorIPKiNSt9__cxx19986vectorIiSaIiEEEEE = comdat any

$_ZTSNSt7__debug6vectorIiSaIiEEE = comdat any

$_ZTSN11__gnu_debug15_Safe_containerINSt7__debug6vectorIiSaIiEEES3_NS_14_Safe_sequenceELb1EEE = comdat any

$_ZTSN11__gnu_debug14_Safe_sequenceINSt7__debug6vectorIiSaIiEEEEE = comdat any

$_ZTIN11__gnu_debug14_Safe_sequenceINSt7__debug6vectorIiSaIiEEEEE = comdat any

$_ZTIN11__gnu_debug15_Safe_containerINSt7__debug6vectorIiSaIiEEES3_NS_14_Safe_sequenceELb1EEE = comdat any

$_ZTSNSt9__cxx19986vectorIiSaIiEEE = comdat any

$_ZTSNSt9__cxx199812_Vector_baseIiSaIiEEE = comdat any

$_ZTINSt9__cxx199812_Vector_baseIiSaIiEEE = comdat any

$_ZTINSt9__cxx19986vectorIiSaIiEEE = comdat any

$_ZTSN11__gnu_debug12_Safe_vectorINSt7__debug6vectorIiSaIiEEENSt9__cxx19986vectorIiS3_EEEE = comdat any

$_ZTIN11__gnu_debug12_Safe_vectorINSt7__debug6vectorIiSaIiEEENSt9__cxx19986vectorIiS3_EEEE = comdat any

$_ZTINSt7__debug6vectorIiSaIiEEE = comdat any

$_ZTSN11__gnu_debug14_Safe_iteratorIN9__gnu_cxx17__normal_iteratorIPNSt7__debug6vectorIiSaIiEEENSt9__cxx19986vectorIS6_SaIS6_EEEEENS4_IS6_SA_EEEE = comdat any

$_ZTSN9__gnu_cxx17__normal_iteratorIPNSt7__debug6vectorIiSaIiEEENSt9__cxx19986vectorIS4_SaIS4_EEEEE = comdat any

$_ZTIN9__gnu_cxx17__normal_iteratorIPNSt7__debug6vectorIiSaIiEEENSt9__cxx19986vectorIS4_SaIS4_EEEEE = comdat any

$_ZTSN11__gnu_debug19_Safe_iterator_baseE = comdat any

$_ZTIN11__gnu_debug19_Safe_iterator_baseE = comdat any

$_ZTIN11__gnu_debug14_Safe_iteratorIN9__gnu_cxx17__normal_iteratorIPNSt7__debug6vectorIiSaIiEEENSt9__cxx19986vectorIS6_SaIS6_EEEEENS4_IS6_SA_EEEE = comdat any

$_ZTSN9__gnu_cxx24__concurrence_lock_errorE = comdat any

$_ZTIN9__gnu_cxx24__concurrence_lock_errorE = comdat any

$_ZTVN9__gnu_cxx24__concurrence_lock_errorE = comdat any

$_ZTSN9__gnu_cxx26__concurrence_unlock_errorE = comdat any

$_ZTIN9__gnu_cxx26__concurrence_unlock_errorE = comdat any

$_ZTVN9__gnu_cxx26__concurrence_unlock_errorE = comdat any

$_ZTSN11__gnu_debug14_Safe_iteratorIN9__gnu_cxx17__normal_iteratorIPiNSt9__cxx19986vectorIiSaIiEEEEENSt7__debug6vectorIiS6_EEEE = comdat any

$_ZTSN9__gnu_cxx17__normal_iteratorIPiNSt9__cxx19986vectorIiSaIiEEEEE = comdat any

$_ZTIN9__gnu_cxx17__normal_iteratorIPiNSt9__cxx19986vectorIiSaIiEEEEE = comdat any

$_ZTIN11__gnu_debug14_Safe_iteratorIN9__gnu_cxx17__normal_iteratorIPiNSt9__cxx19986vectorIiSaIiEEEEENSt7__debug6vectorIiS6_EEEE = comdat any

$_ZTSN11__gnu_debug14_Safe_iteratorISt23_Rb_tree_const_iteratorIiENSt7__debug3setIiSt4lessIiESaIiEEEEE = comdat any

$_ZTSSt23_Rb_tree_const_iteratorIiE = comdat any

$_ZTISt23_Rb_tree_const_iteratorIiE = comdat any

$_ZTIN11__gnu_debug14_Safe_iteratorISt23_Rb_tree_const_iteratorIiENSt7__debug3setIiSt4lessIiESaIiEEEEE = comdat any

$_ZTSNSt7__debug3setIiSt4lessIiESaIiEEE = comdat any

$_ZTSN11__gnu_debug15_Safe_containerINSt7__debug3setIiSt4lessIiESaIiEEES5_NS_19_Safe_node_sequenceELb1EEE = comdat any

$_ZTSN11__gnu_debug19_Safe_node_sequenceINSt7__debug3setIiSt4lessIiESaIiEEEEE = comdat any

$_ZTSN11__gnu_debug14_Safe_sequenceINSt7__debug3setIiSt4lessIiESaIiEEEEE = comdat any

$_ZTIN11__gnu_debug14_Safe_sequenceINSt7__debug3setIiSt4lessIiESaIiEEEEE = comdat any

$_ZTIN11__gnu_debug19_Safe_node_sequenceINSt7__debug3setIiSt4lessIiESaIiEEEEE = comdat any

$_ZTIN11__gnu_debug15_Safe_containerINSt7__debug3setIiSt4lessIiESaIiEEES5_NS_19_Safe_node_sequenceELb1EEE = comdat any

$_ZTSNSt9__cxx19983setIiSt4lessIiESaIiEEE = comdat any

$_ZTINSt9__cxx19983setIiSt4lessIiESaIiEEE = comdat any

$_ZTINSt7__debug3setIiSt4lessIiESaIiEEE = comdat any

@_ZStL8__ioinit = internal global %"class.std::ios_base::Init" zeroinitializer, align 1
@__dso_handle = external global i8
@.str = private unnamed_addr constant [5 x i8] c"true\00", align 1
@.str.1 = private unnamed_addr constant [6 x i8] c"false\00", align 1
@_ZSt4cerr = external global %"class.std::basic_ostream", align 8
@.str.2 = private unnamed_addr constant [2 x i8] c"\0A\00", align 1
@_ZSt4cout = external global %"class.std::basic_ostream", align 8
@_ZSt3cin = external global %"class.std::basic_istream", align 8
@.str.3 = private unnamed_addr constant [79 x i8] c"/usr/lib/gcc/x86_64-linux-gnu/5.4.0/../../../../include/c++/5.4.0/debug/vector\00", align 1
@.str.4 = private unnamed_addr constant [5 x i8] c"this\00", align 1
@.str.5 = private unnamed_addr constant [4 x i8] c"__n\00", align 1
@.str.6 = private unnamed_addr constant [5 x i8] c"size\00", align 1
@_ZTVN10__cxxabiv121__vmi_class_type_infoE = external global i8*
@_ZTSNSt7__debug6vectorINS0_IiSaIiEEESaIS2_EEE = linkonce_odr constant [42 x i8] c"NSt7__debug6vectorINS0_IiSaIiEEESaIS2_EEE\00", comdat
@_ZTVN10__cxxabiv120__si_class_type_infoE = external global i8*
@_ZTSN11__gnu_debug15_Safe_containerINSt7__debug6vectorINS2_IiSaIiEEESaIS4_EEES5_NS_14_Safe_sequenceELb1EEE = linkonce_odr constant [103 x i8] c"N11__gnu_debug15_Safe_containerINSt7__debug6vectorINS2_IiSaIiEEESaIS4_EEES5_NS_14_Safe_sequenceELb1EEE\00", comdat
@_ZTSN11__gnu_debug14_Safe_sequenceINSt7__debug6vectorINS2_IiSaIiEEESaIS4_EEEEE = linkonce_odr constant [75 x i8] c"N11__gnu_debug14_Safe_sequenceINSt7__debug6vectorINS2_IiSaIiEEESaIS4_EEEEE\00", comdat
@_ZTVN10__cxxabiv117__class_type_infoE = external global i8*
@_ZTSN11__gnu_debug19_Safe_sequence_baseE = linkonce_odr constant [37 x i8] c"N11__gnu_debug19_Safe_sequence_baseE\00", comdat
@_ZTIN11__gnu_debug19_Safe_sequence_baseE = linkonce_odr constant { i8*, i8* } { i8* bitcast (i8** getelementptr inbounds (i8*, i8** @_ZTVN10__cxxabiv117__class_type_infoE, i64 2) to i8*), i8* getelementptr inbounds ([37 x i8], [37 x i8]* @_ZTSN11__gnu_debug19_Safe_sequence_baseE, i32 0, i32 0) }, comdat
@_ZTIN11__gnu_debug14_Safe_sequenceINSt7__debug6vectorINS2_IiSaIiEEESaIS4_EEEEE = linkonce_odr constant { i8*, i8*, i8* } { i8* bitcast (i8** getelementptr inbounds (i8*, i8** @_ZTVN10__cxxabiv120__si_class_type_infoE, i64 2) to i8*), i8* getelementptr inbounds ([75 x i8], [75 x i8]* @_ZTSN11__gnu_debug14_Safe_sequenceINSt7__debug6vectorINS2_IiSaIiEEESaIS4_EEEEE, i32 0, i32 0), i8* bitcast ({ i8*, i8* }* @_ZTIN11__gnu_debug19_Safe_sequence_baseE to i8*) }, comdat
@_ZTIN11__gnu_debug15_Safe_containerINSt7__debug6vectorINS2_IiSaIiEEESaIS4_EEES5_NS_14_Safe_sequenceELb1EEE = linkonce_odr constant { i8*, i8*, i8* } { i8* bitcast (i8** getelementptr inbounds (i8*, i8** @_ZTVN10__cxxabiv120__si_class_type_infoE, i64 2) to i8*), i8* getelementptr inbounds ([103 x i8], [103 x i8]* @_ZTSN11__gnu_debug15_Safe_containerINSt7__debug6vectorINS2_IiSaIiEEESaIS4_EEES5_NS_14_Safe_sequenceELb1EEE, i32 0, i32 0), i8* bitcast ({ i8*, i8*, i8* }* @_ZTIN11__gnu_debug14_Safe_sequenceINSt7__debug6vectorINS2_IiSaIiEEESaIS4_EEEEE to i8*) }, comdat
@_ZTSNSt9__cxx19986vectorINSt7__debug6vectorIiSaIiEEESaIS4_EEE = linkonce_odr constant [58 x i8] c"NSt9__cxx19986vectorINSt7__debug6vectorIiSaIiEEESaIS4_EEE\00", comdat
@_ZTSNSt9__cxx199812_Vector_baseINSt7__debug6vectorIiSaIiEEESaIS4_EEE = linkonce_odr constant [65 x i8] c"NSt9__cxx199812_Vector_baseINSt7__debug6vectorIiSaIiEEESaIS4_EEE\00", comdat
@_ZTINSt9__cxx199812_Vector_baseINSt7__debug6vectorIiSaIiEEESaIS4_EEE = linkonce_odr constant { i8*, i8* } { i8* bitcast (i8** getelementptr inbounds (i8*, i8** @_ZTVN10__cxxabiv117__class_type_infoE, i64 2) to i8*), i8* getelementptr inbounds ([65 x i8], [65 x i8]* @_ZTSNSt9__cxx199812_Vector_baseINSt7__debug6vectorIiSaIiEEESaIS4_EEE, i32 0, i32 0) }, comdat
@_ZTINSt9__cxx19986vectorINSt7__debug6vectorIiSaIiEEESaIS4_EEE = linkonce_odr constant { i8*, i8*, i32, i32, i8*, i64 } { i8* bitcast (i8** getelementptr inbounds (i8*, i8** @_ZTVN10__cxxabiv121__vmi_class_type_infoE, i64 2) to i8*), i8* getelementptr inbounds ([58 x i8], [58 x i8]* @_ZTSNSt9__cxx19986vectorINSt7__debug6vectorIiSaIiEEESaIS4_EEE, i32 0, i32 0), i32 0, i32 1, i8* bitcast ({ i8*, i8* }* @_ZTINSt9__cxx199812_Vector_baseINSt7__debug6vectorIiSaIiEEESaIS4_EEE to i8*), i64 0 }, comdat
@_ZTSN11__gnu_debug12_Safe_vectorINSt7__debug6vectorINS2_IiSaIiEEESaIS4_EEENSt9__cxx19986vectorIS4_S5_EEEE = linkonce_odr constant [102 x i8] c"N11__gnu_debug12_Safe_vectorINSt7__debug6vectorINS2_IiSaIiEEESaIS4_EEENSt9__cxx19986vectorIS4_S5_EEEE\00", comdat
@_ZTIN11__gnu_debug12_Safe_vectorINSt7__debug6vectorINS2_IiSaIiEEESaIS4_EEENSt9__cxx19986vectorIS4_S5_EEEE = linkonce_odr constant { i8*, i8* } { i8* bitcast (i8** getelementptr inbounds (i8*, i8** @_ZTVN10__cxxabiv117__class_type_infoE, i64 2) to i8*), i8* getelementptr inbounds ([102 x i8], [102 x i8]* @_ZTSN11__gnu_debug12_Safe_vectorINSt7__debug6vectorINS2_IiSaIiEEESaIS4_EEENSt9__cxx19986vectorIS4_S5_EEEE, i32 0, i32 0) }, comdat
@_ZTINSt7__debug6vectorINS0_IiSaIiEEESaIS2_EEE = linkonce_odr constant { i8*, i8*, i32, i32, i8*, i64, i8*, i64, i8*, i64 } { i8* bitcast (i8** getelementptr inbounds (i8*, i8** @_ZTVN10__cxxabiv121__vmi_class_type_infoE, i64 2) to i8*), i8* getelementptr inbounds ([42 x i8], [42 x i8]* @_ZTSNSt7__debug6vectorINS0_IiSaIiEEESaIS2_EEE, i32 0, i32 0), i32 0, i32 3, i8* bitcast ({ i8*, i8*, i8* }* @_ZTIN11__gnu_debug15_Safe_containerINSt7__debug6vectorINS2_IiSaIiEEESaIS4_EEES5_NS_14_Safe_sequenceELb1EEE to i8*), i64 2, i8* bitcast ({ i8*, i8*, i32, i32, i8*, i64 }* @_ZTINSt9__cxx19986vectorINSt7__debug6vectorIiSaIiEEESaIS4_EEE to i8*), i64 6146, i8* bitcast ({ i8*, i8* }* @_ZTIN11__gnu_debug12_Safe_vectorINSt7__debug6vectorINS2_IiSaIiEEESaIS4_EEENSt9__cxx19986vectorIS4_S5_EEEE to i8*), i64 12290 }, comdat
@.str.7 = private unnamed_addr constant [28 x i8] c"vector::_M_emplace_back_aux\00", align 1
@.str.8 = private unnamed_addr constant [86 x i8] c"/usr/lib/gcc/x86_64-linux-gnu/5.4.0/../../../../include/c++/5.4.0/bits/stl_algobase.h\00", align 1
@.str.9 = private unnamed_addr constant [8 x i8] c"__first\00", align 1
@.str.10 = private unnamed_addr constant [7 x i8] c"__last\00", align 1
@_ZTSSt13move_iteratorIPiE = linkonce_odr constant [22 x i8] c"St13move_iteratorIPiE\00", comdat
@_ZTISt13move_iteratorIPiE = linkonce_odr constant { i8*, i8* } { i8* bitcast (i8** getelementptr inbounds (i8*, i8** @_ZTVN10__cxxabiv117__class_type_infoE, i64 2) to i8*), i8* getelementptr inbounds ([22 x i8], [22 x i8]* @_ZTSSt13move_iteratorIPiE, i32 0, i32 0) }, comdat
@_ZTSN9__gnu_cxx17__normal_iteratorIPKiNSt9__cxx19986vectorIiSaIiEEEEE = linkonce_odr constant [66 x i8] c"N9__gnu_cxx17__normal_iteratorIPKiNSt9__cxx19986vectorIiSaIiEEEEE\00", comdat
@_ZTIN9__gnu_cxx17__normal_iteratorIPKiNSt9__cxx19986vectorIiSaIiEEEEE = linkonce_odr constant { i8*, i8* } { i8* bitcast (i8** getelementptr inbounds (i8*, i8** @_ZTVN10__cxxabiv117__class_type_infoE, i64 2) to i8*), i8* getelementptr inbounds ([66 x i8], [66 x i8]* @_ZTSN9__gnu_cxx17__normal_iteratorIPKiNSt9__cxx19986vectorIiSaIiEEEEE, i32 0, i32 0) }, comdat
@.str.11 = private unnamed_addr constant [24 x i8] c"basic_string::_M_create\00", align 1
@.str.12 = private unnamed_addr constant [29 x i8] c"basic_string::_M_replace_aux\00", align 1
@.str.13 = private unnamed_addr constant [42 x i8] c"basic_string::_M_construct null not valid\00", align 1
@_ZTSNSt7__debug6vectorIiSaIiEEE = linkonce_odr constant [28 x i8] c"NSt7__debug6vectorIiSaIiEEE\00", comdat
@_ZTSN11__gnu_debug15_Safe_containerINSt7__debug6vectorIiSaIiEEES3_NS_14_Safe_sequenceELb1EEE = linkonce_odr constant [89 x i8] c"N11__gnu_debug15_Safe_containerINSt7__debug6vectorIiSaIiEEES3_NS_14_Safe_sequenceELb1EEE\00", comdat
@_ZTSN11__gnu_debug14_Safe_sequenceINSt7__debug6vectorIiSaIiEEEEE = linkonce_odr constant [61 x i8] c"N11__gnu_debug14_Safe_sequenceINSt7__debug6vectorIiSaIiEEEEE\00", comdat
@_ZTIN11__gnu_debug14_Safe_sequenceINSt7__debug6vectorIiSaIiEEEEE = linkonce_odr constant { i8*, i8*, i8* } { i8* bitcast (i8** getelementptr inbounds (i8*, i8** @_ZTVN10__cxxabiv120__si_class_type_infoE, i64 2) to i8*), i8* getelementptr inbounds ([61 x i8], [61 x i8]* @_ZTSN11__gnu_debug14_Safe_sequenceINSt7__debug6vectorIiSaIiEEEEE, i32 0, i32 0), i8* bitcast ({ i8*, i8* }* @_ZTIN11__gnu_debug19_Safe_sequence_baseE to i8*) }, comdat
@_ZTIN11__gnu_debug15_Safe_containerINSt7__debug6vectorIiSaIiEEES3_NS_14_Safe_sequenceELb1EEE = linkonce_odr constant { i8*, i8*, i8* } { i8* bitcast (i8** getelementptr inbounds (i8*, i8** @_ZTVN10__cxxabiv120__si_class_type_infoE, i64 2) to i8*), i8* getelementptr inbounds ([89 x i8], [89 x i8]* @_ZTSN11__gnu_debug15_Safe_containerINSt7__debug6vectorIiSaIiEEES3_NS_14_Safe_sequenceELb1EEE, i32 0, i32 0), i8* bitcast ({ i8*, i8*, i8* }* @_ZTIN11__gnu_debug14_Safe_sequenceINSt7__debug6vectorIiSaIiEEEEE to i8*) }, comdat
@_ZTSNSt9__cxx19986vectorIiSaIiEEE = linkonce_odr constant [30 x i8] c"NSt9__cxx19986vectorIiSaIiEEE\00", comdat
@_ZTSNSt9__cxx199812_Vector_baseIiSaIiEEE = linkonce_odr constant [37 x i8] c"NSt9__cxx199812_Vector_baseIiSaIiEEE\00", comdat
@_ZTINSt9__cxx199812_Vector_baseIiSaIiEEE = linkonce_odr constant { i8*, i8* } { i8* bitcast (i8** getelementptr inbounds (i8*, i8** @_ZTVN10__cxxabiv117__class_type_infoE, i64 2) to i8*), i8* getelementptr inbounds ([37 x i8], [37 x i8]* @_ZTSNSt9__cxx199812_Vector_baseIiSaIiEEE, i32 0, i32 0) }, comdat
@_ZTINSt9__cxx19986vectorIiSaIiEEE = linkonce_odr constant { i8*, i8*, i32, i32, i8*, i64 } { i8* bitcast (i8** getelementptr inbounds (i8*, i8** @_ZTVN10__cxxabiv121__vmi_class_type_infoE, i64 2) to i8*), i8* getelementptr inbounds ([30 x i8], [30 x i8]* @_ZTSNSt9__cxx19986vectorIiSaIiEEE, i32 0, i32 0), i32 0, i32 1, i8* bitcast ({ i8*, i8* }* @_ZTINSt9__cxx199812_Vector_baseIiSaIiEEE to i8*), i64 0 }, comdat
@_ZTSN11__gnu_debug12_Safe_vectorINSt7__debug6vectorIiSaIiEEENSt9__cxx19986vectorIiS3_EEEE = linkonce_odr constant [86 x i8] c"N11__gnu_debug12_Safe_vectorINSt7__debug6vectorIiSaIiEEENSt9__cxx19986vectorIiS3_EEEE\00", comdat
@_ZTIN11__gnu_debug12_Safe_vectorINSt7__debug6vectorIiSaIiEEENSt9__cxx19986vectorIiS3_EEEE = linkonce_odr constant { i8*, i8* } { i8* bitcast (i8** getelementptr inbounds (i8*, i8** @_ZTVN10__cxxabiv117__class_type_infoE, i64 2) to i8*), i8* getelementptr inbounds ([86 x i8], [86 x i8]* @_ZTSN11__gnu_debug12_Safe_vectorINSt7__debug6vectorIiSaIiEEENSt9__cxx19986vectorIiS3_EEEE, i32 0, i32 0) }, comdat
@_ZTINSt7__debug6vectorIiSaIiEEE = linkonce_odr constant { i8*, i8*, i32, i32, i8*, i64, i8*, i64, i8*, i64 } { i8* bitcast (i8** getelementptr inbounds (i8*, i8** @_ZTVN10__cxxabiv121__vmi_class_type_infoE, i64 2) to i8*), i8* getelementptr inbounds ([28 x i8], [28 x i8]* @_ZTSNSt7__debug6vectorIiSaIiEEE, i32 0, i32 0), i32 0, i32 3, i8* bitcast ({ i8*, i8*, i8* }* @_ZTIN11__gnu_debug15_Safe_containerINSt7__debug6vectorIiSaIiEEES3_NS_14_Safe_sequenceELb1EEE to i8*), i64 2, i8* bitcast ({ i8*, i8*, i32, i32, i8*, i64 }* @_ZTINSt9__cxx19986vectorIiSaIiEEE to i8*), i64 6146, i8* bitcast ({ i8*, i8* }* @_ZTIN11__gnu_debug12_Safe_vectorINSt7__debug6vectorIiSaIiEEENSt9__cxx19986vectorIiS3_EEEE to i8*), i64 12290 }, comdat
@.str.14 = private unnamed_addr constant [88 x i8] c"/usr/lib/gcc/x86_64-linux-gnu/5.4.0/../../../../include/c++/5.4.0/debug/safe_iterator.h\00", align 1
@_ZTSN11__gnu_debug14_Safe_iteratorIN9__gnu_cxx17__normal_iteratorIPNSt7__debug6vectorIiSaIiEEENSt9__cxx19986vectorIS6_SaIS6_EEEEENS4_IS6_SA_EEEE = linkonce_odr constant [141 x i8] c"N11__gnu_debug14_Safe_iteratorIN9__gnu_cxx17__normal_iteratorIPNSt7__debug6vectorIiSaIiEEENSt9__cxx19986vectorIS6_SaIS6_EEEEENS4_IS6_SA_EEEE\00", comdat
@_ZTSN9__gnu_cxx17__normal_iteratorIPNSt7__debug6vectorIiSaIiEEENSt9__cxx19986vectorIS4_SaIS4_EEEEE = linkonce_odr constant [95 x i8] c"N9__gnu_cxx17__normal_iteratorIPNSt7__debug6vectorIiSaIiEEENSt9__cxx19986vectorIS4_SaIS4_EEEEE\00", comdat
@_ZTIN9__gnu_cxx17__normal_iteratorIPNSt7__debug6vectorIiSaIiEEENSt9__cxx19986vectorIS4_SaIS4_EEEEE = linkonce_odr constant { i8*, i8* } { i8* bitcast (i8** getelementptr inbounds (i8*, i8** @_ZTVN10__cxxabiv117__class_type_infoE, i64 2) to i8*), i8* getelementptr inbounds ([95 x i8], [95 x i8]* @_ZTSN9__gnu_cxx17__normal_iteratorIPNSt7__debug6vectorIiSaIiEEENSt9__cxx19986vectorIS4_SaIS4_EEEEE, i32 0, i32 0) }, comdat
@_ZTSN11__gnu_debug19_Safe_iterator_baseE = linkonce_odr constant [37 x i8] c"N11__gnu_debug19_Safe_iterator_baseE\00", comdat
@_ZTIN11__gnu_debug19_Safe_iterator_baseE = linkonce_odr constant { i8*, i8* } { i8* bitcast (i8** getelementptr inbounds (i8*, i8** @_ZTVN10__cxxabiv117__class_type_infoE, i64 2) to i8*), i8* getelementptr inbounds ([37 x i8], [37 x i8]* @_ZTSN11__gnu_debug19_Safe_iterator_baseE, i32 0, i32 0) }, comdat
@_ZTIN11__gnu_debug14_Safe_iteratorIN9__gnu_cxx17__normal_iteratorIPNSt7__debug6vectorIiSaIiEEENSt9__cxx19986vectorIS6_SaIS6_EEEEENS4_IS6_SA_EEEE = linkonce_odr constant { i8*, i8*, i32, i32, i8*, i64, i8*, i64 } { i8* bitcast (i8** getelementptr inbounds (i8*, i8** @_ZTVN10__cxxabiv121__vmi_class_type_infoE, i64 2) to i8*), i8* getelementptr inbounds ([141 x i8], [141 x i8]* @_ZTSN11__gnu_debug14_Safe_iteratorIN9__gnu_cxx17__normal_iteratorIPNSt7__debug6vectorIiSaIiEEENSt9__cxx19986vectorIS6_SaIS6_EEEEENS4_IS6_SA_EEEE, i32 0, i32 0), i32 0, i32 2, i8* bitcast ({ i8*, i8* }* @_ZTIN9__gnu_cxx17__normal_iteratorIPNSt7__debug6vectorIiSaIiEEENSt9__cxx19986vectorIS4_SaIS4_EEEEE to i8*), i64 0, i8* bitcast ({ i8*, i8* }* @_ZTIN11__gnu_debug19_Safe_iterator_baseE to i8*), i64 2050 }, comdat
@.str.15 = private unnamed_addr constant [4 x i8] c"lhs\00", align 1
@.str.16 = private unnamed_addr constant [4 x i8] c"rhs\00", align 1
@_ZZL18__gthread_active_pvE20__gthread_active_ptr = internal constant i8* bitcast (i32 (i32*, void (i8*)*)* @__pthread_key_create to i8*), align 8
@_ZTSN9__gnu_cxx24__concurrence_lock_errorE = linkonce_odr constant [39 x i8] c"N9__gnu_cxx24__concurrence_lock_errorE\00", comdat
@_ZTISt9exception = external constant i8*
@_ZTIN9__gnu_cxx24__concurrence_lock_errorE = linkonce_odr constant { i8*, i8*, i8* } { i8* bitcast (i8** getelementptr inbounds (i8*, i8** @_ZTVN10__cxxabiv120__si_class_type_infoE, i64 2) to i8*), i8* getelementptr inbounds ([39 x i8], [39 x i8]* @_ZTSN9__gnu_cxx24__concurrence_lock_errorE, i32 0, i32 0), i8* bitcast (i8** @_ZTISt9exception to i8*) }, comdat
@_ZTVN9__gnu_cxx24__concurrence_lock_errorE = linkonce_odr unnamed_addr constant { [5 x i8*] } { [5 x i8*] [i8* null, i8* bitcast ({ i8*, i8*, i8* }* @_ZTIN9__gnu_cxx24__concurrence_lock_errorE to i8*), i8* bitcast (void (%"class.__gnu_cxx::__concurrence_lock_error"*)* @_ZN9__gnu_cxx24__concurrence_lock_errorD2Ev to i8*), i8* bitcast (void (%"class.__gnu_cxx::__concurrence_lock_error"*)* @_ZN9__gnu_cxx24__concurrence_lock_errorD0Ev to i8*), i8* bitcast (i8* (%"class.__gnu_cxx::__concurrence_lock_error"*)* @_ZNK9__gnu_cxx24__concurrence_lock_error4whatEv to i8*)] }, comdat, align 8
@_ZTVSt9exception = external unnamed_addr constant { [5 x i8*] }
@.str.17 = private unnamed_addr constant [36 x i8] c"__gnu_cxx::__concurrence_lock_error\00", align 1
@_ZTSN9__gnu_cxx26__concurrence_unlock_errorE = linkonce_odr constant [41 x i8] c"N9__gnu_cxx26__concurrence_unlock_errorE\00", comdat
@_ZTIN9__gnu_cxx26__concurrence_unlock_errorE = linkonce_odr constant { i8*, i8*, i8* } { i8* bitcast (i8** getelementptr inbounds (i8*, i8** @_ZTVN10__cxxabiv120__si_class_type_infoE, i64 2) to i8*), i8* getelementptr inbounds ([41 x i8], [41 x i8]* @_ZTSN9__gnu_cxx26__concurrence_unlock_errorE, i32 0, i32 0), i8* bitcast (i8** @_ZTISt9exception to i8*) }, comdat
@_ZTVN9__gnu_cxx26__concurrence_unlock_errorE = linkonce_odr unnamed_addr constant { [5 x i8*] } { [5 x i8*] [i8* null, i8* bitcast ({ i8*, i8*, i8* }* @_ZTIN9__gnu_cxx26__concurrence_unlock_errorE to i8*), i8* bitcast (void (%"class.__gnu_cxx::__concurrence_unlock_error"*)* @_ZN9__gnu_cxx26__concurrence_unlock_errorD2Ev to i8*), i8* bitcast (void (%"class.__gnu_cxx::__concurrence_unlock_error"*)* @_ZN9__gnu_cxx26__concurrence_unlock_errorD0Ev to i8*), i8* bitcast (i8* (%"class.__gnu_cxx::__concurrence_unlock_error"*)* @_ZNK9__gnu_cxx26__concurrence_unlock_error4whatEv to i8*)] }, comdat, align 8
@.str.18 = private unnamed_addr constant [38 x i8] c"__gnu_cxx::__concurrence_unlock_error\00", align 1
@_ZTSN11__gnu_debug14_Safe_iteratorIN9__gnu_cxx17__normal_iteratorIPiNSt9__cxx19986vectorIiSaIiEEEEENSt7__debug6vectorIiS6_EEEE = linkonce_odr constant [123 x i8] c"N11__gnu_debug14_Safe_iteratorIN9__gnu_cxx17__normal_iteratorIPiNSt9__cxx19986vectorIiSaIiEEEEENSt7__debug6vectorIiS6_EEEE\00", comdat
@_ZTSN9__gnu_cxx17__normal_iteratorIPiNSt9__cxx19986vectorIiSaIiEEEEE = linkonce_odr constant [65 x i8] c"N9__gnu_cxx17__normal_iteratorIPiNSt9__cxx19986vectorIiSaIiEEEEE\00", comdat
@_ZTIN9__gnu_cxx17__normal_iteratorIPiNSt9__cxx19986vectorIiSaIiEEEEE = linkonce_odr constant { i8*, i8* } { i8* bitcast (i8** getelementptr inbounds (i8*, i8** @_ZTVN10__cxxabiv117__class_type_infoE, i64 2) to i8*), i8* getelementptr inbounds ([65 x i8], [65 x i8]* @_ZTSN9__gnu_cxx17__normal_iteratorIPiNSt9__cxx19986vectorIiSaIiEEEEE, i32 0, i32 0) }, comdat
@_ZTIN11__gnu_debug14_Safe_iteratorIN9__gnu_cxx17__normal_iteratorIPiNSt9__cxx19986vectorIiSaIiEEEEENSt7__debug6vectorIiS6_EEEE = linkonce_odr constant { i8*, i8*, i32, i32, i8*, i64, i8*, i64 } { i8* bitcast (i8** getelementptr inbounds (i8*, i8** @_ZTVN10__cxxabiv121__vmi_class_type_infoE, i64 2) to i8*), i8* getelementptr inbounds ([123 x i8], [123 x i8]* @_ZTSN11__gnu_debug14_Safe_iteratorIN9__gnu_cxx17__normal_iteratorIPiNSt9__cxx19986vectorIiSaIiEEEEENSt7__debug6vectorIiS6_EEEE, i32 0, i32 0), i32 0, i32 2, i8* bitcast ({ i8*, i8* }* @_ZTIN9__gnu_cxx17__normal_iteratorIPiNSt9__cxx19986vectorIiSaIiEEEEE to i8*), i64 0, i8* bitcast ({ i8*, i8* }* @_ZTIN11__gnu_debug19_Safe_iterator_baseE to i8*), i64 2050 }, comdat
@_ZTSN11__gnu_debug14_Safe_iteratorISt23_Rb_tree_const_iteratorIiENSt7__debug3setIiSt4lessIiESaIiEEEEE = linkonce_odr constant [98 x i8] c"N11__gnu_debug14_Safe_iteratorISt23_Rb_tree_const_iteratorIiENSt7__debug3setIiSt4lessIiESaIiEEEEE\00", comdat
@_ZTSSt23_Rb_tree_const_iteratorIiE = linkonce_odr constant [31 x i8] c"St23_Rb_tree_const_iteratorIiE\00", comdat
@_ZTISt23_Rb_tree_const_iteratorIiE = linkonce_odr constant { i8*, i8* } { i8* bitcast (i8** getelementptr inbounds (i8*, i8** @_ZTVN10__cxxabiv117__class_type_infoE, i64 2) to i8*), i8* getelementptr inbounds ([31 x i8], [31 x i8]* @_ZTSSt23_Rb_tree_const_iteratorIiE, i32 0, i32 0) }, comdat
@_ZTIN11__gnu_debug14_Safe_iteratorISt23_Rb_tree_const_iteratorIiENSt7__debug3setIiSt4lessIiESaIiEEEEE = linkonce_odr constant { i8*, i8*, i32, i32, i8*, i64, i8*, i64 } { i8* bitcast (i8** getelementptr inbounds (i8*, i8** @_ZTVN10__cxxabiv121__vmi_class_type_infoE, i64 2) to i8*), i8* getelementptr inbounds ([98 x i8], [98 x i8]* @_ZTSN11__gnu_debug14_Safe_iteratorISt23_Rb_tree_const_iteratorIiENSt7__debug3setIiSt4lessIiESaIiEEEEE, i32 0, i32 0), i32 0, i32 2, i8* bitcast ({ i8*, i8* }* @_ZTISt23_Rb_tree_const_iteratorIiE to i8*), i64 0, i8* bitcast ({ i8*, i8* }* @_ZTIN11__gnu_debug19_Safe_iterator_baseE to i8*), i64 2050 }, comdat
@_ZTSNSt7__debug3setIiSt4lessIiESaIiEEE = linkonce_odr constant [35 x i8] c"NSt7__debug3setIiSt4lessIiESaIiEEE\00", comdat
@_ZTSN11__gnu_debug15_Safe_containerINSt7__debug3setIiSt4lessIiESaIiEEES5_NS_19_Safe_node_sequenceELb1EEE = linkonce_odr constant [101 x i8] c"N11__gnu_debug15_Safe_containerINSt7__debug3setIiSt4lessIiESaIiEEES5_NS_19_Safe_node_sequenceELb1EEE\00", comdat
@_ZTSN11__gnu_debug19_Safe_node_sequenceINSt7__debug3setIiSt4lessIiESaIiEEEEE = linkonce_odr constant [73 x i8] c"N11__gnu_debug19_Safe_node_sequenceINSt7__debug3setIiSt4lessIiESaIiEEEEE\00", comdat
@_ZTSN11__gnu_debug14_Safe_sequenceINSt7__debug3setIiSt4lessIiESaIiEEEEE = linkonce_odr constant [68 x i8] c"N11__gnu_debug14_Safe_sequenceINSt7__debug3setIiSt4lessIiESaIiEEEEE\00", comdat
@_ZTIN11__gnu_debug14_Safe_sequenceINSt7__debug3setIiSt4lessIiESaIiEEEEE = linkonce_odr constant { i8*, i8*, i8* } { i8* bitcast (i8** getelementptr inbounds (i8*, i8** @_ZTVN10__cxxabiv120__si_class_type_infoE, i64 2) to i8*), i8* getelementptr inbounds ([68 x i8], [68 x i8]* @_ZTSN11__gnu_debug14_Safe_sequenceINSt7__debug3setIiSt4lessIiESaIiEEEEE, i32 0, i32 0), i8* bitcast ({ i8*, i8* }* @_ZTIN11__gnu_debug19_Safe_sequence_baseE to i8*) }, comdat
@_ZTIN11__gnu_debug19_Safe_node_sequenceINSt7__debug3setIiSt4lessIiESaIiEEEEE = linkonce_odr constant { i8*, i8*, i8* } { i8* bitcast (i8** getelementptr inbounds (i8*, i8** @_ZTVN10__cxxabiv120__si_class_type_infoE, i64 2) to i8*), i8* getelementptr inbounds ([73 x i8], [73 x i8]* @_ZTSN11__gnu_debug19_Safe_node_sequenceINSt7__debug3setIiSt4lessIiESaIiEEEEE, i32 0, i32 0), i8* bitcast ({ i8*, i8*, i8* }* @_ZTIN11__gnu_debug14_Safe_sequenceINSt7__debug3setIiSt4lessIiESaIiEEEEE to i8*) }, comdat
@_ZTIN11__gnu_debug15_Safe_containerINSt7__debug3setIiSt4lessIiESaIiEEES5_NS_19_Safe_node_sequenceELb1EEE = linkonce_odr constant { i8*, i8*, i8* } { i8* bitcast (i8** getelementptr inbounds (i8*, i8** @_ZTVN10__cxxabiv120__si_class_type_infoE, i64 2) to i8*), i8* getelementptr inbounds ([101 x i8], [101 x i8]* @_ZTSN11__gnu_debug15_Safe_containerINSt7__debug3setIiSt4lessIiESaIiEEES5_NS_19_Safe_node_sequenceELb1EEE, i32 0, i32 0), i8* bitcast ({ i8*, i8*, i8* }* @_ZTIN11__gnu_debug19_Safe_node_sequenceINSt7__debug3setIiSt4lessIiESaIiEEEEE to i8*) }, comdat
@_ZTSNSt9__cxx19983setIiSt4lessIiESaIiEEE = linkonce_odr constant [37 x i8] c"NSt9__cxx19983setIiSt4lessIiESaIiEEE\00", comdat
@_ZTINSt9__cxx19983setIiSt4lessIiESaIiEEE = linkonce_odr constant { i8*, i8* } { i8* bitcast (i8** getelementptr inbounds (i8*, i8** @_ZTVN10__cxxabiv117__class_type_infoE, i64 2) to i8*), i8* getelementptr inbounds ([37 x i8], [37 x i8]* @_ZTSNSt9__cxx19983setIiSt4lessIiESaIiEEE, i32 0, i32 0) }, comdat
@_ZTINSt7__debug3setIiSt4lessIiESaIiEEE = linkonce_odr constant { i8*, i8*, i32, i32, i8*, i64, i8*, i64 } { i8* bitcast (i8** getelementptr inbounds (i8*, i8** @_ZTVN10__cxxabiv121__vmi_class_type_infoE, i64 2) to i8*), i8* getelementptr inbounds ([35 x i8], [35 x i8]* @_ZTSNSt7__debug3setIiSt4lessIiESaIiEEE, i32 0, i32 0), i32 0, i32 2, i8* bitcast ({ i8*, i8*, i8* }* @_ZTIN11__gnu_debug15_Safe_containerINSt7__debug3setIiSt4lessIiESaIiEEES5_NS_19_Safe_node_sequenceELb1EEE to i8*), i64 2, i8* bitcast ({ i8*, i8* }* @_ZTINSt9__cxx19983setIiSt4lessIiESaIiEEE to i8*), i64 6146 }, comdat
@.str.19 = private unnamed_addr constant [6 x i8] c"other\00", align 1
@llvm.global_ctors = appending global [1 x { i32, void ()*, i8* }] [{ i32, void ()*, i8* } { i32 65535, void ()* @_GLOBAL__sub_I_s596957618.cpp, i8* null }]
@x = common global i32 0
@y = common global i32 0
@x.20 = common global i32 0
@y.21 = common global i32 0
@x.22 = common global i32 0
@y.23 = common global i32 0
@x.24 = common global i32 0
@y.25 = common global i32 0
@x.26 = common global i32 0
@y.27 = common global i32 0
@x.28 = common global i32 0
@y.29 = common global i32 0
@x.30 = common global i32 0
@y.31 = common global i32 0
@x.32 = common global i32 0
@y.33 = common global i32 0
@x.34 = common global i32 0
@y.35 = common global i32 0
@x.36 = common global i32 0
@y.37 = common global i32 0
@x.38 = common global i32 0
@y.39 = common global i32 0
@x.40 = common global i32 0
@y.41 = common global i32 0
@x.42 = common global i32 0
@y.43 = common global i32 0
@x.44 = common global i32 0
@y.45 = common global i32 0
@x.46 = common global i32 0
@y.47 = common global i32 0
@x.48 = common global i32 0
@y.49 = common global i32 0
@x.50 = common global i32 0
@y.51 = common global i32 0
@x.52 = common global i32 0
@y.53 = common global i32 0
@x.54 = common global i32 0
@y.55 = common global i32 0
@x.56 = common global i32 0
@y.57 = common global i32 0
@x.58 = common global i32 0
@y.59 = common global i32 0
@x.60 = common global i32 0
@y.61 = common global i32 0
@x.62 = common global i32 0
@y.63 = common global i32 0
@x.64 = common global i32 0
@y.65 = common global i32 0
@x.66 = common global i32 0
@y.67 = common global i32 0
@x.68 = common global i32 0
@y.69 = common global i32 0
@x.70 = common global i32 0
@y.71 = common global i32 0
@x.72 = common global i32 0
@y.73 = common global i32 0
@x.74 = common global i32 0
@y.75 = common global i32 0
@x.76 = common global i32 0
@y.77 = common global i32 0
@x.78 = common global i32 0
@y.79 = common global i32 0
@x.80 = common global i32 0
@y.81 = common global i32 0
@x.82 = common global i32 0
@y.83 = common global i32 0
@x.84 = common global i32 0
@y.85 = common global i32 0
@x.86 = common global i32 0
@y.87 = common global i32 0
@x.88 = common global i32 0
@y.89 = common global i32 0
@x.90 = common global i32 0
@y.91 = common global i32 0
@x.92 = common global i32 0
@y.93 = common global i32 0
@x.94 = common global i32 0
@y.95 = common global i32 0
@x.96 = common global i32 0
@y.97 = common global i32 0
@x.98 = common global i32 0
@y.99 = common global i32 0
@x.100 = common global i32 0
@y.101 = common global i32 0
@x.102 = common global i32 0
@y.103 = common global i32 0
@x.104 = common global i32 0
@y.105 = common global i32 0
@x.106 = common global i32 0
@y.107 = common global i32 0
@x.108 = common global i32 0
@y.109 = common global i32 0
@x.110 = common global i32 0
@y.111 = common global i32 0
@x.112 = common global i32 0
@y.113 = common global i32 0
@x.114 = common global i32 0
@y.115 = common global i32 0
@x.116 = common global i32 0
@y.117 = common global i32 0
@x.118 = common global i32 0
@y.119 = common global i32 0
@x.120 = common global i32 0
@y.121 = common global i32 0
@x.122 = common global i32 0
@y.123 = common global i32 0
@x.124 = common global i32 0
@y.125 = common global i32 0
@x.126 = common global i32 0
@y.127 = common global i32 0
@x.128 = common global i32 0
@y.129 = common global i32 0
@x.130 = common global i32 0
@y.131 = common global i32 0
@x.132 = common global i32 0
@y.133 = common global i32 0
@x.134 = common global i32 0
@y.135 = common global i32 0
@x.136 = common global i32 0
@y.137 = common global i32 0
@x.138 = common global i32 0
@y.139 = common global i32 0
@x.140 = common global i32 0
@y.141 = common global i32 0
@x.142 = common global i32 0
@y.143 = common global i32 0
@x.144 = common global i32 0
@y.145 = common global i32 0
@x.146 = common global i32 0
@y.147 = common global i32 0
@x.148 = common global i32 0
@y.149 = common global i32 0
@x.150 = common global i32 0
@y.151 = common global i32 0
@x.152 = common global i32 0
@y.153 = common global i32 0
@x.154 = common global i32 0
@y.155 = common global i32 0
@x.156 = common global i32 0
@y.157 = common global i32 0
@x.158 = common global i32 0
@y.159 = common global i32 0
@x.160 = common global i32 0
@y.161 = common global i32 0
@x.162 = common global i32 0
@y.163 = common global i32 0
@x.164 = common global i32 0
@y.165 = common global i32 0
@x.166 = common global i32 0
@y.167 = common global i32 0
@x.168 = common global i32 0
@y.169 = common global i32 0
@x.170 = common global i32 0
@y.171 = common global i32 0
@x.172 = common global i32 0
@y.173 = common global i32 0
@x.174 = common global i32 0
@y.175 = common global i32 0
@x.176 = common global i32 0
@y.177 = common global i32 0
@x.178 = common global i32 0
@y.179 = common global i32 0
@x.180 = common global i32 0
@y.181 = common global i32 0
@x.182 = common global i32 0
@y.183 = common global i32 0
@x.184 = common global i32 0
@y.185 = common global i32 0
@x.186 = common global i32 0
@y.187 = common global i32 0
@x.188 = common global i32 0
@y.189 = common global i32 0
@x.190 = common global i32 0
@y.191 = common global i32 0
@x.192 = common global i32 0
@y.193 = common global i32 0
@x.194 = common global i32 0
@y.195 = common global i32 0
@x.196 = common global i32 0
@y.197 = common global i32 0
@x.198 = common global i32 0
@y.199 = common global i32 0
@x.200 = common global i32 0
@y.201 = common global i32 0
@x.202 = common global i32 0
@y.203 = common global i32 0
@x.204 = common global i32 0
@y.205 = common global i32 0
@x.206 = common global i32 0
@y.207 = common global i32 0
@x.208 = common global i32 0
@y.209 = common global i32 0
@x.210 = common global i32 0
@y.211 = common global i32 0
@x.212 = common global i32 0
@y.213 = common global i32 0
@x.214 = common global i32 0
@y.215 = common global i32 0
@x.216 = common global i32 0
@y.217 = common global i32 0
@x.218 = common global i32 0
@y.219 = common global i32 0
@x.220 = common global i32 0
@y.221 = common global i32 0
@x.222 = common global i32 0
@y.223 = common global i32 0
@x.224 = common global i32 0
@y.225 = common global i32 0
@x.226 = common global i32 0
@y.227 = common global i32 0
@x.228 = common global i32 0
@y.229 = common global i32 0
@x.230 = common global i32 0
@y.231 = common global i32 0
@x.232 = common global i32 0
@y.233 = common global i32 0
@x.234 = common global i32 0
@y.235 = common global i32 0
@x.236 = common global i32 0
@y.237 = common global i32 0
@x.238 = common global i32 0
@y.239 = common global i32 0
@x.240 = common global i32 0
@y.241 = common global i32 0
@x.242 = common global i32 0
@y.243 = common global i32 0
@x.244 = common global i32 0
@y.245 = common global i32 0
@x.246 = common global i32 0
@y.247 = common global i32 0
@x.248 = common global i32 0
@y.249 = common global i32 0
@x.250 = common global i32 0
@y.251 = common global i32 0
@x.252 = common global i32 0
@y.253 = common global i32 0
@x.254 = common global i32 0
@y.255 = common global i32 0
@x.256 = common global i32 0
@y.257 = common global i32 0
@x.258 = common global i32 0
@y.259 = common global i32 0
@x.260 = common global i32 0
@y.261 = common global i32 0
@x.262 = common global i32 0
@y.263 = common global i32 0
@x.264 = common global i32 0
@y.265 = common global i32 0
@x.266 = common global i32 0
@y.267 = common global i32 0
@x.268 = common global i32 0
@y.269 = common global i32 0
@x.270 = common global i32 0
@y.271 = common global i32 0
@x.272 = common global i32 0
@y.273 = common global i32 0
@x.274 = common global i32 0
@y.275 = common global i32 0
@x.276 = common global i32 0
@y.277 = common global i32 0
@x.278 = common global i32 0
@y.279 = common global i32 0
@x.280 = common global i32 0
@y.281 = common global i32 0
@x.282 = common global i32 0
@y.283 = common global i32 0
@x.284 = common global i32 0
@y.285 = common global i32 0
@x.286 = common global i32 0
@y.287 = common global i32 0
@x.288 = common global i32 0
@y.289 = common global i32 0
@x.290 = common global i32 0
@y.291 = common global i32 0
@x.292 = common global i32 0
@y.293 = common global i32 0
@x.294 = common global i32 0
@y.295 = common global i32 0
@x.296 = common global i32 0
@y.297 = common global i32 0
@x.298 = common global i32 0
@y.299 = common global i32 0
@x.300 = common global i32 0
@y.301 = common global i32 0
@x.302 = common global i32 0
@y.303 = common global i32 0
@x.304 = common global i32 0
@y.305 = common global i32 0
@x.306 = common global i32 0
@y.307 = common global i32 0
@x.308 = common global i32 0
@y.309 = common global i32 0
@x.310 = common global i32 0
@y.311 = common global i32 0
@x.312 = common global i32 0
@y.313 = common global i32 0
@x.314 = common global i32 0
@y.315 = common global i32 0
@x.316 = common global i32 0
@y.317 = common global i32 0
@x.318 = common global i32 0
@y.319 = common global i32 0
@x.320 = common global i32 0
@y.321 = common global i32 0
@x.322 = common global i32 0
@y.323 = common global i32 0
@x.324 = common global i32 0
@y.325 = common global i32 0
@x.326 = common global i32 0
@y.327 = common global i32 0
@x.328 = common global i32 0
@y.329 = common global i32 0
@x.330 = common global i32 0
@y.331 = common global i32 0
@x.332 = common global i32 0
@y.333 = common global i32 0
@x.334 = common global i32 0
@y.335 = common global i32 0
@x.336 = common global i32 0
@y.337 = common global i32 0
@x.338 = common global i32 0
@y.339 = common global i32 0
@x.340 = common global i32 0
@y.341 = common global i32 0
@x.342 = common global i32 0
@y.343 = common global i32 0
@x.344 = common global i32 0
@y.345 = common global i32 0
@x.346 = common global i32 0
@y.347 = common global i32 0
@x.348 = common global i32 0
@y.349 = common global i32 0
@x.350 = common global i32 0
@y.351 = common global i32 0
@x.352 = common global i32 0
@y.353 = common global i32 0
@x.354 = common global i32 0
@y.355 = common global i32 0
@x.356 = common global i32 0
@y.357 = common global i32 0
@x.358 = common global i32 0
@y.359 = common global i32 0
@x.360 = common global i32 0
@y.361 = common global i32 0
@x.362 = common global i32 0
@y.363 = common global i32 0
@x.364 = common global i32 0
@y.365 = common global i32 0
@x.366 = common global i32 0
@y.367 = common global i32 0
@x.368 = common global i32 0
@y.369 = common global i32 0
@x.370 = common global i32 0
@y.371 = common global i32 0
@x.372 = common global i32 0
@y.373 = common global i32 0
@x.374 = common global i32 0
@y.375 = common global i32 0
@x.376 = common global i32 0
@y.377 = common global i32 0
@x.378 = common global i32 0
@y.379 = common global i32 0
@x.380 = common global i32 0
@y.381 = common global i32 0
@x.382 = common global i32 0
@y.383 = common global i32 0
@x.384 = common global i32 0
@y.385 = common global i32 0
@x.386 = common global i32 0
@y.387 = common global i32 0
@x.388 = common global i32 0
@y.389 = common global i32 0
@x.390 = common global i32 0
@y.391 = common global i32 0
@x.392 = common global i32 0
@y.393 = common global i32 0
@x.394 = common global i32 0
@y.395 = common global i32 0
@x.396 = common global i32 0
@y.397 = common global i32 0
@x.398 = common global i32 0
@y.399 = common global i32 0
@x.400 = common global i32 0
@y.401 = common global i32 0
@x.402 = common global i32 0
@y.403 = common global i32 0
@x.404 = common global i32 0
@y.405 = common global i32 0
@x.406 = common global i32 0
@y.407 = common global i32 0
@x.408 = common global i32 0
@y.409 = common global i32 0
@x.410 = common global i32 0
@y.411 = common global i32 0
@x.412 = common global i32 0
@y.413 = common global i32 0
@x.414 = common global i32 0
@y.415 = common global i32 0
@x.416 = common global i32 0
@y.417 = common global i32 0
@x.418 = common global i32 0
@y.419 = common global i32 0
@x.420 = common global i32 0
@y.421 = common global i32 0
@x.422 = common global i32 0
@y.423 = common global i32 0
@x.424 = common global i32 0
@y.425 = common global i32 0
@x.426 = common global i32 0
@y.427 = common global i32 0
@x.428 = common global i32 0
@y.429 = common global i32 0
@x.430 = common global i32 0
@y.431 = common global i32 0
@x.432 = common global i32 0
@y.433 = common global i32 0
@x.434 = common global i32 0
@y.435 = common global i32 0
@x.436 = common global i32 0
@y.437 = common global i32 0
@x.438 = common global i32 0
@y.439 = common global i32 0
@x.440 = common global i32 0
@y.441 = common global i32 0
@x.442 = common global i32 0
@y.443 = common global i32 0
@x.444 = common global i32 0
@y.445 = common global i32 0
@x.446 = common global i32 0
@y.447 = common global i32 0
@x.448 = common global i32 0
@y.449 = common global i32 0
@x.450 = common global i32 0
@y.451 = common global i32 0
@x.452 = common global i32 0
@y.453 = common global i32 0
@x.454 = common global i32 0
@y.455 = common global i32 0
@x.456 = common global i32 0
@y.457 = common global i32 0
@x.458 = common global i32 0
@y.459 = common global i32 0
@x.460 = common global i32 0
@y.461 = common global i32 0
@x.462 = common global i32 0
@y.463 = common global i32 0
@x.464 = common global i32 0
@y.465 = common global i32 0
@x.466 = common global i32 0
@y.467 = common global i32 0
@x.468 = common global i32 0
@y.469 = common global i32 0
@x.470 = common global i32 0
@y.471 = common global i32 0
@x.472 = common global i32 0
@y.473 = common global i32 0
@x.474 = common global i32 0
@y.475 = common global i32 0
@x.476 = common global i32 0
@y.477 = common global i32 0
@x.478 = common global i32 0
@y.479 = common global i32 0
@x.480 = common global i32 0
@y.481 = common global i32 0
@x.482 = common global i32 0
@y.483 = common global i32 0
@x.484 = common global i32 0
@y.485 = common global i32 0
@x.486 = common global i32 0
@y.487 = common global i32 0
@x.488 = common global i32 0
@y.489 = common global i32 0
@x.490 = common global i32 0
@y.491 = common global i32 0
@x.492 = common global i32 0
@y.493 = common global i32 0
@x.494 = common global i32 0
@y.495 = common global i32 0
@x.496 = common global i32 0
@y.497 = common global i32 0
@x.498 = common global i32 0
@y.499 = common global i32 0
@x.500 = common global i32 0
@y.501 = common global i32 0
@x.502 = common global i32 0
@y.503 = common global i32 0
@x.504 = common global i32 0
@y.505 = common global i32 0
@x.506 = common global i32 0
@y.507 = common global i32 0
@x.508 = common global i32 0
@y.509 = common global i32 0
@x.510 = common global i32 0
@y.511 = common global i32 0
@x.512 = common global i32 0
@y.513 = common global i32 0
@x.514 = common global i32 0
@y.515 = common global i32 0
@x.516 = common global i32 0
@y.517 = common global i32 0
@x.518 = common global i32 0
@y.519 = common global i32 0
@x.520 = common global i32 0
@y.521 = common global i32 0
@x.522 = common global i32 0
@y.523 = common global i32 0
@x.524 = common global i32 0
@y.525 = common global i32 0
@x.526 = common global i32 0
@y.527 = common global i32 0
@x.528 = common global i32 0
@y.529 = common global i32 0
@x.530 = common global i32 0
@y.531 = common global i32 0
@x.532 = common global i32 0
@y.533 = common global i32 0
@x.534 = common global i32 0
@y.535 = common global i32 0
@x.536 = common global i32 0
@y.537 = common global i32 0
@x.538 = common global i32 0
@y.539 = common global i32 0
@x.540 = common global i32 0
@y.541 = common global i32 0
@x.542 = common global i32 0
@y.543 = common global i32 0
@x.544 = common global i32 0
@y.545 = common global i32 0
@x.546 = common global i32 0
@y.547 = common global i32 0
@x.548 = common global i32 0
@y.549 = common global i32 0
@x.550 = common global i32 0
@y.551 = common global i32 0
@x.552 = common global i32 0
@y.553 = common global i32 0
@x.554 = common global i32 0
@y.555 = common global i32 0
@x.556 = common global i32 0
@y.557 = common global i32 0
@x.558 = common global i32 0
@y.559 = common global i32 0
@x.560 = common global i32 0
@y.561 = common global i32 0
@x.562 = common global i32 0
@y.563 = common global i32 0
@x.564 = common global i32 0
@y.565 = common global i32 0
@x.566 = common global i32 0
@y.567 = common global i32 0
@x.568 = common global i32 0
@y.569 = common global i32 0
@x.570 = common global i32 0
@y.571 = common global i32 0
@x.572 = common global i32 0
@y.573 = common global i32 0
@x.574 = common global i32 0
@y.575 = common global i32 0
@x.576 = common global i32 0
@y.577 = common global i32 0
@x.578 = common global i32 0
@y.579 = common global i32 0
@x.580 = common global i32 0
@y.581 = common global i32 0
@x.582 = common global i32 0
@y.583 = common global i32 0
@x.584 = common global i32 0
@y.585 = common global i32 0
@x.586 = common global i32 0
@y.587 = common global i32 0
@x.588 = common global i32 0
@y.589 = common global i32 0
@x.590 = common global i32 0
@y.591 = common global i32 0
@x.592 = common global i32 0
@y.593 = common global i32 0
@x.594 = common global i32 0
@y.595 = common global i32 0
@x.596 = common global i32 0
@y.597 = common global i32 0
@x.598 = common global i32 0
@y.599 = common global i32 0
@x.600 = common global i32 0
@y.601 = common global i32 0
@x.602 = common global i32 0
@y.603 = common global i32 0
@x.604 = common global i32 0
@y.605 = common global i32 0
@x.606 = common global i32 0
@y.607 = common global i32 0
@x.608 = common global i32 0
@y.609 = common global i32 0
@x.610 = common global i32 0
@y.611 = common global i32 0
@x.612 = common global i32 0
@y.613 = common global i32 0
@x.614 = common global i32 0
@y.615 = common global i32 0
@x.616 = common global i32 0
@y.617 = common global i32 0
@x.618 = common global i32 0
@y.619 = common global i32 0
@x.620 = common global i32 0
@y.621 = common global i32 0
@x.622 = common global i32 0
@y.623 = common global i32 0
@x.624 = common global i32 0
@y.625 = common global i32 0
@x.626 = common global i32 0
@y.627 = common global i32 0
@x.628 = common global i32 0
@y.629 = common global i32 0
@x.630 = common global i32 0
@y.631 = common global i32 0
@x.632 = common global i32 0
@y.633 = common global i32 0
@x.634 = common global i32 0
@y.635 = common global i32 0
@x.636 = common global i32 0
@y.637 = common global i32 0
@x.638 = common global i32 0
@y.639 = common global i32 0
@x.640 = common global i32 0
@y.641 = common global i32 0
@x.642 = common global i32 0
@y.643 = common global i32 0
@x.644 = common global i32 0
@y.645 = common global i32 0
@x.646 = common global i32 0
@y.647 = common global i32 0
@x.648 = common global i32 0
@y.649 = common global i32 0
@x.650 = common global i32 0
@y.651 = common global i32 0
@x.652 = common global i32 0
@y.653 = common global i32 0
@x.654 = common global i32 0
@y.655 = common global i32 0
@x.656 = common global i32 0
@y.657 = common global i32 0
@x.658 = common global i32 0
@y.659 = common global i32 0
@x.660 = common global i32 0
@y.661 = common global i32 0
@x.662 = common global i32 0
@y.663 = common global i32 0
@x.664 = common global i32 0
@y.665 = common global i32 0
@x.666 = common global i32 0
@y.667 = common global i32 0
@x.668 = common global i32 0
@y.669 = common global i32 0
@x.670 = common global i32 0
@y.671 = common global i32 0
@x.672 = common global i32 0
@y.673 = common global i32 0
@x.674 = common global i32 0
@y.675 = common global i32 0
@x.676 = common global i32 0
@y.677 = common global i32 0
@x.678 = common global i32 0
@y.679 = common global i32 0
@x.680 = common global i32 0
@y.681 = common global i32 0
@x.682 = common global i32 0
@y.683 = common global i32 0
@x.684 = common global i32 0
@y.685 = common global i32 0
@x.686 = common global i32 0
@y.687 = common global i32 0
@x.688 = common global i32 0
@y.689 = common global i32 0
@x.690 = common global i32 0
@y.691 = common global i32 0
@x.692 = common global i32 0
@y.693 = common global i32 0
@x.694 = common global i32 0
@y.695 = common global i32 0
@x.696 = common global i32 0
@y.697 = common global i32 0
@x.698 = common global i32 0
@y.699 = common global i32 0
@x.700 = common global i32 0
@y.701 = common global i32 0
@x.702 = common global i32 0
@y.703 = common global i32 0
@x.704 = common global i32 0
@y.705 = common global i32 0
@x.706 = common global i32 0
@y.707 = common global i32 0
@x.708 = common global i32 0
@y.709 = common global i32 0
@x.710 = common global i32 0
@y.711 = common global i32 0
@x.712 = common global i32 0
@y.713 = common global i32 0
@x.714 = common global i32 0
@y.715 = common global i32 0
@x.716 = common global i32 0
@y.717 = common global i32 0
@x.718 = common global i32 0
@y.719 = common global i32 0
@x.720 = common global i32 0
@y.721 = common global i32 0
@x.722 = common global i32 0
@y.723 = common global i32 0
@x.724 = common global i32 0
@y.725 = common global i32 0
@x.726 = common global i32 0
@y.727 = common global i32 0
@x.728 = common global i32 0
@y.729 = common global i32 0
@x.730 = common global i32 0
@y.731 = common global i32 0
@x.732 = common global i32 0
@y.733 = common global i32 0
@x.734 = common global i32 0
@y.735 = common global i32 0
@x.736 = common global i32 0
@y.737 = common global i32 0
@x.738 = common global i32 0
@y.739 = common global i32 0
@x.740 = common global i32 0
@y.741 = common global i32 0
@x.742 = common global i32 0
@y.743 = common global i32 0
@x.744 = common global i32 0
@y.745 = common global i32 0
@x.746 = common global i32 0
@y.747 = common global i32 0
@x.748 = common global i32 0
@y.749 = common global i32 0
@x.750 = common global i32 0
@y.751 = common global i32 0
@x.752 = common global i32 0
@y.753 = common global i32 0
@x.754 = common global i32 0
@y.755 = common global i32 0
@x.756 = common global i32 0
@y.757 = common global i32 0
@x.758 = common global i32 0
@y.759 = common global i32 0
@x.760 = common global i32 0
@y.761 = common global i32 0
@x.762 = common global i32 0
@y.763 = common global i32 0
@x.764 = common global i32 0
@y.765 = common global i32 0
@x.766 = common global i32 0
@y.767 = common global i32 0
@x.768 = common global i32 0
@y.769 = common global i32 0
@x.770 = common global i32 0
@y.771 = common global i32 0
@x.772 = common global i32 0
@y.773 = common global i32 0
@x.774 = common global i32 0
@y.775 = common global i32 0
@x.776 = common global i32 0
@y.777 = common global i32 0
@x.778 = common global i32 0
@y.779 = common global i32 0
@x.780 = common global i32 0
@y.781 = common global i32 0
@x.782 = common global i32 0
@y.783 = common global i32 0
@x.784 = common global i32 0
@y.785 = common global i32 0
@x.786 = common global i32 0
@y.787 = common global i32 0
@x.788 = common global i32 0
@y.789 = common global i32 0
@x.790 = common global i32 0
@y.791 = common global i32 0
@x.792 = common global i32 0
@y.793 = common global i32 0
@x.794 = common global i32 0
@y.795 = common global i32 0
@x.796 = common global i32 0
@y.797 = common global i32 0
@x.798 = common global i32 0
@y.799 = common global i32 0
@x.800 = common global i32 0
@y.801 = common global i32 0
@x.802 = common global i32 0
@y.803 = common global i32 0
@x.804 = common global i32 0
@y.805 = common global i32 0
@x.806 = common global i32 0
@y.807 = common global i32 0
@x.808 = common global i32 0
@y.809 = common global i32 0
@x.810 = common global i32 0
@y.811 = common global i32 0
@x.812 = common global i32 0
@y.813 = common global i32 0
@x.814 = common global i32 0
@y.815 = common global i32 0
@x.816 = common global i32 0
@y.817 = common global i32 0
@x.818 = common global i32 0
@y.819 = common global i32 0
@x.820 = common global i32 0
@y.821 = common global i32 0
@x.822 = common global i32 0
@y.823 = common global i32 0
@x.824 = common global i32 0
@y.825 = common global i32 0
@x.826 = common global i32 0
@y.827 = common global i32 0
@x.828 = common global i32 0
@y.829 = common global i32 0
@x.830 = common global i32 0
@y.831 = common global i32 0
@x.832 = common global i32 0
@y.833 = common global i32 0
@x.834 = common global i32 0
@y.835 = common global i32 0
@x.836 = common global i32 0
@y.837 = common global i32 0
@x.838 = common global i32 0
@y.839 = common global i32 0
@x.840 = common global i32 0
@y.841 = common global i32 0
@x.842 = common global i32 0
@y.843 = common global i32 0
@x.844 = common global i32 0
@y.845 = common global i32 0
@x.846 = common global i32 0
@y.847 = common global i32 0
@x.848 = common global i32 0
@y.849 = common global i32 0
@x.850 = common global i32 0
@y.851 = common global i32 0
@x.852 = common global i32 0
@y.853 = common global i32 0
@x.854 = common global i32 0
@y.855 = common global i32 0
@x.856 = common global i32 0
@y.857 = common global i32 0
@x.858 = common global i32 0
@y.859 = common global i32 0
@x.860 = common global i32 0
@y.861 = common global i32 0
@x.862 = common global i32 0
@y.863 = common global i32 0
@x.864 = common global i32 0
@y.865 = common global i32 0
@x.866 = common global i32 0
@y.867 = common global i32 0
@x.868 = common global i32 0
@y.869 = common global i32 0
@x.870 = common global i32 0
@y.871 = common global i32 0
@x.872 = common global i32 0
@y.873 = common global i32 0
@x.874 = common global i32 0
@y.875 = common global i32 0
@x.876 = common global i32 0
@y.877 = common global i32 0
@x.878 = common global i32 0
@y.879 = common global i32 0
@x.880 = common global i32 0
@y.881 = common global i32 0
@x.882 = common global i32 0
@y.883 = common global i32 0
@x.884 = common global i32 0
@y.885 = common global i32 0
@x.886 = common global i32 0
@y.887 = common global i32 0
@x.888 = common global i32 0
@y.889 = common global i32 0
@x.890 = common global i32 0
@y.891 = common global i32 0
@x.892 = common global i32 0
@y.893 = common global i32 0
@x.894 = common global i32 0
@y.895 = common global i32 0
@x.896 = common global i32 0
@y.897 = common global i32 0
@x.898 = common global i32 0
@y.899 = common global i32 0
@x.900 = common global i32 0
@y.901 = common global i32 0
@x.902 = common global i32 0
@y.903 = common global i32 0
@x.904 = common global i32 0
@y.905 = common global i32 0
@x.906 = common global i32 0
@y.907 = common global i32 0
@x.908 = common global i32 0
@y.909 = common global i32 0
@x.910 = common global i32 0
@y.911 = common global i32 0
@x.912 = common global i32 0
@y.913 = common global i32 0
@x.914 = common global i32 0
@y.915 = common global i32 0
@x.916 = common global i32 0
@y.917 = common global i32 0
@x.918 = common global i32 0
@y.919 = common global i32 0
@x.920 = common global i32 0
@y.921 = common global i32 0
@x.922 = common global i32 0
@y.923 = common global i32 0
@x.924 = common global i32 0
@y.925 = common global i32 0
@x.926 = common global i32 0
@y.927 = common global i32 0
@x.928 = common global i32 0
@y.929 = common global i32 0
@x.930 = common global i32 0
@y.931 = common global i32 0
@x.932 = common global i32 0
@y.933 = common global i32 0
@x.934 = common global i32 0
@y.935 = common global i32 0
@x.936 = common global i32 0
@y.937 = common global i32 0
@x.938 = common global i32 0
@y.939 = common global i32 0
@x.940 = common global i32 0
@y.941 = common global i32 0
@x.942 = common global i32 0
@y.943 = common global i32 0
@x.944 = common global i32 0
@y.945 = common global i32 0
@x.946 = common global i32 0
@y.947 = common global i32 0
@x.948 = common global i32 0
@y.949 = common global i32 0
@x.950 = common global i32 0
@y.951 = common global i32 0
@x.952 = common global i32 0
@y.953 = common global i32 0
@x.954 = common global i32 0
@y.955 = common global i32 0
@x.956 = common global i32 0
@y.957 = common global i32 0
@x.958 = common global i32 0
@y.959 = common global i32 0
@x.960 = common global i32 0
@y.961 = common global i32 0
@x.962 = common global i32 0
@y.963 = common global i32 0
@x.964 = common global i32 0
@y.965 = common global i32 0
@x.966 = common global i32 0
@y.967 = common global i32 0
@x.968 = common global i32 0
@y.969 = common global i32 0
@x.970 = common global i32 0
@y.971 = common global i32 0
@x.972 = common global i32 0
@y.973 = common global i32 0
@x.974 = common global i32 0
@y.975 = common global i32 0
@x.976 = common global i32 0
@y.977 = common global i32 0
@x.978 = common global i32 0
@y.979 = common global i32 0
@x.980 = common global i32 0
@y.981 = common global i32 0
@x.982 = common global i32 0
@y.983 = common global i32 0
@x.984 = common global i32 0
@y.985 = common global i32 0
@x.986 = common global i32 0
@y.987 = common global i32 0
@x.988 = common global i32 0
@y.989 = common global i32 0
@x.990 = common global i32 0
@y.991 = common global i32 0

; Function Attrs: noinline uwtable
define internal void @__cxx_global_var_init() #0 section ".text.startup" {
  call void @_ZNSt8ios_base4InitC1Ev(%"class.std::ios_base::Init"* @_ZStL8__ioinit)
  %1 = call i32 @__cxa_atexit(void (i8*)* bitcast (void (%"class.std::ios_base::Init"*)* @_ZNSt8ios_base4InitD1Ev to void (i8*)*), i8* getelementptr inbounds (%"class.std::ios_base::Init", %"class.std::ios_base::Init"* @_ZStL8__ioinit, i32 0, i32 0), i8* @__dso_handle) #3
  ret void
}

declare void @_ZNSt8ios_base4InitC1Ev(%"class.std::ios_base::Init"*) unnamed_addr #1

; Function Attrs: nounwind
declare void @_ZNSt8ios_base4InitD1Ev(%"class.std::ios_base::Init"*) unnamed_addr #2

; Function Attrs: nounwind
declare i32 @__cxa_atexit(void (i8*)*, i8*, i8*) #3

; Function Attrs: noinline uwtable
define void @_Z9to_stringRKNSt7__cxx1112basic_stringIcSt11char_traitsIcESaIcEEE(%"class.std::__cxx11::basic_string"* noalias sret, %"class.std::__cxx11::basic_string"* dereferenceable(32)) #0 personality i8* bitcast (i32 (...)* @__gxx_personality_v0 to i8*) {
  %3 = alloca %"class.std::__cxx11::basic_string"*, align 8
  %4 = alloca %"class.std::__cxx11::basic_string", align 8
  %5 = alloca i8*
  %6 = alloca i32
  store %"class.std::__cxx11::basic_string"* %1, %"class.std::__cxx11::basic_string"** %3, align 8
  %7 = load %"class.std::__cxx11::basic_string"*, %"class.std::__cxx11::basic_string"** %3, align 8
  call void @_ZStplIcSt11char_traitsIcESaIcEENSt7__cxx1112basic_stringIT_T0_T1_EES5_RKS8_(%"class.std::__cxx11::basic_string"* sret %4, i8 signext 34, %"class.std::__cxx11::basic_string"* dereferenceable(32) %7)
  invoke void @_ZStplIcSt11char_traitsIcESaIcEENSt7__cxx1112basic_stringIT_T0_T1_EEOS8_S5_(%"class.std::__cxx11::basic_string"* sret %0, %"class.std::__cxx11::basic_string"* dereferenceable(32) %4, i8 signext 34)
          to label %8 unwind label %9

; <label>:8:                                      ; preds = %2
  call void @_ZNSt7__cxx1112basic_stringIcSt11char_traitsIcESaIcEED2Ev(%"class.std::__cxx11::basic_string"* %4) #3
  ret void

; <label>:9:                                      ; preds = %2
  %10 = landingpad { i8*, i32 }
          cleanup
  %11 = extractvalue { i8*, i32 } %10, 0
  store i8* %11, i8** %5, align 8
  %12 = extractvalue { i8*, i32 } %10, 1
  store i32 %12, i32* %6, align 4
  call void @_ZNSt7__cxx1112basic_stringIcSt11char_traitsIcESaIcEED2Ev(%"class.std::__cxx11::basic_string"* %4) #3
  br label %13

; <label>:13:                                     ; preds = %9
  %14 = load i8*, i8** %5, align 8
  %15 = load i32, i32* %6, align 4
  %16 = insertvalue { i8*, i32 } undef, i8* %14, 0
  %17 = insertvalue { i8*, i32 } %16, i32 %15, 1
  resume { i8*, i32 } %17
}

; Function Attrs: noinline uwtable
define linkonce_odr void @_ZStplIcSt11char_traitsIcESaIcEENSt7__cxx1112basic_stringIT_T0_T1_EEOS8_S5_(%"class.std::__cxx11::basic_string"* noalias sret, %"class.std::__cxx11::basic_string"* dereferenceable(32), i8 signext) #0 comdat {
  %4 = alloca i1
  %5 = alloca i1
  %6 = load i32, i32* @x.22
  %7 = load i32, i32* @y.23
  %8 = sub i32 %6, -1221650968
  %9 = sub i32 %8, 1
  %10 = add i32 %9, -1221650968
  %11 = sub i32 %6, 1
  %12 = mul i32 %6, %10
  %13 = urem i32 %12, 2
  %14 = icmp eq i32 %13, 0
  store i1 %14, i1* %5
  %15 = icmp slt i32 %7, 10
  store i1 %15, i1* %4
  %16 = alloca i32
  store i32 2134998191, i32* %16
  br label %17

; <label>:17:                                     ; preds = %3, %69
  %18 = load i32, i32* %16
  switch i32 %18, label %19 [
    i32 2134998191, label %20
    i32 1964190967, label %40
    i32 -1323023311, label %61
    i32 1125719689, label %62
  ]

; <label>:19:                                     ; preds = %17
  br label %69

; <label>:20:                                     ; preds = %17
  %21 = load volatile i1, i1* %5
  %22 = load volatile i1, i1* %4
  %23 = xor i1 %21, true
  %24 = xor i1 %22, true
  %25 = xor i1 false, true
  %26 = and i1 %23, false
  %27 = and i1 %21, %25
  %28 = and i1 %24, false
  %29 = and i1 %22, %25
  %30 = or i1 %26, %27
  %31 = or i1 %28, %29
  %32 = xor i1 %30, %31
  %33 = or i1 %23, %24
  %34 = xor i1 %33, true
  %35 = or i1 false, %25
  %36 = and i1 %34, %35
  %37 = or i1 %32, %36
  %38 = or i1 %21, %22
  %39 = select i1 %37, i32 1964190967, i32 1125719689
  store i32 %39, i32* %16
  br label %69

; <label>:40:                                     ; preds = %17
  %41 = alloca %"class.std::__cxx11::basic_string"*, align 8
  %42 = alloca i8, align 1
  store %"class.std::__cxx11::basic_string"* %1, %"class.std::__cxx11::basic_string"** %41, align 8
  store i8 %2, i8* %42, align 1
  %43 = load %"class.std::__cxx11::basic_string"*, %"class.std::__cxx11::basic_string"** %41, align 8
  %44 = load i8, i8* %42, align 1
  %45 = call dereferenceable(32) %"class.std::__cxx11::basic_string"* @_ZNSt7__cxx1112basic_stringIcSt11char_traitsIcESaIcEE6appendEmc(%"class.std::__cxx11::basic_string"* %43, i64 1, i8 signext %44)
  %46 = call dereferenceable(32) %"class.std::__cxx11::basic_string"* @_ZSt4moveIRNSt7__cxx1112basic_stringIcSt11char_traitsIcESaIcEEEEONSt16remove_referenceIT_E4typeEOS8_(%"class.std::__cxx11::basic_string"* dereferenceable(32) %45) #3
  call void @_ZNSt7__cxx1112basic_stringIcSt11char_traitsIcESaIcEEC2EOS4_(%"class.std::__cxx11::basic_string"* %0, %"class.std::__cxx11::basic_string"* dereferenceable(32) %46) #3
  %47 = load i32, i32* @x.22
  %48 = load i32, i32* @y.23
  %49 = sub i32 0, 1
  %50 = add i32 %47, %49
  %51 = sub i32 %47, 1
  %52 = mul i32 %47, %50
  %53 = urem i32 %52, 2
  %54 = icmp eq i32 %53, 0
  %55 = icmp slt i32 %48, 10
  %56 = and i1 %54, %55
  %57 = xor i1 %54, %55
  %58 = or i1 %56, %57
  %59 = or i1 %54, %55
  %60 = select i1 %58, i32 -1323023311, i32 1125719689
  store i32 %60, i32* %16
  br label %69

; <label>:61:                                     ; preds = %17
  ret void

; <label>:62:                                     ; preds = %17
  %63 = alloca %"class.std::__cxx11::basic_string"*, align 8
  %64 = alloca i8, align 1
  store %"class.std::__cxx11::basic_string"* %1, %"class.std::__cxx11::basic_string"** %63, align 8
  store i8 %2, i8* %64, align 1
  %65 = load %"class.std::__cxx11::basic_string"*, %"class.std::__cxx11::basic_string"** %63, align 8
  %66 = load i8, i8* %64, align 1
  %67 = call dereferenceable(32) %"class.std::__cxx11::basic_string"* @_ZNSt7__cxx1112basic_stringIcSt11char_traitsIcESaIcEE6appendEmc(%"class.std::__cxx11::basic_string"* %65, i64 1, i8 signext %66)
  %68 = call dereferenceable(32) %"class.std::__cxx11::basic_string"* @_ZSt4moveIRNSt7__cxx1112basic_stringIcSt11char_traitsIcESaIcEEEEONSt16remove_referenceIT_E4typeEOS8_(%"class.std::__cxx11::basic_string"* dereferenceable(32) %67) #3
  call void @_ZNSt7__cxx1112basic_stringIcSt11char_traitsIcESaIcEEC2EOS4_(%"class.std::__cxx11::basic_string"* %0, %"class.std::__cxx11::basic_string"* dereferenceable(32) %68) #3
  store i32 1964190967, i32* %16
  br label %69

; <label>:69:                                     ; preds = %62, %40, %20, %19
  br label %17
}

; Function Attrs: noinline uwtable
define linkonce_odr void @_ZStplIcSt11char_traitsIcESaIcEENSt7__cxx1112basic_stringIT_T0_T1_EES5_RKS8_(%"class.std::__cxx11::basic_string"* noalias sret, i8 signext, %"class.std::__cxx11::basic_string"* dereferenceable(32)) #0 comdat personality i8* bitcast (i32 (...)* @__gxx_personality_v0 to i8*) {
  %4 = alloca i8, align 1
  %5 = alloca %"class.std::__cxx11::basic_string"*, align 8
  %6 = alloca i1, align 1
  %7 = alloca i64, align 8
  %8 = alloca i8*
  %9 = alloca i32
  store i8 %1, i8* %4, align 1
  store %"class.std::__cxx11::basic_string"* %2, %"class.std::__cxx11::basic_string"** %5, align 8
  store i1 false, i1* %6, align 1
  call void @_ZNSt7__cxx1112basic_stringIcSt11char_traitsIcESaIcEEC2Ev(%"class.std::__cxx11::basic_string"* %0) #3
  %10 = load %"class.std::__cxx11::basic_string"*, %"class.std::__cxx11::basic_string"** %5, align 8
  %11 = call i64 @_ZNKSt7__cxx1112basic_stringIcSt11char_traitsIcESaIcEE4sizeEv(%"class.std::__cxx11::basic_string"* %10) #3
  store i64 %11, i64* %7, align 8
  %12 = load i64, i64* %7, align 8
  %13 = add i64 %12, -6249115397810781351
  %14 = add i64 %13, 1
  %15 = sub i64 %14, -6249115397810781351
  %16 = add i64 %12, 1
  invoke void @_ZNSt7__cxx1112basic_stringIcSt11char_traitsIcESaIcEE7reserveEm(%"class.std::__cxx11::basic_string"* %0, i64 %15)
          to label %17 unwind label %25

; <label>:17:                                     ; preds = %3
  %18 = load i8, i8* %4, align 1
  %19 = invoke dereferenceable(32) %"class.std::__cxx11::basic_string"* @_ZNSt7__cxx1112basic_stringIcSt11char_traitsIcESaIcEE6appendEmc(%"class.std::__cxx11::basic_string"* %0, i64 1, i8 signext %18)
          to label %20 unwind label %25

; <label>:20:                                     ; preds = %17
  %21 = load %"class.std::__cxx11::basic_string"*, %"class.std::__cxx11::basic_string"** %5, align 8
  %22 = invoke dereferenceable(32) %"class.std::__cxx11::basic_string"* @_ZNSt7__cxx1112basic_stringIcSt11char_traitsIcESaIcEE6appendERKS4_(%"class.std::__cxx11::basic_string"* %0, %"class.std::__cxx11::basic_string"* dereferenceable(32) %21)
          to label %23 unwind label %25

; <label>:23:                                     ; preds = %20
  store i1 true, i1* %6, align 1
  %24 = load i1, i1* %6, align 1
  br i1 %24, label %30, label %29

; <label>:25:                                     ; preds = %20, %17, %3
  %26 = landingpad { i8*, i32 }
          cleanup
  %27 = extractvalue { i8*, i32 } %26, 0
  store i8* %27, i8** %8, align 8
  %28 = extractvalue { i8*, i32 } %26, 1
  store i32 %28, i32* %9, align 4
  call void @_ZNSt7__cxx1112basic_stringIcSt11char_traitsIcESaIcEED2Ev(%"class.std::__cxx11::basic_string"* %0) #3
  br label %31

; <label>:29:                                     ; preds = %23
  call void @_ZNSt7__cxx1112basic_stringIcSt11char_traitsIcESaIcEED2Ev(%"class.std::__cxx11::basic_string"* %0) #3
  br label %30

; <label>:30:                                     ; preds = %29, %23
  ret void

; <label>:31:                                     ; preds = %25
  %32 = load i8*, i8** %8, align 8
  %33 = load i32, i32* %9, align 4
  %34 = insertvalue { i8*, i32 } undef, i8* %32, 0
  %35 = insertvalue { i8*, i32 } %34, i32 %33, 1
  resume { i8*, i32 } %35
}

declare i32 @__gxx_personality_v0(...)

; Function Attrs: noinline nounwind uwtable
define linkonce_odr void @_ZNSt7__cxx1112basic_stringIcSt11char_traitsIcESaIcEED2Ev(%"class.std::__cxx11::basic_string"*) unnamed_addr #4 comdat align 2 personality i8* bitcast (i32 (...)* @__gxx_personality_v0 to i8*) {
  %2 = alloca %"class.std::__cxx11::basic_string"*, align 8
  %3 = alloca i8*
  %4 = alloca i32
  store %"class.std::__cxx11::basic_string"* %0, %"class.std::__cxx11::basic_string"** %2, align 8
  %5 = load %"class.std::__cxx11::basic_string"*, %"class.std::__cxx11::basic_string"** %2, align 8
  invoke void @_ZNSt7__cxx1112basic_stringIcSt11char_traitsIcESaIcEE10_M_disposeEv(%"class.std::__cxx11::basic_string"* %5)
          to label %6 unwind label %8

; <label>:6:                                      ; preds = %1
  %7 = getelementptr inbounds %"class.std::__cxx11::basic_string", %"class.std::__cxx11::basic_string"* %5, i32 0, i32 0
  call void @_ZNSt7__cxx1112basic_stringIcSt11char_traitsIcESaIcEE12_Alloc_hiderD2Ev(%"struct.std::__cxx11::basic_string<char, std::char_traits<char>, std::allocator<char> >::_Alloc_hider"* %7) #3
  ret void

; <label>:8:                                      ; preds = %1
  %9 = landingpad { i8*, i32 }
          cleanup
          filter [0 x i8*] zeroinitializer
  %10 = extractvalue { i8*, i32 } %9, 0
  store i8* %10, i8** %3, align 8
  %11 = extractvalue { i8*, i32 } %9, 1
  store i32 %11, i32* %4, align 4
  %12 = getelementptr inbounds %"class.std::__cxx11::basic_string", %"class.std::__cxx11::basic_string"* %5, i32 0, i32 0
  call void @_ZNSt7__cxx1112basic_stringIcSt11char_traitsIcESaIcEE12_Alloc_hiderD2Ev(%"struct.std::__cxx11::basic_string<char, std::char_traits<char>, std::allocator<char> >::_Alloc_hider"* %12) #3
  br label %13

; <label>:13:                                     ; preds = %8
  %14 = load i32, i32* @x.26
  %15 = load i32, i32* @y.27
  %16 = add i32 %14, -767584748
  %17 = sub i32 %16, 1
  %18 = sub i32 %17, -767584748
  %19 = sub i32 %14, 1
  %20 = mul i32 %14, %18
  %21 = urem i32 %20, 2
  %22 = icmp eq i32 %21, 0
  %23 = icmp slt i32 %15, 10
  %24 = xor i1 %22, true
  %25 = xor i1 %23, true
  %26 = xor i1 true, true
  %27 = and i1 %24, true
  %28 = and i1 %22, %26
  %29 = and i1 %25, true
  %30 = and i1 %23, %26
  %31 = or i1 %27, %28
  %32 = or i1 %29, %30
  %33 = xor i1 %31, %32
  %34 = or i1 %24, %25
  %35 = xor i1 %34, true
  %36 = or i1 true, %26
  %37 = and i1 %35, %36
  %38 = or i1 %33, %37
  %39 = or i1 %22, %23
  br i1 %38, label %40, label %56

; <label>:40:                                     ; preds = %13, %56
  %41 = load i8*, i8** %3, align 8
  call void @__cxa_call_unexpected(i8* %41) #13
  %42 = load i32, i32* @x.26
  %43 = load i32, i32* @y.27
  %44 = sub i32 0, 1
  %45 = add i32 %42, %44
  %46 = sub i32 %42, 1
  %47 = mul i32 %42, %45
  %48 = urem i32 %47, 2
  %49 = icmp eq i32 %48, 0
  %50 = icmp slt i32 %43, 10
  %51 = and i1 %49, %50
  %52 = xor i1 %49, %50
  %53 = or i1 %51, %52
  %54 = or i1 %49, %50
  br i1 %53, label %55, label %56

; <label>:55:                                     ; preds = %40
  unreachable

; <label>:56:                                     ; preds = %40, %13
  %57 = load i8*, i8** %3, align 8
  call void @__cxa_call_unexpected(i8* %57) #13
  br label %40
}

; Function Attrs: noinline uwtable
define void @_Z9to_stringB5cxx11c(%"class.std::__cxx11::basic_string"* noalias sret, i8 signext) #0 personality i8* bitcast (i32 (...)* @__gxx_personality_v0 to i8*) {
  %3 = alloca i8, align 1
  %4 = alloca %"class.std::__cxx11::basic_string", align 8
  %5 = alloca %"class.std::allocator", align 1
  %6 = alloca i8*
  %7 = alloca i32
  store i8 %1, i8* %3, align 1
  call void @_ZNSaIcEC1Ev(%"class.std::allocator"* %5) #3
  invoke void @_ZNSt7__cxx1112basic_stringIcSt11char_traitsIcESaIcEEC2EPKcRKS3_(%"class.std::__cxx11::basic_string"* %4, i8* %3, %"class.std::allocator"* dereferenceable(1) %5)
          to label %8 unwind label %10

; <label>:8:                                      ; preds = %2
  invoke void @_Z9to_stringRKNSt7__cxx1112basic_stringIcSt11char_traitsIcESaIcEEE(%"class.std::__cxx11::basic_string"* sret %0, %"class.std::__cxx11::basic_string"* dereferenceable(32) %4)
          to label %9 unwind label %43

; <label>:9:                                      ; preds = %8
  call void @_ZNSt7__cxx1112basic_stringIcSt11char_traitsIcESaIcEED2Ev(%"class.std::__cxx11::basic_string"* %4) #3
  call void @_ZNSaIcED1Ev(%"class.std::allocator"* %5) #3
  ret void

; <label>:10:                                     ; preds = %2
  %11 = load i32, i32* @x.28
  %12 = load i32, i32* @y.29
  %13 = sub i32 0, 1
  %14 = add i32 %11, %13
  %15 = sub i32 %11, 1
  %16 = mul i32 %11, %14
  %17 = urem i32 %16, 2
  %18 = icmp eq i32 %17, 0
  %19 = icmp slt i32 %12, 10
  %20 = and i1 %18, %19
  %21 = xor i1 %18, %19
  %22 = or i1 %20, %21
  %23 = or i1 %18, %19
  br i1 %22, label %24, label %53

; <label>:24:                                     ; preds = %10, %53
  %25 = landingpad { i8*, i32 }
          cleanup
  %26 = extractvalue { i8*, i32 } %25, 0
  store i8* %26, i8** %6, align 8
  %27 = extractvalue { i8*, i32 } %25, 1
  store i32 %27, i32* %7, align 4
  %28 = load i32, i32* @x.28
  %29 = load i32, i32* @y.29
  %30 = add i32 %28, 971417750
  %31 = sub i32 %30, 1
  %32 = sub i32 %31, 971417750
  %33 = sub i32 %28, 1
  %34 = mul i32 %28, %32
  %35 = urem i32 %34, 2
  %36 = icmp eq i32 %35, 0
  %37 = icmp slt i32 %29, 10
  %38 = and i1 %36, %37
  %39 = xor i1 %36, %37
  %40 = or i1 %38, %39
  %41 = or i1 %36, %37
  br i1 %40, label %42, label %53

; <label>:42:                                     ; preds = %24
  br label %47

; <label>:43:                                     ; preds = %8
  %44 = landingpad { i8*, i32 }
          cleanup
  %45 = extractvalue { i8*, i32 } %44, 0
  store i8* %45, i8** %6, align 8
  %46 = extractvalue { i8*, i32 } %44, 1
  store i32 %46, i32* %7, align 4
  call void @_ZNSt7__cxx1112basic_stringIcSt11char_traitsIcESaIcEED2Ev(%"class.std::__cxx11::basic_string"* %4) #3
  br label %47

; <label>:47:                                     ; preds = %43, %42
  call void @_ZNSaIcED1Ev(%"class.std::allocator"* %5) #3
  br label %48

; <label>:48:                                     ; preds = %47
  %49 = load i8*, i8** %6, align 8
  %50 = load i32, i32* %7, align 4
  %51 = insertvalue { i8*, i32 } undef, i8* %49, 0
  %52 = insertvalue { i8*, i32 } %51, i32 %50, 1
  resume { i8*, i32 } %52

; <label>:53:                                     ; preds = %24, %10
  %54 = landingpad { i8*, i32 }
          cleanup
  %55 = extractvalue { i8*, i32 } %54, 0
  store i8* %55, i8** %6, align 8
  %56 = extractvalue { i8*, i32 } %54, 1
  store i32 %56, i32* %7, align 4
  br label %24
}

; Function Attrs: nounwind
declare void @_ZNSaIcEC1Ev(%"class.std::allocator"*) unnamed_addr #2

; Function Attrs: noinline uwtable
define linkonce_odr void @_ZNSt7__cxx1112basic_stringIcSt11char_traitsIcESaIcEEC2EPKcRKS3_(%"class.std::__cxx11::basic_string"*, i8*, %"class.std::allocator"* dereferenceable(1)) unnamed_addr #0 comdat align 2 personality i8* bitcast (i32 (...)* @__gxx_personality_v0 to i8*) {
  %4 = load i32, i32* @x.30
  %5 = load i32, i32* @y.31
  %6 = add i32 %4, 1796079126
  %7 = sub i32 %6, 1
  %8 = sub i32 %7, 1796079126
  %9 = sub i32 %4, 1
  %10 = mul i32 %4, %8
  %11 = urem i32 %10, 2
  %12 = icmp eq i32 %11, 0
  %13 = icmp slt i32 %5, 10
  %14 = and i1 %12, %13
  %15 = xor i1 %12, %13
  %16 = or i1 %14, %15
  %17 = or i1 %12, %13
  br i1 %16, label %18, label %281

; <label>:18:                                     ; preds = %3, %281
  %19 = alloca %"class.std::__cxx11::basic_string"*, align 8
  %20 = alloca i8*, align 8
  %21 = alloca %"class.std::allocator"*, align 8
  %22 = alloca i8*
  %23 = alloca i32
  store %"class.std::__cxx11::basic_string"* %0, %"class.std::__cxx11::basic_string"** %19, align 8
  store i8* %1, i8** %20, align 8
  store %"class.std::allocator"* %2, %"class.std::allocator"** %21, align 8
  %24 = load %"class.std::__cxx11::basic_string"*, %"class.std::__cxx11::basic_string"** %19, align 8
  %25 = getelementptr inbounds %"class.std::__cxx11::basic_string", %"class.std::__cxx11::basic_string"* %24, i32 0, i32 0
  %26 = call i8* @_ZNSt7__cxx1112basic_stringIcSt11char_traitsIcESaIcEE13_M_local_dataEv(%"class.std::__cxx11::basic_string"* %24)
  %27 = load %"class.std::allocator"*, %"class.std::allocator"** %21, align 8
  call void @_ZNSt7__cxx1112basic_stringIcSt11char_traitsIcESaIcEE12_Alloc_hiderC2EPcRKS3_(%"struct.std::__cxx11::basic_string<char, std::char_traits<char>, std::allocator<char> >::_Alloc_hider"* %25, i8* %26, %"class.std::allocator"* dereferenceable(1) %27)
  %28 = load i8*, i8** %20, align 8
  %29 = load i8*, i8** %20, align 8
  %30 = icmp ne i8* %29, null
  %31 = load i32, i32* @x.30
  %32 = load i32, i32* @y.31
  %33 = sub i32 %31, 2024091418
  %34 = sub i32 %33, 1
  %35 = add i32 %34, 2024091418
  %36 = sub i32 %31, 1
  %37 = mul i32 %31, %35
  %38 = urem i32 %37, 2
  %39 = icmp eq i32 %38, 0
  %40 = icmp slt i32 %32, 10
  %41 = xor i1 %39, true
  %42 = xor i1 %40, true
  %43 = xor i1 true, true
  %44 = and i1 %41, true
  %45 = and i1 %39, %43
  %46 = and i1 %42, true
  %47 = and i1 %40, %43
  %48 = or i1 %44, %45
  %49 = or i1 %46, %47
  %50 = xor i1 %48, %49
  %51 = or i1 %41, %42
  %52 = xor i1 %51, true
  %53 = or i1 true, %43
  %54 = and i1 %52, %53
  %55 = or i1 %50, %54
  %56 = or i1 %39, %40
  br i1 %55, label %57, label %281

; <label>:57:                                     ; preds = %18
  br i1 %30, label %58, label %122

; <label>:58:                                     ; preds = %57
  %59 = load i32, i32* @x.30
  %60 = load i32, i32* @y.31
  %61 = add i32 %59, -1578904797
  %62 = sub i32 %61, 1
  %63 = sub i32 %62, -1578904797
  %64 = sub i32 %59, 1
  %65 = mul i32 %59, %63
  %66 = urem i32 %65, 2
  %67 = icmp eq i32 %66, 0
  %68 = icmp slt i32 %60, 10
  %69 = and i1 %67, %68
  %70 = xor i1 %67, %68
  %71 = or i1 %69, %70
  %72 = or i1 %67, %68
  br i1 %71, label %73, label %294

; <label>:73:                                     ; preds = %58, %294
  %74 = load i8*, i8** %20, align 8
  %75 = load i8*, i8** %20, align 8
  %76 = load i32, i32* @x.30
  %77 = load i32, i32* @y.31
  %78 = sub i32 0, 1
  %79 = add i32 %76, %78
  %80 = sub i32 %76, 1
  %81 = mul i32 %76, %79
  %82 = urem i32 %81, 2
  %83 = icmp eq i32 %82, 0
  %84 = icmp slt i32 %77, 10
  %85 = and i1 %83, %84
  %86 = xor i1 %83, %84
  %87 = or i1 %85, %86
  %88 = or i1 %83, %84
  br i1 %87, label %89, label %294

; <label>:89:                                     ; preds = %73
  %90 = invoke i64 @_ZNSt11char_traitsIcE6lengthEPKc(i8* %75)
          to label %91 unwind label %230

; <label>:91:                                     ; preds = %89
  %92 = load i32, i32* @x.30
  %93 = load i32, i32* @y.31
  %94 = sub i32 %92, 225268392
  %95 = sub i32 %94, 1
  %96 = add i32 %95, 225268392
  %97 = sub i32 %92, 1
  %98 = mul i32 %92, %96
  %99 = urem i32 %98, 2
  %100 = icmp eq i32 %99, 0
  %101 = icmp slt i32 %93, 10
  %102 = and i1 %100, %101
  %103 = xor i1 %100, %101
  %104 = or i1 %102, %103
  %105 = or i1 %100, %101
  br i1 %104, label %106, label %297

; <label>:106:                                    ; preds = %91, %297
  %107 = getelementptr inbounds i8, i8* %74, i64 %90
  %108 = load i32, i32* @x.30
  %109 = load i32, i32* @y.31
  %110 = sub i32 0, 1
  %111 = add i32 %108, %110
  %112 = sub i32 %108, 1
  %113 = mul i32 %108, %111
  %114 = urem i32 %113, 2
  %115 = icmp eq i32 %114, 0
  %116 = icmp slt i32 %109, 10
  %117 = and i1 %115, %116
  %118 = xor i1 %115, %116
  %119 = or i1 %117, %118
  %120 = or i1 %115, %116
  br i1 %119, label %121, label %297

; <label>:121:                                    ; preds = %106
  br label %167

; <label>:122:                                    ; preds = %57
  %123 = load i32, i32* @x.30
  %124 = load i32, i32* @y.31
  %125 = add i32 %123, -699954657
  %126 = sub i32 %125, 1
  %127 = sub i32 %126, -699954657
  %128 = sub i32 %123, 1
  %129 = mul i32 %123, %127
  %130 = urem i32 %129, 2
  %131 = icmp eq i32 %130, 0
  %132 = icmp slt i32 %124, 10
  %133 = and i1 %131, %132
  %134 = xor i1 %131, %132
  %135 = or i1 %133, %134
  %136 = or i1 %131, %132
  br i1 %135, label %137, label %299

; <label>:137:                                    ; preds = %122, %299
  %138 = load i8*, i8** %20, align 8
  %139 = getelementptr inbounds i8, i8* %138, i64 -1
  %140 = load i32, i32* @x.30
  %141 = load i32, i32* @y.31
  %142 = add i32 %140, 2107886665
  %143 = sub i32 %142, 1
  %144 = sub i32 %143, 2107886665
  %145 = sub i32 %140, 1
  %146 = mul i32 %140, %144
  %147 = urem i32 %146, 2
  %148 = icmp eq i32 %147, 0
  %149 = icmp slt i32 %141, 10
  %150 = xor i1 %148, true
  %151 = xor i1 %149, true
  %152 = xor i1 true, true
  %153 = and i1 %150, true
  %154 = and i1 %148, %152
  %155 = and i1 %151, true
  %156 = and i1 %149, %152
  %157 = or i1 %153, %154
  %158 = or i1 %155, %156
  %159 = xor i1 %157, %158
  %160 = or i1 %150, %151
  %161 = xor i1 %160, true
  %162 = or i1 true, %152
  %163 = and i1 %161, %162
  %164 = or i1 %159, %163
  %165 = or i1 %148, %149
  br i1 %164, label %166, label %299

; <label>:166:                                    ; preds = %137
  br label %167

; <label>:167:                                    ; preds = %166, %121
  %168 = phi i8* [ %107, %121 ], [ %139, %166 ]
  %169 = load i32, i32* @x.30
  %170 = load i32, i32* @y.31
  %171 = add i32 %169, -713217945
  %172 = sub i32 %171, 1
  %173 = sub i32 %172, -713217945
  %174 = sub i32 %169, 1
  %175 = mul i32 %169, %173
  %176 = urem i32 %175, 2
  %177 = icmp eq i32 %176, 0
  %178 = icmp slt i32 %170, 10
  %179 = and i1 %177, %178
  %180 = xor i1 %177, %178
  %181 = or i1 %179, %180
  %182 = or i1 %177, %178
  br i1 %181, label %183, label %302

; <label>:183:                                    ; preds = %167, %302
  %184 = load i32, i32* @x.30
  %185 = load i32, i32* @y.31
  %186 = add i32 %184, -151317791
  %187 = sub i32 %186, 1
  %188 = sub i32 %187, -151317791
  %189 = sub i32 %184, 1
  %190 = mul i32 %184, %188
  %191 = urem i32 %190, 2
  %192 = icmp eq i32 %191, 0
  %193 = icmp slt i32 %185, 10
  %194 = and i1 %192, %193
  %195 = xor i1 %192, %193
  %196 = or i1 %194, %195
  %197 = or i1 %192, %193
  br i1 %196, label %198, label %302

; <label>:198:                                    ; preds = %183
  invoke void @_ZNSt7__cxx1112basic_stringIcSt11char_traitsIcESaIcEE12_M_constructIPKcEEvT_S8_(%"class.std::__cxx11::basic_string"* %24, i8* %28, i8* %168)
          to label %199 unwind label %230

; <label>:199:                                    ; preds = %198
  %200 = load i32, i32* @x.30
  %201 = load i32, i32* @y.31
  %202 = sub i32 %200, -1268112982
  %203 = sub i32 %202, 1
  %204 = add i32 %203, -1268112982
  %205 = sub i32 %200, 1
  %206 = mul i32 %200, %204
  %207 = urem i32 %206, 2
  %208 = icmp eq i32 %207, 0
  %209 = icmp slt i32 %201, 10
  %210 = and i1 %208, %209
  %211 = xor i1 %208, %209
  %212 = or i1 %210, %211
  %213 = or i1 %208, %209
  br i1 %212, label %214, label %303

; <label>:214:                                    ; preds = %199, %303
  %215 = load i32, i32* @x.30
  %216 = load i32, i32* @y.31
  %217 = sub i32 %215, 1655357521
  %218 = sub i32 %217, 1
  %219 = add i32 %218, 1655357521
  %220 = sub i32 %215, 1
  %221 = mul i32 %215, %219
  %222 = urem i32 %221, 2
  %223 = icmp eq i32 %222, 0
  %224 = icmp slt i32 %216, 10
  %225 = and i1 %223, %224
  %226 = xor i1 %223, %224
  %227 = or i1 %225, %226
  %228 = or i1 %223, %224
  br i1 %227, label %229, label %303

; <label>:229:                                    ; preds = %214
  ret void

; <label>:230:                                    ; preds = %198, %89
  %231 = landingpad { i8*, i32 }
          cleanup
  %232 = extractvalue { i8*, i32 } %231, 0
  store i8* %232, i8** %22, align 8
  %233 = extractvalue { i8*, i32 } %231, 1
  store i32 %233, i32* %23, align 4
  call void @_ZNSt7__cxx1112basic_stringIcSt11char_traitsIcESaIcEE12_Alloc_hiderD2Ev(%"struct.std::__cxx11::basic_string<char, std::char_traits<char>, std::allocator<char> >::_Alloc_hider"* %25) #3
  br label %234

; <label>:234:                                    ; preds = %230
  %235 = load i32, i32* @x.30
  %236 = load i32, i32* @y.31
  %237 = sub i32 %235, -867694281
  %238 = sub i32 %237, 1
  %239 = add i32 %238, -867694281
  %240 = sub i32 %235, 1
  %241 = mul i32 %235, %239
  %242 = urem i32 %241, 2
  %243 = icmp eq i32 %242, 0
  %244 = icmp slt i32 %236, 10
  %245 = and i1 %243, %244
  %246 = xor i1 %243, %244
  %247 = or i1 %245, %246
  %248 = or i1 %243, %244
  br i1 %247, label %249, label %304

; <label>:249:                                    ; preds = %234, %304
  %250 = load i8*, i8** %22, align 8
  %251 = load i32, i32* %23, align 4
  %252 = insertvalue { i8*, i32 } undef, i8* %250, 0
  %253 = insertvalue { i8*, i32 } %252, i32 %251, 1
  %254 = load i32, i32* @x.30
  %255 = load i32, i32* @y.31
  %256 = add i32 %254, -2099280396
  %257 = sub i32 %256, 1
  %258 = sub i32 %257, -2099280396
  %259 = sub i32 %254, 1
  %260 = mul i32 %254, %258
  %261 = urem i32 %260, 2
  %262 = icmp eq i32 %261, 0
  %263 = icmp slt i32 %255, 10
  %264 = xor i1 %262, true
  %265 = xor i1 %263, true
  %266 = xor i1 true, true
  %267 = and i1 %264, true
  %268 = and i1 %262, %266
  %269 = and i1 %265, true
  %270 = and i1 %263, %266
  %271 = or i1 %267, %268
  %272 = or i1 %269, %270
  %273 = xor i1 %271, %272
  %274 = or i1 %264, %265
  %275 = xor i1 %274, true
  %276 = or i1 true, %266
  %277 = and i1 %275, %276
  %278 = or i1 %273, %277
  %279 = or i1 %262, %263
  br i1 %278, label %280, label %304

; <label>:280:                                    ; preds = %249
  resume { i8*, i32 } %253

; <label>:281:                                    ; preds = %18, %3
  %282 = alloca %"class.std::__cxx11::basic_string"*, align 8
  %283 = alloca i8*, align 8
  %284 = alloca %"class.std::allocator"*, align 8
  %285 = alloca i8*
  %286 = alloca i32
  store %"class.std::__cxx11::basic_string"* %0, %"class.std::__cxx11::basic_string"** %282, align 8
  store i8* %1, i8** %283, align 8
  store %"class.std::allocator"* %2, %"class.std::allocator"** %284, align 8
  %287 = load %"class.std::__cxx11::basic_string"*, %"class.std::__cxx11::basic_string"** %282, align 8
  %288 = getelementptr inbounds %"class.std::__cxx11::basic_string", %"class.std::__cxx11::basic_string"* %287, i32 0, i32 0
  %289 = call i8* @_ZNSt7__cxx1112basic_stringIcSt11char_traitsIcESaIcEE13_M_local_dataEv(%"class.std::__cxx11::basic_string"* %287)
  %290 = load %"class.std::allocator"*, %"class.std::allocator"** %284, align 8
  call void @_ZNSt7__cxx1112basic_stringIcSt11char_traitsIcESaIcEE12_Alloc_hiderC2EPcRKS3_(%"struct.std::__cxx11::basic_string<char, std::char_traits<char>, std::allocator<char> >::_Alloc_hider"* %288, i8* %289, %"class.std::allocator"* dereferenceable(1) %290)
  %291 = load i8*, i8** %283, align 8
  %292 = load i8*, i8** %283, align 8
  %293 = icmp ne i8* %292, null
  br label %18

; <label>:294:                                    ; preds = %73, %58
  %295 = load i8*, i8** %20, align 8
  %296 = load i8*, i8** %20, align 8
  br label %73

; <label>:297:                                    ; preds = %106, %91
  %298 = getelementptr inbounds i8, i8* %74, i64 %90
  br label %106

; <label>:299:                                    ; preds = %137, %122
  %300 = load i8*, i8** %20, align 8
  %301 = getelementptr inbounds i8, i8* %300, i64 -1
  br label %137

; <label>:302:                                    ; preds = %183, %167
  br label %183

; <label>:303:                                    ; preds = %214, %199
  br label %214

; <label>:304:                                    ; preds = %249, %234
  %305 = load i8*, i8** %22, align 8
  %306 = load i32, i32* %23, align 4
  %307 = insertvalue { i8*, i32 } undef, i8* %305, 0
  %308 = insertvalue { i8*, i32 } %307, i32 %306, 1
  br label %249
}

; Function Attrs: nounwind
declare void @_ZNSaIcED1Ev(%"class.std::allocator"*) unnamed_addr #2

; Function Attrs: noinline uwtable
define void @_Z9to_stringB5cxx11b(%"class.std::__cxx11::basic_string"* noalias sret, i1 zeroext) #0 personality i8* bitcast (i32 (...)* @__gxx_personality_v0 to i8*) {
  %3 = load i32, i32* @x.32
  %4 = load i32, i32* @y.33
  %5 = sub i32 %3, -88921135
  %6 = sub i32 %5, 1
  %7 = add i32 %6, -88921135
  %8 = sub i32 %3, 1
  %9 = mul i32 %3, %7
  %10 = urem i32 %9, 2
  %11 = icmp eq i32 %10, 0
  %12 = icmp slt i32 %4, 10
  %13 = and i1 %11, %12
  %14 = xor i1 %11, %12
  %15 = or i1 %13, %14
  %16 = or i1 %11, %12
  br i1 %15, label %17, label %157

; <label>:17:                                     ; preds = %2, %157
  %18 = alloca i8, align 1
  %19 = alloca %"class.std::allocator", align 1
  %20 = alloca i8*
  %21 = alloca i32
  %22 = zext i1 %1 to i8
  store i8 %22, i8* %18, align 1
  %23 = load i8, i8* %18, align 1
  %24 = trunc i8 %23 to i1
  %25 = select i1 %24, i8* getelementptr inbounds ([5 x i8], [5 x i8]* @.str, i32 0, i32 0), i8* getelementptr inbounds ([6 x i8], [6 x i8]* @.str.1, i32 0, i32 0)
  call void @_ZNSaIcEC1Ev(%"class.std::allocator"* %19) #3
  %26 = load i32, i32* @x.32
  %27 = load i32, i32* @y.33
  %28 = sub i32 0, 1
  %29 = add i32 %26, %28
  %30 = sub i32 %26, 1
  %31 = mul i32 %26, %29
  %32 = urem i32 %31, 2
  %33 = icmp eq i32 %32, 0
  %34 = icmp slt i32 %27, 10
  %35 = xor i1 %33, true
  %36 = xor i1 %34, true
  %37 = xor i1 true, true
  %38 = and i1 %35, true
  %39 = and i1 %33, %37
  %40 = and i1 %36, true
  %41 = and i1 %34, %37
  %42 = or i1 %38, %39
  %43 = or i1 %40, %41
  %44 = xor i1 %42, %43
  %45 = or i1 %35, %36
  %46 = xor i1 %45, true
  %47 = or i1 true, %37
  %48 = and i1 %46, %47
  %49 = or i1 %44, %48
  %50 = or i1 %33, %34
  br i1 %49, label %51, label %157

; <label>:51:                                     ; preds = %17
  invoke void @_ZNSt7__cxx1112basic_stringIcSt11char_traitsIcESaIcEEC2EPKcRKS3_(%"class.std::__cxx11::basic_string"* %0, i8* %25, %"class.std::allocator"* dereferenceable(1) %19)
          to label %52 unwind label %106

; <label>:52:                                     ; preds = %51
  %53 = load i32, i32* @x.32
  %54 = load i32, i32* @y.33
  %55 = sub i32 0, 1
  %56 = add i32 %53, %55
  %57 = sub i32 %53, 1
  %58 = mul i32 %53, %56
  %59 = urem i32 %58, 2
  %60 = icmp eq i32 %59, 0
  %61 = icmp slt i32 %54, 10
  %62 = xor i1 %60, true
  %63 = xor i1 %61, true
  %64 = xor i1 true, true
  %65 = and i1 %62, true
  %66 = and i1 %60, %64
  %67 = and i1 %63, true
  %68 = and i1 %61, %64
  %69 = or i1 %65, %66
  %70 = or i1 %67, %68
  %71 = xor i1 %69, %70
  %72 = or i1 %62, %63
  %73 = xor i1 %72, true
  %74 = or i1 true, %64
  %75 = and i1 %73, %74
  %76 = or i1 %71, %75
  %77 = or i1 %60, %61
  br i1 %76, label %78, label %166

; <label>:78:                                     ; preds = %52, %166
  call void @_ZNSaIcED1Ev(%"class.std::allocator"* %19) #3
  %79 = load i32, i32* @x.32
  %80 = load i32, i32* @y.33
  %81 = add i32 %79, 1784262749
  %82 = sub i32 %81, 1
  %83 = sub i32 %82, 1784262749
  %84 = sub i32 %79, 1
  %85 = mul i32 %79, %83
  %86 = urem i32 %85, 2
  %87 = icmp eq i32 %86, 0
  %88 = icmp slt i32 %80, 10
  %89 = xor i1 %87, true
  %90 = xor i1 %88, true
  %91 = xor i1 true, true
  %92 = and i1 %89, true
  %93 = and i1 %87, %91
  %94 = and i1 %90, true
  %95 = and i1 %88, %91
  %96 = or i1 %92, %93
  %97 = or i1 %94, %95
  %98 = xor i1 %96, %97
  %99 = or i1 %89, %90
  %100 = xor i1 %99, true
  %101 = or i1 true, %91
  %102 = and i1 %100, %101
  %103 = or i1 %98, %102
  %104 = or i1 %87, %88
  br i1 %103, label %105, label %166

; <label>:105:                                    ; preds = %78
  ret void

; <label>:106:                                    ; preds = %51
  %107 = landingpad { i8*, i32 }
          cleanup
  %108 = extractvalue { i8*, i32 } %107, 0
  store i8* %108, i8** %20, align 8
  %109 = extractvalue { i8*, i32 } %107, 1
  store i32 %109, i32* %21, align 4
  call void @_ZNSaIcED1Ev(%"class.std::allocator"* %19) #3
  br label %110

; <label>:110:                                    ; preds = %106
  %111 = load i32, i32* @x.32
  %112 = load i32, i32* @y.33
  %113 = add i32 %111, -1777905263
  %114 = sub i32 %113, 1
  %115 = sub i32 %114, -1777905263
  %116 = sub i32 %111, 1
  %117 = mul i32 %111, %115
  %118 = urem i32 %117, 2
  %119 = icmp eq i32 %118, 0
  %120 = icmp slt i32 %112, 10
  %121 = xor i1 %119, true
  %122 = xor i1 %120, true
  %123 = xor i1 true, true
  %124 = and i1 %121, true
  %125 = and i1 %119, %123
  %126 = and i1 %122, true
  %127 = and i1 %120, %123
  %128 = or i1 %124, %125
  %129 = or i1 %126, %127
  %130 = xor i1 %128, %129
  %131 = or i1 %121, %122
  %132 = xor i1 %131, true
  %133 = or i1 true, %123
  %134 = and i1 %132, %133
  %135 = or i1 %130, %134
  %136 = or i1 %119, %120
  br i1 %135, label %137, label %167

; <label>:137:                                    ; preds = %110, %167
  %138 = load i8*, i8** %20, align 8
  %139 = load i32, i32* %21, align 4
  %140 = insertvalue { i8*, i32 } undef, i8* %138, 0
  %141 = insertvalue { i8*, i32 } %140, i32 %139, 1
  %142 = load i32, i32* @x.32
  %143 = load i32, i32* @y.33
  %144 = add i32 %142, -1976990307
  %145 = sub i32 %144, 1
  %146 = sub i32 %145, -1976990307
  %147 = sub i32 %142, 1
  %148 = mul i32 %142, %146
  %149 = urem i32 %148, 2
  %150 = icmp eq i32 %149, 0
  %151 = icmp slt i32 %143, 10
  %152 = and i1 %150, %151
  %153 = xor i1 %150, %151
  %154 = or i1 %152, %153
  %155 = or i1 %150, %151
  br i1 %154, label %156, label %167

; <label>:156:                                    ; preds = %137
  resume { i8*, i32 } %141

; <label>:157:                                    ; preds = %17, %2
  %158 = alloca i8, align 1
  %159 = alloca %"class.std::allocator", align 1
  %160 = alloca i8*
  %161 = alloca i32
  %162 = zext i1 %1 to i8
  store i8 %162, i8* %158, align 1
  %163 = load i8, i8* %158, align 1
  %164 = trunc i8 %163 to i1
  %165 = select i1 %164, i8* getelementptr inbounds ([5 x i8], [5 x i8]* @.str, i32 0, i32 0), i8* getelementptr inbounds ([6 x i8], [6 x i8]* @.str.1, i32 0, i32 0)
  call void @_ZNSaIcEC1Ev(%"class.std::allocator"* %159) #3
  br label %17

; <label>:166:                                    ; preds = %78, %52
  call void @_ZNSaIcED1Ev(%"class.std::allocator"* %19) #3
  br label %78

; <label>:167:                                    ; preds = %137, %110
  %168 = load i8*, i8** %20, align 8
  %169 = load i32, i32* %21, align 4
  %170 = insertvalue { i8*, i32 } undef, i8* %168, 0
  %171 = insertvalue { i8*, i32 } %170, i32 %169, 1
  br label %137
}

; Function Attrs: noinline uwtable
define void @_Z9debug_outv() #0 {
  %1 = call dereferenceable(272) %"class.std::basic_ostream"* @_ZStlsISt11char_traitsIcEERSt13basic_ostreamIcT_ES5_PKc(%"class.std::basic_ostream"* dereferenceable(272) @_ZSt4cerr, i8* getelementptr inbounds ([2 x i8], [2 x i8]* @.str.2, i32 0, i32 0))
  ret void
}

declare dereferenceable(272) %"class.std::basic_ostream"* @_ZStlsISt11char_traitsIcEERSt13basic_ostreamIcT_ES5_PKc(%"class.std::basic_ostream"* dereferenceable(272), i8*) #1

; Function Attrs: noinline uwtable
define void @_Z5Printv() #0 {
  %1 = call dereferenceable(272) %"class.std::basic_ostream"* @_ZStlsISt11char_traitsIcEERSt13basic_ostreamIcT_ES5_PKc(%"class.std::basic_ostream"* dereferenceable(272) @_ZSt4cout, i8* getelementptr inbounds ([2 x i8], [2 x i8]* @.str.2, i32 0, i32 0))
  ret void
}

; Function Attrs: noinline norecurse uwtable
define i32 @main() #5 personality i8* bitcast (i32 (...)* @__gxx_personality_v0 to i8*) {
  %1 = load i32, i32* @x.38
  %2 = load i32, i32* @y.39
  %3 = sub i32 0, 1
  %4 = add i32 %1, %3
  %5 = sub i32 %1, 1
  %6 = mul i32 %1, %4
  %7 = urem i32 %6, 2
  %8 = icmp eq i32 %7, 0
  %9 = icmp slt i32 %2, 10
  %10 = xor i1 %8, true
  %11 = xor i1 %9, true
  %12 = xor i1 false, true
  %13 = and i1 %10, false
  %14 = and i1 %8, %12
  %15 = and i1 %11, false
  %16 = and i1 %9, %12
  %17 = or i1 %13, %14
  %18 = or i1 %15, %16
  %19 = xor i1 %17, %18
  %20 = or i1 %10, %11
  %21 = xor i1 %20, true
  %22 = or i1 false, %12
  %23 = and i1 %21, %22
  %24 = or i1 %19, %23
  %25 = or i1 %8, %9
  br i1 %24, label %26, label %1018

; <label>:26:                                     ; preds = %0, %1018
  %27 = alloca i32, align 4
  %28 = alloca i32, align 4
  %29 = alloca i32, align 4
  %30 = alloca %"class.std::__debug::vector", align 8
  %31 = alloca %"class.std::allocator.0", align 1
  %32 = alloca i8*
  %33 = alloca i32
  %34 = alloca %"class.std::__debug::vector", align 8
  %35 = alloca %"class.std::allocator.0", align 1
  %36 = alloca %class.Unionfind, align 8
  %37 = alloca i32, align 4
  %38 = alloca i32, align 4
  %39 = alloca i32, align 4
  %40 = alloca i32, align 4
  %41 = alloca %"class.std::__debug::vector.3", align 8
  %42 = alloca i32, align 4
  %43 = alloca %"class.std::__debug::vector.3"*, align 8
  %44 = alloca %"class.__gnu_debug::_Safe_iterator", align 8
  %45 = alloca %"class.__gnu_debug::_Safe_iterator", align 8
  %46 = alloca i32
  %47 = alloca %"class.std::__debug::vector", align 8
  %48 = alloca %"class.std::__debug::set", align 8
  %49 = alloca %"class.std::__debug::vector"*, align 8
  %50 = alloca %"class.__gnu_debug::_Safe_iterator.21", align 8
  %51 = alloca %"class.__gnu_debug::_Safe_iterator.21", align 8
  %52 = alloca i32, align 4
  %53 = alloca %"struct.std::pair", align 8
  %54 = alloca %"class.std::__debug::vector"*, align 8
  %55 = alloca %"class.__gnu_debug::_Safe_iterator.21", align 8
  %56 = alloca %"class.__gnu_debug::_Safe_iterator.21", align 8
  %57 = alloca i32, align 4
  %58 = alloca %"class.__gnu_debug::_Safe_iterator.23", align 8
  %59 = alloca %"class.__gnu_debug::_Safe_iterator.23", align 8
  store i32 0, i32* %27, align 4
  %60 = call zeroext i1 @_ZNSt8ios_base15sync_with_stdioEb(i1 zeroext false)
  %61 = load i8*, i8** bitcast (%"class.std::basic_istream"* @_ZSt3cin to i8**), align 8
  %62 = getelementptr i8, i8* %61, i64 -24
  %63 = bitcast i8* %62 to i64*
  %64 = load i64, i64* %63, align 8
  %65 = getelementptr inbounds i8, i8* bitcast (%"class.std::basic_istream"* @_ZSt3cin to i8*), i64 %64
  %66 = bitcast i8* %65 to %"class.std::basic_ios"*
  %67 = call %"class.std::basic_ostream"* @_ZNSt9basic_iosIcSt11char_traitsIcEE3tieEPSo(%"class.std::basic_ios"* %66, %"class.std::basic_ostream"* null)
  %68 = call dereferenceable(280) %"class.std::basic_istream"* @_ZNSirsERi(%"class.std::basic_istream"* @_ZSt3cin, i32* dereferenceable(4) %28)
  %69 = call dereferenceable(280) %"class.std::basic_istream"* @_ZNSirsERi(%"class.std::basic_istream"* %68, i32* dereferenceable(4) %29)
  %70 = load i32, i32* %28, align 4
  %71 = sext i32 %70 to i64
  call void @_ZNSaIiEC2Ev(%"class.std::allocator.0"* %31) #3
  %72 = load i32, i32* @x.38
  %73 = load i32, i32* @y.39
  %74 = add i32 %72, 18438554
  %75 = sub i32 %74, 1
  %76 = sub i32 %75, 18438554
  %77 = sub i32 %72, 1
  %78 = mul i32 %72, %76
  %79 = urem i32 %78, 2
  %80 = icmp eq i32 %79, 0
  %81 = icmp slt i32 %73, 10
  %82 = xor i1 %80, true
  %83 = xor i1 %81, true
  %84 = xor i1 true, true
  %85 = and i1 %82, true
  %86 = and i1 %80, %84
  %87 = and i1 %83, true
  %88 = and i1 %81, %84
  %89 = or i1 %85, %86
  %90 = or i1 %87, %88
  %91 = xor i1 %89, %90
  %92 = or i1 %82, %83
  %93 = xor i1 %92, true
  %94 = or i1 true, %84
  %95 = and i1 %93, %94
  %96 = or i1 %91, %95
  %97 = or i1 %80, %81
  br i1 %96, label %98, label %1018

; <label>:98:                                     ; preds = %26
  invoke void @_ZNSt7__debug6vectorIiSaIiEEC2EmRKS1_(%"class.std::__debug::vector"* %30, i64 %71, %"class.std::allocator.0"* dereferenceable(1) %31)
          to label %99 unwind label %264

; <label>:99:                                     ; preds = %98
  call void @_ZNSaIiED2Ev(%"class.std::allocator.0"* %31) #3
  %100 = load i32, i32* %28, align 4
  %101 = sext i32 %100 to i64
  call void @_ZNSaIiEC2Ev(%"class.std::allocator.0"* %35) #3
  invoke void @_ZNSt7__debug6vectorIiSaIiEEC2EmRKS1_(%"class.std::__debug::vector"* %34, i64 %101, %"class.std::allocator.0"* dereferenceable(1) %35)
          to label %102 unwind label %268

; <label>:102:                                    ; preds = %99
  %103 = load i32, i32* @x.38
  %104 = load i32, i32* @y.39
  %105 = sub i32 0, 1
  %106 = add i32 %103, %105
  %107 = sub i32 %103, 1
  %108 = mul i32 %103, %106
  %109 = urem i32 %108, 2
  %110 = icmp eq i32 %109, 0
  %111 = icmp slt i32 %104, 10
  %112 = and i1 %110, %111
  %113 = xor i1 %110, %111
  %114 = or i1 %112, %113
  %115 = or i1 %110, %111
  br i1 %114, label %116, label %1064

; <label>:116:                                    ; preds = %102, %1064
  call void @_ZNSaIiED2Ev(%"class.std::allocator.0"* %35) #3
  %117 = load i32, i32* %28, align 4
  %118 = load i32, i32* @x.38
  %119 = load i32, i32* @y.39
  %120 = sub i32 %118, 2120241814
  %121 = sub i32 %120, 1
  %122 = add i32 %121, 2120241814
  %123 = sub i32 %118, 1
  %124 = mul i32 %118, %122
  %125 = urem i32 %124, 2
  %126 = icmp eq i32 %125, 0
  %127 = icmp slt i32 %119, 10
  %128 = xor i1 %126, true
  %129 = xor i1 %127, true
  %130 = xor i1 false, true
  %131 = and i1 %128, false
  %132 = and i1 %126, %130
  %133 = and i1 %129, false
  %134 = and i1 %127, %130
  %135 = or i1 %131, %132
  %136 = or i1 %133, %134
  %137 = xor i1 %135, %136
  %138 = or i1 %128, %129
  %139 = xor i1 %138, true
  %140 = or i1 false, %130
  %141 = and i1 %139, %140
  %142 = or i1 %137, %141
  %143 = or i1 %126, %127
  br i1 %142, label %144, label %1064

; <label>:144:                                    ; preds = %116
  invoke void @_ZN9UnionfindC2Ei(%class.Unionfind* %36, i32 %117)
          to label %145 unwind label %272

; <label>:145:                                    ; preds = %144
  store i32 0, i32* %37, align 4
  br label %146

; <label>:146:                                    ; preds = %263, %145
  %147 = load i32, i32* @x.38
  %148 = load i32, i32* @y.39
  %149 = add i32 %147, 1190615039
  %150 = sub i32 %149, 1
  %151 = sub i32 %150, 1190615039
  %152 = sub i32 %147, 1
  %153 = mul i32 %147, %151
  %154 = urem i32 %153, 2
  %155 = icmp eq i32 %154, 0
  %156 = icmp slt i32 %148, 10
  %157 = and i1 %155, %156
  %158 = xor i1 %155, %156
  %159 = or i1 %157, %158
  %160 = or i1 %155, %156
  br i1 %159, label %161, label %1066

; <label>:161:                                    ; preds = %146, %1066
  %162 = load i32, i32* %37, align 4
  %163 = sext i32 %162 to i64
  %164 = load i32, i32* %28, align 4
  %165 = sext i32 %164 to i64
  %166 = icmp slt i64 %163, %165
  %167 = load i32, i32* @x.38
  %168 = load i32, i32* @y.39
  %169 = sub i32 %167, -1568657600
  %170 = sub i32 %169, 1
  %171 = add i32 %170, -1568657600
  %172 = sub i32 %167, 1
  %173 = mul i32 %167, %171
  %174 = urem i32 %173, 2
  %175 = icmp eq i32 %174, 0
  %176 = icmp slt i32 %168, 10
  %177 = xor i1 %175, true
  %178 = xor i1 %176, true
  %179 = xor i1 true, true
  %180 = and i1 %177, true
  %181 = and i1 %175, %179
  %182 = and i1 %178, true
  %183 = and i1 %176, %179
  %184 = or i1 %180, %181
  %185 = or i1 %182, %183
  %186 = xor i1 %184, %185
  %187 = or i1 %177, %178
  %188 = xor i1 %187, true
  %189 = or i1 true, %179
  %190 = and i1 %188, %189
  %191 = or i1 %186, %190
  %192 = or i1 %175, %176
  br i1 %191, label %193, label %1066

; <label>:193:                                    ; preds = %161
  br i1 %166, label %194, label %280

; <label>:194:                                    ; preds = %193
  %195 = load i32, i32* %37, align 4
  %196 = sext i32 %195 to i64
  %197 = call dereferenceable(4) i32* @_ZNSt7__debug6vectorIiSaIiEEixEm(%"class.std::__debug::vector"* %30, i64 %196) #3
  %198 = invoke dereferenceable(280) %"class.std::basic_istream"* @_ZNSirsERi(%"class.std::basic_istream"* @_ZSt3cin, i32* dereferenceable(4) %197)
          to label %199 unwind label %276

; <label>:199:                                    ; preds = %194
  %200 = load i32, i32* %37, align 4
  %201 = sext i32 %200 to i64
  %202 = call dereferenceable(4) i32* @_ZNSt7__debug6vectorIiSaIiEEixEm(%"class.std::__debug::vector"* %30, i64 %201) #3
  %203 = load i32, i32* %202, align 4
  %204 = add i32 %203, -1877428028
  %205 = add i32 %204, -1
  %206 = sub i32 %205, -1877428028
  %207 = add nsw i32 %203, -1
  store i32 %206, i32* %202, align 4
  %208 = load i32, i32* %37, align 4
  %209 = load i32, i32* %37, align 4
  %210 = sext i32 %209 to i64
  %211 = call dereferenceable(4) i32* @_ZNSt7__debug6vectorIiSaIiEEixEm(%"class.std::__debug::vector"* %30, i64 %210) #3
  %212 = load i32, i32* %211, align 4
  %213 = sext i32 %212 to i64
  %214 = call dereferenceable(4) i32* @_ZNSt7__debug6vectorIiSaIiEEixEm(%"class.std::__debug::vector"* %34, i64 %213) #3
  store i32 %208, i32* %214, align 4
  br label %215

; <label>:215:                                    ; preds = %199
  %216 = load i32, i32* @x.38
  %217 = load i32, i32* @y.39
  %218 = sub i32 %216, 1113714974
  %219 = sub i32 %218, 1
  %220 = add i32 %219, 1113714974
  %221 = sub i32 %216, 1
  %222 = mul i32 %216, %220
  %223 = urem i32 %222, 2
  %224 = icmp eq i32 %223, 0
  %225 = icmp slt i32 %217, 10
  %226 = xor i1 %224, true
  %227 = xor i1 %225, true
  %228 = xor i1 true, true
  %229 = and i1 %226, true
  %230 = and i1 %224, %228
  %231 = and i1 %227, true
  %232 = and i1 %225, %228
  %233 = or i1 %229, %230
  %234 = or i1 %231, %232
  %235 = xor i1 %233, %234
  %236 = or i1 %226, %227
  %237 = xor i1 %236, true
  %238 = or i1 true, %228
  %239 = and i1 %237, %238
  %240 = or i1 %235, %239
  %241 = or i1 %224, %225
  br i1 %240, label %242, label %1072

; <label>:242:                                    ; preds = %215, %1072
  %243 = load i32, i32* %37, align 4
  %244 = sub i32 0, %243
  %245 = sub i32 0, 1
  %246 = add i32 %244, %245
  %247 = sub i32 0, %246
  %248 = add nsw i32 %243, 1
  store i32 %247, i32* %37, align 4
  %249 = load i32, i32* @x.38
  %250 = load i32, i32* @y.39
  %251 = sub i32 %249, -848579953
  %252 = sub i32 %251, 1
  %253 = add i32 %252, -848579953
  %254 = sub i32 %249, 1
  %255 = mul i32 %249, %253
  %256 = urem i32 %255, 2
  %257 = icmp eq i32 %256, 0
  %258 = icmp slt i32 %250, 10
  %259 = and i1 %257, %258
  %260 = xor i1 %257, %258
  %261 = or i1 %259, %260
  %262 = or i1 %257, %258
  br i1 %261, label %263, label %1072

; <label>:263:                                    ; preds = %242
  br label %146

; <label>:264:                                    ; preds = %98
  %265 = landingpad { i8*, i32 }
          cleanup
  %266 = extractvalue { i8*, i32 } %265, 0
  store i8* %266, i8** %32, align 8
  %267 = extractvalue { i8*, i32 } %265, 1
  store i32 %267, i32* %33, align 4
  call void @_ZNSaIiED2Ev(%"class.std::allocator.0"* %31) #3
  br label %971

; <label>:268:                                    ; preds = %99
  %269 = landingpad { i8*, i32 }
          cleanup
  %270 = extractvalue { i8*, i32 } %269, 0
  store i8* %270, i8** %32, align 8
  %271 = extractvalue { i8*, i32 } %269, 1
  store i32 %271, i32* %33, align 4
  call void @_ZNSaIiED2Ev(%"class.std::allocator.0"* %35) #3
  br label %970

; <label>:272:                                    ; preds = %144
  %273 = landingpad { i8*, i32 }
          cleanup
  %274 = extractvalue { i8*, i32 } %273, 0
  store i8* %274, i8** %32, align 8
  %275 = extractvalue { i8*, i32 } %273, 1
  store i32 %275, i32* %33, align 4
  br label %969

; <label>:276:                                    ; preds = %506, %415, %413, %411, %194
  %277 = landingpad { i8*, i32 }
          cleanup
  %278 = extractvalue { i8*, i32 } %277, 0
  store i8* %278, i8** %32, align 8
  %279 = extractvalue { i8*, i32 } %277, 1
  store i32 %279, i32* %33, align 4
  br label %927

; <label>:280:                                    ; preds = %193
  %281 = load i32, i32* @x.38
  %282 = load i32, i32* @y.39
  %283 = sub i32 %281, 266357270
  %284 = sub i32 %283, 1
  %285 = add i32 %284, 266357270
  %286 = sub i32 %281, 1
  %287 = mul i32 %281, %285
  %288 = urem i32 %287, 2
  %289 = icmp eq i32 %288, 0
  %290 = icmp slt i32 %282, 10
  %291 = xor i1 %289, true
  %292 = xor i1 %290, true
  %293 = xor i1 false, true
  %294 = and i1 %291, false
  %295 = and i1 %289, %293
  %296 = and i1 %292, false
  %297 = and i1 %290, %293
  %298 = or i1 %294, %295
  %299 = or i1 %296, %297
  %300 = xor i1 %298, %299
  %301 = or i1 %291, %292
  %302 = xor i1 %301, true
  %303 = or i1 false, %293
  %304 = and i1 %302, %303
  %305 = or i1 %300, %304
  %306 = or i1 %289, %290
  br i1 %305, label %307, label %1079

; <label>:307:                                    ; preds = %280, %1079
  store i32 0, i32* %38, align 4
  %308 = load i32, i32* @x.38
  %309 = load i32, i32* @y.39
  %310 = add i32 %308, 1238089503
  %311 = sub i32 %310, 1
  %312 = sub i32 %311, 1238089503
  %313 = sub i32 %308, 1
  %314 = mul i32 %308, %312
  %315 = urem i32 %314, 2
  %316 = icmp eq i32 %315, 0
  %317 = icmp slt i32 %309, 10
  %318 = and i1 %316, %317
  %319 = xor i1 %316, %317
  %320 = or i1 %318, %319
  %321 = or i1 %316, %317
  br i1 %320, label %322, label %1079

; <label>:322:                                    ; preds = %307
  br label %323

; <label>:323:                                    ; preds = %471, %322
  %324 = load i32, i32* @x.38
  %325 = load i32, i32* @y.39
  %326 = sub i32 0, 1
  %327 = add i32 %324, %326
  %328 = sub i32 %324, 1
  %329 = mul i32 %324, %327
  %330 = urem i32 %329, 2
  %331 = icmp eq i32 %330, 0
  %332 = icmp slt i32 %325, 10
  %333 = and i1 %331, %332
  %334 = xor i1 %331, %332
  %335 = or i1 %333, %334
  %336 = or i1 %331, %332
  br i1 %335, label %337, label %1080

; <label>:337:                                    ; preds = %323, %1080
  %338 = load i32, i32* %38, align 4
  %339 = sext i32 %338 to i64
  %340 = load i32, i32* %29, align 4
  %341 = sext i32 %340 to i64
  %342 = icmp slt i64 %339, %341
  %343 = load i32, i32* @x.38
  %344 = load i32, i32* @y.39
  %345 = add i32 %343, -969598599
  %346 = sub i32 %345, 1
  %347 = sub i32 %346, -969598599
  %348 = sub i32 %343, 1
  %349 = mul i32 %343, %347
  %350 = urem i32 %349, 2
  %351 = icmp eq i32 %350, 0
  %352 = icmp slt i32 %344, 10
  %353 = xor i1 %351, true
  %354 = xor i1 %352, true
  %355 = xor i1 false, true
  %356 = and i1 %353, false
  %357 = and i1 %351, %355
  %358 = and i1 %354, false
  %359 = and i1 %352, %355
  %360 = or i1 %356, %357
  %361 = or i1 %358, %359
  %362 = xor i1 %360, %361
  %363 = or i1 %353, %354
  %364 = xor i1 %363, true
  %365 = or i1 false, %355
  %366 = and i1 %364, %365
  %367 = or i1 %362, %366
  %368 = or i1 %351, %352
  br i1 %367, label %369, label %1080

; <label>:369:                                    ; preds = %337
  br i1 %342, label %370, label %477

; <label>:370:                                    ; preds = %369
  %371 = load i32, i32* @x.38
  %372 = load i32, i32* @y.39
  %373 = sub i32 0, 1
  %374 = add i32 %371, %373
  %375 = sub i32 %371, 1
  %376 = mul i32 %371, %374
  %377 = urem i32 %376, 2
  %378 = icmp eq i32 %377, 0
  %379 = icmp slt i32 %372, 10
  %380 = xor i1 %378, true
  %381 = xor i1 %379, true
  %382 = xor i1 true, true
  %383 = and i1 %380, true
  %384 = and i1 %378, %382
  %385 = and i1 %381, true
  %386 = and i1 %379, %382
  %387 = or i1 %383, %384
  %388 = or i1 %385, %386
  %389 = xor i1 %387, %388
  %390 = or i1 %380, %381
  %391 = xor i1 %390, true
  %392 = or i1 true, %382
  %393 = and i1 %391, %392
  %394 = or i1 %389, %393
  %395 = or i1 %378, %379
  br i1 %394, label %396, label %1086

; <label>:396:                                    ; preds = %370, %1086
  %397 = load i32, i32* @x.38
  %398 = load i32, i32* @y.39
  %399 = sub i32 %397, 1241850009
  %400 = sub i32 %399, 1
  %401 = add i32 %400, 1241850009
  %402 = sub i32 %397, 1
  %403 = mul i32 %397, %401
  %404 = urem i32 %403, 2
  %405 = icmp eq i32 %404, 0
  %406 = icmp slt i32 %398, 10
  %407 = and i1 %405, %406
  %408 = xor i1 %405, %406
  %409 = or i1 %407, %408
  %410 = or i1 %405, %406
  br i1 %409, label %411, label %1086

; <label>:411:                                    ; preds = %396
  %412 = invoke dereferenceable(280) %"class.std::basic_istream"* @_ZNSirsERi(%"class.std::basic_istream"* @_ZSt3cin, i32* dereferenceable(4) %39)
          to label %413 unwind label %276

; <label>:413:                                    ; preds = %411
  %414 = invoke dereferenceable(280) %"class.std::basic_istream"* @_ZNSirsERi(%"class.std::basic_istream"* %412, i32* dereferenceable(4) %40)
          to label %415 unwind label %276

; <label>:415:                                    ; preds = %413
  %416 = load i32, i32* %39, align 4
  %417 = sub i32 0, %416
  %418 = sub i32 0, -1
  %419 = add i32 %417, %418
  %420 = sub i32 0, %419
  %421 = add nsw i32 %416, -1
  store i32 %420, i32* %39, align 4
  %422 = load i32, i32* %40, align 4
  %423 = sub i32 0, -1
  %424 = sub i32 %422, %423
  %425 = add nsw i32 %422, -1
  store i32 %424, i32* %40, align 4
  %426 = load i32, i32* %39, align 4
  %427 = load i32, i32* %40, align 4
  invoke void @_ZN9Unionfind5uniteEii(%class.Unionfind* %36, i32 %426, i32 %427)
          to label %428 unwind label %276

; <label>:428:                                    ; preds = %415
  %429 = load i32, i32* @x.38
  %430 = load i32, i32* @y.39
  %431 = add i32 %429, 283276973
  %432 = sub i32 %431, 1
  %433 = sub i32 %432, 283276973
  %434 = sub i32 %429, 1
  %435 = mul i32 %429, %433
  %436 = urem i32 %435, 2
  %437 = icmp eq i32 %436, 0
  %438 = icmp slt i32 %430, 10
  %439 = and i1 %437, %438
  %440 = xor i1 %437, %438
  %441 = or i1 %439, %440
  %442 = or i1 %437, %438
  br i1 %441, label %443, label %1087

; <label>:443:                                    ; preds = %428, %1087
  %444 = load i32, i32* @x.38
  %445 = load i32, i32* @y.39
  %446 = add i32 %444, -905705986
  %447 = sub i32 %446, 1
  %448 = sub i32 %447, -905705986
  %449 = sub i32 %444, 1
  %450 = mul i32 %444, %448
  %451 = urem i32 %450, 2
  %452 = icmp eq i32 %451, 0
  %453 = icmp slt i32 %445, 10
  %454 = xor i1 %452, true
  %455 = xor i1 %453, true
  %456 = xor i1 true, true
  %457 = and i1 %454, true
  %458 = and i1 %452, %456
  %459 = and i1 %455, true
  %460 = and i1 %453, %456
  %461 = or i1 %457, %458
  %462 = or i1 %459, %460
  %463 = xor i1 %461, %462
  %464 = or i1 %454, %455
  %465 = xor i1 %464, true
  %466 = or i1 true, %456
  %467 = and i1 %465, %466
  %468 = or i1 %463, %467
  %469 = or i1 %452, %453
  br i1 %468, label %470, label %1087

; <label>:470:                                    ; preds = %443
  br label %471

; <label>:471:                                    ; preds = %470
  %472 = load i32, i32* %38, align 4
  %473 = sub i32 %472, 783425270
  %474 = add i32 %473, 1
  %475 = add i32 %474, 783425270
  %476 = add nsw i32 %472, 1
  store i32 %475, i32* %38, align 4
  br label %323

; <label>:477:                                    ; preds = %369
  %478 = load i32, i32* @x.38
  %479 = load i32, i32* @y.39
  %480 = sub i32 0, 1
  %481 = add i32 %478, %480
  %482 = sub i32 %478, 1
  %483 = mul i32 %478, %481
  %484 = urem i32 %483, 2
  %485 = icmp eq i32 %484, 0
  %486 = icmp slt i32 %479, 10
  %487 = and i1 %485, %486
  %488 = xor i1 %485, %486
  %489 = or i1 %487, %488
  %490 = or i1 %485, %486
  br i1 %489, label %491, label %1088

; <label>:491:                                    ; preds = %477, %1088
  %492 = load i32, i32* @x.38
  %493 = load i32, i32* @y.39
  %494 = sub i32 %492, -780575325
  %495 = sub i32 %494, 1
  %496 = add i32 %495, -780575325
  %497 = sub i32 %492, 1
  %498 = mul i32 %492, %496
  %499 = urem i32 %498, 2
  %500 = icmp eq i32 %499, 0
  %501 = icmp slt i32 %493, 10
  %502 = and i1 %500, %501
  %503 = xor i1 %500, %501
  %504 = or i1 %502, %503
  %505 = or i1 %500, %501
  br i1 %504, label %506, label %1088

; <label>:506:                                    ; preds = %491
  invoke void @_ZN9Unionfind5groupEv(%"class.std::__debug::vector.3"* sret %41, %class.Unionfind* %36)
          to label %507 unwind label %276

; <label>:507:                                    ; preds = %506
  store i32 0, i32* %42, align 4
  store %"class.std::__debug::vector.3"* %41, %"class.std::__debug::vector.3"** %43, align 8
  %508 = load %"class.std::__debug::vector.3"*, %"class.std::__debug::vector.3"** %43, align 8
  call void @_ZNSt7__debug6vectorINS0_IiSaIiEEESaIS2_EE5beginEv(%"class.__gnu_debug::_Safe_iterator"* sret %44, %"class.std::__debug::vector.3"* %508) #3
  %509 = load %"class.std::__debug::vector.3"*, %"class.std::__debug::vector.3"** %43, align 8
  call void @_ZNSt7__debug6vectorINS0_IiSaIiEEESaIS2_EE3endEv(%"class.__gnu_debug::_Safe_iterator"* sret %45, %"class.std::__debug::vector.3"* %509) #3
  br label %510

; <label>:510:                                    ; preds = %871, %507
  %511 = call zeroext i1 @_ZN11__gnu_debugneIN9__gnu_cxx17__normal_iteratorIPNSt7__debug6vectorIiSaIiEEENSt9__cxx19986vectorIS6_SaIS6_EEEEENS4_IS6_SA_EEEEbRKNS_14_Safe_iteratorIT_T0_EESJ_(%"class.__gnu_debug::_Safe_iterator"* dereferenceable(40) %44, %"class.__gnu_debug::_Safe_iterator"* dereferenceable(40) %45) #3
  br i1 %511, label %542, label %512

; <label>:512:                                    ; preds = %510
  %513 = load i32, i32* @x.38
  %514 = load i32, i32* @y.39
  %515 = add i32 %513, 1362378477
  %516 = sub i32 %515, 1
  %517 = sub i32 %516, 1362378477
  %518 = sub i32 %513, 1
  %519 = mul i32 %513, %517
  %520 = urem i32 %519, 2
  %521 = icmp eq i32 %520, 0
  %522 = icmp slt i32 %514, 10
  %523 = and i1 %521, %522
  %524 = xor i1 %521, %522
  %525 = or i1 %523, %524
  %526 = or i1 %521, %522
  br i1 %525, label %527, label %1089

; <label>:527:                                    ; preds = %512, %1089
  store i32 8, i32* %46, align 4
  call void @_ZN11__gnu_debug14_Safe_iteratorIN9__gnu_cxx17__normal_iteratorIPNSt7__debug6vectorIiSaIiEEENSt9__cxx19986vectorIS6_SaIS6_EEEEENS4_IS6_SA_EEED2Ev(%"class.__gnu_debug::_Safe_iterator"* %45) #3
  call void @_ZN11__gnu_debug14_Safe_iteratorIN9__gnu_cxx17__normal_iteratorIPNSt7__debug6vectorIiSaIiEEENSt9__cxx19986vectorIS6_SaIS6_EEEEENS4_IS6_SA_EEED2Ev(%"class.__gnu_debug::_Safe_iterator"* %44) #3
  %528 = load i32, i32* @x.38
  %529 = load i32, i32* @y.39
  %530 = sub i32 0, 1
  %531 = add i32 %528, %530
  %532 = sub i32 %528, 1
  %533 = mul i32 %528, %531
  %534 = urem i32 %533, 2
  %535 = icmp eq i32 %534, 0
  %536 = icmp slt i32 %529, 10
  %537 = and i1 %535, %536
  %538 = xor i1 %535, %536
  %539 = or i1 %537, %538
  %540 = or i1 %535, %536
  br i1 %539, label %541, label %1089

; <label>:541:                                    ; preds = %527
  br label %874

; <label>:542:                                    ; preds = %510
  %543 = call dereferenceable(56) %"class.std::__debug::vector"* @_ZNK11__gnu_debug14_Safe_iteratorIN9__gnu_cxx17__normal_iteratorIPNSt7__debug6vectorIiSaIiEEENSt9__cxx19986vectorIS6_SaIS6_EEEEENS4_IS6_SA_EEEdeEv(%"class.__gnu_debug::_Safe_iterator"* %44) #3
  invoke void @_ZNSt7__debug6vectorIiSaIiEEC2ERKS2_(%"class.std::__debug::vector"* %47, %"class.std::__debug::vector"* dereferenceable(56) %543)
          to label %544 unwind label %604

; <label>:544:                                    ; preds = %542
  call void @_ZNSt7__debug3setIiSt4lessIiESaIiEEC2Ev(%"class.std::__debug::set"* %48) #3
  store %"class.std::__debug::vector"* %47, %"class.std::__debug::vector"** %49, align 8
  %545 = load %"class.std::__debug::vector"*, %"class.std::__debug::vector"** %49, align 8
  call void @_ZNSt7__debug6vectorIiSaIiEE5beginEv(%"class.__gnu_debug::_Safe_iterator.21"* sret %50, %"class.std::__debug::vector"* %545) #3
  %546 = load %"class.std::__debug::vector"*, %"class.std::__debug::vector"** %49, align 8
  call void @_ZNSt7__debug6vectorIiSaIiEE3endEv(%"class.__gnu_debug::_Safe_iterator.21"* sret %51, %"class.std::__debug::vector"* %546) #3
  br label %547

; <label>:547:                                    ; preds = %612, %544
  %548 = call zeroext i1 @_ZN11__gnu_debugneIN9__gnu_cxx17__normal_iteratorIPiNSt9__cxx19986vectorIiSaIiEEEEENSt7__debug6vectorIiS6_EEEEbRKNS_14_Safe_iteratorIT_T0_EESH_(%"class.__gnu_debug::_Safe_iterator.21"* dereferenceable(40) %50, %"class.__gnu_debug::_Safe_iterator.21"* dereferenceable(40) %51) #3
  br i1 %548, label %608, label %549

; <label>:549:                                    ; preds = %547
  %550 = load i32, i32* @x.38
  %551 = load i32, i32* @y.39
  %552 = sub i32 %550, -916419739
  %553 = sub i32 %552, 1
  %554 = add i32 %553, -916419739
  %555 = sub i32 %550, 1
  %556 = mul i32 %550, %554
  %557 = urem i32 %556, 2
  %558 = icmp eq i32 %557, 0
  %559 = icmp slt i32 %551, 10
  %560 = xor i1 %558, true
  %561 = xor i1 %559, true
  %562 = xor i1 true, true
  %563 = and i1 %560, true
  %564 = and i1 %558, %562
  %565 = and i1 %561, true
  %566 = and i1 %559, %562
  %567 = or i1 %563, %564
  %568 = or i1 %565, %566
  %569 = xor i1 %567, %568
  %570 = or i1 %560, %561
  %571 = xor i1 %570, true
  %572 = or i1 true, %562
  %573 = and i1 %571, %572
  %574 = or i1 %569, %573
  %575 = or i1 %558, %559
  br i1 %574, label %576, label %1090

; <label>:576:                                    ; preds = %549, %1090
  store i32 10, i32* %46, align 4
  call void @_ZN11__gnu_debug14_Safe_iteratorIN9__gnu_cxx17__normal_iteratorIPiNSt9__cxx19986vectorIiSaIiEEEEENSt7__debug6vectorIiS6_EEED2Ev(%"class.__gnu_debug::_Safe_iterator.21"* %51) #3
  call void @_ZN11__gnu_debug14_Safe_iteratorIN9__gnu_cxx17__normal_iteratorIPiNSt9__cxx19986vectorIiSaIiEEEEENSt7__debug6vectorIiS6_EEED2Ev(%"class.__gnu_debug::_Safe_iterator.21"* %50) #3
  %577 = load i32, i32* @x.38
  %578 = load i32, i32* @y.39
  %579 = sub i32 %577, 1544437698
  %580 = sub i32 %579, 1
  %581 = add i32 %580, 1544437698
  %582 = sub i32 %577, 1
  %583 = mul i32 %577, %581
  %584 = urem i32 %583, 2
  %585 = icmp eq i32 %584, 0
  %586 = icmp slt i32 %578, 10
  %587 = xor i1 %585, true
  %588 = xor i1 %586, true
  %589 = xor i1 true, true
  %590 = and i1 %587, true
  %591 = and i1 %585, %589
  %592 = and i1 %588, true
  %593 = and i1 %586, %589
  %594 = or i1 %590, %591
  %595 = or i1 %592, %593
  %596 = xor i1 %594, %595
  %597 = or i1 %587, %588
  %598 = xor i1 %597, true
  %599 = or i1 true, %589
  %600 = and i1 %598, %599
  %601 = or i1 %596, %600
  %602 = or i1 %585, %586
  br i1 %601, label %603, label %1090

; <label>:603:                                    ; preds = %576
  br label %660

; <label>:604:                                    ; preds = %542
  %605 = landingpad { i8*, i32 }
          cleanup
  %606 = extractvalue { i8*, i32 } %605, 0
  store i8* %606, i8** %32, align 8
  %607 = extractvalue { i8*, i32 } %605, 1
  store i32 %607, i32* %33, align 4
  br label %873

; <label>:608:                                    ; preds = %547
  %609 = call dereferenceable(4) i32* @_ZNK11__gnu_debug14_Safe_iteratorIN9__gnu_cxx17__normal_iteratorIPiNSt9__cxx19986vectorIiSaIiEEEEENSt7__debug6vectorIiS6_EEEdeEv(%"class.__gnu_debug::_Safe_iterator.21"* %50) #3
  %610 = load i32, i32* %609, align 4
  store i32 %610, i32* %52, align 4
  invoke void @_ZNSt7__debug3setIiSt4lessIiESaIiEE6insertERKi(%"struct.std::pair"* sret %53, %"class.std::__debug::set"* %48, i32* dereferenceable(4) %52)
          to label %611 unwind label %614

; <label>:611:                                    ; preds = %608
  call void @_ZNSt4pairIN11__gnu_debug14_Safe_iteratorISt23_Rb_tree_const_iteratorIiENSt7__debug3setIiSt4lessIiESaIiEEEEEbED2Ev(%"struct.std::pair"* %53) #3
  br label %612

; <label>:612:                                    ; preds = %611
  %613 = call dereferenceable(40) %"class.__gnu_debug::_Safe_iterator.21"* @_ZN11__gnu_debug14_Safe_iteratorIN9__gnu_cxx17__normal_iteratorIPiNSt9__cxx19986vectorIiSaIiEEEEENSt7__debug6vectorIiS6_EEEppEv(%"class.__gnu_debug::_Safe_iterator.21"* %50) #3
  br label %547

; <label>:614:                                    ; preds = %608
  %615 = load i32, i32* @x.38
  %616 = load i32, i32* @y.39
  %617 = sub i32 %615, -2050471879
  %618 = sub i32 %617, 1
  %619 = add i32 %618, -2050471879
  %620 = sub i32 %615, 1
  %621 = mul i32 %615, %619
  %622 = urem i32 %621, 2
  %623 = icmp eq i32 %622, 0
  %624 = icmp slt i32 %616, 10
  %625 = xor i1 %623, true
  %626 = xor i1 %624, true
  %627 = xor i1 false, true
  %628 = and i1 %625, false
  %629 = and i1 %623, %627
  %630 = and i1 %626, false
  %631 = and i1 %624, %627
  %632 = or i1 %628, %629
  %633 = or i1 %630, %631
  %634 = xor i1 %632, %633
  %635 = or i1 %625, %626
  %636 = xor i1 %635, true
  %637 = or i1 false, %627
  %638 = and i1 %636, %637
  %639 = or i1 %634, %638
  %640 = or i1 %623, %624
  br i1 %639, label %641, label %1091

; <label>:641:                                    ; preds = %614, %1091
  %642 = landingpad { i8*, i32 }
          cleanup
  %643 = extractvalue { i8*, i32 } %642, 0
  store i8* %643, i8** %32, align 8
  %644 = extractvalue { i8*, i32 } %642, 1
  store i32 %644, i32* %33, align 4
  call void @_ZN11__gnu_debug14_Safe_iteratorIN9__gnu_cxx17__normal_iteratorIPiNSt9__cxx19986vectorIiSaIiEEEEENSt7__debug6vectorIiS6_EEED2Ev(%"class.__gnu_debug::_Safe_iterator.21"* %51) #3
  call void @_ZN11__gnu_debug14_Safe_iteratorIN9__gnu_cxx17__normal_iteratorIPiNSt9__cxx19986vectorIiSaIiEEEEENSt7__debug6vectorIiS6_EEED2Ev(%"class.__gnu_debug::_Safe_iterator.21"* %50) #3
  %645 = load i32, i32* @x.38
  %646 = load i32, i32* @y.39
  %647 = add i32 %645, 1910336189
  %648 = sub i32 %647, 1
  %649 = sub i32 %648, 1910336189
  %650 = sub i32 %645, 1
  %651 = mul i32 %645, %649
  %652 = urem i32 %651, 2
  %653 = icmp eq i32 %652, 0
  %654 = icmp slt i32 %646, 10
  %655 = and i1 %653, %654
  %656 = xor i1 %653, %654
  %657 = or i1 %655, %656
  %658 = or i1 %653, %654
  br i1 %657, label %659, label %1091

; <label>:659:                                    ; preds = %641
  br label %872

; <label>:660:                                    ; preds = %603
  store %"class.std::__debug::vector"* %47, %"class.std::__debug::vector"** %54, align 8
  %661 = load %"class.std::__debug::vector"*, %"class.std::__debug::vector"** %54, align 8
  call void @_ZNSt7__debug6vectorIiSaIiEE5beginEv(%"class.__gnu_debug::_Safe_iterator.21"* sret %55, %"class.std::__debug::vector"* %661) #3
  %662 = load %"class.std::__debug::vector"*, %"class.std::__debug::vector"** %54, align 8
  call void @_ZNSt7__debug6vectorIiSaIiEE3endEv(%"class.__gnu_debug::_Safe_iterator.21"* sret %56, %"class.std::__debug::vector"* %662) #3
  br label %663

; <label>:663:                                    ; preds = %815, %660
  %664 = call zeroext i1 @_ZN11__gnu_debugneIN9__gnu_cxx17__normal_iteratorIPiNSt9__cxx19986vectorIiSaIiEEEEENSt7__debug6vectorIiS6_EEEEbRKNS_14_Safe_iteratorIT_T0_EESH_(%"class.__gnu_debug::_Safe_iterator.21"* dereferenceable(40) %55, %"class.__gnu_debug::_Safe_iterator.21"* dereferenceable(40) %56) #3
  br i1 %664, label %695, label %665

; <label>:665:                                    ; preds = %663
  %666 = load i32, i32* @x.38
  %667 = load i32, i32* @y.39
  %668 = sub i32 0, 1
  %669 = add i32 %666, %668
  %670 = sub i32 %666, 1
  %671 = mul i32 %666, %669
  %672 = urem i32 %671, 2
  %673 = icmp eq i32 %672, 0
  %674 = icmp slt i32 %667, 10
  %675 = and i1 %673, %674
  %676 = xor i1 %673, %674
  %677 = or i1 %675, %676
  %678 = or i1 %673, %674
  br i1 %677, label %679, label %1095

; <label>:679:                                    ; preds = %665, %1095
  store i32 12, i32* %46, align 4
  call void @_ZN11__gnu_debug14_Safe_iteratorIN9__gnu_cxx17__normal_iteratorIPiNSt9__cxx19986vectorIiSaIiEEEEENSt7__debug6vectorIiS6_EEED2Ev(%"class.__gnu_debug::_Safe_iterator.21"* %56) #3
  call void @_ZN11__gnu_debug14_Safe_iteratorIN9__gnu_cxx17__normal_iteratorIPiNSt9__cxx19986vectorIiSaIiEEEEENSt7__debug6vectorIiS6_EEED2Ev(%"class.__gnu_debug::_Safe_iterator.21"* %55) #3
  %680 = load i32, i32* @x.38
  %681 = load i32, i32* @y.39
  %682 = add i32 %680, 2004393395
  %683 = sub i32 %682, 1
  %684 = sub i32 %683, 2004393395
  %685 = sub i32 %680, 1
  %686 = mul i32 %680, %684
  %687 = urem i32 %686, 2
  %688 = icmp eq i32 %687, 0
  %689 = icmp slt i32 %681, 10
  %690 = and i1 %688, %689
  %691 = xor i1 %688, %689
  %692 = or i1 %690, %691
  %693 = or i1 %688, %689
  br i1 %692, label %694, label %1095

; <label>:694:                                    ; preds = %679
  br label %816

; <label>:695:                                    ; preds = %663
  %696 = call dereferenceable(4) i32* @_ZNK11__gnu_debug14_Safe_iteratorIN9__gnu_cxx17__normal_iteratorIPiNSt9__cxx19986vectorIiSaIiEEEEENSt7__debug6vectorIiS6_EEEdeEv(%"class.__gnu_debug::_Safe_iterator.21"* %55) #3
  %697 = load i32, i32* %696, align 4
  store i32 %697, i32* %57, align 4
  %698 = load i32, i32* %57, align 4
  %699 = sext i32 %698 to i64
  %700 = call dereferenceable(4) i32* @_ZNSt7__debug6vectorIiSaIiEEixEm(%"class.std::__debug::vector"* %30, i64 %699) #3
  invoke void @_ZNSt7__debug3setIiSt4lessIiESaIiEE4findERKi(%"class.__gnu_debug::_Safe_iterator.23"* sret %58, %"class.std::__debug::set"* %48, i32* dereferenceable(4) %700)
          to label %701 unwind label %779

; <label>:701:                                    ; preds = %695
  %702 = load i32, i32* @x.38
  %703 = load i32, i32* @y.39
  %704 = sub i32 %702, -384678561
  %705 = sub i32 %704, 1
  %706 = add i32 %705, -384678561
  %707 = sub i32 %702, 1
  %708 = mul i32 %702, %706
  %709 = urem i32 %708, 2
  %710 = icmp eq i32 %709, 0
  %711 = icmp slt i32 %703, 10
  %712 = and i1 %710, %711
  %713 = xor i1 %710, %711
  %714 = or i1 %712, %713
  %715 = or i1 %710, %711
  br i1 %714, label %716, label %1096

; <label>:716:                                    ; preds = %701, %1096
  call void @_ZNSt7__debug3setIiSt4lessIiESaIiEE3endEv(%"class.__gnu_debug::_Safe_iterator.23"* sret %59, %"class.std::__debug::set"* %48) #3
  %717 = call zeroext i1 @_ZN11__gnu_debugneISt23_Rb_tree_const_iteratorIiENSt7__debug3setIiSt4lessIiESaIiEEEEEbRKNS_14_Safe_iteratorIT_T0_EESE_(%"class.__gnu_debug::_Safe_iterator.23"* dereferenceable(40) %58, %"class.__gnu_debug::_Safe_iterator.23"* dereferenceable(40) %59) #3
  call void @_ZN11__gnu_debug14_Safe_iteratorISt23_Rb_tree_const_iteratorIiENSt7__debug3setIiSt4lessIiESaIiEEEED2Ev(%"class.__gnu_debug::_Safe_iterator.23"* %59) #3
  call void @_ZN11__gnu_debug14_Safe_iteratorISt23_Rb_tree_const_iteratorIiENSt7__debug3setIiSt4lessIiESaIiEEEED2Ev(%"class.__gnu_debug::_Safe_iterator.23"* %58) #3
  %718 = load i32, i32* @x.38
  %719 = load i32, i32* @y.39
  %720 = sub i32 %718, -296922213
  %721 = sub i32 %720, 1
  %722 = add i32 %721, -296922213
  %723 = sub i32 %718, 1
  %724 = mul i32 %718, %722
  %725 = urem i32 %724, 2
  %726 = icmp eq i32 %725, 0
  %727 = icmp slt i32 %719, 10
  %728 = xor i1 %726, true
  %729 = xor i1 %727, true
  %730 = xor i1 false, true
  %731 = and i1 %728, false
  %732 = and i1 %726, %730
  %733 = and i1 %729, false
  %734 = and i1 %727, %730
  %735 = or i1 %731, %732
  %736 = or i1 %733, %734
  %737 = xor i1 %735, %736
  %738 = or i1 %728, %729
  %739 = xor i1 %738, true
  %740 = or i1 false, %730
  %741 = and i1 %739, %740
  %742 = or i1 %737, %741
  %743 = or i1 %726, %727
  br i1 %742, label %744, label %1096

; <label>:744:                                    ; preds = %716
  br i1 %717, label %745, label %783

; <label>:745:                                    ; preds = %744
  %746 = load i32, i32* @x.38
  %747 = load i32, i32* @y.39
  %748 = sub i32 0, 1
  %749 = add i32 %746, %748
  %750 = sub i32 %746, 1
  %751 = mul i32 %746, %749
  %752 = urem i32 %751, 2
  %753 = icmp eq i32 %752, 0
  %754 = icmp slt i32 %747, 10
  %755 = and i1 %753, %754
  %756 = xor i1 %753, %754
  %757 = or i1 %755, %756
  %758 = or i1 %753, %754
  br i1 %757, label %759, label %1098

; <label>:759:                                    ; preds = %745, %1098
  %760 = load i32, i32* %42, align 4
  %761 = sub i32 %760, -1962716906
  %762 = add i32 %761, 1
  %763 = add i32 %762, -1962716906
  %764 = add nsw i32 %760, 1
  store i32 %763, i32* %42, align 4
  %765 = load i32, i32* @x.38
  %766 = load i32, i32* @y.39
  %767 = sub i32 0, 1
  %768 = add i32 %765, %767
  %769 = sub i32 %765, 1
  %770 = mul i32 %765, %768
  %771 = urem i32 %770, 2
  %772 = icmp eq i32 %771, 0
  %773 = icmp slt i32 %766, 10
  %774 = and i1 %772, %773
  %775 = xor i1 %772, %773
  %776 = or i1 %774, %775
  %777 = or i1 %772, %773
  br i1 %776, label %778, label %1098

; <label>:778:                                    ; preds = %759
  br label %783

; <label>:779:                                    ; preds = %695
  %780 = landingpad { i8*, i32 }
          cleanup
  %781 = extractvalue { i8*, i32 } %780, 0
  store i8* %781, i8** %32, align 8
  %782 = extractvalue { i8*, i32 } %780, 1
  store i32 %782, i32* %33, align 4
  call void @_ZN11__gnu_debug14_Safe_iteratorIN9__gnu_cxx17__normal_iteratorIPiNSt9__cxx19986vectorIiSaIiEEEEENSt7__debug6vectorIiS6_EEED2Ev(%"class.__gnu_debug::_Safe_iterator.21"* %56) #3
  call void @_ZN11__gnu_debug14_Safe_iteratorIN9__gnu_cxx17__normal_iteratorIPiNSt9__cxx19986vectorIiSaIiEEEEENSt7__debug6vectorIiS6_EEED2Ev(%"class.__gnu_debug::_Safe_iterator.21"* %55) #3
  br label %872

; <label>:783:                                    ; preds = %778, %744
  br label %784

; <label>:784:                                    ; preds = %783
  %785 = load i32, i32* @x.38
  %786 = load i32, i32* @y.39
  %787 = add i32 %785, -1950512945
  %788 = sub i32 %787, 1
  %789 = sub i32 %788, -1950512945
  %790 = sub i32 %785, 1
  %791 = mul i32 %785, %789
  %792 = urem i32 %791, 2
  %793 = icmp eq i32 %792, 0
  %794 = icmp slt i32 %786, 10
  %795 = and i1 %793, %794
  %796 = xor i1 %793, %794
  %797 = or i1 %795, %796
  %798 = or i1 %793, %794
  br i1 %797, label %799, label %1117

; <label>:799:                                    ; preds = %784, %1117
  %800 = call dereferenceable(40) %"class.__gnu_debug::_Safe_iterator.21"* @_ZN11__gnu_debug14_Safe_iteratorIN9__gnu_cxx17__normal_iteratorIPiNSt9__cxx19986vectorIiSaIiEEEEENSt7__debug6vectorIiS6_EEEppEv(%"class.__gnu_debug::_Safe_iterator.21"* %55) #3
  %801 = load i32, i32* @x.38
  %802 = load i32, i32* @y.39
  %803 = add i32 %801, -1987900331
  %804 = sub i32 %803, 1
  %805 = sub i32 %804, -1987900331
  %806 = sub i32 %801, 1
  %807 = mul i32 %801, %805
  %808 = urem i32 %807, 2
  %809 = icmp eq i32 %808, 0
  %810 = icmp slt i32 %802, 10
  %811 = and i1 %809, %810
  %812 = xor i1 %809, %810
  %813 = or i1 %811, %812
  %814 = or i1 %809, %810
  br i1 %813, label %815, label %1117

; <label>:815:                                    ; preds = %799
  br label %663

; <label>:816:                                    ; preds = %694
  call void @_ZNSt7__debug3setIiSt4lessIiESaIiEED2Ev(%"class.std::__debug::set"* %48) #3
  call void @_ZNSt7__debug6vectorIiSaIiEED2Ev(%"class.std::__debug::vector"* %47) #3
  br label %817

; <label>:817:                                    ; preds = %816
  %818 = load i32, i32* @x.38
  %819 = load i32, i32* @y.39
  %820 = add i32 %818, -582531686
  %821 = sub i32 %820, 1
  %822 = sub i32 %821, -582531686
  %823 = sub i32 %818, 1
  %824 = mul i32 %818, %822
  %825 = urem i32 %824, 2
  %826 = icmp eq i32 %825, 0
  %827 = icmp slt i32 %819, 10
  %828 = xor i1 %826, true
  %829 = xor i1 %827, true
  %830 = xor i1 false, true
  %831 = and i1 %828, false
  %832 = and i1 %826, %830
  %833 = and i1 %829, false
  %834 = and i1 %827, %830
  %835 = or i1 %831, %832
  %836 = or i1 %833, %834
  %837 = xor i1 %835, %836
  %838 = or i1 %828, %829
  %839 = xor i1 %838, true
  %840 = or i1 false, %830
  %841 = and i1 %839, %840
  %842 = or i1 %837, %841
  %843 = or i1 %826, %827
  br i1 %842, label %844, label %1119

; <label>:844:                                    ; preds = %817, %1119
  %845 = call dereferenceable(40) %"class.__gnu_debug::_Safe_iterator"* @_ZN11__gnu_debug14_Safe_iteratorIN9__gnu_cxx17__normal_iteratorIPNSt7__debug6vectorIiSaIiEEENSt9__cxx19986vectorIS6_SaIS6_EEEEENS4_IS6_SA_EEEppEv(%"class.__gnu_debug::_Safe_iterator"* %44) #3
  %846 = load i32, i32* @x.38
  %847 = load i32, i32* @y.39
  %848 = sub i32 0, 1
  %849 = add i32 %846, %848
  %850 = sub i32 %846, 1
  %851 = mul i32 %846, %849
  %852 = urem i32 %851, 2
  %853 = icmp eq i32 %852, 0
  %854 = icmp slt i32 %847, 10
  %855 = xor i1 %853, true
  %856 = xor i1 %854, true
  %857 = xor i1 false, true
  %858 = and i1 %855, false
  %859 = and i1 %853, %857
  %860 = and i1 %856, false
  %861 = and i1 %854, %857
  %862 = or i1 %858, %859
  %863 = or i1 %860, %861
  %864 = xor i1 %862, %863
  %865 = or i1 %855, %856
  %866 = xor i1 %865, true
  %867 = or i1 false, %857
  %868 = and i1 %866, %867
  %869 = or i1 %864, %868
  %870 = or i1 %853, %854
  br i1 %869, label %871, label %1119

; <label>:871:                                    ; preds = %844
  br label %510

; <label>:872:                                    ; preds = %779, %659
  call void @_ZNSt7__debug3setIiSt4lessIiESaIiEED2Ev(%"class.std::__debug::set"* %48) #3
  call void @_ZNSt7__debug6vectorIiSaIiEED2Ev(%"class.std::__debug::vector"* %47) #3
  br label %873

; <label>:873:                                    ; preds = %872, %604
  call void @_ZN11__gnu_debug14_Safe_iteratorIN9__gnu_cxx17__normal_iteratorIPNSt7__debug6vectorIiSaIiEEENSt9__cxx19986vectorIS6_SaIS6_EEEEENS4_IS6_SA_EEED2Ev(%"class.__gnu_debug::_Safe_iterator"* %45) #3
  call void @_ZN11__gnu_debug14_Safe_iteratorIN9__gnu_cxx17__normal_iteratorIPNSt7__debug6vectorIiSaIiEEENSt9__cxx19986vectorIS6_SaIS6_EEEEENS4_IS6_SA_EEED2Ev(%"class.__gnu_debug::_Safe_iterator"* %44) #3
  br label %926

; <label>:874:                                    ; preds = %541
  %875 = load i32, i32* %42, align 4
  %876 = invoke dereferenceable(272) %"class.std::basic_ostream"* @_ZNSolsEi(%"class.std::basic_ostream"* @_ZSt4cout, i32 %875)
          to label %877 unwind label %881

; <label>:877:                                    ; preds = %874
  %878 = invoke dereferenceable(272) %"class.std::basic_ostream"* @_ZStlsISt11char_traitsIcEERSt13basic_ostreamIcT_ES5_PKc(%"class.std::basic_ostream"* dereferenceable(272) %876, i8* getelementptr inbounds ([2 x i8], [2 x i8]* @.str.2, i32 0, i32 0))
          to label %879 unwind label %881

; <label>:879:                                    ; preds = %877
  store i32 0, i32* %27, align 4
  store i32 1, i32* %46, align 4
  call void @_ZNSt7__debug6vectorINS0_IiSaIiEEESaIS2_EED2Ev(%"class.std::__debug::vector.3"* %41) #3
  call void @_ZN9UnionfindD2Ev(%class.Unionfind* %36) #3
  call void @_ZNSt7__debug6vectorIiSaIiEED2Ev(%"class.std::__debug::vector"* %34) #3
  call void @_ZNSt7__debug6vectorIiSaIiEED2Ev(%"class.std::__debug::vector"* %30) #3
  %880 = load i32, i32* %27, align 4
  ret i32 %880

; <label>:881:                                    ; preds = %877, %874
  %882 = load i32, i32* @x.38
  %883 = load i32, i32* @y.39
  %884 = sub i32 0, 1
  %885 = add i32 %882, %884
  %886 = sub i32 %882, 1
  %887 = mul i32 %882, %885
  %888 = urem i32 %887, 2
  %889 = icmp eq i32 %888, 0
  %890 = icmp slt i32 %883, 10
  %891 = xor i1 %889, true
  %892 = xor i1 %890, true
  %893 = xor i1 false, true
  %894 = and i1 %891, false
  %895 = and i1 %889, %893
  %896 = and i1 %892, false
  %897 = and i1 %890, %893
  %898 = or i1 %894, %895
  %899 = or i1 %896, %897
  %900 = xor i1 %898, %899
  %901 = or i1 %891, %892
  %902 = xor i1 %901, true
  %903 = or i1 false, %893
  %904 = and i1 %902, %903
  %905 = or i1 %900, %904
  %906 = or i1 %889, %890
  br i1 %905, label %907, label %1121

; <label>:907:                                    ; preds = %881, %1121
  %908 = landingpad { i8*, i32 }
          cleanup
  %909 = extractvalue { i8*, i32 } %908, 0
  store i8* %909, i8** %32, align 8
  %910 = extractvalue { i8*, i32 } %908, 1
  store i32 %910, i32* %33, align 4
  %911 = load i32, i32* @x.38
  %912 = load i32, i32* @y.39
  %913 = add i32 %911, 619394872
  %914 = sub i32 %913, 1
  %915 = sub i32 %914, 619394872
  %916 = sub i32 %911, 1
  %917 = mul i32 %911, %915
  %918 = urem i32 %917, 2
  %919 = icmp eq i32 %918, 0
  %920 = icmp slt i32 %912, 10
  %921 = and i1 %919, %920
  %922 = xor i1 %919, %920
  %923 = or i1 %921, %922
  %924 = or i1 %919, %920
  br i1 %923, label %925, label %1121

; <label>:925:                                    ; preds = %907
  br label %926

; <label>:926:                                    ; preds = %925, %873
  call void @_ZNSt7__debug6vectorINS0_IiSaIiEEESaIS2_EED2Ev(%"class.std::__debug::vector.3"* %41) #3
  br label %927

; <label>:927:                                    ; preds = %926, %276
  %928 = load i32, i32* @x.38
  %929 = load i32, i32* @y.39
  %930 = sub i32 %928, 1804807187
  %931 = sub i32 %930, 1
  %932 = add i32 %931, 1804807187
  %933 = sub i32 %928, 1
  %934 = mul i32 %928, %932
  %935 = urem i32 %934, 2
  %936 = icmp eq i32 %935, 0
  %937 = icmp slt i32 %929, 10
  %938 = xor i1 %936, true
  %939 = xor i1 %937, true
  %940 = xor i1 true, true
  %941 = and i1 %938, true
  %942 = and i1 %936, %940
  %943 = and i1 %939, true
  %944 = and i1 %937, %940
  %945 = or i1 %941, %942
  %946 = or i1 %943, %944
  %947 = xor i1 %945, %946
  %948 = or i1 %938, %939
  %949 = xor i1 %948, true
  %950 = or i1 true, %940
  %951 = and i1 %949, %950
  %952 = or i1 %947, %951
  %953 = or i1 %936, %937
  br i1 %952, label %954, label %1125

; <label>:954:                                    ; preds = %927, %1125
  call void @_ZN9UnionfindD2Ev(%class.Unionfind* %36) #3
  %955 = load i32, i32* @x.38
  %956 = load i32, i32* @y.39
  %957 = sub i32 0, 1
  %958 = add i32 %955, %957
  %959 = sub i32 %955, 1
  %960 = mul i32 %955, %958
  %961 = urem i32 %960, 2
  %962 = icmp eq i32 %961, 0
  %963 = icmp slt i32 %956, 10
  %964 = and i1 %962, %963
  %965 = xor i1 %962, %963
  %966 = or i1 %964, %965
  %967 = or i1 %962, %963
  br i1 %966, label %968, label %1125

; <label>:968:                                    ; preds = %954
  br label %969

; <label>:969:                                    ; preds = %968, %272
  call void @_ZNSt7__debug6vectorIiSaIiEED2Ev(%"class.std::__debug::vector"* %34) #3
  br label %970

; <label>:970:                                    ; preds = %969, %268
  call void @_ZNSt7__debug6vectorIiSaIiEED2Ev(%"class.std::__debug::vector"* %30) #3
  br label %971

; <label>:971:                                    ; preds = %970, %264
  %972 = load i32, i32* @x.38
  %973 = load i32, i32* @y.39
  %974 = sub i32 %972, 756179346
  %975 = sub i32 %974, 1
  %976 = add i32 %975, 756179346
  %977 = sub i32 %972, 1
  %978 = mul i32 %972, %976
  %979 = urem i32 %978, 2
  %980 = icmp eq i32 %979, 0
  %981 = icmp slt i32 %973, 10
  %982 = and i1 %980, %981
  %983 = xor i1 %980, %981
  %984 = or i1 %982, %983
  %985 = or i1 %980, %981
  br i1 %984, label %986, label %1126

; <label>:986:                                    ; preds = %971, %1126
  %987 = load i8*, i8** %32, align 8
  %988 = load i32, i32* %33, align 4
  %989 = insertvalue { i8*, i32 } undef, i8* %987, 0
  %990 = insertvalue { i8*, i32 } %989, i32 %988, 1
  %991 = load i32, i32* @x.38
  %992 = load i32, i32* @y.39
  %993 = sub i32 %991, -1301178935
  %994 = sub i32 %993, 1
  %995 = add i32 %994, -1301178935
  %996 = sub i32 %991, 1
  %997 = mul i32 %991, %995
  %998 = urem i32 %997, 2
  %999 = icmp eq i32 %998, 0
  %1000 = icmp slt i32 %992, 10
  %1001 = xor i1 %999, true
  %1002 = xor i1 %1000, true
  %1003 = xor i1 false, true
  %1004 = and i1 %1001, false
  %1005 = and i1 %999, %1003
  %1006 = and i1 %1002, false
  %1007 = and i1 %1000, %1003
  %1008 = or i1 %1004, %1005
  %1009 = or i1 %1006, %1007
  %1010 = xor i1 %1008, %1009
  %1011 = or i1 %1001, %1002
  %1012 = xor i1 %1011, true
  %1013 = or i1 false, %1003
  %1014 = and i1 %1012, %1013
  %1015 = or i1 %1010, %1014
  %1016 = or i1 %999, %1000
  br i1 %1015, label %1017, label %1126

; <label>:1017:                                   ; preds = %986
  resume { i8*, i32 } %990

; <label>:1018:                                   ; preds = %26, %0
  %1019 = alloca i32, align 4
  %1020 = alloca i32, align 4
  %1021 = alloca i32, align 4
  %1022 = alloca %"class.std::__debug::vector", align 8
  %1023 = alloca %"class.std::allocator.0", align 1
  %1024 = alloca i8*
  %1025 = alloca i32
  %1026 = alloca %"class.std::__debug::vector", align 8
  %1027 = alloca %"class.std::allocator.0", align 1
  %1028 = alloca %class.Unionfind, align 8
  %1029 = alloca i32, align 4
  %1030 = alloca i32, align 4
  %1031 = alloca i32, align 4
  %1032 = alloca i32, align 4
  %1033 = alloca %"class.std::__debug::vector.3", align 8
  %1034 = alloca i32, align 4
  %1035 = alloca %"class.std::__debug::vector.3"*, align 8
  %1036 = alloca %"class.__gnu_debug::_Safe_iterator", align 8
  %1037 = alloca %"class.__gnu_debug::_Safe_iterator", align 8
  %1038 = alloca i32
  %1039 = alloca %"class.std::__debug::vector", align 8
  %1040 = alloca %"class.std::__debug::set", align 8
  %1041 = alloca %"class.std::__debug::vector"*, align 8
  %1042 = alloca %"class.__gnu_debug::_Safe_iterator.21", align 8
  %1043 = alloca %"class.__gnu_debug::_Safe_iterator.21", align 8
  %1044 = alloca i32, align 4
  %1045 = alloca %"struct.std::pair", align 8
  %1046 = alloca %"class.std::__debug::vector"*, align 8
  %1047 = alloca %"class.__gnu_debug::_Safe_iterator.21", align 8
  %1048 = alloca %"class.__gnu_debug::_Safe_iterator.21", align 8
  %1049 = alloca i32, align 4
  %1050 = alloca %"class.__gnu_debug::_Safe_iterator.23", align 8
  %1051 = alloca %"class.__gnu_debug::_Safe_iterator.23", align 8
  store i32 0, i32* %1019, align 4
  %1052 = call zeroext i1 @_ZNSt8ios_base15sync_with_stdioEb(i1 zeroext false)
  %1053 = load i8*, i8** bitcast (%"class.std::basic_istream"* @_ZSt3cin to i8**), align 8
  %1054 = getelementptr i8, i8* %1053, i64 -24
  %1055 = bitcast i8* %1054 to i64*
  %1056 = load i64, i64* %1055, align 8
  %1057 = getelementptr inbounds i8, i8* bitcast (%"class.std::basic_istream"* @_ZSt3cin to i8*), i64 %1056
  %1058 = bitcast i8* %1057 to %"class.std::basic_ios"*
  %1059 = call %"class.std::basic_ostream"* @_ZNSt9basic_iosIcSt11char_traitsIcEE3tieEPSo(%"class.std::basic_ios"* %1058, %"class.std::basic_ostream"* null)
  %1060 = call dereferenceable(280) %"class.std::basic_istream"* @_ZNSirsERi(%"class.std::basic_istream"* @_ZSt3cin, i32* dereferenceable(4) %1020)
  %1061 = call dereferenceable(280) %"class.std::basic_istream"* @_ZNSirsERi(%"class.std::basic_istream"* %1060, i32* dereferenceable(4) %1021)
  %1062 = load i32, i32* %1020, align 4
  %1063 = sext i32 %1062 to i64
  call void @_ZNSaIiEC2Ev(%"class.std::allocator.0"* %1023) #3
  br label %26

; <label>:1064:                                   ; preds = %116, %102
  call void @_ZNSaIiED2Ev(%"class.std::allocator.0"* %35) #3
  %1065 = load i32, i32* %28, align 4
  br label %116

; <label>:1066:                                   ; preds = %161, %146
  %1067 = load i32, i32* %37, align 4
  %1068 = sext i32 %1067 to i64
  %1069 = load i32, i32* %28, align 4
  %1070 = sext i32 %1069 to i64
  %1071 = icmp slt i64 %1068, %1070
  br label %161

; <label>:1072:                                   ; preds = %242, %215
  %1073 = load i32, i32* %37, align 4
  %1074 = sub i32 0, %1073
  %1075 = sub i32 0, 1
  %1076 = add i32 %1074, %1075
  %1077 = sub i32 0, %1076
  %1078 = add nsw i32 %1073, 1
  store i32 %1077, i32* %37, align 4
  br label %242

; <label>:1079:                                   ; preds = %307, %280
  store i32 0, i32* %38, align 4
  br label %307

; <label>:1080:                                   ; preds = %337, %323
  %1081 = load i32, i32* %38, align 4
  %1082 = sext i32 %1081 to i64
  %1083 = load i32, i32* %29, align 4
  %1084 = sext i32 %1083 to i64
  %1085 = icmp slt i64 %1082, %1084
  br label %337

; <label>:1086:                                   ; preds = %396, %370
  br label %396

; <label>:1087:                                   ; preds = %443, %428
  br label %443

; <label>:1088:                                   ; preds = %491, %477
  br label %491

; <label>:1089:                                   ; preds = %527, %512
  store i32 8, i32* %46, align 4
  call void @_ZN11__gnu_debug14_Safe_iteratorIN9__gnu_cxx17__normal_iteratorIPNSt7__debug6vectorIiSaIiEEENSt9__cxx19986vectorIS6_SaIS6_EEEEENS4_IS6_SA_EEED2Ev(%"class.__gnu_debug::_Safe_iterator"* %45) #3
  call void @_ZN11__gnu_debug14_Safe_iteratorIN9__gnu_cxx17__normal_iteratorIPNSt7__debug6vectorIiSaIiEEENSt9__cxx19986vectorIS6_SaIS6_EEEEENS4_IS6_SA_EEED2Ev(%"class.__gnu_debug::_Safe_iterator"* %44) #3
  br label %527

; <label>:1090:                                   ; preds = %576, %549
  store i32 10, i32* %46, align 4
  call void @_ZN11__gnu_debug14_Safe_iteratorIN9__gnu_cxx17__normal_iteratorIPiNSt9__cxx19986vectorIiSaIiEEEEENSt7__debug6vectorIiS6_EEED2Ev(%"class.__gnu_debug::_Safe_iterator.21"* %51) #3
  call void @_ZN11__gnu_debug14_Safe_iteratorIN9__gnu_cxx17__normal_iteratorIPiNSt9__cxx19986vectorIiSaIiEEEEENSt7__debug6vectorIiS6_EEED2Ev(%"class.__gnu_debug::_Safe_iterator.21"* %50) #3
  br label %576

; <label>:1091:                                   ; preds = %641, %614
  %1092 = landingpad { i8*, i32 }
          cleanup
  %1093 = extractvalue { i8*, i32 } %1092, 0
  store i8* %1093, i8** %32, align 8
  %1094 = extractvalue { i8*, i32 } %1092, 1
  store i32 %1094, i32* %33, align 4
  call void @_ZN11__gnu_debug14_Safe_iteratorIN9__gnu_cxx17__normal_iteratorIPiNSt9__cxx19986vectorIiSaIiEEEEENSt7__debug6vectorIiS6_EEED2Ev(%"class.__gnu_debug::_Safe_iterator.21"* %51) #3
  call void @_ZN11__gnu_debug14_Safe_iteratorIN9__gnu_cxx17__normal_iteratorIPiNSt9__cxx19986vectorIiSaIiEEEEENSt7__debug6vectorIiS6_EEED2Ev(%"class.__gnu_debug::_Safe_iterator.21"* %50) #3
  br label %641

; <label>:1095:                                   ; preds = %679, %665
  store i32 12, i32* %46, align 4
  call void @_ZN11__gnu_debug14_Safe_iteratorIN9__gnu_cxx17__normal_iteratorIPiNSt9__cxx19986vectorIiSaIiEEEEENSt7__debug6vectorIiS6_EEED2Ev(%"class.__gnu_debug::_Safe_iterator.21"* %56) #3
  call void @_ZN11__gnu_debug14_Safe_iteratorIN9__gnu_cxx17__normal_iteratorIPiNSt9__cxx19986vectorIiSaIiEEEEENSt7__debug6vectorIiS6_EEED2Ev(%"class.__gnu_debug::_Safe_iterator.21"* %55) #3
  br label %679

; <label>:1096:                                   ; preds = %716, %701
  call void @_ZNSt7__debug3setIiSt4lessIiESaIiEE3endEv(%"class.__gnu_debug::_Safe_iterator.23"* sret %59, %"class.std::__debug::set"* %48) #3
  %1097 = call zeroext i1 @_ZN11__gnu_debugneISt23_Rb_tree_const_iteratorIiENSt7__debug3setIiSt4lessIiESaIiEEEEEbRKNS_14_Safe_iteratorIT_T0_EESE_(%"class.__gnu_debug::_Safe_iterator.23"* dereferenceable(40) %58, %"class.__gnu_debug::_Safe_iterator.23"* dereferenceable(40) %59) #3
  call void @_ZN11__gnu_debug14_Safe_iteratorISt23_Rb_tree_const_iteratorIiENSt7__debug3setIiSt4lessIiESaIiEEEED2Ev(%"class.__gnu_debug::_Safe_iterator.23"* %59) #3
  call void @_ZN11__gnu_debug14_Safe_iteratorISt23_Rb_tree_const_iteratorIiENSt7__debug3setIiSt4lessIiESaIiEEEED2Ev(%"class.__gnu_debug::_Safe_iterator.23"* %58) #3
  br label %716

; <label>:1098:                                   ; preds = %759, %745
  %1099 = load i32, i32* %42, align 4
  %1100 = add i32 0, 1268468957
  %1101 = sub i32 %1100, %1099
  %1102 = sub i32 %1101, 1268468957
  %1103 = sub i32 0, %1099
  %1104 = add i32 %1102, 857088887
  %1105 = add i32 %1104, 1
  %1106 = sub i32 %1105, 857088887
  %1107 = add i32 %1102, 1
  %1108 = sub i32 %1099, 1016130777
  %1109 = sub i32 %1108, 1
  %1110 = add i32 %1109, 1016130777
  %1111 = sub i32 %1099, 1
  %1112 = mul i32 %1110, 1
  %1113 = add i32 %1099, 1225362861
  %1114 = add i32 %1113, 1
  %1115 = sub i32 %1114, 1225362861
  %1116 = add nsw i32 %1099, 1
  store i32 %1115, i32* %42, align 4
  br label %759

; <label>:1117:                                   ; preds = %799, %784
  %1118 = call dereferenceable(40) %"class.__gnu_debug::_Safe_iterator.21"* @_ZN11__gnu_debug14_Safe_iteratorIN9__gnu_cxx17__normal_iteratorIPiNSt9__cxx19986vectorIiSaIiEEEEENSt7__debug6vectorIiS6_EEEppEv(%"class.__gnu_debug::_Safe_iterator.21"* %55) #3
  br label %799

; <label>:1119:                                   ; preds = %844, %817
  %1120 = call dereferenceable(40) %"class.__gnu_debug::_Safe_iterator"* @_ZN11__gnu_debug14_Safe_iteratorIN9__gnu_cxx17__normal_iteratorIPNSt7__debug6vectorIiSaIiEEENSt9__cxx19986vectorIS6_SaIS6_EEEEENS4_IS6_SA_EEEppEv(%"class.__gnu_debug::_Safe_iterator"* %44) #3
  br label %844

; <label>:1121:                                   ; preds = %907, %881
  %1122 = landingpad { i8*, i32 }
          cleanup
  %1123 = extractvalue { i8*, i32 } %1122, 0
  store i8* %1123, i8** %32, align 8
  %1124 = extractvalue { i8*, i32 } %1122, 1
  store i32 %1124, i32* %33, align 4
  br label %907

; <label>:1125:                                   ; preds = %954, %927
  call void @_ZN9UnionfindD2Ev(%class.Unionfind* %36) #3
  br label %954

; <label>:1126:                                   ; preds = %986, %971
  %1127 = load i8*, i8** %32, align 8
  %1128 = load i32, i32* %33, align 4
  %1129 = insertvalue { i8*, i32 } undef, i8* %1127, 0
  %1130 = insertvalue { i8*, i32 } %1129, i32 %1128, 1
  br label %986
}

declare zeroext i1 @_ZNSt8ios_base15sync_with_stdioEb(i1 zeroext) #1

declare %"class.std::basic_ostream"* @_ZNSt9basic_iosIcSt11char_traitsIcEE3tieEPSo(%"class.std::basic_ios"*, %"class.std::basic_ostream"*) #1

declare dereferenceable(280) %"class.std::basic_istream"* @_ZNSirsERi(%"class.std::basic_istream"*, i32* dereferenceable(4)) #1

; Function Attrs: noinline nounwind uwtable
define linkonce_odr void @_ZNSaIiEC2Ev(%"class.std::allocator.0"*) unnamed_addr #4 comdat align 2 {
  %2 = alloca %"class.std::allocator.0"*, align 8
  store %"class.std::allocator.0"* %0, %"class.std::allocator.0"** %2, align 8
  %3 = load %"class.std::allocator.0"*, %"class.std::allocator.0"** %2, align 8
  %4 = bitcast %"class.std::allocator.0"* %3 to %"class.__gnu_cxx::new_allocator.1"*
  call void @_ZN9__gnu_cxx13new_allocatorIiEC2Ev(%"class.__gnu_cxx::new_allocator.1"* %4) #3
  ret void
}

; Function Attrs: noinline uwtable
define linkonce_odr void @_ZNSt7__debug6vectorIiSaIiEEC2EmRKS1_(%"class.std::__debug::vector"*, i64, %"class.std::allocator.0"* dereferenceable(1)) unnamed_addr #0 comdat align 2 personality i8* bitcast (i32 (...)* @__gxx_personality_v0 to i8*) {
  %4 = load i32, i32* @x.42
  %5 = load i32, i32* @y.43
  %6 = sub i32 0, 1
  %7 = add i32 %4, %6
  %8 = sub i32 %4, 1
  %9 = mul i32 %4, %7
  %10 = urem i32 %9, 2
  %11 = icmp eq i32 %10, 0
  %12 = icmp slt i32 %5, 10
  %13 = and i1 %11, %12
  %14 = xor i1 %11, %12
  %15 = or i1 %13, %14
  %16 = or i1 %11, %12
  br i1 %15, label %17, label %131

; <label>:17:                                     ; preds = %3, %131
  %18 = alloca %"class.std::__debug::vector"*, align 8
  %19 = alloca i64, align 8
  %20 = alloca %"class.std::allocator.0"*, align 8
  %21 = alloca i8*
  %22 = alloca i32
  store %"class.std::__debug::vector"* %0, %"class.std::__debug::vector"** %18, align 8
  store i64 %1, i64* %19, align 8
  store %"class.std::allocator.0"* %2, %"class.std::allocator.0"** %20, align 8
  %23 = load %"class.std::__debug::vector"*, %"class.std::__debug::vector"** %18, align 8
  %24 = bitcast %"class.std::__debug::vector"* %23 to %"class.__gnu_debug::_Safe_container"*
  call void @_ZN11__gnu_debug15_Safe_containerINSt7__debug6vectorIiSaIiEEES3_NS_14_Safe_sequenceELb1EEC2Ev(%"class.__gnu_debug::_Safe_container"* %24) #3
  %25 = bitcast %"class.std::__debug::vector"* %23 to i8*
  %26 = getelementptr inbounds i8, i8* %25, i64 24
  %27 = bitcast i8* %26 to %"class.std::__cxx1998::vector"*
  %28 = load i64, i64* %19, align 8
  %29 = load %"class.std::allocator.0"*, %"class.std::allocator.0"** %20, align 8
  %30 = load i32, i32* @x.42
  %31 = load i32, i32* @y.43
  %32 = sub i32 %30, 702391395
  %33 = sub i32 %32, 1
  %34 = add i32 %33, 702391395
  %35 = sub i32 %30, 1
  %36 = mul i32 %30, %34
  %37 = urem i32 %36, 2
  %38 = icmp eq i32 %37, 0
  %39 = icmp slt i32 %31, 10
  %40 = and i1 %38, %39
  %41 = xor i1 %38, %39
  %42 = or i1 %40, %41
  %43 = or i1 %38, %39
  br i1 %42, label %44, label %131

; <label>:44:                                     ; preds = %17
  invoke void @_ZNSt9__cxx19986vectorIiSaIiEEC2EmRKS1_(%"class.std::__cxx1998::vector"* %27, i64 %28, %"class.std::allocator.0"* dereferenceable(1) %29)
          to label %45 unwind label %50

; <label>:45:                                     ; preds = %44
  %46 = bitcast %"class.std::__debug::vector"* %23 to i8*
  %47 = getelementptr inbounds i8, i8* %46, i64 48
  %48 = bitcast i8* %47 to %"class.__gnu_debug::_Safe_vector"*
  %49 = load i64, i64* %19, align 8
  call void @_ZN11__gnu_debug12_Safe_vectorINSt7__debug6vectorIiSaIiEEENSt9__cxx19986vectorIiS3_EEEC2Em(%"class.__gnu_debug::_Safe_vector"* %48, i64 %49) #3
  ret void

; <label>:50:                                     ; preds = %44
  %51 = load i32, i32* @x.42
  %52 = load i32, i32* @y.43
  %53 = sub i32 %51, 1942927336
  %54 = sub i32 %53, 1
  %55 = add i32 %54, 1942927336
  %56 = sub i32 %51, 1
  %57 = mul i32 %51, %55
  %58 = urem i32 %57, 2
  %59 = icmp eq i32 %58, 0
  %60 = icmp slt i32 %52, 10
  %61 = and i1 %59, %60
  %62 = xor i1 %59, %60
  %63 = or i1 %61, %62
  %64 = or i1 %59, %60
  br i1 %63, label %65, label %144

; <label>:65:                                     ; preds = %50, %144
  %66 = landingpad { i8*, i32 }
          cleanup
  %67 = extractvalue { i8*, i32 } %66, 0
  store i8* %67, i8** %21, align 8
  %68 = extractvalue { i8*, i32 } %66, 1
  store i32 %68, i32* %22, align 4
  %69 = bitcast %"class.std::__debug::vector"* %23 to %"class.__gnu_debug::_Safe_container"*
  call void @_ZN11__gnu_debug15_Safe_containerINSt7__debug6vectorIiSaIiEEES3_NS_14_Safe_sequenceELb1EED2Ev(%"class.__gnu_debug::_Safe_container"* %69) #3
  %70 = load i32, i32* @x.42
  %71 = load i32, i32* @y.43
  %72 = sub i32 0, 1
  %73 = add i32 %70, %72
  %74 = sub i32 %70, 1
  %75 = mul i32 %70, %73
  %76 = urem i32 %75, 2
  %77 = icmp eq i32 %76, 0
  %78 = icmp slt i32 %71, 10
  %79 = xor i1 %77, true
  %80 = xor i1 %78, true
  %81 = xor i1 true, true
  %82 = and i1 %79, true
  %83 = and i1 %77, %81
  %84 = and i1 %80, true
  %85 = and i1 %78, %81
  %86 = or i1 %82, %83
  %87 = or i1 %84, %85
  %88 = xor i1 %86, %87
  %89 = or i1 %79, %80
  %90 = xor i1 %89, true
  %91 = or i1 true, %81
  %92 = and i1 %90, %91
  %93 = or i1 %88, %92
  %94 = or i1 %77, %78
  br i1 %93, label %95, label %144

; <label>:95:                                     ; preds = %65
  br label %96

; <label>:96:                                     ; preds = %95
  %97 = load i32, i32* @x.42
  %98 = load i32, i32* @y.43
  %99 = sub i32 %97, 1308089811
  %100 = sub i32 %99, 1
  %101 = add i32 %100, 1308089811
  %102 = sub i32 %97, 1
  %103 = mul i32 %97, %101
  %104 = urem i32 %103, 2
  %105 = icmp eq i32 %104, 0
  %106 = icmp slt i32 %98, 10
  %107 = and i1 %105, %106
  %108 = xor i1 %105, %106
  %109 = or i1 %107, %108
  %110 = or i1 %105, %106
  br i1 %109, label %111, label %149

; <label>:111:                                    ; preds = %96, %149
  %112 = load i8*, i8** %21, align 8
  %113 = load i32, i32* %22, align 4
  %114 = insertvalue { i8*, i32 } undef, i8* %112, 0
  %115 = insertvalue { i8*, i32 } %114, i32 %113, 1
  %116 = load i32, i32* @x.42
  %117 = load i32, i32* @y.43
  %118 = add i32 %116, 1338208554
  %119 = sub i32 %118, 1
  %120 = sub i32 %119, 1338208554
  %121 = sub i32 %116, 1
  %122 = mul i32 %116, %120
  %123 = urem i32 %122, 2
  %124 = icmp eq i32 %123, 0
  %125 = icmp slt i32 %117, 10
  %126 = and i1 %124, %125
  %127 = xor i1 %124, %125
  %128 = or i1 %126, %127
  %129 = or i1 %124, %125
  br i1 %128, label %130, label %149

; <label>:130:                                    ; preds = %111
  resume { i8*, i32 } %115

; <label>:131:                                    ; preds = %17, %3
  %132 = alloca %"class.std::__debug::vector"*, align 8
  %133 = alloca i64, align 8
  %134 = alloca %"class.std::allocator.0"*, align 8
  %135 = alloca i8*
  %136 = alloca i32
  store %"class.std::__debug::vector"* %0, %"class.std::__debug::vector"** %132, align 8
  store i64 %1, i64* %133, align 8
  store %"class.std::allocator.0"* %2, %"class.std::allocator.0"** %134, align 8
  %137 = load %"class.std::__debug::vector"*, %"class.std::__debug::vector"** %132, align 8
  %138 = bitcast %"class.std::__debug::vector"* %137 to %"class.__gnu_debug::_Safe_container"*
  call void @_ZN11__gnu_debug15_Safe_containerINSt7__debug6vectorIiSaIiEEES3_NS_14_Safe_sequenceELb1EEC2Ev(%"class.__gnu_debug::_Safe_container"* %138) #3
  %139 = bitcast %"class.std::__debug::vector"* %137 to i8*
  %140 = getelementptr inbounds i8, i8* %139, i64 24
  %141 = bitcast i8* %140 to %"class.std::__cxx1998::vector"*
  %142 = load i64, i64* %133, align 8
  %143 = load %"class.std::allocator.0"*, %"class.std::allocator.0"** %134, align 8
  br label %17

; <label>:144:                                    ; preds = %65, %50
  %145 = landingpad { i8*, i32 }
          cleanup
  %146 = extractvalue { i8*, i32 } %145, 0
  store i8* %146, i8** %21, align 8
  %147 = extractvalue { i8*, i32 } %145, 1
  store i32 %147, i32* %22, align 4
  %148 = bitcast %"class.std::__debug::vector"* %23 to %"class.__gnu_debug::_Safe_container"*
  call void @_ZN11__gnu_debug15_Safe_containerINSt7__debug6vectorIiSaIiEEES3_NS_14_Safe_sequenceELb1EED2Ev(%"class.__gnu_debug::_Safe_container"* %148) #3
  br label %65

; <label>:149:                                    ; preds = %111, %96
  %150 = load i8*, i8** %21, align 8
  %151 = load i32, i32* %22, align 4
  %152 = insertvalue { i8*, i32 } undef, i8* %150, 0
  %153 = insertvalue { i8*, i32 } %152, i32 %151, 1
  br label %111
}

; Function Attrs: noinline nounwind uwtable
define linkonce_odr void @_ZNSaIiED2Ev(%"class.std::allocator.0"*) unnamed_addr #4 comdat align 2 {
  %2 = alloca i1
  %3 = alloca i1
  %4 = load i32, i32* @x.44
  %5 = load i32, i32* @y.45
  %6 = add i32 %4, -736300439
  %7 = sub i32 %6, 1
  %8 = sub i32 %7, -736300439
  %9 = sub i32 %4, 1
  %10 = mul i32 %4, %8
  %11 = urem i32 %10, 2
  %12 = icmp eq i32 %11, 0
  store i1 %12, i1* %3
  %13 = icmp slt i32 %5, 10
  store i1 %13, i1* %2
  %14 = alloca i32
  store i32 -886177583, i32* %14
  br label %15

; <label>:15:                                     ; preds = %1, %62
  %16 = load i32, i32* %14
  switch i32 %16, label %17 [
    i32 -886177583, label %18
    i32 -1789262652, label %38
    i32 -439430325, label %57
    i32 -1414881467, label %58
  ]

; <label>:17:                                     ; preds = %15
  br label %62

; <label>:18:                                     ; preds = %15
  %19 = load volatile i1, i1* %3
  %20 = load volatile i1, i1* %2
  %21 = xor i1 %19, true
  %22 = xor i1 %20, true
  %23 = xor i1 false, true
  %24 = and i1 %21, false
  %25 = and i1 %19, %23
  %26 = and i1 %22, false
  %27 = and i1 %20, %23
  %28 = or i1 %24, %25
  %29 = or i1 %26, %27
  %30 = xor i1 %28, %29
  %31 = or i1 %21, %22
  %32 = xor i1 %31, true
  %33 = or i1 false, %23
  %34 = and i1 %32, %33
  %35 = or i1 %30, %34
  %36 = or i1 %19, %20
  %37 = select i1 %35, i32 -1789262652, i32 -1414881467
  store i32 %37, i32* %14
  br label %62

; <label>:38:                                     ; preds = %15
  %39 = alloca %"class.std::allocator.0"*, align 8
  store %"class.std::allocator.0"* %0, %"class.std::allocator.0"** %39, align 8
  %40 = load %"class.std::allocator.0"*, %"class.std::allocator.0"** %39, align 8
  %41 = bitcast %"class.std::allocator.0"* %40 to %"class.__gnu_cxx::new_allocator.1"*
  call void @_ZN9__gnu_cxx13new_allocatorIiED2Ev(%"class.__gnu_cxx::new_allocator.1"* %41) #3
  %42 = load i32, i32* @x.44
  %43 = load i32, i32* @y.45
  %44 = add i32 %42, -428469849
  %45 = sub i32 %44, 1
  %46 = sub i32 %45, -428469849
  %47 = sub i32 %42, 1
  %48 = mul i32 %42, %46
  %49 = urem i32 %48, 2
  %50 = icmp eq i32 %49, 0
  %51 = icmp slt i32 %43, 10
  %52 = and i1 %50, %51
  %53 = xor i1 %50, %51
  %54 = or i1 %52, %53
  %55 = or i1 %50, %51
  %56 = select i1 %54, i32 -439430325, i32 -1414881467
  store i32 %56, i32* %14
  br label %62

; <label>:57:                                     ; preds = %15
  ret void

; <label>:58:                                     ; preds = %15
  %59 = alloca %"class.std::allocator.0"*, align 8
  store %"class.std::allocator.0"* %0, %"class.std::allocator.0"** %59, align 8
  %60 = load %"class.std::allocator.0"*, %"class.std::allocator.0"** %59, align 8
  %61 = bitcast %"class.std::allocator.0"* %60 to %"class.__gnu_cxx::new_allocator.1"*
  call void @_ZN9__gnu_cxx13new_allocatorIiED2Ev(%"class.__gnu_cxx::new_allocator.1"* %61) #3
  store i32 -1789262652, i32* %14
  br label %62

; <label>:62:                                     ; preds = %58, %38, %18, %17
  br label %15
}

; Function Attrs: noinline uwtable
define linkonce_odr void @_ZN9UnionfindC2Ei(%class.Unionfind*, i32) unnamed_addr #0 comdat align 2 personality i8* bitcast (i32 (...)* @__gxx_personality_v0 to i8*) {
  %3 = alloca %class.Unionfind*, align 8
  %4 = alloca i32, align 4
  %5 = alloca %"class.std::allocator.0", align 1
  %6 = alloca i8*
  %7 = alloca i32
  %8 = alloca i32, align 4
  %9 = alloca %"class.std::allocator.0", align 1
  %10 = alloca i32, align 4
  %11 = alloca %"class.std::allocator.0", align 1
  %12 = alloca i32, align 4
  store %class.Unionfind* %0, %class.Unionfind** %3, align 8
  store i32 %1, i32* %4, align 4
  %13 = load %class.Unionfind*, %class.Unionfind** %3, align 8
  %14 = getelementptr inbounds %class.Unionfind, %class.Unionfind* %13, i32 0, i32 0
  %15 = load i32, i32* %4, align 4
  store i32 %15, i32* %14, align 8
  %16 = getelementptr inbounds %class.Unionfind, %class.Unionfind* %13, i32 0, i32 2
  %17 = load i32, i32* %4, align 4
  %18 = sext i32 %17 to i64
  call void @_ZNSaIiEC2Ev(%"class.std::allocator.0"* %5) #3
  invoke void @_ZNSt7__debug6vectorIiSaIiEEC2EmRKS1_(%"class.std::__debug::vector"* %16, i64 %18, %"class.std::allocator.0"* dereferenceable(1) %5)
          to label %19 unwind label %158

; <label>:19:                                     ; preds = %2
  call void @_ZNSaIiED2Ev(%"class.std::allocator.0"* %5) #3
  %20 = getelementptr inbounds %class.Unionfind, %class.Unionfind* %13, i32 0, i32 3
  %21 = load i32, i32* %4, align 4
  %22 = sext i32 %21 to i64
  store i32 0, i32* %8, align 4
  call void @_ZNSaIiEC2Ev(%"class.std::allocator.0"* %9) #3
  invoke void @_ZNSt7__debug6vectorIiSaIiEEC2EmRKiRKS1_(%"class.std::__debug::vector"* %20, i64 %22, i32* dereferenceable(4) %8, %"class.std::allocator.0"* dereferenceable(1) %9)
          to label %23 unwind label %162

; <label>:23:                                     ; preds = %19
  %24 = load i32, i32* @x.46
  %25 = load i32, i32* @y.47
  %26 = add i32 %24, 532232077
  %27 = sub i32 %26, 1
  %28 = sub i32 %27, 532232077
  %29 = sub i32 %24, 1
  %30 = mul i32 %24, %28
  %31 = urem i32 %30, 2
  %32 = icmp eq i32 %31, 0
  %33 = icmp slt i32 %25, 10
  %34 = and i1 %32, %33
  %35 = xor i1 %32, %33
  %36 = or i1 %34, %35
  %37 = or i1 %32, %33
  br i1 %36, label %38, label %249

; <label>:38:                                     ; preds = %23, %249
  call void @_ZNSaIiED2Ev(%"class.std::allocator.0"* %9) #3
  %39 = getelementptr inbounds %class.Unionfind, %class.Unionfind* %13, i32 0, i32 4
  %40 = load i32, i32* %4, align 4
  %41 = sext i32 %40 to i64
  store i32 1, i32* %10, align 4
  call void @_ZNSaIiEC2Ev(%"class.std::allocator.0"* %11) #3
  %42 = load i32, i32* @x.46
  %43 = load i32, i32* @y.47
  %44 = sub i32 %42, 469824334
  %45 = sub i32 %44, 1
  %46 = add i32 %45, 469824334
  %47 = sub i32 %42, 1
  %48 = mul i32 %42, %46
  %49 = urem i32 %48, 2
  %50 = icmp eq i32 %49, 0
  %51 = icmp slt i32 %43, 10
  %52 = and i1 %50, %51
  %53 = xor i1 %50, %51
  %54 = or i1 %52, %53
  %55 = or i1 %50, %51
  br i1 %54, label %56, label %249

; <label>:56:                                     ; preds = %38
  invoke void @_ZNSt7__debug6vectorIiSaIiEEC2EmRKiRKS1_(%"class.std::__debug::vector"* %39, i64 %41, i32* dereferenceable(4) %10, %"class.std::allocator.0"* dereferenceable(1) %11)
          to label %57 unwind label %195

; <label>:57:                                     ; preds = %56
  %58 = load i32, i32* @x.46
  %59 = load i32, i32* @y.47
  %60 = add i32 %58, 757905640
  %61 = sub i32 %60, 1
  %62 = sub i32 %61, 757905640
  %63 = sub i32 %58, 1
  %64 = mul i32 %58, %62
  %65 = urem i32 %64, 2
  %66 = icmp eq i32 %65, 0
  %67 = icmp slt i32 %59, 10
  %68 = xor i1 %66, true
  %69 = xor i1 %67, true
  %70 = xor i1 false, true
  %71 = and i1 %68, false
  %72 = and i1 %66, %70
  %73 = and i1 %69, false
  %74 = and i1 %67, %70
  %75 = or i1 %71, %72
  %76 = or i1 %73, %74
  %77 = xor i1 %75, %76
  %78 = or i1 %68, %69
  %79 = xor i1 %78, true
  %80 = or i1 false, %70
  %81 = and i1 %79, %80
  %82 = or i1 %77, %81
  %83 = or i1 %66, %67
  br i1 %82, label %84, label %253

; <label>:84:                                     ; preds = %57, %253
  call void @_ZNSaIiED2Ev(%"class.std::allocator.0"* %11) #3
  store i32 0, i32* %12, align 4
  %85 = load i32, i32* @x.46
  %86 = load i32, i32* @y.47
  %87 = add i32 %85, -763078927
  %88 = sub i32 %87, 1
  %89 = sub i32 %88, -763078927
  %90 = sub i32 %85, 1
  %91 = mul i32 %85, %89
  %92 = urem i32 %91, 2
  %93 = icmp eq i32 %92, 0
  %94 = icmp slt i32 %86, 10
  %95 = and i1 %93, %94
  %96 = xor i1 %93, %94
  %97 = or i1 %95, %96
  %98 = or i1 %93, %94
  br i1 %97, label %99, label %253

; <label>:99:                                     ; preds = %84
  br label %100

; <label>:100:                                    ; preds = %152, %99
  %101 = load i32, i32* %12, align 4
  %102 = load i32, i32* %4, align 4
  %103 = icmp slt i32 %101, %102
  br i1 %103, label %104, label %199

; <label>:104:                                    ; preds = %100
  %105 = load i32, i32* @x.46
  %106 = load i32, i32* @y.47
  %107 = add i32 %105, -1450722135
  %108 = sub i32 %107, 1
  %109 = sub i32 %108, -1450722135
  %110 = sub i32 %105, 1
  %111 = mul i32 %105, %109
  %112 = urem i32 %111, 2
  %113 = icmp eq i32 %112, 0
  %114 = icmp slt i32 %106, 10
  %115 = xor i1 %113, true
  %116 = xor i1 %114, true
  %117 = xor i1 true, true
  %118 = and i1 %115, true
  %119 = and i1 %113, %117
  %120 = and i1 %116, true
  %121 = and i1 %114, %117
  %122 = or i1 %118, %119
  %123 = or i1 %120, %121
  %124 = xor i1 %122, %123
  %125 = or i1 %115, %116
  %126 = xor i1 %125, true
  %127 = or i1 true, %117
  %128 = and i1 %126, %127
  %129 = or i1 %124, %128
  %130 = or i1 %113, %114
  br i1 %129, label %131, label %254

; <label>:131:                                    ; preds = %104, %254
  %132 = load i32, i32* %12, align 4
  %133 = getelementptr inbounds %class.Unionfind, %class.Unionfind* %13, i32 0, i32 2
  %134 = load i32, i32* %12, align 4
  %135 = sext i32 %134 to i64
  %136 = call dereferenceable(4) i32* @_ZNSt7__debug6vectorIiSaIiEEixEm(%"class.std::__debug::vector"* %133, i64 %135) #3
  store i32 %132, i32* %136, align 4
  %137 = load i32, i32* @x.46
  %138 = load i32, i32* @y.47
  %139 = add i32 %137, -1605313972
  %140 = sub i32 %139, 1
  %141 = sub i32 %140, -1605313972
  %142 = sub i32 %137, 1
  %143 = mul i32 %137, %141
  %144 = urem i32 %143, 2
  %145 = icmp eq i32 %144, 0
  %146 = icmp slt i32 %138, 10
  %147 = and i1 %145, %146
  %148 = xor i1 %145, %146
  %149 = or i1 %147, %148
  %150 = or i1 %145, %146
  br i1 %149, label %151, label %254

; <label>:151:                                    ; preds = %131
  br label %152

; <label>:152:                                    ; preds = %151
  %153 = load i32, i32* %12, align 4
  %154 = add i32 %153, -243045390
  %155 = add i32 %154, 1
  %156 = sub i32 %155, -243045390
  %157 = add nsw i32 %153, 1
  store i32 %156, i32* %12, align 4
  br label %100

; <label>:158:                                    ; preds = %2
  %159 = landingpad { i8*, i32 }
          cleanup
  %160 = extractvalue { i8*, i32 } %159, 0
  store i8* %160, i8** %6, align 8
  %161 = extractvalue { i8*, i32 } %159, 1
  store i32 %161, i32* %7, align 4
  call void @_ZNSaIiED2Ev(%"class.std::allocator.0"* %5) #3
  br label %244

; <label>:162:                                    ; preds = %19
  %163 = load i32, i32* @x.46
  %164 = load i32, i32* @y.47
  %165 = sub i32 0, 1
  %166 = add i32 %163, %165
  %167 = sub i32 %163, 1
  %168 = mul i32 %163, %166
  %169 = urem i32 %168, 2
  %170 = icmp eq i32 %169, 0
  %171 = icmp slt i32 %164, 10
  %172 = and i1 %170, %171
  %173 = xor i1 %170, %171
  %174 = or i1 %172, %173
  %175 = or i1 %170, %171
  br i1 %174, label %176, label %260

; <label>:176:                                    ; preds = %162, %260
  %177 = landingpad { i8*, i32 }
          cleanup
  %178 = extractvalue { i8*, i32 } %177, 0
  store i8* %178, i8** %6, align 8
  %179 = extractvalue { i8*, i32 } %177, 1
  store i32 %179, i32* %7, align 4
  call void @_ZNSaIiED2Ev(%"class.std::allocator.0"* %9) #3
  %180 = load i32, i32* @x.46
  %181 = load i32, i32* @y.47
  %182 = sub i32 %180, -855419440
  %183 = sub i32 %182, 1
  %184 = add i32 %183, -855419440
  %185 = sub i32 %180, 1
  %186 = mul i32 %180, %184
  %187 = urem i32 %186, 2
  %188 = icmp eq i32 %187, 0
  %189 = icmp slt i32 %181, 10
  %190 = and i1 %188, %189
  %191 = xor i1 %188, %189
  %192 = or i1 %190, %191
  %193 = or i1 %188, %189
  br i1 %192, label %194, label %260

; <label>:194:                                    ; preds = %176
  br label %202

; <label>:195:                                    ; preds = %56
  %196 = landingpad { i8*, i32 }
          cleanup
  %197 = extractvalue { i8*, i32 } %196, 0
  store i8* %197, i8** %6, align 8
  %198 = extractvalue { i8*, i32 } %196, 1
  store i32 %198, i32* %7, align 4
  call void @_ZNSaIiED2Ev(%"class.std::allocator.0"* %11) #3
  call void @_ZNSt7__debug6vectorIiSaIiEED2Ev(%"class.std::__debug::vector"* %20) #3
  br label %202

; <label>:199:                                    ; preds = %100
  %200 = load i32, i32* %4, align 4
  %201 = getelementptr inbounds %class.Unionfind, %class.Unionfind* %13, i32 0, i32 5
  store i32 %200, i32* %201, align 8
  ret void

; <label>:202:                                    ; preds = %195, %194
  %203 = load i32, i32* @x.46
  %204 = load i32, i32* @y.47
  %205 = sub i32 0, 1
  %206 = add i32 %203, %205
  %207 = sub i32 %203, 1
  %208 = mul i32 %203, %206
  %209 = urem i32 %208, 2
  %210 = icmp eq i32 %209, 0
  %211 = icmp slt i32 %204, 10
  %212 = and i1 %210, %211
  %213 = xor i1 %210, %211
  %214 = or i1 %212, %213
  %215 = or i1 %210, %211
  br i1 %214, label %216, label %264

; <label>:216:                                    ; preds = %202, %264
  call void @_ZNSt7__debug6vectorIiSaIiEED2Ev(%"class.std::__debug::vector"* %16) #3
  %217 = load i32, i32* @x.46
  %218 = load i32, i32* @y.47
  %219 = sub i32 %217, 719370273
  %220 = sub i32 %219, 1
  %221 = add i32 %220, 719370273
  %222 = sub i32 %217, 1
  %223 = mul i32 %217, %221
  %224 = urem i32 %223, 2
  %225 = icmp eq i32 %224, 0
  %226 = icmp slt i32 %218, 10
  %227 = xor i1 %225, true
  %228 = xor i1 %226, true
  %229 = xor i1 false, true
  %230 = and i1 %227, false
  %231 = and i1 %225, %229
  %232 = and i1 %228, false
  %233 = and i1 %226, %229
  %234 = or i1 %230, %231
  %235 = or i1 %232, %233
  %236 = xor i1 %234, %235
  %237 = or i1 %227, %228
  %238 = xor i1 %237, true
  %239 = or i1 false, %229
  %240 = and i1 %238, %239
  %241 = or i1 %236, %240
  %242 = or i1 %225, %226
  br i1 %241, label %243, label %264

; <label>:243:                                    ; preds = %216
  br label %244

; <label>:244:                                    ; preds = %243, %158
  %245 = load i8*, i8** %6, align 8
  %246 = load i32, i32* %7, align 4
  %247 = insertvalue { i8*, i32 } undef, i8* %245, 0
  %248 = insertvalue { i8*, i32 } %247, i32 %246, 1
  resume { i8*, i32 } %248

; <label>:249:                                    ; preds = %38, %23
  call void @_ZNSaIiED2Ev(%"class.std::allocator.0"* %9) #3
  %250 = getelementptr inbounds %class.Unionfind, %class.Unionfind* %13, i32 0, i32 4
  %251 = load i32, i32* %4, align 4
  %252 = sext i32 %251 to i64
  store i32 1, i32* %10, align 4
  call void @_ZNSaIiEC2Ev(%"class.std::allocator.0"* %11) #3
  br label %38

; <label>:253:                                    ; preds = %84, %57
  call void @_ZNSaIiED2Ev(%"class.std::allocator.0"* %11) #3
  store i32 0, i32* %12, align 4
  br label %84

; <label>:254:                                    ; preds = %131, %104
  %255 = load i32, i32* %12, align 4
  %256 = getelementptr inbounds %class.Unionfind, %class.Unionfind* %13, i32 0, i32 2
  %257 = load i32, i32* %12, align 4
  %258 = sext i32 %257 to i64
  %259 = call dereferenceable(4) i32* @_ZNSt7__debug6vectorIiSaIiEEixEm(%"class.std::__debug::vector"* %256, i64 %258) #3
  store i32 %255, i32* %259, align 4
  br label %131

; <label>:260:                                    ; preds = %176, %162
  %261 = landingpad { i8*, i32 }
          cleanup
  %262 = extractvalue { i8*, i32 } %261, 0
  store i8* %262, i8** %6, align 8
  %263 = extractvalue { i8*, i32 } %261, 1
  store i32 %263, i32* %7, align 4
  call void @_ZNSaIiED2Ev(%"class.std::allocator.0"* %9) #3
  br label %176

; <label>:264:                                    ; preds = %216, %202
  call void @_ZNSt7__debug6vectorIiSaIiEED2Ev(%"class.std::__debug::vector"* %16) #3
  br label %216
}

; Function Attrs: noinline nounwind uwtable
define linkonce_odr dereferenceable(4) i32* @_ZNSt7__debug6vectorIiSaIiEEixEm(%"class.std::__debug::vector"*, i64) #4 comdat align 2 personality i8* bitcast (i32 (...)* @__gxx_personality_v0 to i8*) {
  %3 = alloca %"class.std::__debug::vector"*, align 8
  %4 = alloca i64, align 8
  %5 = alloca %"class.__gnu_debug::_Error_formatter", align 8
  store %"class.std::__debug::vector"* %0, %"class.std::__debug::vector"** %3, align 8
  store i64 %1, i64* %4, align 8
  %6 = load %"class.std::__debug::vector"*, %"class.std::__debug::vector"** %3, align 8
  br label %7

; <label>:7:                                      ; preds = %2
  %8 = load i64, i64* %4, align 8
  %9 = bitcast %"class.std::__debug::vector"* %6 to i8*
  %10 = getelementptr inbounds i8, i8* %9, i64 24
  %11 = bitcast i8* %10 to %"class.std::__cxx1998::vector"*
  %12 = call i64 @_ZNKSt9__cxx19986vectorIiSaIiEE4sizeEv(%"class.std::__cxx1998::vector"* %11) #3
  %13 = icmp ult i64 %8, %12
  br i1 %13, label %111, label %14

; <label>:14:                                     ; preds = %7
  invoke void @_ZN11__gnu_debug16_Error_formatter5_M_atEPKcm(%"class.__gnu_debug::_Error_formatter"* sret %5, i8* getelementptr inbounds ([79 x i8], [79 x i8]* @.str.3, i32 0, i32 0), i64 409)
          to label %15 unwind label %117

; <label>:15:                                     ; preds = %14
  %16 = load i32, i32* @x.48
  %17 = load i32, i32* @y.49
  %18 = sub i32 0, 1
  %19 = add i32 %16, %18
  %20 = sub i32 %16, 1
  %21 = mul i32 %16, %19
  %22 = urem i32 %21, 2
  %23 = icmp eq i32 %22, 0
  %24 = icmp slt i32 %17, 10
  %25 = xor i1 %23, true
  %26 = xor i1 %24, true
  %27 = xor i1 true, true
  %28 = and i1 %25, true
  %29 = and i1 %23, %27
  %30 = and i1 %26, true
  %31 = and i1 %24, %27
  %32 = or i1 %28, %29
  %33 = or i1 %30, %31
  %34 = xor i1 %32, %33
  %35 = or i1 %25, %26
  %36 = xor i1 %35, true
  %37 = or i1 true, %27
  %38 = and i1 %36, %37
  %39 = or i1 %34, %38
  %40 = or i1 %23, %24
  br i1 %39, label %41, label %120

; <label>:41:                                     ; preds = %15, %120
  %42 = call dereferenceable(560) %"class.__gnu_debug::_Error_formatter"* @_ZNK11__gnu_debug16_Error_formatter10_M_messageENS_13_Debug_msg_idE(%"class.__gnu_debug::_Error_formatter"* %5, i32 5) #3
  %43 = load i32, i32* @x.48
  %44 = load i32, i32* @y.49
  %45 = add i32 %43, 1333220621
  %46 = sub i32 %45, 1
  %47 = sub i32 %46, 1333220621
  %48 = sub i32 %43, 1
  %49 = mul i32 %43, %47
  %50 = urem i32 %49, 2
  %51 = icmp eq i32 %50, 0
  %52 = icmp slt i32 %44, 10
  %53 = and i1 %51, %52
  %54 = xor i1 %51, %52
  %55 = or i1 %53, %54
  %56 = or i1 %51, %52
  br i1 %55, label %57, label %120

; <label>:57:                                     ; preds = %41
  %58 = invoke dereferenceable(560) %"class.__gnu_debug::_Error_formatter"* @_ZNK11__gnu_debug16_Error_formatter11_M_sequenceINSt7__debug6vectorIiSaIiEEEEERKS0_RKT_PKc(%"class.__gnu_debug::_Error_formatter"* %42, %"class.std::__debug::vector"* dereferenceable(56) %6, i8* getelementptr inbounds ([5 x i8], [5 x i8]* @.str.4, i32 0, i32 0))
          to label %59 unwind label %117

; <label>:59:                                     ; preds = %57
  %60 = load i32, i32* @x.48
  %61 = load i32, i32* @y.49
  %62 = add i32 %60, -1457895728
  %63 = sub i32 %62, 1
  %64 = sub i32 %63, -1457895728
  %65 = sub i32 %60, 1
  %66 = mul i32 %60, %64
  %67 = urem i32 %66, 2
  %68 = icmp eq i32 %67, 0
  %69 = icmp slt i32 %61, 10
  %70 = xor i1 %68, true
  %71 = xor i1 %69, true
  %72 = xor i1 true, true
  %73 = and i1 %70, true
  %74 = and i1 %68, %72
  %75 = and i1 %71, true
  %76 = and i1 %69, %72
  %77 = or i1 %73, %74
  %78 = or i1 %75, %76
  %79 = xor i1 %77, %78
  %80 = or i1 %70, %71
  %81 = xor i1 %80, true
  %82 = or i1 true, %72
  %83 = and i1 %81, %82
  %84 = or i1 %79, %83
  %85 = or i1 %68, %69
  br i1 %84, label %86, label %122

; <label>:86:                                     ; preds = %59, %122
  %87 = load i64, i64* %4, align 8
  %88 = load i32, i32* @x.48
  %89 = load i32, i32* @y.49
  %90 = sub i32 0, 1
  %91 = add i32 %88, %90
  %92 = sub i32 %88, 1
  %93 = mul i32 %88, %91
  %94 = urem i32 %93, 2
  %95 = icmp eq i32 %94, 0
  %96 = icmp slt i32 %89, 10
  %97 = and i1 %95, %96
  %98 = xor i1 %95, %96
  %99 = or i1 %97, %98
  %100 = or i1 %95, %96
  br i1 %99, label %101, label %122

; <label>:101:                                    ; preds = %86
  %102 = invoke dereferenceable(560) %"class.__gnu_debug::_Error_formatter"* @_ZNK11__gnu_debug16_Error_formatter10_M_integerElPKc(%"class.__gnu_debug::_Error_formatter"* %58, i64 %87, i8* getelementptr inbounds ([4 x i8], [4 x i8]* @.str.5, i32 0, i32 0))
          to label %103 unwind label %117

; <label>:103:                                    ; preds = %101
  %104 = bitcast %"class.std::__debug::vector"* %6 to i8*
  %105 = getelementptr inbounds i8, i8* %104, i64 24
  %106 = bitcast i8* %105 to %"class.std::__cxx1998::vector"*
  %107 = call i64 @_ZNKSt9__cxx19986vectorIiSaIiEE4sizeEv(%"class.std::__cxx1998::vector"* %106) #3
  %108 = invoke dereferenceable(560) %"class.__gnu_debug::_Error_formatter"* @_ZNK11__gnu_debug16_Error_formatter10_M_integerElPKc(%"class.__gnu_debug::_Error_formatter"* %102, i64 %107, i8* getelementptr inbounds ([5 x i8], [5 x i8]* @.str.6, i32 0, i32 0))
          to label %109 unwind label %117

; <label>:109:                                    ; preds = %103
  invoke void @_ZNK11__gnu_debug16_Error_formatter8_M_errorEv(%"class.__gnu_debug::_Error_formatter"* %108) #13
          to label %110 unwind label %117

; <label>:110:                                    ; preds = %109
  unreachable

; <label>:111:                                    ; preds = %7
  br label %112

; <label>:112:                                    ; preds = %111
  br label %113

; <label>:113:                                    ; preds = %112
  %114 = call dereferenceable(24) %"class.std::__cxx1998::vector"* @_ZNSt7__debug6vectorIiSaIiEE7_M_baseEv(%"class.std::__debug::vector"* %6) #3
  %115 = load i64, i64* %4, align 8
  %116 = call dereferenceable(4) i32* @_ZNSt9__cxx19986vectorIiSaIiEEixEm(%"class.std::__cxx1998::vector"* %114, i64 %115) #3
  ret i32* %116

; <label>:117:                                    ; preds = %109, %103, %101, %57, %14
  %118 = landingpad { i8*, i32 }
          catch i8* null
  %119 = extractvalue { i8*, i32 } %118, 0
  call void @__clang_call_terminate(i8* %119) #10
  unreachable

; <label>:120:                                    ; preds = %41, %15
  %121 = call dereferenceable(560) %"class.__gnu_debug::_Error_formatter"* @_ZNK11__gnu_debug16_Error_formatter10_M_messageENS_13_Debug_msg_idE(%"class.__gnu_debug::_Error_formatter"* %5, i32 5) #3
  br label %41

; <label>:122:                                    ; preds = %86, %59
  %123 = load i64, i64* %4, align 8
  br label %86
}

; Function Attrs: noinline uwtable
define linkonce_odr void @_ZN9Unionfind5uniteEii(%class.Unionfind*, i32, i32) #0 comdat align 2 {
  %4 = alloca i1
  %5 = alloca %class.Unionfind*
  %6 = alloca i32*
  %7 = alloca i32*
  %8 = alloca i1
  %9 = alloca i1
  %10 = load i32, i32* @x.50
  %11 = load i32, i32* @y.51
  %12 = sub i32 0, 1
  %13 = add i32 %10, %12
  %14 = sub i32 %10, 1
  %15 = mul i32 %10, %13
  %16 = urem i32 %15, 2
  %17 = icmp eq i32 %16, 0
  store i1 %17, i1* %9
  %18 = icmp slt i32 %11, 10
  store i1 %18, i1* %8
  %19 = alloca i32
  store i32 437865620, i32* %19
  br label %20

; <label>:20:                                     ; preds = %3, %301
  %21 = load i32, i32* %19
  switch i32 %21, label %22 [
    i32 437865620, label %23
    i32 -222286013, label %43
    i32 1436504004, label %80
    i32 188345310, label %83
    i32 -827690806, label %99
    i32 2026300948, label %114
    i32 109958524, label %115
    i32 -71879742, label %139
    i32 -1944540065, label %165
    i32 -2104046109, label %209
    i32 323784751, label %236
    i32 726974950, label %263
    i32 -1489472415, label %264
    i32 -1614929885, label %265
    i32 2068153435, label %266
    i32 -1962464833, label %278
    i32 -120659245, label %279
  ]

; <label>:22:                                     ; preds = %20
  br label %301

; <label>:23:                                     ; preds = %20
  %24 = load volatile i1, i1* %9
  %25 = load volatile i1, i1* %8
  %26 = xor i1 %24, true
  %27 = xor i1 %25, true
  %28 = xor i1 false, true
  %29 = and i1 %26, false
  %30 = and i1 %24, %28
  %31 = and i1 %27, false
  %32 = and i1 %25, %28
  %33 = or i1 %29, %30
  %34 = or i1 %31, %32
  %35 = xor i1 %33, %34
  %36 = or i1 %26, %27
  %37 = xor i1 %36, true
  %38 = or i1 false, %28
  %39 = and i1 %37, %38
  %40 = or i1 %35, %39
  %41 = or i1 %24, %25
  %42 = select i1 %40, i32 -222286013, i32 2068153435
  store i32 %42, i32* %19
  br label %301

; <label>:43:                                     ; preds = %20
  %44 = alloca %class.Unionfind*, align 8
  %45 = alloca i32, align 4
  store i32* %45, i32** %7
  %46 = alloca i32, align 4
  store i32* %46, i32** %6
  store %class.Unionfind* %0, %class.Unionfind** %44, align 8
  %47 = load volatile i32*, i32** %7
  store i32 %1, i32* %47, align 4
  %48 = load volatile i32*, i32** %6
  store i32 %2, i32* %48, align 4
  %49 = load %class.Unionfind*, %class.Unionfind** %44, align 8
  store %class.Unionfind* %49, %class.Unionfind** %5
  %50 = load volatile i32*, i32** %7
  %51 = load i32, i32* %50, align 4
  %52 = load volatile %class.Unionfind*, %class.Unionfind** %5
  %53 = call i32 @_ZN9Unionfind4rootEi(%class.Unionfind* %52, i32 %51)
  %54 = load volatile i32*, i32** %7
  store i32 %53, i32* %54, align 4
  %55 = load volatile i32*, i32** %6
  %56 = load i32, i32* %55, align 4
  %57 = load volatile %class.Unionfind*, %class.Unionfind** %5
  %58 = call i32 @_ZN9Unionfind4rootEi(%class.Unionfind* %57, i32 %56)
  %59 = load volatile i32*, i32** %6
  store i32 %58, i32* %59, align 4
  %60 = load volatile i32*, i32** %7
  %61 = load i32, i32* %60, align 4
  %62 = load volatile i32*, i32** %6
  %63 = load i32, i32* %62, align 4
  %64 = icmp eq i32 %61, %63
  store i1 %64, i1* %4
  %65 = load i32, i32* @x.50
  %66 = load i32, i32* @y.51
  %67 = sub i32 %65, -435344012
  %68 = sub i32 %67, 1
  %69 = add i32 %68, -435344012
  %70 = sub i32 %65, 1
  %71 = mul i32 %65, %69
  %72 = urem i32 %71, 2
  %73 = icmp eq i32 %72, 0
  %74 = icmp slt i32 %66, 10
  %75 = and i1 %73, %74
  %76 = xor i1 %73, %74
  %77 = or i1 %75, %76
  %78 = or i1 %73, %74
  %79 = select i1 %77, i32 1436504004, i32 2068153435
  store i32 %79, i32* %19
  br label %301

; <label>:80:                                     ; preds = %20
  %81 = load volatile i1, i1* %4
  %82 = select i1 %81, i32 188345310, i32 109958524
  store i32 %82, i32* %19
  br label %301

; <label>:83:                                     ; preds = %20
  %84 = load i32, i32* @x.50
  %85 = load i32, i32* @y.51
  %86 = sub i32 %84, -1881897346
  %87 = sub i32 %86, 1
  %88 = add i32 %87, -1881897346
  %89 = sub i32 %84, 1
  %90 = mul i32 %84, %88
  %91 = urem i32 %90, 2
  %92 = icmp eq i32 %91, 0
  %93 = icmp slt i32 %85, 10
  %94 = and i1 %92, %93
  %95 = xor i1 %92, %93
  %96 = or i1 %94, %95
  %97 = or i1 %92, %93
  %98 = select i1 %96, i32 -827690806, i32 -1962464833
  store i32 %98, i32* %19
  br label %301

; <label>:99:                                     ; preds = %20
  %100 = load i32, i32* @x.50
  %101 = load i32, i32* @y.51
  %102 = sub i32 0, 1
  %103 = add i32 %100, %102
  %104 = sub i32 %100, 1
  %105 = mul i32 %100, %103
  %106 = urem i32 %105, 2
  %107 = icmp eq i32 %106, 0
  %108 = icmp slt i32 %101, 10
  %109 = and i1 %107, %108
  %110 = xor i1 %107, %108
  %111 = or i1 %109, %110
  %112 = or i1 %107, %108
  %113 = select i1 %111, i32 2026300948, i32 -1962464833
  store i32 %113, i32* %19
  br label %301

; <label>:114:                                    ; preds = %20
  store i32 -1614929885, i32* %19
  br label %301

; <label>:115:                                    ; preds = %20
  %116 = load volatile %class.Unionfind*, %class.Unionfind** %5
  %117 = getelementptr inbounds %class.Unionfind, %class.Unionfind* %116, i32 0, i32 5
  %118 = load i32, i32* %117, align 8
  %119 = add i32 %118, -1665672494
  %120 = add i32 %119, -1
  %121 = sub i32 %120, -1665672494
  %122 = add nsw i32 %118, -1
  store i32 %121, i32* %117, align 8
  %123 = load volatile %class.Unionfind*, %class.Unionfind** %5
  %124 = getelementptr inbounds %class.Unionfind, %class.Unionfind* %123, i32 0, i32 3
  %125 = load volatile i32*, i32** %7
  %126 = load i32, i32* %125, align 4
  %127 = sext i32 %126 to i64
  %128 = call dereferenceable(4) i32* @_ZNSt7__debug6vectorIiSaIiEEixEm(%"class.std::__debug::vector"* %124, i64 %127) #3
  %129 = load i32, i32* %128, align 4
  %130 = load volatile %class.Unionfind*, %class.Unionfind** %5
  %131 = getelementptr inbounds %class.Unionfind, %class.Unionfind* %130, i32 0, i32 3
  %132 = load volatile i32*, i32** %6
  %133 = load i32, i32* %132, align 4
  %134 = sext i32 %133 to i64
  %135 = call dereferenceable(4) i32* @_ZNSt7__debug6vectorIiSaIiEEixEm(%"class.std::__debug::vector"* %131, i64 %134) #3
  %136 = load i32, i32* %135, align 4
  %137 = icmp slt i32 %129, %136
  %138 = select i1 %137, i32 -71879742, i32 -1944540065
  store i32 %138, i32* %19
  br label %301

; <label>:139:                                    ; preds = %20
  %140 = load volatile i32*, i32** %6
  %141 = load i32, i32* %140, align 4
  %142 = load volatile %class.Unionfind*, %class.Unionfind** %5
  %143 = getelementptr inbounds %class.Unionfind, %class.Unionfind* %142, i32 0, i32 2
  %144 = load volatile i32*, i32** %7
  %145 = load i32, i32* %144, align 4
  %146 = sext i32 %145 to i64
  %147 = call dereferenceable(4) i32* @_ZNSt7__debug6vectorIiSaIiEEixEm(%"class.std::__debug::vector"* %143, i64 %146) #3
  store i32 %141, i32* %147, align 4
  %148 = load volatile %class.Unionfind*, %class.Unionfind** %5
  %149 = getelementptr inbounds %class.Unionfind, %class.Unionfind* %148, i32 0, i32 4
  %150 = load volatile i32*, i32** %7
  %151 = load i32, i32* %150, align 4
  %152 = sext i32 %151 to i64
  %153 = call dereferenceable(4) i32* @_ZNSt7__debug6vectorIiSaIiEEixEm(%"class.std::__debug::vector"* %149, i64 %152) #3
  %154 = load i32, i32* %153, align 4
  %155 = load volatile %class.Unionfind*, %class.Unionfind** %5
  %156 = getelementptr inbounds %class.Unionfind, %class.Unionfind* %155, i32 0, i32 4
  %157 = load volatile i32*, i32** %6
  %158 = load i32, i32* %157, align 4
  %159 = sext i32 %158 to i64
  %160 = call dereferenceable(4) i32* @_ZNSt7__debug6vectorIiSaIiEEixEm(%"class.std::__debug::vector"* %156, i64 %159) #3
  %161 = load i32, i32* %160, align 4
  %162 = sub i32 0, %154
  %163 = sub i32 %161, %162
  %164 = add nsw i32 %161, %154
  store i32 %163, i32* %160, align 4
  store i32 -1614929885, i32* %19
  br label %301

; <label>:165:                                    ; preds = %20
  %166 = load volatile i32*, i32** %7
  %167 = load i32, i32* %166, align 4
  %168 = load volatile %class.Unionfind*, %class.Unionfind** %5
  %169 = getelementptr inbounds %class.Unionfind, %class.Unionfind* %168, i32 0, i32 2
  %170 = load volatile i32*, i32** %6
  %171 = load i32, i32* %170, align 4
  %172 = sext i32 %171 to i64
  %173 = call dereferenceable(4) i32* @_ZNSt7__debug6vectorIiSaIiEEixEm(%"class.std::__debug::vector"* %169, i64 %172) #3
  store i32 %167, i32* %173, align 4
  %174 = load volatile %class.Unionfind*, %class.Unionfind** %5
  %175 = getelementptr inbounds %class.Unionfind, %class.Unionfind* %174, i32 0, i32 4
  %176 = load volatile i32*, i32** %6
  %177 = load i32, i32* %176, align 4
  %178 = sext i32 %177 to i64
  %179 = call dereferenceable(4) i32* @_ZNSt7__debug6vectorIiSaIiEEixEm(%"class.std::__debug::vector"* %175, i64 %178) #3
  %180 = load i32, i32* %179, align 4
  %181 = load volatile %class.Unionfind*, %class.Unionfind** %5
  %182 = getelementptr inbounds %class.Unionfind, %class.Unionfind* %181, i32 0, i32 4
  %183 = load volatile i32*, i32** %7
  %184 = load i32, i32* %183, align 4
  %185 = sext i32 %184 to i64
  %186 = call dereferenceable(4) i32* @_ZNSt7__debug6vectorIiSaIiEEixEm(%"class.std::__debug::vector"* %182, i64 %185) #3
  %187 = load i32, i32* %186, align 4
  %188 = sub i32 0, %187
  %189 = sub i32 0, %180
  %190 = add i32 %188, %189
  %191 = sub i32 0, %190
  %192 = add nsw i32 %187, %180
  store i32 %191, i32* %186, align 4
  %193 = load volatile %class.Unionfind*, %class.Unionfind** %5
  %194 = getelementptr inbounds %class.Unionfind, %class.Unionfind* %193, i32 0, i32 3
  %195 = load volatile i32*, i32** %7
  %196 = load i32, i32* %195, align 4
  %197 = sext i32 %196 to i64
  %198 = call dereferenceable(4) i32* @_ZNSt7__debug6vectorIiSaIiEEixEm(%"class.std::__debug::vector"* %194, i64 %197) #3
  %199 = load i32, i32* %198, align 4
  %200 = load volatile %class.Unionfind*, %class.Unionfind** %5
  %201 = getelementptr inbounds %class.Unionfind, %class.Unionfind* %200, i32 0, i32 3
  %202 = load volatile i32*, i32** %6
  %203 = load i32, i32* %202, align 4
  %204 = sext i32 %203 to i64
  %205 = call dereferenceable(4) i32* @_ZNSt7__debug6vectorIiSaIiEEixEm(%"class.std::__debug::vector"* %201, i64 %204) #3
  %206 = load i32, i32* %205, align 4
  %207 = icmp eq i32 %199, %206
  %208 = select i1 %207, i32 -2104046109, i32 -1489472415
  store i32 %208, i32* %19
  br label %301

; <label>:209:                                    ; preds = %20
  %210 = load i32, i32* @x.50
  %211 = load i32, i32* @y.51
  %212 = sub i32 0, 1
  %213 = add i32 %210, %212
  %214 = sub i32 %210, 1
  %215 = mul i32 %210, %213
  %216 = urem i32 %215, 2
  %217 = icmp eq i32 %216, 0
  %218 = icmp slt i32 %211, 10
  %219 = xor i1 %217, true
  %220 = xor i1 %218, true
  %221 = xor i1 true, true
  %222 = and i1 %219, true
  %223 = and i1 %217, %221
  %224 = and i1 %220, true
  %225 = and i1 %218, %221
  %226 = or i1 %222, %223
  %227 = or i1 %224, %225
  %228 = xor i1 %226, %227
  %229 = or i1 %219, %220
  %230 = xor i1 %229, true
  %231 = or i1 true, %221
  %232 = and i1 %230, %231
  %233 = or i1 %228, %232
  %234 = or i1 %217, %218
  %235 = select i1 %233, i32 323784751, i32 -120659245
  store i32 %235, i32* %19
  br label %301

; <label>:236:                                    ; preds = %20
  %237 = load volatile %class.Unionfind*, %class.Unionfind** %5
  %238 = getelementptr inbounds %class.Unionfind, %class.Unionfind* %237, i32 0, i32 3
  %239 = load volatile i32*, i32** %7
  %240 = load i32, i32* %239, align 4
  %241 = sext i32 %240 to i64
  %242 = call dereferenceable(4) i32* @_ZNSt7__debug6vectorIiSaIiEEixEm(%"class.std::__debug::vector"* %238, i64 %241) #3
  %243 = load i32, i32* %242, align 4
  %244 = add i32 %243, -324736480
  %245 = add i32 %244, 1
  %246 = sub i32 %245, -324736480
  %247 = add nsw i32 %243, 1
  store i32 %246, i32* %242, align 4
  %248 = load i32, i32* @x.50
  %249 = load i32, i32* @y.51
  %250 = sub i32 %248, -1391478905
  %251 = sub i32 %250, 1
  %252 = add i32 %251, -1391478905
  %253 = sub i32 %248, 1
  %254 = mul i32 %248, %252
  %255 = urem i32 %254, 2
  %256 = icmp eq i32 %255, 0
  %257 = icmp slt i32 %249, 10
  %258 = and i1 %256, %257
  %259 = xor i1 %256, %257
  %260 = or i1 %258, %259
  %261 = or i1 %256, %257
  %262 = select i1 %260, i32 726974950, i32 -120659245
  store i32 %262, i32* %19
  br label %301

; <label>:263:                                    ; preds = %20
  store i32 -1489472415, i32* %19
  br label %301

; <label>:264:                                    ; preds = %20
  store i32 -1614929885, i32* %19
  br label %301

; <label>:265:                                    ; preds = %20
  ret void

; <label>:266:                                    ; preds = %20
  %267 = alloca %class.Unionfind*, align 8
  %268 = alloca i32, align 4
  %269 = alloca i32, align 4
  store %class.Unionfind* %0, %class.Unionfind** %267, align 8
  store i32 %1, i32* %268, align 4
  store i32 %2, i32* %269, align 4
  %270 = load %class.Unionfind*, %class.Unionfind** %267, align 8
  %271 = load i32, i32* %268, align 4
  %272 = call i32 @_ZN9Unionfind4rootEi(%class.Unionfind* %270, i32 %271)
  store i32 %272, i32* %268, align 4
  %273 = load i32, i32* %269, align 4
  %274 = call i32 @_ZN9Unionfind4rootEi(%class.Unionfind* %270, i32 %273)
  store i32 %274, i32* %269, align 4
  %275 = load i32, i32* %268, align 4
  %276 = load i32, i32* %269, align 4
  %277 = icmp eq i32 %275, %276
  store i32 -222286013, i32* %19
  br label %301

; <label>:278:                                    ; preds = %20
  store i32 -827690806, i32* %19
  br label %301

; <label>:279:                                    ; preds = %20
  %280 = load volatile %class.Unionfind*, %class.Unionfind** %5
  %281 = getelementptr inbounds %class.Unionfind, %class.Unionfind* %280, i32 0, i32 3
  %282 = load volatile i32*, i32** %7
  %283 = load i32, i32* %282, align 4
  %284 = sext i32 %283 to i64
  %285 = call dereferenceable(4) i32* @_ZNSt7__debug6vectorIiSaIiEEixEm(%"class.std::__debug::vector"* %281, i64 %284) #3
  %286 = load i32, i32* %285, align 4
  %287 = sub i32 0, 1
  %288 = add i32 %286, %287
  %289 = sub i32 %286, 1
  %290 = mul i32 %288, 1
  %291 = shl i32 %286, 1
  %292 = sub i32 %286, -2011615244
  %293 = sub i32 %292, 1
  %294 = add i32 %293, -2011615244
  %295 = sub i32 %286, 1
  %296 = mul i32 %294, 1
  %297 = add i32 %286, 2096938345
  %298 = add i32 %297, 1
  %299 = sub i32 %298, 2096938345
  %300 = add nsw i32 %286, 1
  store i32 %299, i32* %285, align 4
  store i32 323784751, i32* %19
  br label %301

; <label>:301:                                    ; preds = %279, %278, %266, %264, %263, %236, %209, %165, %139, %115, %114, %99, %83, %80, %43, %23, %22
  br label %20
}

; Function Attrs: noinline uwtable
define linkonce_odr void @_ZN9Unionfind5groupEv(%"class.std::__debug::vector.3"* noalias sret, %class.Unionfind*) #0 comdat align 2 personality i8* bitcast (i32 (...)* @__gxx_personality_v0 to i8*) {
  %3 = alloca %class.Unionfind*, align 8
  %4 = alloca i1, align 1
  %5 = alloca %"class.std::__debug::vector.3", align 8
  %6 = alloca %"class.std::allocator.10", align 1
  %7 = alloca i8*
  %8 = alloca i32
  %9 = alloca i32, align 4
  %10 = alloca i32, align 4
  store %class.Unionfind* %1, %class.Unionfind** %3, align 8
  %11 = load %class.Unionfind*, %class.Unionfind** %3, align 8
  store i1 false, i1* %4, align 1
  call void @_ZNSt7__debug6vectorINS0_IiSaIiEEESaIS2_EEC2Ev(%"class.std::__debug::vector.3"* %0) #3
  %12 = getelementptr inbounds %class.Unionfind, %class.Unionfind* %11, i32 0, i32 0
  %13 = load i32, i32* %12, align 8
  %14 = sext i32 %13 to i64
  call void @_ZNSaINSt7__debug6vectorIiSaIiEEEEC2Ev(%"class.std::allocator.10"* %6) #3
  invoke void @_ZNSt7__debug6vectorINS0_IiSaIiEEESaIS2_EEC2EmRKS3_(%"class.std::__debug::vector.3"* %5, i64 %14, %"class.std::allocator.10"* dereferenceable(1) %6)
          to label %15 unwind label %64

; <label>:15:                                     ; preds = %2
  call void @_ZNSaINSt7__debug6vectorIiSaIiEEEED2Ev(%"class.std::allocator.10"* %6) #3
  store i32 0, i32* %9, align 4
  br label %16

; <label>:16:                                     ; preds = %58, %15
  %17 = load i32, i32* %9, align 4
  %18 = getelementptr inbounds %class.Unionfind, %class.Unionfind* %11, i32 0, i32 0
  %19 = load i32, i32* %18, align 8
  %20 = icmp slt i32 %17, %19
  br i1 %20, label %21, label %114

; <label>:21:                                     ; preds = %16
  %22 = load i32, i32* %9, align 4
  %23 = invoke i32 @_ZN9Unionfind4rootEi(%class.Unionfind* %11, i32 %22)
          to label %24 unwind label %110

; <label>:24:                                     ; preds = %21
  %25 = load i32, i32* @x.52
  %26 = load i32, i32* @y.53
  %27 = sub i32 %25, 1751956779
  %28 = sub i32 %27, 1
  %29 = add i32 %28, 1751956779
  %30 = sub i32 %25, 1
  %31 = mul i32 %25, %29
  %32 = urem i32 %31, 2
  %33 = icmp eq i32 %32, 0
  %34 = icmp slt i32 %26, 10
  %35 = and i1 %33, %34
  %36 = xor i1 %33, %34
  %37 = or i1 %35, %36
  %38 = or i1 %33, %34
  br i1 %37, label %39, label %277

; <label>:39:                                     ; preds = %24, %277
  %40 = sext i32 %23 to i64
  %41 = call dereferenceable(56) %"class.std::__debug::vector"* @_ZNSt7__debug6vectorINS0_IiSaIiEEESaIS2_EEixEm(%"class.std::__debug::vector.3"* %5, i64 %40) #3
  %42 = load i32, i32* @x.52
  %43 = load i32, i32* @y.53
  %44 = sub i32 %42, -844468972
  %45 = sub i32 %44, 1
  %46 = add i32 %45, -844468972
  %47 = sub i32 %42, 1
  %48 = mul i32 %42, %46
  %49 = urem i32 %48, 2
  %50 = icmp eq i32 %49, 0
  %51 = icmp slt i32 %43, 10
  %52 = and i1 %50, %51
  %53 = xor i1 %50, %51
  %54 = or i1 %52, %53
  %55 = or i1 %50, %51
  br i1 %54, label %56, label %277

; <label>:56:                                     ; preds = %39
  invoke void @_ZNSt7__debug6vectorIiSaIiEE9push_backERKi(%"class.std::__debug::vector"* %41, i32* dereferenceable(4) %9)
          to label %57 unwind label %110

; <label>:57:                                     ; preds = %56
  br label %58

; <label>:58:                                     ; preds = %57
  %59 = load i32, i32* %9, align 4
  %60 = add i32 %59, -602573958
  %61 = add i32 %60, 1
  %62 = sub i32 %61, -602573958
  %63 = add nsw i32 %59, 1
  store i32 %62, i32* %9, align 4
  br label %16

; <label>:64:                                     ; preds = %2
  %65 = load i32, i32* @x.52
  %66 = load i32, i32* @y.53
  %67 = add i32 %65, 2064700859
  %68 = sub i32 %67, 1
  %69 = sub i32 %68, 2064700859
  %70 = sub i32 %65, 1
  %71 = mul i32 %65, %69
  %72 = urem i32 %71, 2
  %73 = icmp eq i32 %72, 0
  %74 = icmp slt i32 %66, 10
  %75 = xor i1 %73, true
  %76 = xor i1 %74, true
  %77 = xor i1 true, true
  %78 = and i1 %75, true
  %79 = and i1 %73, %77
  %80 = and i1 %76, true
  %81 = and i1 %74, %77
  %82 = or i1 %78, %79
  %83 = or i1 %80, %81
  %84 = xor i1 %82, %83
  %85 = or i1 %75, %76
  %86 = xor i1 %85, true
  %87 = or i1 true, %77
  %88 = and i1 %86, %87
  %89 = or i1 %84, %88
  %90 = or i1 %73, %74
  br i1 %89, label %91, label %280

; <label>:91:                                     ; preds = %64, %280
  %92 = landingpad { i8*, i32 }
          cleanup
  %93 = extractvalue { i8*, i32 } %92, 0
  store i8* %93, i8** %7, align 8
  %94 = extractvalue { i8*, i32 } %92, 1
  store i32 %94, i32* %8, align 4
  call void @_ZNSaINSt7__debug6vectorIiSaIiEEEED2Ev(%"class.std::allocator.10"* %6) #3
  %95 = load i32, i32* @x.52
  %96 = load i32, i32* @y.53
  %97 = add i32 %95, -229830565
  %98 = sub i32 %97, 1
  %99 = sub i32 %98, -229830565
  %100 = sub i32 %95, 1
  %101 = mul i32 %95, %99
  %102 = urem i32 %101, 2
  %103 = icmp eq i32 %102, 0
  %104 = icmp slt i32 %96, 10
  %105 = and i1 %103, %104
  %106 = xor i1 %103, %104
  %107 = or i1 %105, %106
  %108 = or i1 %103, %104
  br i1 %107, label %109, label %280

; <label>:109:                                    ; preds = %91
  br label %271

; <label>:110:                                    ; preds = %217, %56, %21
  %111 = landingpad { i8*, i32 }
          cleanup
  %112 = extractvalue { i8*, i32 } %111, 0
  store i8* %112, i8** %7, align 8
  %113 = extractvalue { i8*, i32 } %111, 1
  store i32 %113, i32* %8, align 4
  call void @_ZNSt7__debug6vectorINS0_IiSaIiEEESaIS2_EED2Ev(%"class.std::__debug::vector.3"* %5) #3
  br label %271

; <label>:114:                                    ; preds = %16
  store i32 0, i32* %10, align 4
  br label %115

; <label>:115:                                    ; preds = %220, %114
  %116 = load i32, i32* %10, align 4
  %117 = sext i32 %116 to i64
  %118 = getelementptr inbounds %class.Unionfind, %class.Unionfind* %11, i32 0, i32 0
  %119 = load i32, i32* %118, align 8
  %120 = sext i32 %119 to i64
  %121 = icmp slt i64 %117, %120
  br i1 %121, label %122, label %226

; <label>:122:                                    ; preds = %115
  %123 = load i32, i32* @x.52
  %124 = load i32, i32* @y.53
  %125 = sub i32 %123, -269106674
  %126 = sub i32 %125, 1
  %127 = add i32 %126, -269106674
  %128 = sub i32 %123, 1
  %129 = mul i32 %123, %127
  %130 = urem i32 %129, 2
  %131 = icmp eq i32 %130, 0
  %132 = icmp slt i32 %124, 10
  %133 = and i1 %131, %132
  %134 = xor i1 %131, %132
  %135 = or i1 %133, %134
  %136 = or i1 %131, %132
  br i1 %135, label %137, label %284

; <label>:137:                                    ; preds = %122, %284
  %138 = load i32, i32* %10, align 4
  %139 = sext i32 %138 to i64
  %140 = call dereferenceable(56) %"class.std::__debug::vector"* @_ZNSt7__debug6vectorINS0_IiSaIiEEESaIS2_EEixEm(%"class.std::__debug::vector.3"* %5, i64 %139) #3
  %141 = bitcast %"class.std::__debug::vector"* %140 to i8*
  %142 = getelementptr inbounds i8, i8* %141, i64 24
  %143 = bitcast i8* %142 to %"class.std::__cxx1998::vector"*
  %144 = call zeroext i1 @_ZNKSt9__cxx19986vectorIiSaIiEE5emptyEv(%"class.std::__cxx1998::vector"* %143) #3
  %145 = load i32, i32* @x.52
  %146 = load i32, i32* @y.53
  %147 = add i32 %145, 1311359084
  %148 = sub i32 %147, 1
  %149 = sub i32 %148, 1311359084
  %150 = sub i32 %145, 1
  %151 = mul i32 %145, %149
  %152 = urem i32 %151, 2
  %153 = icmp eq i32 %152, 0
  %154 = icmp slt i32 %146, 10
  %155 = and i1 %153, %154
  %156 = xor i1 %153, %154
  %157 = or i1 %155, %156
  %158 = or i1 %153, %154
  br i1 %157, label %159, label %284

; <label>:159:                                    ; preds = %137
  br i1 %144, label %219, label %160

; <label>:160:                                    ; preds = %159
  %161 = load i32, i32* @x.52
  %162 = load i32, i32* @y.53
  %163 = add i32 %161, -1494294552
  %164 = sub i32 %163, 1
  %165 = sub i32 %164, -1494294552
  %166 = sub i32 %161, 1
  %167 = mul i32 %161, %165
  %168 = urem i32 %167, 2
  %169 = icmp eq i32 %168, 0
  %170 = icmp slt i32 %162, 10
  %171 = xor i1 %169, true
  %172 = xor i1 %170, true
  %173 = xor i1 false, true
  %174 = and i1 %171, false
  %175 = and i1 %169, %173
  %176 = and i1 %172, false
  %177 = and i1 %170, %173
  %178 = or i1 %174, %175
  %179 = or i1 %176, %177
  %180 = xor i1 %178, %179
  %181 = or i1 %171, %172
  %182 = xor i1 %181, true
  %183 = or i1 false, %173
  %184 = and i1 %182, %183
  %185 = or i1 %180, %184
  %186 = or i1 %169, %170
  br i1 %185, label %187, label %292

; <label>:187:                                    ; preds = %160, %292
  %188 = load i32, i32* %10, align 4
  %189 = sext i32 %188 to i64
  %190 = call dereferenceable(56) %"class.std::__debug::vector"* @_ZNSt7__debug6vectorINS0_IiSaIiEEESaIS2_EEixEm(%"class.std::__debug::vector.3"* %5, i64 %189) #3
  %191 = load i32, i32* @x.52
  %192 = load i32, i32* @y.53
  %193 = add i32 %191, 1133847343
  %194 = sub i32 %193, 1
  %195 = sub i32 %194, 1133847343
  %196 = sub i32 %191, 1
  %197 = mul i32 %191, %195
  %198 = urem i32 %197, 2
  %199 = icmp eq i32 %198, 0
  %200 = icmp slt i32 %192, 10
  %201 = xor i1 %199, true
  %202 = xor i1 %200, true
  %203 = xor i1 true, true
  %204 = and i1 %201, true
  %205 = and i1 %199, %203
  %206 = and i1 %202, true
  %207 = and i1 %200, %203
  %208 = or i1 %204, %205
  %209 = or i1 %206, %207
  %210 = xor i1 %208, %209
  %211 = or i1 %201, %202
  %212 = xor i1 %211, true
  %213 = or i1 true, %203
  %214 = and i1 %212, %213
  %215 = or i1 %210, %214
  %216 = or i1 %199, %200
  br i1 %215, label %217, label %292

; <label>:217:                                    ; preds = %187
  invoke void @_ZNSt7__debug6vectorINS0_IiSaIiEEESaIS2_EE9push_backERKS2_(%"class.std::__debug::vector.3"* %0, %"class.std::__debug::vector"* dereferenceable(56) %190)
          to label %218 unwind label %110

; <label>:218:                                    ; preds = %217
  br label %219

; <label>:219:                                    ; preds = %218, %159
  br label %220

; <label>:220:                                    ; preds = %219
  %221 = load i32, i32* %10, align 4
  %222 = add i32 %221, 1628621546
  %223 = add i32 %222, 1
  %224 = sub i32 %223, 1628621546
  %225 = add nsw i32 %221, 1
  store i32 %224, i32* %10, align 4
  br label %115

; <label>:226:                                    ; preds = %115
  store i1 true, i1* %4, align 1
  call void @_ZNSt7__debug6vectorINS0_IiSaIiEEESaIS2_EED2Ev(%"class.std::__debug::vector.3"* %5) #3
  %227 = load i1, i1* %4, align 1
  br i1 %227, label %270, label %228

; <label>:228:                                    ; preds = %226
  %229 = load i32, i32* @x.52
  %230 = load i32, i32* @y.53
  %231 = sub i32 0, 1
  %232 = add i32 %229, %231
  %233 = sub i32 %229, 1
  %234 = mul i32 %229, %232
  %235 = urem i32 %234, 2
  %236 = icmp eq i32 %235, 0
  %237 = icmp slt i32 %230, 10
  %238 = xor i1 %236, true
  %239 = xor i1 %237, true
  %240 = xor i1 false, true
  %241 = and i1 %238, false
  %242 = and i1 %236, %240
  %243 = and i1 %239, false
  %244 = and i1 %237, %240
  %245 = or i1 %241, %242
  %246 = or i1 %243, %244
  %247 = xor i1 %245, %246
  %248 = or i1 %238, %239
  %249 = xor i1 %248, true
  %250 = or i1 false, %240
  %251 = and i1 %249, %250
  %252 = or i1 %247, %251
  %253 = or i1 %236, %237
  br i1 %252, label %254, label %296

; <label>:254:                                    ; preds = %228, %296
  call void @_ZNSt7__debug6vectorINS0_IiSaIiEEESaIS2_EED2Ev(%"class.std::__debug::vector.3"* %0) #3
  %255 = load i32, i32* @x.52
  %256 = load i32, i32* @y.53
  %257 = add i32 %255, -1861312707
  %258 = sub i32 %257, 1
  %259 = sub i32 %258, -1861312707
  %260 = sub i32 %255, 1
  %261 = mul i32 %255, %259
  %262 = urem i32 %261, 2
  %263 = icmp eq i32 %262, 0
  %264 = icmp slt i32 %256, 10
  %265 = and i1 %263, %264
  %266 = xor i1 %263, %264
  %267 = or i1 %265, %266
  %268 = or i1 %263, %264
  br i1 %267, label %269, label %296

; <label>:269:                                    ; preds = %254
  br label %270

; <label>:270:                                    ; preds = %269, %226
  ret void

; <label>:271:                                    ; preds = %110, %109
  call void @_ZNSt7__debug6vectorINS0_IiSaIiEEESaIS2_EED2Ev(%"class.std::__debug::vector.3"* %0) #3
  br label %272

; <label>:272:                                    ; preds = %271
  %273 = load i8*, i8** %7, align 8
  %274 = load i32, i32* %8, align 4
  %275 = insertvalue { i8*, i32 } undef, i8* %273, 0
  %276 = insertvalue { i8*, i32 } %275, i32 %274, 1
  resume { i8*, i32 } %276

; <label>:277:                                    ; preds = %39, %24
  %278 = sext i32 %23 to i64
  %279 = call dereferenceable(56) %"class.std::__debug::vector"* @_ZNSt7__debug6vectorINS0_IiSaIiEEESaIS2_EEixEm(%"class.std::__debug::vector.3"* %5, i64 %278) #3
  br label %39

; <label>:280:                                    ; preds = %91, %64
  %281 = landingpad { i8*, i32 }
          cleanup
  %282 = extractvalue { i8*, i32 } %281, 0
  store i8* %282, i8** %7, align 8
  %283 = extractvalue { i8*, i32 } %281, 1
  store i32 %283, i32* %8, align 4
  call void @_ZNSaINSt7__debug6vectorIiSaIiEEEED2Ev(%"class.std::allocator.10"* %6) #3
  br label %91

; <label>:284:                                    ; preds = %137, %122
  %285 = load i32, i32* %10, align 4
  %286 = sext i32 %285 to i64
  %287 = call dereferenceable(56) %"class.std::__debug::vector"* @_ZNSt7__debug6vectorINS0_IiSaIiEEESaIS2_EEixEm(%"class.std::__debug::vector.3"* %5, i64 %286) #3
  %288 = bitcast %"class.std::__debug::vector"* %287 to i8*
  %289 = getelementptr inbounds i8, i8* %288, i64 24
  %290 = bitcast i8* %289 to %"class.std::__cxx1998::vector"*
  %291 = call zeroext i1 @_ZNKSt9__cxx19986vectorIiSaIiEE5emptyEv(%"class.std::__cxx1998::vector"* %290) #3
  br label %137

; <label>:292:                                    ; preds = %187, %160
  %293 = load i32, i32* %10, align 4
  %294 = sext i32 %293 to i64
  %295 = call dereferenceable(56) %"class.std::__debug::vector"* @_ZNSt7__debug6vectorINS0_IiSaIiEEESaIS2_EEixEm(%"class.std::__debug::vector.3"* %5, i64 %294) #3
  br label %187

; <label>:296:                                    ; preds = %254, %228
  call void @_ZNSt7__debug6vectorINS0_IiSaIiEEESaIS2_EED2Ev(%"class.std::__debug::vector.3"* %0) #3
  br label %254
}

; Function Attrs: noinline nounwind uwtable
define linkonce_odr void @_ZNSt7__debug6vectorINS0_IiSaIiEEESaIS2_EE5beginEv(%"class.__gnu_debug::_Safe_iterator"* noalias sret, %"class.std::__debug::vector.3"*) #4 comdat align 2 {
  %3 = alloca i1
  %4 = alloca i1
  %5 = load i32, i32* @x.54
  %6 = load i32, i32* @y.55
  %7 = sub i32 0, 1
  %8 = add i32 %5, %7
  %9 = sub i32 %5, 1
  %10 = mul i32 %5, %8
  %11 = urem i32 %10, 2
  %12 = icmp eq i32 %11, 0
  store i1 %12, i1* %4
  %13 = icmp slt i32 %6, 10
  store i1 %13, i1* %3
  %14 = alloca i32
  store i32 1782180619, i32* %14
  br label %15

; <label>:15:                                     ; preds = %2, %85
  %16 = load i32, i32* %14
  switch i32 %16, label %17 [
    i32 1782180619, label %18
    i32 1423876071, label %38
    i32 102671037, label %74
    i32 686131927, label %75
  ]

; <label>:17:                                     ; preds = %15
  br label %85

; <label>:18:                                     ; preds = %15
  %19 = load volatile i1, i1* %4
  %20 = load volatile i1, i1* %3
  %21 = xor i1 %19, true
  %22 = xor i1 %20, true
  %23 = xor i1 false, true
  %24 = and i1 %21, false
  %25 = and i1 %19, %23
  %26 = and i1 %22, false
  %27 = and i1 %20, %23
  %28 = or i1 %24, %25
  %29 = or i1 %26, %27
  %30 = xor i1 %28, %29
  %31 = or i1 %21, %22
  %32 = xor i1 %31, true
  %33 = or i1 false, %23
  %34 = and i1 %32, %33
  %35 = or i1 %30, %34
  %36 = or i1 %19, %20
  %37 = select i1 %35, i32 1423876071, i32 686131927
  store i32 %37, i32* %14
  br label %85

; <label>:38:                                     ; preds = %15
  %39 = alloca %"class.std::__debug::vector.3"*, align 8
  %40 = alloca %"class.__gnu_cxx::__normal_iterator", align 8
  store %"class.std::__debug::vector.3"* %1, %"class.std::__debug::vector.3"** %39, align 8
  %41 = load %"class.std::__debug::vector.3"*, %"class.std::__debug::vector.3"** %39, align 8
  %42 = bitcast %"class.std::__debug::vector.3"* %41 to i8*
  %43 = getelementptr inbounds i8, i8* %42, i64 24
  %44 = bitcast i8* %43 to %"class.std::__cxx1998::vector.8"*
  %45 = call %"class.std::__debug::vector"* @_ZNSt9__cxx19986vectorINSt7__debug6vectorIiSaIiEEESaIS4_EE5beginEv(%"class.std::__cxx1998::vector.8"* %44) #3
  %46 = getelementptr inbounds %"class.__gnu_cxx::__normal_iterator", %"class.__gnu_cxx::__normal_iterator"* %40, i32 0, i32 0
  store %"class.std::__debug::vector"* %45, %"class.std::__debug::vector"** %46, align 8
  %47 = bitcast %"class.std::__debug::vector.3"* %41 to %"class.__gnu_debug::_Safe_sequence_base"*
  call void @_ZN11__gnu_debug14_Safe_iteratorIN9__gnu_cxx17__normal_iteratorIPNSt7__debug6vectorIiSaIiEEENSt9__cxx19986vectorIS6_SaIS6_EEEEENS4_IS6_SA_EEEC2ERKSC_PKNS_19_Safe_sequence_baseE(%"class.__gnu_debug::_Safe_iterator"* %0, %"class.__gnu_cxx::__normal_iterator"* dereferenceable(8) %40, %"class.__gnu_debug::_Safe_sequence_base"* %47) #3
  %48 = load i32, i32* @x.54
  %49 = load i32, i32* @y.55
  %50 = sub i32 0, 1
  %51 = add i32 %48, %50
  %52 = sub i32 %48, 1
  %53 = mul i32 %48, %51
  %54 = urem i32 %53, 2
  %55 = icmp eq i32 %54, 0
  %56 = icmp slt i32 %49, 10
  %57 = xor i1 %55, true
  %58 = xor i1 %56, true
  %59 = xor i1 true, true
  %60 = and i1 %57, true
  %61 = and i1 %55, %59
  %62 = and i1 %58, true
  %63 = and i1 %56, %59
  %64 = or i1 %60, %61
  %65 = or i1 %62, %63
  %66 = xor i1 %64, %65
  %67 = or i1 %57, %58
  %68 = xor i1 %67, true
  %69 = or i1 true, %59
  %70 = and i1 %68, %69
  %71 = or i1 %66, %70
  %72 = or i1 %55, %56
  %73 = select i1 %71, i32 102671037, i32 686131927
  store i32 %73, i32* %14
  br label %85

; <label>:74:                                     ; preds = %15
  ret void

; <label>:75:                                     ; preds = %15
  %76 = alloca %"class.std::__debug::vector.3"*, align 8
  %77 = alloca %"class.__gnu_cxx::__normal_iterator", align 8
  store %"class.std::__debug::vector.3"* %1, %"class.std::__debug::vector.3"** %76, align 8
  %78 = load %"class.std::__debug::vector.3"*, %"class.std::__debug::vector.3"** %76, align 8
  %79 = bitcast %"class.std::__debug::vector.3"* %78 to i8*
  %80 = getelementptr inbounds i8, i8* %79, i64 24
  %81 = bitcast i8* %80 to %"class.std::__cxx1998::vector.8"*
  %82 = call %"class.std::__debug::vector"* @_ZNSt9__cxx19986vectorINSt7__debug6vectorIiSaIiEEESaIS4_EE5beginEv(%"class.std::__cxx1998::vector.8"* %81) #3
  %83 = getelementptr inbounds %"class.__gnu_cxx::__normal_iterator", %"class.__gnu_cxx::__normal_iterator"* %77, i32 0, i32 0
  store %"class.std::__debug::vector"* %82, %"class.std::__debug::vector"** %83, align 8
  %84 = bitcast %"class.std::__debug::vector.3"* %78 to %"class.__gnu_debug::_Safe_sequence_base"*
  call void @_ZN11__gnu_debug14_Safe_iteratorIN9__gnu_cxx17__normal_iteratorIPNSt7__debug6vectorIiSaIiEEENSt9__cxx19986vectorIS6_SaIS6_EEEEENS4_IS6_SA_EEEC2ERKSC_PKNS_19_Safe_sequence_baseE(%"class.__gnu_debug::_Safe_iterator"* %0, %"class.__gnu_cxx::__normal_iterator"* dereferenceable(8) %77, %"class.__gnu_debug::_Safe_sequence_base"* %84) #3
  store i32 1423876071, i32* %14
  br label %85

; <label>:85:                                     ; preds = %75, %38, %18, %17
  br label %15
}

; Function Attrs: noinline nounwind uwtable
define linkonce_odr void @_ZNSt7__debug6vectorINS0_IiSaIiEEESaIS2_EE3endEv(%"class.__gnu_debug::_Safe_iterator"* noalias sret, %"class.std::__debug::vector.3"*) #4 comdat align 2 {
  %3 = alloca %"class.std::__debug::vector.3"*, align 8
  %4 = alloca %"class.__gnu_cxx::__normal_iterator", align 8
  store %"class.std::__debug::vector.3"* %1, %"class.std::__debug::vector.3"** %3, align 8
  %5 = load %"class.std::__debug::vector.3"*, %"class.std::__debug::vector.3"** %3, align 8
  %6 = bitcast %"class.std::__debug::vector.3"* %5 to i8*
  %7 = getelementptr inbounds i8, i8* %6, i64 24
  %8 = bitcast i8* %7 to %"class.std::__cxx1998::vector.8"*
  %9 = call %"class.std::__debug::vector"* @_ZNSt9__cxx19986vectorINSt7__debug6vectorIiSaIiEEESaIS4_EE3endEv(%"class.std::__cxx1998::vector.8"* %8) #3
  %10 = getelementptr inbounds %"class.__gnu_cxx::__normal_iterator", %"class.__gnu_cxx::__normal_iterator"* %4, i32 0, i32 0
  store %"class.std::__debug::vector"* %9, %"class.std::__debug::vector"** %10, align 8
  %11 = bitcast %"class.std::__debug::vector.3"* %5 to %"class.__gnu_debug::_Safe_sequence_base"*
  call void @_ZN11__gnu_debug14_Safe_iteratorIN9__gnu_cxx17__normal_iteratorIPNSt7__debug6vectorIiSaIiEEENSt9__cxx19986vectorIS6_SaIS6_EEEEENS4_IS6_SA_EEEC2ERKSC_PKNS_19_Safe_sequence_baseE(%"class.__gnu_debug::_Safe_iterator"* %0, %"class.__gnu_cxx::__normal_iterator"* dereferenceable(8) %4, %"class.__gnu_debug::_Safe_sequence_base"* %11) #3
  ret void
}

; Function Attrs: noinline nounwind uwtable
define linkonce_odr zeroext i1 @_ZN11__gnu_debugneIN9__gnu_cxx17__normal_iteratorIPNSt7__debug6vectorIiSaIiEEENSt9__cxx19986vectorIS6_SaIS6_EEEEENS4_IS6_SA_EEEEbRKNS_14_Safe_iteratorIT_T0_EESJ_(%"class.__gnu_debug::_Safe_iterator"* dereferenceable(40), %"class.__gnu_debug::_Safe_iterator"* dereferenceable(40)) #4 comdat personality i8* bitcast (i32 (...)* @__gxx_personality_v0 to i8*) {
  %3 = alloca %"class.__gnu_debug::_Safe_iterator"*, align 8
  %4 = alloca %"class.__gnu_debug::_Safe_iterator"*, align 8
  %5 = alloca %"class.__gnu_debug::_Error_formatter", align 8
  %6 = alloca %"class.__gnu_debug::_Error_formatter", align 8
  store %"class.__gnu_debug::_Safe_iterator"* %0, %"class.__gnu_debug::_Safe_iterator"** %3, align 8
  store %"class.__gnu_debug::_Safe_iterator"* %1, %"class.__gnu_debug::_Safe_iterator"** %4, align 8
  br label %7

; <label>:7:                                      ; preds = %2
  %8 = load i32, i32* @x.58
  %9 = load i32, i32* @y.59
  %10 = add i32 %8, -1377737569
  %11 = sub i32 %10, 1
  %12 = sub i32 %11, -1377737569
  %13 = sub i32 %8, 1
  %14 = mul i32 %8, %12
  %15 = urem i32 %14, 2
  %16 = icmp eq i32 %15, 0
  %17 = icmp slt i32 %9, 10
  %18 = and i1 %16, %17
  %19 = xor i1 %16, %17
  %20 = or i1 %18, %19
  %21 = or i1 %16, %17
  br i1 %20, label %22, label %353

; <label>:22:                                     ; preds = %7, %353
  %23 = load %"class.__gnu_debug::_Safe_iterator"*, %"class.__gnu_debug::_Safe_iterator"** %3, align 8
  %24 = bitcast %"class.__gnu_debug::_Safe_iterator"* %23 to i8*
  %25 = getelementptr inbounds i8, i8* %24, i64 8
  %26 = bitcast i8* %25 to %"class.__gnu_debug::_Safe_iterator_base"*
  %27 = call zeroext i1 @_ZNK11__gnu_debug19_Safe_iterator_base11_M_singularEv(%"class.__gnu_debug::_Safe_iterator_base"* %26) #14
  %28 = load i32, i32* @x.58
  %29 = load i32, i32* @y.59
  %30 = add i32 %28, -2093476090
  %31 = sub i32 %30, 1
  %32 = sub i32 %31, -2093476090
  %33 = sub i32 %28, 1
  %34 = mul i32 %28, %32
  %35 = urem i32 %34, 2
  %36 = icmp eq i32 %35, 0
  %37 = icmp slt i32 %29, 10
  %38 = and i1 %36, %37
  %39 = xor i1 %36, %37
  %40 = or i1 %38, %39
  %41 = or i1 %36, %37
  br i1 %40, label %42, label %353

; <label>:42:                                     ; preds = %22
  br i1 %27, label %49, label %43

; <label>:43:                                     ; preds = %42
  %44 = load %"class.__gnu_debug::_Safe_iterator"*, %"class.__gnu_debug::_Safe_iterator"** %4, align 8
  %45 = bitcast %"class.__gnu_debug::_Safe_iterator"* %44 to i8*
  %46 = getelementptr inbounds i8, i8* %45, i64 8
  %47 = bitcast i8* %46 to %"class.__gnu_debug::_Safe_iterator_base"*
  %48 = call zeroext i1 @_ZNK11__gnu_debug19_Safe_iterator_base11_M_singularEv(%"class.__gnu_debug::_Safe_iterator_base"* %47) #14
  br i1 %48, label %49, label %112

; <label>:49:                                     ; preds = %43, %42
  invoke void @_ZN11__gnu_debug16_Error_formatter5_M_atEPKcm(%"class.__gnu_debug::_Error_formatter"* sret %5, i8* getelementptr inbounds ([88 x i8], [88 x i8]* @.str.14, i32 0, i32 0), i64 584)
          to label %50 unwind label %350

; <label>:50:                                     ; preds = %49
  %51 = call dereferenceable(560) %"class.__gnu_debug::_Error_formatter"* @_ZNK11__gnu_debug16_Error_formatter10_M_messageENS_13_Debug_msg_idE(%"class.__gnu_debug::_Error_formatter"* %5, i32 31) #3
  %52 = load %"class.__gnu_debug::_Safe_iterator"*, %"class.__gnu_debug::_Safe_iterator"** %3, align 8
  %53 = invoke dereferenceable(560) %"class.__gnu_debug::_Error_formatter"* @_ZNK11__gnu_debug16_Error_formatter11_M_iteratorINS_14_Safe_iteratorIN9__gnu_cxx17__normal_iteratorIPNSt7__debug6vectorIiSaIiEEENSt9__cxx19986vectorIS8_SaIS8_EEEEENS6_IS8_SC_EEEEEERKS0_RKT_PKc(%"class.__gnu_debug::_Error_formatter"* %51, %"class.__gnu_debug::_Safe_iterator"* dereferenceable(40) %52, i8* getelementptr inbounds ([4 x i8], [4 x i8]* @.str.15, i32 0, i32 0))
          to label %54 unwind label %350

; <label>:54:                                     ; preds = %50
  %55 = load i32, i32* @x.58
  %56 = load i32, i32* @y.59
  %57 = sub i32 0, 1
  %58 = add i32 %55, %57
  %59 = sub i32 %55, 1
  %60 = mul i32 %55, %58
  %61 = urem i32 %60, 2
  %62 = icmp eq i32 %61, 0
  %63 = icmp slt i32 %56, 10
  %64 = xor i1 %62, true
  %65 = xor i1 %63, true
  %66 = xor i1 true, true
  %67 = and i1 %64, true
  %68 = and i1 %62, %66
  %69 = and i1 %65, true
  %70 = and i1 %63, %66
  %71 = or i1 %67, %68
  %72 = or i1 %69, %70
  %73 = xor i1 %71, %72
  %74 = or i1 %64, %65
  %75 = xor i1 %74, true
  %76 = or i1 true, %66
  %77 = and i1 %75, %76
  %78 = or i1 %73, %77
  %79 = or i1 %62, %63
  br i1 %78, label %80, label %359

; <label>:80:                                     ; preds = %54, %359
  %81 = load %"class.__gnu_debug::_Safe_iterator"*, %"class.__gnu_debug::_Safe_iterator"** %4, align 8
  %82 = load i32, i32* @x.58
  %83 = load i32, i32* @y.59
  %84 = add i32 %82, -2050516490
  %85 = sub i32 %84, 1
  %86 = sub i32 %85, -2050516490
  %87 = sub i32 %82, 1
  %88 = mul i32 %82, %86
  %89 = urem i32 %88, 2
  %90 = icmp eq i32 %89, 0
  %91 = icmp slt i32 %83, 10
  %92 = xor i1 %90, true
  %93 = xor i1 %91, true
  %94 = xor i1 true, true
  %95 = and i1 %92, true
  %96 = and i1 %90, %94
  %97 = and i1 %93, true
  %98 = and i1 %91, %94
  %99 = or i1 %95, %96
  %100 = or i1 %97, %98
  %101 = xor i1 %99, %100
  %102 = or i1 %92, %93
  %103 = xor i1 %102, true
  %104 = or i1 true, %94
  %105 = and i1 %103, %104
  %106 = or i1 %101, %105
  %107 = or i1 %90, %91
  br i1 %106, label %108, label %359

; <label>:108:                                    ; preds = %80
  %109 = invoke dereferenceable(560) %"class.__gnu_debug::_Error_formatter"* @_ZNK11__gnu_debug16_Error_formatter11_M_iteratorINS_14_Safe_iteratorIN9__gnu_cxx17__normal_iteratorIPNSt7__debug6vectorIiSaIiEEENSt9__cxx19986vectorIS8_SaIS8_EEEEENS6_IS8_SC_EEEEEERKS0_RKT_PKc(%"class.__gnu_debug::_Error_formatter"* %53, %"class.__gnu_debug::_Safe_iterator"* dereferenceable(40) %81, i8* getelementptr inbounds ([4 x i8], [4 x i8]* @.str.16, i32 0, i32 0))
          to label %110 unwind label %350

; <label>:110:                                    ; preds = %108
  invoke void @_ZNK11__gnu_debug16_Error_formatter8_M_errorEv(%"class.__gnu_debug::_Error_formatter"* %109) #13
          to label %111 unwind label %350

; <label>:111:                                    ; preds = %110
  unreachable

; <label>:112:                                    ; preds = %43
  %113 = load i32, i32* @x.58
  %114 = load i32, i32* @y.59
  %115 = add i32 %113, -1183900714
  %116 = sub i32 %115, 1
  %117 = sub i32 %116, -1183900714
  %118 = sub i32 %113, 1
  %119 = mul i32 %113, %117
  %120 = urem i32 %119, 2
  %121 = icmp eq i32 %120, 0
  %122 = icmp slt i32 %114, 10
  %123 = and i1 %121, %122
  %124 = xor i1 %121, %122
  %125 = or i1 %123, %124
  %126 = or i1 %121, %122
  br i1 %125, label %127, label %361

; <label>:127:                                    ; preds = %112, %361
  %128 = load i32, i32* @x.58
  %129 = load i32, i32* @y.59
  %130 = sub i32 0, 1
  %131 = add i32 %128, %130
  %132 = sub i32 %128, 1
  %133 = mul i32 %128, %131
  %134 = urem i32 %133, 2
  %135 = icmp eq i32 %134, 0
  %136 = icmp slt i32 %129, 10
  %137 = xor i1 %135, true
  %138 = xor i1 %136, true
  %139 = xor i1 false, true
  %140 = and i1 %137, false
  %141 = and i1 %135, %139
  %142 = and i1 %138, false
  %143 = and i1 %136, %139
  %144 = or i1 %140, %141
  %145 = or i1 %142, %143
  %146 = xor i1 %144, %145
  %147 = or i1 %137, %138
  %148 = xor i1 %147, true
  %149 = or i1 false, %139
  %150 = and i1 %148, %149
  %151 = or i1 %146, %150
  %152 = or i1 %135, %136
  br i1 %151, label %153, label %361

; <label>:153:                                    ; preds = %127
  br label %154

; <label>:154:                                    ; preds = %153
  br label %155

; <label>:155:                                    ; preds = %154
  br label %156

; <label>:156:                                    ; preds = %155
  %157 = load %"class.__gnu_debug::_Safe_iterator"*, %"class.__gnu_debug::_Safe_iterator"** %3, align 8
  %158 = bitcast %"class.__gnu_debug::_Safe_iterator"* %157 to i8*
  %159 = getelementptr inbounds i8, i8* %158, i64 8
  %160 = bitcast i8* %159 to %"class.__gnu_debug::_Safe_iterator_base"*
  %161 = load %"class.__gnu_debug::_Safe_iterator"*, %"class.__gnu_debug::_Safe_iterator"** %4, align 8
  %162 = bitcast %"class.__gnu_debug::_Safe_iterator"* %161 to i8*
  %163 = getelementptr inbounds i8, i8* %162, i64 8
  %164 = bitcast i8* %163 to %"class.__gnu_debug::_Safe_iterator_base"*
  %165 = call zeroext i1 @_ZNK11__gnu_debug19_Safe_iterator_base14_M_can_compareERKS0_(%"class.__gnu_debug::_Safe_iterator_base"* %160, %"class.__gnu_debug::_Safe_iterator_base"* dereferenceable(32) %164) #14
  br i1 %165, label %301, label %166

; <label>:166:                                    ; preds = %156
  %167 = load i32, i32* @x.58
  %168 = load i32, i32* @y.59
  %169 = add i32 %167, -1111949422
  %170 = sub i32 %169, 1
  %171 = sub i32 %170, -1111949422
  %172 = sub i32 %167, 1
  %173 = mul i32 %167, %171
  %174 = urem i32 %173, 2
  %175 = icmp eq i32 %174, 0
  %176 = icmp slt i32 %168, 10
  %177 = xor i1 %175, true
  %178 = xor i1 %176, true
  %179 = xor i1 false, true
  %180 = and i1 %177, false
  %181 = and i1 %175, %179
  %182 = and i1 %178, false
  %183 = and i1 %176, %179
  %184 = or i1 %180, %181
  %185 = or i1 %182, %183
  %186 = xor i1 %184, %185
  %187 = or i1 %177, %178
  %188 = xor i1 %187, true
  %189 = or i1 false, %179
  %190 = and i1 %188, %189
  %191 = or i1 %186, %190
  %192 = or i1 %175, %176
  br i1 %191, label %193, label %362

; <label>:193:                                    ; preds = %166, %362
  %194 = load i32, i32* @x.58
  %195 = load i32, i32* @y.59
  %196 = sub i32 %194, -389196911
  %197 = sub i32 %196, 1
  %198 = add i32 %197, -389196911
  %199 = sub i32 %194, 1
  %200 = mul i32 %194, %198
  %201 = urem i32 %200, 2
  %202 = icmp eq i32 %201, 0
  %203 = icmp slt i32 %195, 10
  %204 = and i1 %202, %203
  %205 = xor i1 %202, %203
  %206 = or i1 %204, %205
  %207 = or i1 %202, %203
  br i1 %206, label %208, label %362

; <label>:208:                                    ; preds = %193
  invoke void @_ZN11__gnu_debug16_Error_formatter5_M_atEPKcm(%"class.__gnu_debug::_Error_formatter"* sret %6, i8* getelementptr inbounds ([88 x i8], [88 x i8]* @.str.14, i32 0, i32 0), i64 588)
          to label %209 unwind label %350

; <label>:209:                                    ; preds = %208
  %210 = call dereferenceable(560) %"class.__gnu_debug::_Error_formatter"* @_ZNK11__gnu_debug16_Error_formatter10_M_messageENS_13_Debug_msg_idE(%"class.__gnu_debug::_Error_formatter"* %6, i32 32) #3
  %211 = load %"class.__gnu_debug::_Safe_iterator"*, %"class.__gnu_debug::_Safe_iterator"** %3, align 8
  %212 = invoke dereferenceable(560) %"class.__gnu_debug::_Error_formatter"* @_ZNK11__gnu_debug16_Error_formatter11_M_iteratorINS_14_Safe_iteratorIN9__gnu_cxx17__normal_iteratorIPNSt7__debug6vectorIiSaIiEEENSt9__cxx19986vectorIS8_SaIS8_EEEEENS6_IS8_SC_EEEEEERKS0_RKT_PKc(%"class.__gnu_debug::_Error_formatter"* %210, %"class.__gnu_debug::_Safe_iterator"* dereferenceable(40) %211, i8* getelementptr inbounds ([4 x i8], [4 x i8]* @.str.15, i32 0, i32 0))
          to label %213 unwind label %350

; <label>:213:                                    ; preds = %209
  %214 = load i32, i32* @x.58
  %215 = load i32, i32* @y.59
  %216 = sub i32 %214, -1435091783
  %217 = sub i32 %216, 1
  %218 = add i32 %217, -1435091783
  %219 = sub i32 %214, 1
  %220 = mul i32 %214, %218
  %221 = urem i32 %220, 2
  %222 = icmp eq i32 %221, 0
  %223 = icmp slt i32 %215, 10
  %224 = and i1 %222, %223
  %225 = xor i1 %222, %223
  %226 = or i1 %224, %225
  %227 = or i1 %222, %223
  br i1 %226, label %228, label %363

; <label>:228:                                    ; preds = %213, %363
  %229 = load %"class.__gnu_debug::_Safe_iterator"*, %"class.__gnu_debug::_Safe_iterator"** %4, align 8
  %230 = load i32, i32* @x.58
  %231 = load i32, i32* @y.59
  %232 = add i32 %230, -351551738
  %233 = sub i32 %232, 1
  %234 = sub i32 %233, -351551738
  %235 = sub i32 %230, 1
  %236 = mul i32 %230, %234
  %237 = urem i32 %236, 2
  %238 = icmp eq i32 %237, 0
  %239 = icmp slt i32 %231, 10
  %240 = and i1 %238, %239
  %241 = xor i1 %238, %239
  %242 = or i1 %240, %241
  %243 = or i1 %238, %239
  br i1 %242, label %244, label %363

; <label>:244:                                    ; preds = %228
  %245 = invoke dereferenceable(560) %"class.__gnu_debug::_Error_formatter"* @_ZNK11__gnu_debug16_Error_formatter11_M_iteratorINS_14_Safe_iteratorIN9__gnu_cxx17__normal_iteratorIPNSt7__debug6vectorIiSaIiEEENSt9__cxx19986vectorIS8_SaIS8_EEEEENS6_IS8_SC_EEEEEERKS0_RKT_PKc(%"class.__gnu_debug::_Error_formatter"* %212, %"class.__gnu_debug::_Safe_iterator"* dereferenceable(40) %229, i8* getelementptr inbounds ([4 x i8], [4 x i8]* @.str.16, i32 0, i32 0))
          to label %246 unwind label %350

; <label>:246:                                    ; preds = %244
  %247 = load i32, i32* @x.58
  %248 = load i32, i32* @y.59
  %249 = sub i32 0, 1
  %250 = add i32 %247, %249
  %251 = sub i32 %247, 1
  %252 = mul i32 %247, %250
  %253 = urem i32 %252, 2
  %254 = icmp eq i32 %253, 0
  %255 = icmp slt i32 %248, 10
  %256 = xor i1 %254, true
  %257 = xor i1 %255, true
  %258 = xor i1 false, true
  %259 = and i1 %256, false
  %260 = and i1 %254, %258
  %261 = and i1 %257, false
  %262 = and i1 %255, %258
  %263 = or i1 %259, %260
  %264 = or i1 %261, %262
  %265 = xor i1 %263, %264
  %266 = or i1 %256, %257
  %267 = xor i1 %266, true
  %268 = or i1 false, %258
  %269 = and i1 %267, %268
  %270 = or i1 %265, %269
  %271 = or i1 %254, %255
  br i1 %270, label %272, label %365

; <label>:272:                                    ; preds = %246, %365
  %273 = load i32, i32* @x.58
  %274 = load i32, i32* @y.59
  %275 = sub i32 %273, -1960407554
  %276 = sub i32 %275, 1
  %277 = add i32 %276, -1960407554
  %278 = sub i32 %273, 1
  %279 = mul i32 %273, %277
  %280 = urem i32 %279, 2
  %281 = icmp eq i32 %280, 0
  %282 = icmp slt i32 %274, 10
  %283 = xor i1 %281, true
  %284 = xor i1 %282, true
  %285 = xor i1 false, true
  %286 = and i1 %283, false
  %287 = and i1 %281, %285
  %288 = and i1 %284, false
  %289 = and i1 %282, %285
  %290 = or i1 %286, %287
  %291 = or i1 %288, %289
  %292 = xor i1 %290, %291
  %293 = or i1 %283, %284
  %294 = xor i1 %293, true
  %295 = or i1 false, %285
  %296 = and i1 %294, %295
  %297 = or i1 %292, %296
  %298 = or i1 %281, %282
  br i1 %297, label %299, label %365

; <label>:299:                                    ; preds = %272
  invoke void @_ZNK11__gnu_debug16_Error_formatter8_M_errorEv(%"class.__gnu_debug::_Error_formatter"* %245) #13
          to label %300 unwind label %350

; <label>:300:                                    ; preds = %299
  unreachable

; <label>:301:                                    ; preds = %156
  br label %302

; <label>:302:                                    ; preds = %301
  %303 = load i32, i32* @x.58
  %304 = load i32, i32* @y.59
  %305 = add i32 %303, 822204564
  %306 = sub i32 %305, 1
  %307 = sub i32 %306, 822204564
  %308 = sub i32 %303, 1
  %309 = mul i32 %303, %307
  %310 = urem i32 %309, 2
  %311 = icmp eq i32 %310, 0
  %312 = icmp slt i32 %304, 10
  %313 = xor i1 %311, true
  %314 = xor i1 %312, true
  %315 = xor i1 false, true
  %316 = and i1 %313, false
  %317 = and i1 %311, %315
  %318 = and i1 %314, false
  %319 = and i1 %312, %315
  %320 = or i1 %316, %317
  %321 = or i1 %318, %319
  %322 = xor i1 %320, %321
  %323 = or i1 %313, %314
  %324 = xor i1 %323, true
  %325 = or i1 false, %315
  %326 = and i1 %324, %325
  %327 = or i1 %322, %326
  %328 = or i1 %311, %312
  br i1 %327, label %329, label %366

; <label>:329:                                    ; preds = %302, %366
  %330 = load i32, i32* @x.58
  %331 = load i32, i32* @y.59
  %332 = sub i32 0, 1
  %333 = add i32 %330, %332
  %334 = sub i32 %330, 1
  %335 = mul i32 %330, %333
  %336 = urem i32 %335, 2
  %337 = icmp eq i32 %336, 0
  %338 = icmp slt i32 %331, 10
  %339 = and i1 %337, %338
  %340 = xor i1 %337, %338
  %341 = or i1 %339, %340
  %342 = or i1 %337, %338
  br i1 %341, label %343, label %366

; <label>:343:                                    ; preds = %329
  br label %344

; <label>:344:                                    ; preds = %343
  %345 = load %"class.__gnu_debug::_Safe_iterator"*, %"class.__gnu_debug::_Safe_iterator"** %3, align 8
  %346 = call dereferenceable(8) %"class.__gnu_cxx::__normal_iterator"* @_ZNK11__gnu_debug14_Safe_iteratorIN9__gnu_cxx17__normal_iteratorIPNSt7__debug6vectorIiSaIiEEENSt9__cxx19986vectorIS6_SaIS6_EEEEENS4_IS6_SA_EEE4baseEv(%"class.__gnu_debug::_Safe_iterator"* %345) #3
  %347 = load %"class.__gnu_debug::_Safe_iterator"*, %"class.__gnu_debug::_Safe_iterator"** %4, align 8
  %348 = call dereferenceable(8) %"class.__gnu_cxx::__normal_iterator"* @_ZNK11__gnu_debug14_Safe_iteratorIN9__gnu_cxx17__normal_iteratorIPNSt7__debug6vectorIiSaIiEEENSt9__cxx19986vectorIS6_SaIS6_EEEEENS4_IS6_SA_EEE4baseEv(%"class.__gnu_debug::_Safe_iterator"* %347) #3
  %349 = call zeroext i1 @_ZN9__gnu_cxxneIPNSt7__debug6vectorIiSaIiEEENSt9__cxx19986vectorIS4_SaIS4_EEEEEbRKNS_17__normal_iteratorIT_T0_EESF_(%"class.__gnu_cxx::__normal_iterator"* dereferenceable(8) %346, %"class.__gnu_cxx::__normal_iterator"* dereferenceable(8) %348) #3
  ret i1 %349

; <label>:350:                                    ; preds = %299, %244, %209, %208, %110, %108, %50, %49
  %351 = landingpad { i8*, i32 }
          catch i8* null
  %352 = extractvalue { i8*, i32 } %351, 0
  call void @__clang_call_terminate(i8* %352) #10
  unreachable

; <label>:353:                                    ; preds = %22, %7
  %354 = load %"class.__gnu_debug::_Safe_iterator"*, %"class.__gnu_debug::_Safe_iterator"** %3, align 8
  %355 = bitcast %"class.__gnu_debug::_Safe_iterator"* %354 to i8*
  %356 = getelementptr inbounds i8, i8* %355, i64 8
  %357 = bitcast i8* %356 to %"class.__gnu_debug::_Safe_iterator_base"*
  %358 = call zeroext i1 @_ZNK11__gnu_debug19_Safe_iterator_base11_M_singularEv(%"class.__gnu_debug::_Safe_iterator_base"* %357) #14
  br label %22

; <label>:359:                                    ; preds = %80, %54
  %360 = load %"class.__gnu_debug::_Safe_iterator"*, %"class.__gnu_debug::_Safe_iterator"** %4, align 8
  br label %80

; <label>:361:                                    ; preds = %127, %112
  br label %127

; <label>:362:                                    ; preds = %193, %166
  br label %193

; <label>:363:                                    ; preds = %228, %213
  %364 = load %"class.__gnu_debug::_Safe_iterator"*, %"class.__gnu_debug::_Safe_iterator"** %4, align 8
  br label %228

; <label>:365:                                    ; preds = %272, %246
  br label %272

; <label>:366:                                    ; preds = %329, %302
  br label %329
}

; Function Attrs: noinline nounwind uwtable
define linkonce_odr dereferenceable(56) %"class.std::__debug::vector"* @_ZNK11__gnu_debug14_Safe_iteratorIN9__gnu_cxx17__normal_iteratorIPNSt7__debug6vectorIiSaIiEEENSt9__cxx19986vectorIS6_SaIS6_EEEEENS4_IS6_SA_EEEdeEv(%"class.__gnu_debug::_Safe_iterator"*) #4 comdat align 2 personality i8* bitcast (i32 (...)* @__gxx_personality_v0 to i8*) {
  %2 = alloca %"class.__gnu_debug::_Safe_iterator"*, align 8
  %3 = alloca %"class.__gnu_debug::_Error_formatter", align 8
  store %"class.__gnu_debug::_Safe_iterator"* %0, %"class.__gnu_debug::_Safe_iterator"** %2, align 8
  %4 = load %"class.__gnu_debug::_Safe_iterator"*, %"class.__gnu_debug::_Safe_iterator"** %2, align 8
  br label %5

; <label>:5:                                      ; preds = %1
  %6 = invoke zeroext i1 @_ZNK11__gnu_debug14_Safe_iteratorIN9__gnu_cxx17__normal_iteratorIPNSt7__debug6vectorIiSaIiEEENSt9__cxx19986vectorIS6_SaIS6_EEEEENS4_IS6_SA_EEE18_M_dereferenceableEv(%"class.__gnu_debug::_Safe_iterator"* %4)
          to label %7 unwind label %101

; <label>:7:                                      ; preds = %5
  %8 = load i32, i32* @x.60
  %9 = load i32, i32* @y.61
  %10 = add i32 %8, 1626497673
  %11 = sub i32 %10, 1
  %12 = sub i32 %11, 1626497673
  %13 = sub i32 %8, 1
  %14 = mul i32 %8, %12
  %15 = urem i32 %14, 2
  %16 = icmp eq i32 %15, 0
  %17 = icmp slt i32 %9, 10
  %18 = and i1 %16, %17
  %19 = xor i1 %16, %17
  %20 = or i1 %18, %19
  %21 = or i1 %16, %17
  br i1 %20, label %22, label %104

; <label>:22:                                     ; preds = %7, %104
  %23 = load i32, i32* @x.60
  %24 = load i32, i32* @y.61
  %25 = sub i32 0, 1
  %26 = add i32 %23, %25
  %27 = sub i32 %23, 1
  %28 = mul i32 %23, %26
  %29 = urem i32 %28, 2
  %30 = icmp eq i32 %29, 0
  %31 = icmp slt i32 %24, 10
  %32 = xor i1 %30, true
  %33 = xor i1 %31, true
  %34 = xor i1 true, true
  %35 = and i1 %32, true
  %36 = and i1 %30, %34
  %37 = and i1 %33, true
  %38 = and i1 %31, %34
  %39 = or i1 %35, %36
  %40 = or i1 %37, %38
  %41 = xor i1 %39, %40
  %42 = or i1 %32, %33
  %43 = xor i1 %42, true
  %44 = or i1 true, %34
  %45 = and i1 %43, %44
  %46 = or i1 %41, %45
  %47 = or i1 %30, %31
  br i1 %46, label %48, label %104

; <label>:48:                                     ; preds = %22
  br i1 %6, label %96, label %49

; <label>:49:                                     ; preds = %48
  invoke void @_ZN11__gnu_debug16_Error_formatter5_M_atEPKcm(%"class.__gnu_debug::_Error_formatter"* sret %3, i8* getelementptr inbounds ([88 x i8], [88 x i8]* @.str.14, i32 0, i32 0), i64 303)
          to label %50 unwind label %101

; <label>:50:                                     ; preds = %49
  %51 = load i32, i32* @x.60
  %52 = load i32, i32* @y.61
  %53 = sub i32 %51, 1516759940
  %54 = sub i32 %53, 1
  %55 = add i32 %54, 1516759940
  %56 = sub i32 %51, 1
  %57 = mul i32 %51, %55
  %58 = urem i32 %57, 2
  %59 = icmp eq i32 %58, 0
  %60 = icmp slt i32 %52, 10
  %61 = xor i1 %59, true
  %62 = xor i1 %60, true
  %63 = xor i1 false, true
  %64 = and i1 %61, false
  %65 = and i1 %59, %63
  %66 = and i1 %62, false
  %67 = and i1 %60, %63
  %68 = or i1 %64, %65
  %69 = or i1 %66, %67
  %70 = xor i1 %68, %69
  %71 = or i1 %61, %62
  %72 = xor i1 %71, true
  %73 = or i1 false, %63
  %74 = and i1 %72, %73
  %75 = or i1 %70, %74
  %76 = or i1 %59, %60
  br i1 %75, label %77, label %105

; <label>:77:                                     ; preds = %50, %105
  %78 = call dereferenceable(560) %"class.__gnu_debug::_Error_formatter"* @_ZNK11__gnu_debug16_Error_formatter10_M_messageENS_13_Debug_msg_idE(%"class.__gnu_debug::_Error_formatter"* %3, i32 25) #3
  %79 = load i32, i32* @x.60
  %80 = load i32, i32* @y.61
  %81 = sub i32 0, 1
  %82 = add i32 %79, %81
  %83 = sub i32 %79, 1
  %84 = mul i32 %79, %82
  %85 = urem i32 %84, 2
  %86 = icmp eq i32 %85, 0
  %87 = icmp slt i32 %80, 10
  %88 = and i1 %86, %87
  %89 = xor i1 %86, %87
  %90 = or i1 %88, %89
  %91 = or i1 %86, %87
  br i1 %90, label %92, label %105

; <label>:92:                                     ; preds = %77
  %93 = invoke dereferenceable(560) %"class.__gnu_debug::_Error_formatter"* @_ZNK11__gnu_debug16_Error_formatter11_M_iteratorINS_14_Safe_iteratorIN9__gnu_cxx17__normal_iteratorIPNSt7__debug6vectorIiSaIiEEENSt9__cxx19986vectorIS8_SaIS8_EEEEENS6_IS8_SC_EEEEEERKS0_RKT_PKc(%"class.__gnu_debug::_Error_formatter"* %78, %"class.__gnu_debug::_Safe_iterator"* dereferenceable(40) %4, i8* getelementptr inbounds ([5 x i8], [5 x i8]* @.str.4, i32 0, i32 0))
          to label %94 unwind label %101

; <label>:94:                                     ; preds = %92
  invoke void @_ZNK11__gnu_debug16_Error_formatter8_M_errorEv(%"class.__gnu_debug::_Error_formatter"* %93) #13
          to label %95 unwind label %101

; <label>:95:                                     ; preds = %94
  unreachable

; <label>:96:                                     ; preds = %48
  br label %97

; <label>:97:                                     ; preds = %96
  br label %98

; <label>:98:                                     ; preds = %97
  %99 = call dereferenceable(8) %"class.__gnu_cxx::__normal_iterator"* @_ZNK11__gnu_debug14_Safe_iteratorIN9__gnu_cxx17__normal_iteratorIPNSt7__debug6vectorIiSaIiEEENSt9__cxx19986vectorIS6_SaIS6_EEEEENS4_IS6_SA_EEE4baseEv(%"class.__gnu_debug::_Safe_iterator"* %4) #3
  %100 = call dereferenceable(56) %"class.std::__debug::vector"* @_ZNK9__gnu_cxx17__normal_iteratorIPNSt7__debug6vectorIiSaIiEEENSt9__cxx19986vectorIS4_SaIS4_EEEEdeEv(%"class.__gnu_cxx::__normal_iterator"* %99) #3
  ret %"class.std::__debug::vector"* %100

; <label>:101:                                    ; preds = %94, %92, %49, %5
  %102 = landingpad { i8*, i32 }
          catch i8* null
  %103 = extractvalue { i8*, i32 } %102, 0
  call void @__clang_call_terminate(i8* %103) #10
  unreachable

; <label>:104:                                    ; preds = %22, %7
  br label %22

; <label>:105:                                    ; preds = %77, %50
  %106 = call dereferenceable(560) %"class.__gnu_debug::_Error_formatter"* @_ZNK11__gnu_debug16_Error_formatter10_M_messageENS_13_Debug_msg_idE(%"class.__gnu_debug::_Error_formatter"* %3, i32 25) #3
  br label %77
}

; Function Attrs: noinline uwtable
define linkonce_odr void @_ZNSt7__debug6vectorIiSaIiEEC2ERKS2_(%"class.std::__debug::vector"*, %"class.std::__debug::vector"* dereferenceable(56)) unnamed_addr #0 comdat align 2 personality i8* bitcast (i32 (...)* @__gxx_personality_v0 to i8*) {
  %3 = load i32, i32* @x.62
  %4 = load i32, i32* @y.63
  %5 = add i32 %3, -1004969244
  %6 = sub i32 %5, 1
  %7 = sub i32 %6, -1004969244
  %8 = sub i32 %3, 1
  %9 = mul i32 %3, %7
  %10 = urem i32 %9, 2
  %11 = icmp eq i32 %10, 0
  %12 = icmp slt i32 %4, 10
  %13 = xor i1 %11, true
  %14 = xor i1 %12, true
  %15 = xor i1 true, true
  %16 = and i1 %13, true
  %17 = and i1 %11, %15
  %18 = and i1 %14, true
  %19 = and i1 %12, %15
  %20 = or i1 %16, %17
  %21 = or i1 %18, %19
  %22 = xor i1 %20, %21
  %23 = or i1 %13, %14
  %24 = xor i1 %23, true
  %25 = or i1 true, %15
  %26 = and i1 %24, %25
  %27 = or i1 %22, %26
  %28 = or i1 %11, %12
  br i1 %27, label %29, label %170

; <label>:29:                                     ; preds = %2, %170
  %30 = alloca %"class.std::__debug::vector"*, align 8
  %31 = alloca %"class.std::__debug::vector"*, align 8
  %32 = alloca i8*
  %33 = alloca i32
  store %"class.std::__debug::vector"* %0, %"class.std::__debug::vector"** %30, align 8
  store %"class.std::__debug::vector"* %1, %"class.std::__debug::vector"** %31, align 8
  %34 = load %"class.std::__debug::vector"*, %"class.std::__debug::vector"** %30, align 8
  %35 = bitcast %"class.std::__debug::vector"* %34 to %"class.__gnu_debug::_Safe_container"*
  %36 = load %"class.std::__debug::vector"*, %"class.std::__debug::vector"** %31, align 8
  %37 = bitcast %"class.std::__debug::vector"* %36 to %"class.__gnu_debug::_Safe_container"*
  call void @_ZN11__gnu_debug15_Safe_containerINSt7__debug6vectorIiSaIiEEES3_NS_14_Safe_sequenceELb1EEC2ERKS6_(%"class.__gnu_debug::_Safe_container"* %35, %"class.__gnu_debug::_Safe_container"* dereferenceable(24) %37) #3
  %38 = bitcast %"class.std::__debug::vector"* %34 to i8*
  %39 = getelementptr inbounds i8, i8* %38, i64 24
  %40 = bitcast i8* %39 to %"class.std::__cxx1998::vector"*
  %41 = load %"class.std::__debug::vector"*, %"class.std::__debug::vector"** %31, align 8
  %42 = bitcast %"class.std::__debug::vector"* %41 to i8*
  %43 = getelementptr inbounds i8, i8* %42, i64 24
  %44 = bitcast i8* %43 to %"class.std::__cxx1998::vector"*
  %45 = load i32, i32* @x.62
  %46 = load i32, i32* @y.63
  %47 = add i32 %45, -216049861
  %48 = sub i32 %47, 1
  %49 = sub i32 %48, -216049861
  %50 = sub i32 %45, 1
  %51 = mul i32 %45, %49
  %52 = urem i32 %51, 2
  %53 = icmp eq i32 %52, 0
  %54 = icmp slt i32 %46, 10
  %55 = xor i1 %53, true
  %56 = xor i1 %54, true
  %57 = xor i1 true, true
  %58 = and i1 %55, true
  %59 = and i1 %53, %57
  %60 = and i1 %56, true
  %61 = and i1 %54, %57
  %62 = or i1 %58, %59
  %63 = or i1 %60, %61
  %64 = xor i1 %62, %63
  %65 = or i1 %55, %56
  %66 = xor i1 %65, true
  %67 = or i1 true, %57
  %68 = and i1 %66, %67
  %69 = or i1 %64, %68
  %70 = or i1 %53, %54
  br i1 %69, label %71, label %170

; <label>:71:                                     ; preds = %29
  invoke void @_ZNSt9__cxx19986vectorIiSaIiEEC2ERKS2_(%"class.std::__cxx1998::vector"* %40, %"class.std::__cxx1998::vector"* dereferenceable(24) %44)
          to label %72 unwind label %120

; <label>:72:                                     ; preds = %71
  %73 = load i32, i32* @x.62
  %74 = load i32, i32* @y.63
  %75 = sub i32 0, 1
  %76 = add i32 %73, %75
  %77 = sub i32 %73, 1
  %78 = mul i32 %73, %76
  %79 = urem i32 %78, 2
  %80 = icmp eq i32 %79, 0
  %81 = icmp slt i32 %74, 10
  %82 = xor i1 %80, true
  %83 = xor i1 %81, true
  %84 = xor i1 false, true
  %85 = and i1 %82, false
  %86 = and i1 %80, %84
  %87 = and i1 %83, false
  %88 = and i1 %81, %84
  %89 = or i1 %85, %86
  %90 = or i1 %87, %88
  %91 = xor i1 %89, %90
  %92 = or i1 %82, %83
  %93 = xor i1 %92, true
  %94 = or i1 false, %84
  %95 = and i1 %93, %94
  %96 = or i1 %91, %95
  %97 = or i1 %80, %81
  br i1 %96, label %98, label %186

; <label>:98:                                     ; preds = %72, %186
  %99 = bitcast %"class.std::__debug::vector"* %34 to i8*
  %100 = getelementptr inbounds i8, i8* %99, i64 48
  %101 = bitcast i8* %100 to %"class.__gnu_debug::_Safe_vector"*
  %102 = load %"class.std::__debug::vector"*, %"class.std::__debug::vector"** %31, align 8
  %103 = bitcast %"class.std::__debug::vector"* %102 to i8*
  %104 = getelementptr inbounds i8, i8* %103, i64 48
  %105 = bitcast i8* %104 to %"class.__gnu_debug::_Safe_vector"*
  call void @_ZN11__gnu_debug12_Safe_vectorINSt7__debug6vectorIiSaIiEEENSt9__cxx19986vectorIiS3_EEEC2ERKS8_(%"class.__gnu_debug::_Safe_vector"* %101, %"class.__gnu_debug::_Safe_vector"* dereferenceable(8) %105) #3
  %106 = load i32, i32* @x.62
  %107 = load i32, i32* @y.63
  %108 = sub i32 0, 1
  %109 = add i32 %106, %108
  %110 = sub i32 %106, 1
  %111 = mul i32 %106, %109
  %112 = urem i32 %111, 2
  %113 = icmp eq i32 %112, 0
  %114 = icmp slt i32 %107, 10
  %115 = and i1 %113, %114
  %116 = xor i1 %113, %114
  %117 = or i1 %115, %116
  %118 = or i1 %113, %114
  br i1 %117, label %119, label %186

; <label>:119:                                    ; preds = %98
  ret void

; <label>:120:                                    ; preds = %71
  %121 = landingpad { i8*, i32 }
          cleanup
  %122 = extractvalue { i8*, i32 } %121, 0
  store i8* %122, i8** %32, align 8
  %123 = extractvalue { i8*, i32 } %121, 1
  store i32 %123, i32* %33, align 4
  %124 = bitcast %"class.std::__debug::vector"* %34 to %"class.__gnu_debug::_Safe_container"*
  call void @_ZN11__gnu_debug15_Safe_containerINSt7__debug6vectorIiSaIiEEES3_NS_14_Safe_sequenceELb1EED2Ev(%"class.__gnu_debug::_Safe_container"* %124) #3
  br label %125

; <label>:125:                                    ; preds = %120
  %126 = load i32, i32* @x.62
  %127 = load i32, i32* @y.63
  %128 = sub i32 0, 1
  %129 = add i32 %126, %128
  %130 = sub i32 %126, 1
  %131 = mul i32 %126, %129
  %132 = urem i32 %131, 2
  %133 = icmp eq i32 %132, 0
  %134 = icmp slt i32 %127, 10
  %135 = and i1 %133, %134
  %136 = xor i1 %133, %134
  %137 = or i1 %135, %136
  %138 = or i1 %133, %134
  br i1 %137, label %139, label %194

; <label>:139:                                    ; preds = %125, %194
  %140 = load i8*, i8** %32, align 8
  %141 = load i32, i32* %33, align 4
  %142 = insertvalue { i8*, i32 } undef, i8* %140, 0
  %143 = insertvalue { i8*, i32 } %142, i32 %141, 1
  %144 = load i32, i32* @x.62
  %145 = load i32, i32* @y.63
  %146 = sub i32 0, 1
  %147 = add i32 %144, %146
  %148 = sub i32 %144, 1
  %149 = mul i32 %144, %147
  %150 = urem i32 %149, 2
  %151 = icmp eq i32 %150, 0
  %152 = icmp slt i32 %145, 10
  %153 = xor i1 %151, true
  %154 = xor i1 %152, true
  %155 = xor i1 false, true
  %156 = and i1 %153, false
  %157 = and i1 %151, %155
  %158 = and i1 %154, false
  %159 = and i1 %152, %155
  %160 = or i1 %156, %157
  %161 = or i1 %158, %159
  %162 = xor i1 %160, %161
  %163 = or i1 %153, %154
  %164 = xor i1 %163, true
  %165 = or i1 false, %155
  %166 = and i1 %164, %165
  %167 = or i1 %162, %166
  %168 = or i1 %151, %152
  br i1 %167, label %169, label %194

; <label>:169:                                    ; preds = %139
  resume { i8*, i32 } %143

; <label>:170:                                    ; preds = %29, %2
  %171 = alloca %"class.std::__debug::vector"*, align 8
  %172 = alloca %"class.std::__debug::vector"*, align 8
  %173 = alloca i8*
  %174 = alloca i32
  store %"class.std::__debug::vector"* %0, %"class.std::__debug::vector"** %171, align 8
  store %"class.std::__debug::vector"* %1, %"class.std::__debug::vector"** %172, align 8
  %175 = load %"class.std::__debug::vector"*, %"class.std::__debug::vector"** %171, align 8
  %176 = bitcast %"class.std::__debug::vector"* %175 to %"class.__gnu_debug::_Safe_container"*
  %177 = load %"class.std::__debug::vector"*, %"class.std::__debug::vector"** %172, align 8
  %178 = bitcast %"class.std::__debug::vector"* %177 to %"class.__gnu_debug::_Safe_container"*
  call void @_ZN11__gnu_debug15_Safe_containerINSt7__debug6vectorIiSaIiEEES3_NS_14_Safe_sequenceELb1EEC2ERKS6_(%"class.__gnu_debug::_Safe_container"* %176, %"class.__gnu_debug::_Safe_container"* dereferenceable(24) %178) #3
  %179 = bitcast %"class.std::__debug::vector"* %175 to i8*
  %180 = getelementptr inbounds i8, i8* %179, i64 24
  %181 = bitcast i8* %180 to %"class.std::__cxx1998::vector"*
  %182 = load %"class.std::__debug::vector"*, %"class.std::__debug::vector"** %172, align 8
  %183 = bitcast %"class.std::__debug::vector"* %182 to i8*
  %184 = getelementptr inbounds i8, i8* %183, i64 24
  %185 = bitcast i8* %184 to %"class.std::__cxx1998::vector"*
  br label %29

; <label>:186:                                    ; preds = %98, %72
  %187 = bitcast %"class.std::__debug::vector"* %34 to i8*
  %188 = getelementptr inbounds i8, i8* %187, i64 48
  %189 = bitcast i8* %188 to %"class.__gnu_debug::_Safe_vector"*
  %190 = load %"class.std::__debug::vector"*, %"class.std::__debug::vector"** %31, align 8
  %191 = bitcast %"class.std::__debug::vector"* %190 to i8*
  %192 = getelementptr inbounds i8, i8* %191, i64 48
  %193 = bitcast i8* %192 to %"class.__gnu_debug::_Safe_vector"*
  call void @_ZN11__gnu_debug12_Safe_vectorINSt7__debug6vectorIiSaIiEEENSt9__cxx19986vectorIiS3_EEEC2ERKS8_(%"class.__gnu_debug::_Safe_vector"* %189, %"class.__gnu_debug::_Safe_vector"* dereferenceable(8) %193) #3
  br label %98

; <label>:194:                                    ; preds = %139, %125
  %195 = load i8*, i8** %32, align 8
  %196 = load i32, i32* %33, align 4
  %197 = insertvalue { i8*, i32 } undef, i8* %195, 0
  %198 = insertvalue { i8*, i32 } %197, i32 %196, 1
  br label %139
}

; Function Attrs: noinline nounwind uwtable
define linkonce_odr void @_ZNSt7__debug3setIiSt4lessIiESaIiEEC2Ev(%"class.std::__debug::set"*) unnamed_addr #4 comdat align 2 {
  %2 = alloca %"class.std::__debug::set"*, align 8
  store %"class.std::__debug::set"* %0, %"class.std::__debug::set"** %2, align 8
  %3 = load %"class.std::__debug::set"*, %"class.std::__debug::set"** %2, align 8
  %4 = bitcast %"class.std::__debug::set"* %3 to %"class.__gnu_debug::_Safe_container.14"*
  call void @_ZN11__gnu_debug15_Safe_containerINSt7__debug3setIiSt4lessIiESaIiEEES5_NS_19_Safe_node_sequenceELb1EEC2Ev(%"class.__gnu_debug::_Safe_container.14"* %4) #3
  %5 = bitcast %"class.std::__debug::set"* %3 to i8*
  %6 = getelementptr inbounds i8, i8* %5, i64 24
  %7 = bitcast i8* %6 to %"class.std::__cxx1998::set"*
  call void @_ZNSt9__cxx19983setIiSt4lessIiESaIiEEC2Ev(%"class.std::__cxx1998::set"* %7) #3
  ret void
}

; Function Attrs: noinline nounwind uwtable
define linkonce_odr void @_ZNSt7__debug6vectorIiSaIiEE5beginEv(%"class.__gnu_debug::_Safe_iterator.21"* noalias sret, %"class.std::__debug::vector"*) #4 comdat align 2 {
  %3 = alloca i1
  %4 = alloca i1
  %5 = load i32, i32* @x.66
  %6 = load i32, i32* @y.67
  %7 = add i32 %5, -1678403985
  %8 = sub i32 %7, 1
  %9 = sub i32 %8, -1678403985
  %10 = sub i32 %5, 1
  %11 = mul i32 %5, %9
  %12 = urem i32 %11, 2
  %13 = icmp eq i32 %12, 0
  store i1 %13, i1* %4
  %14 = icmp slt i32 %6, 10
  store i1 %14, i1* %3
  %15 = alloca i32
  store i32 -643355846, i32* %15
  br label %16

; <label>:16:                                     ; preds = %2, %63
  %17 = load i32, i32* %15
  switch i32 %17, label %18 [
    i32 -643355846, label %19
    i32 -183301444, label %27
    i32 -2110314670, label %52
    i32 -717951832, label %53
  ]

; <label>:18:                                     ; preds = %16
  br label %63

; <label>:19:                                     ; preds = %16
  %20 = load volatile i1, i1* %4
  %21 = load volatile i1, i1* %3
  %22 = and i1 %20, %21
  %23 = xor i1 %20, %21
  %24 = or i1 %22, %23
  %25 = or i1 %20, %21
  %26 = select i1 %24, i32 -183301444, i32 -717951832
  store i32 %26, i32* %15
  br label %63

; <label>:27:                                     ; preds = %16
  %28 = alloca %"class.std::__debug::vector"*, align 8
  %29 = alloca %"class.__gnu_cxx::__normal_iterator.22", align 8
  store %"class.std::__debug::vector"* %1, %"class.std::__debug::vector"** %28, align 8
  %30 = load %"class.std::__debug::vector"*, %"class.std::__debug::vector"** %28, align 8
  %31 = bitcast %"class.std::__debug::vector"* %30 to i8*
  %32 = getelementptr inbounds i8, i8* %31, i64 24
  %33 = bitcast i8* %32 to %"class.std::__cxx1998::vector"*
  %34 = call i32* @_ZNSt9__cxx19986vectorIiSaIiEE5beginEv(%"class.std::__cxx1998::vector"* %33) #3
  %35 = getelementptr inbounds %"class.__gnu_cxx::__normal_iterator.22", %"class.__gnu_cxx::__normal_iterator.22"* %29, i32 0, i32 0
  store i32* %34, i32** %35, align 8
  %36 = bitcast %"class.std::__debug::vector"* %30 to %"class.__gnu_debug::_Safe_sequence_base"*
  call void @_ZN11__gnu_debug14_Safe_iteratorIN9__gnu_cxx17__normal_iteratorIPiNSt9__cxx19986vectorIiSaIiEEEEENSt7__debug6vectorIiS6_EEEC2ERKS8_PKNS_19_Safe_sequence_baseE(%"class.__gnu_debug::_Safe_iterator.21"* %0, %"class.__gnu_cxx::__normal_iterator.22"* dereferenceable(8) %29, %"class.__gnu_debug::_Safe_sequence_base"* %36) #3
  %37 = load i32, i32* @x.66
  %38 = load i32, i32* @y.67
  %39 = sub i32 %37, 39107657
  %40 = sub i32 %39, 1
  %41 = add i32 %40, 39107657
  %42 = sub i32 %37, 1
  %43 = mul i32 %37, %41
  %44 = urem i32 %43, 2
  %45 = icmp eq i32 %44, 0
  %46 = icmp slt i32 %38, 10
  %47 = and i1 %45, %46
  %48 = xor i1 %45, %46
  %49 = or i1 %47, %48
  %50 = or i1 %45, %46
  %51 = select i1 %49, i32 -2110314670, i32 -717951832
  store i32 %51, i32* %15
  br label %63

; <label>:52:                                     ; preds = %16
  ret void

; <label>:53:                                     ; preds = %16
  %54 = alloca %"class.std::__debug::vector"*, align 8
  %55 = alloca %"class.__gnu_cxx::__normal_iterator.22", align 8
  store %"class.std::__debug::vector"* %1, %"class.std::__debug::vector"** %54, align 8
  %56 = load %"class.std::__debug::vector"*, %"class.std::__debug::vector"** %54, align 8
  %57 = bitcast %"class.std::__debug::vector"* %56 to i8*
  %58 = getelementptr inbounds i8, i8* %57, i64 24
  %59 = bitcast i8* %58 to %"class.std::__cxx1998::vector"*
  %60 = call i32* @_ZNSt9__cxx19986vectorIiSaIiEE5beginEv(%"class.std::__cxx1998::vector"* %59) #3
  %61 = getelementptr inbounds %"class.__gnu_cxx::__normal_iterator.22", %"class.__gnu_cxx::__normal_iterator.22"* %55, i32 0, i32 0
  store i32* %60, i32** %61, align 8
  %62 = bitcast %"class.std::__debug::vector"* %56 to %"class.__gnu_debug::_Safe_sequence_base"*
  call void @_ZN11__gnu_debug14_Safe_iteratorIN9__gnu_cxx17__normal_iteratorIPiNSt9__cxx19986vectorIiSaIiEEEEENSt7__debug6vectorIiS6_EEEC2ERKS8_PKNS_19_Safe_sequence_baseE(%"class.__gnu_debug::_Safe_iterator.21"* %0, %"class.__gnu_cxx::__normal_iterator.22"* dereferenceable(8) %55, %"class.__gnu_debug::_Safe_sequence_base"* %62) #3
  store i32 -183301444, i32* %15
  br label %63

; <label>:63:                                     ; preds = %53, %27, %19, %18
  br label %16
}

; Function Attrs: noinline nounwind uwtable
define linkonce_odr void @_ZNSt7__debug6vectorIiSaIiEE3endEv(%"class.__gnu_debug::_Safe_iterator.21"* noalias sret, %"class.std::__debug::vector"*) #4 comdat align 2 {
  %3 = alloca %"class.std::__debug::vector"*, align 8
  %4 = alloca %"class.__gnu_cxx::__normal_iterator.22", align 8
  store %"class.std::__debug::vector"* %1, %"class.std::__debug::vector"** %3, align 8
  %5 = load %"class.std::__debug::vector"*, %"class.std::__debug::vector"** %3, align 8
  %6 = bitcast %"class.std::__debug::vector"* %5 to i8*
  %7 = getelementptr inbounds i8, i8* %6, i64 24
  %8 = bitcast i8* %7 to %"class.std::__cxx1998::vector"*
  %9 = call i32* @_ZNSt9__cxx19986vectorIiSaIiEE3endEv(%"class.std::__cxx1998::vector"* %8) #3
  %10 = getelementptr inbounds %"class.__gnu_cxx::__normal_iterator.22", %"class.__gnu_cxx::__normal_iterator.22"* %4, i32 0, i32 0
  store i32* %9, i32** %10, align 8
  %11 = bitcast %"class.std::__debug::vector"* %5 to %"class.__gnu_debug::_Safe_sequence_base"*
  call void @_ZN11__gnu_debug14_Safe_iteratorIN9__gnu_cxx17__normal_iteratorIPiNSt9__cxx19986vectorIiSaIiEEEEENSt7__debug6vectorIiS6_EEEC2ERKS8_PKNS_19_Safe_sequence_baseE(%"class.__gnu_debug::_Safe_iterator.21"* %0, %"class.__gnu_cxx::__normal_iterator.22"* dereferenceable(8) %4, %"class.__gnu_debug::_Safe_sequence_base"* %11) #3
  ret void
}

; Function Attrs: noinline nounwind uwtable
define linkonce_odr zeroext i1 @_ZN11__gnu_debugneIN9__gnu_cxx17__normal_iteratorIPiNSt9__cxx19986vectorIiSaIiEEEEENSt7__debug6vectorIiS6_EEEEbRKNS_14_Safe_iteratorIT_T0_EESH_(%"class.__gnu_debug::_Safe_iterator.21"* dereferenceable(40), %"class.__gnu_debug::_Safe_iterator.21"* dereferenceable(40)) #4 comdat personality i8* bitcast (i32 (...)* @__gxx_personality_v0 to i8*) {
  %3 = alloca %"class.__gnu_debug::_Safe_iterator.21"*, align 8
  %4 = alloca %"class.__gnu_debug::_Safe_iterator.21"*, align 8
  %5 = alloca %"class.__gnu_debug::_Error_formatter", align 8
  %6 = alloca %"class.__gnu_debug::_Error_formatter", align 8
  store %"class.__gnu_debug::_Safe_iterator.21"* %0, %"class.__gnu_debug::_Safe_iterator.21"** %3, align 8
  store %"class.__gnu_debug::_Safe_iterator.21"* %1, %"class.__gnu_debug::_Safe_iterator.21"** %4, align 8
  br label %7

; <label>:7:                                      ; preds = %2
  %8 = load i32, i32* @x.70
  %9 = load i32, i32* @y.71
  %10 = sub i32 0, 1
  %11 = add i32 %8, %10
  %12 = sub i32 %8, 1
  %13 = mul i32 %8, %11
  %14 = urem i32 %13, 2
  %15 = icmp eq i32 %14, 0
  %16 = icmp slt i32 %9, 10
  %17 = xor i1 %15, true
  %18 = xor i1 %16, true
  %19 = xor i1 false, true
  %20 = and i1 %17, false
  %21 = and i1 %15, %19
  %22 = and i1 %18, false
  %23 = and i1 %16, %19
  %24 = or i1 %20, %21
  %25 = or i1 %22, %23
  %26 = xor i1 %24, %25
  %27 = or i1 %17, %18
  %28 = xor i1 %27, true
  %29 = or i1 false, %19
  %30 = and i1 %28, %29
  %31 = or i1 %26, %30
  %32 = or i1 %15, %16
  br i1 %31, label %33, label %260

; <label>:33:                                     ; preds = %7, %260
  %34 = load %"class.__gnu_debug::_Safe_iterator.21"*, %"class.__gnu_debug::_Safe_iterator.21"** %3, align 8
  %35 = bitcast %"class.__gnu_debug::_Safe_iterator.21"* %34 to i8*
  %36 = getelementptr inbounds i8, i8* %35, i64 8
  %37 = bitcast i8* %36 to %"class.__gnu_debug::_Safe_iterator_base"*
  %38 = call zeroext i1 @_ZNK11__gnu_debug19_Safe_iterator_base11_M_singularEv(%"class.__gnu_debug::_Safe_iterator_base"* %37) #14
  %39 = load i32, i32* @x.70
  %40 = load i32, i32* @y.71
  %41 = sub i32 %39, 745917825
  %42 = sub i32 %41, 1
  %43 = add i32 %42, 745917825
  %44 = sub i32 %39, 1
  %45 = mul i32 %39, %43
  %46 = urem i32 %45, 2
  %47 = icmp eq i32 %46, 0
  %48 = icmp slt i32 %40, 10
  %49 = xor i1 %47, true
  %50 = xor i1 %48, true
  %51 = xor i1 false, true
  %52 = and i1 %49, false
  %53 = and i1 %47, %51
  %54 = and i1 %50, false
  %55 = and i1 %48, %51
  %56 = or i1 %52, %53
  %57 = or i1 %54, %55
  %58 = xor i1 %56, %57
  %59 = or i1 %49, %50
  %60 = xor i1 %59, true
  %61 = or i1 false, %51
  %62 = and i1 %60, %61
  %63 = or i1 %58, %62
  %64 = or i1 %47, %48
  br i1 %63, label %65, label %260

; <label>:65:                                     ; preds = %33
  br i1 %38, label %72, label %66

; <label>:66:                                     ; preds = %65
  %67 = load %"class.__gnu_debug::_Safe_iterator.21"*, %"class.__gnu_debug::_Safe_iterator.21"** %4, align 8
  %68 = bitcast %"class.__gnu_debug::_Safe_iterator.21"* %67 to i8*
  %69 = getelementptr inbounds i8, i8* %68, i64 8
  %70 = bitcast i8* %69 to %"class.__gnu_debug::_Safe_iterator_base"*
  %71 = call zeroext i1 @_ZNK11__gnu_debug19_Safe_iterator_base11_M_singularEv(%"class.__gnu_debug::_Safe_iterator_base"* %70) #14
  br i1 %71, label %72, label %154

; <label>:72:                                     ; preds = %66, %65
  %73 = load i32, i32* @x.70
  %74 = load i32, i32* @y.71
  %75 = add i32 %73, -241429055
  %76 = sub i32 %75, 1
  %77 = sub i32 %76, -241429055
  %78 = sub i32 %73, 1
  %79 = mul i32 %73, %77
  %80 = urem i32 %79, 2
  %81 = icmp eq i32 %80, 0
  %82 = icmp slt i32 %74, 10
  %83 = and i1 %81, %82
  %84 = xor i1 %81, %82
  %85 = or i1 %83, %84
  %86 = or i1 %81, %82
  br i1 %85, label %87, label %266

; <label>:87:                                     ; preds = %72, %266
  %88 = load i32, i32* @x.70
  %89 = load i32, i32* @y.71
  %90 = sub i32 %88, 1992363353
  %91 = sub i32 %90, 1
  %92 = add i32 %91, 1992363353
  %93 = sub i32 %88, 1
  %94 = mul i32 %88, %92
  %95 = urem i32 %94, 2
  %96 = icmp eq i32 %95, 0
  %97 = icmp slt i32 %89, 10
  %98 = xor i1 %96, true
  %99 = xor i1 %97, true
  %100 = xor i1 true, true
  %101 = and i1 %98, true
  %102 = and i1 %96, %100
  %103 = and i1 %99, true
  %104 = and i1 %97, %100
  %105 = or i1 %101, %102
  %106 = or i1 %103, %104
  %107 = xor i1 %105, %106
  %108 = or i1 %98, %99
  %109 = xor i1 %108, true
  %110 = or i1 true, %100
  %111 = and i1 %109, %110
  %112 = or i1 %107, %111
  %113 = or i1 %96, %97
  br i1 %112, label %114, label %266

; <label>:114:                                    ; preds = %87
  invoke void @_ZN11__gnu_debug16_Error_formatter5_M_atEPKcm(%"class.__gnu_debug::_Error_formatter"* sret %5, i8* getelementptr inbounds ([88 x i8], [88 x i8]* @.str.14, i32 0, i32 0), i64 584)
          to label %115 unwind label %257

; <label>:115:                                    ; preds = %114
  %116 = call dereferenceable(560) %"class.__gnu_debug::_Error_formatter"* @_ZNK11__gnu_debug16_Error_formatter10_M_messageENS_13_Debug_msg_idE(%"class.__gnu_debug::_Error_formatter"* %5, i32 31) #3
  %117 = load %"class.__gnu_debug::_Safe_iterator.21"*, %"class.__gnu_debug::_Safe_iterator.21"** %3, align 8
  %118 = invoke dereferenceable(560) %"class.__gnu_debug::_Error_formatter"* @_ZNK11__gnu_debug16_Error_formatter11_M_iteratorINS_14_Safe_iteratorIN9__gnu_cxx17__normal_iteratorIPiNSt9__cxx19986vectorIiSaIiEEEEENSt7__debug6vectorIiS8_EEEEEERKS0_RKT_PKc(%"class.__gnu_debug::_Error_formatter"* %116, %"class.__gnu_debug::_Safe_iterator.21"* dereferenceable(40) %117, i8* getelementptr inbounds ([4 x i8], [4 x i8]* @.str.15, i32 0, i32 0))
          to label %119 unwind label %257

; <label>:119:                                    ; preds = %115
  %120 = load %"class.__gnu_debug::_Safe_iterator.21"*, %"class.__gnu_debug::_Safe_iterator.21"** %4, align 8
  %121 = invoke dereferenceable(560) %"class.__gnu_debug::_Error_formatter"* @_ZNK11__gnu_debug16_Error_formatter11_M_iteratorINS_14_Safe_iteratorIN9__gnu_cxx17__normal_iteratorIPiNSt9__cxx19986vectorIiSaIiEEEEENSt7__debug6vectorIiS8_EEEEEERKS0_RKT_PKc(%"class.__gnu_debug::_Error_formatter"* %118, %"class.__gnu_debug::_Safe_iterator.21"* dereferenceable(40) %120, i8* getelementptr inbounds ([4 x i8], [4 x i8]* @.str.16, i32 0, i32 0))
          to label %122 unwind label %257

; <label>:122:                                    ; preds = %119
  %123 = load i32, i32* @x.70
  %124 = load i32, i32* @y.71
  %125 = add i32 %123, 1537644343
  %126 = sub i32 %125, 1
  %127 = sub i32 %126, 1537644343
  %128 = sub i32 %123, 1
  %129 = mul i32 %123, %127
  %130 = urem i32 %129, 2
  %131 = icmp eq i32 %130, 0
  %132 = icmp slt i32 %124, 10
  %133 = and i1 %131, %132
  %134 = xor i1 %131, %132
  %135 = or i1 %133, %134
  %136 = or i1 %131, %132
  br i1 %135, label %137, label %267

; <label>:137:                                    ; preds = %122, %267
  %138 = load i32, i32* @x.70
  %139 = load i32, i32* @y.71
  %140 = add i32 %138, -1107146422
  %141 = sub i32 %140, 1
  %142 = sub i32 %141, -1107146422
  %143 = sub i32 %138, 1
  %144 = mul i32 %138, %142
  %145 = urem i32 %144, 2
  %146 = icmp eq i32 %145, 0
  %147 = icmp slt i32 %139, 10
  %148 = and i1 %146, %147
  %149 = xor i1 %146, %147
  %150 = or i1 %148, %149
  %151 = or i1 %146, %147
  br i1 %150, label %152, label %267

; <label>:152:                                    ; preds = %137
  invoke void @_ZNK11__gnu_debug16_Error_formatter8_M_errorEv(%"class.__gnu_debug::_Error_formatter"* %121) #13
          to label %153 unwind label %257

; <label>:153:                                    ; preds = %152
  unreachable

; <label>:154:                                    ; preds = %66
  br label %155

; <label>:155:                                    ; preds = %154
  br label %156

; <label>:156:                                    ; preds = %155
  br label %157

; <label>:157:                                    ; preds = %156
  %158 = load i32, i32* @x.70
  %159 = load i32, i32* @y.71
  %160 = sub i32 %158, -533645514
  %161 = sub i32 %160, 1
  %162 = add i32 %161, -533645514
  %163 = sub i32 %158, 1
  %164 = mul i32 %158, %162
  %165 = urem i32 %164, 2
  %166 = icmp eq i32 %165, 0
  %167 = icmp slt i32 %159, 10
  %168 = and i1 %166, %167
  %169 = xor i1 %166, %167
  %170 = or i1 %168, %169
  %171 = or i1 %166, %167
  br i1 %170, label %172, label %268

; <label>:172:                                    ; preds = %157, %268
  %173 = load %"class.__gnu_debug::_Safe_iterator.21"*, %"class.__gnu_debug::_Safe_iterator.21"** %3, align 8
  %174 = bitcast %"class.__gnu_debug::_Safe_iterator.21"* %173 to i8*
  %175 = getelementptr inbounds i8, i8* %174, i64 8
  %176 = bitcast i8* %175 to %"class.__gnu_debug::_Safe_iterator_base"*
  %177 = load %"class.__gnu_debug::_Safe_iterator.21"*, %"class.__gnu_debug::_Safe_iterator.21"** %4, align 8
  %178 = bitcast %"class.__gnu_debug::_Safe_iterator.21"* %177 to i8*
  %179 = getelementptr inbounds i8, i8* %178, i64 8
  %180 = bitcast i8* %179 to %"class.__gnu_debug::_Safe_iterator_base"*
  %181 = call zeroext i1 @_ZNK11__gnu_debug19_Safe_iterator_base14_M_can_compareERKS0_(%"class.__gnu_debug::_Safe_iterator_base"* %176, %"class.__gnu_debug::_Safe_iterator_base"* dereferenceable(32) %180) #14
  %182 = load i32, i32* @x.70
  %183 = load i32, i32* @y.71
  %184 = sub i32 %182, -2013082624
  %185 = sub i32 %184, 1
  %186 = add i32 %185, -2013082624
  %187 = sub i32 %182, 1
  %188 = mul i32 %182, %186
  %189 = urem i32 %188, 2
  %190 = icmp eq i32 %189, 0
  %191 = icmp slt i32 %183, 10
  %192 = xor i1 %190, true
  %193 = xor i1 %191, true
  %194 = xor i1 false, true
  %195 = and i1 %192, false
  %196 = and i1 %190, %194
  %197 = and i1 %193, false
  %198 = and i1 %191, %194
  %199 = or i1 %195, %196
  %200 = or i1 %197, %198
  %201 = xor i1 %199, %200
  %202 = or i1 %192, %193
  %203 = xor i1 %202, true
  %204 = or i1 false, %194
  %205 = and i1 %203, %204
  %206 = or i1 %201, %205
  %207 = or i1 %190, %191
  br i1 %206, label %208, label %268

; <label>:208:                                    ; preds = %172
  br i1 %181, label %249, label %209

; <label>:209:                                    ; preds = %208
  %210 = load i32, i32* @x.70
  %211 = load i32, i32* @y.71
  %212 = add i32 %210, -983284451
  %213 = sub i32 %212, 1
  %214 = sub i32 %213, -983284451
  %215 = sub i32 %210, 1
  %216 = mul i32 %210, %214
  %217 = urem i32 %216, 2
  %218 = icmp eq i32 %217, 0
  %219 = icmp slt i32 %211, 10
  %220 = and i1 %218, %219
  %221 = xor i1 %218, %219
  %222 = or i1 %220, %221
  %223 = or i1 %218, %219
  br i1 %222, label %224, label %278

; <label>:224:                                    ; preds = %209, %278
  %225 = load i32, i32* @x.70
  %226 = load i32, i32* @y.71
  %227 = add i32 %225, 565942206
  %228 = sub i32 %227, 1
  %229 = sub i32 %228, 565942206
  %230 = sub i32 %225, 1
  %231 = mul i32 %225, %229
  %232 = urem i32 %231, 2
  %233 = icmp eq i32 %232, 0
  %234 = icmp slt i32 %226, 10
  %235 = and i1 %233, %234
  %236 = xor i1 %233, %234
  %237 = or i1 %235, %236
  %238 = or i1 %233, %234
  br i1 %237, label %239, label %278

; <label>:239:                                    ; preds = %224
  invoke void @_ZN11__gnu_debug16_Error_formatter5_M_atEPKcm(%"class.__gnu_debug::_Error_formatter"* sret %6, i8* getelementptr inbounds ([88 x i8], [88 x i8]* @.str.14, i32 0, i32 0), i64 588)
          to label %240 unwind label %257

; <label>:240:                                    ; preds = %239
  %241 = call dereferenceable(560) %"class.__gnu_debug::_Error_formatter"* @_ZNK11__gnu_debug16_Error_formatter10_M_messageENS_13_Debug_msg_idE(%"class.__gnu_debug::_Error_formatter"* %6, i32 32) #3
  %242 = load %"class.__gnu_debug::_Safe_iterator.21"*, %"class.__gnu_debug::_Safe_iterator.21"** %3, align 8
  %243 = invoke dereferenceable(560) %"class.__gnu_debug::_Error_formatter"* @_ZNK11__gnu_debug16_Error_formatter11_M_iteratorINS_14_Safe_iteratorIN9__gnu_cxx17__normal_iteratorIPiNSt9__cxx19986vectorIiSaIiEEEEENSt7__debug6vectorIiS8_EEEEEERKS0_RKT_PKc(%"class.__gnu_debug::_Error_formatter"* %241, %"class.__gnu_debug::_Safe_iterator.21"* dereferenceable(40) %242, i8* getelementptr inbounds ([4 x i8], [4 x i8]* @.str.15, i32 0, i32 0))
          to label %244 unwind label %257

; <label>:244:                                    ; preds = %240
  %245 = load %"class.__gnu_debug::_Safe_iterator.21"*, %"class.__gnu_debug::_Safe_iterator.21"** %4, align 8
  %246 = invoke dereferenceable(560) %"class.__gnu_debug::_Error_formatter"* @_ZNK11__gnu_debug16_Error_formatter11_M_iteratorINS_14_Safe_iteratorIN9__gnu_cxx17__normal_iteratorIPiNSt9__cxx19986vectorIiSaIiEEEEENSt7__debug6vectorIiS8_EEEEEERKS0_RKT_PKc(%"class.__gnu_debug::_Error_formatter"* %243, %"class.__gnu_debug::_Safe_iterator.21"* dereferenceable(40) %245, i8* getelementptr inbounds ([4 x i8], [4 x i8]* @.str.16, i32 0, i32 0))
          to label %247 unwind label %257

; <label>:247:                                    ; preds = %244
  invoke void @_ZNK11__gnu_debug16_Error_formatter8_M_errorEv(%"class.__gnu_debug::_Error_formatter"* %246) #13
          to label %248 unwind label %257

; <label>:248:                                    ; preds = %247
  unreachable

; <label>:249:                                    ; preds = %208
  br label %250

; <label>:250:                                    ; preds = %249
  br label %251

; <label>:251:                                    ; preds = %250
  %252 = load %"class.__gnu_debug::_Safe_iterator.21"*, %"class.__gnu_debug::_Safe_iterator.21"** %3, align 8
  %253 = call dereferenceable(8) %"class.__gnu_cxx::__normal_iterator.22"* @_ZNK11__gnu_debug14_Safe_iteratorIN9__gnu_cxx17__normal_iteratorIPiNSt9__cxx19986vectorIiSaIiEEEEENSt7__debug6vectorIiS6_EEE4baseEv(%"class.__gnu_debug::_Safe_iterator.21"* %252) #3
  %254 = load %"class.__gnu_debug::_Safe_iterator.21"*, %"class.__gnu_debug::_Safe_iterator.21"** %4, align 8
  %255 = call dereferenceable(8) %"class.__gnu_cxx::__normal_iterator.22"* @_ZNK11__gnu_debug14_Safe_iteratorIN9__gnu_cxx17__normal_iteratorIPiNSt9__cxx19986vectorIiSaIiEEEEENSt7__debug6vectorIiS6_EEE4baseEv(%"class.__gnu_debug::_Safe_iterator.21"* %254) #3
  %256 = call zeroext i1 @_ZN9__gnu_cxxneIPiNSt9__cxx19986vectorIiSaIiEEEEEbRKNS_17__normal_iteratorIT_T0_EESB_(%"class.__gnu_cxx::__normal_iterator.22"* dereferenceable(8) %253, %"class.__gnu_cxx::__normal_iterator.22"* dereferenceable(8) %255) #3
  ret i1 %256

; <label>:257:                                    ; preds = %247, %244, %240, %239, %152, %119, %115, %114
  %258 = landingpad { i8*, i32 }
          catch i8* null
  %259 = extractvalue { i8*, i32 } %258, 0
  call void @__clang_call_terminate(i8* %259) #10
  unreachable

; <label>:260:                                    ; preds = %33, %7
  %261 = load %"class.__gnu_debug::_Safe_iterator.21"*, %"class.__gnu_debug::_Safe_iterator.21"** %3, align 8
  %262 = bitcast %"class.__gnu_debug::_Safe_iterator.21"* %261 to i8*
  %263 = getelementptr inbounds i8, i8* %262, i64 8
  %264 = bitcast i8* %263 to %"class.__gnu_debug::_Safe_iterator_base"*
  %265 = call zeroext i1 @_ZNK11__gnu_debug19_Safe_iterator_base11_M_singularEv(%"class.__gnu_debug::_Safe_iterator_base"* %264) #14
  br label %33

; <label>:266:                                    ; preds = %87, %72
  br label %87

; <label>:267:                                    ; preds = %137, %122
  br label %137

; <label>:268:                                    ; preds = %172, %157
  %269 = load %"class.__gnu_debug::_Safe_iterator.21"*, %"class.__gnu_debug::_Safe_iterator.21"** %3, align 8
  %270 = bitcast %"class.__gnu_debug::_Safe_iterator.21"* %269 to i8*
  %271 = getelementptr inbounds i8, i8* %270, i64 8
  %272 = bitcast i8* %271 to %"class.__gnu_debug::_Safe_iterator_base"*
  %273 = load %"class.__gnu_debug::_Safe_iterator.21"*, %"class.__gnu_debug::_Safe_iterator.21"** %4, align 8
  %274 = bitcast %"class.__gnu_debug::_Safe_iterator.21"* %273 to i8*
  %275 = getelementptr inbounds i8, i8* %274, i64 8
  %276 = bitcast i8* %275 to %"class.__gnu_debug::_Safe_iterator_base"*
  %277 = call zeroext i1 @_ZNK11__gnu_debug19_Safe_iterator_base14_M_can_compareERKS0_(%"class.__gnu_debug::_Safe_iterator_base"* %272, %"class.__gnu_debug::_Safe_iterator_base"* dereferenceable(32) %276) #14
  br label %172

; <label>:278:                                    ; preds = %224, %209
  br label %224
}

; Function Attrs: noinline nounwind uwtable
define linkonce_odr dereferenceable(4) i32* @_ZNK11__gnu_debug14_Safe_iteratorIN9__gnu_cxx17__normal_iteratorIPiNSt9__cxx19986vectorIiSaIiEEEEENSt7__debug6vectorIiS6_EEEdeEv(%"class.__gnu_debug::_Safe_iterator.21"*) #4 comdat align 2 personality i8* bitcast (i32 (...)* @__gxx_personality_v0 to i8*) {
  %2 = alloca %"class.__gnu_debug::_Safe_iterator.21"*, align 8
  %3 = alloca %"class.__gnu_debug::_Error_formatter", align 8
  store %"class.__gnu_debug::_Safe_iterator.21"* %0, %"class.__gnu_debug::_Safe_iterator.21"** %2, align 8
  %4 = load %"class.__gnu_debug::_Safe_iterator.21"*, %"class.__gnu_debug::_Safe_iterator.21"** %2, align 8
  br label %5

; <label>:5:                                      ; preds = %1
  %6 = invoke zeroext i1 @_ZNK11__gnu_debug14_Safe_iteratorIN9__gnu_cxx17__normal_iteratorIPiNSt9__cxx19986vectorIiSaIiEEEEENSt7__debug6vectorIiS6_EEE18_M_dereferenceableEv(%"class.__gnu_debug::_Safe_iterator.21"* %4)
          to label %7 unwind label %144

; <label>:7:                                      ; preds = %5
  br i1 %6, label %110, label %8

; <label>:8:                                      ; preds = %7
  invoke void @_ZN11__gnu_debug16_Error_formatter5_M_atEPKcm(%"class.__gnu_debug::_Error_formatter"* sret %3, i8* getelementptr inbounds ([88 x i8], [88 x i8]* @.str.14, i32 0, i32 0), i64 303)
          to label %9 unwind label %144

; <label>:9:                                      ; preds = %8
  %10 = call dereferenceable(560) %"class.__gnu_debug::_Error_formatter"* @_ZNK11__gnu_debug16_Error_formatter10_M_messageENS_13_Debug_msg_idE(%"class.__gnu_debug::_Error_formatter"* %3, i32 25) #3
  %11 = invoke dereferenceable(560) %"class.__gnu_debug::_Error_formatter"* @_ZNK11__gnu_debug16_Error_formatter11_M_iteratorINS_14_Safe_iteratorIN9__gnu_cxx17__normal_iteratorIPiNSt9__cxx19986vectorIiSaIiEEEEENSt7__debug6vectorIiS8_EEEEEERKS0_RKT_PKc(%"class.__gnu_debug::_Error_formatter"* %10, %"class.__gnu_debug::_Safe_iterator.21"* dereferenceable(40) %4, i8* getelementptr inbounds ([5 x i8], [5 x i8]* @.str.4, i32 0, i32 0))
          to label %12 unwind label %144

; <label>:12:                                     ; preds = %9
  %13 = load i32, i32* @x.72
  %14 = load i32, i32* @y.73
  %15 = sub i32 %13, 78828312
  %16 = sub i32 %15, 1
  %17 = add i32 %16, 78828312
  %18 = sub i32 %13, 1
  %19 = mul i32 %13, %17
  %20 = urem i32 %19, 2
  %21 = icmp eq i32 %20, 0
  %22 = icmp slt i32 %14, 10
  %23 = and i1 %21, %22
  %24 = xor i1 %21, %22
  %25 = or i1 %23, %24
  %26 = or i1 %21, %22
  br i1 %25, label %27, label %147

; <label>:27:                                     ; preds = %12, %147
  %28 = load i32, i32* @x.72
  %29 = load i32, i32* @y.73
  %30 = add i32 %28, -1120797309
  %31 = sub i32 %30, 1
  %32 = sub i32 %31, -1120797309
  %33 = sub i32 %28, 1
  %34 = mul i32 %28, %32
  %35 = urem i32 %34, 2
  %36 = icmp eq i32 %35, 0
  %37 = icmp slt i32 %29, 10
  %38 = xor i1 %36, true
  %39 = xor i1 %37, true
  %40 = xor i1 false, true
  %41 = and i1 %38, false
  %42 = and i1 %36, %40
  %43 = and i1 %39, false
  %44 = and i1 %37, %40
  %45 = or i1 %41, %42
  %46 = or i1 %43, %44
  %47 = xor i1 %45, %46
  %48 = or i1 %38, %39
  %49 = xor i1 %48, true
  %50 = or i1 false, %40
  %51 = and i1 %49, %50
  %52 = or i1 %47, %51
  %53 = or i1 %36, %37
  br i1 %52, label %54, label %147

; <label>:54:                                     ; preds = %27
  invoke void @_ZNK11__gnu_debug16_Error_formatter8_M_errorEv(%"class.__gnu_debug::_Error_formatter"* %11) #13
          to label %55 unwind label %144

; <label>:55:                                     ; preds = %54
  %56 = load i32, i32* @x.72
  %57 = load i32, i32* @y.73
  %58 = sub i32 %56, 1843212488
  %59 = sub i32 %58, 1
  %60 = add i32 %59, 1843212488
  %61 = sub i32 %56, 1
  %62 = mul i32 %56, %60
  %63 = urem i32 %62, 2
  %64 = icmp eq i32 %63, 0
  %65 = icmp slt i32 %57, 10
  %66 = xor i1 %64, true
  %67 = xor i1 %65, true
  %68 = xor i1 true, true
  %69 = and i1 %66, true
  %70 = and i1 %64, %68
  %71 = and i1 %67, true
  %72 = and i1 %65, %68
  %73 = or i1 %69, %70
  %74 = or i1 %71, %72
  %75 = xor i1 %73, %74
  %76 = or i1 %66, %67
  %77 = xor i1 %76, true
  %78 = or i1 true, %68
  %79 = and i1 %77, %78
  %80 = or i1 %75, %79
  %81 = or i1 %64, %65
  br i1 %80, label %82, label %148

; <label>:82:                                     ; preds = %55, %148
  %83 = load i32, i32* @x.72
  %84 = load i32, i32* @y.73
  %85 = add i32 %83, 24689674
  %86 = sub i32 %85, 1
  %87 = sub i32 %86, 24689674
  %88 = sub i32 %83, 1
  %89 = mul i32 %83, %87
  %90 = urem i32 %89, 2
  %91 = icmp eq i32 %90, 0
  %92 = icmp slt i32 %84, 10
  %93 = xor i1 %91, true
  %94 = xor i1 %92, true
  %95 = xor i1 true, true
  %96 = and i1 %93, true
  %97 = and i1 %91, %95
  %98 = and i1 %94, true
  %99 = and i1 %92, %95
  %100 = or i1 %96, %97
  %101 = or i1 %98, %99
  %102 = xor i1 %100, %101
  %103 = or i1 %93, %94
  %104 = xor i1 %103, true
  %105 = or i1 true, %95
  %106 = and i1 %104, %105
  %107 = or i1 %102, %106
  %108 = or i1 %91, %92
  br i1 %107, label %109, label %148

; <label>:109:                                    ; preds = %82
  unreachable

; <label>:110:                                    ; preds = %7
  %111 = load i32, i32* @x.72
  %112 = load i32, i32* @y.73
  %113 = add i32 %111, 1714662835
  %114 = sub i32 %113, 1
  %115 = sub i32 %114, 1714662835
  %116 = sub i32 %111, 1
  %117 = mul i32 %111, %115
  %118 = urem i32 %117, 2
  %119 = icmp eq i32 %118, 0
  %120 = icmp slt i32 %112, 10
  %121 = and i1 %119, %120
  %122 = xor i1 %119, %120
  %123 = or i1 %121, %122
  %124 = or i1 %119, %120
  br i1 %123, label %125, label %149

; <label>:125:                                    ; preds = %110, %149
  %126 = load i32, i32* @x.72
  %127 = load i32, i32* @y.73
  %128 = sub i32 0, 1
  %129 = add i32 %126, %128
  %130 = sub i32 %126, 1
  %131 = mul i32 %126, %129
  %132 = urem i32 %131, 2
  %133 = icmp eq i32 %132, 0
  %134 = icmp slt i32 %127, 10
  %135 = and i1 %133, %134
  %136 = xor i1 %133, %134
  %137 = or i1 %135, %136
  %138 = or i1 %133, %134
  br i1 %137, label %139, label %149

; <label>:139:                                    ; preds = %125
  br label %140

; <label>:140:                                    ; preds = %139
  br label %141

; <label>:141:                                    ; preds = %140
  %142 = call dereferenceable(8) %"class.__gnu_cxx::__normal_iterator.22"* @_ZNK11__gnu_debug14_Safe_iteratorIN9__gnu_cxx17__normal_iteratorIPiNSt9__cxx19986vectorIiSaIiEEEEENSt7__debug6vectorIiS6_EEE4baseEv(%"class.__gnu_debug::_Safe_iterator.21"* %4) #3
  %143 = call dereferenceable(4) i32* @_ZNK9__gnu_cxx17__normal_iteratorIPiNSt9__cxx19986vectorIiSaIiEEEEdeEv(%"class.__gnu_cxx::__normal_iterator.22"* %142) #3
  ret i32* %143

; <label>:144:                                    ; preds = %54, %9, %8, %5
  %145 = landingpad { i8*, i32 }
          catch i8* null
  %146 = extractvalue { i8*, i32 } %145, 0
  call void @__clang_call_terminate(i8* %146) #10
  unreachable

; <label>:147:                                    ; preds = %27, %12
  br label %27

; <label>:148:                                    ; preds = %82, %55
  br label %82

; <label>:149:                                    ; preds = %125, %110
  br label %125
}

; Function Attrs: noinline uwtable
define linkonce_odr void @_ZNSt7__debug3setIiSt4lessIiESaIiEE6insertERKi(%"struct.std::pair"* noalias sret, %"class.std::__debug::set"*, i32* dereferenceable(4)) #0 comdat align 2 personality i8* bitcast (i32 (...)* @__gxx_personality_v0 to i8*) {
  %4 = alloca %"class.std::__debug::set"*, align 8
  %5 = alloca i32*, align 8
  %6 = alloca %"struct.std::pair.30", align 8
  %7 = alloca %"class.__gnu_debug::_Safe_iterator.23", align 8
  %8 = alloca i8*
  %9 = alloca i32
  store %"class.std::__debug::set"* %1, %"class.std::__debug::set"** %4, align 8
  store i32* %2, i32** %5, align 8
  %10 = load %"class.std::__debug::set"*, %"class.std::__debug::set"** %4, align 8
  %11 = bitcast %"class.std::__debug::set"* %10 to i8*
  %12 = getelementptr inbounds i8, i8* %11, i64 24
  %13 = bitcast i8* %12 to %"class.std::__cxx1998::set"*
  %14 = load i32*, i32** %5, align 8
  %15 = call { %"struct.std::_Rb_tree_node_base"*, i8 } @_ZNSt9__cxx19983setIiSt4lessIiESaIiEE6insertERKi(%"class.std::__cxx1998::set"* %13, i32* dereferenceable(4) %14)
  %16 = bitcast %"struct.std::pair.30"* %6 to { %"struct.std::_Rb_tree_node_base"*, i8 }*
  %17 = getelementptr inbounds { %"struct.std::_Rb_tree_node_base"*, i8 }, { %"struct.std::_Rb_tree_node_base"*, i8 }* %16, i32 0, i32 0
  %18 = extractvalue { %"struct.std::_Rb_tree_node_base"*, i8 } %15, 0
  store %"struct.std::_Rb_tree_node_base"* %18, %"struct.std::_Rb_tree_node_base"** %17, align 8
  %19 = getelementptr inbounds { %"struct.std::_Rb_tree_node_base"*, i8 }, { %"struct.std::_Rb_tree_node_base"*, i8 }* %16, i32 0, i32 1
  %20 = extractvalue { %"struct.std::_Rb_tree_node_base"*, i8 } %15, 1
  store i8 %20, i8* %19, align 8
  %21 = getelementptr inbounds %"struct.std::pair.30", %"struct.std::pair.30"* %6, i32 0, i32 0
  %22 = bitcast %"class.std::__debug::set"* %10 to %"class.__gnu_debug::_Safe_sequence_base"*
  call void @_ZN11__gnu_debug14_Safe_iteratorISt23_Rb_tree_const_iteratorIiENSt7__debug3setIiSt4lessIiESaIiEEEEC2ERKS2_PKNS_19_Safe_sequence_baseE(%"class.__gnu_debug::_Safe_iterator.23"* %7, %"struct.std::_Rb_tree_const_iterator"* dereferenceable(8) %21, %"class.__gnu_debug::_Safe_sequence_base"* %22) #3
  %23 = getelementptr inbounds %"struct.std::pair.30", %"struct.std::pair.30"* %6, i32 0, i32 1
  invoke void @_ZNSt4pairIN11__gnu_debug14_Safe_iteratorISt23_Rb_tree_const_iteratorIiENSt7__debug3setIiSt4lessIiESaIiEEEEEbEC2ISA_RbvEEOT_OT0_(%"struct.std::pair"* %0, %"class.__gnu_debug::_Safe_iterator.23"* dereferenceable(40) %7, i8* dereferenceable(1) %23)
          to label %24 unwind label %25

; <label>:24:                                     ; preds = %3
  call void @_ZN11__gnu_debug14_Safe_iteratorISt23_Rb_tree_const_iteratorIiENSt7__debug3setIiSt4lessIiESaIiEEEED2Ev(%"class.__gnu_debug::_Safe_iterator.23"* %7) #3
  ret void

; <label>:25:                                     ; preds = %3
  %26 = landingpad { i8*, i32 }
          cleanup
  %27 = extractvalue { i8*, i32 } %26, 0
  store i8* %27, i8** %8, align 8
  %28 = extractvalue { i8*, i32 } %26, 1
  store i32 %28, i32* %9, align 4
  call void @_ZN11__gnu_debug14_Safe_iteratorISt23_Rb_tree_const_iteratorIiENSt7__debug3setIiSt4lessIiESaIiEEEED2Ev(%"class.__gnu_debug::_Safe_iterator.23"* %7) #3
  br label %29

; <label>:29:                                     ; preds = %25
  %30 = load i8*, i8** %8, align 8
  %31 = load i32, i32* %9, align 4
  %32 = insertvalue { i8*, i32 } undef, i8* %30, 0
  %33 = insertvalue { i8*, i32 } %32, i32 %31, 1
  resume { i8*, i32 } %33
}

; Function Attrs: noinline nounwind uwtable
define linkonce_odr void @_ZNSt4pairIN11__gnu_debug14_Safe_iteratorISt23_Rb_tree_const_iteratorIiENSt7__debug3setIiSt4lessIiESaIiEEEEEbED2Ev(%"struct.std::pair"*) unnamed_addr #4 comdat align 2 {
  %2 = alloca %"struct.std::pair"*, align 8
  store %"struct.std::pair"* %0, %"struct.std::pair"** %2, align 8
  %3 = load %"struct.std::pair"*, %"struct.std::pair"** %2, align 8
  %4 = getelementptr inbounds %"struct.std::pair", %"struct.std::pair"* %3, i32 0, i32 0
  call void @_ZN11__gnu_debug14_Safe_iteratorISt23_Rb_tree_const_iteratorIiENSt7__debug3setIiSt4lessIiESaIiEEEED2Ev(%"class.__gnu_debug::_Safe_iterator.23"* %4) #3
  ret void
}

; Function Attrs: noinline nounwind uwtable
define linkonce_odr dereferenceable(40) %"class.__gnu_debug::_Safe_iterator.21"* @_ZN11__gnu_debug14_Safe_iteratorIN9__gnu_cxx17__normal_iteratorIPiNSt9__cxx19986vectorIiSaIiEEEEENSt7__debug6vectorIiS6_EEEppEv(%"class.__gnu_debug::_Safe_iterator.21"*) #4 comdat align 2 personality i8* bitcast (i32 (...)* @__gxx_personality_v0 to i8*) {
  %2 = alloca %"class.__gnu_debug::_Safe_iterator.21"*, align 8
  %3 = alloca %"class.__gnu_debug::_Error_formatter", align 8
  %4 = alloca %"class.__gnu_cxx::__scoped_lock", align 8
  store %"class.__gnu_debug::_Safe_iterator.21"* %0, %"class.__gnu_debug::_Safe_iterator.21"** %2, align 8
  %5 = load %"class.__gnu_debug::_Safe_iterator.21"*, %"class.__gnu_debug::_Safe_iterator.21"** %2, align 8
  br label %6

; <label>:6:                                      ; preds = %1
  %7 = invoke zeroext i1 @_ZNK11__gnu_debug14_Safe_iteratorIN9__gnu_cxx17__normal_iteratorIPiNSt9__cxx19986vectorIiSaIiEEEEENSt7__debug6vectorIiS6_EEE16_M_incrementableEv(%"class.__gnu_debug::_Safe_iterator.21"* %5)
          to label %8 unwind label %161

; <label>:8:                                      ; preds = %6
  br i1 %7, label %55, label %9

; <label>:9:                                      ; preds = %8
  %10 = load i32, i32* @x.78
  %11 = load i32, i32* @y.79
  %12 = sub i32 0, 1
  %13 = add i32 %10, %12
  %14 = sub i32 %10, 1
  %15 = mul i32 %10, %13
  %16 = urem i32 %15, 2
  %17 = icmp eq i32 %16, 0
  %18 = icmp slt i32 %11, 10
  %19 = xor i1 %17, true
  %20 = xor i1 %18, true
  %21 = xor i1 true, true
  %22 = and i1 %19, true
  %23 = and i1 %17, %21
  %24 = and i1 %20, true
  %25 = and i1 %18, %21
  %26 = or i1 %22, %23
  %27 = or i1 %24, %25
  %28 = xor i1 %26, %27
  %29 = or i1 %19, %20
  %30 = xor i1 %29, true
  %31 = or i1 true, %21
  %32 = and i1 %30, %31
  %33 = or i1 %28, %32
  %34 = or i1 %17, %18
  br i1 %33, label %35, label %164

; <label>:35:                                     ; preds = %9, %164
  %36 = load i32, i32* @x.78
  %37 = load i32, i32* @y.79
  %38 = sub i32 0, 1
  %39 = add i32 %36, %38
  %40 = sub i32 %36, 1
  %41 = mul i32 %36, %39
  %42 = urem i32 %41, 2
  %43 = icmp eq i32 %42, 0
  %44 = icmp slt i32 %37, 10
  %45 = and i1 %43, %44
  %46 = xor i1 %43, %44
  %47 = or i1 %45, %46
  %48 = or i1 %43, %44
  br i1 %47, label %49, label %164

; <label>:49:                                     ; preds = %35
  invoke void @_ZN11__gnu_debug16_Error_formatter5_M_atEPKcm(%"class.__gnu_debug::_Error_formatter"* sret %3, i8* getelementptr inbounds ([88 x i8], [88 x i8]* @.str.14, i32 0, i32 0), i64 331)
          to label %50 unwind label %161

; <label>:50:                                     ; preds = %49
  %51 = call dereferenceable(560) %"class.__gnu_debug::_Error_formatter"* @_ZNK11__gnu_debug16_Error_formatter10_M_messageENS_13_Debug_msg_idE(%"class.__gnu_debug::_Error_formatter"* %3, i32 26) #3
  %52 = invoke dereferenceable(560) %"class.__gnu_debug::_Error_formatter"* @_ZNK11__gnu_debug16_Error_formatter11_M_iteratorINS_14_Safe_iteratorIN9__gnu_cxx17__normal_iteratorIPiNSt9__cxx19986vectorIiSaIiEEEEENSt7__debug6vectorIiS8_EEEEEERKS0_RKT_PKc(%"class.__gnu_debug::_Error_formatter"* %51, %"class.__gnu_debug::_Safe_iterator.21"* dereferenceable(40) %5, i8* getelementptr inbounds ([5 x i8], [5 x i8]* @.str.4, i32 0, i32 0))
          to label %53 unwind label %161

; <label>:53:                                     ; preds = %50
  invoke void @_ZNK11__gnu_debug16_Error_formatter8_M_errorEv(%"class.__gnu_debug::_Error_formatter"* %52) #13
          to label %54 unwind label %161

; <label>:54:                                     ; preds = %53
  unreachable

; <label>:55:                                     ; preds = %8
  %56 = load i32, i32* @x.78
  %57 = load i32, i32* @y.79
  %58 = add i32 %56, -2016536586
  %59 = sub i32 %58, 1
  %60 = sub i32 %59, -2016536586
  %61 = sub i32 %56, 1
  %62 = mul i32 %56, %60
  %63 = urem i32 %62, 2
  %64 = icmp eq i32 %63, 0
  %65 = icmp slt i32 %57, 10
  %66 = xor i1 %64, true
  %67 = xor i1 %65, true
  %68 = xor i1 false, true
  %69 = and i1 %66, false
  %70 = and i1 %64, %68
  %71 = and i1 %67, false
  %72 = and i1 %65, %68
  %73 = or i1 %69, %70
  %74 = or i1 %71, %72
  %75 = xor i1 %73, %74
  %76 = or i1 %66, %67
  %77 = xor i1 %76, true
  %78 = or i1 false, %68
  %79 = and i1 %77, %78
  %80 = or i1 %75, %79
  %81 = or i1 %64, %65
  br i1 %80, label %82, label %165

; <label>:82:                                     ; preds = %55, %165
  %83 = load i32, i32* @x.78
  %84 = load i32, i32* @y.79
  %85 = add i32 %83, 451490175
  %86 = sub i32 %85, 1
  %87 = sub i32 %86, 451490175
  %88 = sub i32 %83, 1
  %89 = mul i32 %83, %87
  %90 = urem i32 %89, 2
  %91 = icmp eq i32 %90, 0
  %92 = icmp slt i32 %84, 10
  %93 = xor i1 %91, true
  %94 = xor i1 %92, true
  %95 = xor i1 true, true
  %96 = and i1 %93, true
  %97 = and i1 %91, %95
  %98 = and i1 %94, true
  %99 = and i1 %92, %95
  %100 = or i1 %96, %97
  %101 = or i1 %98, %99
  %102 = xor i1 %100, %101
  %103 = or i1 %93, %94
  %104 = xor i1 %103, true
  %105 = or i1 true, %95
  %106 = and i1 %104, %105
  %107 = or i1 %102, %106
  %108 = or i1 %91, %92
  br i1 %107, label %109, label %165

; <label>:109:                                    ; preds = %82
  br label %110

; <label>:110:                                    ; preds = %109
  br label %111

; <label>:111:                                    ; preds = %110
  %112 = bitcast %"class.__gnu_debug::_Safe_iterator.21"* %5 to i8*
  %113 = getelementptr inbounds i8, i8* %112, i64 8
  %114 = bitcast i8* %113 to %"class.__gnu_debug::_Safe_iterator_base"*
  %115 = call dereferenceable(40) %"class.__gnu_cxx::__mutex"* @_ZN11__gnu_debug19_Safe_iterator_base12_M_get_mutexEv(%"class.__gnu_debug::_Safe_iterator_base"* %114) #3
  invoke void @_ZN9__gnu_cxx13__scoped_lockC2ERNS_7__mutexE(%"class.__gnu_cxx::__scoped_lock"* %4, %"class.__gnu_cxx::__mutex"* dereferenceable(40) %115)
          to label %116 unwind label %161

; <label>:116:                                    ; preds = %111
  %117 = load i32, i32* @x.78
  %118 = load i32, i32* @y.79
  %119 = sub i32 %117, 1983124384
  %120 = sub i32 %119, 1
  %121 = add i32 %120, 1983124384
  %122 = sub i32 %117, 1
  %123 = mul i32 %117, %121
  %124 = urem i32 %123, 2
  %125 = icmp eq i32 %124, 0
  %126 = icmp slt i32 %118, 10
  %127 = xor i1 %125, true
  %128 = xor i1 %126, true
  %129 = xor i1 false, true
  %130 = and i1 %127, false
  %131 = and i1 %125, %129
  %132 = and i1 %128, false
  %133 = and i1 %126, %129
  %134 = or i1 %130, %131
  %135 = or i1 %132, %133
  %136 = xor i1 %134, %135
  %137 = or i1 %127, %128
  %138 = xor i1 %137, true
  %139 = or i1 false, %129
  %140 = and i1 %138, %139
  %141 = or i1 %136, %140
  %142 = or i1 %125, %126
  br i1 %141, label %143, label %166

; <label>:143:                                    ; preds = %116, %166
  call void @_ZN9__gnu_cxx13__scoped_lockD2Ev(%"class.__gnu_cxx::__scoped_lock"* %4) #3
  %144 = call dereferenceable(8) %"class.__gnu_cxx::__normal_iterator.22"* @_ZN11__gnu_debug14_Safe_iteratorIN9__gnu_cxx17__normal_iteratorIPiNSt9__cxx19986vectorIiSaIiEEEEENSt7__debug6vectorIiS6_EEE4baseEv(%"class.__gnu_debug::_Safe_iterator.21"* %5) #3
  %145 = call dereferenceable(8) %"class.__gnu_cxx::__normal_iterator.22"* @_ZN9__gnu_cxx17__normal_iteratorIPiNSt9__cxx19986vectorIiSaIiEEEEppEv(%"class.__gnu_cxx::__normal_iterator.22"* %144) #3
  %146 = load i32, i32* @x.78
  %147 = load i32, i32* @y.79
  %148 = sub i32 %146, -462666829
  %149 = sub i32 %148, 1
  %150 = add i32 %149, -462666829
  %151 = sub i32 %146, 1
  %152 = mul i32 %146, %150
  %153 = urem i32 %152, 2
  %154 = icmp eq i32 %153, 0
  %155 = icmp slt i32 %147, 10
  %156 = and i1 %154, %155
  %157 = xor i1 %154, %155
  %158 = or i1 %156, %157
  %159 = or i1 %154, %155
  br i1 %158, label %160, label %166

; <label>:160:                                    ; preds = %143
  ret %"class.__gnu_debug::_Safe_iterator.21"* %5

; <label>:161:                                    ; preds = %111, %53, %50, %49, %6
  %162 = landingpad { i8*, i32 }
          catch i8* null
  %163 = extractvalue { i8*, i32 } %162, 0
  call void @__clang_call_terminate(i8* %163) #10
  unreachable

; <label>:164:                                    ; preds = %35, %9
  br label %35

; <label>:165:                                    ; preds = %82, %55
  br label %82

; <label>:166:                                    ; preds = %143, %116
  call void @_ZN9__gnu_cxx13__scoped_lockD2Ev(%"class.__gnu_cxx::__scoped_lock"* %4) #3
  %167 = call dereferenceable(8) %"class.__gnu_cxx::__normal_iterator.22"* @_ZN11__gnu_debug14_Safe_iteratorIN9__gnu_cxx17__normal_iteratorIPiNSt9__cxx19986vectorIiSaIiEEEEENSt7__debug6vectorIiS6_EEE4baseEv(%"class.__gnu_debug::_Safe_iterator.21"* %5) #3
  %168 = call dereferenceable(8) %"class.__gnu_cxx::__normal_iterator.22"* @_ZN9__gnu_cxx17__normal_iteratorIPiNSt9__cxx19986vectorIiSaIiEEEEppEv(%"class.__gnu_cxx::__normal_iterator.22"* %167) #3
  br label %143
}

; Function Attrs: noinline nounwind uwtable
define linkonce_odr void @_ZN11__gnu_debug14_Safe_iteratorIN9__gnu_cxx17__normal_iteratorIPiNSt9__cxx19986vectorIiSaIiEEEEENSt7__debug6vectorIiS6_EEED2Ev(%"class.__gnu_debug::_Safe_iterator.21"*) unnamed_addr #4 comdat align 2 {
  %2 = alloca %"class.__gnu_debug::_Safe_iterator.21"*, align 8
  store %"class.__gnu_debug::_Safe_iterator.21"* %0, %"class.__gnu_debug::_Safe_iterator.21"** %2, align 8
  %3 = load %"class.__gnu_debug::_Safe_iterator.21"*, %"class.__gnu_debug::_Safe_iterator.21"** %2, align 8
  %4 = bitcast %"class.__gnu_debug::_Safe_iterator.21"* %3 to i8*
  %5 = getelementptr inbounds i8, i8* %4, i64 8
  %6 = bitcast i8* %5 to %"class.__gnu_debug::_Safe_iterator_base"*
  call void @_ZN11__gnu_debug19_Safe_iterator_baseD2Ev(%"class.__gnu_debug::_Safe_iterator_base"* %6) #3
  ret void
}

; Function Attrs: noinline nounwind uwtable
define linkonce_odr zeroext i1 @_ZN11__gnu_debugneISt23_Rb_tree_const_iteratorIiENSt7__debug3setIiSt4lessIiESaIiEEEEEbRKNS_14_Safe_iteratorIT_T0_EESE_(%"class.__gnu_debug::_Safe_iterator.23"* dereferenceable(40), %"class.__gnu_debug::_Safe_iterator.23"* dereferenceable(40)) #4 comdat personality i8* bitcast (i32 (...)* @__gxx_personality_v0 to i8*) {
  %3 = alloca %"class.__gnu_debug::_Safe_iterator.23"*, align 8
  %4 = alloca %"class.__gnu_debug::_Safe_iterator.23"*, align 8
  %5 = alloca %"class.__gnu_debug::_Error_formatter", align 8
  %6 = alloca %"class.__gnu_debug::_Error_formatter", align 8
  store %"class.__gnu_debug::_Safe_iterator.23"* %0, %"class.__gnu_debug::_Safe_iterator.23"** %3, align 8
  store %"class.__gnu_debug::_Safe_iterator.23"* %1, %"class.__gnu_debug::_Safe_iterator.23"** %4, align 8
  br label %7

; <label>:7:                                      ; preds = %2
  %8 = load %"class.__gnu_debug::_Safe_iterator.23"*, %"class.__gnu_debug::_Safe_iterator.23"** %3, align 8
  %9 = bitcast %"class.__gnu_debug::_Safe_iterator.23"* %8 to i8*
  %10 = getelementptr inbounds i8, i8* %9, i64 8
  %11 = bitcast i8* %10 to %"class.__gnu_debug::_Safe_iterator_base"*
  %12 = call zeroext i1 @_ZNK11__gnu_debug19_Safe_iterator_base11_M_singularEv(%"class.__gnu_debug::_Safe_iterator_base"* %11) #14
  br i1 %12, label %71, label %13

; <label>:13:                                     ; preds = %7
  %14 = load i32, i32* @x.82
  %15 = load i32, i32* @y.83
  %16 = sub i32 0, 1
  %17 = add i32 %14, %16
  %18 = sub i32 %14, 1
  %19 = mul i32 %14, %17
  %20 = urem i32 %19, 2
  %21 = icmp eq i32 %20, 0
  %22 = icmp slt i32 %15, 10
  %23 = xor i1 %21, true
  %24 = xor i1 %22, true
  %25 = xor i1 false, true
  %26 = and i1 %23, false
  %27 = and i1 %21, %25
  %28 = and i1 %24, false
  %29 = and i1 %22, %25
  %30 = or i1 %26, %27
  %31 = or i1 %28, %29
  %32 = xor i1 %30, %31
  %33 = or i1 %23, %24
  %34 = xor i1 %33, true
  %35 = or i1 false, %25
  %36 = and i1 %34, %35
  %37 = or i1 %32, %36
  %38 = or i1 %21, %22
  br i1 %37, label %39, label %485

; <label>:39:                                     ; preds = %13, %485
  %40 = load %"class.__gnu_debug::_Safe_iterator.23"*, %"class.__gnu_debug::_Safe_iterator.23"** %4, align 8
  %41 = bitcast %"class.__gnu_debug::_Safe_iterator.23"* %40 to i8*
  %42 = getelementptr inbounds i8, i8* %41, i64 8
  %43 = bitcast i8* %42 to %"class.__gnu_debug::_Safe_iterator_base"*
  %44 = call zeroext i1 @_ZNK11__gnu_debug19_Safe_iterator_base11_M_singularEv(%"class.__gnu_debug::_Safe_iterator_base"* %43) #14
  %45 = load i32, i32* @x.82
  %46 = load i32, i32* @y.83
  %47 = sub i32 0, 1
  %48 = add i32 %45, %47
  %49 = sub i32 %45, 1
  %50 = mul i32 %45, %48
  %51 = urem i32 %50, 2
  %52 = icmp eq i32 %51, 0
  %53 = icmp slt i32 %46, 10
  %54 = xor i1 %52, true
  %55 = xor i1 %53, true
  %56 = xor i1 false, true
  %57 = and i1 %54, false
  %58 = and i1 %52, %56
  %59 = and i1 %55, false
  %60 = and i1 %53, %56
  %61 = or i1 %57, %58
  %62 = or i1 %59, %60
  %63 = xor i1 %61, %62
  %64 = or i1 %54, %55
  %65 = xor i1 %64, true
  %66 = or i1 false, %56
  %67 = and i1 %65, %66
  %68 = or i1 %63, %67
  %69 = or i1 %52, %53
  br i1 %68, label %70, label %485

; <label>:70:                                     ; preds = %39
  br i1 %44, label %71, label %150

; <label>:71:                                     ; preds = %70, %7
  invoke void @_ZN11__gnu_debug16_Error_formatter5_M_atEPKcm(%"class.__gnu_debug::_Error_formatter"* sret %5, i8* getelementptr inbounds ([88 x i8], [88 x i8]* @.str.14, i32 0, i32 0), i64 584)
          to label %72 unwind label %482

; <label>:72:                                     ; preds = %71
  %73 = call dereferenceable(560) %"class.__gnu_debug::_Error_formatter"* @_ZNK11__gnu_debug16_Error_formatter10_M_messageENS_13_Debug_msg_idE(%"class.__gnu_debug::_Error_formatter"* %5, i32 31) #3
  %74 = load %"class.__gnu_debug::_Safe_iterator.23"*, %"class.__gnu_debug::_Safe_iterator.23"** %3, align 8
  %75 = invoke dereferenceable(560) %"class.__gnu_debug::_Error_formatter"* @_ZNK11__gnu_debug16_Error_formatter11_M_iteratorINS_14_Safe_iteratorISt23_Rb_tree_const_iteratorIiENSt7__debug3setIiSt4lessIiESaIiEEEEEEERKS0_RKT_PKc(%"class.__gnu_debug::_Error_formatter"* %73, %"class.__gnu_debug::_Safe_iterator.23"* dereferenceable(40) %74, i8* getelementptr inbounds ([4 x i8], [4 x i8]* @.str.15, i32 0, i32 0))
          to label %76 unwind label %482

; <label>:76:                                     ; preds = %72
  %77 = load i32, i32* @x.82
  %78 = load i32, i32* @y.83
  %79 = sub i32 0, 1
  %80 = add i32 %77, %79
  %81 = sub i32 %77, 1
  %82 = mul i32 %77, %80
  %83 = urem i32 %82, 2
  %84 = icmp eq i32 %83, 0
  %85 = icmp slt i32 %78, 10
  %86 = and i1 %84, %85
  %87 = xor i1 %84, %85
  %88 = or i1 %86, %87
  %89 = or i1 %84, %85
  br i1 %88, label %90, label %491

; <label>:90:                                     ; preds = %76, %491
  %91 = load %"class.__gnu_debug::_Safe_iterator.23"*, %"class.__gnu_debug::_Safe_iterator.23"** %4, align 8
  %92 = load i32, i32* @x.82
  %93 = load i32, i32* @y.83
  %94 = add i32 %92, -13175940
  %95 = sub i32 %94, 1
  %96 = sub i32 %95, -13175940
  %97 = sub i32 %92, 1
  %98 = mul i32 %92, %96
  %99 = urem i32 %98, 2
  %100 = icmp eq i32 %99, 0
  %101 = icmp slt i32 %93, 10
  %102 = and i1 %100, %101
  %103 = xor i1 %100, %101
  %104 = or i1 %102, %103
  %105 = or i1 %100, %101
  br i1 %104, label %106, label %491

; <label>:106:                                    ; preds = %90
  %107 = invoke dereferenceable(560) %"class.__gnu_debug::_Error_formatter"* @_ZNK11__gnu_debug16_Error_formatter11_M_iteratorINS_14_Safe_iteratorISt23_Rb_tree_const_iteratorIiENSt7__debug3setIiSt4lessIiESaIiEEEEEEERKS0_RKT_PKc(%"class.__gnu_debug::_Error_formatter"* %75, %"class.__gnu_debug::_Safe_iterator.23"* dereferenceable(40) %91, i8* getelementptr inbounds ([4 x i8], [4 x i8]* @.str.16, i32 0, i32 0))
          to label %108 unwind label %482

; <label>:108:                                    ; preds = %106
  %109 = load i32, i32* @x.82
  %110 = load i32, i32* @y.83
  %111 = sub i32 0, 1
  %112 = add i32 %109, %111
  %113 = sub i32 %109, 1
  %114 = mul i32 %109, %112
  %115 = urem i32 %114, 2
  %116 = icmp eq i32 %115, 0
  %117 = icmp slt i32 %110, 10
  %118 = and i1 %116, %117
  %119 = xor i1 %116, %117
  %120 = or i1 %118, %119
  %121 = or i1 %116, %117
  br i1 %120, label %122, label %493

; <label>:122:                                    ; preds = %108, %493
  %123 = load i32, i32* @x.82
  %124 = load i32, i32* @y.83
  %125 = sub i32 0, 1
  %126 = add i32 %123, %125
  %127 = sub i32 %123, 1
  %128 = mul i32 %123, %126
  %129 = urem i32 %128, 2
  %130 = icmp eq i32 %129, 0
  %131 = icmp slt i32 %124, 10
  %132 = xor i1 %130, true
  %133 = xor i1 %131, true
  %134 = xor i1 false, true
  %135 = and i1 %132, false
  %136 = and i1 %130, %134
  %137 = and i1 %133, false
  %138 = and i1 %131, %134
  %139 = or i1 %135, %136
  %140 = or i1 %137, %138
  %141 = xor i1 %139, %140
  %142 = or i1 %132, %133
  %143 = xor i1 %142, true
  %144 = or i1 false, %134
  %145 = and i1 %143, %144
  %146 = or i1 %141, %145
  %147 = or i1 %130, %131
  br i1 %146, label %148, label %493

; <label>:148:                                    ; preds = %122
  invoke void @_ZNK11__gnu_debug16_Error_formatter8_M_errorEv(%"class.__gnu_debug::_Error_formatter"* %107) #13
          to label %149 unwind label %482

; <label>:149:                                    ; preds = %148
  unreachable

; <label>:150:                                    ; preds = %70
  %151 = load i32, i32* @x.82
  %152 = load i32, i32* @y.83
  %153 = add i32 %151, -106987780
  %154 = sub i32 %153, 1
  %155 = sub i32 %154, -106987780
  %156 = sub i32 %151, 1
  %157 = mul i32 %151, %155
  %158 = urem i32 %157, 2
  %159 = icmp eq i32 %158, 0
  %160 = icmp slt i32 %152, 10
  %161 = and i1 %159, %160
  %162 = xor i1 %159, %160
  %163 = or i1 %161, %162
  %164 = or i1 %159, %160
  br i1 %163, label %165, label %494

; <label>:165:                                    ; preds = %150, %494
  %166 = load i32, i32* @x.82
  %167 = load i32, i32* @y.83
  %168 = sub i32 0, 1
  %169 = add i32 %166, %168
  %170 = sub i32 %166, 1
  %171 = mul i32 %166, %169
  %172 = urem i32 %171, 2
  %173 = icmp eq i32 %172, 0
  %174 = icmp slt i32 %167, 10
  %175 = xor i1 %173, true
  %176 = xor i1 %174, true
  %177 = xor i1 false, true
  %178 = and i1 %175, false
  %179 = and i1 %173, %177
  %180 = and i1 %176, false
  %181 = and i1 %174, %177
  %182 = or i1 %178, %179
  %183 = or i1 %180, %181
  %184 = xor i1 %182, %183
  %185 = or i1 %175, %176
  %186 = xor i1 %185, true
  %187 = or i1 false, %177
  %188 = and i1 %186, %187
  %189 = or i1 %184, %188
  %190 = or i1 %173, %174
  br i1 %189, label %191, label %494

; <label>:191:                                    ; preds = %165
  br label %192

; <label>:192:                                    ; preds = %191
  %193 = load i32, i32* @x.82
  %194 = load i32, i32* @y.83
  %195 = sub i32 0, 1
  %196 = add i32 %193, %195
  %197 = sub i32 %193, 1
  %198 = mul i32 %193, %196
  %199 = urem i32 %198, 2
  %200 = icmp eq i32 %199, 0
  %201 = icmp slt i32 %194, 10
  %202 = xor i1 %200, true
  %203 = xor i1 %201, true
  %204 = xor i1 true, true
  %205 = and i1 %202, true
  %206 = and i1 %200, %204
  %207 = and i1 %203, true
  %208 = and i1 %201, %204
  %209 = or i1 %205, %206
  %210 = or i1 %207, %208
  %211 = xor i1 %209, %210
  %212 = or i1 %202, %203
  %213 = xor i1 %212, true
  %214 = or i1 true, %204
  %215 = and i1 %213, %214
  %216 = or i1 %211, %215
  %217 = or i1 %200, %201
  br i1 %216, label %218, label %495

; <label>:218:                                    ; preds = %192, %495
  %219 = load i32, i32* @x.82
  %220 = load i32, i32* @y.83
  %221 = add i32 %219, 1720596496
  %222 = sub i32 %221, 1
  %223 = sub i32 %222, 1720596496
  %224 = sub i32 %219, 1
  %225 = mul i32 %219, %223
  %226 = urem i32 %225, 2
  %227 = icmp eq i32 %226, 0
  %228 = icmp slt i32 %220, 10
  %229 = xor i1 %227, true
  %230 = xor i1 %228, true
  %231 = xor i1 false, true
  %232 = and i1 %229, false
  %233 = and i1 %227, %231
  %234 = and i1 %230, false
  %235 = and i1 %228, %231
  %236 = or i1 %232, %233
  %237 = or i1 %234, %235
  %238 = xor i1 %236, %237
  %239 = or i1 %229, %230
  %240 = xor i1 %239, true
  %241 = or i1 false, %231
  %242 = and i1 %240, %241
  %243 = or i1 %238, %242
  %244 = or i1 %227, %228
  br i1 %243, label %245, label %495

; <label>:245:                                    ; preds = %218
  br label %246

; <label>:246:                                    ; preds = %245
  %247 = load i32, i32* @x.82
  %248 = load i32, i32* @y.83
  %249 = sub i32 0, 1
  %250 = add i32 %247, %249
  %251 = sub i32 %247, 1
  %252 = mul i32 %247, %250
  %253 = urem i32 %252, 2
  %254 = icmp eq i32 %253, 0
  %255 = icmp slt i32 %248, 10
  %256 = xor i1 %254, true
  %257 = xor i1 %255, true
  %258 = xor i1 true, true
  %259 = and i1 %256, true
  %260 = and i1 %254, %258
  %261 = and i1 %257, true
  %262 = and i1 %255, %258
  %263 = or i1 %259, %260
  %264 = or i1 %261, %262
  %265 = xor i1 %263, %264
  %266 = or i1 %256, %257
  %267 = xor i1 %266, true
  %268 = or i1 true, %258
  %269 = and i1 %267, %268
  %270 = or i1 %265, %269
  %271 = or i1 %254, %255
  br i1 %270, label %272, label %496

; <label>:272:                                    ; preds = %246, %496
  %273 = load i32, i32* @x.82
  %274 = load i32, i32* @y.83
  %275 = sub i32 %273, 650690919
  %276 = sub i32 %275, 1
  %277 = add i32 %276, 650690919
  %278 = sub i32 %273, 1
  %279 = mul i32 %273, %277
  %280 = urem i32 %279, 2
  %281 = icmp eq i32 %280, 0
  %282 = icmp slt i32 %274, 10
  %283 = and i1 %281, %282
  %284 = xor i1 %281, %282
  %285 = or i1 %283, %284
  %286 = or i1 %281, %282
  br i1 %285, label %287, label %496

; <label>:287:                                    ; preds = %272
  br label %288

; <label>:288:                                    ; preds = %287
  %289 = load %"class.__gnu_debug::_Safe_iterator.23"*, %"class.__gnu_debug::_Safe_iterator.23"** %3, align 8
  %290 = bitcast %"class.__gnu_debug::_Safe_iterator.23"* %289 to i8*
  %291 = getelementptr inbounds i8, i8* %290, i64 8
  %292 = bitcast i8* %291 to %"class.__gnu_debug::_Safe_iterator_base"*
  %293 = load %"class.__gnu_debug::_Safe_iterator.23"*, %"class.__gnu_debug::_Safe_iterator.23"** %4, align 8
  %294 = bitcast %"class.__gnu_debug::_Safe_iterator.23"* %293 to i8*
  %295 = getelementptr inbounds i8, i8* %294, i64 8
  %296 = bitcast i8* %295 to %"class.__gnu_debug::_Safe_iterator_base"*
  %297 = call zeroext i1 @_ZNK11__gnu_debug19_Safe_iterator_base14_M_can_compareERKS0_(%"class.__gnu_debug::_Safe_iterator_base"* %292, %"class.__gnu_debug::_Safe_iterator_base"* dereferenceable(32) %296) #14
  br i1 %297, label %432, label %298

; <label>:298:                                    ; preds = %288
  invoke void @_ZN11__gnu_debug16_Error_formatter5_M_atEPKcm(%"class.__gnu_debug::_Error_formatter"* sret %6, i8* getelementptr inbounds ([88 x i8], [88 x i8]* @.str.14, i32 0, i32 0), i64 588)
          to label %299 unwind label %482

; <label>:299:                                    ; preds = %298
  %300 = load i32, i32* @x.82
  %301 = load i32, i32* @y.83
  %302 = sub i32 %300, -1808181656
  %303 = sub i32 %302, 1
  %304 = add i32 %303, -1808181656
  %305 = sub i32 %300, 1
  %306 = mul i32 %300, %304
  %307 = urem i32 %306, 2
  %308 = icmp eq i32 %307, 0
  %309 = icmp slt i32 %301, 10
  %310 = and i1 %308, %309
  %311 = xor i1 %308, %309
  %312 = or i1 %310, %311
  %313 = or i1 %308, %309
  br i1 %312, label %314, label %497

; <label>:314:                                    ; preds = %299, %497
  %315 = call dereferenceable(560) %"class.__gnu_debug::_Error_formatter"* @_ZNK11__gnu_debug16_Error_formatter10_M_messageENS_13_Debug_msg_idE(%"class.__gnu_debug::_Error_formatter"* %6, i32 32) #3
  %316 = load %"class.__gnu_debug::_Safe_iterator.23"*, %"class.__gnu_debug::_Safe_iterator.23"** %3, align 8
  %317 = load i32, i32* @x.82
  %318 = load i32, i32* @y.83
  %319 = sub i32 %317, 1281129611
  %320 = sub i32 %319, 1
  %321 = add i32 %320, 1281129611
  %322 = sub i32 %317, 1
  %323 = mul i32 %317, %321
  %324 = urem i32 %323, 2
  %325 = icmp eq i32 %324, 0
  %326 = icmp slt i32 %318, 10
  %327 = xor i1 %325, true
  %328 = xor i1 %326, true
  %329 = xor i1 false, true
  %330 = and i1 %327, false
  %331 = and i1 %325, %329
  %332 = and i1 %328, false
  %333 = and i1 %326, %329
  %334 = or i1 %330, %331
  %335 = or i1 %332, %333
  %336 = xor i1 %334, %335
  %337 = or i1 %327, %328
  %338 = xor i1 %337, true
  %339 = or i1 false, %329
  %340 = and i1 %338, %339
  %341 = or i1 %336, %340
  %342 = or i1 %325, %326
  br i1 %341, label %343, label %497

; <label>:343:                                    ; preds = %314
  %344 = invoke dereferenceable(560) %"class.__gnu_debug::_Error_formatter"* @_ZNK11__gnu_debug16_Error_formatter11_M_iteratorINS_14_Safe_iteratorISt23_Rb_tree_const_iteratorIiENSt7__debug3setIiSt4lessIiESaIiEEEEEEERKS0_RKT_PKc(%"class.__gnu_debug::_Error_formatter"* %315, %"class.__gnu_debug::_Safe_iterator.23"* dereferenceable(40) %316, i8* getelementptr inbounds ([4 x i8], [4 x i8]* @.str.15, i32 0, i32 0))
          to label %345 unwind label %482

; <label>:345:                                    ; preds = %343
  %346 = load %"class.__gnu_debug::_Safe_iterator.23"*, %"class.__gnu_debug::_Safe_iterator.23"** %4, align 8
  %347 = invoke dereferenceable(560) %"class.__gnu_debug::_Error_formatter"* @_ZNK11__gnu_debug16_Error_formatter11_M_iteratorINS_14_Safe_iteratorISt23_Rb_tree_const_iteratorIiENSt7__debug3setIiSt4lessIiESaIiEEEEEEERKS0_RKT_PKc(%"class.__gnu_debug::_Error_formatter"* %344, %"class.__gnu_debug::_Safe_iterator.23"* dereferenceable(40) %346, i8* getelementptr inbounds ([4 x i8], [4 x i8]* @.str.16, i32 0, i32 0))
          to label %348 unwind label %482

; <label>:348:                                    ; preds = %345
  %349 = load i32, i32* @x.82
  %350 = load i32, i32* @y.83
  %351 = sub i32 0, 1
  %352 = add i32 %349, %351
  %353 = sub i32 %349, 1
  %354 = mul i32 %349, %352
  %355 = urem i32 %354, 2
  %356 = icmp eq i32 %355, 0
  %357 = icmp slt i32 %350, 10
  %358 = and i1 %356, %357
  %359 = xor i1 %356, %357
  %360 = or i1 %358, %359
  %361 = or i1 %356, %357
  br i1 %360, label %362, label %500

; <label>:362:                                    ; preds = %348, %500
  %363 = load i32, i32* @x.82
  %364 = load i32, i32* @y.83
  %365 = sub i32 0, 1
  %366 = add i32 %363, %365
  %367 = sub i32 %363, 1
  %368 = mul i32 %363, %366
  %369 = urem i32 %368, 2
  %370 = icmp eq i32 %369, 0
  %371 = icmp slt i32 %364, 10
  %372 = xor i1 %370, true
  %373 = xor i1 %371, true
  %374 = xor i1 true, true
  %375 = and i1 %372, true
  %376 = and i1 %370, %374
  %377 = and i1 %373, true
  %378 = and i1 %371, %374
  %379 = or i1 %375, %376
  %380 = or i1 %377, %378
  %381 = xor i1 %379, %380
  %382 = or i1 %372, %373
  %383 = xor i1 %382, true
  %384 = or i1 true, %374
  %385 = and i1 %383, %384
  %386 = or i1 %381, %385
  %387 = or i1 %370, %371
  br i1 %386, label %388, label %500

; <label>:388:                                    ; preds = %362
  invoke void @_ZNK11__gnu_debug16_Error_formatter8_M_errorEv(%"class.__gnu_debug::_Error_formatter"* %347) #13
          to label %389 unwind label %482

; <label>:389:                                    ; preds = %388
  %390 = load i32, i32* @x.82
  %391 = load i32, i32* @y.83
  %392 = sub i32 %390, 1829436975
  %393 = sub i32 %392, 1
  %394 = add i32 %393, 1829436975
  %395 = sub i32 %390, 1
  %396 = mul i32 %390, %394
  %397 = urem i32 %396, 2
  %398 = icmp eq i32 %397, 0
  %399 = icmp slt i32 %391, 10
  %400 = xor i1 %398, true
  %401 = xor i1 %399, true
  %402 = xor i1 false, true
  %403 = and i1 %400, false
  %404 = and i1 %398, %402
  %405 = and i1 %401, false
  %406 = and i1 %399, %402
  %407 = or i1 %403, %404
  %408 = or i1 %405, %406
  %409 = xor i1 %407, %408
  %410 = or i1 %400, %401
  %411 = xor i1 %410, true
  %412 = or i1 false, %402
  %413 = and i1 %411, %412
  %414 = or i1 %409, %413
  %415 = or i1 %398, %399
  br i1 %414, label %416, label %501

; <label>:416:                                    ; preds = %389, %501
  %417 = load i32, i32* @x.82
  %418 = load i32, i32* @y.83
  %419 = sub i32 %417, 1858098507
  %420 = sub i32 %419, 1
  %421 = add i32 %420, 1858098507
  %422 = sub i32 %417, 1
  %423 = mul i32 %417, %421
  %424 = urem i32 %423, 2
  %425 = icmp eq i32 %424, 0
  %426 = icmp slt i32 %418, 10
  %427 = and i1 %425, %426
  %428 = xor i1 %425, %426
  %429 = or i1 %427, %428
  %430 = or i1 %425, %426
  br i1 %429, label %431, label %501

; <label>:431:                                    ; preds = %416
  unreachable

; <label>:432:                                    ; preds = %288
  %433 = load i32, i32* @x.82
  %434 = load i32, i32* @y.83
  %435 = sub i32 %433, -632190000
  %436 = sub i32 %435, 1
  %437 = add i32 %436, -632190000
  %438 = sub i32 %433, 1
  %439 = mul i32 %433, %437
  %440 = urem i32 %439, 2
  %441 = icmp eq i32 %440, 0
  %442 = icmp slt i32 %434, 10
  %443 = and i1 %441, %442
  %444 = xor i1 %441, %442
  %445 = or i1 %443, %444
  %446 = or i1 %441, %442
  br i1 %445, label %447, label %502

; <label>:447:                                    ; preds = %432, %502
  %448 = load i32, i32* @x.82
  %449 = load i32, i32* @y.83
  %450 = add i32 %448, 2083597268
  %451 = sub i32 %450, 1
  %452 = sub i32 %451, 2083597268
  %453 = sub i32 %448, 1
  %454 = mul i32 %448, %452
  %455 = urem i32 %454, 2
  %456 = icmp eq i32 %455, 0
  %457 = icmp slt i32 %449, 10
  %458 = xor i1 %456, true
  %459 = xor i1 %457, true
  %460 = xor i1 false, true
  %461 = and i1 %458, false
  %462 = and i1 %456, %460
  %463 = and i1 %459, false
  %464 = and i1 %457, %460
  %465 = or i1 %461, %462
  %466 = or i1 %463, %464
  %467 = xor i1 %465, %466
  %468 = or i1 %458, %459
  %469 = xor i1 %468, true
  %470 = or i1 false, %460
  %471 = and i1 %469, %470
  %472 = or i1 %467, %471
  %473 = or i1 %456, %457
  br i1 %472, label %474, label %502

; <label>:474:                                    ; preds = %447
  br label %475

; <label>:475:                                    ; preds = %474
  br label %476

; <label>:476:                                    ; preds = %475
  %477 = load %"class.__gnu_debug::_Safe_iterator.23"*, %"class.__gnu_debug::_Safe_iterator.23"** %3, align 8
  %478 = call dereferenceable(8) %"struct.std::_Rb_tree_const_iterator"* @_ZNK11__gnu_debug14_Safe_iteratorISt23_Rb_tree_const_iteratorIiENSt7__debug3setIiSt4lessIiESaIiEEEE4baseEv(%"class.__gnu_debug::_Safe_iterator.23"* %477) #3
  %479 = load %"class.__gnu_debug::_Safe_iterator.23"*, %"class.__gnu_debug::_Safe_iterator.23"** %4, align 8
  %480 = call dereferenceable(8) %"struct.std::_Rb_tree_const_iterator"* @_ZNK11__gnu_debug14_Safe_iteratorISt23_Rb_tree_const_iteratorIiENSt7__debug3setIiSt4lessIiESaIiEEEE4baseEv(%"class.__gnu_debug::_Safe_iterator.23"* %479) #3
  %481 = call zeroext i1 @_ZNKSt23_Rb_tree_const_iteratorIiEneERKS0_(%"struct.std::_Rb_tree_const_iterator"* %478, %"struct.std::_Rb_tree_const_iterator"* dereferenceable(8) %480) #3
  ret i1 %481

; <label>:482:                                    ; preds = %388, %345, %343, %298, %148, %106, %72, %71
  %483 = landingpad { i8*, i32 }
          catch i8* null
  %484 = extractvalue { i8*, i32 } %483, 0
  call void @__clang_call_terminate(i8* %484) #10
  unreachable

; <label>:485:                                    ; preds = %39, %13
  %486 = load %"class.__gnu_debug::_Safe_iterator.23"*, %"class.__gnu_debug::_Safe_iterator.23"** %4, align 8
  %487 = bitcast %"class.__gnu_debug::_Safe_iterator.23"* %486 to i8*
  %488 = getelementptr inbounds i8, i8* %487, i64 8
  %489 = bitcast i8* %488 to %"class.__gnu_debug::_Safe_iterator_base"*
  %490 = call zeroext i1 @_ZNK11__gnu_debug19_Safe_iterator_base11_M_singularEv(%"class.__gnu_debug::_Safe_iterator_base"* %489) #14
  br label %39

; <label>:491:                                    ; preds = %90, %76
  %492 = load %"class.__gnu_debug::_Safe_iterator.23"*, %"class.__gnu_debug::_Safe_iterator.23"** %4, align 8
  br label %90

; <label>:493:                                    ; preds = %122, %108
  br label %122

; <label>:494:                                    ; preds = %165, %150
  br label %165

; <label>:495:                                    ; preds = %218, %192
  br label %218

; <label>:496:                                    ; preds = %272, %246
  br label %272

; <label>:497:                                    ; preds = %314, %299
  %498 = call dereferenceable(560) %"class.__gnu_debug::_Error_formatter"* @_ZNK11__gnu_debug16_Error_formatter10_M_messageENS_13_Debug_msg_idE(%"class.__gnu_debug::_Error_formatter"* %6, i32 32) #3
  %499 = load %"class.__gnu_debug::_Safe_iterator.23"*, %"class.__gnu_debug::_Safe_iterator.23"** %3, align 8
  br label %314

; <label>:500:                                    ; preds = %362, %348
  br label %362

; <label>:501:                                    ; preds = %416, %389
  br label %416

; <label>:502:                                    ; preds = %447, %432
  br label %447
}

; Function Attrs: noinline uwtable
define linkonce_odr void @_ZNSt7__debug3setIiSt4lessIiESaIiEE4findERKi(%"class.__gnu_debug::_Safe_iterator.23"* noalias sret, %"class.std::__debug::set"*, i32* dereferenceable(4)) #0 comdat align 2 {
  %4 = alloca %"class.std::__debug::set"*, align 8
  %5 = alloca i32*, align 8
  %6 = alloca %"struct.std::_Rb_tree_const_iterator", align 8
  store %"class.std::__debug::set"* %1, %"class.std::__debug::set"** %4, align 8
  store i32* %2, i32** %5, align 8
  %7 = load %"class.std::__debug::set"*, %"class.std::__debug::set"** %4, align 8
  %8 = bitcast %"class.std::__debug::set"* %7 to i8*
  %9 = getelementptr inbounds i8, i8* %8, i64 24
  %10 = bitcast i8* %9 to %"class.std::__cxx1998::set"*
  %11 = load i32*, i32** %5, align 8
  %12 = call %"struct.std::_Rb_tree_node_base"* @_ZNSt9__cxx19983setIiSt4lessIiESaIiEE4findERKi(%"class.std::__cxx1998::set"* %10, i32* dereferenceable(4) %11)
  %13 = getelementptr inbounds %"struct.std::_Rb_tree_const_iterator", %"struct.std::_Rb_tree_const_iterator"* %6, i32 0, i32 0
  store %"struct.std::_Rb_tree_node_base"* %12, %"struct.std::_Rb_tree_node_base"** %13, align 8
  %14 = bitcast %"class.std::__debug::set"* %7 to %"class.__gnu_debug::_Safe_sequence_base"*
  call void @_ZN11__gnu_debug14_Safe_iteratorISt23_Rb_tree_const_iteratorIiENSt7__debug3setIiSt4lessIiESaIiEEEEC2ERKS2_PKNS_19_Safe_sequence_baseE(%"class.__gnu_debug::_Safe_iterator.23"* %0, %"struct.std::_Rb_tree_const_iterator"* dereferenceable(8) %6, %"class.__gnu_debug::_Safe_sequence_base"* %14) #3
  ret void
}

; Function Attrs: noinline nounwind uwtable
define linkonce_odr void @_ZNSt7__debug3setIiSt4lessIiESaIiEE3endEv(%"class.__gnu_debug::_Safe_iterator.23"* noalias sret, %"class.std::__debug::set"*) #4 comdat align 2 {
  %3 = alloca %"class.std::__debug::set"*, align 8
  %4 = alloca %"struct.std::_Rb_tree_const_iterator", align 8
  store %"class.std::__debug::set"* %1, %"class.std::__debug::set"** %3, align 8
  %5 = load %"class.std::__debug::set"*, %"class.std::__debug::set"** %3, align 8
  %6 = bitcast %"class.std::__debug::set"* %5 to i8*
  %7 = getelementptr inbounds i8, i8* %6, i64 24
  %8 = bitcast i8* %7 to %"class.std::__cxx1998::set"*
  %9 = call %"struct.std::_Rb_tree_node_base"* @_ZNKSt9__cxx19983setIiSt4lessIiESaIiEE3endEv(%"class.std::__cxx1998::set"* %8) #3
  %10 = getelementptr inbounds %"struct.std::_Rb_tree_const_iterator", %"struct.std::_Rb_tree_const_iterator"* %4, i32 0, i32 0
  store %"struct.std::_Rb_tree_node_base"* %9, %"struct.std::_Rb_tree_node_base"** %10, align 8
  %11 = bitcast %"class.std::__debug::set"* %5 to %"class.__gnu_debug::_Safe_sequence_base"*
  call void @_ZN11__gnu_debug14_Safe_iteratorISt23_Rb_tree_const_iteratorIiENSt7__debug3setIiSt4lessIiESaIiEEEEC2ERKS2_PKNS_19_Safe_sequence_baseE(%"class.__gnu_debug::_Safe_iterator.23"* %0, %"struct.std::_Rb_tree_const_iterator"* dereferenceable(8) %4, %"class.__gnu_debug::_Safe_sequence_base"* %11) #3
  ret void
}

; Function Attrs: noinline nounwind uwtable
define linkonce_odr void @_ZN11__gnu_debug14_Safe_iteratorISt23_Rb_tree_const_iteratorIiENSt7__debug3setIiSt4lessIiESaIiEEEED2Ev(%"class.__gnu_debug::_Safe_iterator.23"*) unnamed_addr #4 comdat align 2 {
  %2 = alloca %"class.__gnu_debug::_Safe_iterator.23"*, align 8
  store %"class.__gnu_debug::_Safe_iterator.23"* %0, %"class.__gnu_debug::_Safe_iterator.23"** %2, align 8
  %3 = load %"class.__gnu_debug::_Safe_iterator.23"*, %"class.__gnu_debug::_Safe_iterator.23"** %2, align 8
  %4 = bitcast %"class.__gnu_debug::_Safe_iterator.23"* %3 to i8*
  %5 = getelementptr inbounds i8, i8* %4, i64 8
  %6 = bitcast i8* %5 to %"class.__gnu_debug::_Safe_iterator_base"*
  call void @_ZN11__gnu_debug19_Safe_iterator_baseD2Ev(%"class.__gnu_debug::_Safe_iterator_base"* %6) #3
  ret void
}

; Function Attrs: noinline nounwind uwtable
define linkonce_odr void @_ZNSt7__debug3setIiSt4lessIiESaIiEED2Ev(%"class.std::__debug::set"*) unnamed_addr #4 comdat align 2 {
  %2 = alloca %"class.std::__debug::set"*, align 8
  store %"class.std::__debug::set"* %0, %"class.std::__debug::set"** %2, align 8
  %3 = load %"class.std::__debug::set"*, %"class.std::__debug::set"** %2, align 8
  %4 = bitcast %"class.std::__debug::set"* %3 to i8*
  %5 = getelementptr inbounds i8, i8* %4, i64 24
  %6 = bitcast i8* %5 to %"class.std::__cxx1998::set"*
  call void @_ZNSt9__cxx19983setIiSt4lessIiESaIiEED2Ev(%"class.std::__cxx1998::set"* %6) #3
  %7 = bitcast %"class.std::__debug::set"* %3 to %"class.__gnu_debug::_Safe_container.14"*
  call void @_ZN11__gnu_debug15_Safe_containerINSt7__debug3setIiSt4lessIiESaIiEEES5_NS_19_Safe_node_sequenceELb1EED2Ev(%"class.__gnu_debug::_Safe_container.14"* %7) #3
  ret void
}

; Function Attrs: noinline nounwind uwtable
define linkonce_odr void @_ZNSt7__debug6vectorIiSaIiEED2Ev(%"class.std::__debug::vector"*) unnamed_addr #4 comdat align 2 {
  %2 = alloca %"class.std::__debug::vector"*, align 8
  store %"class.std::__debug::vector"* %0, %"class.std::__debug::vector"** %2, align 8
  %3 = load %"class.std::__debug::vector"*, %"class.std::__debug::vector"** %2, align 8
  %4 = bitcast %"class.std::__debug::vector"* %3 to i8*
  %5 = getelementptr inbounds i8, i8* %4, i64 24
  %6 = bitcast i8* %5 to %"class.std::__cxx1998::vector"*
  call void @_ZNSt9__cxx19986vectorIiSaIiEED2Ev(%"class.std::__cxx1998::vector"* %6) #3
  %7 = bitcast %"class.std::__debug::vector"* %3 to %"class.__gnu_debug::_Safe_container"*
  call void @_ZN11__gnu_debug15_Safe_containerINSt7__debug6vectorIiSaIiEEES3_NS_14_Safe_sequenceELb1EED2Ev(%"class.__gnu_debug::_Safe_container"* %7) #3
  ret void
}

; Function Attrs: noinline nounwind uwtable
define linkonce_odr dereferenceable(40) %"class.__gnu_debug::_Safe_iterator"* @_ZN11__gnu_debug14_Safe_iteratorIN9__gnu_cxx17__normal_iteratorIPNSt7__debug6vectorIiSaIiEEENSt9__cxx19986vectorIS6_SaIS6_EEEEENS4_IS6_SA_EEEppEv(%"class.__gnu_debug::_Safe_iterator"*) #4 comdat align 2 personality i8* bitcast (i32 (...)* @__gxx_personality_v0 to i8*) {
  %2 = alloca %"class.__gnu_debug::_Safe_iterator"*, align 8
  %3 = alloca %"class.__gnu_debug::_Error_formatter", align 8
  %4 = alloca %"class.__gnu_cxx::__scoped_lock", align 8
  store %"class.__gnu_debug::_Safe_iterator"* %0, %"class.__gnu_debug::_Safe_iterator"** %2, align 8
  %5 = load %"class.__gnu_debug::_Safe_iterator"*, %"class.__gnu_debug::_Safe_iterator"** %2, align 8
  br label %6

; <label>:6:                                      ; preds = %1
  %7 = load i32, i32* @x.94
  %8 = load i32, i32* @y.95
  %9 = sub i32 %7, 550568451
  %10 = sub i32 %9, 1
  %11 = add i32 %10, 550568451
  %12 = sub i32 %7, 1
  %13 = mul i32 %7, %11
  %14 = urem i32 %13, 2
  %15 = icmp eq i32 %14, 0
  %16 = icmp slt i32 %8, 10
  %17 = and i1 %15, %16
  %18 = xor i1 %15, %16
  %19 = or i1 %17, %18
  %20 = or i1 %15, %16
  br i1 %19, label %21, label %226

; <label>:21:                                     ; preds = %6, %226
  %22 = load i32, i32* @x.94
  %23 = load i32, i32* @y.95
  %24 = add i32 %22, 1701700222
  %25 = sub i32 %24, 1
  %26 = sub i32 %25, 1701700222
  %27 = sub i32 %22, 1
  %28 = mul i32 %22, %26
  %29 = urem i32 %28, 2
  %30 = icmp eq i32 %29, 0
  %31 = icmp slt i32 %23, 10
  %32 = and i1 %30, %31
  %33 = xor i1 %30, %31
  %34 = or i1 %32, %33
  %35 = or i1 %30, %31
  br i1 %34, label %36, label %226

; <label>:36:                                     ; preds = %21
  %37 = invoke zeroext i1 @_ZNK11__gnu_debug14_Safe_iteratorIN9__gnu_cxx17__normal_iteratorIPNSt7__debug6vectorIiSaIiEEENSt9__cxx19986vectorIS6_SaIS6_EEEEENS4_IS6_SA_EEE16_M_incrementableEv(%"class.__gnu_debug::_Safe_iterator"* %5)
          to label %38 unwind label %193

; <label>:38:                                     ; preds = %36
  br i1 %37, label %129, label %39

; <label>:39:                                     ; preds = %38
  %40 = load i32, i32* @x.94
  %41 = load i32, i32* @y.95
  %42 = add i32 %40, -221332962
  %43 = sub i32 %42, 1
  %44 = sub i32 %43, -221332962
  %45 = sub i32 %40, 1
  %46 = mul i32 %40, %44
  %47 = urem i32 %46, 2
  %48 = icmp eq i32 %47, 0
  %49 = icmp slt i32 %41, 10
  %50 = and i1 %48, %49
  %51 = xor i1 %48, %49
  %52 = or i1 %50, %51
  %53 = or i1 %48, %49
  br i1 %52, label %54, label %227

; <label>:54:                                     ; preds = %39, %227
  %55 = load i32, i32* @x.94
  %56 = load i32, i32* @y.95
  %57 = add i32 %55, 1129757225
  %58 = sub i32 %57, 1
  %59 = sub i32 %58, 1129757225
  %60 = sub i32 %55, 1
  %61 = mul i32 %55, %59
  %62 = urem i32 %61, 2
  %63 = icmp eq i32 %62, 0
  %64 = icmp slt i32 %56, 10
  %65 = xor i1 %63, true
  %66 = xor i1 %64, true
  %67 = xor i1 true, true
  %68 = and i1 %65, true
  %69 = and i1 %63, %67
  %70 = and i1 %66, true
  %71 = and i1 %64, %67
  %72 = or i1 %68, %69
  %73 = or i1 %70, %71
  %74 = xor i1 %72, %73
  %75 = or i1 %65, %66
  %76 = xor i1 %75, true
  %77 = or i1 true, %67
  %78 = and i1 %76, %77
  %79 = or i1 %74, %78
  %80 = or i1 %63, %64
  br i1 %79, label %81, label %227

; <label>:81:                                     ; preds = %54
  invoke void @_ZN11__gnu_debug16_Error_formatter5_M_atEPKcm(%"class.__gnu_debug::_Error_formatter"* sret %3, i8* getelementptr inbounds ([88 x i8], [88 x i8]* @.str.14, i32 0, i32 0), i64 331)
          to label %82 unwind label %193

; <label>:82:                                     ; preds = %81
  %83 = load i32, i32* @x.94
  %84 = load i32, i32* @y.95
  %85 = add i32 %83, -425606700
  %86 = sub i32 %85, 1
  %87 = sub i32 %86, -425606700
  %88 = sub i32 %83, 1
  %89 = mul i32 %83, %87
  %90 = urem i32 %89, 2
  %91 = icmp eq i32 %90, 0
  %92 = icmp slt i32 %84, 10
  %93 = and i1 %91, %92
  %94 = xor i1 %91, %92
  %95 = or i1 %93, %94
  %96 = or i1 %91, %92
  br i1 %95, label %97, label %228

; <label>:97:                                     ; preds = %82, %228
  %98 = call dereferenceable(560) %"class.__gnu_debug::_Error_formatter"* @_ZNK11__gnu_debug16_Error_formatter10_M_messageENS_13_Debug_msg_idE(%"class.__gnu_debug::_Error_formatter"* %3, i32 26) #3
  %99 = load i32, i32* @x.94
  %100 = load i32, i32* @y.95
  %101 = sub i32 %99, 1890001495
  %102 = sub i32 %101, 1
  %103 = add i32 %102, 1890001495
  %104 = sub i32 %99, 1
  %105 = mul i32 %99, %103
  %106 = urem i32 %105, 2
  %107 = icmp eq i32 %106, 0
  %108 = icmp slt i32 %100, 10
  %109 = xor i1 %107, true
  %110 = xor i1 %108, true
  %111 = xor i1 false, true
  %112 = and i1 %109, false
  %113 = and i1 %107, %111
  %114 = and i1 %110, false
  %115 = and i1 %108, %111
  %116 = or i1 %112, %113
  %117 = or i1 %114, %115
  %118 = xor i1 %116, %117
  %119 = or i1 %109, %110
  %120 = xor i1 %119, true
  %121 = or i1 false, %111
  %122 = and i1 %120, %121
  %123 = or i1 %118, %122
  %124 = or i1 %107, %108
  br i1 %123, label %125, label %228

; <label>:125:                                    ; preds = %97
  %126 = invoke dereferenceable(560) %"class.__gnu_debug::_Error_formatter"* @_ZNK11__gnu_debug16_Error_formatter11_M_iteratorINS_14_Safe_iteratorIN9__gnu_cxx17__normal_iteratorIPNSt7__debug6vectorIiSaIiEEENSt9__cxx19986vectorIS8_SaIS8_EEEEENS6_IS8_SC_EEEEEERKS0_RKT_PKc(%"class.__gnu_debug::_Error_formatter"* %98, %"class.__gnu_debug::_Safe_iterator"* dereferenceable(40) %5, i8* getelementptr inbounds ([5 x i8], [5 x i8]* @.str.4, i32 0, i32 0))
          to label %127 unwind label %193

; <label>:127:                                    ; preds = %125
  invoke void @_ZNK11__gnu_debug16_Error_formatter8_M_errorEv(%"class.__gnu_debug::_Error_formatter"* %126) #13
          to label %128 unwind label %193

; <label>:128:                                    ; preds = %127
  unreachable

; <label>:129:                                    ; preds = %38
  %130 = load i32, i32* @x.94
  %131 = load i32, i32* @y.95
  %132 = add i32 %130, 568700850
  %133 = sub i32 %132, 1
  %134 = sub i32 %133, 568700850
  %135 = sub i32 %130, 1
  %136 = mul i32 %130, %134
  %137 = urem i32 %136, 2
  %138 = icmp eq i32 %137, 0
  %139 = icmp slt i32 %131, 10
  %140 = xor i1 %138, true
  %141 = xor i1 %139, true
  %142 = xor i1 true, true
  %143 = and i1 %140, true
  %144 = and i1 %138, %142
  %145 = and i1 %141, true
  %146 = and i1 %139, %142
  %147 = or i1 %143, %144
  %148 = or i1 %145, %146
  %149 = xor i1 %147, %148
  %150 = or i1 %140, %141
  %151 = xor i1 %150, true
  %152 = or i1 true, %142
  %153 = and i1 %151, %152
  %154 = or i1 %149, %153
  %155 = or i1 %138, %139
  br i1 %154, label %156, label %230

; <label>:156:                                    ; preds = %129, %230
  %157 = load i32, i32* @x.94
  %158 = load i32, i32* @y.95
  %159 = add i32 %157, -1902183149
  %160 = sub i32 %159, 1
  %161 = sub i32 %160, -1902183149
  %162 = sub i32 %157, 1
  %163 = mul i32 %157, %161
  %164 = urem i32 %163, 2
  %165 = icmp eq i32 %164, 0
  %166 = icmp slt i32 %158, 10
  %167 = xor i1 %165, true
  %168 = xor i1 %166, true
  %169 = xor i1 true, true
  %170 = and i1 %167, true
  %171 = and i1 %165, %169
  %172 = and i1 %168, true
  %173 = and i1 %166, %169
  %174 = or i1 %170, %171
  %175 = or i1 %172, %173
  %176 = xor i1 %174, %175
  %177 = or i1 %167, %168
  %178 = xor i1 %177, true
  %179 = or i1 true, %169
  %180 = and i1 %178, %179
  %181 = or i1 %176, %180
  %182 = or i1 %165, %166
  br i1 %181, label %183, label %230

; <label>:183:                                    ; preds = %156
  br label %184

; <label>:184:                                    ; preds = %183
  br label %185

; <label>:185:                                    ; preds = %184
  %186 = bitcast %"class.__gnu_debug::_Safe_iterator"* %5 to i8*
  %187 = getelementptr inbounds i8, i8* %186, i64 8
  %188 = bitcast i8* %187 to %"class.__gnu_debug::_Safe_iterator_base"*
  %189 = call dereferenceable(40) %"class.__gnu_cxx::__mutex"* @_ZN11__gnu_debug19_Safe_iterator_base12_M_get_mutexEv(%"class.__gnu_debug::_Safe_iterator_base"* %188) #3
  invoke void @_ZN9__gnu_cxx13__scoped_lockC2ERNS_7__mutexE(%"class.__gnu_cxx::__scoped_lock"* %4, %"class.__gnu_cxx::__mutex"* dereferenceable(40) %189)
          to label %190 unwind label %193

; <label>:190:                                    ; preds = %185
  call void @_ZN9__gnu_cxx13__scoped_lockD2Ev(%"class.__gnu_cxx::__scoped_lock"* %4) #3
  %191 = call dereferenceable(8) %"class.__gnu_cxx::__normal_iterator"* @_ZN11__gnu_debug14_Safe_iteratorIN9__gnu_cxx17__normal_iteratorIPNSt7__debug6vectorIiSaIiEEENSt9__cxx19986vectorIS6_SaIS6_EEEEENS4_IS6_SA_EEE4baseEv(%"class.__gnu_debug::_Safe_iterator"* %5) #3
  %192 = call dereferenceable(8) %"class.__gnu_cxx::__normal_iterator"* @_ZN9__gnu_cxx17__normal_iteratorIPNSt7__debug6vectorIiSaIiEEENSt9__cxx19986vectorIS4_SaIS4_EEEEppEv(%"class.__gnu_cxx::__normal_iterator"* %191) #3
  ret %"class.__gnu_debug::_Safe_iterator"* %5

; <label>:193:                                    ; preds = %185, %127, %125, %81, %36
  %194 = load i32, i32* @x.94
  %195 = load i32, i32* @y.95
  %196 = sub i32 %194, -126075999
  %197 = sub i32 %196, 1
  %198 = add i32 %197, -126075999
  %199 = sub i32 %194, 1
  %200 = mul i32 %194, %198
  %201 = urem i32 %200, 2
  %202 = icmp eq i32 %201, 0
  %203 = icmp slt i32 %195, 10
  %204 = and i1 %202, %203
  %205 = xor i1 %202, %203
  %206 = or i1 %204, %205
  %207 = or i1 %202, %203
  br i1 %206, label %208, label %231

; <label>:208:                                    ; preds = %193, %231
  %209 = landingpad { i8*, i32 }
          catch i8* null
  %210 = extractvalue { i8*, i32 } %209, 0
  call void @__clang_call_terminate(i8* %210) #10
  %211 = load i32, i32* @x.94
  %212 = load i32, i32* @y.95
  %213 = sub i32 %211, 772262168
  %214 = sub i32 %213, 1
  %215 = add i32 %214, 772262168
  %216 = sub i32 %211, 1
  %217 = mul i32 %211, %215
  %218 = urem i32 %217, 2
  %219 = icmp eq i32 %218, 0
  %220 = icmp slt i32 %212, 10
  %221 = and i1 %219, %220
  %222 = xor i1 %219, %220
  %223 = or i1 %221, %222
  %224 = or i1 %219, %220
  br i1 %223, label %225, label %231

; <label>:225:                                    ; preds = %208
  unreachable

; <label>:226:                                    ; preds = %21, %6
  br label %21

; <label>:227:                                    ; preds = %54, %39
  br label %54

; <label>:228:                                    ; preds = %97, %82
  %229 = call dereferenceable(560) %"class.__gnu_debug::_Error_formatter"* @_ZNK11__gnu_debug16_Error_formatter10_M_messageENS_13_Debug_msg_idE(%"class.__gnu_debug::_Error_formatter"* %3, i32 26) #3
  br label %97

; <label>:230:                                    ; preds = %156, %129
  br label %156

; <label>:231:                                    ; preds = %208, %193
  %232 = landingpad { i8*, i32 }
          catch i8* null
  %233 = extractvalue { i8*, i32 } %232, 0
  call void @__clang_call_terminate(i8* %233) #10
  br label %208
}

; Function Attrs: noinline nounwind uwtable
define linkonce_odr void @_ZN11__gnu_debug14_Safe_iteratorIN9__gnu_cxx17__normal_iteratorIPNSt7__debug6vectorIiSaIiEEENSt9__cxx19986vectorIS6_SaIS6_EEEEENS4_IS6_SA_EEED2Ev(%"class.__gnu_debug::_Safe_iterator"*) unnamed_addr #4 comdat align 2 {
  %2 = alloca %"class.__gnu_debug::_Safe_iterator"*, align 8
  store %"class.__gnu_debug::_Safe_iterator"* %0, %"class.__gnu_debug::_Safe_iterator"** %2, align 8
  %3 = load %"class.__gnu_debug::_Safe_iterator"*, %"class.__gnu_debug::_Safe_iterator"** %2, align 8
  %4 = bitcast %"class.__gnu_debug::_Safe_iterator"* %3 to i8*
  %5 = getelementptr inbounds i8, i8* %4, i64 8
  %6 = bitcast i8* %5 to %"class.__gnu_debug::_Safe_iterator_base"*
  call void @_ZN11__gnu_debug19_Safe_iterator_baseD2Ev(%"class.__gnu_debug::_Safe_iterator_base"* %6) #3
  ret void
}

declare dereferenceable(272) %"class.std::basic_ostream"* @_ZNSolsEi(%"class.std::basic_ostream"*, i32) #1

; Function Attrs: noinline nounwind uwtable
define linkonce_odr void @_ZNSt7__debug6vectorINS0_IiSaIiEEESaIS2_EED2Ev(%"class.std::__debug::vector.3"*) unnamed_addr #4 comdat align 2 {
  %2 = alloca i1
  %3 = alloca i1
  %4 = load i32, i32* @x.98
  %5 = load i32, i32* @y.99
  %6 = add i32 %4, 550112476
  %7 = sub i32 %6, 1
  %8 = sub i32 %7, 550112476
  %9 = sub i32 %4, 1
  %10 = mul i32 %4, %8
  %11 = urem i32 %10, 2
  %12 = icmp eq i32 %11, 0
  store i1 %12, i1* %3
  %13 = icmp slt i32 %5, 10
  store i1 %13, i1* %2
  %14 = alloca i32
  store i32 -1966688980, i32* %14
  br label %15

; <label>:15:                                     ; preds = %1, %80
  %16 = load i32, i32* %14
  switch i32 %16, label %17 [
    i32 -1966688980, label %18
    i32 596023619, label %38
    i32 -1540197966, label %72
    i32 608749475, label %73
  ]

; <label>:17:                                     ; preds = %15
  br label %80

; <label>:18:                                     ; preds = %15
  %19 = load volatile i1, i1* %3
  %20 = load volatile i1, i1* %2
  %21 = xor i1 %19, true
  %22 = xor i1 %20, true
  %23 = xor i1 false, true
  %24 = and i1 %21, false
  %25 = and i1 %19, %23
  %26 = and i1 %22, false
  %27 = and i1 %20, %23
  %28 = or i1 %24, %25
  %29 = or i1 %26, %27
  %30 = xor i1 %28, %29
  %31 = or i1 %21, %22
  %32 = xor i1 %31, true
  %33 = or i1 false, %23
  %34 = and i1 %32, %33
  %35 = or i1 %30, %34
  %36 = or i1 %19, %20
  %37 = select i1 %35, i32 596023619, i32 608749475
  store i32 %37, i32* %14
  br label %80

; <label>:38:                                     ; preds = %15
  %39 = alloca %"class.std::__debug::vector.3"*, align 8
  store %"class.std::__debug::vector.3"* %0, %"class.std::__debug::vector.3"** %39, align 8
  %40 = load %"class.std::__debug::vector.3"*, %"class.std::__debug::vector.3"** %39, align 8
  %41 = bitcast %"class.std::__debug::vector.3"* %40 to i8*
  %42 = getelementptr inbounds i8, i8* %41, i64 24
  %43 = bitcast i8* %42 to %"class.std::__cxx1998::vector.8"*
  call void @_ZNSt9__cxx19986vectorINSt7__debug6vectorIiSaIiEEESaIS4_EED2Ev(%"class.std::__cxx1998::vector.8"* %43) #3
  %44 = bitcast %"class.std::__debug::vector.3"* %40 to %"class.__gnu_debug::_Safe_container.4"*
  call void @_ZN11__gnu_debug15_Safe_containerINSt7__debug6vectorINS2_IiSaIiEEESaIS4_EEES5_NS_14_Safe_sequenceELb1EED2Ev(%"class.__gnu_debug::_Safe_container.4"* %44) #3
  %45 = load i32, i32* @x.98
  %46 = load i32, i32* @y.99
  %47 = add i32 %45, 303913742
  %48 = sub i32 %47, 1
  %49 = sub i32 %48, 303913742
  %50 = sub i32 %45, 1
  %51 = mul i32 %45, %49
  %52 = urem i32 %51, 2
  %53 = icmp eq i32 %52, 0
  %54 = icmp slt i32 %46, 10
  %55 = xor i1 %53, true
  %56 = xor i1 %54, true
  %57 = xor i1 true, true
  %58 = and i1 %55, true
  %59 = and i1 %53, %57
  %60 = and i1 %56, true
  %61 = and i1 %54, %57
  %62 = or i1 %58, %59
  %63 = or i1 %60, %61
  %64 = xor i1 %62, %63
  %65 = or i1 %55, %56
  %66 = xor i1 %65, true
  %67 = or i1 true, %57
  %68 = and i1 %66, %67
  %69 = or i1 %64, %68
  %70 = or i1 %53, %54
  %71 = select i1 %69, i32 -1540197966, i32 608749475
  store i32 %71, i32* %14
  br label %80

; <label>:72:                                     ; preds = %15
  ret void

; <label>:73:                                     ; preds = %15
  %74 = alloca %"class.std::__debug::vector.3"*, align 8
  store %"class.std::__debug::vector.3"* %0, %"class.std::__debug::vector.3"** %74, align 8
  %75 = load %"class.std::__debug::vector.3"*, %"class.std::__debug::vector.3"** %74, align 8
  %76 = bitcast %"class.std::__debug::vector.3"* %75 to i8*
  %77 = getelementptr inbounds i8, i8* %76, i64 24
  %78 = bitcast i8* %77 to %"class.std::__cxx1998::vector.8"*
  call void @_ZNSt9__cxx19986vectorINSt7__debug6vectorIiSaIiEEESaIS4_EED2Ev(%"class.std::__cxx1998::vector.8"* %78) #3
  %79 = bitcast %"class.std::__debug::vector.3"* %75 to %"class.__gnu_debug::_Safe_container.4"*
  call void @_ZN11__gnu_debug15_Safe_containerINSt7__debug6vectorINS2_IiSaIiEEESaIS4_EEES5_NS_14_Safe_sequenceELb1EED2Ev(%"class.__gnu_debug::_Safe_container.4"* %79) #3
  store i32 596023619, i32* %14
  br label %80

; <label>:80:                                     ; preds = %73, %38, %18, %17
  br label %15
}

; Function Attrs: noinline nounwind uwtable
define linkonce_odr void @_ZN9UnionfindD2Ev(%class.Unionfind*) unnamed_addr #4 comdat align 2 {
  %2 = alloca %class.Unionfind*, align 8
  store %class.Unionfind* %0, %class.Unionfind** %2, align 8
  %3 = load %class.Unionfind*, %class.Unionfind** %2, align 8
  %4 = getelementptr inbounds %class.Unionfind, %class.Unionfind* %3, i32 0, i32 4
  call void @_ZNSt7__debug6vectorIiSaIiEED2Ev(%"class.std::__debug::vector"* %4) #3
  %5 = getelementptr inbounds %class.Unionfind, %class.Unionfind* %3, i32 0, i32 3
  call void @_ZNSt7__debug6vectorIiSaIiEED2Ev(%"class.std::__debug::vector"* %5) #3
  %6 = getelementptr inbounds %class.Unionfind, %class.Unionfind* %3, i32 0, i32 2
  call void @_ZNSt7__debug6vectorIiSaIiEED2Ev(%"class.std::__debug::vector"* %6) #3
  ret void
}

; Function Attrs: noinline uwtable
define linkonce_odr void @_ZNSt7__debug6vectorIiSaIiEEC2EmRKiRKS1_(%"class.std::__debug::vector"*, i64, i32* dereferenceable(4), %"class.std::allocator.0"* dereferenceable(1)) unnamed_addr #0 comdat align 2 personality i8* bitcast (i32 (...)* @__gxx_personality_v0 to i8*) {
  %5 = alloca %"class.std::__debug::vector"*, align 8
  %6 = alloca i64, align 8
  %7 = alloca i32*, align 8
  %8 = alloca %"class.std::allocator.0"*, align 8
  %9 = alloca i8*
  %10 = alloca i32
  store %"class.std::__debug::vector"* %0, %"class.std::__debug::vector"** %5, align 8
  store i64 %1, i64* %6, align 8
  store i32* %2, i32** %7, align 8
  store %"class.std::allocator.0"* %3, %"class.std::allocator.0"** %8, align 8
  %11 = load %"class.std::__debug::vector"*, %"class.std::__debug::vector"** %5, align 8
  %12 = bitcast %"class.std::__debug::vector"* %11 to %"class.__gnu_debug::_Safe_container"*
  call void @_ZN11__gnu_debug15_Safe_containerINSt7__debug6vectorIiSaIiEEES3_NS_14_Safe_sequenceELb1EEC2Ev(%"class.__gnu_debug::_Safe_container"* %12) #3
  %13 = bitcast %"class.std::__debug::vector"* %11 to i8*
  %14 = getelementptr inbounds i8, i8* %13, i64 24
  %15 = bitcast i8* %14 to %"class.std::__cxx1998::vector"*
  %16 = load i64, i64* %6, align 8
  %17 = load i32*, i32** %7, align 8
  %18 = load %"class.std::allocator.0"*, %"class.std::allocator.0"** %8, align 8
  invoke void @_ZNSt9__cxx19986vectorIiSaIiEEC2EmRKiRKS1_(%"class.std::__cxx1998::vector"* %15, i64 %16, i32* dereferenceable(4) %17, %"class.std::allocator.0"* dereferenceable(1) %18)
          to label %19 unwind label %23

; <label>:19:                                     ; preds = %4
  %20 = bitcast %"class.std::__debug::vector"* %11 to i8*
  %21 = getelementptr inbounds i8, i8* %20, i64 48
  %22 = bitcast i8* %21 to %"class.__gnu_debug::_Safe_vector"*
  call void @_ZN11__gnu_debug12_Safe_vectorINSt7__debug6vectorIiSaIiEEENSt9__cxx19986vectorIiS3_EEEC2Ev(%"class.__gnu_debug::_Safe_vector"* %22) #3
  ret void

; <label>:23:                                     ; preds = %4
  %24 = landingpad { i8*, i32 }
          cleanup
  %25 = extractvalue { i8*, i32 } %24, 0
  store i8* %25, i8** %9, align 8
  %26 = extractvalue { i8*, i32 } %24, 1
  store i32 %26, i32* %10, align 4
  %27 = bitcast %"class.std::__debug::vector"* %11 to %"class.__gnu_debug::_Safe_container"*
  call void @_ZN11__gnu_debug15_Safe_containerINSt7__debug6vectorIiSaIiEEES3_NS_14_Safe_sequenceELb1EED2Ev(%"class.__gnu_debug::_Safe_container"* %27) #3
  br label %28

; <label>:28:                                     ; preds = %23
  %29 = load i32, i32* @x.102
  %30 = load i32, i32* @y.103
  %31 = sub i32 0, 1
  %32 = add i32 %29, %31
  %33 = sub i32 %29, 1
  %34 = mul i32 %29, %32
  %35 = urem i32 %34, 2
  %36 = icmp eq i32 %35, 0
  %37 = icmp slt i32 %30, 10
  %38 = xor i1 %36, true
  %39 = xor i1 %37, true
  %40 = xor i1 false, true
  %41 = and i1 %38, false
  %42 = and i1 %36, %40
  %43 = and i1 %39, false
  %44 = and i1 %37, %40
  %45 = or i1 %41, %42
  %46 = or i1 %43, %44
  %47 = xor i1 %45, %46
  %48 = or i1 %38, %39
  %49 = xor i1 %48, true
  %50 = or i1 false, %40
  %51 = and i1 %49, %50
  %52 = or i1 %47, %51
  %53 = or i1 %36, %37
  br i1 %52, label %54, label %85

; <label>:54:                                     ; preds = %28, %85
  %55 = load i8*, i8** %9, align 8
  %56 = load i32, i32* %10, align 4
  %57 = insertvalue { i8*, i32 } undef, i8* %55, 0
  %58 = insertvalue { i8*, i32 } %57, i32 %56, 1
  %59 = load i32, i32* @x.102
  %60 = load i32, i32* @y.103
  %61 = sub i32 0, 1
  %62 = add i32 %59, %61
  %63 = sub i32 %59, 1
  %64 = mul i32 %59, %62
  %65 = urem i32 %64, 2
  %66 = icmp eq i32 %65, 0
  %67 = icmp slt i32 %60, 10
  %68 = xor i1 %66, true
  %69 = xor i1 %67, true
  %70 = xor i1 true, true
  %71 = and i1 %68, true
  %72 = and i1 %66, %70
  %73 = and i1 %69, true
  %74 = and i1 %67, %70
  %75 = or i1 %71, %72
  %76 = or i1 %73, %74
  %77 = xor i1 %75, %76
  %78 = or i1 %68, %69
  %79 = xor i1 %78, true
  %80 = or i1 true, %70
  %81 = and i1 %79, %80
  %82 = or i1 %77, %81
  %83 = or i1 %66, %67
  br i1 %82, label %84, label %85

; <label>:84:                                     ; preds = %54
  resume { i8*, i32 } %58

; <label>:85:                                     ; preds = %54, %28
  %86 = load i8*, i8** %9, align 8
  %87 = load i32, i32* %10, align 4
  %88 = insertvalue { i8*, i32 } undef, i8* %86, 0
  %89 = insertvalue { i8*, i32 } %88, i32 %87, 1
  br label %54
}

; Function Attrs: noinline nounwind uwtable
define linkonce_odr void @_ZN11__gnu_debug15_Safe_containerINSt7__debug6vectorIiSaIiEEES3_NS_14_Safe_sequenceELb1EEC2Ev(%"class.__gnu_debug::_Safe_container"*) unnamed_addr #4 comdat align 2 {
  %2 = alloca %"class.__gnu_debug::_Safe_container"*, align 8
  store %"class.__gnu_debug::_Safe_container"* %0, %"class.__gnu_debug::_Safe_container"** %2, align 8
  %3 = load %"class.__gnu_debug::_Safe_container"*, %"class.__gnu_debug::_Safe_container"** %2, align 8
  %4 = bitcast %"class.__gnu_debug::_Safe_container"* %3 to %"class.__gnu_debug::_Safe_sequence"*
  call void @_ZN11__gnu_debug14_Safe_sequenceINSt7__debug6vectorIiSaIiEEEEC2Ev(%"class.__gnu_debug::_Safe_sequence"* %4) #3
  ret void
}

; Function Attrs: noinline uwtable
define linkonce_odr void @_ZNSt9__cxx19986vectorIiSaIiEEC2EmRKiRKS1_(%"class.std::__cxx1998::vector"*, i64, i32* dereferenceable(4), %"class.std::allocator.0"* dereferenceable(1)) unnamed_addr #0 comdat align 2 personality i8* bitcast (i32 (...)* @__gxx_personality_v0 to i8*) {
  %5 = alloca %"class.std::__cxx1998::vector"*, align 8
  %6 = alloca i64, align 8
  %7 = alloca i32*, align 8
  %8 = alloca %"class.std::allocator.0"*, align 8
  %9 = alloca i8*
  %10 = alloca i32
  store %"class.std::__cxx1998::vector"* %0, %"class.std::__cxx1998::vector"** %5, align 8
  store i64 %1, i64* %6, align 8
  store i32* %2, i32** %7, align 8
  store %"class.std::allocator.0"* %3, %"class.std::allocator.0"** %8, align 8
  %11 = load %"class.std::__cxx1998::vector"*, %"class.std::__cxx1998::vector"** %5, align 8
  %12 = bitcast %"class.std::__cxx1998::vector"* %11 to %"struct.std::__cxx1998::_Vector_base"*
  %13 = load i64, i64* %6, align 8
  %14 = load %"class.std::allocator.0"*, %"class.std::allocator.0"** %8, align 8
  call void @_ZNSt9__cxx199812_Vector_baseIiSaIiEEC2EmRKS1_(%"struct.std::__cxx1998::_Vector_base"* %12, i64 %13, %"class.std::allocator.0"* dereferenceable(1) %14)
  %15 = load i64, i64* %6, align 8
  %16 = load i32*, i32** %7, align 8
  invoke void @_ZNSt9__cxx19986vectorIiSaIiEE18_M_fill_initializeEmRKi(%"class.std::__cxx1998::vector"* %11, i64 %15, i32* dereferenceable(4) %16)
          to label %17 unwind label %18

; <label>:17:                                     ; preds = %4
  ret void

; <label>:18:                                     ; preds = %4
  %19 = load i32, i32* @x.106
  %20 = load i32, i32* @y.107
  %21 = add i32 %19, -1601525696
  %22 = sub i32 %21, 1
  %23 = sub i32 %22, -1601525696
  %24 = sub i32 %19, 1
  %25 = mul i32 %19, %23
  %26 = urem i32 %25, 2
  %27 = icmp eq i32 %26, 0
  %28 = icmp slt i32 %20, 10
  %29 = and i1 %27, %28
  %30 = xor i1 %27, %28
  %31 = or i1 %29, %30
  %32 = or i1 %27, %28
  br i1 %31, label %33, label %58

; <label>:33:                                     ; preds = %18, %58
  %34 = landingpad { i8*, i32 }
          cleanup
  %35 = extractvalue { i8*, i32 } %34, 0
  store i8* %35, i8** %9, align 8
  %36 = extractvalue { i8*, i32 } %34, 1
  store i32 %36, i32* %10, align 4
  %37 = bitcast %"class.std::__cxx1998::vector"* %11 to %"struct.std::__cxx1998::_Vector_base"*
  call void @_ZNSt9__cxx199812_Vector_baseIiSaIiEED2Ev(%"struct.std::__cxx1998::_Vector_base"* %37) #3
  %38 = load i32, i32* @x.106
  %39 = load i32, i32* @y.107
  %40 = add i32 %38, 992004050
  %41 = sub i32 %40, 1
  %42 = sub i32 %41, 992004050
  %43 = sub i32 %38, 1
  %44 = mul i32 %38, %42
  %45 = urem i32 %44, 2
  %46 = icmp eq i32 %45, 0
  %47 = icmp slt i32 %39, 10
  %48 = and i1 %46, %47
  %49 = xor i1 %46, %47
  %50 = or i1 %48, %49
  %51 = or i1 %46, %47
  br i1 %50, label %52, label %58

; <label>:52:                                     ; preds = %33
  br label %53

; <label>:53:                                     ; preds = %52
  %54 = load i8*, i8** %9, align 8
  %55 = load i32, i32* %10, align 4
  %56 = insertvalue { i8*, i32 } undef, i8* %54, 0
  %57 = insertvalue { i8*, i32 } %56, i32 %55, 1
  resume { i8*, i32 } %57

; <label>:58:                                     ; preds = %33, %18
  %59 = landingpad { i8*, i32 }
          cleanup
  %60 = extractvalue { i8*, i32 } %59, 0
  store i8* %60, i8** %9, align 8
  %61 = extractvalue { i8*, i32 } %59, 1
  store i32 %61, i32* %10, align 4
  %62 = bitcast %"class.std::__cxx1998::vector"* %11 to %"struct.std::__cxx1998::_Vector_base"*
  call void @_ZNSt9__cxx199812_Vector_baseIiSaIiEED2Ev(%"struct.std::__cxx1998::_Vector_base"* %62) #3
  br label %33
}

; Function Attrs: noinline nounwind uwtable
define linkonce_odr void @_ZN11__gnu_debug12_Safe_vectorINSt7__debug6vectorIiSaIiEEENSt9__cxx19986vectorIiS3_EEEC2Ev(%"class.__gnu_debug::_Safe_vector"*) unnamed_addr #4 comdat align 2 {
  %2 = alloca i1
  %3 = alloca i1
  %4 = load i32, i32* @x.108
  %5 = load i32, i32* @y.109
  %6 = sub i32 %4, -986351584
  %7 = sub i32 %6, 1
  %8 = add i32 %7, -986351584
  %9 = sub i32 %4, 1
  %10 = mul i32 %4, %8
  %11 = urem i32 %10, 2
  %12 = icmp eq i32 %11, 0
  store i1 %12, i1* %3
  %13 = icmp slt i32 %5, 10
  store i1 %13, i1* %2
  %14 = alloca i32
  store i32 769821147, i32* %14
  br label %15

; <label>:15:                                     ; preds = %1, %50
  %16 = load i32, i32* %14
  switch i32 %16, label %17 [
    i32 769821147, label %18
    i32 720462559, label %26
    i32 -1857119342, label %45
    i32 1524621657, label %46
  ]

; <label>:17:                                     ; preds = %15
  br label %50

; <label>:18:                                     ; preds = %15
  %19 = load volatile i1, i1* %3
  %20 = load volatile i1, i1* %2
  %21 = and i1 %19, %20
  %22 = xor i1 %19, %20
  %23 = or i1 %21, %22
  %24 = or i1 %19, %20
  %25 = select i1 %23, i32 720462559, i32 1524621657
  store i32 %25, i32* %14
  br label %50

; <label>:26:                                     ; preds = %15
  %27 = alloca %"class.__gnu_debug::_Safe_vector"*, align 8
  store %"class.__gnu_debug::_Safe_vector"* %0, %"class.__gnu_debug::_Safe_vector"** %27, align 8
  %28 = load %"class.__gnu_debug::_Safe_vector"*, %"class.__gnu_debug::_Safe_vector"** %27, align 8
  %29 = getelementptr inbounds %"class.__gnu_debug::_Safe_vector", %"class.__gnu_debug::_Safe_vector"* %28, i32 0, i32 0
  store i64 0, i64* %29, align 8
  call void @_ZN11__gnu_debug12_Safe_vectorINSt7__debug6vectorIiSaIiEEENSt9__cxx19986vectorIiS3_EEE29_M_update_guaranteed_capacityEv(%"class.__gnu_debug::_Safe_vector"* %28) #3
  %30 = load i32, i32* @x.108
  %31 = load i32, i32* @y.109
  %32 = add i32 %30, -247800873
  %33 = sub i32 %32, 1
  %34 = sub i32 %33, -247800873
  %35 = sub i32 %30, 1
  %36 = mul i32 %30, %34
  %37 = urem i32 %36, 2
  %38 = icmp eq i32 %37, 0
  %39 = icmp slt i32 %31, 10
  %40 = and i1 %38, %39
  %41 = xor i1 %38, %39
  %42 = or i1 %40, %41
  %43 = or i1 %38, %39
  %44 = select i1 %42, i32 -1857119342, i32 1524621657
  store i32 %44, i32* %14
  br label %50

; <label>:45:                                     ; preds = %15
  ret void

; <label>:46:                                     ; preds = %15
  %47 = alloca %"class.__gnu_debug::_Safe_vector"*, align 8
  store %"class.__gnu_debug::_Safe_vector"* %0, %"class.__gnu_debug::_Safe_vector"** %47, align 8
  %48 = load %"class.__gnu_debug::_Safe_vector"*, %"class.__gnu_debug::_Safe_vector"** %47, align 8
  %49 = getelementptr inbounds %"class.__gnu_debug::_Safe_vector", %"class.__gnu_debug::_Safe_vector"* %48, i32 0, i32 0
  store i64 0, i64* %49, align 8
  call void @_ZN11__gnu_debug12_Safe_vectorINSt7__debug6vectorIiSaIiEEENSt9__cxx19986vectorIiS3_EEE29_M_update_guaranteed_capacityEv(%"class.__gnu_debug::_Safe_vector"* %48) #3
  store i32 720462559, i32* %14
  br label %50

; <label>:50:                                     ; preds = %46, %26, %18, %17
  br label %15
}

; Function Attrs: noinline nounwind uwtable
define linkonce_odr void @_ZN11__gnu_debug15_Safe_containerINSt7__debug6vectorIiSaIiEEES3_NS_14_Safe_sequenceELb1EED2Ev(%"class.__gnu_debug::_Safe_container"*) unnamed_addr #4 comdat align 2 {
  %2 = alloca i1
  %3 = alloca i1
  %4 = load i32, i32* @x.110
  %5 = load i32, i32* @y.111
  %6 = sub i32 0, 1
  %7 = add i32 %4, %6
  %8 = sub i32 %4, 1
  %9 = mul i32 %4, %7
  %10 = urem i32 %9, 2
  %11 = icmp eq i32 %10, 0
  store i1 %11, i1* %3
  %12 = icmp slt i32 %5, 10
  store i1 %12, i1* %2
  %13 = alloca i32
  store i32 -996223875, i32* %13
  br label %14

; <label>:14:                                     ; preds = %1, %61
  %15 = load i32, i32* %13
  switch i32 %15, label %16 [
    i32 -996223875, label %17
    i32 1052641917, label %37
    i32 -1714461739, label %56
    i32 1807748774, label %57
  ]

; <label>:16:                                     ; preds = %14
  br label %61

; <label>:17:                                     ; preds = %14
  %18 = load volatile i1, i1* %3
  %19 = load volatile i1, i1* %2
  %20 = xor i1 %18, true
  %21 = xor i1 %19, true
  %22 = xor i1 false, true
  %23 = and i1 %20, false
  %24 = and i1 %18, %22
  %25 = and i1 %21, false
  %26 = and i1 %19, %22
  %27 = or i1 %23, %24
  %28 = or i1 %25, %26
  %29 = xor i1 %27, %28
  %30 = or i1 %20, %21
  %31 = xor i1 %30, true
  %32 = or i1 false, %22
  %33 = and i1 %31, %32
  %34 = or i1 %29, %33
  %35 = or i1 %18, %19
  %36 = select i1 %34, i32 1052641917, i32 1807748774
  store i32 %36, i32* %13
  br label %61

; <label>:37:                                     ; preds = %14
  %38 = alloca %"class.__gnu_debug::_Safe_container"*, align 8
  store %"class.__gnu_debug::_Safe_container"* %0, %"class.__gnu_debug::_Safe_container"** %38, align 8
  %39 = load %"class.__gnu_debug::_Safe_container"*, %"class.__gnu_debug::_Safe_container"** %38, align 8
  %40 = bitcast %"class.__gnu_debug::_Safe_container"* %39 to %"class.__gnu_debug::_Safe_sequence"*
  call void @_ZN11__gnu_debug14_Safe_sequenceINSt7__debug6vectorIiSaIiEEEED2Ev(%"class.__gnu_debug::_Safe_sequence"* %40) #3
  %41 = load i32, i32* @x.110
  %42 = load i32, i32* @y.111
  %43 = add i32 %41, -1550386858
  %44 = sub i32 %43, 1
  %45 = sub i32 %44, -1550386858
  %46 = sub i32 %41, 1
  %47 = mul i32 %41, %45
  %48 = urem i32 %47, 2
  %49 = icmp eq i32 %48, 0
  %50 = icmp slt i32 %42, 10
  %51 = and i1 %49, %50
  %52 = xor i1 %49, %50
  %53 = or i1 %51, %52
  %54 = or i1 %49, %50
  %55 = select i1 %53, i32 -1714461739, i32 1807748774
  store i32 %55, i32* %13
  br label %61

; <label>:56:                                     ; preds = %14
  ret void

; <label>:57:                                     ; preds = %14
  %58 = alloca %"class.__gnu_debug::_Safe_container"*, align 8
  store %"class.__gnu_debug::_Safe_container"* %0, %"class.__gnu_debug::_Safe_container"** %58, align 8
  %59 = load %"class.__gnu_debug::_Safe_container"*, %"class.__gnu_debug::_Safe_container"** %58, align 8
  %60 = bitcast %"class.__gnu_debug::_Safe_container"* %59 to %"class.__gnu_debug::_Safe_sequence"*
  call void @_ZN11__gnu_debug14_Safe_sequenceINSt7__debug6vectorIiSaIiEEEED2Ev(%"class.__gnu_debug::_Safe_sequence"* %60) #3
  store i32 1052641917, i32* %13
  br label %61

; <label>:61:                                     ; preds = %57, %37, %17, %16
  br label %14
}

; Function Attrs: noinline nounwind uwtable
define linkonce_odr void @_ZN11__gnu_debug14_Safe_sequenceINSt7__debug6vectorIiSaIiEEEEC2Ev(%"class.__gnu_debug::_Safe_sequence"*) unnamed_addr #4 comdat align 2 {
  %2 = alloca i1
  %3 = alloca i1
  %4 = load i32, i32* @x.112
  %5 = load i32, i32* @y.113
  %6 = sub i32 %4, 1160681373
  %7 = sub i32 %6, 1
  %8 = add i32 %7, 1160681373
  %9 = sub i32 %4, 1
  %10 = mul i32 %4, %8
  %11 = urem i32 %10, 2
  %12 = icmp eq i32 %11, 0
  store i1 %12, i1* %3
  %13 = icmp slt i32 %5, 10
  store i1 %13, i1* %2
  %14 = alloca i32
  store i32 1167708183, i32* %14
  br label %15

; <label>:15:                                     ; preds = %1, %50
  %16 = load i32, i32* %14
  switch i32 %16, label %17 [
    i32 1167708183, label %18
    i32 -1997540388, label %26
    i32 -463475342, label %45
    i32 1674151298, label %46
  ]

; <label>:17:                                     ; preds = %15
  br label %50

; <label>:18:                                     ; preds = %15
  %19 = load volatile i1, i1* %3
  %20 = load volatile i1, i1* %2
  %21 = and i1 %19, %20
  %22 = xor i1 %19, %20
  %23 = or i1 %21, %22
  %24 = or i1 %19, %20
  %25 = select i1 %23, i32 -1997540388, i32 1674151298
  store i32 %25, i32* %14
  br label %50

; <label>:26:                                     ; preds = %15
  %27 = alloca %"class.__gnu_debug::_Safe_sequence"*, align 8
  store %"class.__gnu_debug::_Safe_sequence"* %0, %"class.__gnu_debug::_Safe_sequence"** %27, align 8
  %28 = load %"class.__gnu_debug::_Safe_sequence"*, %"class.__gnu_debug::_Safe_sequence"** %27, align 8
  %29 = bitcast %"class.__gnu_debug::_Safe_sequence"* %28 to %"class.__gnu_debug::_Safe_sequence_base"*
  call void @_ZN11__gnu_debug19_Safe_sequence_baseC2Ev(%"class.__gnu_debug::_Safe_sequence_base"* %29) #3
  %30 = load i32, i32* @x.112
  %31 = load i32, i32* @y.113
  %32 = add i32 %30, 1809831167
  %33 = sub i32 %32, 1
  %34 = sub i32 %33, 1809831167
  %35 = sub i32 %30, 1
  %36 = mul i32 %30, %34
  %37 = urem i32 %36, 2
  %38 = icmp eq i32 %37, 0
  %39 = icmp slt i32 %31, 10
  %40 = and i1 %38, %39
  %41 = xor i1 %38, %39
  %42 = or i1 %40, %41
  %43 = or i1 %38, %39
  %44 = select i1 %42, i32 -463475342, i32 1674151298
  store i32 %44, i32* %14
  br label %50

; <label>:45:                                     ; preds = %15
  ret void

; <label>:46:                                     ; preds = %15
  %47 = alloca %"class.__gnu_debug::_Safe_sequence"*, align 8
  store %"class.__gnu_debug::_Safe_sequence"* %0, %"class.__gnu_debug::_Safe_sequence"** %47, align 8
  %48 = load %"class.__gnu_debug::_Safe_sequence"*, %"class.__gnu_debug::_Safe_sequence"** %47, align 8
  %49 = bitcast %"class.__gnu_debug::_Safe_sequence"* %48 to %"class.__gnu_debug::_Safe_sequence_base"*
  call void @_ZN11__gnu_debug19_Safe_sequence_baseC2Ev(%"class.__gnu_debug::_Safe_sequence_base"* %49) #3
  store i32 -1997540388, i32* %14
  br label %50

; <label>:50:                                     ; preds = %46, %26, %18, %17
  br label %15
}

; Function Attrs: noinline nounwind uwtable
define linkonce_odr void @_ZN11__gnu_debug19_Safe_sequence_baseC2Ev(%"class.__gnu_debug::_Safe_sequence_base"*) unnamed_addr #4 comdat align 2 {
  %2 = alloca %"class.__gnu_debug::_Safe_sequence_base"*, align 8
  store %"class.__gnu_debug::_Safe_sequence_base"* %0, %"class.__gnu_debug::_Safe_sequence_base"** %2, align 8
  %3 = load %"class.__gnu_debug::_Safe_sequence_base"*, %"class.__gnu_debug::_Safe_sequence_base"** %2, align 8
  %4 = getelementptr inbounds %"class.__gnu_debug::_Safe_sequence_base", %"class.__gnu_debug::_Safe_sequence_base"* %3, i32 0, i32 0
  store %"class.__gnu_debug::_Safe_iterator_base"* null, %"class.__gnu_debug::_Safe_iterator_base"** %4, align 8
  %5 = getelementptr inbounds %"class.__gnu_debug::_Safe_sequence_base", %"class.__gnu_debug::_Safe_sequence_base"* %3, i32 0, i32 1
  store %"class.__gnu_debug::_Safe_iterator_base"* null, %"class.__gnu_debug::_Safe_iterator_base"** %5, align 8
  %6 = getelementptr inbounds %"class.__gnu_debug::_Safe_sequence_base", %"class.__gnu_debug::_Safe_sequence_base"* %3, i32 0, i32 2
  store i32 1, i32* %6, align 8
  ret void
}

; Function Attrs: noinline uwtable
define linkonce_odr void @_ZNSt9__cxx199812_Vector_baseIiSaIiEEC2EmRKS1_(%"struct.std::__cxx1998::_Vector_base"*, i64, %"class.std::allocator.0"* dereferenceable(1)) unnamed_addr #0 comdat align 2 personality i8* bitcast (i32 (...)* @__gxx_personality_v0 to i8*) {
  %4 = load i32, i32* @x.116
  %5 = load i32, i32* @y.117
  %6 = sub i32 0, 1
  %7 = add i32 %4, %6
  %8 = sub i32 %4, 1
  %9 = mul i32 %4, %7
  %10 = urem i32 %9, 2
  %11 = icmp eq i32 %10, 0
  %12 = icmp slt i32 %5, 10
  %13 = xor i1 %11, true
  %14 = xor i1 %12, true
  %15 = xor i1 false, true
  %16 = and i1 %13, false
  %17 = and i1 %11, %15
  %18 = and i1 %14, false
  %19 = and i1 %12, %15
  %20 = or i1 %16, %17
  %21 = or i1 %18, %19
  %22 = xor i1 %20, %21
  %23 = or i1 %13, %14
  %24 = xor i1 %23, true
  %25 = or i1 false, %15
  %26 = and i1 %24, %25
  %27 = or i1 %22, %26
  %28 = or i1 %11, %12
  br i1 %27, label %29, label %105

; <label>:29:                                     ; preds = %3, %105
  %30 = alloca %"struct.std::__cxx1998::_Vector_base"*, align 8
  %31 = alloca i64, align 8
  %32 = alloca %"class.std::allocator.0"*, align 8
  %33 = alloca i8*
  %34 = alloca i32
  store %"struct.std::__cxx1998::_Vector_base"* %0, %"struct.std::__cxx1998::_Vector_base"** %30, align 8
  store i64 %1, i64* %31, align 8
  store %"class.std::allocator.0"* %2, %"class.std::allocator.0"** %32, align 8
  %35 = load %"struct.std::__cxx1998::_Vector_base"*, %"struct.std::__cxx1998::_Vector_base"** %30, align 8
  %36 = getelementptr inbounds %"struct.std::__cxx1998::_Vector_base", %"struct.std::__cxx1998::_Vector_base"* %35, i32 0, i32 0
  %37 = load %"class.std::allocator.0"*, %"class.std::allocator.0"** %32, align 8
  call void @_ZNSt9__cxx199812_Vector_baseIiSaIiEE12_Vector_implC2ERKS1_(%"struct.std::__cxx1998::_Vector_base<int, std::allocator<int> >::_Vector_impl"* %36, %"class.std::allocator.0"* dereferenceable(1) %37) #3
  %38 = load i64, i64* %31, align 8
  %39 = load i32, i32* @x.116
  %40 = load i32, i32* @y.117
  %41 = add i32 %39, 800959023
  %42 = sub i32 %41, 1
  %43 = sub i32 %42, 800959023
  %44 = sub i32 %39, 1
  %45 = mul i32 %39, %43
  %46 = urem i32 %45, 2
  %47 = icmp eq i32 %46, 0
  %48 = icmp slt i32 %40, 10
  %49 = and i1 %47, %48
  %50 = xor i1 %47, %48
  %51 = or i1 %49, %50
  %52 = or i1 %47, %48
  br i1 %51, label %53, label %105

; <label>:53:                                     ; preds = %29
  invoke void @_ZNSt9__cxx199812_Vector_baseIiSaIiEE17_M_create_storageEm(%"struct.std::__cxx1998::_Vector_base"* %35, i64 %38)
          to label %54 unwind label %55

; <label>:54:                                     ; preds = %53
  ret void

; <label>:55:                                     ; preds = %53
  %56 = load i32, i32* @x.116
  %57 = load i32, i32* @y.117
  %58 = sub i32 0, 1
  %59 = add i32 %56, %58
  %60 = sub i32 %56, 1
  %61 = mul i32 %56, %59
  %62 = urem i32 %61, 2
  %63 = icmp eq i32 %62, 0
  %64 = icmp slt i32 %57, 10
  %65 = xor i1 %63, true
  %66 = xor i1 %64, true
  %67 = xor i1 false, true
  %68 = and i1 %65, false
  %69 = and i1 %63, %67
  %70 = and i1 %66, false
  %71 = and i1 %64, %67
  %72 = or i1 %68, %69
  %73 = or i1 %70, %71
  %74 = xor i1 %72, %73
  %75 = or i1 %65, %66
  %76 = xor i1 %75, true
  %77 = or i1 false, %67
  %78 = and i1 %76, %77
  %79 = or i1 %74, %78
  %80 = or i1 %63, %64
  br i1 %79, label %81, label %115

; <label>:81:                                     ; preds = %55, %115
  %82 = landingpad { i8*, i32 }
          cleanup
  %83 = extractvalue { i8*, i32 } %82, 0
  store i8* %83, i8** %33, align 8
  %84 = extractvalue { i8*, i32 } %82, 1
  store i32 %84, i32* %34, align 4
  call void @_ZNSt9__cxx199812_Vector_baseIiSaIiEE12_Vector_implD2Ev(%"struct.std::__cxx1998::_Vector_base<int, std::allocator<int> >::_Vector_impl"* %36) #3
  %85 = load i32, i32* @x.116
  %86 = load i32, i32* @y.117
  %87 = sub i32 %85, -1038670490
  %88 = sub i32 %87, 1
  %89 = add i32 %88, -1038670490
  %90 = sub i32 %85, 1
  %91 = mul i32 %85, %89
  %92 = urem i32 %91, 2
  %93 = icmp eq i32 %92, 0
  %94 = icmp slt i32 %86, 10
  %95 = and i1 %93, %94
  %96 = xor i1 %93, %94
  %97 = or i1 %95, %96
  %98 = or i1 %93, %94
  br i1 %97, label %99, label %115

; <label>:99:                                     ; preds = %81
  br label %100

; <label>:100:                                    ; preds = %99
  %101 = load i8*, i8** %33, align 8
  %102 = load i32, i32* %34, align 4
  %103 = insertvalue { i8*, i32 } undef, i8* %101, 0
  %104 = insertvalue { i8*, i32 } %103, i32 %102, 1
  resume { i8*, i32 } %104

; <label>:105:                                    ; preds = %29, %3
  %106 = alloca %"struct.std::__cxx1998::_Vector_base"*, align 8
  %107 = alloca i64, align 8
  %108 = alloca %"class.std::allocator.0"*, align 8
  %109 = alloca i8*
  %110 = alloca i32
  store %"struct.std::__cxx1998::_Vector_base"* %0, %"struct.std::__cxx1998::_Vector_base"** %106, align 8
  store i64 %1, i64* %107, align 8
  store %"class.std::allocator.0"* %2, %"class.std::allocator.0"** %108, align 8
  %111 = load %"struct.std::__cxx1998::_Vector_base"*, %"struct.std::__cxx1998::_Vector_base"** %106, align 8
  %112 = getelementptr inbounds %"struct.std::__cxx1998::_Vector_base", %"struct.std::__cxx1998::_Vector_base"* %111, i32 0, i32 0
  %113 = load %"class.std::allocator.0"*, %"class.std::allocator.0"** %108, align 8
  call void @_ZNSt9__cxx199812_Vector_baseIiSaIiEE12_Vector_implC2ERKS1_(%"struct.std::__cxx1998::_Vector_base<int, std::allocator<int> >::_Vector_impl"* %112, %"class.std::allocator.0"* dereferenceable(1) %113) #3
  %114 = load i64, i64* %107, align 8
  br label %29

; <label>:115:                                    ; preds = %81, %55
  %116 = landingpad { i8*, i32 }
          cleanup
  %117 = extractvalue { i8*, i32 } %116, 0
  store i8* %117, i8** %33, align 8
  %118 = extractvalue { i8*, i32 } %116, 1
  store i32 %118, i32* %34, align 4
  call void @_ZNSt9__cxx199812_Vector_baseIiSaIiEE12_Vector_implD2Ev(%"struct.std::__cxx1998::_Vector_base<int, std::allocator<int> >::_Vector_impl"* %36) #3
  br label %81
}

; Function Attrs: noinline uwtable
define linkonce_odr void @_ZNSt9__cxx19986vectorIiSaIiEE18_M_fill_initializeEmRKi(%"class.std::__cxx1998::vector"*, i64, i32* dereferenceable(4)) #0 comdat align 2 {
  %4 = alloca %"class.std::__cxx1998::vector"*, align 8
  %5 = alloca i64, align 8
  %6 = alloca i32*, align 8
  store %"class.std::__cxx1998::vector"* %0, %"class.std::__cxx1998::vector"** %4, align 8
  store i64 %1, i64* %5, align 8
  store i32* %2, i32** %6, align 8
  %7 = load %"class.std::__cxx1998::vector"*, %"class.std::__cxx1998::vector"** %4, align 8
  %8 = bitcast %"class.std::__cxx1998::vector"* %7 to %"struct.std::__cxx1998::_Vector_base"*
  %9 = getelementptr inbounds %"struct.std::__cxx1998::_Vector_base", %"struct.std::__cxx1998::_Vector_base"* %8, i32 0, i32 0
  %10 = getelementptr inbounds %"struct.std::__cxx1998::_Vector_base<int, std::allocator<int> >::_Vector_impl", %"struct.std::__cxx1998::_Vector_base<int, std::allocator<int> >::_Vector_impl"* %9, i32 0, i32 0
  %11 = load i32*, i32** %10, align 8
  %12 = load i64, i64* %5, align 8
  %13 = load i32*, i32** %6, align 8
  %14 = bitcast %"class.std::__cxx1998::vector"* %7 to %"struct.std::__cxx1998::_Vector_base"*
  %15 = call dereferenceable(1) %"class.std::allocator.0"* @_ZNSt9__cxx199812_Vector_baseIiSaIiEE19_M_get_Tp_allocatorEv(%"struct.std::__cxx1998::_Vector_base"* %14) #3
  %16 = call i32* @_ZSt24__uninitialized_fill_n_aIPimiiET_S1_T0_RKT1_RSaIT2_E(i32* %11, i64 %12, i32* dereferenceable(4) %13, %"class.std::allocator.0"* dereferenceable(1) %15)
  %17 = bitcast %"class.std::__cxx1998::vector"* %7 to %"struct.std::__cxx1998::_Vector_base"*
  %18 = getelementptr inbounds %"struct.std::__cxx1998::_Vector_base", %"struct.std::__cxx1998::_Vector_base"* %17, i32 0, i32 0
  %19 = getelementptr inbounds %"struct.std::__cxx1998::_Vector_base<int, std::allocator<int> >::_Vector_impl", %"struct.std::__cxx1998::_Vector_base<int, std::allocator<int> >::_Vector_impl"* %18, i32 0, i32 1
  store i32* %16, i32** %19, align 8
  ret void
}

; Function Attrs: noinline nounwind uwtable
define linkonce_odr void @_ZNSt9__cxx199812_Vector_baseIiSaIiEED2Ev(%"struct.std::__cxx1998::_Vector_base"*) unnamed_addr #4 comdat align 2 personality i8* bitcast (i32 (...)* @__gxx_personality_v0 to i8*) {
  %2 = alloca %"struct.std::__cxx1998::_Vector_base"*, align 8
  %3 = alloca i8*
  %4 = alloca i32
  store %"struct.std::__cxx1998::_Vector_base"* %0, %"struct.std::__cxx1998::_Vector_base"** %2, align 8
  %5 = load %"struct.std::__cxx1998::_Vector_base"*, %"struct.std::__cxx1998::_Vector_base"** %2, align 8
  %6 = getelementptr inbounds %"struct.std::__cxx1998::_Vector_base", %"struct.std::__cxx1998::_Vector_base"* %5, i32 0, i32 0
  %7 = getelementptr inbounds %"struct.std::__cxx1998::_Vector_base<int, std::allocator<int> >::_Vector_impl", %"struct.std::__cxx1998::_Vector_base<int, std::allocator<int> >::_Vector_impl"* %6, i32 0, i32 0
  %8 = load i32*, i32** %7, align 8
  %9 = getelementptr inbounds %"struct.std::__cxx1998::_Vector_base", %"struct.std::__cxx1998::_Vector_base"* %5, i32 0, i32 0
  %10 = getelementptr inbounds %"struct.std::__cxx1998::_Vector_base<int, std::allocator<int> >::_Vector_impl", %"struct.std::__cxx1998::_Vector_base<int, std::allocator<int> >::_Vector_impl"* %9, i32 0, i32 2
  %11 = load i32*, i32** %10, align 8
  %12 = getelementptr inbounds %"struct.std::__cxx1998::_Vector_base", %"struct.std::__cxx1998::_Vector_base"* %5, i32 0, i32 0
  %13 = getelementptr inbounds %"struct.std::__cxx1998::_Vector_base<int, std::allocator<int> >::_Vector_impl", %"struct.std::__cxx1998::_Vector_base<int, std::allocator<int> >::_Vector_impl"* %12, i32 0, i32 0
  %14 = load i32*, i32** %13, align 8
  %15 = ptrtoint i32* %11 to i64
  %16 = ptrtoint i32* %14 to i64
  %17 = sub i64 0, %16
  %18 = add i64 %15, %17
  %19 = sub i64 %15, %16
  %20 = sdiv exact i64 %18, 4
  invoke void @_ZNSt9__cxx199812_Vector_baseIiSaIiEE13_M_deallocateEPim(%"struct.std::__cxx1998::_Vector_base"* %5, i32* %8, i64 %20)
          to label %21 unwind label %23

; <label>:21:                                     ; preds = %1
  %22 = getelementptr inbounds %"struct.std::__cxx1998::_Vector_base", %"struct.std::__cxx1998::_Vector_base"* %5, i32 0, i32 0
  call void @_ZNSt9__cxx199812_Vector_baseIiSaIiEE12_Vector_implD2Ev(%"struct.std::__cxx1998::_Vector_base<int, std::allocator<int> >::_Vector_impl"* %22) #3
  ret void

; <label>:23:                                     ; preds = %1
  %24 = landingpad { i8*, i32 }
          catch i8* null
  %25 = extractvalue { i8*, i32 } %24, 0
  store i8* %25, i8** %3, align 8
  %26 = extractvalue { i8*, i32 } %24, 1
  store i32 %26, i32* %4, align 4
  %27 = getelementptr inbounds %"struct.std::__cxx1998::_Vector_base", %"struct.std::__cxx1998::_Vector_base"* %5, i32 0, i32 0
  call void @_ZNSt9__cxx199812_Vector_baseIiSaIiEE12_Vector_implD2Ev(%"struct.std::__cxx1998::_Vector_base<int, std::allocator<int> >::_Vector_impl"* %27) #3
  br label %28

; <label>:28:                                     ; preds = %23
  %29 = load i8*, i8** %3, align 8
  call void @__clang_call_terminate(i8* %29) #10
  unreachable
}

; Function Attrs: noinline nounwind uwtable
define linkonce_odr void @_ZNSt9__cxx199812_Vector_baseIiSaIiEE12_Vector_implC2ERKS1_(%"struct.std::__cxx1998::_Vector_base<int, std::allocator<int> >::_Vector_impl"*, %"class.std::allocator.0"* dereferenceable(1)) unnamed_addr #4 comdat align 2 {
  %3 = alloca %"struct.std::__cxx1998::_Vector_base<int, std::allocator<int> >::_Vector_impl"*, align 8
  %4 = alloca %"class.std::allocator.0"*, align 8
  store %"struct.std::__cxx1998::_Vector_base<int, std::allocator<int> >::_Vector_impl"* %0, %"struct.std::__cxx1998::_Vector_base<int, std::allocator<int> >::_Vector_impl"** %3, align 8
  store %"class.std::allocator.0"* %1, %"class.std::allocator.0"** %4, align 8
  %5 = load %"struct.std::__cxx1998::_Vector_base<int, std::allocator<int> >::_Vector_impl"*, %"struct.std::__cxx1998::_Vector_base<int, std::allocator<int> >::_Vector_impl"** %3, align 8
  %6 = bitcast %"struct.std::__cxx1998::_Vector_base<int, std::allocator<int> >::_Vector_impl"* %5 to %"class.std::allocator.0"*
  %7 = load %"class.std::allocator.0"*, %"class.std::allocator.0"** %4, align 8
  call void @_ZNSaIiEC2ERKS_(%"class.std::allocator.0"* %6, %"class.std::allocator.0"* dereferenceable(1) %7) #3
  %8 = getelementptr inbounds %"struct.std::__cxx1998::_Vector_base<int, std::allocator<int> >::_Vector_impl", %"struct.std::__cxx1998::_Vector_base<int, std::allocator<int> >::_Vector_impl"* %5, i32 0, i32 0
  store i32* null, i32** %8, align 8
  %9 = getelementptr inbounds %"struct.std::__cxx1998::_Vector_base<int, std::allocator<int> >::_Vector_impl", %"struct.std::__cxx1998::_Vector_base<int, std::allocator<int> >::_Vector_impl"* %5, i32 0, i32 1
  store i32* null, i32** %9, align 8
  %10 = getelementptr inbounds %"struct.std::__cxx1998::_Vector_base<int, std::allocator<int> >::_Vector_impl", %"struct.std::__cxx1998::_Vector_base<int, std::allocator<int> >::_Vector_impl"* %5, i32 0, i32 2
  store i32* null, i32** %10, align 8
  ret void
}

; Function Attrs: noinline uwtable
define linkonce_odr void @_ZNSt9__cxx199812_Vector_baseIiSaIiEE17_M_create_storageEm(%"struct.std::__cxx1998::_Vector_base"*, i64) #0 comdat align 2 {
  %3 = alloca %"struct.std::__cxx1998::_Vector_base"*, align 8
  %4 = alloca i64, align 8
  store %"struct.std::__cxx1998::_Vector_base"* %0, %"struct.std::__cxx1998::_Vector_base"** %3, align 8
  store i64 %1, i64* %4, align 8
  %5 = load %"struct.std::__cxx1998::_Vector_base"*, %"struct.std::__cxx1998::_Vector_base"** %3, align 8
  %6 = load i64, i64* %4, align 8
  %7 = call i32* @_ZNSt9__cxx199812_Vector_baseIiSaIiEE11_M_allocateEm(%"struct.std::__cxx1998::_Vector_base"* %5, i64 %6)
  %8 = getelementptr inbounds %"struct.std::__cxx1998::_Vector_base", %"struct.std::__cxx1998::_Vector_base"* %5, i32 0, i32 0
  %9 = getelementptr inbounds %"struct.std::__cxx1998::_Vector_base<int, std::allocator<int> >::_Vector_impl", %"struct.std::__cxx1998::_Vector_base<int, std::allocator<int> >::_Vector_impl"* %8, i32 0, i32 0
  store i32* %7, i32** %9, align 8
  %10 = getelementptr inbounds %"struct.std::__cxx1998::_Vector_base", %"struct.std::__cxx1998::_Vector_base"* %5, i32 0, i32 0
  %11 = getelementptr inbounds %"struct.std::__cxx1998::_Vector_base<int, std::allocator<int> >::_Vector_impl", %"struct.std::__cxx1998::_Vector_base<int, std::allocator<int> >::_Vector_impl"* %10, i32 0, i32 0
  %12 = load i32*, i32** %11, align 8
  %13 = getelementptr inbounds %"struct.std::__cxx1998::_Vector_base", %"struct.std::__cxx1998::_Vector_base"* %5, i32 0, i32 0
  %14 = getelementptr inbounds %"struct.std::__cxx1998::_Vector_base<int, std::allocator<int> >::_Vector_impl", %"struct.std::__cxx1998::_Vector_base<int, std::allocator<int> >::_Vector_impl"* %13, i32 0, i32 1
  store i32* %12, i32** %14, align 8
  %15 = getelementptr inbounds %"struct.std::__cxx1998::_Vector_base", %"struct.std::__cxx1998::_Vector_base"* %5, i32 0, i32 0
  %16 = getelementptr inbounds %"struct.std::__cxx1998::_Vector_base<int, std::allocator<int> >::_Vector_impl", %"struct.std::__cxx1998::_Vector_base<int, std::allocator<int> >::_Vector_impl"* %15, i32 0, i32 0
  %17 = load i32*, i32** %16, align 8
  %18 = load i64, i64* %4, align 8
  %19 = getelementptr inbounds i32, i32* %17, i64 %18
  %20 = getelementptr inbounds %"struct.std::__cxx1998::_Vector_base", %"struct.std::__cxx1998::_Vector_base"* %5, i32 0, i32 0
  %21 = getelementptr inbounds %"struct.std::__cxx1998::_Vector_base<int, std::allocator<int> >::_Vector_impl", %"struct.std::__cxx1998::_Vector_base<int, std::allocator<int> >::_Vector_impl"* %20, i32 0, i32 2
  store i32* %19, i32** %21, align 8
  ret void
}

; Function Attrs: noinline nounwind uwtable
define linkonce_odr void @_ZNSt9__cxx199812_Vector_baseIiSaIiEE12_Vector_implD2Ev(%"struct.std::__cxx1998::_Vector_base<int, std::allocator<int> >::_Vector_impl"*) unnamed_addr #4 comdat align 2 {
  %2 = alloca %"struct.std::__cxx1998::_Vector_base<int, std::allocator<int> >::_Vector_impl"*, align 8
  store %"struct.std::__cxx1998::_Vector_base<int, std::allocator<int> >::_Vector_impl"* %0, %"struct.std::__cxx1998::_Vector_base<int, std::allocator<int> >::_Vector_impl"** %2, align 8
  %3 = load %"struct.std::__cxx1998::_Vector_base<int, std::allocator<int> >::_Vector_impl"*, %"struct.std::__cxx1998::_Vector_base<int, std::allocator<int> >::_Vector_impl"** %2, align 8
  %4 = bitcast %"struct.std::__cxx1998::_Vector_base<int, std::allocator<int> >::_Vector_impl"* %3 to %"class.std::allocator.0"*
  call void @_ZNSaIiED2Ev(%"class.std::allocator.0"* %4) #3
  ret void
}

; Function Attrs: noinline nounwind uwtable
define linkonce_odr void @_ZN9__gnu_cxx13new_allocatorIiEC2ERKS1_(%"class.__gnu_cxx::new_allocator.1"*, %"class.__gnu_cxx::new_allocator.1"* dereferenceable(1)) unnamed_addr #4 comdat align 2 {
  %3 = alloca %"class.__gnu_cxx::new_allocator.1"*, align 8
  %4 = alloca %"class.__gnu_cxx::new_allocator.1"*, align 8
  store %"class.__gnu_cxx::new_allocator.1"* %0, %"class.__gnu_cxx::new_allocator.1"** %3, align 8
  store %"class.__gnu_cxx::new_allocator.1"* %1, %"class.__gnu_cxx::new_allocator.1"** %4, align 8
  %5 = load %"class.__gnu_cxx::new_allocator.1"*, %"class.__gnu_cxx::new_allocator.1"** %3, align 8
  ret void
}

; Function Attrs: noinline uwtable
define linkonce_odr i32* @_ZNSt9__cxx199812_Vector_baseIiSaIiEE11_M_allocateEm(%"struct.std::__cxx1998::_Vector_base"*, i64) #0 comdat align 2 {
  %3 = alloca i64
  %4 = alloca %"struct.std::__cxx1998::_Vector_base"*
  %5 = alloca %"struct.std::__cxx1998::_Vector_base"*, align 8
  %6 = alloca i64, align 8
  store %"struct.std::__cxx1998::_Vector_base"* %0, %"struct.std::__cxx1998::_Vector_base"** %5, align 8
  store i64 %1, i64* %6, align 8
  %7 = load %"struct.std::__cxx1998::_Vector_base"*, %"struct.std::__cxx1998::_Vector_base"** %5, align 8
  store %"struct.std::__cxx1998::_Vector_base"* %7, %"struct.std::__cxx1998::_Vector_base"** %4
  %8 = load i64, i64* %6, align 8
  store i64 %8, i64* %3
  %9 = alloca i32
  store i32 -1587403085, i32* %9
  %10 = alloca i32*
  br label %11

; <label>:11:                                     ; preds = %2, %84
  %12 = load i32, i32* %9
  switch i32 %12, label %13 [
    i32 -1587403085, label %14
    i32 962668030, label %18
    i32 1721356187, label %24
    i32 -605078669, label %52
    i32 1081513703, label %80
    i32 -926823613, label %81
    i32 1904779101, label %83
  ]

; <label>:13:                                     ; preds = %11
  br label %84

; <label>:14:                                     ; preds = %11
  %15 = load volatile i64, i64* %3
  %16 = icmp ne i64 %15, 0
  %17 = select i1 %16, i32 962668030, i32 1721356187
  store i32 %17, i32* %9
  br label %84

; <label>:18:                                     ; preds = %11
  %19 = load volatile %"struct.std::__cxx1998::_Vector_base"*, %"struct.std::__cxx1998::_Vector_base"** %4
  %20 = getelementptr inbounds %"struct.std::__cxx1998::_Vector_base", %"struct.std::__cxx1998::_Vector_base"* %19, i32 0, i32 0
  %21 = bitcast %"struct.std::__cxx1998::_Vector_base<int, std::allocator<int> >::_Vector_impl"* %20 to %"class.std::allocator.0"*
  %22 = load i64, i64* %6, align 8
  %23 = call i32* @_ZNSt16allocator_traitsISaIiEE8allocateERS0_m(%"class.std::allocator.0"* dereferenceable(1) %21, i64 %22)
  store i32 -926823613, i32* %9
  store i32* %23, i32** %10
  br label %84

; <label>:24:                                     ; preds = %11
  %25 = load i32, i32* @x.130
  %26 = load i32, i32* @y.131
  %27 = sub i32 %25, -1566616058
  %28 = sub i32 %27, 1
  %29 = add i32 %28, -1566616058
  %30 = sub i32 %25, 1
  %31 = mul i32 %25, %29
  %32 = urem i32 %31, 2
  %33 = icmp eq i32 %32, 0
  %34 = icmp slt i32 %26, 10
  %35 = xor i1 %33, true
  %36 = xor i1 %34, true
  %37 = xor i1 false, true
  %38 = and i1 %35, false
  %39 = and i1 %33, %37
  %40 = and i1 %36, false
  %41 = and i1 %34, %37
  %42 = or i1 %38, %39
  %43 = or i1 %40, %41
  %44 = xor i1 %42, %43
  %45 = or i1 %35, %36
  %46 = xor i1 %45, true
  %47 = or i1 false, %37
  %48 = and i1 %46, %47
  %49 = or i1 %44, %48
  %50 = or i1 %33, %34
  %51 = select i1 %49, i32 -605078669, i32 1904779101
  store i32 %51, i32* %9
  br label %84

; <label>:52:                                     ; preds = %11
  %53 = load i32, i32* @x.130
  %54 = load i32, i32* @y.131
  %55 = add i32 %53, -71623871
  %56 = sub i32 %55, 1
  %57 = sub i32 %56, -71623871
  %58 = sub i32 %53, 1
  %59 = mul i32 %53, %57
  %60 = urem i32 %59, 2
  %61 = icmp eq i32 %60, 0
  %62 = icmp slt i32 %54, 10
  %63 = xor i1 %61, true
  %64 = xor i1 %62, true
  %65 = xor i1 true, true
  %66 = and i1 %63, true
  %67 = and i1 %61, %65
  %68 = and i1 %64, true
  %69 = and i1 %62, %65
  %70 = or i1 %66, %67
  %71 = or i1 %68, %69
  %72 = xor i1 %70, %71
  %73 = or i1 %63, %64
  %74 = xor i1 %73, true
  %75 = or i1 true, %65
  %76 = and i1 %74, %75
  %77 = or i1 %72, %76
  %78 = or i1 %61, %62
  %79 = select i1 %77, i32 1081513703, i32 1904779101
  store i32 %79, i32* %9
  br label %84

; <label>:80:                                     ; preds = %11
  store i32 -926823613, i32* %9
  store i32* null, i32** %10
  br label %84

; <label>:81:                                     ; preds = %11
  %82 = load i32*, i32** %10
  ret i32* %82

; <label>:83:                                     ; preds = %11
  store i32 -605078669, i32* %9
  br label %84

; <label>:84:                                     ; preds = %83, %80, %52, %24, %18, %14, %13
  br label %11
}

; Function Attrs: noinline uwtable
define linkonce_odr i32* @_ZNSt16allocator_traitsISaIiEE8allocateERS0_m(%"class.std::allocator.0"* dereferenceable(1), i64) #0 comdat align 2 {
  %3 = alloca %"class.std::allocator.0"*, align 8
  %4 = alloca i64, align 8
  store %"class.std::allocator.0"* %0, %"class.std::allocator.0"** %3, align 8
  store i64 %1, i64* %4, align 8
  %5 = load %"class.std::allocator.0"*, %"class.std::allocator.0"** %3, align 8
  %6 = bitcast %"class.std::allocator.0"* %5 to %"class.__gnu_cxx::new_allocator.1"*
  %7 = load i64, i64* %4, align 8
  %8 = call i32* @_ZN9__gnu_cxx13new_allocatorIiE8allocateEmPKv(%"class.__gnu_cxx::new_allocator.1"* %6, i64 %7, i8* null)
  ret i32* %8
}

; Function Attrs: noinline uwtable
define linkonce_odr i32* @_ZN9__gnu_cxx13new_allocatorIiE8allocateEmPKv(%"class.__gnu_cxx::new_allocator.1"*, i64, i8*) #0 comdat align 2 {
  %4 = alloca i64
  %5 = alloca i64
  %6 = alloca %"class.__gnu_cxx::new_allocator.1"*, align 8
  %7 = alloca i64, align 8
  %8 = alloca i8*, align 8
  store %"class.__gnu_cxx::new_allocator.1"* %0, %"class.__gnu_cxx::new_allocator.1"** %6, align 8
  store i64 %1, i64* %7, align 8
  store i8* %2, i8** %8, align 8
  %9 = load %"class.__gnu_cxx::new_allocator.1"*, %"class.__gnu_cxx::new_allocator.1"** %6, align 8
  %10 = load i64, i64* %7, align 8
  store i64 %10, i64* %5
  %11 = call i64 @_ZNK9__gnu_cxx13new_allocatorIiE8max_sizeEv(%"class.__gnu_cxx::new_allocator.1"* %9) #3
  store i64 %11, i64* %4
  %12 = alloca i32
  store i32 1671873574, i32* %12
  br label %13

; <label>:13:                                     ; preds = %3, %72
  %14 = load i32, i32* %12
  switch i32 %14, label %15 [
    i32 1671873574, label %16
    i32 -1499194213, label %21
    i32 -1188733672, label %49
    i32 1473839327, label %65
    i32 -1563927337, label %66
    i32 -448433455, label %71
  ]

; <label>:15:                                     ; preds = %13
  br label %72

; <label>:16:                                     ; preds = %13
  %17 = load volatile i64, i64* %5
  %18 = load volatile i64, i64* %4
  %19 = icmp ugt i64 %17, %18
  %20 = select i1 %19, i32 -1499194213, i32 -1563927337
  store i32 %20, i32* %12
  br label %72

; <label>:21:                                     ; preds = %13
  %22 = load i32, i32* @x.134
  %23 = load i32, i32* @y.135
  %24 = sub i32 %22, -739738517
  %25 = sub i32 %24, 1
  %26 = add i32 %25, -739738517
  %27 = sub i32 %22, 1
  %28 = mul i32 %22, %26
  %29 = urem i32 %28, 2
  %30 = icmp eq i32 %29, 0
  %31 = icmp slt i32 %23, 10
  %32 = xor i1 %30, true
  %33 = xor i1 %31, true
  %34 = xor i1 true, true
  %35 = and i1 %32, true
  %36 = and i1 %30, %34
  %37 = and i1 %33, true
  %38 = and i1 %31, %34
  %39 = or i1 %35, %36
  %40 = or i1 %37, %38
  %41 = xor i1 %39, %40
  %42 = or i1 %32, %33
  %43 = xor i1 %42, true
  %44 = or i1 true, %34
  %45 = and i1 %43, %44
  %46 = or i1 %41, %45
  %47 = or i1 %30, %31
  %48 = select i1 %46, i32 -1188733672, i32 -448433455
  store i32 %48, i32* %12
  br label %72

; <label>:49:                                     ; preds = %13
  call void @_ZSt17__throw_bad_allocv() #13
  %50 = load i32, i32* @x.134
  %51 = load i32, i32* @y.135
  %52 = add i32 %50, 2071493012
  %53 = sub i32 %52, 1
  %54 = sub i32 %53, 2071493012
  %55 = sub i32 %50, 1
  %56 = mul i32 %50, %54
  %57 = urem i32 %56, 2
  %58 = icmp eq i32 %57, 0
  %59 = icmp slt i32 %51, 10
  %60 = and i1 %58, %59
  %61 = xor i1 %58, %59
  %62 = or i1 %60, %61
  %63 = or i1 %58, %59
  %64 = select i1 %62, i32 1473839327, i32 -448433455
  store i32 %64, i32* %12
  br label %72

; <label>:65:                                     ; preds = %13
  unreachable

; <label>:66:                                     ; preds = %13
  %67 = load i64, i64* %7, align 8
  %68 = mul i64 %67, 4
  %69 = call i8* @_Znwm(i64 %68)
  %70 = bitcast i8* %69 to i32*
  ret i32* %70

; <label>:71:                                     ; preds = %13
  call void @_ZSt17__throw_bad_allocv() #13
  store i32 -1188733672, i32* %12
  br label %72

; <label>:72:                                     ; preds = %71, %49, %21, %16, %15
  br label %13
}

; Function Attrs: noinline nounwind uwtable
define linkonce_odr i64 @_ZNK9__gnu_cxx13new_allocatorIiE8max_sizeEv(%"class.__gnu_cxx::new_allocator.1"*) #4 comdat align 2 {
  %2 = alloca %"class.__gnu_cxx::new_allocator.1"*, align 8
  store %"class.__gnu_cxx::new_allocator.1"* %0, %"class.__gnu_cxx::new_allocator.1"** %2, align 8
  %3 = load %"class.__gnu_cxx::new_allocator.1"*, %"class.__gnu_cxx::new_allocator.1"** %2, align 8
  ret i64 4611686018427387903
}

; Function Attrs: noreturn
declare void @_ZSt17__throw_bad_allocv() #6

; Function Attrs: nobuiltin
declare noalias i8* @_Znwm(i64) #7

; Function Attrs: noinline nounwind uwtable
define linkonce_odr void @_ZN9__gnu_cxx13new_allocatorIiED2Ev(%"class.__gnu_cxx::new_allocator.1"*) unnamed_addr #4 comdat align 2 {
  %2 = alloca %"class.__gnu_cxx::new_allocator.1"*, align 8
  store %"class.__gnu_cxx::new_allocator.1"* %0, %"class.__gnu_cxx::new_allocator.1"** %2, align 8
  %3 = load %"class.__gnu_cxx::new_allocator.1"*, %"class.__gnu_cxx::new_allocator.1"** %2, align 8
  ret void
}

; Function Attrs: noinline uwtable
define linkonce_odr i32* @_ZSt24__uninitialized_fill_n_aIPimiiET_S1_T0_RKT1_RSaIT2_E(i32*, i64, i32* dereferenceable(4), %"class.std::allocator.0"* dereferenceable(1)) #0 comdat {
  %5 = alloca i32*
  %6 = alloca i1
  %7 = alloca i1
  %8 = load i32, i32* @x.140
  %9 = load i32, i32* @y.141
  %10 = sub i32 0, 1
  %11 = add i32 %8, %10
  %12 = sub i32 %8, 1
  %13 = mul i32 %8, %11
  %14 = urem i32 %13, 2
  %15 = icmp eq i32 %14, 0
  store i1 %15, i1* %7
  %16 = icmp slt i32 %9, 10
  store i1 %16, i1* %6
  %17 = alloca i32
  store i32 1477042766, i32* %17
  br label %18

; <label>:18:                                     ; preds = %4, %64
  %19 = load i32, i32* %17
  switch i32 %19, label %20 [
    i32 1477042766, label %21
    i32 -2090601845, label %29
    i32 -1486262444, label %53
    i32 1765502148, label %55
  ]

; <label>:20:                                     ; preds = %18
  br label %64

; <label>:21:                                     ; preds = %18
  %22 = load volatile i1, i1* %7
  %23 = load volatile i1, i1* %6
  %24 = and i1 %22, %23
  %25 = xor i1 %22, %23
  %26 = or i1 %24, %25
  %27 = or i1 %22, %23
  %28 = select i1 %26, i32 -2090601845, i32 1765502148
  store i32 %28, i32* %17
  br label %64

; <label>:29:                                     ; preds = %18
  %30 = alloca i32*, align 8
  %31 = alloca i64, align 8
  %32 = alloca i32*, align 8
  %33 = alloca %"class.std::allocator.0"*, align 8
  store i32* %0, i32** %30, align 8
  store i64 %1, i64* %31, align 8
  store i32* %2, i32** %32, align 8
  store %"class.std::allocator.0"* %3, %"class.std::allocator.0"** %33, align 8
  %34 = load i32*, i32** %30, align 8
  %35 = load i64, i64* %31, align 8
  %36 = load i32*, i32** %32, align 8
  %37 = call i32* @_ZSt20uninitialized_fill_nIPimiET_S1_T0_RKT1_(i32* %34, i64 %35, i32* dereferenceable(4) %36)
  store i32* %37, i32** %5
  %38 = load i32, i32* @x.140
  %39 = load i32, i32* @y.141
  %40 = add i32 %38, 440228927
  %41 = sub i32 %40, 1
  %42 = sub i32 %41, 440228927
  %43 = sub i32 %38, 1
  %44 = mul i32 %38, %42
  %45 = urem i32 %44, 2
  %46 = icmp eq i32 %45, 0
  %47 = icmp slt i32 %39, 10
  %48 = and i1 %46, %47
  %49 = xor i1 %46, %47
  %50 = or i1 %48, %49
  %51 = or i1 %46, %47
  %52 = select i1 %50, i32 -1486262444, i32 1765502148
  store i32 %52, i32* %17
  br label %64

; <label>:53:                                     ; preds = %18
  %54 = load volatile i32*, i32** %5
  ret i32* %54

; <label>:55:                                     ; preds = %18
  %56 = alloca i32*, align 8
  %57 = alloca i64, align 8
  %58 = alloca i32*, align 8
  %59 = alloca %"class.std::allocator.0"*, align 8
  store i32* %0, i32** %56, align 8
  store i64 %1, i64* %57, align 8
  store i32* %2, i32** %58, align 8
  store %"class.std::allocator.0"* %3, %"class.std::allocator.0"** %59, align 8
  %60 = load i32*, i32** %56, align 8
  %61 = load i64, i64* %57, align 8
  %62 = load i32*, i32** %58, align 8
  %63 = call i32* @_ZSt20uninitialized_fill_nIPimiET_S1_T0_RKT1_(i32* %60, i64 %61, i32* dereferenceable(4) %62)
  store i32 -2090601845, i32* %17
  br label %64

; <label>:64:                                     ; preds = %55, %29, %21, %20
  br label %18
}

; Function Attrs: noinline nounwind uwtable
define linkonce_odr dereferenceable(1) %"class.std::allocator.0"* @_ZNSt9__cxx199812_Vector_baseIiSaIiEE19_M_get_Tp_allocatorEv(%"struct.std::__cxx1998::_Vector_base"*) #4 comdat align 2 {
  %2 = alloca %"struct.std::__cxx1998::_Vector_base"*, align 8
  store %"struct.std::__cxx1998::_Vector_base"* %0, %"struct.std::__cxx1998::_Vector_base"** %2, align 8
  %3 = load %"struct.std::__cxx1998::_Vector_base"*, %"struct.std::__cxx1998::_Vector_base"** %2, align 8
  %4 = getelementptr inbounds %"struct.std::__cxx1998::_Vector_base", %"struct.std::__cxx1998::_Vector_base"* %3, i32 0, i32 0
  %5 = bitcast %"struct.std::__cxx1998::_Vector_base<int, std::allocator<int> >::_Vector_impl"* %4 to %"class.std::allocator.0"*
  ret %"class.std::allocator.0"* %5
}

; Function Attrs: noinline uwtable
define linkonce_odr i32* @_ZSt20uninitialized_fill_nIPimiET_S1_T0_RKT1_(i32*, i64, i32* dereferenceable(4)) #0 comdat {
  %4 = alloca i32*
  %5 = alloca i1
  %6 = alloca i1
  %7 = load i32, i32* @x.144
  %8 = load i32, i32* @y.145
  %9 = sub i32 0, 1
  %10 = add i32 %7, %9
  %11 = sub i32 %7, 1
  %12 = mul i32 %7, %10
  %13 = urem i32 %12, 2
  %14 = icmp eq i32 %13, 0
  store i1 %14, i1* %6
  %15 = icmp slt i32 %8, 10
  store i1 %15, i1* %5
  %16 = alloca i32
  store i32 1574377701, i32* %16
  br label %17

; <label>:17:                                     ; preds = %3, %87
  %18 = load i32, i32* %16
  switch i32 %18, label %19 [
    i32 1574377701, label %20
    i32 1732638767, label %40
    i32 1037349059, label %76
    i32 255756519, label %78
  ]

; <label>:19:                                     ; preds = %17
  br label %87

; <label>:20:                                     ; preds = %17
  %21 = load volatile i1, i1* %6
  %22 = load volatile i1, i1* %5
  %23 = xor i1 %21, true
  %24 = xor i1 %22, true
  %25 = xor i1 false, true
  %26 = and i1 %23, false
  %27 = and i1 %21, %25
  %28 = and i1 %24, false
  %29 = and i1 %22, %25
  %30 = or i1 %26, %27
  %31 = or i1 %28, %29
  %32 = xor i1 %30, %31
  %33 = or i1 %23, %24
  %34 = xor i1 %33, true
  %35 = or i1 false, %25
  %36 = and i1 %34, %35
  %37 = or i1 %32, %36
  %38 = or i1 %21, %22
  %39 = select i1 %37, i32 1732638767, i32 255756519
  store i32 %39, i32* %16
  br label %87

; <label>:40:                                     ; preds = %17
  %41 = alloca i32*, align 8
  %42 = alloca i64, align 8
  %43 = alloca i32*, align 8
  %44 = alloca i8, align 1
  store i32* %0, i32** %41, align 8
  store i64 %1, i64* %42, align 8
  store i32* %2, i32** %43, align 8
  store i8 1, i8* %44, align 1
  %45 = load i32*, i32** %41, align 8
  %46 = load i64, i64* %42, align 8
  %47 = load i32*, i32** %43, align 8
  %48 = call i32* @_ZNSt22__uninitialized_fill_nILb1EE15__uninit_fill_nIPimiEET_S3_T0_RKT1_(i32* %45, i64 %46, i32* dereferenceable(4) %47)
  store i32* %48, i32** %4
  %49 = load i32, i32* @x.144
  %50 = load i32, i32* @y.145
  %51 = sub i32 %49, -1612200763
  %52 = sub i32 %51, 1
  %53 = add i32 %52, -1612200763
  %54 = sub i32 %49, 1
  %55 = mul i32 %49, %53
  %56 = urem i32 %55, 2
  %57 = icmp eq i32 %56, 0
  %58 = icmp slt i32 %50, 10
  %59 = xor i1 %57, true
  %60 = xor i1 %58, true
  %61 = xor i1 false, true
  %62 = and i1 %59, false
  %63 = and i1 %57, %61
  %64 = and i1 %60, false
  %65 = and i1 %58, %61
  %66 = or i1 %62, %63
  %67 = or i1 %64, %65
  %68 = xor i1 %66, %67
  %69 = or i1 %59, %60
  %70 = xor i1 %69, true
  %71 = or i1 false, %61
  %72 = and i1 %70, %71
  %73 = or i1 %68, %72
  %74 = or i1 %57, %58
  %75 = select i1 %73, i32 1037349059, i32 255756519
  store i32 %75, i32* %16
  br label %87

; <label>:76:                                     ; preds = %17
  %77 = load volatile i32*, i32** %4
  ret i32* %77

; <label>:78:                                     ; preds = %17
  %79 = alloca i32*, align 8
  %80 = alloca i64, align 8
  %81 = alloca i32*, align 8
  %82 = alloca i8, align 1
  store i32* %0, i32** %79, align 8
  store i64 %1, i64* %80, align 8
  store i32* %2, i32** %81, align 8
  store i8 1, i8* %82, align 1
  %83 = load i32*, i32** %79, align 8
  %84 = load i64, i64* %80, align 8
  %85 = load i32*, i32** %81, align 8
  %86 = call i32* @_ZNSt22__uninitialized_fill_nILb1EE15__uninit_fill_nIPimiEET_S3_T0_RKT1_(i32* %83, i64 %84, i32* dereferenceable(4) %85)
  store i32 1732638767, i32* %16
  br label %87

; <label>:87:                                     ; preds = %78, %40, %20, %19
  br label %17
}

; Function Attrs: noinline uwtable
define linkonce_odr i32* @_ZNSt22__uninitialized_fill_nILb1EE15__uninit_fill_nIPimiEET_S3_T0_RKT1_(i32*, i64, i32* dereferenceable(4)) #0 comdat align 2 {
  %4 = alloca i32*
  %5 = alloca i1
  %6 = alloca i1
  %7 = load i32, i32* @x.146
  %8 = load i32, i32* @y.147
  %9 = add i32 %7, 1026007634
  %10 = sub i32 %9, 1
  %11 = sub i32 %10, 1026007634
  %12 = sub i32 %7, 1
  %13 = mul i32 %7, %11
  %14 = urem i32 %13, 2
  %15 = icmp eq i32 %14, 0
  store i1 %15, i1* %6
  %16 = icmp slt i32 %8, 10
  store i1 %16, i1* %5
  %17 = alloca i32
  store i32 1648503135, i32* %17
  br label %18

; <label>:18:                                     ; preds = %3, %73
  %19 = load i32, i32* %17
  switch i32 %19, label %20 [
    i32 1648503135, label %21
    i32 1971859719, label %41
    i32 -1372313280, label %63
    i32 2061070337, label %65
  ]

; <label>:20:                                     ; preds = %18
  br label %73

; <label>:21:                                     ; preds = %18
  %22 = load volatile i1, i1* %6
  %23 = load volatile i1, i1* %5
  %24 = xor i1 %22, true
  %25 = xor i1 %23, true
  %26 = xor i1 true, true
  %27 = and i1 %24, true
  %28 = and i1 %22, %26
  %29 = and i1 %25, true
  %30 = and i1 %23, %26
  %31 = or i1 %27, %28
  %32 = or i1 %29, %30
  %33 = xor i1 %31, %32
  %34 = or i1 %24, %25
  %35 = xor i1 %34, true
  %36 = or i1 true, %26
  %37 = and i1 %35, %36
  %38 = or i1 %33, %37
  %39 = or i1 %22, %23
  %40 = select i1 %38, i32 1971859719, i32 2061070337
  store i32 %40, i32* %17
  br label %73

; <label>:41:                                     ; preds = %18
  %42 = alloca i32*, align 8
  %43 = alloca i64, align 8
  %44 = alloca i32*, align 8
  store i32* %0, i32** %42, align 8
  store i64 %1, i64* %43, align 8
  store i32* %2, i32** %44, align 8
  %45 = load i32*, i32** %42, align 8
  %46 = load i64, i64* %43, align 8
  %47 = load i32*, i32** %44, align 8
  %48 = call i32* @_ZSt6fill_nIPimiET_S1_T0_RKT1_(i32* %45, i64 %46, i32* dereferenceable(4) %47)
  store i32* %48, i32** %4
  %49 = load i32, i32* @x.146
  %50 = load i32, i32* @y.147
  %51 = sub i32 0, 1
  %52 = add i32 %49, %51
  %53 = sub i32 %49, 1
  %54 = mul i32 %49, %52
  %55 = urem i32 %54, 2
  %56 = icmp eq i32 %55, 0
  %57 = icmp slt i32 %50, 10
  %58 = and i1 %56, %57
  %59 = xor i1 %56, %57
  %60 = or i1 %58, %59
  %61 = or i1 %56, %57
  %62 = select i1 %60, i32 -1372313280, i32 2061070337
  store i32 %62, i32* %17
  br label %73

; <label>:63:                                     ; preds = %18
  %64 = load volatile i32*, i32** %4
  ret i32* %64

; <label>:65:                                     ; preds = %18
  %66 = alloca i32*, align 8
  %67 = alloca i64, align 8
  %68 = alloca i32*, align 8
  store i32* %0, i32** %66, align 8
  store i64 %1, i64* %67, align 8
  store i32* %2, i32** %68, align 8
  %69 = load i32*, i32** %66, align 8
  %70 = load i64, i64* %67, align 8
  %71 = load i32*, i32** %68, align 8
  %72 = call i32* @_ZSt6fill_nIPimiET_S1_T0_RKT1_(i32* %69, i64 %70, i32* dereferenceable(4) %71)
  store i32 1971859719, i32* %17
  br label %73

; <label>:73:                                     ; preds = %65, %41, %21, %20
  br label %18
}

; Function Attrs: noinline uwtable
define linkonce_odr i32* @_ZSt6fill_nIPimiET_S1_T0_RKT1_(i32*, i64, i32* dereferenceable(4)) #0 comdat {
  %4 = alloca i32*, align 8
  %5 = alloca i64, align 8
  %6 = alloca i32*, align 8
  store i32* %0, i32** %4, align 8
  store i64 %1, i64* %5, align 8
  store i32* %2, i32** %6, align 8
  %7 = load i32*, i32** %4, align 8
  %8 = call i32* @_ZSt12__niter_baseIPiENSt11_Niter_baseIT_E13iterator_typeES2_(i32* %7)
  %9 = load i64, i64* %5, align 8
  %10 = load i32*, i32** %6, align 8
  %11 = call i32* @_ZSt10__fill_n_aIPimiEN9__gnu_cxx11__enable_ifIXsr11__is_scalarIT1_EE7__valueET_E6__typeES4_T0_RKS3_(i32* %8, i64 %9, i32* dereferenceable(4) %10)
  ret i32* %11
}

; Function Attrs: noinline nounwind uwtable
define linkonce_odr i32* @_ZSt10__fill_n_aIPimiEN9__gnu_cxx11__enable_ifIXsr11__is_scalarIT1_EE7__valueET_E6__typeES4_T0_RKS3_(i32*, i64, i32* dereferenceable(4)) #4 comdat {
  %4 = alloca i1
  %5 = alloca i32*, align 8
  %6 = alloca i64, align 8
  %7 = alloca i32*, align 8
  %8 = alloca i32, align 4
  %9 = alloca i64, align 8
  store i32* %0, i32** %5, align 8
  store i64 %1, i64* %6, align 8
  store i32* %2, i32** %7, align 8
  %10 = load i32*, i32** %7, align 8
  %11 = load i32, i32* %10, align 4
  store i32 %11, i32* %8, align 4
  %12 = load i64, i64* %6, align 8
  store i64 %12, i64* %9, align 8
  %13 = alloca i32
  store i32 -1661724195, i32* %13
  br label %14

; <label>:14:                                     ; preds = %3, %81
  %15 = load i32, i32* %13
  switch i32 %15, label %16 [
    i32 -1661724195, label %17
    i32 -1251202660, label %33
    i32 2125172676, label %62
    i32 -1287017840, label %65
    i32 -1634108640, label %68
    i32 313252468, label %76
    i32 1247848159, label %78
  ]

; <label>:16:                                     ; preds = %14
  br label %81

; <label>:17:                                     ; preds = %14
  %18 = load i32, i32* @x.150
  %19 = load i32, i32* @y.151
  %20 = add i32 %18, -1915845000
  %21 = sub i32 %20, 1
  %22 = sub i32 %21, -1915845000
  %23 = sub i32 %18, 1
  %24 = mul i32 %18, %22
  %25 = urem i32 %24, 2
  %26 = icmp eq i32 %25, 0
  %27 = icmp slt i32 %19, 10
  %28 = and i1 %26, %27
  %29 = xor i1 %26, %27
  %30 = or i1 %28, %29
  %31 = or i1 %26, %27
  %32 = select i1 %30, i32 -1251202660, i32 1247848159
  store i32 %32, i32* %13
  br label %81

; <label>:33:                                     ; preds = %14
  %34 = load i64, i64* %9, align 8
  %35 = icmp ugt i64 %34, 0
  store i1 %35, i1* %4
  %36 = load i32, i32* @x.150
  %37 = load i32, i32* @y.151
  %38 = sub i32 0, 1
  %39 = add i32 %36, %38
  %40 = sub i32 %36, 1
  %41 = mul i32 %36, %39
  %42 = urem i32 %41, 2
  %43 = icmp eq i32 %42, 0
  %44 = icmp slt i32 %37, 10
  %45 = xor i1 %43, true
  %46 = xor i1 %44, true
  %47 = xor i1 true, true
  %48 = and i1 %45, true
  %49 = and i1 %43, %47
  %50 = and i1 %46, true
  %51 = and i1 %44, %47
  %52 = or i1 %48, %49
  %53 = or i1 %50, %51
  %54 = xor i1 %52, %53
  %55 = or i1 %45, %46
  %56 = xor i1 %55, true
  %57 = or i1 true, %47
  %58 = and i1 %56, %57
  %59 = or i1 %54, %58
  %60 = or i1 %43, %44
  %61 = select i1 %59, i32 2125172676, i32 1247848159
  store i32 %61, i32* %13
  br label %81

; <label>:62:                                     ; preds = %14
  %63 = load volatile i1, i1* %4
  %64 = select i1 %63, i32 -1287017840, i32 313252468
  store i32 %64, i32* %13
  br label %81

; <label>:65:                                     ; preds = %14
  %66 = load i32, i32* %8, align 4
  %67 = load i32*, i32** %5, align 8
  store i32 %66, i32* %67, align 4
  store i32 -1634108640, i32* %13
  br label %81

; <label>:68:                                     ; preds = %14
  %69 = load i64, i64* %9, align 8
  %70 = sub i64 %69, 7545856575650192664
  %71 = add i64 %70, -1
  %72 = add i64 %71, 7545856575650192664
  %73 = add i64 %69, -1
  store i64 %72, i64* %9, align 8
  %74 = load i32*, i32** %5, align 8
  %75 = getelementptr inbounds i32, i32* %74, i32 1
  store i32* %75, i32** %5, align 8
  store i32 -1661724195, i32* %13
  br label %81

; <label>:76:                                     ; preds = %14
  %77 = load i32*, i32** %5, align 8
  ret i32* %77

; <label>:78:                                     ; preds = %14
  %79 = load i64, i64* %9, align 8
  %80 = icmp ugt i64 %79, 0
  store i32 -1251202660, i32* %13
  br label %81

; <label>:81:                                     ; preds = %78, %68, %65, %62, %33, %17, %16
  br label %14
}

; Function Attrs: noinline uwtable
define linkonce_odr i32* @_ZSt12__niter_baseIPiENSt11_Niter_baseIT_E13iterator_typeES2_(i32*) #0 comdat {
  %2 = alloca i32*, align 8
  store i32* %0, i32** %2, align 8
  %3 = load i32*, i32** %2, align 8
  %4 = call i32* @_ZNSt10_Iter_baseIPiLb0EE7_S_baseES0_(i32* %3)
  ret i32* %4
}

; Function Attrs: noinline nounwind uwtable
define linkonce_odr i32* @_ZNSt10_Iter_baseIPiLb0EE7_S_baseES0_(i32*) #4 comdat align 2 {
  %2 = alloca i32*, align 8
  store i32* %0, i32** %2, align 8
  %3 = load i32*, i32** %2, align 8
  ret i32* %3
}

; Function Attrs: noinline uwtable
define linkonce_odr void @_ZNSt9__cxx199812_Vector_baseIiSaIiEE13_M_deallocateEPim(%"struct.std::__cxx1998::_Vector_base"*, i32*, i64) #0 comdat align 2 {
  %4 = alloca i1
  %5 = alloca %"struct.std::__cxx1998::_Vector_base"*
  %6 = alloca i64*
  %7 = alloca i32**
  %8 = alloca i1
  %9 = alloca i1
  %10 = load i32, i32* @x.156
  %11 = load i32, i32* @y.157
  %12 = sub i32 %10, -1677429297
  %13 = sub i32 %12, 1
  %14 = add i32 %13, -1677429297
  %15 = sub i32 %10, 1
  %16 = mul i32 %10, %14
  %17 = urem i32 %16, 2
  %18 = icmp eq i32 %17, 0
  store i1 %18, i1* %9
  %19 = icmp slt i32 %11, 10
  store i1 %19, i1* %8
  %20 = alloca i32
  store i32 -762870775, i32* %20
  br label %21

; <label>:21:                                     ; preds = %3, %88
  %22 = load i32, i32* %20
  switch i32 %22, label %23 [
    i32 -762870775, label %24
    i32 -1720740182, label %32
    i32 1998495366, label %69
    i32 1922132841, label %72
    i32 -1271079140, label %80
    i32 289406137, label %81
  ]

; <label>:23:                                     ; preds = %21
  br label %88

; <label>:24:                                     ; preds = %21
  %25 = load volatile i1, i1* %9
  %26 = load volatile i1, i1* %8
  %27 = and i1 %25, %26
  %28 = xor i1 %25, %26
  %29 = or i1 %27, %28
  %30 = or i1 %25, %26
  %31 = select i1 %29, i32 -1720740182, i32 289406137
  store i32 %31, i32* %20
  br label %88

; <label>:32:                                     ; preds = %21
  %33 = alloca %"struct.std::__cxx1998::_Vector_base"*, align 8
  %34 = alloca i32*, align 8
  store i32** %34, i32*** %7
  %35 = alloca i64, align 8
  store i64* %35, i64** %6
  store %"struct.std::__cxx1998::_Vector_base"* %0, %"struct.std::__cxx1998::_Vector_base"** %33, align 8
  %36 = load volatile i32**, i32*** %7
  store i32* %1, i32** %36, align 8
  %37 = load volatile i64*, i64** %6
  store i64 %2, i64* %37, align 8
  %38 = load %"struct.std::__cxx1998::_Vector_base"*, %"struct.std::__cxx1998::_Vector_base"** %33, align 8
  store %"struct.std::__cxx1998::_Vector_base"* %38, %"struct.std::__cxx1998::_Vector_base"** %5
  %39 = load volatile i32**, i32*** %7
  %40 = load i32*, i32** %39, align 8
  %41 = icmp ne i32* %40, null
  store i1 %41, i1* %4
  %42 = load i32, i32* @x.156
  %43 = load i32, i32* @y.157
  %44 = sub i32 %42, -1399927768
  %45 = sub i32 %44, 1
  %46 = add i32 %45, -1399927768
  %47 = sub i32 %42, 1
  %48 = mul i32 %42, %46
  %49 = urem i32 %48, 2
  %50 = icmp eq i32 %49, 0
  %51 = icmp slt i32 %43, 10
  %52 = xor i1 %50, true
  %53 = xor i1 %51, true
  %54 = xor i1 false, true
  %55 = and i1 %52, false
  %56 = and i1 %50, %54
  %57 = and i1 %53, false
  %58 = and i1 %51, %54
  %59 = or i1 %55, %56
  %60 = or i1 %57, %58
  %61 = xor i1 %59, %60
  %62 = or i1 %52, %53
  %63 = xor i1 %62, true
  %64 = or i1 false, %54
  %65 = and i1 %63, %64
  %66 = or i1 %61, %65
  %67 = or i1 %50, %51
  %68 = select i1 %66, i32 1998495366, i32 289406137
  store i32 %68, i32* %20
  br label %88

; <label>:69:                                     ; preds = %21
  %70 = load volatile i1, i1* %4
  %71 = select i1 %70, i32 1922132841, i32 -1271079140
  store i32 %71, i32* %20
  br label %88

; <label>:72:                                     ; preds = %21
  %73 = load volatile %"struct.std::__cxx1998::_Vector_base"*, %"struct.std::__cxx1998::_Vector_base"** %5
  %74 = getelementptr inbounds %"struct.std::__cxx1998::_Vector_base", %"struct.std::__cxx1998::_Vector_base"* %73, i32 0, i32 0
  %75 = bitcast %"struct.std::__cxx1998::_Vector_base<int, std::allocator<int> >::_Vector_impl"* %74 to %"class.std::allocator.0"*
  %76 = load volatile i32**, i32*** %7
  %77 = load i32*, i32** %76, align 8
  %78 = load volatile i64*, i64** %6
  %79 = load i64, i64* %78, align 8
  call void @_ZNSt16allocator_traitsISaIiEE10deallocateERS0_Pim(%"class.std::allocator.0"* dereferenceable(1) %75, i32* %77, i64 %79)
  store i32 -1271079140, i32* %20
  br label %88

; <label>:80:                                     ; preds = %21
  ret void

; <label>:81:                                     ; preds = %21
  %82 = alloca %"struct.std::__cxx1998::_Vector_base"*, align 8
  %83 = alloca i32*, align 8
  %84 = alloca i64, align 8
  store %"struct.std::__cxx1998::_Vector_base"* %0, %"struct.std::__cxx1998::_Vector_base"** %82, align 8
  store i32* %1, i32** %83, align 8
  store i64 %2, i64* %84, align 8
  %85 = load %"struct.std::__cxx1998::_Vector_base"*, %"struct.std::__cxx1998::_Vector_base"** %82, align 8
  %86 = load i32*, i32** %83, align 8
  %87 = icmp ne i32* %86, null
  store i32 -1720740182, i32* %20
  br label %88

; <label>:88:                                     ; preds = %81, %72, %69, %32, %24, %23
  br label %21
}

; Function Attrs: noinline noreturn nounwind
define linkonce_odr hidden void @__clang_call_terminate(i8*) #8 comdat {
  %2 = call i8* @__cxa_begin_catch(i8* %0) #3
  call void @_ZSt9terminatev() #10
  unreachable
}

declare i8* @__cxa_begin_catch(i8*)

declare void @_ZSt9terminatev()

; Function Attrs: noinline uwtable
define linkonce_odr void @_ZNSt16allocator_traitsISaIiEE10deallocateERS0_Pim(%"class.std::allocator.0"* dereferenceable(1), i32*, i64) #0 comdat align 2 {
  %4 = alloca i1
  %5 = alloca i1
  %6 = load i32, i32* @x.160
  %7 = load i32, i32* @y.161
  %8 = sub i32 0, 1
  %9 = add i32 %6, %8
  %10 = sub i32 %6, 1
  %11 = mul i32 %6, %9
  %12 = urem i32 %11, 2
  %13 = icmp eq i32 %12, 0
  store i1 %13, i1* %5
  %14 = icmp slt i32 %7, 10
  store i1 %14, i1* %4
  %15 = alloca i32
  store i32 1779070096, i32* %15
  br label %16

; <label>:16:                                     ; preds = %3, %82
  %17 = load i32, i32* %15
  switch i32 %17, label %18 [
    i32 1779070096, label %19
    i32 -1179791258, label %39
    i32 -1655773570, label %73
    i32 -1310252841, label %74
  ]

; <label>:18:                                     ; preds = %16
  br label %82

; <label>:19:                                     ; preds = %16
  %20 = load volatile i1, i1* %5
  %21 = load volatile i1, i1* %4
  %22 = xor i1 %20, true
  %23 = xor i1 %21, true
  %24 = xor i1 true, true
  %25 = and i1 %22, true
  %26 = and i1 %20, %24
  %27 = and i1 %23, true
  %28 = and i1 %21, %24
  %29 = or i1 %25, %26
  %30 = or i1 %27, %28
  %31 = xor i1 %29, %30
  %32 = or i1 %22, %23
  %33 = xor i1 %32, true
  %34 = or i1 true, %24
  %35 = and i1 %33, %34
  %36 = or i1 %31, %35
  %37 = or i1 %20, %21
  %38 = select i1 %36, i32 -1179791258, i32 -1310252841
  store i32 %38, i32* %15
  br label %82

; <label>:39:                                     ; preds = %16
  %40 = alloca %"class.std::allocator.0"*, align 8
  %41 = alloca i32*, align 8
  %42 = alloca i64, align 8
  store %"class.std::allocator.0"* %0, %"class.std::allocator.0"** %40, align 8
  store i32* %1, i32** %41, align 8
  store i64 %2, i64* %42, align 8
  %43 = load %"class.std::allocator.0"*, %"class.std::allocator.0"** %40, align 8
  %44 = bitcast %"class.std::allocator.0"* %43 to %"class.__gnu_cxx::new_allocator.1"*
  %45 = load i32*, i32** %41, align 8
  %46 = load i64, i64* %42, align 8
  call void @_ZN9__gnu_cxx13new_allocatorIiE10deallocateEPim(%"class.__gnu_cxx::new_allocator.1"* %44, i32* %45, i64 %46)
  %47 = load i32, i32* @x.160
  %48 = load i32, i32* @y.161
  %49 = sub i32 0, 1
  %50 = add i32 %47, %49
  %51 = sub i32 %47, 1
  %52 = mul i32 %47, %50
  %53 = urem i32 %52, 2
  %54 = icmp eq i32 %53, 0
  %55 = icmp slt i32 %48, 10
  %56 = xor i1 %54, true
  %57 = xor i1 %55, true
  %58 = xor i1 false, true
  %59 = and i1 %56, false
  %60 = and i1 %54, %58
  %61 = and i1 %57, false
  %62 = and i1 %55, %58
  %63 = or i1 %59, %60
  %64 = or i1 %61, %62
  %65 = xor i1 %63, %64
  %66 = or i1 %56, %57
  %67 = xor i1 %66, true
  %68 = or i1 false, %58
  %69 = and i1 %67, %68
  %70 = or i1 %65, %69
  %71 = or i1 %54, %55
  %72 = select i1 %70, i32 -1655773570, i32 -1310252841
  store i32 %72, i32* %15
  br label %82

; <label>:73:                                     ; preds = %16
  ret void

; <label>:74:                                     ; preds = %16
  %75 = alloca %"class.std::allocator.0"*, align 8
  %76 = alloca i32*, align 8
  %77 = alloca i64, align 8
  store %"class.std::allocator.0"* %0, %"class.std::allocator.0"** %75, align 8
  store i32* %1, i32** %76, align 8
  store i64 %2, i64* %77, align 8
  %78 = load %"class.std::allocator.0"*, %"class.std::allocator.0"** %75, align 8
  %79 = bitcast %"class.std::allocator.0"* %78 to %"class.__gnu_cxx::new_allocator.1"*
  %80 = load i32*, i32** %76, align 8
  %81 = load i64, i64* %77, align 8
  call void @_ZN9__gnu_cxx13new_allocatorIiE10deallocateEPim(%"class.__gnu_cxx::new_allocator.1"* %79, i32* %80, i64 %81)
  store i32 -1179791258, i32* %15
  br label %82

; <label>:82:                                     ; preds = %74, %39, %19, %18
  br label %16
}

; Function Attrs: noinline nounwind uwtable
define linkonce_odr void @_ZN9__gnu_cxx13new_allocatorIiE10deallocateEPim(%"class.__gnu_cxx::new_allocator.1"*, i32*, i64) #4 comdat align 2 {
  %4 = alloca i1
  %5 = alloca i1
  %6 = load i32, i32* @x.162
  %7 = load i32, i32* @y.163
  %8 = sub i32 0, 1
  %9 = add i32 %6, %8
  %10 = sub i32 %6, 1
  %11 = mul i32 %6, %9
  %12 = urem i32 %11, 2
  %13 = icmp eq i32 %12, 0
  store i1 %13, i1* %5
  %14 = icmp slt i32 %7, 10
  store i1 %14, i1* %4
  %15 = alloca i32
  store i32 -440914960, i32* %15
  br label %16

; <label>:16:                                     ; preds = %3, %57
  %17 = load i32, i32* %15
  switch i32 %17, label %18 [
    i32 -440914960, label %19
    i32 -239810302, label %27
    i32 1333112852, label %49
    i32 -1343262243, label %50
  ]

; <label>:18:                                     ; preds = %16
  br label %57

; <label>:19:                                     ; preds = %16
  %20 = load volatile i1, i1* %5
  %21 = load volatile i1, i1* %4
  %22 = and i1 %20, %21
  %23 = xor i1 %20, %21
  %24 = or i1 %22, %23
  %25 = or i1 %20, %21
  %26 = select i1 %24, i32 -239810302, i32 -1343262243
  store i32 %26, i32* %15
  br label %57

; <label>:27:                                     ; preds = %16
  %28 = alloca %"class.__gnu_cxx::new_allocator.1"*, align 8
  %29 = alloca i32*, align 8
  %30 = alloca i64, align 8
  store %"class.__gnu_cxx::new_allocator.1"* %0, %"class.__gnu_cxx::new_allocator.1"** %28, align 8
  store i32* %1, i32** %29, align 8
  store i64 %2, i64* %30, align 8
  %31 = load %"class.__gnu_cxx::new_allocator.1"*, %"class.__gnu_cxx::new_allocator.1"** %28, align 8
  %32 = load i32*, i32** %29, align 8
  %33 = bitcast i32* %32 to i8*
  call void @_ZdlPv(i8* %33) #3
  %34 = load i32, i32* @x.162
  %35 = load i32, i32* @y.163
  %36 = add i32 %34, 672811633
  %37 = sub i32 %36, 1
  %38 = sub i32 %37, 672811633
  %39 = sub i32 %34, 1
  %40 = mul i32 %34, %38
  %41 = urem i32 %40, 2
  %42 = icmp eq i32 %41, 0
  %43 = icmp slt i32 %35, 10
  %44 = and i1 %42, %43
  %45 = xor i1 %42, %43
  %46 = or i1 %44, %45
  %47 = or i1 %42, %43
  %48 = select i1 %46, i32 1333112852, i32 -1343262243
  store i32 %48, i32* %15
  br label %57

; <label>:49:                                     ; preds = %16
  ret void

; <label>:50:                                     ; preds = %16
  %51 = alloca %"class.__gnu_cxx::new_allocator.1"*, align 8
  %52 = alloca i32*, align 8
  %53 = alloca i64, align 8
  store %"class.__gnu_cxx::new_allocator.1"* %0, %"class.__gnu_cxx::new_allocator.1"** %51, align 8
  store i32* %1, i32** %52, align 8
  store i64 %2, i64* %53, align 8
  %54 = load %"class.__gnu_cxx::new_allocator.1"*, %"class.__gnu_cxx::new_allocator.1"** %51, align 8
  %55 = load i32*, i32** %52, align 8
  %56 = bitcast i32* %55 to i8*
  call void @_ZdlPv(i8* %56) #3
  store i32 -239810302, i32* %15
  br label %57

; <label>:57:                                     ; preds = %50, %27, %19, %18
  br label %16
}

; Function Attrs: nobuiltin nounwind
declare void @_ZdlPv(i8*) #9

; Function Attrs: noinline nounwind uwtable
define linkonce_odr void @_ZN11__gnu_debug12_Safe_vectorINSt7__debug6vectorIiSaIiEEENSt9__cxx19986vectorIiS3_EEE29_M_update_guaranteed_capacityEv(%"class.__gnu_debug::_Safe_vector"*) #4 comdat align 2 personality i8* bitcast (i32 (...)* @__gxx_personality_v0 to i8*) {
  %2 = alloca %"class.__gnu_debug::_Safe_vector"*, align 8
  store %"class.__gnu_debug::_Safe_vector"* %0, %"class.__gnu_debug::_Safe_vector"** %2, align 8
  %3 = load %"class.__gnu_debug::_Safe_vector"*, %"class.__gnu_debug::_Safe_vector"** %2, align 8
  %4 = invoke dereferenceable(56) %"class.std::__debug::vector"* @_ZNK11__gnu_debug12_Safe_vectorINSt7__debug6vectorIiSaIiEEENSt9__cxx19986vectorIiS3_EEE6_M_seqEv(%"class.__gnu_debug::_Safe_vector"* %3)
          to label %5 unwind label %62

; <label>:5:                                      ; preds = %1
  %6 = bitcast %"class.std::__debug::vector"* %4 to i8*
  %7 = getelementptr inbounds i8, i8* %6, i64 24
  %8 = bitcast i8* %7 to %"class.std::__cxx1998::vector"*
  %9 = call i64 @_ZNKSt9__cxx19986vectorIiSaIiEE4sizeEv(%"class.std::__cxx1998::vector"* %8) #3
  %10 = getelementptr inbounds %"class.__gnu_debug::_Safe_vector", %"class.__gnu_debug::_Safe_vector"* %3, i32 0, i32 0
  %11 = load i64, i64* %10, align 8
  %12 = icmp ugt i64 %9, %11
  br i1 %12, label %13, label %61

; <label>:13:                                     ; preds = %5
  %14 = load i32, i32* @x.164
  %15 = load i32, i32* @y.165
  %16 = sub i32 0, 1
  %17 = add i32 %14, %16
  %18 = sub i32 %14, 1
  %19 = mul i32 %14, %17
  %20 = urem i32 %19, 2
  %21 = icmp eq i32 %20, 0
  %22 = icmp slt i32 %15, 10
  %23 = and i1 %21, %22
  %24 = xor i1 %21, %22
  %25 = or i1 %23, %24
  %26 = or i1 %21, %22
  br i1 %25, label %27, label %65

; <label>:27:                                     ; preds = %13, %65
  %28 = load i32, i32* @x.164
  %29 = load i32, i32* @y.165
  %30 = sub i32 0, 1
  %31 = add i32 %28, %30
  %32 = sub i32 %28, 1
  %33 = mul i32 %28, %31
  %34 = urem i32 %33, 2
  %35 = icmp eq i32 %34, 0
  %36 = icmp slt i32 %29, 10
  %37 = xor i1 %35, true
  %38 = xor i1 %36, true
  %39 = xor i1 true, true
  %40 = and i1 %37, true
  %41 = and i1 %35, %39
  %42 = and i1 %38, true
  %43 = and i1 %36, %39
  %44 = or i1 %40, %41
  %45 = or i1 %42, %43
  %46 = xor i1 %44, %45
  %47 = or i1 %37, %38
  %48 = xor i1 %47, true
  %49 = or i1 true, %39
  %50 = and i1 %48, %49
  %51 = or i1 %46, %50
  %52 = or i1 %35, %36
  br i1 %51, label %53, label %65

; <label>:53:                                     ; preds = %27
  %54 = invoke dereferenceable(56) %"class.std::__debug::vector"* @_ZNK11__gnu_debug12_Safe_vectorINSt7__debug6vectorIiSaIiEEENSt9__cxx19986vectorIiS3_EEE6_M_seqEv(%"class.__gnu_debug::_Safe_vector"* %3)
          to label %55 unwind label %62

; <label>:55:                                     ; preds = %53
  %56 = bitcast %"class.std::__debug::vector"* %54 to i8*
  %57 = getelementptr inbounds i8, i8* %56, i64 24
  %58 = bitcast i8* %57 to %"class.std::__cxx1998::vector"*
  %59 = call i64 @_ZNKSt9__cxx19986vectorIiSaIiEE4sizeEv(%"class.std::__cxx1998::vector"* %58) #3
  %60 = getelementptr inbounds %"class.__gnu_debug::_Safe_vector", %"class.__gnu_debug::_Safe_vector"* %3, i32 0, i32 0
  store i64 %59, i64* %60, align 8
  br label %61

; <label>:61:                                     ; preds = %55, %5
  ret void

; <label>:62:                                     ; preds = %53, %1
  %63 = landingpad { i8*, i32 }
          catch i8* null
  %64 = extractvalue { i8*, i32 } %63, 0
  call void @__clang_call_terminate(i8* %64) #10
  unreachable

; <label>:65:                                     ; preds = %27, %13
  br label %27
}

; Function Attrs: noinline nounwind uwtable
define linkonce_odr dereferenceable(56) %"class.std::__debug::vector"* @_ZNK11__gnu_debug12_Safe_vectorINSt7__debug6vectorIiSaIiEEENSt9__cxx19986vectorIiS3_EEE6_M_seqEv(%"class.__gnu_debug::_Safe_vector"*) #4 comdat align 2 {
  %2 = alloca %"class.__gnu_debug::_Safe_vector"*, align 8
  store %"class.__gnu_debug::_Safe_vector"* %0, %"class.__gnu_debug::_Safe_vector"** %2, align 8
  %3 = load %"class.__gnu_debug::_Safe_vector"*, %"class.__gnu_debug::_Safe_vector"** %2, align 8
  %4 = bitcast %"class.__gnu_debug::_Safe_vector"* %3 to i8*
  %5 = getelementptr i8, i8* %4, i64 -48
  %6 = bitcast i8* %5 to %"class.std::__debug::vector"*
  ret %"class.std::__debug::vector"* %6
}

; Function Attrs: noinline nounwind uwtable
define linkonce_odr i64 @_ZNKSt9__cxx19986vectorIiSaIiEE4sizeEv(%"class.std::__cxx1998::vector"*) #4 comdat align 2 {
  %2 = alloca i64
  %3 = alloca i1
  %4 = alloca i1
  %5 = load i32, i32* @x.168
  %6 = load i32, i32* @y.169
  %7 = sub i32 %5, 923433402
  %8 = sub i32 %7, 1
  %9 = add i32 %8, 923433402
  %10 = sub i32 %5, 1
  %11 = mul i32 %5, %9
  %12 = urem i32 %11, 2
  %13 = icmp eq i32 %12, 0
  store i1 %13, i1* %4
  %14 = icmp slt i32 %6, 10
  store i1 %14, i1* %3
  %15 = alloca i32
  store i32 -1630013811, i32* %15
  br label %16

; <label>:16:                                     ; preds = %1, %134
  %17 = load i32, i32* %15
  switch i32 %17, label %18 [
    i32 -1630013811, label %19
    i32 1430879216, label %27
    i32 -1940839891, label %58
    i32 773163255, label %60
  ]

; <label>:18:                                     ; preds = %16
  br label %134

; <label>:19:                                     ; preds = %16
  %20 = load volatile i1, i1* %4
  %21 = load volatile i1, i1* %3
  %22 = and i1 %20, %21
  %23 = xor i1 %20, %21
  %24 = or i1 %22, %23
  %25 = or i1 %20, %21
  %26 = select i1 %24, i32 1430879216, i32 773163255
  store i32 %26, i32* %15
  br label %134

; <label>:27:                                     ; preds = %16
  %28 = alloca %"class.std::__cxx1998::vector"*, align 8
  store %"class.std::__cxx1998::vector"* %0, %"class.std::__cxx1998::vector"** %28, align 8
  %29 = load %"class.std::__cxx1998::vector"*, %"class.std::__cxx1998::vector"** %28, align 8
  %30 = bitcast %"class.std::__cxx1998::vector"* %29 to %"struct.std::__cxx1998::_Vector_base"*
  %31 = getelementptr inbounds %"struct.std::__cxx1998::_Vector_base", %"struct.std::__cxx1998::_Vector_base"* %30, i32 0, i32 0
  %32 = getelementptr inbounds %"struct.std::__cxx1998::_Vector_base<int, std::allocator<int> >::_Vector_impl", %"struct.std::__cxx1998::_Vector_base<int, std::allocator<int> >::_Vector_impl"* %31, i32 0, i32 1
  %33 = load i32*, i32** %32, align 8
  %34 = bitcast %"class.std::__cxx1998::vector"* %29 to %"struct.std::__cxx1998::_Vector_base"*
  %35 = getelementptr inbounds %"struct.std::__cxx1998::_Vector_base", %"struct.std::__cxx1998::_Vector_base"* %34, i32 0, i32 0
  %36 = getelementptr inbounds %"struct.std::__cxx1998::_Vector_base<int, std::allocator<int> >::_Vector_impl", %"struct.std::__cxx1998::_Vector_base<int, std::allocator<int> >::_Vector_impl"* %35, i32 0, i32 0
  %37 = load i32*, i32** %36, align 8
  %38 = ptrtoint i32* %33 to i64
  %39 = ptrtoint i32* %37 to i64
  %40 = sub i64 0, %39
  %41 = add i64 %38, %40
  %42 = sub i64 %38, %39
  %43 = sdiv exact i64 %41, 4
  store i64 %43, i64* %2
  %44 = load i32, i32* @x.168
  %45 = load i32, i32* @y.169
  %46 = sub i32 0, 1
  %47 = add i32 %44, %46
  %48 = sub i32 %44, 1
  %49 = mul i32 %44, %47
  %50 = urem i32 %49, 2
  %51 = icmp eq i32 %50, 0
  %52 = icmp slt i32 %45, 10
  %53 = and i1 %51, %52
  %54 = xor i1 %51, %52
  %55 = or i1 %53, %54
  %56 = or i1 %51, %52
  %57 = select i1 %55, i32 -1940839891, i32 773163255
  store i32 %57, i32* %15
  br label %134

; <label>:58:                                     ; preds = %16
  %59 = load volatile i64, i64* %2
  ret i64 %59

; <label>:60:                                     ; preds = %16
  %61 = alloca %"class.std::__cxx1998::vector"*, align 8
  store %"class.std::__cxx1998::vector"* %0, %"class.std::__cxx1998::vector"** %61, align 8
  %62 = load %"class.std::__cxx1998::vector"*, %"class.std::__cxx1998::vector"** %61, align 8
  %63 = bitcast %"class.std::__cxx1998::vector"* %62 to %"struct.std::__cxx1998::_Vector_base"*
  %64 = getelementptr inbounds %"struct.std::__cxx1998::_Vector_base", %"struct.std::__cxx1998::_Vector_base"* %63, i32 0, i32 0
  %65 = getelementptr inbounds %"struct.std::__cxx1998::_Vector_base<int, std::allocator<int> >::_Vector_impl", %"struct.std::__cxx1998::_Vector_base<int, std::allocator<int> >::_Vector_impl"* %64, i32 0, i32 1
  %66 = load i32*, i32** %65, align 8
  %67 = bitcast %"class.std::__cxx1998::vector"* %62 to %"struct.std::__cxx1998::_Vector_base"*
  %68 = getelementptr inbounds %"struct.std::__cxx1998::_Vector_base", %"struct.std::__cxx1998::_Vector_base"* %67, i32 0, i32 0
  %69 = getelementptr inbounds %"struct.std::__cxx1998::_Vector_base<int, std::allocator<int> >::_Vector_impl", %"struct.std::__cxx1998::_Vector_base<int, std::allocator<int> >::_Vector_impl"* %68, i32 0, i32 0
  %70 = load i32*, i32** %69, align 8
  %71 = ptrtoint i32* %66 to i64
  %72 = ptrtoint i32* %70 to i64
  %73 = shl i64 %71, %72
  %74 = shl i64 %71, %72
  %75 = shl i64 %71, %72
  %76 = sub i64 0, %71
  %77 = add i64 0, %76
  %78 = sub i64 0, %71
  %79 = sub i64 %77, 513286523170146417
  %80 = add i64 %79, %72
  %81 = add i64 %80, 513286523170146417
  %82 = add i64 %77, %72
  %83 = sub i64 %71, 5647856994471447794
  %84 = sub i64 %83, %72
  %85 = add i64 %84, 5647856994471447794
  %86 = sub i64 %71, %72
  %87 = mul i64 %85, %72
  %88 = sub i64 0, %72
  %89 = add i64 %71, %88
  %90 = sub i64 %71, %72
  %91 = add i64 %89, -868213191015325052
  %92 = sub i64 %91, 4
  %93 = sub i64 %92, -868213191015325052
  %94 = sub i64 %89, 4
  %95 = mul i64 %93, 4
  %96 = sub i64 0, -8640372848669086123
  %97 = sub i64 %96, %89
  %98 = add i64 %97, -8640372848669086123
  %99 = sub i64 0, %89
  %100 = sub i64 %98, -1522983973681307770
  %101 = add i64 %100, 4
  %102 = add i64 %101, -1522983973681307770
  %103 = add i64 %98, 4
  %104 = sub i64 %89, -6018874270175506660
  %105 = sub i64 %104, 4
  %106 = add i64 %105, -6018874270175506660
  %107 = sub i64 %89, 4
  %108 = mul i64 %106, 4
  %109 = shl i64 %89, 4
  %110 = add i64 0, 878594579110325649
  %111 = sub i64 %110, %89
  %112 = sub i64 %111, 878594579110325649
  %113 = sub i64 0, %89
  %114 = sub i64 %112, 4981821945348806225
  %115 = add i64 %114, 4
  %116 = add i64 %115, 4981821945348806225
  %117 = add i64 %112, 4
  %118 = sub i64 0, 3989676669481891314
  %119 = sub i64 %118, %89
  %120 = add i64 %119, 3989676669481891314
  %121 = sub i64 0, %89
  %122 = add i64 %120, -4107637263823243540
  %123 = add i64 %122, 4
  %124 = sub i64 %123, -4107637263823243540
  %125 = add i64 %120, 4
  %126 = sub i64 0, 3200928463314042501
  %127 = sub i64 %126, %89
  %128 = add i64 %127, 3200928463314042501
  %129 = sub i64 0, %89
  %130 = sub i64 0, 4
  %131 = sub i64 %128, %130
  %132 = add i64 %128, 4
  %133 = sdiv exact i64 %89, 4
  store i32 1430879216, i32* %15
  br label %134

; <label>:134:                                    ; preds = %60, %27, %19, %18
  br label %16
}

; Function Attrs: noinline nounwind uwtable
define linkonce_odr void @_ZN11__gnu_debug14_Safe_sequenceINSt7__debug6vectorIiSaIiEEEED2Ev(%"class.__gnu_debug::_Safe_sequence"*) unnamed_addr #4 comdat align 2 {
  %2 = alloca %"class.__gnu_debug::_Safe_sequence"*, align 8
  store %"class.__gnu_debug::_Safe_sequence"* %0, %"class.__gnu_debug::_Safe_sequence"** %2, align 8
  %3 = load %"class.__gnu_debug::_Safe_sequence"*, %"class.__gnu_debug::_Safe_sequence"** %2, align 8
  %4 = bitcast %"class.__gnu_debug::_Safe_sequence"* %3 to %"class.__gnu_debug::_Safe_sequence_base"*
  call void @_ZN11__gnu_debug19_Safe_sequence_baseD2Ev(%"class.__gnu_debug::_Safe_sequence_base"* %4) #3
  ret void
}

; Function Attrs: noinline nounwind uwtable
define linkonce_odr void @_ZN11__gnu_debug19_Safe_sequence_baseD2Ev(%"class.__gnu_debug::_Safe_sequence_base"*) unnamed_addr #4 comdat align 2 personality i8* bitcast (i32 (...)* @__gxx_personality_v0 to i8*) {
  %2 = alloca %"class.__gnu_debug::_Safe_sequence_base"*, align 8
  store %"class.__gnu_debug::_Safe_sequence_base"* %0, %"class.__gnu_debug::_Safe_sequence_base"** %2, align 8
  %3 = load %"class.__gnu_debug::_Safe_sequence_base"*, %"class.__gnu_debug::_Safe_sequence_base"** %2, align 8
  invoke void @_ZN11__gnu_debug19_Safe_sequence_base13_M_detach_allEv(%"class.__gnu_debug::_Safe_sequence_base"* %3)
          to label %4 unwind label %5

; <label>:4:                                      ; preds = %1
  ret void

; <label>:5:                                      ; preds = %1
  %6 = landingpad { i8*, i32 }
          catch i8* null
  %7 = extractvalue { i8*, i32 } %6, 0
  call void @__clang_call_terminate(i8* %7) #10
  unreachable
}

declare void @_ZN11__gnu_debug19_Safe_sequence_base13_M_detach_allEv(%"class.__gnu_debug::_Safe_sequence_base"*) #1

; Function Attrs: noinline uwtable
define linkonce_odr i32 @_ZN9Unionfind4rootEi(%class.Unionfind*, i32) #0 comdat align 2 {
  %3 = alloca i32
  %4 = alloca i32
  %5 = alloca i1
  %6 = alloca %class.Unionfind*
  %7 = alloca i32*
  %8 = alloca i1
  %9 = alloca i1
  %10 = load i32, i32* @x.174
  %11 = load i32, i32* @y.175
  %12 = sub i32 %10, 143096373
  %13 = sub i32 %12, 1
  %14 = add i32 %13, 143096373
  %15 = sub i32 %10, 1
  %16 = mul i32 %10, %14
  %17 = urem i32 %16, 2
  %18 = icmp eq i32 %17, 0
  store i1 %18, i1* %9
  %19 = icmp slt i32 %11, 10
  store i1 %19, i1* %8
  %20 = alloca i32
  store i32 1958303945, i32* %20
  %21 = alloca i32
  br label %22

; <label>:22:                                     ; preds = %2, %178
  %23 = load i32, i32* %20
  switch i32 %23, label %24 [
    i32 1958303945, label %25
    i32 516071743, label %33
    i32 -2013964677, label %63
    i32 161983816, label %66
    i32 850195271, label %94
    i32 738248927, label %112
    i32 -683857544, label %114
    i32 -514375711, label %130
    i32 -1737911224, label %146
    i32 -8857824, label %161
    i32 2126981547, label %163
    i32 2112929315, label %174
    i32 297413591, label %177
  ]

; <label>:24:                                     ; preds = %22
  br label %178

; <label>:25:                                     ; preds = %22
  %26 = load volatile i1, i1* %9
  %27 = load volatile i1, i1* %8
  %28 = and i1 %26, %27
  %29 = xor i1 %26, %27
  %30 = or i1 %28, %29
  %31 = or i1 %26, %27
  %32 = select i1 %30, i32 516071743, i32 2126981547
  store i32 %32, i32* %20
  br label %178

; <label>:33:                                     ; preds = %22
  %34 = alloca %class.Unionfind*, align 8
  %35 = alloca i32, align 4
  store i32* %35, i32** %7
  store %class.Unionfind* %0, %class.Unionfind** %34, align 8
  %36 = load volatile i32*, i32** %7
  store i32 %1, i32* %36, align 4
  %37 = load %class.Unionfind*, %class.Unionfind** %34, align 8
  store %class.Unionfind* %37, %class.Unionfind** %6
  %38 = load volatile %class.Unionfind*, %class.Unionfind** %6
  %39 = getelementptr inbounds %class.Unionfind, %class.Unionfind* %38, i32 0, i32 2
  %40 = load volatile i32*, i32** %7
  %41 = load i32, i32* %40, align 4
  %42 = sext i32 %41 to i64
  %43 = call dereferenceable(4) i32* @_ZNSt7__debug6vectorIiSaIiEEixEm(%"class.std::__debug::vector"* %39, i64 %42) #3
  %44 = load i32, i32* %43, align 4
  %45 = load volatile i32*, i32** %7
  %46 = load i32, i32* %45, align 4
  %47 = icmp eq i32 %44, %46
  store i1 %47, i1* %5
  %48 = load i32, i32* @x.174
  %49 = load i32, i32* @y.175
  %50 = sub i32 %48, -795007990
  %51 = sub i32 %50, 1
  %52 = add i32 %51, -795007990
  %53 = sub i32 %48, 1
  %54 = mul i32 %48, %52
  %55 = urem i32 %54, 2
  %56 = icmp eq i32 %55, 0
  %57 = icmp slt i32 %49, 10
  %58 = and i1 %56, %57
  %59 = xor i1 %56, %57
  %60 = or i1 %58, %59
  %61 = or i1 %56, %57
  %62 = select i1 %60, i32 -2013964677, i32 2126981547
  store i32 %62, i32* %20
  br label %178

; <label>:63:                                     ; preds = %22
  %64 = load volatile i1, i1* %5
  %65 = select i1 %64, i32 161983816, i32 -683857544
  store i32 %65, i32* %20
  br label %178

; <label>:66:                                     ; preds = %22
  %67 = load i32, i32* @x.174
  %68 = load i32, i32* @y.175
  %69 = add i32 %67, -2133636583
  %70 = sub i32 %69, 1
  %71 = sub i32 %70, -2133636583
  %72 = sub i32 %67, 1
  %73 = mul i32 %67, %71
  %74 = urem i32 %73, 2
  %75 = icmp eq i32 %74, 0
  %76 = icmp slt i32 %68, 10
  %77 = xor i1 %75, true
  %78 = xor i1 %76, true
  %79 = xor i1 true, true
  %80 = and i1 %77, true
  %81 = and i1 %75, %79
  %82 = and i1 %78, true
  %83 = and i1 %76, %79
  %84 = or i1 %80, %81
  %85 = or i1 %82, %83
  %86 = xor i1 %84, %85
  %87 = or i1 %77, %78
  %88 = xor i1 %87, true
  %89 = or i1 true, %79
  %90 = and i1 %88, %89
  %91 = or i1 %86, %90
  %92 = or i1 %75, %76
  %93 = select i1 %91, i32 850195271, i32 2112929315
  store i32 %93, i32* %20
  br label %178

; <label>:94:                                     ; preds = %22
  %95 = load volatile i32*, i32** %7
  %96 = load i32, i32* %95, align 4
  store i32 %96, i32* %4
  %97 = load i32, i32* @x.174
  %98 = load i32, i32* @y.175
  %99 = sub i32 %97, -262012797
  %100 = sub i32 %99, 1
  %101 = add i32 %100, -262012797
  %102 = sub i32 %97, 1
  %103 = mul i32 %97, %101
  %104 = urem i32 %103, 2
  %105 = icmp eq i32 %104, 0
  %106 = icmp slt i32 %98, 10
  %107 = and i1 %105, %106
  %108 = xor i1 %105, %106
  %109 = or i1 %107, %108
  %110 = or i1 %105, %106
  %111 = select i1 %109, i32 738248927, i32 2112929315
  store i32 %111, i32* %20
  br label %178

; <label>:112:                                    ; preds = %22
  store i32 -514375711, i32* %20
  %113 = load volatile i32, i32* %4
  store i32 %113, i32* %21
  br label %178

; <label>:114:                                    ; preds = %22
  %115 = load volatile %class.Unionfind*, %class.Unionfind** %6
  %116 = getelementptr inbounds %class.Unionfind, %class.Unionfind* %115, i32 0, i32 2
  %117 = load volatile i32*, i32** %7
  %118 = load i32, i32* %117, align 4
  %119 = sext i32 %118 to i64
  %120 = call dereferenceable(4) i32* @_ZNSt7__debug6vectorIiSaIiEEixEm(%"class.std::__debug::vector"* %116, i64 %119) #3
  %121 = load i32, i32* %120, align 4
  %122 = load volatile %class.Unionfind*, %class.Unionfind** %6
  %123 = call i32 @_ZN9Unionfind4rootEi(%class.Unionfind* %122, i32 %121)
  %124 = load volatile %class.Unionfind*, %class.Unionfind** %6
  %125 = getelementptr inbounds %class.Unionfind, %class.Unionfind* %124, i32 0, i32 2
  %126 = load volatile i32*, i32** %7
  %127 = load i32, i32* %126, align 4
  %128 = sext i32 %127 to i64
  %129 = call dereferenceable(4) i32* @_ZNSt7__debug6vectorIiSaIiEEixEm(%"class.std::__debug::vector"* %125, i64 %128) #3
  store i32 %123, i32* %129, align 4
  store i32 -514375711, i32* %20
  store i32 %123, i32* %21
  br label %178

; <label>:130:                                    ; preds = %22
  %131 = load i32, i32* %21
  store i32 %131, i32* %3
  %132 = load i32, i32* @x.174
  %133 = load i32, i32* @y.175
  %134 = sub i32 0, 1
  %135 = add i32 %132, %134
  %136 = sub i32 %132, 1
  %137 = mul i32 %132, %135
  %138 = urem i32 %137, 2
  %139 = icmp eq i32 %138, 0
  %140 = icmp slt i32 %133, 10
  %141 = and i1 %139, %140
  %142 = xor i1 %139, %140
  %143 = or i1 %141, %142
  %144 = or i1 %139, %140
  %145 = select i1 %143, i32 -1737911224, i32 297413591
  store i32 %145, i32* %20
  br label %178

; <label>:146:                                    ; preds = %22
  %147 = load i32, i32* @x.174
  %148 = load i32, i32* @y.175
  %149 = sub i32 0, 1
  %150 = add i32 %147, %149
  %151 = sub i32 %147, 1
  %152 = mul i32 %147, %150
  %153 = urem i32 %152, 2
  %154 = icmp eq i32 %153, 0
  %155 = icmp slt i32 %148, 10
  %156 = and i1 %154, %155
  %157 = xor i1 %154, %155
  %158 = or i1 %156, %157
  %159 = or i1 %154, %155
  %160 = select i1 %158, i32 -8857824, i32 297413591
  store i32 %160, i32* %20
  br label %178

; <label>:161:                                    ; preds = %22
  %162 = load volatile i32, i32* %3
  ret i32 %162

; <label>:163:                                    ; preds = %22
  %164 = alloca %class.Unionfind*, align 8
  %165 = alloca i32, align 4
  store %class.Unionfind* %0, %class.Unionfind** %164, align 8
  store i32 %1, i32* %165, align 4
  %166 = load %class.Unionfind*, %class.Unionfind** %164, align 8
  %167 = getelementptr inbounds %class.Unionfind, %class.Unionfind* %166, i32 0, i32 2
  %168 = load i32, i32* %165, align 4
  %169 = sext i32 %168 to i64
  %170 = call dereferenceable(4) i32* @_ZNSt7__debug6vectorIiSaIiEEixEm(%"class.std::__debug::vector"* %167, i64 %169) #3
  %171 = load i32, i32* %170, align 4
  %172 = load i32, i32* %165, align 4
  %173 = icmp eq i32 %171, %172
  store i32 516071743, i32* %20
  br label %178

; <label>:174:                                    ; preds = %22
  %175 = load volatile i32*, i32** %7
  %176 = load i32, i32* %175, align 4
  store i32 850195271, i32* %20
  br label %178

; <label>:177:                                    ; preds = %22
  store i32 -1737911224, i32* %20
  br label %178

; <label>:178:                                    ; preds = %177, %174, %163, %146, %130, %114, %112, %94, %66, %63, %33, %25, %24
  br label %22
}

; Function Attrs: noinline nounwind uwtable
define linkonce_odr void @_ZNSt7__debug6vectorINS0_IiSaIiEEESaIS2_EEC2Ev(%"class.std::__debug::vector.3"*) unnamed_addr #4 comdat align 2 {
  %2 = alloca %"class.std::__debug::vector.3"*, align 8
  store %"class.std::__debug::vector.3"* %0, %"class.std::__debug::vector.3"** %2, align 8
  %3 = load %"class.std::__debug::vector.3"*, %"class.std::__debug::vector.3"** %2, align 8
  %4 = bitcast %"class.std::__debug::vector.3"* %3 to %"class.__gnu_debug::_Safe_container.4"*
  call void @_ZN11__gnu_debug15_Safe_containerINSt7__debug6vectorINS2_IiSaIiEEESaIS4_EEES5_NS_14_Safe_sequenceELb1EEC2Ev(%"class.__gnu_debug::_Safe_container.4"* %4) #3
  %5 = bitcast %"class.std::__debug::vector.3"* %3 to i8*
  %6 = getelementptr inbounds i8, i8* %5, i64 24
  %7 = bitcast i8* %6 to %"class.std::__cxx1998::vector.8"*
  call void @_ZNSt9__cxx19986vectorINSt7__debug6vectorIiSaIiEEESaIS4_EEC2Ev(%"class.std::__cxx1998::vector.8"* %7) #3
  %8 = bitcast %"class.std::__debug::vector.3"* %3 to i8*
  %9 = getelementptr inbounds i8, i8* %8, i64 48
  %10 = bitcast i8* %9 to %"class.__gnu_debug::_Safe_vector.13"*
  call void @_ZN11__gnu_debug12_Safe_vectorINSt7__debug6vectorINS2_IiSaIiEEESaIS4_EEENSt9__cxx19986vectorIS4_S5_EEEC2Ev(%"class.__gnu_debug::_Safe_vector.13"* %10) #3
  ret void
}

; Function Attrs: noinline nounwind uwtable
define linkonce_odr void @_ZNSaINSt7__debug6vectorIiSaIiEEEEC2Ev(%"class.std::allocator.10"*) unnamed_addr #4 comdat align 2 {
  %2 = alloca %"class.std::allocator.10"*, align 8
  store %"class.std::allocator.10"* %0, %"class.std::allocator.10"** %2, align 8
  %3 = load %"class.std::allocator.10"*, %"class.std::allocator.10"** %2, align 8
  %4 = bitcast %"class.std::allocator.10"* %3 to %"class.__gnu_cxx::new_allocator.11"*
  call void @_ZN9__gnu_cxx13new_allocatorINSt7__debug6vectorIiSaIiEEEEC2Ev(%"class.__gnu_cxx::new_allocator.11"* %4) #3
  ret void
}

; Function Attrs: noinline uwtable
define linkonce_odr void @_ZNSt7__debug6vectorINS0_IiSaIiEEESaIS2_EEC2EmRKS3_(%"class.std::__debug::vector.3"*, i64, %"class.std::allocator.10"* dereferenceable(1)) unnamed_addr #0 comdat align 2 personality i8* bitcast (i32 (...)* @__gxx_personality_v0 to i8*) {
  %4 = alloca %"class.std::__debug::vector.3"*, align 8
  %5 = alloca i64, align 8
  %6 = alloca %"class.std::allocator.10"*, align 8
  %7 = alloca i8*
  %8 = alloca i32
  store %"class.std::__debug::vector.3"* %0, %"class.std::__debug::vector.3"** %4, align 8
  store i64 %1, i64* %5, align 8
  store %"class.std::allocator.10"* %2, %"class.std::allocator.10"** %6, align 8
  %9 = load %"class.std::__debug::vector.3"*, %"class.std::__debug::vector.3"** %4, align 8
  %10 = bitcast %"class.std::__debug::vector.3"* %9 to %"class.__gnu_debug::_Safe_container.4"*
  call void @_ZN11__gnu_debug15_Safe_containerINSt7__debug6vectorINS2_IiSaIiEEESaIS4_EEES5_NS_14_Safe_sequenceELb1EEC2Ev(%"class.__gnu_debug::_Safe_container.4"* %10) #3
  %11 = bitcast %"class.std::__debug::vector.3"* %9 to i8*
  %12 = getelementptr inbounds i8, i8* %11, i64 24
  %13 = bitcast i8* %12 to %"class.std::__cxx1998::vector.8"*
  %14 = load i64, i64* %5, align 8
  %15 = load %"class.std::allocator.10"*, %"class.std::allocator.10"** %6, align 8
  invoke void @_ZNSt9__cxx19986vectorINSt7__debug6vectorIiSaIiEEESaIS4_EEC2EmRKS5_(%"class.std::__cxx1998::vector.8"* %13, i64 %14, %"class.std::allocator.10"* dereferenceable(1) %15)
          to label %16 unwind label %61

; <label>:16:                                     ; preds = %3
  %17 = load i32, i32* @x.180
  %18 = load i32, i32* @y.181
  %19 = sub i32 0, 1
  %20 = add i32 %17, %19
  %21 = sub i32 %17, 1
  %22 = mul i32 %17, %20
  %23 = urem i32 %22, 2
  %24 = icmp eq i32 %23, 0
  %25 = icmp slt i32 %18, 10
  %26 = and i1 %24, %25
  %27 = xor i1 %24, %25
  %28 = or i1 %26, %27
  %29 = or i1 %24, %25
  br i1 %28, label %30, label %125

; <label>:30:                                     ; preds = %16, %125
  %31 = bitcast %"class.std::__debug::vector.3"* %9 to i8*
  %32 = getelementptr inbounds i8, i8* %31, i64 48
  %33 = bitcast i8* %32 to %"class.__gnu_debug::_Safe_vector.13"*
  %34 = load i64, i64* %5, align 8
  call void @_ZN11__gnu_debug12_Safe_vectorINSt7__debug6vectorINS2_IiSaIiEEESaIS4_EEENSt9__cxx19986vectorIS4_S5_EEEC2Em(%"class.__gnu_debug::_Safe_vector.13"* %33, i64 %34) #3
  %35 = load i32, i32* @x.180
  %36 = load i32, i32* @y.181
  %37 = sub i32 0, 1
  %38 = add i32 %35, %37
  %39 = sub i32 %35, 1
  %40 = mul i32 %35, %38
  %41 = urem i32 %40, 2
  %42 = icmp eq i32 %41, 0
  %43 = icmp slt i32 %36, 10
  %44 = xor i1 %42, true
  %45 = xor i1 %43, true
  %46 = xor i1 true, true
  %47 = and i1 %44, true
  %48 = and i1 %42, %46
  %49 = and i1 %45, true
  %50 = and i1 %43, %46
  %51 = or i1 %47, %48
  %52 = or i1 %49, %50
  %53 = xor i1 %51, %52
  %54 = or i1 %44, %45
  %55 = xor i1 %54, true
  %56 = or i1 true, %46
  %57 = and i1 %55, %56
  %58 = or i1 %53, %57
  %59 = or i1 %42, %43
  br i1 %58, label %60, label %125

; <label>:60:                                     ; preds = %30
  ret void

; <label>:61:                                     ; preds = %3
  %62 = landingpad { i8*, i32 }
          cleanup
  %63 = extractvalue { i8*, i32 } %62, 0
  store i8* %63, i8** %7, align 8
  %64 = extractvalue { i8*, i32 } %62, 1
  store i32 %64, i32* %8, align 4
  %65 = bitcast %"class.std::__debug::vector.3"* %9 to %"class.__gnu_debug::_Safe_container.4"*
  call void @_ZN11__gnu_debug15_Safe_containerINSt7__debug6vectorINS2_IiSaIiEEESaIS4_EEES5_NS_14_Safe_sequenceELb1EED2Ev(%"class.__gnu_debug::_Safe_container.4"* %65) #3
  br label %66

; <label>:66:                                     ; preds = %61
  %67 = load i32, i32* @x.180
  %68 = load i32, i32* @y.181
  %69 = sub i32 %67, -1914213980
  %70 = sub i32 %69, 1
  %71 = add i32 %70, -1914213980
  %72 = sub i32 %67, 1
  %73 = mul i32 %67, %71
  %74 = urem i32 %73, 2
  %75 = icmp eq i32 %74, 0
  %76 = icmp slt i32 %68, 10
  %77 = xor i1 %75, true
  %78 = xor i1 %76, true
  %79 = xor i1 false, true
  %80 = and i1 %77, false
  %81 = and i1 %75, %79
  %82 = and i1 %78, false
  %83 = and i1 %76, %79
  %84 = or i1 %80, %81
  %85 = or i1 %82, %83
  %86 = xor i1 %84, %85
  %87 = or i1 %77, %78
  %88 = xor i1 %87, true
  %89 = or i1 false, %79
  %90 = and i1 %88, %89
  %91 = or i1 %86, %90
  %92 = or i1 %75, %76
  br i1 %91, label %93, label %130

; <label>:93:                                     ; preds = %66, %130
  %94 = load i8*, i8** %7, align 8
  %95 = load i32, i32* %8, align 4
  %96 = insertvalue { i8*, i32 } undef, i8* %94, 0
  %97 = insertvalue { i8*, i32 } %96, i32 %95, 1
  %98 = load i32, i32* @x.180
  %99 = load i32, i32* @y.181
  %100 = add i32 %98, 1545264170
  %101 = sub i32 %100, 1
  %102 = sub i32 %101, 1545264170
  %103 = sub i32 %98, 1
  %104 = mul i32 %98, %102
  %105 = urem i32 %104, 2
