; ModuleID = 'Project_CodeNet_C++1400/p03598/s410424264.cpp'
source_filename = "Project_CodeNet_C++1400/p03598/s410424264.cpp"
target datalayout = "e-m:e-i64:64-f80:128-n8:16:32:64-S128"
target triple = "x86_64-unknown-linux-gnu"

%"class.std::ios_base::Init" = type { i8 }
%"class.std::basic_istream" = type { i32 (...)**, i64, %"class.std::basic_ios" }
%"class.std::basic_ios" = type { %"class.std::ios_base", %"class.std::basic_ostream"*, i8, i8, %"class.std::basic_streambuf"*, %"class.std::ctype"*, %"class.std::num_put"*, %"class.std::num_get"* }
%"class.std::ios_base" = type { i32 (...)**, i64, i64, i32, i32, i32, %"struct.std::ios_base::_Callback_list"*, %"struct.std::ios_base::_Words", [8 x %"struct.std::ios_base::_Words"], i32, %"struct.std::ios_base::_Words"*, %"class.std::locale" }
%"struct.std::ios_base::_Callback_list" = type { %"struct.std::ios_base::_Callback_list"*, void (i32, %"class.std::ios_base"*, i32)*, i32, i32 }
%"struct.std::ios_base::_Words" = type { i8*, i64 }
%"class.std::locale" = type { %"class.std::locale::_Impl"* }
%"class.std::locale::_Impl" = type { i32, %"class.std::locale::facet"**, i64, %"class.std::locale::facet"**, i8** }
%"class.std::locale::facet" = type <{ i32 (...)**, i32, [4 x i8] }>
%"class.std::basic_ostream" = type { i32 (...)**, %"class.std::basic_ios" }
%"class.std::basic_streambuf" = type { i32 (...)**, i8*, i8*, i8*, i8*, i8*, i8*, %"class.std::locale" }
%"class.std::ctype" = type <{ %"class.std::locale::facet.base", [4 x i8], %struct.__locale_struct*, i8, [7 x i8], i32*, i32*, i16*, i8, [256 x i8], [256 x i8], i8, [6 x i8] }>
%"class.std::locale::facet.base" = type <{ i32 (...)**, i32 }>
%struct.__locale_struct = type { [13 x %struct.__locale_data*], i16*, i32*, i32*, [13 x i8*] }
%struct.__locale_data = type opaque
%"class.std::num_put" = type { %"class.std::locale::facet.base", [4 x i8] }
%"class.std::num_get" = type { %"class.std::locale::facet.base", [4 x i8] }

$_ZSt3minIiERKT_S2_S2_ = comdat any

@_ZStL8__ioinit = internal global %"class.std::ios_base::Init" zeroinitializer, align 1
@__dso_handle = external global i8
@_ZSt3cin = external global %"class.std::basic_istream", align 8
@_ZSt4cout = external global %"class.std::basic_ostream", align 8
@llvm.global_ctors = appending global [1 x { i32, void ()*, i8* }] [{ i32, void ()*, i8* } { i32 65535, void ()* @_GLOBAL__sub_I_s410424264.cpp, i8* null }]
@x = common global i32 0
@y = common global i32 0
@x.1 = common global i32 0
@y.2 = common global i32 0
@x.3 = common global i32 0
@y.4 = common global i32 0
@x.5 = common global i32 0
@y.6 = common global i32 0

; Function Attrs: noinline uwtable
define internal void @__cxx_global_var_init() #0 section ".text.startup" {
  call void @_ZNSt8ios_base4InitC1Ev(%"class.std::ios_base::Init"* @_ZStL8__ioinit)
  %1 = call i32 @__cxa_atexit(void (i8*)* bitcast (void (%"class.std::ios_base::Init"*)* @_ZNSt8ios_base4InitD1Ev to void (i8*)*), i8* getelementptr inbounds (%"class.std::ios_base::Init", %"class.std::ios_base::Init"* @_ZStL8__ioinit, i32 0, i32 0), i8* @__dso_handle) #3
  ret void
}

declare void @_ZNSt8ios_base4InitC1Ev(%"class.std::ios_base::Init"*) unnamed_addr #1

; Function Attrs: nounwind
declare void @_ZNSt8ios_base4InitD1Ev(%"class.std::ios_base::Init"*) unnamed_addr #2

; Function Attrs: nounwind
declare i32 @__cxa_atexit(void (i8*)*, i8*, i8*) #3

; Function Attrs: noinline norecurse uwtable
define i32 @main() #4 {
  %1 = load i32, i32* @x.1
  %2 = load i32, i32* @y.2
  %3 = sub i32 %1, 1
  %4 = mul i32 %1, %3
  %5 = urem i32 %4, 2
  %6 = icmp eq i32 %5, 0
  %7 = icmp slt i32 %2, 10
  %8 = or i1 %6, %7
  br i1 %8, label %9, label %88

; <label>:9:                                      ; preds = %0, %88
  %10 = alloca i32, align 4
  %11 = alloca i32, align 4
  %12 = alloca i32, align 4
  %13 = alloca i32, align 4
  %14 = alloca i32, align 4
  %15 = alloca i32, align 4
  %16 = alloca i32, align 4
  %17 = alloca i32, align 4
  store i32 0, i32* %10, align 4
  %18 = call dereferenceable(280) %"class.std::basic_istream"* @_ZNSirsERi(%"class.std::basic_istream"* @_ZSt3cin, i32* dereferenceable(4) %11)
  %19 = call dereferenceable(280) %"class.std::basic_istream"* @_ZNSirsERi(%"class.std::basic_istream"* %18, i32* dereferenceable(4) %12)
  store i32 0, i32* %13, align 4
  store i32 0, i32* %14, align 4
  %20 = load i32, i32* @x.1
  %21 = load i32, i32* @y.2
  %22 = sub i32 %20, 1
  %23 = mul i32 %20, %22
  %24 = urem i32 %23, 2
  %25 = icmp eq i32 %24, 0
  %26 = icmp slt i32 %21, 10
  %27 = or i1 %25, %26
  br i1 %27, label %28, label %88

; <label>:28:                                     ; preds = %9
  br label %29

; <label>:29:                                     ; preds = %82, %28
  %30 = load i32, i32* %14, align 4
  %31 = load i32, i32* %11, align 4
  %32 = icmp slt i32 %30, %31
  br i1 %32, label %33, label %83

; <label>:33:                                     ; preds = %29
  %34 = load i32, i32* @x.1
  %35 = load i32, i32* @y.2
  %36 = sub i32 %34, 1
  %37 = mul i32 %34, %36
  %38 = urem i32 %37, 2
  %39 = icmp eq i32 %38, 0
  %40 = icmp slt i32 %35, 10
  %41 = or i1 %39, %40
  br i1 %41, label %42, label %99

; <label>:42:                                     ; preds = %33, %99
  %43 = call dereferenceable(280) %"class.std::basic_istream"* @_ZNSirsERi(%"class.std::basic_istream"* @_ZSt3cin, i32* dereferenceable(4) %15)
  %44 = load i32, i32* %12, align 4
  %45 = load i32, i32* %15, align 4
  %46 = sub nsw i32 %44, %45
  store i32 %46, i32* %17, align 4
  %47 = call dereferenceable(4) i32* @_ZSt3minIiERKT_S2_S2_(i32* dereferenceable(4) %15, i32* dereferenceable(4) %17)
  %48 = load i32, i32* %47, align 4
  store i32 %48, i32* %16, align 4
  %49 = load i32, i32* %16, align 4
  %50 = mul nsw i32 %49, 2
  %51 = load i32, i32* %13, align 4
  %52 = add nsw i32 %51, %50
  store i32 %52, i32* %13, align 4
  %53 = load i32, i32* @x.1
  %54 = load i32, i32* @y.2
  %55 = sub i32 %53, 1
  %56 = mul i32 %53, %55
  %57 = urem i32 %56, 2
  %58 = icmp eq i32 %57, 0
  %59 = icmp slt i32 %54, 10
  %60 = or i1 %58, %59
  br i1 %60, label %61, label %99

; <label>:61:                                     ; preds = %42
  br label %62

; <label>:62:                                     ; preds = %61
  %63 = load i32, i32* @x.1
  %64 = load i32, i32* @y.2
  %65 = sub i32 %63, 1
  %66 = mul i32 %63, %65
  %67 = urem i32 %66, 2
  %68 = icmp eq i32 %67, 0
  %69 = icmp slt i32 %64, 10
  %70 = or i1 %68, %69
  br i1 %70, label %71, label %123

; <label>:71:                                     ; preds = %62, %123
  %72 = load i32, i32* %14, align 4
  %73 = add nsw i32 %72, 1
  store i32 %73, i32* %14, align 4
  %74 = load i32, i32* @x.1
  %75 = load i32, i32* @y.2
  %76 = sub i32 %74, 1
  %77 = mul i32 %74, %76
  %78 = urem i32 %77, 2
  %79 = icmp eq i32 %78, 0
  %80 = icmp slt i32 %75, 10
  %81 = or i1 %79, %80
  br i1 %81, label %82, label %123

; <label>:82:                                     ; preds = %71
  br label %29

; <label>:83:                                     ; preds = %29
  %84 = load i32, i32* %13, align 4
  %85 = call dereferenceable(272) %"class.std::basic_ostream"* @_ZNSolsEi(%"class.std::basic_ostream"* @_ZSt4cout, i32 %84)
  %86 = call dereferenceable(272) %"class.std::basic_ostream"* @_ZNSolsEPFRSoS_E(%"class.std::basic_ostream"* %85, %"class.std::basic_ostream"* (%"class.std::basic_ostream"*)* @_ZSt4endlIcSt11char_traitsIcEERSt13basic_ostreamIT_T0_ES6_)
  %87 = load i32, i32* %10, align 4
  ret i32 %87

; <label>:88:                                     ; preds = %9, %0
  %89 = alloca i32, align 4
  %90 = alloca i32, align 4
  %91 = alloca i32, align 4
  %92 = alloca i32, align 4
  %93 = alloca i32, align 4
  %94 = alloca i32, align 4
  %95 = alloca i32, align 4
  %96 = alloca i32, align 4
  store i32 0, i32* %89, align 4
  %97 = call dereferenceable(280) %"class.std::basic_istream"* @_ZNSirsERi(%"class.std::basic_istream"* @_ZSt3cin, i32* dereferenceable(4) %90)
  %98 = call dereferenceable(280) %"class.std::basic_istream"* @_ZNSirsERi(%"class.std::basic_istream"* %97, i32* dereferenceable(4) %91)
  store i32 0, i32* %92, align 4
  store i32 0, i32* %93, align 4
  br label %9

; <label>:99:                                     ; preds = %42, %33
  %100 = call dereferenceable(280) %"class.std::basic_istream"* @_ZNSirsERi(%"class.std::basic_istream"* @_ZSt3cin, i32* dereferenceable(4) %15)
  %101 = load i32, i32* %12, align 4
  %102 = load i32, i32* %15, align 4
  %103 = sub i32 0, %101
  %104 = add i32 %103, %102
  %105 = sub i32 %101, %102
  %106 = mul i32 %105, %102
  %107 = sub nsw i32 %101, %102
  store i32 %107, i32* %17, align 4
  %108 = call dereferenceable(4) i32* @_ZSt3minIiERKT_S2_S2_(i32* dereferenceable(4) %15, i32* dereferenceable(4) %17)
  %109 = load i32, i32* %108, align 4
  store i32 %109, i32* %16, align 4
  %110 = load i32, i32* %16, align 4
  %111 = sub i32 %110, 2
  %112 = mul i32 %111, 2
  %113 = sub i32 0, %110
  %114 = add i32 %113, 2
  %115 = mul nsw i32 %110, 2
  %116 = load i32, i32* %13, align 4
  %117 = shl i32 %116, %115
  %118 = sub i32 %116, %115
  %119 = mul i32 %118, %115
  %120 = shl i32 %116, %115
  %121 = shl i32 %116, %115
  %122 = add nsw i32 %116, %115
  store i32 %122, i32* %13, align 4
  br label %42

; <label>:123:                                    ; preds = %71, %62
  %124 = load i32, i32* %14, align 4
  %125 = shl i32 %124, 1
  %126 = sub i32 %124, 1
  %127 = mul i32 %126, 1
  %128 = shl i32 %124, 1
  %129 = add nsw i32 %124, 1
  store i32 %129, i32* %14, align 4
  br label %71
}

declare dereferenceable(280) %"class.std::basic_istream"* @_ZNSirsERi(%"class.std::basic_istream"*, i32* dereferenceable(4)) #1

; Function Attrs: noinline nounwind uwtable
define linkonce_odr dereferenceable(4) i32* @_ZSt3minIiERKT_S2_S2_(i32* dereferenceable(4), i32* dereferenceable(4)) #5 comdat {
  %3 = load i32, i32* @x.3
  %4 = load i32, i32* @y.4
  %5 = sub i32 %3, 1
  %6 = mul i32 %3, %5
  %7 = urem i32 %6, 2
  %8 = icmp eq i32 %7, 0
  %9 = icmp slt i32 %4, 10
  %10 = or i1 %8, %9
  br i1 %10, label %11, label %35

; <label>:11:                                     ; preds = %2, %35
  %12 = alloca i32*, align 8
  %13 = alloca i32*, align 8
  %14 = alloca i32*, align 8
  store i32* %0, i32** %13, align 8
  store i32* %1, i32** %14, align 8
  %15 = load i32*, i32** %14, align 8
  %16 = load i32, i32* %15, align 4
  %17 = load i32*, i32** %13, align 8
  %18 = load i32, i32* %17, align 4
  %19 = icmp slt i32 %16, %18
  %20 = load i32, i32* @x.3
  %21 = load i32, i32* @y.4
  %22 = sub i32 %20, 1
  %23 = mul i32 %20, %22
  %24 = urem i32 %23, 2
  %25 = icmp eq i32 %24, 0
  %26 = icmp slt i32 %21, 10
  %27 = or i1 %25, %26
  br i1 %27, label %28, label %35

; <label>:28:                                     ; preds = %11
  br i1 %19, label %29, label %31

; <label>:29:                                     ; preds = %28
  %30 = load i32*, i32** %14, align 8
  store i32* %30, i32** %12, align 8
  br label %33

; <label>:31:                                     ; preds = %28
  %32 = load i32*, i32** %13, align 8
  store i32* %32, i32** %12, align 8
  br label %33

; <label>:33:                                     ; preds = %31, %29
  %34 = load i32*, i32** %12, align 8
  ret i32* %34

; <label>:35:                                     ; preds = %11, %2
  %36 = alloca i32*, align 8
  %37 = alloca i32*, align 8
  %38 = alloca i32*, align 8
  store i32* %0, i32** %37, align 8
  store i32* %1, i32** %38, align 8
  %39 = load i32*, i32** %38, align 8
  %40 = load i32, i32* %39, align 4
  %41 = load i32*, i32** %37, align 8
  %42 = load i32, i32* %41, align 4
  %43 = icmp slt i32 %40, %42
  br label %11
}

declare dereferenceable(272) %"class.std::basic_ostream"* @_ZNSolsEi(%"class.std::basic_ostream"*, i32) #1

declare dereferenceable(272) %"class.std::basic_ostream"* @_ZNSolsEPFRSoS_E(%"class.std::basic_ostream"*, %"class.std::basic_ostream"* (%"class.std::basic_ostream"*)*) #1

declare dereferenceable(272) %"class.std::basic_ostream"* @_ZSt4endlIcSt11char_traitsIcEERSt13basic_ostreamIT_T0_ES6_(%"class.std::basic_ostream"* dereferenceable(272)) #1

; Function Attrs: noinline uwtable
define internal void @_GLOBAL__sub_I_s410424264.cpp() #0 section ".text.startup" {
  call void @__cxx_global_var_init()
  ret void
}

attributes #0 = { noinline uwtable "correctly-rounded-divide-sqrt-fp-math"="false" "disable-tail-calls"="false" "less-precise-fpmad"="false" "no-frame-pointer-elim"="true" "no-frame-pointer-elim-non-leaf" "no-infs-fp-math"="false" "no-jump-tables"="false" "no-nans-fp-math"="false" "no-signed-zeros-fp-math"="false" "no-trapping-math"="false" "stack-protector-buffer-size"="8" "target-cpu"="x86-64" "target-features"="+fxsr,+mmx,+sse,+sse2,+x87" "unsafe-fp-math"="false" "use-soft-float"="false" }
attributes #1 = { "correctly-rounded-divide-sqrt-fp-math"="false" "disable-tail-calls"="false" "less-precise-fpmad"="false" "no-frame-pointer-elim"="true" "no-frame-pointer-elim-non-leaf" "no-infs-fp-math"="false" "no-nans-fp-math"="false" "no-signed-zeros-fp-math"="false" "no-trapping-math"="false" "stack-protector-buffer-size"="8" "target-cpu"="x86-64" "target-features"="+fxsr,+mmx,+sse,+sse2,+x87" "unsafe-fp-math"="false" "use-soft-float"="false" }
attributes #2 = { nounwind "correctly-rounded-divide-sqrt-fp-math"="false" "disable-tail-calls"="false" "less-precise-fpmad"="false" "no-frame-pointer-elim"="true" "no-frame-pointer-elim-non-leaf" "no-infs-fp-math"="false" "no-nans-fp-math"="false" "no-signed-zeros-fp-math"="false" "no-trapping-math"="false" "stack-protector-buffer-size"="8" "target-cpu"="x86-64" "target-features"="+fxsr,+mmx,+sse,+sse2,+x87" "unsafe-fp-math"="false" "use-soft-float"="false" }
attributes #3 = { nounwind }
attributes #4 = { noinline norecurse uwtable "correctly-rounded-divide-sqrt-fp-math"="false" "disable-tail-calls"="false" "less-precise-fpmad"="false" "no-frame-pointer-elim"="true" "no-frame-pointer-elim-non-leaf" "no-infs-fp-math"="false" "no-jump-tables"="false" "no-nans-fp-math"="false" "no-signed-zeros-fp-math"="false" "no-trapping-math"="false" "stack-protector-buffer-size"="8" "target-cpu"="x86-64" "target-features"="+fxsr,+mmx,+sse,+sse2,+x87" "unsafe-fp-math"="false" "use-soft-float"="false" }
attributes #5 = { noinline nounwind uwtable "correctly-rounded-divide-sqrt-fp-math"="false" "disable-tail-calls"="false" "less-precise-fpmad"="false" "no-frame-pointer-elim"="true" "no-frame-pointer-elim-non-leaf" "no-infs-fp-math"="false" "no-jump-tables"="false" "no-nans-fp-math"="false" "no-signed-zeros-fp-math"="false" "no-trapping-math"="false" "stack-protector-buffer-size"="8" "target-cpu"="x86-64" "target-features"="+fxsr,+mmx,+sse,+sse2,+x87" "unsafe-fp-math"="false" "use-soft-float"="false" }

!llvm.ident = !{!0}

!0 = !{!"Obfuscator-LLVM clang version 4.0.1  (based on Obfuscator-LLVM 4.0.1)"}
