; ModuleID = 'Project_CodeNet_C++1400/p00036/s827603774.cpp'
source_filename = "Project_CodeNet_C++1400/p00036/s827603774.cpp"
target datalayout = "e-m:e-p270:32:32-p271:32:32-p272:64:64-i64:64-f80:128-n8:16:32:64-S128"
target triple = "x86_64-pc-linux-gnu"

%"class.std::ios_base::Init" = type { i8 }
%"class.std::basic_istream" = type { i32 (...)**, i64, %"class.std::basic_ios" }
%"class.std::basic_ios" = type { %"class.std::ios_base", %"class.std::basic_ostream"*, i8, i8, %"class.std::basic_streambuf"*, %"class.std::ctype"*, %"class.std::num_put"*, %"class.std::num_get"* }
%"class.std::ios_base" = type { i32 (...)**, i64, i64, i32, i32, i32, %"struct.std::ios_base::_Callback_list"*, %"struct.std::ios_base::_Words", [8 x %"struct.std::ios_base::_Words"], i32, %"struct.std::ios_base::_Words"*, %"class.std::locale" }
%"struct.std::ios_base::_Callback_list" = type { %"struct.std::ios_base::_Callback_list"*, void (i32, %"class.std::ios_base"*, i32)*, i32, i32 }
%"struct.std::ios_base::_Words" = type { i8*, i64 }
%"class.std::locale" = type { %"class.std::locale::_Impl"* }
%"class.std::locale::_Impl" = type { i32, %"class.std::locale::facet"**, i64, %"class.std::locale::facet"**, i8** }
%"class.std::locale::facet" = type <{ i32 (...)**, i32, [4 x i8] }>
%"class.std::basic_ostream" = type { i32 (...)**, %"class.std::basic_ios" }
%"class.std::basic_streambuf" = type { i32 (...)**, i8*, i8*, i8*, i8*, i8*, i8*, %"class.std::locale" }
%"class.std::ctype" = type <{ %"class.std::locale::facet.base", [4 x i8], %struct.__locale_struct*, i8, [7 x i8], i32*, i32*, i16*, i8, [256 x i8], [256 x i8], i8, [6 x i8] }>
%"class.std::locale::facet.base" = type <{ i32 (...)**, i32 }>
%struct.__locale_struct = type { [13 x %struct.__locale_data*], i16*, i32*, i32*, [13 x i8*] }
%struct.__locale_data = type opaque
%"class.std::num_put" = type { %"class.std::locale::facet.base", [4 x i8] }
%"class.std::num_get" = type { %"class.std::locale::facet.base", [4 x i8] }

@_ZStL8__ioinit = internal global %"class.std::ios_base::Init" zeroinitializer, align 1
@__dso_handle = external hidden global i8
@_ZSt3cin = external global %"class.std::basic_istream", align 8
@_ZSt4cout = external global %"class.std::basic_ostream", align 8
@.str = private unnamed_addr constant [6 x i8] c"error\00", align 1
@llvm.global_ctors = appending global [1 x { i32, void ()*, i8* }] [{ i32, void ()*, i8* } { i32 65535, void ()* @_GLOBAL__sub_I_s827603774.cpp, i8* null }]

declare void @_ZNSt8ios_base4InitC1Ev(%"class.std::ios_base::Init"* nonnull align 1 dereferenceable(1)) unnamed_addr #0

; Function Attrs: nounwind
declare void @_ZNSt8ios_base4InitD1Ev(%"class.std::ios_base::Init"* nonnull align 1 dereferenceable(1)) unnamed_addr #1

; Function Attrs: nofree nounwind
declare i32 @__cxa_atexit(void (i8*)*, i8*, i8*) local_unnamed_addr #2

; Function Attrs: mustprogress norecurse sspstrong uwtable
define dso_local i32 @main() local_unnamed_addr #3 {
  %1 = alloca i8, align 1
  %2 = alloca [8 x i64], align 16
  %3 = alloca i64, align 8
  %4 = bitcast [8 x i64]* %2 to i8*
  %5 = bitcast i64* %3 to i8*
  %6 = load i8*, i8** bitcast (%"class.std::basic_istream"* @_ZSt3cin to i8**), align 8, !tbaa !5
  %7 = getelementptr i8, i8* %6, i64 -24
  %8 = bitcast i8* %7 to i64*
  %9 = load i64, i64* %8, align 8
  %10 = add nsw i64 %9, 32
  %11 = getelementptr inbounds i8, i8* bitcast (%"class.std::basic_istream"* @_ZSt3cin to i8*), i64 %10
  %12 = bitcast i8* %11 to i32*
  %13 = load i32, i32* %12, align 8, !tbaa !8
  %14 = and i32 %13, 2
  %15 = icmp eq i32 %14, 0
  br i1 %15, label %16, label %146

16:                                               ; preds = %0
  %17 = getelementptr inbounds [8 x i64], [8 x i64]* %2, i64 0, i64 0
  %18 = getelementptr inbounds [8 x i64], [8 x i64]* %2, i64 0, i64 1
  %19 = getelementptr inbounds [8 x i64], [8 x i64]* %2, i64 0, i64 2
  %20 = getelementptr inbounds [8 x i64], [8 x i64]* %2, i64 0, i64 3
  %21 = getelementptr inbounds [8 x i64], [8 x i64]* %2, i64 0, i64 4
  %22 = getelementptr inbounds [8 x i64], [8 x i64]* %2, i64 0, i64 5
  %23 = getelementptr inbounds [8 x i64], [8 x i64]* %2, i64 0, i64 6
  %24 = getelementptr inbounds [8 x i64], [8 x i64]* %2, i64 0, i64 7
  br label %25

25:                                               ; preds = %16, %132
  call void @llvm.lifetime.start.p0i8(i64 64, i8* nonnull %4) #9
  call void @llvm.memset.p0i8.i64(i8* noundef nonnull align 16 dereferenceable(64) %4, i8 0, i64 64, i1 false)
  br label %40

26:                                               ; preds = %40
  %27 = load i8*, i8** bitcast (%"class.std::basic_istream"* @_ZSt3cin to i8**), align 8, !tbaa !5
  %28 = getelementptr i8, i8* %27, i64 -24
  %29 = bitcast i8* %28 to i64*
  %30 = load i64, i64* %29, align 8
  %31 = add nsw i64 %30, 32
  %32 = getelementptr inbounds i8, i8* bitcast (%"class.std::basic_istream"* @_ZSt3cin to i8*), i64 %31
  %33 = bitcast i8* %32 to i32*
  %34 = load i32, i32* %33, align 8, !tbaa !8
  %35 = and i32 %34, 2
  %36 = icmp eq i32 %35, 0
  br i1 %36, label %37, label %131

37:                                               ; preds = %26
  %38 = load i64, i64* %17, align 16, !tbaa !18
  %39 = icmp eq i64 %38, 3
  br i1 %39, label %78, label %81

40:                                               ; preds = %25, %40
  %41 = phi i64 [ 0, %25 ], [ %76, %40 ]
  call void @llvm.lifetime.start.p0i8(i64 8, i8* nonnull %5) #9
  %42 = call nonnull align 8 dereferenceable(16) %"class.std::basic_istream"* @_ZNSi10_M_extractIlEERSiRT_(%"class.std::basic_istream"* nonnull align 8 dereferenceable(16) @_ZSt3cin, i64* nonnull align 8 dereferenceable(8) %3)
  %43 = getelementptr inbounds [8 x i64], [8 x i64]* %2, i64 0, i64 %41
  %44 = load i64, i64* %3, align 8, !tbaa !18
  %45 = load i64, i64* %43, align 8, !tbaa !18
  %46 = srem i64 %44, 10
  %47 = add nsw i64 %46, %45
  %48 = sdiv i64 %44, 10
  %49 = srem i64 %48, 10
  %50 = shl nsw i64 %49, 1
  %51 = add nsw i64 %50, %47
  %52 = sdiv i64 %44, 100
  %53 = srem i64 %52, 10
  %54 = shl nsw i64 %53, 2
  %55 = add nsw i64 %54, %51
  %56 = sdiv i64 %44, 1000
  %57 = srem i64 %56, 10
  %58 = shl nsw i64 %57, 3
  %59 = add nsw i64 %58, %55
  %60 = sdiv i64 %44, 10000
  %61 = srem i64 %60, 10
  %62 = shl nsw i64 %61, 4
  %63 = add nsw i64 %62, %59
  %64 = sdiv i64 %44, 100000
  %65 = srem i64 %64, 10
  %66 = shl nsw i64 %65, 5
  %67 = add nsw i64 %66, %63
  %68 = sdiv i64 %44, 1000000
  %69 = srem i64 %68, 10
  %70 = shl nsw i64 %69, 6
  %71 = add nsw i64 %70, %67
  %72 = sdiv i64 %44, 10000000
  %73 = srem i64 %72, 10
  %74 = shl nsw i64 %73, 7
  %75 = add nsw i64 %74, %71
  store i64 %75, i64* %43, align 8, !tbaa !18
  call void @llvm.lifetime.end.p0i8(i64 8, i8* nonnull %5) #9
  %76 = add nuw nsw i64 %41, 1
  %77 = icmp eq i64 %76, 8
  br i1 %77, label %26, label %40, !llvm.loop !19

78:                                               ; preds = %37
  %79 = load i64, i64* %18, align 8, !tbaa !18
  %80 = icmp eq i64 %79, 3
  br i1 %80, label %103, label %162

81:                                               ; preds = %37
  switch i64 %38, label %162 [
    i64 6, label %147
    i64 12, label %150
    i64 24, label %153
    i64 48, label %156
    i64 96, label %159
    i64 192, label %169
  ]

82:                                               ; preds = %393
  %83 = icmp eq i64 %179, 1
  br i1 %83, label %103, label %415

84:                                               ; preds = %393
  switch i64 %38, label %415 [
    i64 2, label %401
    i64 4, label %403
    i64 8, label %405
    i64 16, label %407
    i64 32, label %409
    i64 64, label %411
    i64 128, label %413
  ]

85:                                               ; preds = %535
  %86 = xor i1 %419, true
  %87 = and i1 %419, %214
  %88 = and i1 %214, %86
  br i1 %87, label %103, label %537

89:                                               ; preds = %671
  %90 = select i1 %176, i1 %180, i1 false
  br i1 %90, label %103, label %679

91:                                               ; preds = %833
  %92 = and i1 %176, %686
  %93 = and i1 %175, %690
  %94 = or i1 %92, %93
  %95 = and i1 %177, %694
  %96 = or i1 %94, %95
  %97 = and i1 %174, %696
  %98 = or i1 %96, %97
  %99 = and i1 %178, %556
  %100 = or i1 %98, %99
  %101 = and i1 %682, %709
  %102 = or i1 %100, %101
  br i1 %102, label %103, label %882

103:                                              ; preds = %992, %989, %986, %983, %980, %972, %968, %964, %960, %952, %946, %942, %937, %931, %925, %921, %909, %905, %900, %894, %888, %882, %91, %833, %830, %827, %824, %821, %818, %815, %810, %806, %802, %798, %794, %792, %787, %783, %779, %775, %771, %769, %764, %760, %756, %752, %748, %746, %741, %737, %733, %729, %725, %723, %718, %714, %710, %706, %702, %700, %695, %691, %687, %683, %679, %89, %657, %653, %649, %645, %641, %637, %635, %631, %627, %623, %619, %615, %611, %609, %605, %601, %597, %593, %589, %585, %583, %579, %575, %571, %567, %563, %559, %557, %553, %549, %545, %541, %537, %85, %533, %533, %533, %533, %533, %532, %532, %532, %532, %532, %531, %531, %531, %531, %531, %530, %530, %530, %530, %530, %529, %529, %529, %529, %529, %528, %528, %528, %528, %528, %527, %527, %527, %527, %527, %519, %519, %519, %519, %519, %535, %78, %147, %150, %153, %156, %159, %169, %181, %185, %188, %191, %194, %197, %207, %219, %223, %226, %229, %232, %235, %245, %257, %261, %264, %267, %270, %273, %283, %295, %299, %302, %305, %308, %311, %321, %333, %337, %340, %343, %346, %349, %359, %371, %375, %378, %381, %384, %387, %390, %82, %401, %403, %405, %407, %409, %411, %413, %424, %427, %429, %431, %433, %435, %437, %439, %450, %453, %455, %457, %459, %461, %463, %465, %476, %479, %481, %483, %485, %487, %489, %491, %502, %505, %507, %509, %511, %513, %515, %517, %663, %665, %666, %667, %668, %669, %670, %671
  %104 = phi i8 [ 70, %833 ], [ 69, %671 ], [ 68, %670 ], [ 68, %669 ], [ 68, %668 ], [ 68, %667 ], [ 68, %666 ], [ 68, %665 ], [ 68, %663 ], [ 67, %533 ], [ 67, %532 ], [ 67, %531 ], [ 67, %530 ], [ 67, %529 ], [ 67, %528 ], [ 67, %527 ], [ 67, %519 ], [ 66, %517 ], [ 66, %515 ], [ 66, %513 ], [ 66, %511 ], [ 66, %509 ], [ 66, %507 ], [ 66, %505 ], [ 66, %502 ], [ 66, %491 ], [ 66, %489 ], [ 66, %487 ], [ 66, %485 ], [ 66, %483 ], [ 66, %481 ], [ 66, %479 ], [ 66, %476 ], [ 66, %465 ], [ 66, %463 ], [ 66, %461 ], [ 66, %459 ], [ 66, %457 ], [ 66, %455 ], [ 66, %453 ], [ 66, %450 ], [ 66, %439 ], [ 66, %437 ], [ 66, %435 ], [ 66, %433 ], [ 66, %431 ], [ 66, %429 ], [ 66, %427 ], [ 66, %424 ], [ 66, %413 ], [ 66, %411 ], [ 66, %409 ], [ 66, %407 ], [ 66, %405 ], [ 66, %403 ], [ 66, %401 ], [ 66, %82 ], [ 65, %390 ], [ 65, %387 ], [ 65, %384 ], [ 65, %381 ], [ 65, %378 ], [ 65, %375 ], [ 65, %371 ], [ 65, %359 ], [ 65, %349 ], [ 65, %346 ], [ 65, %343 ], [ 65, %340 ], [ 65, %337 ], [ 65, %333 ], [ 65, %321 ], [ 65, %311 ], [ 65, %308 ], [ 65, %305 ], [ 65, %302 ], [ 65, %299 ], [ 65, %295 ], [ 65, %283 ], [ 65, %273 ], [ 65, %270 ], [ 65, %267 ], [ 65, %264 ], [ 65, %261 ], [ 65, %257 ], [ 65, %245 ], [ 65, %235 ], [ 65, %232 ], [ 65, %229 ], [ 65, %226 ], [ 65, %223 ], [ 65, %219 ], [ 65, %207 ], [ 65, %197 ], [ 65, %194 ], [ 65, %191 ], [ 65, %188 ], [ 65, %185 ], [ 65, %181 ], [ 65, %169 ], [ 65, %159 ], [ 65, %156 ], [ 65, %153 ], [ 65, %150 ], [ 65, %147 ], [ 65, %78 ], [ 67, %519 ], [ 68, %535 ], [ 67, %519 ], [ 67, %519 ], [ 67, %519 ], [ 67, %527 ], [ 67, %527 ], [ 67, %527 ], [ 67, %527 ], [ 67, %528 ], [ 67, %528 ], [ 67, %528 ], [ 67, %528 ], [ 67, %529 ], [ 67, %529 ], [ 67, %529 ], [ 67, %529 ], [ 67, %530 ], [ 67, %530 ], [ 67, %530 ], [ 67, %530 ], [ 67, %531 ], [ 67, %531 ], [ 67, %531 ], [ 67, %531 ], [ 67, %532 ], [ 67, %532 ], [ 67, %532 ], [ 67, %532 ], [ 67, %533 ], [ 67, %533 ], [ 67, %533 ], [ 67, %533 ], [ 68, %85 ], [ 68, %537 ], [ 68, %541 ], [ 68, %545 ], [ 68, %549 ], [ 68, %553 ], [ 68, %557 ], [ 68, %559 ], [ 68, %563 ], [ 68, %567 ], [ 68, %571 ], [ 68, %575 ], [ 68, %579 ], [ 68, %583 ], [ 68, %585 ], [ 68, %589 ], [ 68, %593 ], [ 68, %597 ], [ 68, %601 ], [ 68, %605 ], [ 68, %609 ], [ 68, %611 ], [ 68, %615 ], [ 68, %619 ], [ 68, %623 ], [ 68, %627 ], [ 68, %631 ], [ 68, %635 ], [ 68, %637 ], [ 68, %641 ], [ 68, %645 ], [ 68, %649 ], [ 68, %653 ], [ 68, %657 ], [ 69, %89 ], [ 69, %679 ], [ 69, %683 ], [ 69, %687 ], [ 69, %691 ], [ 69, %695 ], [ 69, %700 ], [ 69, %702 ], [ 69, %706 ], [ 69, %710 ], [ 69, %714 ], [ 69, %718 ], [ 69, %723 ], [ 69, %725 ], [ 69, %729 ], [ 69, %733 ], [ 69, %737 ], [ 69, %741 ], [ 69, %746 ], [ 69, %748 ], [ 69, %752 ], [ 69, %756 ], [ 69, %760 ], [ 69, %764 ], [ 69, %769 ], [ 69, %771 ], [ 69, %775 ], [ 69, %779 ], [ 69, %783 ], [ 69, %787 ], [ 69, %792 ], [ 69, %794 ], [ 69, %798 ], [ 69, %802 ], [ 69, %806 ], [ 69, %810 ], [ 69, %815 ], [ 69, %818 ], [ 69, %821 ], [ 69, %824 ], [ 69, %827 ], [ 69, %830 ], [ 71, %91 ], [ 71, %882 ], [ 71, %888 ], [ 71, %894 ], [ 71, %900 ], [ 71, %905 ], [ 71, %909 ], [ 71, %921 ], [ 71, %925 ], [ 71, %931 ], [ 71, %937 ], [ 71, %942 ], [ 71, %946 ], [ 71, %952 ], [ 71, %960 ], [ 71, %964 ], [ 71, %968 ], [ 71, %972 ], [ 71, %980 ], [ 71, %983 ], [ 71, %986 ], [ 71, %989 ], [ 71, %992 ]
  call void @llvm.lifetime.start.p0i8(i64 1, i8* nonnull %1)
  store i8 %104, i8* %1, align 1, !tbaa !21
  %105 = call nonnull align 8 dereferenceable(8) %"class.std::basic_ostream"* @_ZSt16__ostream_insertIcSt11char_traitsIcEERSt13basic_ostreamIT_T0_ES6_PKS3_l(%"class.std::basic_ostream"* nonnull align 8 dereferenceable(8) @_ZSt4cout, i8* nonnull %1, i64 1)
  call void @llvm.lifetime.end.p0i8(i64 1, i8* nonnull %1)
  %106 = bitcast %"class.std::basic_ostream"* %105 to i8**
  %107 = load i8*, i8** %106, align 8, !tbaa !5
  %108 = getelementptr i8, i8* %107, i64 -24
  %109 = bitcast i8* %108 to i64*
  %110 = load i64, i64* %109, align 8
  %111 = bitcast %"class.std::basic_ostream"* %105 to i8*
  %112 = add nsw i64 %110, 240
  %113 = getelementptr inbounds i8, i8* %111, i64 %112
  %114 = bitcast i8* %113 to %"class.std::ctype"**
  %115 = load %"class.std::ctype"*, %"class.std::ctype"** %114, align 8, !tbaa !22
  %116 = icmp eq %"class.std::ctype"* %115, null
  br i1 %116, label %117, label %118

117:                                              ; preds = %103
  call void @_ZSt16__throw_bad_castv() #10
  unreachable

118:                                              ; preds = %103
  %119 = getelementptr inbounds %"class.std::ctype", %"class.std::ctype"* %115, i64 0, i32 8
  %120 = load i8, i8* %119, align 8, !tbaa !25
  %121 = icmp eq i8 %120, 0
  br i1 %121, label %125, label %122

122:                                              ; preds = %118
  %123 = getelementptr inbounds %"class.std::ctype", %"class.std::ctype"* %115, i64 0, i32 9, i64 10
  %124 = load i8, i8* %123, align 1, !tbaa !21
  br label %132

125:                                              ; preds = %118
  call void @_ZNKSt5ctypeIcE13_M_widen_initEv(%"class.std::ctype"* nonnull align 8 dereferenceable(570) %115)
  %126 = bitcast %"class.std::ctype"* %115 to i8 (%"class.std::ctype"*, i8)***
  %127 = load i8 (%"class.std::ctype"*, i8)**, i8 (%"class.std::ctype"*, i8)*** %126, align 8, !tbaa !5
  %128 = getelementptr inbounds i8 (%"class.std::ctype"*, i8)*, i8 (%"class.std::ctype"*, i8)** %127, i64 6
  %129 = load i8 (%"class.std::ctype"*, i8)*, i8 (%"class.std::ctype"*, i8)** %128, align 8
  %130 = call signext i8 %129(%"class.std::ctype"* nonnull align 8 dereferenceable(570) %115, i8 signext 10)
  br label %132

131:                                              ; preds = %26, %995
  call void @llvm.lifetime.end.p0i8(i64 64, i8* nonnull %4) #9
  br label %146

132:                                              ; preds = %125, %122
  %133 = phi i8 [ %124, %122 ], [ %130, %125 ]
  %134 = call nonnull align 8 dereferenceable(8) %"class.std::basic_ostream"* @_ZNSo3putEc(%"class.std::basic_ostream"* nonnull align 8 dereferenceable(8) %105, i8 signext %133)
  %135 = call nonnull align 8 dereferenceable(8) %"class.std::basic_ostream"* @_ZNSo5flushEv(%"class.std::basic_ostream"* nonnull align 8 dereferenceable(8) %134)
  call void @llvm.lifetime.end.p0i8(i64 64, i8* nonnull %4) #9
  %136 = load i8*, i8** bitcast (%"class.std::basic_istream"* @_ZSt3cin to i8**), align 8, !tbaa !5
  %137 = getelementptr i8, i8* %136, i64 -24
  %138 = bitcast i8* %137 to i64*
  %139 = load i64, i64* %138, align 8
  %140 = add nsw i64 %139, 32
  %141 = getelementptr inbounds i8, i8* bitcast (%"class.std::basic_istream"* @_ZSt3cin to i8*), i64 %140
  %142 = bitcast i8* %141 to i32*
  %143 = load i32, i32* %142, align 8, !tbaa !8
  %144 = and i32 %143, 2
  %145 = icmp eq i32 %144, 0
  br i1 %145, label %25, label %146, !llvm.loop !27

146:                                              ; preds = %132, %0, %131
  ret i32 0

147:                                              ; preds = %81
  %148 = load i64, i64* %18, align 8, !tbaa !18
  %149 = icmp eq i64 %148, 6
  br i1 %149, label %103, label %162

150:                                              ; preds = %81
  %151 = load i64, i64* %18, align 8, !tbaa !18
  %152 = icmp eq i64 %151, 12
  br i1 %152, label %103, label %162

153:                                              ; preds = %81
  %154 = load i64, i64* %18, align 8, !tbaa !18
  %155 = icmp eq i64 %154, 24
  br i1 %155, label %103, label %162

156:                                              ; preds = %81
  %157 = load i64, i64* %18, align 8, !tbaa !18
  %158 = icmp eq i64 %157, 48
  br i1 %158, label %103, label %162

159:                                              ; preds = %81
  %160 = load i64, i64* %18, align 8, !tbaa !18
  %161 = icmp eq i64 %160, 96
  br i1 %161, label %103, label %162

162:                                              ; preds = %81, %159, %153, %147, %78, %150, %156
  %163 = phi i1 [ false, %159 ], [ true, %156 ], [ false, %150 ], [ false, %78 ], [ false, %147 ], [ false, %153 ], [ false, %81 ]
  %164 = phi i1 [ false, %159 ], [ false, %156 ], [ true, %150 ], [ false, %78 ], [ false, %147 ], [ false, %153 ], [ false, %81 ]
  %165 = phi i1 [ false, %159 ], [ false, %156 ], [ false, %150 ], [ false, %78 ], [ true, %147 ], [ false, %153 ], [ false, %81 ]
  %166 = phi i1 [ false, %159 ], [ false, %156 ], [ false, %150 ], [ false, %78 ], [ false, %147 ], [ true, %153 ], [ false, %81 ]
  %167 = phi i1 [ true, %159 ], [ false, %156 ], [ false, %150 ], [ false, %78 ], [ false, %147 ], [ false, %153 ], [ false, %81 ]
  %168 = load i64, i64* %18, align 8, !tbaa !18
  br label %172

169:                                              ; preds = %81
  %170 = load i64, i64* %18, align 8, !tbaa !18
  %171 = icmp eq i64 %170, 192
  br i1 %171, label %103, label %172

172:                                              ; preds = %162, %169
  %173 = phi i1 [ true, %162 ], [ false, %169 ]
  %174 = phi i1 [ %163, %162 ], [ false, %169 ]
  %175 = phi i1 [ %164, %162 ], [ false, %169 ]
  %176 = phi i1 [ %165, %162 ], [ false, %169 ]
  %177 = phi i1 [ %166, %162 ], [ false, %169 ]
  %178 = phi i1 [ %167, %162 ], [ false, %169 ]
  %179 = phi i64 [ %168, %162 ], [ %170, %169 ]
  %180 = icmp eq i64 %179, 3
  br i1 %180, label %181, label %184

181:                                              ; preds = %172
  %182 = load i64, i64* %19, align 16, !tbaa !18
  %183 = icmp eq i64 %182, 3
  br i1 %183, label %103, label %200

184:                                              ; preds = %172
  switch i64 %179, label %200 [
    i64 6, label %185
    i64 12, label %188
    i64 24, label %191
    i64 48, label %194
    i64 96, label %197
    i64 192, label %207
  ]

185:                                              ; preds = %184
  %186 = load i64, i64* %19, align 16, !tbaa !18
  %187 = icmp eq i64 %186, 6
  br i1 %187, label %103, label %200

188:                                              ; preds = %184
  %189 = load i64, i64* %19, align 16, !tbaa !18
  %190 = icmp eq i64 %189, 12
  br i1 %190, label %103, label %200

191:                                              ; preds = %184
  %192 = load i64, i64* %19, align 16, !tbaa !18
  %193 = icmp eq i64 %192, 24
  br i1 %193, label %103, label %200

194:                                              ; preds = %184
  %195 = load i64, i64* %19, align 16, !tbaa !18
  %196 = icmp eq i64 %195, 48
  br i1 %196, label %103, label %200

197:                                              ; preds = %184
  %198 = load i64, i64* %19, align 16, !tbaa !18
  %199 = icmp eq i64 %198, 96
  br i1 %199, label %103, label %200

200:                                              ; preds = %184, %197, %191, %185, %181, %188, %194
  %201 = phi i1 [ false, %197 ], [ true, %194 ], [ false, %188 ], [ false, %181 ], [ false, %185 ], [ false, %191 ], [ false, %184 ]
  %202 = phi i1 [ false, %197 ], [ false, %194 ], [ true, %188 ], [ false, %181 ], [ false, %185 ], [ false, %191 ], [ false, %184 ]
  %203 = phi i1 [ false, %197 ], [ false, %194 ], [ false, %188 ], [ false, %181 ], [ true, %185 ], [ false, %191 ], [ false, %184 ]
  %204 = phi i1 [ false, %197 ], [ false, %194 ], [ false, %188 ], [ false, %181 ], [ false, %185 ], [ true, %191 ], [ false, %184 ]
  %205 = phi i1 [ true, %197 ], [ false, %194 ], [ false, %188 ], [ false, %181 ], [ false, %185 ], [ false, %191 ], [ false, %184 ]
  %206 = load i64, i64* %19, align 16, !tbaa !18
  br label %210

207:                                              ; preds = %184
  %208 = load i64, i64* %19, align 16, !tbaa !18
  %209 = icmp eq i64 %208, 192
  br i1 %209, label %103, label %210

210:                                              ; preds = %200, %207
  %211 = phi i1 [ false, %200 ], [ true, %207 ]
  %212 = phi i1 [ %201, %200 ], [ false, %207 ]
  %213 = phi i1 [ %202, %200 ], [ false, %207 ]
  %214 = phi i1 [ %203, %200 ], [ false, %207 ]
  %215 = phi i1 [ %204, %200 ], [ false, %207 ]
  %216 = phi i1 [ %205, %200 ], [ false, %207 ]
  %217 = phi i64 [ %206, %200 ], [ %208, %207 ]
  %218 = icmp eq i64 %217, 3
  br i1 %218, label %219, label %222

219:                                              ; preds = %210
  %220 = load i64, i64* %20, align 8, !tbaa !18
  %221 = icmp eq i64 %220, 3
  br i1 %221, label %103, label %238

222:                                              ; preds = %210
  switch i64 %217, label %238 [
    i64 6, label %223
    i64 12, label %226
    i64 24, label %229
    i64 48, label %232
    i64 96, label %235
    i64 192, label %245
  ]

223:                                              ; preds = %222
  %224 = load i64, i64* %20, align 8, !tbaa !18
  %225 = icmp eq i64 %224, 6
  br i1 %225, label %103, label %238

226:                                              ; preds = %222
  %227 = load i64, i64* %20, align 8, !tbaa !18
  %228 = icmp eq i64 %227, 12
  br i1 %228, label %103, label %238

229:                                              ; preds = %222
  %230 = load i64, i64* %20, align 8, !tbaa !18
  %231 = icmp eq i64 %230, 24
  br i1 %231, label %103, label %238

232:                                              ; preds = %222
  %233 = load i64, i64* %20, align 8, !tbaa !18
  %234 = icmp eq i64 %233, 48
  br i1 %234, label %103, label %238

235:                                              ; preds = %222
  %236 = load i64, i64* %20, align 8, !tbaa !18
  %237 = icmp eq i64 %236, 96
  br i1 %237, label %103, label %238

238:                                              ; preds = %222, %235, %229, %223, %219, %226, %232
  %239 = phi i1 [ false, %235 ], [ true, %232 ], [ false, %226 ], [ false, %219 ], [ false, %223 ], [ false, %229 ], [ false, %222 ]
  %240 = phi i1 [ false, %235 ], [ false, %232 ], [ true, %226 ], [ false, %219 ], [ false, %223 ], [ false, %229 ], [ false, %222 ]
  %241 = phi i1 [ false, %235 ], [ false, %232 ], [ false, %226 ], [ false, %219 ], [ true, %223 ], [ false, %229 ], [ false, %222 ]
  %242 = phi i1 [ false, %235 ], [ false, %232 ], [ false, %226 ], [ false, %219 ], [ false, %223 ], [ true, %229 ], [ false, %222 ]
  %243 = phi i1 [ true, %235 ], [ false, %232 ], [ false, %226 ], [ false, %219 ], [ false, %223 ], [ false, %229 ], [ false, %222 ]
  %244 = load i64, i64* %20, align 8, !tbaa !18
  br label %248

245:                                              ; preds = %222
  %246 = load i64, i64* %20, align 8, !tbaa !18
  %247 = icmp eq i64 %246, 192
  br i1 %247, label %103, label %248

248:                                              ; preds = %238, %245
  %249 = phi i1 [ false, %238 ], [ true, %245 ]
  %250 = phi i1 [ %239, %238 ], [ false, %245 ]
  %251 = phi i1 [ %240, %238 ], [ false, %245 ]
  %252 = phi i1 [ %241, %238 ], [ false, %245 ]
  %253 = phi i1 [ %242, %238 ], [ false, %245 ]
  %254 = phi i1 [ %243, %238 ], [ false, %245 ]
  %255 = phi i64 [ %244, %238 ], [ %246, %245 ]
  %256 = icmp eq i64 %255, 3
  br i1 %256, label %257, label %260

257:                                              ; preds = %248
  %258 = load i64, i64* %21, align 16, !tbaa !18
  %259 = icmp eq i64 %258, 3
  br i1 %259, label %103, label %276

260:                                              ; preds = %248
  switch i64 %255, label %276 [
    i64 6, label %261
    i64 12, label %264
    i64 24, label %267
    i64 48, label %270
    i64 96, label %273
    i64 192, label %283
  ]

261:                                              ; preds = %260
  %262 = load i64, i64* %21, align 16, !tbaa !18
  %263 = icmp eq i64 %262, 6
  br i1 %263, label %103, label %276

264:                                              ; preds = %260
  %265 = load i64, i64* %21, align 16, !tbaa !18
  %266 = icmp eq i64 %265, 12
  br i1 %266, label %103, label %276

267:                                              ; preds = %260
  %268 = load i64, i64* %21, align 16, !tbaa !18
  %269 = icmp eq i64 %268, 24
  br i1 %269, label %103, label %276

270:                                              ; preds = %260
  %271 = load i64, i64* %21, align 16, !tbaa !18
  %272 = icmp eq i64 %271, 48
  br i1 %272, label %103, label %276

273:                                              ; preds = %260
  %274 = load i64, i64* %21, align 16, !tbaa !18
  %275 = icmp eq i64 %274, 96
  br i1 %275, label %103, label %276

276:                                              ; preds = %260, %273, %267, %261, %257, %264, %270
  %277 = phi i1 [ false, %273 ], [ true, %270 ], [ false, %264 ], [ false, %257 ], [ false, %261 ], [ false, %267 ], [ false, %260 ]
  %278 = phi i1 [ false, %273 ], [ false, %270 ], [ true, %264 ], [ false, %257 ], [ false, %261 ], [ false, %267 ], [ false, %260 ]
  %279 = phi i1 [ false, %273 ], [ false, %270 ], [ false, %264 ], [ false, %257 ], [ true, %261 ], [ false, %267 ], [ false, %260 ]
  %280 = phi i1 [ false, %273 ], [ false, %270 ], [ false, %264 ], [ false, %257 ], [ false, %261 ], [ true, %267 ], [ false, %260 ]
  %281 = phi i1 [ true, %273 ], [ false, %270 ], [ false, %264 ], [ false, %257 ], [ false, %261 ], [ false, %267 ], [ false, %260 ]
  %282 = load i64, i64* %21, align 16, !tbaa !18
  br label %286

283:                                              ; preds = %260
  %284 = load i64, i64* %21, align 16, !tbaa !18
  %285 = icmp eq i64 %284, 192
  br i1 %285, label %103, label %286

286:                                              ; preds = %276, %283
  %287 = phi i1 [ false, %276 ], [ true, %283 ]
  %288 = phi i1 [ %277, %276 ], [ false, %283 ]
  %289 = phi i1 [ %278, %276 ], [ false, %283 ]
  %290 = phi i1 [ %279, %276 ], [ false, %283 ]
  %291 = phi i1 [ %280, %276 ], [ false, %283 ]
  %292 = phi i1 [ %281, %276 ], [ false, %283 ]
  %293 = phi i64 [ %282, %276 ], [ %284, %283 ]
  %294 = icmp eq i64 %293, 3
  br i1 %294, label %295, label %298

295:                                              ; preds = %286
  %296 = load i64, i64* %22, align 8, !tbaa !18
  %297 = icmp eq i64 %296, 3
  br i1 %297, label %103, label %314

298:                                              ; preds = %286
  switch i64 %293, label %314 [
    i64 6, label %299
    i64 12, label %302
    i64 24, label %305
    i64 48, label %308
    i64 96, label %311
    i64 192, label %321
  ]

299:                                              ; preds = %298
  %300 = load i64, i64* %22, align 8, !tbaa !18
  %301 = icmp eq i64 %300, 6
  br i1 %301, label %103, label %314

302:                                              ; preds = %298
  %303 = load i64, i64* %22, align 8, !tbaa !18
  %304 = icmp eq i64 %303, 12
  br i1 %304, label %103, label %314

305:                                              ; preds = %298
  %306 = load i64, i64* %22, align 8, !tbaa !18
  %307 = icmp eq i64 %306, 24
  br i1 %307, label %103, label %314

308:                                              ; preds = %298
  %309 = load i64, i64* %22, align 8, !tbaa !18
  %310 = icmp eq i64 %309, 48
  br i1 %310, label %103, label %314

311:                                              ; preds = %298
  %312 = load i64, i64* %22, align 8, !tbaa !18
  %313 = icmp eq i64 %312, 96
  br i1 %313, label %103, label %314

314:                                              ; preds = %298, %311, %305, %299, %295, %302, %308
  %315 = phi i1 [ false, %311 ], [ true, %308 ], [ false, %302 ], [ false, %295 ], [ false, %299 ], [ false, %305 ], [ false, %298 ]
  %316 = phi i1 [ false, %311 ], [ false, %308 ], [ true, %302 ], [ false, %295 ], [ false, %299 ], [ false, %305 ], [ false, %298 ]
  %317 = phi i1 [ false, %311 ], [ false, %308 ], [ false, %302 ], [ false, %295 ], [ true, %299 ], [ false, %305 ], [ false, %298 ]
  %318 = phi i1 [ false, %311 ], [ false, %308 ], [ false, %302 ], [ false, %295 ], [ false, %299 ], [ true, %305 ], [ false, %298 ]
  %319 = phi i1 [ true, %311 ], [ false, %308 ], [ false, %302 ], [ false, %295 ], [ false, %299 ], [ false, %305 ], [ false, %298 ]
  %320 = load i64, i64* %22, align 8, !tbaa !18
  br label %324

321:                                              ; preds = %298
  %322 = load i64, i64* %22, align 8, !tbaa !18
  %323 = icmp eq i64 %322, 192
  br i1 %323, label %103, label %324

324:                                              ; preds = %314, %321
  %325 = phi i1 [ false, %314 ], [ true, %321 ]
  %326 = phi i1 [ %315, %314 ], [ false, %321 ]
  %327 = phi i1 [ %316, %314 ], [ false, %321 ]
  %328 = phi i1 [ %317, %314 ], [ false, %321 ]
  %329 = phi i1 [ %318, %314 ], [ false, %321 ]
  %330 = phi i1 [ %319, %314 ], [ false, %321 ]
  %331 = phi i64 [ %320, %314 ], [ %322, %321 ]
  %332 = icmp eq i64 %331, 3
  br i1 %332, label %333, label %336

333:                                              ; preds = %324
  %334 = load i64, i64* %23, align 16, !tbaa !18
  %335 = icmp eq i64 %334, 3
  br i1 %335, label %103, label %352

336:                                              ; preds = %324
  switch i64 %331, label %352 [
    i64 6, label %337
    i64 12, label %340
    i64 24, label %343
    i64 48, label %346
    i64 96, label %349
    i64 192, label %359
  ]

337:                                              ; preds = %336
  %338 = load i64, i64* %23, align 16, !tbaa !18
  %339 = icmp eq i64 %338, 6
  br i1 %339, label %103, label %352

340:                                              ; preds = %336
  %341 = load i64, i64* %23, align 16, !tbaa !18
  %342 = icmp eq i64 %341, 12
  br i1 %342, label %103, label %352

343:                                              ; preds = %336
  %344 = load i64, i64* %23, align 16, !tbaa !18
  %345 = icmp eq i64 %344, 24
  br i1 %345, label %103, label %352

346:                                              ; preds = %336
  %347 = load i64, i64* %23, align 16, !tbaa !18
  %348 = icmp eq i64 %347, 48
  br i1 %348, label %103, label %352

349:                                              ; preds = %336
  %350 = load i64, i64* %23, align 16, !tbaa !18
  %351 = icmp eq i64 %350, 96
  br i1 %351, label %103, label %352

352:                                              ; preds = %336, %349, %343, %337, %333, %340, %346
  %353 = phi i1 [ false, %349 ], [ true, %346 ], [ false, %340 ], [ false, %333 ], [ false, %337 ], [ false, %343 ], [ false, %336 ]
  %354 = phi i1 [ false, %349 ], [ false, %346 ], [ true, %340 ], [ false, %333 ], [ false, %337 ], [ false, %343 ], [ false, %336 ]
  %355 = phi i1 [ false, %349 ], [ false, %346 ], [ false, %340 ], [ false, %333 ], [ true, %337 ], [ false, %343 ], [ false, %336 ]
  %356 = phi i1 [ false, %349 ], [ false, %346 ], [ false, %340 ], [ false, %333 ], [ false, %337 ], [ true, %343 ], [ false, %336 ]
  %357 = phi i1 [ true, %349 ], [ false, %346 ], [ false, %340 ], [ false, %333 ], [ false, %337 ], [ false, %343 ], [ false, %336 ]
  %358 = load i64, i64* %23, align 16, !tbaa !18
  br label %362

359:                                              ; preds = %336
  %360 = load i64, i64* %23, align 16, !tbaa !18
  %361 = icmp eq i64 %360, 192
  br i1 %361, label %103, label %362

362:                                              ; preds = %352, %359
  %363 = phi i1 [ false, %352 ], [ true, %359 ]
  %364 = phi i1 [ %353, %352 ], [ false, %359 ]
  %365 = phi i1 [ %354, %352 ], [ false, %359 ]
  %366 = phi i1 [ %355, %352 ], [ false, %359 ]
  %367 = phi i1 [ %356, %352 ], [ false, %359 ]
  %368 = phi i1 [ %357, %352 ], [ false, %359 ]
  %369 = phi i64 [ %358, %352 ], [ %360, %359 ]
  %370 = icmp eq i64 %369, 3
  br i1 %370, label %371, label %374

371:                                              ; preds = %362
  %372 = load i64, i64* %24, align 8, !tbaa !18
  %373 = icmp eq i64 %372, 3
  br i1 %373, label %103, label %393

374:                                              ; preds = %362
  switch i64 %369, label %393 [
    i64 6, label %375
    i64 12, label %378
    i64 24, label %381
    i64 48, label %384
    i64 96, label %387
    i64 192, label %390
  ]

375:                                              ; preds = %374
  %376 = load i64, i64* %24, align 8, !tbaa !18
  %377 = icmp eq i64 %376, 6
  br i1 %377, label %103, label %393

378:                                              ; preds = %374
  %379 = load i64, i64* %24, align 8, !tbaa !18
  %380 = icmp eq i64 %379, 12
  br i1 %380, label %103, label %393

381:                                              ; preds = %374
  %382 = load i64, i64* %24, align 8, !tbaa !18
  %383 = icmp eq i64 %382, 24
  br i1 %383, label %103, label %393

384:                                              ; preds = %374
  %385 = load i64, i64* %24, align 8, !tbaa !18
  %386 = icmp eq i64 %385, 48
  br i1 %386, label %103, label %393

387:                                              ; preds = %374
  %388 = load i64, i64* %24, align 8, !tbaa !18
  %389 = icmp eq i64 %388, 96
  br i1 %389, label %103, label %393

390:                                              ; preds = %374
  %391 = load i64, i64* %24, align 8, !tbaa !18
  %392 = icmp eq i64 %391, 192
  br i1 %392, label %103, label %393

393:                                              ; preds = %374, %387, %381, %375, %371, %378, %384, %390
  %394 = phi i1 [ true, %390 ], [ false, %384 ], [ false, %378 ], [ false, %371 ], [ false, %375 ], [ false, %381 ], [ false, %387 ], [ false, %374 ]
  %395 = phi i1 [ false, %390 ], [ true, %384 ], [ false, %378 ], [ false, %371 ], [ false, %375 ], [ false, %381 ], [ false, %387 ], [ false, %374 ]
  %396 = phi i1 [ false, %390 ], [ false, %384 ], [ true, %378 ], [ false, %371 ], [ false, %375 ], [ false, %381 ], [ false, %387 ], [ false, %374 ]
  %397 = phi i1 [ false, %390 ], [ false, %384 ], [ false, %378 ], [ false, %371 ], [ true, %375 ], [ false, %381 ], [ false, %387 ], [ false, %374 ]
  %398 = phi i1 [ false, %390 ], [ false, %384 ], [ false, %378 ], [ false, %371 ], [ false, %375 ], [ true, %381 ], [ false, %387 ], [ false, %374 ]
  %399 = phi i1 [ false, %390 ], [ false, %384 ], [ false, %378 ], [ false, %371 ], [ false, %375 ], [ false, %381 ], [ true, %387 ], [ false, %374 ]
  %400 = icmp eq i64 %38, 1
  br i1 %400, label %82, label %84

401:                                              ; preds = %84
  %402 = icmp eq i64 %179, 2
  br i1 %402, label %103, label %415

403:                                              ; preds = %84
  %404 = icmp eq i64 %179, 4
  br i1 %404, label %103, label %415

405:                                              ; preds = %84
  %406 = icmp eq i64 %179, 8
  br i1 %406, label %103, label %415

407:                                              ; preds = %84
  %408 = icmp eq i64 %179, 16
  br i1 %408, label %103, label %415

409:                                              ; preds = %84
  %410 = icmp eq i64 %179, 32
  br i1 %410, label %103, label %415

411:                                              ; preds = %84
  %412 = icmp eq i64 %179, 64
  br i1 %412, label %103, label %415

413:                                              ; preds = %84
  %414 = icmp eq i64 %179, 128
  br i1 %414, label %103, label %415

415:                                              ; preds = %84, %411, %407, %403, %82, %401, %405, %409, %413
  %416 = phi i1 [ true, %413 ], [ false, %409 ], [ false, %405 ], [ false, %401 ], [ false, %82 ], [ false, %403 ], [ false, %407 ], [ false, %411 ], [ false, %84 ]
  %417 = phi i1 [ false, %413 ], [ true, %409 ], [ false, %405 ], [ false, %401 ], [ false, %82 ], [ false, %403 ], [ false, %407 ], [ false, %411 ], [ false, %84 ]
  %418 = phi i1 [ false, %413 ], [ false, %409 ], [ true, %405 ], [ false, %401 ], [ false, %82 ], [ false, %403 ], [ false, %407 ], [ false, %411 ], [ false, %84 ]
  %419 = phi i1 [ false, %413 ], [ false, %409 ], [ false, %405 ], [ true, %401 ], [ false, %82 ], [ false, %403 ], [ false, %407 ], [ false, %411 ], [ false, %84 ]
  %420 = phi i1 [ false, %413 ], [ false, %409 ], [ false, %405 ], [ false, %401 ], [ false, %82 ], [ true, %403 ], [ false, %407 ], [ false, %411 ], [ false, %84 ]
  %421 = phi i1 [ false, %413 ], [ false, %409 ], [ false, %405 ], [ false, %401 ], [ false, %82 ], [ false, %403 ], [ true, %407 ], [ false, %411 ], [ false, %84 ]
  %422 = phi i1 [ false, %413 ], [ false, %409 ], [ false, %405 ], [ false, %401 ], [ false, %82 ], [ false, %403 ], [ false, %407 ], [ true, %411 ], [ false, %84 ]
  %423 = icmp eq i64 %179, 1
  br i1 %423, label %424, label %426

424:                                              ; preds = %415
  %425 = icmp eq i64 %217, 1
  br i1 %425, label %103, label %441

426:                                              ; preds = %415
  switch i64 %179, label %441 [
    i64 2, label %427
    i64 4, label %429
    i64 8, label %431
    i64 16, label %433
    i64 32, label %435
    i64 64, label %437
    i64 128, label %439
  ]

427:                                              ; preds = %426
  %428 = icmp eq i64 %217, 2
  br i1 %428, label %103, label %441

429:                                              ; preds = %426
  %430 = icmp eq i64 %217, 4
  br i1 %430, label %103, label %441

431:                                              ; preds = %426
  %432 = icmp eq i64 %217, 8
  br i1 %432, label %103, label %441

433:                                              ; preds = %426
  %434 = icmp eq i64 %217, 16
  br i1 %434, label %103, label %441

435:                                              ; preds = %426
  %436 = icmp eq i64 %217, 32
  br i1 %436, label %103, label %441

437:                                              ; preds = %426
  %438 = icmp eq i64 %217, 64
  br i1 %438, label %103, label %441

439:                                              ; preds = %426
  %440 = icmp eq i64 %217, 128
  br i1 %440, label %103, label %441

441:                                              ; preds = %426, %437, %433, %429, %424, %427, %431, %435, %439
  %442 = phi i1 [ true, %439 ], [ false, %435 ], [ false, %431 ], [ false, %427 ], [ false, %424 ], [ false, %429 ], [ false, %433 ], [ false, %437 ], [ false, %426 ]
  %443 = phi i1 [ false, %439 ], [ true, %435 ], [ false, %431 ], [ false, %427 ], [ false, %424 ], [ false, %429 ], [ false, %433 ], [ false, %437 ], [ false, %426 ]
  %444 = phi i1 [ false, %439 ], [ false, %435 ], [ true, %431 ], [ false, %427 ], [ false, %424 ], [ false, %429 ], [ false, %433 ], [ false, %437 ], [ false, %426 ]
  %445 = phi i1 [ false, %439 ], [ false, %435 ], [ false, %431 ], [ true, %427 ], [ false, %424 ], [ false, %429 ], [ false, %433 ], [ false, %437 ], [ false, %426 ]
  %446 = phi i1 [ false, %439 ], [ false, %435 ], [ false, %431 ], [ false, %427 ], [ false, %424 ], [ true, %429 ], [ false, %433 ], [ false, %437 ], [ false, %426 ]
  %447 = phi i1 [ false, %439 ], [ false, %435 ], [ false, %431 ], [ false, %427 ], [ false, %424 ], [ false, %429 ], [ true, %433 ], [ false, %437 ], [ false, %426 ]
  %448 = phi i1 [ false, %439 ], [ false, %435 ], [ false, %431 ], [ false, %427 ], [ false, %424 ], [ false, %429 ], [ false, %433 ], [ true, %437 ], [ false, %426 ]
  %449 = icmp eq i64 %217, 1
  br i1 %449, label %450, label %452

450:                                              ; preds = %441
  %451 = icmp eq i64 %255, 1
  br i1 %451, label %103, label %467

452:                                              ; preds = %441
  switch i64 %217, label %467 [
    i64 2, label %453
    i64 4, label %455
    i64 8, label %457
    i64 16, label %459
    i64 32, label %461
    i64 64, label %463
    i64 128, label %465
  ]

453:                                              ; preds = %452
  %454 = icmp eq i64 %255, 2
  br i1 %454, label %103, label %467

455:                                              ; preds = %452
  %456 = icmp eq i64 %255, 4
  br i1 %456, label %103, label %467

457:                                              ; preds = %452
  %458 = icmp eq i64 %255, 8
  br i1 %458, label %103, label %467

459:                                              ; preds = %452
  %460 = icmp eq i64 %255, 16
  br i1 %460, label %103, label %467

461:                                              ; preds = %452
  %462 = icmp eq i64 %255, 32
  br i1 %462, label %103, label %467

463:                                              ; preds = %452
  %464 = icmp eq i64 %255, 64
  br i1 %464, label %103, label %467

465:                                              ; preds = %452
  %466 = icmp eq i64 %255, 128
  br i1 %466, label %103, label %467

467:                                              ; preds = %452, %463, %459, %455, %450, %453, %457, %461, %465
  %468 = phi i1 [ true, %465 ], [ false, %461 ], [ false, %457 ], [ false, %453 ], [ false, %450 ], [ false, %455 ], [ false, %459 ], [ false, %463 ], [ false, %452 ]
  %469 = phi i1 [ false, %465 ], [ true, %461 ], [ false, %457 ], [ false, %453 ], [ false, %450 ], [ false, %455 ], [ false, %459 ], [ false, %463 ], [ false, %452 ]
  %470 = phi i1 [ false, %465 ], [ false, %461 ], [ true, %457 ], [ false, %453 ], [ false, %450 ], [ false, %455 ], [ false, %459 ], [ false, %463 ], [ false, %452 ]
  %471 = phi i1 [ false, %465 ], [ false, %461 ], [ false, %457 ], [ true, %453 ], [ false, %450 ], [ false, %455 ], [ false, %459 ], [ false, %463 ], [ false, %452 ]
  %472 = phi i1 [ false, %465 ], [ false, %461 ], [ false, %457 ], [ false, %453 ], [ false, %450 ], [ true, %455 ], [ false, %459 ], [ false, %463 ], [ false, %452 ]
  %473 = phi i1 [ false, %465 ], [ false, %461 ], [ false, %457 ], [ false, %453 ], [ false, %450 ], [ false, %455 ], [ true, %459 ], [ false, %463 ], [ false, %452 ]
  %474 = phi i1 [ false, %465 ], [ false, %461 ], [ false, %457 ], [ false, %453 ], [ false, %450 ], [ false, %455 ], [ false, %459 ], [ true, %463 ], [ false, %452 ]
  %475 = icmp eq i64 %255, 1
  br i1 %475, label %476, label %478

476:                                              ; preds = %467
  %477 = icmp eq i64 %293, 1
  br i1 %477, label %103, label %493

478:                                              ; preds = %467
  switch i64 %255, label %493 [
    i64 2, label %479
    i64 4, label %481
    i64 8, label %483
    i64 16, label %485
    i64 32, label %487
    i64 64, label %489
    i64 128, label %491
  ]

479:                                              ; preds = %478
  %480 = icmp eq i64 %293, 2
  br i1 %480, label %103, label %493

481:                                              ; preds = %478
  %482 = icmp eq i64 %293, 4
  br i1 %482, label %103, label %493

483:                                              ; preds = %478
  %484 = icmp eq i64 %293, 8
  br i1 %484, label %103, label %493

485:                                              ; preds = %478
  %486 = icmp eq i64 %293, 16
  br i1 %486, label %103, label %493

487:                                              ; preds = %478
  %488 = icmp eq i64 %293, 32
  br i1 %488, label %103, label %493

489:                                              ; preds = %478
  %490 = icmp eq i64 %293, 64
  br i1 %490, label %103, label %493

491:                                              ; preds = %478
  %492 = icmp eq i64 %293, 128
  br i1 %492, label %103, label %493

493:                                              ; preds = %478, %489, %485, %481, %476, %479, %483, %487, %491
  %494 = phi i1 [ true, %491 ], [ false, %487 ], [ false, %483 ], [ false, %479 ], [ false, %476 ], [ false, %481 ], [ false, %485 ], [ false, %489 ], [ false, %478 ]
  %495 = phi i1 [ false, %491 ], [ true, %487 ], [ false, %483 ], [ false, %479 ], [ false, %476 ], [ false, %481 ], [ false, %485 ], [ false, %489 ], [ false, %478 ]
  %496 = phi i1 [ false, %491 ], [ false, %487 ], [ true, %483 ], [ false, %479 ], [ false, %476 ], [ false, %481 ], [ false, %485 ], [ false, %489 ], [ false, %478 ]
  %497 = phi i1 [ false, %491 ], [ false, %487 ], [ false, %483 ], [ true, %479 ], [ false, %476 ], [ false, %481 ], [ false, %485 ], [ false, %489 ], [ false, %478 ]
  %498 = phi i1 [ false, %491 ], [ false, %487 ], [ false, %483 ], [ false, %479 ], [ false, %476 ], [ true, %481 ], [ false, %485 ], [ false, %489 ], [ false, %478 ]
  %499 = phi i1 [ false, %491 ], [ false, %487 ], [ false, %483 ], [ false, %479 ], [ false, %476 ], [ false, %481 ], [ true, %485 ], [ false, %489 ], [ false, %478 ]
  %500 = phi i1 [ false, %491 ], [ false, %487 ], [ false, %483 ], [ false, %479 ], [ false, %476 ], [ false, %481 ], [ false, %485 ], [ true, %489 ], [ false, %478 ]
  %501 = icmp eq i64 %293, 1
  br i1 %501, label %502, label %504

502:                                              ; preds = %493
  %503 = icmp eq i64 %331, 1
  br i1 %503, label %103, label %519

504:                                              ; preds = %493
  switch i64 %293, label %519 [
    i64 2, label %505
    i64 4, label %507
    i64 8, label %509
    i64 16, label %511
    i64 32, label %513
    i64 64, label %515
    i64 128, label %517
  ]

505:                                              ; preds = %504
  %506 = icmp eq i64 %331, 2
  br i1 %506, label %103, label %519

507:                                              ; preds = %504
  %508 = icmp eq i64 %331, 4
  br i1 %508, label %103, label %519

509:                                              ; preds = %504
  %510 = icmp eq i64 %331, 8
  br i1 %510, label %103, label %519

511:                                              ; preds = %504
  %512 = icmp eq i64 %331, 16
  br i1 %512, label %103, label %519

513:                                              ; preds = %504
  %514 = icmp eq i64 %331, 32
  br i1 %514, label %103, label %519

515:                                              ; preds = %504
  %516 = icmp eq i64 %331, 64
  br i1 %516, label %103, label %519

517:                                              ; preds = %504
  %518 = icmp eq i64 %331, 128
  br i1 %518, label %103, label %519

519:                                              ; preds = %504, %515, %511, %507, %502, %505, %509, %513, %517
  %520 = phi i1 [ true, %517 ], [ false, %513 ], [ false, %509 ], [ false, %505 ], [ false, %502 ], [ false, %507 ], [ false, %511 ], [ false, %515 ], [ false, %504 ]
  %521 = phi i1 [ false, %517 ], [ true, %513 ], [ false, %509 ], [ false, %505 ], [ false, %502 ], [ false, %507 ], [ false, %511 ], [ false, %515 ], [ false, %504 ]
  %522 = phi i1 [ false, %517 ], [ false, %513 ], [ true, %509 ], [ false, %505 ], [ false, %502 ], [ false, %507 ], [ false, %511 ], [ false, %515 ], [ false, %504 ]
  %523 = phi i1 [ false, %517 ], [ false, %513 ], [ false, %509 ], [ true, %505 ], [ false, %502 ], [ false, %507 ], [ false, %511 ], [ false, %515 ], [ false, %504 ]
  %524 = phi i1 [ false, %517 ], [ false, %513 ], [ false, %509 ], [ false, %505 ], [ false, %502 ], [ true, %507 ], [ false, %511 ], [ false, %515 ], [ false, %504 ]
  %525 = phi i1 [ false, %517 ], [ false, %513 ], [ false, %509 ], [ false, %505 ], [ false, %502 ], [ false, %507 ], [ true, %511 ], [ false, %515 ], [ false, %504 ]
  %526 = phi i1 [ false, %517 ], [ false, %513 ], [ false, %509 ], [ false, %505 ], [ false, %502 ], [ false, %507 ], [ false, %511 ], [ true, %515 ], [ false, %504 ]
  switch i64 %38, label %527 [
    i64 15, label %103
    i64 30, label %103
    i64 60, label %103
    i64 120, label %103
    i64 240, label %103
  ]

527:                                              ; preds = %519
  switch i64 %179, label %528 [
    i64 15, label %103
    i64 30, label %103
    i64 60, label %103
    i64 120, label %103
    i64 240, label %103
  ]

528:                                              ; preds = %527
  switch i64 %217, label %529 [
    i64 15, label %103
    i64 30, label %103
    i64 60, label %103
    i64 120, label %103
    i64 240, label %103
  ]

529:                                              ; preds = %528
  switch i64 %255, label %530 [
    i64 15, label %103
    i64 30, label %103
    i64 60, label %103
    i64 120, label %103
    i64 240, label %103
  ]

530:                                              ; preds = %529
  switch i64 %293, label %531 [
    i64 15, label %103
    i64 30, label %103
    i64 60, label %103
    i64 120, label %103
    i64 240, label %103
  ]

531:                                              ; preds = %530
  switch i64 %331, label %532 [
    i64 15, label %103
    i64 30, label %103
    i64 60, label %103
    i64 120, label %103
    i64 240, label %103
  ]

532:                                              ; preds = %531
  switch i64 %369, label %533 [
    i64 15, label %103
    i64 30, label %103
    i64 60, label %103
    i64 120, label %103
    i64 240, label %103
  ]

533:                                              ; preds = %532
  %534 = load i64, i64* %24, align 8, !tbaa !18
  switch i64 %534, label %535 [
    i64 15, label %103
    i64 30, label %103
    i64 60, label %103
    i64 120, label %103
    i64 240, label %103
  ]

535:                                              ; preds = %533
  %536 = select i1 %400, i1 %180, i1 false
  br i1 %536, label %103, label %85

537:                                              ; preds = %85
  %538 = xor i1 %420, true
  %539 = and i1 %420, %213
  %540 = and i1 %213, %538
  br i1 %539, label %103, label %541

541:                                              ; preds = %537
  %542 = xor i1 %418, true
  %543 = and i1 %418, %215
  %544 = and i1 %215, %542
  br i1 %543, label %103, label %545

545:                                              ; preds = %541
  %546 = xor i1 %421, true
  %547 = and i1 %421, %212
  %548 = and i1 %212, %546
  br i1 %547, label %103, label %549

549:                                              ; preds = %545
  %550 = xor i1 %417, true
  %551 = and i1 %417, %216
  %552 = and i1 %216, %550
  br i1 %551, label %103, label %553

553:                                              ; preds = %549
  %554 = xor i1 %422, true
  %555 = and i1 %422, %211
  %556 = and i1 %211, %554
  br i1 %555, label %103, label %557

557:                                              ; preds = %553
  %558 = select i1 %423, i1 %218, i1 false
  br i1 %558, label %103, label %559

559:                                              ; preds = %557
  %560 = xor i1 %445, true
  %561 = and i1 %445, %252
  %562 = and i1 %252, %560
  br i1 %561, label %103, label %563

563:                                              ; preds = %559
  %564 = xor i1 %446, true
  %565 = and i1 %446, %251
  %566 = and i1 %251, %564
  br i1 %565, label %103, label %567

567:                                              ; preds = %563
  %568 = xor i1 %444, true
  %569 = and i1 %444, %253
  %570 = and i1 %253, %568
  br i1 %569, label %103, label %571

571:                                              ; preds = %567
  %572 = xor i1 %447, true
  %573 = and i1 %447, %250
  %574 = and i1 %250, %572
  br i1 %573, label %103, label %575

575:                                              ; preds = %571
  %576 = xor i1 %443, true
  %577 = and i1 %443, %254
  %578 = and i1 %254, %576
  br i1 %577, label %103, label %579

579:                                              ; preds = %575
  %580 = xor i1 %448, true
  %581 = and i1 %448, %249
  %582 = and i1 %249, %580
  br i1 %581, label %103, label %583

583:                                              ; preds = %579
  %584 = select i1 %449, i1 %256, i1 false
  br i1 %584, label %103, label %585

585:                                              ; preds = %583
  %586 = xor i1 %471, true
  %587 = and i1 %471, %290
  %588 = and i1 %290, %586
  br i1 %587, label %103, label %589

589:                                              ; preds = %585
  %590 = xor i1 %472, true
  %591 = and i1 %472, %289
  %592 = and i1 %289, %590
  br i1 %591, label %103, label %593

593:                                              ; preds = %589
  %594 = xor i1 %470, true
  %595 = and i1 %470, %291
  %596 = and i1 %291, %594
  br i1 %595, label %103, label %597

597:                                              ; preds = %593
  %598 = xor i1 %473, true
  %599 = and i1 %473, %288
  %600 = and i1 %288, %598
  br i1 %599, label %103, label %601

601:                                              ; preds = %597
  %602 = xor i1 %469, true
  %603 = and i1 %469, %292
  %604 = and i1 %292, %602
  br i1 %603, label %103, label %605

605:                                              ; preds = %601
  %606 = xor i1 %474, true
  %607 = and i1 %474, %287
  %608 = and i1 %287, %606
  br i1 %607, label %103, label %609

609:                                              ; preds = %605
  %610 = select i1 %475, i1 %294, i1 false
  br i1 %610, label %103, label %611

611:                                              ; preds = %609
  %612 = xor i1 %497, true
  %613 = and i1 %497, %328
  %614 = and i1 %328, %612
  br i1 %613, label %103, label %615

615:                                              ; preds = %611
  %616 = xor i1 %498, true
  %617 = and i1 %498, %327
  %618 = and i1 %327, %616
  br i1 %617, label %103, label %619

619:                                              ; preds = %615
  %620 = xor i1 %496, true
  %621 = and i1 %496, %329
  %622 = and i1 %329, %620
  br i1 %621, label %103, label %623

623:                                              ; preds = %619
  %624 = xor i1 %499, true
  %625 = and i1 %499, %326
  %626 = and i1 %326, %624
  br i1 %625, label %103, label %627

627:                                              ; preds = %623
  %628 = xor i1 %495, true
  %629 = and i1 %495, %330
  %630 = and i1 %330, %628
  br i1 %629, label %103, label %631

631:                                              ; preds = %627
  %632 = xor i1 %500, true
  %633 = and i1 %500, %325
  %634 = and i1 %325, %632
  br i1 %633, label %103, label %635

635:                                              ; preds = %631
  %636 = select i1 %501, i1 %332, i1 false
  br i1 %636, label %103, label %637

637:                                              ; preds = %635
  %638 = xor i1 %523, true
  %639 = and i1 %523, %366
  %640 = and i1 %366, %638
  br i1 %639, label %103, label %641

641:                                              ; preds = %637
  %642 = xor i1 %524, true
  %643 = and i1 %524, %365
  %644 = and i1 %365, %642
  br i1 %643, label %103, label %645

645:                                              ; preds = %641
  %646 = xor i1 %522, true
  %647 = and i1 %522, %367
  %648 = and i1 %367, %646
  br i1 %647, label %103, label %649

649:                                              ; preds = %645
  %650 = xor i1 %525, true
  %651 = and i1 %525, %364
  %652 = and i1 %364, %650
  br i1 %651, label %103, label %653

653:                                              ; preds = %649
  %654 = xor i1 %521, true
  %655 = and i1 %521, %368
  %656 = and i1 %368, %654
  br i1 %655, label %103, label %657

657:                                              ; preds = %653
  %658 = xor i1 %526, true
  %659 = and i1 %526, %363
  %660 = and i1 %363, %658
  br i1 %659, label %103, label %661

661:                                              ; preds = %657
  %662 = icmp eq i64 %331, 1
  br i1 %662, label %663, label %664

663:                                              ; preds = %661
  br i1 %370, label %103, label %671

664:                                              ; preds = %661
  switch i64 %331, label %671 [
    i64 2, label %665
    i64 4, label %666
    i64 8, label %667
    i64 16, label %668
    i64 32, label %669
    i64 64, label %670
  ]

665:                                              ; preds = %664
  br i1 %397, label %103, label %671

666:                                              ; preds = %664
  br i1 %396, label %103, label %671

667:                                              ; preds = %664
  br i1 %398, label %103, label %671

668:                                              ; preds = %664
  br i1 %395, label %103, label %671

669:                                              ; preds = %664
  br i1 %399, label %103, label %671

670:                                              ; preds = %664
  br i1 %394, label %103, label %671

671:                                              ; preds = %664, %669, %667, %665, %663, %666, %668, %670
  %672 = phi i1 [ true, %670 ], [ false, %668 ], [ false, %666 ], [ false, %663 ], [ false, %665 ], [ false, %667 ], [ false, %669 ], [ false, %664 ]
  %673 = phi i1 [ false, %670 ], [ true, %668 ], [ false, %666 ], [ false, %663 ], [ false, %665 ], [ false, %667 ], [ false, %669 ], [ false, %664 ]
  %674 = phi i1 [ false, %670 ], [ false, %668 ], [ true, %666 ], [ false, %663 ], [ false, %665 ], [ false, %667 ], [ false, %669 ], [ false, %664 ]
  %675 = phi i1 [ false, %670 ], [ false, %668 ], [ false, %666 ], [ false, %663 ], [ true, %665 ], [ false, %667 ], [ false, %669 ], [ false, %664 ]
  %676 = phi i1 [ false, %670 ], [ false, %668 ], [ false, %666 ], [ false, %663 ], [ false, %665 ], [ true, %667 ], [ false, %669 ], [ false, %664 ]
  %677 = phi i1 [ false, %670 ], [ false, %668 ], [ false, %666 ], [ false, %663 ], [ false, %665 ], [ false, %667 ], [ true, %669 ], [ false, %664 ]
  %678 = phi i1 [ false, %670 ], [ %394, %668 ], [ %394, %666 ], [ %394, %663 ], [ %394, %665 ], [ %394, %667 ], [ %394, %669 ], [ %394, %664 ]
  br i1 %39, label %103, label %89

679:                                              ; preds = %89
  %680 = xor i1 %175, true
  %681 = and i1 %175, %88
  %682 = and i1 %88, %680
  br i1 %681, label %103, label %683

683:                                              ; preds = %679
  %684 = xor i1 %177, true
  %685 = and i1 %177, %540
  %686 = and i1 %540, %684
  br i1 %685, label %103, label %687

687:                                              ; preds = %683
  %688 = xor i1 %174, true
  %689 = and i1 %174, %544
  %690 = and i1 %544, %688
  br i1 %689, label %103, label %691

691:                                              ; preds = %687
  %692 = xor i1 %178, true
  %693 = and i1 %178, %548
  %694 = and i1 %548, %692
  br i1 %693, label %103, label %695

695:                                              ; preds = %691
  %696 = and i1 %173, %552
  %697 = xor i1 %173, true
  %698 = and i1 %552, %697
  %699 = select i1 %698, i1 true, i1 %180
  br i1 %699, label %103, label %700

700:                                              ; preds = %695
  %701 = select i1 %682, i1 %218, i1 false
  br i1 %701, label %103, label %702

702:                                              ; preds = %700
  %703 = xor i1 %686, true
  %704 = and i1 %686, %562
  %705 = and i1 %562, %703
  br i1 %704, label %103, label %706

706:                                              ; preds = %702
  %707 = xor i1 %690, true
  %708 = and i1 %690, %566
  %709 = and i1 %566, %707
  br i1 %708, label %103, label %710

710:                                              ; preds = %706
  %711 = xor i1 %694, true
  %712 = and i1 %694, %570
  %713 = and i1 %570, %711
  br i1 %712, label %103, label %714

714:                                              ; preds = %710
  %715 = xor i1 %696, true
  %716 = and i1 %696, %574
  %717 = and i1 %574, %715
  br i1 %716, label %103, label %718

718:                                              ; preds = %714
  %719 = xor i1 %556, true
  %720 = and i1 %556, %578
  %721 = and i1 %578, %719
  %722 = select i1 %720, i1 true, i1 %218
  br i1 %722, label %103, label %723

723:                                              ; preds = %718
  %724 = select i1 %705, i1 %256, i1 false
  br i1 %724, label %103, label %725

725:                                              ; preds = %723
  %726 = xor i1 %709, true
  %727 = and i1 %709, %588
  %728 = and i1 %588, %726
  br i1 %727, label %103, label %729

729:                                              ; preds = %725
  %730 = xor i1 %713, true
  %731 = and i1 %713, %592
  %732 = and i1 %592, %730
  br i1 %731, label %103, label %733

733:                                              ; preds = %729
  %734 = xor i1 %717, true
  %735 = and i1 %717, %596
  %736 = and i1 %596, %734
  br i1 %735, label %103, label %737

737:                                              ; preds = %733
  %738 = xor i1 %721, true
  %739 = and i1 %721, %600
  %740 = and i1 %600, %738
  br i1 %739, label %103, label %741

741:                                              ; preds = %737
  %742 = xor i1 %582, true
  %743 = and i1 %582, %604
  %744 = and i1 %604, %742
  %745 = select i1 %743, i1 true, i1 %256
  br i1 %745, label %103, label %746

746:                                              ; preds = %741
  %747 = select i1 %728, i1 %294, i1 false
  br i1 %747, label %103, label %748

748:                                              ; preds = %746
  %749 = xor i1 %732, true
  %750 = and i1 %732, %614
  %751 = and i1 %614, %749
  br i1 %750, label %103, label %752

752:                                              ; preds = %748
  %753 = xor i1 %736, true
  %754 = and i1 %736, %618
  %755 = and i1 %618, %753
  br i1 %754, label %103, label %756

756:                                              ; preds = %752
  %757 = xor i1 %740, true
  %758 = and i1 %740, %622
  %759 = and i1 %622, %757
  br i1 %758, label %103, label %760

760:                                              ; preds = %756
  %761 = xor i1 %744, true
  %762 = and i1 %744, %626
  %763 = and i1 %626, %761
  br i1 %762, label %103, label %764

764:                                              ; preds = %760
  %765 = xor i1 %608, true
  %766 = and i1 %608, %630
  %767 = and i1 %630, %765
  %768 = select i1 %766, i1 true, i1 %294
  br i1 %768, label %103, label %769

769:                                              ; preds = %764
  %770 = select i1 %751, i1 %332, i1 false
  br i1 %770, label %103, label %771

771:                                              ; preds = %769
  %772 = xor i1 %755, true
  %773 = and i1 %755, %640
  %774 = and i1 %640, %772
  br i1 %773, label %103, label %775

775:                                              ; preds = %771
  %776 = xor i1 %759, true
  %777 = and i1 %759, %644
  %778 = and i1 %644, %776
  br i1 %777, label %103, label %779

779:                                              ; preds = %775
  %780 = xor i1 %763, true
  %781 = and i1 %763, %648
  %782 = and i1 %648, %780
  br i1 %781, label %103, label %783

783:                                              ; preds = %779
  %784 = xor i1 %767, true
  %785 = and i1 %767, %652
  %786 = and i1 %652, %784
  br i1 %785, label %103, label %787

787:                                              ; preds = %783
  %788 = xor i1 %634, true
  %789 = and i1 %634, %656
  %790 = and i1 %656, %788
  %791 = select i1 %789, i1 true, i1 %332
  br i1 %791, label %103, label %792

792:                                              ; preds = %787
  %793 = select i1 %774, i1 %370, i1 false
  br i1 %793, label %103, label %794

794:                                              ; preds = %792
  %795 = xor i1 %778, true
  %796 = and i1 %778, %397
  %797 = and i1 %397, %795
  br i1 %796, label %103, label %798

798:                                              ; preds = %794
  %799 = xor i1 %782, true
  %800 = and i1 %782, %396
  %801 = and i1 %396, %799
  br i1 %800, label %103, label %802

802:                                              ; preds = %798
  %803 = xor i1 %786, true
  %804 = and i1 %786, %398
  %805 = and i1 %398, %803
  br i1 %804, label %103, label %806

806:                                              ; preds = %802
  %807 = xor i1 %790, true
  %808 = and i1 %790, %395
  %809 = and i1 %395, %807
  br i1 %808, label %103, label %810

810:                                              ; preds = %806
  %811 = xor i1 %660, true
  %812 = and i1 %660, %399
  %813 = and i1 %399, %811
  %814 = select i1 %812, i1 true, i1 %370
  br i1 %814, label %103, label %815

815:                                              ; preds = %810
  %816 = icmp eq i64 %534, 3
  %817 = select i1 %797, i1 %816, i1 false
  br i1 %817, label %103, label %818

818:                                              ; preds = %815
  %819 = icmp eq i64 %534, 6
  %820 = select i1 %801, i1 %819, i1 false
  br i1 %820, label %103, label %821

821:                                              ; preds = %818
  %822 = icmp eq i64 %534, 12
  %823 = select i1 %805, i1 %822, i1 false
  br i1 %823, label %103, label %824

824:                                              ; preds = %821
  %825 = icmp eq i64 %534, 24
  %826 = select i1 %809, i1 %825, i1 false
  br i1 %826, label %103, label %827

827:                                              ; preds = %824
  %828 = icmp eq i64 %534, 48
  %829 = select i1 %813, i1 %828, i1 false
  br i1 %829, label %103, label %830

830:                                              ; preds = %827
  %831 = icmp eq i64 %534, 96
  %832 = select i1 %678, i1 %831, i1 false
  br i1 %832, label %103, label %833

833:                                              ; preds = %830
  %834 = or i1 %400, %419
  %835 = or i1 %834, %420
  %836 = or i1 %835, %418
  %837 = or i1 %836, %421
  %838 = or i1 %837, %417
  %839 = or i1 %838, %422
  %840 = or i1 %839, %416
  %841 = select i1 %840, i1 true, i1 %423
  %842 = or i1 %841, %445
  %843 = or i1 %842, %446
  %844 = or i1 %843, %444
  %845 = or i1 %844, %447
  %846 = or i1 %845, %443
  %847 = or i1 %846, %448
  %848 = or i1 %847, %442
  %849 = select i1 %848, i1 true, i1 %449
  %850 = or i1 %849, %471
  %851 = or i1 %850, %472
  %852 = or i1 %851, %470
  %853 = or i1 %852, %473
  %854 = or i1 %853, %469
  %855 = or i1 %854, %474
  %856 = or i1 %855, %468
  %857 = select i1 %856, i1 true, i1 %475
  %858 = or i1 %857, %497
  %859 = or i1 %858, %498
  %860 = or i1 %859, %496
  %861 = or i1 %860, %499
  %862 = or i1 %861, %495
  %863 = or i1 %862, %500
  %864 = or i1 %863, %494
  %865 = select i1 %864, i1 true, i1 %501
  %866 = or i1 %865, %523
  %867 = or i1 %866, %524
  %868 = or i1 %867, %522
  %869 = or i1 %868, %525
  %870 = or i1 %869, %521
  %871 = or i1 %870, %526
  %872 = or i1 %871, %520
  %873 = select i1 %872, i1 true, i1 %662
  %874 = or i1 %873, %675
  %875 = or i1 %874, %674
  %876 = or i1 %875, %676
  %877 = or i1 %876, %673
  %878 = or i1 %877, %677
  %879 = or i1 %878, %672
  %880 = icmp eq i64 %331, 128
  %881 = select i1 %879, i1 true, i1 %880
  br i1 %881, label %103, label %91

882:                                              ; preds = %91
  %883 = xor i1 %686, true
  %884 = or i1 %176, %883
  %885 = xor i1 %713, true
  %886 = or i1 %884, %885
  %887 = and i1 %884, %713
  br i1 %886, label %888, label %103

888:                                              ; preds = %882
  %889 = xor i1 %690, true
  %890 = or i1 %175, %889
  %891 = xor i1 %717, true
  %892 = or i1 %890, %891
  %893 = and i1 %890, %717
  br i1 %892, label %894, label %103

894:                                              ; preds = %888
  %895 = xor i1 %694, true
  %896 = or i1 %177, %895
  %897 = xor i1 %721, true
  %898 = or i1 %896, %897
  %899 = and i1 %896, %721
  br i1 %898, label %900, label %103

900:                                              ; preds = %894
  %901 = xor i1 %696, true
  %902 = or i1 %174, %901
  %903 = xor i1 %582, true
  %904 = or i1 %902, %903
  br i1 %904, label %905, label %103

905:                                              ; preds = %900
  %906 = xor i1 %705, true
  %907 = select i1 %705, i1 %732, i1 false
  %908 = select i1 %906, i1 %732, i1 false
  br i1 %907, label %103, label %909

909:                                              ; preds = %905
  %910 = xor i1 %709, true
  %911 = or i1 %682, %910
  %912 = select i1 %911, i1 %736, i1 false
  %913 = xor i1 %911, true
  %914 = select i1 %913, i1 %736, i1 false
  %915 = and i1 %887, %740
  %916 = select i1 %914, i1 true, i1 %915
  %917 = and i1 %893, %744
  %918 = select i1 %916, i1 true, i1 %917
  %919 = and i1 %899, %608
  %920 = select i1 %918, i1 true, i1 %919
  br i1 %920, label %103, label %921

921:                                              ; preds = %909
  %922 = xor i1 %728, true
  %923 = select i1 %728, i1 %755, i1 false
  %924 = select i1 %922, i1 %755, i1 false
  br i1 %923, label %103, label %925

925:                                              ; preds = %921
  %926 = xor i1 %908, true
  %927 = select i1 %908, i1 %759, i1 false
  %928 = select i1 %926, i1 %759, i1 false
  %929 = and i1 %912, %763
  %930 = select i1 %927, i1 true, i1 %929
  br i1 %930, label %103, label %931

931:                                              ; preds = %925
  %932 = xor i1 %740, true
  %933 = or i1 %887, %932
  %934 = xor i1 %767, true
  %935 = or i1 %933, %934
  %936 = and i1 %933, %767
  br i1 %935, label %937, label %103

937:                                              ; preds = %931
  %938 = xor i1 %744, true
  %939 = or i1 %893, %938
  %940 = xor i1 %634, true
  %941 = or i1 %939, %940
  br i1 %941, label %942, label %103

942:                                              ; preds = %937
  %943 = xor i1 %751, true
  %944 = select i1 %751, i1 %778, i1 false
  %945 = select i1 %943, i1 %778, i1 false
  br i1 %944, label %103, label %946

946:                                              ; preds = %942
  %947 = xor i1 %924, true
  %948 = select i1 %924, i1 %782, i1 false
  %949 = select i1 %947, i1 %782, i1 false
  %950 = and i1 %928, %786
  %951 = select i1 %948, i1 true, i1 %950
  br i1 %951, label %103, label %952

952:                                              ; preds = %946
  %953 = xor i1 %763, true
  %954 = or i1 %912, %953
  %955 = and i1 %954, %790
  %956 = xor i1 %954, true
  %957 = and i1 %790, %956
  %958 = and i1 %936, %660
  %959 = select i1 %957, i1 true, i1 %958
  br i1 %959, label %103, label %960

960:                                              ; preds = %952
  %961 = xor i1 %774, true
  %962 = select i1 %774, i1 %801, i1 false
  %963 = select i1 %961, i1 %801, i1 false
  br i1 %962, label %103, label %964

964:                                              ; preds = %960
  %965 = xor i1 %945, true
  %966 = select i1 %945, i1 %805, i1 false
  %967 = select i1 %965, i1 %805, i1 false
  br i1 %966, label %103, label %968

968:                                              ; preds = %964
  %969 = xor i1 %949, true
  %970 = and i1 %949, %809
  %971 = and i1 %809, %969
  br i1 %970, label %103, label %972

972:                                              ; preds = %968
  %973 = xor i1 %786, true
  %974 = or i1 %928, %973
  %975 = and i1 %974, %813
  %976 = xor i1 %974, true
  %977 = and i1 %813, %976
  %978 = and i1 %955, %678
  %979 = select i1 %977, i1 true, i1 %978
  br i1 %979, label %103, label %980

980:                                              ; preds = %972
  %981 = icmp eq i64 %534, 12
  %982 = select i1 %797, i1 %981, i1 false
  br i1 %982, label %103, label %983

983:                                              ; preds = %980
  %984 = icmp eq i64 %534, 24
  %985 = select i1 %963, i1 %984, i1 false
  br i1 %985, label %103, label %986

986:                                              ; preds = %983
  %987 = icmp eq i64 %534, 48
  %988 = select i1 %967, i1 %987, i1 false
  br i1 %988, label %103, label %989

989:                                              ; preds = %986
  %990 = icmp eq i64 %534, 96
  %991 = select i1 %971, i1 %990, i1 false
  br i1 %991, label %103, label %992

992:                                              ; preds = %989
  %993 = icmp eq i64 %534, 192
  %994 = select i1 %975, i1 %993, i1 false
  br i1 %994, label %103, label %995

995:                                              ; preds = %992
  %996 = call nonnull align 8 dereferenceable(8) %"class.std::basic_ostream"* @_ZSt16__ostream_insertIcSt11char_traitsIcEERSt13basic_ostreamIT_T0_ES6_PKS3_l(%"class.std::basic_ostream"* nonnull align 8 dereferenceable(8) @_ZSt4cout, i8* nonnull getelementptr inbounds ([6 x i8], [6 x i8]* @.str, i64 0, i64 0), i64 5)
  %997 = call nonnull align 8 dereferenceable(8) %"class.std::basic_ostream"* @_ZSt4endlIcSt11char_traitsIcEERSt13basic_ostreamIT_T0_ES6_(%"class.std::basic_ostream"* nonnull align 8 dereferenceable(8) @_ZSt4cout)
  br label %131
}

; Function Attrs: argmemonly mustprogress nofree nosync nounwind willreturn
declare void @llvm.lifetime.start.p0i8(i64 immarg, i8* nocapture) #4

; Function Attrs: argmemonly mustprogress nofree nounwind willreturn writeonly
declare void @llvm.memset.p0i8.i64(i8* nocapture writeonly, i8, i64, i1 immarg) #5

; Function Attrs: argmemonly mustprogress nofree nosync nounwind willreturn
declare void @llvm.lifetime.end.p0i8(i64 immarg, i8* nocapture) #4

; Function Attrs: inlinehint mustprogress sspstrong uwtable
declare nonnull align 8 dereferenceable(8) %"class.std::basic_ostream"* @_ZSt4endlIcSt11char_traitsIcEERSt13basic_ostreamIT_T0_ES6_(%"class.std::basic_ostream"* nonnull align 8 dereferenceable(8)) local_unnamed_addr #6

declare nonnull align 8 dereferenceable(16) %"class.std::basic_istream"* @_ZNSi10_M_extractIlEERSiRT_(%"class.std::basic_istream"* nonnull align 8 dereferenceable(16), i64* nonnull align 8 dereferenceable(8)) local_unnamed_addr #0

declare nonnull align 8 dereferenceable(8) %"class.std::basic_ostream"* @_ZSt16__ostream_insertIcSt11char_traitsIcEERSt13basic_ostreamIT_T0_ES6_PKS3_l(%"class.std::basic_ostream"* nonnull align 8 dereferenceable(8), i8*, i64) local_unnamed_addr #0

declare nonnull align 8 dereferenceable(8) %"class.std::basic_ostream"* @_ZNSo3putEc(%"class.std::basic_ostream"* nonnull align 8 dereferenceable(8), i8 signext) local_unnamed_addr #0

declare nonnull align 8 dereferenceable(8) %"class.std::basic_ostream"* @_ZNSo5flushEv(%"class.std::basic_ostream"* nonnull align 8 dereferenceable(8)) local_unnamed_addr #0

; Function Attrs: noreturn
declare void @_ZSt16__throw_bad_castv() local_unnamed_addr #7

declare void @_ZNKSt5ctypeIcE13_M_widen_initEv(%"class.std::ctype"* nonnull align 8 dereferenceable(570)) local_unnamed_addr #0

; Function Attrs: sspstrong uwtable
define internal void @_GLOBAL__sub_I_s827603774.cpp() #8 section ".text.startup" {
  tail call void @_ZNSt8ios_base4InitC1Ev(%"class.std::ios_base::Init"* nonnull align 1 dereferenceable(1) @_ZStL8__ioinit)
  %1 = tail call i32 @__cxa_atexit(void (i8*)* bitcast (void (%"class.std::ios_base::Init"*)* @_ZNSt8ios_base4InitD1Ev to void (i8*)*), i8* getelementptr inbounds (%"class.std::ios_base::Init", %"class.std::ios_base::Init"* @_ZStL8__ioinit, i64 0, i32 0), i8* nonnull @__dso_handle) #9
  ret void
}

attributes #0 = { "frame-pointer"="none" "no-trapping-math"="true" "stack-protector-buffer-size"="8" "target-cpu"="x86-64" "target-features"="+cx8,+fxsr,+mmx,+sse,+sse2,+x87" "tune-cpu"="generic" }
attributes #1 = { nounwind "frame-pointer"="none" "no-trapping-math"="true" "stack-protector-buffer-size"="8" "target-cpu"="x86-64" "target-features"="+cx8,+fxsr,+mmx,+sse,+sse2,+x87" "tune-cpu"="generic" }
attributes #2 = { nofree nounwind }
attributes #3 = { mustprogress norecurse sspstrong uwtable "frame-pointer"="none" "min-legal-vector-width"="0" "no-trapping-math"="true" "stack-protector-buffer-size"="8" "target-cpu"="x86-64" "target-features"="+cx8,+fxsr,+mmx,+sse,+sse2,+x87" "tune-cpu"="generic" }
attributes #4 = { argmemonly mustprogress nofree nosync nounwind willreturn }
attributes #5 = { argmemonly mustprogress nofree nounwind willreturn writeonly }
attributes #6 = { inlinehint mustprogress sspstrong uwtable "frame-pointer"="none" "min-legal-vector-width"="0" "no-trapping-math"="true" "stack-protector-buffer-size"="8" "target-cpu"="x86-64" "target-features"="+cx8,+fxsr,+mmx,+sse,+sse2,+x87" "tune-cpu"="generic" }
attributes #7 = { noreturn "frame-pointer"="none" "no-trapping-math"="true" "stack-protector-buffer-size"="8" "target-cpu"="x86-64" "target-features"="+cx8,+fxsr,+mmx,+sse,+sse2,+x87" "tune-cpu"="generic" }
attributes #8 = { sspstrong uwtable "frame-pointer"="none" "min-legal-vector-width"="0" "no-trapping-math"="true" "stack-protector-buffer-size"="8" "target-cpu"="x86-64" "target-features"="+cx8,+fxsr,+mmx,+sse,+sse2,+x87" "tune-cpu"="generic" }
attributes #9 = { nounwind }
attributes #10 = { noreturn }

!llvm.module.flags = !{!0, !1, !2, !3}
!llvm.ident = !{!4}

!0 = !{i32 1, !"wchar_size", i32 4}
!1 = !{i32 7, !"PIC Level", i32 2}
!2 = !{i32 7, !"PIE Level", i32 2}
!3 = !{i32 7, !"uwtable", i32 1}
!4 = !{!"clang version 13.0.0"}
!5 = !{!6, !6, i64 0}
!6 = !{!"vtable pointer", !7, i64 0}
!7 = !{!"Simple C++ TBAA"}
!8 = !{!9, !13, i64 32}
!9 = !{!"_ZTSSt8ios_base", !10, i64 8, !10, i64 16, !12, i64 24, !13, i64 28, !13, i64 32, !14, i64 40, !15, i64 48, !11, i64 64, !16, i64 192, !14, i64 200, !17, i64 208}
!10 = !{!"long", !11, i64 0}
!11 = !{!"omnipotent char", !7, i64 0}
!12 = !{!"_ZTSSt13_Ios_Fmtflags", !11, i64 0}
!13 = !{!"_ZTSSt12_Ios_Iostate", !11, i64 0}
!14 = !{!"any pointer", !11, i64 0}
!15 = !{!"_ZTSNSt8ios_base6_WordsE", !14, i64 0, !10, i64 8}
!16 = !{!"int", !11, i64 0}
!17 = !{!"_ZTSSt6locale", !14, i64 0}
!18 = !{!10, !10, i64 0}
!19 = distinct !{!19, !20}
!20 = !{!"llvm.loop.mustprogress"}
!21 = !{!11, !11, i64 0}
!22 = !{!23, !14, i64 240}
!23 = !{!"_ZTSSt9basic_iosIcSt11char_traitsIcEE", !14, i64 216, !11, i64 224, !24, i64 225, !14, i64 232, !14, i64 240, !14, i64 248, !14, i64 256}
!24 = !{!"bool", !11, i64 0}
!25 = !{!26, !11, i64 56}
!26 = !{!"_ZTSSt5ctypeIcE", !14, i64 16, !24, i64 24, !14, i64 32, !14, i64 40, !14, i64 48, !11, i64 56, !11, i64 57, !11, i64 313, !11, i64 569}
!27 = distinct !{!27, !20}
