; ModuleID = 'Project_CodeNet_C++1400/p02787/s388184260.cpp'
source_filename = "Project_CodeNet_C++1400/p02787/s388184260.cpp"
target datalayout = "e-m:e-p270:32:32-p271:32:32-p272:64:64-i64:64-f80:128-n8:16:32:64-S128"
target triple = "x86_64-pc-linux-gnu"

%"class.std::ios_base::Init" = type { i8 }
%"class.std::basic_istream" = type { i32 (...)**, i64, %"class.std::basic_ios" }
%"class.std::basic_ios" = type { %"class.std::ios_base", %"class.std::basic_ostream"*, i8, i8, %"class.std::basic_streambuf"*, %"class.std::ctype"*, %"class.std::num_put"*, %"class.std::num_get"* }
%"class.std::ios_base" = type { i32 (...)**, i64, i64, i32, i32, i32, %"struct.std::ios_base::_Callback_list"*, %"struct.std::ios_base::_Words", [8 x %"struct.std::ios_base::_Words"], i32, %"struct.std::ios_base::_Words"*, %"class.std::locale" }
%"struct.std::ios_base::_Callback_list" = type { %"struct.std::ios_base::_Callback_list"*, void (i32, %"class.std::ios_base"*, i32)*, i32, i32 }
%"struct.std::ios_base::_Words" = type { i8*, i64 }
%"class.std::locale" = type { %"class.std::locale::_Impl"* }
%"class.std::locale::_Impl" = type { i32, %"class.std::locale::facet"**, i64, %"class.std::locale::facet"**, i8** }
%"class.std::locale::facet" = type <{ i32 (...)**, i32, [4 x i8] }>
%"class.std::basic_ostream" = type { i32 (...)**, %"class.std::basic_ios" }
%"class.std::basic_streambuf" = type { i32 (...)**, i8*, i8*, i8*, i8*, i8*, i8*, %"class.std::locale" }
%"class.std::ctype" = type <{ %"class.std::locale::facet.base", [4 x i8], %struct.__locale_struct*, i8, [7 x i8], i32*, i32*, i16*, i8, [256 x i8], [256 x i8], i8, [6 x i8] }>
%"class.std::locale::facet.base" = type <{ i32 (...)**, i32 }>
%struct.__locale_struct = type { [13 x %struct.__locale_data*], i16*, i32*, i32*, [13 x i8*] }
%struct.__locale_data = type opaque
%"class.std::num_put" = type { %"class.std::locale::facet.base", [4 x i8] }
%"class.std::num_get" = type { %"class.std::locale::facet.base", [4 x i8] }
%"struct.std::pair" = type { i64, i64 }

@_ZStL8__ioinit = internal global %"class.std::ios_base::Init" zeroinitializer, align 1
@__dso_handle = external hidden global i8
@_ZSt3cin = external global %"class.std::basic_istream", align 8
@_ZSt4cout = external global %"class.std::basic_ostream", align 8
@.str = private unnamed_addr constant [2 x i8] c"\0A\00", align 1
@.str.1 = private unnamed_addr constant [49 x i8] c"cannot create std::vector larger than max_size()\00", align 1
@llvm.global_ctors = appending global [1 x { i32, void ()*, i8* }] [{ i32, void ()*, i8* } { i32 65535, void ()* @_GLOBAL__sub_I_s388184260.cpp, i8* null }]

declare void @_ZNSt8ios_base4InitC1Ev(%"class.std::ios_base::Init"* nonnull align 1 dereferenceable(1)) unnamed_addr #0

; Function Attrs: nounwind
declare void @_ZNSt8ios_base4InitD1Ev(%"class.std::ios_base::Init"* nonnull align 1 dereferenceable(1)) unnamed_addr #1

; Function Attrs: nofree nounwind
declare i32 @__cxa_atexit(void (i8*)*, i8*, i8*) local_unnamed_addr #2

; Function Attrs: norecurse sspstrong uwtable
define dso_local i32 @main() local_unnamed_addr #3 personality i8* bitcast (i32 (...)* @__gxx_personality_v0 to i8*) {
  %1 = alloca i64, align 8
  %2 = alloca i64, align 8
  %3 = alloca i64, align 8
  %4 = alloca i64, align 8
  %5 = bitcast i64* %1 to i8*
  call void @llvm.lifetime.start.p0i8(i64 8, i8* nonnull %5) #11
  %6 = bitcast i64* %2 to i8*
  call void @llvm.lifetime.start.p0i8(i64 8, i8* nonnull %6) #11
  %7 = call nonnull align 8 dereferenceable(16) %"class.std::basic_istream"* @_ZNSi10_M_extractIxEERSiRT_(%"class.std::basic_istream"* nonnull align 8 dereferenceable(16) @_ZSt3cin, i64* nonnull align 8 dereferenceable(8) %1)
  %8 = call nonnull align 8 dereferenceable(16) %"class.std::basic_istream"* @_ZNSi10_M_extractIxEERSiRT_(%"class.std::basic_istream"* nonnull align 8 dereferenceable(16) %7, i64* nonnull align 8 dereferenceable(8) %2)
  %9 = load i64, i64* %2, align 8, !tbaa !5
  %10 = icmp ugt i64 %9, 576460752303423487
  br i1 %10, label %11, label %12

11:                                               ; preds = %0
  call void @_ZSt20__throw_length_errorPKc(i8* getelementptr inbounds ([49 x i8], [49 x i8]* @.str.1, i64 0, i64 0)) #12
  unreachable

12:                                               ; preds = %0
  %13 = icmp eq i64 %9, 0
  br i1 %13, label %22, label %14

14:                                               ; preds = %12
  %15 = shl nuw nsw i64 %9, 4
  %16 = call noalias nonnull i8* @_Znwm(i64 %15) #13
  %17 = bitcast i8* %16 to %"struct.std::pair"*
  call void @llvm.memset.p0i8.i64(i8* nonnull align 8 %16, i8 0, i64 %15, i1 false)
  %18 = load i64, i64* %2, align 8, !tbaa !5
  %19 = bitcast i64* %3 to i8*
  %20 = bitcast i64* %4 to i8*
  %21 = icmp sgt i64 %18, 0
  br i1 %21, label %115, label %22

22:                                               ; preds = %120, %12, %14
  %23 = phi %"struct.std::pair"* [ %17, %14 ], [ null, %12 ], [ %17, %120 ]
  %24 = load i64, i64* %1, align 8, !tbaa !5
  %25 = add nsw i64 %24, 1
  %26 = icmp ugt i64 %25, 1152921504606846975
  br i1 %26, label %27, label %29

27:                                               ; preds = %22
  invoke void @_ZSt20__throw_length_errorPKc(i8* getelementptr inbounds ([49 x i8], [49 x i8]* @.str.1, i64 0, i64 0)) #12
          to label %28 unwind label %164

28:                                               ; preds = %27
  unreachable

29:                                               ; preds = %22
  %30 = icmp ne i64 %25, 0
  call void @llvm.assume(i1 %30)
  %31 = shl nuw nsw i64 %25, 3
  %32 = invoke noalias nonnull i8* @_Znwm(i64 %31) #13
          to label %33 unwind label %164

33:                                               ; preds = %29
  %34 = bitcast i8* %32 to i64*
  %35 = getelementptr inbounds i64, i64* %34, i64 %25
  %36 = and i64 %24, 2305843009213693951
  %37 = add nuw nsw i64 %36, 1
  %38 = icmp ult i64 %36, 3
  br i1 %38, label %109, label %39

39:                                               ; preds = %33
  %40 = and i64 %37, 4611686018427387900
  %41 = getelementptr i64, i64* %34, i64 %40
  %42 = add nsw i64 %40, -4
  %43 = lshr exact i64 %42, 2
  %44 = add nuw nsw i64 %43, 1
  %45 = and i64 %44, 7
  %46 = icmp ult i64 %42, 28
  br i1 %46, label %94, label %47

47:                                               ; preds = %39
  %48 = and i64 %44, 9223372036854775800
  br label %49

49:                                               ; preds = %49, %47
  %50 = phi i64 [ 0, %47 ], [ %91, %49 ]
  %51 = phi i64 [ %48, %47 ], [ %92, %49 ]
  %52 = getelementptr i64, i64* %34, i64 %50
  %53 = bitcast i64* %52 to <2 x i64>*
  store <2 x i64> <i64 2147483647, i64 2147483647>, <2 x i64>* %53, align 8, !tbaa !5
  %54 = getelementptr i64, i64* %52, i64 2
  %55 = bitcast i64* %54 to <2 x i64>*
  store <2 x i64> <i64 2147483647, i64 2147483647>, <2 x i64>* %55, align 8, !tbaa !5
  %56 = or i64 %50, 4
  %57 = getelementptr i64, i64* %34, i64 %56
  %58 = bitcast i64* %57 to <2 x i64>*
  store <2 x i64> <i64 2147483647, i64 2147483647>, <2 x i64>* %58, align 8, !tbaa !5
  %59 = getelementptr i64, i64* %57, i64 2
  %60 = bitcast i64* %59 to <2 x i64>*
  store <2 x i64> <i64 2147483647, i64 2147483647>, <2 x i64>* %60, align 8, !tbaa !5
  %61 = or i64 %50, 8
  %62 = getelementptr i64, i64* %34, i64 %61
  %63 = bitcast i64* %62 to <2 x i64>*
  store <2 x i64> <i64 2147483647, i64 2147483647>, <2 x i64>* %63, align 8, !tbaa !5
  %64 = getelementptr i64, i64* %62, i64 2
  %65 = bitcast i64* %64 to <2 x i64>*
  store <2 x i64> <i64 2147483647, i64 2147483647>, <2 x i64>* %65, align 8, !tbaa !5
  %66 = or i64 %50, 12
  %67 = getelementptr i64, i64* %34, i64 %66
  %68 = bitcast i64* %67 to <2 x i64>*
  store <2 x i64> <i64 2147483647, i64 2147483647>, <2 x i64>* %68, align 8, !tbaa !5
  %69 = getelementptr i64, i64* %67, i64 2
  %70 = bitcast i64* %69 to <2 x i64>*
  store <2 x i64> <i64 2147483647, i64 2147483647>, <2 x i64>* %70, align 8, !tbaa !5
  %71 = or i64 %50, 16
  %72 = getelementptr i64, i64* %34, i64 %71
  %73 = bitcast i64* %72 to <2 x i64>*
  store <2 x i64> <i64 2147483647, i64 2147483647>, <2 x i64>* %73, align 8, !tbaa !5
  %74 = getelementptr i64, i64* %72, i64 2
  %75 = bitcast i64* %74 to <2 x i64>*
  store <2 x i64> <i64 2147483647, i64 2147483647>, <2 x i64>* %75, align 8, !tbaa !5
  %76 = or i64 %50, 20
  %77 = getelementptr i64, i64* %34, i64 %76
  %78 = bitcast i64* %77 to <2 x i64>*
  store <2 x i64> <i64 2147483647, i64 2147483647>, <2 x i64>* %78, align 8, !tbaa !5
  %79 = getelementptr i64, i64* %77, i64 2
  %80 = bitcast i64* %79 to <2 x i64>*
  store <2 x i64> <i64 2147483647, i64 2147483647>, <2 x i64>* %80, align 8, !tbaa !5
  %81 = or i64 %50, 24
  %82 = getelementptr i64, i64* %34, i64 %81
  %83 = bitcast i64* %82 to <2 x i64>*
  store <2 x i64> <i64 2147483647, i64 2147483647>, <2 x i64>* %83, align 8, !tbaa !5
  %84 = getelementptr i64, i64* %82, i64 2
  %85 = bitcast i64* %84 to <2 x i64>*
  store <2 x i64> <i64 2147483647, i64 2147483647>, <2 x i64>* %85, align 8, !tbaa !5
  %86 = or i64 %50, 28
  %87 = getelementptr i64, i64* %34, i64 %86
  %88 = bitcast i64* %87 to <2 x i64>*
  store <2 x i64> <i64 2147483647, i64 2147483647>, <2 x i64>* %88, align 8, !tbaa !5
  %89 = getelementptr i64, i64* %87, i64 2
  %90 = bitcast i64* %89 to <2 x i64>*
  store <2 x i64> <i64 2147483647, i64 2147483647>, <2 x i64>* %90, align 8, !tbaa !5
  %91 = add nuw i64 %50, 32
  %92 = add i64 %51, -8
  %93 = icmp eq i64 %92, 0
  br i1 %93, label %94, label %49, !llvm.loop !9

94:                                               ; preds = %49, %39
  %95 = phi i64 [ 0, %39 ], [ %91, %49 ]
  %96 = icmp eq i64 %45, 0
  br i1 %96, label %107, label %97

97:                                               ; preds = %94, %97
  %98 = phi i64 [ %104, %97 ], [ %95, %94 ]
  %99 = phi i64 [ %105, %97 ], [ %45, %94 ]
  %100 = getelementptr i64, i64* %34, i64 %98
  %101 = bitcast i64* %100 to <2 x i64>*
  store <2 x i64> <i64 2147483647, i64 2147483647>, <2 x i64>* %101, align 8, !tbaa !5
  %102 = getelementptr i64, i64* %100, i64 2
  %103 = bitcast i64* %102 to <2 x i64>*
  store <2 x i64> <i64 2147483647, i64 2147483647>, <2 x i64>* %103, align 8, !tbaa !5
  %104 = add nuw i64 %98, 4
  %105 = add i64 %99, -1
  %106 = icmp eq i64 %105, 0
  br i1 %106, label %107, label %97, !llvm.loop !12

107:                                              ; preds = %97, %94
  %108 = icmp eq i64 %37, %40
  br i1 %108, label %130, label %109

109:                                              ; preds = %33, %107
  %110 = phi i64* [ %34, %33 ], [ %41, %107 ]
  br label %111

111:                                              ; preds = %109, %111
  %112 = phi i64* [ %113, %111 ], [ %110, %109 ]
  store i64 2147483647, i64* %112, align 8, !tbaa !5
  %113 = getelementptr inbounds i64, i64* %112, i64 1
  %114 = icmp eq i64* %113, %35
  br i1 %114, label %130, label %111, !llvm.loop !14

115:                                              ; preds = %14, %120
  %116 = phi i64 [ %125, %120 ], [ 0, %14 ]
  call void @llvm.lifetime.start.p0i8(i64 8, i8* nonnull %19) #11
  call void @llvm.lifetime.start.p0i8(i64 8, i8* nonnull %20) #11
  %117 = invoke nonnull align 8 dereferenceable(16) %"class.std::basic_istream"* @_ZNSi10_M_extractIxEERSiRT_(%"class.std::basic_istream"* nonnull align 8 dereferenceable(16) @_ZSt3cin, i64* nonnull align 8 dereferenceable(8) %3)
          to label %118 unwind label %128

118:                                              ; preds = %115
  %119 = invoke nonnull align 8 dereferenceable(16) %"class.std::basic_istream"* @_ZNSi10_M_extractIxEERSiRT_(%"class.std::basic_istream"* nonnull align 8 dereferenceable(16) %117, i64* nonnull align 8 dereferenceable(8) %4)
          to label %120 unwind label %128

120:                                              ; preds = %118
  %121 = load i64, i64* %3, align 8, !tbaa !5
  %122 = load i64, i64* %4, align 8, !tbaa !5
  %123 = getelementptr inbounds %"struct.std::pair", %"struct.std::pair"* %17, i64 %116, i32 0
  store i64 %121, i64* %123, align 8, !tbaa !16
  %124 = getelementptr inbounds %"struct.std::pair", %"struct.std::pair"* %17, i64 %116, i32 1
  store i64 %122, i64* %124, align 8, !tbaa !18
  call void @llvm.lifetime.end.p0i8(i64 8, i8* nonnull %20) #11
  call void @llvm.lifetime.end.p0i8(i64 8, i8* nonnull %19) #11
  %125 = add nuw nsw i64 %116, 1
  %126 = load i64, i64* %2, align 8, !tbaa !5
  %127 = icmp slt i64 %125, %126
  br i1 %127, label %115, label %22, !llvm.loop !19

128:                                              ; preds = %115, %118
  %129 = landingpad { i8*, i32 }
          cleanup
  call void @llvm.lifetime.end.p0i8(i64 8, i8* nonnull %20) #11
  call void @llvm.lifetime.end.p0i8(i64 8, i8* nonnull %19) #11
  br label %178

130:                                              ; preds = %111, %107
  %131 = load i64, i64* %1, align 8, !tbaa !5
  %132 = load i64, i64* %2, align 8
  store i64 0, i64* %34, align 8, !tbaa !5
  %133 = icmp sgt i64 %131, 0
  %134 = icmp sgt i64 %132, 0
  %135 = select i1 %133, i1 %134, i1 false
  br i1 %135, label %136, label %160

136:                                              ; preds = %130, %157
  %137 = phi i64 [ %158, %157 ], [ 1, %130 ]
  %138 = getelementptr inbounds i64, i64* %34, i64 %137
  %139 = load i64, i64* %138, align 8, !tbaa !5
  br label %140

140:                                              ; preds = %136, %140
  %141 = phi i64 [ %139, %136 ], [ %154, %140 ]
  %142 = phi i64 [ 0, %136 ], [ %155, %140 ]
  %143 = getelementptr inbounds %"struct.std::pair", %"struct.std::pair"* %23, i64 %142, i32 0
  %144 = load i64, i64* %143, align 8, !tbaa !16
  %145 = sub nsw i64 %137, %144
  %146 = icmp sgt i64 %145, 0
  %147 = select i1 %146, i64 %145, i64 0
  %148 = getelementptr inbounds i64, i64* %34, i64 %147
  %149 = load i64, i64* %148, align 8, !tbaa !5
  %150 = getelementptr inbounds %"struct.std::pair", %"struct.std::pair"* %23, i64 %142, i32 1
  %151 = load i64, i64* %150, align 8, !tbaa !18
  %152 = add nsw i64 %151, %149
  %153 = icmp slt i64 %152, %141
  %154 = select i1 %153, i64 %152, i64 %141
  store i64 %154, i64* %138, align 8, !tbaa !5
  %155 = add nuw nsw i64 %142, 1
  %156 = icmp eq i64 %155, %132
  br i1 %156, label %157, label %140, !llvm.loop !20

157:                                              ; preds = %140
  %158 = add nuw i64 %137, 1
  %159 = icmp eq i64 %137, %131
  br i1 %159, label %160, label %136, !llvm.loop !21

160:                                              ; preds = %157, %130
  %161 = getelementptr inbounds i64, i64* %34, i64 %131
  %162 = load i64, i64* %161, align 8, !tbaa !5
  %163 = invoke nonnull align 8 dereferenceable(8) %"class.std::basic_ostream"* @_ZNSo9_M_insertIxEERSoT_(%"class.std::basic_ostream"* nonnull align 8 dereferenceable(8) @_ZSt4cout, i64 %162)
          to label %166 unwind label %173

164:                                              ; preds = %29, %27
  %165 = landingpad { i8*, i32 }
          cleanup
  br label %175

166:                                              ; preds = %160
  %167 = invoke nonnull align 8 dereferenceable(8) %"class.std::basic_ostream"* @_ZSt16__ostream_insertIcSt11char_traitsIcEERSt13basic_ostreamIT_T0_ES6_PKS3_l(%"class.std::basic_ostream"* nonnull align 8 dereferenceable(8) %163, i8* nonnull getelementptr inbounds ([2 x i8], [2 x i8]* @.str, i64 0, i64 0), i64 1)
          to label %168 unwind label %173

168:                                              ; preds = %166
  call void @_ZdlPv(i8* nonnull %32) #11
  %169 = icmp eq %"struct.std::pair"* %23, null
  br i1 %169, label %172, label %170

170:                                              ; preds = %168
  %171 = bitcast %"struct.std::pair"* %23 to i8*
  call void @_ZdlPv(i8* nonnull %171) #11
  br label %172

172:                                              ; preds = %168, %170
  call void @llvm.lifetime.end.p0i8(i64 8, i8* nonnull %6) #11
  call void @llvm.lifetime.end.p0i8(i64 8, i8* nonnull %5) #11
  ret i32 0

173:                                              ; preds = %166, %160
  %174 = landingpad { i8*, i32 }
          cleanup
  call void @_ZdlPv(i8* nonnull %32) #11
  br label %175

175:                                              ; preds = %164, %173
  %176 = phi { i8*, i32 } [ %174, %173 ], [ %165, %164 ]
  %177 = icmp eq %"struct.std::pair"* %23, null
  br i1 %177, label %182, label %178

178:                                              ; preds = %128, %175
  %179 = phi { i8*, i32 } [ %129, %128 ], [ %176, %175 ]
  %180 = phi %"struct.std::pair"* [ %17, %128 ], [ %23, %175 ]
  %181 = bitcast %"struct.std::pair"* %180 to i8*
  call void @_ZdlPv(i8* nonnull %181) #11
  br label %182

182:                                              ; preds = %178, %175
  %183 = phi { i8*, i32 } [ %179, %178 ], [ %176, %175 ]
  call void @llvm.lifetime.end.p0i8(i64 8, i8* nonnull %6) #11
  call void @llvm.lifetime.end.p0i8(i64 8, i8* nonnull %5) #11
  resume { i8*, i32 } %183
}

; Function Attrs: argmemonly mustprogress nofree nosync nounwind willreturn
declare void @llvm.lifetime.start.p0i8(i64 immarg, i8* nocapture) #4

declare i32 @__gxx_personality_v0(...)

; Function Attrs: argmemonly mustprogress nofree nosync nounwind willreturn
declare void @llvm.lifetime.end.p0i8(i64 immarg, i8* nocapture) #4

declare nonnull align 8 dereferenceable(16) %"class.std::basic_istream"* @_ZNSi10_M_extractIxEERSiRT_(%"class.std::basic_istream"* nonnull align 8 dereferenceable(16), i64* nonnull align 8 dereferenceable(8)) local_unnamed_addr #0

; Function Attrs: noreturn
declare void @_ZSt20__throw_length_errorPKc(i8*) local_unnamed_addr #5

; Function Attrs: nobuiltin allocsize(0)
declare nonnull i8* @_Znwm(i64) local_unnamed_addr #6

; Function Attrs: nobuiltin nounwind
declare void @_ZdlPv(i8*) local_unnamed_addr #7

declare nonnull align 8 dereferenceable(8) %"class.std::basic_ostream"* @_ZNSo9_M_insertIxEERSoT_(%"class.std::basic_ostream"* nonnull align 8 dereferenceable(8), i64) local_unnamed_addr #0

declare nonnull align 8 dereferenceable(8) %"class.std::basic_ostream"* @_ZSt16__ostream_insertIcSt11char_traitsIcEERSt13basic_ostreamIT_T0_ES6_PKS3_l(%"class.std::basic_ostream"* nonnull align 8 dereferenceable(8), i8*, i64) local_unnamed_addr #0

; Function Attrs: sspstrong uwtable
define internal void @_GLOBAL__sub_I_s388184260.cpp() #8 section ".text.startup" {
  tail call void @_ZNSt8ios_base4InitC1Ev(%"class.std::ios_base::Init"* nonnull align 1 dereferenceable(1) @_ZStL8__ioinit)
  %1 = tail call i32 @__cxa_atexit(void (i8*)* bitcast (void (%"class.std::ios_base::Init"*)* @_ZNSt8ios_base4InitD1Ev to void (i8*)*), i8* getelementptr inbounds (%"class.std::ios_base::Init", %"class.std::ios_base::Init"* @_ZStL8__ioinit, i64 0, i32 0), i8* nonnull @__dso_handle) #11
  ret void
}

; Function Attrs: argmemonly nofree nounwind willreturn writeonly
declare void @llvm.memset.p0i8.i64(i8* nocapture writeonly, i8, i64, i1 immarg) #9

; Function Attrs: inaccessiblememonly nofree nosync nounwind willreturn
declare void @llvm.assume(i1 noundef) #10

attributes #0 = { "frame-pointer"="none" "no-trapping-math"="true" "stack-protector-buffer-size"="8" "target-cpu"="x86-64" "target-features"="+cx8,+fxsr,+mmx,+sse,+sse2,+x87" "tune-cpu"="generic" }
attributes #1 = { nounwind "frame-pointer"="none" "no-trapping-math"="true" "stack-protector-buffer-size"="8" "target-cpu"="x86-64" "target-features"="+cx8,+fxsr,+mmx,+sse,+sse2,+x87" "tune-cpu"="generic" }
attributes #2 = { nofree nounwind }
attributes #3 = { norecurse sspstrong uwtable "frame-pointer"="none" "min-legal-vector-width"="0" "no-trapping-math"="true" "stack-protector-buffer-size"="8" "target-cpu"="x86-64" "target-features"="+cx8,+fxsr,+mmx,+sse,+sse2,+x87" "tune-cpu"="generic" }
attributes #4 = { argmemonly mustprogress nofree nosync nounwind willreturn }
attributes #5 = { noreturn "frame-pointer"="none" "no-trapping-math"="true" "stack-protector-buffer-size"="8" "target-cpu"="x86-64" "target-features"="+cx8,+fxsr,+mmx,+sse,+sse2,+x87" "tune-cpu"="generic" }
attributes #6 = { nobuiltin allocsize(0) "frame-pointer"="none" "no-trapping-math"="true" "stack-protector-buffer-size"="8" "target-cpu"="x86-64" "target-features"="+cx8,+fxsr,+mmx,+sse,+sse2,+x87" "tune-cpu"="generic" }
attributes #7 = { nobuiltin nounwind "frame-pointer"="none" "no-trapping-math"="true" "stack-protector-buffer-size"="8" "target-cpu"="x86-64" "target-features"="+cx8,+fxsr,+mmx,+sse,+sse2,+x87" "tune-cpu"="generic" }
attributes #8 = { sspstrong uwtable "frame-pointer"="none" "min-legal-vector-width"="0" "no-trapping-math"="true" "stack-protector-buffer-size"="8" "target-cpu"="x86-64" "target-features"="+cx8,+fxsr,+mmx,+sse,+sse2,+x87" "tune-cpu"="generic" }
attributes #9 = { argmemonly nofree nounwind willreturn writeonly }
attributes #10 = { inaccessiblememonly nofree nosync nounwind willreturn }
attributes #11 = { nounwind }
attributes #12 = { noreturn }
attributes #13 = { allocsize(0) }

!llvm.module.flags = !{!0, !1, !2, !3}
!llvm.ident = !{!4}

!0 = !{i32 1, !"wchar_size", i32 4}
!1 = !{i32 7, !"PIC Level", i32 2}
!2 = !{i32 7, !"PIE Level", i32 2}
!3 = !{i32 7, !"uwtable", i32 1}
!4 = !{!"clang version 13.0.0"}
!5 = !{!6, !6, i64 0}
!6 = !{!"long long", !7, i64 0}
!7 = !{!"omnipotent char", !8, i64 0}
!8 = !{!"Simple C++ TBAA"}
!9 = distinct !{!9, !10, !11}
!10 = !{!"llvm.loop.mustprogress"}
!11 = !{!"llvm.loop.isvectorized", i32 1}
!12 = distinct !{!12, !13}
!13 = !{!"llvm.loop.unroll.disable"}
!14 = distinct !{!14, !10, !15, !11}
!15 = !{!"llvm.loop.unroll.runtime.disable"}
!16 = !{!17, !6, i64 0}
!17 = !{!"_ZTSSt4pairIxxE", !6, i64 0, !6, i64 8}
!18 = !{!17, !6, i64 8}
!19 = distinct !{!19, !10}
!20 = distinct !{!20, !10}
!21 = distinct !{!21, !10}
