; ModuleID = 'Project_CodeNet_C++1400/p02855/s043015287.cpp'
source_filename = "Project_CodeNet_C++1400/p02855/s043015287.cpp"
target datalayout = "e-m:e-p270:32:32-p271:32:32-p272:64:64-i64:64-f80:128-n8:16:32:64-S128"
target triple = "x86_64-pc-linux-gnu"

%"class.std::ios_base::Init" = type { i8 }
%"class.std::basic_istream" = type { i32 (...)**, i64, %"class.std::basic_ios" }
%"class.std::basic_ios" = type { %"class.std::ios_base", %"class.std::basic_ostream"*, i8, i8, %"class.std::basic_streambuf"*, %"class.std::ctype"*, %"class.std::num_put"*, %"class.std::num_get"* }
%"class.std::ios_base" = type { i32 (...)**, i64, i64, i32, i32, i32, %"struct.std::ios_base::_Callback_list"*, %"struct.std::ios_base::_Words", [8 x %"struct.std::ios_base::_Words"], i32, %"struct.std::ios_base::_Words"*, %"class.std::locale" }
%"struct.std::ios_base::_Callback_list" = type { %"struct.std::ios_base::_Callback_list"*, void (i32, %"class.std::ios_base"*, i32)*, i32, i32 }
%"struct.std::ios_base::_Words" = type { i8*, i64 }
%"class.std::locale" = type { %"class.std::locale::_Impl"* }
%"class.std::locale::_Impl" = type { i32, %"class.std::locale::facet"**, i64, %"class.std::locale::facet"**, i8** }
%"class.std::locale::facet" = type <{ i32 (...)**, i32, [4 x i8] }>
%"class.std::basic_ostream" = type { i32 (...)**, %"class.std::basic_ios" }
%"class.std::basic_streambuf" = type { i32 (...)**, i8*, i8*, i8*, i8*, i8*, i8*, %"class.std::locale" }
%"class.std::ctype" = type <{ %"class.std::locale::facet.base", [4 x i8], %struct.__locale_struct*, i8, [7 x i8], i32*, i32*, i16*, i8, [256 x i8], [256 x i8], i8, [6 x i8] }>
%"class.std::locale::facet.base" = type <{ i32 (...)**, i32 }>
%struct.__locale_struct = type { [13 x %struct.__locale_data*], i16*, i32*, i32*, [13 x i8*] }
%struct.__locale_data = type opaque
%"class.std::num_put" = type { %"class.std::locale::facet.base", [4 x i8] }
%"class.std::num_get" = type { %"class.std::locale::facet.base", [4 x i8] }
%"class.std::vector" = type { %"struct.std::_Vector_base" }
%"struct.std::_Vector_base" = type { %"struct.std::_Vector_base<std::vector<long long>, std::allocator<std::vector<long long>>>::_Vector_impl" }
%"struct.std::_Vector_base<std::vector<long long>, std::allocator<std::vector<long long>>>::_Vector_impl" = type { %"struct.std::_Vector_base<std::vector<long long>, std::allocator<std::vector<long long>>>::_Vector_impl_data" }
%"struct.std::_Vector_base<std::vector<long long>, std::allocator<std::vector<long long>>>::_Vector_impl_data" = type { %"class.std::vector.0"*, %"class.std::vector.0"*, %"class.std::vector.0"* }
%"class.std::vector.0" = type { %"struct.std::_Vector_base.1" }
%"struct.std::_Vector_base.1" = type { %"struct.std::_Vector_base<long long, std::allocator<long long>>::_Vector_impl" }
%"struct.std::_Vector_base<long long, std::allocator<long long>>::_Vector_impl" = type { %"struct.std::_Vector_base<long long, std::allocator<long long>>::_Vector_impl_data" }
%"struct.std::_Vector_base<long long, std::allocator<long long>>::_Vector_impl_data" = type { i64*, i64*, i64* }
%"class.std::allocator.2" = type { i8 }
%"class.std::allocator" = type { i8 }
%"class.__gnu_cxx::new_allocator.3" = type { i8 }
%"class.__gnu_cxx::new_allocator" = type { i8 }

$_ZNSt6vectorIxSaIxEEC2EmRKS0_ = comdat any

$_ZNSt6vectorIS_IxSaIxEESaIS1_EEC2EmRKS1_RKS2_ = comdat any

$_ZNSt6vectorIS_IxSaIxEESaIS1_EED2Ev = comdat any

$_ZNSt6vectorIxSaIxEE17_S_check_init_lenEmRKS0_ = comdat any

$_ZNSt6vectorIxSaIxEE21_M_default_initializeEm = comdat any

$_ZNSt12_Vector_baseIxSaIxEED2Ev = comdat any

$__clang_call_terminate = comdat any

$_ZNSt12_Vector_baseIxSaIxEE17_M_create_storageEm = comdat any

$_ZNSt12_Vector_baseIxSaIxEE11_M_allocateEm = comdat any

$_ZNSt16allocator_traitsISaIxEE8allocateERS0_m = comdat any

$_ZN9__gnu_cxx13new_allocatorIxE8allocateEmPKv = comdat any

$_ZNSt27__uninitialized_default_n_1ILb1EE18__uninit_default_nIPxmEET_S3_T0_ = comdat any

$_ZSt10__fill_n_aIPxmxET_S1_T0_RKT1_St26random_access_iterator_tag = comdat any

$_ZNSt6vectorIS_IxSaIxEESaIS1_EE17_S_check_init_lenEmRKS2_ = comdat any

$_ZNSt6vectorIS_IxSaIxEESaIS1_EE18_M_fill_initializeEmRKS1_ = comdat any

$_ZNSt12_Vector_baseISt6vectorIxSaIxEESaIS2_EED2Ev = comdat any

$_ZNSt12_Vector_baseISt6vectorIxSaIxEESaIS2_EE17_M_create_storageEm = comdat any

$_ZNSt12_Vector_baseISt6vectorIxSaIxEESaIS2_EE11_M_allocateEm = comdat any

$_ZNSt16allocator_traitsISaISt6vectorIxSaIxEEEE8allocateERS3_m = comdat any

$_ZN9__gnu_cxx13new_allocatorISt6vectorIxSaIxEEE8allocateEmPKv = comdat any

$_ZNSt22__uninitialized_fill_nILb0EE15__uninit_fill_nIPSt6vectorIxSaIxEEmS4_EET_S6_T0_RKT1_ = comdat any

$_ZNSt6vectorIxSaIxEEC2ERKS1_ = comdat any

$_ZNSt12_Destroy_auxILb0EE9__destroyIPSt6vectorIxSaIxEEEEvT_S6_ = comdat any

@_ZStL8__ioinit = internal global %"class.std::ios_base::Init" zeroinitializer, align 1
@__dso_handle = external hidden global i8
@dx = dso_local local_unnamed_addr global [4 x i64] [i64 1, i64 0, i64 -1, i64 0], align 16
@dy = dso_local local_unnamed_addr global [4 x i64] [i64 0, i64 1, i64 0, i64 -1], align 16
@_ZSt3cin = external global %"class.std::basic_istream", align 8
@_ZSt4cout = external global %"class.std::basic_ostream", align 8
@.str = private unnamed_addr constant [49 x i8] c"cannot create std::vector larger than max_size()\00", align 1
@llvm.global_ctors = appending global [1 x { i32, void ()*, i8* }] [{ i32, void ()*, i8* } { i32 65535, void ()* @_GLOBAL__sub_I_s043015287.cpp, i8* null }]

; Function Attrs: minsize optsize
declare void @_ZNSt8ios_base4InitC1Ev(%"class.std::ios_base::Init"* nonnull align 1 dereferenceable(1)) unnamed_addr #0

; Function Attrs: minsize nounwind optsize
declare void @_ZNSt8ios_base4InitD1Ev(%"class.std::ios_base::Init"* nonnull align 1 dereferenceable(1)) unnamed_addr #1

; Function Attrs: nofree nounwind
declare i32 @__cxa_atexit(void (i8*)*, i8*, i8*) local_unnamed_addr #2

; Function Attrs: minsize mustprogress nofree nosync nounwind optsize readnone sspstrong uwtable willreturn
define dso_local i64 @_Z4factx(i64 %0) local_unnamed_addr #3 {
  %2 = icmp eq i64 %0, 0
  br i1 %2, label %3, label %5

3:                                                ; preds = %1, %5
  %4 = phi i64 [ %9, %5 ], [ 1, %1 ]
  ret i64 %4

5:                                                ; preds = %1
  %6 = add nsw i64 %0, -1
  %7 = tail call i64 @_Z4factx(i64 %6) #17
  %8 = mul nsw i64 %7, %0
  %9 = srem i64 %8, 1000000007
  br label %3
}

; Function Attrs: minsize mustprogress nofree nosync nounwind optsize readnone sspstrong uwtable willreturn
define dso_local i64 @_Z3gcdxx(i64 %0, i64 %1) local_unnamed_addr #3 {
  br label %3

3:                                                ; preds = %7, %2
  %4 = phi i64 [ %0, %2 ], [ %5, %7 ]
  %5 = phi i64 [ %1, %2 ], [ %8, %7 ]
  %6 = icmp eq i64 %5, 0
  br i1 %6, label %9, label %7

7:                                                ; preds = %3
  %8 = srem i64 %4, %5
  br label %3

9:                                                ; preds = %3
  ret i64 %4
}

; Function Attrs: minsize mustprogress nofree norecurse nosync nounwind optsize readnone sspstrong uwtable willreturn
define dso_local i64 @_Z3lcmxx(i64 %0, i64 %1) local_unnamed_addr #4 {
  br label %3

3:                                                ; preds = %7, %2
  %4 = phi i64 [ %0, %2 ], [ %5, %7 ]
  %5 = phi i64 [ %1, %2 ], [ %8, %7 ]
  %6 = icmp eq i64 %5, 0
  br i1 %6, label %9, label %7

7:                                                ; preds = %3
  %8 = srem i64 %4, %5
  br label %3

9:                                                ; preds = %3
  %10 = mul nsw i64 %1, %0
  %11 = sdiv i64 %10, %4
  ret i64 %11
}

; Function Attrs: minsize mustprogress nofree norecurse nosync nounwind optsize readnone sspstrong uwtable willreturn
define dso_local i64 @_Z4ketax(i64 %0) local_unnamed_addr #4 {
  %2 = icmp eq i64 %0, 0
  br i1 %2, label %10, label %3

3:                                                ; preds = %1, %7
  %4 = phi i64 [ %8, %7 ], [ %0, %1 ]
  %5 = phi i64 [ %9, %7 ], [ 0, %1 ]
  %6 = icmp eq i64 %4, 0
  br i1 %6, label %10, label %7

7:                                                ; preds = %3
  %8 = sdiv i64 %4, 10
  %9 = add nuw nsw i64 %5, 1
  br label %3, !llvm.loop !5

10:                                               ; preds = %3, %1
  %11 = phi i64 [ 1, %1 ], [ %5, %3 ]
  ret i64 %11
}

; Function Attrs: argmemonly mustprogress nofree nosync nounwind willreturn
declare void @llvm.lifetime.start.p0i8(i64 immarg, i8* nocapture) #5

; Function Attrs: argmemonly mustprogress nofree nosync nounwind willreturn
declare void @llvm.lifetime.end.p0i8(i64 immarg, i8* nocapture) #5

; Function Attrs: minsize mustprogress nofree norecurse nosync nounwind optsize readnone sspstrong uwtable willreturn
define dso_local i64 @_Z7ketasumx(i64 %0) local_unnamed_addr #4 {
  br label %2

2:                                                ; preds = %6, %1
  %3 = phi i64 [ %0, %1 ], [ %9, %6 ]
  %4 = phi i64 [ 0, %1 ], [ %8, %6 ]
  %5 = icmp eq i64 %3, 0
  br i1 %5, label %10, label %6

6:                                                ; preds = %2
  %7 = srem i64 %3, 10
  %8 = add nsw i64 %4, %7
  %9 = sdiv i64 %3, 10
  br label %2, !llvm.loop !7

10:                                               ; preds = %2
  ret i64 %4
}

; Function Attrs: minsize norecurse optsize sspstrong uwtable
define dso_local i32 @main() local_unnamed_addr #6 personality i8* bitcast (i32 (...)* @__gxx_personality_v0 to i8*) {
  %1 = alloca i64, align 8
  %2 = alloca i64, align 8
  %3 = alloca i64, align 8
  %4 = alloca %"class.std::vector", align 8
  %5 = alloca %"class.std::vector.0", align 8
  %6 = alloca %"class.std::allocator.2", align 1
  %7 = alloca %"class.std::allocator", align 1
  %8 = alloca i8, align 1
  %9 = bitcast i64* %1 to i8*
  call void @llvm.lifetime.start.p0i8(i64 8, i8* nonnull %9) #18
  %10 = bitcast i64* %2 to i8*
  call void @llvm.lifetime.start.p0i8(i64 8, i8* nonnull %10) #18
  %11 = bitcast i64* %3 to i8*
  call void @llvm.lifetime.start.p0i8(i64 8, i8* nonnull %11) #18
  %12 = call nonnull align 8 dereferenceable(16) %"class.std::basic_istream"* @_ZNSi10_M_extractIxEERSiRT_(%"class.std::basic_istream"* nonnull align 8 dereferenceable(16) @_ZSt3cin, i64* nonnull align 8 dereferenceable(8) %1) #17
  %13 = call nonnull align 8 dereferenceable(16) %"class.std::basic_istream"* @_ZNSi10_M_extractIxEERSiRT_(%"class.std::basic_istream"* nonnull align 8 dereferenceable(16) %12, i64* nonnull align 8 dereferenceable(8) %2) #17
  %14 = call nonnull align 8 dereferenceable(16) %"class.std::basic_istream"* @_ZNSi10_M_extractIxEERSiRT_(%"class.std::basic_istream"* nonnull align 8 dereferenceable(16) %13, i64* nonnull align 8 dereferenceable(8) %3) #17
  %15 = bitcast %"class.std::vector"* %4 to i8*
  call void @llvm.lifetime.start.p0i8(i64 24, i8* nonnull %15) #18
  %16 = load i64, i64* %1, align 8, !tbaa !8
  %17 = bitcast %"class.std::vector.0"* %5 to i8*
  call void @llvm.lifetime.start.p0i8(i64 24, i8* nonnull %17) #18
  %18 = load i64, i64* %2, align 8, !tbaa !8
  %19 = getelementptr inbounds %"class.std::allocator.2", %"class.std::allocator.2"* %6, i64 0, i32 0
  call void @llvm.lifetime.start.p0i8(i64 1, i8* nonnull %19) #18
  invoke void @_ZNSt6vectorIxSaIxEEC2EmRKS0_(%"class.std::vector.0"* nonnull align 8 dereferenceable(24) %5, i64 %18, %"class.std::allocator.2"* nonnull align 1 dereferenceable(1) %6) #17
          to label %20 unwind label %30

20:                                               ; preds = %0
  %21 = getelementptr inbounds %"class.std::allocator", %"class.std::allocator"* %7, i64 0, i32 0
  call void @llvm.lifetime.start.p0i8(i64 1, i8* nonnull %21) #18
  invoke void @_ZNSt6vectorIS_IxSaIxEESaIS1_EEC2EmRKS1_RKS2_(%"class.std::vector"* nonnull align 8 dereferenceable(24) %4, i64 %16, %"class.std::vector.0"* nonnull align 8 dereferenceable(24) %5, %"class.std::allocator"* nonnull align 1 dereferenceable(1) %7) #17
          to label %22 unwind label %32

22:                                               ; preds = %20
  call void @llvm.lifetime.end.p0i8(i64 1, i8* nonnull %21) #18
  %23 = getelementptr inbounds %"class.std::vector.0", %"class.std::vector.0"* %5, i64 0, i32 0
  call void @_ZNSt12_Vector_baseIxSaIxEED2Ev(%"struct.std::_Vector_base.1"* nonnull align 8 dereferenceable(24) %23) #19
  call void @llvm.lifetime.end.p0i8(i64 1, i8* nonnull %19) #18
  call void @llvm.lifetime.end.p0i8(i64 24, i8* nonnull %17) #18
  %24 = getelementptr inbounds %"class.std::vector", %"class.std::vector"* %4, i64 0, i32 0, i32 0, i32 0, i32 0
  br label %25

25:                                               ; preds = %42, %22
  %26 = phi i64 [ 1, %22 ], [ %38, %42 ]
  %27 = phi i64 [ 0, %22 ], [ %43, %42 ]
  %28 = load i64, i64* %1, align 8, !tbaa !8
  %29 = icmp slt i64 %27, %28
  br i1 %29, label %37, label %70

30:                                               ; preds = %0
  %31 = landingpad { i8*, i32 }
          cleanup
  br label %35

32:                                               ; preds = %20
  %33 = landingpad { i8*, i32 }
          cleanup
  call void @llvm.lifetime.end.p0i8(i64 1, i8* nonnull %21) #18
  %34 = getelementptr inbounds %"class.std::vector.0", %"class.std::vector.0"* %5, i64 0, i32 0
  call void @_ZNSt12_Vector_baseIxSaIxEED2Ev(%"struct.std::_Vector_base.1"* nonnull align 8 dereferenceable(24) %34) #19
  br label %35

35:                                               ; preds = %32, %30
  %36 = phi { i8*, i32 } [ %33, %32 ], [ %31, %30 ]
  call void @llvm.lifetime.end.p0i8(i64 1, i8* nonnull %19) #18
  call void @llvm.lifetime.end.p0i8(i64 24, i8* nonnull %17) #18
  br label %206

37:                                               ; preds = %25, %67
  %38 = phi i64 [ %68, %67 ], [ %26, %25 ]
  %39 = phi i64 [ %69, %67 ], [ 0, %25 ]
  %40 = load i64, i64* %2, align 8, !tbaa !8
  %41 = icmp slt i64 %39, %40
  br i1 %41, label %44, label %42

42:                                               ; preds = %37
  %43 = add nuw nsw i64 %27, 1
  br label %25, !llvm.loop !12

44:                                               ; preds = %37
  call void @llvm.lifetime.start.p0i8(i64 1, i8* nonnull %8) #18
  %45 = invoke nonnull align 8 dereferenceable(16) %"class.std::basic_istream"* @_ZStrsIcSt11char_traitsIcEERSt13basic_istreamIT_T0_ES6_RS3_(%"class.std::basic_istream"* nonnull align 8 dereferenceable(16) @_ZSt3cin, i8* nonnull align 1 dereferenceable(1) %8) #17
          to label %46 unwind label %55

46:                                               ; preds = %44
  %47 = load i8, i8* %8, align 1, !tbaa !13
  %48 = icmp eq i8 %47, 35
  br i1 %48, label %49, label %57

49:                                               ; preds = %46
  %50 = load %"class.std::vector.0"*, %"class.std::vector.0"** %24, align 8, !tbaa !14
  %51 = getelementptr inbounds %"class.std::vector.0", %"class.std::vector.0"* %50, i64 %27, i32 0, i32 0, i32 0, i32 0
  %52 = load i64*, i64** %51, align 8, !tbaa !17
  %53 = getelementptr inbounds i64, i64* %52, i64 %39
  store i64 %38, i64* %53, align 8, !tbaa !8
  %54 = add nsw i64 %38, 1
  br label %67

55:                                               ; preds = %44
  %56 = landingpad { i8*, i32 }
          cleanup
  call void @llvm.lifetime.end.p0i8(i64 1, i8* nonnull %8) #18
  br label %204

57:                                               ; preds = %46
  %58 = icmp eq i64 %39, 0
  br i1 %58, label %67, label %59

59:                                               ; preds = %57
  %60 = load %"class.std::vector.0"*, %"class.std::vector.0"** %24, align 8, !tbaa !14
  %61 = add nsw i64 %39, -1
  %62 = getelementptr inbounds %"class.std::vector.0", %"class.std::vector.0"* %60, i64 %27, i32 0, i32 0, i32 0, i32 0
  %63 = load i64*, i64** %62, align 8, !tbaa !17
  %64 = getelementptr inbounds i64, i64* %63, i64 %61
  %65 = load i64, i64* %64, align 8, !tbaa !8
  %66 = getelementptr inbounds i64, i64* %63, i64 %39
  store i64 %65, i64* %66, align 8, !tbaa !8
  br label %67

67:                                               ; preds = %57, %59, %49
  %68 = phi i64 [ %54, %49 ], [ %38, %59 ], [ %38, %57 ]
  call void @llvm.lifetime.end.p0i8(i64 1, i8* nonnull %8) #18
  %69 = add nuw nsw i64 %39, 1
  br label %37, !llvm.loop !19

70:                                               ; preds = %25, %82
  %71 = phi i64 [ %84, %82 ], [ %28, %25 ]
  %72 = phi i64 [ %83, %82 ], [ 0, %25 ]
  %73 = icmp slt i64 %72, %71
  br i1 %73, label %74, label %96

74:                                               ; preds = %70
  %75 = load i64, i64* %2, align 8, !tbaa !8
  %76 = add nsw i64 %75, -2
  %77 = load %"class.std::vector.0"*, %"class.std::vector.0"** %24, align 8
  %78 = getelementptr inbounds %"class.std::vector.0", %"class.std::vector.0"* %77, i64 %72, i32 0, i32 0, i32 0, i32 0
  br label %79

79:                                               ; preds = %94, %74
  %80 = phi i64 [ %76, %74 ], [ %95, %94 ]
  %81 = icmp sgt i64 %80, -1
  br i1 %81, label %85, label %82

82:                                               ; preds = %79
  %83 = add nuw nsw i64 %72, 1
  %84 = load i64, i64* %1, align 8, !tbaa !8
  br label %70, !llvm.loop !20

85:                                               ; preds = %79
  %86 = load i64*, i64** %78, align 8, !tbaa !17
  %87 = getelementptr inbounds i64, i64* %86, i64 %80
  %88 = load i64, i64* %87, align 8, !tbaa !8
  %89 = icmp eq i64 %88, 0
  br i1 %89, label %90, label %94

90:                                               ; preds = %85
  %91 = add nuw nsw i64 %80, 1
  %92 = getelementptr inbounds i64, i64* %86, i64 %91
  %93 = load i64, i64* %92, align 8, !tbaa !8
  store i64 %93, i64* %87, align 8, !tbaa !8
  br label %94

94:                                               ; preds = %85, %90
  %95 = add nsw i64 %80, -1
  br label %79, !llvm.loop !21

96:                                               ; preds = %70, %109
  %97 = phi i64 [ %101, %109 ], [ %71, %70 ]
  %98 = phi i64 [ %110, %109 ], [ 0, %70 ]
  %99 = icmp eq i64 %98, 300
  br i1 %99, label %140, label %100

100:                                              ; preds = %96, %115
  %101 = phi i64 [ %112, %115 ], [ %97, %96 ]
  %102 = phi i64 [ %116, %115 ], [ 0, %96 ]
  %103 = load i64, i64* %2, align 8, !tbaa !8
  %104 = icmp slt i64 %102, %103
  br i1 %104, label %105, label %109

105:                                              ; preds = %100
  %106 = load %"class.std::vector.0"*, %"class.std::vector.0"** %24, align 8
  %107 = getelementptr inbounds %"class.std::vector.0", %"class.std::vector.0"* %106, i64 1, i32 0, i32 0, i32 0, i32 0
  %108 = getelementptr inbounds %"class.std::vector.0", %"class.std::vector.0"* %106, i64 0, i32 0, i32 0, i32 0, i32 0
  br label %111

109:                                              ; preds = %100
  %110 = add nuw nsw i64 %98, 1
  br label %96, !llvm.loop !22

111:                                              ; preds = %105, %137
  %112 = phi i64 [ %139, %137 ], [ %101, %105 ]
  %113 = phi i64 [ %138, %137 ], [ 0, %105 ]
  %114 = icmp slt i64 %113, %112
  br i1 %114, label %117, label %115

115:                                              ; preds = %111
  %116 = add nuw nsw i64 %102, 1
  br label %100, !llvm.loop !23

117:                                              ; preds = %111
  %118 = getelementptr inbounds %"class.std::vector.0", %"class.std::vector.0"* %106, i64 %113, i32 0, i32 0, i32 0, i32 0
  %119 = load i64*, i64** %118, align 8, !tbaa !17
  %120 = getelementptr inbounds i64, i64* %119, i64 %102
  %121 = load i64, i64* %120, align 8, !tbaa !8
  %122 = icmp eq i64 %121, 0
  br i1 %122, label %123, label %137

123:                                              ; preds = %117
  %124 = icmp eq i64 %113, 0
  br i1 %124, label %125, label %131

125:                                              ; preds = %123
  %126 = load i64*, i64** %107, align 8, !tbaa !17
  %127 = getelementptr inbounds i64, i64* %126, i64 %102
  %128 = load i64, i64* %127, align 8, !tbaa !8
  %129 = load i64*, i64** %108, align 8, !tbaa !17
  %130 = getelementptr inbounds i64, i64* %129, i64 %102
  store i64 %128, i64* %130, align 8, !tbaa !8
  br label %137

131:                                              ; preds = %123
  %132 = add nsw i64 %113, -1
  %133 = getelementptr inbounds %"class.std::vector.0", %"class.std::vector.0"* %106, i64 %132, i32 0, i32 0, i32 0, i32 0
  %134 = load i64*, i64** %133, align 8, !tbaa !17
  %135 = getelementptr inbounds i64, i64* %134, i64 %102
  %136 = load i64, i64* %135, align 8, !tbaa !8
  store i64 %136, i64* %120, align 8, !tbaa !8
  br label %137

137:                                              ; preds = %117, %131, %125
  %138 = add nuw nsw i64 %113, 1
  %139 = load i64, i64* %1, align 8, !tbaa !8
  br label %111, !llvm.loop !24

140:                                              ; preds = %96, %147
  %141 = phi i64 [ %148, %147 ], [ 0, %96 ]
  %142 = icmp eq i64 %141, 300
  br i1 %142, label %174, label %143

143:                                              ; preds = %140, %156
  %144 = phi i64 [ %157, %156 ], [ 0, %140 ]
  %145 = load i64, i64* %2, align 8, !tbaa !8
  %146 = icmp slt i64 %144, %145
  br i1 %146, label %149, label %147

147:                                              ; preds = %143
  %148 = add nuw nsw i64 %141, 1
  br label %140, !llvm.loop !25

149:                                              ; preds = %143
  %150 = load i64, i64* %1, align 8, !tbaa !8
  %151 = load %"class.std::vector.0"*, %"class.std::vector.0"** %24, align 8
  br label %152

152:                                              ; preds = %173, %149
  %153 = phi i64 [ %150, %149 ], [ %154, %173 ]
  %154 = add nsw i64 %153, -1
  %155 = icmp sgt i64 %153, 0
  br i1 %155, label %158, label %156

156:                                              ; preds = %152
  %157 = add nuw nsw i64 %144, 1
  br label %143, !llvm.loop !26

158:                                              ; preds = %152
  %159 = getelementptr inbounds %"class.std::vector.0", %"class.std::vector.0"* %151, i64 %154, i32 0, i32 0, i32 0, i32 0
  %160 = load i64*, i64** %159, align 8, !tbaa !17
  %161 = getelementptr inbounds i64, i64* %160, i64 %144
  %162 = load i64, i64* %161, align 8, !tbaa !8
  %163 = icmp eq i64 %162, 0
  br i1 %163, label %164, label %173

164:                                              ; preds = %158
  %165 = load i64, i64* %1, align 8, !tbaa !8
  %166 = icmp eq i64 %153, %165
  %167 = add nsw i64 %153, -2
  %168 = select i1 %166, i64 %167, i64 %153
  %169 = getelementptr inbounds %"class.std::vector.0", %"class.std::vector.0"* %151, i64 %168, i32 0, i32 0, i32 0, i32 0
  %170 = load i64*, i64** %169, align 8, !tbaa !17
  %171 = getelementptr inbounds i64, i64* %170, i64 %144
  %172 = load i64, i64* %171, align 8, !tbaa !8
  store i64 %172, i64* %161, align 8, !tbaa !8
  br label %173

173:                                              ; preds = %164, %158
  br label %152, !llvm.loop !27

174:                                              ; preds = %140, %183
  %175 = phi i64 [ %184, %183 ], [ 0, %140 ]
  %176 = load i64, i64* %1, align 8, !tbaa !8
  %177 = icmp slt i64 %175, %176
  br i1 %177, label %179, label %178

178:                                              ; preds = %174
  call void @_ZNSt6vectorIS_IxSaIxEESaIS1_EED2Ev(%"class.std::vector"* nonnull align 8 dereferenceable(24) %4) #19
  call void @llvm.lifetime.end.p0i8(i64 24, i8* nonnull %15) #18
  call void @llvm.lifetime.end.p0i8(i64 8, i8* nonnull %11) #18
  call void @llvm.lifetime.end.p0i8(i64 8, i8* nonnull %10) #18
  call void @llvm.lifetime.end.p0i8(i64 8, i8* nonnull %9) #18
  ret i32 0

179:                                              ; preds = %174, %202
  %180 = phi i64 [ %203, %202 ], [ 0, %174 ]
  %181 = load i64, i64* %2, align 8, !tbaa !8
  %182 = icmp slt i64 %180, %181
  br i1 %182, label %185, label %183

183:                                              ; preds = %179
  %184 = add nuw nsw i64 %175, 1
  br label %174, !llvm.loop !28

185:                                              ; preds = %179
  %186 = load %"class.std::vector.0"*, %"class.std::vector.0"** %24, align 8, !tbaa !14
  %187 = getelementptr inbounds %"class.std::vector.0", %"class.std::vector.0"* %186, i64 %175, i32 0, i32 0, i32 0, i32 0
  %188 = load i64*, i64** %187, align 8, !tbaa !17
  %189 = getelementptr inbounds i64, i64* %188, i64 %180
  %190 = load i64, i64* %189, align 8, !tbaa !8
  %191 = invoke nonnull align 8 dereferenceable(8) %"class.std::basic_ostream"* @_ZNSo9_M_insertIxEERSoT_(%"class.std::basic_ostream"* nonnull align 8 dereferenceable(8) @_ZSt4cout, i64 %190) #17
          to label %192 unwind label %198

192:                                              ; preds = %185
  %193 = load i64, i64* %2, align 8, !tbaa !8
  %194 = add nsw i64 %193, -1
  %195 = icmp eq i64 %180, %194
  br i1 %195, label %196, label %200

196:                                              ; preds = %192
  %197 = invoke nonnull align 8 dereferenceable(8) %"class.std::basic_ostream"* @_ZSt4endlIcSt11char_traitsIcEERSt13basic_ostreamIT_T0_ES6_(%"class.std::basic_ostream"* nonnull align 8 dereferenceable(8) @_ZSt4cout) #17
          to label %202 unwind label %198

198:                                              ; preds = %196, %185, %200
  %199 = landingpad { i8*, i32 }
          cleanup
  br label %204

200:                                              ; preds = %192
  %201 = invoke nonnull align 8 dereferenceable(8) %"class.std::basic_ostream"* @_ZStlsISt11char_traitsIcEERSt13basic_ostreamIcT_ES5_c(%"class.std::basic_ostream"* nonnull align 8 dereferenceable(8) @_ZSt4cout, i8 signext 32) #17
          to label %202 unwind label %198

202:                                              ; preds = %196, %200
  %203 = add nuw nsw i64 %180, 1
  br label %179, !llvm.loop !29

204:                                              ; preds = %198, %55
  %205 = phi { i8*, i32 } [ %56, %55 ], [ %199, %198 ]
  call void @_ZNSt6vectorIS_IxSaIxEESaIS1_EED2Ev(%"class.std::vector"* nonnull align 8 dereferenceable(24) %4) #19
  br label %206

206:                                              ; preds = %204, %35
  %207 = phi { i8*, i32 } [ %205, %204 ], [ %36, %35 ]
  call void @llvm.lifetime.end.p0i8(i64 24, i8* nonnull %15) #18
  call void @llvm.lifetime.end.p0i8(i64 8, i8* nonnull %11) #18
  call void @llvm.lifetime.end.p0i8(i64 8, i8* nonnull %10) #18
  call void @llvm.lifetime.end.p0i8(i64 8, i8* nonnull %9) #18
  resume { i8*, i32 } %207
}

; Function Attrs: minsize optsize sspstrong uwtable
define linkonce_odr dso_local void @_ZNSt6vectorIxSaIxEEC2EmRKS0_(%"class.std::vector.0"* nonnull align 8 dereferenceable(24) %0, i64 %1, %"class.std::allocator.2"* nonnull align 1 dereferenceable(1) %2) unnamed_addr #7 comdat align 2 personality i8* bitcast (i32 (...)* @__gxx_personality_v0 to i8*) {
  %4 = getelementptr inbounds %"class.std::vector.0", %"class.std::vector.0"* %0, i64 0, i32 0
  %5 = tail call i64 @_ZNSt6vectorIxSaIxEE17_S_check_init_lenEmRKS0_(i64 %1, %"class.std::allocator.2"* nonnull align 1 dereferenceable(1) %2) #17
  %6 = bitcast %"class.std::vector.0"* %0 to i8*
  tail call void @llvm.memset.p0i8.i64(i8* noundef nonnull align 8 dereferenceable(24) %6, i8 0, i64 24, i1 false) #18
  tail call void @_ZNSt12_Vector_baseIxSaIxEE17_M_create_storageEm(%"struct.std::_Vector_base.1"* nonnull align 8 dereferenceable(24) %4, i64 %5) #17
  invoke void @_ZNSt6vectorIxSaIxEE21_M_default_initializeEm(%"class.std::vector.0"* nonnull align 8 dereferenceable(24) %0, i64 %1) #17
          to label %7 unwind label %8

7:                                                ; preds = %3
  ret void

8:                                                ; preds = %3
  %9 = landingpad { i8*, i32 }
          cleanup
  tail call void @_ZNSt12_Vector_baseIxSaIxEED2Ev(%"struct.std::_Vector_base.1"* nonnull align 8 dereferenceable(24) %4) #19
  resume { i8*, i32 } %9
}

declare i32 @__gxx_personality_v0(...)

; Function Attrs: minsize optsize sspstrong uwtable
define linkonce_odr dso_local void @_ZNSt6vectorIS_IxSaIxEESaIS1_EEC2EmRKS1_RKS2_(%"class.std::vector"* nonnull align 8 dereferenceable(24) %0, i64 %1, %"class.std::vector.0"* nonnull align 8 dereferenceable(24) %2, %"class.std::allocator"* nonnull align 1 dereferenceable(1) %3) unnamed_addr #7 comdat align 2 personality i8* bitcast (i32 (...)* @__gxx_personality_v0 to i8*) {
  %5 = getelementptr inbounds %"class.std::vector", %"class.std::vector"* %0, i64 0, i32 0
  %6 = tail call i64 @_ZNSt6vectorIS_IxSaIxEESaIS1_EE17_S_check_init_lenEmRKS2_(i64 %1, %"class.std::allocator"* nonnull align 1 dereferenceable(1) %3) #17
  %7 = bitcast %"class.std::vector"* %0 to i8*
  tail call void @llvm.memset.p0i8.i64(i8* noundef nonnull align 8 dereferenceable(24) %7, i8 0, i64 24, i1 false) #18
  tail call void @_ZNSt12_Vector_baseISt6vectorIxSaIxEESaIS2_EE17_M_create_storageEm(%"struct.std::_Vector_base"* nonnull align 8 dereferenceable(24) %5, i64 %6) #17
  invoke void @_ZNSt6vectorIS_IxSaIxEESaIS1_EE18_M_fill_initializeEmRKS1_(%"class.std::vector"* nonnull align 8 dereferenceable(24) %0, i64 %1, %"class.std::vector.0"* nonnull align 8 dereferenceable(24) %2) #17
          to label %8 unwind label %9

8:                                                ; preds = %4
  ret void

9:                                                ; preds = %4
  %10 = landingpad { i8*, i32 }
          cleanup
  tail call void @_ZNSt12_Vector_baseISt6vectorIxSaIxEESaIS2_EED2Ev(%"struct.std::_Vector_base"* nonnull align 8 dereferenceable(24) %5) #19
  resume { i8*, i32 } %10
}

; Function Attrs: minsize optsize
declare nonnull align 8 dereferenceable(16) %"class.std::basic_istream"* @_ZStrsIcSt11char_traitsIcEERSt13basic_istreamIT_T0_ES6_RS3_(%"class.std::basic_istream"* nonnull align 8 dereferenceable(16), i8* nonnull align 1 dereferenceable(1)) local_unnamed_addr #0

; Function Attrs: inlinehint minsize mustprogress optsize sspstrong uwtable
declare nonnull align 8 dereferenceable(8) %"class.std::basic_ostream"* @_ZSt4endlIcSt11char_traitsIcEERSt13basic_ostreamIT_T0_ES6_(%"class.std::basic_ostream"* nonnull align 8 dereferenceable(8)) local_unnamed_addr #8

; Function Attrs: inlinehint minsize mustprogress optsize sspstrong uwtable
declare nonnull align 8 dereferenceable(8) %"class.std::basic_ostream"* @_ZStlsISt11char_traitsIcEERSt13basic_ostreamIcT_ES5_c(%"class.std::basic_ostream"* nonnull align 8 dereferenceable(8), i8 signext) local_unnamed_addr #8

; Function Attrs: minsize nounwind optsize sspstrong uwtable
define linkonce_odr dso_local void @_ZNSt6vectorIS_IxSaIxEESaIS1_EED2Ev(%"class.std::vector"* nonnull align 8 dereferenceable(24) %0) unnamed_addr #9 comdat align 2 personality i8* bitcast (i32 (...)* @__gxx_personality_v0 to i8*) {
  %2 = getelementptr inbounds %"class.std::vector", %"class.std::vector"* %0, i64 0, i32 0
  %3 = getelementptr inbounds %"class.std::vector", %"class.std::vector"* %0, i64 0, i32 0, i32 0, i32 0, i32 0
  %4 = load %"class.std::vector.0"*, %"class.std::vector.0"** %3, align 8, !tbaa !14
  %5 = getelementptr inbounds %"class.std::vector", %"class.std::vector"* %0, i64 0, i32 0, i32 0, i32 0, i32 1
  %6 = load %"class.std::vector.0"*, %"class.std::vector.0"** %5, align 8, !tbaa !30
  invoke void @_ZNSt12_Destroy_auxILb0EE9__destroyIPSt6vectorIxSaIxEEEEvT_S6_(%"class.std::vector.0"* %4, %"class.std::vector.0"* %6) #17
          to label %7 unwind label %8

7:                                                ; preds = %1
  tail call void @_ZNSt12_Vector_baseISt6vectorIxSaIxEESaIS2_EED2Ev(%"struct.std::_Vector_base"* nonnull align 8 dereferenceable(24) %2) #19
  ret void

8:                                                ; preds = %1
  %9 = landingpad { i8*, i32 }
          catch i8* null
  %10 = extractvalue { i8*, i32 } %9, 0
  tail call void @_ZNSt12_Vector_baseISt6vectorIxSaIxEESaIS2_EED2Ev(%"struct.std::_Vector_base"* nonnull align 8 dereferenceable(24) %2) #19
  tail call void @__clang_call_terminate(i8* %10) #20
  unreachable
}

; Function Attrs: minsize optsize
declare nonnull align 8 dereferenceable(16) %"class.std::basic_istream"* @_ZNSi10_M_extractIxEERSiRT_(%"class.std::basic_istream"* nonnull align 8 dereferenceable(16), i64* nonnull align 8 dereferenceable(8)) local_unnamed_addr #0

; Function Attrs: minsize optsize sspstrong uwtable
define linkonce_odr dso_local i64 @_ZNSt6vectorIxSaIxEE17_S_check_init_lenEmRKS0_(i64 %0, %"class.std::allocator.2"* nonnull align 1 dereferenceable(1) %1) local_unnamed_addr #7 comdat align 2 personality i32 (...)* @__gxx_personality_v0 {
  %3 = icmp ugt i64 %0, 1152921504606846975
  br i1 %3, label %4, label %5

4:                                                ; preds = %2
  tail call void @_ZSt20__throw_length_errorPKc(i8* getelementptr inbounds ([49 x i8], [49 x i8]* @.str, i64 0, i64 0)) #21
  unreachable

5:                                                ; preds = %2
  ret i64 %0
}

; Function Attrs: minsize mustprogress optsize sspstrong uwtable
define linkonce_odr dso_local void @_ZNSt6vectorIxSaIxEE21_M_default_initializeEm(%"class.std::vector.0"* nonnull align 8 dereferenceable(24) %0, i64 %1) local_unnamed_addr #10 comdat align 2 {
  %3 = getelementptr inbounds %"class.std::vector.0", %"class.std::vector.0"* %0, i64 0, i32 0, i32 0, i32 0, i32 0
  %4 = load i64*, i64** %3, align 8, !tbaa !17
  %5 = tail call i64* @_ZNSt27__uninitialized_default_n_1ILb1EE18__uninit_default_nIPxmEET_S3_T0_(i64* %4, i64 %1) #17
  %6 = getelementptr inbounds %"class.std::vector.0", %"class.std::vector.0"* %0, i64 0, i32 0, i32 0, i32 0, i32 1
  store i64* %5, i64** %6, align 8, !tbaa !31
  ret void
}

; Function Attrs: minsize nounwind optsize sspstrong uwtable
define linkonce_odr dso_local void @_ZNSt12_Vector_baseIxSaIxEED2Ev(%"struct.std::_Vector_base.1"* nonnull align 8 dereferenceable(24) %0) unnamed_addr #9 comdat align 2 personality i8* bitcast (i32 (...)* @__gxx_personality_v0 to i8*) {
  %2 = getelementptr inbounds %"struct.std::_Vector_base.1", %"struct.std::_Vector_base.1"* %0, i64 0, i32 0, i32 0, i32 0
  %3 = load i64*, i64** %2, align 8, !tbaa !17
  %4 = icmp eq i64* %3, null
  br i1 %4, label %7, label %5

5:                                                ; preds = %1
  %6 = bitcast i64* %3 to i8*
  tail call void @_ZdlPv(i8* nonnull %6) #19
  br label %7

7:                                                ; preds = %5, %1
  ret void
}

; Function Attrs: minsize noreturn optsize
declare void @_ZSt20__throw_length_errorPKc(i8*) local_unnamed_addr #11

; Function Attrs: noinline noreturn nounwind
define linkonce_odr hidden void @__clang_call_terminate(i8* %0) local_unnamed_addr #12 comdat {
  %2 = tail call i8* @__cxa_begin_catch(i8* %0) #18
  tail call void @_ZSt9terminatev() #20
  unreachable
}

declare i8* @__cxa_begin_catch(i8*) local_unnamed_addr

declare void @_ZSt9terminatev() local_unnamed_addr

; Function Attrs: minsize mustprogress optsize sspstrong uwtable
define linkonce_odr dso_local void @_ZNSt12_Vector_baseIxSaIxEE17_M_create_storageEm(%"struct.std::_Vector_base.1"* nonnull align 8 dereferenceable(24) %0, i64 %1) local_unnamed_addr #10 comdat align 2 {
  %3 = tail call i64* @_ZNSt12_Vector_baseIxSaIxEE11_M_allocateEm(%"struct.std::_Vector_base.1"* nonnull align 8 dereferenceable(24) %0, i64 %1) #17
  %4 = getelementptr inbounds %"struct.std::_Vector_base.1", %"struct.std::_Vector_base.1"* %0, i64 0, i32 0, i32 0, i32 0
  store i64* %3, i64** %4, align 8, !tbaa !17
  %5 = getelementptr inbounds %"struct.std::_Vector_base.1", %"struct.std::_Vector_base.1"* %0, i64 0, i32 0, i32 0, i32 1
  store i64* %3, i64** %5, align 8, !tbaa !31
  %6 = getelementptr inbounds i64, i64* %3, i64 %1
  %7 = getelementptr inbounds %"struct.std::_Vector_base.1", %"struct.std::_Vector_base.1"* %0, i64 0, i32 0, i32 0, i32 2
  store i64* %6, i64** %7, align 8, !tbaa !32
  ret void
}

; Function Attrs: minsize mustprogress optsize sspstrong uwtable
define linkonce_odr dso_local i64* @_ZNSt12_Vector_baseIxSaIxEE11_M_allocateEm(%"struct.std::_Vector_base.1"* nonnull align 8 dereferenceable(24) %0, i64 %1) local_unnamed_addr #10 comdat align 2 {
  %3 = icmp eq i64 %1, 0
  br i1 %3, label %7, label %4

4:                                                ; preds = %2
  %5 = bitcast %"struct.std::_Vector_base.1"* %0 to %"class.std::allocator.2"*
  %6 = tail call i64* @_ZNSt16allocator_traitsISaIxEE8allocateERS0_m(%"class.std::allocator.2"* nonnull align 1 dereferenceable(1) %5, i64 %1) #17
  br label %7

7:                                                ; preds = %2, %4
  %8 = phi i64* [ %6, %4 ], [ null, %2 ]
  ret i64* %8
}

; Function Attrs: minsize mustprogress optsize sspstrong uwtable
define linkonce_odr dso_local i64* @_ZNSt16allocator_traitsISaIxEE8allocateERS0_m(%"class.std::allocator.2"* nonnull align 1 dereferenceable(1) %0, i64 %1) local_unnamed_addr #10 comdat align 2 {
  %3 = bitcast %"class.std::allocator.2"* %0 to %"class.__gnu_cxx::new_allocator.3"*
  %4 = tail call i64* @_ZN9__gnu_cxx13new_allocatorIxE8allocateEmPKv(%"class.__gnu_cxx::new_allocator.3"* nonnull align 1 dereferenceable(1) %3, i64 %1, i8* null) #17
  ret i64* %4
}

; Function Attrs: minsize mustprogress optsize sspstrong uwtable
define linkonce_odr dso_local i64* @_ZN9__gnu_cxx13new_allocatorIxE8allocateEmPKv(%"class.__gnu_cxx::new_allocator.3"* nonnull align 1 dereferenceable(1) %0, i64 %1, i8* %2) local_unnamed_addr #10 comdat align 2 {
  %4 = icmp ugt i64 %1, 1152921504606846975
  br i1 %4, label %5, label %9, !prof !33

5:                                                ; preds = %3
  %6 = icmp ugt i64 %1, 2305843009213693951
  br i1 %6, label %7, label %8

7:                                                ; preds = %5
  tail call void @_ZSt28__throw_bad_array_new_lengthv() #21
  unreachable

8:                                                ; preds = %5
  tail call void @_ZSt17__throw_bad_allocv() #21
  unreachable

9:                                                ; preds = %3
  %10 = shl nuw nsw i64 %1, 3
  %11 = tail call noalias nonnull i8* @_Znwm(i64 %10) #22
  %12 = bitcast i8* %11 to i64*
  ret i64* %12
}

; Function Attrs: minsize noreturn optsize
declare void @_ZSt28__throw_bad_array_new_lengthv() local_unnamed_addr #11

; Function Attrs: minsize noreturn optsize
declare void @_ZSt17__throw_bad_allocv() local_unnamed_addr #11

; Function Attrs: minsize nobuiltin optsize allocsize(0)
declare nonnull i8* @_Znwm(i64) local_unnamed_addr #13

; Function Attrs: minsize mustprogress optsize sspstrong uwtable
define linkonce_odr dso_local i64* @_ZNSt27__uninitialized_default_n_1ILb1EE18__uninit_default_nIPxmEET_S3_T0_(i64* %0, i64 %1) local_unnamed_addr #10 comdat align 2 {
  %3 = icmp eq i64 %1, 0
  br i1 %3, label %8, label %4

4:                                                ; preds = %2
  store i64 0, i64* %0, align 8, !tbaa !8
  %5 = getelementptr inbounds i64, i64* %0, i64 1
  %6 = add i64 %1, -1
  %7 = tail call i64* @_ZSt10__fill_n_aIPxmxET_S1_T0_RKT1_St26random_access_iterator_tag(i64* nonnull %5, i64 %6, i64* nonnull align 8 dereferenceable(8) %0) #17
  br label %8

8:                                                ; preds = %4, %2
  %9 = phi i64* [ %7, %4 ], [ %0, %2 ]
  ret i64* %9
}

; Function Attrs: inlinehint minsize mustprogress optsize sspstrong uwtable
define linkonce_odr dso_local i64* @_ZSt10__fill_n_aIPxmxET_S1_T0_RKT1_St26random_access_iterator_tag(i64* %0, i64 %1, i64* nonnull align 8 dereferenceable(8) %2) local_unnamed_addr #8 comdat {
  %4 = icmp eq i64 %1, 0
  br i1 %4, label %13, label %5

5:                                                ; preds = %3
  %6 = getelementptr inbounds i64, i64* %0, i64 %1
  %7 = load i64, i64* %2, align 8, !tbaa !8
  br label %8

8:                                                ; preds = %11, %5
  %9 = phi i64* [ %0, %5 ], [ %12, %11 ]
  %10 = icmp eq i64* %9, %6
  br i1 %10, label %13, label %11

11:                                               ; preds = %8
  store i64 %7, i64* %9, align 8, !tbaa !8
  %12 = getelementptr inbounds i64, i64* %9, i64 1
  br label %8, !llvm.loop !34

13:                                               ; preds = %8, %3
  %14 = phi i64* [ %0, %3 ], [ %6, %8 ]
  ret i64* %14
}

; Function Attrs: minsize nobuiltin nounwind optsize
declare void @_ZdlPv(i8*) local_unnamed_addr #14

; Function Attrs: minsize optsize sspstrong uwtable
define linkonce_odr dso_local i64 @_ZNSt6vectorIS_IxSaIxEESaIS1_EE17_S_check_init_lenEmRKS2_(i64 %0, %"class.std::allocator"* nonnull align 1 dereferenceable(1) %1) local_unnamed_addr #7 comdat align 2 {
  %3 = icmp ugt i64 %0, 384307168202282325
  br i1 %3, label %4, label %5

4:                                                ; preds = %2
  tail call void @_ZSt20__throw_length_errorPKc(i8* getelementptr inbounds ([49 x i8], [49 x i8]* @.str, i64 0, i64 0)) #21
  unreachable

5:                                                ; preds = %2
  ret i64 %0
}

; Function Attrs: minsize mustprogress optsize sspstrong uwtable
define linkonce_odr dso_local void @_ZNSt6vectorIS_IxSaIxEESaIS1_EE18_M_fill_initializeEmRKS1_(%"class.std::vector"* nonnull align 8 dereferenceable(24) %0, i64 %1, %"class.std::vector.0"* nonnull align 8 dereferenceable(24) %2) local_unnamed_addr #10 comdat align 2 {
  %4 = getelementptr inbounds %"class.std::vector", %"class.std::vector"* %0, i64 0, i32 0, i32 0, i32 0, i32 0
  %5 = load %"class.std::vector.0"*, %"class.std::vector.0"** %4, align 8, !tbaa !14
  %6 = tail call %"class.std::vector.0"* @_ZNSt22__uninitialized_fill_nILb0EE15__uninit_fill_nIPSt6vectorIxSaIxEEmS4_EET_S6_T0_RKT1_(%"class.std::vector.0"* %5, i64 %1, %"class.std::vector.0"* nonnull align 8 dereferenceable(24) %2) #17
  %7 = getelementptr inbounds %"class.std::vector", %"class.std::vector"* %0, i64 0, i32 0, i32 0, i32 0, i32 1
  store %"class.std::vector.0"* %6, %"class.std::vector.0"** %7, align 8, !tbaa !30
  ret void
}

; Function Attrs: minsize nounwind optsize sspstrong uwtable
define linkonce_odr dso_local void @_ZNSt12_Vector_baseISt6vectorIxSaIxEESaIS2_EED2Ev(%"struct.std::_Vector_base"* nonnull align 8 dereferenceable(24) %0) unnamed_addr #9 comdat align 2 personality i8* bitcast (i32 (...)* @__gxx_personality_v0 to i8*) {
  %2 = getelementptr inbounds %"struct.std::_Vector_base", %"struct.std::_Vector_base"* %0, i64 0, i32 0, i32 0, i32 0
  %3 = load %"class.std::vector.0"*, %"class.std::vector.0"** %2, align 8, !tbaa !14
  %4 = icmp eq %"class.std::vector.0"* %3, null
  br i1 %4, label %7, label %5

5:                                                ; preds = %1
  %6 = bitcast %"class.std::vector.0"* %3 to i8*
  tail call void @_ZdlPv(i8* nonnull %6) #19
  br label %7

7:                                                ; preds = %5, %1
  ret void
}

; Function Attrs: minsize mustprogress optsize sspstrong uwtable
define linkonce_odr dso_local void @_ZNSt12_Vector_baseISt6vectorIxSaIxEESaIS2_EE17_M_create_storageEm(%"struct.std::_Vector_base"* nonnull align 8 dereferenceable(24) %0, i64 %1) local_unnamed_addr #10 comdat align 2 {
  %3 = tail call %"class.std::vector.0"* @_ZNSt12_Vector_baseISt6vectorIxSaIxEESaIS2_EE11_M_allocateEm(%"struct.std::_Vector_base"* nonnull align 8 dereferenceable(24) %0, i64 %1) #17
  %4 = getelementptr inbounds %"struct.std::_Vector_base", %"struct.std::_Vector_base"* %0, i64 0, i32 0, i32 0, i32 0
  store %"class.std::vector.0"* %3, %"class.std::vector.0"** %4, align 8, !tbaa !14
  %5 = getelementptr inbounds %"struct.std::_Vector_base", %"struct.std::_Vector_base"* %0, i64 0, i32 0, i32 0, i32 1
  store %"class.std::vector.0"* %3, %"class.std::vector.0"** %5, align 8, !tbaa !30
  %6 = getelementptr inbounds %"class.std::vector.0", %"class.std::vector.0"* %3, i64 %1
  %7 = getelementptr inbounds %"struct.std::_Vector_base", %"struct.std::_Vector_base"* %0, i64 0, i32 0, i32 0, i32 2
  store %"class.std::vector.0"* %6, %"class.std::vector.0"** %7, align 8, !tbaa !35
  ret void
}

; Function Attrs: minsize mustprogress optsize sspstrong uwtable
define linkonce_odr dso_local %"class.std::vector.0"* @_ZNSt12_Vector_baseISt6vectorIxSaIxEESaIS2_EE11_M_allocateEm(%"struct.std::_Vector_base"* nonnull align 8 dereferenceable(24) %0, i64 %1) local_unnamed_addr #10 comdat align 2 {
  %3 = icmp eq i64 %1, 0
  br i1 %3, label %7, label %4

4:                                                ; preds = %2
  %5 = bitcast %"struct.std::_Vector_base"* %0 to %"class.std::allocator"*
  %6 = tail call %"class.std::vector.0"* @_ZNSt16allocator_traitsISaISt6vectorIxSaIxEEEE8allocateERS3_m(%"class.std::allocator"* nonnull align 1 dereferenceable(1) %5, i64 %1) #17
  br label %7

7:                                                ; preds = %2, %4
  %8 = phi %"class.std::vector.0"* [ %6, %4 ], [ null, %2 ]
  ret %"class.std::vector.0"* %8
}

; Function Attrs: minsize mustprogress optsize sspstrong uwtable
define linkonce_odr dso_local %"class.std::vector.0"* @_ZNSt16allocator_traitsISaISt6vectorIxSaIxEEEE8allocateERS3_m(%"class.std::allocator"* nonnull align 1 dereferenceable(1) %0, i64 %1) local_unnamed_addr #10 comdat align 2 {
  %3 = bitcast %"class.std::allocator"* %0 to %"class.__gnu_cxx::new_allocator"*
  %4 = tail call %"class.std::vector.0"* @_ZN9__gnu_cxx13new_allocatorISt6vectorIxSaIxEEE8allocateEmPKv(%"class.__gnu_cxx::new_allocator"* nonnull align 1 dereferenceable(1) %3, i64 %1, i8* null) #17
  ret %"class.std::vector.0"* %4
}

; Function Attrs: minsize mustprogress optsize sspstrong uwtable
define linkonce_odr dso_local %"class.std::vector.0"* @_ZN9__gnu_cxx13new_allocatorISt6vectorIxSaIxEEE8allocateEmPKv(%"class.__gnu_cxx::new_allocator"* nonnull align 1 dereferenceable(1) %0, i64 %1, i8* %2) local_unnamed_addr #10 comdat align 2 {
  %4 = icmp ugt i64 %1, 384307168202282325
  br i1 %4, label %5, label %9, !prof !33

5:                                                ; preds = %3
  %6 = icmp ugt i64 %1, 768614336404564650
  br i1 %6, label %7, label %8

7:                                                ; preds = %5
  tail call void @_ZSt28__throw_bad_array_new_lengthv() #21
  unreachable

8:                                                ; preds = %5
  tail call void @_ZSt17__throw_bad_allocv() #21
  unreachable

9:                                                ; preds = %3
  %10 = mul nuw nsw i64 %1, 24
  %11 = tail call noalias nonnull i8* @_Znwm(i64 %10) #22
  %12 = bitcast i8* %11 to %"class.std::vector.0"*
  ret %"class.std::vector.0"* %12
}

; Function Attrs: minsize mustprogress optsize sspstrong uwtable
define linkonce_odr dso_local %"class.std::vector.0"* @_ZNSt22__uninitialized_fill_nILb0EE15__uninit_fill_nIPSt6vectorIxSaIxEEmS4_EET_S6_T0_RKT1_(%"class.std::vector.0"* %0, i64 %1, %"class.std::vector.0"* nonnull align 8 dereferenceable(24) %2) local_unnamed_addr #10 comdat align 2 personality i8* bitcast (i32 (...)* @__gxx_personality_v0 to i8*) {
  br label %4

4:                                                ; preds = %9, %3
  %5 = phi i64 [ %1, %3 ], [ %10, %9 ]
  %6 = phi %"class.std::vector.0"* [ %0, %3 ], [ %11, %9 ]
  %7 = icmp eq i64 %5, 0
  br i1 %7, label %17, label %8

8:                                                ; preds = %4
  invoke void @_ZNSt6vectorIxSaIxEEC2ERKS1_(%"class.std::vector.0"* nonnull align 8 dereferenceable(24) %6, %"class.std::vector.0"* nonnull align 8 dereferenceable(24) %2) #17
          to label %9 unwind label %12

9:                                                ; preds = %8
  %10 = add i64 %5, -1
  %11 = getelementptr inbounds %"class.std::vector.0", %"class.std::vector.0"* %6, i64 1
  br label %4, !llvm.loop !36

12:                                               ; preds = %8
  %13 = landingpad { i8*, i32 }
          catch i8* null
  %14 = extractvalue { i8*, i32 } %13, 0
  %15 = tail call i8* @__cxa_begin_catch(i8* %14) #18
  invoke void @_ZNSt12_Destroy_auxILb0EE9__destroyIPSt6vectorIxSaIxEEEEvT_S6_(%"class.std::vector.0"* %0, %"class.std::vector.0"* %6) #17
          to label %16 unwind label %18

16:                                               ; preds = %12
  invoke void @__cxa_rethrow() #23
          to label %24 unwind label %18

17:                                               ; preds = %4
  ret %"class.std::vector.0"* %6

18:                                               ; preds = %12, %16
  %19 = landingpad { i8*, i32 }
          cleanup
  invoke void @__cxa_end_catch()
          to label %20 unwind label %21

20:                                               ; preds = %18
  resume { i8*, i32 } %19

21:                                               ; preds = %18
  %22 = landingpad { i8*, i32 }
          catch i8* null
  %23 = extractvalue { i8*, i32 } %22, 0
  tail call void @__clang_call_terminate(i8* %23) #20
  unreachable

24:                                               ; preds = %16
  unreachable
}

declare void @__cxa_rethrow() local_unnamed_addr

declare void @__cxa_end_catch() local_unnamed_addr

; Function Attrs: minsize optsize sspstrong uwtable
define linkonce_odr dso_local void @_ZNSt6vectorIxSaIxEEC2ERKS1_(%"class.std::vector.0"* nonnull align 8 dereferenceable(24) %0, %"class.std::vector.0"* nonnull align 8 dereferenceable(24) %1) unnamed_addr #7 comdat align 2 personality i8* bitcast (i32 (...)* @__gxx_personality_v0 to i8*) {
  %3 = getelementptr inbounds %"class.std::vector.0", %"class.std::vector.0"* %0, i64 0, i32 0
  %4 = getelementptr inbounds %"class.std::vector.0", %"class.std::vector.0"* %1, i64 0, i32 0, i32 0, i32 0, i32 1
  %5 = load i64*, i64** %4, align 8, !tbaa !31
  %6 = getelementptr inbounds %"class.std::vector.0", %"class.std::vector.0"* %1, i64 0, i32 0, i32 0, i32 0, i32 0
  %7 = load i64*, i64** %6, align 8, !tbaa !17
  %8 = ptrtoint i64* %5 to i64
  %9 = ptrtoint i64* %7 to i64
  %10 = sub i64 %8, %9
  %11 = ashr exact i64 %10, 3
  %12 = bitcast %"class.std::vector.0"* %0 to i8*
  tail call void @llvm.memset.p0i8.i64(i8* noundef nonnull align 8 dereferenceable(24) %12, i8 0, i64 24, i1 false) #18
  tail call void @_ZNSt12_Vector_baseIxSaIxEE17_M_create_storageEm(%"struct.std::_Vector_base.1"* nonnull align 8 dereferenceable(24) %3, i64 %11) #17
  %13 = load i64*, i64** %6, align 8, !tbaa !37
  %14 = load i64*, i64** %4, align 8, !tbaa !37
  %15 = getelementptr inbounds %"class.std::vector.0", %"class.std::vector.0"* %0, i64 0, i32 0, i32 0, i32 0, i32 0
  %16 = load i64*, i64** %15, align 8, !tbaa !17
  %17 = ptrtoint i64* %14 to i64
  %18 = ptrtoint i64* %13 to i64
  %19 = sub i64 %17, %18
  %20 = icmp eq i64 %19, 0
  br i1 %20, label %24, label %21

21:                                               ; preds = %2
  %22 = bitcast i64* %16 to i8*
  %23 = bitcast i64* %13 to i8*
  tail call void @llvm.memmove.p0i8.p0i8.i64(i8* align 8 %22, i8* align 8 %23, i64 %19, i1 false) #18
  br label %24

24:                                               ; preds = %21, %2
  %25 = ashr exact i64 %19, 3
  %26 = getelementptr inbounds i64, i64* %16, i64 %25
  %27 = getelementptr inbounds %"class.std::vector.0", %"class.std::vector.0"* %0, i64 0, i32 0, i32 0, i32 0, i32 1
  store i64* %26, i64** %27, align 8, !tbaa !31
  ret void
}

; Function Attrs: argmemonly mustprogress nofree nounwind willreturn
declare void @llvm.memmove.p0i8.p0i8.i64(i8* nocapture writeonly, i8* nocapture readonly, i64, i1 immarg) #15

; Function Attrs: minsize optsize sspstrong uwtable
define linkonce_odr dso_local void @_ZNSt12_Destroy_auxILb0EE9__destroyIPSt6vectorIxSaIxEEEEvT_S6_(%"class.std::vector.0"* %0, %"class.std::vector.0"* %1) local_unnamed_addr #7 comdat align 2 personality i32 (...)* @__gxx_personality_v0 {
  br label %3

3:                                                ; preds = %6, %2
  %4 = phi %"class.std::vector.0"* [ %0, %2 ], [ %8, %6 ]
  %5 = icmp eq %"class.std::vector.0"* %4, %1
  br i1 %5, label %9, label %6

6:                                                ; preds = %3
  %7 = getelementptr inbounds %"class.std::vector.0", %"class.std::vector.0"* %4, i64 0, i32 0
  tail call void @_ZNSt12_Vector_baseIxSaIxEED2Ev(%"struct.std::_Vector_base.1"* nonnull align 8 dereferenceable(24) %7) #19
  %8 = getelementptr inbounds %"class.std::vector.0", %"class.std::vector.0"* %4, i64 1
  br label %3, !llvm.loop !38

9:                                                ; preds = %3
  ret void
}

; Function Attrs: minsize optsize
declare nonnull align 8 dereferenceable(8) %"class.std::basic_ostream"* @_ZNSo9_M_insertIxEERSoT_(%"class.std::basic_ostream"* nonnull align 8 dereferenceable(8), i64) local_unnamed_addr #0

; Function Attrs: minsize optsize sspstrong uwtable
define internal void @_GLOBAL__sub_I_s043015287.cpp() #7 section ".text.startup" {
  tail call void @_ZNSt8ios_base4InitC1Ev(%"class.std::ios_base::Init"* nonnull align 1 dereferenceable(1) @_ZStL8__ioinit) #17
  %1 = tail call i32 @__cxa_atexit(void (i8*)* bitcast (void (%"class.std::ios_base::Init"*)* @_ZNSt8ios_base4InitD1Ev to void (i8*)*), i8* getelementptr inbounds (%"class.std::ios_base::Init", %"class.std::ios_base::Init"* @_ZStL8__ioinit, i64 0, i32 0), i8* nonnull @__dso_handle) #18
  ret void
}

; Function Attrs: argmemonly nofree nounwind willreturn writeonly
declare void @llvm.memset.p0i8.i64(i8* nocapture writeonly, i8, i64, i1 immarg) #16

attributes #0 = { minsize optsize "frame-pointer"="none" "no-trapping-math"="true" "stack-protector-buffer-size"="8" "target-cpu"="x86-64" "target-features"="+cx8,+fxsr,+mmx,+sse,+sse2,+x87" "tune-cpu"="generic" }
attributes #1 = { minsize nounwind optsize "frame-pointer"="none" "no-trapping-math"="true" "stack-protector-buffer-size"="8" "target-cpu"="x86-64" "target-features"="+cx8,+fxsr,+mmx,+sse,+sse2,+x87" "tune-cpu"="generic" }
attributes #2 = { nofree nounwind }
attributes #3 = { minsize mustprogress nofree nosync nounwind optsize readnone sspstrong uwtable willreturn "frame-pointer"="none" "min-legal-vector-width"="0" "no-trapping-math"="true" "stack-protector-buffer-size"="8" "target-cpu"="x86-64" "target-features"="+cx8,+fxsr,+mmx,+sse,+sse2,+x87" "tune-cpu"="generic" }
attributes #4 = { minsize mustprogress nofree norecurse nosync nounwind optsize readnone sspstrong uwtable willreturn "frame-pointer"="none" "min-legal-vector-width"="0" "no-trapping-math"="true" "stack-protector-buffer-size"="8" "target-cpu"="x86-64" "target-features"="+cx8,+fxsr,+mmx,+sse,+sse2,+x87" "tune-cpu"="generic" }
attributes #5 = { argmemonly mustprogress nofree nosync nounwind willreturn }
attributes #6 = { minsize norecurse optsize sspstrong uwtable "frame-pointer"="none" "min-legal-vector-width"="0" "no-trapping-math"="true" "stack-protector-buffer-size"="8" "target-cpu"="x86-64" "target-features"="+cx8,+fxsr,+mmx,+sse,+sse2,+x87" "tune-cpu"="generic" }
attributes #7 = { minsize optsize sspstrong uwtable "frame-pointer"="none" "min-legal-vector-width"="0" "no-trapping-math"="true" "stack-protector-buffer-size"="8" "target-cpu"="x86-64" "target-features"="+cx8,+fxsr,+mmx,+sse,+sse2,+x87" "tune-cpu"="generic" }
attributes #8 = { inlinehint minsize mustprogress optsize sspstrong uwtable "frame-pointer"="none" "min-legal-vector-width"="0" "no-trapping-math"="true" "stack-protector-buffer-size"="8" "target-cpu"="x86-64" "target-features"="+cx8,+fxsr,+mmx,+sse,+sse2,+x87" "tune-cpu"="generic" }
attributes #9 = { minsize nounwind optsize sspstrong uwtable "frame-pointer"="none" "min-legal-vector-width"="0" "no-trapping-math"="true" "stack-protector-buffer-size"="8" "target-cpu"="x86-64" "target-features"="+cx8,+fxsr,+mmx,+sse,+sse2,+x87" "tune-cpu"="generic" }
attributes #10 = { minsize mustprogress optsize sspstrong uwtable "frame-pointer"="none" "min-legal-vector-width"="0" "no-trapping-math"="true" "stack-protector-buffer-size"="8" "target-cpu"="x86-64" "target-features"="+cx8,+fxsr,+mmx,+sse,+sse2,+x87" "tune-cpu"="generic" }
attributes #11 = { minsize noreturn optsize "frame-pointer"="none" "no-trapping-math"="true" "stack-protector-buffer-size"="8" "target-cpu"="x86-64" "target-features"="+cx8,+fxsr,+mmx,+sse,+sse2,+x87" "tune-cpu"="generic" }
attributes #12 = { noinline noreturn nounwind }
attributes #13 = { minsize nobuiltin optsize allocsize(0) "frame-pointer"="none" "no-trapping-math"="true" "stack-protector-buffer-size"="8" "target-cpu"="x86-64" "target-features"="+cx8,+fxsr,+mmx,+sse,+sse2,+x87" "tune-cpu"="generic" }
attributes #14 = { minsize nobuiltin nounwind optsize "frame-pointer"="none" "no-trapping-math"="true" "stack-protector-buffer-size"="8" "target-cpu"="x86-64" "target-features"="+cx8,+fxsr,+mmx,+sse,+sse2,+x87" "tune-cpu"="generic" }
attributes #15 = { argmemonly mustprogress nofree nounwind willreturn }
attributes #16 = { argmemonly nofree nounwind willreturn writeonly }
attributes #17 = { minsize optsize }
attributes #18 = { nounwind }
attributes #19 = { minsize nounwind optsize }
attributes #20 = { noreturn nounwind }
attributes #21 = { minsize noreturn optsize }
attributes #22 = { minsize optsize allocsize(0) }
attributes #23 = { noreturn }

!llvm.module.flags = !{!0, !1, !2, !3}
!llvm.ident = !{!4}

!0 = !{i32 1, !"wchar_size", i32 4}
!1 = !{i32 7, !"PIC Level", i32 2}
!2 = !{i32 7, !"PIE Level", i32 2}
!3 = !{i32 7, !"uwtable", i32 1}
!4 = !{!"clang version 13.0.0"}
!5 = distinct !{!5, !6}
!6 = !{!"llvm.loop.mustprogress"}
!7 = distinct !{!7, !6}
!8 = !{!9, !9, i64 0}
!9 = !{!"long long", !10, i64 0}
!10 = !{!"omnipotent char", !11, i64 0}
!11 = !{!"Simple C++ TBAA"}
!12 = distinct !{!12, !6}
!13 = !{!10, !10, i64 0}
!14 = !{!15, !16, i64 0}
!15 = !{!"_ZTSNSt12_Vector_baseISt6vectorIxSaIxEESaIS2_EE17_Vector_impl_dataE", !16, i64 0, !16, i64 8, !16, i64 16}
!16 = !{!"any pointer", !10, i64 0}
!17 = !{!18, !16, i64 0}
!18 = !{!"_ZTSNSt12_Vector_baseIxSaIxEE17_Vector_impl_dataE", !16, i64 0, !16, i64 8, !16, i64 16}
!19 = distinct !{!19, !6}
!20 = distinct !{!20, !6}
!21 = distinct !{!21, !6}
!22 = distinct !{!22, !6}
!23 = distinct !{!23, !6}
!24 = distinct !{!24, !6}
!25 = distinct !{!25, !6}
!26 = distinct !{!26, !6}
!27 = distinct !{!27, !6}
!28 = distinct !{!28, !6}
!29 = distinct !{!29, !6}
!30 = !{!15, !16, i64 8}
!31 = !{!18, !16, i64 8}
!32 = !{!18, !16, i64 16}
!33 = !{!"branch_weights", i32 1, i32 2000}
!34 = distinct !{!34, !6}
!35 = !{!15, !16, i64 16}
!36 = distinct !{!36, !6}
!37 = !{!16, !16, i64 0}
!38 = distinct !{!38, !6}
