; ModuleID = 'Project_CodeNet_C++1400/p03232/s847571290.cpp'
source_filename = "Project_CodeNet_C++1400/p03232/s847571290.cpp"
target datalayout = "e-m:e-p270:32:32-p271:32:32-p272:64:64-i64:64-f80:128-n8:16:32:64-S128"
target triple = "x86_64-pc-linux-gnu"

%"class.std::ios_base::Init" = type { i8 }
%"class.std::basic_ostream" = type { i32 (...)**, %"class.std::basic_ios" }
%"class.std::basic_ios" = type { %"class.std::ios_base", %"class.std::basic_ostream"*, i8, i8, %"class.std::basic_streambuf"*, %"class.std::ctype"*, %"class.std::num_put"*, %"class.std::num_get"* }
%"class.std::ios_base" = type { i32 (...)**, i64, i64, i32, i32, i32, %"struct.std::ios_base::_Callback_list"*, %"struct.std::ios_base::_Words", [8 x %"struct.std::ios_base::_Words"], i32, %"struct.std::ios_base::_Words"*, %"class.std::locale" }
%"struct.std::ios_base::_Callback_list" = type { %"struct.std::ios_base::_Callback_list"*, void (i32, %"class.std::ios_base"*, i32)*, i32, i32 }
%"struct.std::ios_base::_Words" = type { i8*, i64 }
%"class.std::locale" = type { %"class.std::locale::_Impl"* }
%"class.std::locale::_Impl" = type { i32, %"class.std::locale::facet"**, i64, %"class.std::locale::facet"**, i8** }
%"class.std::locale::facet" = type <{ i32 (...)**, i32, [4 x i8] }>
%"class.std::basic_streambuf" = type { i32 (...)**, i8*, i8*, i8*, i8*, i8*, i8*, %"class.std::locale" }
%"class.std::ctype" = type <{ %"class.std::locale::facet.base", [4 x i8], %struct.__locale_struct*, i8, [7 x i8], i32*, i32*, i16*, i8, [256 x i8], [256 x i8], i8, [6 x i8] }>
%"class.std::locale::facet.base" = type <{ i32 (...)**, i32 }>
%struct.__locale_struct = type { [13 x %struct.__locale_data*], i16*, i32*, i32*, [13 x i8*] }
%struct.__locale_data = type opaque
%"class.std::num_put" = type { %"class.std::locale::facet.base", [4 x i8] }
%"class.std::num_get" = type { %"class.std::locale::facet.base", [4 x i8] }
%"class.std::basic_istream" = type { i32 (...)**, i64, %"class.std::basic_ios" }

@_ZStL8__ioinit = internal global %"class.std::ios_base::Init" zeroinitializer, align 1
@__dso_handle = external hidden global i8
@_ZSt4cout = external global %"class.std::basic_ostream", align 8
@inv = dso_local local_unnamed_addr global [100005 x i32] zeroinitializer, align 16
@fac = dso_local local_unnamed_addr global [100005 x i32] zeroinitializer, align 16
@finv = dso_local local_unnamed_addr global [100005 x i32] zeroinitializer, align 16
@a = dso_local global [100005 x i32] zeroinitializer, align 16
@val = dso_local local_unnamed_addr global [100005 x i32] zeroinitializer, align 16
@_ZSt3cin = external global %"class.std::basic_istream", align 8
@.str = private unnamed_addr constant [2 x i8] c"\0A\00", align 1
@llvm.global_ctors = appending global [1 x { i32, void ()*, i8* }] [{ i32, void ()*, i8* } { i32 65535, void ()* @_GLOBAL__sub_I_s847571290.cpp, i8* null }]

; Function Attrs: minsize optsize
declare void @_ZNSt8ios_base4InitC1Ev(%"class.std::ios_base::Init"* nonnull align 1 dereferenceable(1)) unnamed_addr #0

; Function Attrs: minsize nounwind optsize
declare void @_ZNSt8ios_base4InitD1Ev(%"class.std::ios_base::Init"* nonnull align 1 dereferenceable(1)) unnamed_addr #1

; Function Attrs: nofree nounwind
declare i32 @__cxa_atexit(void (i8*)*, i8*, i8*) local_unnamed_addr #2

; Function Attrs: minsize mustprogress optsize sspstrong uwtable
define dso_local void @_Z5ashowv() local_unnamed_addr #3 {
  %1 = tail call nonnull align 8 dereferenceable(8) %"class.std::basic_ostream"* @_ZSt4endlIcSt11char_traitsIcEERSt13basic_ostreamIT_T0_ES6_(%"class.std::basic_ostream"* nonnull align 8 dereferenceable(8) @_ZSt4cout) #11
  ret void
}

; Function Attrs: inlinehint minsize mustprogress optsize sspstrong uwtable
declare nonnull align 8 dereferenceable(8) %"class.std::basic_ostream"* @_ZSt4endlIcSt11char_traitsIcEERSt13basic_ostreamIT_T0_ES6_(%"class.std::basic_ostream"* nonnull align 8 dereferenceable(8)) local_unnamed_addr #4

; Function Attrs: minsize mustprogress nofree norecurse nosync nounwind optsize sspstrong uwtable
define dso_local void @_Z4makev() local_unnamed_addr #5 {
  store i32 1, i32* getelementptr inbounds ([100005 x i32], [100005 x i32]* @fac, i64 0, i64 1), align 4, !tbaa !5
  store i32 1, i32* getelementptr inbounds ([100005 x i32], [100005 x i32]* @fac, i64 0, i64 0), align 16, !tbaa !5
  store i32 1, i32* getelementptr inbounds ([100005 x i32], [100005 x i32]* @finv, i64 0, i64 1), align 4, !tbaa !5
  store i32 1, i32* getelementptr inbounds ([100005 x i32], [100005 x i32]* @finv, i64 0, i64 0), align 16, !tbaa !5
  store i32 1, i32* getelementptr inbounds ([100005 x i32], [100005 x i32]* @inv, i64 0, i64 1), align 4, !tbaa !5
  br label %1

1:                                                ; preds = %7, %0
  %2 = phi i64 [ %27, %7 ], [ 1, %0 ]
  %3 = phi i64 [ %22, %7 ], [ 1, %0 ]
  %4 = phi i64 [ %30, %7 ], [ 2, %0 ]
  %5 = icmp eq i64 %4, 100005
  br i1 %5, label %6, label %7

6:                                                ; preds = %1
  ret void

7:                                                ; preds = %1
  %8 = trunc i64 %4 to i32
  %9 = urem i32 1000000007, %8
  %10 = zext i32 %9 to i64
  %11 = getelementptr inbounds [100005 x i32], [100005 x i32]* @inv, i64 0, i64 %10
  %12 = load i32, i32* %11, align 4, !tbaa !5
  %13 = sext i32 %12 to i64
  %14 = udiv i32 1000000007, %8
  %15 = zext i32 %14 to i64
  %16 = mul nsw i64 %15, %13
  %17 = srem i64 %16, 1000000007
  %18 = trunc i64 %17 to i32
  %19 = sub nsw i32 1000000007, %18
  %20 = getelementptr inbounds [100005 x i32], [100005 x i32]* @inv, i64 0, i64 %4
  store i32 %19, i32* %20, align 4, !tbaa !5
  %21 = mul nsw i64 %3, %4
  %22 = srem i64 %21, 1000000007
  %23 = trunc i64 %22 to i32
  %24 = getelementptr inbounds [100005 x i32], [100005 x i32]* @fac, i64 0, i64 %4
  store i32 %23, i32* %24, align 4, !tbaa !5
  %25 = zext i32 %19 to i64
  %26 = mul nuw nsw i64 %2, %25
  %27 = urem i64 %26, 1000000007
  %28 = trunc i64 %27 to i32
  %29 = getelementptr inbounds [100005 x i32], [100005 x i32]* @finv, i64 0, i64 %4
  store i32 %28, i32* %29, align 4, !tbaa !5
  %30 = add nuw nsw i64 %4, 1
  br label %1, !llvm.loop !9
}

; Function Attrs: argmemonly mustprogress nofree nosync nounwind willreturn
declare void @llvm.lifetime.start.p0i8(i64 immarg, i8* nocapture) #6

; Function Attrs: argmemonly mustprogress nofree nosync nounwind willreturn
declare void @llvm.lifetime.end.p0i8(i64 immarg, i8* nocapture) #6

; Function Attrs: minsize mustprogress nofree norecurse nosync nounwind optsize readonly sspstrong uwtable willreturn
define dso_local i32 @_Z4combii(i32 %0, i32 %1) local_unnamed_addr #7 {
  %3 = icmp slt i32 %0, %1
  br i1 %3, label %23, label %4

4:                                                ; preds = %2
  %5 = sext i32 %0 to i64
  %6 = getelementptr inbounds [100005 x i32], [100005 x i32]* @fac, i64 0, i64 %5
  %7 = load i32, i32* %6, align 4, !tbaa !5
  %8 = sext i32 %7 to i64
  %9 = sext i32 %1 to i64
  %10 = getelementptr inbounds [100005 x i32], [100005 x i32]* @finv, i64 0, i64 %9
  %11 = load i32, i32* %10, align 4, !tbaa !5
  %12 = sext i32 %11 to i64
  %13 = sub nsw i32 %0, %1
  %14 = sext i32 %13 to i64
  %15 = getelementptr inbounds [100005 x i32], [100005 x i32]* @finv, i64 0, i64 %14
  %16 = load i32, i32* %15, align 4, !tbaa !5
  %17 = sext i32 %16 to i64
  %18 = mul nsw i64 %17, %12
  %19 = srem i64 %18, 1000000007
  %20 = mul nsw i64 %19, %8
  %21 = srem i64 %20, 1000000007
  %22 = trunc i64 %21 to i32
  br label %23

23:                                               ; preds = %2, %4
  %24 = phi i32 [ %22, %4 ], [ 0, %2 ]
  ret i32 %24
}

; Function Attrs: minsize mustprogress norecurse optsize sspstrong uwtable
define dso_local i32 @main() local_unnamed_addr #8 {
  %1 = alloca i32, align 4
  %2 = load i8*, i8** bitcast (%"class.std::basic_istream"* @_ZSt3cin to i8**), align 8, !tbaa !11
  %3 = getelementptr i8, i8* %2, i64 -24
  %4 = bitcast i8* %3 to i64*
  %5 = load i64, i64* %4, align 8
  %6 = add nsw i64 %5, 216
  %7 = getelementptr inbounds i8, i8* bitcast (%"class.std::basic_istream"* @_ZSt3cin to i8*), i64 %6
  %8 = bitcast i8* %7 to %"class.std::basic_ostream"**
  store %"class.std::basic_ostream"* null, %"class.std::basic_ostream"** %8, align 8, !tbaa !13
  %9 = tail call zeroext i1 @_ZNSt8ios_base15sync_with_stdioEb(i1 zeroext false) #11
  %10 = bitcast i32* %1 to i8*
  call void @llvm.lifetime.start.p0i8(i64 4, i8* nonnull %10) #12
  %11 = call nonnull align 8 dereferenceable(16) %"class.std::basic_istream"* @_ZNSirsERi(%"class.std::basic_istream"* nonnull align 8 dereferenceable(16) @_ZSt3cin, i32* nonnull align 4 dereferenceable(4) %1) #11
  br label %12

12:                                               ; preds = %21, %0
  %13 = phi i64 [ %24, %21 ], [ 0, %0 ]
  %14 = load i32, i32* %1, align 4, !tbaa !5
  %15 = sext i32 %14 to i64
  %16 = icmp slt i64 %13, %15
  br i1 %16, label %21, label %17

17:                                               ; preds = %12
  call void @_Z4makev() #11
  %18 = load i32, i32* %1, align 4, !tbaa !5
  %19 = call i32 @llvm.smax.i32(i32 %18, i32 0)
  %20 = zext i32 %19 to i64
  br label %25

21:                                               ; preds = %12
  %22 = getelementptr inbounds [100005 x i32], [100005 x i32]* @a, i64 0, i64 %13
  %23 = call nonnull align 8 dereferenceable(16) %"class.std::basic_istream"* @_ZNSirsERi(%"class.std::basic_istream"* nonnull align 8 dereferenceable(16) @_ZSt3cin, i32* nonnull align 4 dereferenceable(4) %22) #11
  %24 = add nuw nsw i64 %13, 1
  br label %12, !llvm.loop !17

25:                                               ; preds = %28, %17
  %26 = phi i64 [ %31, %28 ], [ 0, %17 ]
  %27 = icmp eq i64 %26, %20
  br i1 %27, label %37, label %28

28:                                               ; preds = %25
  %29 = getelementptr inbounds [100005 x i32], [100005 x i32]* @val, i64 0, i64 %26
  %30 = load i32, i32* %29, align 4, !tbaa !5
  %31 = add nuw nsw i64 %26, 1
  %32 = getelementptr inbounds [100005 x i32], [100005 x i32]* @inv, i64 0, i64 %31
  %33 = load i32, i32* %32, align 4, !tbaa !5
  %34 = add nsw i32 %33, %30
  %35 = srem i32 %34, 1000000007
  %36 = getelementptr inbounds [100005 x i32], [100005 x i32]* @val, i64 0, i64 %31
  store i32 %35, i32* %36, align 4, !tbaa !5
  br label %25, !llvm.loop !18

37:                                               ; preds = %25, %52
  %38 = phi i64 [ %60, %52 ], [ 0, %25 ]
  %39 = phi i32 [ %73, %52 ], [ 0, %25 ]
  %40 = icmp eq i64 %38, %20
  br i1 %40, label %41, label %52

41:                                               ; preds = %37
  %42 = sext i32 %18 to i64
  %43 = getelementptr inbounds [100005 x i32], [100005 x i32]* @fac, i64 0, i64 %42
  %44 = load i32, i32* %43, align 4, !tbaa !5
  %45 = sext i32 %39 to i64
  %46 = sext i32 %44 to i64
  %47 = mul nsw i64 %46, %45
  %48 = srem i64 %47, 1000000007
  %49 = trunc i64 %48 to i32
  %50 = call nonnull align 8 dereferenceable(8) %"class.std::basic_ostream"* @_ZNSolsEi(%"class.std::basic_ostream"* nonnull align 8 dereferenceable(8) @_ZSt4cout, i32 %49) #11
  %51 = call nonnull align 8 dereferenceable(8) %"class.std::basic_ostream"* @_ZStlsISt11char_traitsIcEERSt13basic_ostreamIcT_ES5_PKc(%"class.std::basic_ostream"* nonnull align 8 dereferenceable(8) %50, i8* getelementptr inbounds ([2 x i8], [2 x i8]* @.str, i64 0, i64 0)) #11
  call void @llvm.lifetime.end.p0i8(i64 4, i8* nonnull %10) #12
  ret i32 0

52:                                               ; preds = %37
  %53 = getelementptr inbounds [100005 x i32], [100005 x i32]* @a, i64 0, i64 %38
  %54 = load i32, i32* %53, align 4, !tbaa !5
  %55 = trunc i64 %38 to i32
  %56 = sub nsw i32 %18, %55
  %57 = sext i32 %56 to i64
  %58 = getelementptr inbounds [100005 x i32], [100005 x i32]* @val, i64 0, i64 %57
  %59 = load i32, i32* %58, align 4, !tbaa !5
  %60 = add nuw nsw i64 %38, 1
  %61 = getelementptr inbounds [100005 x i32], [100005 x i32]* @val, i64 0, i64 %60
  %62 = load i32, i32* %61, align 4, !tbaa !5
  %63 = add nsw i32 %62, %59
  %64 = srem i32 %63, 1000000007
  %65 = add nsw i32 %64, 1000000006
  %66 = urem i32 %65, 1000000007
  %67 = sext i32 %54 to i64
  %68 = zext i32 %66 to i64
  %69 = mul nsw i64 %68, %67
  %70 = srem i64 %69, 1000000007
  %71 = trunc i64 %70 to i32
  %72 = add nsw i32 %39, %71
  %73 = srem i32 %72, 1000000007
  br label %37, !llvm.loop !19
}

; Function Attrs: minsize optsize
declare zeroext i1 @_ZNSt8ios_base15sync_with_stdioEb(i1 zeroext) local_unnamed_addr #0

; Function Attrs: minsize optsize
declare nonnull align 8 dereferenceable(16) %"class.std::basic_istream"* @_ZNSirsERi(%"class.std::basic_istream"* nonnull align 8 dereferenceable(16), i32* nonnull align 4 dereferenceable(4)) local_unnamed_addr #0

; Function Attrs: inlinehint minsize mustprogress optsize sspstrong uwtable
declare nonnull align 8 dereferenceable(8) %"class.std::basic_ostream"* @_ZStlsISt11char_traitsIcEERSt13basic_ostreamIcT_ES5_PKc(%"class.std::basic_ostream"* nonnull align 8 dereferenceable(8), i8*) local_unnamed_addr #4

; Function Attrs: minsize optsize
declare nonnull align 8 dereferenceable(8) %"class.std::basic_ostream"* @_ZNSolsEi(%"class.std::basic_ostream"* nonnull align 8 dereferenceable(8), i32) local_unnamed_addr #0

; Function Attrs: minsize optsize sspstrong uwtable
define internal void @_GLOBAL__sub_I_s847571290.cpp() #9 section ".text.startup" {
  tail call void @_ZNSt8ios_base4InitC1Ev(%"class.std::ios_base::Init"* nonnull align 1 dereferenceable(1) @_ZStL8__ioinit) #11
  %1 = tail call i32 @__cxa_atexit(void (i8*)* bitcast (void (%"class.std::ios_base::Init"*)* @_ZNSt8ios_base4InitD1Ev to void (i8*)*), i8* getelementptr inbounds (%"class.std::ios_base::Init", %"class.std::ios_base::Init"* @_ZStL8__ioinit, i64 0, i32 0), i8* nonnull @__dso_handle) #12
  ret void
}

; Function Attrs: nofree nosync nounwind readnone speculatable willreturn
declare i32 @llvm.smax.i32(i32, i32) #10

attributes #0 = { minsize optsize "frame-pointer"="none" "no-trapping-math"="true" "stack-protector-buffer-size"="8" "target-cpu"="x86-64" "target-features"="+cx8,+fxsr,+mmx,+sse,+sse2,+x87" "tune-cpu"="generic" }
attributes #1 = { minsize nounwind optsize "frame-pointer"="none" "no-trapping-math"="true" "stack-protector-buffer-size"="8" "target-cpu"="x86-64" "target-features"="+cx8,+fxsr,+mmx,+sse,+sse2,+x87" "tune-cpu"="generic" }
attributes #2 = { nofree nounwind }
attributes #3 = { minsize mustprogress optsize sspstrong uwtable "frame-pointer"="none" "min-legal-vector-width"="0" "no-trapping-math"="true" "stack-protector-buffer-size"="8" "target-cpu"="x86-64" "target-features"="+cx8,+fxsr,+mmx,+sse,+sse2,+x87" "tune-cpu"="generic" }
attributes #4 = { inlinehint minsize mustprogress optsize sspstrong uwtable "frame-pointer"="none" "min-legal-vector-width"="0" "no-trapping-math"="true" "stack-protector-buffer-size"="8" "target-cpu"="x86-64" "target-features"="+cx8,+fxsr,+mmx,+sse,+sse2,+x87" "tune-cpu"="generic" }
attributes #5 = { minsize mustprogress nofree norecurse nosync nounwind optsize sspstrong uwtable "frame-pointer"="none" "min-legal-vector-width"="0" "no-trapping-math"="true" "stack-protector-buffer-size"="8" "target-cpu"="x86-64" "target-features"="+cx8,+fxsr,+mmx,+sse,+sse2,+x87" "tune-cpu"="generic" }
attributes #6 = { argmemonly mustprogress nofree nosync nounwind willreturn }
attributes #7 = { minsize mustprogress nofree norecurse nosync nounwind optsize readonly sspstrong uwtable willreturn "frame-pointer"="none" "min-legal-vector-width"="0" "no-trapping-math"="true" "stack-protector-buffer-size"="8" "target-cpu"="x86-64" "target-features"="+cx8,+fxsr,+mmx,+sse,+sse2,+x87" "tune-cpu"="generic" }
attributes #8 = { minsize mustprogress norecurse optsize sspstrong uwtable "frame-pointer"="none" "min-legal-vector-width"="0" "no-trapping-math"="true" "stack-protector-buffer-size"="8" "target-cpu"="x86-64" "target-features"="+cx8,+fxsr,+mmx,+sse,+sse2,+x87" "tune-cpu"="generic" }
attributes #9 = { minsize optsize sspstrong uwtable "frame-pointer"="none" "min-legal-vector-width"="0" "no-trapping-math"="true" "stack-protector-buffer-size"="8" "target-cpu"="x86-64" "target-features"="+cx8,+fxsr,+mmx,+sse,+sse2,+x87" "tune-cpu"="generic" }
attributes #10 = { nofree nosync nounwind readnone speculatable willreturn }
attributes #11 = { minsize optsize }
attributes #12 = { nounwind }

!llvm.module.flags = !{!0, !1, !2, !3}
!llvm.ident = !{!4}

!0 = !{i32 1, !"wchar_size", i32 4}
!1 = !{i32 7, !"PIC Level", i32 2}
!2 = !{i32 7, !"PIE Level", i32 2}
!3 = !{i32 7, !"uwtable", i32 1}
!4 = !{!"clang version 13.0.0"}
!5 = !{!6, !6, i64 0}
!6 = !{!"int", !7, i64 0}
!7 = !{!"omnipotent char", !8, i64 0}
!8 = !{!"Simple C++ TBAA"}
!9 = distinct !{!9, !10}
!10 = !{!"llvm.loop.mustprogress"}
!11 = !{!12, !12, i64 0}
!12 = !{!"vtable pointer", !8, i64 0}
!13 = !{!14, !15, i64 216}
!14 = !{!"_ZTSSt9basic_iosIcSt11char_traitsIcEE", !15, i64 216, !7, i64 224, !16, i64 225, !15, i64 232, !15, i64 240, !15, i64 248, !15, i64 256}
!15 = !{!"any pointer", !7, i64 0}
!16 = !{!"bool", !7, i64 0}
!17 = distinct !{!17, !10}
!18 = distinct !{!18, !10}
!19 = distinct !{!19, !10}
