; ModuleID = 'Project_CodeNet_C++1400/p03608/s861613019.cpp'
source_filename = "Project_CodeNet_C++1400/p03608/s861613019.cpp"
target datalayout = "e-m:e-i64:64-f80:128-n8:16:32:64-S128"
target triple = "x86_64-unknown-linux-gnu"

%"class.std::ios_base::Init" = type { i8 }
%"class.std::basic_istream" = type { i32 (...)**, i64, %"class.std::basic_ios" }
%"class.std::basic_ios" = type { %"class.std::ios_base", %"class.std::basic_ostream"*, i8, i8, %"class.std::basic_streambuf"*, %"class.std::ctype"*, %"class.std::num_put"*, %"class.std::num_get"* }
%"class.std::ios_base" = type { i32 (...)**, i64, i64, i32, i32, i32, %"struct.std::ios_base::_Callback_list"*, %"struct.std::ios_base::_Words", [8 x %"struct.std::ios_base::_Words"], i32, %"struct.std::ios_base::_Words"*, %"class.std::locale" }
%"struct.std::ios_base::_Callback_list" = type { %"struct.std::ios_base::_Callback_list"*, void (i32, %"class.std::ios_base"*, i32)*, i32, i32 }
%"struct.std::ios_base::_Words" = type { i8*, i64 }
%"class.std::locale" = type { %"class.std::locale::_Impl"* }
%"class.std::locale::_Impl" = type { i32, %"class.std::locale::facet"**, i64, %"class.std::locale::facet"**, i8** }
%"class.std::locale::facet" = type <{ i32 (...)**, i32, [4 x i8] }>
%"class.std::basic_ostream" = type { i32 (...)**, %"class.std::basic_ios" }
%"class.std::basic_streambuf" = type { i32 (...)**, i8*, i8*, i8*, i8*, i8*, i8*, %"class.std::locale" }
%"class.std::ctype" = type <{ %"class.std::locale::facet.base", [4 x i8], %struct.__locale_struct*, i8, [7 x i8], i32*, i32*, i16*, i8, [256 x i8], [256 x i8], i8, [6 x i8] }>
%"class.std::locale::facet.base" = type <{ i32 (...)**, i32 }>
%struct.__locale_struct = type { [13 x %struct.__locale_data*], i16*, i32*, i32*, [13 x i8*] }
%struct.__locale_data = type opaque
%"class.std::num_put" = type { %"class.std::locale::facet.base", [4 x i8] }
%"class.std::num_get" = type { %"class.std::locale::facet.base", [4 x i8] }
%"class.std::__debug::vector" = type { %"class.__gnu_debug::_Safe_container.base", %"class.std::__cxx1998::vector", %"class.__gnu_debug::_Safe_vector" }
%"class.__gnu_debug::_Safe_container.base" = type { %"class.__gnu_debug::_Safe_sequence.base" }
%"class.__gnu_debug::_Safe_sequence.base" = type { %"class.__gnu_debug::_Safe_sequence_base.base" }
%"class.__gnu_debug::_Safe_sequence_base.base" = type <{ %"class.__gnu_debug::_Safe_iterator_base"*, %"class.__gnu_debug::_Safe_iterator_base"*, i32 }>
%"class.__gnu_debug::_Safe_iterator_base" = type { %"class.__gnu_debug::_Safe_sequence_base"*, i32, %"class.__gnu_debug::_Safe_iterator_base"*, %"class.__gnu_debug::_Safe_iterator_base"* }
%"class.__gnu_debug::_Safe_sequence_base" = type <{ %"class.__gnu_debug::_Safe_iterator_base"*, %"class.__gnu_debug::_Safe_iterator_base"*, i32, [4 x i8] }>
%"class.std::__cxx1998::vector" = type { %"struct.std::__cxx1998::_Vector_base" }
%"struct.std::__cxx1998::_Vector_base" = type { %"struct.std::__cxx1998::_Vector_base<int, std::allocator<int> >::_Vector_impl" }
%"struct.std::__cxx1998::_Vector_base<int, std::allocator<int> >::_Vector_impl" = type { i32*, i32*, i32* }
%"class.__gnu_debug::_Safe_vector" = type { i64 }
%"class.std::allocator" = type { i8 }
%"class.__gnu_debug::_Safe_iterator" = type { %"class.__gnu_cxx::__normal_iterator", %"class.__gnu_debug::_Safe_iterator_base" }
%"class.__gnu_cxx::__normal_iterator" = type { i32* }
%"class.std::__debug::vector.0" = type { %"class.__gnu_debug::_Safe_container.base.4", %"class.std::__cxx1998::vector.5", %"class.__gnu_debug::_Safe_vector.21" }
%"class.__gnu_debug::_Safe_container.base.4" = type { %"class.__gnu_debug::_Safe_sequence.base.3" }
%"class.__gnu_debug::_Safe_sequence.base.3" = type { %"class.__gnu_debug::_Safe_sequence_base.base" }
%"class.std::__cxx1998::vector.5" = type { %"struct.std::__cxx1998::_Vector_base.6" }
%"struct.std::__cxx1998::_Vector_base.6" = type { %"struct.std::__cxx1998::_Vector_base<std::__debug::vector<std::pair<int, int>, std::allocator<std::pair<int, int> > >, std::allocator<std::__debug::vector<std::pair<int, int>, std::allocator<std::pair<int, int> > > > >::_Vector_impl" }
%"struct.std::__cxx1998::_Vector_base<std::__debug::vector<std::pair<int, int>, std::allocator<std::pair<int, int> > >, std::allocator<std::__debug::vector<std::pair<int, int>, std::allocator<std::pair<int, int> > > > >::_Vector_impl" = type { %"class.std::__debug::vector.10"*, %"class.std::__debug::vector.10"*, %"class.std::__debug::vector.10"* }
%"class.std::__debug::vector.10" = type { %"class.__gnu_debug::_Safe_container.base.14", %"class.std::__cxx1998::vector.15", %"class.__gnu_debug::_Safe_vector.20" }
%"class.__gnu_debug::_Safe_container.base.14" = type { %"class.__gnu_debug::_Safe_sequence.base.13" }
%"class.__gnu_debug::_Safe_sequence.base.13" = type { %"class.__gnu_debug::_Safe_sequence_base.base" }
%"class.std::__cxx1998::vector.15" = type { %"struct.std::__cxx1998::_Vector_base.16" }
%"struct.std::__cxx1998::_Vector_base.16" = type { %"struct.std::__cxx1998::_Vector_base<std::pair<int, int>, std::allocator<std::pair<int, int> > >::_Vector_impl" }
%"struct.std::__cxx1998::_Vector_base<std::pair<int, int>, std::allocator<std::pair<int, int> > >::_Vector_impl" = type { %"struct.std::pair"*, %"struct.std::pair"*, %"struct.std::pair"* }
%"struct.std::pair" = type { i32, i32 }
%"class.__gnu_debug::_Safe_vector.20" = type { i64 }
%"class.__gnu_debug::_Safe_vector.21" = type { i64 }
%"class.std::allocator.7" = type { i8 }
%"class.std::__debug::vector.22" = type { %"class.__gnu_debug::_Safe_container.base.26", %"class.std::__cxx1998::vector.27", %"class.__gnu_debug::_Safe_vector.32" }
%"class.__gnu_debug::_Safe_container.base.26" = type { %"class.__gnu_debug::_Safe_sequence.base.25" }
%"class.__gnu_debug::_Safe_sequence.base.25" = type { %"class.__gnu_debug::_Safe_sequence_base.base" }
%"class.std::__cxx1998::vector.27" = type { %"struct.std::__cxx1998::_Vector_base.28" }
%"struct.std::__cxx1998::_Vector_base.28" = type { %"struct.std::__cxx1998::_Vector_base<std::__debug::vector<int, std::allocator<int> >, std::allocator<std::__debug::vector<int, std::allocator<int> > > >::_Vector_impl" }
%"struct.std::__cxx1998::_Vector_base<std::__debug::vector<int, std::allocator<int> >, std::allocator<std::__debug::vector<int, std::allocator<int> > > >::_Vector_impl" = type { %"class.std::__debug::vector"*, %"class.std::__debug::vector"*, %"class.std::__debug::vector"* }
%"class.__gnu_debug::_Safe_vector.32" = type { i64 }
%"class.std::allocator.29" = type { i8 }
%"class.std::queue" = type { %"class.std::__debug::deque" }
%"class.std::__debug::deque" = type { %"class.__gnu_debug::_Safe_container.base.36", %"class.std::__cxx1998::deque" }
%"class.__gnu_debug::_Safe_container.base.36" = type { %"class.__gnu_debug::_Safe_sequence.base.35" }
%"class.__gnu_debug::_Safe_sequence.base.35" = type { %"class.__gnu_debug::_Safe_sequence_base.base" }
%"class.std::__cxx1998::deque" = type { %"class.std::__cxx1998::_Deque_base" }
%"class.std::__cxx1998::_Deque_base" = type { %"struct.std::__cxx1998::_Deque_base<int, std::allocator<int> >::_Deque_impl" }
%"struct.std::__cxx1998::_Deque_base<int, std::allocator<int> >::_Deque_impl" = type { i32**, i64, %"struct.std::__cxx1998::_Deque_iterator", %"struct.std::__cxx1998::_Deque_iterator" }
%"struct.std::__cxx1998::_Deque_iterator" = type { i32*, i32*, i32*, i32** }
%"class.__gnu_debug::_Safe_iterator.37" = type { %"class.__gnu_cxx::__normal_iterator.38", %"class.__gnu_debug::_Safe_iterator_base" }
%"class.__gnu_cxx::__normal_iterator.38" = type { %"struct.std::pair"* }
%"class.__gnu_cxx::new_allocator" = type { i8 }
%"class.__gnu_debug::_Safe_container" = type { %"class.__gnu_debug::_Safe_sequence.base", [4 x i8] }
%"class.__gnu_debug::_Error_formatter" = type <{ i8*, i64, [9 x %"struct.__gnu_debug::_Error_formatter::_Parameter"], i64, i8*, i64, i64, i8, i8, [6 x i8] }>
%"struct.__gnu_debug::_Error_formatter::_Parameter" = type { i32, %union.anon }
%union.anon = type { %struct.anon }
%struct.anon = type { i8*, i8*, %"class.std::type_info"*, i32, i32, i8*, %"class.std::type_info"* }
%"class.std::type_info" = type { i32 (...)**, i8* }
%"struct.__gnu_cxx::__ops::_Iter_less_iter" = type { i8 }
%"class.__gnu_cxx::new_allocator.8" = type { i8 }
%"class.__gnu_debug::_Safe_container.1" = type { %"class.__gnu_debug::_Safe_sequence.base.3", [4 x i8] }
%"class.__gnu_cxx::new_allocator.30" = type { i8 }
%"class.__gnu_debug::_Safe_container.23" = type { %"class.__gnu_debug::_Safe_sequence.base.25", [4 x i8] }
%"class.__gnu_debug::_Safe_container.33" = type { %"class.__gnu_debug::_Safe_sequence.base.35", [4 x i8] }
%"class.__gnu_cxx::__scoped_lock" = type { %"class.__gnu_cxx::__mutex"* }
%"class.__gnu_cxx::__mutex" = type { %union.pthread_mutex_t }
%union.pthread_mutex_t = type { %"struct.(anonymous union)::__pthread_mutex_s" }
%"struct.(anonymous union)::__pthread_mutex_s" = type { i32, i32, i32, i32, i32, i16, i16, %struct.__pthread_internal_list }
%struct.__pthread_internal_list = type { %struct.__pthread_internal_list*, %struct.__pthread_internal_list* }
%"class.__gnu_debug::_Safe_sequence" = type { %"class.__gnu_debug::_Safe_sequence_base.base", [4 x i8] }
%"class.__gnu_debug::_Safe_sequence.34" = type { %"class.__gnu_debug::_Safe_sequence_base.base", [4 x i8] }
%"class.std::allocator.39" = type { i8 }
%"class.__gnu_cxx::new_allocator.40" = type { i8 }
%"class.__gnu_debug::_Safe_sequence.24" = type { %"class.__gnu_debug::_Safe_sequence_base.base", [4 x i8] }
%"class.__gnu_debug::_Safe_sequence.2" = type { %"class.__gnu_debug::_Safe_sequence_base.base", [4 x i8] }
%"class.__gnu_debug::_Safe_container.11" = type { %"class.__gnu_debug::_Safe_sequence.base.13", [4 x i8] }
%"class.std::allocator.17" = type { i8 }
%"class.__gnu_debug::_Safe_sequence.12" = type { %"class.__gnu_debug::_Safe_sequence_base.base", [4 x i8] }
%"class.__gnu_cxx::new_allocator.18" = type { i8 }
%"struct.__gnu_debug::_Error_formatter::_Is_sequence" = type { i8 }
%struct.anon.42 = type { i8*, i8*, %"class.std::type_info"* }
%struct.anon.43 = type { i8*, i64 }
%"struct.__gnu_debug::_Error_formatter::_Is_iterator" = type { i8 }
%"struct.std::pair.45" = type <{ i64, i32, [4 x i8] }>
%"struct.std::random_access_iterator_tag" = type { i8 }
%"struct.__gnu_cxx::__ops::_Iter_less_val" = type { i8 }
%"class.__gnu_cxx::__concurrence_lock_error" = type { %"class.std::exception" }
%"class.std::exception" = type { i32 (...)** }
%"class.__gnu_cxx::__concurrence_unlock_error" = type { %"class.std::exception" }
%"struct.__gnu_cxx::__ops::_Val_less_iter" = type { i8 }
%"class.std::move_iterator" = type { %"struct.std::pair"* }
%"class.__gnu_cxx::__normal_iterator.46" = type { i32* }
%"struct.std::__false_type" = type { i8 }
%"struct.std::integral_constant" = type { i8 }
%"struct.__gnu_cxx::__allocator_always_compares_equal" = type { i8 }
%"class.__gnu_debug::_Equal_to" = type { %"struct.std::__cxx1998::_Deque_iterator.47" }
%"struct.std::__cxx1998::_Deque_iterator.47" = type { i32*, i32*, i32*, i32** }
%"class.__gnu_debug::_Safe_iterator.48" = type { %"struct.std::__cxx1998::_Deque_iterator", %"class.__gnu_debug::_Safe_iterator_base" }
%"class.__gnu_debug::_Safe_iterator.49" = type { %"struct.std::__cxx1998::_Deque_iterator.47", %"class.__gnu_debug::_Safe_iterator_base" }

$_ZNSaIiEC2Ev = comdat any

$_ZNSt7__debug6vectorIiSaIiEEC2EmRKS1_ = comdat any

$_ZNSaIiED2Ev = comdat any

$_ZNSt7__debug6vectorIiSaIiEEixEm = comdat any

$_ZSt4sortIN11__gnu_debug14_Safe_iteratorIN9__gnu_cxx17__normal_iteratorIPiNSt9__cxx19986vectorIiSaIiEEEEENSt7__debug6vectorIiS7_EEEEEvT_SE_ = comdat any

$_ZNSt7__debug6vectorIiSaIiEE5beginEv = comdat any

$_ZNSt7__debug6vectorIiSaIiEE3endEv = comdat any

$_ZN11__gnu_debug14_Safe_iteratorIN9__gnu_cxx17__normal_iteratorIPiNSt9__cxx19986vectorIiSaIiEEEEENSt7__debug6vectorIiS6_EEED2Ev = comdat any

$_ZNSaINSt7__debug6vectorISt4pairIiiESaIS2_EEEEC2Ev = comdat any

$_ZNSt7__debug6vectorINS0_ISt4pairIiiESaIS2_EEESaIS4_EEC2EmRKS5_ = comdat any

$_ZNSaINSt7__debug6vectorISt4pairIiiESaIS2_EEEED2Ev = comdat any

$_ZNSt7__debug6vectorINS0_ISt4pairIiiESaIS2_EEESaIS4_EEixEm = comdat any

$_ZNSt7__debug6vectorISt4pairIiiESaIS2_EE9push_backIS2_EEN9__gnu_cxx11__enable_ifIXntsr3std10__are_sameIT_bEE7__valueEvE6__typeEOS2_ = comdat any

$_ZSt9make_pairIRiS0_ESt4pairINSt17__decay_and_stripIT_E6__typeENS2_IT0_E6__typeEEOS3_OS6_ = comdat any

$_ZNSaINSt7__debug6vectorIiSaIiEEEEC2Ev = comdat any

$_ZNSt7__debug6vectorINS0_IiSaIiEEESaIS2_EEC2EmRKS2_RKS3_ = comdat any

$_ZNSaINSt7__debug6vectorIiSaIiEEEED2Ev = comdat any

$_ZNSt7__debug6vectorIiSaIiEED2Ev = comdat any

$_ZNSt7__debug5dequeIiSaIiEEC2Ev = comdat any

$_ZNSt5queueIiNSt7__debug5dequeIiSaIiEEEEC2EOS3_ = comdat any

$_ZNSt7__debug5dequeIiSaIiEED2Ev = comdat any

$_ZNSt5queueIiNSt7__debug5dequeIiSaIiEEEE4pushERKi = comdat any

$_ZNSt7__debug6vectorIiSaIiEEC2EmRKiRKS1_ = comdat any

$_ZNKSt5queueIiNSt7__debug5dequeIiSaIiEEEE5emptyEv = comdat any

$_ZNSt5queueIiNSt7__debug5dequeIiSaIiEEEE5frontEv = comdat any

$_ZNSt5queueIiNSt7__debug5dequeIiSaIiEEEE3popEv = comdat any

$_ZNSt7__debug6vectorISt4pairIiiESaIS2_EE5beginEv = comdat any

$_ZNSt7__debug6vectorISt4pairIiiESaIS2_EE3endEv = comdat any

$_ZN11__gnu_debugneIN9__gnu_cxx17__normal_iteratorIPSt4pairIiiENSt9__cxx19986vectorIS4_SaIS4_EEEEENSt7__debug6vectorIS4_S8_EEEEbRKNS_14_Safe_iteratorIT_T0_EESJ_ = comdat any

$_ZNK11__gnu_debug14_Safe_iteratorIN9__gnu_cxx17__normal_iteratorIPSt4pairIiiENSt9__cxx19986vectorIS4_SaIS4_EEEEENSt7__debug6vectorIS4_S8_EEEdeEv = comdat any

$_ZN11__gnu_debug14_Safe_iteratorIN9__gnu_cxx17__normal_iteratorIPSt4pairIiiENSt9__cxx19986vectorIS4_SaIS4_EEEEENSt7__debug6vectorIS4_S8_EEEppEv = comdat any

$_ZN11__gnu_debug14_Safe_iteratorIN9__gnu_cxx17__normal_iteratorIPSt4pairIiiENSt9__cxx19986vectorIS4_SaIS4_EEEEENSt7__debug6vectorIS4_S8_EEED2Ev = comdat any

$_ZNSt7__debug6vectorINS0_IiSaIiEEESaIS2_EEixEm = comdat any

$_ZNSt5queueIiNSt7__debug5dequeIiSaIiEEEED2Ev = comdat any

$_ZSt3minIiERKT_S2_S2_ = comdat any

$_ZSt16next_permutationIN11__gnu_debug14_Safe_iteratorIN9__gnu_cxx17__normal_iteratorIPiNSt9__cxx19986vectorIiSaIiEEEEENSt7__debug6vectorIiS7_EEEEEbT_SE_ = comdat any

$_ZNSt7__debug6vectorINS0_IiSaIiEEESaIS2_EED2Ev = comdat any

$_ZNSt7__debug6vectorINS0_ISt4pairIiiESaIS2_EEESaIS4_EED2Ev = comdat any

$_ZN11__gnu_debug19_Safe_iterator_baseD2Ev = comdat any

$__clang_call_terminate = comdat any

$_ZSt7forwardIRiEOT_RNSt16remove_referenceIS1_E4typeE = comdat any

$_ZNSt4pairIiiEC2IRiS2_vEEOT_OT0_ = comdat any

$_ZNSt9__cxx19986vectorIiSaIiEED2Ev = comdat any

$_ZN11__gnu_debug15_Safe_containerINSt7__debug6vectorIiSaIiEEES3_NS_14_Safe_sequenceELb1EED2Ev = comdat any

$_ZSt8_DestroyIPiiEvT_S1_RSaIT0_E = comdat any

$_ZNSt9__cxx199812_Vector_baseIiSaIiEE19_M_get_Tp_allocatorEv = comdat any

$_ZNSt9__cxx199812_Vector_baseIiSaIiEED2Ev = comdat any

$_ZSt8_DestroyIPiEvT_S1_ = comdat any

$_ZNSt12_Destroy_auxILb1EE9__destroyIPiEEvT_S3_ = comdat any

$_ZNSt9__cxx199812_Vector_baseIiSaIiEE13_M_deallocateEPim = comdat any

$_ZNSt9__cxx199812_Vector_baseIiSaIiEE12_Vector_implD2Ev = comdat any

$_ZNSt16allocator_traitsISaIiEE10deallocateERS0_Pim = comdat any

$_ZN9__gnu_cxx13new_allocatorIiE10deallocateEPim = comdat any

$_ZN9__gnu_cxx13new_allocatorIiED2Ev = comdat any

$_ZN11__gnu_debug14_Safe_sequenceINSt7__debug6vectorIiSaIiEEEED2Ev = comdat any

$_ZN11__gnu_debug19_Safe_sequence_baseD2Ev = comdat any

$_ZN11__gnu_debug15_Safe_containerINSt7__debug5dequeIiSaIiEEES3_NS_14_Safe_sequenceELb1EEC2Ev = comdat any

$_ZNSt9__cxx19985dequeIiSaIiEEC2Ev = comdat any

$_ZN11__gnu_debug15_Safe_containerINSt7__debug5dequeIiSaIiEEES3_NS_14_Safe_sequenceELb1EED2Ev = comdat any

$_ZN11__gnu_debug14_Safe_sequenceINSt7__debug5dequeIiSaIiEEEEC2Ev = comdat any

$_ZN11__gnu_debug19_Safe_sequence_baseC2Ev = comdat any

$_ZNSt9__cxx199811_Deque_baseIiSaIiEEC2Ev = comdat any

$_ZNSt9__cxx199811_Deque_baseIiSaIiEE11_Deque_implC2Ev = comdat any

$_ZNSt9__cxx199811_Deque_baseIiSaIiEE17_M_initialize_mapEm = comdat any

$_ZNSt9__cxx199811_Deque_baseIiSaIiEE11_Deque_implD2Ev = comdat any

$_ZNSt9__cxx199815_Deque_iteratorIiRiPiEC2Ev = comdat any

$_ZN9__gnu_cxx13new_allocatorIiEC2Ev = comdat any

$_ZNSt9__cxx199816__deque_buf_sizeEm = comdat any

$_ZSt3maxImERKT_S2_S2_ = comdat any

$_ZNSt9__cxx199811_Deque_baseIiSaIiEE15_M_allocate_mapEm = comdat any

$_ZNSt9__cxx199811_Deque_baseIiSaIiEE15_M_create_nodesEPPiS4_ = comdat any

$_ZNSt9__cxx199811_Deque_baseIiSaIiEE17_M_deallocate_mapEPPim = comdat any

$_ZNSt9__cxx199815_Deque_iteratorIiRiPiE11_M_set_nodeEPS2_ = comdat any

$_ZNKSt9__cxx199811_Deque_baseIiSaIiEE20_M_get_map_allocatorEv = comdat any

$_ZNSt16allocator_traitsISaIPiEE8allocateERS1_m = comdat any

$_ZNSaIPiED2Ev = comdat any

$_ZNKSt9__cxx199811_Deque_baseIiSaIiEE19_M_get_Tp_allocatorEv = comdat any

$_ZNSaIPiEC2IiEERKSaIT_E = comdat any

$_ZN9__gnu_cxx13new_allocatorIPiEC2Ev = comdat any

$_ZN9__gnu_cxx13new_allocatorIPiE8allocateEmPKv = comdat any

$_ZNK9__gnu_cxx13new_allocatorIPiE8max_sizeEv = comdat any

$_ZN9__gnu_cxx13new_allocatorIPiED2Ev = comdat any

$_ZNSt9__cxx199811_Deque_baseIiSaIiEE16_M_allocate_nodeEv = comdat any

$_ZNSt9__cxx199811_Deque_baseIiSaIiEE16_M_destroy_nodesEPPiS4_ = comdat any

$_ZNSt16allocator_traitsISaIiEE8allocateERS0_m = comdat any

$_ZN9__gnu_cxx13new_allocatorIiE8allocateEmPKv = comdat any

$_ZNK9__gnu_cxx13new_allocatorIiE8max_sizeEv = comdat any

$_ZNSt9__cxx199811_Deque_baseIiSaIiEE18_M_deallocate_nodeEPi = comdat any

$_ZNSt16allocator_traitsISaIPiEE10deallocateERS1_PS0_m = comdat any

$_ZN9__gnu_cxx13new_allocatorIPiE10deallocateEPS1_m = comdat any

$_ZNSt9__cxx199815_Deque_iteratorIiRiPiE14_S_buffer_sizeEv = comdat any

$_ZN11__gnu_debug14_Safe_sequenceINSt7__debug5dequeIiSaIiEEEED2Ev = comdat any

$_ZNSt9__cxx19985dequeIiSaIiEED2Ev = comdat any

$_ZNSt9__cxx19985dequeIiSaIiEE15_M_destroy_dataENS_15_Deque_iteratorIiRiPiEES6_RKS1_ = comdat any

$_ZNSt9__cxx19985dequeIiSaIiEE5beginEv = comdat any

$_ZNSt9__cxx19985dequeIiSaIiEE3endEv = comdat any

$_ZNSt9__cxx199811_Deque_baseIiSaIiEE19_M_get_Tp_allocatorEv = comdat any

$_ZNSt9__cxx199811_Deque_baseIiSaIiEED2Ev = comdat any

$_ZNSt9__cxx199815_Deque_iteratorIiRiPiEC2ERKS3_ = comdat any

$_ZNSt9__cxx19986vectorINSt7__debug6vectorIiSaIiEEESaIS4_EED2Ev = comdat any

$_ZN11__gnu_debug15_Safe_containerINSt7__debug6vectorINS2_IiSaIiEEESaIS4_EEES5_NS_14_Safe_sequenceELb1EED2Ev = comdat any

$_ZSt8_DestroyIPNSt7__debug6vectorIiSaIiEEES3_EvT_S5_RSaIT0_E = comdat any

$_ZNSt9__cxx199812_Vector_baseINSt7__debug6vectorIiSaIiEEESaIS4_EE19_M_get_Tp_allocatorEv = comdat any

$_ZNSt9__cxx199812_Vector_baseINSt7__debug6vectorIiSaIiEEESaIS4_EED2Ev = comdat any

$_ZSt8_DestroyIPNSt7__debug6vectorIiSaIiEEEEvT_S5_ = comdat any

$_ZNSt12_Destroy_auxILb0EE9__destroyIPNSt7__debug6vectorIiSaIiEEEEEvT_S7_ = comdat any

$_ZSt8_DestroyINSt7__debug6vectorIiSaIiEEEEvPT_ = comdat any

$_ZSt11__addressofINSt7__debug6vectorIiSaIiEEEEPT_RS4_ = comdat any

$_ZNSt9__cxx199812_Vector_baseINSt7__debug6vectorIiSaIiEEESaIS4_EE13_M_deallocateEPS4_m = comdat any

$_ZNSt9__cxx199812_Vector_baseINSt7__debug6vectorIiSaIiEEESaIS4_EE12_Vector_implD2Ev = comdat any

$_ZNSt16allocator_traitsISaINSt7__debug6vectorIiSaIiEEEEE10deallocateERS4_PS3_m = comdat any

$_ZN9__gnu_cxx13new_allocatorINSt7__debug6vectorIiSaIiEEEE10deallocateEPS4_m = comdat any

$_ZN9__gnu_cxx13new_allocatorINSt7__debug6vectorIiSaIiEEEED2Ev = comdat any

$_ZN11__gnu_debug14_Safe_sequenceINSt7__debug6vectorINS2_IiSaIiEEESaIS4_EEEED2Ev = comdat any

$_ZNSt9__cxx19986vectorINSt7__debug6vectorISt4pairIiiESaIS4_EEESaIS6_EED2Ev = comdat any

$_ZN11__gnu_debug15_Safe_containerINSt7__debug6vectorINS2_ISt4pairIiiESaIS4_EEESaIS6_EEES7_NS_14_Safe_sequenceELb1EED2Ev = comdat any

$_ZSt8_DestroyIPNSt7__debug6vectorISt4pairIiiESaIS3_EEES5_EvT_S7_RSaIT0_E = comdat any

$_ZNSt9__cxx199812_Vector_baseINSt7__debug6vectorISt4pairIiiESaIS4_EEESaIS6_EE19_M_get_Tp_allocatorEv = comdat any

$_ZNSt9__cxx199812_Vector_baseINSt7__debug6vectorISt4pairIiiESaIS4_EEESaIS6_EED2Ev = comdat any

$_ZSt8_DestroyIPNSt7__debug6vectorISt4pairIiiESaIS3_EEEEvT_S7_ = comdat any

$_ZNSt12_Destroy_auxILb0EE9__destroyIPNSt7__debug6vectorISt4pairIiiESaIS5_EEEEEvT_S9_ = comdat any

$_ZSt8_DestroyINSt7__debug6vectorISt4pairIiiESaIS3_EEEEvPT_ = comdat any

$_ZSt11__addressofINSt7__debug6vectorISt4pairIiiESaIS3_EEEEPT_RS6_ = comdat any

$_ZNSt7__debug6vectorISt4pairIiiESaIS2_EED2Ev = comdat any

$_ZNSt9__cxx19986vectorISt4pairIiiESaIS2_EED2Ev = comdat any

$_ZN11__gnu_debug15_Safe_containerINSt7__debug6vectorISt4pairIiiESaIS4_EEES5_NS_14_Safe_sequenceELb1EED2Ev = comdat any

$_ZSt8_DestroyIPSt4pairIiiES1_EvT_S3_RSaIT0_E = comdat any

$_ZNSt9__cxx199812_Vector_baseISt4pairIiiESaIS2_EE19_M_get_Tp_allocatorEv = comdat any

$_ZNSt9__cxx199812_Vector_baseISt4pairIiiESaIS2_EED2Ev = comdat any

$_ZSt8_DestroyIPSt4pairIiiEEvT_S3_ = comdat any

$_ZNSt12_Destroy_auxILb1EE9__destroyIPSt4pairIiiEEEvT_S5_ = comdat any

$_ZNSt9__cxx199812_Vector_baseISt4pairIiiESaIS2_EE13_M_deallocateEPS2_m = comdat any

$_ZNSt9__cxx199812_Vector_baseISt4pairIiiESaIS2_EE12_Vector_implD2Ev = comdat any

$_ZNSt16allocator_traitsISaISt4pairIiiEEE10deallocateERS2_PS1_m = comdat any

$_ZN9__gnu_cxx13new_allocatorISt4pairIiiEE10deallocateEPS2_m = comdat any

$_ZNSaISt4pairIiiEED2Ev = comdat any

$_ZN9__gnu_cxx13new_allocatorISt4pairIiiEED2Ev = comdat any

$_ZN11__gnu_debug14_Safe_sequenceINSt7__debug6vectorISt4pairIiiESaIS4_EEEED2Ev = comdat any

$_ZNSt9__cxx199812_Vector_baseINSt7__debug6vectorISt4pairIiiESaIS4_EEESaIS6_EE13_M_deallocateEPS6_m = comdat any

$_ZNSt9__cxx199812_Vector_baseINSt7__debug6vectorISt4pairIiiESaIS4_EEESaIS6_EE12_Vector_implD2Ev = comdat any

$_ZNSt16allocator_traitsISaINSt7__debug6vectorISt4pairIiiESaIS3_EEEEE10deallocateERS6_PS5_m = comdat any

$_ZN9__gnu_cxx13new_allocatorINSt7__debug6vectorISt4pairIiiESaIS4_EEEE10deallocateEPS6_m = comdat any

$_ZN9__gnu_cxx13new_allocatorINSt7__debug6vectorISt4pairIiiESaIS4_EEEED2Ev = comdat any

$_ZN11__gnu_debug14_Safe_sequenceINSt7__debug6vectorINS2_ISt4pairIiiESaIS4_EEESaIS6_EEEED2Ev = comdat any

$_ZN11__gnu_debug15_Safe_containerINSt7__debug6vectorIiSaIiEEES3_NS_14_Safe_sequenceELb1EEC2Ev = comdat any

$_ZNSt9__cxx19986vectorIiSaIiEEC2EmRKS1_ = comdat any

$_ZN11__gnu_debug12_Safe_vectorINSt7__debug6vectorIiSaIiEEENSt9__cxx19986vectorIiS3_EEEC2Em = comdat any

$_ZN11__gnu_debug14_Safe_sequenceINSt7__debug6vectorIiSaIiEEEEC2Ev = comdat any

$_ZNSt9__cxx199812_Vector_baseIiSaIiEEC2EmRKS1_ = comdat any

$_ZNSt9__cxx19986vectorIiSaIiEE21_M_default_initializeEm = comdat any

$_ZNSt9__cxx199812_Vector_baseIiSaIiEE12_Vector_implC2ERKS1_ = comdat any

$_ZNSt9__cxx199812_Vector_baseIiSaIiEE17_M_create_storageEm = comdat any

$_ZN9__gnu_cxx13new_allocatorIiEC2ERKS1_ = comdat any

$_ZNSt9__cxx199812_Vector_baseIiSaIiEE11_M_allocateEm = comdat any

$_ZSt27__uninitialized_default_n_aIPimiET_S1_T0_RSaIT1_E = comdat any

$_ZSt25__uninitialized_default_nIPimET_S1_T0_ = comdat any

$_ZNSt27__uninitialized_default_n_1ILb1EE18__uninit_default_nIPimEET_S3_T0_ = comdat any

$_ZSt6fill_nIPimiET_S1_T0_RKT1_ = comdat any

$_ZSt10__fill_n_aIPimiEN9__gnu_cxx11__enable_ifIXsr11__is_scalarIT1_EE7__valueET_E6__typeES4_T0_RKS3_ = comdat any

$_ZSt12__niter_baseIPiENSt11_Niter_baseIT_E13iterator_typeES2_ = comdat any

$_ZNSt10_Iter_baseIPiLb0EE7_S_baseES0_ = comdat any

$_ZNKSt9__cxx19986vectorIiSaIiEE4sizeEv = comdat any

$_ZN11__gnu_debug16_Error_formatter5_M_atEPKcm = comdat any

$_ZNK11__gnu_debug16_Error_formatter11_M_sequenceINSt7__debug6vectorIiSaIiEEEEERKS0_RKT_PKc = comdat any

$_ZNK11__gnu_debug16_Error_formatter10_M_integerElPKc = comdat any

$_ZNSt7__debug6vectorIiSaIiEE7_M_baseEv = comdat any

$_ZNSt9__cxx19986vectorIiSaIiEEixEm = comdat any

$_ZN11__gnu_debug16_Error_formatterC2EPKcm = comdat any

$_ZN11__gnu_debug16_Error_formatter10_ParameterC2Ev = comdat any

$_ZN11__gnu_debug16_Error_formatter10_ParameterC2INSt7__debug6vectorIiSaIiEEEEERKT_PKcNS0_12_Is_sequenceE = comdat any

$_ZN11__gnu_debug16_Error_formatter10_ParameterC2ElPKc = comdat any

$_ZNSt9__cxx19986vectorIiSaIiEE5beginEv = comdat any

$_ZN11__gnu_debug14_Safe_iteratorIN9__gnu_cxx17__normal_iteratorIPiNSt9__cxx19986vectorIiSaIiEEEEENSt7__debug6vectorIiS6_EEEC2ERKS8_PKNS_19_Safe_sequence_baseE = comdat any

$_ZN9__gnu_cxx17__normal_iteratorIPiNSt9__cxx19986vectorIiSaIiEEEEC2ERKS1_ = comdat any

$_ZNK11__gnu_debug14_Safe_iteratorIN9__gnu_cxx17__normal_iteratorIPiNSt9__cxx19986vectorIiSaIiEEEEENSt7__debug6vectorIiS6_EEE11_M_constantEv = comdat any

$_ZN11__gnu_debug19_Safe_iterator_baseC2EPKNS_19_Safe_sequence_baseEb = comdat any

$_ZNK11__gnu_debug16_Error_formatter11_M_iteratorINS_14_Safe_iteratorIN9__gnu_cxx17__normal_iteratorIPiNSt9__cxx19986vectorIiSaIiEEEEENSt7__debug6vectorIiS8_EEEEEERKS0_RKT_PKc = comdat any

$_ZN11__gnu_debug16_Error_formatter10_ParameterC2IN9__gnu_cxx17__normal_iteratorIPiNSt9__cxx19986vectorIiSaIiEEEEENSt7__debug6vectorIiS8_EEEERKNS_14_Safe_iteratorIT_T0_EEPKcNS0_12_Is_iteratorE = comdat any

$_ZNK11__gnu_debug14_Safe_iteratorIN9__gnu_cxx17__normal_iteratorIPiNSt9__cxx19986vectorIiSaIiEEEEENSt7__debug6vectorIiS6_EEE15_M_get_sequenceEv = comdat any

$_ZNK11__gnu_debug14_Safe_iteratorIN9__gnu_cxx17__normal_iteratorIPiNSt9__cxx19986vectorIiSaIiEEEEENSt7__debug6vectorIiS6_EEE18_M_is_before_beginEv = comdat any

$_ZNK11__gnu_debug14_Safe_iteratorIN9__gnu_cxx17__normal_iteratorIPiNSt9__cxx19986vectorIiSaIiEEEEENSt7__debug6vectorIiS6_EEE9_M_is_endEv = comdat any

$_ZNK11__gnu_debug14_Safe_iteratorIN9__gnu_cxx17__normal_iteratorIPiNSt9__cxx19986vectorIiSaIiEEEEENSt7__debug6vectorIiS6_EEE11_M_is_beginEv = comdat any

$_ZN11__gnu_debug18_BeforeBeginHelperINSt7__debug6vectorIiSaIiEEEE5_S_IsIN9__gnu_cxx17__normal_iteratorIPiNSt9__cxx19986vectorIiS3_EEEEEEbRKNS_14_Safe_iteratorIT_S4_EE = comdat any

$_ZN9__gnu_cxxeqIPiNSt9__cxx19986vectorIiSaIiEEEEEbRKNS_17__normal_iteratorIT_T0_EESB_ = comdat any

$_ZNK11__gnu_debug14_Safe_iteratorIN9__gnu_cxx17__normal_iteratorIPiNSt9__cxx19986vectorIiSaIiEEEEENSt7__debug6vectorIiS6_EEE4baseEv = comdat any

$_ZNSt9__cxx19986vectorIiSaIiEE3endEv = comdat any

$_ZNK9__gnu_cxx17__normal_iteratorIPiNSt9__cxx19986vectorIiSaIiEEEE4baseEv = comdat any

$_ZN11__gnu_debug13__valid_rangeIN9__gnu_cxx17__normal_iteratorIPiNSt9__cxx19986vectorIiSaIiEEEEENSt7__debug6vectorIiS6_EEEEbRKNS_14_Safe_iteratorIT_T0_EESH_ = comdat any

$_ZSt6__sortIN11__gnu_debug14_Safe_iteratorIN9__gnu_cxx17__normal_iteratorIPiNSt9__cxx19986vectorIiSaIiEEEEENSt7__debug6vectorIiS7_EEEENS2_5__ops15_Iter_less_iterEEvT_SG_T0_ = comdat any

$_ZN11__gnu_debug14_Safe_iteratorIN9__gnu_cxx17__normal_iteratorIPiNSt9__cxx19986vectorIiSaIiEEEEENSt7__debug6vectorIiS6_EEEC2ERKSC_ = comdat any

$_ZN9__gnu_cxx5__ops16__iter_less_iterEv = comdat any

$_ZNK11__gnu_debug14_Safe_iteratorIN9__gnu_cxx17__normal_iteratorIPiNSt9__cxx19986vectorIiSaIiEEEEENSt7__debug6vectorIiS6_EEE14_M_valid_rangeERKSC_ = comdat any

$_ZN11__gnu_debug14__get_distanceIN9__gnu_cxx17__normal_iteratorIPiNSt9__cxx19986vectorIiSaIiEEEEEEESt4pairINSt15iterator_traitsIT_E15difference_typeENS_19_Distance_precisionEERKSB_SH_ = comdat any

$_ZNK11__gnu_debug14_Safe_iteratorIN9__gnu_cxx17__normal_iteratorIPiNSt9__cxx19986vectorIiSaIiEEEEENSt7__debug6vectorIiS6_EEE15_M_is_beginnestEv = comdat any

$_ZN11__gnu_debug14__get_distanceIN9__gnu_cxx17__normal_iteratorIPiNSt9__cxx19986vectorIiSaIiEEEEEEESt4pairINSt15iterator_traitsIT_E15difference_typeENS_19_Distance_precisionEERKSB_SH_St26random_access_iterator_tag = comdat any

$_ZSt9make_pairIlN11__gnu_debug19_Distance_precisionEESt4pairINSt17__decay_and_stripIT_E6__typeENS3_IT0_E6__typeEEOS4_OS7_ = comdat any

$_ZN9__gnu_cxxmiIPiNSt9__cxx19986vectorIiSaIiEEEEENS_17__normal_iteratorIT_T0_E15difference_typeERKS9_SC_ = comdat any

$_ZSt7forwardIlEOT_RNSt16remove_referenceIS0_E4typeE = comdat any

$_ZSt7forwardIN11__gnu_debug19_Distance_precisionEEOT_RNSt16remove_referenceIS2_E4typeE = comdat any

$_ZNSt4pairIlN11__gnu_debug19_Distance_precisionEEC2IlS1_vEEOT_OT0_ = comdat any

$_ZN11__gnu_debug18_BeforeBeginHelperINSt7__debug6vectorIiSaIiEEEE15_S_Is_BeginnestIN9__gnu_cxx17__normal_iteratorIPiNSt9__cxx19986vectorIiS3_EEEEEEbRKNS_14_Safe_iteratorIT_S4_EE = comdat any

$_ZN11__gnu_debugneIN9__gnu_cxx17__normal_iteratorIPiNSt9__cxx19986vectorIiSaIiEEEEENSt7__debug6vectorIiS6_EEEEbRKNS_14_Safe_iteratorIT_T0_EESH_ = comdat any

$_ZSt16__introsort_loopIN11__gnu_debug14_Safe_iteratorIN9__gnu_cxx17__normal_iteratorIPiNSt9__cxx19986vectorIiSaIiEEEEENSt7__debug6vectorIiS7_EEEElNS2_5__ops15_Iter_less_iterEEvT_SG_T0_T1_ = comdat any

$_ZSt4__lgl = comdat any

$_ZN11__gnu_debugmiIN9__gnu_cxx17__normal_iteratorIPiNSt9__cxx19986vectorIiSaIiEEEEENSt7__debug6vectorIiS6_EEEENS_14_Safe_iteratorIT_T0_E15difference_typeERKSF_SI_ = comdat any

$_ZSt22__final_insertion_sortIN11__gnu_debug14_Safe_iteratorIN9__gnu_cxx17__normal_iteratorIPiNSt9__cxx19986vectorIiSaIiEEEEENSt7__debug6vectorIiS7_EEEENS2_5__ops15_Iter_less_iterEEvT_SG_T0_ = comdat any

$_ZN9__gnu_cxxneIPiNSt9__cxx19986vectorIiSaIiEEEEEbRKNS_17__normal_iteratorIT_T0_EESB_ = comdat any

$_ZSt14__partial_sortIN11__gnu_debug14_Safe_iteratorIN9__gnu_cxx17__normal_iteratorIPiNSt9__cxx19986vectorIiSaIiEEEEENSt7__debug6vectorIiS7_EEEENS2_5__ops15_Iter_less_iterEEvT_SG_SG_T0_ = comdat any

$_ZSt27__unguarded_partition_pivotIN11__gnu_debug14_Safe_iteratorIN9__gnu_cxx17__normal_iteratorIPiNSt9__cxx19986vectorIiSaIiEEEEENSt7__debug6vectorIiS7_EEEENS2_5__ops15_Iter_less_iterEET_SG_SG_T0_ = comdat any

$_ZN11__gnu_debug14_Safe_iteratorIN9__gnu_cxx17__normal_iteratorIPiNSt9__cxx19986vectorIiSaIiEEEEENSt7__debug6vectorIiS6_EEEaSERKSC_ = comdat any

$_ZSt13__heap_selectIN11__gnu_debug14_Safe_iteratorIN9__gnu_cxx17__normal_iteratorIPiNSt9__cxx19986vectorIiSaIiEEEEENSt7__debug6vectorIiS7_EEEENS2_5__ops15_Iter_less_iterEEvT_SG_SG_T0_ = comdat any

$_ZSt11__sort_heapIN11__gnu_debug14_Safe_iteratorIN9__gnu_cxx17__normal_iteratorIPiNSt9__cxx19986vectorIiSaIiEEEEENSt7__debug6vectorIiS7_EEEENS2_5__ops15_Iter_less_iterEEvT_SG_T0_ = comdat any

$_ZSt11__make_heapIN11__gnu_debug14_Safe_iteratorIN9__gnu_cxx17__normal_iteratorIPiNSt9__cxx19986vectorIiSaIiEEEEENSt7__debug6vectorIiS7_EEEENS2_5__ops15_Iter_less_iterEEvT_SG_T0_ = comdat any

$_ZN11__gnu_debugltIN9__gnu_cxx17__normal_iteratorIPiNSt9__cxx19986vectorIiSaIiEEEEENSt7__debug6vectorIiS6_EEEEbRKNS_14_Safe_iteratorIT_T0_EESH_ = comdat any

$_ZNK9__gnu_cxx5__ops15_Iter_less_iterclIN11__gnu_debug14_Safe_iteratorINS_17__normal_iteratorIPiNSt9__cxx19986vectorIiSaIiEEEEENSt7__debug6vectorIiS9_EEEESF_EEbT_T0_ = comdat any

$_ZSt10__pop_heapIN11__gnu_debug14_Safe_iteratorIN9__gnu_cxx17__normal_iteratorIPiNSt9__cxx19986vectorIiSaIiEEEEENSt7__debug6vectorIiS7_EEEENS2_5__ops15_Iter_less_iterEEvT_SG_SG_T0_ = comdat any

$_ZN11__gnu_debug14_Safe_iteratorIN9__gnu_cxx17__normal_iteratorIPiNSt9__cxx19986vectorIiSaIiEEEEENSt7__debug6vectorIiS6_EEEppEv = comdat any

$_ZSt4moveIRiEONSt16remove_referenceIT_E4typeEOS2_ = comdat any

$_ZNK11__gnu_debug14_Safe_iteratorIN9__gnu_cxx17__normal_iteratorIPiNSt9__cxx19986vectorIiSaIiEEEEENSt7__debug6vectorIiS6_EEEplERKl = comdat any

$_ZNK11__gnu_debug14_Safe_iteratorIN9__gnu_cxx17__normal_iteratorIPiNSt9__cxx19986vectorIiSaIiEEEEENSt7__debug6vectorIiS6_EEEdeEv = comdat any

$_ZSt13__adjust_heapIN11__gnu_debug14_Safe_iteratorIN9__gnu_cxx17__normal_iteratorIPiNSt9__cxx19986vectorIiSaIiEEEEENSt7__debug6vectorIiS7_EEEEliNS2_5__ops15_Iter_less_iterEEvT_T0_SH_T1_T2_ = comdat any

$_ZNK11__gnu_debug14_Safe_iteratorIN9__gnu_cxx17__normal_iteratorIPiNSt9__cxx19986vectorIiSaIiEEEEENSt7__debug6vectorIiS6_EEE14_M_can_advanceERKl = comdat any

$_ZNK9__gnu_cxx17__normal_iteratorIPiNSt9__cxx19986vectorIiSaIiEEEEplEl = comdat any

$_ZNK11__gnu_debug14_Safe_iteratorIN9__gnu_cxx17__normal_iteratorIPiNSt9__cxx19986vectorIiSaIiEEEEENSt7__debug6vectorIiS6_EEE18_M_dereferenceableEv = comdat any

$_ZNK9__gnu_cxx17__normal_iteratorIPiNSt9__cxx19986vectorIiSaIiEEEEdeEv = comdat any

$_ZSt11__push_heapIN11__gnu_debug14_Safe_iteratorIN9__gnu_cxx17__normal_iteratorIPiNSt9__cxx19986vectorIiSaIiEEEEENSt7__debug6vectorIiS7_EEEEliNS2_5__ops14_Iter_less_valEEvT_T0_SH_T1_T2_ = comdat any

$_ZN9__gnu_cxx5__ops15__iter_comp_valENS0_15_Iter_less_iterE = comdat any

$_ZNK9__gnu_cxx5__ops14_Iter_less_valclIN11__gnu_debug14_Safe_iteratorINS_17__normal_iteratorIPiNSt9__cxx19986vectorIiSaIiEEEEENSt7__debug6vectorIiS9_EEEEiEEbT_RT0_ = comdat any

$_ZN9__gnu_cxxltIPiNSt9__cxx19986vectorIiSaIiEEEEEbRKNS_17__normal_iteratorIT_T0_EESB_ = comdat any

$_ZNK11__gnu_debug14_Safe_iteratorIN9__gnu_cxx17__normal_iteratorIPiNSt9__cxx19986vectorIiSaIiEEEEENSt7__debug6vectorIiS6_EEE16_M_incrementableEv = comdat any

$_ZN9__gnu_cxx13__scoped_lockC2ERNS_7__mutexE = comdat any

$_ZN9__gnu_cxx13__scoped_lockD2Ev = comdat any

$_ZN11__gnu_debug14_Safe_iteratorIN9__gnu_cxx17__normal_iteratorIPiNSt9__cxx19986vectorIiSaIiEEEEENSt7__debug6vectorIiS6_EEE4baseEv = comdat any

$_ZN9__gnu_cxx17__normal_iteratorIPiNSt9__cxx19986vectorIiSaIiEEEEppEv = comdat any

$_ZN9__gnu_cxx7__mutex4lockEv = comdat any

$_ZN9__gnu_cxx30__throw_concurrence_lock_errorEv = comdat any

$_ZN9__gnu_cxx24__concurrence_lock_errorC2Ev = comdat any

$_ZN9__gnu_cxx24__concurrence_lock_errorD2Ev = comdat any

$_ZNSt9exceptionC2Ev = comdat any

$_ZN9__gnu_cxx24__concurrence_lock_errorD0Ev = comdat any

$_ZNK9__gnu_cxx24__concurrence_lock_error4whatEv = comdat any

$_ZN9__gnu_cxx7__mutex6unlockEv = comdat any

$_ZN9__gnu_cxx32__throw_concurrence_unlock_errorEv = comdat any

$_ZN9__gnu_cxx26__concurrence_unlock_errorC2Ev = comdat any

$_ZN9__gnu_cxx26__concurrence_unlock_errorD2Ev = comdat any

$_ZN9__gnu_cxx26__concurrence_unlock_errorD0Ev = comdat any

$_ZNK9__gnu_cxx26__concurrence_unlock_error4whatEv = comdat any

$_ZN11__gnu_debug14_Safe_iteratorIN9__gnu_cxx17__normal_iteratorIPiNSt9__cxx19986vectorIiSaIiEEEEENSt7__debug6vectorIiS6_EEEmmEv = comdat any

$_ZNK11__gnu_debug14_Safe_iteratorIN9__gnu_cxx17__normal_iteratorIPiNSt9__cxx19986vectorIiSaIiEEEEENSt7__debug6vectorIiS6_EEE16_M_decrementableEv = comdat any

$_ZN9__gnu_cxx17__normal_iteratorIPiNSt9__cxx19986vectorIiSaIiEEEEmmEv = comdat any

$_ZSt22__move_median_to_firstIN11__gnu_debug14_Safe_iteratorIN9__gnu_cxx17__normal_iteratorIPiNSt9__cxx19986vectorIiSaIiEEEEENSt7__debug6vectorIiS7_EEEENS2_5__ops15_Iter_less_iterEEvT_SG_SG_SG_T0_ = comdat any

$_ZNK11__gnu_debug14_Safe_iteratorIN9__gnu_cxx17__normal_iteratorIPiNSt9__cxx19986vectorIiSaIiEEEEENSt7__debug6vectorIiS6_EEEmiERKl = comdat any

$_ZSt21__unguarded_partitionIN11__gnu_debug14_Safe_iteratorIN9__gnu_cxx17__normal_iteratorIPiNSt9__cxx19986vectorIiSaIiEEEEENSt7__debug6vectorIiS7_EEEENS2_5__ops15_Iter_less_iterEET_SG_SG_SG_T0_ = comdat any

$_ZSt9iter_swapIN11__gnu_debug14_Safe_iteratorIN9__gnu_cxx17__normal_iteratorIPiNSt9__cxx19986vectorIiSaIiEEEEENSt7__debug6vectorIiS7_EEEESD_EvT_T0_ = comdat any

$_ZSt4swapIiEvRT_S1_ = comdat any

$_ZNK9__gnu_cxx17__normal_iteratorIPiNSt9__cxx19986vectorIiSaIiEEEEmiEl = comdat any

$_ZN11__gnu_debug14_Safe_iteratorIN9__gnu_cxx17__normal_iteratorIPiNSt9__cxx19986vectorIiSaIiEEEEENSt7__debug6vectorIiS6_EEEC2EOSC_ = comdat any

$_ZN11__gnu_debug19_Safe_iterator_baseC2Ev = comdat any

$_ZN9__gnu_cxx17__normal_iteratorIPiNSt9__cxx19986vectorIiSaIiEEEEC2Ev = comdat any

$_ZSt4swapIN9__gnu_cxx17__normal_iteratorIPiNSt9__cxx19986vectorIiSaIiEEEEEEvRT_S9_ = comdat any

$_ZN11__gnu_debug14_Safe_iteratorIN9__gnu_cxx17__normal_iteratorIPiNSt9__cxx19986vectorIiSaIiEEEEENSt7__debug6vectorIiS6_EEE9_M_attachEPNS_19_Safe_sequence_baseE = comdat any

$_ZSt4moveIRN9__gnu_cxx17__normal_iteratorIPiNSt9__cxx19986vectorIiSaIiEEEEEEONSt16remove_referenceIT_E4typeEOSA_ = comdat any

$_ZSt16__insertion_sortIN11__gnu_debug14_Safe_iteratorIN9__gnu_cxx17__normal_iteratorIPiNSt9__cxx19986vectorIiSaIiEEEEENSt7__debug6vectorIiS7_EEEENS2_5__ops15_Iter_less_iterEEvT_SG_T0_ = comdat any

$_ZSt26__unguarded_insertion_sortIN11__gnu_debug14_Safe_iteratorIN9__gnu_cxx17__normal_iteratorIPiNSt9__cxx19986vectorIiSaIiEEEEENSt7__debug6vectorIiS7_EEEENS2_5__ops15_Iter_less_iterEEvT_SG_T0_ = comdat any

$_ZN11__gnu_debugeqIN9__gnu_cxx17__normal_iteratorIPiNSt9__cxx19986vectorIiSaIiEEEEENSt7__debug6vectorIiS6_EEEEbRKNS_14_Safe_iteratorIT_T0_EESH_ = comdat any

$_ZSt13move_backwardIN11__gnu_debug14_Safe_iteratorIN9__gnu_cxx17__normal_iteratorIPiNSt9__cxx19986vectorIiSaIiEEEEENSt7__debug6vectorIiS7_EEEESD_ET0_T_SF_SE_ = comdat any

$_ZSt25__unguarded_linear_insertIN11__gnu_debug14_Safe_iteratorIN9__gnu_cxx17__normal_iteratorIPiNSt9__cxx19986vectorIiSaIiEEEEENSt7__debug6vectorIiS7_EEEENS2_5__ops14_Val_less_iterEEvT_T0_ = comdat any

$_ZN9__gnu_cxx5__ops15__val_comp_iterENS0_15_Iter_less_iterE = comdat any

$_ZSt23__copy_move_backward_a2ILb1EN11__gnu_debug14_Safe_iteratorIN9__gnu_cxx17__normal_iteratorIPiNSt9__cxx19986vectorIiSaIiEEEEENSt7__debug6vectorIiS7_EEEESD_ET1_T0_SF_SE_ = comdat any

$_ZSt12__miter_baseIN11__gnu_debug14_Safe_iteratorIN9__gnu_cxx17__normal_iteratorIPiNSt9__cxx19986vectorIiSaIiEEEEENSt7__debug6vectorIiS7_EEEEENSt11_Miter_baseIT_E13iterator_typeESF_ = comdat any

$_ZSt22__copy_move_backward_aILb1EN11__gnu_debug14_Safe_iteratorIN9__gnu_cxx17__normal_iteratorIPiNSt9__cxx19986vectorIiSaIiEEEEENSt7__debug6vectorIiS7_EEEESD_ET1_T0_SF_SE_ = comdat any

$_ZSt12__niter_baseIN11__gnu_debug14_Safe_iteratorIN9__gnu_cxx17__normal_iteratorIPiNSt9__cxx19986vectorIiSaIiEEEEENSt7__debug6vectorIiS7_EEEEENSt11_Niter_baseIT_E13iterator_typeESF_ = comdat any

$_ZNSt20__copy_move_backwardILb1ELb0ESt26random_access_iterator_tagE13__copy_move_bIN11__gnu_debug14_Safe_iteratorIN9__gnu_cxx17__normal_iteratorIPiNSt9__cxx19986vectorIiSaIiEEEEENSt7__debug6vectorIiSA_EEEESG_EET0_T_SI_SH_ = comdat any

$_ZNSt10_Iter_baseIN11__gnu_debug14_Safe_iteratorIN9__gnu_cxx17__normal_iteratorIPiNSt9__cxx19986vectorIiSaIiEEEEENSt7__debug6vectorIiS7_EEEELb0EE7_S_baseESD_ = comdat any

$_ZNK9__gnu_cxx5__ops14_Val_less_iterclIiN11__gnu_debug14_Safe_iteratorINS_17__normal_iteratorIPiNSt9__cxx19986vectorIiSaIiEEEEENSt7__debug6vectorIiS9_EEEEEEbRT_T0_ = comdat any

$_ZN9__gnu_cxx13new_allocatorINSt7__debug6vectorISt4pairIiiESaIS4_EEEEC2Ev = comdat any

$_ZN11__gnu_debug15_Safe_containerINSt7__debug6vectorINS2_ISt4pairIiiESaIS4_EEESaIS6_EEES7_NS_14_Safe_sequenceELb1EEC2Ev = comdat any

$_ZNSt9__cxx19986vectorINSt7__debug6vectorISt4pairIiiESaIS4_EEESaIS6_EEC2EmRKS7_ = comdat any

$_ZN11__gnu_debug12_Safe_vectorINSt7__debug6vectorINS2_ISt4pairIiiESaIS4_EEESaIS6_EEENSt9__cxx19986vectorIS6_S7_EEEC2Em = comdat any

$_ZN11__gnu_debug14_Safe_sequenceINSt7__debug6vectorINS2_ISt4pairIiiESaIS4_EEESaIS6_EEEEC2Ev = comdat any

$_ZNSt9__cxx199812_Vector_baseINSt7__debug6vectorISt4pairIiiESaIS4_EEESaIS6_EEC2EmRKS7_ = comdat any

$_ZNSt9__cxx19986vectorINSt7__debug6vectorISt4pairIiiESaIS4_EEESaIS6_EE21_M_default_initializeEm = comdat any

$_ZNSt9__cxx199812_Vector_baseINSt7__debug6vectorISt4pairIiiESaIS4_EEESaIS6_EE12_Vector_implC2ERKS7_ = comdat any

$_ZNSt9__cxx199812_Vector_baseINSt7__debug6vectorISt4pairIiiESaIS4_EEESaIS6_EE17_M_create_storageEm = comdat any

$_ZNSaINSt7__debug6vectorISt4pairIiiESaIS2_EEEEC2ERKS5_ = comdat any

$_ZN9__gnu_cxx13new_allocatorINSt7__debug6vectorISt4pairIiiESaIS4_EEEEC2ERKS7_ = comdat any

$_ZNSt9__cxx199812_Vector_baseINSt7__debug6vectorISt4pairIiiESaIS4_EEESaIS6_EE11_M_allocateEm = comdat any

$_ZNSt16allocator_traitsISaINSt7__debug6vectorISt4pairIiiESaIS3_EEEEE8allocateERS6_m = comdat any

$_ZN9__gnu_cxx13new_allocatorINSt7__debug6vectorISt4pairIiiESaIS4_EEEE8allocateEmPKv = comdat any

$_ZNK9__gnu_cxx13new_allocatorINSt7__debug6vectorISt4pairIiiESaIS4_EEEE8max_sizeEv = comdat any

$_ZSt27__uninitialized_default_n_aIPNSt7__debug6vectorISt4pairIiiESaIS3_EEEmS5_ET_S7_T0_RSaIT1_E = comdat any

$_ZSt25__uninitialized_default_nIPNSt7__debug6vectorISt4pairIiiESaIS3_EEEmET_S7_T0_ = comdat any

$_ZNSt27__uninitialized_default_n_1ILb0EE18__uninit_default_nIPNSt7__debug6vectorISt4pairIiiESaIS5_EEEmEET_S9_T0_ = comdat any

$_ZSt10_ConstructINSt7__debug6vectorISt4pairIiiESaIS3_EEEJEEvPT_DpOT0_ = comdat any

$_ZNSt7__debug6vectorISt4pairIiiESaIS2_EEC2Ev = comdat any

$_ZN11__gnu_debug15_Safe_containerINSt7__debug6vectorISt4pairIiiESaIS4_EEES5_NS_14_Safe_sequenceELb1EEC2Ev = comdat any

$_ZNSt9__cxx19986vectorISt4pairIiiESaIS2_EEC2Ev = comdat any

$_ZN11__gnu_debug12_Safe_vectorINSt7__debug6vectorISt4pairIiiESaIS4_EEENSt9__cxx19986vectorIS4_S5_EEEC2Ev = comdat any

$_ZN11__gnu_debug14_Safe_sequenceINSt7__debug6vectorISt4pairIiiESaIS4_EEEEC2Ev = comdat any

$_ZNSt9__cxx199812_Vector_baseISt4pairIiiESaIS2_EEC2Ev = comdat any

$_ZNSt9__cxx199812_Vector_baseISt4pairIiiESaIS2_EE12_Vector_implC2Ev = comdat any

$_ZNSaISt4pairIiiEEC2Ev = comdat any

$_ZN9__gnu_cxx13new_allocatorISt4pairIiiEEC2Ev = comdat any

$_ZN11__gnu_debug12_Safe_vectorINSt7__debug6vectorISt4pairIiiESaIS4_EEENSt9__cxx19986vectorIS4_S5_EEE29_M_update_guaranteed_capacityEv = comdat any

$_ZNK11__gnu_debug12_Safe_vectorINSt7__debug6vectorISt4pairIiiESaIS4_EEENSt9__cxx19986vectorIS4_S5_EEE6_M_seqEv = comdat any

$_ZNKSt9__cxx19986vectorISt4pairIiiESaIS2_EE4sizeEv = comdat any

$_ZNKSt9__cxx19986vectorINSt7__debug6vectorISt4pairIiiESaIS4_EEESaIS6_EE4sizeEv = comdat any

$_ZNK11__gnu_debug16_Error_formatter11_M_sequenceINSt7__debug6vectorINS3_ISt4pairIiiESaIS5_EEESaIS7_EEEEERKS0_RKT_PKc = comdat any

$_ZNSt7__debug6vectorINS0_ISt4pairIiiESaIS2_EEESaIS4_EE7_M_baseEv = comdat any

$_ZNSt9__cxx19986vectorINSt7__debug6vectorISt4pairIiiESaIS4_EEESaIS6_EEixEm = comdat any

$_ZN11__gnu_debug16_Error_formatter10_ParameterC2INSt7__debug6vectorINS4_ISt4pairIiiESaIS6_EEESaIS8_EEEEERKT_PKcNS0_12_Is_sequenceE = comdat any

$_ZNSt7__debug6vectorISt4pairIiiESaIS2_EE12emplace_backIJS2_EEEvDpOT_ = comdat any

$_ZSt4moveIRSt4pairIiiEEONSt16remove_referenceIT_E4typeEOS4_ = comdat any

$_ZNK11__gnu_debug12_Safe_vectorINSt7__debug6vectorISt4pairIiiESaIS4_EEENSt9__cxx19986vectorIS4_S5_EEE24_M_requires_reallocationEm = comdat any

$_ZNSt9__cxx19986vectorISt4pairIiiESaIS2_EE12emplace_backIJS2_EEEvDpOT_ = comdat any

$_ZSt7forwardISt4pairIiiEEOT_RNSt16remove_referenceIS2_E4typeE = comdat any

$_ZNK11__gnu_debug19_Safe_sequence_base17_M_invalidate_allEv = comdat any

$_ZNKSt7__debug6vectorISt4pairIiiESaIS2_EE8capacityEv = comdat any

$_ZNKSt9__cxx19986vectorISt4pairIiiESaIS2_EE8capacityEv = comdat any

$_ZNSt16allocator_traitsISaISt4pairIiiEEE9constructIS1_JS1_EEEvRS2_PT_DpOT0_ = comdat any

$_ZNSt9__cxx19986vectorISt4pairIiiESaIS2_EE19_M_emplace_back_auxIJS2_EEEvDpOT_ = comdat any

$_ZN9__gnu_cxx13new_allocatorISt4pairIiiEE9constructIS2_JS2_EEEvPT_DpOT0_ = comdat any

$_ZNKSt9__cxx19986vectorISt4pairIiiESaIS2_EE12_M_check_lenEmPKc = comdat any

$_ZNSt9__cxx199812_Vector_baseISt4pairIiiESaIS2_EE11_M_allocateEm = comdat any

$_ZSt34__uninitialized_move_if_noexcept_aIPSt4pairIiiES2_SaIS1_EET0_T_S5_S4_RT1_ = comdat any

$_ZNSt16allocator_traitsISaISt4pairIiiEEE7destroyIS1_EEvRS2_PT_ = comdat any

$_ZNKSt9__cxx19986vectorISt4pairIiiESaIS2_EE8max_sizeEv = comdat any

$_ZNSt16allocator_traitsISaISt4pairIiiEEE8max_sizeERKS2_ = comdat any

$_ZNKSt9__cxx199812_Vector_baseISt4pairIiiESaIS2_EE19_M_get_Tp_allocatorEv = comdat any

$_ZNK9__gnu_cxx13new_allocatorISt4pairIiiEE8max_sizeEv = comdat any

$_ZNSt16allocator_traitsISaISt4pairIiiEEE8allocateERS2_m = comdat any

$_ZN9__gnu_cxx13new_allocatorISt4pairIiiEE8allocateEmPKv = comdat any

$_ZSt22__uninitialized_copy_aISt13move_iteratorIPSt4pairIiiEES3_S2_ET0_T_S6_S5_RSaIT1_E = comdat any

$_ZSt32__make_move_if_noexcept_iteratorIPSt4pairIiiESt13move_iteratorIS2_EET0_T_ = comdat any

$_ZSt18uninitialized_copyISt13move_iteratorIPSt4pairIiiEES3_ET0_T_S6_S5_ = comdat any

$_ZNSt20__uninitialized_copyILb0EE13__uninit_copyISt13move_iteratorIPSt4pairIiiEES5_EET0_T_S8_S7_ = comdat any

$_ZStneIPSt4pairIiiEEbRKSt13move_iteratorIT_ES7_ = comdat any

$_ZSt10_ConstructISt4pairIiiEJS1_EEvPT_DpOT0_ = comdat any

$_ZSt11__addressofISt4pairIiiEEPT_RS2_ = comdat any

$_ZNKSt13move_iteratorIPSt4pairIiiEEdeEv = comdat any

$_ZNSt13move_iteratorIPSt4pairIiiEEppEv = comdat any

$_ZSteqIPSt4pairIiiEEbRKSt13move_iteratorIT_ES7_ = comdat any

$_ZNKSt13move_iteratorIPSt4pairIiiEE4baseEv = comdat any

$_ZNSt13move_iteratorIPSt4pairIiiEEC2ES2_ = comdat any

$_ZN9__gnu_cxx13new_allocatorISt4pairIiiEE7destroyIS2_EEvPT_ = comdat any

$_ZN9__gnu_cxx13new_allocatorINSt7__debug6vectorIiSaIiEEEEC2Ev = comdat any

$_ZN11__gnu_debug15_Safe_containerINSt7__debug6vectorINS2_IiSaIiEEESaIS4_EEES5_NS_14_Safe_sequenceELb1EEC2Ev = comdat any

$_ZNSt9__cxx19986vectorINSt7__debug6vectorIiSaIiEEESaIS4_EEC2EmRKS4_RKS5_ = comdat any

$_ZN11__gnu_debug12_Safe_vectorINSt7__debug6vectorINS2_IiSaIiEEESaIS4_EEENSt9__cxx19986vectorIS4_S5_EEEC2Ev = comdat any

$_ZN11__gnu_debug14_Safe_sequenceINSt7__debug6vectorINS2_IiSaIiEEESaIS4_EEEEC2Ev = comdat any

$_ZNSt9__cxx199812_Vector_baseINSt7__debug6vectorIiSaIiEEESaIS4_EEC2EmRKS5_ = comdat any

$_ZNSt9__cxx19986vectorINSt7__debug6vectorIiSaIiEEESaIS4_EE18_M_fill_initializeEmRKS4_ = comdat any

$_ZNSt9__cxx199812_Vector_baseINSt7__debug6vectorIiSaIiEEESaIS4_EE12_Vector_implC2ERKS5_ = comdat any

$_ZNSt9__cxx199812_Vector_baseINSt7__debug6vectorIiSaIiEEESaIS4_EE17_M_create_storageEm = comdat any

$_ZNSaINSt7__debug6vectorIiSaIiEEEEC2ERKS3_ = comdat any

$_ZN9__gnu_cxx13new_allocatorINSt7__debug6vectorIiSaIiEEEEC2ERKS5_ = comdat any

$_ZNSt9__cxx199812_Vector_baseINSt7__debug6vectorIiSaIiEEESaIS4_EE11_M_allocateEm = comdat any

$_ZNSt16allocator_traitsISaINSt7__debug6vectorIiSaIiEEEEE8allocateERS4_m = comdat any

$_ZN9__gnu_cxx13new_allocatorINSt7__debug6vectorIiSaIiEEEE8allocateEmPKv = comdat any

$_ZNK9__gnu_cxx13new_allocatorINSt7__debug6vectorIiSaIiEEEE8max_sizeEv = comdat any

$_ZSt24__uninitialized_fill_n_aIPNSt7__debug6vectorIiSaIiEEEmS3_S3_ET_S5_T0_RKT1_RSaIT2_E = comdat any

$_ZSt20uninitialized_fill_nIPNSt7__debug6vectorIiSaIiEEEmS3_ET_S5_T0_RKT1_ = comdat any

$_ZNSt22__uninitialized_fill_nILb0EE15__uninit_fill_nIPNSt7__debug6vectorIiSaIiEEEmS5_EET_S7_T0_RKT1_ = comdat any

$_ZSt10_ConstructINSt7__debug6vectorIiSaIiEEEJRKS3_EEvPT_DpOT0_ = comdat any

$_ZSt7forwardIRKNSt7__debug6vectorIiSaIiEEEEOT_RNSt16remove_referenceIS6_E4typeE = comdat any

$_ZNSt7__debug6vectorIiSaIiEEC2ERKS2_ = comdat any

$_ZN11__gnu_debug15_Safe_containerINSt7__debug6vectorIiSaIiEEES3_NS_14_Safe_sequenceELb1EEC2ERKS6_ = comdat any

$_ZNSt9__cxx19986vectorIiSaIiEEC2ERKS2_ = comdat any

$_ZN11__gnu_debug12_Safe_vectorINSt7__debug6vectorIiSaIiEEENSt9__cxx19986vectorIiS3_EEEC2ERKS8_ = comdat any

$_ZN11__gnu_debug14_Safe_sequenceINSt7__debug6vectorIiSaIiEEEEC2ERKS5_ = comdat any

$_ZN11__gnu_debug19_Safe_sequence_baseC2ERKS0_ = comdat any

$_ZN9__gnu_cxx14__alloc_traitsISaIiEE17_S_select_on_copyERKS1_ = comdat any

$_ZNKSt9__cxx199812_Vector_baseIiSaIiEE19_M_get_Tp_allocatorEv = comdat any

$_ZSt22__uninitialized_copy_aIN9__gnu_cxx17__normal_iteratorIPKiNSt9__cxx19986vectorIiSaIiEEEEEPiiET0_T_SB_SA_RSaIT1_E = comdat any

$_ZNKSt9__cxx19986vectorIiSaIiEE5beginEv = comdat any

$_ZNKSt9__cxx19986vectorIiSaIiEE3endEv = comdat any

$_ZNSt16allocator_traitsISaIiEE37select_on_container_copy_constructionERKS0_ = comdat any

$_ZNSaIiEC2ERKS_ = comdat any

$_ZSt18uninitialized_copyIN9__gnu_cxx17__normal_iteratorIPKiNSt9__cxx19986vectorIiSaIiEEEEEPiET0_T_SB_SA_ = comdat any

$_ZNSt20__uninitialized_copyILb1EE13__uninit_copyIN9__gnu_cxx17__normal_iteratorIPKiNSt9__cxx19986vectorIiSaIiEEEEEPiEET0_T_SD_SC_ = comdat any

$_ZSt4copyIN9__gnu_cxx17__normal_iteratorIPKiNSt9__cxx19986vectorIiSaIiEEEEEPiET0_T_SB_SA_ = comdat any

$_ZN11__gnu_debug13__valid_rangeIN9__gnu_cxx17__normal_iteratorIPKiNSt9__cxx19986vectorIiSaIiEEEEEEEbRKT_SC_ = comdat any

$_ZNK11__gnu_debug16_Error_formatter11_M_iteratorIN9__gnu_cxx17__normal_iteratorIPKiNSt9__cxx19986vectorIiSaIiEEEEEEERKS0_RKT_PKc = comdat any

$_ZSt14__copy_move_a2ILb0EN9__gnu_cxx17__normal_iteratorIPKiNSt9__cxx19986vectorIiSaIiEEEEEPiET1_T0_SB_SA_ = comdat any

$_ZSt12__miter_baseIN9__gnu_cxx17__normal_iteratorIPKiNSt9__cxx19986vectorIiSaIiEEEEEENSt11_Miter_baseIT_E13iterator_typeESA_ = comdat any

$_ZN11__gnu_debug17__valid_range_auxIN9__gnu_cxx17__normal_iteratorIPKiNSt9__cxx19986vectorIiSaIiEEEEEEEbRKT_SC_St12__false_type = comdat any

$_ZN11__gnu_debug18__valid_range_aux2IN9__gnu_cxx17__normal_iteratorIPKiNSt9__cxx19986vectorIiSaIiEEEEEEEbRKT_SC_St26random_access_iterator_tag = comdat any

$_ZSt19__iterator_categoryIN9__gnu_cxx17__normal_iteratorIPKiNSt9__cxx19986vectorIiSaIiEEEEEENSt15iterator_traitsIT_E17iterator_categoryERKSA_ = comdat any

$_ZN9__gnu_cxxmiIPKiNSt9__cxx19986vectorIiSaIiEEEEENS_17__normal_iteratorIT_T0_E15difference_typeERKSA_SD_ = comdat any

$_ZNK9__gnu_cxx17__normal_iteratorIPKiNSt9__cxx19986vectorIiSaIiEEEE4baseEv = comdat any

$_ZN11__gnu_debug16_Error_formatter10_ParameterC2IN9__gnu_cxx17__normal_iteratorIPKiNSt9__cxx19986vectorIiSaIiEEEEEEERKT_PKcNS0_12_Is_iteratorE = comdat any

$_ZN11__gnu_debug16__check_singularIN9__gnu_cxx17__normal_iteratorIPKiNSt9__cxx19986vectorIiSaIiEEEEEEEbRKT_ = comdat any

$_ZN11__gnu_debug20__check_singular_auxEPKv = comdat any

$_ZSt13__copy_move_aILb0EPKiPiET1_T0_S4_S3_ = comdat any

$_ZSt12__niter_baseIN9__gnu_cxx17__normal_iteratorIPKiNSt9__cxx19986vectorIiSaIiEEEEEENSt11_Niter_baseIT_E13iterator_typeESA_ = comdat any

$_ZNSt11__copy_moveILb0ELb1ESt26random_access_iterator_tagE8__copy_mIiEEPT_PKS3_S6_S4_ = comdat any

$_ZNSt10_Iter_baseIN9__gnu_cxx17__normal_iteratorIPKiNSt9__cxx19986vectorIiSaIiEEEEELb1EE7_S_baseES8_ = comdat any

$_ZNSt10_Iter_baseIN9__gnu_cxx17__normal_iteratorIPKiNSt9__cxx19986vectorIiSaIiEEEEELb0EE7_S_baseES8_ = comdat any

$_ZN9__gnu_cxx17__normal_iteratorIPKiNSt9__cxx19986vectorIiSaIiEEEEC2ERKS2_ = comdat any

$_ZN11__gnu_debug12_Safe_vectorINSt7__debug6vectorIiSaIiEEENSt9__cxx19986vectorIiS3_EEE29_M_update_guaranteed_capacityEv = comdat any

$_ZNK11__gnu_debug12_Safe_vectorINSt7__debug6vectorIiSaIiEEENSt9__cxx19986vectorIiS3_EEE6_M_seqEv = comdat any

$_ZN11__gnu_debug12_Safe_vectorINSt7__debug6vectorINS2_IiSaIiEEESaIS4_EEENSt9__cxx19986vectorIS4_S5_EEE29_M_update_guaranteed_capacityEv = comdat any

$_ZNK11__gnu_debug12_Safe_vectorINSt7__debug6vectorINS2_IiSaIiEEESaIS4_EEENSt9__cxx19986vectorIS4_S5_EEE6_M_seqEv = comdat any

$_ZNKSt9__cxx19986vectorINSt7__debug6vectorIiSaIiEEESaIS4_EE4sizeEv = comdat any

$_ZSt4moveIRNSt7__debug5dequeIiSaIiEEEEONSt16remove_referenceIT_E4typeEOS6_ = comdat any

$_ZNSt7__debug5dequeIiSaIiEEC2EOS2_ = comdat any

$_ZN11__gnu_debug15_Safe_containerINSt7__debug5dequeIiSaIiEEES3_NS_14_Safe_sequenceELb1EEC2EOS6_ = comdat any

$_ZNSt9__cxx19985dequeIiSaIiEEC2EOS2_ = comdat any

$_ZSt4moveIRNSt9__cxx19985dequeIiSaIiEEEEONSt16remove_referenceIT_E4typeEOS6_ = comdat any

$_ZNSt9__cxx199811_Deque_baseIiSaIiEEC2EOS2_ = comdat any

$_ZSt4moveIRNSt9__cxx199811_Deque_baseIiSaIiEEEEONSt16remove_referenceIT_E4typeEOS6_ = comdat any

$_ZNSt9__cxx199811_Deque_baseIiSaIiEEC2EOS2_St17integral_constantIbLb1EE = comdat any

$_ZSt4moveIRSaIiEEONSt16remove_referenceIT_E4typeEOS3_ = comdat any

$_ZNSt9__cxx199811_Deque_baseIiSaIiEE11_Deque_implC2EOS1_ = comdat any

$_ZNSt9__cxx199811_Deque_baseIiSaIiEE11_Deque_impl12_M_swap_dataERS3_ = comdat any

$_ZSt4swapINSt9__cxx199815_Deque_iteratorIiRiPiEEEvRT_S6_ = comdat any

$_ZSt4swapIPPiEvRT_S3_ = comdat any

$_ZSt4swapImEvRT_S1_ = comdat any

$_ZSt4moveIRNSt9__cxx199815_Deque_iteratorIiRiPiEEEONSt16remove_referenceIT_E4typeEOS7_ = comdat any

$_ZSt4moveIRPPiEONSt16remove_referenceIT_E4typeEOS4_ = comdat any

$_ZSt4moveIRmEONSt16remove_referenceIT_E4typeEOS2_ = comdat any

$_ZNSt7__debug5dequeIiSaIiEE9push_backERKi = comdat any

$_ZNSt9__cxx19985dequeIiSaIiEE9push_backERKi = comdat any

$_ZNSt16allocator_traitsISaIiEE9constructIiJRKiEEEvRS0_PT_DpOT0_ = comdat any

$_ZNSt9__cxx19985dequeIiSaIiEE16_M_push_back_auxIJRKiEEEvDpOT_ = comdat any

$_ZN9__gnu_cxx13new_allocatorIiE9constructIiJRKiEEEvPT_DpOT0_ = comdat any

$_ZSt7forwardIRKiEOT_RNSt16remove_referenceIS2_E4typeE = comdat any

$_ZNSt9__cxx19985dequeIiSaIiEE22_M_reserve_map_at_backEm = comdat any

$_ZNSt9__cxx19985dequeIiSaIiEE17_M_reallocate_mapEmb = comdat any

$_ZSt4copyIPPiS1_ET0_T_S3_S2_ = comdat any

$_ZSt13copy_backwardIPPiS1_ET0_T_S3_S2_ = comdat any

$_ZN11__gnu_debug13__valid_rangeIPPiEEbRKT_S5_ = comdat any

$_ZNK11__gnu_debug16_Error_formatter11_M_iteratorIPPiEERKS0_RKT_PKc = comdat any

$_ZSt14__copy_move_a2ILb0EPPiS1_ET1_T0_S3_S2_ = comdat any

$_ZSt12__miter_baseIPPiENSt11_Miter_baseIT_E13iterator_typeES3_ = comdat any

$_ZN11__gnu_debug17__valid_range_auxIPPiEEbRKT_S5_St12__false_type = comdat any

$_ZN11__gnu_debug18__valid_range_aux2IPPiEEbRKT_S5_St26random_access_iterator_tag = comdat any

$_ZSt19__iterator_categoryIPPiENSt15iterator_traitsIT_E17iterator_categoryERKS3_ = comdat any

$_ZN11__gnu_debug16_Error_formatter10_ParameterC2IPPiEERKT_PKcNS0_12_Is_iteratorE = comdat any

$_ZN11__gnu_debug16__check_singularIPPiEEbRKT_ = comdat any

$_ZSt13__copy_move_aILb0EPPiS1_ET1_T0_S3_S2_ = comdat any

$_ZSt12__niter_baseIPPiENSt11_Niter_baseIT_E13iterator_typeES3_ = comdat any

$_ZNSt11__copy_moveILb0ELb1ESt26random_access_iterator_tagE8__copy_mIPiEEPT_PKS4_S7_S5_ = comdat any

$_ZNSt10_Iter_baseIPPiLb0EE7_S_baseES1_ = comdat any

$_ZSt23__copy_move_backward_a2ILb0EPPiS1_ET1_T0_S3_S2_ = comdat any

$_ZSt22__copy_move_backward_aILb0EPPiS1_ET1_T0_S3_S2_ = comdat any

$_ZNSt20__copy_move_backwardILb0ELb1ESt26random_access_iterator_tagE13__copy_move_bIPiEEPT_PKS4_S7_S5_ = comdat any

$_ZNSt9__cxx19986vectorIiSaIiEEC2EmRKiRKS1_ = comdat any

$_ZN11__gnu_debug12_Safe_vectorINSt7__debug6vectorIiSaIiEEENSt9__cxx19986vectorIiS3_EEEC2Ev = comdat any

$_ZNSt9__cxx19986vectorIiSaIiEE18_M_fill_initializeEmRKi = comdat any

$_ZSt24__uninitialized_fill_n_aIPimiiET_S1_T0_RKT1_RSaIT2_E = comdat any

$_ZSt20uninitialized_fill_nIPimiET_S1_T0_RKT1_ = comdat any

$_ZNSt22__uninitialized_fill_nILb1EE15__uninit_fill_nIPimiEET_S3_T0_RKT1_ = comdat any

$_ZNKSt9__cxx19985dequeIiSaIiEE5emptyEv = comdat any

$_ZNSt9__cxx1998eqIiRiPiEEbRKNS_15_Deque_iteratorIT_T0_T1_EES9_ = comdat any

$_ZNK11__gnu_debug16_Error_formatter11_M_sequenceISt5queueIiNSt7__debug5dequeIiSaIiEEEEEERKS0_RKT_PKc = comdat any

$_ZNSt7__debug5dequeIiSaIiEE5frontEv = comdat any

$_ZN11__gnu_debug16_Error_formatter10_ParameterC2ISt5queueIiNSt7__debug5dequeIiSaIiEEEEEERKT_PKcNS0_12_Is_sequenceE = comdat any

$_ZNK11__gnu_debug16_Error_formatter11_M_sequenceINSt7__debug5dequeIiSaIiEEEEERKS0_RKT_PKc = comdat any

$_ZNSt9__cxx19985dequeIiSaIiEE5frontEv = comdat any

$_ZN11__gnu_debug16_Error_formatter10_ParameterC2INSt7__debug5dequeIiSaIiEEEEERKT_PKcNS0_12_Is_sequenceE = comdat any

$_ZNKSt9__cxx199815_Deque_iteratorIiRiPiEdeEv = comdat any

$_ZNSt7__debug5dequeIiSaIiEE9pop_frontEv = comdat any

$_ZN11__gnu_debug14_Safe_sequenceINSt7__debug5dequeIiSaIiEEEE16_M_invalidate_ifINS_9_Equal_toINSt9__cxx199815_Deque_iteratorIiRKiPSA_EEEEEEvT_ = comdat any

$_ZNSt9__cxx199815_Deque_iteratorIiRKiPS1_EC2ERKNS0_IiRiPiEE = comdat any

$_ZN11__gnu_debug9_Equal_toINSt9__cxx199815_Deque_iteratorIiRKiPS3_EEEC2ERKS6_ = comdat any

$_ZNSt9__cxx19985dequeIiSaIiEE9pop_frontEv = comdat any

$_ZNK11__gnu_debug9_Equal_toINSt9__cxx199815_Deque_iteratorIiRKiPS3_EEEclERKS6_ = comdat any

$_ZN11__gnu_debug14_Safe_iteratorINSt9__cxx199815_Deque_iteratorIiRiPiEENSt7__debug5dequeIiSaIiEEEE4baseEv = comdat any

$_ZN11__gnu_debug19_Safe_iterator_base13_M_invalidateEv = comdat any

$_ZN11__gnu_debug14_Safe_iteratorINSt9__cxx199815_Deque_iteratorIiRKiPS3_EENSt7__debug5dequeIiSaIiEEEE4baseEv = comdat any

$_ZNSt9__cxx1998eqIiRKiPS1_EEbRKNS_15_Deque_iteratorIT_T0_T1_EESA_ = comdat any

$_ZNSt16allocator_traitsISaIiEE7destroyIiEEvRS0_PT_ = comdat any

$_ZNSt9__cxx19985dequeIiSaIiEE16_M_pop_front_auxEv = comdat any

$_ZN9__gnu_cxx13new_allocatorIiE7destroyIiEEvPT_ = comdat any

$_ZNSt9__cxx19986vectorISt4pairIiiESaIS2_EE5beginEv = comdat any

$_ZN11__gnu_debug14_Safe_iteratorIN9__gnu_cxx17__normal_iteratorIPSt4pairIiiENSt9__cxx19986vectorIS4_SaIS4_EEEEENSt7__debug6vectorIS4_S8_EEEC2ERKSA_PKNS_19_Safe_sequence_baseE = comdat any

$_ZN9__gnu_cxx17__normal_iteratorIPSt4pairIiiENSt9__cxx19986vectorIS2_SaIS2_EEEEC2ERKS3_ = comdat any

$_ZNK11__gnu_debug14_Safe_iteratorIN9__gnu_cxx17__normal_iteratorIPSt4pairIiiENSt9__cxx19986vectorIS4_SaIS4_EEEEENSt7__debug6vectorIS4_S8_EEE11_M_constantEv = comdat any

$_ZNK11__gnu_debug16_Error_formatter11_M_iteratorINS_14_Safe_iteratorIN9__gnu_cxx17__normal_iteratorIPSt4pairIiiENSt9__cxx19986vectorIS6_SaIS6_EEEEENSt7__debug6vectorIS6_SA_EEEEEERKS0_RKT_PKc = comdat any

$_ZN11__gnu_debug16_Error_formatter10_ParameterC2IN9__gnu_cxx17__normal_iteratorIPSt4pairIiiENSt9__cxx19986vectorIS6_SaIS6_EEEEENSt7__debug6vectorIS6_SA_EEEERKNS_14_Safe_iteratorIT_T0_EEPKcNS0_12_Is_iteratorE = comdat any

$_ZNK11__gnu_debug14_Safe_iteratorIN9__gnu_cxx17__normal_iteratorIPSt4pairIiiENSt9__cxx19986vectorIS4_SaIS4_EEEEENSt7__debug6vectorIS4_S8_EEE15_M_get_sequenceEv = comdat any

$_ZNK11__gnu_debug14_Safe_iteratorIN9__gnu_cxx17__normal_iteratorIPSt4pairIiiENSt9__cxx19986vectorIS4_SaIS4_EEEEENSt7__debug6vectorIS4_S8_EEE18_M_is_before_beginEv = comdat any

$_ZNK11__gnu_debug14_Safe_iteratorIN9__gnu_cxx17__normal_iteratorIPSt4pairIiiENSt9__cxx19986vectorIS4_SaIS4_EEEEENSt7__debug6vectorIS4_S8_EEE9_M_is_endEv = comdat any

$_ZNK11__gnu_debug14_Safe_iteratorIN9__gnu_cxx17__normal_iteratorIPSt4pairIiiENSt9__cxx19986vectorIS4_SaIS4_EEEEENSt7__debug6vectorIS4_S8_EEE11_M_is_beginEv = comdat any

$_ZN11__gnu_debug18_BeforeBeginHelperINSt7__debug6vectorISt4pairIiiESaIS4_EEEE5_S_IsIN9__gnu_cxx17__normal_iteratorIPS4_NSt9__cxx19986vectorIS4_S5_EEEEEEbRKNS_14_Safe_iteratorIT_S6_EE = comdat any

$_ZN9__gnu_cxxeqIPSt4pairIiiENSt9__cxx19986vectorIS2_SaIS2_EEEEEbRKNS_17__normal_iteratorIT_T0_EESD_ = comdat any

$_ZNK11__gnu_debug14_Safe_iteratorIN9__gnu_cxx17__normal_iteratorIPSt4pairIiiENSt9__cxx19986vectorIS4_SaIS4_EEEEENSt7__debug6vectorIS4_S8_EEE4baseEv = comdat any

$_ZNSt7__debug6vectorISt4pairIiiESaIS2_EE7_M_baseEv = comdat any

$_ZNSt9__cxx19986vectorISt4pairIiiESaIS2_EE3endEv = comdat any

$_ZNK9__gnu_cxx17__normal_iteratorIPSt4pairIiiENSt9__cxx19986vectorIS2_SaIS2_EEEE4baseEv = comdat any

$_ZN9__gnu_cxxneIPSt4pairIiiENSt9__cxx19986vectorIS2_SaIS2_EEEEEbRKNS_17__normal_iteratorIT_T0_EESD_ = comdat any

$_ZNK11__gnu_debug14_Safe_iteratorIN9__gnu_cxx17__normal_iteratorIPSt4pairIiiENSt9__cxx19986vectorIS4_SaIS4_EEEEENSt7__debug6vectorIS4_S8_EEE16_M_incrementableEv = comdat any

$_ZN11__gnu_debug14_Safe_iteratorIN9__gnu_cxx17__normal_iteratorIPSt4pairIiiENSt9__cxx19986vectorIS4_SaIS4_EEEEENSt7__debug6vectorIS4_S8_EEE4baseEv = comdat any

$_ZN9__gnu_cxx17__normal_iteratorIPSt4pairIiiENSt9__cxx19986vectorIS2_SaIS2_EEEEppEv = comdat any

$_ZNK11__gnu_debug14_Safe_iteratorIN9__gnu_cxx17__normal_iteratorIPSt4pairIiiENSt9__cxx19986vectorIS4_SaIS4_EEEEENSt7__debug6vectorIS4_S8_EEE18_M_dereferenceableEv = comdat any

$_ZNK9__gnu_cxx17__normal_iteratorIPSt4pairIiiENSt9__cxx19986vectorIS2_SaIS2_EEEEdeEv = comdat any

$_ZNK11__gnu_debug16_Error_formatter11_M_sequenceINSt7__debug6vectorINS3_IiSaIiEEESaIS5_EEEEERKS0_RKT_PKc = comdat any

$_ZNSt7__debug6vectorINS0_IiSaIiEEESaIS2_EE7_M_baseEv = comdat any

$_ZNSt9__cxx19986vectorINSt7__debug6vectorIiSaIiEEESaIS4_EEixEm = comdat any

$_ZN11__gnu_debug16_Error_formatter10_ParameterC2INSt7__debug6vectorINS4_IiSaIiEEESaIS6_EEEEERKT_PKcNS0_12_Is_sequenceE = comdat any

$_ZSt18__next_permutationIN11__gnu_debug14_Safe_iteratorIN9__gnu_cxx17__normal_iteratorIPiNSt9__cxx19986vectorIiSaIiEEEEENSt7__debug6vectorIiS7_EEEENS2_5__ops15_Iter_less_iterEEbT_SG_T0_ = comdat any

$_ZSt9__reverseIN11__gnu_debug14_Safe_iteratorIN9__gnu_cxx17__normal_iteratorIPiNSt9__cxx19986vectorIiSaIiEEEEENSt7__debug6vectorIiS7_EEEEEvT_SE_St26random_access_iterator_tag = comdat any

$_ZSt19__iterator_categoryIN11__gnu_debug14_Safe_iteratorIN9__gnu_cxx17__normal_iteratorIPiNSt9__cxx19986vectorIiSaIiEEEEENSt7__debug6vectorIiS7_EEEEENSt15iterator_traitsIT_E17iterator_categoryERKSF_ = comdat any

$_ZTSNSt7__debug6vectorIiSaIiEEE = comdat any

$_ZTSN11__gnu_debug15_Safe_containerINSt7__debug6vectorIiSaIiEEES3_NS_14_Safe_sequenceELb1EEE = comdat any

$_ZTSN11__gnu_debug14_Safe_sequenceINSt7__debug6vectorIiSaIiEEEEE = comdat any

$_ZTSN11__gnu_debug19_Safe_sequence_baseE = comdat any

$_ZTIN11__gnu_debug19_Safe_sequence_baseE = comdat any

$_ZTIN11__gnu_debug14_Safe_sequenceINSt7__debug6vectorIiSaIiEEEEE = comdat any

$_ZTIN11__gnu_debug15_Safe_containerINSt7__debug6vectorIiSaIiEEES3_NS_14_Safe_sequenceELb1EEE = comdat any

$_ZTSNSt9__cxx19986vectorIiSaIiEEE = comdat any

$_ZTSNSt9__cxx199812_Vector_baseIiSaIiEEE = comdat any

$_ZTINSt9__cxx199812_Vector_baseIiSaIiEEE = comdat any

$_ZTINSt9__cxx19986vectorIiSaIiEEE = comdat any

$_ZTSN11__gnu_debug12_Safe_vectorINSt7__debug6vectorIiSaIiEEENSt9__cxx19986vectorIiS3_EEEE = comdat any

$_ZTIN11__gnu_debug12_Safe_vectorINSt7__debug6vectorIiSaIiEEENSt9__cxx19986vectorIiS3_EEEE = comdat any

$_ZTINSt7__debug6vectorIiSaIiEEE = comdat any

$_ZTSN11__gnu_debug14_Safe_iteratorIN9__gnu_cxx17__normal_iteratorIPiNSt9__cxx19986vectorIiSaIiEEEEENSt7__debug6vectorIiS6_EEEE = comdat any

$_ZTSN9__gnu_cxx17__normal_iteratorIPiNSt9__cxx19986vectorIiSaIiEEEEE = comdat any

$_ZTIN9__gnu_cxx17__normal_iteratorIPiNSt9__cxx19986vectorIiSaIiEEEEE = comdat any

$_ZTSN11__gnu_debug19_Safe_iterator_baseE = comdat any

$_ZTIN11__gnu_debug19_Safe_iterator_baseE = comdat any

$_ZTIN11__gnu_debug14_Safe_iteratorIN9__gnu_cxx17__normal_iteratorIPiNSt9__cxx19986vectorIiSaIiEEEEENSt7__debug6vectorIiS6_EEEE = comdat any

$_ZTSN9__gnu_cxx24__concurrence_lock_errorE = comdat any

$_ZTIN9__gnu_cxx24__concurrence_lock_errorE = comdat any

$_ZTVN9__gnu_cxx24__concurrence_lock_errorE = comdat any

$_ZTSN9__gnu_cxx26__concurrence_unlock_errorE = comdat any

$_ZTIN9__gnu_cxx26__concurrence_unlock_errorE = comdat any

$_ZTVN9__gnu_cxx26__concurrence_unlock_errorE = comdat any

$_ZTSNSt7__debug6vectorINS0_ISt4pairIiiESaIS2_EEESaIS4_EEE = comdat any

$_ZTSN11__gnu_debug15_Safe_containerINSt7__debug6vectorINS2_ISt4pairIiiESaIS4_EEESaIS6_EEES7_NS_14_Safe_sequenceELb1EEE = comdat any

$_ZTSN11__gnu_debug14_Safe_sequenceINSt7__debug6vectorINS2_ISt4pairIiiESaIS4_EEESaIS6_EEEEE = comdat any

$_ZTIN11__gnu_debug14_Safe_sequenceINSt7__debug6vectorINS2_ISt4pairIiiESaIS4_EEESaIS6_EEEEE = comdat any

$_ZTIN11__gnu_debug15_Safe_containerINSt7__debug6vectorINS2_ISt4pairIiiESaIS4_EEESaIS6_EEES7_NS_14_Safe_sequenceELb1EEE = comdat any

$_ZTSNSt9__cxx19986vectorINSt7__debug6vectorISt4pairIiiESaIS4_EEESaIS6_EEE = comdat any

$_ZTSNSt9__cxx199812_Vector_baseINSt7__debug6vectorISt4pairIiiESaIS4_EEESaIS6_EEE = comdat any

$_ZTINSt9__cxx199812_Vector_baseINSt7__debug6vectorISt4pairIiiESaIS4_EEESaIS6_EEE = comdat any

$_ZTINSt9__cxx19986vectorINSt7__debug6vectorISt4pairIiiESaIS4_EEESaIS6_EEE = comdat any

$_ZTSN11__gnu_debug12_Safe_vectorINSt7__debug6vectorINS2_ISt4pairIiiESaIS4_EEESaIS6_EEENSt9__cxx19986vectorIS6_S7_EEEE = comdat any

$_ZTIN11__gnu_debug12_Safe_vectorINSt7__debug6vectorINS2_ISt4pairIiiESaIS4_EEESaIS6_EEENSt9__cxx19986vectorIS6_S7_EEEE = comdat any

$_ZTINSt7__debug6vectorINS0_ISt4pairIiiESaIS2_EEESaIS4_EEE = comdat any

$_ZTSN9__gnu_cxx17__normal_iteratorIPKiNSt9__cxx19986vectorIiSaIiEEEEE = comdat any

$_ZTIN9__gnu_cxx17__normal_iteratorIPKiNSt9__cxx19986vectorIiSaIiEEEEE = comdat any

$_ZTSPPi = comdat any

$_ZTIPPi = comdat any

$_ZTSSt5queueIiNSt7__debug5dequeIiSaIiEEEE = comdat any

$_ZTISt5queueIiNSt7__debug5dequeIiSaIiEEEE = comdat any

$_ZTSNSt7__debug5dequeIiSaIiEEE = comdat any

$_ZTSN11__gnu_debug15_Safe_containerINSt7__debug5dequeIiSaIiEEES3_NS_14_Safe_sequenceELb1EEE = comdat any

$_ZTSN11__gnu_debug14_Safe_sequenceINSt7__debug5dequeIiSaIiEEEEE = comdat any

$_ZTIN11__gnu_debug14_Safe_sequenceINSt7__debug5dequeIiSaIiEEEEE = comdat any

$_ZTIN11__gnu_debug15_Safe_containerINSt7__debug5dequeIiSaIiEEES3_NS_14_Safe_sequenceELb1EEE = comdat any

$_ZTSNSt9__cxx19985dequeIiSaIiEEE = comdat any

$_ZTSNSt9__cxx199811_Deque_baseIiSaIiEEE = comdat any

$_ZTINSt9__cxx199811_Deque_baseIiSaIiEEE = comdat any

$_ZTINSt9__cxx19985dequeIiSaIiEEE = comdat any

$_ZTINSt7__debug5dequeIiSaIiEEE = comdat any

$_ZTSN11__gnu_debug14_Safe_iteratorIN9__gnu_cxx17__normal_iteratorIPSt4pairIiiENSt9__cxx19986vectorIS4_SaIS4_EEEEENSt7__debug6vectorIS4_S8_EEEE = comdat any

$_ZTSN9__gnu_cxx17__normal_iteratorIPSt4pairIiiENSt9__cxx19986vectorIS2_SaIS2_EEEEE = comdat any

$_ZTIN9__gnu_cxx17__normal_iteratorIPSt4pairIiiENSt9__cxx19986vectorIS2_SaIS2_EEEEE = comdat any

$_ZTIN11__gnu_debug14_Safe_iteratorIN9__gnu_cxx17__normal_iteratorIPSt4pairIiiENSt9__cxx19986vectorIS4_SaIS4_EEEEENSt7__debug6vectorIS4_S8_EEEE = comdat any

$_ZTSNSt7__debug6vectorISt4pairIiiESaIS2_EEE = comdat any

$_ZTSN11__gnu_debug15_Safe_containerINSt7__debug6vectorISt4pairIiiESaIS4_EEES5_NS_14_Safe_sequenceELb1EEE = comdat any

$_ZTSN11__gnu_debug14_Safe_sequenceINSt7__debug6vectorISt4pairIiiESaIS4_EEEEE = comdat any

$_ZTIN11__gnu_debug14_Safe_sequenceINSt7__debug6vectorISt4pairIiiESaIS4_EEEEE = comdat any

$_ZTIN11__gnu_debug15_Safe_containerINSt7__debug6vectorISt4pairIiiESaIS4_EEES5_NS_14_Safe_sequenceELb1EEE = comdat any

$_ZTSNSt9__cxx19986vectorISt4pairIiiESaIS2_EEE = comdat any

$_ZTSNSt9__cxx199812_Vector_baseISt4pairIiiESaIS2_EEE = comdat any

$_ZTINSt9__cxx199812_Vector_baseISt4pairIiiESaIS2_EEE = comdat any

$_ZTINSt9__cxx19986vectorISt4pairIiiESaIS2_EEE = comdat any

$_ZTSN11__gnu_debug12_Safe_vectorINSt7__debug6vectorISt4pairIiiESaIS4_EEENSt9__cxx19986vectorIS4_S5_EEEE = comdat any

$_ZTIN11__gnu_debug12_Safe_vectorINSt7__debug6vectorISt4pairIiiESaIS4_EEENSt9__cxx19986vectorIS4_S5_EEEE = comdat any

$_ZTINSt7__debug6vectorISt4pairIiiESaIS2_EEE = comdat any

$_ZTSNSt7__debug6vectorINS0_IiSaIiEEESaIS2_EEE = comdat any

$_ZTSN11__gnu_debug15_Safe_containerINSt7__debug6vectorINS2_IiSaIiEEESaIS4_EEES5_NS_14_Safe_sequenceELb1EEE = comdat any

$_ZTSN11__gnu_debug14_Safe_sequenceINSt7__debug6vectorINS2_IiSaIiEEESaIS4_EEEEE = comdat any

$_ZTIN11__gnu_debug14_Safe_sequenceINSt7__debug6vectorINS2_IiSaIiEEESaIS4_EEEEE = comdat any

$_ZTIN11__gnu_debug15_Safe_containerINSt7__debug6vectorINS2_IiSaIiEEESaIS4_EEES5_NS_14_Safe_sequenceELb1EEE = comdat any

$_ZTSNSt9__cxx19986vectorINSt7__debug6vectorIiSaIiEEESaIS4_EEE = comdat any

$_ZTSNSt9__cxx199812_Vector_baseINSt7__debug6vectorIiSaIiEEESaIS4_EEE = comdat any

$_ZTINSt9__cxx199812_Vector_baseINSt7__debug6vectorIiSaIiEEESaIS4_EEE = comdat any

$_ZTINSt9__cxx19986vectorINSt7__debug6vectorIiSaIiEEESaIS4_EEE = comdat any

$_ZTSN11__gnu_debug12_Safe_vectorINSt7__debug6vectorINS2_IiSaIiEEESaIS4_EEENSt9__cxx19986vectorIS4_S5_EEEE = comdat any

$_ZTIN11__gnu_debug12_Safe_vectorINSt7__debug6vectorINS2_IiSaIiEEESaIS4_EEENSt9__cxx19986vectorIS4_S5_EEEE = comdat any

$_ZTINSt7__debug6vectorINS0_IiSaIiEEESaIS2_EEE = comdat any

@_ZStL8__ioinit = internal global %"class.std::ios_base::Init" zeroinitializer, align 1
@__dso_handle = external global i8
@_ZSt3cin = external global %"class.std::basic_istream", align 8
@_ZSt4cout = external global %"class.std::basic_ostream", align 8
@.str = private unnamed_addr constant [79 x i8] c"/usr/lib/gcc/x86_64-linux-gnu/5.4.0/../../../../include/c++/5.4.0/debug/vector\00", align 1
@.str.1 = private unnamed_addr constant [5 x i8] c"this\00", align 1
@.str.2 = private unnamed_addr constant [4 x i8] c"__n\00", align 1
@.str.3 = private unnamed_addr constant [5 x i8] c"size\00", align 1
@_ZTVN10__cxxabiv121__vmi_class_type_infoE = external global i8*
@_ZTSNSt7__debug6vectorIiSaIiEEE = linkonce_odr constant [28 x i8] c"NSt7__debug6vectorIiSaIiEEE\00", comdat
@_ZTVN10__cxxabiv120__si_class_type_infoE = external global i8*
@_ZTSN11__gnu_debug15_Safe_containerINSt7__debug6vectorIiSaIiEEES3_NS_14_Safe_sequenceELb1EEE = linkonce_odr constant [89 x i8] c"N11__gnu_debug15_Safe_containerINSt7__debug6vectorIiSaIiEEES3_NS_14_Safe_sequenceELb1EEE\00", comdat
@_ZTSN11__gnu_debug14_Safe_sequenceINSt7__debug6vectorIiSaIiEEEEE = linkonce_odr constant [61 x i8] c"N11__gnu_debug14_Safe_sequenceINSt7__debug6vectorIiSaIiEEEEE\00", comdat
@_ZTVN10__cxxabiv117__class_type_infoE = external global i8*
@_ZTSN11__gnu_debug19_Safe_sequence_baseE = linkonce_odr constant [37 x i8] c"N11__gnu_debug19_Safe_sequence_baseE\00", comdat
@_ZTIN11__gnu_debug19_Safe_sequence_baseE = linkonce_odr constant { i8*, i8* } { i8* bitcast (i8** getelementptr inbounds (i8*, i8** @_ZTVN10__cxxabiv117__class_type_infoE, i64 2) to i8*), i8* getelementptr inbounds ([37 x i8], [37 x i8]* @_ZTSN11__gnu_debug19_Safe_sequence_baseE, i32 0, i32 0) }, comdat
@_ZTIN11__gnu_debug14_Safe_sequenceINSt7__debug6vectorIiSaIiEEEEE = linkonce_odr constant { i8*, i8*, i8* } { i8* bitcast (i8** getelementptr inbounds (i8*, i8** @_ZTVN10__cxxabiv120__si_class_type_infoE, i64 2) to i8*), i8* getelementptr inbounds ([61 x i8], [61 x i8]* @_ZTSN11__gnu_debug14_Safe_sequenceINSt7__debug6vectorIiSaIiEEEEE, i32 0, i32 0), i8* bitcast ({ i8*, i8* }* @_ZTIN11__gnu_debug19_Safe_sequence_baseE to i8*) }, comdat
@_ZTIN11__gnu_debug15_Safe_containerINSt7__debug6vectorIiSaIiEEES3_NS_14_Safe_sequenceELb1EEE = linkonce_odr constant { i8*, i8*, i8* } { i8* bitcast (i8** getelementptr inbounds (i8*, i8** @_ZTVN10__cxxabiv120__si_class_type_infoE, i64 2) to i8*), i8* getelementptr inbounds ([89 x i8], [89 x i8]* @_ZTSN11__gnu_debug15_Safe_containerINSt7__debug6vectorIiSaIiEEES3_NS_14_Safe_sequenceELb1EEE, i32 0, i32 0), i8* bitcast ({ i8*, i8*, i8* }* @_ZTIN11__gnu_debug14_Safe_sequenceINSt7__debug6vectorIiSaIiEEEEE to i8*) }, comdat
@_ZTSNSt9__cxx19986vectorIiSaIiEEE = linkonce_odr constant [30 x i8] c"NSt9__cxx19986vectorIiSaIiEEE\00", comdat
@_ZTSNSt9__cxx199812_Vector_baseIiSaIiEEE = linkonce_odr constant [37 x i8] c"NSt9__cxx199812_Vector_baseIiSaIiEEE\00", comdat
@_ZTINSt9__cxx199812_Vector_baseIiSaIiEEE = linkonce_odr constant { i8*, i8* } { i8* bitcast (i8** getelementptr inbounds (i8*, i8** @_ZTVN10__cxxabiv117__class_type_infoE, i64 2) to i8*), i8* getelementptr inbounds ([37 x i8], [37 x i8]* @_ZTSNSt9__cxx199812_Vector_baseIiSaIiEEE, i32 0, i32 0) }, comdat
@_ZTINSt9__cxx19986vectorIiSaIiEEE = linkonce_odr constant { i8*, i8*, i32, i32, i8*, i64 } { i8* bitcast (i8** getelementptr inbounds (i8*, i8** @_ZTVN10__cxxabiv121__vmi_class_type_infoE, i64 2) to i8*), i8* getelementptr inbounds ([30 x i8], [30 x i8]* @_ZTSNSt9__cxx19986vectorIiSaIiEEE, i32 0, i32 0), i32 0, i32 1, i8* bitcast ({ i8*, i8* }* @_ZTINSt9__cxx199812_Vector_baseIiSaIiEEE to i8*), i64 0 }, comdat
@_ZTSN11__gnu_debug12_Safe_vectorINSt7__debug6vectorIiSaIiEEENSt9__cxx19986vectorIiS3_EEEE = linkonce_odr constant [86 x i8] c"N11__gnu_debug12_Safe_vectorINSt7__debug6vectorIiSaIiEEENSt9__cxx19986vectorIiS3_EEEE\00", comdat
@_ZTIN11__gnu_debug12_Safe_vectorINSt7__debug6vectorIiSaIiEEENSt9__cxx19986vectorIiS3_EEEE = linkonce_odr constant { i8*, i8* } { i8* bitcast (i8** getelementptr inbounds (i8*, i8** @_ZTVN10__cxxabiv117__class_type_infoE, i64 2) to i8*), i8* getelementptr inbounds ([86 x i8], [86 x i8]* @_ZTSN11__gnu_debug12_Safe_vectorINSt7__debug6vectorIiSaIiEEENSt9__cxx19986vectorIiS3_EEEE, i32 0, i32 0) }, comdat
@_ZTINSt7__debug6vectorIiSaIiEEE = linkonce_odr constant { i8*, i8*, i32, i32, i8*, i64, i8*, i64, i8*, i64 } { i8* bitcast (i8** getelementptr inbounds (i8*, i8** @_ZTVN10__cxxabiv121__vmi_class_type_infoE, i64 2) to i8*), i8* getelementptr inbounds ([28 x i8], [28 x i8]* @_ZTSNSt7__debug6vectorIiSaIiEEE, i32 0, i32 0), i32 0, i32 3, i8* bitcast ({ i8*, i8*, i8* }* @_ZTIN11__gnu_debug15_Safe_containerINSt7__debug6vectorIiSaIiEEES3_NS_14_Safe_sequenceELb1EEE to i8*), i64 2, i8* bitcast ({ i8*, i8*, i32, i32, i8*, i64 }* @_ZTINSt9__cxx19986vectorIiSaIiEEE to i8*), i64 6146, i8* bitcast ({ i8*, i8* }* @_ZTIN11__gnu_debug12_Safe_vectorINSt7__debug6vectorIiSaIiEEENSt9__cxx19986vectorIiS3_EEEE to i8*), i64 12290 }, comdat
@.str.4 = private unnamed_addr constant [88 x i8] c"/usr/lib/gcc/x86_64-linux-gnu/5.4.0/../../../../include/c++/5.4.0/debug/safe_iterator.h\00", align 1
@_ZTSN11__gnu_debug14_Safe_iteratorIN9__gnu_cxx17__normal_iteratorIPiNSt9__cxx19986vectorIiSaIiEEEEENSt7__debug6vectorIiS6_EEEE = linkonce_odr constant [123 x i8] c"N11__gnu_debug14_Safe_iteratorIN9__gnu_cxx17__normal_iteratorIPiNSt9__cxx19986vectorIiSaIiEEEEENSt7__debug6vectorIiS6_EEEE\00", comdat
@_ZTSN9__gnu_cxx17__normal_iteratorIPiNSt9__cxx19986vectorIiSaIiEEEEE = linkonce_odr constant [65 x i8] c"N9__gnu_cxx17__normal_iteratorIPiNSt9__cxx19986vectorIiSaIiEEEEE\00", comdat
@_ZTIN9__gnu_cxx17__normal_iteratorIPiNSt9__cxx19986vectorIiSaIiEEEEE = linkonce_odr constant { i8*, i8* } { i8* bitcast (i8** getelementptr inbounds (i8*, i8** @_ZTVN10__cxxabiv117__class_type_infoE, i64 2) to i8*), i8* getelementptr inbounds ([65 x i8], [65 x i8]* @_ZTSN9__gnu_cxx17__normal_iteratorIPiNSt9__cxx19986vectorIiSaIiEEEEE, i32 0, i32 0) }, comdat
@_ZTSN11__gnu_debug19_Safe_iterator_baseE = linkonce_odr constant [37 x i8] c"N11__gnu_debug19_Safe_iterator_baseE\00", comdat
@_ZTIN11__gnu_debug19_Safe_iterator_baseE = linkonce_odr constant { i8*, i8* } { i8* bitcast (i8** getelementptr inbounds (i8*, i8** @_ZTVN10__cxxabiv117__class_type_infoE, i64 2) to i8*), i8* getelementptr inbounds ([37 x i8], [37 x i8]* @_ZTSN11__gnu_debug19_Safe_iterator_baseE, i32 0, i32 0) }, comdat
@_ZTIN11__gnu_debug14_Safe_iteratorIN9__gnu_cxx17__normal_iteratorIPiNSt9__cxx19986vectorIiSaIiEEEEENSt7__debug6vectorIiS6_EEEE = linkonce_odr constant { i8*, i8*, i32, i32, i8*, i64, i8*, i64 } { i8* bitcast (i8** getelementptr inbounds (i8*, i8** @_ZTVN10__cxxabiv121__vmi_class_type_infoE, i64 2) to i8*), i8* getelementptr inbounds ([123 x i8], [123 x i8]* @_ZTSN11__gnu_debug14_Safe_iteratorIN9__gnu_cxx17__normal_iteratorIPiNSt9__cxx19986vectorIiSaIiEEEEENSt7__debug6vectorIiS6_EEEE, i32 0, i32 0), i32 0, i32 2, i8* bitcast ({ i8*, i8* }* @_ZTIN9__gnu_cxx17__normal_iteratorIPiNSt9__cxx19986vectorIiSaIiEEEEE to i8*), i64 0, i8* bitcast ({ i8*, i8* }* @_ZTIN11__gnu_debug19_Safe_iterator_baseE to i8*), i64 2050 }, comdat
@.str.5 = private unnamed_addr constant [82 x i8] c"/usr/lib/gcc/x86_64-linux-gnu/5.4.0/../../../../include/c++/5.4.0/bits/stl_algo.h\00", align 1
@.str.6 = private unnamed_addr constant [8 x i8] c"__first\00", align 1
@.str.7 = private unnamed_addr constant [7 x i8] c"__last\00", align 1
@.str.8 = private unnamed_addr constant [4 x i8] c"lhs\00", align 1
@.str.9 = private unnamed_addr constant [4 x i8] c"rhs\00", align 1
@_ZZL18__gthread_active_pvE20__gthread_active_ptr = internal constant i8* bitcast (i32 (i32*, void (i8*)*)* @__pthread_key_create to i8*), align 8
@_ZTSN9__gnu_cxx24__concurrence_lock_errorE = linkonce_odr constant [39 x i8] c"N9__gnu_cxx24__concurrence_lock_errorE\00", comdat
@_ZTISt9exception = external constant i8*
@_ZTIN9__gnu_cxx24__concurrence_lock_errorE = linkonce_odr constant { i8*, i8*, i8* } { i8* bitcast (i8** getelementptr inbounds (i8*, i8** @_ZTVN10__cxxabiv120__si_class_type_infoE, i64 2) to i8*), i8* getelementptr inbounds ([39 x i8], [39 x i8]* @_ZTSN9__gnu_cxx24__concurrence_lock_errorE, i32 0, i32 0), i8* bitcast (i8** @_ZTISt9exception to i8*) }, comdat
@_ZTVN9__gnu_cxx24__concurrence_lock_errorE = linkonce_odr unnamed_addr constant { [5 x i8*] } { [5 x i8*] [i8* null, i8* bitcast ({ i8*, i8*, i8* }* @_ZTIN9__gnu_cxx24__concurrence_lock_errorE to i8*), i8* bitcast (void (%"class.__gnu_cxx::__concurrence_lock_error"*)* @_ZN9__gnu_cxx24__concurrence_lock_errorD2Ev to i8*), i8* bitcast (void (%"class.__gnu_cxx::__concurrence_lock_error"*)* @_ZN9__gnu_cxx24__concurrence_lock_errorD0Ev to i8*), i8* bitcast (i8* (%"class.__gnu_cxx::__concurrence_lock_error"*)* @_ZNK9__gnu_cxx24__concurrence_lock_error4whatEv to i8*)] }, comdat, align 8
@_ZTVSt9exception = external unnamed_addr constant { [5 x i8*] }
@.str.10 = private unnamed_addr constant [36 x i8] c"__gnu_cxx::__concurrence_lock_error\00", align 1
@_ZTSN9__gnu_cxx26__concurrence_unlock_errorE = linkonce_odr constant [41 x i8] c"N9__gnu_cxx26__concurrence_unlock_errorE\00", comdat
@_ZTIN9__gnu_cxx26__concurrence_unlock_errorE = linkonce_odr constant { i8*, i8*, i8* } { i8* bitcast (i8** getelementptr inbounds (i8*, i8** @_ZTVN10__cxxabiv120__si_class_type_infoE, i64 2) to i8*), i8* getelementptr inbounds ([41 x i8], [41 x i8]* @_ZTSN9__gnu_cxx26__concurrence_unlock_errorE, i32 0, i32 0), i8* bitcast (i8** @_ZTISt9exception to i8*) }, comdat
@_ZTVN9__gnu_cxx26__concurrence_unlock_errorE = linkonce_odr unnamed_addr constant { [5 x i8*] } { [5 x i8*] [i8* null, i8* bitcast ({ i8*, i8*, i8* }* @_ZTIN9__gnu_cxx26__concurrence_unlock_errorE to i8*), i8* bitcast (void (%"class.__gnu_cxx::__concurrence_unlock_error"*)* @_ZN9__gnu_cxx26__concurrence_unlock_errorD2Ev to i8*), i8* bitcast (void (%"class.__gnu_cxx::__concurrence_unlock_error"*)* @_ZN9__gnu_cxx26__concurrence_unlock_errorD0Ev to i8*), i8* bitcast (i8* (%"class.__gnu_cxx::__concurrence_unlock_error"*)* @_ZNK9__gnu_cxx26__concurrence_unlock_error4whatEv to i8*)] }, comdat, align 8
@.str.11 = private unnamed_addr constant [38 x i8] c"__gnu_cxx::__concurrence_unlock_error\00", align 1
@.str.12 = private unnamed_addr constant [6 x i8] c"other\00", align 1
@.str.13 = private unnamed_addr constant [86 x i8] c"/usr/lib/gcc/x86_64-linux-gnu/5.4.0/../../../../include/c++/5.4.0/bits/stl_algobase.h\00", align 1
@_ZTSNSt7__debug6vectorINS0_ISt4pairIiiESaIS2_EEESaIS4_EEE = linkonce_odr constant [54 x i8] c"NSt7__debug6vectorINS0_ISt4pairIiiESaIS2_EEESaIS4_EEE\00", comdat
@_ZTSN11__gnu_debug15_Safe_containerINSt7__debug6vectorINS2_ISt4pairIiiESaIS4_EEESaIS6_EEES7_NS_14_Safe_sequenceELb1EEE = linkonce_odr constant [115 x i8] c"N11__gnu_debug15_Safe_containerINSt7__debug6vectorINS2_ISt4pairIiiESaIS4_EEESaIS6_EEES7_NS_14_Safe_sequenceELb1EEE\00", comdat
@_ZTSN11__gnu_debug14_Safe_sequenceINSt7__debug6vectorINS2_ISt4pairIiiESaIS4_EEESaIS6_EEEEE = linkonce_odr constant [87 x i8] c"N11__gnu_debug14_Safe_sequenceINSt7__debug6vectorINS2_ISt4pairIiiESaIS4_EEESaIS6_EEEEE\00", comdat
@_ZTIN11__gnu_debug14_Safe_sequenceINSt7__debug6vectorINS2_ISt4pairIiiESaIS4_EEESaIS6_EEEEE = linkonce_odr constant { i8*, i8*, i8* } { i8* bitcast (i8** getelementptr inbounds (i8*, i8** @_ZTVN10__cxxabiv120__si_class_type_infoE, i64 2) to i8*), i8* getelementptr inbounds ([87 x i8], [87 x i8]* @_ZTSN11__gnu_debug14_Safe_sequenceINSt7__debug6vectorINS2_ISt4pairIiiESaIS4_EEESaIS6_EEEEE, i32 0, i32 0), i8* bitcast ({ i8*, i8* }* @_ZTIN11__gnu_debug19_Safe_sequence_baseE to i8*) }, comdat
@_ZTIN11__gnu_debug15_Safe_containerINSt7__debug6vectorINS2_ISt4pairIiiESaIS4_EEESaIS6_EEES7_NS_14_Safe_sequenceELb1EEE = linkonce_odr constant { i8*, i8*, i8* } { i8* bitcast (i8** getelementptr inbounds (i8*, i8** @_ZTVN10__cxxabiv120__si_class_type_infoE, i64 2) to i8*), i8* getelementptr inbounds ([115 x i8], [115 x i8]* @_ZTSN11__gnu_debug15_Safe_containerINSt7__debug6vectorINS2_ISt4pairIiiESaIS4_EEESaIS6_EEES7_NS_14_Safe_sequenceELb1EEE, i32 0, i32 0), i8* bitcast ({ i8*, i8*, i8* }* @_ZTIN11__gnu_debug14_Safe_sequenceINSt7__debug6vectorINS2_ISt4pairIiiESaIS4_EEESaIS6_EEEEE to i8*) }, comdat
@_ZTSNSt9__cxx19986vectorINSt7__debug6vectorISt4pairIiiESaIS4_EEESaIS6_EEE = linkonce_odr constant [70 x i8] c"NSt9__cxx19986vectorINSt7__debug6vectorISt4pairIiiESaIS4_EEESaIS6_EEE\00", comdat
@_ZTSNSt9__cxx199812_Vector_baseINSt7__debug6vectorISt4pairIiiESaIS4_EEESaIS6_EEE = linkonce_odr constant [77 x i8] c"NSt9__cxx199812_Vector_baseINSt7__debug6vectorISt4pairIiiESaIS4_EEESaIS6_EEE\00", comdat
@_ZTINSt9__cxx199812_Vector_baseINSt7__debug6vectorISt4pairIiiESaIS4_EEESaIS6_EEE = linkonce_odr constant { i8*, i8* } { i8* bitcast (i8** getelementptr inbounds (i8*, i8** @_ZTVN10__cxxabiv117__class_type_infoE, i64 2) to i8*), i8* getelementptr inbounds ([77 x i8], [77 x i8]* @_ZTSNSt9__cxx199812_Vector_baseINSt7__debug6vectorISt4pairIiiESaIS4_EEESaIS6_EEE, i32 0, i32 0) }, comdat
@_ZTINSt9__cxx19986vectorINSt7__debug6vectorISt4pairIiiESaIS4_EEESaIS6_EEE = linkonce_odr constant { i8*, i8*, i32, i32, i8*, i64 } { i8* bitcast (i8** getelementptr inbounds (i8*, i8** @_ZTVN10__cxxabiv121__vmi_class_type_infoE, i64 2) to i8*), i8* getelementptr inbounds ([70 x i8], [70 x i8]* @_ZTSNSt9__cxx19986vectorINSt7__debug6vectorISt4pairIiiESaIS4_EEESaIS6_EEE, i32 0, i32 0), i32 0, i32 1, i8* bitcast ({ i8*, i8* }* @_ZTINSt9__cxx199812_Vector_baseINSt7__debug6vectorISt4pairIiiESaIS4_EEESaIS6_EEE to i8*), i64 0 }, comdat
@_ZTSN11__gnu_debug12_Safe_vectorINSt7__debug6vectorINS2_ISt4pairIiiESaIS4_EEESaIS6_EEENSt9__cxx19986vectorIS6_S7_EEEE = linkonce_odr constant [114 x i8] c"N11__gnu_debug12_Safe_vectorINSt7__debug6vectorINS2_ISt4pairIiiESaIS4_EEESaIS6_EEENSt9__cxx19986vectorIS6_S7_EEEE\00", comdat
@_ZTIN11__gnu_debug12_Safe_vectorINSt7__debug6vectorINS2_ISt4pairIiiESaIS4_EEESaIS6_EEENSt9__cxx19986vectorIS6_S7_EEEE = linkonce_odr constant { i8*, i8* } { i8* bitcast (i8** getelementptr inbounds (i8*, i8** @_ZTVN10__cxxabiv117__class_type_infoE, i64 2) to i8*), i8* getelementptr inbounds ([114 x i8], [114 x i8]* @_ZTSN11__gnu_debug12_Safe_vectorINSt7__debug6vectorINS2_ISt4pairIiiESaIS4_EEESaIS6_EEENSt9__cxx19986vectorIS6_S7_EEEE, i32 0, i32 0) }, comdat
@_ZTINSt7__debug6vectorINS0_ISt4pairIiiESaIS2_EEESaIS4_EEE = linkonce_odr constant { i8*, i8*, i32, i32, i8*, i64, i8*, i64, i8*, i64 } { i8* bitcast (i8** getelementptr inbounds (i8*, i8** @_ZTVN10__cxxabiv121__vmi_class_type_infoE, i64 2) to i8*), i8* getelementptr inbounds ([54 x i8], [54 x i8]* @_ZTSNSt7__debug6vectorINS0_ISt4pairIiiESaIS2_EEESaIS4_EEE, i32 0, i32 0), i32 0, i32 3, i8* bitcast ({ i8*, i8*, i8* }* @_ZTIN11__gnu_debug15_Safe_containerINSt7__debug6vectorINS2_ISt4pairIiiESaIS4_EEESaIS6_EEES7_NS_14_Safe_sequenceELb1EEE to i8*), i64 2, i8* bitcast ({ i8*, i8*, i32, i32, i8*, i64 }* @_ZTINSt9__cxx19986vectorINSt7__debug6vectorISt4pairIiiESaIS4_EEESaIS6_EEE to i8*), i64 6146, i8* bitcast ({ i8*, i8* }* @_ZTIN11__gnu_debug12_Safe_vectorINSt7__debug6vectorINS2_ISt4pairIiiESaIS4_EEESaIS6_EEENSt9__cxx19986vectorIS6_S7_EEEE to i8*), i64 12290 }, comdat
@.str.14 = private unnamed_addr constant [28 x i8] c"vector::_M_emplace_back_aux\00", align 1
@_ZTSN9__gnu_cxx17__normal_iteratorIPKiNSt9__cxx19986vectorIiSaIiEEEEE = linkonce_odr constant [66 x i8] c"N9__gnu_cxx17__normal_iteratorIPKiNSt9__cxx19986vectorIiSaIiEEEEE\00", comdat
@_ZTIN9__gnu_cxx17__normal_iteratorIPKiNSt9__cxx19986vectorIiSaIiEEEEE = linkonce_odr constant { i8*, i8* } { i8* bitcast (i8** getelementptr inbounds (i8*, i8** @_ZTVN10__cxxabiv117__class_type_infoE, i64 2) to i8*), i8* getelementptr inbounds ([66 x i8], [66 x i8]* @_ZTSN9__gnu_cxx17__normal_iteratorIPKiNSt9__cxx19986vectorIiSaIiEEEEE, i32 0, i32 0) }, comdat
@_ZTVN10__cxxabiv119__pointer_type_infoE = external global i8*
@_ZTSPPi = linkonce_odr constant [4 x i8] c"PPi\00", comdat
@_ZTIPi = external constant i8*
@_ZTIPPi = linkonce_odr constant { i8*, i8*, i32, i8* } { i8* bitcast (i8** getelementptr inbounds (i8*, i8** @_ZTVN10__cxxabiv119__pointer_type_infoE, i64 2) to i8*), i8* getelementptr inbounds ([4 x i8], [4 x i8]* @_ZTSPPi, i32 0, i32 0), i32 0, i8* bitcast (i8** @_ZTIPi to i8*) }, comdat
@.str.15 = private unnamed_addr constant [83 x i8] c"/usr/lib/gcc/x86_64-linux-gnu/5.4.0/../../../../include/c++/5.4.0/bits/stl_queue.h\00", align 1
@_ZTSSt5queueIiNSt7__debug5dequeIiSaIiEEEE = linkonce_odr constant [38 x i8] c"St5queueIiNSt7__debug5dequeIiSaIiEEEE\00", comdat
@_ZTISt5queueIiNSt7__debug5dequeIiSaIiEEEE = linkonce_odr constant { i8*, i8* } { i8* bitcast (i8** getelementptr inbounds (i8*, i8** @_ZTVN10__cxxabiv117__class_type_infoE, i64 2) to i8*), i8* getelementptr inbounds ([38 x i8], [38 x i8]* @_ZTSSt5queueIiNSt7__debug5dequeIiSaIiEEEE, i32 0, i32 0) }, comdat
@.str.16 = private unnamed_addr constant [78 x i8] c"/usr/lib/gcc/x86_64-linux-gnu/5.4.0/../../../../include/c++/5.4.0/debug/deque\00", align 1
@_ZTSNSt7__debug5dequeIiSaIiEEE = linkonce_odr constant [27 x i8] c"NSt7__debug5dequeIiSaIiEEE\00", comdat
@_ZTSN11__gnu_debug15_Safe_containerINSt7__debug5dequeIiSaIiEEES3_NS_14_Safe_sequenceELb1EEE = linkonce_odr constant [88 x i8] c"N11__gnu_debug15_Safe_containerINSt7__debug5dequeIiSaIiEEES3_NS_14_Safe_sequenceELb1EEE\00", comdat
@_ZTSN11__gnu_debug14_Safe_sequenceINSt7__debug5dequeIiSaIiEEEEE = linkonce_odr constant [60 x i8] c"N11__gnu_debug14_Safe_sequenceINSt7__debug5dequeIiSaIiEEEEE\00", comdat
@_ZTIN11__gnu_debug14_Safe_sequenceINSt7__debug5dequeIiSaIiEEEEE = linkonce_odr constant { i8*, i8*, i8* } { i8* bitcast (i8** getelementptr inbounds (i8*, i8** @_ZTVN10__cxxabiv120__si_class_type_infoE, i64 2) to i8*), i8* getelementptr inbounds ([60 x i8], [60 x i8]* @_ZTSN11__gnu_debug14_Safe_sequenceINSt7__debug5dequeIiSaIiEEEEE, i32 0, i32 0), i8* bitcast ({ i8*, i8* }* @_ZTIN11__gnu_debug19_Safe_sequence_baseE to i8*) }, comdat
@_ZTIN11__gnu_debug15_Safe_containerINSt7__debug5dequeIiSaIiEEES3_NS_14_Safe_sequenceELb1EEE = linkonce_odr constant { i8*, i8*, i8* } { i8* bitcast (i8** getelementptr inbounds (i8*, i8** @_ZTVN10__cxxabiv120__si_class_type_infoE, i64 2) to i8*), i8* getelementptr inbounds ([88 x i8], [88 x i8]* @_ZTSN11__gnu_debug15_Safe_containerINSt7__debug5dequeIiSaIiEEES3_NS_14_Safe_sequenceELb1EEE, i32 0, i32 0), i8* bitcast ({ i8*, i8*, i8* }* @_ZTIN11__gnu_debug14_Safe_sequenceINSt7__debug5dequeIiSaIiEEEEE to i8*) }, comdat
@_ZTSNSt9__cxx19985dequeIiSaIiEEE = linkonce_odr constant [29 x i8] c"NSt9__cxx19985dequeIiSaIiEEE\00", comdat
@_ZTSNSt9__cxx199811_Deque_baseIiSaIiEEE = linkonce_odr constant [36 x i8] c"NSt9__cxx199811_Deque_baseIiSaIiEEE\00", comdat
@_ZTINSt9__cxx199811_Deque_baseIiSaIiEEE = linkonce_odr constant { i8*, i8* } { i8* bitcast (i8** getelementptr inbounds (i8*, i8** @_ZTVN10__cxxabiv117__class_type_infoE, i64 2) to i8*), i8* getelementptr inbounds ([36 x i8], [36 x i8]* @_ZTSNSt9__cxx199811_Deque_baseIiSaIiEEE, i32 0, i32 0) }, comdat
@_ZTINSt9__cxx19985dequeIiSaIiEEE = linkonce_odr constant { i8*, i8*, i32, i32, i8*, i64 } { i8* bitcast (i8** getelementptr inbounds (i8*, i8** @_ZTVN10__cxxabiv121__vmi_class_type_infoE, i64 2) to i8*), i8* getelementptr inbounds ([29 x i8], [29 x i8]* @_ZTSNSt9__cxx19985dequeIiSaIiEEE, i32 0, i32 0), i32 0, i32 1, i8* bitcast ({ i8*, i8* }* @_ZTINSt9__cxx199811_Deque_baseIiSaIiEEE to i8*), i64 0 }, comdat
@_ZTINSt7__debug5dequeIiSaIiEEE = linkonce_odr constant { i8*, i8*, i32, i32, i8*, i64, i8*, i64 } { i8* bitcast (i8** getelementptr inbounds (i8*, i8** @_ZTVN10__cxxabiv121__vmi_class_type_infoE, i64 2) to i8*), i8* getelementptr inbounds ([27 x i8], [27 x i8]* @_ZTSNSt7__debug5dequeIiSaIiEEE, i32 0, i32 0), i32 0, i32 2, i8* bitcast ({ i8*, i8*, i8* }* @_ZTIN11__gnu_debug15_Safe_containerINSt7__debug5dequeIiSaIiEEES3_NS_14_Safe_sequenceELb1EEE to i8*), i64 2, i8* bitcast ({ i8*, i8*, i32, i32, i8*, i64 }* @_ZTINSt9__cxx19985dequeIiSaIiEEE to i8*), i64 6146 }, comdat
@_ZTSN11__gnu_debug14_Safe_iteratorIN9__gnu_cxx17__normal_iteratorIPSt4pairIiiENSt9__cxx19986vectorIS4_SaIS4_EEEEENSt7__debug6vectorIS4_S8_EEEE = linkonce_odr constant [139 x i8] c"N11__gnu_debug14_Safe_iteratorIN9__gnu_cxx17__normal_iteratorIPSt4pairIiiENSt9__cxx19986vectorIS4_SaIS4_EEEEENSt7__debug6vectorIS4_S8_EEEE\00", comdat
@_ZTSN9__gnu_cxx17__normal_iteratorIPSt4pairIiiENSt9__cxx19986vectorIS2_SaIS2_EEEEE = linkonce_odr constant [79 x i8] c"N9__gnu_cxx17__normal_iteratorIPSt4pairIiiENSt9__cxx19986vectorIS2_SaIS2_EEEEE\00", comdat
@_ZTIN9__gnu_cxx17__normal_iteratorIPSt4pairIiiENSt9__cxx19986vectorIS2_SaIS2_EEEEE = linkonce_odr constant { i8*, i8* } { i8* bitcast (i8** getelementptr inbounds (i8*, i8** @_ZTVN10__cxxabiv117__class_type_infoE, i64 2) to i8*), i8* getelementptr inbounds ([79 x i8], [79 x i8]* @_ZTSN9__gnu_cxx17__normal_iteratorIPSt4pairIiiENSt9__cxx19986vectorIS2_SaIS2_EEEEE, i32 0, i32 0) }, comdat
@_ZTIN11__gnu_debug14_Safe_iteratorIN9__gnu_cxx17__normal_iteratorIPSt4pairIiiENSt9__cxx19986vectorIS4_SaIS4_EEEEENSt7__debug6vectorIS4_S8_EEEE = linkonce_odr constant { i8*, i8*, i32, i32, i8*, i64, i8*, i64 } { i8* bitcast (i8** getelementptr inbounds (i8*, i8** @_ZTVN10__cxxabiv121__vmi_class_type_infoE, i64 2) to i8*), i8* getelementptr inbounds ([139 x i8], [139 x i8]* @_ZTSN11__gnu_debug14_Safe_iteratorIN9__gnu_cxx17__normal_iteratorIPSt4pairIiiENSt9__cxx19986vectorIS4_SaIS4_EEEEENSt7__debug6vectorIS4_S8_EEEE, i32 0, i32 0), i32 0, i32 2, i8* bitcast ({ i8*, i8* }* @_ZTIN9__gnu_cxx17__normal_iteratorIPSt4pairIiiENSt9__cxx19986vectorIS2_SaIS2_EEEEE to i8*), i64 0, i8* bitcast ({ i8*, i8* }* @_ZTIN11__gnu_debug19_Safe_iterator_baseE to i8*), i64 2050 }, comdat
@_ZTSNSt7__debug6vectorISt4pairIiiESaIS2_EEE = linkonce_odr constant [40 x i8] c"NSt7__debug6vectorISt4pairIiiESaIS2_EEE\00", comdat
@_ZTSN11__gnu_debug15_Safe_containerINSt7__debug6vectorISt4pairIiiESaIS4_EEES5_NS_14_Safe_sequenceELb1EEE = linkonce_odr constant [101 x i8] c"N11__gnu_debug15_Safe_containerINSt7__debug6vectorISt4pairIiiESaIS4_EEES5_NS_14_Safe_sequenceELb1EEE\00", comdat
@_ZTSN11__gnu_debug14_Safe_sequenceINSt7__debug6vectorISt4pairIiiESaIS4_EEEEE = linkonce_odr constant [73 x i8] c"N11__gnu_debug14_Safe_sequenceINSt7__debug6vectorISt4pairIiiESaIS4_EEEEE\00", comdat
@_ZTIN11__gnu_debug14_Safe_sequenceINSt7__debug6vectorISt4pairIiiESaIS4_EEEEE = linkonce_odr constant { i8*, i8*, i8* } { i8* bitcast (i8** getelementptr inbounds (i8*, i8** @_ZTVN10__cxxabiv120__si_class_type_infoE, i64 2) to i8*), i8* getelementptr inbounds ([73 x i8], [73 x i8]* @_ZTSN11__gnu_debug14_Safe_sequenceINSt7__debug6vectorISt4pairIiiESaIS4_EEEEE, i32 0, i32 0), i8* bitcast ({ i8*, i8* }* @_ZTIN11__gnu_debug19_Safe_sequence_baseE to i8*) }, comdat
@_ZTIN11__gnu_debug15_Safe_containerINSt7__debug6vectorISt4pairIiiESaIS4_EEES5_NS_14_Safe_sequenceELb1EEE = linkonce_odr constant { i8*, i8*, i8* } { i8* bitcast (i8** getelementptr inbounds (i8*, i8** @_ZTVN10__cxxabiv120__si_class_type_infoE, i64 2) to i8*), i8* getelementptr inbounds ([101 x i8], [101 x i8]* @_ZTSN11__gnu_debug15_Safe_containerINSt7__debug6vectorISt4pairIiiESaIS4_EEES5_NS_14_Safe_sequenceELb1EEE, i32 0, i32 0), i8* bitcast ({ i8*, i8*, i8* }* @_ZTIN11__gnu_debug14_Safe_sequenceINSt7__debug6vectorISt4pairIiiESaIS4_EEEEE to i8*) }, comdat
@_ZTSNSt9__cxx19986vectorISt4pairIiiESaIS2_EEE = linkonce_odr constant [42 x i8] c"NSt9__cxx19986vectorISt4pairIiiESaIS2_EEE\00", comdat
@_ZTSNSt9__cxx199812_Vector_baseISt4pairIiiESaIS2_EEE = linkonce_odr constant [49 x i8] c"NSt9__cxx199812_Vector_baseISt4pairIiiESaIS2_EEE\00", comdat
@_ZTINSt9__cxx199812_Vector_baseISt4pairIiiESaIS2_EEE = linkonce_odr constant { i8*, i8* } { i8* bitcast (i8** getelementptr inbounds (i8*, i8** @_ZTVN10__cxxabiv117__class_type_infoE, i64 2) to i8*), i8* getelementptr inbounds ([49 x i8], [49 x i8]* @_ZTSNSt9__cxx199812_Vector_baseISt4pairIiiESaIS2_EEE, i32 0, i32 0) }, comdat
@_ZTINSt9__cxx19986vectorISt4pairIiiESaIS2_EEE = linkonce_odr constant { i8*, i8*, i32, i32, i8*, i64 } { i8* bitcast (i8** getelementptr inbounds (i8*, i8** @_ZTVN10__cxxabiv121__vmi_class_type_infoE, i64 2) to i8*), i8* getelementptr inbounds ([42 x i8], [42 x i8]* @_ZTSNSt9__cxx19986vectorISt4pairIiiESaIS2_EEE, i32 0, i32 0), i32 0, i32 1, i8* bitcast ({ i8*, i8* }* @_ZTINSt9__cxx199812_Vector_baseISt4pairIiiESaIS2_EEE to i8*), i64 0 }, comdat
@_ZTSN11__gnu_debug12_Safe_vectorINSt7__debug6vectorISt4pairIiiESaIS4_EEENSt9__cxx19986vectorIS4_S5_EEEE = linkonce_odr constant [100 x i8] c"N11__gnu_debug12_Safe_vectorINSt7__debug6vectorISt4pairIiiESaIS4_EEENSt9__cxx19986vectorIS4_S5_EEEE\00", comdat
@_ZTIN11__gnu_debug12_Safe_vectorINSt7__debug6vectorISt4pairIiiESaIS4_EEENSt9__cxx19986vectorIS4_S5_EEEE = linkonce_odr constant { i8*, i8* } { i8* bitcast (i8** getelementptr inbounds (i8*, i8** @_ZTVN10__cxxabiv117__class_type_infoE, i64 2) to i8*), i8* getelementptr inbounds ([100 x i8], [100 x i8]* @_ZTSN11__gnu_debug12_Safe_vectorINSt7__debug6vectorISt4pairIiiESaIS4_EEENSt9__cxx19986vectorIS4_S5_EEEE, i32 0, i32 0) }, comdat
@_ZTINSt7__debug6vectorISt4pairIiiESaIS2_EEE = linkonce_odr constant { i8*, i8*, i32, i32, i8*, i64, i8*, i64, i8*, i64 } { i8* bitcast (i8** getelementptr inbounds (i8*, i8** @_ZTVN10__cxxabiv121__vmi_class_type_infoE, i64 2) to i8*), i8* getelementptr inbounds ([40 x i8], [40 x i8]* @_ZTSNSt7__debug6vectorISt4pairIiiESaIS2_EEE, i32 0, i32 0), i32 0, i32 3, i8* bitcast ({ i8*, i8*, i8* }* @_ZTIN11__gnu_debug15_Safe_containerINSt7__debug6vectorISt4pairIiiESaIS4_EEES5_NS_14_Safe_sequenceELb1EEE to i8*), i64 2, i8* bitcast ({ i8*, i8*, i32, i32, i8*, i64 }* @_ZTINSt9__cxx19986vectorISt4pairIiiESaIS2_EEE to i8*), i64 6146, i8* bitcast ({ i8*, i8* }* @_ZTIN11__gnu_debug12_Safe_vectorINSt7__debug6vectorISt4pairIiiESaIS4_EEENSt9__cxx19986vectorIS4_S5_EEEE to i8*), i64 12290 }, comdat
@_ZTSNSt7__debug6vectorINS0_IiSaIiEEESaIS2_EEE = linkonce_odr constant [42 x i8] c"NSt7__debug6vectorINS0_IiSaIiEEESaIS2_EEE\00", comdat
@_ZTSN11__gnu_debug15_Safe_containerINSt7__debug6vectorINS2_IiSaIiEEESaIS4_EEES5_NS_14_Safe_sequenceELb1EEE = linkonce_odr constant [103 x i8] c"N11__gnu_debug15_Safe_containerINSt7__debug6vectorINS2_IiSaIiEEESaIS4_EEES5_NS_14_Safe_sequenceELb1EEE\00", comdat
@_ZTSN11__gnu_debug14_Safe_sequenceINSt7__debug6vectorINS2_IiSaIiEEESaIS4_EEEEE = linkonce_odr constant [75 x i8] c"N11__gnu_debug14_Safe_sequenceINSt7__debug6vectorINS2_IiSaIiEEESaIS4_EEEEE\00", comdat
@_ZTIN11__gnu_debug14_Safe_sequenceINSt7__debug6vectorINS2_IiSaIiEEESaIS4_EEEEE = linkonce_odr constant { i8*, i8*, i8* } { i8* bitcast (i8** getelementptr inbounds (i8*, i8** @_ZTVN10__cxxabiv120__si_class_type_infoE, i64 2) to i8*), i8* getelementptr inbounds ([75 x i8], [75 x i8]* @_ZTSN11__gnu_debug14_Safe_sequenceINSt7__debug6vectorINS2_IiSaIiEEESaIS4_EEEEE, i32 0, i32 0), i8* bitcast ({ i8*, i8* }* @_ZTIN11__gnu_debug19_Safe_sequence_baseE to i8*) }, comdat
@_ZTIN11__gnu_debug15_Safe_containerINSt7__debug6vectorINS2_IiSaIiEEESaIS4_EEES5_NS_14_Safe_sequenceELb1EEE = linkonce_odr constant { i8*, i8*, i8* } { i8* bitcast (i8** getelementptr inbounds (i8*, i8** @_ZTVN10__cxxabiv120__si_class_type_infoE, i64 2) to i8*), i8* getelementptr inbounds ([103 x i8], [103 x i8]* @_ZTSN11__gnu_debug15_Safe_containerINSt7__debug6vectorINS2_IiSaIiEEESaIS4_EEES5_NS_14_Safe_sequenceELb1EEE, i32 0, i32 0), i8* bitcast ({ i8*, i8*, i8* }* @_ZTIN11__gnu_debug14_Safe_sequenceINSt7__debug6vectorINS2_IiSaIiEEESaIS4_EEEEE to i8*) }, comdat
@_ZTSNSt9__cxx19986vectorINSt7__debug6vectorIiSaIiEEESaIS4_EEE = linkonce_odr constant [58 x i8] c"NSt9__cxx19986vectorINSt7__debug6vectorIiSaIiEEESaIS4_EEE\00", comdat
@_ZTSNSt9__cxx199812_Vector_baseINSt7__debug6vectorIiSaIiEEESaIS4_EEE = linkonce_odr constant [65 x i8] c"NSt9__cxx199812_Vector_baseINSt7__debug6vectorIiSaIiEEESaIS4_EEE\00", comdat
@_ZTINSt9__cxx199812_Vector_baseINSt7__debug6vectorIiSaIiEEESaIS4_EEE = linkonce_odr constant { i8*, i8* } { i8* bitcast (i8** getelementptr inbounds (i8*, i8** @_ZTVN10__cxxabiv117__class_type_infoE, i64 2) to i8*), i8* getelementptr inbounds ([65 x i8], [65 x i8]* @_ZTSNSt9__cxx199812_Vector_baseINSt7__debug6vectorIiSaIiEEESaIS4_EEE, i32 0, i32 0) }, comdat
@_ZTINSt9__cxx19986vectorINSt7__debug6vectorIiSaIiEEESaIS4_EEE = linkonce_odr constant { i8*, i8*, i32, i32, i8*, i64 } { i8* bitcast (i8** getelementptr inbounds (i8*, i8** @_ZTVN10__cxxabiv121__vmi_class_type_infoE, i64 2) to i8*), i8* getelementptr inbounds ([58 x i8], [58 x i8]* @_ZTSNSt9__cxx19986vectorINSt7__debug6vectorIiSaIiEEESaIS4_EEE, i32 0, i32 0), i32 0, i32 1, i8* bitcast ({ i8*, i8* }* @_ZTINSt9__cxx199812_Vector_baseINSt7__debug6vectorIiSaIiEEESaIS4_EEE to i8*), i64 0 }, comdat
@_ZTSN11__gnu_debug12_Safe_vectorINSt7__debug6vectorINS2_IiSaIiEEESaIS4_EEENSt9__cxx19986vectorIS4_S5_EEEE = linkonce_odr constant [102 x i8] c"N11__gnu_debug12_Safe_vectorINSt7__debug6vectorINS2_IiSaIiEEESaIS4_EEENSt9__cxx19986vectorIS4_S5_EEEE\00", comdat
@_ZTIN11__gnu_debug12_Safe_vectorINSt7__debug6vectorINS2_IiSaIiEEESaIS4_EEENSt9__cxx19986vectorIS4_S5_EEEE = linkonce_odr constant { i8*, i8* } { i8* bitcast (i8** getelementptr inbounds (i8*, i8** @_ZTVN10__cxxabiv117__class_type_infoE, i64 2) to i8*), i8* getelementptr inbounds ([102 x i8], [102 x i8]* @_ZTSN11__gnu_debug12_Safe_vectorINSt7__debug6vectorINS2_IiSaIiEEESaIS4_EEENSt9__cxx19986vectorIS4_S5_EEEE, i32 0, i32 0) }, comdat
@_ZTINSt7__debug6vectorINS0_IiSaIiEEESaIS2_EEE = linkonce_odr constant { i8*, i8*, i32, i32, i8*, i64, i8*, i64, i8*, i64 } { i8* bitcast (i8** getelementptr inbounds (i8*, i8** @_ZTVN10__cxxabiv121__vmi_class_type_infoE, i64 2) to i8*), i8* getelementptr inbounds ([42 x i8], [42 x i8]* @_ZTSNSt7__debug6vectorINS0_IiSaIiEEESaIS2_EEE, i32 0, i32 0), i32 0, i32 3, i8* bitcast ({ i8*, i8*, i8* }* @_ZTIN11__gnu_debug15_Safe_containerINSt7__debug6vectorINS2_IiSaIiEEESaIS4_EEES5_NS_14_Safe_sequenceELb1EEE to i8*), i64 2, i8* bitcast ({ i8*, i8*, i32, i32, i8*, i64 }* @_ZTINSt9__cxx19986vectorINSt7__debug6vectorIiSaIiEEESaIS4_EEE to i8*), i64 6146, i8* bitcast ({ i8*, i8* }* @_ZTIN11__gnu_debug12_Safe_vectorINSt7__debug6vectorINS2_IiSaIiEEESaIS4_EEENSt9__cxx19986vectorIS4_S5_EEEE to i8*), i64 12290 }, comdat
@llvm.global_ctors = appending global [1 x { i32, void ()*, i8* }] [{ i32, void ()*, i8* } { i32 65535, void ()* @_GLOBAL__sub_I_s861613019.cpp, i8* null }]
@x = common global i32 0
@y = common global i32 0
@x.17 = common global i32 0
@y.18 = common global i32 0
@x.19 = common global i32 0
@y.20 = common global i32 0
@x.21 = common global i32 0
@y.22 = common global i32 0
@x.23 = common global i32 0
@y.24 = common global i32 0
@x.25 = common global i32 0
@y.26 = common global i32 0
@x.27 = common global i32 0
@y.28 = common global i32 0
@x.29 = common global i32 0
@y.30 = common global i32 0
@x.31 = common global i32 0
@y.32 = common global i32 0
@x.33 = common global i32 0
@y.34 = common global i32 0
@x.35 = common global i32 0
@y.36 = common global i32 0
@x.37 = common global i32 0
@y.38 = common global i32 0
@x.39 = common global i32 0
@y.40 = common global i32 0
@x.41 = common global i32 0
@y.42 = common global i32 0
@x.43 = common global i32 0
@y.44 = common global i32 0
@x.45 = common global i32 0
@y.46 = common global i32 0
@x.47 = common global i32 0
@y.48 = common global i32 0
@x.49 = common global i32 0
@y.50 = common global i32 0
@x.51 = common global i32 0
@y.52 = common global i32 0
@x.53 = common global i32 0
@y.54 = common global i32 0
@x.55 = common global i32 0
@y.56 = common global i32 0
@x.57 = common global i32 0
@y.58 = common global i32 0
@x.59 = common global i32 0
@y.60 = common global i32 0
@x.61 = common global i32 0
@y.62 = common global i32 0
@x.63 = common global i32 0
@y.64 = common global i32 0
@x.65 = common global i32 0
@y.66 = common global i32 0
@x.67 = common global i32 0
@y.68 = common global i32 0
@x.69 = common global i32 0
@y.70 = common global i32 0
@x.71 = common global i32 0
@y.72 = common global i32 0
@x.73 = common global i32 0
@y.74 = common global i32 0
@x.75 = common global i32 0
@y.76 = common global i32 0
@x.77 = common global i32 0
@y.78 = common global i32 0
@x.79 = common global i32 0
@y.80 = common global i32 0
@x.81 = common global i32 0
@y.82 = common global i32 0
@x.83 = common global i32 0
@y.84 = common global i32 0
@x.85 = common global i32 0
@y.86 = common global i32 0
@x.87 = common global i32 0
@y.88 = common global i32 0
@x.89 = common global i32 0
@y.90 = common global i32 0
@x.91 = common global i32 0
@y.92 = common global i32 0
@x.93 = common global i32 0
@y.94 = common global i32 0
@x.95 = common global i32 0
@y.96 = common global i32 0
@x.97 = common global i32 0
@y.98 = common global i32 0
@x.99 = common global i32 0
@y.100 = common global i32 0
@x.101 = common global i32 0
@y.102 = common global i32 0
@x.103 = common global i32 0
@y.104 = common global i32 0
@x.105 = common global i32 0
@y.106 = common global i32 0
@x.107 = common global i32 0
@y.108 = common global i32 0
@x.109 = common global i32 0
@y.110 = common global i32 0
@x.111 = common global i32 0
@y.112 = common global i32 0
@x.113 = common global i32 0
@y.114 = common global i32 0
@x.115 = common global i32 0
@y.116 = common global i32 0
@x.117 = common global i32 0
@y.118 = common global i32 0
@x.119 = common global i32 0
@y.120 = common global i32 0
@x.121 = common global i32 0
@y.122 = common global i32 0
@x.123 = common global i32 0
@y.124 = common global i32 0
@x.125 = common global i32 0
@y.126 = common global i32 0
@x.127 = common global i32 0
@y.128 = common global i32 0
@x.129 = common global i32 0
@y.130 = common global i32 0
@x.131 = common global i32 0
@y.132 = common global i32 0
@x.133 = common global i32 0
@y.134 = common global i32 0
@x.135 = common global i32 0
@y.136 = common global i32 0
@x.137 = common global i32 0
@y.138 = common global i32 0
@x.139 = common global i32 0
@y.140 = common global i32 0
@x.141 = common global i32 0
@y.142 = common global i32 0
@x.143 = common global i32 0
@y.144 = common global i32 0
@x.145 = common global i32 0
@y.146 = common global i32 0
@x.147 = common global i32 0
@y.148 = common global i32 0
@x.149 = common global i32 0
@y.150 = common global i32 0
@x.151 = common global i32 0
@y.152 = common global i32 0
@x.153 = common global i32 0
@y.154 = common global i32 0
@x.155 = common global i32 0
@y.156 = common global i32 0
@x.157 = common global i32 0
@y.158 = common global i32 0
@x.159 = common global i32 0
@y.160 = common global i32 0
@x.161 = common global i32 0
@y.162 = common global i32 0
@x.163 = common global i32 0
@y.164 = common global i32 0
@x.165 = common global i32 0
@y.166 = common global i32 0
@x.167 = common global i32 0
@y.168 = common global i32 0
@x.169 = common global i32 0
@y.170 = common global i32 0
@x.171 = common global i32 0
@y.172 = common global i32 0
@x.173 = common global i32 0
@y.174 = common global i32 0
@x.175 = common global i32 0
@y.176 = common global i32 0
@x.177 = common global i32 0
@y.178 = common global i32 0
@x.179 = common global i32 0
@y.180 = common global i32 0
@x.181 = common global i32 0
@y.182 = common global i32 0
@x.183 = common global i32 0
@y.184 = common global i32 0
@x.185 = common global i32 0
@y.186 = common global i32 0
@x.187 = common global i32 0
@y.188 = common global i32 0
@x.189 = common global i32 0
@y.190 = common global i32 0
@x.191 = common global i32 0
@y.192 = common global i32 0
@x.193 = common global i32 0
@y.194 = common global i32 0
@x.195 = common global i32 0
@y.196 = common global i32 0
@x.197 = common global i32 0
@y.198 = common global i32 0
@x.199 = common global i32 0
@y.200 = common global i32 0
@x.201 = common global i32 0
@y.202 = common global i32 0
@x.203 = common global i32 0
@y.204 = common global i32 0
@x.205 = common global i32 0
@y.206 = common global i32 0
@x.207 = common global i32 0
@y.208 = common global i32 0
@x.209 = common global i32 0
@y.210 = common global i32 0
@x.211 = common global i32 0
@y.212 = common global i32 0
@x.213 = common global i32 0
@y.214 = common global i32 0
@x.215 = common global i32 0
@y.216 = common global i32 0
@x.217 = common global i32 0
@y.218 = common global i32 0
@x.219 = common global i32 0
@y.220 = common global i32 0
@x.221 = common global i32 0
@y.222 = common global i32 0
@x.223 = common global i32 0
@y.224 = common global i32 0
@x.225 = common global i32 0
@y.226 = common global i32 0
@x.227 = common global i32 0
@y.228 = common global i32 0
@x.229 = common global i32 0
@y.230 = common global i32 0
@x.231 = common global i32 0
@y.232 = common global i32 0
@x.233 = common global i32 0
@y.234 = common global i32 0
@x.235 = common global i32 0
@y.236 = common global i32 0
@x.237 = common global i32 0
@y.238 = common global i32 0
@x.239 = common global i32 0
@y.240 = common global i32 0
@x.241 = common global i32 0
@y.242 = common global i32 0
@x.243 = common global i32 0
@y.244 = common global i32 0
@x.245 = common global i32 0
@y.246 = common global i32 0
@x.247 = common global i32 0
@y.248 = common global i32 0
@x.249 = common global i32 0
@y.250 = common global i32 0
@x.251 = common global i32 0
@y.252 = common global i32 0
@x.253 = common global i32 0
@y.254 = common global i32 0
@x.255 = common global i32 0
@y.256 = common global i32 0
@x.257 = common global i32 0
@y.258 = common global i32 0
@x.259 = common global i32 0
@y.260 = common global i32 0
@x.261 = common global i32 0
@y.262 = common global i32 0
@x.263 = common global i32 0
@y.264 = common global i32 0
@x.265 = common global i32 0
@y.266 = common global i32 0
@x.267 = common global i32 0
@y.268 = common global i32 0
@x.269 = common global i32 0
@y.270 = common global i32 0
@x.271 = common global i32 0
@y.272 = common global i32 0
@x.273 = common global i32 0
@y.274 = common global i32 0
@x.275 = common global i32 0
@y.276 = common global i32 0
@x.277 = common global i32 0
@y.278 = common global i32 0
@x.279 = common global i32 0
@y.280 = common global i32 0
@x.281 = common global i32 0
@y.282 = common global i32 0
@x.283 = common global i32 0
@y.284 = common global i32 0
@x.285 = common global i32 0
@y.286 = common global i32 0
@x.287 = common global i32 0
@y.288 = common global i32 0
@x.289 = common global i32 0
@y.290 = common global i32 0
@x.291 = common global i32 0
@y.292 = common global i32 0
@x.293 = common global i32 0
@y.294 = common global i32 0
@x.295 = common global i32 0
@y.296 = common global i32 0
@x.297 = common global i32 0
@y.298 = common global i32 0
@x.299 = common global i32 0
@y.300 = common global i32 0
@x.301 = common global i32 0
@y.302 = common global i32 0
@x.303 = common global i32 0
@y.304 = common global i32 0
@x.305 = common global i32 0
@y.306 = common global i32 0
@x.307 = common global i32 0
@y.308 = common global i32 0
@x.309 = common global i32 0
@y.310 = common global i32 0
@x.311 = common global i32 0
@y.312 = common global i32 0
@x.313 = common global i32 0
@y.314 = common global i32 0
@x.315 = common global i32 0
@y.316 = common global i32 0
@x.317 = common global i32 0
@y.318 = common global i32 0
@x.319 = common global i32 0
@y.320 = common global i32 0
@x.321 = common global i32 0
@y.322 = common global i32 0
@x.323 = common global i32 0
@y.324 = common global i32 0
@x.325 = common global i32 0
@y.326 = common global i32 0
@x.327 = common global i32 0
@y.328 = common global i32 0
@x.329 = common global i32 0
@y.330 = common global i32 0
@x.331 = common global i32 0
@y.332 = common global i32 0
@x.333 = common global i32 0
@y.334 = common global i32 0
@x.335 = common global i32 0
@y.336 = common global i32 0
@x.337 = common global i32 0
@y.338 = common global i32 0
@x.339 = common global i32 0
@y.340 = common global i32 0
@x.341 = common global i32 0
@y.342 = common global i32 0
@x.343 = common global i32 0
@y.344 = common global i32 0
@x.345 = common global i32 0
@y.346 = common global i32 0
@x.347 = common global i32 0
@y.348 = common global i32 0
@x.349 = common global i32 0
@y.350 = common global i32 0
@x.351 = common global i32 0
@y.352 = common global i32 0
@x.353 = common global i32 0
@y.354 = common global i32 0
@x.355 = common global i32 0
@y.356 = common global i32 0
@x.357 = common global i32 0
@y.358 = common global i32 0
@x.359 = common global i32 0
@y.360 = common global i32 0
@x.361 = common global i32 0
@y.362 = common global i32 0
@x.363 = common global i32 0
@y.364 = common global i32 0
@x.365 = common global i32 0
@y.366 = common global i32 0
@x.367 = common global i32 0
@y.368 = common global i32 0
@x.369 = common global i32 0
@y.370 = common global i32 0
@x.371 = common global i32 0
@y.372 = common global i32 0
@x.373 = common global i32 0
@y.374 = common global i32 0
@x.375 = common global i32 0
@y.376 = common global i32 0
@x.377 = common global i32 0
@y.378 = common global i32 0
@x.379 = common global i32 0
@y.380 = common global i32 0
@x.381 = common global i32 0
@y.382 = common global i32 0
@x.383 = common global i32 0
@y.384 = common global i32 0
@x.385 = common global i32 0
@y.386 = common global i32 0
@x.387 = common global i32 0
@y.388 = common global i32 0
@x.389 = common global i32 0
@y.390 = common global i32 0
@x.391 = common global i32 0
@y.392 = common global i32 0
@x.393 = common global i32 0
@y.394 = common global i32 0
@x.395 = common global i32 0
@y.396 = common global i32 0
@x.397 = common global i32 0
@y.398 = common global i32 0
@x.399 = common global i32 0
@y.400 = common global i32 0
@x.401 = common global i32 0
@y.402 = common global i32 0
@x.403 = common global i32 0
@y.404 = common global i32 0
@x.405 = common global i32 0
@y.406 = common global i32 0
@x.407 = common global i32 0
@y.408 = common global i32 0
@x.409 = common global i32 0
@y.410 = common global i32 0
@x.411 = common global i32 0
@y.412 = common global i32 0
@x.413 = common global i32 0
@y.414 = common global i32 0
@x.415 = common global i32 0
@y.416 = common global i32 0
@x.417 = common global i32 0
@y.418 = common global i32 0
@x.419 = common global i32 0
@y.420 = common global i32 0
@x.421 = common global i32 0
@y.422 = common global i32 0
@x.423 = common global i32 0
@y.424 = common global i32 0
@x.425 = common global i32 0
@y.426 = common global i32 0
@x.427 = common global i32 0
@y.428 = common global i32 0
@x.429 = common global i32 0
@y.430 = common global i32 0
@x.431 = common global i32 0
@y.432 = common global i32 0
@x.433 = common global i32 0
@y.434 = common global i32 0
@x.435 = common global i32 0
@y.436 = common global i32 0
@x.437 = common global i32 0
@y.438 = common global i32 0
@x.439 = common global i32 0
@y.440 = common global i32 0
@x.441 = common global i32 0
@y.442 = common global i32 0
@x.443 = common global i32 0
@y.444 = common global i32 0
@x.445 = common global i32 0
@y.446 = common global i32 0
@x.447 = common global i32 0
@y.448 = common global i32 0
@x.449 = common global i32 0
@y.450 = common global i32 0
@x.451 = common global i32 0
@y.452 = common global i32 0
@x.453 = common global i32 0
@y.454 = common global i32 0
@x.455 = common global i32 0
@y.456 = common global i32 0
@x.457 = common global i32 0
@y.458 = common global i32 0
@x.459 = common global i32 0
@y.460 = common global i32 0
@x.461 = common global i32 0
@y.462 = common global i32 0
@x.463 = common global i32 0
@y.464 = common global i32 0
@x.465 = common global i32 0
@y.466 = common global i32 0
@x.467 = common global i32 0
@y.468 = common global i32 0
@x.469 = common global i32 0
@y.470 = common global i32 0
@x.471 = common global i32 0
@y.472 = common global i32 0
@x.473 = common global i32 0
@y.474 = common global i32 0
@x.475 = common global i32 0
@y.476 = common global i32 0
@x.477 = common global i32 0
@y.478 = common global i32 0
@x.479 = common global i32 0
@y.480 = common global i32 0
@x.481 = common global i32 0
@y.482 = common global i32 0
@x.483 = common global i32 0
@y.484 = common global i32 0
@x.485 = common global i32 0
@y.486 = common global i32 0
@x.487 = common global i32 0
@y.488 = common global i32 0
@x.489 = common global i32 0
@y.490 = common global i32 0
@x.491 = common global i32 0
@y.492 = common global i32 0
@x.493 = common global i32 0
@y.494 = common global i32 0
@x.495 = common global i32 0
@y.496 = common global i32 0
@x.497 = common global i32 0
@y.498 = common global i32 0
@x.499 = common global i32 0
@y.500 = common global i32 0
@x.501 = common global i32 0
@y.502 = common global i32 0
@x.503 = common global i32 0
@y.504 = common global i32 0
@x.505 = common global i32 0
@y.506 = common global i32 0
@x.507 = common global i32 0
@y.508 = common global i32 0
@x.509 = common global i32 0
@y.510 = common global i32 0
@x.511 = common global i32 0
@y.512 = common global i32 0
@x.513 = common global i32 0
@y.514 = common global i32 0
@x.515 = common global i32 0
@y.516 = common global i32 0
@x.517 = common global i32 0
@y.518 = common global i32 0
@x.519 = common global i32 0
@y.520 = common global i32 0
@x.521 = common global i32 0
@y.522 = common global i32 0
@x.523 = common global i32 0
@y.524 = common global i32 0
@x.525 = common global i32 0
@y.526 = common global i32 0
@x.527 = common global i32 0
@y.528 = common global i32 0
@x.529 = common global i32 0
@y.530 = common global i32 0
@x.531 = common global i32 0
@y.532 = common global i32 0
@x.533 = common global i32 0
@y.534 = common global i32 0
@x.535 = common global i32 0
@y.536 = common global i32 0
@x.537 = common global i32 0
@y.538 = common global i32 0
@x.539 = common global i32 0
@y.540 = common global i32 0
@x.541 = common global i32 0
@y.542 = common global i32 0
@x.543 = common global i32 0
@y.544 = common global i32 0
@x.545 = common global i32 0
@y.546 = common global i32 0
@x.547 = common global i32 0
@y.548 = common global i32 0
@x.549 = common global i32 0
@y.550 = common global i32 0
@x.551 = common global i32 0
@y.552 = common global i32 0
@x.553 = common global i32 0
@y.554 = common global i32 0
@x.555 = common global i32 0
@y.556 = common global i32 0
@x.557 = common global i32 0
@y.558 = common global i32 0
@x.559 = common global i32 0
@y.560 = common global i32 0
@x.561 = common global i32 0
@y.562 = common global i32 0
@x.563 = common global i32 0
@y.564 = common global i32 0
@x.565 = common global i32 0
@y.566 = common global i32 0
@x.567 = common global i32 0
@y.568 = common global i32 0
@x.569 = common global i32 0
@y.570 = common global i32 0
@x.571 = common global i32 0
@y.572 = common global i32 0
@x.573 = common global i32 0
@y.574 = common global i32 0
@x.575 = common global i32 0
@y.576 = common global i32 0
@x.577 = common global i32 0
@y.578 = common global i32 0
@x.579 = common global i32 0
@y.580 = common global i32 0
@x.581 = common global i32 0
@y.582 = common global i32 0
@x.583 = common global i32 0
@y.584 = common global i32 0
@x.585 = common global i32 0
@y.586 = common global i32 0
@x.587 = common global i32 0
@y.588 = common global i32 0
@x.589 = common global i32 0
@y.590 = common global i32 0
@x.591 = common global i32 0
@y.592 = common global i32 0
@x.593 = common global i32 0
@y.594 = common global i32 0
@x.595 = common global i32 0
@y.596 = common global i32 0
@x.597 = common global i32 0
@y.598 = common global i32 0
@x.599 = common global i32 0
@y.600 = common global i32 0
@x.601 = common global i32 0
@y.602 = common global i32 0
@x.603 = common global i32 0
@y.604 = common global i32 0
@x.605 = common global i32 0
@y.606 = common global i32 0
@x.607 = common global i32 0
@y.608 = common global i32 0
@x.609 = common global i32 0
@y.610 = common global i32 0
@x.611 = common global i32 0
@y.612 = common global i32 0
@x.613 = common global i32 0
@y.614 = common global i32 0
@x.615 = common global i32 0
@y.616 = common global i32 0
@x.617 = common global i32 0
@y.618 = common global i32 0
@x.619 = common global i32 0
@y.620 = common global i32 0
@x.621 = common global i32 0
@y.622 = common global i32 0
@x.623 = common global i32 0
@y.624 = common global i32 0
@x.625 = common global i32 0
@y.626 = common global i32 0
@x.627 = common global i32 0
@y.628 = common global i32 0
@x.629 = common global i32 0
@y.630 = common global i32 0
@x.631 = common global i32 0
@y.632 = common global i32 0
@x.633 = common global i32 0
@y.634 = common global i32 0
@x.635 = common global i32 0
@y.636 = common global i32 0
@x.637 = common global i32 0
@y.638 = common global i32 0
@x.639 = common global i32 0
@y.640 = common global i32 0
@x.641 = common global i32 0
@y.642 = common global i32 0
@x.643 = common global i32 0
@y.644 = common global i32 0
@x.645 = common global i32 0
@y.646 = common global i32 0
@x.647 = common global i32 0
@y.648 = common global i32 0
@x.649 = common global i32 0
@y.650 = common global i32 0
@x.651 = common global i32 0
@y.652 = common global i32 0
@x.653 = common global i32 0
@y.654 = common global i32 0
@x.655 = common global i32 0
@y.656 = common global i32 0
@x.657 = common global i32 0
@y.658 = common global i32 0
@x.659 = common global i32 0
@y.660 = common global i32 0
@x.661 = common global i32 0
@y.662 = common global i32 0
@x.663 = common global i32 0
@y.664 = common global i32 0
@x.665 = common global i32 0
@y.666 = common global i32 0
@x.667 = common global i32 0
@y.668 = common global i32 0
@x.669 = common global i32 0
@y.670 = common global i32 0
@x.671 = common global i32 0
@y.672 = common global i32 0
@x.673 = common global i32 0
@y.674 = common global i32 0
@x.675 = common global i32 0
@y.676 = common global i32 0
@x.677 = common global i32 0
@y.678 = common global i32 0
@x.679 = common global i32 0
@y.680 = common global i32 0
@x.681 = common global i32 0
@y.682 = common global i32 0
@x.683 = common global i32 0
@y.684 = common global i32 0
@x.685 = common global i32 0
@y.686 = common global i32 0
@x.687 = common global i32 0
@y.688 = common global i32 0
@x.689 = common global i32 0
@y.690 = common global i32 0
@x.691 = common global i32 0
@y.692 = common global i32 0
@x.693 = common global i32 0
@y.694 = common global i32 0
@x.695 = common global i32 0
@y.696 = common global i32 0
@x.697 = common global i32 0
@y.698 = common global i32 0
@x.699 = common global i32 0
@y.700 = common global i32 0
@x.701 = common global i32 0
@y.702 = common global i32 0
@x.703 = common global i32 0
@y.704 = common global i32 0
@x.705 = common global i32 0
@y.706 = common global i32 0
@x.707 = common global i32 0
@y.708 = common global i32 0
@x.709 = common global i32 0
@y.710 = common global i32 0
@x.711 = common global i32 0
@y.712 = common global i32 0
@x.713 = common global i32 0
@y.714 = common global i32 0
@x.715 = common global i32 0
@y.716 = common global i32 0
@x.717 = common global i32 0
@y.718 = common global i32 0
@x.719 = common global i32 0
@y.720 = common global i32 0
@x.721 = common global i32 0
@y.722 = common global i32 0
@x.723 = common global i32 0
@y.724 = common global i32 0
@x.725 = common global i32 0
@y.726 = common global i32 0
@x.727 = common global i32 0
@y.728 = common global i32 0
@x.729 = common global i32 0
@y.730 = common global i32 0
@x.731 = common global i32 0
@y.732 = common global i32 0
@x.733 = common global i32 0
@y.734 = common global i32 0
@x.735 = common global i32 0
@y.736 = common global i32 0
@x.737 = common global i32 0
@y.738 = common global i32 0
@x.739 = common global i32 0
@y.740 = common global i32 0
@x.741 = common global i32 0
@y.742 = common global i32 0
@x.743 = common global i32 0
@y.744 = common global i32 0
@x.745 = common global i32 0
@y.746 = common global i32 0
@x.747 = common global i32 0
@y.748 = common global i32 0
@x.749 = common global i32 0
@y.750 = common global i32 0
@x.751 = common global i32 0
@y.752 = common global i32 0
@x.753 = common global i32 0
@y.754 = common global i32 0
@x.755 = common global i32 0
@y.756 = common global i32 0
@x.757 = common global i32 0
@y.758 = common global i32 0
@x.759 = common global i32 0
@y.760 = common global i32 0
@x.761 = common global i32 0
@y.762 = common global i32 0
@x.763 = common global i32 0
@y.764 = common global i32 0
@x.765 = common global i32 0
@y.766 = common global i32 0
@x.767 = common global i32 0
@y.768 = common global i32 0
@x.769 = common global i32 0
@y.770 = common global i32 0
@x.771 = common global i32 0
@y.772 = common global i32 0
@x.773 = common global i32 0
@y.774 = common global i32 0
@x.775 = common global i32 0
@y.776 = common global i32 0
@x.777 = common global i32 0
@y.778 = common global i32 0
@x.779 = common global i32 0
@y.780 = common global i32 0
@x.781 = common global i32 0
@y.782 = common global i32 0
@x.783 = common global i32 0
@y.784 = common global i32 0
@x.785 = common global i32 0
@y.786 = common global i32 0
@x.787 = common global i32 0
@y.788 = common global i32 0
@x.789 = common global i32 0
@y.790 = common global i32 0
@x.791 = common global i32 0
@y.792 = common global i32 0
@x.793 = common global i32 0
@y.794 = common global i32 0
@x.795 = common global i32 0
@y.796 = common global i32 0
@x.797 = common global i32 0
@y.798 = common global i32 0
@x.799 = common global i32 0
@y.800 = common global i32 0
@x.801 = common global i32 0
@y.802 = common global i32 0
@x.803 = common global i32 0
@y.804 = common global i32 0
@x.805 = common global i32 0
@y.806 = common global i32 0
@x.807 = common global i32 0
@y.808 = common global i32 0
@x.809 = common global i32 0
@y.810 = common global i32 0
@x.811 = common global i32 0
@y.812 = common global i32 0
@x.813 = common global i32 0
@y.814 = common global i32 0
@x.815 = common global i32 0
@y.816 = common global i32 0
@x.817 = common global i32 0
@y.818 = common global i32 0
@x.819 = common global i32 0
@y.820 = common global i32 0
@x.821 = common global i32 0
@y.822 = common global i32 0
@x.823 = common global i32 0
@y.824 = common global i32 0
@x.825 = common global i32 0
@y.826 = common global i32 0
@x.827 = common global i32 0
@y.828 = common global i32 0
@x.829 = common global i32 0
@y.830 = common global i32 0
@x.831 = common global i32 0
@y.832 = common global i32 0
@x.833 = common global i32 0
@y.834 = common global i32 0
@x.835 = common global i32 0
@y.836 = common global i32 0
@x.837 = common global i32 0
@y.838 = common global i32 0
@x.839 = common global i32 0
@y.840 = common global i32 0
@x.841 = common global i32 0
@y.842 = common global i32 0
@x.843 = common global i32 0
@y.844 = common global i32 0
@x.845 = common global i32 0
@y.846 = common global i32 0
@x.847 = common global i32 0
@y.848 = common global i32 0
@x.849 = common global i32 0
@y.850 = common global i32 0
@x.851 = common global i32 0
@y.852 = common global i32 0
@x.853 = common global i32 0
@y.854 = common global i32 0
@x.855 = common global i32 0
@y.856 = common global i32 0
@x.857 = common global i32 0
@y.858 = common global i32 0
@x.859 = common global i32 0
@y.860 = common global i32 0
@x.861 = common global i32 0
@y.862 = common global i32 0
@x.863 = common global i32 0
@y.864 = common global i32 0
@x.865 = common global i32 0
@y.866 = common global i32 0
@x.867 = common global i32 0
@y.868 = common global i32 0
@x.869 = common global i32 0
@y.870 = common global i32 0
@x.871 = common global i32 0
@y.872 = common global i32 0
@x.873 = common global i32 0
@y.874 = common global i32 0
@x.875 = common global i32 0
@y.876 = common global i32 0
@x.877 = common global i32 0
@y.878 = common global i32 0
@x.879 = common global i32 0
@y.880 = common global i32 0
@x.881 = common global i32 0
@y.882 = common global i32 0
@x.883 = common global i32 0
@y.884 = common global i32 0
@x.885 = common global i32 0
@y.886 = common global i32 0
@x.887 = common global i32 0
@y.888 = common global i32 0
@x.889 = common global i32 0
@y.890 = common global i32 0
@x.891 = common global i32 0
@y.892 = common global i32 0
@x.893 = common global i32 0
@y.894 = common global i32 0
@x.895 = common global i32 0
@y.896 = common global i32 0
@x.897 = common global i32 0
@y.898 = common global i32 0
@x.899 = common global i32 0
@y.900 = common global i32 0
@x.901 = common global i32 0
@y.902 = common global i32 0
@x.903 = common global i32 0
@y.904 = common global i32 0
@x.905 = common global i32 0
@y.906 = common global i32 0
@x.907 = common global i32 0
@y.908 = common global i32 0
@x.909 = common global i32 0
@y.910 = common global i32 0
@x.911 = common global i32 0
@y.912 = common global i32 0
@x.913 = common global i32 0
@y.914 = common global i32 0
@x.915 = common global i32 0
@y.916 = common global i32 0
@x.917 = common global i32 0
@y.918 = common global i32 0
@x.919 = common global i32 0
@y.920 = common global i32 0
@x.921 = common global i32 0
@y.922 = common global i32 0
@x.923 = common global i32 0
@y.924 = common global i32 0
@x.925 = common global i32 0
@y.926 = common global i32 0
@x.927 = common global i32 0
@y.928 = common global i32 0
@x.929 = common global i32 0
@y.930 = common global i32 0
@x.931 = common global i32 0
@y.932 = common global i32 0
@x.933 = common global i32 0
@y.934 = common global i32 0
@x.935 = common global i32 0
@y.936 = common global i32 0
@x.937 = common global i32 0
@y.938 = common global i32 0
@x.939 = common global i32 0
@y.940 = common global i32 0
@x.941 = common global i32 0
@y.942 = common global i32 0
@x.943 = common global i32 0
@y.944 = common global i32 0
@x.945 = common global i32 0
@y.946 = common global i32 0
@x.947 = common global i32 0
@y.948 = common global i32 0
@x.949 = common global i32 0
@y.950 = common global i32 0
@x.951 = common global i32 0
@y.952 = common global i32 0
@x.953 = common global i32 0
@y.954 = common global i32 0
@x.955 = common global i32 0
@y.956 = common global i32 0
@x.957 = common global i32 0
@y.958 = common global i32 0
@x.959 = common global i32 0
@y.960 = common global i32 0
@x.961 = common global i32 0
@y.962 = common global i32 0
@x.963 = common global i32 0
@y.964 = common global i32 0
@x.965 = common global i32 0
@y.966 = common global i32 0
@x.967 = common global i32 0
@y.968 = common global i32 0
@x.969 = common global i32 0
@y.970 = common global i32 0
@x.971 = common global i32 0
@y.972 = common global i32 0
@x.973 = common global i32 0
@y.974 = common global i32 0
@x.975 = common global i32 0
@y.976 = common global i32 0
@x.977 = common global i32 0
@y.978 = common global i32 0
@x.979 = common global i32 0
@y.980 = common global i32 0
@x.981 = common global i32 0
@y.982 = common global i32 0
@x.983 = common global i32 0
@y.984 = common global i32 0
@x.985 = common global i32 0
@y.986 = common global i32 0
@x.987 = common global i32 0
@y.988 = common global i32 0
@x.989 = common global i32 0
@y.990 = common global i32 0
@x.991 = common global i32 0
@y.992 = common global i32 0
@x.993 = common global i32 0
@y.994 = common global i32 0
@x.995 = common global i32 0
@y.996 = common global i32 0
@x.997 = common global i32 0
@y.998 = common global i32 0
@x.999 = common global i32 0
@y.1000 = common global i32 0
@x.1001 = common global i32 0
@y.1002 = common global i32 0
@x.1003 = common global i32 0
@y.1004 = common global i32 0
@x.1005 = common global i32 0
@y.1006 = common global i32 0
@x.1007 = common global i32 0
@y.1008 = common global i32 0
@x.1009 = common global i32 0
@y.1010 = common global i32 0
@x.1011 = common global i32 0
@y.1012 = common global i32 0
@x.1013 = common global i32 0
@y.1014 = common global i32 0
@x.1015 = common global i32 0
@y.1016 = common global i32 0
@x.1017 = common global i32 0
@y.1018 = common global i32 0
@x.1019 = common global i32 0
@y.1020 = common global i32 0
@x.1021 = common global i32 0
@y.1022 = common global i32 0
@x.1023 = common global i32 0
@y.1024 = common global i32 0
@x.1025 = common global i32 0
@y.1026 = common global i32 0
@x.1027 = common global i32 0
@y.1028 = common global i32 0
@x.1029 = common global i32 0
@y.1030 = common global i32 0
@x.1031 = common global i32 0
@y.1032 = common global i32 0
@x.1033 = common global i32 0
@y.1034 = common global i32 0

; Function Attrs: noinline uwtable
define internal void @__cxx_global_var_init() #0 section ".text.startup" {
  call void @_ZNSt8ios_base4InitC1Ev(%"class.std::ios_base::Init"* @_ZStL8__ioinit)
  %1 = call i32 @__cxa_atexit(void (i8*)* bitcast (void (%"class.std::ios_base::Init"*)* @_ZNSt8ios_base4InitD1Ev to void (i8*)*), i8* getelementptr inbounds (%"class.std::ios_base::Init", %"class.std::ios_base::Init"* @_ZStL8__ioinit, i32 0, i32 0), i8* @__dso_handle) #3
  ret void
}

declare void @_ZNSt8ios_base4InitC1Ev(%"class.std::ios_base::Init"*) unnamed_addr #1

; Function Attrs: nounwind
declare void @_ZNSt8ios_base4InitD1Ev(%"class.std::ios_base::Init"*) unnamed_addr #2

; Function Attrs: nounwind
declare i32 @__cxa_atexit(void (i8*)*, i8*, i8*) #3

; Function Attrs: noinline norecurse uwtable
define i32 @main() #4 personality i8* bitcast (i32 (...)* @__gxx_personality_v0 to i8*) {
  %1 = load i32, i32* @x.17
  %2 = load i32, i32* @y.18
  %3 = sub i32 %1, 1
  %4 = mul i32 %1, %3
  %5 = urem i32 %4, 2
  %6 = icmp eq i32 %5, 0
  %7 = icmp slt i32 %2, 10
  %8 = or i1 %6, %7
  br i1 %8, label %9, label %953

; <label>:9:                                      ; preds = %0, %953
  %10 = alloca i32, align 4
  %11 = alloca i32, align 4
  %12 = alloca i32, align 4
  %13 = alloca i32, align 4
  %14 = alloca %"class.std::__debug::vector", align 8
  %15 = alloca %"class.std::allocator", align 1
  %16 = alloca i8*
  %17 = alloca i32
  %18 = alloca i32, align 4
  %19 = alloca %"class.__gnu_debug::_Safe_iterator", align 8
  %20 = alloca %"class.__gnu_debug::_Safe_iterator", align 8
  %21 = alloca %"class.std::__debug::vector.0", align 8
  %22 = alloca %"class.std::allocator.7", align 1
  %23 = alloca i32, align 4
  %24 = alloca i32, align 4
  %25 = alloca i32, align 4
  %26 = alloca i32, align 4
  %27 = alloca %"struct.std::pair", align 4
  %28 = alloca %"struct.std::pair", align 4
  %29 = alloca %"class.std::__debug::vector.22", align 8
  %30 = alloca %"class.std::__debug::vector", align 8
  %31 = alloca %"class.std::allocator", align 1
  %32 = alloca %"class.std::allocator.29", align 1
  %33 = alloca i32, align 4
  %34 = alloca %"class.std::queue", align 8
  %35 = alloca %"class.std::__debug::deque", align 8
  %36 = alloca %"class.std::__debug::vector", align 8
  %37 = alloca i32, align 4
  %38 = alloca %"class.std::allocator", align 1
  %39 = alloca i32, align 4
  %40 = alloca %"class.std::__debug::vector.10"*, align 8
  %41 = alloca %"class.__gnu_debug::_Safe_iterator.37", align 8
  %42 = alloca %"class.__gnu_debug::_Safe_iterator.37", align 8
  %43 = alloca i32
  %44 = alloca %"struct.std::pair", align 4
  %45 = alloca i32, align 4
  %46 = alloca i32, align 4
  %47 = alloca %"class.std::__debug::vector", align 8
  %48 = alloca %"class.std::allocator", align 1
  %49 = alloca i32, align 4
  %50 = alloca i32, align 4
  %51 = alloca i32, align 4
  %52 = alloca %"class.__gnu_debug::_Safe_iterator", align 8
  %53 = alloca %"class.__gnu_debug::_Safe_iterator", align 8
  store i32 0, i32* %10, align 4
  %54 = call dereferenceable(280) %"class.std::basic_istream"* @_ZNSirsERi(%"class.std::basic_istream"* @_ZSt3cin, i32* dereferenceable(4) %11)
  %55 = call dereferenceable(280) %"class.std::basic_istream"* @_ZNSirsERi(%"class.std::basic_istream"* %54, i32* dereferenceable(4) %12)
  %56 = call dereferenceable(280) %"class.std::basic_istream"* @_ZNSirsERi(%"class.std::basic_istream"* %55, i32* dereferenceable(4) %13)
  %57 = load i32, i32* %13, align 4
  %58 = sext i32 %57 to i64
  call void @_ZNSaIiEC2Ev(%"class.std::allocator"* %15) #3
  %59 = load i32, i32* @x.17
  %60 = load i32, i32* @y.18
  %61 = sub i32 %59, 1
  %62 = mul i32 %59, %61
  %63 = urem i32 %62, 2
  %64 = icmp eq i32 %63, 0
  %65 = icmp slt i32 %60, 10
  %66 = or i1 %64, %65
  br i1 %66, label %67, label %953

; <label>:67:                                     ; preds = %9
  invoke void @_ZNSt7__debug6vectorIiSaIiEEC2EmRKS1_(%"class.std::__debug::vector"* %14, i64 %58, %"class.std::allocator"* dereferenceable(1) %15)
          to label %68 unwind label %123

; <label>:68:                                     ; preds = %67
  call void @_ZNSaIiED2Ev(%"class.std::allocator"* %15) #3
  store i32 0, i32* %18, align 4
  br label %69

; <label>:69:                                     ; preds = %120, %68
  %70 = load i32, i32* @x.17
  %71 = load i32, i32* @y.18
  %72 = sub i32 %70, 1
  %73 = mul i32 %70, %72
  %74 = urem i32 %73, 2
  %75 = icmp eq i32 %74, 0
  %76 = icmp slt i32 %71, 10
  %77 = or i1 %75, %76
  br i1 %77, label %78, label %1003

; <label>:78:                                     ; preds = %69, %1003
  %79 = load i32, i32* %18, align 4
  %80 = load i32, i32* %13, align 4
  %81 = icmp slt i32 %79, %80
  %82 = load i32, i32* @x.17
  %83 = load i32, i32* @y.18
  %84 = sub i32 %82, 1
  %85 = mul i32 %82, %84
  %86 = urem i32 %85, 2
  %87 = icmp eq i32 %86, 0
  %88 = icmp slt i32 %83, 10
  %89 = or i1 %87, %88
  br i1 %89, label %90, label %1003

; <label>:90:                                     ; preds = %78
  br i1 %81, label %91, label %149

; <label>:91:                                     ; preds = %90
  %92 = load i32, i32* %18, align 4
  %93 = sext i32 %92 to i64
  %94 = call dereferenceable(4) i32* @_ZNSt7__debug6vectorIiSaIiEEixEm(%"class.std::__debug::vector"* %14, i64 %93) #3
  %95 = invoke dereferenceable(280) %"class.std::basic_istream"* @_ZNSirsERi(%"class.std::basic_istream"* @_ZSt3cin, i32* dereferenceable(4) %94)
          to label %96 unwind label %145

; <label>:96:                                     ; preds = %91
  %97 = load i32, i32* @x.17
  %98 = load i32, i32* @y.18
  %99 = sub i32 %97, 1
  %100 = mul i32 %97, %99
  %101 = urem i32 %100, 2
  %102 = icmp eq i32 %101, 0
  %103 = icmp slt i32 %98, 10
  %104 = or i1 %102, %103
  br i1 %104, label %105, label %1007

; <label>:105:                                    ; preds = %96, %1007
  %106 = load i32, i32* %18, align 4
  %107 = sext i32 %106 to i64
  %108 = call dereferenceable(4) i32* @_ZNSt7__debug6vectorIiSaIiEEixEm(%"class.std::__debug::vector"* %14, i64 %107) #3
  %109 = load i32, i32* %108, align 4
  %110 = add nsw i32 %109, -1
  store i32 %110, i32* %108, align 4
  %111 = load i32, i32* @x.17
  %112 = load i32, i32* @y.18
  %113 = sub i32 %111, 1
  %114 = mul i32 %111, %113
  %115 = urem i32 %114, 2
  %116 = icmp eq i32 %115, 0
  %117 = icmp slt i32 %112, 10
  %118 = or i1 %116, %117
  br i1 %118, label %119, label %1007

; <label>:119:                                    ; preds = %105
  br label %120

; <label>:120:                                    ; preds = %119
  %121 = load i32, i32* %18, align 4
  %122 = add nsw i32 %121, 1
  store i32 %122, i32* %18, align 4
  br label %69

; <label>:123:                                    ; preds = %67
  %124 = load i32, i32* @x.17
  %125 = load i32, i32* @y.18
  %126 = sub i32 %124, 1
  %127 = mul i32 %124, %126
  %128 = urem i32 %127, 2
  %129 = icmp eq i32 %128, 0
  %130 = icmp slt i32 %125, 10
  %131 = or i1 %129, %130
  br i1 %131, label %132, label %1014

; <label>:132:                                    ; preds = %123, %1014
  %133 = landingpad { i8*, i32 }
          cleanup
  %134 = extractvalue { i8*, i32 } %133, 0
  store i8* %134, i8** %16, align 8
  %135 = extractvalue { i8*, i32 } %133, 1
  store i32 %135, i32* %17, align 4
  call void @_ZNSaIiED2Ev(%"class.std::allocator"* %15) #3
  %136 = load i32, i32* @x.17
  %137 = load i32, i32* @y.18
  %138 = sub i32 %136, 1
  %139 = mul i32 %136, %138
  %140 = urem i32 %139, 2
  %141 = icmp eq i32 %140, 0
  %142 = icmp slt i32 %137, 10
  %143 = or i1 %141, %142
  br i1 %143, label %144, label %1014

; <label>:144:                                    ; preds = %132
  br label %948

; <label>:145:                                    ; preds = %91
  %146 = landingpad { i8*, i32 }
          cleanup
  %147 = extractvalue { i8*, i32 } %146, 0
  store i8* %147, i8** %16, align 8
  %148 = extractvalue { i8*, i32 } %146, 1
  store i32 %148, i32* %17, align 4
  br label %947

; <label>:149:                                    ; preds = %90
  %150 = load i32, i32* @x.17
  %151 = load i32, i32* @y.18
  %152 = sub i32 %150, 1
  %153 = mul i32 %150, %152
  %154 = urem i32 %153, 2
  %155 = icmp eq i32 %154, 0
  %156 = icmp slt i32 %151, 10
  %157 = or i1 %155, %156
  br i1 %157, label %158, label %1018

; <label>:158:                                    ; preds = %149, %1018
  call void @_ZNSt7__debug6vectorIiSaIiEE5beginEv(%"class.__gnu_debug::_Safe_iterator"* sret %19, %"class.std::__debug::vector"* %14) #3
  call void @_ZNSt7__debug6vectorIiSaIiEE3endEv(%"class.__gnu_debug::_Safe_iterator"* sret %20, %"class.std::__debug::vector"* %14) #3
  %159 = load i32, i32* @x.17
  %160 = load i32, i32* @y.18
  %161 = sub i32 %159, 1
  %162 = mul i32 %159, %161
  %163 = urem i32 %162, 2
  %164 = icmp eq i32 %163, 0
  %165 = icmp slt i32 %160, 10
  %166 = or i1 %164, %165
  br i1 %166, label %167, label %1018

; <label>:167:                                    ; preds = %158
  invoke void @_ZSt4sortIN11__gnu_debug14_Safe_iteratorIN9__gnu_cxx17__normal_iteratorIPiNSt9__cxx19986vectorIiSaIiEEEEENSt7__debug6vectorIiS7_EEEEEvT_SE_(%"class.__gnu_debug::_Safe_iterator"* %19, %"class.__gnu_debug::_Safe_iterator"* %20)
          to label %168 unwind label %258

; <label>:168:                                    ; preds = %167
  %169 = load i32, i32* @x.17
  %170 = load i32, i32* @y.18
  %171 = sub i32 %169, 1
  %172 = mul i32 %169, %171
  %173 = urem i32 %172, 2
  %174 = icmp eq i32 %173, 0
  %175 = icmp slt i32 %170, 10
  %176 = or i1 %174, %175
  br i1 %176, label %177, label %1019

; <label>:177:                                    ; preds = %168, %1019
  call void @_ZN11__gnu_debug14_Safe_iteratorIN9__gnu_cxx17__normal_iteratorIPiNSt9__cxx19986vectorIiSaIiEEEEENSt7__debug6vectorIiS6_EEED2Ev(%"class.__gnu_debug::_Safe_iterator"* %20) #3
  call void @_ZN11__gnu_debug14_Safe_iteratorIN9__gnu_cxx17__normal_iteratorIPiNSt9__cxx19986vectorIiSaIiEEEEENSt7__debug6vectorIiS6_EEED2Ev(%"class.__gnu_debug::_Safe_iterator"* %19) #3
  %178 = load i32, i32* %11, align 4
  %179 = sext i32 %178 to i64
  call void @_ZNSaINSt7__debug6vectorISt4pairIiiESaIS2_EEEEC2Ev(%"class.std::allocator.7"* %22) #3
  %180 = load i32, i32* @x.17
  %181 = load i32, i32* @y.18
  %182 = sub i32 %180, 1
  %183 = mul i32 %180, %182
  %184 = urem i32 %183, 2
  %185 = icmp eq i32 %184, 0
  %186 = icmp slt i32 %181, 10
  %187 = or i1 %185, %186
  br i1 %187, label %188, label %1019

; <label>:188:                                    ; preds = %177
  invoke void @_ZNSt7__debug6vectorINS0_ISt4pairIiiESaIS2_EEESaIS4_EEC2EmRKS5_(%"class.std::__debug::vector.0"* %21, i64 %179, %"class.std::allocator.7"* dereferenceable(1) %22)
          to label %189 unwind label %262

; <label>:189:                                    ; preds = %188
  call void @_ZNSaINSt7__debug6vectorISt4pairIiiESaIS2_EEEED2Ev(%"class.std::allocator.7"* %22) #3
  store i32 0, i32* %23, align 4
  br label %190

; <label>:190:                                    ; preds = %255, %189
  %191 = load i32, i32* @x.17
  %192 = load i32, i32* @y.18
  %193 = sub i32 %191, 1
  %194 = mul i32 %191, %193
  %195 = urem i32 %194, 2
  %196 = icmp eq i32 %195, 0
  %197 = icmp slt i32 %192, 10
  %198 = or i1 %196, %197
  br i1 %198, label %199, label %1022

; <label>:199:                                    ; preds = %190, %1022
  %200 = load i32, i32* %23, align 4
  %201 = load i32, i32* %12, align 4
  %202 = icmp slt i32 %200, %201
  %203 = load i32, i32* @x.17
  %204 = load i32, i32* @y.18
  %205 = sub i32 %203, 1
  %206 = mul i32 %203, %205
  %207 = urem i32 %206, 2
  %208 = icmp eq i32 %207, 0
  %209 = icmp slt i32 %204, 10
  %210 = or i1 %208, %209
  br i1 %210, label %211, label %1022

; <label>:211:                                    ; preds = %199
  br i1 %202, label %212, label %270

; <label>:212:                                    ; preds = %211
  %213 = invoke dereferenceable(280) %"class.std::basic_istream"* @_ZNSirsERi(%"class.std::basic_istream"* @_ZSt3cin, i32* dereferenceable(4) %24)
          to label %214 unwind label %266

; <label>:214:                                    ; preds = %212
  %215 = invoke dereferenceable(280) %"class.std::basic_istream"* @_ZNSirsERi(%"class.std::basic_istream"* %213, i32* dereferenceable(4) %25)
          to label %216 unwind label %266

; <label>:216:                                    ; preds = %214
  %217 = invoke dereferenceable(280) %"class.std::basic_istream"* @_ZNSirsERi(%"class.std::basic_istream"* %215, i32* dereferenceable(4) %26)
          to label %218 unwind label %266

; <label>:218:                                    ; preds = %216
  %219 = load i32, i32* %24, align 4
  %220 = add nsw i32 %219, -1
  store i32 %220, i32* %24, align 4
  %221 = load i32, i32* %25, align 4
  %222 = add nsw i32 %221, -1
  store i32 %222, i32* %25, align 4
  %223 = load i32, i32* %24, align 4
  %224 = sext i32 %223 to i64
  %225 = call dereferenceable(56) %"class.std::__debug::vector.10"* @_ZNSt7__debug6vectorINS0_ISt4pairIiiESaIS2_EEESaIS4_EEixEm(%"class.std::__debug::vector.0"* %21, i64 %224) #3
  %226 = invoke i64 @_ZSt9make_pairIRiS0_ESt4pairINSt17__decay_and_stripIT_E6__typeENS2_IT0_E6__typeEEOS3_OS6_(i32* dereferenceable(4) %25, i32* dereferenceable(4) %26)
          to label %227 unwind label %266

; <label>:227:                                    ; preds = %218
  %228 = load i32, i32* @x.17
  %229 = load i32, i32* @y.18
  %230 = sub i32 %228, 1
  %231 = mul i32 %228, %230
  %232 = urem i32 %231, 2
  %233 = icmp eq i32 %232, 0
  %234 = icmp slt i32 %229, 10
  %235 = or i1 %233, %234
  br i1 %235, label %236, label %1026

; <label>:236:                                    ; preds = %227, %1026
  %237 = bitcast %"struct.std::pair"* %27 to i64*
  store i64 %226, i64* %237, align 4
  %238 = load i32, i32* @x.17
  %239 = load i32, i32* @y.18
  %240 = sub i32 %238, 1
  %241 = mul i32 %238, %240
  %242 = urem i32 %241, 2
  %243 = icmp eq i32 %242, 0
  %244 = icmp slt i32 %239, 10
  %245 = or i1 %243, %244
  br i1 %245, label %246, label %1026

; <label>:246:                                    ; preds = %236
  invoke void @_ZNSt7__debug6vectorISt4pairIiiESaIS2_EE9push_backIS2_EEN9__gnu_cxx11__enable_ifIXntsr3std10__are_sameIT_bEE7__valueEvE6__typeEOS2_(%"class.std::__debug::vector.10"* %225, %"struct.std::pair"* dereferenceable(8) %27)
          to label %247 unwind label %266

; <label>:247:                                    ; preds = %246
  %248 = load i32, i32* %25, align 4
  %249 = sext i32 %248 to i64
  %250 = call dereferenceable(56) %"class.std::__debug::vector.10"* @_ZNSt7__debug6vectorINS0_ISt4pairIiiESaIS2_EEESaIS4_EEixEm(%"class.std::__debug::vector.0"* %21, i64 %249) #3
  %251 = invoke i64 @_ZSt9make_pairIRiS0_ESt4pairINSt17__decay_and_stripIT_E6__typeENS2_IT0_E6__typeEEOS3_OS6_(i32* dereferenceable(4) %24, i32* dereferenceable(4) %26)
          to label %252 unwind label %266

; <label>:252:                                    ; preds = %247
  %253 = bitcast %"struct.std::pair"* %28 to i64*
  store i64 %251, i64* %253, align 4
  invoke void @_ZNSt7__debug6vectorISt4pairIiiESaIS2_EE9push_backIS2_EEN9__gnu_cxx11__enable_ifIXntsr3std10__are_sameIT_bEE7__valueEvE6__typeEOS2_(%"class.std::__debug::vector.10"* %250, %"struct.std::pair"* dereferenceable(8) %28)
          to label %254 unwind label %266

; <label>:254:                                    ; preds = %252
  br label %255

; <label>:255:                                    ; preds = %254
  %256 = load i32, i32* %23, align 4
  %257 = add nsw i32 %256, 1
  store i32 %257, i32* %23, align 4
  br label %190

; <label>:258:                                    ; preds = %167
  %259 = landingpad { i8*, i32 }
          cleanup
  %260 = extractvalue { i8*, i32 } %259, 0
  store i8* %260, i8** %16, align 8
  %261 = extractvalue { i8*, i32 } %259, 1
  store i32 %261, i32* %17, align 4
  call void @_ZN11__gnu_debug14_Safe_iteratorIN9__gnu_cxx17__normal_iteratorIPiNSt9__cxx19986vectorIiSaIiEEEEENSt7__debug6vectorIiS6_EEED2Ev(%"class.__gnu_debug::_Safe_iterator"* %20) #3
  call void @_ZN11__gnu_debug14_Safe_iteratorIN9__gnu_cxx17__normal_iteratorIPiNSt9__cxx19986vectorIiSaIiEEEEENSt7__debug6vectorIiS6_EEED2Ev(%"class.__gnu_debug::_Safe_iterator"* %19) #3
  br label %947

; <label>:262:                                    ; preds = %188
  %263 = landingpad { i8*, i32 }
          cleanup
  %264 = extractvalue { i8*, i32 } %263, 0
  store i8* %264, i8** %16, align 8
  %265 = extractvalue { i8*, i32 } %263, 1
  store i32 %265, i32* %17, align 4
  call void @_ZNSaINSt7__debug6vectorISt4pairIiiESaIS2_EEEED2Ev(%"class.std::allocator.7"* %22) #3
  br label %947

; <label>:266:                                    ; preds = %252, %247, %246, %218, %216, %214, %212
  %267 = landingpad { i8*, i32 }
          cleanup
  %268 = extractvalue { i8*, i32 } %267, 0
  store i8* %268, i8** %16, align 8
  %269 = extractvalue { i8*, i32 } %267, 1
  store i32 %269, i32* %17, align 4
  br label %946

; <label>:270:                                    ; preds = %211
  %271 = load i32, i32* @x.17
  %272 = load i32, i32* @y.18
  %273 = sub i32 %271, 1
  %274 = mul i32 %271, %273
  %275 = urem i32 %274, 2
  %276 = icmp eq i32 %275, 0
  %277 = icmp slt i32 %272, 10
  %278 = or i1 %276, %277
  br i1 %278, label %279, label %1028

; <label>:279:                                    ; preds = %270, %1028
  %280 = load i32, i32* %13, align 4
  %281 = sext i32 %280 to i64
  %282 = load i32, i32* %13, align 4
  %283 = sext i32 %282 to i64
  call void @_ZNSaIiEC2Ev(%"class.std::allocator"* %31) #3
  %284 = load i32, i32* @x.17
  %285 = load i32, i32* @y.18
  %286 = sub i32 %284, 1
  %287 = mul i32 %284, %286
  %288 = urem i32 %287, 2
  %289 = icmp eq i32 %288, 0
  %290 = icmp slt i32 %285, 10
  %291 = or i1 %289, %290
  br i1 %291, label %292, label %1028

; <label>:292:                                    ; preds = %279
  invoke void @_ZNSt7__debug6vectorIiSaIiEEC2EmRKS1_(%"class.std::__debug::vector"* %30, i64 %283, %"class.std::allocator"* dereferenceable(1) %31)
          to label %293 unwind label %423

; <label>:293:                                    ; preds = %292
  %294 = load i32, i32* @x.17
  %295 = load i32, i32* @y.18
  %296 = sub i32 %294, 1
  %297 = mul i32 %294, %296
  %298 = urem i32 %297, 2
  %299 = icmp eq i32 %298, 0
  %300 = icmp slt i32 %295, 10
  %301 = or i1 %299, %300
  br i1 %301, label %302, label %1033

; <label>:302:                                    ; preds = %293, %1033
  call void @_ZNSaINSt7__debug6vectorIiSaIiEEEEC2Ev(%"class.std::allocator.29"* %32) #3
  %303 = load i32, i32* @x.17
  %304 = load i32, i32* @y.18
  %305 = sub i32 %303, 1
  %306 = mul i32 %303, %305
  %307 = urem i32 %306, 2
  %308 = icmp eq i32 %307, 0
  %309 = icmp slt i32 %304, 10
  %310 = or i1 %308, %309
  br i1 %310, label %311, label %1033

; <label>:311:                                    ; preds = %302
  invoke void @_ZNSt7__debug6vectorINS0_IiSaIiEEESaIS2_EEC2EmRKS2_RKS3_(%"class.std::__debug::vector.22"* %29, i64 %281, %"class.std::__debug::vector"* dereferenceable(56) %30, %"class.std::allocator.29"* dereferenceable(1) %32)
          to label %312 unwind label %427

; <label>:312:                                    ; preds = %311
  %313 = load i32, i32* @x.17
  %314 = load i32, i32* @y.18
  %315 = sub i32 %313, 1
  %316 = mul i32 %313, %315
  %317 = urem i32 %316, 2
  %318 = icmp eq i32 %317, 0
  %319 = icmp slt i32 %314, 10
  %320 = or i1 %318, %319
  br i1 %320, label %321, label %1034

; <label>:321:                                    ; preds = %312, %1034
  call void @_ZNSaINSt7__debug6vectorIiSaIiEEEED2Ev(%"class.std::allocator.29"* %32) #3
  call void @_ZNSt7__debug6vectorIiSaIiEED2Ev(%"class.std::__debug::vector"* %30) #3
  call void @_ZNSaIiED2Ev(%"class.std::allocator"* %31) #3
  store i32 0, i32* %33, align 4
  %322 = load i32, i32* @x.17
  %323 = load i32, i32* @y.18
  %324 = sub i32 %322, 1
  %325 = mul i32 %322, %324
  %326 = urem i32 %325, 2
  %327 = icmp eq i32 %326, 0
  %328 = icmp slt i32 %323, 10
  %329 = or i1 %327, %328
  br i1 %329, label %330, label %1034

; <label>:330:                                    ; preds = %321
  br label %331

; <label>:331:                                    ; preds = %710, %330
  %332 = load i32, i32* %33, align 4
  %333 = load i32, i32* %13, align 4
  %334 = icmp slt i32 %332, %333
  br i1 %334, label %335, label %731

; <label>:335:                                    ; preds = %331
  %336 = load i32, i32* @x.17
  %337 = load i32, i32* @y.18
  %338 = sub i32 %336, 1
  %339 = mul i32 %336, %338
  %340 = urem i32 %339, 2
  %341 = icmp eq i32 %340, 0
  %342 = icmp slt i32 %337, 10
  %343 = or i1 %341, %342
  br i1 %343, label %344, label %1035

; <label>:344:                                    ; preds = %335, %1035
  %345 = bitcast %"class.std::__debug::deque"* %35 to i8*
  call void @llvm.memset.p0i8.i64(i8* %345, i8 0, i64 104, i32 8, i1 false)
  %346 = load i32, i32* @x.17
  %347 = load i32, i32* @y.18
  %348 = sub i32 %346, 1
  %349 = mul i32 %346, %348
  %350 = urem i32 %349, 2
  %351 = icmp eq i32 %350, 0
  %352 = icmp slt i32 %347, 10
  %353 = or i1 %351, %352
  br i1 %353, label %354, label %1035

; <label>:354:                                    ; preds = %344
  invoke void @_ZNSt7__debug5dequeIiSaIiEEC2Ev(%"class.std::__debug::deque"* %35)
          to label %355 unwind label %432

; <label>:355:                                    ; preds = %354
  %356 = load i32, i32* @x.17
  %357 = load i32, i32* @y.18
  %358 = sub i32 %356, 1
  %359 = mul i32 %356, %358
  %360 = urem i32 %359, 2
  %361 = icmp eq i32 %360, 0
  %362 = icmp slt i32 %357, 10
  %363 = or i1 %361, %362
  br i1 %363, label %364, label %1037

; <label>:364:                                    ; preds = %355, %1037
  %365 = load i32, i32* @x.17
  %366 = load i32, i32* @y.18
  %367 = sub i32 %365, 1
  %368 = mul i32 %365, %367
  %369 = urem i32 %368, 2
  %370 = icmp eq i32 %369, 0
  %371 = icmp slt i32 %366, 10
  %372 = or i1 %370, %371
  br i1 %372, label %373, label %1037

; <label>:373:                                    ; preds = %364
  invoke void @_ZNSt5queueIiNSt7__debug5dequeIiSaIiEEEEC2EOS3_(%"class.std::queue"* %34, %"class.std::__debug::deque"* dereferenceable(104) %35)
          to label %374 unwind label %454

; <label>:374:                                    ; preds = %373
  call void @_ZNSt7__debug5dequeIiSaIiEED2Ev(%"class.std::__debug::deque"* %35) #3
  %375 = load i32, i32* %33, align 4
  %376 = sext i32 %375 to i64
  %377 = call dereferenceable(4) i32* @_ZNSt7__debug6vectorIiSaIiEEixEm(%"class.std::__debug::vector"* %14, i64 %376) #3
  invoke void @_ZNSt5queueIiNSt7__debug5dequeIiSaIiEEEE4pushERKi(%"class.std::queue"* %34, i32* dereferenceable(4) %377)
          to label %378 unwind label %458

; <label>:378:                                    ; preds = %374
  %379 = load i32, i32* %11, align 4
  %380 = sext i32 %379 to i64
  store i32 2147483647, i32* %37, align 4
  call void @_ZNSaIiEC2Ev(%"class.std::allocator"* %38) #3
  invoke void @_ZNSt7__debug6vectorIiSaIiEEC2EmRKiRKS1_(%"class.std::__debug::vector"* %36, i64 %380, i32* dereferenceable(4) %37, %"class.std::allocator"* dereferenceable(1) %38)
          to label %381 unwind label %480

; <label>:381:                                    ; preds = %378
  call void @_ZNSaIiED2Ev(%"class.std::allocator"* %38) #3
  %382 = load i32, i32* %33, align 4
  %383 = sext i32 %382 to i64
  %384 = call dereferenceable(4) i32* @_ZNSt7__debug6vectorIiSaIiEEixEm(%"class.std::__debug::vector"* %14, i64 %383) #3
  %385 = load i32, i32* %384, align 4
  %386 = sext i32 %385 to i64
  %387 = call dereferenceable(4) i32* @_ZNSt7__debug6vectorIiSaIiEEixEm(%"class.std::__debug::vector"* %36, i64 %386) #3
  store i32 0, i32* %387, align 4
  br label %388

; <label>:388:                                    ; preds = %666, %381
  %389 = invoke zeroext i1 @_ZNKSt5queueIiNSt7__debug5dequeIiSaIiEEEE5emptyEv(%"class.std::queue"* %34)
          to label %390 unwind label %484

; <label>:390:                                    ; preds = %388
  %391 = xor i1 %389, true
  br i1 %391, label %392, label %667

; <label>:392:                                    ; preds = %390
  %393 = invoke dereferenceable(4) i32* @_ZNSt5queueIiNSt7__debug5dequeIiSaIiEEEE5frontEv(%"class.std::queue"* %34)
          to label %394 unwind label %484

; <label>:394:                                    ; preds = %392
  %395 = load i32, i32* @x.17
  %396 = load i32, i32* @y.18
  %397 = sub i32 %395, 1
  %398 = mul i32 %395, %397
  %399 = urem i32 %398, 2
  %400 = icmp eq i32 %399, 0
  %401 = icmp slt i32 %396, 10
  %402 = or i1 %400, %401
  br i1 %402, label %403, label %1038

; <label>:403:                                    ; preds = %394, %1038
  %404 = load i32, i32* %393, align 4
  store i32 %404, i32* %39, align 4
  %405 = load i32, i32* @x.17
  %406 = load i32, i32* @y.18
  %407 = sub i32 %405, 1
  %408 = mul i32 %405, %407
  %409 = urem i32 %408, 2
  %410 = icmp eq i32 %409, 0
  %411 = icmp slt i32 %406, 10
  %412 = or i1 %410, %411
  br i1 %412, label %413, label %1038

; <label>:413:                                    ; preds = %403
  invoke void @_ZNSt5queueIiNSt7__debug5dequeIiSaIiEEEE3popEv(%"class.std::queue"* %34)
          to label %414 unwind label %484

; <label>:414:                                    ; preds = %413
  %415 = load i32, i32* %39, align 4
  %416 = sext i32 %415 to i64
  %417 = call dereferenceable(56) %"class.std::__debug::vector.10"* @_ZNSt7__debug6vectorINS0_ISt4pairIiiESaIS2_EEESaIS4_EEixEm(%"class.std::__debug::vector.0"* %21, i64 %416) #3
  store %"class.std::__debug::vector.10"* %417, %"class.std::__debug::vector.10"** %40, align 8
  %418 = load %"class.std::__debug::vector.10"*, %"class.std::__debug::vector.10"** %40, align 8
  call void @_ZNSt7__debug6vectorISt4pairIiiESaIS2_EE5beginEv(%"class.__gnu_debug::_Safe_iterator.37"* sret %41, %"class.std::__debug::vector.10"* %418) #3
  %419 = load %"class.std::__debug::vector.10"*, %"class.std::__debug::vector.10"** %40, align 8
  call void @_ZNSt7__debug6vectorISt4pairIiiESaIS2_EE3endEv(%"class.__gnu_debug::_Safe_iterator.37"* sret %42, %"class.std::__debug::vector.10"* %419) #3
  br label %420

; <label>:420:                                    ; preds = %645, %414
  %421 = call zeroext i1 @_ZN11__gnu_debugneIN9__gnu_cxx17__normal_iteratorIPSt4pairIiiENSt9__cxx19986vectorIS4_SaIS4_EEEEENSt7__debug6vectorIS4_S8_EEEEbRKNS_14_Safe_iteratorIT_T0_EESJ_(%"class.__gnu_debug::_Safe_iterator.37"* dereferenceable(40) %41, %"class.__gnu_debug::_Safe_iterator.37"* dereferenceable(40) %42) #3
  br i1 %421, label %488, label %422

; <label>:422:                                    ; preds = %420
  store i32 13, i32* %43, align 4
  br label %647

; <label>:423:                                    ; preds = %292
  %424 = landingpad { i8*, i32 }
          cleanup
  %425 = extractvalue { i8*, i32 } %424, 0
  store i8* %425, i8** %16, align 8
  %426 = extractvalue { i8*, i32 } %424, 1
  store i32 %426, i32* %17, align 4
  br label %431

; <label>:427:                                    ; preds = %311
  %428 = landingpad { i8*, i32 }
          cleanup
  %429 = extractvalue { i8*, i32 } %428, 0
  store i8* %429, i8** %16, align 8
  %430 = extractvalue { i8*, i32 } %428, 1
  store i32 %430, i32* %17, align 4
  call void @_ZNSaINSt7__debug6vectorIiSaIiEEEED2Ev(%"class.std::allocator.29"* %32) #3
  call void @_ZNSt7__debug6vectorIiSaIiEED2Ev(%"class.std::__debug::vector"* %30) #3
  br label %431

; <label>:431:                                    ; preds = %427, %423
  call void @_ZNSaIiED2Ev(%"class.std::allocator"* %31) #3
  br label %946

; <label>:432:                                    ; preds = %354
  %433 = load i32, i32* @x.17
  %434 = load i32, i32* @y.18
  %435 = sub i32 %433, 1
  %436 = mul i32 %433, %435
  %437 = urem i32 %436, 2
  %438 = icmp eq i32 %437, 0
  %439 = icmp slt i32 %434, 10
  %440 = or i1 %438, %439
  br i1 %440, label %441, label %1040

; <label>:441:                                    ; preds = %432, %1040
  %442 = landingpad { i8*, i32 }
          cleanup
  %443 = extractvalue { i8*, i32 } %442, 0
  store i8* %443, i8** %16, align 8
  %444 = extractvalue { i8*, i32 } %442, 1
  store i32 %444, i32* %17, align 4
  %445 = load i32, i32* @x.17
  %446 = load i32, i32* @y.18
  %447 = sub i32 %445, 1
  %448 = mul i32 %445, %447
  %449 = urem i32 %448, 2
  %450 = icmp eq i32 %449, 0
  %451 = icmp slt i32 %446, 10
  %452 = or i1 %450, %451
  br i1 %452, label %453, label %1040

; <label>:453:                                    ; preds = %441
  br label %945

; <label>:454:                                    ; preds = %373
  %455 = landingpad { i8*, i32 }
          cleanup
  %456 = extractvalue { i8*, i32 } %455, 0
  store i8* %456, i8** %16, align 8
  %457 = extractvalue { i8*, i32 } %455, 1
  store i32 %457, i32* %17, align 4
  call void @_ZNSt7__debug5dequeIiSaIiEED2Ev(%"class.std::__debug::deque"* %35) #3
  br label %945

; <label>:458:                                    ; preds = %374
  %459 = load i32, i32* @x.17
  %460 = load i32, i32* @y.18
  %461 = sub i32 %459, 1
  %462 = mul i32 %459, %461
  %463 = urem i32 %462, 2
  %464 = icmp eq i32 %463, 0
  %465 = icmp slt i32 %460, 10
  %466 = or i1 %464, %465
  br i1 %466, label %467, label %1044

; <label>:467:                                    ; preds = %458, %1044
  %468 = landingpad { i8*, i32 }
          cleanup
  %469 = extractvalue { i8*, i32 } %468, 0
  store i8* %469, i8** %16, align 8
  %470 = extractvalue { i8*, i32 } %468, 1
  store i32 %470, i32* %17, align 4
  %471 = load i32, i32* @x.17
  %472 = load i32, i32* @y.18
  %473 = sub i32 %471, 1
  %474 = mul i32 %471, %473
  %475 = urem i32 %474, 2
  %476 = icmp eq i32 %475, 0
  %477 = icmp slt i32 %472, 10
  %478 = or i1 %476, %477
  br i1 %478, label %479, label %1044

; <label>:479:                                    ; preds = %467
  br label %712

; <label>:480:                                    ; preds = %378
  %481 = landingpad { i8*, i32 }
          cleanup
  %482 = extractvalue { i8*, i32 } %481, 0
  store i8* %482, i8** %16, align 8
  %483 = extractvalue { i8*, i32 } %481, 1
  store i32 %483, i32* %17, align 4
  call void @_ZNSaIiED2Ev(%"class.std::allocator"* %38) #3
  br label %712

; <label>:484:                                    ; preds = %413, %392, %388
  %485 = landingpad { i8*, i32 }
          cleanup
  %486 = extractvalue { i8*, i32 } %485, 0
  store i8* %486, i8** %16, align 8
  %487 = extractvalue { i8*, i32 } %485, 1
  store i32 %487, i32* %17, align 4
  br label %711

; <label>:488:                                    ; preds = %420
  %489 = call dereferenceable(8) %"struct.std::pair"* @_ZNK11__gnu_debug14_Safe_iteratorIN9__gnu_cxx17__normal_iteratorIPSt4pairIiiENSt9__cxx19986vectorIS4_SaIS4_EEEEENSt7__debug6vectorIS4_S8_EEEdeEv(%"class.__gnu_debug::_Safe_iterator.37"* %41) #3
  %490 = bitcast %"struct.std::pair"* %44 to i8*
  %491 = bitcast %"struct.std::pair"* %489 to i8*
  call void @llvm.memcpy.p0i8.p0i8.i64(i8* %490, i8* %491, i64 8, i32 4, i1 false)
  %492 = getelementptr inbounds %"struct.std::pair", %"struct.std::pair"* %44, i32 0, i32 0
  %493 = load i32, i32* %492, align 4
  %494 = sext i32 %493 to i64
  %495 = call dereferenceable(4) i32* @_ZNSt7__debug6vectorIiSaIiEEixEm(%"class.std::__debug::vector"* %36, i64 %494) #3
  %496 = load i32, i32* %495, align 4
  %497 = icmp ne i32 %496, 2147483647
  br i1 %497, label %498, label %613

; <label>:498:                                    ; preds = %488
  %499 = getelementptr inbounds %"struct.std::pair", %"struct.std::pair"* %44, i32 0, i32 0
  %500 = load i32, i32* %499, align 4
  %501 = sext i32 %500 to i64
  %502 = call dereferenceable(4) i32* @_ZNSt7__debug6vectorIiSaIiEEixEm(%"class.std::__debug::vector"* %36, i64 %501) #3
  %503 = load i32, i32* %502, align 4
  %504 = load i32, i32* %39, align 4
  %505 = sext i32 %504 to i64
  %506 = call dereferenceable(4) i32* @_ZNSt7__debug6vectorIiSaIiEEixEm(%"class.std::__debug::vector"* %36, i64 %505) #3
  %507 = load i32, i32* %506, align 4
  %508 = getelementptr inbounds %"struct.std::pair", %"struct.std::pair"* %44, i32 0, i32 1
  %509 = load i32, i32* %508, align 4
  %510 = add nsw i32 %507, %509
  %511 = icmp sgt i32 %503, %510
  br i1 %511, label %512, label %548

; <label>:512:                                    ; preds = %498
  %513 = load i32, i32* @x.17
  %514 = load i32, i32* @y.18
  %515 = sub i32 %513, 1
  %516 = mul i32 %513, %515
  %517 = urem i32 %516, 2
  %518 = icmp eq i32 %517, 0
  %519 = icmp slt i32 %514, 10
  %520 = or i1 %518, %519
  br i1 %520, label %521, label %1048

; <label>:521:                                    ; preds = %512, %1048
  %522 = getelementptr inbounds %"struct.std::pair", %"struct.std::pair"* %44, i32 0, i32 0
  %523 = load i32, i32* @x.17
  %524 = load i32, i32* @y.18
  %525 = sub i32 %523, 1
  %526 = mul i32 %523, %525
  %527 = urem i32 %526, 2
  %528 = icmp eq i32 %527, 0
  %529 = icmp slt i32 %524, 10
  %530 = or i1 %528, %529
  br i1 %530, label %531, label %1048

; <label>:531:                                    ; preds = %521
  invoke void @_ZNSt5queueIiNSt7__debug5dequeIiSaIiEEEE4pushERKi(%"class.std::queue"* %34, i32* dereferenceable(4) %522)
          to label %532 unwind label %544

; <label>:532:                                    ; preds = %531
  %533 = load i32, i32* %39, align 4
  %534 = sext i32 %533 to i64
  %535 = call dereferenceable(4) i32* @_ZNSt7__debug6vectorIiSaIiEEixEm(%"class.std::__debug::vector"* %36, i64 %534) #3
  %536 = load i32, i32* %535, align 4
  %537 = getelementptr inbounds %"struct.std::pair", %"struct.std::pair"* %44, i32 0, i32 1
  %538 = load i32, i32* %537, align 4
  %539 = add nsw i32 %536, %538
  %540 = getelementptr inbounds %"struct.std::pair", %"struct.std::pair"* %44, i32 0, i32 0
  %541 = load i32, i32* %540, align 4
  %542 = sext i32 %541 to i64
  %543 = call dereferenceable(4) i32* @_ZNSt7__debug6vectorIiSaIiEEixEm(%"class.std::__debug::vector"* %36, i64 %542) #3
  store i32 %539, i32* %543, align 4
  br label %594

; <label>:544:                                    ; preds = %643, %562, %531
  %545 = landingpad { i8*, i32 }
          cleanup
  %546 = extractvalue { i8*, i32 } %545, 0
  store i8* %546, i8** %16, align 8
  %547 = extractvalue { i8*, i32 } %545, 1
  store i32 %547, i32* %17, align 4
  call void @_ZN11__gnu_debug14_Safe_iteratorIN9__gnu_cxx17__normal_iteratorIPSt4pairIiiENSt9__cxx19986vectorIS4_SaIS4_EEEEENSt7__debug6vectorIS4_S8_EEED2Ev(%"class.__gnu_debug::_Safe_iterator.37"* %42) #3
  call void @_ZN11__gnu_debug14_Safe_iteratorIN9__gnu_cxx17__normal_iteratorIPSt4pairIiiENSt9__cxx19986vectorIS4_SaIS4_EEEEENSt7__debug6vectorIS4_S8_EEED2Ev(%"class.__gnu_debug::_Safe_iterator.37"* %41) #3
  br label %711

; <label>:548:                                    ; preds = %498
  %549 = getelementptr inbounds %"struct.std::pair", %"struct.std::pair"* %44, i32 0, i32 0
  %550 = load i32, i32* %549, align 4
  %551 = sext i32 %550 to i64
  %552 = call dereferenceable(4) i32* @_ZNSt7__debug6vectorIiSaIiEEixEm(%"class.std::__debug::vector"* %36, i64 %551) #3
  %553 = load i32, i32* %552, align 4
  %554 = getelementptr inbounds %"struct.std::pair", %"struct.std::pair"* %44, i32 0, i32 1
  %555 = load i32, i32* %554, align 4
  %556 = add nsw i32 %553, %555
  %557 = load i32, i32* %39, align 4
  %558 = sext i32 %557 to i64
  %559 = call dereferenceable(4) i32* @_ZNSt7__debug6vectorIiSaIiEEixEm(%"class.std::__debug::vector"* %36, i64 %558) #3
  %560 = load i32, i32* %559, align 4
  %561 = icmp slt i32 %556, %560
  br i1 %561, label %562, label %575

; <label>:562:                                    ; preds = %548
  %563 = getelementptr inbounds %"struct.std::pair", %"struct.std::pair"* %44, i32 0, i32 0
  %564 = load i32, i32* %563, align 4
  %565 = sext i32 %564 to i64
  %566 = call dereferenceable(4) i32* @_ZNSt7__debug6vectorIiSaIiEEixEm(%"class.std::__debug::vector"* %36, i64 %565) #3
  %567 = load i32, i32* %566, align 4
  %568 = getelementptr inbounds %"struct.std::pair", %"struct.std::pair"* %44, i32 0, i32 1
  %569 = load i32, i32* %568, align 4
  %570 = add nsw i32 %567, %569
  %571 = load i32, i32* %39, align 4
  %572 = sext i32 %571 to i64
  %573 = call dereferenceable(4) i32* @_ZNSt7__debug6vectorIiSaIiEEixEm(%"class.std::__debug::vector"* %36, i64 %572) #3
  store i32 %570, i32* %573, align 4
  invoke void @_ZNSt5queueIiNSt7__debug5dequeIiSaIiEEEE4pushERKi(%"class.std::queue"* %34, i32* dereferenceable(4) %39)
          to label %574 unwind label %544

; <label>:574:                                    ; preds = %562
  store i32 13, i32* %43, align 4
  br label %647

; <label>:575:                                    ; preds = %548
  %576 = load i32, i32* @x.17
  %577 = load i32, i32* @y.18
  %578 = sub i32 %576, 1
  %579 = mul i32 %576, %578
  %580 = urem i32 %579, 2
  %581 = icmp eq i32 %580, 0
  %582 = icmp slt i32 %577, 10
  %583 = or i1 %581, %582
  br i1 %583, label %584, label %1050

; <label>:584:                                    ; preds = %575, %1050
  %585 = load i32, i32* @x.17
  %586 = load i32, i32* @y.18
  %587 = sub i32 %585, 1
  %588 = mul i32 %585, %587
  %589 = urem i32 %588, 2
  %590 = icmp eq i32 %589, 0
  %591 = icmp slt i32 %586, 10
  %592 = or i1 %590, %591
  br i1 %592, label %593, label %1050

; <label>:593:                                    ; preds = %584
  br label %645

; <label>:594:                                    ; preds = %532
  %595 = load i32, i32* @x.17
  %596 = load i32, i32* @y.18
  %597 = sub i32 %595, 1
  %598 = mul i32 %595, %597
  %599 = urem i32 %598, 2
  %600 = icmp eq i32 %599, 0
  %601 = icmp slt i32 %596, 10
  %602 = or i1 %600, %601
  br i1 %602, label %603, label %1051

; <label>:603:                                    ; preds = %594, %1051
  %604 = load i32, i32* @x.17
  %605 = load i32, i32* @y.18
  %606 = sub i32 %604, 1
  %607 = mul i32 %604, %606
  %608 = urem i32 %607, 2
  %609 = icmp eq i32 %608, 0
  %610 = icmp slt i32 %605, 10
  %611 = or i1 %609, %610
  br i1 %611, label %612, label %1051

; <label>:612:                                    ; preds = %603
  br label %613

; <label>:613:                                    ; preds = %612, %488
  %614 = load i32, i32* @x.17
  %615 = load i32, i32* @y.18
  %616 = sub i32 %614, 1
  %617 = mul i32 %614, %616
  %618 = urem i32 %617, 2
  %619 = icmp eq i32 %618, 0
  %620 = icmp slt i32 %615, 10
  %621 = or i1 %619, %620
  br i1 %621, label %622, label %1052

; <label>:622:                                    ; preds = %613, %1052
  %623 = load i32, i32* %39, align 4
  %624 = sext i32 %623 to i64
  %625 = call dereferenceable(4) i32* @_ZNSt7__debug6vectorIiSaIiEEixEm(%"class.std::__debug::vector"* %36, i64 %624) #3
  %626 = load i32, i32* %625, align 4
  %627 = getelementptr inbounds %"struct.std::pair", %"struct.std::pair"* %44, i32 0, i32 1
  %628 = load i32, i32* %627, align 4
  %629 = add nsw i32 %626, %628
  %630 = getelementptr inbounds %"struct.std::pair", %"struct.std::pair"* %44, i32 0, i32 0
  %631 = load i32, i32* %630, align 4
  %632 = sext i32 %631 to i64
  %633 = call dereferenceable(4) i32* @_ZNSt7__debug6vectorIiSaIiEEixEm(%"class.std::__debug::vector"* %36, i64 %632) #3
  store i32 %629, i32* %633, align 4
  %634 = getelementptr inbounds %"struct.std::pair", %"struct.std::pair"* %44, i32 0, i32 0
  %635 = load i32, i32* @x.17
  %636 = load i32, i32* @y.18
  %637 = sub i32 %635, 1
  %638 = mul i32 %635, %637
  %639 = urem i32 %638, 2
  %640 = icmp eq i32 %639, 0
  %641 = icmp slt i32 %636, 10
  %642 = or i1 %640, %641
  br i1 %642, label %643, label %1052

; <label>:643:                                    ; preds = %622
  invoke void @_ZNSt5queueIiNSt7__debug5dequeIiSaIiEEEE4pushERKi(%"class.std::queue"* %34, i32* dereferenceable(4) %634)
          to label %644 unwind label %544

; <label>:644:                                    ; preds = %643
  br label %645

; <label>:645:                                    ; preds = %644, %593
  %646 = call dereferenceable(40) %"class.__gnu_debug::_Safe_iterator.37"* @_ZN11__gnu_debug14_Safe_iteratorIN9__gnu_cxx17__normal_iteratorIPSt4pairIiiENSt9__cxx19986vectorIS4_SaIS4_EEEEENSt7__debug6vectorIS4_S8_EEEppEv(%"class.__gnu_debug::_Safe_iterator.37"* %41) #3
  br label %420

; <label>:647:                                    ; preds = %574, %422
  call void @_ZN11__gnu_debug14_Safe_iteratorIN9__gnu_cxx17__normal_iteratorIPSt4pairIiiENSt9__cxx19986vectorIS4_SaIS4_EEEEENSt7__debug6vectorIS4_S8_EEED2Ev(%"class.__gnu_debug::_Safe_iterator.37"* %42) #3
  call void @_ZN11__gnu_debug14_Safe_iteratorIN9__gnu_cxx17__normal_iteratorIPSt4pairIiiENSt9__cxx19986vectorIS4_SaIS4_EEEEENSt7__debug6vectorIS4_S8_EEED2Ev(%"class.__gnu_debug::_Safe_iterator.37"* %41) #3
  br label %648

; <label>:648:                                    ; preds = %647
  %649 = load i32, i32* @x.17
  %650 = load i32, i32* @y.18
  %651 = sub i32 %649, 1
  %652 = mul i32 %649, %651
  %653 = urem i32 %652, 2
  %654 = icmp eq i32 %653, 0
  %655 = icmp slt i32 %650, 10
  %656 = or i1 %654, %655
  br i1 %656, label %657, label %1069

; <label>:657:                                    ; preds = %648, %1069
  %658 = load i32, i32* @x.17
  %659 = load i32, i32* @y.18
  %660 = sub i32 %658, 1
  %661 = mul i32 %658, %660
  %662 = urem i32 %661, 2
  %663 = icmp eq i32 %662, 0
  %664 = icmp slt i32 %659, 10
  %665 = or i1 %663, %664
  br i1 %665, label %666, label %1069

; <label>:666:                                    ; preds = %657
  br label %388

; <label>:667:                                    ; preds = %390
  store i32 0, i32* %45, align 4
  br label %668

; <label>:668:                                    ; preds = %686, %667
  %669 = load i32, i32* %45, align 4
  %670 = load i32, i32* %13, align 4
  %671 = icmp slt i32 %669, %670
  br i1 %671, label %672, label %689

; <label>:672:                                    ; preds = %668
  %673 = load i32, i32* %45, align 4
  %674 = sext i32 %673 to i64
  %675 = call dereferenceable(4) i32* @_ZNSt7__debug6vectorIiSaIiEEixEm(%"class.std::__debug::vector"* %14, i64 %674) #3
  %676 = load i32, i32* %675, align 4
  %677 = sext i32 %676 to i64
  %678 = call dereferenceable(4) i32* @_ZNSt7__debug6vectorIiSaIiEEixEm(%"class.std::__debug::vector"* %36, i64 %677) #3
  %679 = load i32, i32* %678, align 4
  %680 = load i32, i32* %33, align 4
  %681 = sext i32 %680 to i64
  %682 = call dereferenceable(56) %"class.std::__debug::vector"* @_ZNSt7__debug6vectorINS0_IiSaIiEEESaIS2_EEixEm(%"class.std::__debug::vector.22"* %29, i64 %681) #3
  %683 = load i32, i32* %45, align 4
  %684 = sext i32 %683 to i64
  %685 = call dereferenceable(4) i32* @_ZNSt7__debug6vectorIiSaIiEEixEm(%"class.std::__debug::vector"* %682, i64 %684) #3
  store i32 %679, i32* %685, align 4
  br label %686

; <label>:686:                                    ; preds = %672
  %687 = load i32, i32* %45, align 4
  %688 = add nsw i32 %687, 1
  store i32 %688, i32* %45, align 4
  br label %668

; <label>:689:                                    ; preds = %668
  call void @_ZNSt7__debug6vectorIiSaIiEED2Ev(%"class.std::__debug::vector"* %36) #3
  call void @_ZNSt5queueIiNSt7__debug5dequeIiSaIiEEEED2Ev(%"class.std::queue"* %34) #3
  br label %690

; <label>:690:                                    ; preds = %689
  %691 = load i32, i32* @x.17
  %692 = load i32, i32* @y.18
  %693 = sub i32 %691, 1
  %694 = mul i32 %691, %693
  %695 = urem i32 %694, 2
  %696 = icmp eq i32 %695, 0
  %697 = icmp slt i32 %692, 10
  %698 = or i1 %696, %697
  br i1 %698, label %699, label %1070

; <label>:699:                                    ; preds = %690, %1070
  %700 = load i32, i32* %33, align 4
  %701 = add nsw i32 %700, 1
  store i32 %701, i32* %33, align 4
  %702 = load i32, i32* @x.17
  %703 = load i32, i32* @y.18
  %704 = sub i32 %702, 1
  %705 = mul i32 %702, %704
  %706 = urem i32 %705, 2
  %707 = icmp eq i32 %706, 0
  %708 = icmp slt i32 %703, 10
  %709 = or i1 %707, %708
  br i1 %709, label %710, label %1070

; <label>:710:                                    ; preds = %699
  br label %331

; <label>:711:                                    ; preds = %544, %484
  call void @_ZNSt7__debug6vectorIiSaIiEED2Ev(%"class.std::__debug::vector"* %36) #3
  br label %712

; <label>:712:                                    ; preds = %711, %480, %479
  %713 = load i32, i32* @x.17
  %714 = load i32, i32* @y.18
  %715 = sub i32 %713, 1
  %716 = mul i32 %713, %715
  %717 = urem i32 %716, 2
  %718 = icmp eq i32 %717, 0
  %719 = icmp slt i32 %714, 10
  %720 = or i1 %718, %719
  br i1 %720, label %721, label %1082

; <label>:721:                                    ; preds = %712, %1082
  call void @_ZNSt5queueIiNSt7__debug5dequeIiSaIiEEEED2Ev(%"class.std::queue"* %34) #3
  %722 = load i32, i32* @x.17
  %723 = load i32, i32* @y.18
  %724 = sub i32 %722, 1
  %725 = mul i32 %722, %724
  %726 = urem i32 %725, 2
  %727 = icmp eq i32 %726, 0
  %728 = icmp slt i32 %723, 10
  %729 = or i1 %727, %728
  br i1 %729, label %730, label %1082

; <label>:730:                                    ; preds = %721
  br label %945

; <label>:731:                                    ; preds = %331
  store i32 2147483647, i32* %46, align 4
  %732 = load i32, i32* %13, align 4
  %733 = sext i32 %732 to i64
  call void @_ZNSaIiEC2Ev(%"class.std::allocator"* %48) #3
  invoke void @_ZNSt7__debug6vectorIiSaIiEEC2EmRKS1_(%"class.std::__debug::vector"* %47, i64 %733, %"class.std::allocator"* dereferenceable(1) %48)
          to label %734 unwind label %801

; <label>:734:                                    ; preds = %731
  %735 = load i32, i32* @x.17
  %736 = load i32, i32* @y.18
  %737 = sub i32 %735, 1
  %738 = mul i32 %735, %737
  %739 = urem i32 %738, 2
  %740 = icmp eq i32 %739, 0
  %741 = icmp slt i32 %736, 10
  %742 = or i1 %740, %741
  br i1 %742, label %743, label %1083

; <label>:743:                                    ; preds = %734, %1083
  call void @_ZNSaIiED2Ev(%"class.std::allocator"* %48) #3
  store i32 0, i32* %49, align 4
  %744 = load i32, i32* @x.17
  %745 = load i32, i32* @y.18
  %746 = sub i32 %744, 1
  %747 = mul i32 %744, %746
  %748 = urem i32 %747, 2
  %749 = icmp eq i32 %748, 0
  %750 = icmp slt i32 %745, 10
  %751 = or i1 %749, %750
  br i1 %751, label %752, label %1083

; <label>:752:                                    ; preds = %743
  br label %753

; <label>:753:                                    ; preds = %800, %752
  %754 = load i32, i32* %49, align 4
  %755 = load i32, i32* %13, align 4
  %756 = icmp slt i32 %754, %755
  br i1 %756, label %757, label %805

; <label>:757:                                    ; preds = %753
  %758 = load i32, i32* @x.17
  %759 = load i32, i32* @y.18
  %760 = sub i32 %758, 1
  %761 = mul i32 %758, %760
  %762 = urem i32 %761, 2
  %763 = icmp eq i32 %762, 0
  %764 = icmp slt i32 %759, 10
  %765 = or i1 %763, %764
  br i1 %765, label %766, label %1084

; <label>:766:                                    ; preds = %757, %1084
  %767 = load i32, i32* %49, align 4
  %768 = load i32, i32* %49, align 4
  %769 = sext i32 %768 to i64
  %770 = call dereferenceable(4) i32* @_ZNSt7__debug6vectorIiSaIiEEixEm(%"class.std::__debug::vector"* %47, i64 %769) #3
  store i32 %767, i32* %770, align 4
  %771 = load i32, i32* @x.17
  %772 = load i32, i32* @y.18
  %773 = sub i32 %771, 1
  %774 = mul i32 %771, %773
  %775 = urem i32 %774, 2
  %776 = icmp eq i32 %775, 0
  %777 = icmp slt i32 %772, 10
  %778 = or i1 %776, %777
  br i1 %778, label %779, label %1084

; <label>:779:                                    ; preds = %766
  br label %780

; <label>:780:                                    ; preds = %779
  %781 = load i32, i32* @x.17
  %782 = load i32, i32* @y.18
  %783 = sub i32 %781, 1
  %784 = mul i32 %781, %783
  %785 = urem i32 %784, 2
  %786 = icmp eq i32 %785, 0
  %787 = icmp slt i32 %782, 10
  %788 = or i1 %786, %787
  br i1 %788, label %789, label %1089

; <label>:789:                                    ; preds = %780, %1089
  %790 = load i32, i32* %49, align 4
  %791 = add nsw i32 %790, 1
  store i32 %791, i32* %49, align 4
  %792 = load i32, i32* @x.17
  %793 = load i32, i32* @y.18
  %794 = sub i32 %792, 1
  %795 = mul i32 %792, %794
  %796 = urem i32 %795, 2
  %797 = icmp eq i32 %796, 0
  %798 = icmp slt i32 %793, 10
  %799 = or i1 %797, %798
  br i1 %799, label %800, label %1089

; <label>:800:                                    ; preds = %789
  br label %753

; <label>:801:                                    ; preds = %731
  %802 = landingpad { i8*, i32 }
          cleanup
  %803 = extractvalue { i8*, i32 } %802, 0
  store i8* %803, i8** %16, align 8
  %804 = extractvalue { i8*, i32 } %802, 1
  store i32 %804, i32* %17, align 4
  call void @_ZNSaIiED2Ev(%"class.std::allocator"* %48) #3
  br label %945

; <label>:805:                                    ; preds = %753
  br label %806

; <label>:806:                                    ; preds = %928, %805
  %807 = load i32, i32* @x.17
  %808 = load i32, i32* @y.18
  %809 = sub i32 %807, 1
  %810 = mul i32 %807, %809
  %811 = urem i32 %810, 2
  %812 = icmp eq i32 %811, 0
  %813 = icmp slt i32 %808, 10
  %814 = or i1 %812, %813
  br i1 %814, label %815, label %1103

; <label>:815:                                    ; preds = %806, %1103
  store i32 0, i32* %50, align 4
  store i32 0, i32* %51, align 4
  %816 = load i32, i32* @x.17
  %817 = load i32, i32* @y.18
  %818 = sub i32 %816, 1
  %819 = mul i32 %816, %818
  %820 = urem i32 %819, 2
  %821 = icmp eq i32 %820, 0
  %822 = icmp slt i32 %817, 10
  %823 = or i1 %821, %822
  br i1 %823, label %824, label %1103

; <label>:824:                                    ; preds = %815
  br label %825

; <label>:825:                                    ; preds = %885, %824
  %826 = load i32, i32* %51, align 4
  %827 = load i32, i32* %13, align 4
  %828 = sub nsw i32 %827, 1
  %829 = icmp slt i32 %826, %828
  br i1 %829, label %830, label %886

; <label>:830:                                    ; preds = %825
  %831 = load i32, i32* @x.17
  %832 = load i32, i32* @y.18
  %833 = sub i32 %831, 1
  %834 = mul i32 %831, %833
  %835 = urem i32 %834, 2
  %836 = icmp eq i32 %835, 0
  %837 = icmp slt i32 %832, 10
  %838 = or i1 %836, %837
  br i1 %838, label %839, label %1104

; <label>:839:                                    ; preds = %830, %1104
  %840 = load i32, i32* %51, align 4
  %841 = sext i32 %840 to i64
  %842 = call dereferenceable(4) i32* @_ZNSt7__debug6vectorIiSaIiEEixEm(%"class.std::__debug::vector"* %47, i64 %841) #3
  %843 = load i32, i32* %842, align 4
  %844 = sext i32 %843 to i64
  %845 = call dereferenceable(56) %"class.std::__debug::vector"* @_ZNSt7__debug6vectorINS0_IiSaIiEEESaIS2_EEixEm(%"class.std::__debug::vector.22"* %29, i64 %844) #3
  %846 = load i32, i32* %51, align 4
  %847 = add nsw i32 %846, 1
  %848 = sext i32 %847 to i64
  %849 = call dereferenceable(4) i32* @_ZNSt7__debug6vectorIiSaIiEEixEm(%"class.std::__debug::vector"* %47, i64 %848) #3
  %850 = load i32, i32* %849, align 4
  %851 = sext i32 %850 to i64
  %852 = call dereferenceable(4) i32* @_ZNSt7__debug6vectorIiSaIiEEixEm(%"class.std::__debug::vector"* %845, i64 %851) #3
  %853 = load i32, i32* %852, align 4
  %854 = load i32, i32* %50, align 4
  %855 = add nsw i32 %854, %853
  store i32 %855, i32* %50, align 4
  %856 = load i32, i32* @x.17
  %857 = load i32, i32* @y.18
  %858 = sub i32 %856, 1
  %859 = mul i32 %856, %858
  %860 = urem i32 %859, 2
  %861 = icmp eq i32 %860, 0
  %862 = icmp slt i32 %857, 10
  %863 = or i1 %861, %862
  br i1 %863, label %864, label %1104

; <label>:864:                                    ; preds = %839
  br label %865

; <label>:865:                                    ; preds = %864
  %866 = load i32, i32* @x.17
  %867 = load i32, i32* @y.18
  %868 = sub i32 %866, 1
  %869 = mul i32 %866, %868
  %870 = urem i32 %869, 2
  %871 = icmp eq i32 %870, 0
  %872 = icmp slt i32 %867, 10
  %873 = or i1 %871, %872
  br i1 %873, label %874, label %1135

; <label>:874:                                    ; preds = %865, %1135
  %875 = load i32, i32* %51, align 4
  %876 = add nsw i32 %875, 1
  store i32 %876, i32* %51, align 4
  %877 = load i32, i32* @x.17
  %878 = load i32, i32* @y.18
  %879 = sub i32 %877, 1
  %880 = mul i32 %877, %879
  %881 = urem i32 %880, 2
  %882 = icmp eq i32 %881, 0
  %883 = icmp slt i32 %878, 10
  %884 = or i1 %882, %883
  br i1 %884, label %885, label %1135

; <label>:885:                                    ; preds = %874
  br label %825

; <label>:886:                                    ; preds = %825
  %887 = invoke dereferenceable(4) i32* @_ZSt3minIiERKT_S2_S2_(i32* dereferenceable(4) %46, i32* dereferenceable(4) %50)
          to label %888 unwind label %936

; <label>:888:                                    ; preds = %886
  %889 = load i32, i32* @x.17
  %890 = load i32, i32* @y.18
  %891 = sub i32 %889, 1
  %892 = mul i32 %889, %891
  %893 = urem i32 %892, 2
  %894 = icmp eq i32 %893, 0
  %895 = icmp slt i32 %890, 10
  %896 = or i1 %894, %895
  br i1 %896, label %897, label %1145

; <label>:897:                                    ; preds = %888, %1145
  %898 = load i32, i32* %887, align 4
  store i32 %898, i32* %46, align 4
  %899 = load i32, i32* @x.17
  %900 = load i32, i32* @y.18
  %901 = sub i32 %899, 1
  %902 = mul i32 %899, %901
  %903 = urem i32 %902, 2
  %904 = icmp eq i32 %903, 0
  %905 = icmp slt i32 %900, 10
  %906 = or i1 %904, %905
  br i1 %906, label %907, label %1145

; <label>:907:                                    ; preds = %897
  br label %908

; <label>:908:                                    ; preds = %907
  %909 = load i32, i32* @x.17
  %910 = load i32, i32* @y.18
  %911 = sub i32 %909, 1
  %912 = mul i32 %909, %911
  %913 = urem i32 %912, 2
  %914 = icmp eq i32 %913, 0
  %915 = icmp slt i32 %910, 10
  %916 = or i1 %914, %915
  br i1 %916, label %917, label %1147

; <label>:917:                                    ; preds = %908, %1147
  call void @_ZNSt7__debug6vectorIiSaIiEE5beginEv(%"class.__gnu_debug::_Safe_iterator"* sret %52, %"class.std::__debug::vector"* %47) #3
  call void @_ZNSt7__debug6vectorIiSaIiEE3endEv(%"class.__gnu_debug::_Safe_iterator"* sret %53, %"class.std::__debug::vector"* %47) #3
  %918 = load i32, i32* @x.17
  %919 = load i32, i32* @y.18
  %920 = sub i32 %918, 1
  %921 = mul i32 %918, %920
  %922 = urem i32 %921, 2
  %923 = icmp eq i32 %922, 0
  %924 = icmp slt i32 %919, 10
  %925 = or i1 %923, %924
  br i1 %925, label %926, label %1147

; <label>:926:                                    ; preds = %917
  %927 = invoke zeroext i1 @_ZSt16next_permutationIN11__gnu_debug14_Safe_iteratorIN9__gnu_cxx17__normal_iteratorIPiNSt9__cxx19986vectorIiSaIiEEEEENSt7__debug6vectorIiS7_EEEEEbT_SE_(%"class.__gnu_debug::_Safe_iterator"* %52, %"class.__gnu_debug::_Safe_iterator"* %53)
          to label %928 unwind label %940

; <label>:928:                                    ; preds = %926
  call void @_ZN11__gnu_debug14_Safe_iteratorIN9__gnu_cxx17__normal_iteratorIPiNSt9__cxx19986vectorIiSaIiEEEEENSt7__debug6vectorIiS6_EEED2Ev(%"class.__gnu_debug::_Safe_iterator"* %53) #3
  call void @_ZN11__gnu_debug14_Safe_iteratorIN9__gnu_cxx17__normal_iteratorIPiNSt9__cxx19986vectorIiSaIiEEEEENSt7__debug6vectorIiS6_EEED2Ev(%"class.__gnu_debug::_Safe_iterator"* %52) #3
  br i1 %927, label %806, label %929

; <label>:929:                                    ; preds = %928
  %930 = load i32, i32* %46, align 4
  %931 = invoke dereferenceable(272) %"class.std::basic_ostream"* @_ZNSolsEi(%"class.std::basic_ostream"* @_ZSt4cout, i32 %930)
          to label %932 unwind label %936

; <label>:932:                                    ; preds = %929
  %933 = invoke dereferenceable(272) %"class.std::basic_ostream"* @_ZNSolsEPFRSoS_E(%"class.std::basic_ostream"* %931, %"class.std::basic_ostream"* (%"class.std::basic_ostream"*)* @_ZSt4endlIcSt11char_traitsIcEERSt13basic_ostreamIT_T0_ES6_)
          to label %934 unwind label %936

; <label>:934:                                    ; preds = %932
  call void @_ZNSt7__debug6vectorIiSaIiEED2Ev(%"class.std::__debug::vector"* %47) #3
  call void @_ZNSt7__debug6vectorINS0_IiSaIiEEESaIS2_EED2Ev(%"class.std::__debug::vector.22"* %29) #3
  call void @_ZNSt7__debug6vectorINS0_ISt4pairIiiESaIS2_EEESaIS4_EED2Ev(%"class.std::__debug::vector.0"* %21) #3
  call void @_ZNSt7__debug6vectorIiSaIiEED2Ev(%"class.std::__debug::vector"* %14) #3
  %935 = load i32, i32* %10, align 4
  ret i32 %935

; <label>:936:                                    ; preds = %932, %929, %886
  %937 = landingpad { i8*, i32 }
          cleanup
  %938 = extractvalue { i8*, i32 } %937, 0
  store i8* %938, i8** %16, align 8
  %939 = extractvalue { i8*, i32 } %937, 1
  store i32 %939, i32* %17, align 4
  br label %944

; <label>:940:                                    ; preds = %926
  %941 = landingpad { i8*, i32 }
          cleanup
  %942 = extractvalue { i8*, i32 } %941, 0
  store i8* %942, i8** %16, align 8
  %943 = extractvalue { i8*, i32 } %941, 1
  store i32 %943, i32* %17, align 4
  call void @_ZN11__gnu_debug14_Safe_iteratorIN9__gnu_cxx17__normal_iteratorIPiNSt9__cxx19986vectorIiSaIiEEEEENSt7__debug6vectorIiS6_EEED2Ev(%"class.__gnu_debug::_Safe_iterator"* %53) #3
  call void @_ZN11__gnu_debug14_Safe_iteratorIN9__gnu_cxx17__normal_iteratorIPiNSt9__cxx19986vectorIiSaIiEEEEENSt7__debug6vectorIiS6_EEED2Ev(%"class.__gnu_debug::_Safe_iterator"* %52) #3
  br label %944

; <label>:944:                                    ; preds = %940, %936
  call void @_ZNSt7__debug6vectorIiSaIiEED2Ev(%"class.std::__debug::vector"* %47) #3
  br label %945

; <label>:945:                                    ; preds = %944, %801, %730, %454, %453
  call void @_ZNSt7__debug6vectorINS0_IiSaIiEEESaIS2_EED2Ev(%"class.std::__debug::vector.22"* %29) #3
  br label %946

; <label>:946:                                    ; preds = %945, %431, %266
  call void @_ZNSt7__debug6vectorINS0_ISt4pairIiiESaIS2_EEESaIS4_EED2Ev(%"class.std::__debug::vector.0"* %21) #3
  br label %947

; <label>:947:                                    ; preds = %946, %262, %258, %145
  call void @_ZNSt7__debug6vectorIiSaIiEED2Ev(%"class.std::__debug::vector"* %14) #3
  br label %948

; <label>:948:                                    ; preds = %947, %144
  %949 = load i8*, i8** %16, align 8
  %950 = load i32, i32* %17, align 4
  %951 = insertvalue { i8*, i32 } undef, i8* %949, 0
  %952 = insertvalue { i8*, i32 } %951, i32 %950, 1
  resume { i8*, i32 } %952

; <label>:953:                                    ; preds = %9, %0
  %954 = alloca i32, align 4
  %955 = alloca i32, align 4
  %956 = alloca i32, align 4
  %957 = alloca i32, align 4
  %958 = alloca %"class.std::__debug::vector", align 8
  %959 = alloca %"class.std::allocator", align 1
  %960 = alloca i8*
  %961 = alloca i32
  %962 = alloca i32, align 4
  %963 = alloca %"class.__gnu_debug::_Safe_iterator", align 8
  %964 = alloca %"class.__gnu_debug::_Safe_iterator", align 8
  %965 = alloca %"class.std::__debug::vector.0", align 8
  %966 = alloca %"class.std::allocator.7", align 1
  %967 = alloca i32, align 4
  %968 = alloca i32, align 4
  %969 = alloca i32, align 4
  %970 = alloca i32, align 4
  %971 = alloca %"struct.std::pair", align 4
  %972 = alloca %"struct.std::pair", align 4
  %973 = alloca %"class.std::__debug::vector.22", align 8
  %974 = alloca %"class.std::__debug::vector", align 8
  %975 = alloca %"class.std::allocator", align 1
  %976 = alloca %"class.std::allocator.29", align 1
  %977 = alloca i32, align 4
  %978 = alloca %"class.std::queue", align 8
  %979 = alloca %"class.std::__debug::deque", align 8
  %980 = alloca %"class.std::__debug::vector", align 8
  %981 = alloca i32, align 4
  %982 = alloca %"class.std::allocator", align 1
  %983 = alloca i32, align 4
  %984 = alloca %"class.std::__debug::vector.10"*, align 8
  %985 = alloca %"class.__gnu_debug::_Safe_iterator.37", align 8
  %986 = alloca %"class.__gnu_debug::_Safe_iterator.37", align 8
  %987 = alloca i32
  %988 = alloca %"struct.std::pair", align 4
  %989 = alloca i32, align 4
  %990 = alloca i32, align 4
  %991 = alloca %"class.std::__debug::vector", align 8
  %992 = alloca %"class.std::allocator", align 1
  %993 = alloca i32, align 4
  %994 = alloca i32, align 4
  %995 = alloca i32, align 4
  %996 = alloca %"class.__gnu_debug::_Safe_iterator", align 8
  %997 = alloca %"class.__gnu_debug::_Safe_iterator", align 8
  store i32 0, i32* %954, align 4
  %998 = call dereferenceable(280) %"class.std::basic_istream"* @_ZNSirsERi(%"class.std::basic_istream"* @_ZSt3cin, i32* dereferenceable(4) %955)
  %999 = call dereferenceable(280) %"class.std::basic_istream"* @_ZNSirsERi(%"class.std::basic_istream"* %998, i32* dereferenceable(4) %956)
  %1000 = call dereferenceable(280) %"class.std::basic_istream"* @_ZNSirsERi(%"class.std::basic_istream"* %999, i32* dereferenceable(4) %957)
  %1001 = load i32, i32* %957, align 4
  %1002 = sext i32 %1001 to i64
  call void @_ZNSaIiEC2Ev(%"class.std::allocator"* %959) #3
  br label %9

; <label>:1003:                                   ; preds = %78, %69
  %1004 = load i32, i32* %18, align 4
  %1005 = load i32, i32* %13, align 4
  %1006 = icmp slt i32 %1004, %1005
  br label %78

; <label>:1007:                                   ; preds = %105, %96
  %1008 = load i32, i32* %18, align 4
  %1009 = sext i32 %1008 to i64
  %1010 = call dereferenceable(4) i32* @_ZNSt7__debug6vectorIiSaIiEEixEm(%"class.std::__debug::vector"* %14, i64 %1009) #3
  %1011 = load i32, i32* %1010, align 4
  %1012 = shl i32 %1011, -1
  %1013 = add nsw i32 %1011, -1
  store i32 %1013, i32* %1010, align 4
  br label %105

; <label>:1014:                                   ; preds = %132, %123
  %1015 = landingpad { i8*, i32 }
          cleanup
  %1016 = extractvalue { i8*, i32 } %1015, 0
  store i8* %1016, i8** %16, align 8
  %1017 = extractvalue { i8*, i32 } %1015, 1
  store i32 %1017, i32* %17, align 4
  call void @_ZNSaIiED2Ev(%"class.std::allocator"* %15) #3
  br label %132

; <label>:1018:                                   ; preds = %158, %149
  call void @_ZNSt7__debug6vectorIiSaIiEE5beginEv(%"class.__gnu_debug::_Safe_iterator"* sret %19, %"class.std::__debug::vector"* %14) #3
  call void @_ZNSt7__debug6vectorIiSaIiEE3endEv(%"class.__gnu_debug::_Safe_iterator"* sret %20, %"class.std::__debug::vector"* %14) #3
  br label %158

; <label>:1019:                                   ; preds = %177, %168
  call void @_ZN11__gnu_debug14_Safe_iteratorIN9__gnu_cxx17__normal_iteratorIPiNSt9__cxx19986vectorIiSaIiEEEEENSt7__debug6vectorIiS6_EEED2Ev(%"class.__gnu_debug::_Safe_iterator"* %20) #3
  call void @_ZN11__gnu_debug14_Safe_iteratorIN9__gnu_cxx17__normal_iteratorIPiNSt9__cxx19986vectorIiSaIiEEEEENSt7__debug6vectorIiS6_EEED2Ev(%"class.__gnu_debug::_Safe_iterator"* %19) #3
  %1020 = load i32, i32* %11, align 4
  %1021 = sext i32 %1020 to i64
  call void @_ZNSaINSt7__debug6vectorISt4pairIiiESaIS2_EEEEC2Ev(%"class.std::allocator.7"* %22) #3
  br label %177

; <label>:1022:                                   ; preds = %199, %190
  %1023 = load i32, i32* %23, align 4
  %1024 = load i32, i32* %12, align 4
  %1025 = icmp slt i32 %1023, %1024
  br label %199

; <label>:1026:                                   ; preds = %236, %227
  %1027 = bitcast %"struct.std::pair"* %27 to i64*
  store i64 %226, i64* %1027, align 4
  br label %236

; <label>:1028:                                   ; preds = %279, %270
  %1029 = load i32, i32* %13, align 4
  %1030 = sext i32 %1029 to i64
  %1031 = load i32, i32* %13, align 4
  %1032 = sext i32 %1031 to i64
  call void @_ZNSaIiEC2Ev(%"class.std::allocator"* %31) #3
  br label %279

; <label>:1033:                                   ; preds = %302, %293
  call void @_ZNSaINSt7__debug6vectorIiSaIiEEEEC2Ev(%"class.std::allocator.29"* %32) #3
  br label %302

; <label>:1034:                                   ; preds = %321, %312
  call void @_ZNSaINSt7__debug6vectorIiSaIiEEEED2Ev(%"class.std::allocator.29"* %32) #3
  call void @_ZNSt7__debug6vectorIiSaIiEED2Ev(%"class.std::__debug::vector"* %30) #3
  call void @_ZNSaIiED2Ev(%"class.std::allocator"* %31) #3
  store i32 0, i32* %33, align 4
  br label %321

; <label>:1035:                                   ; preds = %344, %335
  %1036 = bitcast %"class.std::__debug::deque"* %35 to i8*
  call void @llvm.memset.p0i8.i64(i8* %1036, i8 0, i64 104, i32 8, i1 false)
  br label %344

; <label>:1037:                                   ; preds = %364, %355
  br label %364

; <label>:1038:                                   ; preds = %403, %394
  %1039 = load i32, i32* %393, align 4
  store i32 %1039, i32* %39, align 4
  br label %403

; <label>:1040:                                   ; preds = %441, %432
  %1041 = landingpad { i8*, i32 }
          cleanup
  %1042 = extractvalue { i8*, i32 } %1041, 0
  store i8* %1042, i8** %16, align 8
  %1043 = extractvalue { i8*, i32 } %1041, 1
  store i32 %1043, i32* %17, align 4
  br label %441

; <label>:1044:                                   ; preds = %467, %458
  %1045 = landingpad { i8*, i32 }
          cleanup
  %1046 = extractvalue { i8*, i32 } %1045, 0
  store i8* %1046, i8** %16, align 8
  %1047 = extractvalue { i8*, i32 } %1045, 1
  store i32 %1047, i32* %17, align 4
  br label %467

; <label>:1048:                                   ; preds = %521, %512
  %1049 = getelementptr inbounds %"struct.std::pair", %"struct.std::pair"* %44, i32 0, i32 0
  br label %521

; <label>:1050:                                   ; preds = %584, %575
  br label %584

; <label>:1051:                                   ; preds = %603, %594
  br label %603

; <label>:1052:                                   ; preds = %622, %613
  %1053 = load i32, i32* %39, align 4
  %1054 = sext i32 %1053 to i64
  %1055 = call dereferenceable(4) i32* @_ZNSt7__debug6vectorIiSaIiEEixEm(%"class.std::__debug::vector"* %36, i64 %1054) #3
  %1056 = load i32, i32* %1055, align 4
  %1057 = getelementptr inbounds %"struct.std::pair", %"struct.std::pair"* %44, i32 0, i32 1
  %1058 = load i32, i32* %1057, align 4
  %1059 = sub i32 0, %1056
  %1060 = add i32 %1059, %1058
  %1061 = sub i32 %1056, %1058
  %1062 = mul i32 %1061, %1058
  %1063 = add nsw i32 %1056, %1058
  %1064 = getelementptr inbounds %"struct.std::pair", %"struct.std::pair"* %44, i32 0, i32 0
  %1065 = load i32, i32* %1064, align 4
  %1066 = sext i32 %1065 to i64
  %1067 = call dereferenceable(4) i32* @_ZNSt7__debug6vectorIiSaIiEEixEm(%"class.std::__debug::vector"* %36, i64 %1066) #3
  store i32 %1063, i32* %1067, align 4
  %1068 = getelementptr inbounds %"struct.std::pair", %"struct.std::pair"* %44, i32 0, i32 0
  br label %622

; <label>:1069:                                   ; preds = %657, %648
  br label %657

; <label>:1070:                                   ; preds = %699, %690
  %1071 = load i32, i32* %33, align 4
  %1072 = sub i32 0, %1071
  %1073 = add i32 %1072, 1
  %1074 = sub i32 %1071, 1
  %1075 = mul i32 %1074, 1
  %1076 = sub i32 0, %1071
  %1077 = add i32 %1076, 1
  %1078 = shl i32 %1071, 1
  %1079 = sub i32 %1071, 1
  %1080 = mul i32 %1079, 1
  %1081 = add nsw i32 %1071, 1
  store i32 %1081, i32* %33, align 4
  br label %699

; <label>:1082:                                   ; preds = %721, %712
  call void @_ZNSt5queueIiNSt7__debug5dequeIiSaIiEEEED2Ev(%"class.std::queue"* %34) #3
  br label %721

; <label>:1083:                                   ; preds = %743, %734
  call void @_ZNSaIiED2Ev(%"class.std::allocator"* %48) #3
  store i32 0, i32* %49, align 4
  br label %743

; <label>:1084:                                   ; preds = %766, %757
  %1085 = load i32, i32* %49, align 4
  %1086 = load i32, i32* %49, align 4
  %1087 = sext i32 %1086 to i64
  %1088 = call dereferenceable(4) i32* @_ZNSt7__debug6vectorIiSaIiEEixEm(%"class.std::__debug::vector"* %47, i64 %1087) #3
  store i32 %1085, i32* %1088, align 4
  br label %766

; <label>:1089:                                   ; preds = %789, %780
  %1090 = load i32, i32* %49, align 4
  %1091 = sub i32 0, %1090
  %1092 = add i32 %1091, 1
  %1093 = sub i32 0, %1090
  %1094 = add i32 %1093, 1
  %1095 = shl i32 %1090, 1
  %1096 = sub i32 0, %1090
  %1097 = add i32 %1096, 1
  %1098 = sub i32 0, %1090
  %1099 = add i32 %1098, 1
  %1100 = sub i32 %1090, 1
  %1101 = mul i32 %1100, 1
  %1102 = add nsw i32 %1090, 1
  store i32 %1102, i32* %49, align 4
  br label %789

; <label>:1103:                                   ; preds = %815, %806
  store i32 0, i32* %50, align 4
  store i32 0, i32* %51, align 4
  br label %815

; <label>:1104:                                   ; preds = %839, %830
  %1105 = load i32, i32* %51, align 4
  %1106 = sext i32 %1105 to i64
  %1107 = call dereferenceable(4) i32* @_ZNSt7__debug6vectorIiSaIiEEixEm(%"class.std::__debug::vector"* %47, i64 %1106) #3
  %1108 = load i32, i32* %1107, align 4
  %1109 = sext i32 %1108 to i64
  %1110 = call dereferenceable(56) %"class.std::__debug::vector"* @_ZNSt7__debug6vectorINS0_IiSaIiEEESaIS2_EEixEm(%"class.std::__debug::vector.22"* %29, i64 %1109) #3
  %1111 = load i32, i32* %51, align 4
  %1112 = shl i32 %1111, 1
  %1113 = shl i32 %1111, 1
  %1114 = shl i32 %1111, 1
  %1115 = shl i32 %1111, 1
  %1116 = sub i32 0, %1111
  %1117 = add i32 %1116, 1
  %1118 = shl i32 %1111, 1
  %1119 = add nsw i32 %1111, 1
  %1120 = sext i32 %1119 to i64
  %1121 = call dereferenceable(4) i32* @_ZNSt7__debug6vectorIiSaIiEEixEm(%"class.std::__debug::vector"* %47, i64 %1120) #3
  %1122 = load i32, i32* %1121, align 4
  %1123 = sext i32 %1122 to i64
  %1124 = call dereferenceable(4) i32* @_ZNSt7__debug6vectorIiSaIiEEixEm(%"class.std::__debug::vector"* %1110, i64 %1123) #3
  %1125 = load i32, i32* %1124, align 4
  %1126 = load i32, i32* %50, align 4
  %1127 = sub i32 0, %1126
  %1128 = add i32 %1127, %1125
  %1129 = shl i32 %1126, %1125
  %1130 = sub i32 %1126, %1125
  %1131 = mul i32 %1130, %1125
  %1132 = sub i32 0, %1126
  %1133 = add i32 %1132, %1125
  %1134 = add nsw i32 %1126, %1125
  store i32 %1134, i32* %50, align 4
  br label %839

; <label>:1135:                                   ; preds = %874, %865
  %1136 = load i32, i32* %51, align 4
  %1137 = sub i32 %1136, 1
  %1138 = mul i32 %1137, 1
  %1139 = shl i32 %1136, 1
  %1140 = sub i32 %1136, 1
  %1141 = mul i32 %1140, 1
  %1142 = sub i32 0, %1136
  %1143 = add i32 %1142, 1
  %1144 = add nsw i32 %1136, 1
  store i32 %1144, i32* %51, align 4
  br label %874

; <label>:1145:                                   ; preds = %897, %888
  %1146 = load i32, i32* %887, align 4
  store i32 %1146, i32* %46, align 4
  br label %897

; <label>:1147:                                   ; preds = %917, %908
  call void @_ZNSt7__debug6vectorIiSaIiEE5beginEv(%"class.__gnu_debug::_Safe_iterator"* sret %52, %"class.std::__debug::vector"* %47) #3
  call void @_ZNSt7__debug6vectorIiSaIiEE3endEv(%"class.__gnu_debug::_Safe_iterator"* sret %53, %"class.std::__debug::vector"* %47) #3
  br label %917
}

declare dereferenceable(280) %"class.std::basic_istream"* @_ZNSirsERi(%"class.std::basic_istream"*, i32* dereferenceable(4)) #1

; Function Attrs: noinline nounwind uwtable
define linkonce_odr void @_ZNSaIiEC2Ev(%"class.std::allocator"*) unnamed_addr #5 comdat align 2 {
  %2 = alloca %"class.std::allocator"*, align 8
  store %"class.std::allocator"* %0, %"class.std::allocator"** %2, align 8
  %3 = load %"class.std::allocator"*, %"class.std::allocator"** %2, align 8
  %4 = bitcast %"class.std::allocator"* %3 to %"class.__gnu_cxx::new_allocator"*
  call void @_ZN9__gnu_cxx13new_allocatorIiEC2Ev(%"class.__gnu_cxx::new_allocator"* %4) #3
  ret void
}

; Function Attrs: noinline uwtable
define linkonce_odr void @_ZNSt7__debug6vectorIiSaIiEEC2EmRKS1_(%"class.std::__debug::vector"*, i64, %"class.std::allocator"* dereferenceable(1)) unnamed_addr #0 comdat align 2 personality i8* bitcast (i32 (...)* @__gxx_personality_v0 to i8*) {
  %4 = alloca %"class.std::__debug::vector"*, align 8
  %5 = alloca i64, align 8
  %6 = alloca %"class.std::allocator"*, align 8
  %7 = alloca i8*
  %8 = alloca i32
  store %"class.std::__debug::vector"* %0, %"class.std::__debug::vector"** %4, align 8
  store i64 %1, i64* %5, align 8
  store %"class.std::allocator"* %2, %"class.std::allocator"** %6, align 8
  %9 = load %"class.std::__debug::vector"*, %"class.std::__debug::vector"** %4, align 8
  %10 = bitcast %"class.std::__debug::vector"* %9 to %"class.__gnu_debug::_Safe_container"*
  call void @_ZN11__gnu_debug15_Safe_containerINSt7__debug6vectorIiSaIiEEES3_NS_14_Safe_sequenceELb1EEC2Ev(%"class.__gnu_debug::_Safe_container"* %10) #3
  %11 = bitcast %"class.std::__debug::vector"* %9 to i8*
  %12 = getelementptr inbounds i8, i8* %11, i64 24
  %13 = bitcast i8* %12 to %"class.std::__cxx1998::vector"*
  %14 = load i64, i64* %5, align 8
  %15 = load %"class.std::allocator"*, %"class.std::allocator"** %6, align 8
  invoke void @_ZNSt9__cxx19986vectorIiSaIiEEC2EmRKS1_(%"class.std::__cxx1998::vector"* %13, i64 %14, %"class.std::allocator"* dereferenceable(1) %15)
          to label %16 unwind label %21

; <label>:16:                                     ; preds = %3
  %17 = bitcast %"class.std::__debug::vector"* %9 to i8*
  %18 = getelementptr inbounds i8, i8* %17, i64 48
  %19 = bitcast i8* %18 to %"class.__gnu_debug::_Safe_vector"*
  %20 = load i64, i64* %5, align 8
  call void @_ZN11__gnu_debug12_Safe_vectorINSt7__debug6vectorIiSaIiEEENSt9__cxx19986vectorIiS3_EEEC2Em(%"class.__gnu_debug::_Safe_vector"* %19, i64 %20) #3
  ret void

; <label>:21:                                     ; preds = %3
  %22 = landingpad { i8*, i32 }
          cleanup
  %23 = extractvalue { i8*, i32 } %22, 0
  store i8* %23, i8** %7, align 8
  %24 = extractvalue { i8*, i32 } %22, 1
  store i32 %24, i32* %8, align 4
  %25 = bitcast %"class.std::__debug::vector"* %9 to %"class.__gnu_debug::_Safe_container"*
  call void @_ZN11__gnu_debug15_Safe_containerINSt7__debug6vectorIiSaIiEEES3_NS_14_Safe_sequenceELb1EED2Ev(%"class.__gnu_debug::_Safe_container"* %25) #3
  br label %26

; <label>:26:                                     ; preds = %21
  %27 = load i8*, i8** %7, align 8
  %28 = load i32, i32* %8, align 4
  %29 = insertvalue { i8*, i32 } undef, i8* %27, 0
  %30 = insertvalue { i8*, i32 } %29, i32 %28, 1
  resume { i8*, i32 } %30
}

declare i32 @__gxx_personality_v0(...)

; Function Attrs: noinline nounwind uwtable
define linkonce_odr void @_ZNSaIiED2Ev(%"class.std::allocator"*) unnamed_addr #5 comdat align 2 {
  %2 = load i32, i32* @x.23
  %3 = load i32, i32* @y.24
  %4 = sub i32 %2, 1
  %5 = mul i32 %2, %4
  %6 = urem i32 %5, 2
  %7 = icmp eq i32 %6, 0
  %8 = icmp slt i32 %3, 10
  %9 = or i1 %7, %8
  br i1 %9, label %10, label %23

; <label>:10:                                     ; preds = %1, %23
  %11 = alloca %"class.std::allocator"*, align 8
  store %"class.std::allocator"* %0, %"class.std::allocator"** %11, align 8
  %12 = load %"class.std::allocator"*, %"class.std::allocator"** %11, align 8
  %13 = bitcast %"class.std::allocator"* %12 to %"class.__gnu_cxx::new_allocator"*
  call void @_ZN9__gnu_cxx13new_allocatorIiED2Ev(%"class.__gnu_cxx::new_allocator"* %13) #3
  %14 = load i32, i32* @x.23
  %15 = load i32, i32* @y.24
  %16 = sub i32 %14, 1
  %17 = mul i32 %14, %16
  %18 = urem i32 %17, 2
  %19 = icmp eq i32 %18, 0
  %20 = icmp slt i32 %15, 10
  %21 = or i1 %19, %20
  br i1 %21, label %22, label %23

; <label>:22:                                     ; preds = %10
  ret void

; <label>:23:                                     ; preds = %10, %1
  %24 = alloca %"class.std::allocator"*, align 8
  store %"class.std::allocator"* %0, %"class.std::allocator"** %24, align 8
  %25 = load %"class.std::allocator"*, %"class.std::allocator"** %24, align 8
  %26 = bitcast %"class.std::allocator"* %25 to %"class.__gnu_cxx::new_allocator"*
  call void @_ZN9__gnu_cxx13new_allocatorIiED2Ev(%"class.__gnu_cxx::new_allocator"* %26) #3
  br label %10
}

; Function Attrs: noinline nounwind uwtable
define linkonce_odr dereferenceable(4) i32* @_ZNSt7__debug6vectorIiSaIiEEixEm(%"class.std::__debug::vector"*, i64) #5 comdat align 2 personality i8* bitcast (i32 (...)* @__gxx_personality_v0 to i8*) {
  %3 = alloca %"class.std::__debug::vector"*, align 8
  %4 = alloca i64, align 8
  %5 = alloca %"class.__gnu_debug::_Error_formatter", align 8
  store %"class.std::__debug::vector"* %0, %"class.std::__debug::vector"** %3, align 8
  store i64 %1, i64* %4, align 8
  %6 = load %"class.std::__debug::vector"*, %"class.std::__debug::vector"** %3, align 8
  br label %7

; <label>:7:                                      ; preds = %2
  %8 = load i32, i32* @x.25
  %9 = load i32, i32* @y.26
  %10 = sub i32 %8, 1
  %11 = mul i32 %8, %10
  %12 = urem i32 %11, 2
  %13 = icmp eq i32 %12, 0
  %14 = icmp slt i32 %9, 10
  %15 = or i1 %13, %14
  br i1 %15, label %16, label %110

; <label>:16:                                     ; preds = %7, %110
  %17 = load i64, i64* %4, align 8
  %18 = bitcast %"class.std::__debug::vector"* %6 to i8*
  %19 = getelementptr inbounds i8, i8* %18, i64 24
  %20 = bitcast i8* %19 to %"class.std::__cxx1998::vector"*
  %21 = call i64 @_ZNKSt9__cxx19986vectorIiSaIiEE4sizeEv(%"class.std::__cxx1998::vector"* %20) #3
  %22 = icmp ult i64 %17, %21
  %23 = load i32, i32* @x.25
  %24 = load i32, i32* @y.26
  %25 = sub i32 %23, 1
  %26 = mul i32 %23, %25
  %27 = urem i32 %26, 2
  %28 = icmp eq i32 %27, 0
  %29 = icmp slt i32 %24, 10
  %30 = or i1 %28, %29
  br i1 %30, label %31, label %110

; <label>:31:                                     ; preds = %16
  br i1 %22, label %65, label %32

; <label>:32:                                     ; preds = %31
  invoke void @_ZN11__gnu_debug16_Error_formatter5_M_atEPKcm(%"class.__gnu_debug::_Error_formatter"* sret %5, i8* getelementptr inbounds ([79 x i8], [79 x i8]* @.str, i32 0, i32 0), i64 409)
          to label %33 unwind label %89

; <label>:33:                                     ; preds = %32
  %34 = call dereferenceable(560) %"class.__gnu_debug::_Error_formatter"* @_ZNK11__gnu_debug16_Error_formatter10_M_messageENS_13_Debug_msg_idE(%"class.__gnu_debug::_Error_formatter"* %5, i32 5) #3
  %35 = invoke dereferenceable(560) %"class.__gnu_debug::_Error_formatter"* @_ZNK11__gnu_debug16_Error_formatter11_M_sequenceINSt7__debug6vectorIiSaIiEEEEERKS0_RKT_PKc(%"class.__gnu_debug::_Error_formatter"* %34, %"class.std::__debug::vector"* dereferenceable(56) %6, i8* getelementptr inbounds ([5 x i8], [5 x i8]* @.str.1, i32 0, i32 0))
          to label %36 unwind label %89

; <label>:36:                                     ; preds = %33
  %37 = load i64, i64* %4, align 8
  %38 = invoke dereferenceable(560) %"class.__gnu_debug::_Error_formatter"* @_ZNK11__gnu_debug16_Error_formatter10_M_integerElPKc(%"class.__gnu_debug::_Error_formatter"* %35, i64 %37, i8* getelementptr inbounds ([4 x i8], [4 x i8]* @.str.2, i32 0, i32 0))
          to label %39 unwind label %89

; <label>:39:                                     ; preds = %36
  %40 = bitcast %"class.std::__debug::vector"* %6 to i8*
  %41 = getelementptr inbounds i8, i8* %40, i64 24
  %42 = bitcast i8* %41 to %"class.std::__cxx1998::vector"*
  %43 = call i64 @_ZNKSt9__cxx19986vectorIiSaIiEE4sizeEv(%"class.std::__cxx1998::vector"* %42) #3
  %44 = invoke dereferenceable(560) %"class.__gnu_debug::_Error_formatter"* @_ZNK11__gnu_debug16_Error_formatter10_M_integerElPKc(%"class.__gnu_debug::_Error_formatter"* %38, i64 %43, i8* getelementptr inbounds ([5 x i8], [5 x i8]* @.str.3, i32 0, i32 0))
          to label %45 unwind label %89

; <label>:45:                                     ; preds = %39
  invoke void @_ZNK11__gnu_debug16_Error_formatter8_M_errorEv(%"class.__gnu_debug::_Error_formatter"* %44) #14
          to label %46 unwind label %89

; <label>:46:                                     ; preds = %45
  %47 = load i32, i32* @x.25
  %48 = load i32, i32* @y.26
  %49 = sub i32 %47, 1
  %50 = mul i32 %47, %49
  %51 = urem i32 %50, 2
  %52 = icmp eq i32 %51, 0
  %53 = icmp slt i32 %48, 10
  %54 = or i1 %52, %53
  br i1 %54, label %55, label %117

; <label>:55:                                     ; preds = %46, %117
  %56 = load i32, i32* @x.25
  %57 = load i32, i32* @y.26
  %58 = sub i32 %56, 1
  %59 = mul i32 %56, %58
  %60 = urem i32 %59, 2
  %61 = icmp eq i32 %60, 0
  %62 = icmp slt i32 %57, 10
  %63 = or i1 %61, %62
  br i1 %63, label %64, label %117

; <label>:64:                                     ; preds = %55
  unreachable

; <label>:65:                                     ; preds = %31
  br label %66

; <label>:66:                                     ; preds = %65
  %67 = load i32, i32* @x.25
  %68 = load i32, i32* @y.26
  %69 = sub i32 %67, 1
  %70 = mul i32 %67, %69
  %71 = urem i32 %70, 2
  %72 = icmp eq i32 %71, 0
  %73 = icmp slt i32 %68, 10
  %74 = or i1 %72, %73
  br i1 %74, label %75, label %118

; <label>:75:                                     ; preds = %66, %118
  %76 = load i32, i32* @x.25
  %77 = load i32, i32* @y.26
  %78 = sub i32 %76, 1
  %79 = mul i32 %76, %78
  %80 = urem i32 %79, 2
  %81 = icmp eq i32 %80, 0
  %82 = icmp slt i32 %77, 10
  %83 = or i1 %81, %82
  br i1 %83, label %84, label %118

; <label>:84:                                     ; preds = %75
  br label %85

; <label>:85:                                     ; preds = %84
  %86 = call dereferenceable(24) %"class.std::__cxx1998::vector"* @_ZNSt7__debug6vectorIiSaIiEE7_M_baseEv(%"class.std::__debug::vector"* %6) #3
  %87 = load i64, i64* %4, align 8
  %88 = call dereferenceable(4) i32* @_ZNSt9__cxx19986vectorIiSaIiEEixEm(%"class.std::__cxx1998::vector"* %86, i64 %87) #3
  ret i32* %88

; <label>:89:                                     ; preds = %45, %39, %36, %33, %32
  %90 = load i32, i32* @x.25
  %91 = load i32, i32* @y.26
  %92 = sub i32 %90, 1
  %93 = mul i32 %90, %92
  %94 = urem i32 %93, 2
  %95 = icmp eq i32 %94, 0
  %96 = icmp slt i32 %91, 10
  %97 = or i1 %95, %96
  br i1 %97, label %98, label %119

; <label>:98:                                     ; preds = %89, %119
  %99 = landingpad { i8*, i32 }
          catch i8* null
  %100 = extractvalue { i8*, i32 } %99, 0
  call void @__clang_call_terminate(i8* %100) #13
  %101 = load i32, i32* @x.25
  %102 = load i32, i32* @y.26
  %103 = sub i32 %101, 1
  %104 = mul i32 %101, %103
  %105 = urem i32 %104, 2
  %106 = icmp eq i32 %105, 0
  %107 = icmp slt i32 %102, 10
  %108 = or i1 %106, %107
  br i1 %108, label %109, label %119

; <label>:109:                                    ; preds = %98
  unreachable

; <label>:110:                                    ; preds = %16, %7
  %111 = load i64, i64* %4, align 8
  %112 = bitcast %"class.std::__debug::vector"* %6 to i8*
  %113 = getelementptr inbounds i8, i8* %112, i64 24
  %114 = bitcast i8* %113 to %"class.std::__cxx1998::vector"*
  %115 = call i64 @_ZNKSt9__cxx19986vectorIiSaIiEE4sizeEv(%"class.std::__cxx1998::vector"* %114) #3
  %116 = icmp ult i64 %111, %115
  br label %16

; <label>:117:                                    ; preds = %55, %46
  br label %55

; <label>:118:                                    ; preds = %75, %66
  br label %75

; <label>:119:                                    ; preds = %98, %89
  %120 = landingpad { i8*, i32 }
          catch i8* null
  %121 = extractvalue { i8*, i32 } %120, 0
  call void @__clang_call_terminate(i8* %121) #13
  br label %98
}

; Function Attrs: noinline uwtable
define linkonce_odr void @_ZSt4sortIN11__gnu_debug14_Safe_iteratorIN9__gnu_cxx17__normal_iteratorIPiNSt9__cxx19986vectorIiSaIiEEEEENSt7__debug6vectorIiS7_EEEEEvT_SE_(%"class.__gnu_debug::_Safe_iterator"*, %"class.__gnu_debug::_Safe_iterator"*) #0 comdat personality i8* bitcast (i32 (...)* @__gxx_personality_v0 to i8*) {
  %3 = alloca %"class.__gnu_debug::_Error_formatter", align 8
  %4 = alloca %"class.__gnu_debug::_Safe_iterator", align 8
  %5 = alloca %"class.__gnu_debug::_Safe_iterator", align 8
  %6 = alloca %"struct.__gnu_cxx::__ops::_Iter_less_iter", align 1
  %7 = alloca i8*
  %8 = alloca i32
  %9 = alloca %"struct.__gnu_cxx::__ops::_Iter_less_iter", align 1
  br label %10

; <label>:10:                                     ; preds = %2
  %11 = call zeroext i1 @_ZN11__gnu_debug13__valid_rangeIN9__gnu_cxx17__normal_iteratorIPiNSt9__cxx19986vectorIiSaIiEEEEENSt7__debug6vectorIiS6_EEEEbRKNS_14_Safe_iteratorIT_T0_EESH_(%"class.__gnu_debug::_Safe_iterator"* dereferenceable(40) %0, %"class.__gnu_debug::_Safe_iterator"* dereferenceable(40) %1)
  br i1 %11, label %34, label %12

; <label>:12:                                     ; preds = %10
  %13 = load i32, i32* @x.27
  %14 = load i32, i32* @y.28
  %15 = sub i32 %13, 1
  %16 = mul i32 %13, %15
  %17 = urem i32 %16, 2
  %18 = icmp eq i32 %17, 0
  %19 = icmp slt i32 %14, 10
  %20 = or i1 %18, %19
  br i1 %20, label %21, label %47

; <label>:21:                                     ; preds = %12, %47
  call void @_ZN11__gnu_debug16_Error_formatter5_M_atEPKcm(%"class.__gnu_debug::_Error_formatter"* sret %3, i8* getelementptr inbounds ([82 x i8], [82 x i8]* @.str.5, i32 0, i32 0), i64 4696)
  %22 = call dereferenceable(560) %"class.__gnu_debug::_Error_formatter"* @_ZNK11__gnu_debug16_Error_formatter10_M_messageENS_13_Debug_msg_idE(%"class.__gnu_debug::_Error_formatter"* %3, i32 0) #3
  %23 = call dereferenceable(560) %"class.__gnu_debug::_Error_formatter"* @_ZNK11__gnu_debug16_Error_formatter11_M_iteratorINS_14_Safe_iteratorIN9__gnu_cxx17__normal_iteratorIPiNSt9__cxx19986vectorIiSaIiEEEEENSt7__debug6vectorIiS8_EEEEEERKS0_RKT_PKc(%"class.__gnu_debug::_Error_formatter"* %22, %"class.__gnu_debug::_Safe_iterator"* dereferenceable(40) %0, i8* getelementptr inbounds ([8 x i8], [8 x i8]* @.str.6, i32 0, i32 0))
  %24 = call dereferenceable(560) %"class.__gnu_debug::_Error_formatter"* @_ZNK11__gnu_debug16_Error_formatter11_M_iteratorINS_14_Safe_iteratorIN9__gnu_cxx17__normal_iteratorIPiNSt9__cxx19986vectorIiSaIiEEEEENSt7__debug6vectorIiS8_EEEEEERKS0_RKT_PKc(%"class.__gnu_debug::_Error_formatter"* %23, %"class.__gnu_debug::_Safe_iterator"* dereferenceable(40) %1, i8* getelementptr inbounds ([7 x i8], [7 x i8]* @.str.7, i32 0, i32 0))
  call void @_ZNK11__gnu_debug16_Error_formatter8_M_errorEv(%"class.__gnu_debug::_Error_formatter"* %24) #14
  %25 = load i32, i32* @x.27
  %26 = load i32, i32* @y.28
  %27 = sub i32 %25, 1
  %28 = mul i32 %25, %27
  %29 = urem i32 %28, 2
  %30 = icmp eq i32 %29, 0
  %31 = icmp slt i32 %26, 10
  %32 = or i1 %30, %31
  br i1 %32, label %33, label %47

; <label>:33:                                     ; preds = %21
  unreachable

; <label>:34:                                     ; preds = %10
  br label %35

; <label>:35:                                     ; preds = %34
  call void @_ZN11__gnu_debug14_Safe_iteratorIN9__gnu_cxx17__normal_iteratorIPiNSt9__cxx19986vectorIiSaIiEEEEENSt7__debug6vectorIiS6_EEEC2ERKSC_(%"class.__gnu_debug::_Safe_iterator"* %4, %"class.__gnu_debug::_Safe_iterator"* dereferenceable(40) %0) #3
  call void @_ZN11__gnu_debug14_Safe_iteratorIN9__gnu_cxx17__normal_iteratorIPiNSt9__cxx19986vectorIiSaIiEEEEENSt7__debug6vectorIiS6_EEEC2ERKSC_(%"class.__gnu_debug::_Safe_iterator"* %5, %"class.__gnu_debug::_Safe_iterator"* dereferenceable(40) %1) #3
  invoke void @_ZN9__gnu_cxx5__ops16__iter_less_iterEv()
          to label %36 unwind label %38

; <label>:36:                                     ; preds = %35
  invoke void @_ZSt6__sortIN11__gnu_debug14_Safe_iteratorIN9__gnu_cxx17__normal_iteratorIPiNSt9__cxx19986vectorIiSaIiEEEEENSt7__debug6vectorIiS7_EEEENS2_5__ops15_Iter_less_iterEEvT_SG_T0_(%"class.__gnu_debug::_Safe_iterator"* %4, %"class.__gnu_debug::_Safe_iterator"* %5)
          to label %37 unwind label %38

; <label>:37:                                     ; preds = %36
  call void @_ZN11__gnu_debug14_Safe_iteratorIN9__gnu_cxx17__normal_iteratorIPiNSt9__cxx19986vectorIiSaIiEEEEENSt7__debug6vectorIiS6_EEED2Ev(%"class.__gnu_debug::_Safe_iterator"* %5) #3
  call void @_ZN11__gnu_debug14_Safe_iteratorIN9__gnu_cxx17__normal_iteratorIPiNSt9__cxx19986vectorIiSaIiEEEEENSt7__debug6vectorIiS6_EEED2Ev(%"class.__gnu_debug::_Safe_iterator"* %4) #3
  ret void

; <label>:38:                                     ; preds = %36, %35
  %39 = landingpad { i8*, i32 }
          cleanup
  %40 = extractvalue { i8*, i32 } %39, 0
  store i8* %40, i8** %7, align 8
  %41 = extractvalue { i8*, i32 } %39, 1
  store i32 %41, i32* %8, align 4
  call void @_ZN11__gnu_debug14_Safe_iteratorIN9__gnu_cxx17__normal_iteratorIPiNSt9__cxx19986vectorIiSaIiEEEEENSt7__debug6vectorIiS6_EEED2Ev(%"class.__gnu_debug::_Safe_iterator"* %5) #3
  call void @_ZN11__gnu_debug14_Safe_iteratorIN9__gnu_cxx17__normal_iteratorIPiNSt9__cxx19986vectorIiSaIiEEEEENSt7__debug6vectorIiS6_EEED2Ev(%"class.__gnu_debug::_Safe_iterator"* %4) #3
  br label %42

; <label>:42:                                     ; preds = %38
  %43 = load i8*, i8** %7, align 8
  %44 = load i32, i32* %8, align 4
  %45 = insertvalue { i8*, i32 } undef, i8* %43, 0
  %46 = insertvalue { i8*, i32 } %45, i32 %44, 1
  resume { i8*, i32 } %46

; <label>:47:                                     ; preds = %21, %12
  call void @_ZN11__gnu_debug16_Error_formatter5_M_atEPKcm(%"class.__gnu_debug::_Error_formatter"* sret %3, i8* getelementptr inbounds ([82 x i8], [82 x i8]* @.str.5, i32 0, i32 0), i64 4696)
  %48 = call dereferenceable(560) %"class.__gnu_debug::_Error_formatter"* @_ZNK11__gnu_debug16_Error_formatter10_M_messageENS_13_Debug_msg_idE(%"class.__gnu_debug::_Error_formatter"* %3, i32 0) #3
  %49 = call dereferenceable(560) %"class.__gnu_debug::_Error_formatter"* @_ZNK11__gnu_debug16_Error_formatter11_M_iteratorINS_14_Safe_iteratorIN9__gnu_cxx17__normal_iteratorIPiNSt9__cxx19986vectorIiSaIiEEEEENSt7__debug6vectorIiS8_EEEEEERKS0_RKT_PKc(%"class.__gnu_debug::_Error_formatter"* %48, %"class.__gnu_debug::_Safe_iterator"* dereferenceable(40) %0, i8* getelementptr inbounds ([8 x i8], [8 x i8]* @.str.6, i32 0, i32 0))
  %50 = call dereferenceable(560) %"class.__gnu_debug::_Error_formatter"* @_ZNK11__gnu_debug16_Error_formatter11_M_iteratorINS_14_Safe_iteratorIN9__gnu_cxx17__normal_iteratorIPiNSt9__cxx19986vectorIiSaIiEEEEENSt7__debug6vectorIiS8_EEEEEERKS0_RKT_PKc(%"class.__gnu_debug::_Error_formatter"* %49, %"class.__gnu_debug::_Safe_iterator"* dereferenceable(40) %1, i8* getelementptr inbounds ([7 x i8], [7 x i8]* @.str.7, i32 0, i32 0))
  call void @_ZNK11__gnu_debug16_Error_formatter8_M_errorEv(%"class.__gnu_debug::_Error_formatter"* %50) #14
  br label %21
}

; Function Attrs: noinline nounwind uwtable
define linkonce_odr void @_ZNSt7__debug6vectorIiSaIiEE5beginEv(%"class.__gnu_debug::_Safe_iterator"* noalias sret, %"class.std::__debug::vector"*) #5 comdat align 2 {
  %3 = alloca %"class.std::__debug::vector"*, align 8
  %4 = alloca %"class.__gnu_cxx::__normal_iterator", align 8
  store %"class.std::__debug::vector"* %1, %"class.std::__debug::vector"** %3, align 8
  %5 = load %"class.std::__debug::vector"*, %"class.std::__debug::vector"** %3, align 8
  %6 = bitcast %"class.std::__debug::vector"* %5 to i8*
  %7 = getelementptr inbounds i8, i8* %6, i64 24
  %8 = bitcast i8* %7 to %"class.std::__cxx1998::vector"*
  %9 = call i32* @_ZNSt9__cxx19986vectorIiSaIiEE5beginEv(%"class.std::__cxx1998::vector"* %8) #3
  %10 = getelementptr inbounds %"class.__gnu_cxx::__normal_iterator", %"class.__gnu_cxx::__normal_iterator"* %4, i32 0, i32 0
  store i32* %9, i32** %10, align 8
  %11 = bitcast %"class.std::__debug::vector"* %5 to %"class.__gnu_debug::_Safe_sequence_base"*
  call void @_ZN11__gnu_debug14_Safe_iteratorIN9__gnu_cxx17__normal_iteratorIPiNSt9__cxx19986vectorIiSaIiEEEEENSt7__debug6vectorIiS6_EEEC2ERKS8_PKNS_19_Safe_sequence_baseE(%"class.__gnu_debug::_Safe_iterator"* %0, %"class.__gnu_cxx::__normal_iterator"* dereferenceable(8) %4, %"class.__gnu_debug::_Safe_sequence_base"* %11) #3
  ret void
}

; Function Attrs: noinline nounwind uwtable
define linkonce_odr void @_ZNSt7__debug6vectorIiSaIiEE3endEv(%"class.__gnu_debug::_Safe_iterator"* noalias sret, %"class.std::__debug::vector"*) #5 comdat align 2 {
  %3 = alloca %"class.std::__debug::vector"*, align 8
  %4 = alloca %"class.__gnu_cxx::__normal_iterator", align 8
  store %"class.std::__debug::vector"* %1, %"class.std::__debug::vector"** %3, align 8
  %5 = load %"class.std::__debug::vector"*, %"class.std::__debug::vector"** %3, align 8
  %6 = bitcast %"class.std::__debug::vector"* %5 to i8*
  %7 = getelementptr inbounds i8, i8* %6, i64 24
  %8 = bitcast i8* %7 to %"class.std::__cxx1998::vector"*
  %9 = call i32* @_ZNSt9__cxx19986vectorIiSaIiEE3endEv(%"class.std::__cxx1998::vector"* %8) #3
  %10 = getelementptr inbounds %"class.__gnu_cxx::__normal_iterator", %"class.__gnu_cxx::__normal_iterator"* %4, i32 0, i32 0
  store i32* %9, i32** %10, align 8
  %11 = bitcast %"class.std::__debug::vector"* %5 to %"class.__gnu_debug::_Safe_sequence_base"*
  call void @_ZN11__gnu_debug14_Safe_iteratorIN9__gnu_cxx17__normal_iteratorIPiNSt9__cxx19986vectorIiSaIiEEEEENSt7__debug6vectorIiS6_EEEC2ERKS8_PKNS_19_Safe_sequence_baseE(%"class.__gnu_debug::_Safe_iterator"* %0, %"class.__gnu_cxx::__normal_iterator"* dereferenceable(8) %4, %"class.__gnu_debug::_Safe_sequence_base"* %11) #3
  ret void
}

; Function Attrs: noinline nounwind uwtable
define linkonce_odr void @_ZN11__gnu_debug14_Safe_iteratorIN9__gnu_cxx17__normal_iteratorIPiNSt9__cxx19986vectorIiSaIiEEEEENSt7__debug6vectorIiS6_EEED2Ev(%"class.__gnu_debug::_Safe_iterator"*) unnamed_addr #5 comdat align 2 {
  %2 = alloca %"class.__gnu_debug::_Safe_iterator"*, align 8
  store %"class.__gnu_debug::_Safe_iterator"* %0, %"class.__gnu_debug::_Safe_iterator"** %2, align 8
  %3 = load %"class.__gnu_debug::_Safe_iterator"*, %"class.__gnu_debug::_Safe_iterator"** %2, align 8
  %4 = bitcast %"class.__gnu_debug::_Safe_iterator"* %3 to i8*
  %5 = getelementptr inbounds i8, i8* %4, i64 8
  %6 = bitcast i8* %5 to %"class.__gnu_debug::_Safe_iterator_base"*
  call void @_ZN11__gnu_debug19_Safe_iterator_baseD2Ev(%"class.__gnu_debug::_Safe_iterator_base"* %6) #3
  ret void
}

; Function Attrs: noinline nounwind uwtable
define linkonce_odr void @_ZNSaINSt7__debug6vectorISt4pairIiiESaIS2_EEEEC2Ev(%"class.std::allocator.7"*) unnamed_addr #5 comdat align 2 {
  %2 = alloca %"class.std::allocator.7"*, align 8
  store %"class.std::allocator.7"* %0, %"class.std::allocator.7"** %2, align 8
  %3 = load %"class.std::allocator.7"*, %"class.std::allocator.7"** %2, align 8
  %4 = bitcast %"class.std::allocator.7"* %3 to %"class.__gnu_cxx::new_allocator.8"*
  call void @_ZN9__gnu_cxx13new_allocatorINSt7__debug6vectorISt4pairIiiESaIS4_EEEEC2Ev(%"class.__gnu_cxx::new_allocator.8"* %4) #3
  ret void
}

; Function Attrs: noinline uwtable
define linkonce_odr void @_ZNSt7__debug6vectorINS0_ISt4pairIiiESaIS2_EEESaIS4_EEC2EmRKS5_(%"class.std::__debug::vector.0"*, i64, %"class.std::allocator.7"* dereferenceable(1)) unnamed_addr #0 comdat align 2 personality i8* bitcast (i32 (...)* @__gxx_personality_v0 to i8*) {
  %4 = alloca %"class.std::__debug::vector.0"*, align 8
  %5 = alloca i64, align 8
  %6 = alloca %"class.std::allocator.7"*, align 8
  %7 = alloca i8*
  %8 = alloca i32
  store %"class.std::__debug::vector.0"* %0, %"class.std::__debug::vector.0"** %4, align 8
  store i64 %1, i64* %5, align 8
  store %"class.std::allocator.7"* %2, %"class.std::allocator.7"** %6, align 8
  %9 = load %"class.std::__debug::vector.0"*, %"class.std::__debug::vector.0"** %4, align 8
  %10 = bitcast %"class.std::__debug::vector.0"* %9 to %"class.__gnu_debug::_Safe_container.1"*
  call void @_ZN11__gnu_debug15_Safe_containerINSt7__debug6vectorINS2_ISt4pairIiiESaIS4_EEESaIS6_EEES7_NS_14_Safe_sequenceELb1EEC2Ev(%"class.__gnu_debug::_Safe_container.1"* %10) #3
  %11 = bitcast %"class.std::__debug::vector.0"* %9 to i8*
  %12 = getelementptr inbounds i8, i8* %11, i64 24
  %13 = bitcast i8* %12 to %"class.std::__cxx1998::vector.5"*
  %14 = load i64, i64* %5, align 8
  %15 = load %"class.std::allocator.7"*, %"class.std::allocator.7"** %6, align 8
  invoke void @_ZNSt9__cxx19986vectorINSt7__debug6vectorISt4pairIiiESaIS4_EEESaIS6_EEC2EmRKS7_(%"class.std::__cxx1998::vector.5"* %13, i64 %14, %"class.std::allocator.7"* dereferenceable(1) %15)
          to label %16 unwind label %39

; <label>:16:                                     ; preds = %3
  %17 = load i32, i32* @x.37
  %18 = load i32, i32* @y.38
  %19 = sub i32 %17, 1
  %20 = mul i32 %17, %19
  %21 = urem i32 %20, 2
  %22 = icmp eq i32 %21, 0
  %23 = icmp slt i32 %18, 10
  %24 = or i1 %22, %23
  br i1 %24, label %25, label %49

; <label>:25:                                     ; preds = %16, %49
  %26 = bitcast %"class.std::__debug::vector.0"* %9 to i8*
  %27 = getelementptr inbounds i8, i8* %26, i64 48
  %28 = bitcast i8* %27 to %"class.__gnu_debug::_Safe_vector.21"*
  %29 = load i64, i64* %5, align 8
  call void @_ZN11__gnu_debug12_Safe_vectorINSt7__debug6vectorINS2_ISt4pairIiiESaIS4_EEESaIS6_EEENSt9__cxx19986vectorIS6_S7_EEEC2Em(%"class.__gnu_debug::_Safe_vector.21"* %28, i64 %29) #3
  %30 = load i32, i32* @x.37
  %31 = load i32, i32* @y.38
  %32 = sub i32 %30, 1
  %33 = mul i32 %30, %32
  %34 = urem i32 %33, 2
  %35 = icmp eq i32 %34, 0
  %36 = icmp slt i32 %31, 10
  %37 = or i1 %35, %36
  br i1 %37, label %38, label %49

; <label>:38:                                     ; preds = %25
  ret void

; <label>:39:                                     ; preds = %3
  %40 = landingpad { i8*, i32 }
          cleanup
  %41 = extractvalue { i8*, i32 } %40, 0
  store i8* %41, i8** %7, align 8
  %42 = extractvalue { i8*, i32 } %40, 1
  store i32 %42, i32* %8, align 4
  %43 = bitcast %"class.std::__debug::vector.0"* %9 to %"class.__gnu_debug::_Safe_container.1"*
  call void @_ZN11__gnu_debug15_Safe_containerINSt7__debug6vectorINS2_ISt4pairIiiESaIS4_EEESaIS6_EEES7_NS_14_Safe_sequenceELb1EED2Ev(%"class.__gnu_debug::_Safe_container.1"* %43) #3
  br label %44

; <label>:44:                                     ; preds = %39
  %45 = load i8*, i8** %7, align 8
  %46 = load i32, i32* %8, align 4
  %47 = insertvalue { i8*, i32 } undef, i8* %45, 0
  %48 = insertvalue { i8*, i32 } %47, i32 %46, 1
  resume { i8*, i32 } %48

; <label>:49:                                     ; preds = %25, %16
  %50 = bitcast %"class.std::__debug::vector.0"* %9 to i8*
  %51 = getelementptr inbounds i8, i8* %50, i64 48
  %52 = bitcast i8* %51 to %"class.__gnu_debug::_Safe_vector.21"*
  %53 = load i64, i64* %5, align 8
  call void @_ZN11__gnu_debug12_Safe_vectorINSt7__debug6vectorINS2_ISt4pairIiiESaIS4_EEESaIS6_EEENSt9__cxx19986vectorIS6_S7_EEEC2Em(%"class.__gnu_debug::_Safe_vector.21"* %52, i64 %53) #3
  br label %25
}

; Function Attrs: noinline nounwind uwtable
define linkonce_odr void @_ZNSaINSt7__debug6vectorISt4pairIiiESaIS2_EEEED2Ev(%"class.std::allocator.7"*) unnamed_addr #5 comdat align 2 {
  %2 = alloca %"class.std::allocator.7"*, align 8
  store %"class.std::allocator.7"* %0, %"class.std::allocator.7"** %2, align 8
  %3 = load %"class.std::allocator.7"*, %"class.std::allocator.7"** %2, align 8
  %4 = bitcast %"class.std::allocator.7"* %3 to %"class.__gnu_cxx::new_allocator.8"*
  call void @_ZN9__gnu_cxx13new_allocatorINSt7__debug6vectorISt4pairIiiESaIS4_EEEED2Ev(%"class.__gnu_cxx::new_allocator.8"* %4) #3
  ret void
}

; Function Attrs: noinline nounwind uwtable
define linkonce_odr dereferenceable(56) %"class.std::__debug::vector.10"* @_ZNSt7__debug6vectorINS0_ISt4pairIiiESaIS2_EEESaIS4_EEixEm(%"class.std::__debug::vector.0"*, i64) #5 comdat align 2 personality i8* bitcast (i32 (...)* @__gxx_personality_v0 to i8*) {
  %3 = alloca %"class.std::__debug::vector.0"*, align 8
  %4 = alloca i64, align 8
  %5 = alloca %"class.__gnu_debug::_Error_formatter", align 8
  store %"class.std::__debug::vector.0"* %0, %"class.std::__debug::vector.0"** %3, align 8
  store i64 %1, i64* %4, align 8
  %6 = load %"class.std::__debug::vector.0"*, %"class.std::__debug::vector.0"** %3, align 8
  br label %7

; <label>:7:                                      ; preds = %2
  %8 = load i32, i32* @x.41
  %9 = load i32, i32* @y.42
  %10 = sub i32 %8, 1
  %11 = mul i32 %8, %10
  %12 = urem i32 %11, 2
  %13 = icmp eq i32 %12, 0
  %14 = icmp slt i32 %9, 10
  %15 = or i1 %13, %14
  br i1 %15, label %16, label %74

; <label>:16:                                     ; preds = %7, %74
  %17 = load i64, i64* %4, align 8
  %18 = bitcast %"class.std::__debug::vector.0"* %6 to i8*
  %19 = getelementptr inbounds i8, i8* %18, i64 24
  %20 = bitcast i8* %19 to %"class.std::__cxx1998::vector.5"*
  %21 = call i64 @_ZNKSt9__cxx19986vectorINSt7__debug6vectorISt4pairIiiESaIS4_EEESaIS6_EE4sizeEv(%"class.std::__cxx1998::vector.5"* %20) #3
  %22 = icmp ult i64 %17, %21
  %23 = load i32, i32* @x.41
  %24 = load i32, i32* @y.42
  %25 = sub i32 %23, 1
  %26 = mul i32 %23, %25
  %27 = urem i32 %26, 2
  %28 = icmp eq i32 %27, 0
  %29 = icmp slt i32 %24, 10
  %30 = or i1 %28, %29
  br i1 %30, label %31, label %74

; <label>:31:                                     ; preds = %16
  br i1 %22, label %47, label %32

; <label>:32:                                     ; preds = %31
  invoke void @_ZN11__gnu_debug16_Error_formatter5_M_atEPKcm(%"class.__gnu_debug::_Error_formatter"* sret %5, i8* getelementptr inbounds ([79 x i8], [79 x i8]* @.str, i32 0, i32 0), i64 409)
          to label %33 unwind label %71

; <label>:33:                                     ; preds = %32
  %34 = call dereferenceable(560) %"class.__gnu_debug::_Error_formatter"* @_ZNK11__gnu_debug16_Error_formatter10_M_messageENS_13_Debug_msg_idE(%"class.__gnu_debug::_Error_formatter"* %5, i32 5) #3
  %35 = invoke dereferenceable(560) %"class.__gnu_debug::_Error_formatter"* @_ZNK11__gnu_debug16_Error_formatter11_M_sequenceINSt7__debug6vectorINS3_ISt4pairIiiESaIS5_EEESaIS7_EEEEERKS0_RKT_PKc(%"class.__gnu_debug::_Error_formatter"* %34, %"class.std::__debug::vector.0"* dereferenceable(56) %6, i8* getelementptr inbounds ([5 x i8], [5 x i8]* @.str.1, i32 0, i32 0))
          to label %36 unwind label %71

; <label>:36:                                     ; preds = %33
  %37 = load i64, i64* %4, align 8
  %38 = invoke dereferenceable(560) %"class.__gnu_debug::_Error_formatter"* @_ZNK11__gnu_debug16_Error_formatter10_M_integerElPKc(%"class.__gnu_debug::_Error_formatter"* %35, i64 %37, i8* getelementptr inbounds ([4 x i8], [4 x i8]* @.str.2, i32 0, i32 0))
          to label %39 unwind label %71

; <label>:39:                                     ; preds = %36
  %40 = bitcast %"class.std::__debug::vector.0"* %6 to i8*
  %41 = getelementptr inbounds i8, i8* %40, i64 24
  %42 = bitcast i8* %41 to %"class.std::__cxx1998::vector.5"*
  %43 = call i64 @_ZNKSt9__cxx19986vectorINSt7__debug6vectorISt4pairIiiESaIS4_EEESaIS6_EE4sizeEv(%"class.std::__cxx1998::vector.5"* %42) #3
  %44 = invoke dereferenceable(560) %"class.__gnu_debug::_Error_formatter"* @_ZNK11__gnu_debug16_Error_formatter10_M_integerElPKc(%"class.__gnu_debug::_Error_formatter"* %38, i64 %43, i8* getelementptr inbounds ([5 x i8], [5 x i8]* @.str.3, i32 0, i32 0))
          to label %45 unwind label %71

; <label>:45:                                     ; preds = %39
  invoke void @_ZNK11__gnu_debug16_Error_formatter8_M_errorEv(%"class.__gnu_debug::_Error_formatter"* %44) #14
          to label %46 unwind label %71

; <label>:46:                                     ; preds = %45
  unreachable

; <label>:47:                                     ; preds = %31
  br label %48

; <label>:48:                                     ; preds = %47
  %49 = load i32, i32* @x.41
  %50 = load i32, i32* @y.42
  %51 = sub i32 %49, 1
  %52 = mul i32 %49, %51
  %53 = urem i32 %52, 2
  %54 = icmp eq i32 %53, 0
  %55 = icmp slt i32 %50, 10
  %56 = or i1 %54, %55
  br i1 %56, label %57, label %81

; <label>:57:                                     ; preds = %48, %81
  %58 = load i32, i32* @x.41
  %59 = load i32, i32* @y.42
  %60 = sub i32 %58, 1
  %61 = mul i32 %58, %60
  %62 = urem i32 %61, 2
  %63 = icmp eq i32 %62, 0
  %64 = icmp slt i32 %59, 10
  %65 = or i1 %63, %64
  br i1 %65, label %66, label %81

; <label>:66:                                     ; preds = %57
  br label %67

; <label>:67:                                     ; preds = %66
  %68 = call dereferenceable(24) %"class.std::__cxx1998::vector.5"* @_ZNSt7__debug6vectorINS0_ISt4pairIiiESaIS2_EEESaIS4_EE7_M_baseEv(%"class.std::__debug::vector.0"* %6) #3
  %69 = load i64, i64* %4, align 8
  %70 = call dereferenceable(56) %"class.std::__debug::vector.10"* @_ZNSt9__cxx19986vectorINSt7__debug6vectorISt4pairIiiESaIS4_EEESaIS6_EEixEm(%"class.std::__cxx1998::vector.5"* %68, i64 %69) #3
  ret %"class.std::__debug::vector.10"* %70

; <label>:71:                                     ; preds = %45, %39, %36, %33, %32
  %72 = landingpad { i8*, i32 }
          catch i8* null
  %73 = extractvalue { i8*, i32 } %72, 0
  call void @__clang_call_terminate(i8* %73) #13
  unreachable

; <label>:74:                                     ; preds = %16, %7
  %75 = load i64, i64* %4, align 8
  %76 = bitcast %"class.std::__debug::vector.0"* %6 to i8*
  %77 = getelementptr inbounds i8, i8* %76, i64 24
  %78 = bitcast i8* %77 to %"class.std::__cxx1998::vector.5"*
  %79 = call i64 @_ZNKSt9__cxx19986vectorINSt7__debug6vectorISt4pairIiiESaIS4_EEESaIS6_EE4sizeEv(%"class.std::__cxx1998::vector.5"* %78) #3
  %80 = icmp ult i64 %75, %79
  br label %16

; <label>:81:                                     ; preds = %57, %48
  br label %57
}

; Function Attrs: noinline uwtable
define linkonce_odr void @_ZNSt7__debug6vectorISt4pairIiiESaIS2_EE9push_backIS2_EEN9__gnu_cxx11__enable_ifIXntsr3std10__are_sameIT_bEE7__valueEvE6__typeEOS2_(%"class.std::__debug::vector.10"*, %"struct.std::pair"* dereferenceable(8)) #0 comdat align 2 {
  %3 = alloca %"class.std::__debug::vector.10"*, align 8
  %4 = alloca %"struct.std::pair"*, align 8
  store %"class.std::__debug::vector.10"* %0, %"class.std::__debug::vector.10"** %3, align 8
  store %"struct.std::pair"* %1, %"struct.std::pair"** %4, align 8
  %5 = load %"class.std::__debug::vector.10"*, %"class.std::__debug::vector.10"** %3, align 8
  %6 = load %"struct.std::pair"*, %"struct.std::pair"** %4, align 8
  %7 = call dereferenceable(8) %"struct.std::pair"* @_ZSt4moveIRSt4pairIiiEEONSt16remove_referenceIT_E4typeEOS4_(%"struct.std::pair"* dereferenceable(8) %6) #3
  call void @_ZNSt7__debug6vectorISt4pairIiiESaIS2_EE12emplace_backIJS2_EEEvDpOT_(%"class.std::__debug::vector.10"* %5, %"struct.std::pair"* dereferenceable(8) %7)
  ret void
}

; Function Attrs: noinline uwtable
define linkonce_odr i64 @_ZSt9make_pairIRiS0_ESt4pairINSt17__decay_and_stripIT_E6__typeENS2_IT0_E6__typeEEOS3_OS6_(i32* dereferenceable(4), i32* dereferenceable(4)) #0 comdat {
  %3 = alloca %"struct.std::pair", align 4
  %4 = alloca i32*, align 8
  %5 = alloca i32*, align 8
  store i32* %0, i32** %4, align 8
  store i32* %1, i32** %5, align 8
  %6 = load i32*, i32** %4, align 8
  %7 = call dereferenceable(4) i32* @_ZSt7forwardIRiEOT_RNSt16remove_referenceIS1_E4typeE(i32* dereferenceable(4) %6) #3
  %8 = load i32*, i32** %5, align 8
  %9 = call dereferenceable(4) i32* @_ZSt7forwardIRiEOT_RNSt16remove_referenceIS1_E4typeE(i32* dereferenceable(4) %8) #3
  call void @_ZNSt4pairIiiEC2IRiS2_vEEOT_OT0_(%"struct.std::pair"* %3, i32* dereferenceable(4) %7, i32* dereferenceable(4) %9)
  %10 = bitcast %"struct.std::pair"* %3 to i64*
  %11 = load i64, i64* %10, align 4
  ret i64 %11
}

; Function Attrs: noinline nounwind uwtable
define linkonce_odr void @_ZNSaINSt7__debug6vectorIiSaIiEEEEC2Ev(%"class.std::allocator.29"*) unnamed_addr #5 comdat align 2 {
  %2 = load i32, i32* @x.47
  %3 = load i32, i32* @y.48
  %4 = sub i32 %2, 1
  %5 = mul i32 %2, %4
  %6 = urem i32 %5, 2
  %7 = icmp eq i32 %6, 0
  %8 = icmp slt i32 %3, 10
  %9 = or i1 %7, %8
  br i1 %9, label %10, label %23

; <label>:10:                                     ; preds = %1, %23
  %11 = alloca %"class.std::allocator.29"*, align 8
  store %"class.std::allocator.29"* %0, %"class.std::allocator.29"** %11, align 8
  %12 = load %"class.std::allocator.29"*, %"class.std::allocator.29"** %11, align 8
  %13 = bitcast %"class.std::allocator.29"* %12 to %"class.__gnu_cxx::new_allocator.30"*
  call void @_ZN9__gnu_cxx13new_allocatorINSt7__debug6vectorIiSaIiEEEEC2Ev(%"class.__gnu_cxx::new_allocator.30"* %13) #3
  %14 = load i32, i32* @x.47
  %15 = load i32, i32* @y.48
  %16 = sub i32 %14, 1
  %17 = mul i32 %14, %16
  %18 = urem i32 %17, 2
  %19 = icmp eq i32 %18, 0
  %20 = icmp slt i32 %15, 10
  %21 = or i1 %19, %20
  br i1 %21, label %22, label %23

; <label>:22:                                     ; preds = %10
  ret void

; <label>:23:                                     ; preds = %10, %1
  %24 = alloca %"class.std::allocator.29"*, align 8
  store %"class.std::allocator.29"* %0, %"class.std::allocator.29"** %24, align 8
  %25 = load %"class.std::allocator.29"*, %"class.std::allocator.29"** %24, align 8
  %26 = bitcast %"class.std::allocator.29"* %25 to %"class.__gnu_cxx::new_allocator.30"*
  call void @_ZN9__gnu_cxx13new_allocatorINSt7__debug6vectorIiSaIiEEEEC2Ev(%"class.__gnu_cxx::new_allocator.30"* %26) #3
  br label %10
}

; Function Attrs: noinline uwtable
define linkonce_odr void @_ZNSt7__debug6vectorINS0_IiSaIiEEESaIS2_EEC2EmRKS2_RKS3_(%"class.std::__debug::vector.22"*, i64, %"class.std::__debug::vector"* dereferenceable(56), %"class.std::allocator.29"* dereferenceable(1)) unnamed_addr #0 comdat align 2 personality i8* bitcast (i32 (...)* @__gxx_personality_v0 to i8*) {
  %5 = alloca %"class.std::__debug::vector.22"*, align 8
  %6 = alloca i64, align 8
  %7 = alloca %"class.std::__debug::vector"*, align 8
  %8 = alloca %"class.std::allocator.29"*, align 8
  %9 = alloca i8*
  %10 = alloca i32
  store %"class.std::__debug::vector.22"* %0, %"class.std::__debug::vector.22"** %5, align 8
  store i64 %1, i64* %6, align 8
  store %"class.std::__debug::vector"* %2, %"class.std::__debug::vector"** %7, align 8
  store %"class.std::allocator.29"* %3, %"class.std::allocator.29"** %8, align 8
  %11 = load %"class.std::__debug::vector.22"*, %"class.std::__debug::vector.22"** %5, align 8
  %12 = bitcast %"class.std::__debug::vector.22"* %11 to %"class.__gnu_debug::_Safe_container.23"*
  call void @_ZN11__gnu_debug15_Safe_containerINSt7__debug6vectorINS2_IiSaIiEEESaIS4_EEES5_NS_14_Safe_sequenceELb1EEC2Ev(%"class.__gnu_debug::_Safe_container.23"* %12) #3
  %13 = bitcast %"class.std::__debug::vector.22"* %11 to i8*
  %14 = getelementptr inbounds i8, i8* %13, i64 24
  %15 = bitcast i8* %14 to %"class.std::__cxx1998::vector.27"*
  %16 = load i64, i64* %6, align 8
  %17 = load %"class.std::__debug::vector"*, %"class.std::__debug::vector"** %7, align 8
  %18 = load %"class.std::allocator.29"*, %"class.std::allocator.29"** %8, align 8
  invoke void @_ZNSt9__cxx19986vectorINSt7__debug6vectorIiSaIiEEESaIS4_EEC2EmRKS4_RKS5_(%"class.std::__cxx1998::vector.27"* %15, i64 %16, %"class.std::__debug::vector"* dereferenceable(56) %17, %"class.std::allocator.29"* dereferenceable(1) %18)
          to label %19 unwind label %23

; <label>:19:                                     ; preds = %4
  %20 = bitcast %"class.std::__debug::vector.22"* %11 to i8*
  %21 = getelementptr inbounds i8, i8* %20, i64 48
  %22 = bitcast i8* %21 to %"class.__gnu_debug::_Safe_vector.32"*
  call void @_ZN11__gnu_debug12_Safe_vectorINSt7__debug6vectorINS2_IiSaIiEEESaIS4_EEENSt9__cxx19986vectorIS4_S5_EEEC2Ev(%"class.__gnu_debug::_Safe_vector.32"* %22) #3
  ret void

; <label>:23:                                     ; preds = %4
  %24 = landingpad { i8*, i32 }
          cleanup
  %25 = extractvalue { i8*, i32 } %24, 0
  store i8* %25, i8** %9, align 8
  %26 = extractvalue { i8*, i32 } %24, 1
  store i32 %26, i32* %10, align 4
  %27 = bitcast %"class.std::__debug::vector.22"* %11 to %"class.__gnu_debug::_Safe_container.23"*
  call void @_ZN11__gnu_debug15_Safe_containerINSt7__debug6vectorINS2_IiSaIiEEESaIS4_EEES5_NS_14_Safe_sequenceELb1EED2Ev(%"class.__gnu_debug::_Safe_container.23"* %27) #3
  br label %28

; <label>:28:                                     ; preds = %23
  %29 = load i32, i32* @x.49
  %30 = load i32, i32* @y.50
  %31 = sub i32 %29, 1
  %32 = mul i32 %29, %31
  %33 = urem i32 %32, 2
  %34 = icmp eq i32 %33, 0
  %35 = icmp slt i32 %30, 10
  %36 = or i1 %34, %35
  br i1 %36, label %37, label %51

; <label>:37:                                     ; preds = %28, %51
  %38 = load i8*, i8** %9, align 8
  %39 = load i32, i32* %10, align 4
  %40 = insertvalue { i8*, i32 } undef, i8* %38, 0
  %41 = insertvalue { i8*, i32 } %40, i32 %39, 1
  %42 = load i32, i32* @x.49
  %43 = load i32, i32* @y.50
  %44 = sub i32 %42, 1
  %45 = mul i32 %42, %44
  %46 = urem i32 %45, 2
  %47 = icmp eq i32 %46, 0
  %48 = icmp slt i32 %43, 10
  %49 = or i1 %47, %48
  br i1 %49, label %50, label %51

; <label>:50:                                     ; preds = %37
  resume { i8*, i32 } %41

; <label>:51:                                     ; preds = %37, %28
  %52 = load i8*, i8** %9, align 8
  %53 = load i32, i32* %10, align 4
  %54 = insertvalue { i8*, i32 } undef, i8* %52, 0
  %55 = insertvalue { i8*, i32 } %54, i32 %53, 1
  br label %37
}

; Function Attrs: noinline nounwind uwtable
define linkonce_odr void @_ZNSaINSt7__debug6vectorIiSaIiEEEED2Ev(%"class.std::allocator.29"*) unnamed_addr #5 comdat align 2 {
  %2 = load i32, i32* @x.51
  %3 = load i32, i32* @y.52
  %4 = sub i32 %2, 1
  %5 = mul i32 %2, %4
  %6 = urem i32 %5, 2
  %7 = icmp eq i32 %6, 0
  %8 = icmp slt i32 %3, 10
  %9 = or i1 %7, %8
  br i1 %9, label %10, label %23

; <label>:10:                                     ; preds = %1, %23
  %11 = alloca %"class.std::allocator.29"*, align 8
  store %"class.std::allocator.29"* %0, %"class.std::allocator.29"** %11, align 8
  %12 = load %"class.std::allocator.29"*, %"class.std::allocator.29"** %11, align 8
  %13 = bitcast %"class.std::allocator.29"* %12 to %"class.__gnu_cxx::new_allocator.30"*
  call void @_ZN9__gnu_cxx13new_allocatorINSt7__debug6vectorIiSaIiEEEED2Ev(%"class.__gnu_cxx::new_allocator.30"* %13) #3
  %14 = load i32, i32* @x.51
  %15 = load i32, i32* @y.52
  %16 = sub i32 %14, 1
  %17 = mul i32 %14, %16
  %18 = urem i32 %17, 2
  %19 = icmp eq i32 %18, 0
  %20 = icmp slt i32 %15, 10
  %21 = or i1 %19, %20
  br i1 %21, label %22, label %23

; <label>:22:                                     ; preds = %10
  ret void

; <label>:23:                                     ; preds = %10, %1
  %24 = alloca %"class.std::allocator.29"*, align 8
  store %"class.std::allocator.29"* %0, %"class.std::allocator.29"** %24, align 8
  %25 = load %"class.std::allocator.29"*, %"class.std::allocator.29"** %24, align 8
  %26 = bitcast %"class.std::allocator.29"* %25 to %"class.__gnu_cxx::new_allocator.30"*
  call void @_ZN9__gnu_cxx13new_allocatorINSt7__debug6vectorIiSaIiEEEED2Ev(%"class.__gnu_cxx::new_allocator.30"* %26) #3
  br label %10
}

; Function Attrs: noinline nounwind uwtable
define linkonce_odr void @_ZNSt7__debug6vectorIiSaIiEED2Ev(%"class.std::__debug::vector"*) unnamed_addr #5 comdat align 2 {
  %2 = alloca %"class.std::__debug::vector"*, align 8
  store %"class.std::__debug::vector"* %0, %"class.std::__debug::vector"** %2, align 8
  %3 = load %"class.std::__debug::vector"*, %"class.std::__debug::vector"** %2, align 8
  %4 = bitcast %"class.std::__debug::vector"* %3 to i8*
  %5 = getelementptr inbounds i8, i8* %4, i64 24
  %6 = bitcast i8* %5 to %"class.std::__cxx1998::vector"*
  call void @_ZNSt9__cxx19986vectorIiSaIiEED2Ev(%"class.std::__cxx1998::vector"* %6) #3
  %7 = bitcast %"class.std::__debug::vector"* %3 to %"class.__gnu_debug::_Safe_container"*
  call void @_ZN11__gnu_debug15_Safe_containerINSt7__debug6vectorIiSaIiEEES3_NS_14_Safe_sequenceELb1EED2Ev(%"class.__gnu_debug::_Safe_container"* %7) #3
  ret void
}

; Function Attrs: argmemonly nounwind
declare void @llvm.memset.p0i8.i64(i8* nocapture writeonly, i8, i64, i32, i1) #6

; Function Attrs: noinline uwtable
define linkonce_odr void @_ZNSt7__debug5dequeIiSaIiEEC2Ev(%"class.std::__debug::deque"*) unnamed_addr #0 comdat align 2 personality i8* bitcast (i32 (...)* @__gxx_personality_v0 to i8*) {
  %2 = load i32, i32* @x.55
  %3 = load i32, i32* @y.56
  %4 = sub i32 %2, 1
  %5 = mul i32 %2, %4
  %6 = urem i32 %5, 2
  %7 = icmp eq i32 %6, 0
  %8 = icmp slt i32 %3, 10
  %9 = or i1 %7, %8
  br i1 %9, label %10, label %75

; <label>:10:                                     ; preds = %1, %75
  %11 = alloca %"class.std::__debug::deque"*, align 8
  %12 = alloca i8*
  %13 = alloca i32
  store %"class.std::__debug::deque"* %0, %"class.std::__debug::deque"** %11, align 8
  %14 = load %"class.std::__debug::deque"*, %"class.std::__debug::deque"** %11, align 8
  %15 = bitcast %"class.std::__debug::deque"* %14 to %"class.__gnu_debug::_Safe_container.33"*
  call void @_ZN11__gnu_debug15_Safe_containerINSt7__debug5dequeIiSaIiEEES3_NS_14_Safe_sequenceELb1EEC2Ev(%"class.__gnu_debug::_Safe_container.33"* %15) #3
  %16 = bitcast %"class.std::__debug::deque"* %14 to i8*
  %17 = getelementptr inbounds i8, i8* %16, i64 24
  %18 = bitcast i8* %17 to %"class.std::__cxx1998::deque"*
  %19 = load i32, i32* @x.55
  %20 = load i32, i32* @y.56
  %21 = sub i32 %19, 1
  %22 = mul i32 %19, %21
  %23 = urem i32 %22, 2
  %24 = icmp eq i32 %23, 0
  %25 = icmp slt i32 %20, 10
  %26 = or i1 %24, %25
  br i1 %26, label %27, label %75

; <label>:27:                                     ; preds = %10
  invoke void @_ZNSt9__cxx19985dequeIiSaIiEEC2Ev(%"class.std::__cxx1998::deque"* %18)
          to label %28 unwind label %47

; <label>:28:                                     ; preds = %27
  %29 = load i32, i32* @x.55
  %30 = load i32, i32* @y.56
  %31 = sub i32 %29, 1
  %32 = mul i32 %29, %31
  %33 = urem i32 %32, 2
  %34 = icmp eq i32 %33, 0
  %35 = icmp slt i32 %30, 10
  %36 = or i1 %34, %35
  br i1 %36, label %37, label %84

; <label>:37:                                     ; preds = %28, %84
  %38 = load i32, i32* @x.55
  %39 = load i32, i32* @y.56
  %40 = sub i32 %38, 1
  %41 = mul i32 %38, %40
  %42 = urem i32 %41, 2
  %43 = icmp eq i32 %42, 0
  %44 = icmp slt i32 %39, 10
  %45 = or i1 %43, %44
  br i1 %45, label %46, label %84

; <label>:46:                                     ; preds = %37
  ret void

; <label>:47:                                     ; preds = %27
  %48 = landingpad { i8*, i32 }
          cleanup
  %49 = extractvalue { i8*, i32 } %48, 0
  store i8* %49, i8** %12, align 8
  %50 = extractvalue { i8*, i32 } %48, 1
  store i32 %50, i32* %13, align 4
  %51 = bitcast %"class.std::__debug::deque"* %14 to %"class.__gnu_debug::_Safe_container.33"*
  call void @_ZN11__gnu_debug15_Safe_containerINSt7__debug5dequeIiSaIiEEES3_NS_14_Safe_sequenceELb1EED2Ev(%"class.__gnu_debug::_Safe_container.33"* %51) #3
  br label %52

; <label>:52:                                     ; preds = %47
  %53 = load i32, i32* @x.55
  %54 = load i32, i32* @y.56
  %55 = sub i32 %53, 1
  %56 = mul i32 %53, %55
  %57 = urem i32 %56, 2
  %58 = icmp eq i32 %57, 0
  %59 = icmp slt i32 %54, 10
  %60 = or i1 %58, %59
  br i1 %60, label %61, label %85

; <label>:61:                                     ; preds = %52, %85
  %62 = load i8*, i8** %12, align 8
  %63 = load i32, i32* %13, align 4
  %64 = insertvalue { i8*, i32 } undef, i8* %62, 0
  %65 = insertvalue { i8*, i32 } %64, i32 %63, 1
  %66 = load i32, i32* @x.55
  %67 = load i32, i32* @y.56
  %68 = sub i32 %66, 1
  %69 = mul i32 %66, %68
  %70 = urem i32 %69, 2
  %71 = icmp eq i32 %70, 0
  %72 = icmp slt i32 %67, 10
  %73 = or i1 %71, %72
  br i1 %73, label %74, label %85

; <label>:74:                                     ; preds = %61
  resume { i8*, i32 } %65

; <label>:75:                                     ; preds = %10, %1
  %76 = alloca %"class.std::__debug::deque"*, align 8
  %77 = alloca i8*
  %78 = alloca i32
  store %"class.std::__debug::deque"* %0, %"class.std::__debug::deque"** %76, align 8
  %79 = load %"class.std::__debug::deque"*, %"class.std::__debug::deque"** %76, align 8
  %80 = bitcast %"class.std::__debug::deque"* %79 to %"class.__gnu_debug::_Safe_container.33"*
  call void @_ZN11__gnu_debug15_Safe_containerINSt7__debug5dequeIiSaIiEEES3_NS_14_Safe_sequenceELb1EEC2Ev(%"class.__gnu_debug::_Safe_container.33"* %80) #3
  %81 = bitcast %"class.std::__debug::deque"* %79 to i8*
  %82 = getelementptr inbounds i8, i8* %81, i64 24
  %83 = bitcast i8* %82 to %"class.std::__cxx1998::deque"*
  br label %10

; <label>:84:                                     ; preds = %37, %28
  br label %37

; <label>:85:                                     ; preds = %61, %52
  %86 = load i8*, i8** %12, align 8
  %87 = load i32, i32* %13, align 4
  %88 = insertvalue { i8*, i32 } undef, i8* %86, 0
  %89 = insertvalue { i8*, i32 } %88, i32 %87, 1
  br label %61
}

; Function Attrs: noinline uwtable
define linkonce_odr void @_ZNSt5queueIiNSt7__debug5dequeIiSaIiEEEEC2EOS3_(%"class.std::queue"*, %"class.std::__debug::deque"* dereferenceable(104)) unnamed_addr #0 comdat align 2 {
  %3 = load i32, i32* @x.57
  %4 = load i32, i32* @y.58
  %5 = sub i32 %3, 1
  %6 = mul i32 %3, %5
  %7 = urem i32 %6, 2
  %8 = icmp eq i32 %7, 0
  %9 = icmp slt i32 %4, 10
  %10 = or i1 %8, %9
  br i1 %10, label %11, label %27

; <label>:11:                                     ; preds = %2, %27
  %12 = alloca %"class.std::queue"*, align 8
  %13 = alloca %"class.std::__debug::deque"*, align 8
  store %"class.std::queue"* %0, %"class.std::queue"** %12, align 8
  store %"class.std::__debug::deque"* %1, %"class.std::__debug::deque"** %13, align 8
  %14 = load %"class.std::queue"*, %"class.std::queue"** %12, align 8
  %15 = getelementptr inbounds %"class.std::queue", %"class.std::queue"* %14, i32 0, i32 0
  %16 = load %"class.std::__debug::deque"*, %"class.std::__debug::deque"** %13, align 8
  %17 = call dereferenceable(104) %"class.std::__debug::deque"* @_ZSt4moveIRNSt7__debug5dequeIiSaIiEEEEONSt16remove_referenceIT_E4typeEOS6_(%"class.std::__debug::deque"* dereferenceable(104) %16) #3
  call void @_ZNSt7__debug5dequeIiSaIiEEC2EOS2_(%"class.std::__debug::deque"* %15, %"class.std::__debug::deque"* dereferenceable(104) %17)
  %18 = load i32, i32* @x.57
  %19 = load i32, i32* @y.58
  %20 = sub i32 %18, 1
  %21 = mul i32 %18, %20
  %22 = urem i32 %21, 2
  %23 = icmp eq i32 %22, 0
  %24 = icmp slt i32 %19, 10
  %25 = or i1 %23, %24
  br i1 %25, label %26, label %27

; <label>:26:                                     ; preds = %11
  ret void

; <label>:27:                                     ; preds = %11, %2
  %28 = alloca %"class.std::queue"*, align 8
  %29 = alloca %"class.std::__debug::deque"*, align 8
  store %"class.std::queue"* %0, %"class.std::queue"** %28, align 8
  store %"class.std::__debug::deque"* %1, %"class.std::__debug::deque"** %29, align 8
  %30 = load %"class.std::queue"*, %"class.std::queue"** %28, align 8
  %31 = getelementptr inbounds %"class.std::queue", %"class.std::queue"* %30, i32 0, i32 0
  %32 = load %"class.std::__debug::deque"*, %"class.std::__debug::deque"** %29, align 8
  %33 = call dereferenceable(104) %"class.std::__debug::deque"* @_ZSt4moveIRNSt7__debug5dequeIiSaIiEEEEONSt16remove_referenceIT_E4typeEOS6_(%"class.std::__debug::deque"* dereferenceable(104) %32) #3
  call void @_ZNSt7__debug5dequeIiSaIiEEC2EOS2_(%"class.std::__debug::deque"* %31, %"class.std::__debug::deque"* dereferenceable(104) %33)
  br label %11
}

; Function Attrs: noinline nounwind uwtable
define linkonce_odr void @_ZNSt7__debug5dequeIiSaIiEED2Ev(%"class.std::__debug::deque"*) unnamed_addr #5 comdat align 2 {
  %2 = load i32, i32* @x.59
  %3 = load i32, i32* @y.60
  %4 = sub i32 %2, 1
  %5 = mul i32 %2, %4
  %6 = urem i32 %5, 2
  %7 = icmp eq i32 %6, 0
  %8 = icmp slt i32 %3, 10
  %9 = or i1 %7, %8
  br i1 %9, label %10, label %26

; <label>:10:                                     ; preds = %1, %26
  %11 = alloca %"class.std::__debug::deque"*, align 8
  store %"class.std::__debug::deque"* %0, %"class.std::__debug::deque"** %11, align 8
  %12 = load %"class.std::__debug::deque"*, %"class.std::__debug::deque"** %11, align 8
  %13 = bitcast %"class.std::__debug::deque"* %12 to i8*
  %14 = getelementptr inbounds i8, i8* %13, i64 24
  %15 = bitcast i8* %14 to %"class.std::__cxx1998::deque"*
  call void @_ZNSt9__cxx19985dequeIiSaIiEED2Ev(%"class.std::__cxx1998::deque"* %15) #3
  %16 = bitcast %"class.std::__debug::deque"* %12 to %"class.__gnu_debug::_Safe_container.33"*
  call void @_ZN11__gnu_debug15_Safe_containerINSt7__debug5dequeIiSaIiEEES3_NS_14_Safe_sequenceELb1EED2Ev(%"class.__gnu_debug::_Safe_container.33"* %16) #3
  %17 = load i32, i32* @x.59
  %18 = load i32, i32* @y.60
  %19 = sub i32 %17, 1
  %20 = mul i32 %17, %19
  %21 = urem i32 %20, 2
  %22 = icmp eq i32 %21, 0
  %23 = icmp slt i32 %18, 10
  %24 = or i1 %22, %23
  br i1 %24, label %25, label %26

; <label>:25:                                     ; preds = %10
  ret void

; <label>:26:                                     ; preds = %10, %1
  %27 = alloca %"class.std::__debug::deque"*, align 8
  store %"class.std::__debug::deque"* %0, %"class.std::__debug::deque"** %27, align 8
  %28 = load %"class.std::__debug::deque"*, %"class.std::__debug::deque"** %27, align 8
  %29 = bitcast %"class.std::__debug::deque"* %28 to i8*
  %30 = getelementptr inbounds i8, i8* %29, i64 24
  %31 = bitcast i8* %30 to %"class.std::__cxx1998::deque"*
  call void @_ZNSt9__cxx19985dequeIiSaIiEED2Ev(%"class.std::__cxx1998::deque"* %31) #3
  %32 = bitcast %"class.std::__debug::deque"* %28 to %"class.__gnu_debug::_Safe_container.33"*
  call void @_ZN11__gnu_debug15_Safe_containerINSt7__debug5dequeIiSaIiEEES3_NS_14_Safe_sequenceELb1EED2Ev(%"class.__gnu_debug::_Safe_container.33"* %32) #3
  br label %10
}

; Function Attrs: noinline uwtable
define linkonce_odr void @_ZNSt5queueIiNSt7__debug5dequeIiSaIiEEEE4pushERKi(%"class.std::queue"*, i32* dereferenceable(4)) #0 comdat align 2 {
  %3 = load i32, i32* @x.61
  %4 = load i32, i32* @y.62
  %5 = sub i32 %3, 1
  %6 = mul i32 %3, %5
  %7 = urem i32 %6, 2
  %8 = icmp eq i32 %7, 0
  %9 = icmp slt i32 %4, 10
  %10 = or i1 %8, %9
  br i1 %10, label %11, label %26

; <label>:11:                                     ; preds = %2, %26
  %12 = alloca %"class.std::queue"*, align 8
  %13 = alloca i32*, align 8
  store %"class.std::queue"* %0, %"class.std::queue"** %12, align 8
  store i32* %1, i32** %13, align 8
  %14 = load %"class.std::queue"*, %"class.std::queue"** %12, align 8
  %15 = getelementptr inbounds %"class.std::queue", %"class.std::queue"* %14, i32 0, i32 0
  %16 = load i32*, i32** %13, align 8
  call void @_ZNSt7__debug5dequeIiSaIiEE9push_backERKi(%"class.std::__debug::deque"* %15, i32* dereferenceable(4) %16)
  %17 = load i32, i32* @x.61
  %18 = load i32, i32* @y.62
  %19 = sub i32 %17, 1
  %20 = mul i32 %17, %19
  %21 = urem i32 %20, 2
  %22 = icmp eq i32 %21, 0
  %23 = icmp slt i32 %18, 10
  %24 = or i1 %22, %23
  br i1 %24, label %25, label %26

; <label>:25:                                     ; preds = %11
  ret void

; <label>:26:                                     ; preds = %11, %2
  %27 = alloca %"class.std::queue"*, align 8
  %28 = alloca i32*, align 8
  store %"class.std::queue"* %0, %"class.std::queue"** %27, align 8
  store i32* %1, i32** %28, align 8
  %29 = load %"class.std::queue"*, %"class.std::queue"** %27, align 8
  %30 = getelementptr inbounds %"class.std::queue", %"class.std::queue"* %29, i32 0, i32 0
  %31 = load i32*, i32** %28, align 8
  call void @_ZNSt7__debug5dequeIiSaIiEE9push_backERKi(%"class.std::__debug::deque"* %30, i32* dereferenceable(4) %31)
  br label %11
}

; Function Attrs: noinline uwtable
define linkonce_odr void @_ZNSt7__debug6vectorIiSaIiEEC2EmRKiRKS1_(%"class.std::__debug::vector"*, i64, i32* dereferenceable(4), %"class.std::allocator"* dereferenceable(1)) unnamed_addr #0 comdat align 2 personality i8* bitcast (i32 (...)* @__gxx_personality_v0 to i8*) {
  %5 = load i32, i32* @x.63
  %6 = load i32, i32* @y.64
  %7 = sub i32 %5, 1
  %8 = mul i32 %5, %7
  %9 = urem i32 %8, 2
  %10 = icmp eq i32 %9, 0
  %11 = icmp slt i32 %6, 10
  %12 = or i1 %10, %11
  br i1 %12, label %13, label %51

; <label>:13:                                     ; preds = %4, %51
  %14 = alloca %"class.std::__debug::vector"*, align 8
  %15 = alloca i64, align 8
  %16 = alloca i32*, align 8
  %17 = alloca %"class.std::allocator"*, align 8
  %18 = alloca i8*
  %19 = alloca i32
  store %"class.std::__debug::vector"* %0, %"class.std::__debug::vector"** %14, align 8
  store i64 %1, i64* %15, align 8
  store i32* %2, i32** %16, align 8
  store %"class.std::allocator"* %3, %"class.std::allocator"** %17, align 8
  %20 = load %"class.std::__debug::vector"*, %"class.std::__debug::vector"** %14, align 8
  %21 = bitcast %"class.std::__debug::vector"* %20 to %"class.__gnu_debug::_Safe_container"*
  call void @_ZN11__gnu_debug15_Safe_containerINSt7__debug6vectorIiSaIiEEES3_NS_14_Safe_sequenceELb1EEC2Ev(%"class.__gnu_debug::_Safe_container"* %21) #3
  %22 = bitcast %"class.std::__debug::vector"* %20 to i8*
  %23 = getelementptr inbounds i8, i8* %22, i64 24
  %24 = bitcast i8* %23 to %"class.std::__cxx1998::vector"*
  %25 = load i64, i64* %15, align 8
  %26 = load i32*, i32** %16, align 8
  %27 = load %"class.std::allocator"*, %"class.std::allocator"** %17, align 8
  %28 = load i32, i32* @x.63
  %29 = load i32, i32* @y.64
  %30 = sub i32 %28, 1
  %31 = mul i32 %28, %30
  %32 = urem i32 %31, 2
  %33 = icmp eq i32 %32, 0
  %34 = icmp slt i32 %29, 10
  %35 = or i1 %33, %34
  br i1 %35, label %36, label %51

; <label>:36:                                     ; preds = %13
  invoke void @_ZNSt9__cxx19986vectorIiSaIiEEC2EmRKiRKS1_(%"class.std::__cxx1998::vector"* %24, i64 %25, i32* dereferenceable(4) %26, %"class.std::allocator"* dereferenceable(1) %27)
          to label %37 unwind label %41

; <label>:37:                                     ; preds = %36
  %38 = bitcast %"class.std::__debug::vector"* %20 to i8*
  %39 = getelementptr inbounds i8, i8* %38, i64 48
  %40 = bitcast i8* %39 to %"class.__gnu_debug::_Safe_vector"*
  call void @_ZN11__gnu_debug12_Safe_vectorINSt7__debug6vectorIiSaIiEEENSt9__cxx19986vectorIiS3_EEEC2Ev(%"class.__gnu_debug::_Safe_vector"* %40) #3
  ret void

; <label>:41:                                     ; preds = %36
  %42 = landingpad { i8*, i32 }
          cleanup
  %43 = extractvalue { i8*, i32 } %42, 0
  store i8* %43, i8** %18, align 8
  %44 = extractvalue { i8*, i32 } %42, 1
  store i32 %44, i32* %19, align 4
  %45 = bitcast %"class.std::__debug::vector"* %20 to %"class.__gnu_debug::_Safe_container"*
  call void @_ZN11__gnu_debug15_Safe_containerINSt7__debug6vectorIiSaIiEEES3_NS_14_Safe_sequenceELb1EED2Ev(%"class.__gnu_debug::_Safe_container"* %45) #3
  br label %46

; <label>:46:                                     ; preds = %41
  %47 = load i8*, i8** %18, align 8
  %48 = load i32, i32* %19, align 4
  %49 = insertvalue { i8*, i32 } undef, i8* %47, 0
  %50 = insertvalue { i8*, i32 } %49, i32 %48, 1
  resume { i8*, i32 } %50

; <label>:51:                                     ; preds = %13, %4
  %52 = alloca %"class.std::__debug::vector"*, align 8
  %53 = alloca i64, align 8
  %54 = alloca i32*, align 8
  %55 = alloca %"class.std::allocator"*, align 8
  %56 = alloca i8*
  %57 = alloca i32
  store %"class.std::__debug::vector"* %0, %"class.std::__debug::vector"** %52, align 8
  store i64 %1, i64* %53, align 8
  store i32* %2, i32** %54, align 8
  store %"class.std::allocator"* %3, %"class.std::allocator"** %55, align 8
  %58 = load %"class.std::__debug::vector"*, %"class.std::__debug::vector"** %52, align 8
  %59 = bitcast %"class.std::__debug::vector"* %58 to %"class.__gnu_debug::_Safe_container"*
  call void @_ZN11__gnu_debug15_Safe_containerINSt7__debug6vectorIiSaIiEEES3_NS_14_Safe_sequenceELb1EEC2Ev(%"class.__gnu_debug::_Safe_container"* %59) #3
  %60 = bitcast %"class.std::__debug::vector"* %58 to i8*
  %61 = getelementptr inbounds i8, i8* %60, i64 24
  %62 = bitcast i8* %61 to %"class.std::__cxx1998::vector"*
  %63 = load i64, i64* %53, align 8
  %64 = load i32*, i32** %54, align 8
  %65 = load %"class.std::allocator"*, %"class.std::allocator"** %55, align 8
  br label %13
}

; Function Attrs: noinline nounwind uwtable
define linkonce_odr zeroext i1 @_ZNKSt5queueIiNSt7__debug5dequeIiSaIiEEEE5emptyEv(%"class.std::queue"*) #5 comdat align 2 {
  %2 = alloca %"class.std::queue"*, align 8
  store %"class.std::queue"* %0, %"class.std::queue"** %2, align 8
  %3 = load %"class.std::queue"*, %"class.std::queue"** %2, align 8
  %4 = getelementptr inbounds %"class.std::queue", %"class.std::queue"* %3, i32 0, i32 0
  %5 = bitcast %"class.std::__debug::deque"* %4 to i8*
  %6 = getelementptr inbounds i8, i8* %5, i64 24
  %7 = bitcast i8* %6 to %"class.std::__cxx1998::deque"*
  %8 = call zeroext i1 @_ZNKSt9__cxx19985dequeIiSaIiEE5emptyEv(%"class.std::__cxx1998::deque"* %7) #3
  ret i1 %8
}

; Function Attrs: noinline uwtable
define linkonce_odr dereferenceable(4) i32* @_ZNSt5queueIiNSt7__debug5dequeIiSaIiEEEE5frontEv(%"class.std::queue"*) #0 comdat align 2 {
  %2 = alloca %"class.std::queue"*, align 8
  %3 = alloca %"class.__gnu_debug::_Error_formatter", align 8
  store %"class.std::queue"* %0, %"class.std::queue"** %2, align 8
  %4 = load %"class.std::queue"*, %"class.std::queue"** %2, align 8
  br label %5

; <label>:5:                                      ; preds = %1
  %6 = call zeroext i1 @_ZNKSt5queueIiNSt7__debug5dequeIiSaIiEEEE5emptyEv(%"class.std::queue"* %4)
  br i1 %6, label %7, label %10

; <label>:7:                                      ; preds = %5
  call void @_ZN11__gnu_debug16_Error_formatter5_M_atEPKcm(%"class.__gnu_debug::_Error_formatter"* sret %3, i8* getelementptr inbounds ([83 x i8], [83 x i8]* @.str.15, i32 0, i32 0), i64 168)
  %8 = call dereferenceable(560) %"class.__gnu_debug::_Error_formatter"* @_ZNK11__gnu_debug16_Error_formatter10_M_messageENS_13_Debug_msg_idE(%"class.__gnu_debug::_Error_formatter"* %3, i32 6) #3
  %9 = call dereferenceable(560) %"class.__gnu_debug::_Error_formatter"* @_ZNK11__gnu_debug16_Error_formatter11_M_sequenceISt5queueIiNSt7__debug5dequeIiSaIiEEEEEERKS0_RKT_PKc(%"class.__gnu_debug::_Error_formatter"* %8, %"class.std::queue"* dereferenceable(104) %4, i8* getelementptr inbounds ([5 x i8], [5 x i8]* @.str.1, i32 0, i32 0))
  call void @_ZNK11__gnu_debug16_Error_formatter8_M_errorEv(%"class.__gnu_debug::_Error_formatter"* %9) #14
  unreachable

; <label>:10:                                     ; preds = %5
  %11 = load i32, i32* @x.67
  %12 = load i32, i32* @y.68
  %13 = sub i32 %11, 1
  %14 = mul i32 %11, %13
  %15 = urem i32 %14, 2
  %16 = icmp eq i32 %15, 0
  %17 = icmp slt i32 %12, 10
  %18 = or i1 %16, %17
  br i1 %18, label %19, label %32

; <label>:19:                                     ; preds = %10, %32
  %20 = load i32, i32* @x.67
  %21 = load i32, i32* @y.68
  %22 = sub i32 %20, 1
  %23 = mul i32 %20, %22
  %24 = urem i32 %23, 2
  %25 = icmp eq i32 %24, 0
  %26 = icmp slt i32 %21, 10
  %27 = or i1 %25, %26
  br i1 %27, label %28, label %32

; <label>:28:                                     ; preds = %19
  br label %29

; <label>:29:                                     ; preds = %28
  %30 = getelementptr inbounds %"class.std::queue", %"class.std::queue"* %4, i32 0, i32 0
  %31 = call dereferenceable(4) i32* @_ZNSt7__debug5dequeIiSaIiEE5frontEv(%"class.std::__debug::deque"* %30) #3
  ret i32* %31

; <label>:32:                                     ; preds = %19, %10
  br label %19
}

; Function Attrs: noinline uwtable
define linkonce_odr void @_ZNSt5queueIiNSt7__debug5dequeIiSaIiEEEE3popEv(%"class.std::queue"*) #0 comdat align 2 {
  %2 = load i32, i32* @x.69
  %3 = load i32, i32* @y.70
  %4 = sub i32 %2, 1
  %5 = mul i32 %2, %4
  %6 = urem i32 %5, 2
  %7 = icmp eq i32 %6, 0
  %8 = icmp slt i32 %3, 10
  %9 = or i1 %7, %8
  br i1 %9, label %10, label %31

; <label>:10:                                     ; preds = %1, %31
  %11 = alloca %"class.std::queue"*, align 8
  %12 = alloca %"class.__gnu_debug::_Error_formatter", align 8
  store %"class.std::queue"* %0, %"class.std::queue"** %11, align 8
  %13 = load %"class.std::queue"*, %"class.std::queue"** %11, align 8
  %14 = load i32, i32* @x.69
  %15 = load i32, i32* @y.70
  %16 = sub i32 %14, 1
  %17 = mul i32 %14, %16
  %18 = urem i32 %17, 2
  %19 = icmp eq i32 %18, 0
  %20 = icmp slt i32 %15, 10
  %21 = or i1 %19, %20
  br i1 %21, label %22, label %31

; <label>:22:                                     ; preds = %10
  br label %23

; <label>:23:                                     ; preds = %22
  %24 = call zeroext i1 @_ZNKSt5queueIiNSt7__debug5dequeIiSaIiEEEE5emptyEv(%"class.std::queue"* %13)
  br i1 %24, label %25, label %28

; <label>:25:                                     ; preds = %23
  call void @_ZN11__gnu_debug16_Error_formatter5_M_atEPKcm(%"class.__gnu_debug::_Error_formatter"* sret %12, i8* getelementptr inbounds ([83 x i8], [83 x i8]* @.str.15, i32 0, i32 0), i64 243)
  %26 = call dereferenceable(560) %"class.__gnu_debug::_Error_formatter"* @_ZNK11__gnu_debug16_Error_formatter10_M_messageENS_13_Debug_msg_idE(%"class.__gnu_debug::_Error_formatter"* %12, i32 6) #3
  %27 = call dereferenceable(560) %"class.__gnu_debug::_Error_formatter"* @_ZNK11__gnu_debug16_Error_formatter11_M_sequenceISt5queueIiNSt7__debug5dequeIiSaIiEEEEEERKS0_RKT_PKc(%"class.__gnu_debug::_Error_formatter"* %26, %"class.std::queue"* dereferenceable(104) %13, i8* getelementptr inbounds ([5 x i8], [5 x i8]* @.str.1, i32 0, i32 0))
  call void @_ZNK11__gnu_debug16_Error_formatter8_M_errorEv(%"class.__gnu_debug::_Error_formatter"* %27) #14
  unreachable

; <label>:28:                                     ; preds = %23
  br label %29

; <label>:29:                                     ; preds = %28
  %30 = getelementptr inbounds %"class.std::queue", %"class.std::queue"* %13, i32 0, i32 0
  call void @_ZNSt7__debug5dequeIiSaIiEE9pop_frontEv(%"class.std::__debug::deque"* %30) #3
  ret void

; <label>:31:                                     ; preds = %10, %1
  %32 = alloca %"class.std::queue"*, align 8
  %33 = alloca %"class.__gnu_debug::_Error_formatter", align 8
  store %"class.std::queue"* %0, %"class.std::queue"** %32, align 8
  %34 = load %"class.std::queue"*, %"class.std::queue"** %32, align 8
  br label %10
}

; Function Attrs: noinline nounwind uwtable
define linkonce_odr void @_ZNSt7__debug6vectorISt4pairIiiESaIS2_EE5beginEv(%"class.__gnu_debug::_Safe_iterator.37"* noalias sret, %"class.std::__debug::vector.10"*) #5 comdat align 2 {
  %3 = load i32, i32* @x.71
  %4 = load i32, i32* @y.72
  %5 = sub i32 %3, 1
  %6 = mul i32 %3, %5
  %7 = urem i32 %6, 2
  %8 = icmp eq i32 %7, 0
  %9 = icmp slt i32 %4, 10
  %10 = or i1 %8, %9
  br i1 %10, label %11, label %30

; <label>:11:                                     ; preds = %2, %30
  %12 = alloca %"class.std::__debug::vector.10"*, align 8
  %13 = alloca %"class.__gnu_cxx::__normal_iterator.38", align 8
  store %"class.std::__debug::vector.10"* %1, %"class.std::__debug::vector.10"** %12, align 8
  %14 = load %"class.std::__debug::vector.10"*, %"class.std::__debug::vector.10"** %12, align 8
  %15 = bitcast %"class.std::__debug::vector.10"* %14 to i8*
  %16 = getelementptr inbounds i8, i8* %15, i64 24
  %17 = bitcast i8* %16 to %"class.std::__cxx1998::vector.15"*
  %18 = call %"struct.std::pair"* @_ZNSt9__cxx19986vectorISt4pairIiiESaIS2_EE5beginEv(%"class.std::__cxx1998::vector.15"* %17) #3
  %19 = getelementptr inbounds %"class.__gnu_cxx::__normal_iterator.38", %"class.__gnu_cxx::__normal_iterator.38"* %13, i32 0, i32 0
  store %"struct.std::pair"* %18, %"struct.std::pair"** %19, align 8
  %20 = bitcast %"class.std::__debug::vector.10"* %14 to %"class.__gnu_debug::_Safe_sequence_base"*
  call void @_ZN11__gnu_debug14_Safe_iteratorIN9__gnu_cxx17__normal_iteratorIPSt4pairIiiENSt9__cxx19986vectorIS4_SaIS4_EEEEENSt7__debug6vectorIS4_S8_EEEC2ERKSA_PKNS_19_Safe_sequence_baseE(%"class.__gnu_debug::_Safe_iterator.37"* %0, %"class.__gnu_cxx::__normal_iterator.38"* dereferenceable(8) %13, %"class.__gnu_debug::_Safe_sequence_base"* %20) #3
  %21 = load i32, i32* @x.71
  %22 = load i32, i32* @y.72
  %23 = sub i32 %21, 1
  %24 = mul i32 %21, %23
  %25 = urem i32 %24, 2
  %26 = icmp eq i32 %25, 0
  %27 = icmp slt i32 %22, 10
  %28 = or i1 %26, %27
  br i1 %28, label %29, label %30

; <label>:29:                                     ; preds = %11
  ret void

; <label>:30:                                     ; preds = %11, %2
  %31 = alloca %"class.std::__debug::vector.10"*, align 8
  %32 = alloca %"class.__gnu_cxx::__normal_iterator.38", align 8
  store %"class.std::__debug::vector.10"* %1, %"class.std::__debug::vector.10"** %31, align 8
  %33 = load %"class.std::__debug::vector.10"*, %"class.std::__debug::vector.10"** %31, align 8
  %34 = bitcast %"class.std::__debug::vector.10"* %33 to i8*
  %35 = getelementptr inbounds i8, i8* %34, i64 24
  %36 = bitcast i8* %35 to %"class.std::__cxx1998::vector.15"*
  %37 = call %"struct.std::pair"* @_ZNSt9__cxx19986vectorISt4pairIiiESaIS2_EE5beginEv(%"class.std::__cxx1998::vector.15"* %36) #3
  %38 = getelementptr inbounds %"class.__gnu_cxx::__normal_iterator.38", %"class.__gnu_cxx::__normal_iterator.38"* %32, i32 0, i32 0
  store %"struct.std::pair"* %37, %"struct.std::pair"** %38, align 8
  %39 = bitcast %"class.std::__debug::vector.10"* %33 to %"class.__gnu_debug::_Safe_sequence_base"*
  call void @_ZN11__gnu_debug14_Safe_iteratorIN9__gnu_cxx17__normal_iteratorIPSt4pairIiiENSt9__cxx19986vectorIS4_SaIS4_EEEEENSt7__debug6vectorIS4_S8_EEEC2ERKSA_PKNS_19_Safe_sequence_baseE(%"class.__gnu_debug::_Safe_iterator.37"* %0, %"class.__gnu_cxx::__normal_iterator.38"* dereferenceable(8) %32, %"class.__gnu_debug::_Safe_sequence_base"* %39) #3
  br label %11
}

; Function Attrs: noinline nounwind uwtable
define linkonce_odr void @_ZNSt7__debug6vectorISt4pairIiiESaIS2_EE3endEv(%"class.__gnu_debug::_Safe_iterator.37"* noalias sret, %"class.std::__debug::vector.10"*) #5 comdat align 2 {
  %3 = alloca %"class.std::__debug::vector.10"*, align 8
  %4 = alloca %"class.__gnu_cxx::__normal_iterator.38", align 8
  store %"class.std::__debug::vector.10"* %1, %"class.std::__debug::vector.10"** %3, align 8
  %5 = load %"class.std::__debug::vector.10"*, %"class.std::__debug::vector.10"** %3, align 8
  %6 = bitcast %"class.std::__debug::vector.10"* %5 to i8*
  %7 = getelementptr inbounds i8, i8* %6, i64 24
  %8 = bitcast i8* %7 to %"class.std::__cxx1998::vector.15"*
  %9 = call %"struct.std::pair"* @_ZNSt9__cxx19986vectorISt4pairIiiESaIS2_EE3endEv(%"class.std::__cxx1998::vector.15"* %8) #3
  %10 = getelementptr inbounds %"class.__gnu_cxx::__normal_iterator.38", %"class.__gnu_cxx::__normal_iterator.38"* %4, i32 0, i32 0
  store %"struct.std::pair"* %9, %"struct.std::pair"** %10, align 8
  %11 = bitcast %"class.std::__debug::vector.10"* %5 to %"class.__gnu_debug::_Safe_sequence_base"*
  call void @_ZN11__gnu_debug14_Safe_iteratorIN9__gnu_cxx17__normal_iteratorIPSt4pairIiiENSt9__cxx19986vectorIS4_SaIS4_EEEEENSt7__debug6vectorIS4_S8_EEEC2ERKSA_PKNS_19_Safe_sequence_baseE(%"class.__gnu_debug::_Safe_iterator.37"* %0, %"class.__gnu_cxx::__normal_iterator.38"* dereferenceable(8) %4, %"class.__gnu_debug::_Safe_sequence_base"* %11) #3
  ret void
}

; Function Attrs: noinline nounwind uwtable
define linkonce_odr zeroext i1 @_ZN11__gnu_debugneIN9__gnu_cxx17__normal_iteratorIPSt4pairIiiENSt9__cxx19986vectorIS4_SaIS4_EEEEENSt7__debug6vectorIS4_S8_EEEEbRKNS_14_Safe_iteratorIT_T0_EESJ_(%"class.__gnu_debug::_Safe_iterator.37"* dereferenceable(40), %"class.__gnu_debug::_Safe_iterator.37"* dereferenceable(40)) #5 comdat personality i8* bitcast (i32 (...)* @__gxx_personality_v0 to i8*) {
  %3 = alloca %"class.__gnu_debug::_Safe_iterator.37"*, align 8
  %4 = alloca %"class.__gnu_debug::_Safe_iterator.37"*, align 8
  %5 = alloca %"class.__gnu_debug::_Error_formatter", align 8
  %6 = alloca %"class.__gnu_debug::_Error_formatter", align 8
  store %"class.__gnu_debug::_Safe_iterator.37"* %0, %"class.__gnu_debug::_Safe_iterator.37"** %3, align 8
  store %"class.__gnu_debug::_Safe_iterator.37"* %1, %"class.__gnu_debug::_Safe_iterator.37"** %4, align 8
  br label %7

; <label>:7:                                      ; preds = %2
  %8 = load i32, i32* @x.75
  %9 = load i32, i32* @y.76
  %10 = sub i32 %8, 1
  %11 = mul i32 %8, %10
  %12 = urem i32 %11, 2
  %13 = icmp eq i32 %12, 0
  %14 = icmp slt i32 %9, 10
  %15 = or i1 %13, %14
  br i1 %15, label %16, label %225

; <label>:16:                                     ; preds = %7, %225
  %17 = load %"class.__gnu_debug::_Safe_iterator.37"*, %"class.__gnu_debug::_Safe_iterator.37"** %3, align 8
  %18 = bitcast %"class.__gnu_debug::_Safe_iterator.37"* %17 to i8*
  %19 = getelementptr inbounds i8, i8* %18, i64 8
  %20 = bitcast i8* %19 to %"class.__gnu_debug::_Safe_iterator_base"*
  %21 = call zeroext i1 @_ZNK11__gnu_debug19_Safe_iterator_base11_M_singularEv(%"class.__gnu_debug::_Safe_iterator_base"* %20) #15
  %22 = load i32, i32* @x.75
  %23 = load i32, i32* @y.76
  %24 = sub i32 %22, 1
  %25 = mul i32 %22, %24
  %26 = urem i32 %25, 2
  %27 = icmp eq i32 %26, 0
  %28 = icmp slt i32 %23, 10
  %29 = or i1 %27, %28
  br i1 %29, label %30, label %225

; <label>:30:                                     ; preds = %16
  br i1 %21, label %37, label %31

; <label>:31:                                     ; preds = %30
  %32 = load %"class.__gnu_debug::_Safe_iterator.37"*, %"class.__gnu_debug::_Safe_iterator.37"** %4, align 8
  %33 = bitcast %"class.__gnu_debug::_Safe_iterator.37"* %32 to i8*
  %34 = getelementptr inbounds i8, i8* %33, i64 8
  %35 = bitcast i8* %34 to %"class.__gnu_debug::_Safe_iterator_base"*
  %36 = call zeroext i1 @_ZNK11__gnu_debug19_Safe_iterator_base11_M_singularEv(%"class.__gnu_debug::_Safe_iterator_base"* %35) #15
  br i1 %36, label %37, label %83

; <label>:37:                                     ; preds = %31, %30
  invoke void @_ZN11__gnu_debug16_Error_formatter5_M_atEPKcm(%"class.__gnu_debug::_Error_formatter"* sret %5, i8* getelementptr inbounds ([88 x i8], [88 x i8]* @.str.4, i32 0, i32 0), i64 584)
          to label %38 unwind label %204

; <label>:38:                                     ; preds = %37
  %39 = load i32, i32* @x.75
  %40 = load i32, i32* @y.76
  %41 = sub i32 %39, 1
  %42 = mul i32 %39, %41
  %43 = urem i32 %42, 2
  %44 = icmp eq i32 %43, 0
  %45 = icmp slt i32 %40, 10
  %46 = or i1 %44, %45
  br i1 %46, label %47, label %231

; <label>:47:                                     ; preds = %38, %231
  %48 = call dereferenceable(560) %"class.__gnu_debug::_Error_formatter"* @_ZNK11__gnu_debug16_Error_formatter10_M_messageENS_13_Debug_msg_idE(%"class.__gnu_debug::_Error_formatter"* %5, i32 31) #3
  %49 = load %"class.__gnu_debug::_Safe_iterator.37"*, %"class.__gnu_debug::_Safe_iterator.37"** %3, align 8
  %50 = load i32, i32* @x.75
  %51 = load i32, i32* @y.76
  %52 = sub i32 %50, 1
  %53 = mul i32 %50, %52
  %54 = urem i32 %53, 2
  %55 = icmp eq i32 %54, 0
  %56 = icmp slt i32 %51, 10
  %57 = or i1 %55, %56
  br i1 %57, label %58, label %231

; <label>:58:                                     ; preds = %47
  %59 = invoke dereferenceable(560) %"class.__gnu_debug::_Error_formatter"* @_ZNK11__gnu_debug16_Error_formatter11_M_iteratorINS_14_Safe_iteratorIN9__gnu_cxx17__normal_iteratorIPSt4pairIiiENSt9__cxx19986vectorIS6_SaIS6_EEEEENSt7__debug6vectorIS6_SA_EEEEEERKS0_RKT_PKc(%"class.__gnu_debug::_Error_formatter"* %48, %"class.__gnu_debug::_Safe_iterator.37"* dereferenceable(40) %49, i8* getelementptr inbounds ([4 x i8], [4 x i8]* @.str.8, i32 0, i32 0))
          to label %60 unwind label %204

; <label>:60:                                     ; preds = %58
  %61 = load %"class.__gnu_debug::_Safe_iterator.37"*, %"class.__gnu_debug::_Safe_iterator.37"** %4, align 8
  %62 = invoke dereferenceable(560) %"class.__gnu_debug::_Error_formatter"* @_ZNK11__gnu_debug16_Error_formatter11_M_iteratorINS_14_Safe_iteratorIN9__gnu_cxx17__normal_iteratorIPSt4pairIiiENSt9__cxx19986vectorIS6_SaIS6_EEEEENSt7__debug6vectorIS6_SA_EEEEEERKS0_RKT_PKc(%"class.__gnu_debug::_Error_formatter"* %59, %"class.__gnu_debug::_Safe_iterator.37"* dereferenceable(40) %61, i8* getelementptr inbounds ([4 x i8], [4 x i8]* @.str.9, i32 0, i32 0))
          to label %63 unwind label %204

; <label>:63:                                     ; preds = %60
  %64 = load i32, i32* @x.75
  %65 = load i32, i32* @y.76
  %66 = sub i32 %64, 1
  %67 = mul i32 %64, %66
  %68 = urem i32 %67, 2
  %69 = icmp eq i32 %68, 0
  %70 = icmp slt i32 %65, 10
  %71 = or i1 %69, %70
  br i1 %71, label %72, label %234

; <label>:72:                                     ; preds = %63, %234
  %73 = load i32, i32* @x.75
  %74 = load i32, i32* @y.76
  %75 = sub i32 %73, 1
  %76 = mul i32 %73, %75
  %77 = urem i32 %76, 2
  %78 = icmp eq i32 %77, 0
  %79 = icmp slt i32 %74, 10
  %80 = or i1 %78, %79
  br i1 %80, label %81, label %234

; <label>:81:                                     ; preds = %72
  invoke void @_ZNK11__gnu_debug16_Error_formatter8_M_errorEv(%"class.__gnu_debug::_Error_formatter"* %62) #14
          to label %82 unwind label %204

; <label>:82:                                     ; preds = %81
  unreachable

; <label>:83:                                     ; preds = %31
  br label %84

; <label>:84:                                     ; preds = %83
  %85 = load i32, i32* @x.75
  %86 = load i32, i32* @y.76
  %87 = sub i32 %85, 1
  %88 = mul i32 %85, %87
  %89 = urem i32 %88, 2
  %90 = icmp eq i32 %89, 0
  %91 = icmp slt i32 %86, 10
  %92 = or i1 %90, %91
  br i1 %92, label %93, label %235

; <label>:93:                                     ; preds = %84, %235
  %94 = load i32, i32* @x.75
  %95 = load i32, i32* @y.76
  %96 = sub i32 %94, 1
  %97 = mul i32 %94, %96
  %98 = urem i32 %97, 2
  %99 = icmp eq i32 %98, 0
  %100 = icmp slt i32 %95, 10
  %101 = or i1 %99, %100
  br i1 %101, label %102, label %235

; <label>:102:                                    ; preds = %93
  br label %103

; <label>:103:                                    ; preds = %102
  br label %104

; <label>:104:                                    ; preds = %103
  %105 = load %"class.__gnu_debug::_Safe_iterator.37"*, %"class.__gnu_debug::_Safe_iterator.37"** %3, align 8
  %106 = bitcast %"class.__gnu_debug::_Safe_iterator.37"* %105 to i8*
  %107 = getelementptr inbounds i8, i8* %106, i64 8
  %108 = bitcast i8* %107 to %"class.__gnu_debug::_Safe_iterator_base"*
  %109 = load %"class.__gnu_debug::_Safe_iterator.37"*, %"class.__gnu_debug::_Safe_iterator.37"** %4, align 8
  %110 = bitcast %"class.__gnu_debug::_Safe_iterator.37"* %109 to i8*
  %111 = getelementptr inbounds i8, i8* %110, i64 8
  %112 = bitcast i8* %111 to %"class.__gnu_debug::_Safe_iterator_base"*
  %113 = call zeroext i1 @_ZNK11__gnu_debug19_Safe_iterator_base14_M_can_compareERKS0_(%"class.__gnu_debug::_Safe_iterator_base"* %108, %"class.__gnu_debug::_Safe_iterator_base"* dereferenceable(32) %112) #15
  br i1 %113, label %178, label %114

; <label>:114:                                    ; preds = %104
  %115 = load i32, i32* @x.75
  %116 = load i32, i32* @y.76
  %117 = sub i32 %115, 1
  %118 = mul i32 %115, %117
  %119 = urem i32 %118, 2
  %120 = icmp eq i32 %119, 0
  %121 = icmp slt i32 %116, 10
  %122 = or i1 %120, %121
  br i1 %122, label %123, label %236

; <label>:123:                                    ; preds = %114, %236
  %124 = load i32, i32* @x.75
  %125 = load i32, i32* @y.76
  %126 = sub i32 %124, 1
  %127 = mul i32 %124, %126
  %128 = urem i32 %127, 2
  %129 = icmp eq i32 %128, 0
  %130 = icmp slt i32 %125, 10
  %131 = or i1 %129, %130
  br i1 %131, label %132, label %236

; <label>:132:                                    ; preds = %123
  invoke void @_ZN11__gnu_debug16_Error_formatter5_M_atEPKcm(%"class.__gnu_debug::_Error_formatter"* sret %6, i8* getelementptr inbounds ([88 x i8], [88 x i8]* @.str.4, i32 0, i32 0), i64 588)
          to label %133 unwind label %204

; <label>:133:                                    ; preds = %132
  %134 = call dereferenceable(560) %"class.__gnu_debug::_Error_formatter"* @_ZNK11__gnu_debug16_Error_formatter10_M_messageENS_13_Debug_msg_idE(%"class.__gnu_debug::_Error_formatter"* %6, i32 32) #3
  %135 = load %"class.__gnu_debug::_Safe_iterator.37"*, %"class.__gnu_debug::_Safe_iterator.37"** %3, align 8
  %136 = invoke dereferenceable(560) %"class.__gnu_debug::_Error_formatter"* @_ZNK11__gnu_debug16_Error_formatter11_M_iteratorINS_14_Safe_iteratorIN9__gnu_cxx17__normal_iteratorIPSt4pairIiiENSt9__cxx19986vectorIS6_SaIS6_EEEEENSt7__debug6vectorIS6_SA_EEEEEERKS0_RKT_PKc(%"class.__gnu_debug::_Error_formatter"* %134, %"class.__gnu_debug::_Safe_iterator.37"* dereferenceable(40) %135, i8* getelementptr inbounds ([4 x i8], [4 x i8]* @.str.8, i32 0, i32 0))
          to label %137 unwind label %204

; <label>:137:                                    ; preds = %133
  %138 = load i32, i32* @x.75
  %139 = load i32, i32* @y.76
  %140 = sub i32 %138, 1
  %141 = mul i32 %138, %140
  %142 = urem i32 %141, 2
  %143 = icmp eq i32 %142, 0
  %144 = icmp slt i32 %139, 10
  %145 = or i1 %143, %144
  br i1 %145, label %146, label %237

; <label>:146:                                    ; preds = %137, %237
  %147 = load %"class.__gnu_debug::_Safe_iterator.37"*, %"class.__gnu_debug::_Safe_iterator.37"** %4, align 8
  %148 = load i32, i32* @x.75
  %149 = load i32, i32* @y.76
  %150 = sub i32 %148, 1
  %151 = mul i32 %148, %150
  %152 = urem i32 %151, 2
  %153 = icmp eq i32 %152, 0
  %154 = icmp slt i32 %149, 10
  %155 = or i1 %153, %154
  br i1 %155, label %156, label %237

; <label>:156:                                    ; preds = %146
  %157 = invoke dereferenceable(560) %"class.__gnu_debug::_Error_formatter"* @_ZNK11__gnu_debug16_Error_formatter11_M_iteratorINS_14_Safe_iteratorIN9__gnu_cxx17__normal_iteratorIPSt4pairIiiENSt9__cxx19986vectorIS6_SaIS6_EEEEENSt7__debug6vectorIS6_SA_EEEEEERKS0_RKT_PKc(%"class.__gnu_debug::_Error_formatter"* %136, %"class.__gnu_debug::_Safe_iterator.37"* dereferenceable(40) %147, i8* getelementptr inbounds ([4 x i8], [4 x i8]* @.str.9, i32 0, i32 0))
          to label %158 unwind label %204

; <label>:158:                                    ; preds = %156
  %159 = load i32, i32* @x.75
  %160 = load i32, i32* @y.76
  %161 = sub i32 %159, 1
  %162 = mul i32 %159, %161
  %163 = urem i32 %162, 2
  %164 = icmp eq i32 %163, 0
  %165 = icmp slt i32 %160, 10
  %166 = or i1 %164, %165
  br i1 %166, label %167, label %239

; <label>:167:                                    ; preds = %158, %239
  %168 = load i32, i32* @x.75
  %169 = load i32, i32* @y.76
  %170 = sub i32 %168, 1
  %171 = mul i32 %168, %170
  %172 = urem i32 %171, 2
  %173 = icmp eq i32 %172, 0
  %174 = icmp slt i32 %169, 10
  %175 = or i1 %173, %174
  br i1 %175, label %176, label %239

; <label>:176:                                    ; preds = %167
  invoke void @_ZNK11__gnu_debug16_Error_formatter8_M_errorEv(%"class.__gnu_debug::_Error_formatter"* %157) #14
          to label %177 unwind label %204

; <label>:177:                                    ; preds = %176
  unreachable

; <label>:178:                                    ; preds = %104
  %179 = load i32, i32* @x.75
  %180 = load i32, i32* @y.76
  %181 = sub i32 %179, 1
  %182 = mul i32 %179, %181
  %183 = urem i32 %182, 2
  %184 = icmp eq i32 %183, 0
  %185 = icmp slt i32 %180, 10
  %186 = or i1 %184, %185
  br i1 %186, label %187, label %240

; <label>:187:                                    ; preds = %178, %240
  %188 = load i32, i32* @x.75
  %189 = load i32, i32* @y.76
  %190 = sub i32 %188, 1
  %191 = mul i32 %188, %190
  %192 = urem i32 %191, 2
  %193 = icmp eq i32 %192, 0
  %194 = icmp slt i32 %189, 10
  %195 = or i1 %193, %194
  br i1 %195, label %196, label %240

; <label>:196:                                    ; preds = %187
  br label %197

; <label>:197:                                    ; preds = %196
  br label %198

; <label>:198:                                    ; preds = %197
  %199 = load %"class.__gnu_debug::_Safe_iterator.37"*, %"class.__gnu_debug::_Safe_iterator.37"** %3, align 8
  %200 = call dereferenceable(8) %"class.__gnu_cxx::__normal_iterator.38"* @_ZNK11__gnu_debug14_Safe_iteratorIN9__gnu_cxx17__normal_iteratorIPSt4pairIiiENSt9__cxx19986vectorIS4_SaIS4_EEEEENSt7__debug6vectorIS4_S8_EEE4baseEv(%"class.__gnu_debug::_Safe_iterator.37"* %199) #3
  %201 = load %"class.__gnu_debug::_Safe_iterator.37"*, %"class.__gnu_debug::_Safe_iterator.37"** %4, align 8
  %202 = call dereferenceable(8) %"class.__gnu_cxx::__normal_iterator.38"* @_ZNK11__gnu_debug14_Safe_iteratorIN9__gnu_cxx17__normal_iteratorIPSt4pairIiiENSt9__cxx19986vectorIS4_SaIS4_EEEEENSt7__debug6vectorIS4_S8_EEE4baseEv(%"class.__gnu_debug::_Safe_iterator.37"* %201) #3
  %203 = call zeroext i1 @_ZN9__gnu_cxxneIPSt4pairIiiENSt9__cxx19986vectorIS2_SaIS2_EEEEEbRKNS_17__normal_iteratorIT_T0_EESD_(%"class.__gnu_cxx::__normal_iterator.38"* dereferenceable(8) %200, %"class.__gnu_cxx::__normal_iterator.38"* dereferenceable(8) %202) #3
  ret i1 %203

; <label>:204:                                    ; preds = %176, %156, %133, %132, %81, %60, %58, %37
  %205 = load i32, i32* @x.75
  %206 = load i32, i32* @y.76
  %207 = sub i32 %205, 1
  %208 = mul i32 %205, %207
  %209 = urem i32 %208, 2
  %210 = icmp eq i32 %209, 0
  %211 = icmp slt i32 %206, 10
  %212 = or i1 %210, %211
  br i1 %212, label %213, label %241

; <label>:213:                                    ; preds = %204, %241
  %214 = landingpad { i8*, i32 }
          catch i8* null
  %215 = extractvalue { i8*, i32 } %214, 0
  call void @__clang_call_terminate(i8* %215) #13
  %216 = load i32, i32* @x.75
  %217 = load i32, i32* @y.76
  %218 = sub i32 %216, 1
  %219 = mul i32 %216, %218
  %220 = urem i32 %219, 2
  %221 = icmp eq i32 %220, 0
  %222 = icmp slt i32 %217, 10
  %223 = or i1 %221, %222
  br i1 %223, label %224, label %241

; <label>:224:                                    ; preds = %213
  unreachable

; <label>:225:                                    ; preds = %16, %7
  %226 = load %"class.__gnu_debug::_Safe_iterator.37"*, %"class.__gnu_debug::_Safe_iterator.37"** %3, align 8
  %227 = bitcast %"class.__gnu_debug::_Safe_iterator.37"* %226 to i8*
  %228 = getelementptr inbounds i8, i8* %227, i64 8
  %229 = bitcast i8* %228 to %"class.__gnu_debug::_Safe_iterator_base"*
  %230 = call zeroext i1 @_ZNK11__gnu_debug19_Safe_iterator_base11_M_singularEv(%"class.__gnu_debug::_Safe_iterator_base"* %229) #15
  br label %16

; <label>:231:                                    ; preds = %47, %38
  %232 = call dereferenceable(560) %"class.__gnu_debug::_Error_formatter"* @_ZNK11__gnu_debug16_Error_formatter10_M_messageENS_13_Debug_msg_idE(%"class.__gnu_debug::_Error_formatter"* %5, i32 31) #3
  %233 = load %"class.__gnu_debug::_Safe_iterator.37"*, %"class.__gnu_debug::_Safe_iterator.37"** %3, align 8
  br label %47

; <label>:234:                                    ; preds = %72, %63
  br label %72

; <label>:235:                                    ; preds = %93, %84
  br label %93

; <label>:236:                                    ; preds = %123, %114
  br label %123

; <label>:237:                                    ; preds = %146, %137
  %238 = load %"class.__gnu_debug::_Safe_iterator.37"*, %"class.__gnu_debug::_Safe_iterator.37"** %4, align 8
  br label %146

; <label>:239:                                    ; preds = %167, %158
  br label %167

; <label>:240:                                    ; preds = %187, %178
  br label %187

; <label>:241:                                    ; preds = %213, %204
  %242 = landingpad { i8*, i32 }
          catch i8* null
  %243 = extractvalue { i8*, i32 } %242, 0
  call void @__clang_call_terminate(i8* %243) #13
  br label %213
}

; Function Attrs: noinline nounwind uwtable
define linkonce_odr dereferenceable(8) %"struct.std::pair"* @_ZNK11__gnu_debug14_Safe_iteratorIN9__gnu_cxx17__normal_iteratorIPSt4pairIiiENSt9__cxx19986vectorIS4_SaIS4_EEEEENSt7__debug6vectorIS4_S8_EEEdeEv(%"class.__gnu_debug::_Safe_iterator.37"*) #5 comdat align 2 personality i8* bitcast (i32 (...)* @__gxx_personality_v0 to i8*) {
  %2 = alloca %"class.__gnu_debug::_Safe_iterator.37"*, align 8
  %3 = alloca %"class.__gnu_debug::_Error_formatter", align 8
  store %"class.__gnu_debug::_Safe_iterator.37"* %0, %"class.__gnu_debug::_Safe_iterator.37"** %2, align 8
  %4 = load %"class.__gnu_debug::_Safe_iterator.37"*, %"class.__gnu_debug::_Safe_iterator.37"** %2, align 8
  br label %5

; <label>:5:                                      ; preds = %1
  %6 = invoke zeroext i1 @_ZNK11__gnu_debug14_Safe_iteratorIN9__gnu_cxx17__normal_iteratorIPSt4pairIiiENSt9__cxx19986vectorIS4_SaIS4_EEEEENSt7__debug6vectorIS4_S8_EEE18_M_dereferenceableEv(%"class.__gnu_debug::_Safe_iterator.37"* %4)
          to label %7 unwind label %37

; <label>:7:                                      ; preds = %5
  br i1 %6, label %14, label %8

; <label>:8:                                      ; preds = %7
  invoke void @_ZN11__gnu_debug16_Error_formatter5_M_atEPKcm(%"class.__gnu_debug::_Error_formatter"* sret %3, i8* getelementptr inbounds ([88 x i8], [88 x i8]* @.str.4, i32 0, i32 0), i64 303)
          to label %9 unwind label %37

; <label>:9:                                      ; preds = %8
  %10 = call dereferenceable(560) %"class.__gnu_debug::_Error_formatter"* @_ZNK11__gnu_debug16_Error_formatter10_M_messageENS_13_Debug_msg_idE(%"class.__gnu_debug::_Error_formatter"* %3, i32 25) #3
  %11 = invoke dereferenceable(560) %"class.__gnu_debug::_Error_formatter"* @_ZNK11__gnu_debug16_Error_formatter11_M_iteratorINS_14_Safe_iteratorIN9__gnu_cxx17__normal_iteratorIPSt4pairIiiENSt9__cxx19986vectorIS6_SaIS6_EEEEENSt7__debug6vectorIS6_SA_EEEEEERKS0_RKT_PKc(%"class.__gnu_debug::_Error_formatter"* %10, %"class.__gnu_debug::_Safe_iterator.37"* dereferenceable(40) %4, i8* getelementptr inbounds ([5 x i8], [5 x i8]* @.str.1, i32 0, i32 0))
          to label %12 unwind label %37

; <label>:12:                                     ; preds = %9
  invoke void @_ZNK11__gnu_debug16_Error_formatter8_M_errorEv(%"class.__gnu_debug::_Error_formatter"* %11) #14
          to label %13 unwind label %37

; <label>:13:                                     ; preds = %12
  unreachable

; <label>:14:                                     ; preds = %7
  br label %15

; <label>:15:                                     ; preds = %14
  %16 = load i32, i32* @x.77
  %17 = load i32, i32* @y.78
  %18 = sub i32 %16, 1
  %19 = mul i32 %16, %18
  %20 = urem i32 %19, 2
  %21 = icmp eq i32 %20, 0
  %22 = icmp slt i32 %17, 10
  %23 = or i1 %21, %22
  br i1 %23, label %24, label %40

; <label>:24:                                     ; preds = %15, %40
  %25 = load i32, i32* @x.77
  %26 = load i32, i32* @y.78
  %27 = sub i32 %25, 1
  %28 = mul i32 %25, %27
  %29 = urem i32 %28, 2
  %30 = icmp eq i32 %29, 0
  %31 = icmp slt i32 %26, 10
  %32 = or i1 %30, %31
  br i1 %32, label %33, label %40

; <label>:33:                                     ; preds = %24
  br label %34

; <label>:34:                                     ; preds = %33
  %35 = call dereferenceable(8) %"class.__gnu_cxx::__normal_iterator.38"* @_ZNK11__gnu_debug14_Safe_iteratorIN9__gnu_cxx17__normal_iteratorIPSt4pairIiiENSt9__cxx19986vectorIS4_SaIS4_EEEEENSt7__debug6vectorIS4_S8_EEE4baseEv(%"class.__gnu_debug::_Safe_iterator.37"* %4) #3
  %36 = call dereferenceable(8) %"struct.std::pair"* @_ZNK9__gnu_cxx17__normal_iteratorIPSt4pairIiiENSt9__cxx19986vectorIS2_SaIS2_EEEEdeEv(%"class.__gnu_cxx::__normal_iterator.38"* %35) #3
  ret %"struct.std::pair"* %36

; <label>:37:                                     ; preds = %12, %9, %8, %5
  %38 = landingpad { i8*, i32 }
          catch i8* null
  %39 = extractvalue { i8*, i32 } %38, 0
  call void @__clang_call_terminate(i8* %39) #13
  unreachable

; <label>:40:                                     ; preds = %24, %15
  br label %24
}

; Function Attrs: argmemonly nounwind
declare void @llvm.memcpy.p0i8.p0i8.i64(i8* nocapture writeonly, i8* nocapture readonly, i64, i32, i1) #6

; Function Attrs: noinline nounwind uwtable
define linkonce_odr dereferenceable(40) %"class.__gnu_debug::_Safe_iterator.37"* @_ZN11__gnu_debug14_Safe_iteratorIN9__gnu_cxx17__normal_iteratorIPSt4pairIiiENSt9__cxx19986vectorIS4_SaIS4_EEEEENSt7__debug6vectorIS4_S8_EEEppEv(%"class.__gnu_debug::_Safe_iterator.37"*) #5 comdat align 2 personality i8* bitcast (i32 (...)* @__gxx_personality_v0 to i8*) {
  %2 = load i32, i32* @x.79
  %3 = load i32, i32* @y.80
  %4 = sub i32 %2, 1
  %5 = mul i32 %2, %4
  %6 = urem i32 %5, 2
  %7 = icmp eq i32 %6, 0
  %8 = icmp slt i32 %3, 10
  %9 = or i1 %7, %8
  br i1 %9, label %10, label %136

; <label>:10:                                     ; preds = %1, %136
  %11 = alloca %"class.__gnu_debug::_Safe_iterator.37"*, align 8
  %12 = alloca %"class.__gnu_debug::_Error_formatter", align 8
  %13 = alloca %"class.__gnu_cxx::__scoped_lock", align 8
  store %"class.__gnu_debug::_Safe_iterator.37"* %0, %"class.__gnu_debug::_Safe_iterator.37"** %11, align 8
  %14 = load %"class.__gnu_debug::_Safe_iterator.37"*, %"class.__gnu_debug::_Safe_iterator.37"** %11, align 8
  %15 = load i32, i32* @x.79
  %16 = load i32, i32* @y.80
  %17 = sub i32 %15, 1
  %18 = mul i32 %15, %17
  %19 = urem i32 %18, 2
  %20 = icmp eq i32 %19, 0
  %21 = icmp slt i32 %16, 10
  %22 = or i1 %20, %21
  br i1 %22, label %23, label %136

; <label>:23:                                     ; preds = %10
  br label %24

; <label>:24:                                     ; preds = %23
  %25 = invoke zeroext i1 @_ZNK11__gnu_debug14_Safe_iteratorIN9__gnu_cxx17__normal_iteratorIPSt4pairIiiENSt9__cxx19986vectorIS4_SaIS4_EEEEENSt7__debug6vectorIS4_S8_EEE16_M_incrementableEv(%"class.__gnu_debug::_Safe_iterator.37"* %14)
          to label %26 unwind label %133

; <label>:26:                                     ; preds = %24
  %27 = load i32, i32* @x.79
  %28 = load i32, i32* @y.80
  %29 = sub i32 %27, 1
  %30 = mul i32 %27, %29
  %31 = urem i32 %30, 2
  %32 = icmp eq i32 %31, 0
  %33 = icmp slt i32 %28, 10
  %34 = or i1 %32, %33
  br i1 %34, label %35, label %141

; <label>:35:                                     ; preds = %26, %141
  %36 = load i32, i32* @x.79
  %37 = load i32, i32* @y.80
  %38 = sub i32 %36, 1
  %39 = mul i32 %36, %38
  %40 = urem i32 %39, 2
  %41 = icmp eq i32 %40, 0
  %42 = icmp slt i32 %37, 10
  %43 = or i1 %41, %42
  br i1 %43, label %44, label %141

; <label>:44:                                     ; preds = %35
  br i1 %25, label %69, label %45

; <label>:45:                                     ; preds = %44
  invoke void @_ZN11__gnu_debug16_Error_formatter5_M_atEPKcm(%"class.__gnu_debug::_Error_formatter"* sret %12, i8* getelementptr inbounds ([88 x i8], [88 x i8]* @.str.4, i32 0, i32 0), i64 331)
          to label %46 unwind label %133

; <label>:46:                                     ; preds = %45
  %47 = call dereferenceable(560) %"class.__gnu_debug::_Error_formatter"* @_ZNK11__gnu_debug16_Error_formatter10_M_messageENS_13_Debug_msg_idE(%"class.__gnu_debug::_Error_formatter"* %12, i32 26) #3
  %48 = invoke dereferenceable(560) %"class.__gnu_debug::_Error_formatter"* @_ZNK11__gnu_debug16_Error_formatter11_M_iteratorINS_14_Safe_iteratorIN9__gnu_cxx17__normal_iteratorIPSt4pairIiiENSt9__cxx19986vectorIS6_SaIS6_EEEEENSt7__debug6vectorIS6_SA_EEEEEERKS0_RKT_PKc(%"class.__gnu_debug::_Error_formatter"* %47, %"class.__gnu_debug::_Safe_iterator.37"* dereferenceable(40) %14, i8* getelementptr inbounds ([5 x i8], [5 x i8]* @.str.1, i32 0, i32 0))
          to label %49 unwind label %133

; <label>:49:                                     ; preds = %46
  invoke void @_ZNK11__gnu_debug16_Error_formatter8_M_errorEv(%"class.__gnu_debug::_Error_formatter"* %48) #14
          to label %50 unwind label %133

; <label>:50:                                     ; preds = %49
  %51 = load i32, i32* @x.79
  %52 = load i32, i32* @y.80
  %53 = sub i32 %51, 1
  %54 = mul i32 %51, %53
  %55 = urem i32 %54, 2
  %56 = icmp eq i32 %55, 0
  %57 = icmp slt i32 %52, 10
  %58 = or i1 %56, %57
  br i1 %58, label %59, label %142

; <label>:59:                                     ; preds = %50, %142
  %60 = load i32, i32* @x.79
  %61 = load i32, i32* @y.80
  %62 = sub i32 %60, 1
  %63 = mul i32 %60, %62
  %64 = urem i32 %63, 2
  %65 = icmp eq i32 %64, 0
  %66 = icmp slt i32 %61, 10
  %67 = or i1 %65, %66
  br i1 %67, label %68, label %142

; <label>:68:                                     ; preds = %59
  unreachable

; <label>:69:                                     ; preds = %44
  %70 = load i32, i32* @x.79
  %71 = load i32, i32* @y.80
  %72 = sub i32 %70, 1
  %73 = mul i32 %70, %72
  %74 = urem i32 %73, 2
  %75 = icmp eq i32 %74, 0
  %76 = icmp slt i32 %71, 10
  %77 = or i1 %75, %76
  br i1 %77, label %78, label %143

; <label>:78:                                     ; preds = %69, %143
  %79 = load i32, i32* @x.79
  %80 = load i32, i32* @y.80
  %81 = sub i32 %79, 1
  %82 = mul i32 %79, %81
  %83 = urem i32 %82, 2
  %84 = icmp eq i32 %83, 0
  %85 = icmp slt i32 %80, 10
  %86 = or i1 %84, %85
  br i1 %86, label %87, label %143

; <label>:87:                                     ; preds = %78
  br label %88

; <label>:88:                                     ; preds = %87
  %89 = load i32, i32* @x.79
  %90 = load i32, i32* @y.80
  %91 = sub i32 %89, 1
  %92 = mul i32 %89, %91
  %93 = urem i32 %92, 2
  %94 = icmp eq i32 %93, 0
  %95 = icmp slt i32 %90, 10
  %96 = or i1 %94, %95
  br i1 %96, label %97, label %144

; <label>:97:                                     ; preds = %88, %144
  %98 = load i32, i32* @x.79
  %99 = load i32, i32* @y.80
  %100 = sub i32 %98, 1
  %101 = mul i32 %98, %100
  %102 = urem i32 %101, 2
  %103 = icmp eq i32 %102, 0
  %104 = icmp slt i32 %99, 10
  %105 = or i1 %103, %104
  br i1 %105, label %106, label %144

; <label>:106:                                    ; preds = %97
  br label %107

; <label>:107:                                    ; preds = %106
  %108 = bitcast %"class.__gnu_debug::_Safe_iterator.37"* %14 to i8*
  %109 = getelementptr inbounds i8, i8* %108, i64 8
  %110 = bitcast i8* %109 to %"class.__gnu_debug::_Safe_iterator_base"*
  %111 = call dereferenceable(40) %"class.__gnu_cxx::__mutex"* @_ZN11__gnu_debug19_Safe_iterator_base12_M_get_mutexEv(%"class.__gnu_debug::_Safe_iterator_base"* %110) #3
  invoke void @_ZN9__gnu_cxx13__scoped_lockC2ERNS_7__mutexE(%"class.__gnu_cxx::__scoped_lock"* %13, %"class.__gnu_cxx::__mutex"* dereferenceable(40) %111)
          to label %112 unwind label %133

; <label>:112:                                    ; preds = %107
  %113 = load i32, i32* @x.79
  %114 = load i32, i32* @y.80
  %115 = sub i32 %113, 1
  %116 = mul i32 %113, %115
  %117 = urem i32 %116, 2
  %118 = icmp eq i32 %117, 0
  %119 = icmp slt i32 %114, 10
  %120 = or i1 %118, %119
  br i1 %120, label %121, label %145

; <label>:121:                                    ; preds = %112, %145
  call void @_ZN9__gnu_cxx13__scoped_lockD2Ev(%"class.__gnu_cxx::__scoped_lock"* %13) #3
  %122 = call dereferenceable(8) %"class.__gnu_cxx::__normal_iterator.38"* @_ZN11__gnu_debug14_Safe_iteratorIN9__gnu_cxx17__normal_iteratorIPSt4pairIiiENSt9__cxx19986vectorIS4_SaIS4_EEEEENSt7__debug6vectorIS4_S8_EEE4baseEv(%"class.__gnu_debug::_Safe_iterator.37"* %14) #3
  %123 = call dereferenceable(8) %"class.__gnu_cxx::__normal_iterator.38"* @_ZN9__gnu_cxx17__normal_iteratorIPSt4pairIiiENSt9__cxx19986vectorIS2_SaIS2_EEEEppEv(%"class.__gnu_cxx::__normal_iterator.38"* %122) #3
  %124 = load i32, i32* @x.79
  %125 = load i32, i32* @y.80
  %126 = sub i32 %124, 1
  %127 = mul i32 %124, %126
  %128 = urem i32 %127, 2
  %129 = icmp eq i32 %128, 0
  %130 = icmp slt i32 %125, 10
  %131 = or i1 %129, %130
  br i1 %131, label %132, label %145

; <label>:132:                                    ; preds = %121
  ret %"class.__gnu_debug::_Safe_iterator.37"* %14

; <label>:133:                                    ; preds = %107, %49, %46, %45, %24
  %134 = landingpad { i8*, i32 }
          catch i8* null
  %135 = extractvalue { i8*, i32 } %134, 0
  call void @__clang_call_terminate(i8* %135) #13
  unreachable

; <label>:136:                                    ; preds = %10, %1
  %137 = alloca %"class.__gnu_debug::_Safe_iterator.37"*, align 8
  %138 = alloca %"class.__gnu_debug::_Error_formatter", align 8
  %139 = alloca %"class.__gnu_cxx::__scoped_lock", align 8
  store %"class.__gnu_debug::_Safe_iterator.37"* %0, %"class.__gnu_debug::_Safe_iterator.37"** %137, align 8
  %140 = load %"class.__gnu_debug::_Safe_iterator.37"*, %"class.__gnu_debug::_Safe_iterator.37"** %137, align 8
  br label %10

; <label>:141:                                    ; preds = %35, %26
  br label %35

; <label>:142:                                    ; preds = %59, %50
  br label %59

; <label>:143:                                    ; preds = %78, %69
  br label %78

; <label>:144:                                    ; preds = %97, %88
  br label %97

; <label>:145:                                    ; preds = %121, %112
  call void @_ZN9__gnu_cxx13__scoped_lockD2Ev(%"class.__gnu_cxx::__scoped_lock"* %13) #3
  %146 = call dereferenceable(8) %"class.__gnu_cxx::__normal_iterator.38"* @_ZN11__gnu_debug14_Safe_iteratorIN9__gnu_cxx17__normal_iteratorIPSt4pairIiiENSt9__cxx19986vectorIS4_SaIS4_EEEEENSt7__debug6vectorIS4_S8_EEE4baseEv(%"class.__gnu_debug::_Safe_iterator.37"* %14) #3
  %147 = call dereferenceable(8) %"class.__gnu_cxx::__normal_iterator.38"* @_ZN9__gnu_cxx17__normal_iteratorIPSt4pairIiiENSt9__cxx19986vectorIS2_SaIS2_EEEEppEv(%"class.__gnu_cxx::__normal_iterator.38"* %146) #3
  br label %121
}

; Function Attrs: noinline nounwind uwtable
define linkonce_odr void @_ZN11__gnu_debug14_Safe_iteratorIN9__gnu_cxx17__normal_iteratorIPSt4pairIiiENSt9__cxx19986vectorIS4_SaIS4_EEEEENSt7__debug6vectorIS4_S8_EEED2Ev(%"class.__gnu_debug::_Safe_iterator.37"*) unnamed_addr #5 comdat align 2 {
  %2 = alloca %"class.__gnu_debug::_Safe_iterator.37"*, align 8
  store %"class.__gnu_debug::_Safe_iterator.37"* %0, %"class.__gnu_debug::_Safe_iterator.37"** %2, align 8
  %3 = load %"class.__gnu_debug::_Safe_iterator.37"*, %"class.__gnu_debug::_Safe_iterator.37"** %2, align 8
  %4 = bitcast %"class.__gnu_debug::_Safe_iterator.37"* %3 to i8*
  %5 = getelementptr inbounds i8, i8* %4, i64 8
  %6 = bitcast i8* %5 to %"class.__gnu_debug::_Safe_iterator_base"*
  call void @_ZN11__gnu_debug19_Safe_iterator_baseD2Ev(%"class.__gnu_debug::_Safe_iterator_base"* %6) #3
  ret void
}

; Function Attrs: noinline nounwind uwtable
define linkonce_odr dereferenceable(56) %"class.std::__debug::vector"* @_ZNSt7__debug6vectorINS0_IiSaIiEEESaIS2_EEixEm(%"class.std::__debug::vector.22"*, i64) #5 comdat align 2 personality i8* bitcast (i32 (...)* @__gxx_personality_v0 to i8*) {
  %3 = load i32, i32* @x.83
  %4 = load i32, i32* @y.84
  %5 = sub i32 %3, 1
  %6 = mul i32 %3, %5
  %7 = urem i32 %6, 2
  %8 = icmp eq i32 %7, 0
  %9 = icmp slt i32 %4, 10
  %10 = or i1 %8, %9
  br i1 %10, label %11, label %110

; <label>:11:                                     ; preds = %2, %110
  %12 = alloca %"class.std::__debug::vector.22"*, align 8
  %13 = alloca i64, align 8
  %14 = alloca %"class.__gnu_debug::_Error_formatter", align 8
  store %"class.std::__debug::vector.22"* %0, %"class.std::__debug::vector.22"** %12, align 8
  store i64 %1, i64* %13, align 8
  %15 = load %"class.std::__debug::vector.22"*, %"class.std::__debug::vector.22"** %12, align 8
  %16 = load i32, i32* @x.83
  %17 = load i32, i32* @y.84
  %18 = sub i32 %16, 1
  %19 = mul i32 %16, %18
  %20 = urem i32 %19, 2
  %21 = icmp eq i32 %20, 0
  %22 = icmp slt i32 %17, 10
  %23 = or i1 %21, %22
  br i1 %23, label %24, label %110

; <label>:24:                                     ; preds = %11
  br label %25

; <label>:25:                                     ; preds = %24
  %26 = load i32, i32* @x.83
  %27 = load i32, i32* @y.84
  %28 = sub i32 %26, 1
  %29 = mul i32 %26, %28
  %30 = urem i32 %29, 2
  %31 = icmp eq i32 %30, 0
  %32 = icmp slt i32 %27, 10
  %33 = or i1 %31, %32
  br i1 %33, label %34, label %115

; <label>:34:                                     ; preds = %25, %115
  %35 = load i64, i64* %13, align 8
  %36 = bitcast %"class.std::__debug::vector.22"* %15 to i8*
  %37 = getelementptr inbounds i8, i8* %36, i64 24
  %38 = bitcast i8* %37 to %"class.std::__cxx1998::vector.27"*
  %39 = call i64 @_ZNKSt9__cxx19986vectorINSt7__debug6vectorIiSaIiEEESaIS4_EE4sizeEv(%"class.std::__cxx1998::vector.27"* %38) #3
  %40 = icmp ult i64 %35, %39
  %41 = load i32, i32* @x.83
  %42 = load i32, i32* @y.84
  %43 = sub i32 %41, 1
  %44 = mul i32 %41, %43
  %45 = urem i32 %44, 2
  %46 = icmp eq i32 %45, 0
  %47 = icmp slt i32 %42, 10
  %48 = or i1 %46, %47
  br i1 %48, label %49, label %115

; <label>:49:                                     ; preds = %34
  br i1 %40, label %101, label %50

; <label>:50:                                     ; preds = %49
  %51 = load i32, i32* @x.83
  %52 = load i32, i32* @y.84
  %53 = sub i32 %51, 1
  %54 = mul i32 %51, %53
  %55 = urem i32 %54, 2
  %56 = icmp eq i32 %55, 0
  %57 = icmp slt i32 %52, 10
  %58 = or i1 %56, %57
  br i1 %58, label %59, label %122

; <label>:59:                                     ; preds = %50, %122
  %60 = load i32, i32* @x.83
  %61 = load i32, i32* @y.84
  %62 = sub i32 %60, 1
  %63 = mul i32 %60, %62
  %64 = urem i32 %63, 2
  %65 = icmp eq i32 %64, 0
  %66 = icmp slt i32 %61, 10
  %67 = or i1 %65, %66
  br i1 %67, label %68, label %122

; <label>:68:                                     ; preds = %59
  invoke void @_ZN11__gnu_debug16_Error_formatter5_M_atEPKcm(%"class.__gnu_debug::_Error_formatter"* sret %14, i8* getelementptr inbounds ([79 x i8], [79 x i8]* @.str, i32 0, i32 0), i64 409)
          to label %69 unwind label %107

; <label>:69:                                     ; preds = %68
  %70 = call dereferenceable(560) %"class.__gnu_debug::_Error_formatter"* @_ZNK11__gnu_debug16_Error_formatter10_M_messageENS_13_Debug_msg_idE(%"class.__gnu_debug::_Error_formatter"* %14, i32 5) #3
  %71 = invoke dereferenceable(560) %"class.__gnu_debug::_Error_formatter"* @_ZNK11__gnu_debug16_Error_formatter11_M_sequenceINSt7__debug6vectorINS3_IiSaIiEEESaIS5_EEEEERKS0_RKT_PKc(%"class.__gnu_debug::_Error_formatter"* %70, %"class.std::__debug::vector.22"* dereferenceable(56) %15, i8* getelementptr inbounds ([5 x i8], [5 x i8]* @.str.1, i32 0, i32 0))
          to label %72 unwind label %107

; <label>:72:                                     ; preds = %69
  %73 = load i64, i64* %13, align 8
  %74 = invoke dereferenceable(560) %"class.__gnu_debug::_Error_formatter"* @_ZNK11__gnu_debug16_Error_formatter10_M_integerElPKc(%"class.__gnu_debug::_Error_formatter"* %71, i64 %73, i8* getelementptr inbounds ([4 x i8], [4 x i8]* @.str.2, i32 0, i32 0))
          to label %75 unwind label %107

; <label>:75:                                     ; preds = %72
  %76 = bitcast %"class.std::__debug::vector.22"* %15 to i8*
  %77 = getelementptr inbounds i8, i8* %76, i64 24
  %78 = bitcast i8* %77 to %"class.std::__cxx1998::vector.27"*
  %79 = call i64 @_ZNKSt9__cxx19986vectorINSt7__debug6vectorIiSaIiEEESaIS4_EE4sizeEv(%"class.std::__cxx1998::vector.27"* %78) #3
  %80 = invoke dereferenceable(560) %"class.__gnu_debug::_Error_formatter"* @_ZNK11__gnu_debug16_Error_formatter10_M_integerElPKc(%"class.__gnu_debug::_Error_formatter"* %74, i64 %79, i8* getelementptr inbounds ([5 x i8], [5 x i8]* @.str.3, i32 0, i32 0))
          to label %81 unwind label %107

; <label>:81:                                     ; preds = %75
  invoke void @_ZNK11__gnu_debug16_Error_formatter8_M_errorEv(%"class.__gnu_debug::_Error_formatter"* %80) #14
          to label %82 unwind label %107

; <label>:82:                                     ; preds = %81
  %83 = load i32, i32* @x.83
  %84 = load i32, i32* @y.84
  %85 = sub i32 %83, 1
  %86 = mul i32 %83, %85
  %87 = urem i32 %86, 2
  %88 = icmp eq i32 %87, 0
  %89 = icmp slt i32 %84, 10
  %90 = or i1 %88, %89
  br i1 %90, label %91, label %123

; <label>:91:                                     ; preds = %82, %123
  %92 = load i32, i32* @x.83
  %93 = load i32, i32* @y.84
  %94 = sub i32 %92, 1
  %95 = mul i32 %92, %94
  %96 = urem i32 %95, 2
  %97 = icmp eq i32 %96, 0
  %98 = icmp slt i32 %93, 10
  %99 = or i1 %97, %98
  br i1 %99, label %100, label %123

; <label>:100:                                    ; preds = %91
  unreachable

; <label>:101:                                    ; preds = %49
  br label %102

; <label>:102:                                    ; preds = %101
  br label %103

; <label>:103:                                    ; preds = %102
  %104 = call dereferenceable(24) %"class.std::__cxx1998::vector.27"* @_ZNSt7__debug6vectorINS0_IiSaIiEEESaIS2_EE7_M_baseEv(%"class.std::__debug::vector.22"* %15) #3
  %105 = load i64, i64* %13, align 8
  %106 = call dereferenceable(56) %"class.std::__debug::vector"* @_ZNSt9__cxx19986vectorINSt7__debug6vectorIiSaIiEEESaIS4_EEixEm(%"class.std::__cxx1998::vector.27"* %104, i64 %105) #3
  ret %"class.std::__debug::vector"* %106

; <label>:107:                                    ; preds = %81, %75, %72, %69, %68
  %108 = landingpad { i8*, i32 }
          catch i8* null
  %109 = extractvalue { i8*, i32 } %108, 0
  call void @__clang_call_terminate(i8* %109) #13
  unreachable

; <label>:110:                                    ; preds = %11, %2
  %111 = alloca %"class.std::__debug::vector.22"*, align 8
  %112 = alloca i64, align 8
  %113 = alloca %"class.__gnu_debug::_Error_formatter", align 8
  store %"class.std::__debug::vector.22"* %0, %"class.std::__debug::vector.22"** %111, align 8
  store i64 %1, i64* %112, align 8
  %114 = load %"class.std::__debug::vector.22"*, %"class.std::__debug::vector.22"** %111, align 8
  br label %11

; <label>:115:                                    ; preds = %34, %25
  %116 = load i64, i64* %13, align 8
  %117 = bitcast %"class.std::__debug::vector.22"* %15 to i8*
  %118 = getelementptr inbounds i8, i8* %117, i64 24
  %119 = bitcast i8* %118 to %"class.std::__cxx1998::vector.27"*
  %120 = call i64 @_ZNKSt9__cxx19986vectorINSt7__debug6vectorIiSaIiEEESaIS4_EE4sizeEv(%"class.std::__cxx1998::vector.27"* %119) #3
  %121 = icmp ult i64 %116, %120
  br label %34

; <label>:122:                                    ; preds = %59, %50
  br label %59

; <label>:123:                                    ; preds = %91, %82
  br label %91
}

; Function Attrs: noinline nounwind uwtable
define linkonce_odr void @_ZNSt5queueIiNSt7__debug5dequeIiSaIiEEEED2Ev(%"class.std::queue"*) unnamed_addr #5 comdat align 2 {
  %2 = load i32, i32* @x.85
  %3 = load i32, i32* @y.86
  %4 = sub i32 %2, 1
  %5 = mul i32 %2, %4
  %6 = urem i32 %5, 2
  %7 = icmp eq i32 %6, 0
  %8 = icmp slt i32 %3, 10
  %9 = or i1 %7, %8
  br i1 %9, label %10, label %23

; <label>:10:                                     ; preds = %1, %23
  %11 = alloca %"class.std::queue"*, align 8
  store %"class.std::queue"* %0, %"class.std::queue"** %11, align 8
  %12 = load %"class.std::queue"*, %"class.std::queue"** %11, align 8
  %13 = getelementptr inbounds %"class.std::queue", %"class.std::queue"* %12, i32 0, i32 0
  call void @_ZNSt7__debug5dequeIiSaIiEED2Ev(%"class.std::__debug::deque"* %13) #3
  %14 = load i32, i32* @x.85
  %15 = load i32, i32* @y.86
  %16 = sub i32 %14, 1
  %17 = mul i32 %14, %16
  %18 = urem i32 %17, 2
  %19 = icmp eq i32 %18, 0
  %20 = icmp slt i32 %15, 10
  %21 = or i1 %19, %20
  br i1 %21, label %22, label %23

; <label>:22:                                     ; preds = %10
  ret void

; <label>:23:                                     ; preds = %10, %1
  %24 = alloca %"class.std::queue"*, align 8
  store %"class.std::queue"* %0, %"class.std::queue"** %24, align 8
  %25 = load %"class.std::queue"*, %"class.std::queue"** %24, align 8
  %26 = getelementptr inbounds %"class.std::queue", %"class.std::queue"* %25, i32 0, i32 0
  call void @_ZNSt7__debug5dequeIiSaIiEED2Ev(%"class.std::__debug::deque"* %26) #3
  br label %10
}

; Function Attrs: noinline nounwind uwtable
define linkonce_odr dereferenceable(4) i32* @_ZSt3minIiERKT_S2_S2_(i32* dereferenceable(4), i32* dereferenceable(4)) #5 comdat {
  %3 = alloca i32*, align 8
  %4 = alloca i32*, align 8
  %5 = alloca i32*, align 8
  store i32* %0, i32** %4, align 8
  store i32* %1, i32** %5, align 8
  %6 = load i32*, i32** %5, align 8
  %7 = load i32, i32* %6, align 4
  %8 = load i32*, i32** %4, align 8
  %9 = load i32, i32* %8, align 4
  %10 = icmp slt i32 %7, %9
  br i1 %10, label %11, label %13

; <label>:11:                                     ; preds = %2
  %12 = load i32*, i32** %5, align 8
  store i32* %12, i32** %3, align 8
  br label %33

; <label>:13:                                     ; preds = %2
  %14 = load i32, i32* @x.87
  %15 = load i32, i32* @y.88
  %16 = sub i32 %14, 1
  %17 = mul i32 %14, %16
  %18 = urem i32 %17, 2
  %19 = icmp eq i32 %18, 0
  %20 = icmp slt i32 %15, 10
  %21 = or i1 %19, %20
  br i1 %21, label %22, label %35

; <label>:22:                                     ; preds = %13, %35
  %23 = load i32*, i32** %4, align 8
  store i32* %23, i32** %3, align 8
  %24 = load i32, i32* @x.87
  %25 = load i32, i32* @y.88
  %26 = sub i32 %24, 1
  %27 = mul i32 %24, %26
  %28 = urem i32 %27, 2
  %29 = icmp eq i32 %28, 0
  %30 = icmp slt i32 %25, 10
  %31 = or i1 %29, %30
  br i1 %31, label %32, label %35

; <label>:32:                                     ; preds = %22
  br label %33

; <label>:33:                                     ; preds = %32, %11
  %34 = load i32*, i32** %3, align 8
  ret i32* %34

; <label>:35:                                     ; preds = %22, %13
  %36 = load i32*, i32** %4, align 8
  store i32* %36, i32** %3, align 8
  br label %22
}

; Function Attrs: noinline uwtable
define linkonce_odr zeroext i1 @_ZSt16next_permutationIN11__gnu_debug14_Safe_iteratorIN9__gnu_cxx17__normal_iteratorIPiNSt9__cxx19986vectorIiSaIiEEEEENSt7__debug6vectorIiS7_EEEEEbT_SE_(%"class.__gnu_debug::_Safe_iterator"*, %"class.__gnu_debug::_Safe_iterator"*) #0 comdat personality i8* bitcast (i32 (...)* @__gxx_personality_v0 to i8*) {
  %3 = load i32, i32* @x.89
  %4 = load i32, i32* @y.90
  %5 = sub i32 %3, 1
  %6 = mul i32 %3, %5
  %7 = urem i32 %6, 2
  %8 = icmp eq i32 %7, 0
  %9 = icmp slt i32 %4, 10
  %10 = or i1 %8, %9
  br i1 %10, label %11, label %84

; <label>:11:                                     ; preds = %2, %84
  %12 = alloca %"class.__gnu_debug::_Error_formatter", align 8
  %13 = alloca %"class.__gnu_debug::_Safe_iterator", align 8
  %14 = alloca %"class.__gnu_debug::_Safe_iterator", align 8
  %15 = alloca %"struct.__gnu_cxx::__ops::_Iter_less_iter", align 1
  %16 = alloca i8*
  %17 = alloca i32
  %18 = alloca %"struct.__gnu_cxx::__ops::_Iter_less_iter", align 1
  %19 = load i32, i32* @x.89
  %20 = load i32, i32* @y.90
  %21 = sub i32 %19, 1
  %22 = mul i32 %19, %21
  %23 = urem i32 %22, 2
  %24 = icmp eq i32 %23, 0
  %25 = icmp slt i32 %20, 10
  %26 = or i1 %24, %25
  br i1 %26, label %27, label %84

; <label>:27:                                     ; preds = %11
  br label %28

; <label>:28:                                     ; preds = %27
  %29 = call zeroext i1 @_ZN11__gnu_debug13__valid_rangeIN9__gnu_cxx17__normal_iteratorIPiNSt9__cxx19986vectorIiSaIiEEEEENSt7__debug6vectorIiS6_EEEEbRKNS_14_Safe_iteratorIT_T0_EESH_(%"class.__gnu_debug::_Safe_iterator"* dereferenceable(40) %0, %"class.__gnu_debug::_Safe_iterator"* dereferenceable(40) %1)
  br i1 %29, label %52, label %30

; <label>:30:                                     ; preds = %28
  %31 = load i32, i32* @x.89
  %32 = load i32, i32* @y.90
  %33 = sub i32 %31, 1
  %34 = mul i32 %31, %33
  %35 = urem i32 %34, 2
  %36 = icmp eq i32 %35, 0
  %37 = icmp slt i32 %32, 10
  %38 = or i1 %36, %37
  br i1 %38, label %39, label %92

; <label>:39:                                     ; preds = %30, %92
  call void @_ZN11__gnu_debug16_Error_formatter5_M_atEPKcm(%"class.__gnu_debug::_Error_formatter"* sret %12, i8* getelementptr inbounds ([82 x i8], [82 x i8]* @.str.5, i32 0, i32 0), i64 2965)
  %40 = call dereferenceable(560) %"class.__gnu_debug::_Error_formatter"* @_ZNK11__gnu_debug16_Error_formatter10_M_messageENS_13_Debug_msg_idE(%"class.__gnu_debug::_Error_formatter"* %12, i32 0) #3
  %41 = call dereferenceable(560) %"class.__gnu_debug::_Error_formatter"* @_ZNK11__gnu_debug16_Error_formatter11_M_iteratorINS_14_Safe_iteratorIN9__gnu_cxx17__normal_iteratorIPiNSt9__cxx19986vectorIiSaIiEEEEENSt7__debug6vectorIiS8_EEEEEERKS0_RKT_PKc(%"class.__gnu_debug::_Error_formatter"* %40, %"class.__gnu_debug::_Safe_iterator"* dereferenceable(40) %0, i8* getelementptr inbounds ([8 x i8], [8 x i8]* @.str.6, i32 0, i32 0))
  %42 = call dereferenceable(560) %"class.__gnu_debug::_Error_formatter"* @_ZNK11__gnu_debug16_Error_formatter11_M_iteratorINS_14_Safe_iteratorIN9__gnu_cxx17__normal_iteratorIPiNSt9__cxx19986vectorIiSaIiEEEEENSt7__debug6vectorIiS8_EEEEEERKS0_RKT_PKc(%"class.__gnu_debug::_Error_formatter"* %41, %"class.__gnu_debug::_Safe_iterator"* dereferenceable(40) %1, i8* getelementptr inbounds ([7 x i8], [7 x i8]* @.str.7, i32 0, i32 0))
  call void @_ZNK11__gnu_debug16_Error_formatter8_M_errorEv(%"class.__gnu_debug::_Error_formatter"* %42) #14
  %43 = load i32, i32* @x.89
  %44 = load i32, i32* @y.90
  %45 = sub i32 %43, 1
  %46 = mul i32 %43, %45
  %47 = urem i32 %46, 2
  %48 = icmp eq i32 %47, 0
  %49 = icmp slt i32 %44, 10
  %50 = or i1 %48, %49
  br i1 %50, label %51, label %92

; <label>:51:                                     ; preds = %39
  unreachable

; <label>:52:                                     ; preds = %28
  br label %53

; <label>:53:                                     ; preds = %52
  call void @_ZN11__gnu_debug14_Safe_iteratorIN9__gnu_cxx17__normal_iteratorIPiNSt9__cxx19986vectorIiSaIiEEEEENSt7__debug6vectorIiS6_EEEC2ERKSC_(%"class.__gnu_debug::_Safe_iterator"* %13, %"class.__gnu_debug::_Safe_iterator"* dereferenceable(40) %0) #3
  call void @_ZN11__gnu_debug14_Safe_iteratorIN9__gnu_cxx17__normal_iteratorIPiNSt9__cxx19986vectorIiSaIiEEEEENSt7__debug6vectorIiS6_EEEC2ERKSC_(%"class.__gnu_debug::_Safe_iterator"* %14, %"class.__gnu_debug::_Safe_iterator"* dereferenceable(40) %1) #3
  invoke void @_ZN9__gnu_cxx5__ops16__iter_less_iterEv()
          to label %54 unwind label %75

; <label>:54:                                     ; preds = %53
  %55 = load i32, i32* @x.89
  %56 = load i32, i32* @y.90
  %57 = sub i32 %55, 1
  %58 = mul i32 %55, %57
  %59 = urem i32 %58, 2
  %60 = icmp eq i32 %59, 0
  %61 = icmp slt i32 %56, 10
  %62 = or i1 %60, %61
  br i1 %62, label %63, label %96

; <label>:63:                                     ; preds = %54, %96
  %64 = load i32, i32* @x.89
  %65 = load i32, i32* @y.90
  %66 = sub i32 %64, 1
  %67 = mul i32 %64, %66
  %68 = urem i32 %67, 2
  %69 = icmp eq i32 %68, 0
  %70 = icmp slt i32 %65, 10
  %71 = or i1 %69, %70
  br i1 %71, label %72, label %96

; <label>:72:                                     ; preds = %63
  %73 = invoke zeroext i1 @_ZSt18__next_permutationIN11__gnu_debug14_Safe_iteratorIN9__gnu_cxx17__normal_iteratorIPiNSt9__cxx19986vectorIiSaIiEEEEENSt7__debug6vectorIiS7_EEEENS2_5__ops15_Iter_less_iterEEbT_SG_T0_(%"class.__gnu_debug::_Safe_iterator"* %13, %"class.__gnu_debug::_Safe_iterator"* %14)
          to label %74 unwind label %75

; <label>:74:                                     ; preds = %72
  call void @_ZN11__gnu_debug14_Safe_iteratorIN9__gnu_cxx17__normal_iteratorIPiNSt9__cxx19986vectorIiSaIiEEEEENSt7__debug6vectorIiS6_EEED2Ev(%"class.__gnu_debug::_Safe_iterator"* %14) #3
  call void @_ZN11__gnu_debug14_Safe_iteratorIN9__gnu_cxx17__normal_iteratorIPiNSt9__cxx19986vectorIiSaIiEEEEENSt7__debug6vectorIiS6_EEED2Ev(%"class.__gnu_debug::_Safe_iterator"* %13) #3
  ret i1 %73

; <label>:75:                                     ; preds = %72, %53
  %76 = landingpad { i8*, i32 }
          cleanup
  %77 = extractvalue { i8*, i32 } %76, 0
  store i8* %77, i8** %16, align 8
  %78 = extractvalue { i8*, i32 } %76, 1
  store i32 %78, i32* %17, align 4
  call void @_ZN11__gnu_debug14_Safe_iteratorIN9__gnu_cxx17__normal_iteratorIPiNSt9__cxx19986vectorIiSaIiEEEEENSt7__debug6vectorIiS6_EEED2Ev(%"class.__gnu_debug::_Safe_iterator"* %14) #3
  call void @_ZN11__gnu_debug14_Safe_iteratorIN9__gnu_cxx17__normal_iteratorIPiNSt9__cxx19986vectorIiSaIiEEEEENSt7__debug6vectorIiS6_EEED2Ev(%"class.__gnu_debug::_Safe_iterator"* %13) #3
  br label %79

; <label>:79:                                     ; preds = %75
  %80 = load i8*, i8** %16, align 8
  %81 = load i32, i32* %17, align 4
  %82 = insertvalue { i8*, i32 } undef, i8* %80, 0
  %83 = insertvalue { i8*, i32 } %82, i32 %81, 1
  resume { i8*, i32 } %83

; <label>:84:                                     ; preds = %11, %2
  %85 = alloca %"class.__gnu_debug::_Error_formatter", align 8
  %86 = alloca %"class.__gnu_debug::_Safe_iterator", align 8
  %87 = alloca %"class.__gnu_debug::_Safe_iterator", align 8
  %88 = alloca %"struct.__gnu_cxx::__ops::_Iter_less_iter", align 1
  %89 = alloca i8*
  %90 = alloca i32
  %91 = alloca %"struct.__gnu_cxx::__ops::_Iter_less_iter", align 1
  br label %11

; <label>:92:                                     ; preds = %39, %30
  call void @_ZN11__gnu_debug16_Error_formatter5_M_atEPKcm(%"class.__gnu_debug::_Error_formatter"* sret %12, i8* getelementptr inbounds ([82 x i8], [82 x i8]* @.str.5, i32 0, i32 0), i64 2965)
  %93 = call dereferenceable(560) %"class.__gnu_debug::_Error_formatter"* @_ZNK11__gnu_debug16_Error_formatter10_M_messageENS_13_Debug_msg_idE(%"class.__gnu_debug::_Error_formatter"* %12, i32 0) #3
  %94 = call dereferenceable(560) %"class.__gnu_debug::_Error_formatter"* @_ZNK11__gnu_debug16_Error_formatter11_M_iteratorINS_14_Safe_iteratorIN9__gnu_cxx17__normal_iteratorIPiNSt9__cxx19986vectorIiSaIiEEEEENSt7__debug6vectorIiS8_EEEEEERKS0_RKT_PKc(%"class.__gnu_debug::_Error_formatter"* %93, %"class.__gnu_debug::_Safe_iterator"* dereferenceable(40) %0, i8* getelementptr inbounds ([8 x i8], [8 x i8]* @.str.6, i32 0, i32 0))
  %95 = call dereferenceable(560) %"class.__gnu_debug::_Error_formatter"* @_ZNK11__gnu_debug16_Error_formatter11_M_iteratorINS_14_Safe_iteratorIN9__gnu_cxx17__normal_iteratorIPiNSt9__cxx19986vectorIiSaIiEEEEENSt7__debug6vectorIiS8_EEEEEERKS0_RKT_PKc(%"class.__gnu_debug::_Error_formatter"* %94, %"class.__gnu_debug::_Safe_iterator"* dereferenceable(40) %1, i8* getelementptr inbounds ([7 x i8], [7 x i8]* @.str.7, i32 0, i32 0))
  call void @_ZNK11__gnu_debug16_Error_formatter8_M_errorEv(%"class.__gnu_debug::_Error_formatter"* %95) #14
  br label %39

; <label>:96:                                     ; preds = %63, %54
  br label %63
}

declare dereferenceable(272) %"class.std::basic_ostream"* @_ZNSolsEi(%"class.std::basic_ostream"*, i32) #1

declare dereferenceable(272) %"class.std::basic_ostream"* @_ZNSolsEPFRSoS_E(%"class.std::basic_ostream"*, %"class.std::basic_ostream"* (%"class.std::basic_ostream"*)*) #1

declare dereferenceable(272) %"class.std::basic_ostream"* @_ZSt4endlIcSt11char_traitsIcEERSt13basic_ostreamIT_T0_ES6_(%"class.std::basic_ostream"* dereferenceable(272)) #1

; Function Attrs: noinline nounwind uwtable
define linkonce_odr void @_ZNSt7__debug6vectorINS0_IiSaIiEEESaIS2_EED2Ev(%"class.std::__debug::vector.22"*) unnamed_addr #5 comdat align 2 {
  %2 = alloca %"class.std::__debug::vector.22"*, align 8
  store %"class.std::__debug::vector.22"* %0, %"class.std::__debug::vector.22"** %2, align 8
  %3 = load %"class.std::__debug::vector.22"*, %"class.std::__debug::vector.22"** %2, align 8
  %4 = bitcast %"class.std::__debug::vector.22"* %3 to i8*
  %5 = getelementptr inbounds i8, i8* %4, i64 24
  %6 = bitcast i8* %5 to %"class.std::__cxx1998::vector.27"*
  call void @_ZNSt9__cxx19986vectorINSt7__debug6vectorIiSaIiEEESaIS4_EED2Ev(%"class.std::__cxx1998::vector.27"* %6) #3
  %7 = bitcast %"class.std::__debug::vector.22"* %3 to %"class.__gnu_debug::_Safe_container.23"*
  call void @_ZN11__gnu_debug15_Safe_containerINSt7__debug6vectorINS2_IiSaIiEEESaIS4_EEES5_NS_14_Safe_sequenceELb1EED2Ev(%"class.__gnu_debug::_Safe_container.23"* %7) #3
  ret void
}

; Function Attrs: noinline nounwind uwtable
define linkonce_odr void @_ZNSt7__debug6vectorINS0_ISt4pairIiiESaIS2_EEESaIS4_EED2Ev(%"class.std::__debug::vector.0"*) unnamed_addr #5 comdat align 2 {
  %2 = alloca %"class.std::__debug::vector.0"*, align 8
  store %"class.std::__debug::vector.0"* %0, %"class.std::__debug::vector.0"** %2, align 8
  %3 = load %"class.std::__debug::vector.0"*, %"class.std::__debug::vector.0"** %2, align 8
  %4 = bitcast %"class.std::__debug::vector.0"* %3 to i8*
  %5 = getelementptr inbounds i8, i8* %4, i64 24
  %6 = bitcast i8* %5 to %"class.std::__cxx1998::vector.5"*
  call void @_ZNSt9__cxx19986vectorINSt7__debug6vectorISt4pairIiiESaIS4_EEESaIS6_EED2Ev(%"class.std::__cxx1998::vector.5"* %6) #3
  %7 = bitcast %"class.std::__debug::vector.0"* %3 to %"class.__gnu_debug::_Safe_container.1"*
  call void @_ZN11__gnu_debug15_Safe_containerINSt7__debug6vectorINS2_ISt4pairIiiESaIS4_EEESaIS6_EEES7_NS_14_Safe_sequenceELb1EED2Ev(%"class.__gnu_debug::_Safe_container.1"* %7) #3
  ret void
}

; Function Attrs: noinline nounwind uwtable
define linkonce_odr void @_ZN11__gnu_debug19_Safe_iterator_baseD2Ev(%"class.__gnu_debug::_Safe_iterator_base"*) unnamed_addr #5 comdat align 2 personality i8* bitcast (i32 (...)* @__gxx_personality_v0 to i8*) {
  %2 = load i32, i32* @x.95
  %3 = load i32, i32* @y.96
  %4 = sub i32 %2, 1
  %5 = mul i32 %2, %4
  %6 = urem i32 %5, 2
  %7 = icmp eq i32 %6, 0
  %8 = icmp slt i32 %3, 10
  %9 = or i1 %7, %8
  br i1 %9, label %10, label %44

; <label>:10:                                     ; preds = %1, %44
  %11 = alloca %"class.__gnu_debug::_Safe_iterator_base"*, align 8
  store %"class.__gnu_debug::_Safe_iterator_base"* %0, %"class.__gnu_debug::_Safe_iterator_base"** %11, align 8
  %12 = load %"class.__gnu_debug::_Safe_iterator_base"*, %"class.__gnu_debug::_Safe_iterator_base"** %11, align 8
  %13 = load i32, i32* @x.95
  %14 = load i32, i32* @y.96
  %15 = sub i32 %13, 1
  %16 = mul i32 %13, %15
  %17 = urem i32 %16, 2
  %18 = icmp eq i32 %17, 0
  %19 = icmp slt i32 %14, 10
  %20 = or i1 %18, %19
  br i1 %20, label %21, label %44

; <label>:21:                                     ; preds = %10
  invoke void @_ZN11__gnu_debug19_Safe_iterator_base9_M_detachEv(%"class.__gnu_debug::_Safe_iterator_base"* %12)
          to label %22 unwind label %23

; <label>:22:                                     ; preds = %21
  ret void

; <label>:23:                                     ; preds = %21
  %24 = load i32, i32* @x.95
  %25 = load i32, i32* @y.96
  %26 = sub i32 %24, 1
  %27 = mul i32 %24, %26
  %28 = urem i32 %27, 2
  %29 = icmp eq i32 %28, 0
  %30 = icmp slt i32 %25, 10
  %31 = or i1 %29, %30
  br i1 %31, label %32, label %47

; <label>:32:                                     ; preds = %23, %47
  %33 = landingpad { i8*, i32 }
          catch i8* null
  %34 = extractvalue { i8*, i32 } %33, 0
  call void @__clang_call_terminate(i8* %34) #13
  %35 = load i32, i32* @x.95
  %36 = load i32, i32* @y.96
  %37 = sub i32 %35, 1
  %38 = mul i32 %35, %37
  %39 = urem i32 %38, 2
  %40 = icmp eq i32 %39, 0
  %41 = icmp slt i32 %36, 10
  %42 = or i1 %40, %41
  br i1 %42, label %43, label %47

; <label>:43:                                     ; preds = %32
  unreachable

; <label>:44:                                     ; preds = %10, %1
  %45 = alloca %"class.__gnu_debug::_Safe_iterator_base"*, align 8
  store %"class.__gnu_debug::_Safe_iterator_base"* %0, %"class.__gnu_debug::_Safe_iterator_base"** %45, align 8
  %46 = load %"class.__gnu_debug::_Safe_iterator_base"*, %"class.__gnu_debug::_Safe_iterator_base"** %45, align 8
  br label %10

; <label>:47:                                     ; preds = %32, %23
  %48 = landingpad { i8*, i32 }
          catch i8* null
  %49 = extractvalue { i8*, i32 } %48, 0
  call void @__clang_call_terminate(i8* %49) #13
  br label %32
}

declare void @_ZN11__gnu_debug19_Safe_iterator_base9_M_detachEv(%"class.__gnu_debug::_Safe_iterator_base"*) #1

; Function Attrs: noinline noreturn nounwind
define linkonce_odr hidden void @__clang_call_terminate(i8*) #7 comdat {
  %2 = call i8* @__cxa_begin_catch(i8* %0) #3
  call void @_ZSt9terminatev() #13
  unreachable
}

declare i8* @__cxa_begin_catch(i8*)

declare void @_ZSt9terminatev()

; Function Attrs: noinline nounwind uwtable
define linkonce_odr dereferenceable(4) i32* @_ZSt7forwardIRiEOT_RNSt16remove_referenceIS1_E4typeE(i32* dereferenceable(4)) #5 comdat {
  %2 = alloca i32*, align 8
  store i32* %0, i32** %2, align 8
  %3 = load i32*, i32** %2, align 8
  ret i32* %3
}

; Function Attrs: noinline nounwind uwtable
define linkonce_odr void @_ZNSt4pairIiiEC2IRiS2_vEEOT_OT0_(%"struct.std::pair"*, i32* dereferenceable(4), i32* dereferenceable(4)) unnamed_addr #5 comdat align 2 {
  %4 = load i32, i32* @x.101
  %5 = load i32, i32* @y.102
  %6 = sub i32 %4, 1
  %7 = mul i32 %4, %6
  %8 = urem i32 %7, 2
  %9 = icmp eq i32 %8, 0
  %10 = icmp slt i32 %5, 10
  %11 = or i1 %9, %10
  br i1 %11, label %12, label %34

; <label>:12:                                     ; preds = %3, %34
  %13 = alloca %"struct.std::pair"*, align 8
  %14 = alloca i32*, align 8
  %15 = alloca i32*, align 8
  store %"struct.std::pair"* %0, %"struct.std::pair"** %13, align 8
  store i32* %1, i32** %14, align 8
  store i32* %2, i32** %15, align 8
  %16 = load %"struct.std::pair"*, %"struct.std::pair"** %13, align 8
  %17 = getelementptr inbounds %"struct.std::pair", %"struct.std::pair"* %16, i32 0, i32 0
  %18 = load i32*, i32** %14, align 8
  %19 = call dereferenceable(4) i32* @_ZSt7forwardIRiEOT_RNSt16remove_referenceIS1_E4typeE(i32* dereferenceable(4) %18) #3
  %20 = load i32, i32* %19, align 4
  store i32 %20, i32* %17, align 4
  %21 = getelementptr inbounds %"struct.std::pair", %"struct.std::pair"* %16, i32 0, i32 1
  %22 = load i32*, i32** %15, align 8
  %23 = call dereferenceable(4) i32* @_ZSt7forwardIRiEOT_RNSt16remove_referenceIS1_E4typeE(i32* dereferenceable(4) %22) #3
  %24 = load i32, i32* %23, align 4
  store i32 %24, i32* %21, align 4
  %25 = load i32, i32* @x.101
  %26 = load i32, i32* @y.102
  %27 = sub i32 %25, 1
  %28 = mul i32 %25, %27
  %29 = urem i32 %28, 2
  %30 = icmp eq i32 %29, 0
  %31 = icmp slt i32 %26, 10
  %32 = or i1 %30, %31
  br i1 %32, label %33, label %34

; <label>:33:                                     ; preds = %12
  ret void

; <label>:34:                                     ; preds = %12, %3
  %35 = alloca %"struct.std::pair"*, align 8
  %36 = alloca i32*, align 8
  %37 = alloca i32*, align 8
  store %"struct.std::pair"* %0, %"struct.std::pair"** %35, align 8
  store i32* %1, i32** %36, align 8
  store i32* %2, i32** %37, align 8
  %38 = load %"struct.std::pair"*, %"struct.std::pair"** %35, align 8
  %39 = getelementptr inbounds %"struct.std::pair", %"struct.std::pair"* %38, i32 0, i32 0
  %40 = load i32*, i32** %36, align 8
  %41 = call dereferenceable(4) i32* @_ZSt7forwardIRiEOT_RNSt16remove_referenceIS1_E4typeE(i32* dereferenceable(4) %40) #3
  %42 = load i32, i32* %41, align 4
  store i32 %42, i32* %39, align 4
  %43 = getelementptr inbounds %"struct.std::pair", %"struct.std::pair"* %38, i32 0, i32 1
  %44 = load i32*, i32** %37, align 8
  %45 = call dereferenceable(4) i32* @_ZSt7forwardIRiEOT_RNSt16remove_referenceIS1_E4typeE(i32* dereferenceable(4) %44) #3
  %46 = load i32, i32* %45, align 4
  store i32 %46, i32* %43, align 4
  br label %12
}

; Function Attrs: noinline nounwind uwtable
define linkonce_odr void @_ZNSt9__cxx19986vectorIiSaIiEED2Ev(%"class.std::__cxx1998::vector"*) unnamed_addr #5 comdat align 2 personality i8* bitcast (i32 (...)* @__gxx_personality_v0 to i8*) {
  %2 = load i32, i32* @x.103
  %3 = load i32, i32* @y.104
  %4 = sub i32 %2, 1
  %5 = mul i32 %2, %4
  %6 = urem i32 %5, 2
  %7 = icmp eq i32 %6, 0
  %8 = icmp slt i32 %3, 10
  %9 = or i1 %7, %8
  br i1 %9, label %10, label %61

; <label>:10:                                     ; preds = %1, %61
  %11 = alloca %"class.std::__cxx1998::vector"*, align 8
  %12 = alloca i8*
  %13 = alloca i32
  store %"class.std::__cxx1998::vector"* %0, %"class.std::__cxx1998::vector"** %11, align 8
  %14 = load %"class.std::__cxx1998::vector"*, %"class.std::__cxx1998::vector"** %11, align 8
  %15 = bitcast %"class.std::__cxx1998::vector"* %14 to %"struct.std::__cxx1998::_Vector_base"*
  %16 = getelementptr inbounds %"struct.std::__cxx1998::_Vector_base", %"struct.std::__cxx1998::_Vector_base"* %15, i32 0, i32 0
  %17 = getelementptr inbounds %"struct.std::__cxx1998::_Vector_base<int, std::allocator<int> >::_Vector_impl", %"struct.std::__cxx1998::_Vector_base<int, std::allocator<int> >::_Vector_impl"* %16, i32 0, i32 0
  %18 = load i32*, i32** %17, align 8
  %19 = bitcast %"class.std::__cxx1998::vector"* %14 to %"struct.std::__cxx1998::_Vector_base"*
  %20 = getelementptr inbounds %"struct.std::__cxx1998::_Vector_base", %"struct.std::__cxx1998::_Vector_base"* %19, i32 0, i32 0
  %21 = getelementptr inbounds %"struct.std::__cxx1998::_Vector_base<int, std::allocator<int> >::_Vector_impl", %"struct.std::__cxx1998::_Vector_base<int, std::allocator<int> >::_Vector_impl"* %20, i32 0, i32 1
  %22 = load i32*, i32** %21, align 8
  %23 = bitcast %"class.std::__cxx1998::vector"* %14 to %"struct.std::__cxx1998::_Vector_base"*
  %24 = call dereferenceable(1) %"class.std::allocator"* @_ZNSt9__cxx199812_Vector_baseIiSaIiEE19_M_get_Tp_allocatorEv(%"struct.std::__cxx1998::_Vector_base"* %23) #3
  %25 = load i32, i32* @x.103
  %26 = load i32, i32* @y.104
  %27 = sub i32 %25, 1
  %28 = mul i32 %25, %27
  %29 = urem i32 %28, 2
  %30 = icmp eq i32 %29, 0
  %31 = icmp slt i32 %26, 10
  %32 = or i1 %30, %31
  br i1 %32, label %33, label %61

; <label>:33:                                     ; preds = %10
  invoke void @_ZSt8_DestroyIPiiEvT_S1_RSaIT0_E(i32* %18, i32* %22, %"class.std::allocator"* dereferenceable(1) %24)
          to label %34 unwind label %36

; <label>:34:                                     ; preds = %33
  %35 = bitcast %"class.std::__cxx1998::vector"* %14 to %"struct.std::__cxx1998::_Vector_base"*
  call void @_ZNSt9__cxx199812_Vector_baseIiSaIiEED2Ev(%"struct.std::__cxx1998::_Vector_base"* %35) #3
  ret void

; <label>:36:                                     ; preds = %33
  %37 = load i32, i32* @x.103
  %38 = load i32, i32* @y.104
  %39 = sub i32 %37, 1
  %40 = mul i32 %37, %39
  %41 = urem i32 %40, 2
  %42 = icmp eq i32 %41, 0
  %43 = icmp slt i32 %38, 10
  %44 = or i1 %42, %43
  br i1 %44, label %45, label %76

; <label>:45:                                     ; preds = %36, %76
  %46 = landingpad { i8*, i32 }
          catch i8* null
  %47 = extractvalue { i8*, i32 } %46, 0
  store i8* %47, i8** %12, align 8
  %48 = extractvalue { i8*, i32 } %46, 1
  store i32 %48, i32* %13, align 4
  %49 = bitcast %"class.std::__cxx1998::vector"* %14 to %"struct.std::__cxx1998::_Vector_base"*
  call void @_ZNSt9__cxx199812_Vector_baseIiSaIiEED2Ev(%"struct.std::__cxx1998::_Vector_base"* %49) #3
  %50 = load i32, i32* @x.103
  %51 = load i32, i32* @y.104
  %52 = sub i32 %50, 1
  %53 = mul i32 %50, %52
  %54 = urem i32 %53, 2
  %55 = icmp eq i32 %54, 0
  %56 = icmp slt i32 %51, 10
  %57 = or i1 %55, %56
  br i1 %57, label %58, label %76

; <label>:58:                                     ; preds = %45
  br label %59

; <label>:59:                                     ; preds = %58
  %60 = load i8*, i8** %12, align 8
  call void @__clang_call_terminate(i8* %60) #13
  unreachable

; <label>:61:                                     ; preds = %10, %1
  %62 = alloca %"class.std::__cxx1998::vector"*, align 8
  %63 = alloca i8*
  %64 = alloca i32
  store %"class.std::__cxx1998::vector"* %0, %"class.std::__cxx1998::vector"** %62, align 8
  %65 = load %"class.std::__cxx1998::vector"*, %"class.std::__cxx1998::vector"** %62, align 8
  %66 = bitcast %"class.std::__cxx1998::vector"* %65 to %"struct.std::__cxx1998::_Vector_base"*
  %67 = getelementptr inbounds %"struct.std::__cxx1998::_Vector_base", %"struct.std::__cxx1998::_Vector_base"* %66, i32 0, i32 0
  %68 = getelementptr inbounds %"struct.std::__cxx1998::_Vector_base<int, std::allocator<int> >::_Vector_impl", %"struct.std::__cxx1998::_Vector_base<int, std::allocator<int> >::_Vector_impl"* %67, i32 0, i32 0
  %69 = load i32*, i32** %68, align 8
  %70 = bitcast %"class.std::__cxx1998::vector"* %65 to %"struct.std::__cxx1998::_Vector_base"*
  %71 = getelementptr inbounds %"struct.std::__cxx1998::_Vector_base", %"struct.std::__cxx1998::_Vector_base"* %70, i32 0, i32 0
  %72 = getelementptr inbounds %"struct.std::__cxx1998::_Vector_base<int, std::allocator<int> >::_Vector_impl", %"struct.std::__cxx1998::_Vector_base<int, std::allocator<int> >::_Vector_impl"* %71, i32 0, i32 1
  %73 = load i32*, i32** %72, align 8
  %74 = bitcast %"class.std::__cxx1998::vector"* %65 to %"struct.std::__cxx1998::_Vector_base"*
  %75 = call dereferenceable(1) %"class.std::allocator"* @_ZNSt9__cxx199812_Vector_baseIiSaIiEE19_M_get_Tp_allocatorEv(%"struct.std::__cxx1998::_Vector_base"* %74) #3
  br label %10

; <label>:76:                                     ; preds = %45, %36
  %77 = landingpad { i8*, i32 }
          catch i8* null
  %78 = extractvalue { i8*, i32 } %77, 0
  store i8* %78, i8** %12, align 8
  %79 = extractvalue { i8*, i32 } %77, 1
  store i32 %79, i32* %13, align 4
  %80 = bitcast %"class.std::__cxx1998::vector"* %14 to %"struct.std::__cxx1998::_Vector_base"*
  call void @_ZNSt9__cxx199812_Vector_baseIiSaIiEED2Ev(%"struct.std::__cxx1998::_Vector_base"* %80) #3
  br label %45
}

; Function Attrs: noinline nounwind uwtable
define linkonce_odr void @_ZN11__gnu_debug15_Safe_containerINSt7__debug6vectorIiSaIiEEES3_NS_14_Safe_sequenceELb1EED2Ev(%"class.__gnu_debug::_Safe_container"*) unnamed_addr #5 comdat align 2 {
  %2 = load i32, i32* @x.105
  %3 = load i32, i32* @y.106
  %4 = sub i32 %2, 1
  %5 = mul i32 %2, %4
  %6 = urem i32 %5, 2
  %7 = icmp eq i32 %6, 0
  %8 = icmp slt i32 %3, 10
  %9 = or i1 %7, %8
  br i1 %9, label %10, label %23

; <label>:10:                                     ; preds = %1, %23
  %11 = alloca %"class.__gnu_debug::_Safe_container"*, align 8
  store %"class.__gnu_debug::_Safe_container"* %0, %"class.__gnu_debug::_Safe_container"** %11, align 8
  %12 = load %"class.__gnu_debug::_Safe_container"*, %"class.__gnu_debug::_Safe_container"** %11, align 8
  %13 = bitcast %"class.__gnu_debug::_Safe_container"* %12 to %"class.__gnu_debug::_Safe_sequence"*
  call void @_ZN11__gnu_debug14_Safe_sequenceINSt7__debug6vectorIiSaIiEEEED2Ev(%"class.__gnu_debug::_Safe_sequence"* %13) #3
  %14 = load i32, i32* @x.105
  %15 = load i32, i32* @y.106
  %16 = sub i32 %14, 1
  %17 = mul i32 %14, %16
  %18 = urem i32 %17, 2
  %19 = icmp eq i32 %18, 0
  %20 = icmp slt i32 %15, 10
  %21 = or i1 %19, %20
  br i1 %21, label %22, label %23

; <label>:22:                                     ; preds = %10
  ret void

; <label>:23:                                     ; preds = %10, %1
  %24 = alloca %"class.__gnu_debug::_Safe_container"*, align 8
  store %"class.__gnu_debug::_Safe_container"* %0, %"class.__gnu_debug::_Safe_container"** %24, align 8
  %25 = load %"class.__gnu_debug::_Safe_container"*, %"class.__gnu_debug::_Safe_container"** %24, align 8
  %26 = bitcast %"class.__gnu_debug::_Safe_container"* %25 to %"class.__gnu_debug::_Safe_sequence"*
  call void @_ZN11__gnu_debug14_Safe_sequenceINSt7__debug6vectorIiSaIiEEEED2Ev(%"class.__gnu_debug::_Safe_sequence"* %26) #3
  br label %10
}

; Function Attrs: noinline uwtable
define linkonce_odr void @_ZSt8_DestroyIPiiEvT_S1_RSaIT0_E(i32*, i32*, %"class.std::allocator"* dereferenceable(1)) #0 comdat {
  %4 = alloca i32*, align 8
  %5 = alloca i32*, align 8
  %6 = alloca %"class.std::allocator"*, align 8
  store i32* %0, i32** %4, align 8
  store i32* %1, i32** %5, align 8
  store %"class.std::allocator"* %2, %"class.std::allocator"** %6, align 8
  %7 = load i32*, i32** %4, align 8
  %8 = load i32*, i32** %5, align 8
  call void @_ZSt8_DestroyIPiEvT_S1_(i32* %7, i32* %8)
  ret void
}

; Function Attrs: noinline nounwind uwtable
define linkonce_odr dereferenceable(1) %"class.std::allocator"* @_ZNSt9__cxx199812_Vector_baseIiSaIiEE19_M_get_Tp_allocatorEv(%"struct.std::__cxx1998::_Vector_base"*) #5 comdat align 2 {
  %2 = alloca %"struct.std::__cxx1998::_Vector_base"*, align 8
  store %"struct.std::__cxx1998::_Vector_base"* %0, %"struct.std::__cxx1998::_Vector_base"** %2, align 8
  %3 = load %"struct.std::__cxx1998::_Vector_base"*, %"struct.std::__cxx1998::_Vector_base"** %2, align 8
  %4 = getelementptr inbounds %"struct.std::__cxx1998::_Vector_base", %"struct.std::__cxx1998::_Vector_base"* %3, i32 0, i32 0
  %5 = bitcast %"struct.std::__cxx1998::_Vector_base<int, std::allocator<int> >::_Vector_impl"* %4 to %"class.std::allocator"*
  ret %"class.std::allocator"* %5
}

; Function Attrs: noinline nounwind uwtable
define linkonce_odr void @_ZNSt9__cxx199812_Vector_baseIiSaIiEED2Ev(%"struct.std::__cxx1998::_Vector_base"*) unnamed_addr #5 comdat align 2 personality i8* bitcast (i32 (...)* @__gxx_personality_v0 to i8*) {
  %2 = load i32, i32* @x.111
  %3 = load i32, i32* @y.112
  %4 = sub i32 %2, 1
  %5 = mul i32 %2, %4
  %6 = urem i32 %5, 2
  %7 = icmp eq i32 %6, 0
  %8 = icmp slt i32 %3, 10
  %9 = or i1 %7, %8
  br i1 %9, label %10, label %46

; <label>:10:                                     ; preds = %1, %46
  %11 = alloca %"struct.std::__cxx1998::_Vector_base"*, align 8
  %12 = alloca i8*
  %13 = alloca i32
  store %"struct.std::__cxx1998::_Vector_base"* %0, %"struct.std::__cxx1998::_Vector_base"** %11, align 8
  %14 = load %"struct.std::__cxx1998::_Vector_base"*, %"struct.std::__cxx1998::_Vector_base"** %11, align 8
  %15 = getelementptr inbounds %"struct.std::__cxx1998::_Vector_base", %"struct.std::__cxx1998::_Vector_base"* %14, i32 0, i32 0
  %16 = getelementptr inbounds %"struct.std::__cxx1998::_Vector_base<int, std::allocator<int> >::_Vector_impl", %"struct.std::__cxx1998::_Vector_base<int, std::allocator<int> >::_Vector_impl"* %15, i32 0, i32 0
  %17 = load i32*, i32** %16, align 8
  %18 = getelementptr inbounds %"struct.std::__cxx1998::_Vector_base", %"struct.std::__cxx1998::_Vector_base"* %14, i32 0, i32 0
  %19 = getelementptr inbounds %"struct.std::__cxx1998::_Vector_base<int, std::allocator<int> >::_Vector_impl", %"struct.std::__cxx1998::_Vector_base<int, std::allocator<int> >::_Vector_impl"* %18, i32 0, i32 2
  %20 = load i32*, i32** %19, align 8
  %21 = getelementptr inbounds %"struct.std::__cxx1998::_Vector_base", %"struct.std::__cxx1998::_Vector_base"* %14, i32 0, i32 0
  %22 = getelementptr inbounds %"struct.std::__cxx1998::_Vector_base<int, std::allocator<int> >::_Vector_impl", %"struct.std::__cxx1998::_Vector_base<int, std::allocator<int> >::_Vector_impl"* %21, i32 0, i32 0
  %23 = load i32*, i32** %22, align 8
  %24 = ptrtoint i32* %20 to i64
  %25 = ptrtoint i32* %23 to i64
  %26 = sub i64 %24, %25
  %27 = sdiv exact i64 %26, 4
  %28 = load i32, i32* @x.111
  %29 = load i32, i32* @y.112
  %30 = sub i32 %28, 1
  %31 = mul i32 %28, %30
  %32 = urem i32 %31, 2
  %33 = icmp eq i32 %32, 0
  %34 = icmp slt i32 %29, 10
  %35 = or i1 %33, %34
  br i1 %35, label %36, label %46

; <label>:36:                                     ; preds = %10
  invoke void @_ZNSt9__cxx199812_Vector_baseIiSaIiEE13_M_deallocateEPim(%"struct.std::__cxx1998::_Vector_base"* %14, i32* %17, i64 %27)
          to label %37 unwind label %39

; <label>:37:                                     ; preds = %36
  %38 = getelementptr inbounds %"struct.std::__cxx1998::_Vector_base", %"struct.std::__cxx1998::_Vector_base"* %14, i32 0, i32 0
  call void @_ZNSt9__cxx199812_Vector_baseIiSaIiEE12_Vector_implD2Ev(%"struct.std::__cxx1998::_Vector_base<int, std::allocator<int> >::_Vector_impl"* %38) #3
  ret void

; <label>:39:                                     ; preds = %36
  %40 = landingpad { i8*, i32 }
          catch i8* null
  %41 = extractvalue { i8*, i32 } %40, 0
  store i8* %41, i8** %12, align 8
  %42 = extractvalue { i8*, i32 } %40, 1
  store i32 %42, i32* %13, align 4
  %43 = getelementptr inbounds %"struct.std::__cxx1998::_Vector_base", %"struct.std::__cxx1998::_Vector_base"* %14, i32 0, i32 0
  call void @_ZNSt9__cxx199812_Vector_baseIiSaIiEE12_Vector_implD2Ev(%"struct.std::__cxx1998::_Vector_base<int, std::allocator<int> >::_Vector_impl"* %43) #3
  br label %44

; <label>:44:                                     ; preds = %39
  %45 = load i8*, i8** %12, align 8
  call void @__clang_call_terminate(i8* %45) #13
  unreachable

; <label>:46:                                     ; preds = %10, %1
  %47 = alloca %"struct.std::__cxx1998::_Vector_base"*, align 8
  %48 = alloca i8*
  %49 = alloca i32
  store %"struct.std::__cxx1998::_Vector_base"* %0, %"struct.std::__cxx1998::_Vector_base"** %47, align 8
  %50 = load %"struct.std::__cxx1998::_Vector_base"*, %"struct.std::__cxx1998::_Vector_base"** %47, align 8
  %51 = getelementptr inbounds %"struct.std::__cxx1998::_Vector_base", %"struct.std::__cxx1998::_Vector_base"* %50, i32 0, i32 0
  %52 = getelementptr inbounds %"struct.std::__cxx1998::_Vector_base<int, std::allocator<int> >::_Vector_impl", %"struct.std::__cxx1998::_Vector_base<int, std::allocator<int> >::_Vector_impl"* %51, i32 0, i32 0
  %53 = load i32*, i32** %52, align 8
  %54 = getelementptr inbounds %"struct.std::__cxx1998::_Vector_base", %"struct.std::__cxx1998::_Vector_base"* %50, i32 0, i32 0
  %55 = getelementptr inbounds %"struct.std::__cxx1998::_Vector_base<int, std::allocator<int> >::_Vector_impl", %"struct.std::__cxx1998::_Vector_base<int, std::allocator<int> >::_Vector_impl"* %54, i32 0, i32 2
  %56 = load i32*, i32** %55, align 8
  %57 = getelementptr inbounds %"struct.std::__cxx1998::_Vector_base", %"struct.std::__cxx1998::_Vector_base"* %50, i32 0, i32 0
  %58 = getelementptr inbounds %"struct.std::__cxx1998::_Vector_base<int, std::allocator<int> >::_Vector_impl", %"struct.std::__cxx1998::_Vector_base<int, std::allocator<int> >::_Vector_impl"* %57, i32 0, i32 0
  %59 = load i32*, i32** %58, align 8
  %60 = ptrtoint i32* %56 to i64
  %61 = ptrtoint i32* %59 to i64
  %62 = shl i64 %60, %61
  %63 = shl i64 %60, %61
  %64 = shl i64 %60, %61
  %65 = sub i64 %60, %61
  %66 = mul i64 %65, %61
  %67 = shl i64 %60, %61
  %68 = sub i64 %60, %61
  %69 = sub i64 0, %68
  %70 = add i64 %69, 4
  %71 = sub i64 0, %68
  %72 = add i64 %71, 4
  %73 = sdiv exact i64 %68, 4
  br label %10
}

; Function Attrs: noinline uwtable
define linkonce_odr void @_ZSt8_DestroyIPiEvT_S1_(i32*, i32*) #0 comdat {
  %3 = alloca i32*, align 8
  %4 = alloca i32*, align 8
  store i32* %0, i32** %3, align 8
  store i32* %1, i32** %4, align 8
  %5 = load i32*, i32** %3, align 8
  %6 = load i32*, i32** %4, align 8
  call void @_ZNSt12_Destroy_auxILb1EE9__destroyIPiEEvT_S3_(i32* %5, i32* %6)
  ret void
}

; Function Attrs: noinline nounwind uwtable
define linkonce_odr void @_ZNSt12_Destroy_auxILb1EE9__destroyIPiEEvT_S3_(i32*, i32*) #5 comdat align 2 {
  %3 = alloca i32*, align 8
  %4 = alloca i32*, align 8
  store i32* %0, i32** %3, align 8
  store i32* %1, i32** %4, align 8
  ret void
}

; Function Attrs: noinline uwtable
define linkonce_odr void @_ZNSt9__cxx199812_Vector_baseIiSaIiEE13_M_deallocateEPim(%"struct.std::__cxx1998::_Vector_base"*, i32*, i64) #0 comdat align 2 {
  %4 = load i32, i32* @x.117
  %5 = load i32, i32* @y.118
  %6 = sub i32 %4, 1
  %7 = mul i32 %4, %6
  %8 = urem i32 %7, 2
  %9 = icmp eq i32 %8, 0
  %10 = icmp slt i32 %5, 10
  %11 = or i1 %9, %10
  br i1 %11, label %12, label %34

; <label>:12:                                     ; preds = %3, %34
  %13 = alloca %"struct.std::__cxx1998::_Vector_base"*, align 8
  %14 = alloca i32*, align 8
  %15 = alloca i64, align 8
  store %"struct.std::__cxx1998::_Vector_base"* %0, %"struct.std::__cxx1998::_Vector_base"** %13, align 8
  store i32* %1, i32** %14, align 8
  store i64 %2, i64* %15, align 8
  %16 = load %"struct.std::__cxx1998::_Vector_base"*, %"struct.std::__cxx1998::_Vector_base"** %13, align 8
  %17 = load i32*, i32** %14, align 8
  %18 = icmp ne i32* %17, null
  %19 = load i32, i32* @x.117
  %20 = load i32, i32* @y.118
  %21 = sub i32 %19, 1
  %22 = mul i32 %19, %21
  %23 = urem i32 %22, 2
  %24 = icmp eq i32 %23, 0
  %25 = icmp slt i32 %20, 10
  %26 = or i1 %24, %25
  br i1 %26, label %27, label %34

; <label>:27:                                     ; preds = %12
  br i1 %18, label %28, label %33

; <label>:28:                                     ; preds = %27
  %29 = getelementptr inbounds %"struct.std::__cxx1998::_Vector_base", %"struct.std::__cxx1998::_Vector_base"* %16, i32 0, i32 0
  %30 = bitcast %"struct.std::__cxx1998::_Vector_base<int, std::allocator<int> >::_Vector_impl"* %29 to %"class.std::allocator"*
  %31 = load i32*, i32** %14, align 8
  %32 = load i64, i64* %15, align 8
  call void @_ZNSt16allocator_traitsISaIiEE10deallocateERS0_Pim(%"class.std::allocator"* dereferenceable(1) %30, i32* %31, i64 %32)
  br label %33

; <label>:33:                                     ; preds = %28, %27
  ret void

; <label>:34:                                     ; preds = %12, %3
  %35 = alloca %"struct.std::__cxx1998::_Vector_base"*, align 8
  %36 = alloca i32*, align 8
  %37 = alloca i64, align 8
  store %"struct.std::__cxx1998::_Vector_base"* %0, %"struct.std::__cxx1998::_Vector_base"** %35, align 8
  store i32* %1, i32** %36, align 8
  store i64 %2, i64* %37, align 8
  %38 = load %"struct.std::__cxx1998::_Vector_base"*, %"struct.std::__cxx1998::_Vector_base"** %35, align 8
  %39 = load i32*, i32** %36, align 8
  %40 = icmp ne i32* %39, null
  br label %12
}

; Function Attrs: noinline nounwind uwtable
define linkonce_odr void @_ZNSt9__cxx199812_Vector_baseIiSaIiEE12_Vector_implD2Ev(%"struct.std::__cxx1998::_Vector_base<int, std::allocator<int> >::_Vector_impl"*) unnamed_addr #5 comdat align 2 {
  %2 = load i32, i32* @x.119
  %3 = load i32, i32* @y.120
  %4 = sub i32 %2, 1
  %5 = mul i32 %2, %4
  %6 = urem i32 %5, 2
  %7 = icmp eq i32 %6, 0
  %8 = icmp slt i32 %3, 10
  %9 = or i1 %7, %8
  br i1 %9, label %10, label %23

; <label>:10:                                     ; preds = %1, %23
  %11 = alloca %"struct.std::__cxx1998::_Vector_base<int, std::allocator<int> >::_Vector_impl"*, align 8
  store %"struct.std::__cxx1998::_Vector_base<int, std::allocator<int> >::_Vector_impl"* %0, %"struct.std::__cxx1998::_Vector_base<int, std::allocator<int> >::_Vector_impl"** %11, align 8
  %12 = load %"struct.std::__cxx1998::_Vector_base<int, std::allocator<int> >::_Vector_impl"*, %"struct.std::__cxx1998::_Vector_base<int, std::allocator<int> >::_Vector_impl"** %11, align 8
  %13 = bitcast %"struct.std::__cxx1998::_Vector_base<int, std::allocator<int> >::_Vector_impl"* %12 to %"class.std::allocator"*
  call void @_ZNSaIiED2Ev(%"class.std::allocator"* %13) #3
  %14 = load i32, i32* @x.119
  %15 = load i32, i32* @y.120
  %16 = sub i32 %14, 1
  %17 = mul i32 %14, %16
  %18 = urem i32 %17, 2
  %19 = icmp eq i32 %18, 0
  %20 = icmp slt i32 %15, 10
  %21 = or i1 %19, %20
  br i1 %21, label %22, label %23

; <label>:22:                                     ; preds = %10
  ret void

; <label>:23:                                     ; preds = %10, %1
  %24 = alloca %"struct.std::__cxx1998::_Vector_base<int, std::allocator<int> >::_Vector_impl"*, align 8
  store %"struct.std::__cxx1998::_Vector_base<int, std::allocator<int> >::_Vector_impl"* %0, %"struct.std::__cxx1998::_Vector_base<int, std::allocator<int> >::_Vector_impl"** %24, align 8
  %25 = load %"struct.std::__cxx1998::_Vector_base<int, std::allocator<int> >::_Vector_impl"*, %"struct.std::__cxx1998::_Vector_base<int, std::allocator<int> >::_Vector_impl"** %24, align 8
  %26 = bitcast %"struct.std::__cxx1998::_Vector_base<int, std::allocator<int> >::_Vector_impl"* %25 to %"class.std::allocator"*
  call void @_ZNSaIiED2Ev(%"class.std::allocator"* %26) #3
  br label %10
}

; Function Attrs: noinline uwtable
define linkonce_odr void @_ZNSt16allocator_traitsISaIiEE10deallocateERS0_Pim(%"class.std::allocator"* dereferenceable(1), i32*, i64) #0 comdat align 2 {
  %4 = alloca %"class.std::allocator"*, align 8
  %5 = alloca i32*, align 8
  %6 = alloca i64, align 8
  store %"class.std::allocator"* %0, %"class.std::allocator"** %4, align 8
  store i32* %1, i32** %5, align 8
  store i64 %2, i64* %6, align 8
  %7 = load %"class.std::allocator"*, %"class.std::allocator"** %4, align 8
  %8 = bitcast %"class.std::allocator"* %7 to %"class.__gnu_cxx::new_allocator"*
  %9 = load i32*, i32** %5, align 8
  %10 = load i64, i64* %6, align 8
  call void @_ZN9__gnu_cxx13new_allocatorIiE10deallocateEPim(%"class.__gnu_cxx::new_allocator"* %8, i32* %9, i64 %10)
  ret void
}

; Function Attrs: noinline nounwind uwtable
define linkonce_odr void @_ZN9__gnu_cxx13new_allocatorIiE10deallocateEPim(%"class.__gnu_cxx::new_allocator"*, i32*, i64) #5 comdat align 2 {
  %4 = alloca %"class.__gnu_cxx::new_allocator"*, align 8
  %5 = alloca i32*, align 8
  %6 = alloca i64, align 8
  store %"class.__gnu_cxx::new_allocator"* %0, %"class.__gnu_cxx::new_allocator"** %4, align 8
  store i32* %1, i32** %5, align 8
  store i64 %2, i64* %6, align 8
  %7 = load %"class.__gnu_cxx::new_allocator"*, %"class.__gnu_cxx::new_allocator"** %4, align 8
  %8 = load i32*, i32** %5, align 8
  %9 = bitcast i32* %8 to i8*
  call void @_ZdlPv(i8* %9) #3
  ret void
}

; Function Attrs: nobuiltin nounwind
declare void @_ZdlPv(i8*) #8

; Function Attrs: noinline nounwind uwtable
define linkonce_odr void @_ZN9__gnu_cxx13new_allocatorIiED2Ev(%"class.__gnu_cxx::new_allocator"*) unnamed_addr #5 comdat align 2 {
  %2 = alloca %"class.__gnu_cxx::new_allocator"*, align 8
  store %"class.__gnu_cxx::new_allocator"* %0, %"class.__gnu_cxx::new_allocator"** %2, align 8
  %3 = load %"class.__gnu_cxx::new_allocator"*, %"class.__gnu_cxx::new_allocator"** %2, align 8
  ret void
}

; Function Attrs: noinline nounwind uwtable
define linkonce_odr void @_ZN11__gnu_debug14_Safe_sequenceINSt7__debug6vectorIiSaIiEEEED2Ev(%"class.__gnu_debug::_Safe_sequence"*) unnamed_addr #5 comdat align 2 {
  %2 = load i32, i32* @x.127
  %3 = load i32, i32* @y.128
  %4 = sub i32 %2, 1
  %5 = mul i32 %2, %4
  %6 = urem i32 %5, 2
  %7 = icmp eq i32 %6, 0
  %8 = icmp slt i32 %3, 10
  %9 = or i1 %7, %8
  br i1 %9, label %10, label %23

; <label>:10:                                     ; preds = %1, %23
  %11 = alloca %"class.__gnu_debug::_Safe_sequence"*, align 8
  store %"class.__gnu_debug::_Safe_sequence"* %0, %"class.__gnu_debug::_Safe_sequence"** %11, align 8
  %12 = load %"class.__gnu_debug::_Safe_sequence"*, %"class.__gnu_debug::_Safe_sequence"** %11, align 8
  %13 = bitcast %"class.__gnu_debug::_Safe_sequence"* %12 to %"class.__gnu_debug::_Safe_sequence_base"*
  call void @_ZN11__gnu_debug19_Safe_sequence_baseD2Ev(%"class.__gnu_debug::_Safe_sequence_base"* %13) #3
  %14 = load i32, i32* @x.127
  %15 = load i32, i32* @y.128
  %16 = sub i32 %14, 1
  %17 = mul i32 %14, %16
  %18 = urem i32 %17, 2
  %19 = icmp eq i32 %18, 0
  %20 = icmp slt i32 %15, 10
  %21 = or i1 %19, %20
  br i1 %21, label %22, label %23

; <label>:22:                                     ; preds = %10
  ret void

; <label>:23:                                     ; preds = %10, %1
  %24 = alloca %"class.__gnu_debug::_Safe_sequence"*, align 8
  store %"class.__gnu_debug::_Safe_sequence"* %0, %"class.__gnu_debug::_Safe_sequence"** %24, align 8
  %25 = load %"class.__gnu_debug::_Safe_sequence"*, %"class.__gnu_debug::_Safe_sequence"** %24, align 8
  %26 = bitcast %"class.__gnu_debug::_Safe_sequence"* %25 to %"class.__gnu_debug::_Safe_sequence_base"*
  call void @_ZN11__gnu_debug19_Safe_sequence_baseD2Ev(%"class.__gnu_debug::_Safe_sequence_base"* %26) #3
  br label %10
}

; Function Attrs: noinline nounwind uwtable
define linkonce_odr void @_ZN11__gnu_debug19_Safe_sequence_baseD2Ev(%"class.__gnu_debug::_Safe_sequence_base"*) unnamed_addr #5 comdat align 2 personality i8* bitcast (i32 (...)* @__gxx_personality_v0 to i8*) {
  %2 = alloca %"class.__gnu_debug::_Safe_sequence_base"*, align 8
  store %"class.__gnu_debug::_Safe_sequence_base"* %0, %"class.__gnu_debug::_Safe_sequence_base"** %2, align 8
  %3 = load %"class.__gnu_debug::_Safe_sequence_base"*, %"class.__gnu_debug::_Safe_sequence_base"** %2, align 8
  invoke void @_ZN11__gnu_debug19_Safe_sequence_base13_M_detach_allEv(%"class.__gnu_debug::_Safe_sequence_base"* %3)
          to label %4 unwind label %5

; <label>:4:                                      ; preds = %1
  ret void

; <label>:5:                                      ; preds = %1
  %6 = landingpad { i8*, i32 }
          catch i8* null
  %7 = extractvalue { i8*, i32 } %6, 0
  call void @__clang_call_terminate(i8* %7) #13
  unreachable
}

declare void @_ZN11__gnu_debug19_Safe_sequence_base13_M_detach_allEv(%"class.__gnu_debug::_Safe_sequence_base"*) #1

; Function Attrs: noinline nounwind uwtable
define linkonce_odr void @_ZN11__gnu_debug15_Safe_containerINSt7__debug5dequeIiSaIiEEES3_NS_14_Safe_sequenceELb1EEC2Ev(%"class.__gnu_debug::_Safe_container.33"*) unnamed_addr #5 comdat align 2 {
  %2 = alloca %"class.__gnu_debug::_Safe_container.33"*, align 8
  store %"class.__gnu_debug::_Safe_container.33"* %0, %"class.__gnu_debug::_Safe_container.33"** %2, align 8
  %3 = load %"class.__gnu_debug::_Safe_container.33"*, %"class.__gnu_debug::_Safe_container.33"** %2, align 8
  %4 = bitcast %"class.__gnu_debug::_Safe_container.33"* %3 to %"class.__gnu_debug::_Safe_sequence.34"*
  call void @_ZN11__gnu_debug14_Safe_sequenceINSt7__debug5dequeIiSaIiEEEEC2Ev(%"class.__gnu_debug::_Safe_sequence.34"* %4) #3
  ret void
}

; Function Attrs: noinline uwtable
define linkonce_odr void @_ZNSt9__cxx19985dequeIiSaIiEEC2Ev(%"class.std::__cxx1998::deque"*) unnamed_addr #0 comdat align 2 {
  %2 = alloca %"class.std::__cxx1998::deque"*, align 8
  store %"class.std::__cxx1998::deque"* %0, %"class.std::__cxx1998::deque"** %2, align 8
  %3 = load %"class.std::__cxx1998::deque"*, %"class.std::__cxx1998::deque"** %2, align 8
  %4 = bitcast %"class.std::__cxx1998::deque"* %3 to %"class.std::__cxx1998::_Deque_base"*
  call void @_ZNSt9__cxx199811_Deque_baseIiSaIiEEC2Ev(%"class.std::__cxx1998::_Deque_base"* %4)
  ret void
}

; Function Attrs: noinline nounwind uwtable
define linkonce_odr void @_ZN11__gnu_debug15_Safe_containerINSt7__debug5dequeIiSaIiEEES3_NS_14_Safe_sequenceELb1EED2Ev(%"class.__gnu_debug::_Safe_container.33"*) unnamed_addr #5 comdat align 2 {
  %2 = alloca %"class.__gnu_debug::_Safe_container.33"*, align 8
  store %"class.__gnu_debug::_Safe_container.33"* %0, %"class.__gnu_debug::_Safe_container.33"** %2, align 8
  %3 = load %"class.__gnu_debug::_Safe_container.33"*, %"class.__gnu_debug::_Safe_container.33"** %2, align 8
  %4 = bitcast %"class.__gnu_debug::_Safe_container.33"* %3 to %"class.__gnu_debug::_Safe_sequence.34"*
  call void @_ZN11__gnu_debug14_Safe_sequenceINSt7__debug5dequeIiSaIiEEEED2Ev(%"class.__gnu_debug::_Safe_sequence.34"* %4) #3
  ret void
}

; Function Attrs: noinline nounwind uwtable
define linkonce_odr void @_ZN11__gnu_debug14_Safe_sequenceINSt7__debug5dequeIiSaIiEEEEC2Ev(%"class.__gnu_debug::_Safe_sequence.34"*) unnamed_addr #5 comdat align 2 {
  %2 = alloca %"class.__gnu_debug::_Safe_sequence.34"*, align 8
  store %"class.__gnu_debug::_Safe_sequence.34"* %0, %"class.__gnu_debug::_Safe_sequence.34"** %2, align 8
  %3 = load %"class.__gnu_debug::_Safe_sequence.34"*, %"class.__gnu_debug::_Safe_sequence.34"** %2, align 8
  %4 = bitcast %"class.__gnu_debug::_Safe_sequence.34"* %3 to %"class.__gnu_debug::_Safe_sequence_base"*
  call void @_ZN11__gnu_debug19_Safe_sequence_baseC2Ev(%"class.__gnu_debug::_Safe_sequence_base"* %4) #3
  ret void
}

; Function Attrs: noinline nounwind uwtable
define linkonce_odr void @_ZN11__gnu_debug19_Safe_sequence_baseC2Ev(%"class.__gnu_debug::_Safe_sequence_base"*) unnamed_addr #5 comdat align 2 {
  %2 = alloca %"class.__gnu_debug::_Safe_sequence_base"*, align 8
  store %"class.__gnu_debug::_Safe_sequence_base"* %0, %"class.__gnu_debug::_Safe_sequence_base"** %2, align 8
  %3 = load %"class.__gnu_debug::_Safe_sequence_base"*, %"class.__gnu_debug::_Safe_sequence_base"** %2, align 8
  %4 = getelementptr inbounds %"class.__gnu_debug::_Safe_sequence_base", %"class.__gnu_debug::_Safe_sequence_base"* %3, i32 0, i32 0
  store %"class.__gnu_debug::_Safe_iterator_base"* null, %"class.__gnu_debug::_Safe_iterator_base"** %4, align 8
  %5 = getelementptr inbounds %"class.__gnu_debug::_Safe_sequence_base", %"class.__gnu_debug::_Safe_sequence_base"* %3, i32 0, i32 1
  store %"class.__gnu_debug::_Safe_iterator_base"* null, %"class.__gnu_debug::_Safe_iterator_base"** %5, align 8
  %6 = getelementptr inbounds %"class.__gnu_debug::_Safe_sequence_base", %"class.__gnu_debug::_Safe_sequence_base"* %3, i32 0, i32 2
  store i32 1, i32* %6, align 8
  ret void
}

; Function Attrs: noinline uwtable
define linkonce_odr void @_ZNSt9__cxx199811_Deque_baseIiSaIiEEC2Ev(%"class.std::__cxx1998::_Deque_base"*) unnamed_addr #0 comdat align 2 personality i8* bitcast (i32 (...)* @__gxx_personality_v0 to i8*) {
  %2 = alloca %"class.std::__cxx1998::_Deque_base"*, align 8
  %3 = alloca i8*
  %4 = alloca i32
  store %"class.std::__cxx1998::_Deque_base"* %0, %"class.std::__cxx1998::_Deque_base"** %2, align 8
  %5 = load %"class.std::__cxx1998::_Deque_base"*, %"class.std::__cxx1998::_Deque_base"** %2, align 8
  %6 = getelementptr inbounds %"class.std::__cxx1998::_Deque_base", %"class.std::__cxx1998::_Deque_base"* %5, i32 0, i32 0
  call void @_ZNSt9__cxx199811_Deque_baseIiSaIiEE11_Deque_implC2Ev(%"struct.std::__cxx1998::_Deque_base<int, std::allocator<int> >::_Deque_impl"* %6)
  invoke void @_ZNSt9__cxx199811_Deque_baseIiSaIiEE17_M_initialize_mapEm(%"class.std::__cxx1998::_Deque_base"* %5, i64 0)
          to label %7 unwind label %8

; <label>:7:                                      ; preds = %1
  ret void

; <label>:8:                                      ; preds = %1
  %9 = landingpad { i8*, i32 }
          cleanup
  %10 = extractvalue { i8*, i32 } %9, 0
  store i8* %10, i8** %3, align 8
  %11 = extractvalue { i8*, i32 } %9, 1
  store i32 %11, i32* %4, align 4
  call void @_ZNSt9__cxx199811_Deque_baseIiSaIiEE11_Deque_implD2Ev(%"struct.std::__cxx1998::_Deque_base<int, std::allocator<int> >::_Deque_impl"* %6) #3
  br label %12

; <label>:12:                                     ; preds = %8
  %13 = load i32, i32* @x.141
  %14 = load i32, i32* @y.142
  %15 = sub i32 %13, 1
  %16 = mul i32 %13, %15
  %17 = urem i32 %16, 2
  %18 = icmp eq i32 %17, 0
  %19 = icmp slt i32 %14, 10
  %20 = or i1 %18, %19
  br i1 %20, label %21, label %35

; <label>:21:                                     ; preds = %12, %35
  %22 = load i8*, i8** %3, align 8
  %23 = load i32, i32* %4, align 4
  %24 = insertvalue { i8*, i32 } undef, i8* %22, 0
  %25 = insertvalue { i8*, i32 } %24, i32 %23, 1
  %26 = load i32, i32* @x.141
  %27 = load i32, i32* @y.142
  %28 = sub i32 %26, 1
  %29 = mul i32 %26, %28
  %30 = urem i32 %29, 2
  %31 = icmp eq i32 %30, 0
  %32 = icmp slt i32 %27, 10
  %33 = or i1 %31, %32
  br i1 %33, label %34, label %35

; <label>:34:                                     ; preds = %21
  resume { i8*, i32 } %25

; <label>:35:                                     ; preds = %21, %12
  %36 = load i8*, i8** %3, align 8
  %37 = load i32, i32* %4, align 4
  %38 = insertvalue { i8*, i32 } undef, i8* %36, 0
  %39 = insertvalue { i8*, i32 } %38, i32 %37, 1
  br label %21
}

; Function Attrs: noinline nounwind uwtable
define linkonce_odr void @_ZNSt9__cxx199811_Deque_baseIiSaIiEE11_Deque_implC2Ev(%"struct.std::__cxx1998::_Deque_base<int, std::allocator<int> >::_Deque_impl"*) unnamed_addr #5 comdat align 2 {
  %2 = alloca %"struct.std::__cxx1998::_Deque_base<int, std::allocator<int> >::_Deque_impl"*, align 8
  store %"struct.std::__cxx1998::_Deque_base<int, std::allocator<int> >::_Deque_impl"* %0, %"struct.std::__cxx1998::_Deque_base<int, std::allocator<int> >::_Deque_impl"** %2, align 8
  %3 = load %"struct.std::__cxx1998::_Deque_base<int, std::allocator<int> >::_Deque_impl"*, %"struct.std::__cxx1998::_Deque_base<int, std::allocator<int> >::_Deque_impl"** %2, align 8
  %4 = bitcast %"struct.std::__cxx1998::_Deque_base<int, std::allocator<int> >::_Deque_impl"* %3 to %"class.std::allocator"*
  call void @_ZNSaIiEC2Ev(%"class.std::allocator"* %4) #3
  %5 = getelementptr inbounds %"struct.std::__cxx1998::_Deque_base<int, std::allocator<int> >::_Deque_impl", %"struct.std::__cxx1998::_Deque_base<int, std::allocator<int> >::_Deque_impl"* %3, i32 0, i32 0
  store i32** null, i32*** %5, align 8
  %6 = getelementptr inbounds %"struct.std::__cxx1998::_Deque_base<int, std::allocator<int> >::_Deque_impl", %"struct.std::__cxx1998::_Deque_base<int, std::allocator<int> >::_Deque_impl"* %3, i32 0, i32 1
  store i64 0, i64* %6, align 8
  %7 = getelementptr inbounds %"struct.std::__cxx1998::_Deque_base<int, std::allocator<int> >::_Deque_impl", %"struct.std::__cxx1998::_Deque_base<int, std::allocator<int> >::_Deque_impl"* %3, i32 0, i32 2
  call void @_ZNSt9__cxx199815_Deque_iteratorIiRiPiEC2Ev(%"struct.std::__cxx1998::_Deque_iterator"* %7) #3
  %8 = getelementptr inbounds %"struct.std::__cxx1998::_Deque_base<int, std::allocator<int> >::_Deque_impl", %"struct.std::__cxx1998::_Deque_base<int, std::allocator<int> >::_Deque_impl"* %3, i32 0, i32 3
  call void @_ZNSt9__cxx199815_Deque_iteratorIiRiPiEC2Ev(%"struct.std::__cxx1998::_Deque_iterator"* %8) #3
  ret void
}

; Function Attrs: noinline uwtable
define linkonce_odr void @_ZNSt9__cxx199811_Deque_baseIiSaIiEE17_M_initialize_mapEm(%"class.std::__cxx1998::_Deque_base"*, i64) #0 comdat align 2 personality i8* bitcast (i32 (...)* @__gxx_personality_v0 to i8*) {
  %3 = load i32, i32* @x.145
  %4 = load i32, i32* @y.146
  %5 = sub i32 %3, 1
  %6 = mul i32 %3, %5
  %7 = urem i32 %6, 2
  %8 = icmp eq i32 %7, 0
  %9 = icmp slt i32 %4, 10
  %10 = or i1 %8, %9
  br i1 %10, label %11, label %156

; <label>:11:                                     ; preds = %2, %156
  %12 = alloca %"class.std::__cxx1998::_Deque_base"*, align 8
  %13 = alloca i64, align 8
  %14 = alloca i64, align 8
  %15 = alloca i64, align 8
  %16 = alloca i64, align 8
  %17 = alloca i32**, align 8
  %18 = alloca i32**, align 8
  %19 = alloca i8*
  %20 = alloca i32
  store %"class.std::__cxx1998::_Deque_base"* %0, %"class.std::__cxx1998::_Deque_base"** %12, align 8
  store i64 %1, i64* %13, align 8
  %21 = load %"class.std::__cxx1998::_Deque_base"*, %"class.std::__cxx1998::_Deque_base"** %12, align 8
  %22 = load i64, i64* %13, align 8
  %23 = call i64 @_ZNSt9__cxx199816__deque_buf_sizeEm(i64 4)
  %24 = udiv i64 %22, %23
  %25 = add i64 %24, 1
  store i64 %25, i64* %14, align 8
  store i64 8, i64* %15, align 8
  %26 = load i64, i64* %14, align 8
  %27 = add i64 %26, 2
  store i64 %27, i64* %16, align 8
  %28 = call dereferenceable(8) i64* @_ZSt3maxImERKT_S2_S2_(i64* dereferenceable(8) %15, i64* dereferenceable(8) %16)
  %29 = load i64, i64* %28, align 8
  %30 = getelementptr inbounds %"class.std::__cxx1998::_Deque_base", %"class.std::__cxx1998::_Deque_base"* %21, i32 0, i32 0
  %31 = getelementptr inbounds %"struct.std::__cxx1998::_Deque_base<int, std::allocator<int> >::_Deque_impl", %"struct.std::__cxx1998::_Deque_base<int, std::allocator<int> >::_Deque_impl"* %30, i32 0, i32 1
  store i64 %29, i64* %31, align 8
  %32 = getelementptr inbounds %"class.std::__cxx1998::_Deque_base", %"class.std::__cxx1998::_Deque_base"* %21, i32 0, i32 0
  %33 = getelementptr inbounds %"struct.std::__cxx1998::_Deque_base<int, std::allocator<int> >::_Deque_impl", %"struct.std::__cxx1998::_Deque_base<int, std::allocator<int> >::_Deque_impl"* %32, i32 0, i32 1
  %34 = load i64, i64* %33, align 8
  %35 = call i32** @_ZNSt9__cxx199811_Deque_baseIiSaIiEE15_M_allocate_mapEm(%"class.std::__cxx1998::_Deque_base"* %21, i64 %34)
  %36 = getelementptr inbounds %"class.std::__cxx1998::_Deque_base", %"class.std::__cxx1998::_Deque_base"* %21, i32 0, i32 0
  %37 = getelementptr inbounds %"struct.std::__cxx1998::_Deque_base<int, std::allocator<int> >::_Deque_impl", %"struct.std::__cxx1998::_Deque_base<int, std::allocator<int> >::_Deque_impl"* %36, i32 0, i32 0
  store i32** %35, i32*** %37, align 8
  %38 = getelementptr inbounds %"class.std::__cxx1998::_Deque_base", %"class.std::__cxx1998::_Deque_base"* %21, i32 0, i32 0
  %39 = getelementptr inbounds %"struct.std::__cxx1998::_Deque_base<int, std::allocator<int> >::_Deque_impl", %"struct.std::__cxx1998::_Deque_base<int, std::allocator<int> >::_Deque_impl"* %38, i32 0, i32 0
  %40 = load i32**, i32*** %39, align 8
  %41 = getelementptr inbounds %"class.std::__cxx1998::_Deque_base", %"class.std::__cxx1998::_Deque_base"* %21, i32 0, i32 0
  %42 = getelementptr inbounds %"struct.std::__cxx1998::_Deque_base<int, std::allocator<int> >::_Deque_impl", %"struct.std::__cxx1998::_Deque_base<int, std::allocator<int> >::_Deque_impl"* %41, i32 0, i32 1
  %43 = load i64, i64* %42, align 8
  %44 = load i64, i64* %14, align 8
  %45 = sub i64 %43, %44
  %46 = udiv i64 %45, 2
  %47 = getelementptr inbounds i32*, i32** %40, i64 %46
  store i32** %47, i32*** %17, align 8
  %48 = load i32**, i32*** %17, align 8
  %49 = load i64, i64* %14, align 8
  %50 = getelementptr inbounds i32*, i32** %48, i64 %49
  store i32** %50, i32*** %18, align 8
  %51 = load i32**, i32*** %17, align 8
  %52 = load i32**, i32*** %18, align 8
  %53 = load i32, i32* @x.145
  %54 = load i32, i32* @y.146
  %55 = sub i32 %53, 1
  %56 = mul i32 %53, %55
  %57 = urem i32 %56, 2
  %58 = icmp eq i32 %57, 0
  %59 = icmp slt i32 %54, 10
  %60 = or i1 %58, %59
  br i1 %60, label %61, label %156

; <label>:61:                                     ; preds = %11
  invoke void @_ZNSt9__cxx199811_Deque_baseIiSaIiEE15_M_create_nodesEPPiS4_(%"class.std::__cxx1998::_Deque_base"* %21, i32** %51, i32** %52)
          to label %62 unwind label %81

; <label>:62:                                     ; preds = %61
  %63 = load i32, i32* @x.145
  %64 = load i32, i32* @y.146
  %65 = sub i32 %63, 1
  %66 = mul i32 %63, %65
  %67 = urem i32 %66, 2
  %68 = icmp eq i32 %67, 0
  %69 = icmp slt i32 %64, 10
  %70 = or i1 %68, %69
  br i1 %70, label %71, label %243

; <label>:71:                                     ; preds = %62, %243
  %72 = load i32, i32* @x.145
  %73 = load i32, i32* @y.146
  %74 = sub i32 %72, 1
  %75 = mul i32 %72, %74
  %76 = urem i32 %75, 2
  %77 = icmp eq i32 %76, 0
  %78 = icmp slt i32 %73, 10
  %79 = or i1 %77, %78
  br i1 %79, label %80, label %243

; <label>:80:                                     ; preds = %71
  br label %121

; <label>:81:                                     ; preds = %61
  %82 = landingpad { i8*, i32 }
          catch i8* null
  %83 = extractvalue { i8*, i32 } %82, 0
  store i8* %83, i8** %19, align 8
  %84 = extractvalue { i8*, i32 } %82, 1
  store i32 %84, i32* %20, align 4
  br label %85

; <label>:85:                                     ; preds = %81
  %86 = load i8*, i8** %19, align 8
  %87 = call i8* @__cxa_begin_catch(i8* %86) #3
  %88 = getelementptr inbounds %"class.std::__cxx1998::_Deque_base", %"class.std::__cxx1998::_Deque_base"* %21, i32 0, i32 0
  %89 = getelementptr inbounds %"struct.std::__cxx1998::_Deque_base<int, std::allocator<int> >::_Deque_impl", %"struct.std::__cxx1998::_Deque_base<int, std::allocator<int> >::_Deque_impl"* %88, i32 0, i32 0
  %90 = load i32**, i32*** %89, align 8
  %91 = getelementptr inbounds %"class.std::__cxx1998::_Deque_base", %"class.std::__cxx1998::_Deque_base"* %21, i32 0, i32 0
  %92 = getelementptr inbounds %"struct.std::__cxx1998::_Deque_base<int, std::allocator<int> >::_Deque_impl", %"struct.std::__cxx1998::_Deque_base<int, std::allocator<int> >::_Deque_impl"* %91, i32 0, i32 1
  %93 = load i64, i64* %92, align 8
  call void @_ZNSt9__cxx199811_Deque_baseIiSaIiEE17_M_deallocate_mapEPPim(%"class.std::__cxx1998::_Deque_base"* %21, i32** %90, i64 %93) #3
  %94 = getelementptr inbounds %"class.std::__cxx1998::_Deque_base", %"class.std::__cxx1998::_Deque_base"* %21, i32 0, i32 0
  %95 = getelementptr inbounds %"struct.std::__cxx1998::_Deque_base<int, std::allocator<int> >::_Deque_impl", %"struct.std::__cxx1998::_Deque_base<int, std::allocator<int> >::_Deque_impl"* %94, i32 0, i32 0
  store i32** null, i32*** %95, align 8
  %96 = getelementptr inbounds %"class.std::__cxx1998::_Deque_base", %"class.std::__cxx1998::_Deque_base"* %21, i32 0, i32 0
  %97 = getelementptr inbounds %"struct.std::__cxx1998::_Deque_base<int, std::allocator<int> >::_Deque_impl", %"struct.std::__cxx1998::_Deque_base<int, std::allocator<int> >::_Deque_impl"* %96, i32 0, i32 1
  store i64 0, i64* %97, align 8
  invoke void @__cxa_rethrow() #14
          to label %155 unwind label %98

; <label>:98:                                     ; preds = %85
  %99 = landingpad { i8*, i32 }
          cleanup
  %100 = extractvalue { i8*, i32 } %99, 0
  store i8* %100, i8** %19, align 8
  %101 = extractvalue { i8*, i32 } %99, 1
  store i32 %101, i32* %20, align 4
  invoke void @__cxa_end_catch()
          to label %102 unwind label %152

; <label>:102:                                    ; preds = %98
  %103 = load i32, i32* @x.145
  %104 = load i32, i32* @y.146
  %105 = sub i32 %103, 1
  %106 = mul i32 %103, %105
  %107 = urem i32 %106, 2
  %108 = icmp eq i32 %107, 0
  %109 = icmp slt i32 %104, 10
  %110 = or i1 %108, %109
  br i1 %110, label %111, label %244

; <label>:111:                                    ; preds = %102, %244
  %112 = load i32, i32* @x.145
  %113 = load i32, i32* @y.146
  %114 = sub i32 %112, 1
  %115 = mul i32 %112, %114
  %116 = urem i32 %115, 2
  %117 = icmp eq i32 %116, 0
  %118 = icmp slt i32 %113, 10
  %119 = or i1 %117, %118
  br i1 %119, label %120, label %244

; <label>:120:                                    ; preds = %111
  br label %147

; <label>:121:                                    ; preds = %80
  %122 = getelementptr inbounds %"class.std::__cxx1998::_Deque_base", %"class.std::__cxx1998::_Deque_base"* %21, i32 0, i32 0
  %123 = getelementptr inbounds %"struct.std::__cxx1998::_Deque_base<int, std::allocator<int> >::_Deque_impl", %"struct.std::__cxx1998::_Deque_base<int, std::allocator<int> >::_Deque_impl"* %122, i32 0, i32 2
  %124 = load i32**, i32*** %17, align 8
  call void @_ZNSt9__cxx199815_Deque_iteratorIiRiPiE11_M_set_nodeEPS2_(%"struct.std::__cxx1998::_Deque_iterator"* %123, i32** %124) #3
  %125 = getelementptr inbounds %"class.std::__cxx1998::_Deque_base", %"class.std::__cxx1998::_Deque_base"* %21, i32 0, i32 0
  %126 = getelementptr inbounds %"struct.std::__cxx1998::_Deque_base<int, std::allocator<int> >::_Deque_impl", %"struct.std::__cxx1998::_Deque_base<int, std::allocator<int> >::_Deque_impl"* %125, i32 0, i32 3
  %127 = load i32**, i32*** %18, align 8
  %128 = getelementptr inbounds i32*, i32** %127, i64 -1
  call void @_ZNSt9__cxx199815_Deque_iteratorIiRiPiE11_M_set_nodeEPS2_(%"struct.std::__cxx1998::_Deque_iterator"* %126, i32** %128) #3
  %129 = getelementptr inbounds %"class.std::__cxx1998::_Deque_base", %"class.std::__cxx1998::_Deque_base"* %21, i32 0, i32 0
  %130 = getelementptr inbounds %"struct.std::__cxx1998::_Deque_base<int, std::allocator<int> >::_Deque_impl", %"struct.std::__cxx1998::_Deque_base<int, std::allocator<int> >::_Deque_impl"* %129, i32 0, i32 2
  %131 = getelementptr inbounds %"struct.std::__cxx1998::_Deque_iterator", %"struct.std::__cxx1998::_Deque_iterator"* %130, i32 0, i32 1
  %132 = load i32*, i32** %131, align 8
  %133 = getelementptr inbounds %"class.std::__cxx1998::_Deque_base", %"class.std::__cxx1998::_Deque_base"* %21, i32 0, i32 0
  %134 = getelementptr inbounds %"struct.std::__cxx1998::_Deque_base<int, std::allocator<int> >::_Deque_impl", %"struct.std::__cxx1998::_Deque_base<int, std::allocator<int> >::_Deque_impl"* %133, i32 0, i32 2
  %135 = getelementptr inbounds %"struct.std::__cxx1998::_Deque_iterator", %"struct.std::__cxx1998::_Deque_iterator"* %134, i32 0, i32 0
  store i32* %132, i32** %135, align 8
  %136 = getelementptr inbounds %"class.std::__cxx1998::_Deque_base", %"class.std::__cxx1998::_Deque_base"* %21, i32 0, i32 0
  %137 = getelementptr inbounds %"struct.std::__cxx1998::_Deque_base<int, std::allocator<int> >::_Deque_impl", %"struct.std::__cxx1998::_Deque_base<int, std::allocator<int> >::_Deque_impl"* %136, i32 0, i32 3
  %138 = getelementptr inbounds %"struct.std::__cxx1998::_Deque_iterator", %"struct.std::__cxx1998::_Deque_iterator"* %137, i32 0, i32 1
  %139 = load i32*, i32** %138, align 8
  %140 = load i64, i64* %13, align 8
  %141 = call i64 @_ZNSt9__cxx199816__deque_buf_sizeEm(i64 4)
  %142 = urem i64 %140, %141
  %143 = getelementptr inbounds i32, i32* %139, i64 %142
  %144 = getelementptr inbounds %"class.std::__cxx1998::_Deque_base", %"class.std::__cxx1998::_Deque_base"* %21, i32 0, i32 0
  %145 = getelementptr inbounds %"struct.std::__cxx1998::_Deque_base<int, std::allocator<int> >::_Deque_impl", %"struct.std::__cxx1998::_Deque_base<int, std::allocator<int> >::_Deque_impl"* %144, i32 0, i32 3
  %146 = getelementptr inbounds %"struct.std::__cxx1998::_Deque_iterator", %"struct.std::__cxx1998::_Deque_iterator"* %145, i32 0, i32 0
  store i32* %143, i32** %146, align 8
  ret void

; <label>:147:                                    ; preds = %120
  %148 = load i8*, i8** %19, align 8
  %149 = load i32, i32* %20, align 4
  %150 = insertvalue { i8*, i32 } undef, i8* %148, 0
  %151 = insertvalue { i8*, i32 } %150, i32 %149, 1
  resume { i8*, i32 } %151

; <label>:152:                                    ; preds = %98
  %153 = landingpad { i8*, i32 }
          catch i8* null
  %154 = extractvalue { i8*, i32 } %153, 0
  call void @__clang_call_terminate(i8* %154) #13
  unreachable

; <label>:155:                                    ; preds = %85
  unreachable

; <label>:156:                                    ; preds = %11, %2
  %157 = alloca %"class.std::__cxx1998::_Deque_base"*, align 8
  %158 = alloca i64, align 8
  %159 = alloca i64, align 8
  %160 = alloca i64, align 8
  %161 = alloca i64, align 8
  %162 = alloca i32**, align 8
  %163 = alloca i32**, align 8
  %164 = alloca i8*
  %165 = alloca i32
  store %"class.std::__cxx1998::_Deque_base"* %0, %"class.std::__cxx1998::_Deque_base"** %157, align 8
  store i64 %1, i64* %158, align 8
  %166 = load %"class.std::__cxx1998::_Deque_base"*, %"class.std::__cxx1998::_Deque_base"** %157, align 8
  %167 = load i64, i64* %158, align 8
  %168 = call i64 @_ZNSt9__cxx199816__deque_buf_sizeEm(i64 4)
  %169 = sub i64 0, %167
  %170 = add i64 %169, %168
  %171 = shl i64 %167, %168
  %172 = sub i64 %167, %168
  %173 = mul i64 %172, %168
  %174 = sub i64 %167, %168
  %175 = mul i64 %174, %168
  %176 = sub i64 %167, %168
  %177 = mul i64 %176, %168
  %178 = sub i64 %167, %168
  %179 = mul i64 %178, %168
  %180 = udiv i64 %167, %168
  %181 = sub i64 %180, 1
  %182 = mul i64 %181, 1
  %183 = sub i64 0, %180
  %184 = add i64 %183, 1
  %185 = sub i64 %180, 1
  %186 = mul i64 %185, 1
  %187 = shl i64 %180, 1
  %188 = sub i64 0, %180
  %189 = add i64 %188, 1
  %190 = sub i64 %180, 1
  %191 = mul i64 %190, 1
  %192 = sub i64 %180, 1
  %193 = mul i64 %192, 1
  %194 = sub i64 %180, 1
  %195 = mul i64 %194, 1
  %196 = add i64 %180, 1
  store i64 %196, i64* %159, align 8
  store i64 8, i64* %160, align 8
  %197 = load i64, i64* %159, align 8
  %198 = sub i64 %197, 2
  %199 = mul i64 %198, 2
  %200 = sub i64 %197, 2
  %201 = mul i64 %200, 2
  %202 = shl i64 %197, 2
  %203 = sub i64 0, %197
  %204 = add i64 %203, 2
  %205 = sub i64 0, %197
  %206 = add i64 %205, 2
  %207 = sub i64 %197, 2
  %208 = mul i64 %207, 2
  %209 = add i64 %197, 2
  store i64 %209, i64* %161, align 8
  %210 = call dereferenceable(8) i64* @_ZSt3maxImERKT_S2_S2_(i64* dereferenceable(8) %160, i64* dereferenceable(8) %161)
  %211 = load i64, i64* %210, align 8
  %212 = getelementptr inbounds %"class.std::__cxx1998::_Deque_base", %"class.std::__cxx1998::_Deque_base"* %166, i32 0, i32 0
  %213 = getelementptr inbounds %"struct.std::__cxx1998::_Deque_base<int, std::allocator<int> >::_Deque_impl", %"struct.std::__cxx1998::_Deque_base<int, std::allocator<int> >::_Deque_impl"* %212, i32 0, i32 1
  store i64 %211, i64* %213, align 8
  %214 = getelementptr inbounds %"class.std::__cxx1998::_Deque_base", %"class.std::__cxx1998::_Deque_base"* %166, i32 0, i32 0
  %215 = getelementptr inbounds %"struct.std::__cxx1998::_Deque_base<int, std::allocator<int> >::_Deque_impl", %"struct.std::__cxx1998::_Deque_base<int, std::allocator<int> >::_Deque_impl"* %214, i32 0, i32 1
  %216 = load i64, i64* %215, align 8
  %217 = call i32** @_ZNSt9__cxx199811_Deque_baseIiSaIiEE15_M_allocate_mapEm(%"class.std::__cxx1998::_Deque_base"* %166, i64 %216)
  %218 = getelementptr inbounds %"class.std::__cxx1998::_Deque_base", %"class.std::__cxx1998::_Deque_base"* %166, i32 0, i32 0
  %219 = getelementptr inbounds %"struct.std::__cxx1998::_Deque_base<int, std::allocator<int> >::_Deque_impl", %"struct.std::__cxx1998::_Deque_base<int, std::allocator<int> >::_Deque_impl"* %218, i32 0, i32 0
  store i32** %217, i32*** %219, align 8
  %220 = getelementptr inbounds %"class.std::__cxx1998::_Deque_base", %"class.std::__cxx1998::_Deque_base"* %166, i32 0, i32 0
  %221 = getelementptr inbounds %"struct.std::__cxx1998::_Deque_base<int, std::allocator<int> >::_Deque_impl", %"struct.std::__cxx1998::_Deque_base<int, std::allocator<int> >::_Deque_impl"* %220, i32 0, i32 0
  %222 = load i32**, i32*** %221, align 8
  %223 = getelementptr inbounds %"class.std::__cxx1998::_Deque_base", %"class.std::__cxx1998::_Deque_base"* %166, i32 0, i32 0
  %224 = getelementptr inbounds %"struct.std::__cxx1998::_Deque_base<int, std::allocator<int> >::_Deque_impl", %"struct.std::__cxx1998::_Deque_base<int, std::allocator<int> >::_Deque_impl"* %223, i32 0, i32 1
  %225 = load i64, i64* %224, align 8
  %226 = load i64, i64* %159, align 8
  %227 = sub i64 %225, %226
  %228 = mul i64 %227, %226
  %229 = sub i64 %225, %226
  %230 = shl i64 %229, 2
  %231 = sub i64 0, %229
  %232 = add i64 %231, 2
  %233 = sub i64 %229, 2
  %234 = mul i64 %233, 2
  %235 = shl i64 %229, 2
  %236 = udiv i64 %229, 2
  %237 = getelementptr inbounds i32*, i32** %222, i64 %236
  store i32** %237, i32*** %162, align 8
  %238 = load i32**, i32*** %162, align 8
  %239 = load i64, i64* %159, align 8
  %240 = getelementptr inbounds i32*, i32** %238, i64 %239
  store i32** %240, i32*** %163, align 8
  %241 = load i32**, i32*** %162, align 8
  %242 = load i32**, i32*** %163, align 8
  br label %11

; <label>:243:                                    ; preds = %71, %62
  br label %71

; <label>:244:                                    ; preds = %111, %102
  br label %111
}

; Function Attrs: noinline nounwind uwtable
define linkonce_odr void @_ZNSt9__cxx199811_Deque_baseIiSaIiEE11_Deque_implD2Ev(%"struct.std::__cxx1998::_Deque_base<int, std::allocator<int> >::_Deque_impl"*) unnamed_addr #5 comdat align 2 {
  %2 = alloca %"struct.std::__cxx1998::_Deque_base<int, std::allocator<int> >::_Deque_impl"*, align 8
  store %"struct.std::__cxx1998::_Deque_base<int, std::allocator<int> >::_Deque_impl"* %0, %"struct.std::__cxx1998::_Deque_base<int, std::allocator<int> >::_Deque_impl"** %2, align 8
  %3 = load %"struct.std::__cxx1998::_Deque_base<int, std::allocator<int> >::_Deque_impl"*, %"struct.std::__cxx1998::_Deque_base<int, std::allocator<int> >::_Deque_impl"** %2, align 8
  %4 = bitcast %"struct.std::__cxx1998::_Deque_base<int, std::allocator<int> >::_Deque_impl"* %3 to %"class.std::allocator"*
  call void @_ZNSaIiED2Ev(%"class.std::allocator"* %4) #3
  ret void
}

; Function Attrs: noinline nounwind uwtable
define linkonce_odr void @_ZNSt9__cxx199815_Deque_iteratorIiRiPiEC2Ev(%"struct.std::__cxx1998::_Deque_iterator"*) unnamed_addr #5 comdat align 2 {
  %2 = load i32, i32* @x.149
  %3 = load i32, i32* @y.150
  %4 = sub i32 %2, 1
  %5 = mul i32 %2, %4
  %6 = urem i32 %5, 2
  %7 = icmp eq i32 %6, 0
  %8 = icmp slt i32 %3, 10
  %9 = or i1 %7, %8
  br i1 %9, label %10, label %26

; <label>:10:                                     ; preds = %1, %26
  %11 = alloca %"struct.std::__cxx1998::_Deque_iterator"*, align 8
  store %"struct.std::__cxx1998::_Deque_iterator"* %0, %"struct.std::__cxx1998::_Deque_iterator"** %11, align 8
  %12 = load %"struct.std::__cxx1998::_Deque_iterator"*, %"struct.std::__cxx1998::_Deque_iterator"** %11, align 8
  %13 = getelementptr inbounds %"struct.std::__cxx1998::_Deque_iterator", %"struct.std::__cxx1998::_Deque_iterator"* %12, i32 0, i32 0
  store i32* null, i32** %13, align 8
  %14 = getelementptr inbounds %"struct.std::__cxx1998::_Deque_iterator", %"struct.std::__cxx1998::_Deque_iterator"* %12, i32 0, i32 1
  store i32* null, i32** %14, align 8
  %15 = getelementptr inbounds %"struct.std::__cxx1998::_Deque_iterator", %"struct.std::__cxx1998::_Deque_iterator"* %12, i32 0, i32 2
  store i32* null, i32** %15, align 8
  %16 = getelementptr inbounds %"struct.std::__cxx1998::_Deque_iterator", %"struct.std::__cxx1998::_Deque_iterator"* %12, i32 0, i32 3
  store i32** null, i32*** %16, align 8
  %17 = load i32, i32* @x.149
  %18 = load i32, i32* @y.150
  %19 = sub i32 %17, 1
  %20 = mul i32 %17, %19
  %21 = urem i32 %20, 2
  %22 = icmp eq i32 %21, 0
  %23 = icmp slt i32 %18, 10
  %24 = or i1 %22, %23
  br i1 %24, label %25, label %26

; <label>:25:                                     ; preds = %10
  ret void

; <label>:26:                                     ; preds = %10, %1
  %27 = alloca %"struct.std::__cxx1998::_Deque_iterator"*, align 8
  store %"struct.std::__cxx1998::_Deque_iterator"* %0, %"struct.std::__cxx1998::_Deque_iterator"** %27, align 8
  %28 = load %"struct.std::__cxx1998::_Deque_iterator"*, %"struct.std::__cxx1998::_Deque_iterator"** %27, align 8
  %29 = getelementptr inbounds %"struct.std::__cxx1998::_Deque_iterator", %"struct.std::__cxx1998::_Deque_iterator"* %28, i32 0, i32 0
  store i32* null, i32** %29, align 8
  %30 = getelementptr inbounds %"struct.std::__cxx1998::_Deque_iterator", %"struct.std::__cxx1998::_Deque_iterator"* %28, i32 0, i32 1
  store i32* null, i32** %30, align 8
  %31 = getelementptr inbounds %"struct.std::__cxx1998::_Deque_iterator", %"struct.std::__cxx1998::_Deque_iterator"* %28, i32 0, i32 2
  store i32* null, i32** %31, align 8
  %32 = getelementptr inbounds %"struct.std::__cxx1998::_Deque_iterator", %"struct.std::__cxx1998::_Deque_iterator"* %28, i32 0, i32 3
  store i32** null, i32*** %32, align 8
  br label %10
}

; Function Attrs: noinline nounwind uwtable
define linkonce_odr void @_ZN9__gnu_cxx13new_allocatorIiEC2Ev(%"class.__gnu_cxx::new_allocator"*) unnamed_addr #5 comdat align 2 {
  %2 = load i32, i32* @x.151
  %3 = load i32, i32* @y.152
  %4 = sub i32 %2, 1
  %5 = mul i32 %2, %4
  %6 = urem i32 %5, 2
  %7 = icmp eq i32 %6, 0
  %8 = icmp slt i32 %3, 10
  %9 = or i1 %7, %8
  br i1 %9, label %10, label %22

; <label>:10:                                     ; preds = %1, %22
  %11 = alloca %"class.__gnu_cxx::new_allocator"*, align 8
  store %"class.__gnu_cxx::new_allocator"* %0, %"class.__gnu_cxx::new_allocator"** %11, align 8
  %12 = load %"class.__gnu_cxx::new_allocator"*, %"class.__gnu_cxx::new_allocator"** %11, align 8
  %13 = load i32, i32* @x.151
  %14 = load i32, i32* @y.152
  %15 = sub i32 %13, 1
  %16 = mul i32 %13, %15
  %17 = urem i32 %16, 2
  %18 = icmp eq i32 %17, 0
  %19 = icmp slt i32 %14, 10
  %20 = or i1 %18, %19
  br i1 %20, label %21, label %22

; <label>:21:                                     ; preds = %10
  ret void

; <label>:22:                                     ; preds = %10, %1
  %23 = alloca %"class.__gnu_cxx::new_allocator"*, align 8
  store %"class.__gnu_cxx::new_allocator"* %0, %"class.__gnu_cxx::new_allocator"** %23, align 8
  %24 = load %"class.__gnu_cxx::new_allocator"*, %"class.__gnu_cxx::new_allocator"** %23, align 8
  br label %10
}

; Function Attrs: noinline nounwind uwtable
define linkonce_odr i64 @_ZNSt9__cxx199816__deque_buf_sizeEm(i64) #5 comdat {
  %2 = load i32, i32* @x.153
  %3 = load i32, i32* @y.154
  %4 = sub i32 %2, 1
  %5 = mul i32 %2, %4
  %6 = urem i32 %5, 2
  %7 = icmp eq i32 %6, 0
  %8 = icmp slt i32 %3, 10
  %9 = or i1 %7, %8
  br i1 %9, label %10, label %47

; <label>:10:                                     ; preds = %1, %47
  %11 = alloca i64, align 8
  store i64 %0, i64* %11, align 8
  %12 = load i64, i64* %11, align 8
  %13 = icmp ult i64 %12, 512
  %14 = load i32, i32* @x.153
  %15 = load i32, i32* @y.154
  %16 = sub i32 %14, 1
  %17 = mul i32 %14, %16
  %18 = urem i32 %17, 2
  %19 = icmp eq i32 %18, 0
  %20 = icmp slt i32 %15, 10
  %21 = or i1 %19, %20
  br i1 %21, label %22, label %47

; <label>:22:                                     ; preds = %10
  br i1 %13, label %23, label %26

; <label>:23:                                     ; preds = %22
  %24 = load i64, i64* %11, align 8
  %25 = udiv i64 512, %24
  br label %45

; <label>:26:                                     ; preds = %22
  %27 = load i32, i32* @x.153
  %28 = load i32, i32* @y.154
  %29 = sub i32 %27, 1
  %30 = mul i32 %27, %29
  %31 = urem i32 %30, 2
  %32 = icmp eq i32 %31, 0
  %33 = icmp slt i32 %28, 10
  %34 = or i1 %32, %33
  br i1 %34, label %35, label %51

; <label>:35:                                     ; preds = %26, %51
  %36 = load i32, i32* @x.153
  %37 = load i32, i32* @y.154
  %38 = sub i32 %36, 1
  %39 = mul i32 %36, %38
  %40 = urem i32 %39, 2
  %41 = icmp eq i32 %40, 0
  %42 = icmp slt i32 %37, 10
  %43 = or i1 %41, %42
  br i1 %43, label %44, label %51

; <label>:44:                                     ; preds = %35
  br label %45

; <label>:45:                                     ; preds = %44, %23
  %46 = phi i64 [ %25, %23 ], [ 1, %44 ]
  ret i64 %46

; <label>:47:                                     ; preds = %10, %1
  %48 = alloca i64, align 8
  store i64 %0, i64* %48, align 8
  %49 = load i64, i64* %48, align 8
  %50 = icmp ult i64 %49, 512
  br label %10

; <label>:51:                                     ; preds = %35, %26
  br label %35
}

; Function Attrs: noinline nounwind uwtable
define linkonce_odr dereferenceable(8) i64* @_ZSt3maxImERKT_S2_S2_(i64* dereferenceable(8), i64* dereferenceable(8)) #5 comdat {
  %3 = alloca i64*, align 8
  %4 = alloca i64*, align 8
  %5 = alloca i64*, align 8
  store i64* %0, i64** %4, align 8
  store i64* %1, i64** %5, align 8
  %6 = load i64*, i64** %4, align 8
  %7 = load i64, i64* %6, align 8
  %8 = load i64*, i64** %5, align 8
  %9 = load i64, i64* %8, align 8
  %10 = icmp ult i64 %7, %9
  br i1 %10, label %11, label %31

; <label>:11:                                     ; preds = %2
  %12 = load i32, i32* @x.155
  %13 = load i32, i32* @y.156
  %14 = sub i32 %12, 1
  %15 = mul i32 %12, %14
  %16 = urem i32 %15, 2
  %17 = icmp eq i32 %16, 0
  %18 = icmp slt i32 %13, 10
  %19 = or i1 %17, %18
  br i1 %19, label %20, label %71

; <label>:20:                                     ; preds = %11, %71
  %21 = load i64*, i64** %5, align 8
  store i64* %21, i64** %3, align 8
  %22 = load i32, i32* @x.155
  %23 = load i32, i32* @y.156
  %24 = sub i32 %22, 1
  %25 = mul i32 %22, %24
  %26 = urem i32 %25, 2
  %27 = icmp eq i32 %26, 0
  %28 = icmp slt i32 %23, 10
  %29 = or i1 %27, %28
  br i1 %29, label %30, label %71

; <label>:30:                                     ; preds = %20
  br label %51

; <label>:31:                                     ; preds = %2
  %32 = load i32, i32* @x.155
  %33 = load i32, i32* @y.156
  %34 = sub i32 %32, 1
  %35 = mul i32 %32, %34
  %36 = urem i32 %35, 2
  %37 = icmp eq i32 %36, 0
  %38 = icmp slt i32 %33, 10
  %39 = or i1 %37, %38
  br i1 %39, label %40, label %73

; <label>:40:                                     ; preds = %31, %73
  %41 = load i64*, i64** %4, align 8
  store i64* %41, i64** %3, align 8
  %42 = load i32, i32* @x.155
  %43 = load i32, i32* @y.156
  %44 = sub i32 %42, 1
  %45 = mul i32 %42, %44
  %46 = urem i32 %45, 2
  %47 = icmp eq i32 %46, 0
  %48 = icmp slt i32 %43, 10
  %49 = or i1 %47, %48
  br i1 %49, label %50, label %73

; <label>:50:                                     ; preds = %40
  br label %51

; <label>:51:                                     ; preds = %50, %30
  %52 = load i32, i32* @x.155
  %53 = load i32, i32* @y.156
  %54 = sub i32 %52, 1
  %55 = mul i32 %52, %54
  %56 = urem i32 %55, 2
  %57 = icmp eq i32 %56, 0
  %58 = icmp slt i32 %53, 10
  %59 = or i1 %57, %58
  br i1 %59, label %60, label %75

; <label>:60:                                     ; preds = %51, %75
  %61 = load i64*, i64** %3, align 8
  %62 = load i32, i32* @x.155
  %63 = load i32, i32* @y.156
  %64 = sub i32 %62, 1
  %65 = mul i32 %62, %64
  %66 = urem i32 %65, 2
  %67 = icmp eq i32 %66, 0
  %68 = icmp slt i32 %63, 10
  %69 = or i1 %67, %68
  br i1 %69, label %70, label %75

; <label>:70:                                     ; preds = %60
  ret i64* %61

; <label>:71:                                     ; preds = %20, %11
  %72 = load i64*, i64** %5, align 8
  store i64* %72, i64** %3, align 8
  br label %20

; <label>:73:                                     ; preds = %40, %31
  %74 = load i64*, i64** %4, align 8
  store i64* %74, i64** %3, align 8
  br label %40

; <label>:75:                                     ; preds = %60, %51
  %76 = load i64*, i64** %3, align 8
  br label %60
}

; Function Attrs: noinline uwtable
define linkonce_odr i32** @_ZNSt9__cxx199811_Deque_baseIiSaIiEE15_M_allocate_mapEm(%"class.std::__cxx1998::_Deque_base"*, i64) #0 comdat align 2 personality i8* bitcast (i32 (...)* @__gxx_personality_v0 to i8*) {
  %3 = alloca %"class.std::__cxx1998::_Deque_base"*, align 8
  %4 = alloca i64, align 8
  %5 = alloca %"class.std::allocator.39", align 1
  %6 = alloca i8*
  %7 = alloca i32
  store %"class.std::__cxx1998::_Deque_base"* %0, %"class.std::__cxx1998::_Deque_base"** %3, align 8
  store i64 %1, i64* %4, align 8
  %8 = load %"class.std::__cxx1998::_Deque_base"*, %"class.std::__cxx1998::_Deque_base"** %3, align 8
  call void @_ZNKSt9__cxx199811_Deque_baseIiSaIiEE20_M_get_map_allocatorEv(%"class.std::allocator.39"* sret %5, %"class.std::__cxx1998::_Deque_base"* %8) #3
  %9 = load i64, i64* %4, align 8
  %10 = invoke i32** @_ZNSt16allocator_traitsISaIPiEE8allocateERS1_m(%"class.std::allocator.39"* dereferenceable(1) %5, i64 %9)
          to label %11 unwind label %12

; <label>:11:                                     ; preds = %2
  call void @_ZNSaIPiED2Ev(%"class.std::allocator.39"* %5) #3
  ret i32** %10

; <label>:12:                                     ; preds = %2
  %13 = landingpad { i8*, i32 }
          cleanup
  %14 = extractvalue { i8*, i32 } %13, 0
  store i8* %14, i8** %6, align 8
  %15 = extractvalue { i8*, i32 } %13, 1
  store i32 %15, i32* %7, align 4
  call void @_ZNSaIPiED2Ev(%"class.std::allocator.39"* %5) #3
  br label %16

; <label>:16:                                     ; preds = %12
  %17 = load i8*, i8** %6, align 8
  %18 = load i32, i32* %7, align 4
  %19 = insertvalue { i8*, i32 } undef, i8* %17, 0
  %20 = insertvalue { i8*, i32 } %19, i32 %18, 1
  resume { i8*, i32 } %20
}

; Function Attrs: noinline uwtable
define linkonce_odr void @_ZNSt9__cxx199811_Deque_baseIiSaIiEE15_M_create_nodesEPPiS4_(%"class.std::__cxx1998::_Deque_base"*, i32**, i32**) #0 comdat align 2 personality i8* bitcast (i32 (...)* @__gxx_personality_v0 to i8*) {
  %4 = load i32, i32* @x.159
  %5 = load i32, i32* @y.160
  %6 = sub i32 %4, 1
  %7 = mul i32 %4, %6
  %8 = urem i32 %7, 2
  %9 = icmp eq i32 %8, 0
  %10 = icmp slt i32 %5, 10
  %11 = or i1 %9, %10
  br i1 %11, label %12, label %156

; <label>:12:                                     ; preds = %3, %156
  %13 = alloca %"class.std::__cxx1998::_Deque_base"*, align 8
  %14 = alloca i32**, align 8
  %15 = alloca i32**, align 8
  %16 = alloca i32**, align 8
  %17 = alloca i8*
  %18 = alloca i32
  store %"class.std::__cxx1998::_Deque_base"* %0, %"class.std::__cxx1998::_Deque_base"** %13, align 8
  store i32** %1, i32*** %14, align 8
  store i32** %2, i32*** %15, align 8
  %19 = load %"class.std::__cxx1998::_Deque_base"*, %"class.std::__cxx1998::_Deque_base"** %13, align 8
  %20 = load i32**, i32*** %14, align 8
  store i32** %20, i32*** %16, align 8
  %21 = load i32, i32* @x.159
  %22 = load i32, i32* @y.160
  %23 = sub i32 %21, 1
  %24 = mul i32 %21, %23
  %25 = urem i32 %24, 2
  %26 = icmp eq i32 %25, 0
  %27 = icmp slt i32 %22, 10
  %28 = or i1 %26, %27
  br i1 %28, label %29, label %156

; <label>:29:                                     ; preds = %12
  br label %30

; <label>:30:                                     ; preds = %76, %29
  %31 = load i32**, i32*** %16, align 8
  %32 = load i32**, i32*** %15, align 8
  %33 = icmp ult i32** %31, %32
  br i1 %33, label %34, label %86

; <label>:34:                                     ; preds = %30
  %35 = invoke i32* @_ZNSt9__cxx199811_Deque_baseIiSaIiEE16_M_allocate_nodeEv(%"class.std::__cxx1998::_Deque_base"* %19)
          to label %36 unwind label %77

; <label>:36:                                     ; preds = %34
  %37 = load i32, i32* @x.159
  %38 = load i32, i32* @y.160
  %39 = sub i32 %37, 1
  %40 = mul i32 %37, %39
  %41 = urem i32 %40, 2
  %42 = icmp eq i32 %41, 0
  %43 = icmp slt i32 %38, 10
  %44 = or i1 %42, %43
  br i1 %44, label %45, label %165

; <label>:45:                                     ; preds = %36, %165
  %46 = load i32**, i32*** %16, align 8
  store i32* %35, i32** %46, align 8
  %47 = load i32, i32* @x.159
  %48 = load i32, i32* @y.160
  %49 = sub i32 %47, 1
  %50 = mul i32 %47, %49
  %51 = urem i32 %50, 2
  %52 = icmp eq i32 %51, 0
  %53 = icmp slt i32 %48, 10
  %54 = or i1 %52, %53
  br i1 %54, label %55, label %165

; <label>:55:                                     ; preds = %45
  br label %56

; <label>:56:                                     ; preds = %55
  %57 = load i32, i32* @x.159
  %58 = load i32, i32* @y.160
  %59 = sub i32 %57, 1
  %60 = mul i32 %57, %59
  %61 = urem i32 %60, 2
  %62 = icmp eq i32 %61, 0
  %63 = icmp slt i32 %58, 10
  %64 = or i1 %62, %63
  br i1 %64, label %65, label %167

; <label>:65:                                     ; preds = %56, %167
  %66 = load i32**, i32*** %16, align 8
  %67 = getelementptr inbounds i32*, i32** %66, i32 1
  store i32** %67, i32*** %16, align 8
  %68 = load i32, i32* @x.159
  %69 = load i32, i32* @y.160
  %70 = sub i32 %68, 1
  %71 = mul i32 %68, %70
  %72 = urem i32 %71, 2
  %73 = icmp eq i32 %72, 0
  %74 = icmp slt i32 %69, 10
  %75 = or i1 %73, %74
  br i1 %75, label %76, label %167

; <label>:76:                                     ; preds = %65
  br label %30

; <label>:77:                                     ; preds = %34
  %78 = landingpad { i8*, i32 }
          catch i8* null
  %79 = extractvalue { i8*, i32 } %78, 0
  store i8* %79, i8** %17, align 8
  %80 = extractvalue { i8*, i32 } %78, 1
  store i32 %80, i32* %18, align 4
  br label %81

; <label>:81:                                     ; preds = %77
  %82 = load i8*, i8** %17, align 8
  %83 = call i8* @__cxa_begin_catch(i8* %82) #3
  %84 = load i32**, i32*** %14, align 8
  %85 = load i32**, i32*** %16, align 8
  call void @_ZNSt9__cxx199811_Deque_baseIiSaIiEE16_M_destroy_nodesEPPiS4_(%"class.std::__cxx1998::_Deque_base"* %19, i32** %84, i32** %85) #3
  invoke void @__cxa_rethrow() #14
          to label %155 unwind label %87

; <label>:86:                                     ; preds = %30
  br label %110

; <label>:87:                                     ; preds = %81
  %88 = landingpad { i8*, i32 }
          cleanup
  %89 = extractvalue { i8*, i32 } %88, 0
  store i8* %89, i8** %17, align 8
  %90 = extractvalue { i8*, i32 } %88, 1
  store i32 %90, i32* %18, align 4
  invoke void @__cxa_end_catch()
          to label %91 unwind label %134

; <label>:91:                                     ; preds = %87
  %92 = load i32, i32* @x.159
  %93 = load i32, i32* @y.160
  %94 = sub i32 %92, 1
  %95 = mul i32 %92, %94
  %96 = urem i32 %95, 2
  %97 = icmp eq i32 %96, 0
  %98 = icmp slt i32 %93, 10
  %99 = or i1 %97, %98
  br i1 %99, label %100, label %170

; <label>:100:                                    ; preds = %91, %170
  %101 = load i32, i32* @x.159
  %102 = load i32, i32* @y.160
  %103 = sub i32 %101, 1
  %104 = mul i32 %101, %103
  %105 = urem i32 %104, 2
  %106 = icmp eq i32 %105, 0
  %107 = icmp slt i32 %102, 10
  %108 = or i1 %106, %107
  br i1 %108, label %109, label %170

; <label>:109:                                    ; preds = %100
  br label %111

; <label>:110:                                    ; preds = %86
  ret void

; <label>:111:                                    ; preds = %109
  %112 = load i32, i32* @x.159
  %113 = load i32, i32* @y.160
  %114 = sub i32 %112, 1
  %115 = mul i32 %112, %114
  %116 = urem i32 %115, 2
  %117 = icmp eq i32 %116, 0
  %118 = icmp slt i32 %113, 10
  %119 = or i1 %117, %118
  br i1 %119, label %120, label %171

; <label>:120:                                    ; preds = %111, %171
  %121 = load i8*, i8** %17, align 8
  %122 = load i32, i32* %18, align 4
  %123 = insertvalue { i8*, i32 } undef, i8* %121, 0
  %124 = insertvalue { i8*, i32 } %123, i32 %122, 1
  %125 = load i32, i32* @x.159
  %126 = load i32, i32* @y.160
  %127 = sub i32 %125, 1
  %128 = mul i32 %125, %127
  %129 = urem i32 %128, 2
  %130 = icmp eq i32 %129, 0
  %131 = icmp slt i32 %126, 10
  %132 = or i1 %130, %131
  br i1 %132, label %133, label %171

; <label>:133:                                    ; preds = %120
  resume { i8*, i32 } %124

; <label>:134:                                    ; preds = %87
  %135 = load i32, i32* @x.159
  %136 = load i32, i32* @y.160
  %137 = sub i32 %135, 1
  %138 = mul i32 %135, %137
  %139 = urem i32 %138, 2
  %140 = icmp eq i32 %139, 0
  %141 = icmp slt i32 %136, 10
  %142 = or i1 %140, %141
  br i1 %142, label %143, label %176

; <label>:143:                                    ; preds = %134, %176
  %144 = landingpad { i8*, i32 }
          catch i8* null
  %145 = extractvalue { i8*, i32 } %144, 0
  call void @__clang_call_terminate(i8* %145) #13
  %146 = load i32, i32* @x.159
  %147 = load i32, i32* @y.160
  %148 = sub i32 %146, 1
  %149 = mul i32 %146, %148
  %150 = urem i32 %149, 2
  %151 = icmp eq i32 %150, 0
  %152 = icmp slt i32 %147, 10
  %153 = or i1 %151, %152
  br i1 %153, label %154, label %176

; <label>:154:                                    ; preds = %143
  unreachable

; <label>:155:                                    ; preds = %81
  unreachable

; <label>:156:                                    ; preds = %12, %3
  %157 = alloca %"class.std::__cxx1998::_Deque_base"*, align 8
  %158 = alloca i32**, align 8
  %159 = alloca i32**, align 8
  %160 = alloca i32**, align 8
  %161 = alloca i8*
  %162 = alloca i32
  store %"class.std::__cxx1998::_Deque_base"* %0, %"class.std::__cxx1998::_Deque_base"** %157, align 8
  store i32** %1, i32*** %158, align 8
  store i32** %2, i32*** %159, align 8
  %163 = load %"class.std::__cxx1998::_Deque_base"*, %"class.std::__cxx1998::_Deque_base"** %157, align 8
  %164 = load i32**, i32*** %158, align 8
  store i32** %164, i32*** %160, align 8
  br label %12

; <label>:165:                                    ; preds = %45, %36
  %166 = load i32**, i32*** %16, align 8
  store i32* %35, i32** %166, align 8
  br label %45

; <label>:167:                                    ; preds = %65, %56
  %168 = load i32**, i32*** %16, align 8
  %169 = getelementptr inbounds i32*, i32** %168, i32 1
  store i32** %169, i32*** %16, align 8
  br label %65

; <label>:170:                                    ; preds = %100, %91
  br label %100

; <label>:171:                                    ; preds = %120, %111
  %172 = load i8*, i8** %17, align 8
  %173 = load i32, i32* %18, align 4
  %174 = insertvalue { i8*, i32 } undef, i8* %172, 0
  %175 = insertvalue { i8*, i32 } %174, i32 %173, 1
  br label %120

; <label>:176:                                    ; preds = %143, %134
  %177 = landingpad { i8*, i32 }
          catch i8* null
  %178 = extractvalue { i8*, i32 } %177, 0
  call void @__clang_call_terminate(i8* %178) #13
  br label %143
}

; Function Attrs: noinline nounwind uwtable
define linkonce_odr void @_ZNSt9__cxx199811_Deque_baseIiSaIiEE17_M_deallocate_mapEPPim(%"class.std::__cxx1998::_Deque_base"*, i32**, i64) #5 comdat align 2 personality i8* bitcast (i32 (...)* @__gxx_personality_v0 to i8*) {
  %4 = load i32, i32* @x.161
  %5 = load i32, i32* @y.162
  %6 = sub i32 %4, 1
  %7 = mul i32 %4, %6
  %8 = urem i32 %7, 2
  %9 = icmp eq i32 %8, 0
  %10 = icmp slt i32 %5, 10
  %11 = or i1 %9, %10
  br i1 %11, label %12, label %56

; <label>:12:                                     ; preds = %3, %56
  %13 = alloca %"class.std::__cxx1998::_Deque_base"*, align 8
  %14 = alloca i32**, align 8
  %15 = alloca i64, align 8
  %16 = alloca %"class.std::allocator.39", align 1
  %17 = alloca i8*
  %18 = alloca i32
  store %"class.std::__cxx1998::_Deque_base"* %0, %"class.std::__cxx1998::_Deque_base"** %13, align 8
  store i32** %1, i32*** %14, align 8
  store i64 %2, i64* %15, align 8
  %19 = load %"class.std::__cxx1998::_Deque_base"*, %"class.std::__cxx1998::_Deque_base"** %13, align 8
  call void @_ZNKSt9__cxx199811_Deque_baseIiSaIiEE20_M_get_map_allocatorEv(%"class.std::allocator.39"* sret %16, %"class.std::__cxx1998::_Deque_base"* %19) #3
  %20 = load i32**, i32*** %14, align 8
  %21 = load i64, i64* %15, align 8
  %22 = load i32, i32* @x.161
  %23 = load i32, i32* @y.162
  %24 = sub i32 %22, 1
  %25 = mul i32 %22, %24
  %26 = urem i32 %25, 2
  %27 = icmp eq i32 %26, 0
  %28 = icmp slt i32 %23, 10
  %29 = or i1 %27, %28
  br i1 %29, label %30, label %56

; <label>:30:                                     ; preds = %12
  invoke void @_ZNSt16allocator_traitsISaIPiEE10deallocateERS1_PS0_m(%"class.std::allocator.39"* dereferenceable(1) %16, i32** %20, i64 %21)
          to label %31 unwind label %50

; <label>:31:                                     ; preds = %30
  %32 = load i32, i32* @x.161
  %33 = load i32, i32* @y.162
  %34 = sub i32 %32, 1
  %35 = mul i32 %32, %34
  %36 = urem i32 %35, 2
  %37 = icmp eq i32 %36, 0
  %38 = icmp slt i32 %33, 10
  %39 = or i1 %37, %38
  br i1 %39, label %40, label %66

; <label>:40:                                     ; preds = %31, %66
  call void @_ZNSaIPiED2Ev(%"class.std::allocator.39"* %16) #3
  %41 = load i32, i32* @x.161
  %42 = load i32, i32* @y.162
  %43 = sub i32 %41, 1
  %44 = mul i32 %41, %43
  %45 = urem i32 %44, 2
  %46 = icmp eq i32 %45, 0
  %47 = icmp slt i32 %42, 10
  %48 = or i1 %46, %47
  br i1 %48, label %49, label %66

; <label>:49:                                     ; preds = %40
  ret void

; <label>:50:                                     ; preds = %30
  %51 = landingpad { i8*, i32 }
          catch i8* null
  %52 = extractvalue { i8*, i32 } %51, 0
  store i8* %52, i8** %17, align 8
  %53 = extractvalue { i8*, i32 } %51, 1
  store i32 %53, i32* %18, align 4
  call void @_ZNSaIPiED2Ev(%"class.std::allocator.39"* %16) #3
  br label %54

; <label>:54:                                     ; preds = %50
  %55 = load i8*, i8** %17, align 8
  call void @__clang_call_terminate(i8* %55) #13
  unreachable

; <label>:56:                                     ; preds = %12, %3
  %57 = alloca %"class.std::__cxx1998::_Deque_base"*, align 8
  %58 = alloca i32**, align 8
  %59 = alloca i64, align 8
  %60 = alloca %"class.std::allocator.39", align 1
  %61 = alloca i8*
  %62 = alloca i32
  store %"class.std::__cxx1998::_Deque_base"* %0, %"class.std::__cxx1998::_Deque_base"** %57, align 8
  store i32** %1, i32*** %58, align 8
  store i64 %2, i64* %59, align 8
  %63 = load %"class.std::__cxx1998::_Deque_base"*, %"class.std::__cxx1998::_Deque_base"** %57, align 8
  call void @_ZNKSt9__cxx199811_Deque_baseIiSaIiEE20_M_get_map_allocatorEv(%"class.std::allocator.39"* sret %60, %"class.std::__cxx1998::_Deque_base"* %63) #3
  %64 = load i32**, i32*** %58, align 8
  %65 = load i64, i64* %59, align 8
  br label %12

; <label>:66:                                     ; preds = %40, %31
  call void @_ZNSaIPiED2Ev(%"class.std::allocator.39"* %16) #3
  br label %40
}

declare void @__cxa_rethrow()

declare void @__cxa_end_catch()

; Function Attrs: noinline nounwind uwtable
define linkonce_odr void @_ZNSt9__cxx199815_Deque_iteratorIiRiPiE11_M_set_nodeEPS2_(%"struct.std::__cxx1998::_Deque_iterator"*, i32**) #5 comdat align 2 {
  %3 = alloca %"struct.std::__cxx1998::_Deque_iterator"*, align 8
  %4 = alloca i32**, align 8
  store %"struct.std::__cxx1998::_Deque_iterator"* %0, %"struct.std::__cxx1998::_Deque_iterator"** %3, align 8
  store i32** %1, i32*** %4, align 8
  %5 = load %"struct.std::__cxx1998::_Deque_iterator"*, %"struct.std::__cxx1998::_Deque_iterator"** %3, align 8
  %6 = load i32**, i32*** %4, align 8
  %7 = getelementptr inbounds %"struct.std::__cxx1998::_Deque_iterator", %"struct.std::__cxx1998::_Deque_iterator"* %5, i32 0, i32 3
  store i32** %6, i32*** %7, align 8
  %8 = load i32**, i32*** %4, align 8
  %9 = load i32*, i32** %8, align 8
  %10 = getelementptr inbounds %"struct.std::__cxx1998::_Deque_iterator", %"struct.std::__cxx1998::_Deque_iterator"* %5, i32 0, i32 1
  store i32* %9, i32** %10, align 8
  %11 = getelementptr inbounds %"struct.std::__cxx1998::_Deque_iterator", %"struct.std::__cxx1998::_Deque_iterator"* %5, i32 0, i32 1
  %12 = load i32*, i32** %11, align 8
  %13 = call i64 @_ZNSt9__cxx199815_Deque_iteratorIiRiPiE14_S_buffer_sizeEv() #3
  %14 = getelementptr inbounds i32, i32* %12, i64 %13
  %15 = getelementptr inbounds %"struct.std::__cxx1998::_Deque_iterator", %"struct.std::__cxx1998::_Deque_iterator"* %5, i32 0, i32 2
  store i32* %14, i32** %15, align 8
  ret void
}

; Function Attrs: noinline nounwind uwtable
define linkonce_odr void @_ZNKSt9__cxx199811_Deque_baseIiSaIiEE20_M_get_map_allocatorEv(%"class.std::allocator.39"* noalias sret, %"class.std::__cxx1998::_Deque_base"*) #5 comdat align 2 {
  %3 = alloca %"class.std::__cxx1998::_Deque_base"*, align 8
  store %"class.std::__cxx1998::_Deque_base"* %1, %"class.std::__cxx1998::_Deque_base"** %3, align 8
  %4 = load %"class.std::__cxx1998::_Deque_base"*, %"class.std::__cxx1998::_Deque_base"** %3, align 8
  %5 = call dereferenceable(1) %"class.std::allocator"* @_ZNKSt9__cxx199811_Deque_baseIiSaIiEE19_M_get_Tp_allocatorEv(%"class.std::__cxx1998::_Deque_base"* %4) #3
  call void @_ZNSaIPiEC2IiEERKSaIT_E(%"class.std::allocator.39"* %0, %"class.std::allocator"* dereferenceable(1) %5) #3
  ret void
}

; Function Attrs: noinline uwtable
define linkonce_odr i32** @_ZNSt16allocator_traitsISaIPiEE8allocateERS1_m(%"class.std::allocator.39"* dereferenceable(1), i64) #0 comdat align 2 {
  %3 = alloca %"class.std::allocator.39"*, align 8
  %4 = alloca i64, align 8
  store %"class.std::allocator.39"* %0, %"class.std::allocator.39"** %3, align 8
  store i64 %1, i64* %4, align 8
  %5 = load %"class.std::allocator.39"*, %"class.std::allocator.39"** %3, align 8
  %6 = bitcast %"class.std::allocator.39"* %5 to %"class.__gnu_cxx::new_allocator.40"*
  %7 = load i64, i64* %4, align 8
  %8 = call i32** @_ZN9__gnu_cxx13new_allocatorIPiE8allocateEmPKv(%"class.__gnu_cxx::new_allocator.40"* %6, i64 %7, i8* null)
  ret i32** %8
}

; Function Attrs: noinline nounwind uwtable
define linkonce_odr void @_ZNSaIPiED2Ev(%"class.std::allocator.39"*) unnamed_addr #5 comdat align 2 {
  %2 = alloca %"class.std::allocator.39"*, align 8
  store %"class.std::allocator.39"* %0, %"class.std::allocator.39"** %2, align 8
  %3 = load %"class.std::allocator.39"*, %"class.std::allocator.39"** %2, align 8
  %4 = bitcast %"class.std::allocator.39"* %3 to %"class.__gnu_cxx::new_allocator.40"*
  call void @_ZN9__gnu_cxx13new_allocatorIPiED2Ev(%"class.__gnu_cxx::new_allocator.40"* %4) #3
  ret void
}

; Function Attrs: noinline nounwind uwtable
define linkonce_odr dereferenceable(1) %"class.std::allocator"* @_ZNKSt9__cxx199811_Deque_baseIiSaIiEE19_M_get_Tp_allocatorEv(%"class.std::__cxx1998::_Deque_base"*) #5 comdat align 2 {
  %2 = alloca %"class.std::__cxx1998::_Deque_base"*, align 8
  store %"class.std::__cxx1998::_Deque_base"* %0, %"class.std::__cxx1998::_Deque_base"** %2, align 8
  %3 = load %"class.std::__cxx1998::_Deque_base"*, %"class.std::__cxx1998::_Deque_base"** %2, align 8
  %4 = getelementptr inbounds %"class.std::__cxx1998::_Deque_base", %"class.std::__cxx1998::_Deque_base"* %3, i32 0, i32 0
  %5 = bitcast %"struct.std::__cxx1998::_Deque_base<int, std::allocator<int> >::_Deque_impl"* %4 to %"class.std::allocator"*
  ret %"class.std::allocator"* %5
}

; Function Attrs: noinline nounwind uwtable
define linkonce_odr void @_ZNSaIPiEC2IiEERKSaIT_E(%"class.std::allocator.39"*, %"class.std::allocator"* dereferenceable(1)) unnamed_addr #5 comdat align 2 {
  %3 = alloca %"class.std::allocator.39"*, align 8
  %4 = alloca %"class.std::allocator"*, align 8
  store %"class.std::allocator.39"* %0, %"class.std::allocator.39"** %3, align 8
  store %"class.std::allocator"* %1, %"class.std::allocator"** %4, align 8
  %5 = load %"class.std::allocator.39"*, %"class.std::allocator.39"** %3, align 8
  %6 = bitcast %"class.std::allocator.39"* %5 to %"class.__gnu_cxx::new_allocator.40"*
  call void @_ZN9__gnu_cxx13new_allocatorIPiEC2Ev(%"class.__gnu_cxx::new_allocator.40"* %6) #3
  ret void
}

; Function Attrs: noinline nounwind uwtable
define linkonce_odr void @_ZN9__gnu_cxx13new_allocatorIPiEC2Ev(%"class.__gnu_cxx::new_allocator.40"*) unnamed_addr #5 comdat align 2 {
  %2 = alloca %"class.__gnu_cxx::new_allocator.40"*, align 8
  store %"class.__gnu_cxx::new_allocator.40"* %0, %"class.__gnu_cxx::new_allocator.40"** %2, align 8
  %3 = load %"class.__gnu_cxx::new_allocator.40"*, %"class.__gnu_cxx::new_allocator.40"** %2, align 8
  ret void
}

; Function Attrs: noinline uwtable
define linkonce_odr i32** @_ZN9__gnu_cxx13new_allocatorIPiE8allocateEmPKv(%"class.__gnu_cxx::new_allocator.40"*, i64, i8*) #0 comdat align 2 {
  %4 = load i32, i32* @x.177
  %5 = load i32, i32* @y.178
  %6 = sub i32 %4, 1
  %7 = mul i32 %4, %6
  %8 = urem i32 %7, 2
  %9 = icmp eq i32 %8, 0
  %10 = icmp slt i32 %5, 10
  %11 = or i1 %9, %10
  br i1 %11, label %12, label %35

; <label>:12:                                     ; preds = %3, %35
  %13 = alloca %"class.__gnu_cxx::new_allocator.40"*, align 8
  %14 = alloca i64, align 8
  %15 = alloca i8*, align 8
  store %"class.__gnu_cxx::new_allocator.40"* %0, %"class.__gnu_cxx::new_allocator.40"** %13, align 8
  store i64 %1, i64* %14, align 8
  store i8* %2, i8** %15, align 8
  %16 = load %"class.__gnu_cxx::new_allocator.40"*, %"class.__gnu_cxx::new_allocator.40"** %13, align 8
  %17 = load i64, i64* %14, align 8
  %18 = call i64 @_ZNK9__gnu_cxx13new_allocatorIPiE8max_sizeEv(%"class.__gnu_cxx::new_allocator.40"* %16) #3
  %19 = icmp ugt i64 %17, %18
  %20 = load i32, i32* @x.177
  %21 = load i32, i32* @y.178
  %22 = sub i32 %20, 1
  %23 = mul i32 %20, %22
  %24 = urem i32 %23, 2
  %25 = icmp eq i32 %24, 0
  %26 = icmp slt i32 %21, 10
  %27 = or i1 %25, %26
  br i1 %27, label %28, label %35

; <label>:28:                                     ; preds = %12
  br i1 %19, label %29, label %30

; <label>:29:                                     ; preds = %28
  call void @_ZSt17__throw_bad_allocv() #14
  unreachable

; <label>:30:                                     ; preds = %28
  %31 = load i64, i64* %14, align 8
  %32 = mul i64 %31, 8
  %33 = call i8* @_Znwm(i64 %32)
  %34 = bitcast i8* %33 to i32**
  ret i32** %34

; <label>:35:                                     ; preds = %12, %3
  %36 = alloca %"class.__gnu_cxx::new_allocator.40"*, align 8
  %37 = alloca i64, align 8
  %38 = alloca i8*, align 8
  store %"class.__gnu_cxx::new_allocator.40"* %0, %"class.__gnu_cxx::new_allocator.40"** %36, align 8
  store i64 %1, i64* %37, align 8
  store i8* %2, i8** %38, align 8
  %39 = load %"class.__gnu_cxx::new_allocator.40"*, %"class.__gnu_cxx::new_allocator.40"** %36, align 8
  %40 = load i64, i64* %37, align 8
  %41 = call i64 @_ZNK9__gnu_cxx13new_allocatorIPiE8max_sizeEv(%"class.__gnu_cxx::new_allocator.40"* %39) #3
  %42 = icmp ugt i64 %40, %41
  br label %12
}

; Function Attrs: noinline nounwind uwtable
define linkonce_odr i64 @_ZNK9__gnu_cxx13new_allocatorIPiE8max_sizeEv(%"class.__gnu_cxx::new_allocator.40"*) #5 comdat align 2 {
  %2 = alloca %"class.__gnu_cxx::new_allocator.40"*, align 8
  store %"class.__gnu_cxx::new_allocator.40"* %0, %"class.__gnu_cxx::new_allocator.40"** %2, align 8
  %3 = load %"class.__gnu_cxx::new_allocator.40"*, %"class.__gnu_cxx::new_allocator.40"** %2, align 8
  ret i64 2305843009213693951
}

; Function Attrs: noreturn
declare void @_ZSt17__throw_bad_allocv() #9

; Function Attrs: nobuiltin
declare noalias i8* @_Znwm(i64) #10

; Function Attrs: noinline nounwind uwtable
define linkonce_odr void @_ZN9__gnu_cxx13new_allocatorIPiED2Ev(%"class.__gnu_cxx::new_allocator.40"*) unnamed_addr #5 comdat align 2 {
  %2 = alloca %"class.__gnu_cxx::new_allocator.40"*, align 8
  store %"class.__gnu_cxx::new_allocator.40"* %0, %"class.__gnu_cxx::new_allocator.40"** %2, align 8
  %3 = load %"class.__gnu_cxx::new_allocator.40"*, %"class.__gnu_cxx::new_allocator.40"** %2, align 8
  ret void
}

; Function Attrs: noinline uwtable
define linkonce_odr i32* @_ZNSt9__cxx199811_Deque_baseIiSaIiEE16_M_allocate_nodeEv(%"class.std::__cxx1998::_Deque_base"*) #0 comdat align 2 {
  %2 = alloca %"class.std::__cxx1998::_Deque_base"*, align 8
  store %"class.std::__cxx1998::_Deque_base"* %0, %"class.std::__cxx1998::_Deque_base"** %2, align 8
  %3 = load %"class.std::__cxx1998::_Deque_base"*, %"class.std::__cxx1998::_Deque_base"** %2, align 8
  %4 = getelementptr inbounds %"class.std::__cxx1998::_Deque_base", %"class.std::__cxx1998::_Deque_base"* %3, i32 0, i32 0
  %5 = bitcast %"struct.std::__cxx1998::_Deque_base<int, std::allocator<int> >::_Deque_impl"* %4 to %"class.std::allocator"*
  %6 = call i64 @_ZNSt9__cxx199816__deque_buf_sizeEm(i64 4)
  %7 = call i32* @_ZNSt16allocator_traitsISaIiEE8allocateERS0_m(%"class.std::allocator"* dereferenceable(1) %5, i64 %6)
  ret i32* %7
}

; Function Attrs: noinline nounwind uwtable
define linkonce_odr void @_ZNSt9__cxx199811_Deque_baseIiSaIiEE16_M_destroy_nodesEPPiS4_(%"class.std::__cxx1998::_Deque_base"*, i32**, i32**) #5 comdat align 2 {
  %4 = alloca %"class.std::__cxx1998::_Deque_base"*, align 8
  %5 = alloca i32**, align 8
  %6 = alloca i32**, align 8
  %7 = alloca i32**, align 8
  store %"class.std::__cxx1998::_Deque_base"* %0, %"class.std::__cxx1998::_Deque_base"** %4, align 8
  store i32** %1, i32*** %5, align 8
  store i32** %2, i32*** %6, align 8
  %8 = load %"class.std::__cxx1998::_Deque_base"*, %"class.std::__cxx1998::_Deque_base"** %4, align 8
  %9 = load i32**, i32*** %5, align 8
  store i32** %9, i32*** %7, align 8
  br label %10

; <label>:10:                                     ; preds = %35, %3
  %11 = load i32**, i32*** %7, align 8
  %12 = load i32**, i32*** %6, align 8
  %13 = icmp ult i32** %11, %12
  br i1 %13, label %14, label %38

; <label>:14:                                     ; preds = %10
  %15 = load i32, i32* @x.185
  %16 = load i32, i32* @y.186
  %17 = sub i32 %15, 1
  %18 = mul i32 %15, %17
  %19 = urem i32 %18, 2
  %20 = icmp eq i32 %19, 0
  %21 = icmp slt i32 %16, 10
  %22 = or i1 %20, %21
  br i1 %22, label %23, label %39

; <label>:23:                                     ; preds = %14, %39
  %24 = load i32**, i32*** %7, align 8
  %25 = load i32*, i32** %24, align 8
  call void @_ZNSt9__cxx199811_Deque_baseIiSaIiEE18_M_deallocate_nodeEPi(%"class.std::__cxx1998::_Deque_base"* %8, i32* %25) #3
  %26 = load i32, i32* @x.185
  %27 = load i32, i32* @y.186
  %28 = sub i32 %26, 1
  %29 = mul i32 %26, %28
  %30 = urem i32 %29, 2
  %31 = icmp eq i32 %30, 0
  %32 = icmp slt i32 %27, 10
  %33 = or i1 %31, %32
  br i1 %33, label %34, label %39

; <label>:34:                                     ; preds = %23
  br label %35

; <label>:35:                                     ; preds = %34
  %36 = load i32**, i32*** %7, align 8
  %37 = getelementptr inbounds i32*, i32** %36, i32 1
  store i32** %37, i32*** %7, align 8
  br label %10

; <label>:38:                                     ; preds = %10
  ret void

; <label>:39:                                     ; preds = %23, %14
  %40 = load i32**, i32*** %7, align 8
  %41 = load i32*, i32** %40, align 8
  call void @_ZNSt9__cxx199811_Deque_baseIiSaIiEE18_M_deallocate_nodeEPi(%"class.std::__cxx1998::_Deque_base"* %8, i32* %41) #3
  br label %23
}

; Function Attrs: noinline uwtable
define linkonce_odr i32* @_ZNSt16allocator_traitsISaIiEE8allocateERS0_m(%"class.std::allocator"* dereferenceable(1), i64) #0 comdat align 2 {
  %3 = alloca %"class.std::allocator"*, align 8
  %4 = alloca i64, align 8
  store %"class.std::allocator"* %0, %"class.std::allocator"** %3, align 8
  store i64 %1, i64* %4, align 8
  %5 = load %"class.std::allocator"*, %"class.std::allocator"** %3, align 8
  %6 = bitcast %"class.std::allocator"* %5 to %"class.__gnu_cxx::new_allocator"*
  %7 = load i64, i64* %4, align 8
  %8 = call i32* @_ZN9__gnu_cxx13new_allocatorIiE8allocateEmPKv(%"class.__gnu_cxx::new_allocator"* %6, i64 %7, i8* null)
  ret i32* %8
}

; Function Attrs: noinline uwtable
define linkonce_odr i32* @_ZN9__gnu_cxx13new_allocatorIiE8allocateEmPKv(%"class.__gnu_cxx::new_allocator"*, i64, i8*) #0 comdat align 2 {
  %4 = alloca %"class.__gnu_cxx::new_allocator"*, align 8
  %5 = alloca i64, align 8
  %6 = alloca i8*, align 8
  store %"class.__gnu_cxx::new_allocator"* %0, %"class.__gnu_cxx::new_allocator"** %4, align 8
  store i64 %1, i64* %5, align 8
  store i8* %2, i8** %6, align 8
  %7 = load %"class.__gnu_cxx::new_allocator"*, %"class.__gnu_cxx::new_allocator"** %4, align 8
  %8 = load i64, i64* %5, align 8
  %9 = call i64 @_ZNK9__gnu_cxx13new_allocatorIiE8max_sizeEv(%"class.__gnu_cxx::new_allocator"* %7) #3
  %10 = icmp ugt i64 %8, %9
  br i1 %10, label %11, label %30

; <label>:11:                                     ; preds = %3
  %12 = load i32, i32* @x.189
  %13 = load i32, i32* @y.190
  %14 = sub i32 %12, 1
  %15 = mul i32 %12, %14
  %16 = urem i32 %15, 2
  %17 = icmp eq i32 %16, 0
  %18 = icmp slt i32 %13, 10
  %19 = or i1 %17, %18
  br i1 %19, label %20, label %53

; <label>:20:                                     ; preds = %11, %53
  call void @_ZSt17__throw_bad_allocv() #14
  %21 = load i32, i32* @x.189
  %22 = load i32, i32* @y.190
  %23 = sub i32 %21, 1
  %24 = mul i32 %21, %23
  %25 = urem i32 %24, 2
  %26 = icmp eq i32 %25, 0
  %27 = icmp slt i32 %22, 10
  %28 = or i1 %26, %27
  br i1 %28, label %29, label %53

; <label>:29:                                     ; preds = %20
  unreachable

; <label>:30:                                     ; preds = %3
  %31 = load i32, i32* @x.189
  %32 = load i32, i32* @y.190
  %33 = sub i32 %31, 1
  %34 = mul i32 %31, %33
  %35 = urem i32 %34, 2
  %36 = icmp eq i32 %35, 0
  %37 = icmp slt i32 %32, 10
  %38 = or i1 %36, %37
  br i1 %38, label %39, label %54

; <label>:39:                                     ; preds = %30, %54
  %40 = load i64, i64* %5, align 8
  %41 = mul i64 %40, 4
  %42 = call i8* @_Znwm(i64 %41)
  %43 = bitcast i8* %42 to i32*
  %44 = load i32, i32* @x.189
  %45 = load i32, i32* @y.190
  %46 = sub i32 %44, 1
  %47 = mul i32 %44, %46
  %48 = urem i32 %47, 2
  %49 = icmp eq i32 %48, 0
  %50 = icmp slt i32 %45, 10
  %51 = or i1 %49, %50
  br i1 %51, label %52, label %54

; <label>:52:                                     ; preds = %39
  ret i32* %43

; <label>:53:                                     ; preds = %20, %11
  call void @_ZSt17__throw_bad_allocv() #14
  br label %20

; <label>:54:                                     ; preds = %39, %30
  %55 = load i64, i64* %5, align 8
  %56 = shl i64 %55, 4
  %57 = sub i64 0, %55
  %58 = add i64 %57, 4
  %59 = sub i64 %55, 4
  %60 = mul i64 %59, 4
  %61 = shl i64 %55, 4
  %62 = shl i64 %55, 4
  %63 = sub i64 0, %55
  %64 = add i64 %63, 4
  %65 = mul i64 %55, 4
  %66 = call i8* @_Znwm(i64 %65)
  %67 = bitcast i8* %66 to i32*
  br label %39
}

; Function Attrs: noinline nounwind uwtable
define linkonce_odr i64 @_ZNK9__gnu_cxx13new_allocatorIiE8max_sizeEv(%"class.__gnu_cxx::new_allocator"*) #5 comdat align 2 {
  %2 = load i32, i32* @x.191
  %3 = load i32, i32* @y.192
  %4 = sub i32 %2, 1
  %5 = mul i32 %2, %4
  %6 = urem i32 %5, 2
  %7 = icmp eq i32 %6, 0
  %8 = icmp slt i32 %3, 10
  %9 = or i1 %7, %8
  br i1 %9, label %10, label %22

; <label>:10:                                     ; preds = %1, %22
  %11 = alloca %"class.__gnu_cxx::new_allocator"*, align 8
  store %"class.__gnu_cxx::new_allocator"* %0, %"class.__gnu_cxx::new_allocator"** %11, align 8
  %12 = load %"class.__gnu_cxx::new_allocator"*, %"class.__gnu_cxx::new_allocator"** %11, align 8
  %13 = load i32, i32* @x.191
  %14 = load i32, i32* @y.192
  %15 = sub i32 %13, 1
  %16 = mul i32 %13, %15
  %17 = urem i32 %16, 2
  %18 = icmp eq i32 %17, 0
  %19 = icmp slt i32 %14, 10
  %20 = or i1 %18, %19
  br i1 %20, label %21, label %22

; <label>:21:                                     ; preds = %10
  ret i64 4611686018427387903

; <label>:22:                                     ; preds = %10, %1
  %23 = alloca %"class.__gnu_cxx::new_allocator"*, align 8
  store %"class.__gnu_cxx::new_allocator"* %0, %"class.__gnu_cxx::new_allocator"** %23, align 8
  %24 = load %"class.__gnu_cxx::new_allocator"*, %"class.__gnu_cxx::new_allocator"** %23, align 8
  br label %10
}

; Function Attrs: noinline nounwind uwtable
define linkonce_odr void @_ZNSt9__cxx199811_Deque_baseIiSaIiEE18_M_deallocate_nodeEPi(%"class.std::__cxx1998::_Deque_base"*, i32*) #5 comdat align 2 personality i8* bitcast (i32 (...)* @__gxx_personality_v0 to i8*) {
  %3 = alloca %"class.std::__cxx1998::_Deque_base"*, align 8
  %4 = alloca i32*, align 8
  store %"class.std::__cxx1998::_Deque_base"* %0, %"class.std::__cxx1998::_Deque_base"** %3, align 8
  store i32* %1, i32** %4, align 8
  %5 = load %"class.std::__cxx1998::_Deque_base"*, %"class.std::__cxx1998::_Deque_base"** %3, align 8
  %6 = getelementptr inbounds %"class.std::__cxx1998::_Deque_base", %"class.std::__cxx1998::_Deque_base"* %5, i32 0, i32 0
  %7 = bitcast %"struct.std::__cxx1998::_Deque_base<int, std::allocator<int> >::_Deque_impl"* %6 to %"class.std::allocator"*
  %8 = load i32*, i32** %4, align 8
  %9 = invoke i64 @_ZNSt9__cxx199816__deque_buf_sizeEm(i64 4)
          to label %10 unwind label %12

; <label>:10:                                     ; preds = %2
  invoke void @_ZNSt16allocator_traitsISaIiEE10deallocateERS0_Pim(%"class.std::allocator"* dereferenceable(1) %7, i32* %8, i64 %9)
          to label %11 unwind label %12

; <label>:11:                                     ; preds = %10
  ret void

; <label>:12:                                     ; preds = %10, %2
  %13 = load i32, i32* @x.193
  %14 = load i32, i32* @y.194
  %15 = sub i32 %13, 1
  %16 = mul i32 %13, %15
  %17 = urem i32 %16, 2
  %18 = icmp eq i32 %17, 0
  %19 = icmp slt i32 %14, 10
  %20 = or i1 %18, %19
  br i1 %20, label %21, label %33

; <label>:21:                                     ; preds = %12, %33
  %22 = landingpad { i8*, i32 }
          catch i8* null
  %23 = extractvalue { i8*, i32 } %22, 0
  call void @__clang_call_terminate(i8* %23) #13
  %24 = load i32, i32* @x.193
  %25 = load i32, i32* @y.194
  %26 = sub i32 %24, 1
  %27 = mul i32 %24, %26
  %28 = urem i32 %27, 2
  %29 = icmp eq i32 %28, 0
  %30 = icmp slt i32 %25, 10
  %31 = or i1 %29, %30
  br i1 %31, label %32, label %33

; <label>:32:                                     ; preds = %21
  unreachable

; <label>:33:                                     ; preds = %21, %12
  %34 = landingpad { i8*, i32 }
          catch i8* null
  %35 = extractvalue { i8*, i32 } %34, 0
  call void @__clang_call_terminate(i8* %35) #13
  br label %21
}

; Function Attrs: noinline uwtable
define linkonce_odr void @_ZNSt16allocator_traitsISaIPiEE10deallocateERS1_PS0_m(%"class.std::allocator.39"* dereferenceable(1), i32**, i64) #0 comdat align 2 {
  %4 = alloca %"class.std::allocator.39"*, align 8
  %5 = alloca i32**, align 8
  %6 = alloca i64, align 8
  store %"class.std::allocator.39"* %0, %"class.std::allocator.39"** %4, align 8
  store i32** %1, i32*** %5, align 8
  store i64 %2, i64* %6, align 8
  %7 = load %"class.std::allocator.39"*, %"class.std::allocator.39"** %4, align 8
  %8 = bitcast %"class.std::allocator.39"* %7 to %"class.__gnu_cxx::new_allocator.40"*
  %9 = load i32**, i32*** %5, align 8
  %10 = load i64, i64* %6, align 8
  call void @_ZN9__gnu_cxx13new_allocatorIPiE10deallocateEPS1_m(%"class.__gnu_cxx::new_allocator.40"* %8, i32** %9, i64 %10)
  ret void
}

; Function Attrs: noinline nounwind uwtable
define linkonce_odr void @_ZN9__gnu_cxx13new_allocatorIPiE10deallocateEPS1_m(%"class.__gnu_cxx::new_allocator.40"*, i32**, i64) #5 comdat align 2 {
  %4 = load i32, i32* @x.197
  %5 = load i32, i32* @y.198
  %6 = sub i32 %4, 1
  %7 = mul i32 %4, %6
  %8 = urem i32 %7, 2
  %9 = icmp eq i32 %8, 0
  %10 = icmp slt i32 %5, 10
  %11 = or i1 %9, %10
  br i1 %11, label %12, label %28

; <label>:12:                                     ; preds = %3, %28
  %13 = alloca %"class.__gnu_cxx::new_allocator.40"*, align 8
  %14 = alloca i32**, align 8
  %15 = alloca i64, align 8
  store %"class.__gnu_cxx::new_allocator.40"* %0, %"class.__gnu_cxx::new_allocator.40"** %13, align 8
  store i32** %1, i32*** %14, align 8
  store i64 %2, i64* %15, align 8
  %16 = load %"class.__gnu_cxx::new_allocator.40"*, %"class.__gnu_cxx::new_allocator.40"** %13, align 8
  %17 = load i32**, i32*** %14, align 8
  %18 = bitcast i32** %17 to i8*
  call void @_ZdlPv(i8* %18) #3
  %19 = load i32, i32* @x.197
  %20 = load i32, i32* @y.198
  %21 = sub i32 %19, 1
  %22 = mul i32 %19, %21
  %23 = urem i32 %22, 2
  %24 = icmp eq i32 %23, 0
  %25 = icmp slt i32 %20, 10
  %26 = or i1 %24, %25
  br i1 %26, label %27, label %28

; <label>:27:                                     ; preds = %12
  ret void

; <label>:28:                                     ; preds = %12, %3
  %29 = alloca %"class.__gnu_cxx::new_allocator.40"*, align 8
  %30 = alloca i32**, align 8
  %31 = alloca i64, align 8
  store %"class.__gnu_cxx::new_allocator.40"* %0, %"class.__gnu_cxx::new_allocator.40"** %29, align 8
  store i32** %1, i32*** %30, align 8
  store i64 %2, i64* %31, align 8
  %32 = load %"class.__gnu_cxx::new_allocator.40"*, %"class.__gnu_cxx::new_allocator.40"** %29, align 8
  %33 = load i32**, i32*** %30, align 8
  %34 = bitcast i32** %33 to i8*
  call void @_ZdlPv(i8* %34) #3
  br label %12
}

; Function Attrs: noinline nounwind uwtable
define linkonce_odr i64 @_ZNSt9__cxx199815_Deque_iteratorIiRiPiE14_S_buffer_sizeEv() #5 comdat align 2 personality i8* bitcast (i32 (...)* @__gxx_personality_v0 to i8*) {
  %1 = load i32, i32* @x.199
  %2 = load i32, i32* @y.200
  %3 = sub i32 %1, 1
  %4 = mul i32 %1, %3
  %5 = urem i32 %4, 2
  %6 = icmp eq i32 %5, 0
  %7 = icmp slt i32 %2, 10
  %8 = or i1 %6, %7
  br i1 %8, label %9, label %24

; <label>:9:                                      ; preds = %0, %24
  %10 = load i32, i32* @x.199
  %11 = load i32, i32* @y.200
  %12 = sub i32 %10, 1
  %13 = mul i32 %10, %12
  %14 = urem i32 %13, 2
  %15 = icmp eq i32 %14, 0
  %16 = icmp slt i32 %11, 10
  %17 = or i1 %15, %16
  br i1 %17, label %18, label %24

; <label>:18:                                     ; preds = %9
  %19 = invoke i64 @_ZNSt9__cxx199816__deque_buf_sizeEm(i64 4)
          to label %20 unwind label %21

; <label>:20:                                     ; preds = %18
  ret i64 %19

; <label>:21:                                     ; preds = %18
  %22 = landingpad { i8*, i32 }
          catch i8* null
  %23 = extractvalue { i8*, i32 } %22, 0
  call void @__clang_call_terminate(i8* %23) #13
  unreachable

; <label>:24:                                     ; preds = %9, %0
  br label %9
}

; Function Attrs: noinline nounwind uwtable
define linkonce_odr void @_ZN11__gnu_debug14_Safe_sequenceINSt7__debug5dequeIiSaIiEEEED2Ev(%"class.__gnu_debug::_Safe_sequence.34"*) unnamed_addr #5 comdat align 2 {
  %2 = alloca %"class.__gnu_debug::_Safe_sequence.34"*, align 8
  store %"class.__gnu_debug::_Safe_sequence.34"* %0, %"class.__gnu_debug::_Safe_sequence.34"** %2, align 8
  %3 = load %"class.__gnu_debug::_Safe_sequence.34"*, %"class.__gnu_debug::_Safe_sequence.34"** %2, align 8
  %4 = bitcast %"class.__gnu_debug::_Safe_sequence.34"* %3 to %"class.__gnu_debug::_Safe_sequence_base"*
  call void @_ZN11__gnu_debug19_Safe_sequence_baseD2Ev(%"class.__gnu_debug::_Safe_sequence_base"* %4) #3
  ret void
}

; Function Attrs: noinline nounwind uwtable
define linkonce_odr void @_ZNSt9__cxx19985dequeIiSaIiEED2Ev(%"class.std::__cxx1998::deque"*) unnamed_addr #5 comdat align 2 personality i8* bitcast (i32 (...)* @__gxx_personality_v0 to i8*) {
  %2 = load i32, i32* @x.203
  %3 = load i32, i32* @y.204
  %4 = sub i32 %2, 1
  %5 = mul i32 %2, %4
  %6 = urem i32 %5, 2
  %7 = icmp eq i32 %6, 0
  %8 = icmp slt i32 %3, 10
  %9 = or i1 %7, %8
  br i1 %9, label %10, label %55

; <label>:10:                                     ; preds = %1, %55
  %11 = alloca %"class.std::__cxx1998::deque"*, align 8
  %12 = alloca %"struct.std::__cxx1998::_Deque_iterator", align 8
  %13 = alloca %"struct.std::__cxx1998::_Deque_iterator", align 8
  %14 = alloca i8*
  %15 = alloca i32
  store %"class.std::__cxx1998::deque"* %0, %"class.std::__cxx1998::deque"** %11, align 8
  %16 = load %"class.std::__cxx1998::deque"*, %"class.std::__cxx1998::deque"** %11, align 8
  call void @_ZNSt9__cxx19985dequeIiSaIiEE5beginEv(%"struct.std::__cxx1998::_Deque_iterator"* sret %12, %"class.std::__cxx1998::deque"* %16) #3
  call void @_ZNSt9__cxx19985dequeIiSaIiEE3endEv(%"struct.std::__cxx1998::_Deque_iterator"* sret %13, %"class.std::__cxx1998::deque"* %16) #3
  %17 = bitcast %"class.std::__cxx1998::deque"* %16 to %"class.std::__cxx1998::_Deque_base"*
  %18 = call dereferenceable(1) %"class.std::allocator"* @_ZNSt9__cxx199811_Deque_baseIiSaIiEE19_M_get_Tp_allocatorEv(%"class.std::__cxx1998::_Deque_base"* %17) #3
  %19 = load i32, i32* @x.203
  %20 = load i32, i32* @y.204
  %21 = sub i32 %19, 1
  %22 = mul i32 %19, %21
  %23 = urem i32 %22, 2
  %24 = icmp eq i32 %23, 0
  %25 = icmp slt i32 %20, 10
  %26 = or i1 %24, %25
  br i1 %26, label %27, label %55

; <label>:27:                                     ; preds = %10
  invoke void @_ZNSt9__cxx19985dequeIiSaIiEE15_M_destroy_dataENS_15_Deque_iteratorIiRiPiEES6_RKS1_(%"class.std::__cxx1998::deque"* %16, %"struct.std::__cxx1998::_Deque_iterator"* %12, %"struct.std::__cxx1998::_Deque_iterator"* %13, %"class.std::allocator"* dereferenceable(1) %18)
          to label %28 unwind label %30

; <label>:28:                                     ; preds = %27
  %29 = bitcast %"class.std::__cxx1998::deque"* %16 to %"class.std::__cxx1998::_Deque_base"*
  call void @_ZNSt9__cxx199811_Deque_baseIiSaIiEED2Ev(%"class.std::__cxx1998::_Deque_base"* %29) #3
  ret void

; <label>:30:                                     ; preds = %27
  %31 = load i32, i32* @x.203
  %32 = load i32, i32* @y.204
  %33 = sub i32 %31, 1
  %34 = mul i32 %31, %33
  %35 = urem i32 %34, 2
  %36 = icmp eq i32 %35, 0
  %37 = icmp slt i32 %32, 10
  %38 = or i1 %36, %37
  br i1 %38, label %39, label %64

; <label>:39:                                     ; preds = %30, %64
  %40 = landingpad { i8*, i32 }
          catch i8* null
  %41 = extractvalue { i8*, i32 } %40, 0
  store i8* %41, i8** %14, align 8
  %42 = extractvalue { i8*, i32 } %40, 1
  store i32 %42, i32* %15, align 4
  %43 = bitcast %"class.std::__cxx1998::deque"* %16 to %"class.std::__cxx1998::_Deque_base"*
  call void @_ZNSt9__cxx199811_Deque_baseIiSaIiEED2Ev(%"class.std::__cxx1998::_Deque_base"* %43) #3
  %44 = load i32, i32* @x.203
  %45 = load i32, i32* @y.204
  %46 = sub i32 %44, 1
  %47 = mul i32 %44, %46
  %48 = urem i32 %47, 2
  %49 = icmp eq i32 %48, 0
  %50 = icmp slt i32 %45, 10
  %51 = or i1 %49, %50
  br i1 %51, label %52, label %64

; <label>:52:                                     ; preds = %39
  br label %53

; <label>:53:                                     ; preds = %52
  %54 = load i8*, i8** %14, align 8
  call void @__clang_call_terminate(i8* %54) #13
  unreachable

; <label>:55:                                     ; preds = %10, %1
  %56 = alloca %"class.std::__cxx1998::deque"*, align 8
  %57 = alloca %"struct.std::__cxx1998::_Deque_iterator", align 8
  %58 = alloca %"struct.std::__cxx1998::_Deque_iterator", align 8
  %59 = alloca i8*
  %60 = alloca i32
  store %"class.std::__cxx1998::deque"* %0, %"class.std::__cxx1998::deque"** %56, align 8
  %61 = load %"class.std::__cxx1998::deque"*, %"class.std::__cxx1998::deque"** %56, align 8
  call void @_ZNSt9__cxx19985dequeIiSaIiEE5beginEv(%"struct.std::__cxx1998::_Deque_iterator"* sret %57, %"class.std::__cxx1998::deque"* %61) #3
  call void @_ZNSt9__cxx19985dequeIiSaIiEE3endEv(%"struct.std::__cxx1998::_Deque_iterator"* sret %58, %"class.std::__cxx1998::deque"* %61) #3
  %62 = bitcast %"class.std::__cxx1998::deque"* %61 to %"class.std::__cxx1998::_Deque_base"*
  %63 = call dereferenceable(1) %"class.std::allocator"* @_ZNSt9__cxx199811_Deque_baseIiSaIiEE19_M_get_Tp_allocatorEv(%"class.std::__cxx1998::_Deque_base"* %62) #3
  br label %10

; <label>:64:                                     ; preds = %39, %30
  %65 = landingpad { i8*, i32 }
          catch i8* null
  %66 = extractvalue { i8*, i32 } %65, 0
  store i8* %66, i8** %14, align 8
  %67 = extractvalue { i8*, i32 } %65, 1
  store i32 %67, i32* %15, align 4
  %68 = bitcast %"class.std::__cxx1998::deque"* %16 to %"class.std::__cxx1998::_Deque_base"*
  call void @_ZNSt9__cxx199811_Deque_baseIiSaIiEED2Ev(%"class.std::__cxx1998::_Deque_base"* %68) #3
  br label %39
}

; Function Attrs: noinline nounwind uwtable
define linkonce_odr void @_ZNSt9__cxx19985dequeIiSaIiEE15_M_destroy_dataENS_15_Deque_iteratorIiRiPiEES6_RKS1_(%"class.std::__cxx1998::deque"*, %"struct.std::__cxx1998::_Deque_iterator"*, %"struct.std::__cxx1998::_Deque_iterator"*, %"class.std::allocator"* dereferenceable(1)) #5 comdat align 2 {
  %5 = alloca %"class.std::__cxx1998::deque"*, align 8
  %6 = alloca %"class.std::allocator"*, align 8
  store %"class.std::__cxx1998::deque"* %0, %"class.std::__cxx1998::deque"** %5, align 8
  store %"class.std::allocator"* %3, %"class.std::allocator"** %6, align 8
  %7 = load %"class.std::__cxx1998::deque"*, %"class.std::__cxx1998::deque"** %5, align 8
  ret void
}

; Function Attrs: noinline nounwind uwtable
define linkonce_odr void @_ZNSt9__cxx19985dequeIiSaIiEE5beginEv(%"struct.std::__cxx1998::_Deque_iterator"* noalias sret, %"class.std::__cxx1998::deque"*) #5 comdat align 2 {
  %3 = alloca %"class.std::__cxx1998::deque"*, align 8
  store %"class.std::__cxx1998::deque"* %1, %"class.std::__cxx1998::deque"** %3, align 8
  %4 = load %"class.std::__cxx1998::deque"*, %"class.std::__cxx1998::deque"** %3, align 8
  %5 = bitcast %"class.std::__cxx1998::deque"* %4 to %"class.std::__cxx1998::_Deque_base"*
  %6 = getelementptr inbounds %"class.std::__cxx1998::_Deque_base", %"class.std::__cxx1998::_Deque_base"* %5, i32 0, i32 0
  %7 = getelementptr inbounds %"struct.std::__cxx1998::_Deque_base<int, std::allocator<int> >::_Deque_impl", %"struct.std::__cxx1998::_Deque_base<int, std::allocator<int> >::_Deque_impl"* %6, i32 0, i32 2
  call void @_ZNSt9__cxx199815_Deque_iteratorIiRiPiEC2ERKS3_(%"struct.std::__cxx1998::_Deque_iterator"* %0, %"struct.std::__cxx1998::_Deque_iterator"* dereferenceable(32) %7) #3
  ret void
}

; Function Attrs: noinline nounwind uwtable
define linkonce_odr void @_ZNSt9__cxx19985dequeIiSaIiEE3endEv(%"struct.std::__cxx1998::_Deque_iterator"* noalias sret, %"class.std::__cxx1998::deque"*) #5 comdat align 2 {
  %3 = load i32, i32* @x.209
  %4 = load i32, i32* @y.210
  %5 = sub i32 %3, 1
  %6 = mul i32 %3, %5
  %7 = urem i32 %6, 2
  %8 = icmp eq i32 %7, 0
  %9 = icmp slt i32 %4, 10
  %10 = or i1 %8, %9
  br i1 %10, label %11, label %26

; <label>:11:                                     ; preds = %2, %26
  %12 = alloca %"class.std::__cxx1998::deque"*, align 8
  store %"class.std::__cxx1998::deque"* %1, %"class.std::__cxx1998::deque"** %12, align 8
  %13 = load %"class.std::__cxx1998::deque"*, %"class.std::__cxx1998::deque"** %12, align 8
  %14 = bitcast %"class.std::__cxx1998::deque"* %13 to %"class.std::__cxx1998::_Deque_base"*
  %15 = getelementptr inbounds %"class.std::__cxx1998::_Deque_base", %"class.std::__cxx1998::_Deque_base"* %14, i32 0, i32 0
  %16 = getelementptr inbounds %"struct.std::__cxx1998::_Deque_base<int, std::allocator<int> >::_Deque_impl", %"struct.std::__cxx1998::_Deque_base<int, std::allocator<int> >::_Deque_impl"* %15, i32 0, i32 3
  call void @_ZNSt9__cxx199815_Deque_iteratorIiRiPiEC2ERKS3_(%"struct.std::__cxx1998::_Deque_iterator"* %0, %"struct.std::__cxx1998::_Deque_iterator"* dereferenceable(32) %16) #3
  %17 = load i32, i32* @x.209
  %18 = load i32, i32* @y.210
  %19 = sub i32 %17, 1
  %20 = mul i32 %17, %19
  %21 = urem i32 %20, 2
  %22 = icmp eq i32 %21, 0
  %23 = icmp slt i32 %18, 10
  %24 = or i1 %22, %23
  br i1 %24, label %25, label %26

; <label>:25:                                     ; preds = %11
  ret void

; <label>:26:                                     ; preds = %11, %2
  %27 = alloca %"class.std::__cxx1998::deque"*, align 8
  store %"class.std::__cxx1998::deque"* %1, %"class.std::__cxx1998::deque"** %27, align 8
  %28 = load %"class.std::__cxx1998::deque"*, %"class.std::__cxx1998::deque"** %27, align 8
  %29 = bitcast %"class.std::__cxx1998::deque"* %28 to %"class.std::__cxx1998::_Deque_base"*
  %30 = getelementptr inbounds %"class.std::__cxx1998::_Deque_base", %"class.std::__cxx1998::_Deque_base"* %29, i32 0, i32 0
  %31 = getelementptr inbounds %"struct.std::__cxx1998::_Deque_base<int, std::allocator<int> >::_Deque_impl", %"struct.std::__cxx1998::_Deque_base<int, std::allocator<int> >::_Deque_impl"* %30, i32 0, i32 3
  call void @_ZNSt9__cxx199815_Deque_iteratorIiRiPiEC2ERKS3_(%"struct.std::__cxx1998::_Deque_iterator"* %0, %"struct.std::__cxx1998::_Deque_iterator"* dereferenceable(32) %31) #3
  br label %11
}

; Function Attrs: noinline nounwind uwtable
define linkonce_odr dereferenceable(1) %"class.std::allocator"* @_ZNSt9__cxx199811_Deque_baseIiSaIiEE19_M_get_Tp_allocatorEv(%"class.std::__cxx1998::_Deque_base"*) #5 comdat align 2 {
  %2 = alloca %"class.std::__cxx1998::_Deque_base"*, align 8
  store %"class.std::__cxx1998::_Deque_base"* %0, %"class.std::__cxx1998::_Deque_base"** %2, align 8
  %3 = load %"class.std::__cxx1998::_Deque_base"*, %"class.std::__cxx1998::_Deque_base"** %2, align 8
  %4 = getelementptr inbounds %"class.std::__cxx1998::_Deque_base", %"class.std::__cxx1998::_Deque_base"* %3, i32 0, i32 0
  %5 = bitcast %"struct.std::__cxx1998::_Deque_base<int, std::allocator<int> >::_Deque_impl"* %4 to %"class.std::allocator"*
  ret %"class.std::allocator"* %5
}

; Function Attrs: noinline nounwind uwtable
define linkonce_odr void @_ZNSt9__cxx199811_Deque_baseIiSaIiEED2Ev(%"class.std::__cxx1998::_Deque_base"*) unnamed_addr #5 comdat align 2 {
  %2 = alloca %"class.std::__cxx1998::_Deque_base"*, align 8
  store %"class.std::__cxx1998::_Deque_base"* %0, %"class.std::__cxx1998::_Deque_base"** %2, align 8
  %3 = load %"class.std::__cxx1998::_Deque_base"*, %"class.std::__cxx1998::_Deque_base"** %2, align 8
  %4 = getelementptr inbounds %"class.std::__cxx1998::_Deque_base", %"class.std::__cxx1998::_Deque_base"* %3, i32 0, i32 0
  %5 = getelementptr inbounds %"struct.std::__cxx1998::_Deque_base<int, std::allocator<int> >::_Deque_impl", %"struct.std::__cxx1998::_Deque_base<int, std::allocator<int> >::_Deque_impl"* %4, i32 0, i32 0
  %6 = load i32**, i32*** %5, align 8
  %7 = icmp ne i32** %6, null
  br i1 %7, label %8, label %42

; <label>:8:                                      ; preds = %1
  %9 = load i32, i32* @x.213
  %10 = load i32, i32* @y.214
  %11 = sub i32 %9, 1
  %12 = mul i32 %9, %11
  %13 = urem i32 %12, 2
  %14 = icmp eq i32 %13, 0
  %15 = icmp slt i32 %10, 10
  %16 = or i1 %14, %15
  br i1 %16, label %17, label %62

; <label>:17:                                     ; preds = %8, %62
  %18 = getelementptr inbounds %"class.std::__cxx1998::_Deque_base", %"class.std::__cxx1998::_Deque_base"* %3, i32 0, i32 0
  %19 = getelementptr inbounds %"struct.std::__cxx1998::_Deque_base<int, std::allocator<int> >::_Deque_impl", %"struct.std::__cxx1998::_Deque_base<int, std::allocator<int> >::_Deque_impl"* %18, i32 0, i32 2
  %20 = getelementptr inbounds %"struct.std::__cxx1998::_Deque_iterator", %"struct.std::__cxx1998::_Deque_iterator"* %19, i32 0, i32 3
  %21 = load i32**, i32*** %20, align 8
  %22 = getelementptr inbounds %"class.std::__cxx1998::_Deque_base", %"class.std::__cxx1998::_Deque_base"* %3, i32 0, i32 0
  %23 = getelementptr inbounds %"struct.std::__cxx1998::_Deque_base<int, std::allocator<int> >::_Deque_impl", %"struct.std::__cxx1998::_Deque_base<int, std::allocator<int> >::_Deque_impl"* %22, i32 0, i32 3
  %24 = getelementptr inbounds %"struct.std::__cxx1998::_Deque_iterator", %"struct.std::__cxx1998::_Deque_iterator"* %23, i32 0, i32 3
  %25 = load i32**, i32*** %24, align 8
  %26 = getelementptr inbounds i32*, i32** %25, i64 1
  call void @_ZNSt9__cxx199811_Deque_baseIiSaIiEE16_M_destroy_nodesEPPiS4_(%"class.std::__cxx1998::_Deque_base"* %3, i32** %21, i32** %26) #3
  %27 = getelementptr inbounds %"class.std::__cxx1998::_Deque_base", %"class.std::__cxx1998::_Deque_base"* %3, i32 0, i32 0
  %28 = getelementptr inbounds %"struct.std::__cxx1998::_Deque_base<int, std::allocator<int> >::_Deque_impl", %"struct.std::__cxx1998::_Deque_base<int, std::allocator<int> >::_Deque_impl"* %27, i32 0, i32 0
  %29 = load i32**, i32*** %28, align 8
  %30 = getelementptr inbounds %"class.std::__cxx1998::_Deque_base", %"class.std::__cxx1998::_Deque_base"* %3, i32 0, i32 0
  %31 = getelementptr inbounds %"struct.std::__cxx1998::_Deque_base<int, std::allocator<int> >::_Deque_impl", %"struct.std::__cxx1998::_Deque_base<int, std::allocator<int> >::_Deque_impl"* %30, i32 0, i32 1
  %32 = load i64, i64* %31, align 8
  call void @_ZNSt9__cxx199811_Deque_baseIiSaIiEE17_M_deallocate_mapEPPim(%"class.std::__cxx1998::_Deque_base"* %3, i32** %29, i64 %32) #3
  %33 = load i32, i32* @x.213
  %34 = load i32, i32* @y.214
  %35 = sub i32 %33, 1
  %36 = mul i32 %33, %35
  %37 = urem i32 %36, 2
  %38 = icmp eq i32 %37, 0
  %39 = icmp slt i32 %34, 10
  %40 = or i1 %38, %39
  br i1 %40, label %41, label %62

; <label>:41:                                     ; preds = %17
  br label %42

; <label>:42:                                     ; preds = %41, %1
  %43 = load i32, i32* @x.213
  %44 = load i32, i32* @y.214
  %45 = sub i32 %43, 1
  %46 = mul i32 %43, %45
  %47 = urem i32 %46, 2
  %48 = icmp eq i32 %47, 0
  %49 = icmp slt i32 %44, 10
  %50 = or i1 %48, %49
  br i1 %50, label %51, label %78

; <label>:51:                                     ; preds = %42, %78
  %52 = getelementptr inbounds %"class.std::__cxx1998::_Deque_base", %"class.std::__cxx1998::_Deque_base"* %3, i32 0, i32 0
  call void @_ZNSt9__cxx199811_Deque_baseIiSaIiEE11_Deque_implD2Ev(%"struct.std::__cxx1998::_Deque_base<int, std::allocator<int> >::_Deque_impl"* %52) #3
  %53 = load i32, i32* @x.213
  %54 = load i32, i32* @y.214
  %55 = sub i32 %53, 1
  %56 = mul i32 %53, %55
  %57 = urem i32 %56, 2
  %58 = icmp eq i32 %57, 0
  %59 = icmp slt i32 %54, 10
  %60 = or i1 %58, %59
  br i1 %60, label %61, label %78

; <label>:61:                                     ; preds = %51
  ret void

; <label>:62:                                     ; preds = %17, %8
  %63 = getelementptr inbounds %"class.std::__cxx1998::_Deque_base", %"class.std::__cxx1998::_Deque_base"* %3, i32 0, i32 0
  %64 = getelementptr inbounds %"struct.std::__cxx1998::_Deque_base<int, std::allocator<int> >::_Deque_impl", %"struct.std::__cxx1998::_Deque_base<int, std::allocator<int> >::_Deque_impl"* %63, i32 0, i32 2
  %65 = getelementptr inbounds %"struct.std::__cxx1998::_Deque_iterator", %"struct.std::__cxx1998::_Deque_iterator"* %64, i32 0, i32 3
  %66 = load i32**, i32*** %65, align 8
  %67 = getelementptr inbounds %"class.std::__cxx1998::_Deque_base", %"class.std::__cxx1998::_Deque_base"* %3, i32 0, i32 0
  %68 = getelementptr inbounds %"struct.std::__cxx1998::_Deque_base<int, std::allocator<int> >::_Deque_impl", %"struct.std::__cxx1998::_Deque_base<int, std::allocator<int> >::_Deque_impl"* %67, i32 0, i32 3
  %69 = getelementptr inbounds %"struct.std::__cxx1998::_Deque_iterator", %"struct.std::__cxx1998::_Deque_iterator"* %68, i32 0, i32 3
  %70 = load i32**, i32*** %69, align 8
  %71 = getelementptr inbounds i32*, i32** %70, i64 1
  call void @_ZNSt9__cxx199811_Deque_baseIiSaIiEE16_M_destroy_nodesEPPiS4_(%"class.std::__cxx1998::_Deque_base"* %3, i32** %66, i32** %71) #3
  %72 = getelementptr inbounds %"class.std::__cxx1998::_Deque_base", %"class.std::__cxx1998::_Deque_base"* %3, i32 0, i32 0
  %73 = getelementptr inbounds %"struct.std::__cxx1998::_Deque_base<int, std::allocator<int> >::_Deque_impl", %"struct.std::__cxx1998::_Deque_base<int, std::allocator<int> >::_Deque_impl"* %72, i32 0, i32 0
  %74 = load i32**, i32*** %73, align 8
  %75 = getelementptr inbounds %"class.std::__cxx1998::_Deque_base", %"class.std::__cxx1998::_Deque_base"* %3, i32 0, i32 0
  %76 = getelementptr inbounds %"struct.std::__cxx1998::_Deque_base<int, std::allocator<int> >::_Deque_impl", %"struct.std::__cxx1998::_Deque_base<int, std::allocator<int> >::_Deque_impl"* %75, i32 0, i32 1
  %77 = load i64, i64* %76, align 8
  call void @_ZNSt9__cxx199811_Deque_baseIiSaIiEE17_M_deallocate_mapEPPim(%"class.std::__cxx1998::_Deque_base"* %3, i32** %74, i64 %77) #3
  br label %17

; <label>:78:                                     ; preds = %51, %42
  %79 = getelementptr inbounds %"class.std::__cxx1998::_Deque_base", %"class.std::__cxx1998::_Deque_base"* %3, i32 0, i32 0
  call void @_ZNSt9__cxx199811_Deque_baseIiSaIiEE11_Deque_implD2Ev(%"struct.std::__cxx1998::_Deque_base<int, std::allocator<int> >::_Deque_impl"* %79) #3
  br label %51
}

; Function Attrs: noinline nounwind uwtable
define linkonce_odr void @_ZNSt9__cxx199815_Deque_iteratorIiRiPiEC2ERKS3_(%"struct.std::__cxx1998::_Deque_iterator"*, %"struct.std::__cxx1998::_Deque_iterator"* dereferenceable(32)) unnamed_addr #5 comdat align 2 {
  %3 = load i32, i32* @x.215
  %4 = load i32, i32* @y.216
  %5 = sub i32 %3, 1
  %6 = mul i32 %3, %5
  %7 = urem i32 %6, 2
  %8 = icmp eq i32 %7, 0
  %9 = icmp slt i32 %4, 10
  %10 = or i1 %8, %9
  br i1 %10, label %11, label %40

; <label>:11:                                     ; preds = %2, %40
  %12 = alloca %"struct.std::__cxx1998::_Deque_iterator"*, align 8
  %13 = alloca %"struct.std::__cxx1998::_Deque_iterator"*, align 8
  store %"struct.std::__cxx1998::_Deque_iterator"* %0, %"struct.std::__cxx1998::_Deque_iterator"** %12, align 8
  store %"struct.std::__cxx1998::_Deque_iterator"* %1, %"struct.std::__cxx1998::_Deque_iterator"** %13, align 8
  %14 = load %"struct.std::__cxx1998::_Deque_iterator"*, %"struct.std::__cxx1998::_Deque_iterator"** %12, align 8
  %15 = getelementptr inbounds %"struct.std::__cxx1998::_Deque_iterator", %"struct.std::__cxx1998::_Deque_iterator"* %14, i32 0, i32 0
  %16 = load %"struct.std::__cxx1998::_Deque_iterator"*, %"struct.std::__cxx1998::_Deque_iterator"** %13, align 8
  %17 = getelementptr inbounds %"struct.std::__cxx1998::_Deque_iterator", %"struct.std::__cxx1998::_Deque_iterator"* %16, i32 0, i32 0
  %18 = load i32*, i32** %17, align 8
  store i32* %18, i32** %15, align 8
  %19 = getelementptr inbounds %"struct.std::__cxx1998::_Deque_iterator", %"struct.std::__cxx1998::_Deque_iterator"* %14, i32 0, i32 1
  %20 = load %"struct.std::__cxx1998::_Deque_iterator"*, %"struct.std::__cxx1998::_Deque_iterator"** %13, align 8
  %21 = getelementptr inbounds %"struct.std::__cxx1998::_Deque_iterator", %"struct.std::__cxx1998::_Deque_iterator"* %20, i32 0, i32 1
  %22 = load i32*, i32** %21, align 8
  store i32* %22, i32** %19, align 8
  %23 = getelementptr inbounds %"struct.std::__cxx1998::_Deque_iterator", %"struct.std::__cxx1998::_Deque_iterator"* %14, i32 0, i32 2
  %24 = load %"struct.std::__cxx1998::_Deque_iterator"*, %"struct.std::__cxx1998::_Deque_iterator"** %13, align 8
  %25 = getelementptr inbounds %"struct.std::__cxx1998::_Deque_iterator", %"struct.std::__cxx1998::_Deque_iterator"* %24, i32 0, i32 2
  %26 = load i32*, i32** %25, align 8
  store i32* %26, i32** %23, align 8
  %27 = getelementptr inbounds %"struct.std::__cxx1998::_Deque_iterator", %"struct.std::__cxx1998::_Deque_iterator"* %14, i32 0, i32 3
  %28 = load %"struct.std::__cxx1998::_Deque_iterator"*, %"struct.std::__cxx1998::_Deque_iterator"** %13, align 8
  %29 = getelementptr inbounds %"struct.std::__cxx1998::_Deque_iterator", %"struct.std::__cxx1998::_Deque_iterator"* %28, i32 0, i32 3
  %30 = load i32**, i32*** %29, align 8
  store i32** %30, i32*** %27, align 8
  %31 = load i32, i32* @x.215
  %32 = load i32, i32* @y.216
  %33 = sub i32 %31, 1
  %34 = mul i32 %31, %33
  %35 = urem i32 %34, 2
  %36 = icmp eq i32 %35, 0
  %37 = icmp slt i32 %32, 10
  %38 = or i1 %36, %37
  br i1 %38, label %39, label %40

; <label>:39:                                     ; preds = %11
  ret void

; <label>:40:                                     ; preds = %11, %2
  %41 = alloca %"struct.std::__cxx1998::_Deque_iterator"*, align 8
  %42 = alloca %"struct.std::__cxx1998::_Deque_iterator"*, align 8
  store %"struct.std::__cxx1998::_Deque_iterator"* %0, %"struct.std::__cxx1998::_Deque_iterator"** %41, align 8
  store %"struct.std::__cxx1998::_Deque_iterator"* %1, %"struct.std::__cxx1998::_Deque_iterator"** %42, align 8
  %43 = load %"struct.std::__cxx1998::_Deque_iterator"*, %"struct.std::__cxx1998::_Deque_iterator"** %41, align 8
  %44 = getelementptr inbounds %"struct.std::__cxx1998::_Deque_iterator", %"struct.std::__cxx1998::_Deque_iterator"* %43, i32 0, i32 0
  %45 = load %"struct.std::__cxx1998::_Deque_iterator"*, %"struct.std::__cxx1998::_Deque_iterator"** %42, align 8
  %46 = getelementptr inbounds %"struct.std::__cxx1998::_Deque_iterator", %"struct.std::__cxx1998::_Deque_iterator"* %45, i32 0, i32 0
  %47 = load i32*, i32** %46, align 8
  store i32* %47, i32** %44, align 8
  %48 = getelementptr inbounds %"struct.std::__cxx1998::_Deque_iterator", %"struct.std::__cxx1998::_Deque_iterator"* %43, i32 0, i32 1
  %49 = load %"struct.std::__cxx1998::_Deque_iterator"*, %"struct.std::__cxx1998::_Deque_iterator"** %42, align 8
  %50 = getelementptr inbounds %"struct.std::__cxx1998::_Deque_iterator", %"struct.std::__cxx1998::_Deque_iterator"* %49, i32 0, i32 1
  %51 = load i32*, i32** %50, align 8
  store i32* %51, i32** %48, align 8
  %52 = getelementptr inbounds %"struct.std::__cxx1998::_Deque_iterator", %"struct.std::__cxx1998::_Deque_iterator"* %43, i32 0, i32 2
  %53 = load %"struct.std::__cxx1998::_Deque_iterator"*, %"struct.std::__cxx1998::_Deque_iterator"** %42, align 8
  %54 = getelementptr inbounds %"struct.std::__cxx1998::_Deque_iterator", %"struct.std::__cxx1998::_Deque_iterator"* %53, i32 0, i32 2
  %55 = load i32*, i32** %54, align 8
  store i32* %55, i32** %52, align 8
  %56 = getelementptr inbounds %"struct.std::__cxx1998::_Deque_iterator", %"struct.std::__cxx1998::_Deque_iterator"* %43, i32 0, i32 3
  %57 = load %"struct.std::__cxx1998::_Deque_iterator"*, %"struct.std::__cxx1998::_Deque_iterator"** %42, align 8
  %58 = getelementptr inbounds %"struct.std::__cxx1998::_Deque_iterator", %"struct.std::__cxx1998::_Deque_iterator"* %57, i32 0, i32 3
  %59 = load i32**, i32*** %58, align 8
  store i32** %59, i32*** %56, align 8
  br label %11
}

; Function Attrs: noinline nounwind uwtable
define linkonce_odr void @_ZNSt9__cxx19986vectorINSt7__debug6vectorIiSaIiEEESaIS4_EED2Ev(%"class.std::__cxx1998::vector.27"*) unnamed_addr #5 comdat align 2 personality i8* bitcast (i32 (...)* @__gxx_personality_v0 to i8*) {
  %2 = alloca %"class.std::__cxx1998::vector.27"*, align 8
  %3 = alloca i8*
  %4 = alloca i32
  store %"class.std::__cxx1998::vector.27"* %0, %"class.std::__cxx1998::vector.27"** %2, align 8
  %5 = load %"class.std::__cxx1998::vector.27"*, %"class.std::__cxx1998::vector.27"** %2, align 8
  %6 = bitcast %"class.std::__cxx1998::vector.27"* %5 to %"struct.std::__cxx1998::_Vector_base.28"*
  %7 = getelementptr inbounds %"struct.std::__cxx1998::_Vector_base.28", %"struct.std::__cxx1998::_Vector_base.28"* %6, i32 0, i32 0
  %8 = getelementptr inbounds %"struct.std::__cxx1998::_Vector_base<std::__debug::vector<int, std::allocator<int> >, std::allocator<std::__debug::vector<int, std::allocator<int> > > >::_Vector_impl", %"struct.std::__cxx1998::_Vector_base<std::__debug::vector<int, std::allocator<int> >, std::allocator<std::__debug::vector<int, std::allocator<int> > > >::_Vector_impl"* %7, i32 0, i32 0
  %9 = load %"class.std::__debug::vector"*, %"class.std::__debug::vector"** %8, align 8
  %10 = bitcast %"class.std::__cxx1998::vector.27"* %5 to %"struct.std::__cxx1998::_Vector_base.28"*
  %11 = getelementptr inbounds %"struct.std::__cxx1998::_Vector_base.28", %"struct.std::__cxx1998::_Vector_base.28"* %10, i32 0, i32 0
  %12 = getelementptr inbounds %"struct.std::__cxx1998::_Vector_base<std::__debug::vector<int, std::allocator<int> >, std::allocator<std::__debug::vector<int, std::allocator<int> > > >::_Vector_impl", %"struct.std::__cxx1998::_Vector_base<std::__debug::vector<int, std::allocator<int> >, std::allocator<std::__debug::vector<int, std::allocator<int> > > >::_Vector_impl"* %11, i32 0, i32 1
  %13 = load %"class.std::__debug::vector"*, %"class.std::__debug::vector"** %12, align 8
  %14 = bitcast %"class.std::__cxx1998::vector.27"* %5 to %"struct.std::__cxx1998::_Vector_base.28"*
  %15 = call dereferenceable(1) %"class.std::allocator.29"* @_ZNSt9__cxx199812_Vector_baseINSt7__debug6vectorIiSaIiEEESaIS4_EE19_M_get_Tp_allocatorEv(%"struct.std::__cxx1998::_Vector_base.28"* %14) #3
  invoke void @_ZSt8_DestroyIPNSt7__debug6vectorIiSaIiEEES3_EvT_S5_RSaIT0_E(%"class.std::__debug::vector"* %9, %"class.std::__debug::vector"* %13, %"class.std::allocator.29"* dereferenceable(1) %15)
          to label %16 unwind label %18

; <label>:16:                                     ; preds = %1
  %17 = bitcast %"class.std::__cxx1998::vector.27"* %5 to %"struct.std::__cxx1998::_Vector_base.28"*
  call void @_ZNSt9__cxx199812_Vector_baseINSt7__debug6vectorIiSaIiEEESaIS4_EED2Ev(%"struct.std::__cxx1998::_Vector_base.28"* %17) #3
  ret void

; <label>:18:                                     ; preds = %1
  %19 = landingpad { i8*, i32 }
          catch i8* null
  %20 = extractvalue { i8*, i32 } %19, 0
  store i8* %20, i8** %3, align 8
  %21 = extractvalue { i8*, i32 } %19, 1
  store i32 %21, i32* %4, align 4
  %22 = bitcast %"class.std::__cxx1998::vector.27"* %5 to %"struct.std::__cxx1998::_Vector_base.28"*
  call void @_ZNSt9__cxx199812_Vector_baseINSt7__debug6vectorIiSaIiEEESaIS4_EED2Ev(%"struct.std::__cxx1998::_Vector_base.28"* %22) #3
  br label %23

; <label>:23:                                     ; preds = %18
  %24 = load i8*, i8** %3, align 8
  call void @__clang_call_terminate(i8* %24) #13
  unreachable
}

; Function Attrs: noinline nounwind uwtable
define linkonce_odr void @_ZN11__gnu_debug15_Safe_containerINSt7__debug6vectorINS2_IiSaIiEEESaIS4_EEES5_NS_14_Safe_sequenceELb1EED2Ev(%"class.__gnu_debug::_Safe_container.23"*) unnamed_addr #5 comdat align 2 {
  %2 = alloca %"class.__gnu_debug::_Safe_container.23"*, align 8
  store %"class.__gnu_debug::_Safe_container.23"* %0, %"class.__gnu_debug::_Safe_container.23"** %2, align 8
  %3 = load %"class.__gnu_debug::_Safe_container.23"*, %"class.__gnu_debug::_Safe_container.23"** %2, align 8
  %4 = bitcast %"class.__gnu_debug::_Safe_container.23"* %3 to %"class.__gnu_debug::_Safe_sequence.24"*
  call void @_ZN11__gnu_debug14_Safe_sequenceINSt7__debug6vectorINS2_IiSaIiEEESaIS4_EEEED2Ev(%"class.__gnu_debug::_Safe_sequence.24"* %4) #3
  ret void
}

; Function Attrs: noinline uwtable
define linkonce_odr void @_ZSt8_DestroyIPNSt7__debug6vectorIiSaIiEEES3_EvT_S5_RSaIT0_E(%"class.std::__debug::vector"*, %"class.std::__debug::vector"*, %"class.std::allocator.29"* dereferenceable(1)) #0 comdat {
  %4 = alloca %"class.std::__debug::vector"*, align 8
  %5 = alloca %"class.std::__debug::vector"*, align 8
  %6 = alloca %"class.std::allocator.29"*, align 8
  store %"class.std::__debug::vector"* %0, %"class.std::__debug::vector"** %4, align 8
  store %"class.std::__debug::vector"* %1, %"class.std::__debug::vector"** %5, align 8
  store %"class.std::allocator.29"* %2, %"class.std::allocator.29"** %6, align 8
  %7 = load %"class.std::__debug::vector"*, %"class.std::__debug::vector"** %4, align 8
  %8 = load %"class.std::__debug::vector"*, %"class.std::__debug::vector"** %5, align 8
  call void @_ZSt8_DestroyIPNSt7__debug6vectorIiSaIiEEEEvT_S5_(%"class.std::__debug::vector"* %7, %"class.std::__debug::vector"* %8)
  ret void
}

; Function Attrs: noinline nounwind uwtable
define linkonce_odr dereferenceable(1) %"class.std::allocator.29"* @_ZNSt9__cxx199812_Vector_baseINSt7__debug6vectorIiSaIiEEESaIS4_EE19_M_get_Tp_allocatorEv(%"struct.std::__cxx1998::_Vector_base.28"*) #5 comdat align 2 {
  %2 = load i32, i32* @x.223
  %3 = load i32, i32* @y.224
  %4 = sub i32 %2, 1
  %5 = mul i32 %2, %4
  %6 = urem i32 %5, 2
  %7 = icmp eq i32 %6, 0
  %8 = icmp slt i32 %3, 10
  %9 = or i1 %7, %8
  br i1 %9, label %10, label %24

; <label>:10:                                     ; preds = %1, %24
  %11 = alloca %"struct.std::__cxx1998::_Vector_base.28"*, align 8
  store %"struct.std::__cxx1998::_Vector_base.28"* %0, %"struct.std::__cxx1998::_Vector_base.28"** %11, align 8
  %12 = load %"struct.std::__cxx1998::_Vector_base.28"*, %"struct.std::__cxx1998::_Vector_base.28"** %11, align 8
  %13 = getelementptr inbounds %"struct.std::__cxx1998::_Vector_base.28", %"struct.std::__cxx1998::_Vector_base.28"* %12, i32 0, i32 0
  %14 = bitcast %"struct.std::__cxx1998::_Vector_base<std::__debug::vector<int, std::allocator<int> >, std::allocator<std::__debug::vector<int, std::allocator<int> > > >::_Vector_impl"* %13 to %"class.std::allocator.29"*
  %15 = load i32, i32* @x.223
  %16 = load i32, i32* @y.224
  %17 = sub i32 %15, 1
  %18 = mul i32 %15, %17
  %19 = urem i32 %18, 2
  %20 = icmp eq i32 %19, 0
  %21 = icmp slt i32 %16, 10
  %22 = or i1 %20, %21
  br i1 %22, label %23, label %24

; <label>:23:                                     ; preds = %10
  ret %"class.std::allocator.29"* %14

; <label>:24:                                     ; preds = %10, %1
  %25 = alloca %"struct.std::__cxx1998::_Vector_base.28"*, align 8
  store %"struct.std::__cxx1998::_Vector_base.28"* %0, %"struct.std::__cxx1998::_Vector_base.28"** %25, align 8
  %26 = load %"struct.std::__cxx1998::_Vector_base.28"*, %"struct.std::__cxx1998::_Vector_base.28"** %25, align 8
  %27 = getelementptr inbounds %"struct.std::__cxx1998::_Vector_base.28", %"struct.std::__cxx1998::_Vector_base.28"* %26, i32 0, i32 0
  %28 = bitcast %"struct.std::__cxx1998::_Vector_base<std::__debug::vector<int, std::allocator<int> >, std::allocator<std::__debug::vector<int, std::allocator<int> > > >::_Vector_impl"* %27 to %"class.std::allocator.29"*
  br label %10
}

; Function Attrs: noinline nounwind uwtable
define linkonce_odr void @_ZNSt9__cxx199812_Vector_baseINSt7__debug6vectorIiSaIiEEESaIS4_EED2Ev(%"struct.std::__cxx1998::_Vector_base.28"*) unnamed_addr #5 comdat align 2 personality i8* bitcast (i32 (...)* @__gxx_personality_v0 to i8*) {
  %2 = alloca %"struct.std::__cxx1998::_Vector_base.28"*, align 8
  %3 = alloca i8*
  %4 = alloca i32
  store %"struct.std::__cxx1998::_Vector_base.28"* %0, %"struct.std::__cxx1998::_Vector_base.28"** %2, align 8
  %5 = load %"struct.std::__cxx1998::_Vector_base.28"*, %"struct.std::__cxx1998::_Vector_base.28"** %2, align 8
  %6 = getelementptr inbounds %"struct.std::__cxx1998::_Vector_base.28", %"struct.std::__cxx1998::_Vector_base.28"* %5, i32 0, i32 0
  %7 = getelementptr inbounds %"struct.std::__cxx1998::_Vector_base<std::__debug::vector<int, std::allocator<int> >, std::allocator<std::__debug::vector<int, std::allocator<int> > > >::_Vector_impl", %"struct.std::__cxx1998::_Vector_base<std::__debug::vector<int, std::allocator<int> >, std::allocator<std::__debug::vector<int, std::allocator<int> > > >::_Vector_impl"* %6, i32 0, i32 0
  %8 = load %"class.std::__debug::vector"*, %"class.std::__debug::vector"** %7, align 8
  %9 = getelementptr inbounds %"struct.std::__cxx1998::_Vector_base.28", %"struct.std::__cxx1998::_Vector_base.28"* %5, i32 0, i32 0
  %10 = getelementptr inbounds %"struct.std::__cxx1998::_Vector_base<std::__debug::vector<int, std::allocator<int> >, std::allocator<std::__debug::vector<int, std::allocator<int> > > >::_Vector_impl", %"struct.std::__cxx1998::_Vector_base<std::__debug::vector<int, std::allocator<int> >, std::allocator<std::__debug::vector<int, std::allocator<int> > > >::_Vector_impl"* %9, i32 0, i32 2
  %11 = load %"class.std::__debug::vector"*, %"class.std::__debug::vector"** %10, align 8
  %12 = getelementptr inbounds %"struct.std::__cxx1998::_Vector_base.28", %"struct.std::__cxx1998::_Vector_base.28"* %5, i32 0, i32 0
  %13 = getelementptr inbounds %"struct.std::__cxx1998::_Vector_base<std::__debug::vector<int, std::allocator<int> >, std::allocator<std::__debug::vector<int, std::allocator<int> > > >::_Vector_impl", %"struct.std::__cxx1998::_Vector_base<std::__debug::vector<int, std::allocator<int> >, std::allocator<std::__debug::vector<int, std::allocator<int> > > >::_Vector_impl"* %12, i32 0, i32 0
  %14 = load %"class.std::__debug::vector"*, %"class.std::__debug::vector"** %13, align 8
  %15 = ptrtoint %"class.std::__debug::vector"* %11 to i64
  %16 = ptrtoint %"class.std::__debug::vector"* %14 to i64
  %17 = sub i64 %15, %16
  %18 = sdiv exact i64 %17, 56
  invoke void @_ZNSt9__cxx199812_Vector_baseINSt7__debug6vectorIiSaIiEEESaIS4_EE13_M_deallocateEPS4_m(%"struct.std::__cxx1998::_Vector_base.28"* %5, %"class.std::__debug::vector"* %8, i64 %18)
          to label %19 unwind label %21

; <label>:19:                                     ; preds = %1
  %20 = getelementptr inbounds %"struct.std::__cxx1998::_Vector_base.28", %"struct.std::__cxx1998::_Vector_base.28"* %5, i32 0, i32 0
  call void @_ZNSt9__cxx199812_Vector_baseINSt7__debug6vectorIiSaIiEEESaIS4_EE12_Vector_implD2Ev(%"struct.std::__cxx1998::_Vector_base<std::__debug::vector<int, std::allocator<int> >, std::allocator<std::__debug::vector<int, std::allocator<int> > > >::_Vector_impl"* %20) #3
  ret void

; <label>:21:                                     ; preds = %1
  %22 = landingpad { i8*, i32 }
          catch i8* null
  %23 = extractvalue { i8*, i32 } %22, 0
  store i8* %23, i8** %3, align 8
  %24 = extractvalue { i8*, i32 } %22, 1
  store i32 %24, i32* %4, align 4
  %25 = getelementptr inbounds %"struct.std::__cxx1998::_Vector_base.28", %"struct.std::__cxx1998::_Vector_base.28"* %5, i32 0, i32 0
  call void @_ZNSt9__cxx199812_Vector_baseINSt7__debug6vectorIiSaIiEEESaIS4_EE12_Vector_implD2Ev(%"struct.std::__cxx1998::_Vector_base<std::__debug::vector<int, std::allocator<int> >, std::allocator<std::__debug::vector<int, std::allocator<int> > > >::_Vector_impl"* %25) #3
  br label %26

; <label>:26:                                     ; preds = %21
  %27 = load i8*, i8** %3, align 8
  call void @__clang_call_terminate(i8* %27) #13
  unreachable
}

; Function Attrs: noinline uwtable
define linkonce_odr void @_ZSt8_DestroyIPNSt7__debug6vectorIiSaIiEEEEvT_S5_(%"class.std::__debug::vector"*, %"class.std::__debug::vector"*) #0 comdat {
  %3 = alloca %"class.std::__debug::vector"*, align 8
  %4 = alloca %"class.std::__debug::vector"*, align 8
  store %"class.std::__debug::vector"* %0, %"class.std::__debug::vector"** %3, align 8
  store %"class.std::__debug::vector"* %1, %"class.std::__debug::vector"** %4, align 8
  %5 = load %"class.std::__debug::vector"*, %"class.std::__debug::vector"** %3, align 8
  %6 = load %"class.std::__debug::vector"*, %"class.std::__debug::vector"** %4, align 8
  call void @_ZNSt12_Destroy_auxILb0EE9__destroyIPNSt7__debug6vectorIiSaIiEEEEEvT_S7_(%"class.std::__debug::vector"* %5, %"class.std::__debug::vector"* %6)
  ret void
}

; Function Attrs: noinline uwtable
define linkonce_odr void @_ZNSt12_Destroy_auxILb0EE9__destroyIPNSt7__debug6vectorIiSaIiEEEEEvT_S7_(%"class.std::__debug::vector"*, %"class.std::__debug::vector"*) #0 comdat align 2 {
  %3 = load i32, i32* @x.229
  %4 = load i32, i32* @y.230
  %5 = sub i32 %3, 1
  %6 = mul i32 %3, %5
  %7 = urem i32 %6, 2
  %8 = icmp eq i32 %7, 0
  %9 = icmp slt i32 %4, 10
  %10 = or i1 %8, %9
  br i1 %10, label %11, label %34

; <label>:11:                                     ; preds = %2, %34
  %12 = alloca %"class.std::__debug::vector"*, align 8
  %13 = alloca %"class.std::__debug::vector"*, align 8
  store %"class.std::__debug::vector"* %0, %"class.std::__debug::vector"** %12, align 8
  store %"class.std::__debug::vector"* %1, %"class.std::__debug::vector"** %13, align 8
  %14 = load i32, i32* @x.229
  %15 = load i32, i32* @y.230
  %16 = sub i32 %14, 1
  %17 = mul i32 %14, %16
  %18 = urem i32 %17, 2
  %19 = icmp eq i32 %18, 0
  %20 = icmp slt i32 %15, 10
  %21 = or i1 %19, %20
  br i1 %21, label %22, label %34

; <label>:22:                                     ; preds = %11
  br label %23

; <label>:23:                                     ; preds = %30, %22
  %24 = load %"class.std::__debug::vector"*, %"class.std::__debug::vector"** %12, align 8
  %25 = load %"class.std::__debug::vector"*, %"class.std::__debug::vector"** %13, align 8
  %26 = icmp ne %"class.std::__debug::vector"* %24, %25
  br i1 %26, label %27, label %33

; <label>:27:                                     ; preds = %23
  %28 = load %"class.std::__debug::vector"*, %"class.std::__debug::vector"** %12, align 8
  %29 = call %"class.std::__debug::vector"* @_ZSt11__addressofINSt7__debug6vectorIiSaIiEEEEPT_RS4_(%"class.std::__debug::vector"* dereferenceable(56) %28) #3
  call void @_ZSt8_DestroyINSt7__debug6vectorIiSaIiEEEEvPT_(%"class.std::__debug::vector"* %29)
  br label %30

; <label>:30:                                     ; preds = %27
  %31 = load %"class.std::__debug::vector"*, %"class.std::__debug::vector"** %12, align 8
  %32 = getelementptr inbounds %"class.std::__debug::vector", %"class.std::__debug::vector"* %31, i32 1
  store %"class.std::__debug::vector"* %32, %"class.std::__debug::vector"** %12, align 8
  br label %23

; <label>:33:                                     ; preds = %23
  ret void

; <label>:34:                                     ; preds = %11, %2
  %35 = alloca %"class.std::__debug::vector"*, align 8
  %36 = alloca %"class.std::__debug::vector"*, align 8
  store %"class.std::__debug::vector"* %0, %"class.std::__debug::vector"** %35, align 8
  store %"class.std::__debug::vector"* %1, %"class.std::__debug::vector"** %36, align 8
  br label %11
}

; Function Attrs: noinline nounwind uwtable
define linkonce_odr void @_ZSt8_DestroyINSt7__debug6vectorIiSaIiEEEEvPT_(%"class.std::__debug::vector"*) #5 comdat {
  %2 = load i32, i32* @x.231
  %3 = load i32, i32* @y.232
  %4 = sub i32 %2, 1
  %5 = mul i32 %2, %4
  %6 = urem i32 %5, 2
  %7 = icmp eq i32 %6, 0
  %8 = icmp slt i32 %3, 10
  %9 = or i1 %7, %8
  br i1 %9, label %10, label %22

; <label>:10:                                     ; preds = %1, %22
  %11 = alloca %"class.std::__debug::vector"*, align 8
  store %"class.std::__debug::vector"* %0, %"class.std::__debug::vector"** %11, align 8
  %12 = load %"class.std::__debug::vector"*, %"class.std::__debug::vector"** %11, align 8
  call void @_ZNSt7__debug6vectorIiSaIiEED2Ev(%"class.std::__debug::vector"* %12) #3
  %13 = load i32, i32* @x.231
  %14 = load i32, i32* @y.232
  %15 = sub i32 %13, 1
  %16 = mul i32 %13, %15
  %17 = urem i32 %16, 2
  %18 = icmp eq i32 %17, 0
  %19 = icmp slt i32 %14, 10
  %20 = or i1 %18, %19
  br i1 %20, label %21, label %22

; <label>:21:                                     ; preds = %10
  ret void

; <label>:22:                                     ; preds = %10, %1
  %23 = alloca %"class.std::__debug::vector"*, align 8
  store %"class.std::__debug::vector"* %0, %"class.std::__debug::vector"** %23, align 8
  %24 = load %"class.std::__debug::vector"*, %"class.std::__debug::vector"** %23, align 8
  call void @_ZNSt7__debug6vectorIiSaIiEED2Ev(%"class.std::__debug::vector"* %24) #3
  br label %10
}

; Function Attrs: noinline nounwind uwtable
define linkonce_odr %"class.std::__debug::vector"* @_ZSt11__addressofINSt7__debug6vectorIiSaIiEEEEPT_RS4_(%"class.std::__debug::vector"* dereferenceable(56)) #5 comdat {
  %2 = alloca %"class.std::__debug::vector"*, align 8
  store %"class.std::__debug::vector"* %0, %"class.std::__debug::vector"** %2, align 8
  %3 = load %"class.std::__debug::vector"*, %"class.std::__debug::vector"** %2, align 8
  %4 = bitcast %"class.std::__debug::vector"* %3 to i8*
  %5 = bitcast i8* %4 to %"class.std::__debug::vector"*
  ret %"class.std::__debug::vector"* %5
}

; Function Attrs: noinline uwtable
define linkonce_odr void @_ZNSt9__cxx199812_Vector_baseINSt7__debug6vectorIiSaIiEEESaIS4_EE13_M_deallocateEPS4_m(%"struct.std::__cxx1998::_Vector_base.28"*, %"class.std::__debug::vector"*, i64) #0 comdat align 2 {
  %4 = alloca %"struct.std::__cxx1998::_Vector_base.28"*, align 8
  %5 = alloca %"class.std::__debug::vector"*, align 8
  %6 = alloca i64, align 8
  store %"struct.std::__cxx1998::_Vector_base.28"* %0, %"struct.std::__cxx1998::_Vector_base.28"** %4, align 8
  store %"class.std::__debug::vector"* %1, %"class.std::__debug::vector"** %5, align 8
  store i64 %2, i64* %6, align 8
  %7 = load %"struct.std::__cxx1998::_Vector_base.28"*, %"struct.std::__cxx1998::_Vector_base.28"** %4, align 8
  %8 = load %"class.std::__debug::vector"*, %"class.std::__debug::vector"** %5, align 8
  %9 = icmp ne %"class.std::__debug::vector"* %8, null
  br i1 %9, label %10, label %15

; <label>:10:                                     ; preds = %3
  %11 = getelementptr inbounds %"struct.std::__cxx1998::_Vector_base.28", %"struct.std::__cxx1998::_Vector_base.28"* %7, i32 0, i32 0
  %12 = bitcast %"struct.std::__cxx1998::_Vector_base<std::__debug::vector<int, std::allocator<int> >, std::allocator<std::__debug::vector<int, std::allocator<int> > > >::_Vector_impl"* %11 to %"class.std::allocator.29"*
  %13 = load %"class.std::__debug::vector"*, %"class.std::__debug::vector"** %5, align 8
  %14 = load i64, i64* %6, align 8
  call void @_ZNSt16allocator_traitsISaINSt7__debug6vectorIiSaIiEEEEE10deallocateERS4_PS3_m(%"class.std::allocator.29"* dereferenceable(1) %12, %"class.std::__debug::vector"* %13, i64 %14)
  br label %15

; <label>:15:                                     ; preds = %10, %3
  %16 = load i32, i32* @x.235
  %17 = load i32, i32* @y.236
  %18 = sub i32 %16, 1
  %19 = mul i32 %16, %18
  %20 = urem i32 %19, 2
  %21 = icmp eq i32 %20, 0
  %22 = icmp slt i32 %17, 10
  %23 = or i1 %21, %22
  br i1 %23, label %24, label %34

; <label>:24:                                     ; preds = %15, %34
  %25 = load i32, i32* @x.235
  %26 = load i32, i32* @y.236
  %27 = sub i32 %25, 1
  %28 = mul i32 %25, %27
  %29 = urem i32 %28, 2
  %30 = icmp eq i32 %29, 0
  %31 = icmp slt i32 %26, 10
  %32 = or i1 %30, %31
  br i1 %32, label %33, label %34

; <label>:33:                                     ; preds = %24
  ret void

; <label>:34:                                     ; preds = %24, %15
  br label %24
}

; Function Attrs: noinline nounwind uwtable
define linkonce_odr void @_ZNSt9__cxx199812_Vector_baseINSt7__debug6vectorIiSaIiEEESaIS4_EE12_Vector_implD2Ev(%"struct.std::__cxx1998::_Vector_base<std::__debug::vector<int, std::allocator<int> >, std::allocator<std::__debug::vector<int, std::allocator<int> > > >::_Vector_impl"*) unnamed_addr #5 comdat align 2 {
  %2 = load i32, i32* @x.237
  %3 = load i32, i32* @y.238
  %4 = sub i32 %2, 1
  %5 = mul i32 %2, %4
  %6 = urem i32 %5, 2
  %7 = icmp eq i32 %6, 0
  %8 = icmp slt i32 %3, 10
  %9 = or i1 %7, %8
  br i1 %9, label %10, label %23

; <label>:10:                                     ; preds = %1, %23
  %11 = alloca %"struct.std::__cxx1998::_Vector_base<std::__debug::vector<int, std::allocator<int> >, std::allocator<std::__debug::vector<int, std::allocator<int> > > >::_Vector_impl"*, align 8
  store %"struct.std::__cxx1998::_Vector_base<std::__debug::vector<int, std::allocator<int> >, std::allocator<std::__debug::vector<int, std::allocator<int> > > >::_Vector_impl"* %0, %"struct.std::__cxx1998::_Vector_base<std::__debug::vector<int, std::allocator<int> >, std::allocator<std::__debug::vector<int, std::allocator<int> > > >::_Vector_impl"** %11, align 8
  %12 = load %"struct.std::__cxx1998::_Vector_base<std::__debug::vector<int, std::allocator<int> >, std::allocator<std::__debug::vector<int, std::allocator<int> > > >::_Vector_impl"*, %"struct.std::__cxx1998::_Vector_base<std::__debug::vector<int, std::allocator<int> >, std::allocator<std::__debug::vector<int, std::allocator<int> > > >::_Vector_impl"** %11, align 8
  %13 = bitcast %"struct.std::__cxx1998::_Vector_base<std::__debug::vector<int, std::allocator<int> >, std::allocator<std::__debug::vector<int, std::allocator<int> > > >::_Vector_impl"* %12 to %"class.std::allocator.29"*
  call void @_ZNSaINSt7__debug6vectorIiSaIiEEEED2Ev(%"class.std::allocator.29"* %13) #3
  %14 = load i32, i32* @x.237
  %15 = load i32, i32* @y.238
  %16 = sub i32 %14, 1
  %17 = mul i32 %14, %16
  %18 = urem i32 %17, 2
  %19 = icmp eq i32 %18, 0
  %20 = icmp slt i32 %15, 10
  %21 = or i1 %19, %20
  br i1 %21, label %22, label %23

; <label>:22:                                     ; preds = %10
  ret void

; <label>:23:                                     ; preds = %10, %1
  %24 = alloca %"struct.std::__cxx1998::_Vector_base<std::__debug::vector<int, std::allocator<int> >, std::allocator<std::__debug::vector<int, std::allocator<int> > > >::_Vector_impl"*, align 8
  store %"struct.std::__cxx1998::_Vector_base<std::__debug::vector<int, std::allocator<int> >, std::allocator<std::__debug::vector<int, std::allocator<int> > > >::_Vector_impl"* %0, %"struct.std::__cxx1998::_Vector_base<std::__debug::vector<int, std::allocator<int> >, std::allocator<std::__debug::vector<int, std::allocator<int> > > >::_Vector_impl"** %24, align 8
  %25 = load %"struct.std::__cxx1998::_Vector_base<std::__debug::vector<int, std::allocator<int> >, std::allocator<std::__debug::vector<int, std::allocator<int> > > >::_Vector_impl"*, %"struct.std::__cxx1998::_Vector_base<std::__debug::vector<int, std::allocator<int> >, std::allocator<std::__debug::vector<int, std::allocator<int> > > >::_Vector_impl"** %24, align 8
  %26 = bitcast %"struct.std::__cxx1998::_Vector_base<std::__debug::vector<int, std::allocator<int> >, std::allocator<std::__debug::vector<int, std::allocator<int> > > >::_Vector_impl"* %25 to %"class.std::allocator.29"*
  call void @_ZNSaINSt7__debug6vectorIiSaIiEEEED2Ev(%"class.std::allocator.29"* %26) #3
  br label %10
}

; Function Attrs: noinline uwtable
define linkonce_odr void @_ZNSt16allocator_traitsISaINSt7__debug6vectorIiSaIiEEEEE10deallocateERS4_PS3_m(%"class.std::allocator.29"* dereferenceable(1), %"class.std::__debug::vector"*, i64) #0 comdat align 2 {
  %4 = alloca %"class.std::allocator.29"*, align 8
  %5 = alloca %"class.std::__debug::vector"*, align 8
  %6 = alloca i64, align 8
  store %"class.std::allocator.29"* %0, %"class.std::allocator.29"** %4, align 8
  store %"class.std::__debug::vector"* %1, %"class.std::__debug::vector"** %5, align 8
  store i64 %2, i64* %6, align 8
  %7 = load %"class.std::allocator.29"*, %"class.std::allocator.29"** %4, align 8
  %8 = bitcast %"class.std::allocator.29"* %7 to %"class.__gnu_cxx::new_allocator.30"*
  %9 = load %"class.std::__debug::vector"*, %"class.std::__debug::vector"** %5, align 8
  %10 = load i64, i64* %6, align 8
  call void @_ZN9__gnu_cxx13new_allocatorINSt7__debug6vectorIiSaIiEEEE10deallocateEPS4_m(%"class.__gnu_cxx::new_allocator.30"* %8, %"class.std::__debug::vector"* %9, i64 %10)
  ret void
}

; Function Attrs: noinline nounwind uwtable
define linkonce_odr void @_ZN9__gnu_cxx13new_allocatorINSt7__debug6vectorIiSaIiEEEE10deallocateEPS4_m(%"class.__gnu_cxx::new_allocator.30"*, %"class.std::__debug::vector"*, i64) #5 comdat align 2 {
  %4 = alloca %"class.__gnu_cxx::new_allocator.30"*, align 8
  %5 = alloca %"class.std::__debug::vector"*, align 8
  %6 = alloca i64, align 8
  store %"class.__gnu_cxx::new_allocator.30"* %0, %"class.__gnu_cxx::new_allocator.30"** %4, align 8
  store %"class.std::__debug::vector"* %1, %"class.std::__debug::vector"** %5, align 8
  store i64 %2, i64* %6, align 8
  %7 = load %"class.__gnu_cxx::new_allocator.30"*, %"class.__gnu_cxx::new_allocator.30"** %4, align 8
  %8 = load %"class.std::__debug::vector"*, %"class.std::__debug::vector"** %5, align 8
  %9 = bitcast %"class.std::__debug::vector"* %8 to i8*
  call void @_ZdlPv(i8* %9) #3
  ret void
}

; Function Attrs: noinline nounwind uwtable
define linkonce_odr void @_ZN9__gnu_cxx13new_allocatorINSt7__debug6vectorIiSaIiEEEED2Ev(%"class.__gnu_cxx::new_allocator.30"*) unnamed_addr #5 comdat align 2 {
  %2 = alloca %"class.__gnu_cxx::new_allocator.30"*, align 8
  store %"class.__gnu_cxx::new_allocator.30"* %0, %"class.__gnu_cxx::new_allocator.30"** %2, align 8
  %3 = load %"class.__gnu_cxx::new_allocator.30"*, %"class.__gnu_cxx::new_allocator.30"** %2, align 8
  ret void
}

; Function Attrs: noinline nounwind uwtable
define linkonce_odr void @_ZN11__gnu_debug14_Safe_sequenceINSt7__debug6vectorINS2_IiSaIiEEESaIS4_EEEED2Ev(%"class.__gnu_debug::_Safe_sequence.24"*) unnamed_addr #5 comdat align 2 {
  %2 = alloca %"class.__gnu_debug::_Safe_sequence.24"*, align 8
  store %"class.__gnu_debug::_Safe_sequence.24"* %0, %"class.__gnu_debug::_Safe_sequence.24"** %2, align 8
  %3 = load %"class.__gnu_debug::_Safe_sequence.24"*, %"class.__gnu_debug::_Safe_sequence.24"** %2, align 8
  %4 = bitcast %"class.__gnu_debug::_Safe_sequence.24"* %3 to %"class.__gnu_debug::_Safe_sequence_base"*
  call void @_ZN11__gnu_debug19_Safe_sequence_baseD2Ev(%"class.__gnu_debug::_Safe_sequence_base"* %4) #3
  ret void
}

; Function Attrs: noinline nounwind uwtable
define linkonce_odr void @_ZNSt9__cxx19986vectorINSt7__debug6vectorISt4pairIiiESaIS4_EEESaIS6_EED2Ev(%"class.std::__cxx1998::vector.5"*) unnamed_addr #5 comdat align 2 personality i8* bitcast (i32 (...)* @__gxx_personality_v0 to i8*) {
  %2 = alloca %"class.std::__cxx1998::vector.5"*, align 8
  %3 = alloca i8*
  %4 = alloca i32
  store %"class.std::__cxx1998::vector.5"* %0, %"class.std::__cxx1998::vector.5"** %2, align 8
  %5 = load %"class.std::__cxx1998::vector.5"*, %"class.std::__cxx1998::vector.5"** %2, align 8
  %6 = bitcast %"class.std::__cxx1998::vector.5"* %5 to %"struct.std::__cxx1998::_Vector_base.6"*
  %7 = getelementptr inbounds %"struct.std::__cxx1998::_Vector_base.6", %"struct.std::__cxx1998::_Vector_base.6"* %6, i32 0, i32 0
  %8 = getelementptr inbounds %"struct.std::__cxx1998::_Vector_base<std::__debug::vector<std::pair<int, int>, std::allocator<std::pair<int, int> > >, std::allocator<std::__debug::vector<std::pair<int, int>, std::allocator<std::pair<int, int> > > > >::_Vector_impl", %"struct.std::__cxx1998::_Vector_base<std::__debug::vector<std::pair<int, int>, std::allocator<std::pair<int, int> > >, std::allocator<std::__debug::vector<std::pair<int, int>, std::allocator<std::pair<int, int> > > > >::_Vector_impl"* %7, i32 0, i32 0
  %9 = load %"class.std::__debug::vector.10"*, %"class.std::__debug::vector.10"** %8, align 8
  %10 = bitcast %"class.std::__cxx1998::vector.5"* %5 to %"struct.std::__cxx1998::_Vector_base.6"*
  %11 = getelementptr inbounds %"struct.std::__cxx1998::_Vector_base.6", %"struct.std::__cxx1998::_Vector_base.6"* %10, i32 0, i32 0
  %12 = getelementptr inbounds %"struct.std::__cxx1998::_Vector_base<std::__debug::vector<std::pair<int, int>, std::allocator<std::pair<int, int> > >, std::allocator<std::__debug::vector<std::pair<int, int>, std::allocator<std::pair<int, int> > > > >::_Vector_impl", %"struct.std::__cxx1998::_Vector_base<std::__debug::vector<std::pair<int, int>, std::allocator<std::pair<int, int> > >, std::allocator<std::__debug::vector<std::pair<int, int>, std::allocator<std::pair<int, int> > > > >::_Vector_impl"* %11, i32 0, i32 1
  %13 = load %"class.std::__debug::vector.10"*, %"class.std::__debug::vector.10"** %12, align 8
  %14 = bitcast %"class.std::__cxx1998::vector.5"* %5 to %"struct.std::__cxx1998::_Vector_base.6"*
  %15 = call dereferenceable(1) %"class.std::allocator.7"* @_ZNSt9__cxx199812_Vector_baseINSt7__debug6vectorISt4pairIiiESaIS4_EEESaIS6_EE19_M_get_Tp_allocatorEv(%"struct.std::__cxx1998::_Vector_base.6"* %14) #3
  invoke void @_ZSt8_DestroyIPNSt7__debug6vectorISt4pairIiiESaIS3_EEES5_EvT_S7_RSaIT0_E(%"class.std::__debug::vector.10"* %9, %"class.std::__debug::vector.10"* %13, %"class.std::allocator.7"* dereferenceable(1) %15)
          to label %16 unwind label %36

; <label>:16:                                     ; preds = %1
  %17 = load i32, i32* @x.247
  %18 = load i32, i32* @y.248
  %19 = sub i32 %17, 1
  %20 = mul i32 %17, %19
  %21 = urem i32 %20, 2
  %22 = icmp eq i32 %21, 0
  %23 = icmp slt i32 %18, 10
  %24 = or i1 %22, %23
  br i1 %24, label %25, label %43

; <label>:25:                                     ; preds = %16, %43
  %26 = bitcast %"class.std::__cxx1998::vector.5"* %5 to %"struct.std::__cxx1998::_Vector_base.6"*
  call void @_ZNSt9__cxx199812_Vector_baseINSt7__debug6vectorISt4pairIiiESaIS4_EEESaIS6_EED2Ev(%"struct.std::__cxx1998::_Vector_base.6"* %26) #3
  %27 = load i32, i32* @x.247
  %28 = load i32, i32* @y.248
  %29 = sub i32 %27, 1
  %30 = mul i32 %27, %29
  %31 = urem i32 %30, 2
  %32 = icmp eq i32 %31, 0
  %33 = icmp slt i32 %28, 10
  %34 = or i1 %32, %33
  br i1 %34, label %35, label %43

; <label>:35:                                     ; preds = %25
  ret void

; <label>:36:                                     ; preds = %1
  %37 = landingpad { i8*, i32 }
          catch i8* null
  %38 = extractvalue { i8*, i32 } %37, 0
  store i8* %38, i8** %3, align 8
  %39 = extractvalue { i8*, i32 } %37, 1
  store i32 %39, i32* %4, align 4
  %40 = bitcast %"class.std::__cxx1998::vector.5"* %5 to %"struct.std::__cxx1998::_Vector_base.6"*
  call void @_ZNSt9__cxx199812_Vector_baseINSt7__debug6vectorISt4pairIiiESaIS4_EEESaIS6_EED2Ev(%"struct.std::__cxx1998::_Vector_base.6"* %40) #3
  br label %41

; <label>:41:                                     ; preds = %36
  %42 = load i8*, i8** %3, align 8
  call void @__clang_call_terminate(i8* %42) #13
  unreachable

; <label>:43:                                     ; preds = %25, %16
  %44 = bitcast %"class.std::__cxx1998::vector.5"* %5 to %"struct.std::__cxx1998::_Vector_base.6"*
  call void @_ZNSt9__cxx199812_Vector_baseINSt7__debug6vectorISt4pairIiiESaIS4_EEESaIS6_EED2Ev(%"struct.std::__cxx1998::_Vector_base.6"* %44) #3
  br label %25
}

; Function Attrs: noinline nounwind uwtable
define linkonce_odr void @_ZN11__gnu_debug15_Safe_containerINSt7__debug6vectorINS2_ISt4pairIiiESaIS4_EEESaIS6_EEES7_NS_14_Safe_sequenceELb1EED2Ev(%"class.__gnu_debug::_Safe_container.1"*) unnamed_addr #5 comdat align 2 {
  %2 = load i32, i32* @x.249
  %3 = load i32, i32* @y.250
  %4 = sub i32 %2, 1
  %5 = mul i32 %2, %4
  %6 = urem i32 %5, 2
  %7 = icmp eq i32 %6, 0
  %8 = icmp slt i32 %3, 10
  %9 = or i1 %7, %8
  br i1 %9, label %10, label %23

; <label>:10:                                     ; preds = %1, %23
  %11 = alloca %"class.__gnu_debug::_Safe_container.1"*, align 8
  store %"class.__gnu_debug::_Safe_container.1"* %0, %"class.__gnu_debug::_Safe_container.1"** %11, align 8
  %12 = load %"class.__gnu_debug::_Safe_container.1"*, %"class.__gnu_debug::_Safe_container.1"** %11, align 8
  %13 = bitcast %"class.__gnu_debug::_Safe_container.1"* %12 to %"class.__gnu_debug::_Safe_sequence.2"*
  call void @_ZN11__gnu_debug14_Safe_sequenceINSt7__debug6vectorINS2_ISt4pairIiiESaIS4_EEESaIS6_EEEED2Ev(%"class.__gnu_debug::_Safe_sequence.2"* %13) #3
  %14 = load i32, i32* @x.249
  %15 = load i32, i32* @y.250
  %16 = sub i32 %14, 1
  %17 = mul i32 %14, %16
  %18 = urem i32 %17, 2
  %19 = icmp eq i32 %18, 0
  %20 = icmp slt i32 %15, 10
  %21 = or i1 %19, %20
  br i1 %21, label %22, label %23

; <label>:22:                                     ; preds = %10
  ret void

; <label>:23:                                     ; preds = %10, %1
  %24 = alloca %"class.__gnu_debug::_Safe_container.1"*, align 8
  store %"class.__gnu_debug::_Safe_container.1"* %0, %"class.__gnu_debug::_Safe_container.1"** %24, align 8
  %25 = load %"class.__gnu_debug::_Safe_container.1"*, %"class.__gnu_debug::_Safe_container.1"** %24, align 8
  %26 = bitcast %"class.__gnu_debug::_Safe_container.1"* %25 to %"class.__gnu_debug::_Safe_sequence.2"*
  call void @_ZN11__gnu_debug14_Safe_sequenceINSt7__debug6vectorINS2_ISt4pairIiiESaIS4_EEESaIS6_EEEED2Ev(%"class.__gnu_debug::_Safe_sequence.2"* %26) #3
  br label %10
}

; Function Attrs: noinline uwtable
define linkonce_odr void @_ZSt8_DestroyIPNSt7__debug6vectorISt4pairIiiESaIS3_EEES5_EvT_S7_RSaIT0_E(%"class.std::__debug::vector.10"*, %"class.std::__debug::vector.10"*, %"class.std::allocator.7"* dereferenceable(1)) #0 comdat {
  %4 = alloca %"class.std::__debug::vector.10"*, align 8
  %5 = alloca %"class.std::__debug::vector.10"*, align 8
  %6 = alloca %"class.std::allocator.7"*, align 8
  store %"class.std::__debug::vector.10"* %0, %"class.std::__debug::vector.10"** %4, align 8
  store %"class.std::__debug::vector.10"* %1, %"class.std::__debug::vector.10"** %5, align 8
  store %"class.std::allocator.7"* %2, %"class.std::allocator.7"** %6, align 8
  %7 = load %"class.std::__debug::vector.10"*, %"class.std::__debug::vector.10"** %4, align 8
  %8 = load %"class.std::__debug::vector.10"*, %"class.std::__debug::vector.10"** %5, align 8
  call void @_ZSt8_DestroyIPNSt7__debug6vectorISt4pairIiiESaIS3_EEEEvT_S7_(%"class.std::__debug::vector.10"* %7, %"class.std::__debug::vector.10"* %8)
  ret void
}

; Function Attrs: noinline nounwind uwtable
define linkonce_odr dereferenceable(1) %"class.std::allocator.7"* @_ZNSt9__cxx199812_Vector_baseINSt7__debug6vectorISt4pairIiiESaIS4_EEESaIS6_EE19_M_get_Tp_allocatorEv(%"struct.std::__cxx1998::_Vector_base.6"*) #5 comdat align 2 {
  %2 = alloca %"struct.std::__cxx1998::_Vector_base.6"*, align 8
  store %"struct.std::__cxx1998::_Vector_base.6"* %0, %"struct.std::__cxx1998::_Vector_base.6"** %2, align 8
  %3 = load %"struct.std::__cxx1998::_Vector_base.6"*, %"struct.std::__cxx1998::_Vector_base.6"** %2, align 8
  %4 = getelementptr inbounds %"struct.std::__cxx1998::_Vector_base.6", %"struct.std::__cxx1998::_Vector_base.6"* %3, i32 0, i32 0
  %5 = bitcast %"struct.std::__cxx1998::_Vector_base<std::__debug::vector<std::pair<int, int>, std::allocator<std::pair<int, int> > >, std::allocator<std::__debug::vector<std::pair<int, int>, std::allocator<std::pair<int, int> > > > >::_Vector_impl"* %4 to %"class.std::allocator.7"*
  ret %"class.std::allocator.7"* %5
}

; Function Attrs: noinline nounwind uwtable
define linkonce_odr void @_ZNSt9__cxx199812_Vector_baseINSt7__debug6vectorISt4pairIiiESaIS4_EEESaIS6_EED2Ev(%"struct.std::__cxx1998::_Vector_base.6"*) unnamed_addr #5 comdat align 2 personality i8* bitcast (i32 (...)* @__gxx_personality_v0 to i8*) {
  %2 = alloca %"struct.std::__cxx1998::_Vector_base.6"*, align 8
  %3 = alloca i8*
  %4 = alloca i32
  store %"struct.std::__cxx1998::_Vector_base.6"* %0, %"struct.std::__cxx1998::_Vector_base.6"** %2, align 8
  %5 = load %"struct.std::__cxx1998::_Vector_base.6"*, %"struct.std::__cxx1998::_Vector_base.6"** %2, align 8
  %6 = getelementptr inbounds %"struct.std::__cxx1998::_Vector_base.6", %"struct.std::__cxx1998::_Vector_base.6"* %5, i32 0, i32 0
  %7 = getelementptr inbounds %"struct.std::__cxx1998::_Vector_base<std::__debug::vector<std::pair<int, int>, std::allocator<std::pair<int, int> > >, std::allocator<std::__debug::vector<std::pair<int, int>, std::allocator<std::pair<int, int> > > > >::_Vector_impl", %"struct.std::__cxx1998::_Vector_base<std::__debug::vector<std::pair<int, int>, std::allocator<std::pair<int, int> > >, std::allocator<std::__debug::vector<std::pair<int, int>, std::allocator<std::pair<int, int> > > > >::_Vector_impl"* %6, i32 0, i32 0
  %8 = load %"class.std::__debug::vector.10"*, %"class.std::__debug::vector.10"** %7, align 8
  %9 = getelementptr inbounds %"struct.std::__cxx1998::_Vector_base.6", %"struct.std::__cxx1998::_Vector_base.6"* %5, i32 0, i32 0
  %10 = getelementptr inbounds %"struct.std::__cxx1998::_Vector_base<std::__debug::vector<std::pair<int, int>, std::allocator<std::pair<int, int> > >, std::allocator<std::__debug::vector<std::pair<int, int>, std::allocator<std::pair<int, int> > > > >::_Vector_impl", %"struct.std::__cxx1998::_Vector_base<std::__debug::vector<std::pair<int, int>, std::allocator<std::pair<int, int> > >, std::allocator<std::__debug::vector<std::pair<int, int>, std::allocator<std::pair<int, int> > > > >::_Vector_impl"* %9, i32 0, i32 2
  %11 = load %"class.std::__debug::vector.10"*, %"class.std::__debug::vector.10"** %10, align 8
  %12 = getelementptr inbounds %"struct.std::__cxx1998::_Vector_base.6", %"struct.std::__cxx1998::_Vector_base.6"* %5, i32 0, i32 0
  %13 = getelementptr inbounds %"struct.std::__cxx1998::_Vector_base<std::__debug::vector<std::pair<int, int>, std::allocator<std::pair<int, int> > >, std::allocator<std::__debug::vector<std::pair<int, int>, std::allocator<std::pair<int, int> > > > >::_Vector_impl", %"struct.std::__cxx1998::_Vector_base<std::__debug::vector<std::pair<int, int>, std::allocator<std::pair<int, int> > >, std::allocator<std::__debug::vector<std::pair<int, int>, std::allocator<std::pair<int, int> > > > >::_Vector_impl"* %12, i32 0, i32 0
  %14 = load %"class.std::__debug::vector.10"*, %"class.std::__debug::vector.10"** %13, align 8
  %15 = ptrtoint %"class.std::__debug::vector.10"* %11 to i64
  %16 = ptrtoint %"class.std::__debug::vector.10"* %14 to i64
  %17 = sub i64 %15, %16
  %18 = sdiv exact i64 %17, 56
  invoke void @_ZNSt9__cxx199812_Vector_baseINSt7__debug6vectorISt4pairIiiESaIS4_EEESaIS6_EE13_M_deallocateEPS6_m(%"struct.std::__cxx1998::_Vector_base.6"* %5, %"class.std::__debug::vector.10"* %8, i64 %18)
          to label %19 unwind label %21

; <label>:19:                                     ; preds = %1
  %20 = getelementptr inbounds %"struct.std::__cxx1998::_Vector_base.6", %"struct.std::__cxx1998::_Vector_base.6"* %5, i32 0, i32 0
  call void @_ZNSt9__cxx199812_Vector_baseINSt7__debug6vectorISt4pairIiiESaIS4_EEESaIS6_EE12_Vector_implD2Ev(%"struct.std::__cxx1998::_Vector_base<std::__debug::vector<std::pair<int, int>, std::allocator<std::pair<int, int> > >, std::allocator<std::__debug::vector<std::pair<int, int>, std::allocator<std::pair<int, int> > > > >::_Vector_impl"* %20) #3
  ret void

; <label>:21:                                     ; preds = %1
  %22 = load i32, i32* @x.255
  %23 = load i32, i32* @y.256
  %24 = sub i32 %22, 1
  %25 = mul i32 %22, %24
  %26 = urem i32 %25, 2
  %27 = icmp eq i32 %26, 0
  %28 = icmp slt i32 %23, 10
  %29 = or i1 %27, %28
  br i1 %29, label %30, label %46

; <label>:30:                                     ; preds = %21, %46
  %31 = landingpad { i8*, i32 }
          catch i8* null
  %32 = extractvalue { i8*, i32 } %31, 0
  store i8* %32, i8** %3, align 8
  %33 = extractvalue { i8*, i32 } %31, 1
  store i32 %33, i32* %4, align 4
  %34 = getelementptr inbounds %"struct.std::__cxx1998::_Vector_base.6", %"struct.std::__cxx1998::_Vector_base.6"* %5, i32 0, i32 0
  call void @_ZNSt9__cxx199812_Vector_baseINSt7__debug6vectorISt4pairIiiESaIS4_EEESaIS6_EE12_Vector_implD2Ev(%"struct.std::__cxx1998::_Vector_base<std::__debug::vector<std::pair<int, int>, std::allocator<std::pair<int, int> > >, std::allocator<std::__debug::vector<std::pair<int, int>, std::allocator<std::pair<int, int> > > > >::_Vector_impl"* %34) #3
  %35 = load i32, i32* @x.255
  %36 = load i32, i32* @y.256
  %37 = sub i32 %35, 1
  %38 = mul i32 %35, %37
  %39 = urem i32 %38, 2
  %40 = icmp eq i32 %39, 0
  %41 = icmp slt i32 %36, 10
  %42 = or i1 %40, %41
  br i1 %42, label %43, label %46

; <label>:43:                                     ; preds = %30
  br label %44

; <label>:44:                                     ; preds = %43
  %45 = load i8*, i8** %3, align 8
  call void @__clang_call_terminate(i8* %45) #13
  unreachable

; <label>:46:                                     ; preds = %30, %21
  %47 = landingpad { i8*, i32 }
          catch i8* null
  %48 = extractvalue { i8*, i32 } %47, 0
  store i8* %48, i8** %3, align 8
  %49 = extractvalue { i8*, i32 } %47, 1
  store i32 %49, i32* %4, align 4
  %50 = getelementptr inbounds %"struct.std::__cxx1998::_Vector_base.6", %"struct.std::__cxx1998::_Vector_base.6"* %5, i32 0, i32 0
  call void @_ZNSt9__cxx199812_Vector_baseINSt7__debug6vectorISt4pairIiiESaIS4_EEESaIS6_EE12_Vector_implD2Ev(%"struct.std::__cxx1998::_Vector_base<std::__debug::vector<std::pair<int, int>, std::allocator<std::pair<int, int> > >, std::allocator<std::__debug::vector<std::pair<int, int>, std::allocator<std::pair<int, int> > > > >::_Vector_impl"* %50) #3
  br label %30
}

; Function Attrs: noinline uwtable
define linkonce_odr void @_ZSt8_DestroyIPNSt7__debug6vectorISt4pairIiiESaIS3_EEEEvT_S7_(%"class.std::__debug::vector.10"*, %"class.std::__debug::vector.10"*) #0 comdat {
  %3 = alloca %"class.std::__debug::vector.10"*, align 8
  %4 = alloca %"class.std::__debug::vector.10"*, align 8
  store %"class.std::__debug::vector.10"* %0, %"class.std::__debug::vector.10"** %3, align 8
  store %"class.std::__debug::vector.10"* %1, %"class.std::__debug::vector.10"** %4, align 8
  %5 = load %"class.std::__debug::vector.10"*, %"class.std::__debug::vector.10"** %3, align 8
  %6 = load %"class.std::__debug::vector.10"*, %"class.std::__debug::vector.10"** %4, align 8
  call void @_ZNSt12_Destroy_auxILb0EE9__destroyIPNSt7__debug6vectorISt4pairIiiESaIS5_EEEEEvT_S9_(%"class.std::__debug::vector.10"* %5, %"class.std::__debug::vector.10"* %6)
  ret void
}

; Function Attrs: noinline uwtable
define linkonce_odr void @_ZNSt12_Destroy_auxILb0EE9__destroyIPNSt7__debug6vectorISt4pairIiiESaIS5_EEEEEvT_S9_(%"class.std::__debug::vector.10"*, %"class.std::__debug::vector.10"*) #0 comdat align 2 {
  %3 = alloca %"class.std::__debug::vector.10"*, align 8
  %4 = alloca %"class.std::__debug::vector.10"*, align 8
  store %"class.std::__debug::vector.10"* %0, %"class.std::__debug::vector.10"** %3, align 8
  store %"class.std::__debug::vector.10"* %1, %"class.std::__debug::vector.10"** %4, align 8
  br label %5

; <label>:5:                                      ; preds = %30, %2
  %6 = load i32, i32* @x.259
  %7 = load i32, i32* @y.260
  %8 = sub i32 %6, 1
  %9 = mul i32 %6, %8
  %10 = urem i32 %9, 2
  %11 = icmp eq i32 %10, 0
  %12 = icmp slt i32 %7, 10
  %13 = or i1 %11, %12
  br i1 %13, label %14, label %34

; <label>:14:                                     ; preds = %5, %34
  %15 = load %"class.std::__debug::vector.10"*, %"class.std::__debug::vector.10"** %3, align 8
  %16 = load %"class.std::__debug::vector.10"*, %"class.std::__debug::vector.10"** %4, align 8
  %17 = icmp ne %"class.std::__debug::vector.10"* %15, %16
  %18 = load i32, i32* @x.259
  %19 = load i32, i32* @y.260
  %20 = sub i32 %18, 1
  %21 = mul i32 %18, %20
  %22 = urem i32 %21, 2
  %23 = icmp eq i32 %22, 0
  %24 = icmp slt i32 %19, 10
  %25 = or i1 %23, %24
  br i1 %25, label %26, label %34

; <label>:26:                                     ; preds = %14
  br i1 %17, label %27, label %33

; <label>:27:                                     ; preds = %26
  %28 = load %"class.std::__debug::vector.10"*, %"class.std::__debug::vector.10"** %3, align 8
  %29 = call %"class.std::__debug::vector.10"* @_ZSt11__addressofINSt7__debug6vectorISt4pairIiiESaIS3_EEEEPT_RS6_(%"class.std::__debug::vector.10"* dereferenceable(56) %28) #3
  call void @_ZSt8_DestroyINSt7__debug6vectorISt4pairIiiESaIS3_EEEEvPT_(%"class.std::__debug::vector.10"* %29)
  br label %30

; <label>:30:                                     ; preds = %27
  %31 = load %"class.std::__debug::vector.10"*, %"class.std::__debug::vector.10"** %3, align 8
  %32 = getelementptr inbounds %"class.std::__debug::vector.10", %"class.std::__debug::vector.10"* %31, i32 1
  store %"class.std::__debug::vector.10"* %32, %"class.std::__debug::vector.10"** %3, align 8
  br label %5

; <label>:33:                                     ; preds = %26
  ret void

; <label>:34:                                     ; preds = %14, %5
