; ModuleID = 'Project_CodeNet_C++1400/p03725/s846403211.cpp'
source_filename = "Project_CodeNet_C++1400/p03725/s846403211.cpp"
target datalayout = "e-m:e-p270:32:32-p271:32:32-p272:64:64-i64:64-f80:128-n8:16:32:64-S128"
target triple = "x86_64-pc-linux-gnu"

%"class.std::ios_base::Init" = type { i8 }
%"class.std::basic_istream" = type { i32 (...)**, i64, %"class.std::basic_ios" }
%"class.std::basic_ios" = type { %"class.std::ios_base", %"class.std::basic_ostream"*, i8, i8, %"class.std::basic_streambuf"*, %"class.std::ctype"*, %"class.std::num_put"*, %"class.std::num_get"* }
%"class.std::ios_base" = type { i32 (...)**, i64, i64, i32, i32, i32, %"struct.std::ios_base::_Callback_list"*, %"struct.std::ios_base::_Words", [8 x %"struct.std::ios_base::_Words"], i32, %"struct.std::ios_base::_Words"*, %"class.std::locale" }
%"struct.std::ios_base::_Callback_list" = type { %"struct.std::ios_base::_Callback_list"*, void (i32, %"class.std::ios_base"*, i32)*, i32, i32 }
%"struct.std::ios_base::_Words" = type { i8*, i64 }
%"class.std::locale" = type { %"class.std::locale::_Impl"* }
%"class.std::locale::_Impl" = type { i32, %"class.std::locale::facet"**, i64, %"class.std::locale::facet"**, i8** }
%"class.std::locale::facet" = type <{ i32 (...)**, i32, [4 x i8] }>
%"class.std::basic_ostream" = type { i32 (...)**, %"class.std::basic_ios" }
%"class.std::basic_streambuf" = type { i32 (...)**, i8*, i8*, i8*, i8*, i8*, i8*, %"class.std::locale" }
%"class.std::ctype" = type <{ %"class.std::locale::facet.base", [4 x i8], %struct.__locale_struct*, i8, [7 x i8], i32*, i32*, i16*, i8, [256 x i8], [256 x i8], i8, [6 x i8] }>
%"class.std::locale::facet.base" = type <{ i32 (...)**, i32 }>
%struct.__locale_struct = type { [13 x %struct.__locale_data*], i16*, i32*, i32*, [13 x i8*] }
%struct.__locale_data = type opaque
%"class.std::num_put" = type { %"class.std::locale::facet.base", [4 x i8] }
%"class.std::num_get" = type { %"class.std::locale::facet.base", [4 x i8] }
%"class.std::vector" = type { %"struct.std::_Vector_base" }
%"struct.std::_Vector_base" = type { %"struct.std::_Vector_base<std::__cxx11::basic_string<char>, std::allocator<std::__cxx11::basic_string<char>>>::_Vector_impl" }
%"struct.std::_Vector_base<std::__cxx11::basic_string<char>, std::allocator<std::__cxx11::basic_string<char>>>::_Vector_impl" = type { %"struct.std::_Vector_base<std::__cxx11::basic_string<char>, std::allocator<std::__cxx11::basic_string<char>>>::_Vector_impl_data" }
%"struct.std::_Vector_base<std::__cxx11::basic_string<char>, std::allocator<std::__cxx11::basic_string<char>>>::_Vector_impl_data" = type { %"class.std::__cxx11::basic_string"*, %"class.std::__cxx11::basic_string"*, %"class.std::__cxx11::basic_string"* }
%"class.std::__cxx11::basic_string" = type { %"struct.std::__cxx11::basic_string<char>::_Alloc_hider", i64, %union.anon }
%"struct.std::__cxx11::basic_string<char>::_Alloc_hider" = type { i8* }
%union.anon = type { i64, [8 x i8] }
%"class.std::vector.3" = type { %"struct.std::_Vector_base.4" }
%"struct.std::_Vector_base.4" = type { %"struct.std::_Vector_base<std::vector<int>, std::allocator<std::vector<int>>>::_Vector_impl" }
%"struct.std::_Vector_base<std::vector<int>, std::allocator<std::vector<int>>>::_Vector_impl" = type { %"struct.std::_Vector_base<std::vector<int>, std::allocator<std::vector<int>>>::_Vector_impl_data" }
%"struct.std::_Vector_base<std::vector<int>, std::allocator<std::vector<int>>>::_Vector_impl_data" = type { %"class.std::vector.8"*, %"class.std::vector.8"*, %"class.std::vector.8"* }
%"class.std::vector.8" = type { %"struct.std::_Vector_base.9" }
%"struct.std::_Vector_base.9" = type { %"struct.std::_Vector_base<int, std::allocator<int>>::_Vector_impl" }
%"struct.std::_Vector_base<int, std::allocator<int>>::_Vector_impl" = type { %"struct.std::_Vector_base<int, std::allocator<int>>::_Vector_impl_data" }
%"struct.std::_Vector_base<int, std::allocator<int>>::_Vector_impl_data" = type { i32*, i32*, i32* }
%"class.std::allocator.10" = type { i8 }
%"class.std::allocator.5" = type { i8 }
%"class.std::vector.13" = type { %"struct.std::_Vector_base.14" }
%"struct.std::_Vector_base.14" = type { %"struct.std::_Vector_base<std::pair<int, int>, std::allocator<std::pair<int, int>>>::_Vector_impl" }
%"struct.std::_Vector_base<std::pair<int, int>, std::allocator<std::pair<int, int>>>::_Vector_impl" = type { %"struct.std::_Vector_base<std::pair<int, int>, std::allocator<std::pair<int, int>>>::_Vector_impl_data" }
%"struct.std::_Vector_base<std::pair<int, int>, std::allocator<std::pair<int, int>>>::_Vector_impl_data" = type { %"struct.std::pair"*, %"struct.std::pair"*, %"struct.std::pair"* }
%"struct.std::pair" = type { i32, i32 }
%"class.std::allocator" = type { i8 }
%"class.__gnu_cxx::new_allocator" = type { i8 }
%"class.__gnu_cxx::new_allocator.11" = type { i8 }
%"class.__gnu_cxx::new_allocator.6" = type { i8 }
%"class.std::allocator.15" = type { i8 }
%"class.__gnu_cxx::new_allocator.16" = type { i8 }

$_ZNSt6vectorINSt7__cxx1112basic_stringIcSt11char_traitsIcESaIcEEESaIS5_EE9push_backERKS5_ = comdat any

$_ZNSt6vectorIiSaIiEEC2EmRKiRKS0_ = comdat any

$_ZNSt6vectorIS_IiSaIiEESaIS1_EEC2EmRKS1_RKS2_ = comdat any

$_ZNSt6vectorIiSaIiEEC2ESt16initializer_listIiERKS0_ = comdat any

$_ZNSt6vectorIS_IiSaIiEESaIS1_EEC2ESt16initializer_listIS1_ERKS2_ = comdat any

$_ZNSt6vectorIiSaIiEEC2ERKS1_ = comdat any

$_ZNSt6vectorISt4pairIiiESaIS1_EE12emplace_backIJRiS5_EEEvDpOT_ = comdat any

$_ZNSt6vectorISt4pairIiiESaIS1_EEaSERKS3_ = comdat any

$_ZNSt6vectorIS_IiSaIiEESaIS1_EED2Ev = comdat any

$_ZNSt6vectorINSt7__cxx1112basic_stringIcSt11char_traitsIcESaIcEEESaIS5_EED2Ev = comdat any

$__clang_call_terminate = comdat any

$_ZNSt12_Vector_baseINSt7__cxx1112basic_stringIcSt11char_traitsIcESaIcEEESaIS5_EED2Ev = comdat any

$_ZNSt12_Destroy_auxILb0EE9__destroyIPNSt7__cxx1112basic_stringIcSt11char_traitsIcESaIcEEEEEvT_S9_ = comdat any

$_ZNSt6vectorINSt7__cxx1112basic_stringIcSt11char_traitsIcESaIcEEESaIS5_EE17_M_realloc_insertIJRKS5_EEEvN9__gnu_cxx17__normal_iteratorIPS5_S7_EEDpOT_ = comdat any

$_ZNKSt6vectorINSt7__cxx1112basic_stringIcSt11char_traitsIcESaIcEEESaIS5_EE12_M_check_lenEmPKc = comdat any

$_ZNSt12_Vector_baseINSt7__cxx1112basic_stringIcSt11char_traitsIcESaIcEEESaIS5_EE11_M_allocateEm = comdat any

$_ZNSt16allocator_traitsISaINSt7__cxx1112basic_stringIcSt11char_traitsIcESaIcEEEEE8allocateERS6_m = comdat any

$_ZN9__gnu_cxx13new_allocatorINSt7__cxx1112basic_stringIcSt11char_traitsIcESaIcEEEE8allocateEmPKv = comdat any

$_ZSt14__relocate_a_1IPNSt7__cxx1112basic_stringIcSt11char_traitsIcESaIcEEES6_SaIS5_EET0_T_S9_S8_RT1_ = comdat any

$_ZSt19__relocate_object_aINSt7__cxx1112basic_stringIcSt11char_traitsIcESaIcEEES5_SaIS5_EEvPT_PT0_RT1_ = comdat any

$_ZNSt6vectorIiSaIiEE17_S_check_init_lenEmRKS0_ = comdat any

$_ZNSt6vectorIiSaIiEE18_M_fill_initializeEmRKi = comdat any

$_ZNSt12_Vector_baseIiSaIiEED2Ev = comdat any

$_ZNSt12_Vector_baseIiSaIiEE17_M_create_storageEm = comdat any

$_ZNSt12_Vector_baseIiSaIiEE11_M_allocateEm = comdat any

$_ZNSt16allocator_traitsISaIiEE8allocateERS0_m = comdat any

$_ZN9__gnu_cxx13new_allocatorIiE8allocateEmPKv = comdat any

$_ZSt10__fill_n_aIPimiET_S1_T0_RKT1_St26random_access_iterator_tag = comdat any

$_ZNSt6vectorIS_IiSaIiEESaIS1_EE17_S_check_init_lenEmRKS2_ = comdat any

$_ZNSt6vectorIS_IiSaIiEESaIS1_EE18_M_fill_initializeEmRKS1_ = comdat any

$_ZNSt12_Vector_baseISt6vectorIiSaIiEESaIS2_EED2Ev = comdat any

$_ZNSt12_Vector_baseISt6vectorIiSaIiEESaIS2_EE17_M_create_storageEm = comdat any

$_ZNSt12_Vector_baseISt6vectorIiSaIiEESaIS2_EE11_M_allocateEm = comdat any

$_ZNSt16allocator_traitsISaISt6vectorIiSaIiEEEE8allocateERS3_m = comdat any

$_ZN9__gnu_cxx13new_allocatorISt6vectorIiSaIiEEE8allocateEmPKv = comdat any

$_ZNSt22__uninitialized_fill_nILb0EE15__uninit_fill_nIPSt6vectorIiSaIiEEmS4_EET_S6_T0_RKT1_ = comdat any

$_ZNSt12_Destroy_auxILb0EE9__destroyIPSt6vectorIiSaIiEEEEvT_S6_ = comdat any

$_ZNSt12_Vector_baseISt4pairIiiESaIS1_EED2Ev = comdat any

$_ZNSt6vectorISt4pairIiiESaIS1_EE12emplace_backIJS1_EEEvDpOT_ = comdat any

$_ZNSt6vectorISt4pairIiiESaIS1_EE17_M_realloc_insertIJS1_EEEvN9__gnu_cxx17__normal_iteratorIPS1_S3_EEDpOT_ = comdat any

$_ZNKSt6vectorISt4pairIiiESaIS1_EE12_M_check_lenEmPKc = comdat any

$_ZNSt12_Vector_baseISt4pairIiiESaIS1_EE11_M_allocateEm = comdat any

$_ZNSt16allocator_traitsISaISt4pairIiiEEE8allocateERS2_m = comdat any

$_ZN9__gnu_cxx13new_allocatorISt4pairIiiEE8allocateEmPKv = comdat any

$_ZNSt6vectorIiSaIiEE19_M_range_initializeIPKiEEvT_S5_St20forward_iterator_tag = comdat any

$_ZNSt6vectorIS_IiSaIiEESaIS1_EE19_M_range_initializeIPKS1_EEvT_S7_St20forward_iterator_tag = comdat any

$_ZNSt20__uninitialized_copyILb0EE13__uninit_copyIPKSt6vectorIiSaIiEEPS4_EET0_T_S9_S8_ = comdat any

$_ZNSt6vectorISt4pairIiiESaIS1_EE17_M_realloc_insertIJRiS5_EEEvN9__gnu_cxx17__normal_iteratorIPS1_S3_EEDpOT_ = comdat any

$_ZNSt6vectorISt4pairIiiESaIS1_EE20_M_allocate_and_copyIN9__gnu_cxx17__normal_iteratorIPKS1_S3_EEEEPS1_mT_SB_ = comdat any

$_ZSt13__copy_move_aILb0EN9__gnu_cxx17__normal_iteratorIPKSt4pairIiiESt6vectorIS3_SaIS3_EEEENS1_IPS3_S8_EEET1_T0_SD_SC_ = comdat any

$_ZNSt11__copy_moveILb0ELb0ESt26random_access_iterator_tagE8__copy_mIPKSt4pairIiiEPS4_EET0_T_S9_S8_ = comdat any

$_ZNSt11__copy_moveILb0ELb0ESt26random_access_iterator_tagE8__copy_mIPSt4pairIiiES5_EET0_T_S7_S6_ = comdat any

@_ZStL8__ioinit = internal global %"class.std::ios_base::Init" zeroinitializer, align 1
@__dso_handle = external hidden global i8
@_ZSt3cin = external global %"class.std::basic_istream", align 8
@_ZSt4cout = external global %"class.std::basic_ostream", align 8
@.str.1 = private unnamed_addr constant [26 x i8] c"vector::_M_realloc_insert\00", align 1
@.str.2 = private unnamed_addr constant [49 x i8] c"cannot create std::vector larger than max_size()\00", align 1
@llvm.global_ctors = appending global [1 x { i32, void ()*, i8* }] [{ i32, void ()*, i8* } { i32 65535, void ()* @_GLOBAL__sub_I_s846403211.cpp, i8* null }]

; Function Attrs: minsize optsize
declare void @_ZNSt8ios_base4InitC1Ev(%"class.std::ios_base::Init"* nonnull align 1 dereferenceable(1)) unnamed_addr #0

; Function Attrs: minsize nounwind optsize
declare void @_ZNSt8ios_base4InitD1Ev(%"class.std::ios_base::Init"* nonnull align 1 dereferenceable(1)) unnamed_addr #1

; Function Attrs: nofree nounwind
declare i32 @__cxa_atexit(void (i8*)*, i8*, i8*) local_unnamed_addr #2

; Function Attrs: minsize norecurse optsize sspstrong uwtable
define dso_local i32 @main() local_unnamed_addr #3 personality i8* bitcast (i32 (...)* @__gxx_personality_v0 to i8*) {
  %1 = alloca i32, align 4
  %2 = alloca i32, align 4
  %3 = alloca i32, align 4
  %4 = alloca %"class.std::vector", align 8
  %5 = alloca %"class.std::__cxx11::basic_string", align 8
  %6 = alloca %"class.std::vector.3", align 8
  %7 = alloca %"class.std::vector.8", align 8
  %8 = alloca i32, align 4
  %9 = alloca %"class.std::allocator.10", align 1
  %10 = alloca %"class.std::allocator.5", align 1
  %11 = alloca %"class.std::vector.13", align 8
  %12 = alloca %"class.std::vector.13", align 8
  %13 = alloca i64, align 8
  %14 = bitcast i64* %13 to %"struct.std::pair"*
  %15 = alloca %"class.std::vector.3", align 8
  %16 = alloca [4 x %"class.std::vector.8"], align 8
  %17 = alloca [2 x i32], align 4
  %18 = alloca %"class.std::allocator.10", align 1
  %19 = alloca [2 x i32], align 4
  %20 = alloca %"class.std::allocator.10", align 1
  %21 = alloca [2 x i32], align 4
  %22 = alloca %"class.std::allocator.10", align 1
  %23 = alloca [2 x i32], align 4
  %24 = alloca %"class.std::allocator.10", align 1
  %25 = alloca %"class.std::allocator.5", align 1
  %26 = alloca %"class.std::vector.13", align 8
  %27 = alloca %"class.std::vector.8", align 8
  %28 = alloca i32, align 4
  %29 = alloca i32, align 4
  %30 = alloca i64, align 8
  %31 = bitcast i64* %30 to %"struct.std::pair"*
  %32 = alloca i64, align 8
  %33 = bitcast i64* %32 to %"struct.std::pair"*
  %34 = bitcast i32* %1 to i8*
  call void @llvm.lifetime.start.p0i8(i64 4, i8* nonnull %34) #20
  %35 = bitcast i32* %2 to i8*
  call void @llvm.lifetime.start.p0i8(i64 4, i8* nonnull %35) #20
  %36 = bitcast i32* %3 to i8*
  call void @llvm.lifetime.start.p0i8(i64 4, i8* nonnull %36) #20
  %37 = call nonnull align 8 dereferenceable(16) %"class.std::basic_istream"* @_ZNSirsERi(%"class.std::basic_istream"* nonnull align 8 dereferenceable(16) @_ZSt3cin, i32* nonnull align 4 dereferenceable(4) %1) #21
  %38 = call nonnull align 8 dereferenceable(16) %"class.std::basic_istream"* @_ZNSirsERi(%"class.std::basic_istream"* nonnull align 8 dereferenceable(16) %37, i32* nonnull align 4 dereferenceable(4) %2) #21
  %39 = call nonnull align 8 dereferenceable(16) %"class.std::basic_istream"* @_ZNSirsERi(%"class.std::basic_istream"* nonnull align 8 dereferenceable(16) %38, i32* nonnull align 4 dereferenceable(4) %3) #21
  %40 = bitcast %"class.std::vector"* %4 to i8*
  call void @llvm.lifetime.start.p0i8(i64 24, i8* nonnull %40) #20
  call void @llvm.memset.p0i8.i64(i8* noundef nonnull align 8 dereferenceable(24) %40, i8 0, i64 24, i1 false) #20
  %41 = bitcast %"class.std::__cxx11::basic_string"* %5 to i8*
  %42 = getelementptr inbounds %"class.std::__cxx11::basic_string", %"class.std::__cxx11::basic_string"* %5, i64 0, i32 2
  %43 = bitcast %"class.std::__cxx11::basic_string"* %5 to %union.anon**
  %44 = getelementptr inbounds %"class.std::__cxx11::basic_string", %"class.std::__cxx11::basic_string"* %5, i64 0, i32 1
  %45 = bitcast %union.anon* %42 to i8*
  br label %46

46:                                               ; preds = %55, %0
  %47 = phi i32 [ 0, %0 ], [ %56, %55 ]
  %48 = load i32, i32* %1, align 4, !tbaa !5
  %49 = icmp slt i32 %47, %48
  br i1 %49, label %52, label %50

50:                                               ; preds = %46
  %51 = getelementptr inbounds %"class.std::vector", %"class.std::vector"* %4, i64 0, i32 0, i32 0, i32 0, i32 0
  br label %59

52:                                               ; preds = %46
  call void @llvm.lifetime.start.p0i8(i64 32, i8* nonnull %41) #20
  store %union.anon* %42, %union.anon** %43, align 8, !tbaa !9
  store i64 0, i64* %44, align 8, !tbaa !12
  store i8 0, i8* %45, align 8, !tbaa !15
  %53 = invoke nonnull align 8 dereferenceable(16) %"class.std::basic_istream"* @_ZStrsIcSt11char_traitsIcESaIcEERSt13basic_istreamIT_T0_ES7_RNSt7__cxx1112basic_stringIS4_S5_T1_EE(%"class.std::basic_istream"* nonnull align 8 dereferenceable(16) @_ZSt3cin, %"class.std::__cxx11::basic_string"* nonnull align 8 dereferenceable(32) %5) #21
          to label %54 unwind label %57

54:                                               ; preds = %52
  invoke void @_ZNSt6vectorINSt7__cxx1112basic_stringIcSt11char_traitsIcESaIcEEESaIS5_EE9push_backERKS5_(%"class.std::vector"* nonnull align 8 dereferenceable(24) %4, %"class.std::__cxx11::basic_string"* nonnull align 8 dereferenceable(32) %5) #21
          to label %55 unwind label %57

55:                                               ; preds = %54
  call void @_ZNSt7__cxx1112basic_stringIcSt11char_traitsIcESaIcEED2Ev(%"class.std::__cxx11::basic_string"* nonnull align 8 dereferenceable(32) %5) #22
  call void @llvm.lifetime.end.p0i8(i64 32, i8* nonnull %41) #20
  %56 = add nuw nsw i32 %47, 1
  br label %46, !llvm.loop !16

57:                                               ; preds = %54, %52
  %58 = landingpad { i8*, i32 }
          cleanup
  call void @_ZNSt7__cxx1112basic_stringIcSt11char_traitsIcESaIcEED2Ev(%"class.std::__cxx11::basic_string"* nonnull align 8 dereferenceable(32) %5) #22
  call void @llvm.lifetime.end.p0i8(i64 32, i8* nonnull %41) #20
  br label %371

59:                                               ; preds = %50, %95
  %60 = phi i32 [ %48, %50 ], [ %96, %95 ]
  %61 = phi i64 [ 0, %50 ], [ %99, %95 ]
  %62 = phi i32 [ 0, %50 ], [ %97, %95 ]
  %63 = phi i32 [ 0, %50 ], [ %98, %95 ]
  %64 = sext i32 %60 to i64
  %65 = icmp slt i64 %61, %64
  br i1 %65, label %66, label %72

66:                                               ; preds = %59
  %67 = load i32, i32* %2, align 4, !tbaa !5
  %68 = load %"class.std::__cxx11::basic_string"*, %"class.std::__cxx11::basic_string"** %51, align 8
  %69 = getelementptr inbounds %"class.std::__cxx11::basic_string", %"class.std::__cxx11::basic_string"* %68, i64 %61, i32 0, i32 0
  %70 = call i32 @llvm.smax.i32(i32 %67, i32 0)
  %71 = zext i32 %70 to i64
  br label %79

72:                                               ; preds = %59
  %73 = bitcast %"class.std::vector.3"* %6 to i8*
  call void @llvm.lifetime.start.p0i8(i64 24, i8* nonnull %73) #20
  %74 = bitcast %"class.std::vector.8"* %7 to i8*
  call void @llvm.lifetime.start.p0i8(i64 24, i8* nonnull %74) #20
  %75 = load i32, i32* %2, align 4, !tbaa !5
  %76 = sext i32 %75 to i64
  %77 = bitcast i32* %8 to i8*
  call void @llvm.lifetime.start.p0i8(i64 4, i8* nonnull %77) #20
  store i32 0, i32* %8, align 4, !tbaa !5
  %78 = getelementptr inbounds %"class.std::allocator.10", %"class.std::allocator.10"* %9, i64 0, i32 0
  call void @llvm.lifetime.start.p0i8(i64 1, i8* nonnull %78) #20
  invoke void @_ZNSt6vectorIiSaIiEEC2EmRKiRKS0_(%"class.std::vector.8"* nonnull align 8 dereferenceable(24) %7, i64 %76, i32* nonnull align 4 dereferenceable(4) %8, %"class.std::allocator.10"* nonnull align 1 dereferenceable(1) %9) #21
          to label %100 unwind label %182

79:                                               ; preds = %66, %93
  %80 = phi i64 [ 0, %66 ], [ %94, %93 ]
  %81 = icmp eq i64 %80, %71
  br i1 %81, label %95, label %82

82:                                               ; preds = %79
  %83 = load i8*, i8** %69, align 8, !tbaa !18
  %84 = getelementptr inbounds i8, i8* %83, i64 %80
  %85 = load i8, i8* %84, align 1, !tbaa !15
  %86 = icmp eq i8 %85, 83
  br i1 %86, label %87, label %93

87:                                               ; preds = %82
  %88 = trunc i64 %80 to i32
  %89 = and i64 %80, 4294967295
  %90 = getelementptr inbounds i8, i8* %83, i64 %89
  store i8 46, i8* %90, align 1, !tbaa !15
  %91 = trunc i64 %61 to i32
  %92 = load i32, i32* %1, align 4, !tbaa !5
  br label %95

93:                                               ; preds = %82
  %94 = add nuw nsw i64 %80, 1
  br label %79, !llvm.loop !19

95:                                               ; preds = %79, %87
  %96 = phi i32 [ %92, %87 ], [ %60, %79 ]
  %97 = phi i32 [ %88, %87 ], [ %62, %79 ]
  %98 = phi i32 [ %91, %87 ], [ %63, %79 ]
  %99 = add nuw nsw i64 %61, 1
  br label %59, !llvm.loop !20

100:                                              ; preds = %72
  %101 = getelementptr inbounds %"class.std::allocator.5", %"class.std::allocator.5"* %10, i64 0, i32 0
  call void @llvm.lifetime.start.p0i8(i64 1, i8* nonnull %101) #20
  invoke void @_ZNSt6vectorIS_IiSaIiEESaIS1_EEC2EmRKS1_RKS2_(%"class.std::vector.3"* nonnull align 8 dereferenceable(24) %6, i64 %64, %"class.std::vector.8"* nonnull align 8 dereferenceable(24) %7, %"class.std::allocator.5"* nonnull align 1 dereferenceable(1) %10) #21
          to label %102 unwind label %184

102:                                              ; preds = %100
  call void @llvm.lifetime.end.p0i8(i64 1, i8* nonnull %101) #20
  %103 = getelementptr inbounds %"class.std::vector.8", %"class.std::vector.8"* %7, i64 0, i32 0
  call void @_ZNSt12_Vector_baseIiSaIiEED2Ev(%"struct.std::_Vector_base.9"* nonnull align 8 dereferenceable(24) %103) #22
  call void @llvm.lifetime.end.p0i8(i64 1, i8* nonnull %78) #20
  call void @llvm.lifetime.end.p0i8(i64 4, i8* nonnull %77) #20
  call void @llvm.lifetime.end.p0i8(i64 24, i8* nonnull %74) #20
  %104 = bitcast %"class.std::vector.13"* %11 to i8*
  call void @llvm.lifetime.start.p0i8(i64 24, i8* nonnull %104) #20
  call void @llvm.memset.p0i8.i64(i8* noundef nonnull align 8 dereferenceable(24) %104, i8 0, i64 24, i1 false) #20
  %105 = bitcast %"class.std::vector.13"* %12 to i8*
  call void @llvm.lifetime.start.p0i8(i64 24, i8* nonnull %105) #20
  call void @llvm.memset.p0i8.i64(i8* noundef nonnull align 8 dereferenceable(24) %105, i8 0, i64 24, i1 false) #20
  %106 = bitcast i64* %13 to i8*
  call void @llvm.lifetime.start.p0i8(i64 8, i8* nonnull %106) #20
  %107 = zext i32 %62 to i64
  %108 = shl nuw i64 %107, 32
  %109 = zext i32 %63 to i64
  %110 = or i64 %108, %109
  store i64 %110, i64* %13, align 8
  invoke void @_ZNSt6vectorISt4pairIiiESaIS1_EE12emplace_backIJS1_EEEvDpOT_(%"class.std::vector.13"* nonnull align 8 dereferenceable(24) %11, %"struct.std::pair"* nonnull align 4 dereferenceable(8) %14) #21
          to label %111 unwind label %189

111:                                              ; preds = %102
  call void @llvm.lifetime.end.p0i8(i64 8, i8* nonnull %106) #20
  %112 = sext i32 %63 to i64
  %113 = getelementptr inbounds %"class.std::vector.3", %"class.std::vector.3"* %6, i64 0, i32 0, i32 0, i32 0, i32 0
  %114 = load %"class.std::vector.8"*, %"class.std::vector.8"** %113, align 8, !tbaa !21
  %115 = sext i32 %62 to i64
  %116 = getelementptr inbounds %"class.std::vector.8", %"class.std::vector.8"* %114, i64 %112, i32 0, i32 0, i32 0, i32 0
  %117 = load i32*, i32** %116, align 8, !tbaa !23
  %118 = getelementptr inbounds i32, i32* %117, i64 %115
  store i32 1, i32* %118, align 4, !tbaa !5
  %119 = bitcast %"class.std::vector.3"* %15 to i8*
  call void @llvm.lifetime.start.p0i8(i64 24, i8* nonnull %119) #20
  %120 = bitcast [4 x %"class.std::vector.8"]* %16 to i8*
  call void @llvm.lifetime.start.p0i8(i64 96, i8* nonnull %120) #20
  %121 = getelementptr inbounds [4 x %"class.std::vector.8"], [4 x %"class.std::vector.8"]* %16, i64 0, i64 0
  %122 = bitcast [2 x i32]* %17 to i8*
  call void @llvm.lifetime.start.p0i8(i64 8, i8* nonnull %122) #20
  %123 = getelementptr inbounds [2 x i32], [2 x i32]* %17, i64 0, i64 0
  store i32 0, i32* %123, align 4, !tbaa !5
  %124 = getelementptr inbounds [2 x i32], [2 x i32]* %17, i64 0, i64 1
  store i32 1, i32* %124, align 4, !tbaa !5
  %125 = getelementptr inbounds %"class.std::allocator.10", %"class.std::allocator.10"* %18, i64 0, i32 0
  call void @llvm.lifetime.start.p0i8(i64 1, i8* nonnull %125) #20
  invoke void @_ZNSt6vectorIiSaIiEEC2ESt16initializer_listIiERKS0_(%"class.std::vector.8"* nonnull align 8 dereferenceable(24) %121, i32* nonnull %123, i64 2, %"class.std::allocator.10"* nonnull align 1 dereferenceable(1) %18) #21
          to label %126 unwind label %191

126:                                              ; preds = %111
  %127 = getelementptr inbounds [4 x %"class.std::vector.8"], [4 x %"class.std::vector.8"]* %16, i64 0, i64 1
  %128 = bitcast [2 x i32]* %19 to i8*
  call void @llvm.lifetime.start.p0i8(i64 8, i8* nonnull %128) #20
  %129 = getelementptr inbounds [2 x i32], [2 x i32]* %19, i64 0, i64 0
  store i32 0, i32* %129, align 4, !tbaa !5
  %130 = getelementptr inbounds [2 x i32], [2 x i32]* %19, i64 0, i64 1
  store i32 -1, i32* %130, align 4, !tbaa !5
  %131 = getelementptr inbounds %"class.std::allocator.10", %"class.std::allocator.10"* %20, i64 0, i32 0
  call void @llvm.lifetime.start.p0i8(i64 1, i8* nonnull %131) #20
  invoke void @_ZNSt6vectorIiSaIiEEC2ESt16initializer_listIiERKS0_(%"class.std::vector.8"* nonnull align 8 dereferenceable(24) %127, i32* nonnull %129, i64 2, %"class.std::allocator.10"* nonnull align 1 dereferenceable(1) %20) #21
          to label %132 unwind label %193

132:                                              ; preds = %126
  %133 = getelementptr inbounds [4 x %"class.std::vector.8"], [4 x %"class.std::vector.8"]* %16, i64 0, i64 2
  %134 = bitcast [2 x i32]* %21 to i8*
  call void @llvm.lifetime.start.p0i8(i64 8, i8* nonnull %134) #20
  %135 = getelementptr inbounds [2 x i32], [2 x i32]* %21, i64 0, i64 0
  store i32 1, i32* %135, align 4, !tbaa !5
  %136 = getelementptr inbounds [2 x i32], [2 x i32]* %21, i64 0, i64 1
  store i32 0, i32* %136, align 4, !tbaa !5
  %137 = getelementptr inbounds %"class.std::allocator.10", %"class.std::allocator.10"* %22, i64 0, i32 0
  call void @llvm.lifetime.start.p0i8(i64 1, i8* nonnull %137) #20
  invoke void @_ZNSt6vectorIiSaIiEEC2ESt16initializer_listIiERKS0_(%"class.std::vector.8"* nonnull align 8 dereferenceable(24) %133, i32* nonnull %135, i64 2, %"class.std::allocator.10"* nonnull align 1 dereferenceable(1) %22) #21
          to label %138 unwind label %195

138:                                              ; preds = %132
  %139 = getelementptr inbounds [4 x %"class.std::vector.8"], [4 x %"class.std::vector.8"]* %16, i64 0, i64 3
  %140 = bitcast [2 x i32]* %23 to i8*
  call void @llvm.lifetime.start.p0i8(i64 8, i8* nonnull %140) #20
  %141 = getelementptr inbounds [2 x i32], [2 x i32]* %23, i64 0, i64 0
  store i32 -1, i32* %141, align 4, !tbaa !5
  %142 = getelementptr inbounds [2 x i32], [2 x i32]* %23, i64 0, i64 1
  store i32 0, i32* %142, align 4, !tbaa !5
  %143 = getelementptr inbounds %"class.std::allocator.10", %"class.std::allocator.10"* %24, i64 0, i32 0
  call void @llvm.lifetime.start.p0i8(i64 1, i8* nonnull %143) #20
  invoke void @_ZNSt6vectorIiSaIiEEC2ESt16initializer_listIiERKS0_(%"class.std::vector.8"* nonnull align 8 dereferenceable(24) %139, i32* nonnull %141, i64 2, %"class.std::allocator.10"* nonnull align 1 dereferenceable(1) %24) #21
          to label %144 unwind label %197

144:                                              ; preds = %138
  %145 = getelementptr inbounds %"class.std::allocator.5", %"class.std::allocator.5"* %25, i64 0, i32 0
  call void @llvm.lifetime.start.p0i8(i64 1, i8* nonnull %145) #20
  invoke void @_ZNSt6vectorIS_IiSaIiEESaIS1_EEC2ESt16initializer_listIS1_ERKS2_(%"class.std::vector.3"* nonnull align 8 dereferenceable(24) %15, %"class.std::vector.8"* nonnull %121, i64 4, %"class.std::allocator.5"* nonnull align 1 dereferenceable(1) %25) #21
          to label %146 unwind label %199

146:                                              ; preds = %144
  call void @llvm.lifetime.end.p0i8(i64 1, i8* nonnull %145) #20
  %147 = getelementptr inbounds [4 x %"class.std::vector.8"], [4 x %"class.std::vector.8"]* %16, i64 0, i64 4
  br label %148

148:                                              ; preds = %148, %146
  %149 = phi %"class.std::vector.8"* [ %147, %146 ], [ %150, %148 ]
  %150 = getelementptr inbounds %"class.std::vector.8", %"class.std::vector.8"* %149, i64 -1
  %151 = getelementptr inbounds %"class.std::vector.8", %"class.std::vector.8"* %150, i64 0, i32 0
  call void @_ZNSt12_Vector_baseIiSaIiEED2Ev(%"struct.std::_Vector_base.9"* nonnull align 8 dereferenceable(24) %151) #22
  %152 = icmp eq %"class.std::vector.8"* %150, %121
  br i1 %152, label %153, label %148

153:                                              ; preds = %148
  call void @llvm.lifetime.end.p0i8(i64 1, i8* nonnull %143) #20
  call void @llvm.lifetime.end.p0i8(i64 8, i8* nonnull %140) #20
  call void @llvm.lifetime.end.p0i8(i64 1, i8* nonnull %137) #20
  call void @llvm.lifetime.end.p0i8(i64 8, i8* nonnull %134) #20
  call void @llvm.lifetime.end.p0i8(i64 1, i8* nonnull %131) #20
  call void @llvm.lifetime.end.p0i8(i64 8, i8* nonnull %128) #20
  call void @llvm.lifetime.end.p0i8(i64 1, i8* nonnull %125) #20
  call void @llvm.lifetime.end.p0i8(i64 8, i8* nonnull %122) #20
  call void @llvm.lifetime.end.p0i8(i64 96, i8* nonnull %120) #20
  %154 = getelementptr inbounds %"class.std::vector.13", %"class.std::vector.13"* %11, i64 0, i32 0, i32 0, i32 0, i32 1
  %155 = getelementptr inbounds %"class.std::vector.13", %"class.std::vector.13"* %11, i64 0, i32 0, i32 0, i32 0, i32 0
  %156 = bitcast %"class.std::vector.13"* %26 to i8*
  %157 = getelementptr inbounds %"class.std::vector.13", %"class.std::vector.13"* %12, i64 0, i32 0, i32 0, i32 0, i32 0
  %158 = getelementptr inbounds %"class.std::vector.13", %"class.std::vector.13"* %12, i64 0, i32 0, i32 0, i32 0, i32 1
  %159 = getelementptr inbounds %"class.std::vector.3", %"class.std::vector.3"* %15, i64 0, i32 0, i32 0, i32 0, i32 0
  %160 = getelementptr inbounds %"class.std::vector.3", %"class.std::vector.3"* %15, i64 0, i32 0, i32 0, i32 0, i32 1
  %161 = bitcast %"class.std::vector.8"* %27 to i8*
  %162 = bitcast i32* %28 to i8*
  %163 = getelementptr inbounds %"class.std::vector.8", %"class.std::vector.8"* %27, i64 0, i32 0, i32 0, i32 0, i32 0
  %164 = bitcast i32* %29 to i8*
  %165 = bitcast i64* %30 to i8*
  %166 = getelementptr inbounds %"class.std::vector.8", %"class.std::vector.8"* %27, i64 0, i32 0
  %167 = bitcast i64* %32 to i8*
  %168 = getelementptr inbounds %"class.std::vector.13", %"class.std::vector.13"* %26, i64 0, i32 0
  br label %169

169:                                              ; preds = %357, %153
  %170 = phi i32 [ 0, %153 ], [ %327, %357 ]
  %171 = phi i1 [ true, %153 ], [ false, %357 ]
  %172 = load %"struct.std::pair"*, %"struct.std::pair"** %154, align 8, !tbaa !25
  %173 = load %"struct.std::pair"*, %"struct.std::pair"** %155, align 8, !tbaa !27
  %174 = icmp eq %"struct.std::pair"* %172, %173
  br i1 %174, label %360, label %175

175:                                              ; preds = %169
  call void @llvm.lifetime.start.p0i8(i64 24, i8* nonnull %156) #20
  call void @llvm.memset.p0i8.i64(i8* noundef nonnull align 8 dereferenceable(24) %156, i8 0, i64 24, i1 false) #20
  br label %176

176:                                              ; preds = %315, %175
  %177 = phi i32 [ 0, %175 ], [ %316, %315 ]
  %178 = load i32, i32* %3, align 4, !tbaa !5
  %179 = icmp slt i32 %177, %178
  br i1 %179, label %232, label %180

180:                                              ; preds = %176
  %181 = invoke nonnull align 8 dereferenceable(24) %"class.std::vector.13"* @_ZNSt6vectorISt4pairIiiESaIS1_EEaSERKS3_(%"class.std::vector.13"* nonnull align 8 dereferenceable(24) %11, %"class.std::vector.13"* nonnull align 8 dereferenceable(24) %26) #21
          to label %319 unwind label %322

182:                                              ; preds = %72
  %183 = landingpad { i8*, i32 }
          cleanup
  br label %187

184:                                              ; preds = %100
  %185 = landingpad { i8*, i32 }
          cleanup
  call void @llvm.lifetime.end.p0i8(i64 1, i8* nonnull %101) #20
  %186 = getelementptr inbounds %"class.std::vector.8", %"class.std::vector.8"* %7, i64 0, i32 0
  call void @_ZNSt12_Vector_baseIiSaIiEED2Ev(%"struct.std::_Vector_base.9"* nonnull align 8 dereferenceable(24) %186) #22
  br label %187

187:                                              ; preds = %184, %182
  %188 = phi { i8*, i32 } [ %185, %184 ], [ %183, %182 ]
  call void @llvm.lifetime.end.p0i8(i64 1, i8* nonnull %78) #20
  call void @llvm.lifetime.end.p0i8(i64 4, i8* nonnull %77) #20
  call void @llvm.lifetime.end.p0i8(i64 24, i8* nonnull %74) #20
  br label %369

189:                                              ; preds = %102
  %190 = landingpad { i8*, i32 }
          cleanup
  call void @llvm.lifetime.end.p0i8(i64 8, i8* nonnull %106) #20
  br label %365

191:                                              ; preds = %111
  %192 = landingpad { i8*, i32 }
          cleanup
  br label %218

193:                                              ; preds = %126
  %194 = landingpad { i8*, i32 }
          cleanup
  br label %214

195:                                              ; preds = %132
  %196 = landingpad { i8*, i32 }
          cleanup
  br label %210

197:                                              ; preds = %138
  %198 = landingpad { i8*, i32 }
          cleanup
  br label %207

199:                                              ; preds = %144
  %200 = landingpad { i8*, i32 }
          cleanup
  call void @llvm.lifetime.end.p0i8(i64 1, i8* nonnull %145) #20
  %201 = getelementptr inbounds [4 x %"class.std::vector.8"], [4 x %"class.std::vector.8"]* %16, i64 0, i64 4
  br label %202

202:                                              ; preds = %202, %199
  %203 = phi %"class.std::vector.8"* [ %201, %199 ], [ %204, %202 ]
  %204 = getelementptr inbounds %"class.std::vector.8", %"class.std::vector.8"* %203, i64 -1
  %205 = getelementptr inbounds %"class.std::vector.8", %"class.std::vector.8"* %204, i64 0, i32 0
  call void @_ZNSt12_Vector_baseIiSaIiEED2Ev(%"struct.std::_Vector_base.9"* nonnull align 8 dereferenceable(24) %205) #22
  %206 = icmp eq %"class.std::vector.8"* %204, %121
  br i1 %206, label %207, label %202

207:                                              ; preds = %202, %197
  %208 = phi i1 [ true, %197 ], [ false, %202 ]
  %209 = phi { i8*, i32 } [ %198, %197 ], [ %200, %202 ]
  call void @llvm.lifetime.end.p0i8(i64 1, i8* nonnull %143) #20
  call void @llvm.lifetime.end.p0i8(i64 8, i8* nonnull %140) #20
  br label %210

210:                                              ; preds = %207, %195
  %211 = phi i64 [ 3, %207 ], [ 2, %195 ]
  %212 = phi i1 [ %208, %207 ], [ true, %195 ]
  %213 = phi { i8*, i32 } [ %209, %207 ], [ %196, %195 ]
  call void @llvm.lifetime.end.p0i8(i64 1, i8* nonnull %137) #20
  call void @llvm.lifetime.end.p0i8(i64 8, i8* nonnull %134) #20
  br label %214

214:                                              ; preds = %210, %193
  %215 = phi i64 [ %211, %210 ], [ 1, %193 ]
  %216 = phi i1 [ %212, %210 ], [ true, %193 ]
  %217 = phi { i8*, i32 } [ %213, %210 ], [ %194, %193 ]
  call void @llvm.lifetime.end.p0i8(i64 1, i8* nonnull %131) #20
  call void @llvm.lifetime.end.p0i8(i64 8, i8* nonnull %128) #20
  br label %218

218:                                              ; preds = %214, %191
  %219 = phi i64 [ %215, %214 ], [ 0, %191 ]
  %220 = phi i1 [ %216, %214 ], [ true, %191 ]
  %221 = phi { i8*, i32 } [ %217, %214 ], [ %192, %191 ]
  call void @llvm.lifetime.end.p0i8(i64 1, i8* nonnull %125) #20
  call void @llvm.lifetime.end.p0i8(i64 8, i8* nonnull %122) #20
  %222 = icmp ne i64 %219, 0
  %223 = and i1 %220, %222
  br i1 %223, label %224, label %231

224:                                              ; preds = %218
  %225 = getelementptr inbounds [4 x %"class.std::vector.8"], [4 x %"class.std::vector.8"]* %16, i64 0, i64 %219
  br label %226

226:                                              ; preds = %224, %226
  %227 = phi %"class.std::vector.8"* [ %228, %226 ], [ %225, %224 ]
  %228 = getelementptr inbounds %"class.std::vector.8", %"class.std::vector.8"* %227, i64 -1
  %229 = getelementptr inbounds %"class.std::vector.8", %"class.std::vector.8"* %228, i64 0, i32 0
  call void @_ZNSt12_Vector_baseIiSaIiEED2Ev(%"struct.std::_Vector_base.9"* nonnull align 8 dereferenceable(24) %229) #22
  %230 = icmp eq %"class.std::vector.8"* %228, %121
  br i1 %230, label %231, label %226

231:                                              ; preds = %226, %218
  call void @llvm.lifetime.end.p0i8(i64 96, i8* nonnull %120) #20
  br label %363

232:                                              ; preds = %176
  %233 = load %"struct.std::pair"*, %"struct.std::pair"** %157, align 8, !tbaa !27
  %234 = load %"struct.std::pair"*, %"struct.std::pair"** %158, align 8, !tbaa !25
  %235 = icmp eq %"struct.std::pair"* %234, %233
  br i1 %235, label %237, label %236

236:                                              ; preds = %232
  store %"struct.std::pair"* %233, %"struct.std::pair"** %158, align 8, !tbaa !25
  br label %237

237:                                              ; preds = %232, %236
  %238 = load %"struct.std::pair"*, %"struct.std::pair"** %155, align 8, !tbaa !28
  %239 = load %"struct.std::pair"*, %"struct.std::pair"** %154, align 8, !tbaa !28
  br label %240

240:                                              ; preds = %255, %237
  %241 = phi %"struct.std::pair"* [ %238, %237 ], [ %256, %255 ]
  %242 = icmp eq %"struct.std::pair"* %241, %239
  br i1 %242, label %243, label %245

243:                                              ; preds = %240
  %244 = invoke nonnull align 8 dereferenceable(24) %"class.std::vector.13"* @_ZNSt6vectorISt4pairIiiESaIS1_EEaSERKS3_(%"class.std::vector.13"* nonnull align 8 dereferenceable(24) %11, %"class.std::vector.13"* nonnull align 8 dereferenceable(24) %12) #21
          to label %315 unwind label %317

245:                                              ; preds = %240
  %246 = getelementptr inbounds %"struct.std::pair", %"struct.std::pair"* %241, i64 0, i32 0
  %247 = load i32, i32* %246, align 4
  %248 = getelementptr inbounds %"struct.std::pair", %"struct.std::pair"* %241, i64 0, i32 1
  %249 = load i32, i32* %248, align 4
  %250 = load %"class.std::vector.8"*, %"class.std::vector.8"** %159, align 8, !tbaa !28
  %251 = load %"class.std::vector.8"*, %"class.std::vector.8"** %160, align 8, !tbaa !28
  br label %252

252:                                              ; preds = %307, %245
  %253 = phi %"class.std::vector.8"* [ %250, %245 ], [ %308, %307 ]
  %254 = icmp eq %"class.std::vector.8"* %253, %251
  br i1 %254, label %255, label %257

255:                                              ; preds = %252
  %256 = getelementptr inbounds %"struct.std::pair", %"struct.std::pair"* %241, i64 1
  br label %240

257:                                              ; preds = %252
  call void @llvm.lifetime.start.p0i8(i64 24, i8* nonnull %161) #20
  invoke void @_ZNSt6vectorIiSaIiEEC2ERKS1_(%"class.std::vector.8"* nonnull align 8 dereferenceable(24) %27, %"class.std::vector.8"* nonnull align 8 dereferenceable(24) %253) #21
          to label %258 unwind label %283

258:                                              ; preds = %257
  call void @llvm.lifetime.start.p0i8(i64 4, i8* nonnull %162) #20
  %259 = load i32*, i32** %163, align 8, !tbaa !23
  %260 = load i32, i32* %259, align 4, !tbaa !5
  %261 = add nsw i32 %260, %247
  store i32 %261, i32* %28, align 4, !tbaa !5
  call void @llvm.lifetime.start.p0i8(i64 4, i8* nonnull %164) #20
  %262 = getelementptr inbounds i32, i32* %259, i64 1
  %263 = load i32, i32* %262, align 4, !tbaa !5
  %264 = add nsw i32 %263, %249
  store i32 %264, i32* %29, align 4, !tbaa !5
  %265 = icmp sgt i32 %261, -1
  %266 = icmp sgt i32 %264, -1
  %267 = select i1 %265, i1 %266, i1 false
  %268 = load i32, i32* %1, align 4
  %269 = icmp slt i32 %261, %268
  %270 = select i1 %267, i1 %269, i1 false
  %271 = load i32, i32* %2, align 4
  %272 = icmp slt i32 %264, %271
  %273 = select i1 %270, i1 %272, i1 false
  br i1 %273, label %274, label %305

274:                                              ; preds = %258
  %275 = zext i32 %261 to i64
  %276 = load %"class.std::vector.8"*, %"class.std::vector.8"** %113, align 8, !tbaa !21
  %277 = zext i32 %264 to i64
  %278 = getelementptr inbounds %"class.std::vector.8", %"class.std::vector.8"* %276, i64 %275, i32 0, i32 0, i32 0, i32 0
  %279 = load i32*, i32** %278, align 8, !tbaa !23
  %280 = getelementptr inbounds i32, i32* %279, i64 %277
  %281 = load i32, i32* %280, align 4, !tbaa !5
  %282 = icmp eq i32 %281, 1
  br i1 %282, label %304, label %285

283:                                              ; preds = %257
  %284 = landingpad { i8*, i32 }
          cleanup
  br label %313

285:                                              ; preds = %274
  br i1 %171, label %286, label %295

286:                                              ; preds = %285
  %287 = load %"class.std::__cxx11::basic_string"*, %"class.std::__cxx11::basic_string"** %51, align 8, !tbaa !29
  %288 = getelementptr inbounds %"class.std::__cxx11::basic_string", %"class.std::__cxx11::basic_string"* %287, i64 %275, i32 0, i32 0
  %289 = load i8*, i8** %288, align 8, !tbaa !18
  %290 = getelementptr inbounds i8, i8* %289, i64 %277
  %291 = load i8, i8* %290, align 1, !tbaa !15
  %292 = icmp eq i8 %291, 35
  br i1 %292, label %306, label %295

293:                                              ; preds = %302
  %294 = landingpad { i8*, i32 }
          cleanup
  br label %311

295:                                              ; preds = %285, %286
  store i32 1, i32* %280, align 4, !tbaa !5
  call void @llvm.lifetime.start.p0i8(i64 8, i8* nonnull %165) #20
  %296 = load i32, i32* %28, align 4, !tbaa !5
  %297 = load i32, i32* %29, align 4, !tbaa !5
  %298 = zext i32 %297 to i64
  %299 = shl nuw i64 %298, 32
  %300 = zext i32 %296 to i64
  %301 = or i64 %299, %300
  store i64 %301, i64* %30, align 8
  invoke void @_ZNSt6vectorISt4pairIiiESaIS1_EE12emplace_backIJS1_EEEvDpOT_(%"class.std::vector.13"* nonnull align 8 dereferenceable(24) %12, %"struct.std::pair"* nonnull align 4 dereferenceable(8) %31) #21
          to label %302 unwind label %309

302:                                              ; preds = %295
  call void @llvm.lifetime.end.p0i8(i64 8, i8* nonnull %165) #20
  invoke void @_ZNSt6vectorISt4pairIiiESaIS1_EE12emplace_backIJRiS5_EEEvDpOT_(%"class.std::vector.13"* nonnull align 8 dereferenceable(24) %26, i32* nonnull align 4 dereferenceable(4) %28, i32* nonnull align 4 dereferenceable(4) %29) #21
          to label %303 unwind label %293

303:                                              ; preds = %302
  call void @llvm.lifetime.end.p0i8(i64 4, i8* nonnull %164) #20
  call void @llvm.lifetime.end.p0i8(i64 4, i8* nonnull %162) #20
  br label %307

304:                                              ; preds = %274
  call void @llvm.lifetime.end.p0i8(i64 4, i8* nonnull %164) #20
  call void @llvm.lifetime.end.p0i8(i64 4, i8* nonnull %162) #20
  br label %307

305:                                              ; preds = %258
  call void @llvm.lifetime.end.p0i8(i64 4, i8* nonnull %164) #20
  call void @llvm.lifetime.end.p0i8(i64 4, i8* nonnull %162) #20
  br label %307

306:                                              ; preds = %286
  call void @llvm.lifetime.end.p0i8(i64 4, i8* nonnull %164) #20
  call void @llvm.lifetime.end.p0i8(i64 4, i8* nonnull %162) #20
  br label %307

307:                                              ; preds = %306, %305, %304, %303
  call void @_ZNSt12_Vector_baseIiSaIiEED2Ev(%"struct.std::_Vector_base.9"* nonnull align 8 dereferenceable(24) %166) #22
  call void @llvm.lifetime.end.p0i8(i64 24, i8* nonnull %161) #20
  %308 = getelementptr inbounds %"class.std::vector.8", %"class.std::vector.8"* %253, i64 1
  br label %252

309:                                              ; preds = %295
  %310 = landingpad { i8*, i32 }
          cleanup
  call void @llvm.lifetime.end.p0i8(i64 8, i8* nonnull %165) #20
  br label %311

311:                                              ; preds = %309, %293
  %312 = phi { i8*, i32 } [ %294, %293 ], [ %310, %309 ]
  call void @llvm.lifetime.end.p0i8(i64 4, i8* nonnull %164) #20
  call void @llvm.lifetime.end.p0i8(i64 4, i8* nonnull %162) #20
  call void @_ZNSt12_Vector_baseIiSaIiEED2Ev(%"struct.std::_Vector_base.9"* nonnull align 8 dereferenceable(24) %166) #22
  br label %313

313:                                              ; preds = %311, %283
  %314 = phi { i8*, i32 } [ %312, %311 ], [ %284, %283 ]
  call void @llvm.lifetime.end.p0i8(i64 24, i8* nonnull %161) #20
  br label %358

315:                                              ; preds = %243
  %316 = add nuw nsw i32 %177, 1
  br label %176, !llvm.loop !31

317:                                              ; preds = %243
  %318 = landingpad { i8*, i32 }
          cleanup
  br label %358

319:                                              ; preds = %180
  br i1 %171, label %320, label %326

320:                                              ; preds = %319
  call void @llvm.lifetime.start.p0i8(i64 8, i8* nonnull %167) #20
  store i64 %110, i64* %32, align 8
  invoke void @_ZNSt6vectorISt4pairIiiESaIS1_EE12emplace_backIJS1_EEEvDpOT_(%"class.std::vector.13"* nonnull align 8 dereferenceable(24) %11, %"struct.std::pair"* nonnull align 4 dereferenceable(8) %33) #21
          to label %321 unwind label %324

321:                                              ; preds = %320
  call void @llvm.lifetime.end.p0i8(i64 8, i8* nonnull %167) #20
  br label %326

322:                                              ; preds = %180
  %323 = landingpad { i8*, i32 }
          cleanup
  br label %358

324:                                              ; preds = %320
  %325 = landingpad { i8*, i32 }
          cleanup
  call void @llvm.lifetime.end.p0i8(i64 8, i8* nonnull %167) #20
  br label %358

326:                                              ; preds = %321, %319
  %327 = add nuw nsw i32 %170, 1
  %328 = load %"struct.std::pair"*, %"struct.std::pair"** %155, align 8, !tbaa !28
  %329 = load %"struct.std::pair"*, %"struct.std::pair"** %154, align 8, !tbaa !28
  %330 = load i32, i32* %1, align 4
  %331 = add nsw i32 %330, -1
  %332 = load i32, i32* %2, align 4
  %333 = add nsw i32 %332, -1
  br label %334

334:                                              ; preds = %343, %326
  %335 = phi %"struct.std::pair"* [ %328, %326 ], [ %348, %343 ]
  %336 = icmp eq %"struct.std::pair"* %335, %329
  br i1 %336, label %357, label %337

337:                                              ; preds = %334
  %338 = getelementptr inbounds %"struct.std::pair", %"struct.std::pair"* %335, i64 0, i32 0
  %339 = load i32, i32* %338, align 4
  %340 = getelementptr inbounds %"struct.std::pair", %"struct.std::pair"* %335, i64 0, i32 1
  %341 = load i32, i32* %340, align 4
  %342 = icmp eq i32 %339, 0
  br i1 %342, label %350, label %343

343:                                              ; preds = %337
  %344 = icmp eq i32 %339, %331
  %345 = icmp eq i32 %341, 0
  %346 = select i1 %344, i1 true, i1 %345
  %347 = icmp eq i32 %341, %333
  %348 = getelementptr inbounds %"struct.std::pair", %"struct.std::pair"* %335, i64 1
  %349 = select i1 %346, i1 true, i1 %347
  br i1 %349, label %350, label %334

350:                                              ; preds = %343, %337
  %351 = invoke nonnull align 8 dereferenceable(8) %"class.std::basic_ostream"* @_ZNSolsEi(%"class.std::basic_ostream"* nonnull align 8 dereferenceable(8) @_ZSt4cout, i32 %327) #21
          to label %352 unwind label %354

352:                                              ; preds = %350
  %353 = invoke nonnull align 8 dereferenceable(8) %"class.std::basic_ostream"* @_ZSt4endlIcSt11char_traitsIcEERSt13basic_ostreamIT_T0_ES6_(%"class.std::basic_ostream"* nonnull align 8 dereferenceable(8) %351) #21
          to label %356 unwind label %354

354:                                              ; preds = %352, %350
  %355 = landingpad { i8*, i32 }
          cleanup
  br label %358

356:                                              ; preds = %352
  call void @_ZNSt12_Vector_baseISt4pairIiiESaIS1_EED2Ev(%"struct.std::_Vector_base.14"* nonnull align 8 dereferenceable(24) %168) #22
  call void @llvm.lifetime.end.p0i8(i64 24, i8* nonnull %156) #20
  br label %360

357:                                              ; preds = %334
  call void @_ZNSt12_Vector_baseISt4pairIiiESaIS1_EED2Ev(%"struct.std::_Vector_base.14"* nonnull align 8 dereferenceable(24) %168) #22
  call void @llvm.lifetime.end.p0i8(i64 24, i8* nonnull %156) #20
  br label %169, !llvm.loop !32

358:                                              ; preds = %313, %317, %354, %324, %322
  %359 = phi { i8*, i32 } [ %355, %354 ], [ %325, %324 ], [ %323, %322 ], [ %314, %313 ], [ %318, %317 ]
  call void @_ZNSt12_Vector_baseISt4pairIiiESaIS1_EED2Ev(%"struct.std::_Vector_base.14"* nonnull align 8 dereferenceable(24) %168) #22
  call void @llvm.lifetime.end.p0i8(i64 24, i8* nonnull %156) #20
  call void @_ZNSt6vectorIS_IiSaIiEESaIS1_EED2Ev(%"class.std::vector.3"* nonnull align 8 dereferenceable(24) %15) #22
  br label %363

360:                                              ; preds = %169, %356
  call void @_ZNSt6vectorIS_IiSaIiEESaIS1_EED2Ev(%"class.std::vector.3"* nonnull align 8 dereferenceable(24) %15) #22
  call void @llvm.lifetime.end.p0i8(i64 24, i8* nonnull %119) #20
  %361 = getelementptr inbounds %"class.std::vector.13", %"class.std::vector.13"* %12, i64 0, i32 0
  call void @_ZNSt12_Vector_baseISt4pairIiiESaIS1_EED2Ev(%"struct.std::_Vector_base.14"* nonnull align 8 dereferenceable(24) %361) #22
  call void @llvm.lifetime.end.p0i8(i64 24, i8* nonnull %105) #20
  %362 = getelementptr inbounds %"class.std::vector.13", %"class.std::vector.13"* %11, i64 0, i32 0
  call void @_ZNSt12_Vector_baseISt4pairIiiESaIS1_EED2Ev(%"struct.std::_Vector_base.14"* nonnull align 8 dereferenceable(24) %362) #22
  call void @llvm.lifetime.end.p0i8(i64 24, i8* nonnull %104) #20
  call void @_ZNSt6vectorIS_IiSaIiEESaIS1_EED2Ev(%"class.std::vector.3"* nonnull align 8 dereferenceable(24) %6) #22
  call void @llvm.lifetime.end.p0i8(i64 24, i8* nonnull %73) #20
  call void @_ZNSt6vectorINSt7__cxx1112basic_stringIcSt11char_traitsIcESaIcEEESaIS5_EED2Ev(%"class.std::vector"* nonnull align 8 dereferenceable(24) %4) #22
  call void @llvm.lifetime.end.p0i8(i64 24, i8* nonnull %40) #20
  call void @llvm.lifetime.end.p0i8(i64 4, i8* nonnull %36) #20
  call void @llvm.lifetime.end.p0i8(i64 4, i8* nonnull %35) #20
  call void @llvm.lifetime.end.p0i8(i64 4, i8* nonnull %34) #20
  ret i32 0

363:                                              ; preds = %358, %231
  %364 = phi { i8*, i32 } [ %359, %358 ], [ %221, %231 ]
  call void @llvm.lifetime.end.p0i8(i64 24, i8* nonnull %119) #20
  br label %365

365:                                              ; preds = %363, %189
  %366 = phi { i8*, i32 } [ %364, %363 ], [ %190, %189 ]
  %367 = getelementptr inbounds %"class.std::vector.13", %"class.std::vector.13"* %12, i64 0, i32 0
  call void @_ZNSt12_Vector_baseISt4pairIiiESaIS1_EED2Ev(%"struct.std::_Vector_base.14"* nonnull align 8 dereferenceable(24) %367) #22
  call void @llvm.lifetime.end.p0i8(i64 24, i8* nonnull %105) #20
  %368 = getelementptr inbounds %"class.std::vector.13", %"class.std::vector.13"* %11, i64 0, i32 0
  call void @_ZNSt12_Vector_baseISt4pairIiiESaIS1_EED2Ev(%"struct.std::_Vector_base.14"* nonnull align 8 dereferenceable(24) %368) #22
  call void @llvm.lifetime.end.p0i8(i64 24, i8* nonnull %104) #20
  call void @_ZNSt6vectorIS_IiSaIiEESaIS1_EED2Ev(%"class.std::vector.3"* nonnull align 8 dereferenceable(24) %6) #22
  br label %369

369:                                              ; preds = %365, %187
  %370 = phi { i8*, i32 } [ %366, %365 ], [ %188, %187 ]
  call void @llvm.lifetime.end.p0i8(i64 24, i8* nonnull %73) #20
  br label %371

371:                                              ; preds = %369, %57
  %372 = phi { i8*, i32 } [ %58, %57 ], [ %370, %369 ]
  call void @_ZNSt6vectorINSt7__cxx1112basic_stringIcSt11char_traitsIcESaIcEEESaIS5_EED2Ev(%"class.std::vector"* nonnull align 8 dereferenceable(24) %4) #22
  call void @llvm.lifetime.end.p0i8(i64 24, i8* nonnull %40) #20
  call void @llvm.lifetime.end.p0i8(i64 4, i8* nonnull %36) #20
  call void @llvm.lifetime.end.p0i8(i64 4, i8* nonnull %35) #20
  call void @llvm.lifetime.end.p0i8(i64 4, i8* nonnull %34) #20
  resume { i8*, i32 } %372
}

; Function Attrs: argmemonly mustprogress nofree nosync nounwind willreturn
declare void @llvm.lifetime.start.p0i8(i64 immarg, i8* nocapture) #4

; Function Attrs: minsize optsize
declare nonnull align 8 dereferenceable(16) %"class.std::basic_istream"* @_ZNSirsERi(%"class.std::basic_istream"* nonnull align 8 dereferenceable(16), i32* nonnull align 4 dereferenceable(4)) local_unnamed_addr #0

; Function Attrs: minsize optsize
declare nonnull align 8 dereferenceable(16) %"class.std::basic_istream"* @_ZStrsIcSt11char_traitsIcESaIcEERSt13basic_istreamIT_T0_ES7_RNSt7__cxx1112basic_stringIS4_S5_T1_EE(%"class.std::basic_istream"* nonnull align 8 dereferenceable(16), %"class.std::__cxx11::basic_string"* nonnull align 8 dereferenceable(32)) local_unnamed_addr #0

declare i32 @__gxx_personality_v0(...)

; Function Attrs: minsize optsize sspstrong uwtable
define linkonce_odr dso_local void @_ZNSt6vectorINSt7__cxx1112basic_stringIcSt11char_traitsIcESaIcEEESaIS5_EE9push_backERKS5_(%"class.std::vector"* nonnull align 8 dereferenceable(24) %0, %"class.std::__cxx11::basic_string"* nonnull align 8 dereferenceable(32) %1) local_unnamed_addr #5 comdat align 2 {
  %3 = getelementptr inbounds %"class.std::vector", %"class.std::vector"* %0, i64 0, i32 0, i32 0, i32 0, i32 1
  %4 = load %"class.std::__cxx11::basic_string"*, %"class.std::__cxx11::basic_string"** %3, align 8, !tbaa !33
  %5 = getelementptr inbounds %"class.std::vector", %"class.std::vector"* %0, i64 0, i32 0, i32 0, i32 0, i32 2
  %6 = load %"class.std::__cxx11::basic_string"*, %"class.std::__cxx11::basic_string"** %5, align 8, !tbaa !34
  %7 = icmp eq %"class.std::__cxx11::basic_string"* %4, %6
  br i1 %7, label %11, label %8

8:                                                ; preds = %2
  tail call void @_ZNSt7__cxx1112basic_stringIcSt11char_traitsIcESaIcEEC2ERKS4_(%"class.std::__cxx11::basic_string"* nonnull align 8 dereferenceable(32) %4, %"class.std::__cxx11::basic_string"* nonnull align 8 dereferenceable(32) %1) #21
  %9 = load %"class.std::__cxx11::basic_string"*, %"class.std::__cxx11::basic_string"** %3, align 8, !tbaa !33
  %10 = getelementptr inbounds %"class.std::__cxx11::basic_string", %"class.std::__cxx11::basic_string"* %9, i64 1
  store %"class.std::__cxx11::basic_string"* %10, %"class.std::__cxx11::basic_string"** %3, align 8, !tbaa !33
  br label %12

11:                                               ; preds = %2
  tail call void @_ZNSt6vectorINSt7__cxx1112basic_stringIcSt11char_traitsIcESaIcEEESaIS5_EE17_M_realloc_insertIJRKS5_EEEvN9__gnu_cxx17__normal_iteratorIPS5_S7_EEDpOT_(%"class.std::vector"* nonnull align 8 dereferenceable(24) %0, %"class.std::__cxx11::basic_string"* %4, %"class.std::__cxx11::basic_string"* nonnull align 8 dereferenceable(32) %1) #21
  br label %12

12:                                               ; preds = %11, %8
  ret void
}

; Function Attrs: minsize nounwind optsize sspstrong uwtable
declare void @_ZNSt7__cxx1112basic_stringIcSt11char_traitsIcESaIcEED2Ev(%"class.std::__cxx11::basic_string"* nonnull align 8 dereferenceable(32)) unnamed_addr #6 align 2

; Function Attrs: argmemonly mustprogress nofree nosync nounwind willreturn
declare void @llvm.lifetime.end.p0i8(i64 immarg, i8* nocapture) #4

; Function Attrs: minsize optsize sspstrong uwtable
define linkonce_odr dso_local void @_ZNSt6vectorIiSaIiEEC2EmRKiRKS0_(%"class.std::vector.8"* nonnull align 8 dereferenceable(24) %0, i64 %1, i32* nonnull align 4 dereferenceable(4) %2, %"class.std::allocator.10"* nonnull align 1 dereferenceable(1) %3) unnamed_addr #5 comdat align 2 personality i8* bitcast (i32 (...)* @__gxx_personality_v0 to i8*) {
  %5 = getelementptr inbounds %"class.std::vector.8", %"class.std::vector.8"* %0, i64 0, i32 0
  %6 = tail call i64 @_ZNSt6vectorIiSaIiEE17_S_check_init_lenEmRKS0_(i64 %1, %"class.std::allocator.10"* nonnull align 1 dereferenceable(1) %3) #21
  %7 = bitcast %"class.std::vector.8"* %0 to i8*
  tail call void @llvm.memset.p0i8.i64(i8* noundef nonnull align 8 dereferenceable(24) %7, i8 0, i64 24, i1 false) #20
  tail call void @_ZNSt12_Vector_baseIiSaIiEE17_M_create_storageEm(%"struct.std::_Vector_base.9"* nonnull align 8 dereferenceable(24) %5, i64 %6) #21
  invoke void @_ZNSt6vectorIiSaIiEE18_M_fill_initializeEmRKi(%"class.std::vector.8"* nonnull align 8 dereferenceable(24) %0, i64 %1, i32* nonnull align 4 dereferenceable(4) %2) #21
          to label %8 unwind label %9

8:                                                ; preds = %4
  ret void

9:                                                ; preds = %4
  %10 = landingpad { i8*, i32 }
          cleanup
  tail call void @_ZNSt12_Vector_baseIiSaIiEED2Ev(%"struct.std::_Vector_base.9"* nonnull align 8 dereferenceable(24) %5) #22
  resume { i8*, i32 } %10
}

; Function Attrs: minsize optsize sspstrong uwtable
define linkonce_odr dso_local void @_ZNSt6vectorIS_IiSaIiEESaIS1_EEC2EmRKS1_RKS2_(%"class.std::vector.3"* nonnull align 8 dereferenceable(24) %0, i64 %1, %"class.std::vector.8"* nonnull align 8 dereferenceable(24) %2, %"class.std::allocator.5"* nonnull align 1 dereferenceable(1) %3) unnamed_addr #5 comdat align 2 personality i8* bitcast (i32 (...)* @__gxx_personality_v0 to i8*) {
  %5 = getelementptr inbounds %"class.std::vector.3", %"class.std::vector.3"* %0, i64 0, i32 0
  %6 = tail call i64 @_ZNSt6vectorIS_IiSaIiEESaIS1_EE17_S_check_init_lenEmRKS2_(i64 %1, %"class.std::allocator.5"* nonnull align 1 dereferenceable(1) %3) #21
  %7 = bitcast %"class.std::vector.3"* %0 to i8*
  tail call void @llvm.memset.p0i8.i64(i8* noundef nonnull align 8 dereferenceable(24) %7, i8 0, i64 24, i1 false) #20
  tail call void @_ZNSt12_Vector_baseISt6vectorIiSaIiEESaIS2_EE17_M_create_storageEm(%"struct.std::_Vector_base.4"* nonnull align 8 dereferenceable(24) %5, i64 %6) #21
  invoke void @_ZNSt6vectorIS_IiSaIiEESaIS1_EE18_M_fill_initializeEmRKS1_(%"class.std::vector.3"* nonnull align 8 dereferenceable(24) %0, i64 %1, %"class.std::vector.8"* nonnull align 8 dereferenceable(24) %2) #21
          to label %8 unwind label %9

8:                                                ; preds = %4
  ret void

9:                                                ; preds = %4
  %10 = landingpad { i8*, i32 }
          cleanup
  tail call void @_ZNSt12_Vector_baseISt6vectorIiSaIiEESaIS2_EED2Ev(%"struct.std::_Vector_base.4"* nonnull align 8 dereferenceable(24) %5) #22
  resume { i8*, i32 } %10
}

; Function Attrs: minsize optsize sspstrong uwtable
define linkonce_odr dso_local void @_ZNSt6vectorIiSaIiEEC2ESt16initializer_listIiERKS0_(%"class.std::vector.8"* nonnull align 8 dereferenceable(24) %0, i32* %1, i64 %2, %"class.std::allocator.10"* nonnull align 1 dereferenceable(1) %3) unnamed_addr #5 comdat align 2 personality i8* bitcast (i32 (...)* @__gxx_personality_v0 to i8*) {
  %5 = bitcast %"class.std::vector.8"* %0 to i8*
  tail call void @llvm.memset.p0i8.i64(i8* noundef nonnull align 8 dereferenceable(24) %5, i8 0, i64 24, i1 false) #20
  %6 = getelementptr inbounds i32, i32* %1, i64 %2
  invoke void @_ZNSt6vectorIiSaIiEE19_M_range_initializeIPKiEEvT_S5_St20forward_iterator_tag(%"class.std::vector.8"* nonnull align 8 dereferenceable(24) %0, i32* %1, i32* %6) #21
          to label %7 unwind label %8

7:                                                ; preds = %4
  ret void

8:                                                ; preds = %4
  %9 = landingpad { i8*, i32 }
          cleanup
  %10 = getelementptr inbounds %"class.std::vector.8", %"class.std::vector.8"* %0, i64 0, i32 0
  tail call void @_ZNSt12_Vector_baseIiSaIiEED2Ev(%"struct.std::_Vector_base.9"* nonnull align 8 dereferenceable(24) %10) #22
  resume { i8*, i32 } %9
}

; Function Attrs: minsize optsize sspstrong uwtable
define linkonce_odr dso_local void @_ZNSt6vectorIS_IiSaIiEESaIS1_EEC2ESt16initializer_listIS1_ERKS2_(%"class.std::vector.3"* nonnull align 8 dereferenceable(24) %0, %"class.std::vector.8"* %1, i64 %2, %"class.std::allocator.5"* nonnull align 1 dereferenceable(1) %3) unnamed_addr #5 comdat align 2 personality i8* bitcast (i32 (...)* @__gxx_personality_v0 to i8*) {
  %5 = bitcast %"class.std::vector.3"* %0 to i8*
  tail call void @llvm.memset.p0i8.i64(i8* noundef nonnull align 8 dereferenceable(24) %5, i8 0, i64 24, i1 false) #20
  %6 = getelementptr inbounds %"class.std::vector.8", %"class.std::vector.8"* %1, i64 %2
  invoke void @_ZNSt6vectorIS_IiSaIiEESaIS1_EE19_M_range_initializeIPKS1_EEvT_S7_St20forward_iterator_tag(%"class.std::vector.3"* nonnull align 8 dereferenceable(24) %0, %"class.std::vector.8"* %1, %"class.std::vector.8"* %6) #21
          to label %7 unwind label %8

7:                                                ; preds = %4
  ret void

8:                                                ; preds = %4
  %9 = landingpad { i8*, i32 }
          cleanup
  %10 = getelementptr inbounds %"class.std::vector.3", %"class.std::vector.3"* %0, i64 0, i32 0
  tail call void @_ZNSt12_Vector_baseISt6vectorIiSaIiEESaIS2_EED2Ev(%"struct.std::_Vector_base.4"* nonnull align 8 dereferenceable(24) %10) #22
  resume { i8*, i32 } %9
}

; Function Attrs: minsize optsize sspstrong uwtable
define linkonce_odr dso_local void @_ZNSt6vectorIiSaIiEEC2ERKS1_(%"class.std::vector.8"* nonnull align 8 dereferenceable(24) %0, %"class.std::vector.8"* nonnull align 8 dereferenceable(24) %1) unnamed_addr #5 comdat align 2 personality i8* bitcast (i32 (...)* @__gxx_personality_v0 to i8*) {
  %3 = getelementptr inbounds %"class.std::vector.8", %"class.std::vector.8"* %0, i64 0, i32 0
  %4 = getelementptr inbounds %"class.std::vector.8", %"class.std::vector.8"* %1, i64 0, i32 0, i32 0, i32 0, i32 1
  %5 = load i32*, i32** %4, align 8, !tbaa !35
  %6 = getelementptr inbounds %"class.std::vector.8", %"class.std::vector.8"* %1, i64 0, i32 0, i32 0, i32 0, i32 0
  %7 = load i32*, i32** %6, align 8, !tbaa !23
  %8 = ptrtoint i32* %5 to i64
  %9 = ptrtoint i32* %7 to i64
  %10 = sub i64 %8, %9
  %11 = ashr exact i64 %10, 2
  %12 = bitcast %"class.std::vector.8"* %0 to i8*
  tail call void @llvm.memset.p0i8.i64(i8* noundef nonnull align 8 dereferenceable(24) %12, i8 0, i64 24, i1 false) #20
  tail call void @_ZNSt12_Vector_baseIiSaIiEE17_M_create_storageEm(%"struct.std::_Vector_base.9"* nonnull align 8 dereferenceable(24) %3, i64 %11) #21
  %13 = load i32*, i32** %6, align 8, !tbaa !28
  %14 = load i32*, i32** %4, align 8, !tbaa !28
  %15 = getelementptr inbounds %"class.std::vector.8", %"class.std::vector.8"* %0, i64 0, i32 0, i32 0, i32 0, i32 0
  %16 = load i32*, i32** %15, align 8, !tbaa !23
  %17 = ptrtoint i32* %14 to i64
  %18 = ptrtoint i32* %13 to i64
  %19 = sub i64 %17, %18
  %20 = icmp eq i64 %19, 0
  br i1 %20, label %24, label %21

21:                                               ; preds = %2
  %22 = bitcast i32* %16 to i8*
  %23 = bitcast i32* %13 to i8*
  tail call void @llvm.memmove.p0i8.p0i8.i64(i8* align 4 %22, i8* align 4 %23, i64 %19, i1 false) #20
  br label %24

24:                                               ; preds = %21, %2
  %25 = ashr exact i64 %19, 2
  %26 = getelementptr inbounds i32, i32* %16, i64 %25
  %27 = getelementptr inbounds %"class.std::vector.8", %"class.std::vector.8"* %0, i64 0, i32 0, i32 0, i32 0, i32 1
  store i32* %26, i32** %27, align 8, !tbaa !35
  ret void
}

; Function Attrs: minsize optsize sspstrong uwtable
define linkonce_odr dso_local void @_ZNSt6vectorISt4pairIiiESaIS1_EE12emplace_backIJRiS5_EEEvDpOT_(%"class.std::vector.13"* nonnull align 8 dereferenceable(24) %0, i32* nonnull align 4 dereferenceable(4) %1, i32* nonnull align 4 dereferenceable(4) %2) local_unnamed_addr #5 comdat align 2 {
  %4 = getelementptr inbounds %"class.std::vector.13", %"class.std::vector.13"* %0, i64 0, i32 0, i32 0, i32 0, i32 1
  %5 = load %"struct.std::pair"*, %"struct.std::pair"** %4, align 8, !tbaa !25
  %6 = getelementptr inbounds %"class.std::vector.13", %"class.std::vector.13"* %0, i64 0, i32 0, i32 0, i32 0, i32 2
  %7 = load %"struct.std::pair"*, %"struct.std::pair"** %6, align 8, !tbaa !36
  %8 = icmp eq %"struct.std::pair"* %5, %7
  br i1 %8, label %15, label %9

9:                                                ; preds = %3
  %10 = getelementptr inbounds %"struct.std::pair", %"struct.std::pair"* %5, i64 0, i32 0
  %11 = load i32, i32* %1, align 4, !tbaa !5
  store i32 %11, i32* %10, align 4, !tbaa !37
  %12 = getelementptr inbounds %"struct.std::pair", %"struct.std::pair"* %5, i64 0, i32 1
  %13 = load i32, i32* %2, align 4, !tbaa !5
  store i32 %13, i32* %12, align 4, !tbaa !39
  %14 = getelementptr inbounds %"struct.std::pair", %"struct.std::pair"* %5, i64 1
  store %"struct.std::pair"* %14, %"struct.std::pair"** %4, align 8, !tbaa !25
  br label %16

15:                                               ; preds = %3
  tail call void @_ZNSt6vectorISt4pairIiiESaIS1_EE17_M_realloc_insertIJRiS5_EEEvN9__gnu_cxx17__normal_iteratorIPS1_S3_EEDpOT_(%"class.std::vector.13"* nonnull align 8 dereferenceable(24) %0, %"struct.std::pair"* %5, i32* nonnull align 4 dereferenceable(4) %1, i32* nonnull align 4 dereferenceable(4) %2) #21
  br label %16

16:                                               ; preds = %15, %9
  ret void
}

; Function Attrs: minsize optsize sspstrong uwtable
define linkonce_odr dso_local nonnull align 8 dereferenceable(24) %"class.std::vector.13"* @_ZNSt6vectorISt4pairIiiESaIS1_EEaSERKS3_(%"class.std::vector.13"* nonnull align 8 dereferenceable(24) %0, %"class.std::vector.13"* nonnull align 8 dereferenceable(24) %1) local_unnamed_addr #5 comdat align 2 personality i32 (...)* @__gxx_personality_v0 {
  %3 = icmp eq %"class.std::vector.13"* %1, %0
  br i1 %3, label %65, label %4

4:                                                ; preds = %2
  %5 = getelementptr inbounds %"class.std::vector.13", %"class.std::vector.13"* %1, i64 0, i32 0, i32 0, i32 0, i32 1
  %6 = load %"struct.std::pair"*, %"struct.std::pair"** %5, align 8, !tbaa !25
  %7 = getelementptr inbounds %"class.std::vector.13", %"class.std::vector.13"* %1, i64 0, i32 0, i32 0, i32 0, i32 0
  %8 = load %"struct.std::pair"*, %"struct.std::pair"** %7, align 8, !tbaa !27
  %9 = ptrtoint %"struct.std::pair"* %6 to i64
  %10 = ptrtoint %"struct.std::pair"* %8 to i64
  %11 = sub i64 %9, %10
  %12 = ashr exact i64 %11, 3
  %13 = getelementptr inbounds %"class.std::vector.13", %"class.std::vector.13"* %0, i64 0, i32 0, i32 0, i32 0, i32 2
  %14 = load %"struct.std::pair"*, %"struct.std::pair"** %13, align 8, !tbaa !36
  %15 = getelementptr inbounds %"class.std::vector.13", %"class.std::vector.13"* %0, i64 0, i32 0, i32 0, i32 0, i32 0
  %16 = load %"struct.std::pair"*, %"struct.std::pair"** %15, align 8, !tbaa !27
  %17 = ptrtoint %"struct.std::pair"* %14 to i64
  %18 = ptrtoint %"struct.std::pair"* %16 to i64
  %19 = sub i64 %17, %18
  %20 = ashr exact i64 %19, 3
  %21 = icmp ugt i64 %12, %20
  br i1 %21, label %22, label %30

22:                                               ; preds = %4
  %23 = tail call %"struct.std::pair"* @_ZNSt6vectorISt4pairIiiESaIS1_EE20_M_allocate_and_copyIN9__gnu_cxx17__normal_iteratorIPKS1_S3_EEEEPS1_mT_SB_(%"class.std::vector.13"* nonnull align 8 dereferenceable(24) %0, i64 %12, %"struct.std::pair"* %8, %"struct.std::pair"* %6) #21
  %24 = load %"struct.std::pair"*, %"struct.std::pair"** %15, align 8, !tbaa !27
  %25 = icmp eq %"struct.std::pair"* %24, null
  br i1 %25, label %28, label %26

26:                                               ; preds = %22
  %27 = bitcast %"struct.std::pair"* %24 to i8*
  tail call void @_ZdlPv(i8* nonnull %27) #22
  br label %28

28:                                               ; preds = %22, %26
  store %"struct.std::pair"* %23, %"struct.std::pair"** %15, align 8, !tbaa !27
  %29 = getelementptr inbounds %"struct.std::pair", %"struct.std::pair"* %23, i64 %12
  store %"struct.std::pair"* %29, %"struct.std::pair"** %13, align 8, !tbaa !36
  br label %61

30:                                               ; preds = %4
  %31 = getelementptr inbounds %"class.std::vector.13", %"class.std::vector.13"* %0, i64 0, i32 0, i32 0, i32 0, i32 1
  %32 = load %"struct.std::pair"*, %"struct.std::pair"** %31, align 8, !tbaa !25
  %33 = ptrtoint %"struct.std::pair"* %32 to i64
  %34 = sub i64 %33, %18
  %35 = ashr exact i64 %34, 3
  %36 = icmp ult i64 %35, %12
  br i1 %36, label %39, label %37

37:                                               ; preds = %30
  %38 = tail call %"struct.std::pair"* @_ZSt13__copy_move_aILb0EN9__gnu_cxx17__normal_iteratorIPKSt4pairIiiESt6vectorIS3_SaIS3_EEEENS1_IPS3_S8_EEET1_T0_SD_SC_(%"struct.std::pair"* %8, %"struct.std::pair"* %6, %"struct.std::pair"* %16) #21
  br label %61

39:                                               ; preds = %30
  %40 = getelementptr inbounds %"struct.std::pair", %"struct.std::pair"* %8, i64 %35
  %41 = tail call %"struct.std::pair"* @_ZNSt11__copy_moveILb0ELb0ESt26random_access_iterator_tagE8__copy_mIPSt4pairIiiES5_EET0_T_S7_S6_(%"struct.std::pair"* %8, %"struct.std::pair"* %40, %"struct.std::pair"* %16) #21
  %42 = load %"struct.std::pair"*, %"struct.std::pair"** %7, align 8, !tbaa !27
  %43 = load %"struct.std::pair"*, %"struct.std::pair"** %31, align 8, !tbaa !25
  %44 = load %"struct.std::pair"*, %"struct.std::pair"** %15, align 8, !tbaa !27
  %45 = ptrtoint %"struct.std::pair"* %43 to i64
  %46 = ptrtoint %"struct.std::pair"* %44 to i64
  %47 = sub i64 %45, %46
  %48 = ashr exact i64 %47, 3
  %49 = getelementptr inbounds %"struct.std::pair", %"struct.std::pair"* %42, i64 %48
  %50 = load %"struct.std::pair"*, %"struct.std::pair"** %5, align 8, !tbaa !25
  br label %51

51:                                               ; preds = %55, %39
  %52 = phi %"struct.std::pair"* [ %49, %39 ], [ %59, %55 ]
  %53 = phi %"struct.std::pair"* [ %43, %39 ], [ %60, %55 ]
  %54 = icmp eq %"struct.std::pair"* %52, %50
  br i1 %54, label %61, label %55

55:                                               ; preds = %51
  %56 = bitcast %"struct.std::pair"* %52 to i64*
  %57 = bitcast %"struct.std::pair"* %53 to i64*
  %58 = load i64, i64* %56, align 4
  store i64 %58, i64* %57, align 4
  %59 = getelementptr inbounds %"struct.std::pair", %"struct.std::pair"* %52, i64 1
  %60 = getelementptr inbounds %"struct.std::pair", %"struct.std::pair"* %53, i64 1
  br label %51, !llvm.loop !40

61:                                               ; preds = %51, %37, %28
  %62 = load %"struct.std::pair"*, %"struct.std::pair"** %15, align 8, !tbaa !27
  %63 = getelementptr inbounds %"struct.std::pair", %"struct.std::pair"* %62, i64 %12
  %64 = getelementptr inbounds %"class.std::vector.13", %"class.std::vector.13"* %0, i64 0, i32 0, i32 0, i32 0, i32 1
  store %"struct.std::pair"* %63, %"struct.std::pair"** %64, align 8, !tbaa !25
  br label %65

65:                                               ; preds = %61, %2
  ret %"class.std::vector.13"* %0
}

; Function Attrs: minsize optsize
declare nonnull align 8 dereferenceable(8) %"class.std::basic_ostream"* @_ZNSolsEi(%"class.std::basic_ostream"* nonnull align 8 dereferenceable(8), i32) local_unnamed_addr #0

; Function Attrs: inlinehint minsize mustprogress optsize sspstrong uwtable
declare nonnull align 8 dereferenceable(8) %"class.std::basic_ostream"* @_ZSt4endlIcSt11char_traitsIcEERSt13basic_ostreamIT_T0_ES6_(%"class.std::basic_ostream"* nonnull align 8 dereferenceable(8)) local_unnamed_addr #7

; Function Attrs: minsize nounwind optsize sspstrong uwtable
define linkonce_odr dso_local void @_ZNSt6vectorIS_IiSaIiEESaIS1_EED2Ev(%"class.std::vector.3"* nonnull align 8 dereferenceable(24) %0) unnamed_addr #6 comdat align 2 personality i8* bitcast (i32 (...)* @__gxx_personality_v0 to i8*) {
  %2 = getelementptr inbounds %"class.std::vector.3", %"class.std::vector.3"* %0, i64 0, i32 0
  %3 = getelementptr inbounds %"class.std::vector.3", %"class.std::vector.3"* %0, i64 0, i32 0, i32 0, i32 0, i32 0
  %4 = load %"class.std::vector.8"*, %"class.std::vector.8"** %3, align 8, !tbaa !21
  %5 = getelementptr inbounds %"class.std::vector.3", %"class.std::vector.3"* %0, i64 0, i32 0, i32 0, i32 0, i32 1
  %6 = load %"class.std::vector.8"*, %"class.std::vector.8"** %5, align 8, !tbaa !41
  invoke void @_ZNSt12_Destroy_auxILb0EE9__destroyIPSt6vectorIiSaIiEEEEvT_S6_(%"class.std::vector.8"* %4, %"class.std::vector.8"* %6) #21
          to label %7 unwind label %8

7:                                                ; preds = %1
  tail call void @_ZNSt12_Vector_baseISt6vectorIiSaIiEESaIS2_EED2Ev(%"struct.std::_Vector_base.4"* nonnull align 8 dereferenceable(24) %2) #22
  ret void

8:                                                ; preds = %1
  %9 = landingpad { i8*, i32 }
          catch i8* null
  %10 = extractvalue { i8*, i32 } %9, 0
  tail call void @_ZNSt12_Vector_baseISt6vectorIiSaIiEESaIS2_EED2Ev(%"struct.std::_Vector_base.4"* nonnull align 8 dereferenceable(24) %2) #22
  tail call void @__clang_call_terminate(i8* %10) #23
  unreachable
}

; Function Attrs: minsize nounwind optsize sspstrong uwtable
define linkonce_odr dso_local void @_ZNSt6vectorINSt7__cxx1112basic_stringIcSt11char_traitsIcESaIcEEESaIS5_EED2Ev(%"class.std::vector"* nonnull align 8 dereferenceable(24) %0) unnamed_addr #6 comdat align 2 personality i8* bitcast (i32 (...)* @__gxx_personality_v0 to i8*) {
  %2 = getelementptr inbounds %"class.std::vector", %"class.std::vector"* %0, i64 0, i32 0
  %3 = getelementptr inbounds %"class.std::vector", %"class.std::vector"* %0, i64 0, i32 0, i32 0, i32 0, i32 0
  %4 = load %"class.std::__cxx11::basic_string"*, %"class.std::__cxx11::basic_string"** %3, align 8, !tbaa !29
  %5 = getelementptr inbounds %"class.std::vector", %"class.std::vector"* %0, i64 0, i32 0, i32 0, i32 0, i32 1
  %6 = load %"class.std::__cxx11::basic_string"*, %"class.std::__cxx11::basic_string"** %5, align 8, !tbaa !33
  invoke void @_ZNSt12_Destroy_auxILb0EE9__destroyIPNSt7__cxx1112basic_stringIcSt11char_traitsIcESaIcEEEEEvT_S9_(%"class.std::__cxx11::basic_string"* %4, %"class.std::__cxx11::basic_string"* %6) #21
          to label %7 unwind label %8

7:                                                ; preds = %1
  tail call void @_ZNSt12_Vector_baseINSt7__cxx1112basic_stringIcSt11char_traitsIcESaIcEEESaIS5_EED2Ev(%"struct.std::_Vector_base"* nonnull align 8 dereferenceable(24) %2) #22
  ret void

8:                                                ; preds = %1
  %9 = landingpad { i8*, i32 }
          catch i8* null
  %10 = extractvalue { i8*, i32 } %9, 0
  tail call void @_ZNSt12_Vector_baseINSt7__cxx1112basic_stringIcSt11char_traitsIcESaIcEEESaIS5_EED2Ev(%"struct.std::_Vector_base"* nonnull align 8 dereferenceable(24) %2) #22
  tail call void @__clang_call_terminate(i8* %10) #23
  unreachable
}

; Function Attrs: noinline noreturn nounwind
define linkonce_odr hidden void @__clang_call_terminate(i8* %0) local_unnamed_addr #8 comdat {
  %2 = tail call i8* @__cxa_begin_catch(i8* %0) #20
  tail call void @_ZSt9terminatev() #23
  unreachable
}

declare i8* @__cxa_begin_catch(i8*) local_unnamed_addr

declare void @_ZSt9terminatev() local_unnamed_addr

; Function Attrs: minsize nobuiltin nounwind optsize
declare void @_ZdlPv(i8*) local_unnamed_addr #9

; Function Attrs: minsize nounwind optsize sspstrong uwtable
define linkonce_odr dso_local void @_ZNSt12_Vector_baseINSt7__cxx1112basic_stringIcSt11char_traitsIcESaIcEEESaIS5_EED2Ev(%"struct.std::_Vector_base"* nonnull align 8 dereferenceable(24) %0) unnamed_addr #6 comdat align 2 personality i8* bitcast (i32 (...)* @__gxx_personality_v0 to i8*) {
  %2 = getelementptr inbounds %"struct.std::_Vector_base", %"struct.std::_Vector_base"* %0, i64 0, i32 0, i32 0, i32 0
  %3 = load %"class.std::__cxx11::basic_string"*, %"class.std::__cxx11::basic_string"** %2, align 8, !tbaa !29
  %4 = icmp eq %"class.std::__cxx11::basic_string"* %3, null
  br i1 %4, label %7, label %5

5:                                                ; preds = %1
  %6 = bitcast %"class.std::__cxx11::basic_string"* %3 to i8*
  tail call void @_ZdlPv(i8* nonnull %6) #22
  br label %7

7:                                                ; preds = %5, %1
  ret void
}

; Function Attrs: minsize mustprogress optsize sspstrong uwtable
define linkonce_odr dso_local void @_ZNSt12_Destroy_auxILb0EE9__destroyIPNSt7__cxx1112basic_stringIcSt11char_traitsIcESaIcEEEEEvT_S9_(%"class.std::__cxx11::basic_string"* %0, %"class.std::__cxx11::basic_string"* %1) local_unnamed_addr #10 comdat align 2 {
  br label %3

3:                                                ; preds = %6, %2
  %4 = phi %"class.std::__cxx11::basic_string"* [ %0, %2 ], [ %7, %6 ]
  %5 = icmp eq %"class.std::__cxx11::basic_string"* %4, %1
  br i1 %5, label %8, label %6

6:                                                ; preds = %3
  tail call void @_ZNSt7__cxx1112basic_stringIcSt11char_traitsIcESaIcEED2Ev(%"class.std::__cxx11::basic_string"* nonnull align 8 dereferenceable(32) %4) #22
  %7 = getelementptr inbounds %"class.std::__cxx11::basic_string", %"class.std::__cxx11::basic_string"* %4, i64 1
  br label %3, !llvm.loop !42

8:                                                ; preds = %3
  ret void
}

; Function Attrs: minsize optsize sspstrong uwtable
define linkonce_odr dso_local void @_ZNSt6vectorINSt7__cxx1112basic_stringIcSt11char_traitsIcESaIcEEESaIS5_EE17_M_realloc_insertIJRKS5_EEEvN9__gnu_cxx17__normal_iteratorIPS5_S7_EEDpOT_(%"class.std::vector"* nonnull align 8 dereferenceable(24) %0, %"class.std::__cxx11::basic_string"* %1, %"class.std::__cxx11::basic_string"* nonnull align 8 dereferenceable(32) %2) local_unnamed_addr #5 comdat align 2 personality i8* bitcast (i32 (...)* @__gxx_personality_v0 to i8*) {
  %4 = tail call i64 @_ZNKSt6vectorINSt7__cxx1112basic_stringIcSt11char_traitsIcESaIcEEESaIS5_EE12_M_check_lenEmPKc(%"class.std::vector"* nonnull align 8 dereferenceable(24) %0, i64 1, i8* getelementptr inbounds ([26 x i8], [26 x i8]* @.str.1, i64 0, i64 0)) #21
  %5 = getelementptr inbounds %"class.std::vector", %"class.std::vector"* %0, i64 0, i32 0
  %6 = getelementptr inbounds %"class.std::vector", %"class.std::vector"* %0, i64 0, i32 0, i32 0, i32 0, i32 0
  %7 = load %"class.std::__cxx11::basic_string"*, %"class.std::__cxx11::basic_string"** %6, align 8, !tbaa !29
  %8 = getelementptr inbounds %"class.std::vector", %"class.std::vector"* %0, i64 0, i32 0, i32 0, i32 0, i32 1
  %9 = load %"class.std::__cxx11::basic_string"*, %"class.std::__cxx11::basic_string"** %8, align 8, !tbaa !33
  %10 = ptrtoint %"class.std::__cxx11::basic_string"* %1 to i64
  %11 = ptrtoint %"class.std::__cxx11::basic_string"* %7 to i64
  %12 = sub i64 %10, %11
  %13 = ashr exact i64 %12, 5
  %14 = tail call %"class.std::__cxx11::basic_string"* @_ZNSt12_Vector_baseINSt7__cxx1112basic_stringIcSt11char_traitsIcESaIcEEESaIS5_EE11_M_allocateEm(%"struct.std::_Vector_base"* nonnull align 8 dereferenceable(24) %5, i64 %4) #21
  %15 = getelementptr inbounds %"class.std::__cxx11::basic_string", %"class.std::__cxx11::basic_string"* %14, i64 %13
  invoke void @_ZNSt7__cxx1112basic_stringIcSt11char_traitsIcESaIcEEC2ERKS4_(%"class.std::__cxx11::basic_string"* nonnull align 8 dereferenceable(32) %15, %"class.std::__cxx11::basic_string"* nonnull align 8 dereferenceable(32) %2) #21
          to label %16 unwind label %27

16:                                               ; preds = %3
  %17 = bitcast %"class.std::vector"* %0 to %"class.std::allocator"*
  %18 = tail call %"class.std::__cxx11::basic_string"* @_ZSt14__relocate_a_1IPNSt7__cxx1112basic_stringIcSt11char_traitsIcESaIcEEES6_SaIS5_EET0_T_S9_S8_RT1_(%"class.std::__cxx11::basic_string"* %7, %"class.std::__cxx11::basic_string"* %1, %"class.std::__cxx11::basic_string"* %14, %"class.std::allocator"* nonnull align 1 dereferenceable(1) %17) #22
  %19 = getelementptr inbounds %"class.std::__cxx11::basic_string", %"class.std::__cxx11::basic_string"* %18, i64 1
  %20 = tail call %"class.std::__cxx11::basic_string"* @_ZSt14__relocate_a_1IPNSt7__cxx1112basic_stringIcSt11char_traitsIcESaIcEEES6_SaIS5_EET0_T_S9_S8_RT1_(%"class.std::__cxx11::basic_string"* %1, %"class.std::__cxx11::basic_string"* %9, %"class.std::__cxx11::basic_string"* nonnull %19, %"class.std::allocator"* nonnull align 1 dereferenceable(1) %17) #22
  %21 = icmp eq %"class.std::__cxx11::basic_string"* %7, null
  br i1 %21, label %24, label %22

22:                                               ; preds = %16
  %23 = bitcast %"class.std::__cxx11::basic_string"* %7 to i8*
  tail call void @_ZdlPv(i8* nonnull %23) #22
  br label %24

24:                                               ; preds = %16, %22
  %25 = getelementptr inbounds %"class.std::vector", %"class.std::vector"* %0, i64 0, i32 0, i32 0, i32 0, i32 2
  store %"class.std::__cxx11::basic_string"* %14, %"class.std::__cxx11::basic_string"** %6, align 8, !tbaa !29
  store %"class.std::__cxx11::basic_string"* %20, %"class.std::__cxx11::basic_string"** %8, align 8, !tbaa !33
  %26 = getelementptr inbounds %"class.std::__cxx11::basic_string", %"class.std::__cxx11::basic_string"* %14, i64 %4
  store %"class.std::__cxx11::basic_string"* %26, %"class.std::__cxx11::basic_string"** %25, align 8, !tbaa !34
  ret void

27:                                               ; preds = %3
  %28 = landingpad { i8*, i32 }
          catch i8* null
  %29 = extractvalue { i8*, i32 } %28, 0
  %30 = tail call i8* @__cxa_begin_catch(i8* %29) #20
  %31 = icmp eq %"class.std::__cxx11::basic_string"* %14, null
  br i1 %31, label %32, label %33

32:                                               ; preds = %27
  tail call void @_ZNSt7__cxx1112basic_stringIcSt11char_traitsIcESaIcEED2Ev(%"class.std::__cxx11::basic_string"* nonnull align 8 dereferenceable(32) %15) #22
  br label %38

33:                                               ; preds = %27
  invoke void @_ZNSt12_Destroy_auxILb0EE9__destroyIPNSt7__cxx1112basic_stringIcSt11char_traitsIcESaIcEEEEEvT_S9_(%"class.std::__cxx11::basic_string"* nonnull %14, %"class.std::__cxx11::basic_string"* nonnull %14) #21
          to label %36 unwind label %34

34:                                               ; preds = %33, %38
  %35 = landingpad { i8*, i32 }
          cleanup
  invoke void @__cxa_end_catch()
          to label %39 unwind label %40

36:                                               ; preds = %33
  %37 = bitcast %"class.std::__cxx11::basic_string"* %14 to i8*
  tail call void @_ZdlPv(i8* nonnull %37) #22
  br label %38

38:                                               ; preds = %36, %32
  invoke void @__cxa_rethrow() #24
          to label %43 unwind label %34

39:                                               ; preds = %34
  resume { i8*, i32 } %35

40:                                               ; preds = %34
  %41 = landingpad { i8*, i32 }
          catch i8* null
  %42 = extractvalue { i8*, i32 } %41, 0
  tail call void @__clang_call_terminate(i8* %42) #23
  unreachable

43:                                               ; preds = %38
  unreachable
}

; Function Attrs: minsize optsize sspstrong uwtable
declare void @_ZNSt7__cxx1112basic_stringIcSt11char_traitsIcESaIcEEC2ERKS4_(%"class.std::__cxx11::basic_string"* nonnull align 8 dereferenceable(32), %"class.std::__cxx11::basic_string"* nonnull align 8 dereferenceable(32)) unnamed_addr #5 align 2

; Function Attrs: minsize mustprogress optsize sspstrong uwtable
define linkonce_odr dso_local i64 @_ZNKSt6vectorINSt7__cxx1112basic_stringIcSt11char_traitsIcESaIcEEESaIS5_EE12_M_check_lenEmPKc(%"class.std::vector"* nonnull align 8 dereferenceable(24) %0, i64 %1, i8* %2) local_unnamed_addr #10 comdat align 2 personality i32 (...)* @__gxx_personality_v0 {
  %4 = getelementptr inbounds %"class.std::vector", %"class.std::vector"* %0, i64 0, i32 0, i32 0, i32 0, i32 1
  %5 = load %"class.std::__cxx11::basic_string"*, %"class.std::__cxx11::basic_string"** %4, align 8, !tbaa !33
  %6 = getelementptr inbounds %"class.std::vector", %"class.std::vector"* %0, i64 0, i32 0, i32 0, i32 0, i32 0
  %7 = load %"class.std::__cxx11::basic_string"*, %"class.std::__cxx11::basic_string"** %6, align 8, !tbaa !29
  %8 = ptrtoint %"class.std::__cxx11::basic_string"* %5 to i64
  %9 = ptrtoint %"class.std::__cxx11::basic_string"* %7 to i64
  %10 = sub i64 %8, %9
  %11 = ashr exact i64 %10, 5
  %12 = sub nsw i64 288230376151711743, %11
  %13 = icmp ult i64 %12, %1
  br i1 %13, label %14, label %15

14:                                               ; preds = %3
  tail call void @_ZSt20__throw_length_errorPKc(i8* %2) #25
  unreachable

15:                                               ; preds = %3
  %16 = icmp ult i64 %11, %1
  %17 = select i1 %16, i64 %1, i64 %11
  %18 = add i64 %17, %11
  %19 = icmp ult i64 %18, %11
  %20 = icmp ugt i64 %18, 288230376151711743
  %21 = or i1 %19, %20
  %22 = select i1 %21, i64 288230376151711743, i64 %18
  ret i64 %22
}

; Function Attrs: minsize mustprogress optsize sspstrong uwtable
define linkonce_odr dso_local %"class.std::__cxx11::basic_string"* @_ZNSt12_Vector_baseINSt7__cxx1112basic_stringIcSt11char_traitsIcESaIcEEESaIS5_EE11_M_allocateEm(%"struct.std::_Vector_base"* nonnull align 8 dereferenceable(24) %0, i64 %1) local_unnamed_addr #10 comdat align 2 {
  %3 = icmp eq i64 %1, 0
  br i1 %3, label %7, label %4

4:                                                ; preds = %2
  %5 = bitcast %"struct.std::_Vector_base"* %0 to %"class.std::allocator"*
  %6 = tail call %"class.std::__cxx11::basic_string"* @_ZNSt16allocator_traitsISaINSt7__cxx1112basic_stringIcSt11char_traitsIcESaIcEEEEE8allocateERS6_m(%"class.std::allocator"* nonnull align 1 dereferenceable(1) %5, i64 %1) #21
  br label %7

7:                                                ; preds = %2, %4
  %8 = phi %"class.std::__cxx11::basic_string"* [ %6, %4 ], [ null, %2 ]
  ret %"class.std::__cxx11::basic_string"* %8
}

declare void @__cxa_rethrow() local_unnamed_addr

declare void @__cxa_end_catch() local_unnamed_addr

; Function Attrs: minsize noreturn optsize
declare void @_ZSt20__throw_length_errorPKc(i8*) local_unnamed_addr #11

; Function Attrs: minsize mustprogress optsize sspstrong uwtable
define linkonce_odr dso_local %"class.std::__cxx11::basic_string"* @_ZNSt16allocator_traitsISaINSt7__cxx1112basic_stringIcSt11char_traitsIcESaIcEEEEE8allocateERS6_m(%"class.std::allocator"* nonnull align 1 dereferenceable(1) %0, i64 %1) local_unnamed_addr #10 comdat align 2 {
  %3 = bitcast %"class.std::allocator"* %0 to %"class.__gnu_cxx::new_allocator"*
  %4 = tail call %"class.std::__cxx11::basic_string"* @_ZN9__gnu_cxx13new_allocatorINSt7__cxx1112basic_stringIcSt11char_traitsIcESaIcEEEE8allocateEmPKv(%"class.__gnu_cxx::new_allocator"* nonnull align 1 dereferenceable(1) %3, i64 %1, i8* null) #21
  ret %"class.std::__cxx11::basic_string"* %4
}

; Function Attrs: minsize mustprogress optsize sspstrong uwtable
define linkonce_odr dso_local %"class.std::__cxx11::basic_string"* @_ZN9__gnu_cxx13new_allocatorINSt7__cxx1112basic_stringIcSt11char_traitsIcESaIcEEEE8allocateEmPKv(%"class.__gnu_cxx::new_allocator"* nonnull align 1 dereferenceable(1) %0, i64 %1, i8* %2) local_unnamed_addr #10 comdat align 2 {
  %4 = icmp ugt i64 %1, 288230376151711743
  br i1 %4, label %5, label %9, !prof !43

5:                                                ; preds = %3
  %6 = icmp ugt i64 %1, 576460752303423487
  br i1 %6, label %7, label %8

7:                                                ; preds = %5
  tail call void @_ZSt28__throw_bad_array_new_lengthv() #25
  unreachable

8:                                                ; preds = %5
  tail call void @_ZSt17__throw_bad_allocv() #25
  unreachable

9:                                                ; preds = %3
  %10 = shl nuw nsw i64 %1, 5
  %11 = tail call noalias nonnull i8* @_Znwm(i64 %10) #26
  %12 = bitcast i8* %11 to %"class.std::__cxx11::basic_string"*
  ret %"class.std::__cxx11::basic_string"* %12
}

; Function Attrs: minsize noreturn optsize
declare void @_ZSt28__throw_bad_array_new_lengthv() local_unnamed_addr #11

; Function Attrs: minsize noreturn optsize
declare void @_ZSt17__throw_bad_allocv() local_unnamed_addr #11

; Function Attrs: minsize nobuiltin optsize allocsize(0)
declare nonnull i8* @_Znwm(i64) local_unnamed_addr #12

; Function Attrs: inlinehint minsize mustprogress nounwind optsize sspstrong uwtable
define linkonce_odr dso_local %"class.std::__cxx11::basic_string"* @_ZSt14__relocate_a_1IPNSt7__cxx1112basic_stringIcSt11char_traitsIcESaIcEEES6_SaIS5_EET0_T_S9_S8_RT1_(%"class.std::__cxx11::basic_string"* %0, %"class.std::__cxx11::basic_string"* %1, %"class.std::__cxx11::basic_string"* %2, %"class.std::allocator"* nonnull align 1 dereferenceable(1) %3) local_unnamed_addr #13 comdat {
  br label %5

5:                                                ; preds = %9, %4
  %6 = phi %"class.std::__cxx11::basic_string"* [ %0, %4 ], [ %10, %9 ]
  %7 = phi %"class.std::__cxx11::basic_string"* [ %2, %4 ], [ %11, %9 ]
  %8 = icmp eq %"class.std::__cxx11::basic_string"* %6, %1
  br i1 %8, label %12, label %9

9:                                                ; preds = %5
  tail call void @_ZSt19__relocate_object_aINSt7__cxx1112basic_stringIcSt11char_traitsIcESaIcEEES5_SaIS5_EEvPT_PT0_RT1_(%"class.std::__cxx11::basic_string"* %7, %"class.std::__cxx11::basic_string"* %6, %"class.std::allocator"* nonnull align 1 dereferenceable(1) %3) #22
  %10 = getelementptr inbounds %"class.std::__cxx11::basic_string", %"class.std::__cxx11::basic_string"* %6, i64 1
  %11 = getelementptr inbounds %"class.std::__cxx11::basic_string", %"class.std::__cxx11::basic_string"* %7, i64 1
  br label %5, !llvm.loop !44

12:                                               ; preds = %5
  ret %"class.std::__cxx11::basic_string"* %7
}

; Function Attrs: inlinehint minsize mustprogress nounwind optsize sspstrong uwtable
define linkonce_odr dso_local void @_ZSt19__relocate_object_aINSt7__cxx1112basic_stringIcSt11char_traitsIcESaIcEEES5_SaIS5_EEvPT_PT0_RT1_(%"class.std::__cxx11::basic_string"* noalias %0, %"class.std::__cxx11::basic_string"* noalias %1, %"class.std::allocator"* nonnull align 1 dereferenceable(1) %2) local_unnamed_addr #13 comdat {
  tail call void @_ZNSt7__cxx1112basic_stringIcSt11char_traitsIcESaIcEEC2EOS4_(%"class.std::__cxx11::basic_string"* nonnull align 8 dereferenceable(32) %0, %"class.std::__cxx11::basic_string"* nonnull align 8 dereferenceable(32) %1) #22
  tail call void @_ZNSt7__cxx1112basic_stringIcSt11char_traitsIcESaIcEED2Ev(%"class.std::__cxx11::basic_string"* nonnull align 8 dereferenceable(32) %1) #22
  ret void
}

; Function Attrs: minsize nounwind optsize sspstrong uwtable
declare void @_ZNSt7__cxx1112basic_stringIcSt11char_traitsIcESaIcEEC2EOS4_(%"class.std::__cxx11::basic_string"* nonnull align 8 dereferenceable(32), %"class.std::__cxx11::basic_string"* nonnull align 8 dereferenceable(32)) unnamed_addr #6 align 2

; Function Attrs: minsize optsize sspstrong uwtable
define linkonce_odr dso_local i64 @_ZNSt6vectorIiSaIiEE17_S_check_init_lenEmRKS0_(i64 %0, %"class.std::allocator.10"* nonnull align 1 dereferenceable(1) %1) local_unnamed_addr #5 comdat align 2 {
  %3 = icmp ugt i64 %0, 2305843009213693951
  br i1 %3, label %4, label %5

4:                                                ; preds = %2
  tail call void @_ZSt20__throw_length_errorPKc(i8* getelementptr inbounds ([49 x i8], [49 x i8]* @.str.2, i64 0, i64 0)) #25
  unreachable

5:                                                ; preds = %2
  ret i64 %0
}

; Function Attrs: minsize mustprogress optsize sspstrong uwtable
define linkonce_odr dso_local void @_ZNSt6vectorIiSaIiEE18_M_fill_initializeEmRKi(%"class.std::vector.8"* nonnull align 8 dereferenceable(24) %0, i64 %1, i32* nonnull align 4 dereferenceable(4) %2) local_unnamed_addr #10 comdat align 2 {
  %4 = getelementptr inbounds %"class.std::vector.8", %"class.std::vector.8"* %0, i64 0, i32 0, i32 0, i32 0, i32 0
  %5 = load i32*, i32** %4, align 8, !tbaa !23
  %6 = tail call i32* @_ZSt10__fill_n_aIPimiET_S1_T0_RKT1_St26random_access_iterator_tag(i32* %5, i64 %1, i32* nonnull align 4 dereferenceable(4) %2) #21
  %7 = getelementptr inbounds %"class.std::vector.8", %"class.std::vector.8"* %0, i64 0, i32 0, i32 0, i32 0, i32 1
  store i32* %6, i32** %7, align 8, !tbaa !35
  ret void
}

; Function Attrs: minsize nounwind optsize sspstrong uwtable
define linkonce_odr dso_local void @_ZNSt12_Vector_baseIiSaIiEED2Ev(%"struct.std::_Vector_base.9"* nonnull align 8 dereferenceable(24) %0) unnamed_addr #6 comdat align 2 personality i8* bitcast (i32 (...)* @__gxx_personality_v0 to i8*) {
  %2 = getelementptr inbounds %"struct.std::_Vector_base.9", %"struct.std::_Vector_base.9"* %0, i64 0, i32 0, i32 0, i32 0
  %3 = load i32*, i32** %2, align 8, !tbaa !23
  %4 = icmp eq i32* %3, null
  br i1 %4, label %7, label %5

5:                                                ; preds = %1
  %6 = bitcast i32* %3 to i8*
  tail call void @_ZdlPv(i8* nonnull %6) #22
  br label %7

7:                                                ; preds = %5, %1
  ret void
}

; Function Attrs: minsize mustprogress optsize sspstrong uwtable
define linkonce_odr dso_local void @_ZNSt12_Vector_baseIiSaIiEE17_M_create_storageEm(%"struct.std::_Vector_base.9"* nonnull align 8 dereferenceable(24) %0, i64 %1) local_unnamed_addr #10 comdat align 2 {
  %3 = tail call i32* @_ZNSt12_Vector_baseIiSaIiEE11_M_allocateEm(%"struct.std::_Vector_base.9"* nonnull align 8 dereferenceable(24) %0, i64 %1) #21
  %4 = getelementptr inbounds %"struct.std::_Vector_base.9", %"struct.std::_Vector_base.9"* %0, i64 0, i32 0, i32 0, i32 0
  store i32* %3, i32** %4, align 8, !tbaa !23
  %5 = getelementptr inbounds %"struct.std::_Vector_base.9", %"struct.std::_Vector_base.9"* %0, i64 0, i32 0, i32 0, i32 1
  store i32* %3, i32** %5, align 8, !tbaa !35
  %6 = getelementptr inbounds i32, i32* %3, i64 %1
  %7 = getelementptr inbounds %"struct.std::_Vector_base.9", %"struct.std::_Vector_base.9"* %0, i64 0, i32 0, i32 0, i32 2
  store i32* %6, i32** %7, align 8, !tbaa !45
  ret void
}

; Function Attrs: minsize mustprogress optsize sspstrong uwtable
define linkonce_odr dso_local i32* @_ZNSt12_Vector_baseIiSaIiEE11_M_allocateEm(%"struct.std::_Vector_base.9"* nonnull align 8 dereferenceable(24) %0, i64 %1) local_unnamed_addr #10 comdat align 2 {
  %3 = icmp eq i64 %1, 0
  br i1 %3, label %7, label %4

4:                                                ; preds = %2
  %5 = bitcast %"struct.std::_Vector_base.9"* %0 to %"class.std::allocator.10"*
  %6 = tail call i32* @_ZNSt16allocator_traitsISaIiEE8allocateERS0_m(%"class.std::allocator.10"* nonnull align 1 dereferenceable(1) %5, i64 %1) #21
  br label %7

7:                                                ; preds = %2, %4
  %8 = phi i32* [ %6, %4 ], [ null, %2 ]
  ret i32* %8
}

; Function Attrs: minsize mustprogress optsize sspstrong uwtable
define linkonce_odr dso_local i32* @_ZNSt16allocator_traitsISaIiEE8allocateERS0_m(%"class.std::allocator.10"* nonnull align 1 dereferenceable(1) %0, i64 %1) local_unnamed_addr #10 comdat align 2 {
  %3 = bitcast %"class.std::allocator.10"* %0 to %"class.__gnu_cxx::new_allocator.11"*
  %4 = tail call i32* @_ZN9__gnu_cxx13new_allocatorIiE8allocateEmPKv(%"class.__gnu_cxx::new_allocator.11"* nonnull align 1 dereferenceable(1) %3, i64 %1, i8* null) #21
  ret i32* %4
}

; Function Attrs: minsize mustprogress optsize sspstrong uwtable
define linkonce_odr dso_local i32* @_ZN9__gnu_cxx13new_allocatorIiE8allocateEmPKv(%"class.__gnu_cxx::new_allocator.11"* nonnull align 1 dereferenceable(1) %0, i64 %1, i8* %2) local_unnamed_addr #10 comdat align 2 {
  %4 = icmp ugt i64 %1, 2305843009213693951
  br i1 %4, label %5, label %9, !prof !43

5:                                                ; preds = %3
  %6 = icmp ugt i64 %1, 4611686018427387903
  br i1 %6, label %7, label %8

7:                                                ; preds = %5
  tail call void @_ZSt28__throw_bad_array_new_lengthv() #25
  unreachable

8:                                                ; preds = %5
  tail call void @_ZSt17__throw_bad_allocv() #25
  unreachable

9:                                                ; preds = %3
  %10 = shl nuw nsw i64 %1, 2
  %11 = tail call noalias nonnull i8* @_Znwm(i64 %10) #26
  %12 = bitcast i8* %11 to i32*
  ret i32* %12
}

; Function Attrs: inlinehint minsize mustprogress optsize sspstrong uwtable
define linkonce_odr dso_local i32* @_ZSt10__fill_n_aIPimiET_S1_T0_RKT1_St26random_access_iterator_tag(i32* %0, i64 %1, i32* nonnull align 4 dereferenceable(4) %2) local_unnamed_addr #7 comdat {
  %4 = icmp eq i64 %1, 0
  br i1 %4, label %13, label %5

5:                                                ; preds = %3
  %6 = getelementptr inbounds i32, i32* %0, i64 %1
  %7 = load i32, i32* %2, align 4, !tbaa !5
  br label %8

8:                                                ; preds = %11, %5
  %9 = phi i32* [ %0, %5 ], [ %12, %11 ]
  %10 = icmp eq i32* %9, %6
  br i1 %10, label %13, label %11

11:                                               ; preds = %8
  store i32 %7, i32* %9, align 4, !tbaa !5
  %12 = getelementptr inbounds i32, i32* %9, i64 1
  br label %8, !llvm.loop !46

13:                                               ; preds = %8, %3
  %14 = phi i32* [ %0, %3 ], [ %6, %8 ]
  ret i32* %14
}

; Function Attrs: minsize optsize sspstrong uwtable
define linkonce_odr dso_local i64 @_ZNSt6vectorIS_IiSaIiEESaIS1_EE17_S_check_init_lenEmRKS2_(i64 %0, %"class.std::allocator.5"* nonnull align 1 dereferenceable(1) %1) local_unnamed_addr #5 comdat align 2 {
  %3 = icmp ugt i64 %0, 384307168202282325
  br i1 %3, label %4, label %5

4:                                                ; preds = %2
  tail call void @_ZSt20__throw_length_errorPKc(i8* getelementptr inbounds ([49 x i8], [49 x i8]* @.str.2, i64 0, i64 0)) #25
  unreachable

5:                                                ; preds = %2
  ret i64 %0
}

; Function Attrs: minsize mustprogress optsize sspstrong uwtable
define linkonce_odr dso_local void @_ZNSt6vectorIS_IiSaIiEESaIS1_EE18_M_fill_initializeEmRKS1_(%"class.std::vector.3"* nonnull align 8 dereferenceable(24) %0, i64 %1, %"class.std::vector.8"* nonnull align 8 dereferenceable(24) %2) local_unnamed_addr #10 comdat align 2 {
  %4 = getelementptr inbounds %"class.std::vector.3", %"class.std::vector.3"* %0, i64 0, i32 0, i32 0, i32 0, i32 0
  %5 = load %"class.std::vector.8"*, %"class.std::vector.8"** %4, align 8, !tbaa !21
  %6 = tail call %"class.std::vector.8"* @_ZNSt22__uninitialized_fill_nILb0EE15__uninit_fill_nIPSt6vectorIiSaIiEEmS4_EET_S6_T0_RKT1_(%"class.std::vector.8"* %5, i64 %1, %"class.std::vector.8"* nonnull align 8 dereferenceable(24) %2) #21
  %7 = getelementptr inbounds %"class.std::vector.3", %"class.std::vector.3"* %0, i64 0, i32 0, i32 0, i32 0, i32 1
  store %"class.std::vector.8"* %6, %"class.std::vector.8"** %7, align 8, !tbaa !41
  ret void
}

; Function Attrs: minsize nounwind optsize sspstrong uwtable
define linkonce_odr dso_local void @_ZNSt12_Vector_baseISt6vectorIiSaIiEESaIS2_EED2Ev(%"struct.std::_Vector_base.4"* nonnull align 8 dereferenceable(24) %0) unnamed_addr #6 comdat align 2 personality i8* bitcast (i32 (...)* @__gxx_personality_v0 to i8*) {
  %2 = getelementptr inbounds %"struct.std::_Vector_base.4", %"struct.std::_Vector_base.4"* %0, i64 0, i32 0, i32 0, i32 0
  %3 = load %"class.std::vector.8"*, %"class.std::vector.8"** %2, align 8, !tbaa !21
  %4 = icmp eq %"class.std::vector.8"* %3, null
  br i1 %4, label %7, label %5

5:                                                ; preds = %1
  %6 = bitcast %"class.std::vector.8"* %3 to i8*
  tail call void @_ZdlPv(i8* nonnull %6) #22
  br label %7

7:                                                ; preds = %5, %1
  ret void
}

; Function Attrs: minsize mustprogress optsize sspstrong uwtable
define linkonce_odr dso_local void @_ZNSt12_Vector_baseISt6vectorIiSaIiEESaIS2_EE17_M_create_storageEm(%"struct.std::_Vector_base.4"* nonnull align 8 dereferenceable(24) %0, i64 %1) local_unnamed_addr #10 comdat align 2 {
  %3 = tail call %"class.std::vector.8"* @_ZNSt12_Vector_baseISt6vectorIiSaIiEESaIS2_EE11_M_allocateEm(%"struct.std::_Vector_base.4"* nonnull align 8 dereferenceable(24) %0, i64 %1) #21
  %4 = getelementptr inbounds %"struct.std::_Vector_base.4", %"struct.std::_Vector_base.4"* %0, i64 0, i32 0, i32 0, i32 0
  store %"class.std::vector.8"* %3, %"class.std::vector.8"** %4, align 8, !tbaa !21
  %5 = getelementptr inbounds %"struct.std::_Vector_base.4", %"struct.std::_Vector_base.4"* %0, i64 0, i32 0, i32 0, i32 1
  store %"class.std::vector.8"* %3, %"class.std::vector.8"** %5, align 8, !tbaa !41
  %6 = getelementptr inbounds %"class.std::vector.8", %"class.std::vector.8"* %3, i64 %1
  %7 = getelementptr inbounds %"struct.std::_Vector_base.4", %"struct.std::_Vector_base.4"* %0, i64 0, i32 0, i32 0, i32 2
  store %"class.std::vector.8"* %6, %"class.std::vector.8"** %7, align 8, !tbaa !47
  ret void
}

; Function Attrs: minsize mustprogress optsize sspstrong uwtable
define linkonce_odr dso_local %"class.std::vector.8"* @_ZNSt12_Vector_baseISt6vectorIiSaIiEESaIS2_EE11_M_allocateEm(%"struct.std::_Vector_base.4"* nonnull align 8 dereferenceable(24) %0, i64 %1) local_unnamed_addr #10 comdat align 2 {
  %3 = icmp eq i64 %1, 0
  br i1 %3, label %7, label %4

4:                                                ; preds = %2
  %5 = bitcast %"struct.std::_Vector_base.4"* %0 to %"class.std::allocator.5"*
  %6 = tail call %"class.std::vector.8"* @_ZNSt16allocator_traitsISaISt6vectorIiSaIiEEEE8allocateERS3_m(%"class.std::allocator.5"* nonnull align 1 dereferenceable(1) %5, i64 %1) #21
  br label %7

7:                                                ; preds = %2, %4
  %8 = phi %"class.std::vector.8"* [ %6, %4 ], [ null, %2 ]
  ret %"class.std::vector.8"* %8
}

; Function Attrs: minsize mustprogress optsize sspstrong uwtable
define linkonce_odr dso_local %"class.std::vector.8"* @_ZNSt16allocator_traitsISaISt6vectorIiSaIiEEEE8allocateERS3_m(%"class.std::allocator.5"* nonnull align 1 dereferenceable(1) %0, i64 %1) local_unnamed_addr #10 comdat align 2 {
  %3 = bitcast %"class.std::allocator.5"* %0 to %"class.__gnu_cxx::new_allocator.6"*
  %4 = tail call %"class.std::vector.8"* @_ZN9__gnu_cxx13new_allocatorISt6vectorIiSaIiEEE8allocateEmPKv(%"class.__gnu_cxx::new_allocator.6"* nonnull align 1 dereferenceable(1) %3, i64 %1, i8* null) #21
  ret %"class.std::vector.8"* %4
}

; Function Attrs: minsize mustprogress optsize sspstrong uwtable
define linkonce_odr dso_local %"class.std::vector.8"* @_ZN9__gnu_cxx13new_allocatorISt6vectorIiSaIiEEE8allocateEmPKv(%"class.__gnu_cxx::new_allocator.6"* nonnull align 1 dereferenceable(1) %0, i64 %1, i8* %2) local_unnamed_addr #10 comdat align 2 {
  %4 = icmp ugt i64 %1, 384307168202282325
  br i1 %4, label %5, label %9, !prof !43

5:                                                ; preds = %3
  %6 = icmp ugt i64 %1, 768614336404564650
  br i1 %6, label %7, label %8

7:                                                ; preds = %5
  tail call void @_ZSt28__throw_bad_array_new_lengthv() #25
  unreachable

8:                                                ; preds = %5
  tail call void @_ZSt17__throw_bad_allocv() #25
  unreachable

9:                                                ; preds = %3
  %10 = mul nuw nsw i64 %1, 24
  %11 = tail call noalias nonnull i8* @_Znwm(i64 %10) #26
  %12 = bitcast i8* %11 to %"class.std::vector.8"*
  ret %"class.std::vector.8"* %12
}

; Function Attrs: minsize mustprogress optsize sspstrong uwtable
define linkonce_odr dso_local %"class.std::vector.8"* @_ZNSt22__uninitialized_fill_nILb0EE15__uninit_fill_nIPSt6vectorIiSaIiEEmS4_EET_S6_T0_RKT1_(%"class.std::vector.8"* %0, i64 %1, %"class.std::vector.8"* nonnull align 8 dereferenceable(24) %2) local_unnamed_addr #10 comdat align 2 personality i8* bitcast (i32 (...)* @__gxx_personality_v0 to i8*) {
  br label %4

4:                                                ; preds = %9, %3
  %5 = phi i64 [ %1, %3 ], [ %10, %9 ]
  %6 = phi %"class.std::vector.8"* [ %0, %3 ], [ %11, %9 ]
  %7 = icmp eq i64 %5, 0
  br i1 %7, label %17, label %8

8:                                                ; preds = %4
  invoke void @_ZNSt6vectorIiSaIiEEC2ERKS1_(%"class.std::vector.8"* nonnull align 8 dereferenceable(24) %6, %"class.std::vector.8"* nonnull align 8 dereferenceable(24) %2) #21
          to label %9 unwind label %12

9:                                                ; preds = %8
  %10 = add i64 %5, -1
  %11 = getelementptr inbounds %"class.std::vector.8", %"class.std::vector.8"* %6, i64 1
  br label %4, !llvm.loop !48

12:                                               ; preds = %8
  %13 = landingpad { i8*, i32 }
          catch i8* null
  %14 = extractvalue { i8*, i32 } %13, 0
  %15 = tail call i8* @__cxa_begin_catch(i8* %14) #20
  invoke void @_ZNSt12_Destroy_auxILb0EE9__destroyIPSt6vectorIiSaIiEEEEvT_S6_(%"class.std::vector.8"* %0, %"class.std::vector.8"* %6) #21
          to label %16 unwind label %18

16:                                               ; preds = %12
  invoke void @__cxa_rethrow() #24
          to label %24 unwind label %18

17:                                               ; preds = %4
  ret %"class.std::vector.8"* %6

18:                                               ; preds = %12, %16
  %19 = landingpad { i8*, i32 }
          cleanup
  invoke void @__cxa_end_catch()
          to label %20 unwind label %21

20:                                               ; preds = %18
  resume { i8*, i32 } %19

21:                                               ; preds = %18
  %22 = landingpad { i8*, i32 }
          catch i8* null
  %23 = extractvalue { i8*, i32 } %22, 0
  tail call void @__clang_call_terminate(i8* %23) #23
  unreachable

24:                                               ; preds = %16
  unreachable
}

; Function Attrs: minsize optsize sspstrong uwtable
define linkonce_odr dso_local void @_ZNSt12_Destroy_auxILb0EE9__destroyIPSt6vectorIiSaIiEEEEvT_S6_(%"class.std::vector.8"* %0, %"class.std::vector.8"* %1) local_unnamed_addr #5 comdat align 2 personality i32 (...)* @__gxx_personality_v0 {
  br label %3

3:                                                ; preds = %6, %2
  %4 = phi %"class.std::vector.8"* [ %0, %2 ], [ %8, %6 ]
  %5 = icmp eq %"class.std::vector.8"* %4, %1
  br i1 %5, label %9, label %6

6:                                                ; preds = %3
  %7 = getelementptr inbounds %"class.std::vector.8", %"class.std::vector.8"* %4, i64 0, i32 0
  tail call void @_ZNSt12_Vector_baseIiSaIiEED2Ev(%"struct.std::_Vector_base.9"* nonnull align 8 dereferenceable(24) %7) #22
  %8 = getelementptr inbounds %"class.std::vector.8", %"class.std::vector.8"* %4, i64 1
  br label %3, !llvm.loop !49

9:                                                ; preds = %3
  ret void
}

; Function Attrs: minsize nounwind optsize sspstrong uwtable
define linkonce_odr dso_local void @_ZNSt12_Vector_baseISt4pairIiiESaIS1_EED2Ev(%"struct.std::_Vector_base.14"* nonnull align 8 dereferenceable(24) %0) unnamed_addr #6 comdat align 2 personality i8* bitcast (i32 (...)* @__gxx_personality_v0 to i8*) {
  %2 = getelementptr inbounds %"struct.std::_Vector_base.14", %"struct.std::_Vector_base.14"* %0, i64 0, i32 0, i32 0, i32 0
  %3 = load %"struct.std::pair"*, %"struct.std::pair"** %2, align 8, !tbaa !27
  %4 = icmp eq %"struct.std::pair"* %3, null
  br i1 %4, label %7, label %5

5:                                                ; preds = %1
  %6 = bitcast %"struct.std::pair"* %3 to i8*
  tail call void @_ZdlPv(i8* nonnull %6) #22
  br label %7

7:                                                ; preds = %5, %1
  ret void
}

; Function Attrs: minsize optsize sspstrong uwtable
define linkonce_odr dso_local void @_ZNSt6vectorISt4pairIiiESaIS1_EE12emplace_backIJS1_EEEvDpOT_(%"class.std::vector.13"* nonnull align 8 dereferenceable(24) %0, %"struct.std::pair"* nonnull align 4 dereferenceable(8) %1) local_unnamed_addr #5 comdat align 2 {
  %3 = getelementptr inbounds %"class.std::vector.13", %"class.std::vector.13"* %0, i64 0, i32 0, i32 0, i32 0, i32 1
  %4 = load %"struct.std::pair"*, %"struct.std::pair"** %3, align 8, !tbaa !25
  %5 = getelementptr inbounds %"class.std::vector.13", %"class.std::vector.13"* %0, i64 0, i32 0, i32 0, i32 0, i32 2
  %6 = load %"struct.std::pair"*, %"struct.std::pair"** %5, align 8, !tbaa !36
  %7 = icmp eq %"struct.std::pair"* %4, %6
  br i1 %7, label %14, label %8

8:                                                ; preds = %2
  %9 = bitcast %"struct.std::pair"* %1 to i64*
  %10 = bitcast %"struct.std::pair"* %4 to i64*
  %11 = load i64, i64* %9, align 4
  store i64 %11, i64* %10, align 4
  %12 = load %"struct.std::pair"*, %"struct.std::pair"** %3, align 8, !tbaa !25
  %13 = getelementptr inbounds %"struct.std::pair", %"struct.std::pair"* %12, i64 1
  store %"struct.std::pair"* %13, %"struct.std::pair"** %3, align 8, !tbaa !25
  br label %15

14:                                               ; preds = %2
  tail call void @_ZNSt6vectorISt4pairIiiESaIS1_EE17_M_realloc_insertIJS1_EEEvN9__gnu_cxx17__normal_iteratorIPS1_S3_EEDpOT_(%"class.std::vector.13"* nonnull align 8 dereferenceable(24) %0, %"struct.std::pair"* %4, %"struct.std::pair"* nonnull align 4 dereferenceable(8) %1) #21
  br label %15

15:                                               ; preds = %14, %8
  ret void
}

; Function Attrs: minsize optsize sspstrong uwtable
define linkonce_odr dso_local void @_ZNSt6vectorISt4pairIiiESaIS1_EE17_M_realloc_insertIJS1_EEEvN9__gnu_cxx17__normal_iteratorIPS1_S3_EEDpOT_(%"class.std::vector.13"* nonnull align 8 dereferenceable(24) %0, %"struct.std::pair"* %1, %"struct.std::pair"* nonnull align 4 dereferenceable(8) %2) local_unnamed_addr #5 comdat align 2 {
  %4 = tail call i64 @_ZNKSt6vectorISt4pairIiiESaIS1_EE12_M_check_lenEmPKc(%"class.std::vector.13"* nonnull align 8 dereferenceable(24) %0, i64 1, i8* getelementptr inbounds ([26 x i8], [26 x i8]* @.str.1, i64 0, i64 0)) #21
  %5 = getelementptr inbounds %"class.std::vector.13", %"class.std::vector.13"* %0, i64 0, i32 0
  %6 = getelementptr inbounds %"class.std::vector.13", %"class.std::vector.13"* %0, i64 0, i32 0, i32 0, i32 0, i32 0
  %7 = load %"struct.std::pair"*, %"struct.std::pair"** %6, align 8, !tbaa !27
  %8 = getelementptr inbounds %"class.std::vector.13", %"class.std::vector.13"* %0, i64 0, i32 0, i32 0, i32 0, i32 1
  %9 = load %"struct.std::pair"*, %"struct.std::pair"** %8, align 8, !tbaa !25
  %10 = ptrtoint %"struct.std::pair"* %1 to i64
  %11 = ptrtoint %"struct.std::pair"* %7 to i64
  %12 = sub i64 %10, %11
  %13 = ashr exact i64 %12, 3
  %14 = tail call %"struct.std::pair"* @_ZNSt12_Vector_baseISt4pairIiiESaIS1_EE11_M_allocateEm(%"struct.std::_Vector_base.14"* nonnull align 8 dereferenceable(24) %5, i64 %4) #21
  %15 = getelementptr inbounds %"struct.std::pair", %"struct.std::pair"* %14, i64 %13
  %16 = bitcast %"struct.std::pair"* %2 to i64*
  %17 = bitcast %"struct.std::pair"* %15 to i64*
  %18 = load i64, i64* %16, align 4
  store i64 %18, i64* %17, align 4
  br label %19

19:                                               ; preds = %23, %3
  %20 = phi %"struct.std::pair"* [ %7, %3 ], [ %27, %23 ]
  %21 = phi %"struct.std::pair"* [ %14, %3 ], [ %28, %23 ]
  %22 = icmp eq %"struct.std::pair"* %20, %1
  br i1 %22, label %29, label %23

23:                                               ; preds = %19
  tail call void @llvm.experimental.noalias.scope.decl(metadata !50) #20
  tail call void @llvm.experimental.noalias.scope.decl(metadata !53) #20
  %24 = bitcast %"struct.std::pair"* %20 to i64*
  %25 = bitcast %"struct.std::pair"* %21 to i64*
  %26 = load i64, i64* %24, align 4, !alias.scope !53, !noalias !50
  store i64 %26, i64* %25, align 4, !alias.scope !50, !noalias !53
  %27 = getelementptr inbounds %"struct.std::pair", %"struct.std::pair"* %20, i64 1
  %28 = getelementptr inbounds %"struct.std::pair", %"struct.std::pair"* %21, i64 1
  br label %19, !llvm.loop !55

29:                                               ; preds = %19, %34
  %30 = phi %"struct.std::pair"* [ %38, %34 ], [ %1, %19 ]
  %31 = phi %"struct.std::pair"* [ %32, %34 ], [ %21, %19 ]
  %32 = getelementptr inbounds %"struct.std::pair", %"struct.std::pair"* %31, i64 1
  %33 = icmp eq %"struct.std::pair"* %30, %9
  br i1 %33, label %39, label %34

34:                                               ; preds = %29
  tail call void @llvm.experimental.noalias.scope.decl(metadata !56) #20
  tail call void @llvm.experimental.noalias.scope.decl(metadata !59) #20
  %35 = bitcast %"struct.std::pair"* %30 to i64*
  %36 = bitcast %"struct.std::pair"* %32 to i64*
  %37 = load i64, i64* %35, align 4, !alias.scope !59, !noalias !56
  store i64 %37, i64* %36, align 4, !alias.scope !56, !noalias !59
  %38 = getelementptr inbounds %"struct.std::pair", %"struct.std::pair"* %30, i64 1
  br label %29, !llvm.loop !55

39:                                               ; preds = %29
  %40 = icmp eq %"struct.std::pair"* %7, null
  br i1 %40, label %43, label %41

41:                                               ; preds = %39
  %42 = bitcast %"struct.std::pair"* %7 to i8*
  tail call void @_ZdlPv(i8* nonnull %42) #22
  br label %43

43:                                               ; preds = %39, %41
  %44 = getelementptr inbounds %"class.std::vector.13", %"class.std::vector.13"* %0, i64 0, i32 0, i32 0, i32 0, i32 2
  store %"struct.std::pair"* %14, %"struct.std::pair"** %6, align 8, !tbaa !27
  store %"struct.std::pair"* %32, %"struct.std::pair"** %8, align 8, !tbaa !25
  %45 = getelementptr inbounds %"struct.std::pair", %"struct.std::pair"* %14, i64 %4
  store %"struct.std::pair"* %45, %"struct.std::pair"** %44, align 8, !tbaa !36
  ret void
}

; Function Attrs: minsize mustprogress optsize sspstrong uwtable
define linkonce_odr dso_local i64 @_ZNKSt6vectorISt4pairIiiESaIS1_EE12_M_check_lenEmPKc(%"class.std::vector.13"* nonnull align 8 dereferenceable(24) %0, i64 %1, i8* %2) local_unnamed_addr #10 comdat align 2 {
  %4 = getelementptr inbounds %"class.std::vector.13", %"class.std::vector.13"* %0, i64 0, i32 0, i32 0, i32 0, i32 1
  %5 = load %"struct.std::pair"*, %"struct.std::pair"** %4, align 8, !tbaa !25
  %6 = getelementptr inbounds %"class.std::vector.13", %"class.std::vector.13"* %0, i64 0, i32 0, i32 0, i32 0, i32 0
  %7 = load %"struct.std::pair"*, %"struct.std::pair"** %6, align 8, !tbaa !27
  %8 = ptrtoint %"struct.std::pair"* %5 to i64
  %9 = ptrtoint %"struct.std::pair"* %7 to i64
  %10 = sub i64 %8, %9
  %11 = ashr exact i64 %10, 3
  %12 = sub nsw i64 1152921504606846975, %11
  %13 = icmp ult i64 %12, %1
  br i1 %13, label %14, label %15

14:                                               ; preds = %3
  tail call void @_ZSt20__throw_length_errorPKc(i8* %2) #25
  unreachable

15:                                               ; preds = %3
  %16 = icmp ult i64 %11, %1
  %17 = select i1 %16, i64 %1, i64 %11
  %18 = add i64 %17, %11
  %19 = icmp ult i64 %18, %11
  %20 = icmp ugt i64 %18, 1152921504606846975
  %21 = or i1 %19, %20
  %22 = select i1 %21, i64 1152921504606846975, i64 %18
  ret i64 %22
}

; Function Attrs: minsize mustprogress optsize sspstrong uwtable
define linkonce_odr dso_local %"struct.std::pair"* @_ZNSt12_Vector_baseISt4pairIiiESaIS1_EE11_M_allocateEm(%"struct.std::_Vector_base.14"* nonnull align 8 dereferenceable(24) %0, i64 %1) local_unnamed_addr #10 comdat align 2 {
  %3 = icmp eq i64 %1, 0
  br i1 %3, label %7, label %4

4:                                                ; preds = %2
  %5 = bitcast %"struct.std::_Vector_base.14"* %0 to %"class.std::allocator.15"*
  %6 = tail call %"struct.std::pair"* @_ZNSt16allocator_traitsISaISt4pairIiiEEE8allocateERS2_m(%"class.std::allocator.15"* nonnull align 1 dereferenceable(1) %5, i64 %1) #21
  br label %7

7:                                                ; preds = %2, %4
  %8 = phi %"struct.std::pair"* [ %6, %4 ], [ null, %2 ]
  ret %"struct.std::pair"* %8
}

; Function Attrs: minsize mustprogress optsize sspstrong uwtable
define linkonce_odr dso_local %"struct.std::pair"* @_ZNSt16allocator_traitsISaISt4pairIiiEEE8allocateERS2_m(%"class.std::allocator.15"* nonnull align 1 dereferenceable(1) %0, i64 %1) local_unnamed_addr #10 comdat align 2 {
  %3 = bitcast %"class.std::allocator.15"* %0 to %"class.__gnu_cxx::new_allocator.16"*
  %4 = tail call %"struct.std::pair"* @_ZN9__gnu_cxx13new_allocatorISt4pairIiiEE8allocateEmPKv(%"class.__gnu_cxx::new_allocator.16"* nonnull align 1 dereferenceable(1) %3, i64 %1, i8* null) #21
  ret %"struct.std::pair"* %4
}

; Function Attrs: minsize mustprogress optsize sspstrong uwtable
define linkonce_odr dso_local %"struct.std::pair"* @_ZN9__gnu_cxx13new_allocatorISt4pairIiiEE8allocateEmPKv(%"class.__gnu_cxx::new_allocator.16"* nonnull align 1 dereferenceable(1) %0, i64 %1, i8* %2) local_unnamed_addr #10 comdat align 2 {
  %4 = icmp ugt i64 %1, 1152921504606846975
  br i1 %4, label %5, label %9, !prof !43

5:                                                ; preds = %3
  %6 = icmp ugt i64 %1, 2305843009213693951
  br i1 %6, label %7, label %8

7:                                                ; preds = %5
  tail call void @_ZSt28__throw_bad_array_new_lengthv() #25
  unreachable

8:                                                ; preds = %5
  tail call void @_ZSt17__throw_bad_allocv() #25
  unreachable

9:                                                ; preds = %3
  %10 = shl nuw nsw i64 %1, 3
  %11 = tail call noalias nonnull i8* @_Znwm(i64 %10) #26
  %12 = bitcast i8* %11 to %"struct.std::pair"*
  ret %"struct.std::pair"* %12
}

; Function Attrs: minsize mustprogress optsize sspstrong uwtable
define linkonce_odr dso_local void @_ZNSt6vectorIiSaIiEE19_M_range_initializeIPKiEEvT_S5_St20forward_iterator_tag(%"class.std::vector.8"* nonnull align 8 dereferenceable(24) %0, i32* %1, i32* %2) local_unnamed_addr #10 comdat align 2 {
  %4 = ptrtoint i32* %2 to i64
  %5 = ptrtoint i32* %1 to i64
  %6 = sub i64 %4, %5
  %7 = ashr exact i64 %6, 2
  %8 = getelementptr inbounds %"class.std::vector.8", %"class.std::vector.8"* %0, i64 0, i32 0
  %9 = bitcast %"class.std::vector.8"* %0 to %"class.std::allocator.10"*
  %10 = tail call i64 @_ZNSt6vectorIiSaIiEE17_S_check_init_lenEmRKS0_(i64 %7, %"class.std::allocator.10"* nonnull align 1 dereferenceable(1) %9) #21
  %11 = tail call i32* @_ZNSt12_Vector_baseIiSaIiEE11_M_allocateEm(%"struct.std::_Vector_base.9"* nonnull align 8 dereferenceable(24) %8, i64 %10) #21
  %12 = getelementptr inbounds %"class.std::vector.8", %"class.std::vector.8"* %0, i64 0, i32 0, i32 0, i32 0, i32 0
  store i32* %11, i32** %12, align 8, !tbaa !23
  %13 = getelementptr inbounds i32, i32* %11, i64 %7
  %14 = getelementptr inbounds %"class.std::vector.8", %"class.std::vector.8"* %0, i64 0, i32 0, i32 0, i32 0, i32 2
  store i32* %13, i32** %14, align 8, !tbaa !45
  %15 = icmp eq i64 %6, 0
  br i1 %15, label %19, label %16

16:                                               ; preds = %3
  %17 = bitcast i32* %11 to i8*
  %18 = bitcast i32* %1 to i8*
  tail call void @llvm.memmove.p0i8.p0i8.i64(i8* align 4 %17, i8* align 4 %18, i64 %6, i1 false) #20
  br label %19

19:                                               ; preds = %3, %16
  %20 = getelementptr inbounds %"class.std::vector.8", %"class.std::vector.8"* %0, i64 0, i32 0, i32 0, i32 0, i32 1
  store i32* %13, i32** %20, align 8, !tbaa !35
  ret void
}

; Function Attrs: argmemonly mustprogress nofree nounwind willreturn
declare void @llvm.memmove.p0i8.p0i8.i64(i8* nocapture writeonly, i8* nocapture readonly, i64, i1 immarg) #14

; Function Attrs: minsize mustprogress optsize sspstrong uwtable
define linkonce_odr dso_local void @_ZNSt6vectorIS_IiSaIiEESaIS1_EE19_M_range_initializeIPKS1_EEvT_S7_St20forward_iterator_tag(%"class.std::vector.3"* nonnull align 8 dereferenceable(24) %0, %"class.std::vector.8"* %1, %"class.std::vector.8"* %2) local_unnamed_addr #10 comdat align 2 {
  %4 = ptrtoint %"class.std::vector.8"* %2 to i64
  %5 = ptrtoint %"class.std::vector.8"* %1 to i64
  %6 = sub i64 %4, %5
  %7 = sdiv exact i64 %6, 24
  %8 = getelementptr inbounds %"class.std::vector.3", %"class.std::vector.3"* %0, i64 0, i32 0
  %9 = bitcast %"class.std::vector.3"* %0 to %"class.std::allocator.5"*
  %10 = tail call i64 @_ZNSt6vectorIS_IiSaIiEESaIS1_EE17_S_check_init_lenEmRKS2_(i64 %7, %"class.std::allocator.5"* nonnull align 1 dereferenceable(1) %9) #21
  %11 = tail call %"class.std::vector.8"* @_ZNSt12_Vector_baseISt6vectorIiSaIiEESaIS2_EE11_M_allocateEm(%"struct.std::_Vector_base.4"* nonnull align 8 dereferenceable(24) %8, i64 %10) #21
  %12 = getelementptr inbounds %"class.std::vector.3", %"class.std::vector.3"* %0, i64 0, i32 0, i32 0, i32 0, i32 0
  store %"class.std::vector.8"* %11, %"class.std::vector.8"** %12, align 8, !tbaa !21
  %13 = getelementptr inbounds %"class.std::vector.8", %"class.std::vector.8"* %11, i64 %7
  %14 = getelementptr inbounds %"class.std::vector.3", %"class.std::vector.3"* %0, i64 0, i32 0, i32 0, i32 0, i32 2
  store %"class.std::vector.8"* %13, %"class.std::vector.8"** %14, align 8, !tbaa !47
  %15 = tail call %"class.std::vector.8"* @_ZNSt20__uninitialized_copyILb0EE13__uninit_copyIPKSt6vectorIiSaIiEEPS4_EET0_T_S9_S8_(%"class.std::vector.8"* %1, %"class.std::vector.8"* %2, %"class.std::vector.8"* %11) #21
  %16 = getelementptr inbounds %"class.std::vector.3", %"class.std::vector.3"* %0, i64 0, i32 0, i32 0, i32 0, i32 1
  store %"class.std::vector.8"* %15, %"class.std::vector.8"** %16, align 8, !tbaa !41
  ret void
}

; Function Attrs: minsize mustprogress optsize sspstrong uwtable
define linkonce_odr dso_local %"class.std::vector.8"* @_ZNSt20__uninitialized_copyILb0EE13__uninit_copyIPKSt6vectorIiSaIiEEPS4_EET0_T_S9_S8_(%"class.std::vector.8"* %0, %"class.std::vector.8"* %1, %"class.std::vector.8"* %2) local_unnamed_addr #10 comdat align 2 personality i8* bitcast (i32 (...)* @__gxx_personality_v0 to i8*) {
  br label %4

4:                                                ; preds = %9, %3
  %5 = phi %"class.std::vector.8"* [ %0, %3 ], [ %10, %9 ]
  %6 = phi %"class.std::vector.8"* [ %2, %3 ], [ %11, %9 ]
  %7 = icmp eq %"class.std::vector.8"* %5, %1
  br i1 %7, label %17, label %8

8:                                                ; preds = %4
  invoke void @_ZNSt6vectorIiSaIiEEC2ERKS1_(%"class.std::vector.8"* nonnull align 8 dereferenceable(24) %6, %"class.std::vector.8"* nonnull align 8 dereferenceable(24) %5) #21
          to label %9 unwind label %12

9:                                                ; preds = %8
  %10 = getelementptr inbounds %"class.std::vector.8", %"class.std::vector.8"* %5, i64 1
  %11 = getelementptr inbounds %"class.std::vector.8", %"class.std::vector.8"* %6, i64 1
  br label %4, !llvm.loop !61

12:                                               ; preds = %8
  %13 = landingpad { i8*, i32 }
          catch i8* null
  %14 = extractvalue { i8*, i32 } %13, 0
  %15 = tail call i8* @__cxa_begin_catch(i8* %14) #20
  invoke void @_ZNSt12_Destroy_auxILb0EE9__destroyIPSt6vectorIiSaIiEEEEvT_S6_(%"class.std::vector.8"* %2, %"class.std::vector.8"* %6) #21
          to label %16 unwind label %18

16:                                               ; preds = %12
  invoke void @__cxa_rethrow() #24
          to label %24 unwind label %18

17:                                               ; preds = %4
  ret %"class.std::vector.8"* %6

18:                                               ; preds = %12, %16
  %19 = landingpad { i8*, i32 }
          cleanup
  invoke void @__cxa_end_catch()
          to label %20 unwind label %21

20:                                               ; preds = %18
  resume { i8*, i32 } %19

21:                                               ; preds = %18
  %22 = landingpad { i8*, i32 }
          catch i8* null
  %23 = extractvalue { i8*, i32 } %22, 0
  tail call void @__clang_call_terminate(i8* %23) #23
  unreachable

24:                                               ; preds = %16
  unreachable
}

; Function Attrs: minsize optsize sspstrong uwtable
define linkonce_odr dso_local void @_ZNSt6vectorISt4pairIiiESaIS1_EE17_M_realloc_insertIJRiS5_EEEvN9__gnu_cxx17__normal_iteratorIPS1_S3_EEDpOT_(%"class.std::vector.13"* nonnull align 8 dereferenceable(24) %0, %"struct.std::pair"* %1, i32* nonnull align 4 dereferenceable(4) %2, i32* nonnull align 4 dereferenceable(4) %3) local_unnamed_addr #5 comdat align 2 personality i8* bitcast (i32 (...)* @__gxx_personality_v0 to i8*) {
  %5 = tail call i64 @_ZNKSt6vectorISt4pairIiiESaIS1_EE12_M_check_lenEmPKc(%"class.std::vector.13"* nonnull align 8 dereferenceable(24) %0, i64 1, i8* getelementptr inbounds ([26 x i8], [26 x i8]* @.str.1, i64 0, i64 0)) #21
  %6 = getelementptr inbounds %"class.std::vector.13", %"class.std::vector.13"* %0, i64 0, i32 0
  %7 = getelementptr inbounds %"class.std::vector.13", %"class.std::vector.13"* %0, i64 0, i32 0, i32 0, i32 0, i32 0
  %8 = load %"struct.std::pair"*, %"struct.std::pair"** %7, align 8, !tbaa !27
  %9 = getelementptr inbounds %"class.std::vector.13", %"class.std::vector.13"* %0, i64 0, i32 0, i32 0, i32 0, i32 1
  %10 = load %"struct.std::pair"*, %"struct.std::pair"** %9, align 8, !tbaa !25
  %11 = ptrtoint %"struct.std::pair"* %1 to i64
  %12 = ptrtoint %"struct.std::pair"* %8 to i64
  %13 = sub i64 %11, %12
  %14 = ashr exact i64 %13, 3
  %15 = tail call %"struct.std::pair"* @_ZNSt12_Vector_baseISt4pairIiiESaIS1_EE11_M_allocateEm(%"struct.std::_Vector_base.14"* nonnull align 8 dereferenceable(24) %6, i64 %5) #21
  %16 = getelementptr inbounds %"struct.std::pair", %"struct.std::pair"* %15, i64 %14, i32 0
  %17 = load i32, i32* %2, align 4, !tbaa !5
  store i32 %17, i32* %16, align 4, !tbaa !37
  %18 = getelementptr inbounds %"struct.std::pair", %"struct.std::pair"* %15, i64 %14, i32 1
  %19 = load i32, i32* %3, align 4, !tbaa !5
  store i32 %19, i32* %18, align 4, !tbaa !39
  br label %20

20:                                               ; preds = %24, %4
  %21 = phi %"struct.std::pair"* [ %8, %4 ], [ %28, %24 ]
  %22 = phi %"struct.std::pair"* [ %15, %4 ], [ %29, %24 ]
  %23 = icmp eq %"struct.std::pair"* %21, %1
  br i1 %23, label %30, label %24

24:                                               ; preds = %20
  tail call void @llvm.experimental.noalias.scope.decl(metadata !62) #20
  tail call void @llvm.experimental.noalias.scope.decl(metadata !65) #20
  %25 = bitcast %"struct.std::pair"* %21 to i64*
  %26 = bitcast %"struct.std::pair"* %22 to i64*
  %27 = load i64, i64* %25, align 4, !alias.scope !65, !noalias !62
  store i64 %27, i64* %26, align 4, !alias.scope !62, !noalias !65
  %28 = getelementptr inbounds %"struct.std::pair", %"struct.std::pair"* %21, i64 1
  %29 = getelementptr inbounds %"struct.std::pair", %"struct.std::pair"* %22, i64 1
  br label %20, !llvm.loop !55

30:                                               ; preds = %20, %35
  %31 = phi %"struct.std::pair"* [ %39, %35 ], [ %1, %20 ]
  %32 = phi %"struct.std::pair"* [ %33, %35 ], [ %22, %20 ]
  %33 = getelementptr inbounds %"struct.std::pair", %"struct.std::pair"* %32, i64 1
  %34 = icmp eq %"struct.std::pair"* %31, %10
  br i1 %34, label %40, label %35

35:                                               ; preds = %30
  tail call void @llvm.experimental.noalias.scope.decl(metadata !67) #20
  tail call void @llvm.experimental.noalias.scope.decl(metadata !70) #20
  %36 = bitcast %"struct.std::pair"* %31 to i64*
  %37 = bitcast %"struct.std::pair"* %33 to i64*
  %38 = load i64, i64* %36, align 4, !alias.scope !70, !noalias !67
  store i64 %38, i64* %37, align 4, !alias.scope !67, !noalias !70
  %39 = getelementptr inbounds %"struct.std::pair", %"struct.std::pair"* %31, i64 1
  br label %30, !llvm.loop !55

40:                                               ; preds = %30
  %41 = icmp eq %"struct.std::pair"* %8, null
  br i1 %41, label %44, label %42

42:                                               ; preds = %40
  %43 = bitcast %"struct.std::pair"* %8 to i8*
  tail call void @_ZdlPv(i8* nonnull %43) #22
  br label %44

44:                                               ; preds = %40, %42
  %45 = getelementptr inbounds %"class.std::vector.13", %"class.std::vector.13"* %0, i64 0, i32 0, i32 0, i32 0, i32 2
  store %"struct.std::pair"* %15, %"struct.std::pair"** %7, align 8, !tbaa !27
  store %"struct.std::pair"* %33, %"struct.std::pair"** %9, align 8, !tbaa !25
  %46 = getelementptr inbounds %"struct.std::pair", %"struct.std::pair"* %15, i64 %5
  store %"struct.std::pair"* %46, %"struct.std::pair"** %45, align 8, !tbaa !36
  ret void
}

; Function Attrs: minsize mustprogress optsize sspstrong uwtable
define linkonce_odr dso_local %"struct.std::pair"* @_ZNSt6vectorISt4pairIiiESaIS1_EE20_M_allocate_and_copyIN9__gnu_cxx17__normal_iteratorIPKS1_S3_EEEEPS1_mT_SB_(%"class.std::vector.13"* nonnull align 8 dereferenceable(24) %0, i64 %1, %"struct.std::pair"* %2, %"struct.std::pair"* %3) local_unnamed_addr #10 comdat align 2 personality i8* bitcast (i32 (...)* @__gxx_personality_v0 to i8*) {
  %5 = getelementptr inbounds %"class.std::vector.13", %"class.std::vector.13"* %0, i64 0, i32 0
  %6 = tail call %"struct.std::pair"* @_ZNSt12_Vector_baseISt4pairIiiESaIS1_EE11_M_allocateEm(%"struct.std::_Vector_base.14"* nonnull align 8 dereferenceable(24) %5, i64 %1) #21
  br label %7

7:                                                ; preds = %11, %4
  %8 = phi %"struct.std::pair"* [ %2, %4 ], [ %15, %11 ]
  %9 = phi %"struct.std::pair"* [ %6, %4 ], [ %16, %11 ]
  %10 = icmp eq %"struct.std::pair"* %8, %3
  br i1 %10, label %17, label %11

11:                                               ; preds = %7
  %12 = bitcast %"struct.std::pair"* %8 to i64*
  %13 = bitcast %"struct.std::pair"* %9 to i64*
  %14 = load i64, i64* %12, align 4
  store i64 %14, i64* %13, align 4
  %15 = getelementptr inbounds %"struct.std::pair", %"struct.std::pair"* %8, i64 1
  %16 = getelementptr inbounds %"struct.std::pair", %"struct.std::pair"* %9, i64 1
  br label %7, !llvm.loop !72

17:                                               ; preds = %7
  ret %"struct.std::pair"* %6
}

; Function Attrs: inlinehint minsize optsize sspstrong uwtable
define linkonce_odr dso_local %"struct.std::pair"* @_ZSt13__copy_move_aILb0EN9__gnu_cxx17__normal_iteratorIPKSt4pairIiiESt6vectorIS3_SaIS3_EEEENS1_IPS3_S8_EEET1_T0_SD_SC_(%"struct.std::pair"* %0, %"struct.std::pair"* %1, %"struct.std::pair"* %2) local_unnamed_addr #15 comdat {
  %4 = tail call %"struct.std::pair"* @_ZNSt11__copy_moveILb0ELb0ESt26random_access_iterator_tagE8__copy_mIPKSt4pairIiiEPS4_EET0_T_S9_S8_(%"struct.std::pair"* %0, %"struct.std::pair"* %1, %"struct.std::pair"* %2) #21
  %5 = ptrtoint %"struct.std::pair"* %4 to i64
  %6 = ptrtoint %"struct.std::pair"* %2 to i64
  %7 = sub i64 %5, %6
  %8 = ashr exact i64 %7, 3
  %9 = getelementptr inbounds %"struct.std::pair", %"struct.std::pair"* %2, i64 %8
  ret %"struct.std::pair"* %9
}

; Function Attrs: minsize mustprogress optsize sspstrong uwtable
define linkonce_odr dso_local %"struct.std::pair"* @_ZNSt11__copy_moveILb0ELb0ESt26random_access_iterator_tagE8__copy_mIPKSt4pairIiiEPS4_EET0_T_S9_S8_(%"struct.std::pair"* %0, %"struct.std::pair"* %1, %"struct.std::pair"* %2) local_unnamed_addr #10 comdat align 2 {
  %4 = ptrtoint %"struct.std::pair"* %1 to i64
  %5 = ptrtoint %"struct.std::pair"* %0 to i64
  %6 = sub i64 %4, %5
  %7 = ashr exact i64 %6, 3
  br label %8

8:                                                ; preds = %14, %3
  %9 = phi %"struct.std::pair"* [ %0, %3 ], [ %21, %14 ]
  %10 = phi %"struct.std::pair"* [ %2, %3 ], [ %22, %14 ]
  %11 = phi i64 [ %7, %3 ], [ %23, %14 ]
  %12 = icmp sgt i64 %11, 0
  br i1 %12, label %14, label %13

13:                                               ; preds = %8
  ret %"struct.std::pair"* %10

14:                                               ; preds = %8
  %15 = getelementptr inbounds %"struct.std::pair", %"struct.std::pair"* %9, i64 0, i32 0
  %16 = load i32, i32* %15, align 4, !tbaa !37
  %17 = getelementptr inbounds %"struct.std::pair", %"struct.std::pair"* %10, i64 0, i32 0
  store i32 %16, i32* %17, align 4, !tbaa !37
  %18 = getelementptr inbounds %"struct.std::pair", %"struct.std::pair"* %9, i64 0, i32 1
  %19 = load i32, i32* %18, align 4, !tbaa !39
  %20 = getelementptr inbounds %"struct.std::pair", %"struct.std::pair"* %10, i64 0, i32 1
  store i32 %19, i32* %20, align 4, !tbaa !39
  %21 = getelementptr inbounds %"struct.std::pair", %"struct.std::pair"* %9, i64 1
  %22 = getelementptr inbounds %"struct.std::pair", %"struct.std::pair"* %10, i64 1
  %23 = add nsw i64 %11, -1
  br label %8, !llvm.loop !73
}

; Function Attrs: minsize mustprogress nounwind optsize sspstrong uwtable
define linkonce_odr dso_local %"struct.std::pair"* @_ZNSt11__copy_moveILb0ELb0ESt26random_access_iterator_tagE8__copy_mIPSt4pairIiiES5_EET0_T_S7_S6_(%"struct.std::pair"* %0, %"struct.std::pair"* %1, %"struct.std::pair"* %2) local_unnamed_addr #16 comdat align 2 {
  %4 = ptrtoint %"struct.std::pair"* %1 to i64
  %5 = ptrtoint %"struct.std::pair"* %0 to i64
  %6 = sub i64 %4, %5
  %7 = ashr exact i64 %6, 3
  br label %8

8:                                                ; preds = %14, %3
  %9 = phi %"struct.std::pair"* [ %0, %3 ], [ %21, %14 ]
  %10 = phi %"struct.std::pair"* [ %2, %3 ], [ %22, %14 ]
  %11 = phi i64 [ %7, %3 ], [ %23, %14 ]
  %12 = icmp sgt i64 %11, 0
  br i1 %12, label %14, label %13

13:                                               ; preds = %8
  ret %"struct.std::pair"* %10

14:                                               ; preds = %8
  %15 = getelementptr inbounds %"struct.std::pair", %"struct.std::pair"* %9, i64 0, i32 0
  %16 = load i32, i32* %15, align 4, !tbaa !37
  %17 = getelementptr inbounds %"struct.std::pair", %"struct.std::pair"* %10, i64 0, i32 0
  store i32 %16, i32* %17, align 4, !tbaa !37
  %18 = getelementptr inbounds %"struct.std::pair", %"struct.std::pair"* %9, i64 0, i32 1
  %19 = load i32, i32* %18, align 4, !tbaa !39
  %20 = getelementptr inbounds %"struct.std::pair", %"struct.std::pair"* %10, i64 0, i32 1
  store i32 %19, i32* %20, align 4, !tbaa !39
  %21 = getelementptr inbounds %"struct.std::pair", %"struct.std::pair"* %9, i64 1
  %22 = getelementptr inbounds %"struct.std::pair", %"struct.std::pair"* %10, i64 1
  %23 = add nsw i64 %11, -1
  br label %8, !llvm.loop !74
}

; Function Attrs: minsize optsize sspstrong uwtable
define internal void @_GLOBAL__sub_I_s846403211.cpp() #5 section ".text.startup" {
  tail call void @_ZNSt8ios_base4InitC1Ev(%"class.std::ios_base::Init"* nonnull align 1 dereferenceable(1) @_ZStL8__ioinit) #21
  %1 = tail call i32 @__cxa_atexit(void (i8*)* bitcast (void (%"class.std::ios_base::Init"*)* @_ZNSt8ios_base4InitD1Ev to void (i8*)*), i8* getelementptr inbounds (%"class.std::ios_base::Init", %"class.std::ios_base::Init"* @_ZStL8__ioinit, i64 0, i32 0), i8* nonnull @__dso_handle) #20
  ret void
}

; Function Attrs: argmemonly nofree nounwind willreturn writeonly
declare void @llvm.memset.p0i8.i64(i8* nocapture writeonly, i8, i64, i1 immarg) #17

; Function Attrs: inaccessiblememonly nofree nosync nounwind willreturn
declare void @llvm.experimental.noalias.scope.decl(metadata) #18

; Function Attrs: nofree nosync nounwind readnone speculatable willreturn
declare i32 @llvm.smax.i32(i32, i32) #19

attributes #0 = { minsize optsize "frame-pointer"="none" "no-trapping-math"="true" "stack-protector-buffer-size"="8" "target-cpu"="x86-64" "target-features"="+cx8,+fxsr,+mmx,+sse,+sse2,+x87" "tune-cpu"="generic" }
attributes #1 = { minsize nounwind optsize "frame-pointer"="none" "no-trapping-math"="true" "stack-protector-buffer-size"="8" "target-cpu"="x86-64" "target-features"="+cx8,+fxsr,+mmx,+sse,+sse2,+x87" "tune-cpu"="generic" }
attributes #2 = { nofree nounwind }
attributes #3 = { minsize norecurse optsize sspstrong uwtable "frame-pointer"="none" "min-legal-vector-width"="0" "no-trapping-math"="true" "stack-protector-buffer-size"="8" "target-cpu"="x86-64" "target-features"="+cx8,+fxsr,+mmx,+sse,+sse2,+x87" "tune-cpu"="generic" }
attributes #4 = { argmemonly mustprogress nofree nosync nounwind willreturn }
attributes #5 = { minsize optsize sspstrong uwtable "frame-pointer"="none" "min-legal-vector-width"="0" "no-trapping-math"="true" "stack-protector-buffer-size"="8" "target-cpu"="x86-64" "target-features"="+cx8,+fxsr,+mmx,+sse,+sse2,+x87" "tune-cpu"="generic" }
attributes #6 = { minsize nounwind optsize sspstrong uwtable "frame-pointer"="none" "min-legal-vector-width"="0" "no-trapping-math"="true" "stack-protector-buffer-size"="8" "target-cpu"="x86-64" "target-features"="+cx8,+fxsr,+mmx,+sse,+sse2,+x87" "tune-cpu"="generic" }
attributes #7 = { inlinehint minsize mustprogress optsize sspstrong uwtable "frame-pointer"="none" "min-legal-vector-width"="0" "no-trapping-math"="true" "stack-protector-buffer-size"="8" "target-cpu"="x86-64" "target-features"="+cx8,+fxsr,+mmx,+sse,+sse2,+x87" "tune-cpu"="generic" }
attributes #8 = { noinline noreturn nounwind }
attributes #9 = { minsize nobuiltin nounwind optsize "frame-pointer"="none" "no-trapping-math"="true" "stack-protector-buffer-size"="8" "target-cpu"="x86-64" "target-features"="+cx8,+fxsr,+mmx,+sse,+sse2,+x87" "tune-cpu"="generic" }
attributes #10 = { minsize mustprogress optsize sspstrong uwtable "frame-pointer"="none" "min-legal-vector-width"="0" "no-trapping-math"="true" "stack-protector-buffer-size"="8" "target-cpu"="x86-64" "target-features"="+cx8,+fxsr,+mmx,+sse,+sse2,+x87" "tune-cpu"="generic" }
attributes #11 = { minsize noreturn optsize "frame-pointer"="none" "no-trapping-math"="true" "stack-protector-buffer-size"="8" "target-cpu"="x86-64" "target-features"="+cx8,+fxsr,+mmx,+sse,+sse2,+x87" "tune-cpu"="generic" }
attributes #12 = { minsize nobuiltin optsize allocsize(0) "frame-pointer"="none" "no-trapping-math"="true" "stack-protector-buffer-size"="8" "target-cpu"="x86-64" "target-features"="+cx8,+fxsr,+mmx,+sse,+sse2,+x87" "tune-cpu"="generic" }
attributes #13 = { inlinehint minsize mustprogress nounwind optsize sspstrong uwtable "frame-pointer"="none" "min-legal-vector-width"="0" "no-trapping-math"="true" "stack-protector-buffer-size"="8" "target-cpu"="x86-64" "target-features"="+cx8,+fxsr,+mmx,+sse,+sse2,+x87" "tune-cpu"="generic" }
attributes #14 = { argmemonly mustprogress nofree nounwind willreturn }
attributes #15 = { inlinehint minsize optsize sspstrong uwtable "frame-pointer"="none" "min-legal-vector-width"="0" "no-trapping-math"="true" "stack-protector-buffer-size"="8" "target-cpu"="x86-64" "target-features"="+cx8,+fxsr,+mmx,+sse,+sse2,+x87" "tune-cpu"="generic" }
attributes #16 = { minsize mustprogress nounwind optsize sspstrong uwtable "frame-pointer"="none" "min-legal-vector-width"="0" "no-trapping-math"="true" "stack-protector-buffer-size"="8" "target-cpu"="x86-64" "target-features"="+cx8,+fxsr,+mmx,+sse,+sse2,+x87" "tune-cpu"="generic" }
attributes #17 = { argmemonly nofree nounwind willreturn writeonly }
attributes #18 = { inaccessiblememonly nofree nosync nounwind willreturn }
attributes #19 = { nofree nosync nounwind readnone speculatable willreturn }
attributes #20 = { nounwind }
attributes #21 = { minsize optsize }
attributes #22 = { minsize nounwind optsize }
attributes #23 = { noreturn nounwind }
attributes #24 = { noreturn }
attributes #25 = { minsize noreturn optsize }
attributes #26 = { minsize optsize allocsize(0) }

!llvm.module.flags = !{!0, !1, !2, !3}
!llvm.ident = !{!4}

!0 = !{i32 1, !"wchar_size", i32 4}
!1 = !{i32 7, !"PIC Level", i32 2}
!2 = !{i32 7, !"PIE Level", i32 2}
!3 = !{i32 7, !"uwtable", i32 1}
!4 = !{!"clang version 13.0.0"}
!5 = !{!6, !6, i64 0}
!6 = !{!"int", !7, i64 0}
!7 = !{!"omnipotent char", !8, i64 0}
!8 = !{!"Simple C++ TBAA"}
!9 = !{!10, !11, i64 0}
!10 = !{!"_ZTSNSt7__cxx1112basic_stringIcSt11char_traitsIcESaIcEE12_Alloc_hiderE", !11, i64 0}
!11 = !{!"any pointer", !7, i64 0}
!12 = !{!13, !14, i64 8}
!13 = !{!"_ZTSNSt7__cxx1112basic_stringIcSt11char_traitsIcESaIcEEE", !10, i64 0, !14, i64 8, !7, i64 16}
!14 = !{!"long", !7, i64 0}
!15 = !{!7, !7, i64 0}
!16 = distinct !{!16, !17}
!17 = !{!"llvm.loop.mustprogress"}
!18 = !{!13, !11, i64 0}
!19 = distinct !{!19, !17}
!20 = distinct !{!20, !17}
!21 = !{!22, !11, i64 0}
!22 = !{!"_ZTSNSt12_Vector_baseISt6vectorIiSaIiEESaIS2_EE17_Vector_impl_dataE", !11, i64 0, !11, i64 8, !11, i64 16}
!23 = !{!24, !11, i64 0}
!24 = !{!"_ZTSNSt12_Vector_baseIiSaIiEE17_Vector_impl_dataE", !11, i64 0, !11, i64 8, !11, i64 16}
!25 = !{!26, !11, i64 8}
!26 = !{!"_ZTSNSt12_Vector_baseISt4pairIiiESaIS1_EE17_Vector_impl_dataE", !11, i64 0, !11, i64 8, !11, i64 16}
!27 = !{!26, !11, i64 0}
!28 = !{!11, !11, i64 0}
!29 = !{!30, !11, i64 0}
!30 = !{!"_ZTSNSt12_Vector_baseINSt7__cxx1112basic_stringIcSt11char_traitsIcESaIcEEESaIS5_EE17_Vector_impl_dataE", !11, i64 0, !11, i64 8, !11, i64 16}
!31 = distinct !{!31, !17}
!32 = distinct !{!32, !17}
!33 = !{!30, !11, i64 8}
!34 = !{!30, !11, i64 16}
!35 = !{!24, !11, i64 8}
!36 = !{!26, !11, i64 16}
!37 = !{!38, !6, i64 0}
!38 = !{!"_ZTSSt4pairIiiE", !6, i64 0, !6, i64 4}
!39 = !{!38, !6, i64 4}
!40 = distinct !{!40, !17}
!41 = !{!22, !11, i64 8}
!42 = distinct !{!42, !17}
!43 = !{!"branch_weights", i32 1, i32 2000}
!44 = distinct !{!44, !17}
!45 = !{!24, !11, i64 16}
!46 = distinct !{!46, !17}
!47 = !{!22, !11, i64 16}
!48 = distinct !{!48, !17}
!49 = distinct !{!49, !17}
!50 = !{!51}
!51 = distinct !{!51, !52, !"_ZSt19__relocate_object_aISt4pairIiiES1_SaIS1_EEvPT_PT0_RT1_: argument 0"}
!52 = distinct !{!52, !"_ZSt19__relocate_object_aISt4pairIiiES1_SaIS1_EEvPT_PT0_RT1_"}
!53 = !{!54}
!54 = distinct !{!54, !52, !"_ZSt19__relocate_object_aISt4pairIiiES1_SaIS1_EEvPT_PT0_RT1_: argument 1"}
!55 = distinct !{!55, !17}
!56 = !{!57}
!57 = distinct !{!57, !58, !"_ZSt19__relocate_object_aISt4pairIiiES1_SaIS1_EEvPT_PT0_RT1_: argument 0"}
!58 = distinct !{!58, !"_ZSt19__relocate_object_aISt4pairIiiES1_SaIS1_EEvPT_PT0_RT1_"}
!59 = !{!60}
!60 = distinct !{!60, !58, !"_ZSt19__relocate_object_aISt4pairIiiES1_SaIS1_EEvPT_PT0_RT1_: argument 1"}
!61 = distinct !{!61, !17}
!62 = !{!63}
!63 = distinct !{!63, !64, !"_ZSt19__relocate_object_aISt4pairIiiES1_SaIS1_EEvPT_PT0_RT1_: argument 0"}
!64 = distinct !{!64, !"_ZSt19__relocate_object_aISt4pairIiiES1_SaIS1_EEvPT_PT0_RT1_"}
!65 = !{!66}
!66 = distinct !{!66, !64, !"_ZSt19__relocate_object_aISt4pairIiiES1_SaIS1_EEvPT_PT0_RT1_: argument 1"}
!67 = !{!68}
!68 = distinct !{!68, !69, !"_ZSt19__relocate_object_aISt4pairIiiES1_SaIS1_EEvPT_PT0_RT1_: argument 0"}
!69 = distinct !{!69, !"_ZSt19__relocate_object_aISt4pairIiiES1_SaIS1_EEvPT_PT0_RT1_"}
!70 = !{!71}
!71 = distinct !{!71, !69, !"_ZSt19__relocate_object_aISt4pairIiiES1_SaIS1_EEvPT_PT0_RT1_: argument 1"}
!72 = distinct !{!72, !17}
!73 = distinct !{!73, !17}
!74 = distinct !{!74, !17}
