; ModuleID = 'Project_CodeNet_C++1400/p02763/s347287969.cpp'
source_filename = "Project_CodeNet_C++1400/p02763/s347287969.cpp"
target datalayout = "e-m:e-p270:32:32-p271:32:32-p272:64:64-i64:64-f80:128-n8:16:32:64-S128"
target triple = "x86_64-pc-linux-gnu"

%"class.std::ios_base::Init" = type { i8 }
%"class.std::vector" = type { %"struct.std::_Vector_base" }
%"struct.std::_Vector_base" = type { %"struct.std::_Vector_base<long long, std::allocator<long long>>::_Vector_impl" }
%"struct.std::_Vector_base<long long, std::allocator<long long>>::_Vector_impl" = type { %"struct.std::_Vector_base<long long, std::allocator<long long>>::_Vector_impl_data" }
%"struct.std::_Vector_base<long long, std::allocator<long long>>::_Vector_impl_data" = type { i64*, i64*, i64* }
%"class.std::vector.0" = type { %"struct.std::_Bvector_base" }
%"struct.std::_Bvector_base" = type { %"struct.std::_Bvector_base<std::allocator<bool>>::_Bvector_impl" }
%"struct.std::_Bvector_base<std::allocator<bool>>::_Bvector_impl" = type { %"struct.std::_Bvector_base<std::allocator<bool>>::_Bvector_impl_data" }
%"struct.std::_Bvector_base<std::allocator<bool>>::_Bvector_impl_data" = type { %"struct.std::_Bit_iterator", %"struct.std::_Bit_iterator", i64* }
%"struct.std::_Bit_iterator" = type { %"struct.std::_Bit_iterator_base.base", [4 x i8] }
%"struct.std::_Bit_iterator_base.base" = type <{ i64*, i32 }>
%"class.std::vector.4" = type { %"struct.std::_Vector_base.5" }
%"struct.std::_Vector_base.5" = type { %"struct.std::_Vector_base<std::pair<long long, long long>, std::allocator<std::pair<long long, long long>>>::_Vector_impl" }
%"struct.std::_Vector_base<std::pair<long long, long long>, std::allocator<std::pair<long long, long long>>>::_Vector_impl" = type { %"struct.std::_Vector_base<std::pair<long long, long long>, std::allocator<std::pair<long long, long long>>>::_Vector_impl_data" }
%"struct.std::_Vector_base<std::pair<long long, long long>, std::allocator<std::pair<long long, long long>>>::_Vector_impl_data" = type { %"struct.std::pair"*, %"struct.std::pair"*, %"struct.std::pair"* }
%"struct.std::pair" = type { i64, i64 }
%"class.std::vector.9" = type { %"struct.std::_Vector_base.10" }
%"struct.std::_Vector_base.10" = type { %"struct.std::_Vector_base<std::set<long long>, std::allocator<std::set<long long>>>::_Vector_impl" }
%"struct.std::_Vector_base<std::set<long long>, std::allocator<std::set<long long>>>::_Vector_impl" = type { %"struct.std::_Vector_base<std::set<long long>, std::allocator<std::set<long long>>>::_Vector_impl_data" }
%"struct.std::_Vector_base<std::set<long long>, std::allocator<std::set<long long>>>::_Vector_impl_data" = type { %"class.std::set"*, %"class.std::set"*, %"class.std::set"* }
%"class.std::set" = type { %"class.std::_Rb_tree" }
%"class.std::_Rb_tree" = type { %"struct.std::_Rb_tree<long long, long long, std::_Identity<long long>, std::less<long long>>::_Rb_tree_impl" }
%"struct.std::_Rb_tree<long long, long long, std::_Identity<long long>, std::less<long long>>::_Rb_tree_impl" = type { %"struct.std::_Rb_tree_key_compare", %"struct.std::_Rb_tree_header" }
%"struct.std::_Rb_tree_key_compare" = type { %"struct.std::less" }
%"struct.std::less" = type { i8 }
%"struct.std::_Rb_tree_header" = type { %"struct.std::_Rb_tree_node_base", i64 }
%"struct.std::_Rb_tree_node_base" = type { i32, %"struct.std::_Rb_tree_node_base"*, %"struct.std::_Rb_tree_node_base"*, %"struct.std::_Rb_tree_node_base"* }
%"class.std::basic_istream" = type { i32 (...)**, i64, %"class.std::basic_ios" }
%"class.std::basic_ios" = type { %"class.std::ios_base", %"class.std::basic_ostream"*, i8, i8, %"class.std::basic_streambuf"*, %"class.std::ctype"*, %"class.std::num_put"*, %"class.std::num_get"* }
%"class.std::ios_base" = type { i32 (...)**, i64, i64, i32, i32, i32, %"struct.std::ios_base::_Callback_list"*, %"struct.std::ios_base::_Words", [8 x %"struct.std::ios_base::_Words"], i32, %"struct.std::ios_base::_Words"*, %"class.std::locale" }
%"struct.std::ios_base::_Callback_list" = type { %"struct.std::ios_base::_Callback_list"*, void (i32, %"class.std::ios_base"*, i32)*, i32, i32 }
%"struct.std::ios_base::_Words" = type { i8*, i64 }
%"class.std::locale" = type { %"class.std::locale::_Impl"* }
%"class.std::locale::_Impl" = type { i32, %"class.std::locale::facet"**, i64, %"class.std::locale::facet"**, i8** }
%"class.std::locale::facet" = type <{ i32 (...)**, i32, [4 x i8] }>
%"class.std::basic_ostream" = type { i32 (...)**, %"class.std::basic_ios" }
%"class.std::basic_streambuf" = type { i32 (...)**, i8*, i8*, i8*, i8*, i8*, i8*, %"class.std::locale" }
%"class.std::ctype" = type <{ %"class.std::locale::facet.base", [4 x i8], %struct.__locale_struct*, i8, [7 x i8], i32*, i32*, i16*, i8, [256 x i8], [256 x i8], i8, [6 x i8] }>
%"class.std::locale::facet.base" = type <{ i32 (...)**, i32 }>
%struct.__locale_struct = type { [13 x %struct.__locale_data*], i16*, i32*, i32*, [13 x i8*] }
%struct.__locale_data = type opaque
%"class.std::num_put" = type { %"class.std::locale::facet.base", [4 x i8] }
%"class.std::num_get" = type { %"class.std::locale::facet.base", [4 x i8] }
%"class.std::allocator.11" = type { i8 }
%"class.std::__cxx11::basic_string" = type { %"struct.std::__cxx11::basic_string<char>::_Alloc_hider", i64, %union.anon }
%"struct.std::__cxx11::basic_string<char>::_Alloc_hider" = type { i8* }
%union.anon = type { i64, [8 x i8] }
%"class.std::vector.23" = type { %"struct.std::_Vector_base.24" }
%"struct.std::_Vector_base.24" = type { %"struct.std::_Vector_base<std::vector<std::pair<long long, long long>>, std::allocator<std::vector<std::pair<long long, long long>>>>::_Vector_impl" }
%"struct.std::_Vector_base<std::vector<std::pair<long long, long long>>, std::allocator<std::vector<std::pair<long long, long long>>>>::_Vector_impl" = type { %"struct.std::_Vector_base<std::vector<std::pair<long long, long long>>, std::allocator<std::vector<std::pair<long long, long long>>>>::_Vector_impl_data" }
%"struct.std::_Vector_base<std::vector<std::pair<long long, long long>>, std::allocator<std::vector<std::pair<long long, long long>>>>::_Vector_impl_data" = type { %"class.std::vector.4"*, %"class.std::vector.4"*, %"class.std::vector.4"* }
%"struct.std::_Bit_reference" = type { i64*, i64 }
%"class.__gnu_cxx::new_allocator.12" = type { i8 }
%"struct.std::_Rb_tree_node" = type { %"struct.std::_Rb_tree_node_base", %"struct.__gnu_cxx::__aligned_membuf" }
%"struct.__gnu_cxx::__aligned_membuf" = type { [8 x i8] }
%"struct.std::_Rb_tree<long long, long long, std::_Identity<long long>, std::less<long long>>::_Alloc_node" = type { %"class.std::_Rb_tree"* }
%"class.std::allocator.14" = type { i8 }
%"class.__gnu_cxx::new_allocator.15" = type { i8 }
%"struct.std::_Bit_iterator_base" = type <{ i64*, i32, [4 x i8] }>
%"class.std::allocator.1" = type { i8 }
%"class.__gnu_cxx::new_allocator.2" = type { i8 }
%"struct.std::vector<long long>::_Temporary_value" = type { %"class.std::vector"*, %"union.std::aligned_storage<8, 8>::type" }
%"union.std::aligned_storage<8, 8>::type" = type { [8 x i8] }
%"class.std::allocator" = type { i8 }
%"class.__gnu_cxx::new_allocator" = type { i8 }
%"class.std::allocator.6" = type { i8 }
%"class.__gnu_cxx::new_allocator.7" = type { i8 }
%"struct.__gnu_cxx::__ops::_Iter_less_iter" = type { i8 }
%"struct.__gnu_cxx::__ops::_Iter_less_val" = type { i8 }

$_ZNSt6vectorIxSaIxEED2Ev = comdat any

$_ZNSt13_Bvector_baseISaIbEED2Ev = comdat any

$_ZNSt6vectorISt4pairIxxESaIS1_EED2Ev = comdat any

$_ZNSt6vectorISt3setIxSt4lessIxESaIxEESaIS4_EEC2EmRKS5_ = comdat any

$_ZNSt6vectorISt3setIxSt4lessIxESaIxEESaIS4_EED2Ev = comdat any

$_ZNSt6vectorIbSaIbEE6resizeEmb = comdat any

$_ZNSt6vectorIxSaIxEE6resizeEmRKx = comdat any

$_ZNSt6vectorIbSaIbEEixEm = comdat any

$_ZNSt14_Bit_referenceaSEb = comdat any

$_ZNSt14_Bit_referenceaSERKS_ = comdat any

$_ZNSt6vectorIxSaIxEE9push_backERKx = comdat any

$__clang_call_terminate = comdat any

$_ZNSt12_Vector_baseIxSaIxEED2Ev = comdat any

$_ZNSt13_Bvector_baseISaIbEE13_M_deallocateEv = comdat any

$_ZNSt12_Vector_baseISt4pairIxxESaIS1_EED2Ev = comdat any

$_ZNSt6vectorISt3setIxSt4lessIxESaIxEESaIS4_EE17_S_check_init_lenEmRKS5_ = comdat any

$_ZNSt6vectorISt3setIxSt4lessIxESaIxEESaIS4_EE21_M_default_initializeEm = comdat any

$_ZNSt12_Vector_baseISt3setIxSt4lessIxESaIxEESaIS4_EED2Ev = comdat any

$_ZNSt12_Vector_baseISt3setIxSt4lessIxESaIxEESaIS4_EE17_M_create_storageEm = comdat any

$_ZNSt12_Vector_baseISt3setIxSt4lessIxESaIxEESaIS4_EE11_M_allocateEm = comdat any

$_ZNSt16allocator_traitsISaISt3setIxSt4lessIxESaIxEEEE8allocateERS5_m = comdat any

$_ZN9__gnu_cxx13new_allocatorISt3setIxSt4lessIxESaIxEEE8allocateEmPKv = comdat any

$_ZNSt27__uninitialized_default_n_1ILb0EE18__uninit_default_nIPSt3setIxSt4lessIxESaIxEEmEET_S8_T0_ = comdat any

$_ZNSt12_Destroy_auxILb0EE9__destroyIPSt3setIxSt4lessIxESaIxEEEEvT_S8_ = comdat any

$_ZNSt8_Rb_treeIxxSt9_IdentityIxESt4lessIxESaIxEED2Ev = comdat any

$_ZNSt8_Rb_treeIxxSt9_IdentityIxESt4lessIxESaIxEE8_M_eraseEPSt13_Rb_tree_nodeIxE = comdat any

$_ZNSt8_Rb_treeIxxSt9_IdentityIxESt4lessIxESaIxEE11lower_boundERKx = comdat any

$_ZNSt8_Rb_treeIxxSt9_IdentityIxESt4lessIxESaIxEE14_M_lower_boundEPSt13_Rb_tree_nodeIxEPSt18_Rb_tree_node_baseRKx = comdat any

$_ZNSt8_Rb_treeIxxSt9_IdentityIxESt4lessIxESaIxEE5eraseERKx = comdat any

$_ZNSt8_Rb_treeIxxSt9_IdentityIxESt4lessIxESaIxEE11equal_rangeERKx = comdat any

$_ZNSt8_Rb_treeIxxSt9_IdentityIxESt4lessIxESaIxEE12_M_erase_auxESt23_Rb_tree_const_iteratorIxES7_ = comdat any

$_ZNSt8_Rb_treeIxxSt9_IdentityIxESt4lessIxESaIxEE14_M_upper_boundEPSt13_Rb_tree_nodeIxEPSt18_Rb_tree_node_baseRKx = comdat any

$_ZNSt8_Rb_treeIxxSt9_IdentityIxESt4lessIxESaIxEE5clearEv = comdat any

$_ZNSt8_Rb_treeIxxSt9_IdentityIxESt4lessIxESaIxEE12_M_erase_auxESt23_Rb_tree_const_iteratorIxE = comdat any

$_ZNSt8_Rb_treeIxxSt9_IdentityIxESt4lessIxESaIxEE16_M_insert_uniqueIRKxEESt4pairISt17_Rb_tree_iteratorIxEbEOT_ = comdat any

$_ZNSt8_Rb_treeIxxSt9_IdentityIxESt4lessIxESaIxEE24_M_get_insert_unique_posERKx = comdat any

$_ZNSt8_Rb_treeIxxSt9_IdentityIxESt4lessIxESaIxEE10_M_insert_IRKxNS5_11_Alloc_nodeEEESt17_Rb_tree_iteratorIxEPSt18_Rb_tree_node_baseSD_OT_RT0_ = comdat any

$_ZNKSt8_Rb_treeIxxSt9_IdentityIxESt4lessIxESaIxEE11_Alloc_nodeclIRKxEEPSt13_Rb_tree_nodeIxEOT_ = comdat any

$_ZNSt8_Rb_treeIxxSt9_IdentityIxESt4lessIxESaIxEE14_M_create_nodeIJRKxEEEPSt13_Rb_tree_nodeIxEDpOT_ = comdat any

$_ZNSt8_Rb_treeIxxSt9_IdentityIxESt4lessIxESaIxEE11_M_get_nodeEv = comdat any

$_ZNSt16allocator_traitsISaISt13_Rb_tree_nodeIxEEE8allocateERS2_m = comdat any

$_ZN9__gnu_cxx13new_allocatorISt13_Rb_tree_nodeIxEE8allocateEmPKv = comdat any

$_ZNSt8_Rb_treeIxxSt9_IdentityIxESt4lessIxESaIxEE16_M_insert_uniqueIxEESt4pairISt17_Rb_tree_iteratorIxEbEOT_ = comdat any

$_ZNSt8_Rb_treeIxxSt9_IdentityIxESt4lessIxESaIxEE10_M_insert_IxNS5_11_Alloc_nodeEEESt17_Rb_tree_iteratorIxEPSt18_Rb_tree_node_baseSB_OT_RT0_ = comdat any

$_ZNKSt8_Rb_treeIxxSt9_IdentityIxESt4lessIxESaIxEE11_Alloc_nodeclIxEEPSt13_Rb_tree_nodeIxEOT_ = comdat any

$_ZNSt8_Rb_treeIxxSt9_IdentityIxESt4lessIxESaIxEE14_M_create_nodeIJxEEEPSt13_Rb_tree_nodeIxEDpOT_ = comdat any

$_ZStplRKSt13_Bit_iteratorl = comdat any

$_ZNSt6vectorIbSaIbEE6insertESt19_Bit_const_iteratormRKb = comdat any

$_ZNSt18_Bit_iterator_base7_M_incrEl = comdat any

$_ZNSt6vectorIbSaIbEE14_M_fill_insertESt13_Bit_iteratormb = comdat any

$_ZNKSt6vectorIbSaIbEE12_M_check_lenEmPKc = comdat any

$_ZNSt13_Bvector_baseISaIbEE11_M_allocateEm = comdat any

$_ZNSt6vectorIbSaIbEE15_M_copy_alignedESt19_Bit_const_iteratorS2_St13_Bit_iterator = comdat any

$_ZNSt20__copy_move_backwardILb0ELb0ESt26random_access_iterator_tagE13__copy_move_bISt13_Bit_iteratorS3_EET0_T_S5_S4_ = comdat any

$_ZSt9__fill_a1St13_Bit_iteratorS_RKb = comdat any

$_ZSt14__fill_bvectorPmjjb = comdat any

$_ZNSt16allocator_traitsISaImEE8allocateERS0_m = comdat any

$_ZN9__gnu_cxx13new_allocatorImE8allocateEmPKv = comdat any

$_ZNSt11__copy_moveILb0ELb0ESt26random_access_iterator_tagE8__copy_mISt19_Bit_const_iteratorSt13_Bit_iteratorEET0_T_S6_S5_ = comdat any

$_ZNSt11__copy_moveILb0ELb0ESt26random_access_iterator_tagE8__copy_mISt13_Bit_iteratorS3_EET0_T_S5_S4_ = comdat any

$_ZNSt6vectorIxSaIxEE14_M_fill_insertEN9__gnu_cxx17__normal_iteratorIPxS1_EEmRKx = comdat any

$_ZNKSt6vectorIxSaIxEE12_M_check_lenEmPKc = comdat any

$_ZNSt12_Vector_baseIxSaIxEE11_M_allocateEm = comdat any

$_ZSt10__fill_n_aIPxmxET_S1_T0_RKT1_St26random_access_iterator_tag = comdat any

$_ZNSt16allocator_traitsISaIxEE8allocateERS0_m = comdat any

$_ZN9__gnu_cxx13new_allocatorIxE8allocateEmPKv = comdat any

$_ZNKSt13_Bit_iteratorixEl = comdat any

$_ZNSt6vectorIxSaIxEE12emplace_backIJxEEEvDpOT_ = comdat any

$_ZNSt6vectorIxSaIxEE17_M_realloc_insertIJxEEEvN9__gnu_cxx17__normal_iteratorIPxS1_EEDpOT_ = comdat any

$_ZNSt6vectorISt4pairIxxESaIS1_EE12emplace_backIJS1_EEEvDpOT_ = comdat any

$_ZNSt6vectorISt4pairIxxESaIS1_EE17_M_realloc_insertIJS1_EEEvN9__gnu_cxx17__normal_iteratorIPS1_S3_EEDpOT_ = comdat any

$_ZNKSt6vectorISt4pairIxxESaIS1_EE12_M_check_lenEmPKc = comdat any

$_ZNSt12_Vector_baseISt4pairIxxESaIS1_EE11_M_allocateEm = comdat any

$_ZNSt16allocator_traitsISaISt4pairIxxEEE8allocateERS2_m = comdat any

$_ZN9__gnu_cxx13new_allocatorISt4pairIxxEE8allocateEmPKv = comdat any

$_ZNSt6vectorIxSaIxEE17_M_realloc_insertIJRKxEEEvN9__gnu_cxx17__normal_iteratorIPxS1_EEDpOT_ = comdat any

$_ZSt6__sortIN9__gnu_cxx17__normal_iteratorIPxSt6vectorIxSaIxEEEENS0_5__ops15_Iter_less_iterEEvT_S9_T0_ = comdat any

$_ZSt16__introsort_loopIN9__gnu_cxx17__normal_iteratorIPxSt6vectorIxSaIxEEEElNS0_5__ops15_Iter_less_iterEEvT_S9_T0_T1_ = comdat any

$_ZSt22__final_insertion_sortIN9__gnu_cxx17__normal_iteratorIPxSt6vectorIxSaIxEEEENS0_5__ops15_Iter_less_iterEEvT_S9_T0_ = comdat any

$_ZSt14__partial_sortIN9__gnu_cxx17__normal_iteratorIPxSt6vectorIxSaIxEEEENS0_5__ops15_Iter_less_iterEEvT_S9_S9_T0_ = comdat any

$_ZSt27__unguarded_partition_pivotIN9__gnu_cxx17__normal_iteratorIPxSt6vectorIxSaIxEEEENS0_5__ops15_Iter_less_iterEET_S9_S9_T0_ = comdat any

$_ZSt13__heap_selectIN9__gnu_cxx17__normal_iteratorIPxSt6vectorIxSaIxEEEENS0_5__ops15_Iter_less_iterEEvT_S9_S9_T0_ = comdat any

$_ZSt11__sort_heapIN9__gnu_cxx17__normal_iteratorIPxSt6vectorIxSaIxEEEENS0_5__ops15_Iter_less_iterEEvT_S9_RT0_ = comdat any

$_ZSt11__make_heapIN9__gnu_cxx17__normal_iteratorIPxSt6vectorIxSaIxEEEENS0_5__ops15_Iter_less_iterEEvT_S9_RT0_ = comdat any

$_ZSt10__pop_heapIN9__gnu_cxx17__normal_iteratorIPxSt6vectorIxSaIxEEEENS0_5__ops15_Iter_less_iterEEvT_S9_S9_RT0_ = comdat any

$_ZSt13__adjust_heapIN9__gnu_cxx17__normal_iteratorIPxSt6vectorIxSaIxEEEElxNS0_5__ops15_Iter_less_iterEEvT_T0_SA_T1_T2_ = comdat any

$_ZSt11__push_heapIN9__gnu_cxx17__normal_iteratorIPxSt6vectorIxSaIxEEEElxNS0_5__ops14_Iter_less_valEEvT_T0_SA_T1_RT2_ = comdat any

$_ZSt22__move_median_to_firstIN9__gnu_cxx17__normal_iteratorIPxSt6vectorIxSaIxEEEENS0_5__ops15_Iter_less_iterEEvT_S9_S9_S9_T0_ = comdat any

$_ZSt21__unguarded_partitionIN9__gnu_cxx17__normal_iteratorIPxSt6vectorIxSaIxEEEENS0_5__ops15_Iter_less_iterEET_S9_S9_S9_T0_ = comdat any

$_ZSt16__insertion_sortIN9__gnu_cxx17__normal_iteratorIPxSt6vectorIxSaIxEEEENS0_5__ops15_Iter_less_iterEEvT_S9_T0_ = comdat any

$_ZSt26__unguarded_insertion_sortIN9__gnu_cxx17__normal_iteratorIPxSt6vectorIxSaIxEEEENS0_5__ops15_Iter_less_iterEEvT_S9_T0_ = comdat any

$_ZSt25__unguarded_linear_insertIN9__gnu_cxx17__normal_iteratorIPxSt6vectorIxSaIxEEEENS0_5__ops14_Val_less_iterEEvT_T0_ = comdat any

@_ZStL8__ioinit = internal global %"class.std::ios_base::Init" zeroinitializer, align 1
@__dso_handle = external hidden global i8
@fac = dso_local local_unnamed_addr global [510000 x i64] zeroinitializer, align 16
@inv = dso_local local_unnamed_addr global [510000 x i64] zeroinitializer, align 16
@finv = dso_local local_unnamed_addr global [510000 x i64] zeroinitializer, align 16
@primes = dso_local global %"class.std::vector" zeroinitializer, align 8
@isprime = dso_local global %"class.std::vector.0" zeroinitializer, align 8
@min_factor = dso_local global %"class.std::vector" zeroinitializer, align 8
@res_pf = dso_local global %"class.std::vector.4" zeroinitializer, align 8
@called_Eratosthenes = dso_local local_unnamed_addr global i8 0, align 1
@can_min_factor = dso_local local_unnamed_addr global i8 0, align 1
@factor_list = dso_local global %"class.std::vector" zeroinitializer, align 8
@n = dso_local local_unnamed_addr global i64 0, align 8
@N = dso_local global i64 0, align 8
@k = dso_local local_unnamed_addr global i64 0, align 8
@K = dso_local local_unnamed_addr global i64 0, align 8
@alp = dso_local global %"class.std::vector.9" zeroinitializer, align 8
@_ZSt3cin = external global %"class.std::basic_istream", align 8
@_ZSt4cout = external global %"class.std::basic_ostream", align 8
@.str = private unnamed_addr constant [2 x i8] c" \00", align 1
@.str.7 = private unnamed_addr constant [6 x i8] c"error\00", align 1
@.str.8 = private unnamed_addr constant [36 x i8] c"Error: can't do prime_factorization\00", align 1
@.str.9 = private unnamed_addr constant [36 x i8] c"num is composite_num: num = 1 * num\00", align 1
@.str.10 = private unnamed_addr constant [49 x i8] c"cannot create std::vector larger than max_size()\00", align 1
@.str.11 = private unnamed_addr constant [29 x i8] c"vector<bool>::_M_fill_insert\00", align 1
@.str.12 = private unnamed_addr constant [23 x i8] c"vector::_M_fill_insert\00", align 1
@.str.13 = private unnamed_addr constant [26 x i8] c"vector::_M_realloc_insert\00", align 1
@llvm.global_ctors = appending global [1 x { i32, void ()*, i8* }] [{ i32, void ()*, i8* } { i32 65535, void ()* @_GLOBAL__sub_I_s347287969.cpp, i8* null }]

; Function Attrs: minsize optsize
declare void @_ZNSt8ios_base4InitC1Ev(%"class.std::ios_base::Init"* nonnull align 1 dereferenceable(1)) unnamed_addr #0

; Function Attrs: minsize nounwind optsize
declare void @_ZNSt8ios_base4InitD1Ev(%"class.std::ios_base::Init"* nonnull align 1 dereferenceable(1)) unnamed_addr #1

; Function Attrs: nofree nounwind
declare i32 @__cxa_atexit(void (i8*)*, i8*, i8*) local_unnamed_addr #2

; Function Attrs: minsize nounwind optsize sspstrong uwtable
define linkonce_odr dso_local void @_ZNSt6vectorIxSaIxEED2Ev(%"class.std::vector"* nonnull align 8 dereferenceable(24) %0) unnamed_addr #3 comdat align 2 personality i8* bitcast (i32 (...)* @__gxx_personality_v0 to i8*) {
  %2 = getelementptr inbounds %"class.std::vector", %"class.std::vector"* %0, i64 0, i32 0
  tail call void @_ZNSt12_Vector_baseIxSaIxEED2Ev(%"struct.std::_Vector_base"* nonnull align 8 dereferenceable(24) %2) #26
  ret void
}

; Function Attrs: minsize nounwind optsize sspstrong uwtable
define linkonce_odr dso_local void @_ZNSt13_Bvector_baseISaIbEED2Ev(%"struct.std::_Bvector_base"* nonnull align 8 dereferenceable(40) %0) unnamed_addr #3 comdat align 2 personality i8* bitcast (i32 (...)* @__gxx_personality_v0 to i8*) {
  invoke void @_ZNSt13_Bvector_baseISaIbEE13_M_deallocateEv(%"struct.std::_Bvector_base"* nonnull align 8 dereferenceable(40) %0) #27
          to label %2 unwind label %3

2:                                                ; preds = %1
  ret void

3:                                                ; preds = %1
  %4 = landingpad { i8*, i32 }
          catch i8* null
  %5 = extractvalue { i8*, i32 } %4, 0
  tail call void @__clang_call_terminate(i8* %5) #28
  unreachable
}

; Function Attrs: minsize nounwind optsize sspstrong uwtable
define linkonce_odr dso_local void @_ZNSt6vectorISt4pairIxxESaIS1_EED2Ev(%"class.std::vector.4"* nonnull align 8 dereferenceable(24) %0) unnamed_addr #3 comdat align 2 personality i8* bitcast (i32 (...)* @__gxx_personality_v0 to i8*) {
  %2 = getelementptr inbounds %"class.std::vector.4", %"class.std::vector.4"* %0, i64 0, i32 0
  tail call void @_ZNSt12_Vector_baseISt4pairIxxESaIS1_EED2Ev(%"struct.std::_Vector_base.5"* nonnull align 8 dereferenceable(24) %2) #26
  ret void
}

; Function Attrs: argmemonly mustprogress nofree nosync nounwind willreturn
declare void @llvm.lifetime.start.p0i8(i64 immarg, i8* nocapture) #4

; Function Attrs: minsize optsize sspstrong uwtable
define linkonce_odr dso_local void @_ZNSt6vectorISt3setIxSt4lessIxESaIxEESaIS4_EEC2EmRKS5_(%"class.std::vector.9"* nonnull align 8 dereferenceable(24) %0, i64 %1, %"class.std::allocator.11"* nonnull align 1 dereferenceable(1) %2) unnamed_addr #5 comdat align 2 personality i8* bitcast (i32 (...)* @__gxx_personality_v0 to i8*) {
  %4 = getelementptr inbounds %"class.std::vector.9", %"class.std::vector.9"* %0, i64 0, i32 0
  %5 = tail call i64 @_ZNSt6vectorISt3setIxSt4lessIxESaIxEESaIS4_EE17_S_check_init_lenEmRKS5_(i64 %1, %"class.std::allocator.11"* nonnull align 1 dereferenceable(1) %2) #27
  %6 = bitcast %"class.std::vector.9"* %0 to i8*
  tail call void @llvm.memset.p0i8.i64(i8* noundef nonnull align 8 dereferenceable(24) %6, i8 0, i64 24, i1 false) #29
  tail call void @_ZNSt12_Vector_baseISt3setIxSt4lessIxESaIxEESaIS4_EE17_M_create_storageEm(%"struct.std::_Vector_base.10"* nonnull align 8 dereferenceable(24) %4, i64 %5) #27
  invoke void @_ZNSt6vectorISt3setIxSt4lessIxESaIxEESaIS4_EE21_M_default_initializeEm(%"class.std::vector.9"* nonnull align 8 dereferenceable(24) %0, i64 %1) #27
          to label %7 unwind label %8

7:                                                ; preds = %3
  ret void

8:                                                ; preds = %3
  %9 = landingpad { i8*, i32 }
          cleanup
  tail call void @_ZNSt12_Vector_baseISt3setIxSt4lessIxESaIxEESaIS4_EED2Ev(%"struct.std::_Vector_base.10"* nonnull align 8 dereferenceable(24) %4) #26
  resume { i8*, i32 } %9
}

declare i32 @__gxx_personality_v0(...)

; Function Attrs: argmemonly mustprogress nofree nosync nounwind willreturn
declare void @llvm.lifetime.end.p0i8(i64 immarg, i8* nocapture) #4

; Function Attrs: minsize nounwind optsize sspstrong uwtable
define linkonce_odr dso_local void @_ZNSt6vectorISt3setIxSt4lessIxESaIxEESaIS4_EED2Ev(%"class.std::vector.9"* nonnull align 8 dereferenceable(24) %0) unnamed_addr #3 comdat align 2 personality i8* bitcast (i32 (...)* @__gxx_personality_v0 to i8*) {
  %2 = getelementptr inbounds %"class.std::vector.9", %"class.std::vector.9"* %0, i64 0, i32 0
  %3 = getelementptr inbounds %"class.std::vector.9", %"class.std::vector.9"* %0, i64 0, i32 0, i32 0, i32 0, i32 0
  %4 = load %"class.std::set"*, %"class.std::set"** %3, align 8, !tbaa !5
  %5 = getelementptr inbounds %"class.std::vector.9", %"class.std::vector.9"* %0, i64 0, i32 0, i32 0, i32 0, i32 1
  %6 = load %"class.std::set"*, %"class.std::set"** %5, align 8, !tbaa !10
  invoke void @_ZNSt12_Destroy_auxILb0EE9__destroyIPSt3setIxSt4lessIxESaIxEEEEvT_S8_(%"class.std::set"* %4, %"class.std::set"* %6) #27
          to label %7 unwind label %8

7:                                                ; preds = %1
  tail call void @_ZNSt12_Vector_baseISt3setIxSt4lessIxESaIxEESaIS4_EED2Ev(%"struct.std::_Vector_base.10"* nonnull align 8 dereferenceable(24) %2) #26
  ret void

8:                                                ; preds = %1
  %9 = landingpad { i8*, i32 }
          catch i8* null
  %10 = extractvalue { i8*, i32 } %9, 0
  tail call void @_ZNSt12_Vector_baseISt3setIxSt4lessIxESaIxEESaIS4_EED2Ev(%"struct.std::_Vector_base.10"* nonnull align 8 dereferenceable(24) %2) #26
  tail call void @__clang_call_terminate(i8* %10) #28
  unreachable
}

; Function Attrs: minsize optsize sspstrong uwtable
define dso_local i64 @_Z4calcxx(i64 %0, i64 %1) local_unnamed_addr #5 {
  %3 = alloca i64, align 8
  store i64 %0, i64* %3, align 8, !tbaa !11
  br label %4

4:                                                ; preds = %9, %2
  %5 = phi i64 [ 0, %2 ], [ %24, %9 ]
  %6 = phi i64 [ 0, %2 ], [ %23, %9 ]
  %7 = icmp eq i64 %5, 26
  br i1 %7, label %8, label %9

8:                                                ; preds = %4
  ret i64 %6

9:                                                ; preds = %4
  %10 = load %"class.std::set"*, %"class.std::set"** getelementptr inbounds (%"class.std::vector.9", %"class.std::vector.9"* @alp, i64 0, i32 0, i32 0, i32 0, i32 0), align 8, !tbaa !5
  %11 = getelementptr inbounds %"class.std::set", %"class.std::set"* %10, i64 %5, i32 0
  %12 = call %"struct.std::_Rb_tree_node_base"* @_ZNSt8_Rb_treeIxxSt9_IdentityIxESt4lessIxESaIxEE11lower_boundERKx(%"class.std::_Rb_tree"* nonnull align 8 dereferenceable(48) %11, i64* nonnull align 8 dereferenceable(8) %3) #27
  %13 = load i64, i64* %3, align 8, !tbaa !11
  %14 = getelementptr inbounds %"struct.std::_Rb_tree_node_base", %"struct.std::_Rb_tree_node_base"* %12, i64 1
  %15 = bitcast %"struct.std::_Rb_tree_node_base"* %14 to i64*
  %16 = load i64, i64* %15, align 8, !tbaa !11
  %17 = icmp sle i64 %13, %16
  %18 = icmp sle i64 %16, %1
  %19 = select i1 %17, i1 %18, i1 false
  %20 = icmp ne i64 %16, 0
  %21 = and i1 %20, %19
  %22 = zext i1 %21 to i64
  %23 = add nuw nsw i64 %6, %22
  %24 = add nuw nsw i64 %5, 1
  br label %4, !llvm.loop !13
}

; Function Attrs: argmemonly mustprogress nofree nounwind willreturn
declare void @llvm.memcpy.p0i8.p0i8.i64(i8* noalias nocapture writeonly, i8* noalias nocapture readonly, i64, i1 immarg) #6

; Function Attrs: minsize optsize sspstrong uwtable
define dso_local void @_Z3delxc(i64 %0, i8 signext %1) local_unnamed_addr #5 {
  %3 = alloca i64, align 8
  store i64 %0, i64* %3, align 8, !tbaa !11
  br label %4

4:                                                ; preds = %13, %2
  %5 = phi i64 [ 0, %2 ], [ %17, %13 ]
  %6 = icmp eq i64 %5, 26
  br i1 %6, label %7, label %13

7:                                                ; preds = %4
  %8 = sext i8 %1 to i64
  %9 = add nsw i64 %8, -97
  %10 = load %"class.std::set"*, %"class.std::set"** getelementptr inbounds (%"class.std::vector.9", %"class.std::vector.9"* @alp, i64 0, i32 0, i32 0, i32 0, i32 0), align 8, !tbaa !5
  %11 = getelementptr inbounds %"class.std::set", %"class.std::set"* %10, i64 %9, i32 0
  %12 = call { %"struct.std::_Rb_tree_node_base"*, i8 } @_ZNSt8_Rb_treeIxxSt9_IdentityIxESt4lessIxESaIxEE16_M_insert_uniqueIRKxEESt4pairISt17_Rb_tree_iteratorIxEbEOT_(%"class.std::_Rb_tree"* nonnull align 8 dereferenceable(48) %11, i64* nonnull align 8 dereferenceable(8) %3) #27
  ret void

13:                                               ; preds = %4
  %14 = load %"class.std::set"*, %"class.std::set"** getelementptr inbounds (%"class.std::vector.9", %"class.std::vector.9"* @alp, i64 0, i32 0, i32 0, i32 0, i32 0), align 8, !tbaa !5
  %15 = getelementptr inbounds %"class.std::set", %"class.std::set"* %14, i64 %5, i32 0
  %16 = call i64 @_ZNSt8_Rb_treeIxxSt9_IdentityIxESt4lessIxESaIxEE5eraseERKx(%"class.std::_Rb_tree"* nonnull align 8 dereferenceable(48) %15, i64* nonnull align 8 dereferenceable(8) %3) #27
  %17 = add nuw nsw i64 %5, 1
  br label %4, !llvm.loop !15
}

; Function Attrs: minsize norecurse optsize sspstrong uwtable
define dso_local i32 @main(i32 %0, i8** nocapture readnone %1) local_unnamed_addr #7 personality i8* bitcast (i32 (...)* @__gxx_personality_v0 to i8*) {
  %3 = alloca %"class.std::__cxx11::basic_string", align 8
  %4 = alloca i64, align 8
  %5 = alloca i64, align 8
  %6 = alloca i64, align 8
  %7 = alloca i64, align 8
  %8 = alloca i8, align 1
  %9 = alloca i64, align 8
  %10 = alloca i64, align 8
  %11 = load i8*, i8** bitcast (%"class.std::basic_istream"* @_ZSt3cin to i8**), align 8, !tbaa !16
  %12 = getelementptr i8, i8* %11, i64 -24
  %13 = bitcast i8* %12 to i64*
  %14 = load i64, i64* %13, align 8
  %15 = add nsw i64 %14, 216
  %16 = getelementptr inbounds i8, i8* bitcast (%"class.std::basic_istream"* @_ZSt3cin to i8*), i64 %15
  %17 = bitcast i8* %16 to %"class.std::basic_ostream"**
  store %"class.std::basic_ostream"* null, %"class.std::basic_ostream"** %17, align 8, !tbaa !18
  %18 = tail call zeroext i1 @_ZNSt8ios_base15sync_with_stdioEb(i1 zeroext false) #27
  %19 = bitcast %"class.std::__cxx11::basic_string"* %3 to i8*
  call void @llvm.lifetime.start.p0i8(i64 32, i8* nonnull %19) #29
  %20 = getelementptr inbounds %"class.std::__cxx11::basic_string", %"class.std::__cxx11::basic_string"* %3, i64 0, i32 2
  %21 = bitcast %"class.std::__cxx11::basic_string"* %3 to %union.anon**
  store %union.anon* %20, %union.anon** %21, align 8, !tbaa !21
  %22 = getelementptr inbounds %"class.std::__cxx11::basic_string", %"class.std::__cxx11::basic_string"* %3, i64 0, i32 1
  store i64 0, i64* %22, align 8, !tbaa !23
  %23 = bitcast %union.anon* %20 to i8*
  store i8 0, i8* %23, align 8, !tbaa !26
  %24 = bitcast i64* %4 to i8*
  call void @llvm.lifetime.start.p0i8(i64 8, i8* nonnull %24) #29
  %25 = invoke nonnull align 8 dereferenceable(16) %"class.std::basic_istream"* @_ZNSi10_M_extractIxEERSiRT_(%"class.std::basic_istream"* nonnull align 8 dereferenceable(16) @_ZSt3cin, i64* nonnull align 8 dereferenceable(8) @N) #27
          to label %26 unwind label %42

26:                                               ; preds = %2
  %27 = invoke nonnull align 8 dereferenceable(16) %"class.std::basic_istream"* @_ZStrsIcSt11char_traitsIcESaIcEERSt13basic_istreamIT_T0_ES7_RNSt7__cxx1112basic_stringIS4_S5_T1_EE(%"class.std::basic_istream"* nonnull align 8 dereferenceable(16) %25, %"class.std::__cxx11::basic_string"* nonnull align 8 dereferenceable(32) %3) #27
          to label %28 unwind label %42

28:                                               ; preds = %26
  %29 = invoke nonnull align 8 dereferenceable(16) %"class.std::basic_istream"* @_ZNSi10_M_extractIxEERSiRT_(%"class.std::basic_istream"* nonnull align 8 dereferenceable(16) %27, i64* nonnull align 8 dereferenceable(8) %4) #27
          to label %30 unwind label %42

30:                                               ; preds = %28
  %31 = getelementptr inbounds %"class.std::__cxx11::basic_string", %"class.std::__cxx11::basic_string"* %3, i64 0, i32 0, i32 0
  %32 = bitcast i64* %5 to i8*
  br label %33

33:                                               ; preds = %30, %54
  %34 = phi i64 [ %51, %54 ], [ 0, %30 ]
  %35 = load i64, i64* @N, align 8, !tbaa !11
  %36 = icmp slt i64 %34, %35
  br i1 %36, label %44, label %37

37:                                               ; preds = %33
  %38 = bitcast i64* %6 to i8*
  %39 = bitcast i64* %9 to i8*
  %40 = bitcast i64* %10 to i8*
  %41 = bitcast i64* %7 to i8*
  br label %57

42:                                               ; preds = %28, %2, %26
  %43 = landingpad { i8*, i32 }
          cleanup
  br label %97

44:                                               ; preds = %33
  %45 = load i8*, i8** %31, align 8, !tbaa !27
  %46 = getelementptr inbounds i8, i8* %45, i64 %34
  %47 = load i8, i8* %46, align 1, !tbaa !26
  %48 = sext i8 %47 to i64
  %49 = add nsw i64 %48, -97
  %50 = load %"class.std::set"*, %"class.std::set"** getelementptr inbounds (%"class.std::vector.9", %"class.std::vector.9"* @alp, i64 0, i32 0, i32 0, i32 0, i32 0), align 8, !tbaa !5
  call void @llvm.lifetime.start.p0i8(i64 8, i8* nonnull %32) #29
  %51 = add nuw nsw i64 %34, 1
  store i64 %51, i64* %5, align 8, !tbaa !11
  %52 = getelementptr inbounds %"class.std::set", %"class.std::set"* %50, i64 %49, i32 0
  %53 = invoke { %"struct.std::_Rb_tree_node_base"*, i8 } @_ZNSt8_Rb_treeIxxSt9_IdentityIxESt4lessIxESaIxEE16_M_insert_uniqueIxEESt4pairISt17_Rb_tree_iteratorIxEbEOT_(%"class.std::_Rb_tree"* nonnull align 8 dereferenceable(48) %52, i64* nonnull align 8 dereferenceable(8) %5) #27
          to label %54 unwind label %55

54:                                               ; preds = %44
  call void @llvm.lifetime.end.p0i8(i64 8, i8* nonnull %32) #29
  br label %33, !llvm.loop !28

55:                                               ; preds = %44
  %56 = landingpad { i8*, i32 }
          cleanup
  call void @llvm.lifetime.end.p0i8(i64 8, i8* nonnull %32) #29
  br label %97

57:                                               ; preds = %37, %93
  %58 = phi i64 [ %94, %93 ], [ 0, %37 ]
  %59 = load i64, i64* %4, align 8, !tbaa !11
  %60 = icmp slt i64 %58, %59
  br i1 %60, label %62, label %61

61:                                               ; preds = %57
  call void @llvm.lifetime.end.p0i8(i64 8, i8* nonnull %24) #29
  call void @_ZNSt7__cxx1112basic_stringIcSt11char_traitsIcESaIcEED2Ev(%"class.std::__cxx11::basic_string"* nonnull align 8 dereferenceable(32) %3) #26
  call void @llvm.lifetime.end.p0i8(i64 32, i8* nonnull %19) #29
  ret i32 0

62:                                               ; preds = %57
  call void @llvm.lifetime.start.p0i8(i64 8, i8* nonnull %38) #29
  %63 = invoke nonnull align 8 dereferenceable(16) %"class.std::basic_istream"* @_ZNSi10_M_extractIxEERSiRT_(%"class.std::basic_istream"* nonnull align 8 dereferenceable(16) @_ZSt3cin, i64* nonnull align 8 dereferenceable(8) %6) #27
          to label %64 unwind label %74

64:                                               ; preds = %62
  %65 = load i64, i64* %6, align 8, !tbaa !11
  switch i64 %65, label %93 [
    i64 1, label %66
    i64 2, label %78
  ]

66:                                               ; preds = %64
  call void @llvm.lifetime.start.p0i8(i64 8, i8* nonnull %41) #29
  call void @llvm.lifetime.start.p0i8(i64 1, i8* nonnull %8) #29
  %67 = invoke nonnull align 8 dereferenceable(16) %"class.std::basic_istream"* @_ZNSi10_M_extractIxEERSiRT_(%"class.std::basic_istream"* nonnull align 8 dereferenceable(16) @_ZSt3cin, i64* nonnull align 8 dereferenceable(8) %7) #27
          to label %68 unwind label %76

68:                                               ; preds = %66
  %69 = invoke nonnull align 8 dereferenceable(16) %"class.std::basic_istream"* @_ZStrsIcSt11char_traitsIcEERSt13basic_istreamIT_T0_ES6_RS3_(%"class.std::basic_istream"* nonnull align 8 dereferenceable(16) %67, i8* nonnull align 1 dereferenceable(1) %8) #27
          to label %70 unwind label %76

70:                                               ; preds = %68
  %71 = load i64, i64* %7, align 8, !tbaa !11
  %72 = load i8, i8* %8, align 1, !tbaa !26
  invoke void @_Z3delxc(i64 %71, i8 signext %72) #27
          to label %73 unwind label %76

73:                                               ; preds = %70
  call void @llvm.lifetime.end.p0i8(i64 1, i8* nonnull %8) #29
  call void @llvm.lifetime.end.p0i8(i64 8, i8* nonnull %41) #29
  br label %93

74:                                               ; preds = %62
  %75 = landingpad { i8*, i32 }
          cleanup
  br label %95

76:                                               ; preds = %66, %70, %68
  %77 = landingpad { i8*, i32 }
          cleanup
  call void @llvm.lifetime.end.p0i8(i64 1, i8* nonnull %8) #29
  call void @llvm.lifetime.end.p0i8(i64 8, i8* nonnull %41) #29
  br label %95

78:                                               ; preds = %64
  call void @llvm.lifetime.start.p0i8(i64 8, i8* nonnull %39) #29
  call void @llvm.lifetime.start.p0i8(i64 8, i8* nonnull %40) #29
  %79 = invoke nonnull align 8 dereferenceable(16) %"class.std::basic_istream"* @_ZNSi10_M_extractIxEERSiRT_(%"class.std::basic_istream"* nonnull align 8 dereferenceable(16) @_ZSt3cin, i64* nonnull align 8 dereferenceable(8) %9) #27
          to label %80 unwind label %91

80:                                               ; preds = %78
  %81 = invoke nonnull align 8 dereferenceable(16) %"class.std::basic_istream"* @_ZNSi10_M_extractIxEERSiRT_(%"class.std::basic_istream"* nonnull align 8 dereferenceable(16) %79, i64* nonnull align 8 dereferenceable(8) %10) #27
          to label %82 unwind label %91

82:                                               ; preds = %80
  %83 = load i64, i64* %9, align 8, !tbaa !11
  %84 = load i64, i64* %10, align 8, !tbaa !11
  %85 = invoke i64 @_Z4calcxx(i64 %83, i64 %84) #27
          to label %86 unwind label %91

86:                                               ; preds = %82
  %87 = invoke nonnull align 8 dereferenceable(8) %"class.std::basic_ostream"* @_ZNSo9_M_insertIxEERSoT_(%"class.std::basic_ostream"* nonnull align 8 dereferenceable(8) @_ZSt4cout, i64 %85) #27
          to label %88 unwind label %91

88:                                               ; preds = %86
  %89 = invoke nonnull align 8 dereferenceable(8) %"class.std::basic_ostream"* @_ZSt4endlIcSt11char_traitsIcEERSt13basic_ostreamIT_T0_ES6_(%"class.std::basic_ostream"* nonnull align 8 dereferenceable(8) %87) #27
          to label %90 unwind label %91

90:                                               ; preds = %88
  call void @llvm.lifetime.end.p0i8(i64 8, i8* nonnull %40) #29
  call void @llvm.lifetime.end.p0i8(i64 8, i8* nonnull %39) #29
  br label %93

91:                                               ; preds = %88, %86, %80, %78, %82
  %92 = landingpad { i8*, i32 }
          cleanup
  call void @llvm.lifetime.end.p0i8(i64 8, i8* nonnull %40) #29
  call void @llvm.lifetime.end.p0i8(i64 8, i8* nonnull %39) #29
  br label %95

93:                                               ; preds = %64, %90, %73
  call void @llvm.lifetime.end.p0i8(i64 8, i8* nonnull %38) #29
  %94 = add nuw nsw i64 %58, 1
  br label %57, !llvm.loop !29

95:                                               ; preds = %91, %76, %74
  %96 = phi { i8*, i32 } [ %77, %76 ], [ %92, %91 ], [ %75, %74 ]
  call void @llvm.lifetime.end.p0i8(i64 8, i8* nonnull %38) #29
  br label %97

97:                                               ; preds = %95, %55, %42
  %98 = phi { i8*, i32 } [ %56, %55 ], [ %96, %95 ], [ %43, %42 ]
  call void @llvm.lifetime.end.p0i8(i64 8, i8* nonnull %24) #29
  call void @_ZNSt7__cxx1112basic_stringIcSt11char_traitsIcESaIcEED2Ev(%"class.std::__cxx11::basic_string"* nonnull align 8 dereferenceable(32) %3) #26
  call void @llvm.lifetime.end.p0i8(i64 32, i8* nonnull %19) #29
  resume { i8*, i32 } %98
}

; Function Attrs: minsize optsize
declare zeroext i1 @_ZNSt8ios_base15sync_with_stdioEb(i1 zeroext) local_unnamed_addr #0

; Function Attrs: minsize optsize
declare nonnull align 8 dereferenceable(16) %"class.std::basic_istream"* @_ZStrsIcSt11char_traitsIcESaIcEERSt13basic_istreamIT_T0_ES7_RNSt7__cxx1112basic_stringIS4_S5_T1_EE(%"class.std::basic_istream"* nonnull align 8 dereferenceable(16), %"class.std::__cxx11::basic_string"* nonnull align 8 dereferenceable(32)) local_unnamed_addr #0

; Function Attrs: minsize optsize
declare nonnull align 8 dereferenceable(16) %"class.std::basic_istream"* @_ZStrsIcSt11char_traitsIcEERSt13basic_istreamIT_T0_ES6_RS3_(%"class.std::basic_istream"* nonnull align 8 dereferenceable(16), i8* nonnull align 1 dereferenceable(1)) local_unnamed_addr #0

; Function Attrs: inlinehint minsize mustprogress optsize sspstrong uwtable
declare nonnull align 8 dereferenceable(8) %"class.std::basic_ostream"* @_ZSt4endlIcSt11char_traitsIcEERSt13basic_ostreamIT_T0_ES6_(%"class.std::basic_ostream"* nonnull align 8 dereferenceable(8)) local_unnamed_addr #8

; Function Attrs: minsize nounwind optsize sspstrong uwtable
declare void @_ZNSt7__cxx1112basic_stringIcSt11char_traitsIcESaIcEED2Ev(%"class.std::__cxx11::basic_string"* nonnull align 8 dereferenceable(32)) unnamed_addr #3 align 2

; Function Attrs: minsize mustprogress optsize sspstrong uwtable
define dso_local void @_Z12printDV_PairRSt6vectorIS_ISt4pairIxxESaIS1_EESaIS3_EE(%"class.std::vector.23"* nocapture nonnull readonly align 8 dereferenceable(24) %0) local_unnamed_addr #9 {
  %2 = getelementptr inbounds %"class.std::vector.23", %"class.std::vector.23"* %0, i64 0, i32 0, i32 0, i32 0, i32 1
  %3 = getelementptr inbounds %"class.std::vector.23", %"class.std::vector.23"* %0, i64 0, i32 0, i32 0, i32 0, i32 0
  br label %4

4:                                                ; preds = %33, %1
  %5 = phi i64 [ 0, %1 ], [ %35, %33 ]
  %6 = load %"class.std::vector.4"*, %"class.std::vector.4"** %2, align 8, !tbaa !30
  %7 = load %"class.std::vector.4"*, %"class.std::vector.4"** %3, align 8, !tbaa !32
  %8 = ptrtoint %"class.std::vector.4"* %6 to i64
  %9 = ptrtoint %"class.std::vector.4"* %7 to i64
  %10 = sub i64 %8, %9
  %11 = sdiv exact i64 %10, 24
  %12 = shl i64 %11, 32
  %13 = ashr exact i64 %12, 32
  %14 = icmp slt i64 %5, %13
  br i1 %14, label %17, label %15

15:                                               ; preds = %4
  %16 = tail call nonnull align 8 dereferenceable(8) %"class.std::basic_ostream"* @_ZSt4endlIcSt11char_traitsIcEERSt13basic_ostreamIT_T0_ES6_(%"class.std::basic_ostream"* nonnull align 8 dereferenceable(8) @_ZSt4cout) #27
  ret void

17:                                               ; preds = %4
  %18 = tail call nonnull align 8 dereferenceable(8) %"class.std::basic_ostream"* @_ZNSo9_M_insertIxEERSoT_(%"class.std::basic_ostream"* nonnull align 8 dereferenceable(8) @_ZSt4cout, i64 %5) #27
  %19 = tail call nonnull align 8 dereferenceable(8) %"class.std::basic_ostream"* @_ZSt4endlIcSt11char_traitsIcEERSt13basic_ostreamIT_T0_ES6_(%"class.std::basic_ostream"* nonnull align 8 dereferenceable(8) %18) #27
  br label %20

20:                                               ; preds = %36, %17
  %21 = phi i64 [ 0, %17 ], [ %48, %36 ]
  %22 = load %"class.std::vector.4"*, %"class.std::vector.4"** %3, align 8, !tbaa !32
  %23 = getelementptr inbounds %"class.std::vector.4", %"class.std::vector.4"* %22, i64 %5, i32 0, i32 0, i32 0, i32 1
  %24 = load %"struct.std::pair"*, %"struct.std::pair"** %23, align 8, !tbaa !33
  %25 = getelementptr inbounds %"class.std::vector.4", %"class.std::vector.4"* %22, i64 %5, i32 0, i32 0, i32 0, i32 0
  %26 = load %"struct.std::pair"*, %"struct.std::pair"** %25, align 8, !tbaa !35
  %27 = ptrtoint %"struct.std::pair"* %24 to i64
  %28 = ptrtoint %"struct.std::pair"* %26 to i64
  %29 = sub i64 %27, %28
  %30 = shl i64 %29, 28
  %31 = ashr exact i64 %30, 32
  %32 = icmp slt i64 %21, %31
  br i1 %32, label %36, label %33

33:                                               ; preds = %20
  %34 = tail call nonnull align 8 dereferenceable(8) %"class.std::basic_ostream"* @_ZSt4endlIcSt11char_traitsIcEERSt13basic_ostreamIT_T0_ES6_(%"class.std::basic_ostream"* nonnull align 8 dereferenceable(8) @_ZSt4cout) #27
  %35 = add nuw nsw i64 %5, 1
  br label %4, !llvm.loop !36

36:                                               ; preds = %20
  %37 = getelementptr inbounds %"struct.std::pair", %"struct.std::pair"* %26, i64 %21, i32 0
  %38 = load i64, i64* %37, align 8, !tbaa !37
  %39 = tail call nonnull align 8 dereferenceable(8) %"class.std::basic_ostream"* @_ZNSo9_M_insertIxEERSoT_(%"class.std::basic_ostream"* nonnull align 8 dereferenceable(8) @_ZSt4cout, i64 %38) #27
  %40 = tail call nonnull align 8 dereferenceable(8) %"class.std::basic_ostream"* @_ZStlsISt11char_traitsIcEERSt13basic_ostreamIcT_ES5_PKc(%"class.std::basic_ostream"* nonnull align 8 dereferenceable(8) %39, i8* getelementptr inbounds ([2 x i8], [2 x i8]* @.str, i64 0, i64 0)) #27
  %41 = load %"class.std::vector.4"*, %"class.std::vector.4"** %3, align 8, !tbaa !32
  %42 = getelementptr inbounds %"class.std::vector.4", %"class.std::vector.4"* %41, i64 %5, i32 0, i32 0, i32 0, i32 0
  %43 = load %"struct.std::pair"*, %"struct.std::pair"** %42, align 8, !tbaa !35
  %44 = getelementptr inbounds %"struct.std::pair", %"struct.std::pair"* %43, i64 %21, i32 1
  %45 = load i64, i64* %44, align 8, !tbaa !39
  %46 = tail call nonnull align 8 dereferenceable(8) %"class.std::basic_ostream"* @_ZNSo9_M_insertIxEERSoT_(%"class.std::basic_ostream"* nonnull align 8 dereferenceable(8) %40, i64 %45) #27
  %47 = tail call nonnull align 8 dereferenceable(8) %"class.std::basic_ostream"* @_ZSt4endlIcSt11char_traitsIcEERSt13basic_ostreamIT_T0_ES6_(%"class.std::basic_ostream"* nonnull align 8 dereferenceable(8) %46) #27
  %48 = add nuw nsw i64 %21, 1
  br label %20, !llvm.loop !40
}

; Function Attrs: inlinehint minsize mustprogress optsize sspstrong uwtable
declare nonnull align 8 dereferenceable(8) %"class.std::basic_ostream"* @_ZStlsISt11char_traitsIcEERSt13basic_ostreamIcT_ES5_PKc(%"class.std::basic_ostream"* nonnull align 8 dereferenceable(8), i8*) local_unnamed_addr #8

; Function Attrs: minsize optsize sspstrong uwtable
define dso_local void @_Z8printSetRSt3setIxSt4lessIxESaIxEE(%"class.std::set"* nonnull align 8 dereferenceable(48) %0) local_unnamed_addr #5 {
  %2 = getelementptr inbounds %"class.std::set", %"class.std::set"* %0, i64 0, i32 0, i32 0, i32 0, i32 0, i32 0
  %3 = getelementptr inbounds i8, i8* %2, i64 24
  %4 = bitcast i8* %3 to %"struct.std::_Rb_tree_node_base"**
  %5 = load %"struct.std::_Rb_tree_node_base"*, %"struct.std::_Rb_tree_node_base"** %4, align 8, !tbaa !41
  %6 = getelementptr inbounds i8, i8* %2, i64 8
  %7 = bitcast i8* %6 to %"struct.std::_Rb_tree_node_base"*
  br label %8

8:                                                ; preds = %23, %1
  %9 = phi %"struct.std::_Rb_tree_node_base"* [ %5, %1 ], [ %24, %23 ]
  %10 = icmp eq %"struct.std::_Rb_tree_node_base"* %9, %7
  br i1 %10, label %11, label %12

11:                                               ; preds = %8
  ret void

12:                                               ; preds = %8
  %13 = tail call %"struct.std::_Rb_tree_node_base"* @_ZSt18_Rb_tree_decrementPKSt18_Rb_tree_node_base(%"struct.std::_Rb_tree_node_base"* nonnull %7) #30
  %14 = icmp eq %"struct.std::_Rb_tree_node_base"* %9, %13
  %15 = getelementptr inbounds %"struct.std::_Rb_tree_node_base", %"struct.std::_Rb_tree_node_base"* %9, i64 1
  %16 = bitcast %"struct.std::_Rb_tree_node_base"* %15 to i64*
  %17 = load i64, i64* %16, align 8, !tbaa !11
  %18 = tail call nonnull align 8 dereferenceable(8) %"class.std::basic_ostream"* @_ZNSo9_M_insertIxEERSoT_(%"class.std::basic_ostream"* nonnull align 8 dereferenceable(8) @_ZSt4cout, i64 %17) #27
  br i1 %14, label %21, label %19

19:                                               ; preds = %12
  %20 = tail call nonnull align 8 dereferenceable(8) %"class.std::basic_ostream"* @_ZStlsISt11char_traitsIcEERSt13basic_ostreamIcT_ES5_PKc(%"class.std::basic_ostream"* nonnull align 8 dereferenceable(8) %18, i8* getelementptr inbounds ([2 x i8], [2 x i8]* @.str, i64 0, i64 0)) #27
  br label %23

21:                                               ; preds = %12
  %22 = tail call nonnull align 8 dereferenceable(8) %"class.std::basic_ostream"* @_ZSt4endlIcSt11char_traitsIcEERSt13basic_ostreamIT_T0_ES6_(%"class.std::basic_ostream"* nonnull align 8 dereferenceable(8) %18) #27
  br label %23

23:                                               ; preds = %19, %21
  %24 = tail call %"struct.std::_Rb_tree_node_base"* @_ZSt18_Rb_tree_incrementPKSt18_Rb_tree_node_base(%"struct.std::_Rb_tree_node_base"* nonnull %9) #30
  br label %8, !llvm.loop !45
}

; Function Attrs: minsize mustprogress nofree norecurse nosync nounwind optsize readnone sspstrong uwtable willreturn
define dso_local i64 @_Z7factor2x(i64 %0) local_unnamed_addr #10 {
  br label %2

2:                                                ; preds = %7, %1
  %3 = phi i64 [ %0, %1 ], [ %8, %7 ]
  %4 = phi i32 [ 0, %1 ], [ %9, %7 ]
  %5 = and i64 %3, 1
  %6 = icmp eq i64 %5, 0
  br i1 %6, label %7, label %10

7:                                                ; preds = %2
  %8 = sdiv i64 %3, 2
  %9 = add nuw nsw i32 %4, 1
  br label %2, !llvm.loop !46

10:                                               ; preds = %2
  %11 = zext i32 %4 to i64
  ret i64 %11
}

; Function Attrs: minsize mustprogress nofree norecurse nosync nounwind optsize readnone sspstrong uwtable willreturn
define dso_local i64 @_Z11combinationxx(i64 %0, i64 %1) local_unnamed_addr #10 {
  %3 = icmp eq i64 %0, 0
  %4 = icmp eq i64 %1, 0
  %5 = select i1 %3, i1 true, i1 %4
  %6 = icmp slt i64 %0, %1
  %7 = select i1 %5, i1 true, i1 %6
  br i1 %7, label %31, label %8

8:                                                ; preds = %2
  %9 = sdiv i64 %0, 2
  %10 = icmp sgt i64 %9, %1
  %11 = sub nsw i64 %0, %1
  %12 = select i1 %10, i64 %1, i64 %11
  %13 = icmp eq i64 %12, 0
  br i1 %13, label %31, label %14

14:                                               ; preds = %8
  %15 = call i64 @llvm.smax.i64(i64 %12, i64 0)
  br label %16

16:                                               ; preds = %14, %25
  %17 = phi i64 [ %26, %25 ], [ 1, %14 ]
  %18 = phi i64 [ %28, %25 ], [ 1, %14 ]
  %19 = phi i64 [ %27, %25 ], [ %0, %14 ]
  %20 = phi i64 [ %29, %25 ], [ %12, %14 ]
  %21 = phi i64 [ %30, %25 ], [ 0, %14 ]
  %22 = icmp eq i64 %21, %15
  br i1 %22, label %23, label %25

23:                                               ; preds = %16
  %24 = sdiv i64 %17, %18
  br label %31

25:                                               ; preds = %16
  %26 = mul nsw i64 %19, %17
  %27 = add nsw i64 %19, -1
  %28 = mul nsw i64 %20, %18
  %29 = add nsw i64 %20, -1
  %30 = add nuw i64 %21, 1
  br label %16, !llvm.loop !47

31:                                               ; preds = %23, %8, %2
  %32 = phi i64 [ 0, %2 ], [ %24, %23 ], [ 1, %8 ]
  ret i64 %32
}

; Function Attrs: minsize mustprogress optsize sspstrong uwtable
define dso_local i32 @_Z9factorialii(i32 %0, i32 %1) local_unnamed_addr #9 {
  %3 = icmp slt i32 %0, %1
  br i1 %3, label %4, label %7

4:                                                ; preds = %2
  %5 = tail call nonnull align 8 dereferenceable(8) %"class.std::basic_ostream"* @_ZStlsISt11char_traitsIcEERSt13basic_ostreamIcT_ES5_PKc(%"class.std::basic_ostream"* nonnull align 8 dereferenceable(8) @_ZSt4cout, i8* getelementptr inbounds ([6 x i8], [6 x i8]* @.str.7, i64 0, i64 0)) #27
  %6 = tail call nonnull align 8 dereferenceable(8) %"class.std::basic_ostream"* @_ZSt4endlIcSt11char_traitsIcEERSt13basic_ostreamIT_T0_ES6_(%"class.std::basic_ostream"* nonnull align 8 dereferenceable(8) %5) #27
  br label %16

7:                                                ; preds = %2, %12
  %8 = phi i32 [ %15, %12 ], [ %0, %2 ]
  %9 = phi i32 [ %13, %12 ], [ %1, %2 ]
  %10 = phi i32 [ %14, %12 ], [ 1, %2 ]
  %11 = icmp eq i32 %9, 0
  br i1 %11, label %16, label %12

12:                                               ; preds = %7
  %13 = add nsw i32 %9, -1
  %14 = mul nsw i32 %10, %8
  %15 = add nsw i32 %8, -1
  br label %7, !llvm.loop !48

16:                                               ; preds = %7, %4
  %17 = phi i32 [ 0, %4 ], [ %10, %7 ]
  ret i32 %17
}

; Function Attrs: minsize mustprogress nofree norecurse nosync nounwind optsize readnone sspstrong uwtable willreturn
define dso_local i64 @_Z11find_digitsx(i64 %0) local_unnamed_addr #10 {
  br label %2

2:                                                ; preds = %6, %1
  %3 = phi i64 [ %0, %1 ], [ %7, %6 ]
  %4 = phi i32 [ 0, %1 ], [ %8, %6 ]
  %5 = icmp eq i64 %3, 0
  br i1 %5, label %9, label %6

6:                                                ; preds = %2
  %7 = sdiv i64 %3, 10
  %8 = add nuw nsw i32 %4, 1
  br label %2, !llvm.loop !49

9:                                                ; preds = %2
  %10 = zext i32 %4 to i64
  ret i64 %10
}

; Function Attrs: minsize mustprogress nofree norecurse nosync nounwind optsize readnone sspstrong uwtable willreturn
define dso_local i32 @_Z15findSumOfDigitsi(i32 %0) local_unnamed_addr #10 {
  br label %2

2:                                                ; preds = %6, %1
  %3 = phi i32 [ %0, %1 ], [ %9, %6 ]
  %4 = phi i32 [ 0, %1 ], [ %8, %6 ]
  %5 = icmp sgt i32 %3, 0
  br i1 %5, label %6, label %10

6:                                                ; preds = %2
  %7 = urem i32 %3, 10
  %8 = add nuw nsw i32 %4, %7
  %9 = udiv i32 %3, 10
  br label %2, !llvm.loop !50

10:                                               ; preds = %2
  ret i32 %4
}

; Function Attrs: minsize mustprogress nofree norecurse nosync nounwind optsize readnone sspstrong uwtable willreturn
define dso_local i32 @_Z6degreei(i32 %0) local_unnamed_addr #10 {
  br label %2

2:                                                ; preds = %6, %1
  %3 = phi i32 [ %0, %1 ], [ %7, %6 ]
  %4 = phi i32 [ 0, %1 ], [ %8, %6 ]
  %5 = icmp sgt i32 %3, 1
  br i1 %5, label %6, label %9

6:                                                ; preds = %2
  %7 = lshr i32 %3, 1
  %8 = add nuw nsw i32 %4, 1
  br label %2, !llvm.loop !51

9:                                                ; preds = %2
  ret i32 %4
}

; Function Attrs: minsize mustprogress nofree norecurse nosync nounwind optsize readnone sspstrong uwtable willreturn
define dso_local i32 @_Z11shishagonyud(double %0) local_unnamed_addr #10 {
  %2 = fcmp olt double %0, 0.000000e+00
  %3 = select i1 %2, double -5.000000e-01, double 5.000000e-01
  %4 = fadd double %3, %0
  %5 = fptosi double %4 to i32
  ret i32 %5
}

; Function Attrs: minsize mustprogress nofree norecurse nosync nounwind optsize readnone sspstrong uwtable willreturn
define dso_local i32 @_Z7roundUpd(double %0) local_unnamed_addr #10 {
  %2 = fcmp ult double %0, 0.000000e+00
  %3 = fptosi double %0 to i32
  %4 = select i1 %2, i32 -1, i32 1
  %5 = add nsw i32 %4, %3
  ret i32 %5
}

; Function Attrs: minsize mustprogress nofree norecurse nosync nounwind optsize readnone sspstrong uwtable willreturn
define dso_local i32 @_Z9roundDownd(double %0) local_unnamed_addr #10 {
  %2 = fptosi double %0 to i32
  ret i32 %2
}

; Function Attrs: minsize mustprogress nofree norecurse nosync nounwind optsize readnone sspstrong uwtable willreturn
define dso_local i32 @_Z8roundOffd(double %0) local_unnamed_addr #10 {
  %2 = fptosi double %0 to i32
  %3 = sitofp i32 %2 to double
  %4 = fsub double %0, %3
  %5 = fcmp oge double %4, 5.000000e-01
  %6 = fcmp ole double %4, -5.000000e-01
  %7 = or i1 %5, %6
  %8 = fcmp ult double %0, 0.000000e+00
  %9 = select i1 %8, i32 -1, i32 1
  %10 = select i1 %7, i32 %9, i32 0
  %11 = add nsw i32 %10, %2
  ret i32 %11
}

; Function Attrs: minsize mustprogress nofree nosync nounwind optsize readnone sspstrong uwtable willreturn
define dso_local i64 @_Z3gcdxx(i64 %0, i64 %1) local_unnamed_addr #11 {
  br label %3

3:                                                ; preds = %7, %2
  %4 = phi i64 [ %0, %2 ], [ %5, %7 ]
  %5 = phi i64 [ %1, %2 ], [ %8, %7 ]
  %6 = icmp eq i64 %5, 0
  br i1 %6, label %9, label %7

7:                                                ; preds = %3
  %8 = srem i64 %4, %5
  br label %3

9:                                                ; preds = %3
  ret i64 %4
}

; Function Attrs: minsize mustprogress nofree norecurse nosync nounwind optsize readnone sspstrong uwtable willreturn
define dso_local i64 @_Z3lcmxx(i64 %0, i64 %1) local_unnamed_addr #10 {
  %3 = icmp eq i64 %0, 0
  %4 = icmp eq i64 %1, 0
  %5 = select i1 %3, i1 true, i1 %4
  br i1 %5, label %15, label %6

6:                                                ; preds = %2, %10
  %7 = phi i64 [ %8, %10 ], [ %0, %2 ]
  %8 = phi i64 [ %11, %10 ], [ %1, %2 ]
  %9 = icmp eq i64 %8, 0
  br i1 %9, label %12, label %10

10:                                               ; preds = %6
  %11 = srem i64 %7, %8
  br label %6

12:                                               ; preds = %6
  %13 = sdiv i64 %0, %7
  %14 = mul nsw i64 %13, %1
  br label %15

15:                                               ; preds = %2, %12
  %16 = phi i64 [ %14, %12 ], [ 0, %2 ]
  ret i64 %16
}

; Function Attrs: minsize mustprogress optsize sspstrong uwtable
define dso_local void @_Z12Eratosthenesx(i64 %0) local_unnamed_addr #9 {
  %2 = alloca i64, align 8
  %3 = alloca %"struct.std::_Bit_reference", align 8
  %4 = alloca %"struct.std::_Bit_reference", align 8
  %5 = alloca i64, align 8
  %6 = add nsw i64 %0, 1
  tail call void @_ZNSt6vectorIbSaIbEE6resizeEmb(%"class.std::vector.0"* nonnull align 8 dereferenceable(40) @isprime, i64 %6, i1 zeroext true) #27
  %7 = bitcast i64* %2 to i8*
  call void @llvm.lifetime.start.p0i8(i64 8, i8* nonnull %7) #29
  store i64 -1, i64* %2, align 8, !tbaa !11
  call void @_ZNSt6vectorIxSaIxEE6resizeEmRKx(%"class.std::vector"* nonnull align 8 dereferenceable(24) @min_factor, i64 %6, i64* nonnull align 8 dereferenceable(8) %2) #27
  call void @llvm.lifetime.end.p0i8(i64 8, i8* nonnull %7) #29
  %8 = bitcast %"struct.std::_Bit_reference"* %3 to i8*
  call void @llvm.lifetime.start.p0i8(i64 16, i8* nonnull %8) #29
  %9 = call { i64*, i64 } @_ZNSt6vectorIbSaIbEEixEm(%"class.std::vector.0"* nonnull align 8 dereferenceable(40) @isprime, i64 1) #27
  %10 = getelementptr inbounds %"struct.std::_Bit_reference", %"struct.std::_Bit_reference"* %3, i64 0, i32 0
  %11 = extractvalue { i64*, i64 } %9, 0
  store i64* %11, i64** %10, align 8
  %12 = getelementptr inbounds %"struct.std::_Bit_reference", %"struct.std::_Bit_reference"* %3, i64 0, i32 1
  %13 = extractvalue { i64*, i64 } %9, 1
  store i64 %13, i64* %12, align 8
  %14 = xor i64 %13, -1
  %15 = load i64, i64* %11, align 8, !tbaa !52
  %16 = and i64 %15, %14
  store i64 %16, i64* %11, align 8, !tbaa !52
  %17 = bitcast %"struct.std::_Bit_reference"* %4 to i8*
  call void @llvm.lifetime.start.p0i8(i64 16, i8* nonnull %17) #29
  %18 = call { i64*, i64 } @_ZNSt6vectorIbSaIbEEixEm(%"class.std::vector.0"* nonnull align 8 dereferenceable(40) @isprime, i64 0) #27
  %19 = getelementptr inbounds %"struct.std::_Bit_reference", %"struct.std::_Bit_reference"* %4, i64 0, i32 0
  %20 = extractvalue { i64*, i64 } %18, 0
  store i64* %20, i64** %19, align 8
  %21 = getelementptr inbounds %"struct.std::_Bit_reference", %"struct.std::_Bit_reference"* %4, i64 0, i32 1
  %22 = extractvalue { i64*, i64 } %18, 1
  store i64 %22, i64* %21, align 8
  %23 = call nonnull align 8 dereferenceable(16) %"struct.std::_Bit_reference"* @_ZNSt14_Bit_referenceaSERKS_(%"struct.std::_Bit_reference"* nonnull align 8 dereferenceable(16) %4, %"struct.std::_Bit_reference"* nonnull align 8 dereferenceable(16) %3) #26
  call void @llvm.lifetime.end.p0i8(i64 16, i8* nonnull %17) #29
  call void @llvm.lifetime.end.p0i8(i64 16, i8* nonnull %8) #29
  %24 = load <2 x i64>*, <2 x i64>** bitcast (%"class.std::vector"* @min_factor to <2 x i64>**), align 8, !tbaa !53
  store <2 x i64> <i64 0, i64 1>, <2 x i64>* %24, align 8, !tbaa !11
  %25 = bitcast i64* %5 to i8*
  br label %26

26:                                               ; preds = %58, %1
  %27 = phi i64 [ %59, %58 ], [ 2, %1 ]
  %28 = phi i64 [ %60, %58 ], [ 4, %1 ]
  %29 = icmp sgt i64 %27, %0
  br i1 %29, label %30, label %31

30:                                               ; preds = %26
  ret void

31:                                               ; preds = %26
  %32 = call { i64*, i64 } @_ZNSt6vectorIbSaIbEEixEm(%"class.std::vector.0"* nonnull align 8 dereferenceable(40) @isprime, i64 %27) #27
  %33 = extractvalue { i64*, i64 } %32, 0
  %34 = extractvalue { i64*, i64 } %32, 1
  %35 = load i64, i64* %33, align 8, !tbaa !52
  %36 = and i64 %34, %35
  %37 = icmp eq i64 %36, 0
  br i1 %37, label %58, label %38

38:                                               ; preds = %31
  call void @llvm.lifetime.start.p0i8(i64 8, i8* nonnull %25) #29
  store i64 %27, i64* %5, align 8, !tbaa !11
  call void @_ZNSt6vectorIxSaIxEE12emplace_backIJxEEEvDpOT_(%"class.std::vector"* nonnull align 8 dereferenceable(24) @primes, i64* nonnull align 8 dereferenceable(8) %5) #27
  call void @llvm.lifetime.end.p0i8(i64 8, i8* nonnull %25) #29
  %39 = load i64*, i64** getelementptr inbounds (%"class.std::vector", %"class.std::vector"* @min_factor, i64 0, i32 0, i32 0, i32 0, i32 0), align 8, !tbaa !53
  %40 = getelementptr inbounds i64, i64* %39, i64 %27
  store i64 %27, i64* %40, align 8, !tbaa !11
  br label %41

41:                                               ; preds = %56, %38
  %42 = phi i64 [ %57, %56 ], [ %28, %38 ]
  %43 = icmp sgt i64 %42, %0
  br i1 %43, label %58, label %44

44:                                               ; preds = %41
  %45 = call { i64*, i64 } @_ZNSt6vectorIbSaIbEEixEm(%"class.std::vector.0"* nonnull align 8 dereferenceable(40) @isprime, i64 %42) #27
  %46 = extractvalue { i64*, i64 } %45, 0
  %47 = extractvalue { i64*, i64 } %45, 1
  %48 = xor i64 %47, -1
  %49 = load i64, i64* %46, align 8, !tbaa !52
  %50 = and i64 %49, %48
  store i64 %50, i64* %46, align 8, !tbaa !52
  %51 = load i64*, i64** getelementptr inbounds (%"class.std::vector", %"class.std::vector"* @min_factor, i64 0, i32 0, i32 0, i32 0, i32 0), align 8, !tbaa !53
  %52 = getelementptr inbounds i64, i64* %51, i64 %42
  %53 = load i64, i64* %52, align 8, !tbaa !11
  %54 = icmp eq i64 %53, -1
  br i1 %54, label %55, label %56

55:                                               ; preds = %44
  store i64 %27, i64* %52, align 8, !tbaa !11
  br label %56

56:                                               ; preds = %44, %55
  %57 = add i64 %42, %27
  br label %41, !llvm.loop !55

58:                                               ; preds = %41, %31
  %59 = add nuw i64 %27, 1
  %60 = add i64 %28, 2
  br label %26, !llvm.loop !56
}

; Function Attrs: minsize optsize sspstrong uwtable
define linkonce_odr dso_local void @_ZNSt6vectorIbSaIbEE6resizeEmb(%"class.std::vector.0"* nonnull align 8 dereferenceable(40) %0, i64 %1, i1 zeroext %2) local_unnamed_addr #5 comdat align 2 personality i32 (...)* @__gxx_personality_v0 {
  %4 = alloca i8, align 1
  %5 = alloca { i64*, i32 }, align 8
  %6 = zext i1 %2 to i8
  store i8 %6, i8* %4, align 1, !tbaa !57
  %7 = getelementptr inbounds %"class.std::vector.0", %"class.std::vector.0"* %0, i64 0, i32 0, i32 0, i32 0, i32 1, i32 0, i32 0
  %8 = load i64*, i64** %7, align 8, !tbaa !58
  %9 = getelementptr inbounds %"class.std::vector.0", %"class.std::vector.0"* %0, i64 0, i32 0, i32 0, i32 0, i32 1, i32 0, i32 1
  %10 = load i32, i32* %9, align 8, !tbaa !61
  %11 = getelementptr inbounds %"class.std::vector.0", %"class.std::vector.0"* %0, i64 0, i32 0, i32 0, i32 0, i32 0, i32 0, i32 0
  %12 = load i64*, i64** %11, align 8, !tbaa !58
  %13 = ptrtoint i64* %8 to i64
  %14 = ptrtoint i64* %12 to i64
  %15 = sub i64 %13, %14
  %16 = shl nsw i64 %15, 3
  %17 = zext i32 %10 to i64
  %18 = add nsw i64 %16, %17
  %19 = icmp ugt i64 %18, %1
  br i1 %19, label %20, label %28

20:                                               ; preds = %3
  %21 = bitcast { i64*, i32 }* %5 to %"struct.std::_Bit_iterator"*
  %22 = bitcast { i64*, i32 }* %5 to i8*
  call void @llvm.lifetime.start.p0i8(i64 16, i8* nonnull %22) #29
  %23 = getelementptr inbounds { i64*, i32 }, { i64*, i32 }* %5, i64 0, i32 0
  store i64* %12, i64** %23, align 8
  %24 = getelementptr inbounds { i64*, i32 }, { i64*, i32 }* %5, i64 0, i32 1
  store i32 0, i32* %24, align 8
  %25 = call { i64*, i32 } @_ZStplRKSt13_Bit_iteratorl(%"struct.std::_Bit_iterator"* nonnull align 8 dereferenceable(12) %21, i64 %1) #27
  %26 = extractvalue { i64*, i32 } %25, 0
  %27 = extractvalue { i64*, i32 } %25, 1
  store i64* %26, i64** %7, align 8
  store i32 %27, i32* %9, align 8
  call void @llvm.lifetime.end.p0i8(i64 16, i8* nonnull %22) #29
  br label %31

28:                                               ; preds = %3
  %29 = sub i64 %1, %18
  %30 = call { i64*, i32 } @_ZNSt6vectorIbSaIbEE6insertESt19_Bit_const_iteratormRKb(%"class.std::vector.0"* nonnull align 8 dereferenceable(40) %0, i64* %8, i32 %10, i64 %29, i8* nonnull align 1 dereferenceable(1) %4) #27
  br label %31

31:                                               ; preds = %28, %20
  ret void
}

; Function Attrs: minsize optsize sspstrong uwtable
define linkonce_odr dso_local void @_ZNSt6vectorIxSaIxEE6resizeEmRKx(%"class.std::vector"* nonnull align 8 dereferenceable(24) %0, i64 %1, i64* nonnull align 8 dereferenceable(8) %2) local_unnamed_addr #5 comdat align 2 personality i32 (...)* @__gxx_personality_v0 {
  %4 = getelementptr inbounds %"class.std::vector", %"class.std::vector"* %0, i64 0, i32 0, i32 0, i32 0, i32 1
  %5 = load i64*, i64** %4, align 8, !tbaa !62
  %6 = getelementptr inbounds %"class.std::vector", %"class.std::vector"* %0, i64 0, i32 0, i32 0, i32 0, i32 0
  %7 = load i64*, i64** %6, align 8, !tbaa !53
  %8 = ptrtoint i64* %5 to i64
  %9 = ptrtoint i64* %7 to i64
  %10 = sub i64 %8, %9
  %11 = ashr exact i64 %10, 3
  %12 = icmp ult i64 %11, %1
  br i1 %12, label %13, label %15

13:                                               ; preds = %3
  %14 = sub i64 %1, %11
  tail call void @_ZNSt6vectorIxSaIxEE14_M_fill_insertEN9__gnu_cxx17__normal_iteratorIPxS1_EEmRKx(%"class.std::vector"* nonnull align 8 dereferenceable(24) %0, i64* %5, i64 %14, i64* nonnull align 8 dereferenceable(8) %2) #27
  br label %21

15:                                               ; preds = %3
  %16 = icmp ugt i64 %11, %1
  br i1 %16, label %17, label %21

17:                                               ; preds = %15
  %18 = getelementptr inbounds i64, i64* %7, i64 %1
  %19 = icmp eq i64* %5, %18
  br i1 %19, label %21, label %20

20:                                               ; preds = %17
  store i64* %18, i64** %4, align 8, !tbaa !62
  br label %21

21:                                               ; preds = %20, %17, %15, %13
  ret void
}

; Function Attrs: minsize optsize sspstrong uwtable
define linkonce_odr dso_local { i64*, i64 } @_ZNSt6vectorIbSaIbEEixEm(%"class.std::vector.0"* nonnull align 8 dereferenceable(40) %0, i64 %1) local_unnamed_addr #5 comdat align 2 personality i32 (...)* @__gxx_personality_v0 {
  %3 = alloca { i64*, i32 }, align 8
  %4 = bitcast { i64*, i32 }* %3 to %"struct.std::_Bit_iterator"*
  %5 = bitcast { i64*, i32 }* %3 to i8*
  call void @llvm.lifetime.start.p0i8(i64 16, i8* nonnull %5) #29
  %6 = getelementptr inbounds %"class.std::vector.0", %"class.std::vector.0"* %0, i64 0, i32 0, i32 0, i32 0, i32 0, i32 0, i32 0
  %7 = load i64*, i64** %6, align 8, !tbaa !58
  %8 = getelementptr inbounds { i64*, i32 }, { i64*, i32 }* %3, i64 0, i32 0
  store i64* %7, i64** %8, align 8
  %9 = getelementptr inbounds { i64*, i32 }, { i64*, i32 }* %3, i64 0, i32 1
  store i32 0, i32* %9, align 8
  %10 = call { i64*, i64 } @_ZNKSt13_Bit_iteratorixEl(%"struct.std::_Bit_iterator"* nonnull align 8 dereferenceable(12) %4, i64 %1) #27
  call void @llvm.lifetime.end.p0i8(i64 16, i8* nonnull %5) #29
  ret { i64*, i64 } %10
}

; Function Attrs: minsize mustprogress nounwind optsize sspstrong uwtable
define linkonce_odr dso_local nonnull align 8 dereferenceable(16) %"struct.std::_Bit_reference"* @_ZNSt14_Bit_referenceaSEb(%"struct.std::_Bit_reference"* nonnull align 8 dereferenceable(16) %0, i1 zeroext %1) local_unnamed_addr #12 comdat align 2 {
  %3 = getelementptr inbounds %"struct.std::_Bit_reference", %"struct.std::_Bit_reference"* %0, i64 0, i32 1
  %4 = load i64, i64* %3, align 8, !tbaa !63
  br i1 %1, label %5, label %10

5:                                                ; preds = %2
  %6 = getelementptr inbounds %"struct.std::_Bit_reference", %"struct.std::_Bit_reference"* %0, i64 0, i32 0
  %7 = load i64*, i64** %6, align 8, !tbaa !65
  %8 = load i64, i64* %7, align 8, !tbaa !52
  %9 = or i64 %8, %4
  store i64 %9, i64* %7, align 8, !tbaa !52
  br label %16

10:                                               ; preds = %2
  %11 = xor i64 %4, -1
  %12 = getelementptr inbounds %"struct.std::_Bit_reference", %"struct.std::_Bit_reference"* %0, i64 0, i32 0
  %13 = load i64*, i64** %12, align 8, !tbaa !65
  %14 = load i64, i64* %13, align 8, !tbaa !52
  %15 = and i64 %14, %11
  store i64 %15, i64* %13, align 8, !tbaa !52
  br label %16

16:                                               ; preds = %10, %5
  ret %"struct.std::_Bit_reference"* %0
}

; Function Attrs: minsize mustprogress nounwind optsize sspstrong uwtable
define linkonce_odr dso_local nonnull align 8 dereferenceable(16) %"struct.std::_Bit_reference"* @_ZNSt14_Bit_referenceaSERKS_(%"struct.std::_Bit_reference"* nonnull align 8 dereferenceable(16) %0, %"struct.std::_Bit_reference"* nonnull align 8 dereferenceable(16) %1) local_unnamed_addr #12 comdat align 2 {
  %3 = getelementptr inbounds %"struct.std::_Bit_reference", %"struct.std::_Bit_reference"* %1, i64 0, i32 0
  %4 = load i64*, i64** %3, align 8, !tbaa !65
  %5 = load i64, i64* %4, align 8, !tbaa !52
  %6 = getelementptr inbounds %"struct.std::_Bit_reference", %"struct.std::_Bit_reference"* %1, i64 0, i32 1
  %7 = load i64, i64* %6, align 8, !tbaa !63
  %8 = and i64 %7, %5
  %9 = icmp ne i64 %8, 0
  %10 = tail call nonnull align 8 dereferenceable(16) %"struct.std::_Bit_reference"* @_ZNSt14_Bit_referenceaSEb(%"struct.std::_Bit_reference"* nonnull align 8 dereferenceable(16) %0, i1 zeroext %9) #26
  ret %"struct.std::_Bit_reference"* %10
}

; Function Attrs: minsize optsize sspstrong uwtable
define dso_local void @_Z19prime_factorizationxx(i64 %0, i64 %1) local_unnamed_addr #5 personality i32 (...)* @__gxx_personality_v0 {
  %3 = alloca %"struct.std::pair", align 8
  %4 = alloca %"struct.std::pair", align 8
  %5 = alloca %"struct.std::pair", align 8
  %6 = sitofp i64 %1 to double
  %7 = icmp sgt i64 %1, 100000000
  %8 = xor i1 %7, true
  %9 = zext i1 %8 to i8
  store i8 %9, i8* @can_min_factor, align 1, !tbaa !57
  %10 = load i8, i8* @called_Eratosthenes, align 1, !tbaa !57, !range !66
  %11 = icmp eq i8 %10, 0
  br i1 %11, label %12, label %18

12:                                               ; preds = %2
  br i1 %7, label %13, label %16

13:                                               ; preds = %12
  %14 = tail call double @sqrt(double %6) #26
  %15 = fptosi double %14 to i64
  br label %16

16:                                               ; preds = %12, %13
  %17 = phi i64 [ %15, %13 ], [ %1, %12 ]
  tail call void @_Z12Eratosthenesx(i64 %17) #27
  store i8 1, i8* @called_Eratosthenes, align 1, !tbaa !57
  br label %18

18:                                               ; preds = %16, %2
  %19 = icmp slt i64 %0, 2
  br i1 %19, label %20, label %23

20:                                               ; preds = %18
  %21 = tail call nonnull align 8 dereferenceable(8) %"class.std::basic_ostream"* @_ZStlsISt11char_traitsIcEERSt13basic_ostreamIcT_ES5_PKc(%"class.std::basic_ostream"* nonnull align 8 dereferenceable(8) @_ZSt4cout, i8* getelementptr inbounds ([36 x i8], [36 x i8]* @.str.8, i64 0, i64 0)) #27
  %22 = tail call nonnull align 8 dereferenceable(8) %"class.std::basic_ostream"* @_ZSt4endlIcSt11char_traitsIcEERSt13basic_ostreamIT_T0_ES6_(%"class.std::basic_ostream"* nonnull align 8 dereferenceable(8) %21) #27
  br label %92

23:                                               ; preds = %18
  %24 = load %"struct.std::pair"*, %"struct.std::pair"** getelementptr inbounds (%"class.std::vector.4", %"class.std::vector.4"* @res_pf, i64 0, i32 0, i32 0, i32 0, i32 0), align 8, !tbaa !35
  %25 = load %"struct.std::pair"*, %"struct.std::pair"** getelementptr inbounds (%"class.std::vector.4", %"class.std::vector.4"* @res_pf, i64 0, i32 0, i32 0, i32 0, i32 1), align 8, !tbaa !33
  %26 = icmp eq %"struct.std::pair"* %25, %24
  br i1 %26, label %28, label %27

27:                                               ; preds = %23
  store %"struct.std::pair"* %24, %"struct.std::pair"** getelementptr inbounds (%"class.std::vector.4", %"class.std::vector.4"* @res_pf, i64 0, i32 0, i32 0, i32 0, i32 1), align 8, !tbaa !33
  br label %28

28:                                               ; preds = %23, %27
  %29 = load i8, i8* @can_min_factor, align 1, !tbaa !57, !range !66
  %30 = icmp eq i8 %29, 0
  br i1 %30, label %35, label %31

31:                                               ; preds = %28
  %32 = bitcast %"struct.std::pair"* %3 to i8*
  %33 = getelementptr inbounds %"struct.std::pair", %"struct.std::pair"* %3, i64 0, i32 0
  %34 = getelementptr inbounds %"struct.std::pair", %"struct.std::pair"* %3, i64 0, i32 1
  br label %39

35:                                               ; preds = %28
  %36 = bitcast %"struct.std::pair"* %4 to i8*
  %37 = getelementptr inbounds %"struct.std::pair", %"struct.std::pair"* %4, i64 0, i32 0
  %38 = getelementptr inbounds %"struct.std::pair", %"struct.std::pair"* %4, i64 0, i32 1
  br label %78

39:                                               ; preds = %31, %58
  %40 = phi i64 [ %50, %58 ], [ %0, %31 ]
  %41 = icmp eq i64 %40, 1
  br i1 %41, label %92, label %42

42:                                               ; preds = %39
  %43 = load i64*, i64** getelementptr inbounds (%"class.std::vector", %"class.std::vector"* @min_factor, i64 0, i32 0, i32 0, i32 0, i32 0), align 8, !tbaa !53
  %44 = getelementptr inbounds i64, i64* %43, i64 %40
  %45 = load i64, i64* %44, align 8, !tbaa !11
  %46 = shl i64 %45, 32
  %47 = ashr exact i64 %46, 32
  br label %48

48:                                               ; preds = %53, %42
  %49 = phi i64 [ %45, %42 ], [ %57, %53 ]
  %50 = phi i64 [ %40, %42 ], [ %54, %53 ]
  %51 = phi i32 [ 0, %42 ], [ %55, %53 ]
  %52 = icmp eq i64 %49, %47
  br i1 %52, label %53, label %58

53:                                               ; preds = %48
  %54 = sdiv i64 %50, %47
  %55 = add nuw nsw i32 %51, 1
  %56 = getelementptr inbounds i64, i64* %43, i64 %54
  %57 = load i64, i64* %56, align 8, !tbaa !11
  br label %48, !llvm.loop !67

58:                                               ; preds = %48
  call void @llvm.lifetime.start.p0i8(i64 16, i8* nonnull %32) #29
  store i64 %47, i64* %33, align 8, !tbaa !37
  %59 = zext i32 %51 to i64
  store i64 %59, i64* %34, align 8, !tbaa !39
  call void @_ZNSt6vectorISt4pairIxxESaIS1_EE12emplace_backIJS1_EEEvDpOT_(%"class.std::vector.4"* nonnull align 8 dereferenceable(24) @res_pf, %"struct.std::pair"* nonnull align 8 dereferenceable(16) %3) #27
  call void @llvm.lifetime.end.p0i8(i64 16, i8* nonnull %32) #29
  br label %39, !llvm.loop !68

60:                                               ; preds = %78, %83
  %61 = phi i64 [ %84, %83 ], [ %81, %78 ]
  br i1 %82, label %85, label %62

62:                                               ; preds = %60
  %63 = load i64*, i64** getelementptr inbounds (%"class.std::vector", %"class.std::vector"* @primes, i64 0, i32 0, i32 0, i32 0, i32 1), align 8, !tbaa !62
  %64 = load i64*, i64** getelementptr inbounds (%"class.std::vector", %"class.std::vector"* @primes, i64 0, i32 0, i32 0, i32 0, i32 0), align 8, !tbaa !53
  %65 = ptrtoint i64* %63 to i64
  %66 = ptrtoint i64* %64 to i64
  %67 = sub i64 %65, %66
  %68 = ashr exact i64 %67, 3
  %69 = icmp ult i64 %61, %68
  br i1 %69, label %70, label %85

70:                                               ; preds = %62
  %71 = getelementptr inbounds i64, i64* %64, i64 %61
  %72 = load i64, i64* %71, align 8, !tbaa !11
  %73 = shl i64 %72, 32
  %74 = ashr exact i64 %73, 32
  %75 = srem i64 %79, %74
  %76 = sdiv i64 %79, %74
  %77 = icmp eq i64 %75, 0
  br i1 %77, label %78, label %83, !llvm.loop !69

78:                                               ; preds = %70, %35
  %79 = phi i64 [ %0, %35 ], [ %76, %70 ]
  %80 = phi i1 [ true, %35 ], [ false, %70 ]
  %81 = phi i64 [ 0, %35 ], [ %61, %70 ]
  %82 = icmp eq i64 %79, 1
  br label %60

83:                                               ; preds = %70
  %84 = add nuw nsw i64 %61, 1
  call void @llvm.lifetime.start.p0i8(i64 16, i8* nonnull %36) #29
  store i64 %74, i64* %37, align 8, !tbaa !37
  store i64 0, i64* %38, align 8, !tbaa !39
  call void @_ZNSt6vectorISt4pairIxxESaIS1_EE12emplace_backIJS1_EEEvDpOT_(%"class.std::vector.4"* nonnull align 8 dereferenceable(24) @res_pf, %"struct.std::pair"* nonnull align 8 dereferenceable(16) %4) #27
  call void @llvm.lifetime.end.p0i8(i64 16, i8* nonnull %36) #29
  br label %60, !llvm.loop !69

85:                                               ; preds = %60, %62
  br i1 %80, label %86, label %92

86:                                               ; preds = %85
  %87 = call nonnull align 8 dereferenceable(8) %"class.std::basic_ostream"* @_ZStlsISt11char_traitsIcEERSt13basic_ostreamIcT_ES5_PKc(%"class.std::basic_ostream"* nonnull align 8 dereferenceable(8) @_ZSt4cout, i8* getelementptr inbounds ([36 x i8], [36 x i8]* @.str.9, i64 0, i64 0)) #27
  %88 = call nonnull align 8 dereferenceable(8) %"class.std::basic_ostream"* @_ZSt4endlIcSt11char_traitsIcEERSt13basic_ostreamIT_T0_ES6_(%"class.std::basic_ostream"* nonnull align 8 dereferenceable(8) %87) #27
  %89 = bitcast %"struct.std::pair"* %5 to i8*
  call void @llvm.lifetime.start.p0i8(i64 16, i8* nonnull %89) #29
  %90 = getelementptr inbounds %"struct.std::pair", %"struct.std::pair"* %5, i64 0, i32 0
  store i64 %79, i64* %90, align 8, !tbaa !37
  %91 = getelementptr inbounds %"struct.std::pair", %"struct.std::pair"* %5, i64 0, i32 1
  store i64 1, i64* %91, align 8, !tbaa !39
  call void @_ZNSt6vectorISt4pairIxxESaIS1_EE12emplace_backIJS1_EEEvDpOT_(%"class.std::vector.4"* nonnull align 8 dereferenceable(24) @res_pf, %"struct.std::pair"* nonnull align 8 dereferenceable(16) %5) #27
  call void @llvm.lifetime.end.p0i8(i64 16, i8* nonnull %89) #29
  br label %92

92:                                               ; preds = %39, %85, %86, %20
  ret void
}

; Function Attrs: minsize mustprogress nofree norecurse nosync nounwind optsize readnone sspstrong uwtable willreturn
define dso_local zeroext i1 @_Z8odd_eveni(i32 %0) local_unnamed_addr #10 {
  %2 = and i32 %0, 1
  %3 = icmp ne i32 %2, 0
  ret i1 %3
}

; Function Attrs: minsize mustprogress nofree norecurse nosync nounwind optsize sspstrong uwtable
define dso_local void @_Z7COMinitv() local_unnamed_addr #13 {
  store <2 x i64> <i64 1, i64 1>, <2 x i64>* bitcast ([510000 x i64]* @fac to <2 x i64>*), align 16, !tbaa !11
  store <2 x i64> <i64 1, i64 1>, <2 x i64>* bitcast ([510000 x i64]* @finv to <2 x i64>*), align 16, !tbaa !11
  store i64 1, i64* getelementptr inbounds ([510000 x i64], [510000 x i64]* @inv, i64 0, i64 1), align 8, !tbaa !11
  br label %1

1:                                                ; preds = %7, %0
  %2 = phi i64 [ %23, %7 ], [ 1, %0 ]
  %3 = phi i64 [ %9, %7 ], [ 1, %0 ]
  %4 = phi i64 [ %25, %7 ], [ 2, %0 ]
  %5 = icmp eq i64 %4, 510000
  br i1 %5, label %6, label %7

6:                                                ; preds = %1
  ret void

7:                                                ; preds = %1
  %8 = mul i64 %3, %4
  %9 = urem i64 %8, 1000000007
  %10 = getelementptr inbounds [510000 x i64], [510000 x i64]* @fac, i64 0, i64 %4
  store i64 %9, i64* %10, align 8, !tbaa !11
  %11 = trunc i64 %4 to i32
  %12 = urem i32 1000000007, %11
  %13 = zext i32 %12 to i64
  %14 = getelementptr inbounds [510000 x i64], [510000 x i64]* @inv, i64 0, i64 %13
  %15 = load i64, i64* %14, align 8, !tbaa !11
  %16 = udiv i32 1000000007, %11
  %17 = zext i32 %16 to i64
  %18 = mul i64 %15, %17
  %19 = urem i64 %18, 1000000007
  %20 = sub nuw nsw i64 1000000007, %19
  %21 = getelementptr inbounds [510000 x i64], [510000 x i64]* @inv, i64 0, i64 %4
  store i64 %20, i64* %21, align 8, !tbaa !11
  %22 = mul nsw i64 %20, %2
  %23 = urem i64 %22, 1000000007
  %24 = getelementptr inbounds [510000 x i64], [510000 x i64]* @finv, i64 0, i64 %4
  store i64 %23, i64* %24, align 8, !tbaa !11
  %25 = add nuw nsw i64 %4, 1
  br label %1, !llvm.loop !70
}

; Function Attrs: minsize mustprogress nofree norecurse nosync nounwind optsize readonly sspstrong uwtable willreturn
define dso_local i64 @_Z3COMxx(i64 %0, i64 %1) local_unnamed_addr #14 {
  %3 = icmp slt i64 %0, %1
  br i1 %3, label %20, label %4

4:                                                ; preds = %2
  %5 = icmp slt i64 %0, 0
  %6 = icmp slt i64 %1, 0
  %7 = select i1 %5, i1 true, i1 %6
  br i1 %7, label %20, label %8

8:                                                ; preds = %4
  %9 = getelementptr inbounds [510000 x i64], [510000 x i64]* @fac, i64 0, i64 %0
  %10 = load i64, i64* %9, align 8, !tbaa !11
  %11 = getelementptr inbounds [510000 x i64], [510000 x i64]* @finv, i64 0, i64 %1
  %12 = load i64, i64* %11, align 8, !tbaa !11
  %13 = sub nsw i64 %0, %1
  %14 = getelementptr inbounds [510000 x i64], [510000 x i64]* @finv, i64 0, i64 %13
  %15 = load i64, i64* %14, align 8, !tbaa !11
  %16 = mul i64 %15, %12
  %17 = urem i64 %16, 1000000007
  %18 = mul i64 %17, %10
  %19 = urem i64 %18, 1000000007
  br label %20

20:                                               ; preds = %4, %2, %8
  %21 = phi i64 [ %19, %8 ], [ 0, %2 ], [ 0, %4 ]
  ret i64 %21
}

; Function Attrs: minsize mustprogress nofree norecurse nosync nounwind optsize readnone sspstrong uwtable willreturn
define dso_local i64 @_Z6abs_llx(i64 %0) local_unnamed_addr #10 {
  %2 = tail call i64 @llvm.abs.i64(i64 %0, i1 true)
  ret i64 %2
}

; Function Attrs: minsize mustprogress nofree norecurse nosync nounwind optsize readnone sspstrong uwtable willreturn
define dso_local i64 @_Z7div_onexx(i64 %0, i64 %1) local_unnamed_addr #10 {
  %3 = add i64 %0, -1
  %4 = add i64 %3, %1
  %5 = sdiv i64 %4, %1
  ret i64 %5
}

; Function Attrs: minsize optsize sspstrong uwtable
define dso_local void @_Z15get_factor_listx(i64 %0) local_unnamed_addr #5 {
  %2 = alloca i64, align 8
  %3 = alloca i64, align 8
  %4 = bitcast i64* %2 to i8*
  %5 = bitcast i64* %3 to i8*
  br label %6

6:                                                ; preds = %20, %1
  %7 = phi i64 [ %21, %20 ], [ 1, %1 ]
  %8 = mul i64 %7, %7
  %9 = and i64 %8, 4294967295
  %10 = icmp sgt i64 %9, %0
  br i1 %10, label %22, label %11

11:                                               ; preds = %6
  %12 = srem i64 %0, %7
  %13 = sdiv i64 %0, %7
  %14 = icmp eq i64 %12, 0
  br i1 %14, label %15, label %20

15:                                               ; preds = %11
  call void @llvm.lifetime.start.p0i8(i64 8, i8* nonnull %4) #29
  store i64 %13, i64* %2, align 8, !tbaa !11
  call void @llvm.lifetime.start.p0i8(i64 8, i8* nonnull %5) #29
  store i64 %7, i64* %3, align 8, !tbaa !11
  call void @_ZNSt6vectorIxSaIxEE12emplace_backIJxEEEvDpOT_(%"class.std::vector"* nonnull align 8 dereferenceable(24) @factor_list, i64* nonnull align 8 dereferenceable(8) %3) #27
  call void @llvm.lifetime.end.p0i8(i64 8, i8* nonnull %5) #29
  %16 = load i64, i64* %2, align 8, !tbaa !11
  %17 = icmp eq i64 %16, 1
  br i1 %17, label %19, label %18

18:                                               ; preds = %15
  call void @_ZNSt6vectorIxSaIxEE9push_backERKx(%"class.std::vector"* nonnull align 8 dereferenceable(24) @factor_list, i64* nonnull align 8 dereferenceable(8) %2) #27
  br label %19

19:                                               ; preds = %18, %15
  call void @llvm.lifetime.end.p0i8(i64 8, i8* nonnull %4) #29
  br label %20

20:                                               ; preds = %11, %19
  %21 = add nuw i64 %7, 1
  br label %6, !llvm.loop !71

22:                                               ; preds = %6
  %23 = load i64*, i64** getelementptr inbounds (%"class.std::vector", %"class.std::vector"* @factor_list, i64 0, i32 0, i32 0, i32 0, i32 0), align 8, !tbaa !72
  %24 = load i64*, i64** getelementptr inbounds (%"class.std::vector", %"class.std::vector"* @factor_list, i64 0, i32 0, i32 0, i32 0, i32 1), align 8, !tbaa !72
  call void @_ZSt6__sortIN9__gnu_cxx17__normal_iteratorIPxSt6vectorIxSaIxEEEENS0_5__ops15_Iter_less_iterEEvT_S9_T0_(i64* %23, i64* %24) #27
  ret void
}

; Function Attrs: minsize optsize sspstrong uwtable
define linkonce_odr dso_local void @_ZNSt6vectorIxSaIxEE9push_backERKx(%"class.std::vector"* nonnull align 8 dereferenceable(24) %0, i64* nonnull align 8 dereferenceable(8) %1) local_unnamed_addr #5 comdat align 2 {
  %3 = getelementptr inbounds %"class.std::vector", %"class.std::vector"* %0, i64 0, i32 0, i32 0, i32 0, i32 1
  %4 = load i64*, i64** %3, align 8, !tbaa !62
  %5 = getelementptr inbounds %"class.std::vector", %"class.std::vector"* %0, i64 0, i32 0, i32 0, i32 0, i32 2
  %6 = load i64*, i64** %5, align 8, !tbaa !73
  %7 = icmp eq i64* %4, %6
  br i1 %7, label %11, label %8

8:                                                ; preds = %2
  %9 = load i64, i64* %1, align 8, !tbaa !11
  store i64 %9, i64* %4, align 8, !tbaa !11
  %10 = getelementptr inbounds i64, i64* %4, i64 1
  store i64* %10, i64** %3, align 8, !tbaa !62
  br label %12

11:                                               ; preds = %2
  tail call void @_ZNSt6vectorIxSaIxEE17_M_realloc_insertIJRKxEEEvN9__gnu_cxx17__normal_iteratorIPxS1_EEDpOT_(%"class.std::vector"* nonnull align 8 dereferenceable(24) %0, i64* %4, i64* nonnull align 8 dereferenceable(8) %1) #27
  br label %12

12:                                               ; preds = %11, %8
  ret void
}

; Function Attrs: minsize mustprogress nofree nosync nounwind optsize readnone sspstrong uwtable willreturn
define dso_local i64 @_Z18RepeatSquaring_MODxxx(i64 %0, i64 %1, i64 %2) local_unnamed_addr #11 {
  %4 = icmp eq i64 %1, 0
  br i1 %4, label %11, label %5

5:                                                ; preds = %3
  %6 = and i64 %1, 1
  %7 = icmp eq i64 %6, 0
  br i1 %7, label %13, label %17

8:                                                ; preds = %13, %17
  %9 = phi i64 [ %20, %17 ], [ %16, %13 ]
  %10 = srem i64 %9, %2
  br label %11

11:                                               ; preds = %8, %3
  %12 = phi i64 [ 1, %3 ], [ %10, %8 ]
  ret i64 %12

13:                                               ; preds = %5
  %14 = sdiv i64 %1, 2
  %15 = tail call i64 @_Z18RepeatSquaring_MODxxx(i64 %0, i64 %14, i64 %2) #27
  %16 = mul nsw i64 %15, %15
  br label %8

17:                                               ; preds = %5
  %18 = add nsw i64 %1, -1
  %19 = tail call i64 @_Z18RepeatSquaring_MODxxx(i64 %0, i64 %18, i64 %2) #27
  %20 = mul nsw i64 %19, %0
  br label %8
}

; Function Attrs: minsize mustprogress nofree nosync nounwind optsize readnone sspstrong uwtable willreturn
define dso_local i64 @_Z14RepeatSquaringxx(i64 %0, i64 %1) local_unnamed_addr #11 {
  br label %3

3:                                                ; preds = %17, %2
  %4 = phi i64 [ 1, %2 ], [ %19, %17 ]
  %5 = phi i64 [ %1, %2 ], [ %18, %17 ]
  %6 = icmp eq i64 %5, 0
  br i1 %6, label %10, label %7

7:                                                ; preds = %3
  %8 = and i64 %5, 1
  %9 = icmp eq i64 %8, 0
  br i1 %9, label %12, label %17

10:                                               ; preds = %3, %12
  %11 = phi i64 [ %16, %12 ], [ %4, %3 ]
  ret i64 %11

12:                                               ; preds = %7
  %13 = sdiv i64 %5, 2
  %14 = tail call i64 @_Z14RepeatSquaringxx(i64 %0, i64 %13) #27
  %15 = mul i64 %14, %4
  %16 = mul i64 %15, %14
  br label %10

17:                                               ; preds = %7
  %18 = add nsw i64 %5, -1
  %19 = mul nsw i64 %4, %0
  br label %3
}

; Function Attrs: minsize mustprogress nofree nosync nounwind optsize readnone sspstrong uwtable willreturn
define dso_local i64 @_Z15combination_MODxx(i64 %0, i64 %1) local_unnamed_addr #11 {
  %3 = sub nsw i64 %0, %1
  br label %4

4:                                                ; preds = %12, %2
  %5 = phi i64 [ 1, %2 ], [ %14, %12 ]
  %6 = phi i64 [ %3, %2 ], [ %7, %12 ]
  %7 = add nsw i64 %6, 1
  %8 = icmp slt i64 %6, %0
  br i1 %8, label %12, label %9

9:                                                ; preds = %4
  %10 = call i64 @llvm.smax.i64(i64 %1, i64 0)
  %11 = add nuw i64 %10, 1
  br label %15

12:                                               ; preds = %4
  %13 = mul nsw i64 %7, %5
  %14 = srem i64 %13, 1000000007
  br label %4, !llvm.loop !74

15:                                               ; preds = %9, %23
  %16 = phi i64 [ %25, %23 ], [ 1, %9 ]
  %17 = phi i64 [ %26, %23 ], [ 1, %9 ]
  %18 = icmp eq i64 %17, %11
  br i1 %18, label %19, label %23

19:                                               ; preds = %15
  %20 = tail call i64 @_Z18RepeatSquaring_MODxxx(i64 %16, i64 1000000005, i64 1000000007) #27
  %21 = mul nsw i64 %20, %5
  %22 = srem i64 %21, 1000000007
  ret i64 %22

23:                                               ; preds = %15
  %24 = mul nsw i64 %17, %16
  %25 = srem i64 %24, 1000000007
  %26 = add nuw i64 %17, 1
  br label %15, !llvm.loop !75
}

; Function Attrs: noinline noreturn nounwind
define linkonce_odr hidden void @__clang_call_terminate(i8* %0) local_unnamed_addr #15 comdat {
  %2 = tail call i8* @__cxa_begin_catch(i8* %0) #29
  tail call void @_ZSt9terminatev() #28
  unreachable
}

declare i8* @__cxa_begin_catch(i8*) local_unnamed_addr

declare void @_ZSt9terminatev() local_unnamed_addr

; Function Attrs: minsize mustprogress nofree nounwind optsize willreturn
declare double @sqrt(double) local_unnamed_addr #16

; Function Attrs: minsize nobuiltin nounwind optsize
declare void @_ZdlPv(i8*) local_unnamed_addr #17

; Function Attrs: minsize nounwind optsize sspstrong uwtable
define linkonce_odr dso_local void @_ZNSt12_Vector_baseIxSaIxEED2Ev(%"struct.std::_Vector_base"* nonnull align 8 dereferenceable(24) %0) unnamed_addr #3 comdat align 2 personality i8* bitcast (i32 (...)* @__gxx_personality_v0 to i8*) {
  %2 = getelementptr inbounds %"struct.std::_Vector_base", %"struct.std::_Vector_base"* %0, i64 0, i32 0, i32 0, i32 0
  %3 = load i64*, i64** %2, align 8, !tbaa !53
  %4 = icmp eq i64* %3, null
  br i1 %4, label %7, label %5

5:                                                ; preds = %1
  %6 = bitcast i64* %3 to i8*
  tail call void @_ZdlPv(i8* nonnull %6) #26
  br label %7

7:                                                ; preds = %5, %1
  ret void
}

; Function Attrs: minsize optsize sspstrong uwtable
define linkonce_odr dso_local void @_ZNSt13_Bvector_baseISaIbEE13_M_deallocateEv(%"struct.std::_Bvector_base"* nonnull align 8 dereferenceable(40) %0) local_unnamed_addr #5 comdat align 2 personality i32 (...)* @__gxx_personality_v0 {
  %2 = getelementptr inbounds %"struct.std::_Bvector_base", %"struct.std::_Bvector_base"* %0, i64 0, i32 0, i32 0, i32 0, i32 0, i32 0
  %3 = load i64*, i64** %2, align 8, !tbaa !58
  %4 = icmp eq i64* %3, null
  br i1 %4, label %18, label %5

5:                                                ; preds = %1
  %6 = getelementptr inbounds %"struct.std::_Bvector_base", %"struct.std::_Bvector_base"* %0, i64 0, i32 0, i32 0, i32 2
  %7 = load i64*, i64** %6, align 8, !tbaa !76
  %8 = ptrtoint i64* %7 to i64
  %9 = ptrtoint i64* %3 to i64
  %10 = sub i64 %8, %9
  %11 = ashr exact i64 %10, 3
  %12 = sub nsw i64 0, %11
  %13 = getelementptr inbounds i64, i64* %7, i64 %12
  %14 = bitcast i64* %13 to i8*
  tail call void @_ZdlPv(i8* %14) #26
  store i64* null, i64** %2, align 8
  %15 = getelementptr inbounds %"struct.std::_Bvector_base", %"struct.std::_Bvector_base"* %0, i64 0, i32 0, i32 0, i32 0, i32 0, i32 1
  store i32 0, i32* %15, align 8
  %16 = getelementptr inbounds %"struct.std::_Bvector_base", %"struct.std::_Bvector_base"* %0, i64 0, i32 0, i32 0, i32 1, i32 0, i32 0
  store i64* null, i64** %16, align 8
  %17 = getelementptr inbounds %"struct.std::_Bvector_base", %"struct.std::_Bvector_base"* %0, i64 0, i32 0, i32 0, i32 1, i32 0, i32 1
  store i32 0, i32* %17, align 8
  store i64* null, i64** %6, align 8
  br label %18

18:                                               ; preds = %5, %1
  ret void
}

; Function Attrs: minsize nounwind optsize sspstrong uwtable
define linkonce_odr dso_local void @_ZNSt12_Vector_baseISt4pairIxxESaIS1_EED2Ev(%"struct.std::_Vector_base.5"* nonnull align 8 dereferenceable(24) %0) unnamed_addr #3 comdat align 2 personality i8* bitcast (i32 (...)* @__gxx_personality_v0 to i8*) {
  %2 = getelementptr inbounds %"struct.std::_Vector_base.5", %"struct.std::_Vector_base.5"* %0, i64 0, i32 0, i32 0, i32 0
  %3 = load %"struct.std::pair"*, %"struct.std::pair"** %2, align 8, !tbaa !35
  %4 = icmp eq %"struct.std::pair"* %3, null
  br i1 %4, label %7, label %5

5:                                                ; preds = %1
  %6 = bitcast %"struct.std::pair"* %3 to i8*
  tail call void @_ZdlPv(i8* nonnull %6) #26
  br label %7

7:                                                ; preds = %5, %1
  ret void
}

; Function Attrs: minsize optsize sspstrong uwtable
define linkonce_odr dso_local i64 @_ZNSt6vectorISt3setIxSt4lessIxESaIxEESaIS4_EE17_S_check_init_lenEmRKS5_(i64 %0, %"class.std::allocator.11"* nonnull align 1 dereferenceable(1) %1) local_unnamed_addr #5 comdat align 2 personality i32 (...)* @__gxx_personality_v0 {
  %3 = icmp ugt i64 %0, 192153584101141162
  br i1 %3, label %4, label %5

4:                                                ; preds = %2
  tail call void @_ZSt20__throw_length_errorPKc(i8* getelementptr inbounds ([49 x i8], [49 x i8]* @.str.10, i64 0, i64 0)) #31
  unreachable

5:                                                ; preds = %2
  ret i64 %0
}

; Function Attrs: minsize mustprogress optsize sspstrong uwtable
define linkonce_odr dso_local void @_ZNSt6vectorISt3setIxSt4lessIxESaIxEESaIS4_EE21_M_default_initializeEm(%"class.std::vector.9"* nonnull align 8 dereferenceable(24) %0, i64 %1) local_unnamed_addr #9 comdat align 2 {
  %3 = getelementptr inbounds %"class.std::vector.9", %"class.std::vector.9"* %0, i64 0, i32 0, i32 0, i32 0, i32 0
  %4 = load %"class.std::set"*, %"class.std::set"** %3, align 8, !tbaa !5
  %5 = tail call %"class.std::set"* @_ZNSt27__uninitialized_default_n_1ILb0EE18__uninit_default_nIPSt3setIxSt4lessIxESaIxEEmEET_S8_T0_(%"class.std::set"* %4, i64 %1) #27
  %6 = getelementptr inbounds %"class.std::vector.9", %"class.std::vector.9"* %0, i64 0, i32 0, i32 0, i32 0, i32 1
  store %"class.std::set"* %5, %"class.std::set"** %6, align 8, !tbaa !10
  ret void
}

; Function Attrs: minsize nounwind optsize sspstrong uwtable
define linkonce_odr dso_local void @_ZNSt12_Vector_baseISt3setIxSt4lessIxESaIxEESaIS4_EED2Ev(%"struct.std::_Vector_base.10"* nonnull align 8 dereferenceable(24) %0) unnamed_addr #3 comdat align 2 personality i8* bitcast (i32 (...)* @__gxx_personality_v0 to i8*) {
  %2 = getelementptr inbounds %"struct.std::_Vector_base.10", %"struct.std::_Vector_base.10"* %0, i64 0, i32 0, i32 0, i32 0
  %3 = load %"class.std::set"*, %"class.std::set"** %2, align 8, !tbaa !5
  %4 = icmp eq %"class.std::set"* %3, null
  br i1 %4, label %7, label %5

5:                                                ; preds = %1
  %6 = getelementptr %"class.std::set", %"class.std::set"* %3, i64 0, i32 0, i32 0, i32 0, i32 0, i32 0
  tail call void @_ZdlPv(i8* %6) #26
  br label %7

7:                                                ; preds = %5, %1
  ret void
}

; Function Attrs: minsize noreturn optsize
declare void @_ZSt20__throw_length_errorPKc(i8*) local_unnamed_addr #18

; Function Attrs: minsize mustprogress optsize sspstrong uwtable
define linkonce_odr dso_local void @_ZNSt12_Vector_baseISt3setIxSt4lessIxESaIxEESaIS4_EE17_M_create_storageEm(%"struct.std::_Vector_base.10"* nonnull align 8 dereferenceable(24) %0, i64 %1) local_unnamed_addr #9 comdat align 2 {
  %3 = tail call %"class.std::set"* @_ZNSt12_Vector_baseISt3setIxSt4lessIxESaIxEESaIS4_EE11_M_allocateEm(%"struct.std::_Vector_base.10"* nonnull align 8 dereferenceable(24) %0, i64 %1) #27
  %4 = getelementptr inbounds %"struct.std::_Vector_base.10", %"struct.std::_Vector_base.10"* %0, i64 0, i32 0, i32 0, i32 0
  store %"class.std::set"* %3, %"class.std::set"** %4, align 8, !tbaa !5
  %5 = getelementptr inbounds %"struct.std::_Vector_base.10", %"struct.std::_Vector_base.10"* %0, i64 0, i32 0, i32 0, i32 1
  store %"class.std::set"* %3, %"class.std::set"** %5, align 8, !tbaa !10
  %6 = getelementptr inbounds %"class.std::set", %"class.std::set"* %3, i64 %1
  %7 = getelementptr inbounds %"struct.std::_Vector_base.10", %"struct.std::_Vector_base.10"* %0, i64 0, i32 0, i32 0, i32 2
  store %"class.std::set"* %6, %"class.std::set"** %7, align 8, !tbaa !79
  ret void
}

; Function Attrs: minsize mustprogress optsize sspstrong uwtable
define linkonce_odr dso_local %"class.std::set"* @_ZNSt12_Vector_baseISt3setIxSt4lessIxESaIxEESaIS4_EE11_M_allocateEm(%"struct.std::_Vector_base.10"* nonnull align 8 dereferenceable(24) %0, i64 %1) local_unnamed_addr #9 comdat align 2 {
  %3 = icmp eq i64 %1, 0
  br i1 %3, label %7, label %4

4:                                                ; preds = %2
  %5 = bitcast %"struct.std::_Vector_base.10"* %0 to %"class.std::allocator.11"*
  %6 = tail call %"class.std::set"* @_ZNSt16allocator_traitsISaISt3setIxSt4lessIxESaIxEEEE8allocateERS5_m(%"class.std::allocator.11"* nonnull align 1 dereferenceable(1) %5, i64 %1) #27
  br label %7

7:                                                ; preds = %2, %4
  %8 = phi %"class.std::set"* [ %6, %4 ], [ null, %2 ]
  ret %"class.std::set"* %8
}

; Function Attrs: minsize mustprogress optsize sspstrong uwtable
define linkonce_odr dso_local %"class.std::set"* @_ZNSt16allocator_traitsISaISt3setIxSt4lessIxESaIxEEEE8allocateERS5_m(%"class.std::allocator.11"* nonnull align 1 dereferenceable(1) %0, i64 %1) local_unnamed_addr #9 comdat align 2 {
  %3 = bitcast %"class.std::allocator.11"* %0 to %"class.__gnu_cxx::new_allocator.12"*
  %4 = tail call %"class.std::set"* @_ZN9__gnu_cxx13new_allocatorISt3setIxSt4lessIxESaIxEEE8allocateEmPKv(%"class.__gnu_cxx::new_allocator.12"* nonnull align 1 dereferenceable(1) %3, i64 %1, i8* null) #27
  ret %"class.std::set"* %4
}

; Function Attrs: minsize mustprogress optsize sspstrong uwtable
define linkonce_odr dso_local %"class.std::set"* @_ZN9__gnu_cxx13new_allocatorISt3setIxSt4lessIxESaIxEEE8allocateEmPKv(%"class.__gnu_cxx::new_allocator.12"* nonnull align 1 dereferenceable(1) %0, i64 %1, i8* %2) local_unnamed_addr #9 comdat align 2 {
  %4 = icmp ugt i64 %1, 192153584101141162
  br i1 %4, label %5, label %9, !prof !80

5:                                                ; preds = %3
  %6 = icmp ugt i64 %1, 384307168202282325
  br i1 %6, label %7, label %8

7:                                                ; preds = %5
  tail call void @_ZSt28__throw_bad_array_new_lengthv() #31
  unreachable

8:                                                ; preds = %5
  tail call void @_ZSt17__throw_bad_allocv() #31
  unreachable

9:                                                ; preds = %3
  %10 = mul nuw nsw i64 %1, 48
  %11 = tail call noalias nonnull i8* @_Znwm(i64 %10) #32
  %12 = bitcast i8* %11 to %"class.std::set"*
  ret %"class.std::set"* %12
}

; Function Attrs: minsize noreturn optsize
declare void @_ZSt28__throw_bad_array_new_lengthv() local_unnamed_addr #18

; Function Attrs: minsize noreturn optsize
declare void @_ZSt17__throw_bad_allocv() local_unnamed_addr #18

; Function Attrs: minsize nobuiltin optsize allocsize(0)
declare nonnull i8* @_Znwm(i64) local_unnamed_addr #19

; Function Attrs: minsize optsize sspstrong uwtable
define linkonce_odr dso_local %"class.std::set"* @_ZNSt27__uninitialized_default_n_1ILb0EE18__uninit_default_nIPSt3setIxSt4lessIxESaIxEEmEET_S8_T0_(%"class.std::set"* %0, i64 %1) local_unnamed_addr #5 comdat align 2 personality i8* bitcast (i32 (...)* @__gxx_personality_v0 to i8*) {
  br label %3

3:                                                ; preds = %7, %2
  %4 = phi i64 [ %1, %2 ], [ %16, %7 ]
  %5 = phi %"class.std::set"* [ %0, %2 ], [ %17, %7 ]
  %6 = icmp eq i64 %4, 0
  br i1 %6, label %18, label %7

7:                                                ; preds = %3
  %8 = getelementptr %"class.std::set", %"class.std::set"* %5, i64 0, i32 0, i32 0, i32 0, i32 0, i32 0
  %9 = getelementptr inbounds i8, i8* %8, i64 8
  %10 = getelementptr inbounds i8, i8* %8, i64 24
  %11 = bitcast i8* %10 to i8**
  tail call void @llvm.memset.p0i8.i64(i8* noundef nonnull align 8 dereferenceable(24) %8, i8 0, i64 24, i1 false) #29
  store i8* %9, i8** %11, align 8, !tbaa !41
  %12 = getelementptr inbounds i8, i8* %8, i64 32
  %13 = bitcast i8* %12 to i8**
  store i8* %9, i8** %13, align 8, !tbaa !81
  %14 = getelementptr inbounds i8, i8* %8, i64 40
  %15 = bitcast i8* %14 to i64*
  store i64 0, i64* %15, align 8, !tbaa !82
  %16 = add i64 %4, -1
  %17 = getelementptr inbounds %"class.std::set", %"class.std::set"* %5, i64 1
  br label %3, !llvm.loop !83

18:                                               ; preds = %3
  ret %"class.std::set"* %5
}

declare void @__cxa_rethrow() local_unnamed_addr

declare void @__cxa_end_catch() local_unnamed_addr

; Function Attrs: argmemonly mustprogress nofree nounwind willreturn writeonly
declare void @llvm.memset.p0i8.i64(i8* nocapture writeonly, i8, i64, i1 immarg) #20

; Function Attrs: minsize optsize sspstrong uwtable
define linkonce_odr dso_local void @_ZNSt12_Destroy_auxILb0EE9__destroyIPSt3setIxSt4lessIxESaIxEEEEvT_S8_(%"class.std::set"* %0, %"class.std::set"* %1) local_unnamed_addr #5 comdat align 2 {
  br label %3

3:                                                ; preds = %6, %2
  %4 = phi %"class.std::set"* [ %0, %2 ], [ %8, %6 ]
  %5 = icmp eq %"class.std::set"* %4, %1
  br i1 %5, label %9, label %6

6:                                                ; preds = %3
  %7 = getelementptr inbounds %"class.std::set", %"class.std::set"* %4, i64 0, i32 0
  tail call void @_ZNSt8_Rb_treeIxxSt9_IdentityIxESt4lessIxESaIxEED2Ev(%"class.std::_Rb_tree"* nonnull align 8 dereferenceable(48) %7) #26
  %8 = getelementptr inbounds %"class.std::set", %"class.std::set"* %4, i64 1
  br label %3, !llvm.loop !84

9:                                                ; preds = %3
  ret void
}

; Function Attrs: minsize nounwind optsize sspstrong uwtable
define linkonce_odr dso_local void @_ZNSt8_Rb_treeIxxSt9_IdentityIxESt4lessIxESaIxEED2Ev(%"class.std::_Rb_tree"* nonnull align 8 dereferenceable(48) %0) unnamed_addr #3 comdat align 2 personality i8* bitcast (i32 (...)* @__gxx_personality_v0 to i8*) {
  %2 = getelementptr inbounds %"class.std::_Rb_tree", %"class.std::_Rb_tree"* %0, i64 0, i32 0, i32 0, i32 0, i32 0
  %3 = getelementptr inbounds i8, i8* %2, i64 16
  %4 = bitcast i8* %3 to %"struct.std::_Rb_tree_node"**
  %5 = load %"struct.std::_Rb_tree_node"*, %"struct.std::_Rb_tree_node"** %4, align 8, !tbaa !85
  invoke void @_ZNSt8_Rb_treeIxxSt9_IdentityIxESt4lessIxESaIxEE8_M_eraseEPSt13_Rb_tree_nodeIxE(%"class.std::_Rb_tree"* nonnull align 8 dereferenceable(48) %0, %"struct.std::_Rb_tree_node"* %5) #27
          to label %6 unwind label %7

6:                                                ; preds = %1
  ret void

7:                                                ; preds = %1
  %8 = landingpad { i8*, i32 }
          catch i8* null
  %9 = extractvalue { i8*, i32 } %8, 0
  tail call void @__clang_call_terminate(i8* %9) #28
  unreachable
}

; Function Attrs: minsize mustprogress optsize sspstrong uwtable
define linkonce_odr dso_local void @_ZNSt8_Rb_treeIxxSt9_IdentityIxESt4lessIxESaIxEE8_M_eraseEPSt13_Rb_tree_nodeIxE(%"class.std::_Rb_tree"* nonnull align 8 dereferenceable(48) %0, %"struct.std::_Rb_tree_node"* %1) local_unnamed_addr #9 comdat align 2 personality i32 (...)* @__gxx_personality_v0 {
  br label %3

3:                                                ; preds = %6, %2
  %4 = phi %"struct.std::_Rb_tree_node"* [ %1, %2 ], [ %12, %6 ]
  %5 = icmp eq %"struct.std::_Rb_tree_node"* %4, null
  br i1 %5, label %14, label %6

6:                                                ; preds = %3
  %7 = getelementptr inbounds %"struct.std::_Rb_tree_node", %"struct.std::_Rb_tree_node"* %4, i64 0, i32 0, i32 3
  %8 = bitcast %"struct.std::_Rb_tree_node_base"** %7 to %"struct.std::_Rb_tree_node"**
  %9 = load %"struct.std::_Rb_tree_node"*, %"struct.std::_Rb_tree_node"** %8, align 8, !tbaa !86
  tail call void @_ZNSt8_Rb_treeIxxSt9_IdentityIxESt4lessIxESaIxEE8_M_eraseEPSt13_Rb_tree_nodeIxE(%"class.std::_Rb_tree"* nonnull align 8 dereferenceable(48) %0, %"struct.std::_Rb_tree_node"* %9) #27
  %10 = getelementptr inbounds %"struct.std::_Rb_tree_node", %"struct.std::_Rb_tree_node"* %4, i64 0, i32 0, i32 2
  %11 = bitcast %"struct.std::_Rb_tree_node_base"** %10 to %"struct.std::_Rb_tree_node"**
  %12 = load %"struct.std::_Rb_tree_node"*, %"struct.std::_Rb_tree_node"** %11, align 8, !tbaa !87
  %13 = bitcast %"struct.std::_Rb_tree_node"* %4 to i8*
  tail call void @_ZdlPv(i8* nonnull %13) #26
  br label %3, !llvm.loop !88

14:                                               ; preds = %3
  ret void
}

; Function Attrs: minsize mustprogress optsize sspstrong uwtable
define linkonce_odr dso_local %"struct.std::_Rb_tree_node_base"* @_ZNSt8_Rb_treeIxxSt9_IdentityIxESt4lessIxESaIxEE11lower_boundERKx(%"class.std::_Rb_tree"* nonnull align 8 dereferenceable(48) %0, i64* nonnull align 8 dereferenceable(8) %1) local_unnamed_addr #9 comdat align 2 {
  %3 = getelementptr inbounds %"class.std::_Rb_tree", %"class.std::_Rb_tree"* %0, i64 0, i32 0, i32 0, i32 0, i32 0
  %4 = getelementptr inbounds i8, i8* %3, i64 16
  %5 = bitcast i8* %4 to %"struct.std::_Rb_tree_node"**
  %6 = load %"struct.std::_Rb_tree_node"*, %"struct.std::_Rb_tree_node"** %5, align 8, !tbaa !85
  %7 = getelementptr inbounds i8, i8* %3, i64 8
  %8 = bitcast i8* %7 to %"struct.std::_Rb_tree_node_base"*
  %9 = tail call %"struct.std::_Rb_tree_node_base"* @_ZNSt8_Rb_treeIxxSt9_IdentityIxESt4lessIxESaIxEE14_M_lower_boundEPSt13_Rb_tree_nodeIxEPSt18_Rb_tree_node_baseRKx(%"class.std::_Rb_tree"* nonnull align 8 dereferenceable(48) %0, %"struct.std::_Rb_tree_node"* %6, %"struct.std::_Rb_tree_node_base"* nonnull %8, i64* nonnull align 8 dereferenceable(8) %1) #27
  ret %"struct.std::_Rb_tree_node_base"* %9
}

; Function Attrs: minsize optsize sspstrong uwtable
define linkonce_odr dso_local %"struct.std::_Rb_tree_node_base"* @_ZNSt8_Rb_treeIxxSt9_IdentityIxESt4lessIxESaIxEE14_M_lower_boundEPSt13_Rb_tree_nodeIxEPSt18_Rb_tree_node_baseRKx(%"class.std::_Rb_tree"* nonnull align 8 dereferenceable(48) %0, %"struct.std::_Rb_tree_node"* %1, %"struct.std::_Rb_tree_node_base"* %2, i64* nonnull align 8 dereferenceable(8) %3) local_unnamed_addr #5 comdat align 2 {
  %5 = load i64, i64* %3, align 8
  br label %6

6:                                                ; preds = %10, %4
  %7 = phi %"struct.std::_Rb_tree_node_base"* [ %2, %4 ], [ %18, %10 ]
  %8 = phi %"struct.std::_Rb_tree_node"* [ %1, %4 ], [ %21, %10 ]
  %9 = icmp eq %"struct.std::_Rb_tree_node"* %8, null
  br i1 %9, label %22, label %10

10:                                               ; preds = %6
  %11 = getelementptr inbounds %"struct.std::_Rb_tree_node", %"struct.std::_Rb_tree_node"* %8, i64 0, i32 1
  %12 = bitcast %"struct.__gnu_cxx::__aligned_membuf"* %11 to i64*
  %13 = load i64, i64* %12, align 8, !tbaa !11
  %14 = icmp slt i64 %13, %5
  %15 = getelementptr inbounds %"struct.std::_Rb_tree_node", %"struct.std::_Rb_tree_node"* %8, i64 0, i32 0, i32 3
  %16 = getelementptr %"struct.std::_Rb_tree_node", %"struct.std::_Rb_tree_node"* %8, i64 0, i32 0
  %17 = getelementptr inbounds %"struct.std::_Rb_tree_node", %"struct.std::_Rb_tree_node"* %8, i64 0, i32 0, i32 2
  %18 = select i1 %14, %"struct.std::_Rb_tree_node_base"* %7, %"struct.std::_Rb_tree_node_base"* %16
  %19 = select i1 %14, %"struct.std::_Rb_tree_node_base"** %15, %"struct.std::_Rb_tree_node_base"** %17
  %20 = bitcast %"struct.std::_Rb_tree_node_base"** %19 to %"struct.std::_Rb_tree_node"**
  %21 = load %"struct.std::_Rb_tree_node"*, %"struct.std::_Rb_tree_node"** %20, align 8, !tbaa !72
  br label %6, !llvm.loop !89

22:                                               ; preds = %6
  ret %"struct.std::_Rb_tree_node_base"* %7
}

; Function Attrs: minsize optsize sspstrong uwtable
define linkonce_odr dso_local i64 @_ZNSt8_Rb_treeIxxSt9_IdentityIxESt4lessIxESaIxEE5eraseERKx(%"class.std::_Rb_tree"* nonnull align 8 dereferenceable(48) %0, i64* nonnull align 8 dereferenceable(8) %1) local_unnamed_addr #5 comdat align 2 {
  %3 = tail call { %"struct.std::_Rb_tree_node_base"*, %"struct.std::_Rb_tree_node_base"* } @_ZNSt8_Rb_treeIxxSt9_IdentityIxESt4lessIxESaIxEE11equal_rangeERKx(%"class.std::_Rb_tree"* nonnull align 8 dereferenceable(48) %0, i64* nonnull align 8 dereferenceable(8) %1) #27
  %4 = extractvalue { %"struct.std::_Rb_tree_node_base"*, %"struct.std::_Rb_tree_node_base"* } %3, 0
  %5 = extractvalue { %"struct.std::_Rb_tree_node_base"*, %"struct.std::_Rb_tree_node_base"* } %3, 1
  %6 = getelementptr inbounds %"class.std::_Rb_tree", %"class.std::_Rb_tree"* %0, i64 0, i32 0, i32 0, i32 0, i32 0
  %7 = getelementptr inbounds i8, i8* %6, i64 40
  %8 = bitcast i8* %7 to i64*
  %9 = load i64, i64* %8, align 8, !tbaa !82
  tail call void @_ZNSt8_Rb_treeIxxSt9_IdentityIxESt4lessIxESaIxEE12_M_erase_auxESt23_Rb_tree_const_iteratorIxES7_(%"class.std::_Rb_tree"* nonnull align 8 dereferenceable(48) %0, %"struct.std::_Rb_tree_node_base"* %4, %"struct.std::_Rb_tree_node_base"* %5) #27
  %10 = load i64, i64* %8, align 8, !tbaa !82
  %11 = sub i64 %9, %10
  ret i64 %11
}

; Function Attrs: minsize optsize sspstrong uwtable
define linkonce_odr dso_local { %"struct.std::_Rb_tree_node_base"*, %"struct.std::_Rb_tree_node_base"* } @_ZNSt8_Rb_treeIxxSt9_IdentityIxESt4lessIxESaIxEE11equal_rangeERKx(%"class.std::_Rb_tree"* nonnull align 8 dereferenceable(48) %0, i64* nonnull align 8 dereferenceable(8) %1) local_unnamed_addr #5 comdat align 2 {
  %3 = getelementptr inbounds %"class.std::_Rb_tree", %"class.std::_Rb_tree"* %0, i64 0, i32 0, i32 0, i32 0, i32 0
  %4 = getelementptr inbounds i8, i8* %3, i64 16
  %5 = bitcast i8* %4 to %"struct.std::_Rb_tree_node"**
  %6 = getelementptr inbounds i8, i8* %3, i64 8
  %7 = bitcast i8* %6 to %"struct.std::_Rb_tree_node_base"*
  %8 = load i64, i64* %1, align 8
  br label %9

9:                                                ; preds = %33, %2
  %10 = phi %"struct.std::_Rb_tree_node_base"* [ %7, %2 ], [ %34, %33 ]
  %11 = phi %"struct.std::_Rb_tree_node"** [ %5, %2 ], [ %36, %33 ]
  %12 = load %"struct.std::_Rb_tree_node"*, %"struct.std::_Rb_tree_node"** %11, align 8, !tbaa !72
  %13 = icmp eq %"struct.std::_Rb_tree_node"* %12, null
  br i1 %13, label %37, label %14

14:                                               ; preds = %9
  %15 = getelementptr inbounds %"struct.std::_Rb_tree_node", %"struct.std::_Rb_tree_node"* %12, i64 0, i32 1
  %16 = bitcast %"struct.__gnu_cxx::__aligned_membuf"* %15 to i64*
  %17 = load i64, i64* %16, align 8, !tbaa !11
  %18 = icmp slt i64 %17, %8
  br i1 %18, label %19, label %21

19:                                               ; preds = %14
  %20 = getelementptr inbounds %"struct.std::_Rb_tree_node", %"struct.std::_Rb_tree_node"* %12, i64 0, i32 0, i32 3
  br label %33

21:                                               ; preds = %14
  %22 = icmp slt i64 %8, %17
  %23 = getelementptr %"struct.std::_Rb_tree_node", %"struct.std::_Rb_tree_node"* %12, i64 0, i32 0
  %24 = getelementptr inbounds %"struct.std::_Rb_tree_node", %"struct.std::_Rb_tree_node"* %12, i64 0, i32 0, i32 2
  br i1 %22, label %33, label %25

25:                                               ; preds = %21
  %26 = bitcast %"struct.std::_Rb_tree_node_base"** %24 to %"struct.std::_Rb_tree_node"**
  %27 = load %"struct.std::_Rb_tree_node"*, %"struct.std::_Rb_tree_node"** %26, align 8, !tbaa !87
  %28 = getelementptr inbounds %"struct.std::_Rb_tree_node", %"struct.std::_Rb_tree_node"* %12, i64 0, i32 0, i32 3
  %29 = bitcast %"struct.std::_Rb_tree_node_base"** %28 to %"struct.std::_Rb_tree_node"**
  %30 = load %"struct.std::_Rb_tree_node"*, %"struct.std::_Rb_tree_node"** %29, align 8, !tbaa !86
  %31 = tail call %"struct.std::_Rb_tree_node_base"* @_ZNSt8_Rb_treeIxxSt9_IdentityIxESt4lessIxESaIxEE14_M_lower_boundEPSt13_Rb_tree_nodeIxEPSt18_Rb_tree_node_baseRKx(%"class.std::_Rb_tree"* nonnull align 8 dereferenceable(48) %0, %"struct.std::_Rb_tree_node"* %27, %"struct.std::_Rb_tree_node_base"* %23, i64* nonnull align 8 dereferenceable(8) %1) #27
  %32 = tail call %"struct.std::_Rb_tree_node_base"* @_ZNSt8_Rb_treeIxxSt9_IdentityIxESt4lessIxESaIxEE14_M_upper_boundEPSt13_Rb_tree_nodeIxEPSt18_Rb_tree_node_baseRKx(%"class.std::_Rb_tree"* nonnull align 8 dereferenceable(48) %0, %"struct.std::_Rb_tree_node"* %30, %"struct.std::_Rb_tree_node_base"* %10, i64* nonnull align 8 dereferenceable(8) %1) #27
  br label %37

33:                                               ; preds = %21, %19
  %34 = phi %"struct.std::_Rb_tree_node_base"* [ %10, %19 ], [ %23, %21 ]
  %35 = phi %"struct.std::_Rb_tree_node_base"** [ %20, %19 ], [ %24, %21 ]
  %36 = bitcast %"struct.std::_Rb_tree_node_base"** %35 to %"struct.std::_Rb_tree_node"**
  br label %9, !llvm.loop !90

37:                                               ; preds = %9, %25
  %38 = phi %"struct.std::_Rb_tree_node_base"* [ %31, %25 ], [ %10, %9 ]
  %39 = phi %"struct.std::_Rb_tree_node_base"* [ %32, %25 ], [ %10, %9 ]
  %40 = insertvalue { %"struct.std::_Rb_tree_node_base"*, %"struct.std::_Rb_tree_node_base"* } undef, %"struct.std::_Rb_tree_node_base"* %38, 0
  %41 = insertvalue { %"struct.std::_Rb_tree_node_base"*, %"struct.std::_Rb_tree_node_base"* } %40, %"struct.std::_Rb_tree_node_base"* %39, 1
  ret { %"struct.std::_Rb_tree_node_base"*, %"struct.std::_Rb_tree_node_base"* } %41
}

; Function Attrs: minsize optsize sspstrong uwtable
define linkonce_odr dso_local void @_ZNSt8_Rb_treeIxxSt9_IdentityIxESt4lessIxESaIxEE12_M_erase_auxESt23_Rb_tree_const_iteratorIxES7_(%"class.std::_Rb_tree"* nonnull align 8 dereferenceable(48) %0, %"struct.std::_Rb_tree_node_base"* %1, %"struct.std::_Rb_tree_node_base"* %2) local_unnamed_addr #5 comdat align 2 {
  %4 = getelementptr inbounds %"class.std::_Rb_tree", %"class.std::_Rb_tree"* %0, i64 0, i32 0, i32 0, i32 0, i32 0
  %5 = getelementptr inbounds i8, i8* %4, i64 24
  %6 = bitcast i8* %5 to %"struct.std::_Rb_tree_node_base"**
  %7 = load %"struct.std::_Rb_tree_node_base"*, %"struct.std::_Rb_tree_node_base"** %6, align 8, !tbaa !41
  %8 = icmp eq %"struct.std::_Rb_tree_node_base"* %7, %1
  br i1 %8, label %9, label %13

9:                                                ; preds = %3
  %10 = getelementptr inbounds i8, i8* %4, i64 8
  %11 = bitcast i8* %10 to %"struct.std::_Rb_tree_node_base"*
  %12 = icmp eq %"struct.std::_Rb_tree_node_base"* %11, %2
  br i1 %12, label %14, label %13

13:                                               ; preds = %3, %9
  br label %15

14:                                               ; preds = %9
  tail call void @_ZNSt8_Rb_treeIxxSt9_IdentityIxESt4lessIxESaIxEE5clearEv(%"class.std::_Rb_tree"* nonnull align 8 dereferenceable(48) %0) #26
  br label %20

15:                                               ; preds = %13, %18
  %16 = phi %"struct.std::_Rb_tree_node_base"* [ %19, %18 ], [ %1, %13 ]
  %17 = icmp eq %"struct.std::_Rb_tree_node_base"* %16, %2
  br i1 %17, label %20, label %18

18:                                               ; preds = %15
  %19 = tail call %"struct.std::_Rb_tree_node_base"* @_ZSt18_Rb_tree_incrementPKSt18_Rb_tree_node_base(%"struct.std::_Rb_tree_node_base"* %16) #30
  tail call void @_ZNSt8_Rb_treeIxxSt9_IdentityIxESt4lessIxESaIxEE12_M_erase_auxESt23_Rb_tree_const_iteratorIxE(%"class.std::_Rb_tree"* nonnull align 8 dereferenceable(48) %0, %"struct.std::_Rb_tree_node_base"* %16) #27
  br label %15, !llvm.loop !91

20:                                               ; preds = %15, %14
  ret void
}

; Function Attrs: minsize optsize sspstrong uwtable
define linkonce_odr dso_local %"struct.std::_Rb_tree_node_base"* @_ZNSt8_Rb_treeIxxSt9_IdentityIxESt4lessIxESaIxEE14_M_upper_boundEPSt13_Rb_tree_nodeIxEPSt18_Rb_tree_node_baseRKx(%"class.std::_Rb_tree"* nonnull align 8 dereferenceable(48) %0, %"struct.std::_Rb_tree_node"* %1, %"struct.std::_Rb_tree_node_base"* %2, i64* nonnull align 8 dereferenceable(8) %3) local_unnamed_addr #5 comdat align 2 {
  %5 = load i64, i64* %3, align 8
  br label %6

6:                                                ; preds = %10, %4
  %7 = phi %"struct.std::_Rb_tree_node_base"* [ %2, %4 ], [ %18, %10 ]
  %8 = phi %"struct.std::_Rb_tree_node"* [ %1, %4 ], [ %21, %10 ]
  %9 = icmp eq %"struct.std::_Rb_tree_node"* %8, null
  br i1 %9, label %22, label %10

10:                                               ; preds = %6
  %11 = getelementptr inbounds %"struct.std::_Rb_tree_node", %"struct.std::_Rb_tree_node"* %8, i64 0, i32 1
  %12 = bitcast %"struct.__gnu_cxx::__aligned_membuf"* %11 to i64*
  %13 = load i64, i64* %12, align 8, !tbaa !11
  %14 = icmp slt i64 %5, %13
  %15 = getelementptr %"struct.std::_Rb_tree_node", %"struct.std::_Rb_tree_node"* %8, i64 0, i32 0
  %16 = getelementptr inbounds %"struct.std::_Rb_tree_node", %"struct.std::_Rb_tree_node"* %8, i64 0, i32 0, i32 2
  %17 = getelementptr inbounds %"struct.std::_Rb_tree_node", %"struct.std::_Rb_tree_node"* %8, i64 0, i32 0, i32 3
  %18 = select i1 %14, %"struct.std::_Rb_tree_node_base"* %15, %"struct.std::_Rb_tree_node_base"* %7
  %19 = select i1 %14, %"struct.std::_Rb_tree_node_base"** %16, %"struct.std::_Rb_tree_node_base"** %17
  %20 = bitcast %"struct.std::_Rb_tree_node_base"** %19 to %"struct.std::_Rb_tree_node"**
  %21 = load %"struct.std::_Rb_tree_node"*, %"struct.std::_Rb_tree_node"** %20, align 8, !tbaa !72
  br label %6, !llvm.loop !92

22:                                               ; preds = %6
  ret %"struct.std::_Rb_tree_node_base"* %7
}

; Function Attrs: minsize mustprogress nounwind optsize sspstrong uwtable
define linkonce_odr dso_local void @_ZNSt8_Rb_treeIxxSt9_IdentityIxESt4lessIxESaIxEE5clearEv(%"class.std::_Rb_tree"* nonnull align 8 dereferenceable(48) %0) local_unnamed_addr #12 comdat align 2 personality i8* bitcast (i32 (...)* @__gxx_personality_v0 to i8*) {
  %2 = getelementptr inbounds %"class.std::_Rb_tree", %"class.std::_Rb_tree"* %0, i64 0, i32 0, i32 0, i32 0, i32 0
  %3 = getelementptr inbounds i8, i8* %2, i64 16
  %4 = bitcast i8* %3 to %"struct.std::_Rb_tree_node"**
  %5 = load %"struct.std::_Rb_tree_node"*, %"struct.std::_Rb_tree_node"** %4, align 8, !tbaa !85
  invoke void @_ZNSt8_Rb_treeIxxSt9_IdentityIxESt4lessIxESaIxEE8_M_eraseEPSt13_Rb_tree_nodeIxE(%"class.std::_Rb_tree"* nonnull align 8 dereferenceable(48) %0, %"struct.std::_Rb_tree_node"* %5) #27
          to label %6 unwind label %15

6:                                                ; preds = %1
  %7 = getelementptr inbounds i8, i8* %2, i64 8
  %8 = bitcast i8* %3 to %"struct.std::_Rb_tree_node_base"**
  store %"struct.std::_Rb_tree_node_base"* null, %"struct.std::_Rb_tree_node_base"** %8, align 8, !tbaa !85
  %9 = getelementptr inbounds i8, i8* %2, i64 24
  %10 = bitcast i8* %9 to i8**
  store i8* %7, i8** %10, align 8, !tbaa !41
  %11 = getelementptr inbounds i8, i8* %2, i64 32
  %12 = bitcast i8* %11 to i8**
  store i8* %7, i8** %12, align 8, !tbaa !81
  %13 = getelementptr inbounds i8, i8* %2, i64 40
  %14 = bitcast i8* %13 to i64*
  store i64 0, i64* %14, align 8, !tbaa !82
  ret void

15:                                               ; preds = %1
  %16 = landingpad { i8*, i32 }
          catch i8* null
  %17 = extractvalue { i8*, i32 } %16, 0
  tail call void @__clang_call_terminate(i8* %17) #28
  unreachable
}

; Function Attrs: minsize mustprogress nounwind optsize sspstrong uwtable
define linkonce_odr dso_local void @_ZNSt8_Rb_treeIxxSt9_IdentityIxESt4lessIxESaIxEE12_M_erase_auxESt23_Rb_tree_const_iteratorIxE(%"class.std::_Rb_tree"* nonnull align 8 dereferenceable(48) %0, %"struct.std::_Rb_tree_node_base"* %1) local_unnamed_addr #12 comdat align 2 personality i32 (...)* @__gxx_personality_v0 {
  %3 = getelementptr inbounds %"class.std::_Rb_tree", %"class.std::_Rb_tree"* %0, i64 0, i32 0, i32 0, i32 0, i32 0
  %4 = getelementptr inbounds i8, i8* %3, i64 8
  %5 = bitcast i8* %4 to %"struct.std::_Rb_tree_node_base"*
  %6 = tail call %"struct.std::_Rb_tree_node_base"* @_ZSt28_Rb_tree_rebalance_for_erasePSt18_Rb_tree_node_baseRS_(%"struct.std::_Rb_tree_node_base"* %1, %"struct.std::_Rb_tree_node_base"* nonnull align 8 dereferenceable(32) %5) #26
  %7 = bitcast %"struct.std::_Rb_tree_node_base"* %6 to i8*
  tail call void @_ZdlPv(i8* %7) #26
  %8 = getelementptr inbounds i8, i8* %3, i64 40
  %9 = bitcast i8* %8 to i64*
  %10 = load i64, i64* %9, align 8, !tbaa !82
  %11 = add i64 %10, -1
  store i64 %11, i64* %9, align 8, !tbaa !82
  ret void
}

; Function Attrs: minsize nounwind optsize
declare %"struct.std::_Rb_tree_node_base"* @_ZSt28_Rb_tree_rebalance_for_erasePSt18_Rb_tree_node_baseRS_(%"struct.std::_Rb_tree_node_base"*, %"struct.std::_Rb_tree_node_base"* nonnull align 8 dereferenceable(32)) local_unnamed_addr #1

; Function Attrs: minsize optsize sspstrong uwtable
define linkonce_odr dso_local { %"struct.std::_Rb_tree_node_base"*, i8 } @_ZNSt8_Rb_treeIxxSt9_IdentityIxESt4lessIxESaIxEE16_M_insert_uniqueIRKxEESt4pairISt17_Rb_tree_iteratorIxEbEOT_(%"class.std::_Rb_tree"* nonnull align 8 dereferenceable(48) %0, i64* nonnull align 8 dereferenceable(8) %1) local_unnamed_addr #5 comdat align 2 {
  %3 = alloca %"struct.std::_Rb_tree<long long, long long, std::_Identity<long long>, std::less<long long>>::_Alloc_node", align 8
  %4 = tail call { %"struct.std::_Rb_tree_node_base"*, %"struct.std::_Rb_tree_node_base"* } @_ZNSt8_Rb_treeIxxSt9_IdentityIxESt4lessIxESaIxEE24_M_get_insert_unique_posERKx(%"class.std::_Rb_tree"* nonnull align 8 dereferenceable(48) %0, i64* nonnull align 8 dereferenceable(8) %1) #27
  %5 = extractvalue { %"struct.std::_Rb_tree_node_base"*, %"struct.std::_Rb_tree_node_base"* } %4, 0
  %6 = extractvalue { %"struct.std::_Rb_tree_node_base"*, %"struct.std::_Rb_tree_node_base"* } %4, 1
  %7 = icmp eq %"struct.std::_Rb_tree_node_base"* %6, null
  br i1 %7, label %12, label %8

8:                                                ; preds = %2
  %9 = bitcast %"struct.std::_Rb_tree<long long, long long, std::_Identity<long long>, std::less<long long>>::_Alloc_node"* %3 to i8*
  call void @llvm.lifetime.start.p0i8(i64 8, i8* nonnull %9) #29
  %10 = getelementptr inbounds %"struct.std::_Rb_tree<long long, long long, std::_Identity<long long>, std::less<long long>>::_Alloc_node", %"struct.std::_Rb_tree<long long, long long, std::_Identity<long long>, std::less<long long>>::_Alloc_node"* %3, i64 0, i32 0
  store %"class.std::_Rb_tree"* %0, %"class.std::_Rb_tree"** %10, align 8, !tbaa !72
  %11 = call %"struct.std::_Rb_tree_node_base"* @_ZNSt8_Rb_treeIxxSt9_IdentityIxESt4lessIxESaIxEE10_M_insert_IRKxNS5_11_Alloc_nodeEEESt17_Rb_tree_iteratorIxEPSt18_Rb_tree_node_baseSD_OT_RT0_(%"class.std::_Rb_tree"* nonnull align 8 dereferenceable(48) %0, %"struct.std::_Rb_tree_node_base"* %5, %"struct.std::_Rb_tree_node_base"* nonnull %6, i64* nonnull align 8 dereferenceable(8) %1, %"struct.std::_Rb_tree<long long, long long, std::_Identity<long long>, std::less<long long>>::_Alloc_node"* nonnull align 8 dereferenceable(8) %3) #27
  call void @llvm.lifetime.end.p0i8(i64 8, i8* nonnull %9) #29
  br label %12

12:                                               ; preds = %2, %8
  %13 = phi %"struct.std::_Rb_tree_node_base"* [ %11, %8 ], [ %5, %2 ]
  %14 = phi i8 [ 1, %8 ], [ 0, %2 ]
  %15 = insertvalue { %"struct.std::_Rb_tree_node_base"*, i8 } undef, %"struct.std::_Rb_tree_node_base"* %13, 0
  %16 = insertvalue { %"struct.std::_Rb_tree_node_base"*, i8 } %15, i8 %14, 1
  ret { %"struct.std::_Rb_tree_node_base"*, i8 } %16
}

; Function Attrs: minsize optsize sspstrong uwtable
define linkonce_odr dso_local { %"struct.std::_Rb_tree_node_base"*, %"struct.std::_Rb_tree_node_base"* } @_ZNSt8_Rb_treeIxxSt9_IdentityIxESt4lessIxESaIxEE24_M_get_insert_unique_posERKx(%"class.std::_Rb_tree"* nonnull align 8 dereferenceable(48) %0, i64* nonnull align 8 dereferenceable(8) %1) local_unnamed_addr #5 comdat align 2 {
  %3 = getelementptr inbounds %"class.std::_Rb_tree", %"class.std::_Rb_tree"* %0, i64 0, i32 0, i32 0, i32 0, i32 0
  %4 = getelementptr inbounds i8, i8* %3, i64 16
  %5 = bitcast i8* %4 to %"struct.std::_Rb_tree_node"**
  %6 = getelementptr inbounds i8, i8* %3, i64 8
  %7 = bitcast i8* %6 to %"struct.std::_Rb_tree_node_base"*
  %8 = load i64, i64* %1, align 8
  br label %9

9:                                                ; preds = %15, %2
  %10 = phi %"struct.std::_Rb_tree_node"** [ %5, %2 ], [ %24, %15 ]
  %11 = phi %"struct.std::_Rb_tree_node_base"* [ %7, %2 ], [ %16, %15 ]
  %12 = phi i1 [ true, %2 ], [ %20, %15 ]
  %13 = load %"struct.std::_Rb_tree_node"*, %"struct.std::_Rb_tree_node"** %10, align 8, !tbaa !72
  %14 = icmp eq %"struct.std::_Rb_tree_node"* %13, null
  br i1 %14, label %25, label %15

15:                                               ; preds = %9
  %16 = getelementptr %"struct.std::_Rb_tree_node", %"struct.std::_Rb_tree_node"* %13, i64 0, i32 0
  %17 = getelementptr inbounds %"struct.std::_Rb_tree_node", %"struct.std::_Rb_tree_node"* %13, i64 0, i32 1
  %18 = bitcast %"struct.__gnu_cxx::__aligned_membuf"* %17 to i64*
  %19 = load i64, i64* %18, align 8, !tbaa !11
  %20 = icmp slt i64 %8, %19
  %21 = getelementptr inbounds %"struct.std::_Rb_tree_node", %"struct.std::_Rb_tree_node"* %13, i64 0, i32 0, i32 2
  %22 = getelementptr inbounds %"struct.std::_Rb_tree_node", %"struct.std::_Rb_tree_node"* %13, i64 0, i32 0, i32 3
  %23 = select i1 %20, %"struct.std::_Rb_tree_node_base"** %21, %"struct.std::_Rb_tree_node_base"** %22
  %24 = bitcast %"struct.std::_Rb_tree_node_base"** %23 to %"struct.std::_Rb_tree_node"**
  br label %9, !llvm.loop !93

25:                                               ; preds = %9
  br i1 %12, label %26, label %33

26:                                               ; preds = %25
  %27 = getelementptr inbounds i8, i8* %3, i64 24
  %28 = bitcast i8* %27 to %"struct.std::_Rb_tree_node_base"**
  %29 = load %"struct.std::_Rb_tree_node_base"*, %"struct.std::_Rb_tree_node_base"** %28, align 8, !tbaa !41
  %30 = icmp eq %"struct.std::_Rb_tree_node_base"* %11, %29
  br i1 %30, label %41, label %31

31:                                               ; preds = %26
  %32 = tail call %"struct.std::_Rb_tree_node_base"* @_ZSt18_Rb_tree_decrementPSt18_Rb_tree_node_base(%"struct.std::_Rb_tree_node_base"* %11) #30
  br label %33

33:                                               ; preds = %31, %25
  %34 = phi %"struct.std::_Rb_tree_node_base"* [ %32, %31 ], [ %11, %25 ]
  %35 = getelementptr inbounds %"struct.std::_Rb_tree_node_base", %"struct.std::_Rb_tree_node_base"* %34, i64 1
  %36 = bitcast %"struct.std::_Rb_tree_node_base"* %35 to i64*
  %37 = load i64, i64* %36, align 8, !tbaa !11
  %38 = icmp slt i64 %37, %8
  %39 = select i1 %38, %"struct.std::_Rb_tree_node_base"* null, %"struct.std::_Rb_tree_node_base"* %34
  %40 = select i1 %38, %"struct.std::_Rb_tree_node_base"* %11, %"struct.std::_Rb_tree_node_base"* null
  br label %41

41:                                               ; preds = %26, %33
  %42 = phi %"struct.std::_Rb_tree_node_base"* [ %39, %33 ], [ null, %26 ]
  %43 = phi %"struct.std::_Rb_tree_node_base"* [ %40, %33 ], [ %11, %26 ]
  %44 = insertvalue { %"struct.std::_Rb_tree_node_base"*, %"struct.std::_Rb_tree_node_base"* } undef, %"struct.std::_Rb_tree_node_base"* %42, 0
  %45 = insertvalue { %"struct.std::_Rb_tree_node_base"*, %"struct.std::_Rb_tree_node_base"* } %44, %"struct.std::_Rb_tree_node_base"* %43, 1
  ret { %"struct.std::_Rb_tree_node_base"*, %"struct.std::_Rb_tree_node_base"* } %45
}

; Function Attrs: minsize optsize sspstrong uwtable
define linkonce_odr dso_local %"struct.std::_Rb_tree_node_base"* @_ZNSt8_Rb_treeIxxSt9_IdentityIxESt4lessIxESaIxEE10_M_insert_IRKxNS5_11_Alloc_nodeEEESt17_Rb_tree_iteratorIxEPSt18_Rb_tree_node_baseSD_OT_RT0_(%"class.std::_Rb_tree"* nonnull align 8 dereferenceable(48) %0, %"struct.std::_Rb_tree_node_base"* %1, %"struct.std::_Rb_tree_node_base"* %2, i64* nonnull align 8 dereferenceable(8) %3, %"struct.std::_Rb_tree<long long, long long, std::_Identity<long long>, std::less<long long>>::_Alloc_node"* nonnull align 8 dereferenceable(8) %4) local_unnamed_addr #5 comdat align 2 {
  %6 = icmp eq %"struct.std::_Rb_tree_node_base"* %1, null
  br i1 %6, label %7, label %18

7:                                                ; preds = %5
  %8 = getelementptr inbounds %"class.std::_Rb_tree", %"class.std::_Rb_tree"* %0, i64 0, i32 0, i32 0, i32 0, i32 0
  %9 = getelementptr inbounds i8, i8* %8, i64 8
  %10 = bitcast i8* %9 to %"struct.std::_Rb_tree_node_base"*
  %11 = icmp eq %"struct.std::_Rb_tree_node_base"* %10, %2
  br i1 %11, label %18, label %12

12:                                               ; preds = %7
  %13 = getelementptr inbounds %"struct.std::_Rb_tree_node_base", %"struct.std::_Rb_tree_node_base"* %2, i64 1
  %14 = bitcast %"struct.std::_Rb_tree_node_base"* %13 to i64*
  %15 = load i64, i64* %3, align 8, !tbaa !11
  %16 = load i64, i64* %14, align 8, !tbaa !11
  %17 = icmp slt i64 %15, %16
  br label %18

18:                                               ; preds = %5, %12, %7
  %19 = phi i1 [ true, %7 ], [ %17, %12 ], [ true, %5 ]
  %20 = tail call %"struct.std::_Rb_tree_node"* @_ZNKSt8_Rb_treeIxxSt9_IdentityIxESt4lessIxESaIxEE11_Alloc_nodeclIRKxEEPSt13_Rb_tree_nodeIxEOT_(%"struct.std::_Rb_tree<long long, long long, std::_Identity<long long>, std::less<long long>>::_Alloc_node"* nonnull align 8 dereferenceable(8) %4, i64* nonnull align 8 dereferenceable(8) %3) #27
  %21 = getelementptr %"struct.std::_Rb_tree_node", %"struct.std::_Rb_tree_node"* %20, i64 0, i32 0
  %22 = getelementptr inbounds %"class.std::_Rb_tree", %"class.std::_Rb_tree"* %0, i64 0, i32 0, i32 0, i32 0, i32 0
  %23 = getelementptr inbounds i8, i8* %22, i64 8
  %24 = bitcast i8* %23 to %"struct.std::_Rb_tree_node_base"*
  tail call void @_ZSt29_Rb_tree_insert_and_rebalancebPSt18_Rb_tree_node_baseS0_RS_(i1 zeroext %19, %"struct.std::_Rb_tree_node_base"* %21, %"struct.std::_Rb_tree_node_base"* %2, %"struct.std::_Rb_tree_node_base"* nonnull align 8 dereferenceable(32) %24) #26
  %25 = getelementptr inbounds i8, i8* %22, i64 40
  %26 = bitcast i8* %25 to i64*
  %27 = load i64, i64* %26, align 8, !tbaa !82
  %28 = add i64 %27, 1
  store i64 %28, i64* %26, align 8, !tbaa !82
  ret %"struct.std::_Rb_tree_node_base"* %21
}

; Function Attrs: minsize mustprogress nofree nounwind optsize readonly willreturn
declare %"struct.std::_Rb_tree_node_base"* @_ZSt18_Rb_tree_decrementPSt18_Rb_tree_node_base(%"struct.std::_Rb_tree_node_base"*) local_unnamed_addr #21

; Function Attrs: minsize mustprogress optsize sspstrong uwtable
define linkonce_odr dso_local %"struct.std::_Rb_tree_node"* @_ZNKSt8_Rb_treeIxxSt9_IdentityIxESt4lessIxESaIxEE11_Alloc_nodeclIRKxEEPSt13_Rb_tree_nodeIxEOT_(%"struct.std::_Rb_tree<long long, long long, std::_Identity<long long>, std::less<long long>>::_Alloc_node"* nonnull align 8 dereferenceable(8) %0, i64* nonnull align 8 dereferenceable(8) %1) local_unnamed_addr #9 comdat align 2 {
  %3 = getelementptr inbounds %"struct.std::_Rb_tree<long long, long long, std::_Identity<long long>, std::less<long long>>::_Alloc_node", %"struct.std::_Rb_tree<long long, long long, std::_Identity<long long>, std::less<long long>>::_Alloc_node"* %0, i64 0, i32 0
  %4 = load %"class.std::_Rb_tree"*, %"class.std::_Rb_tree"** %3, align 8, !tbaa !94
  %5 = tail call %"struct.std::_Rb_tree_node"* @_ZNSt8_Rb_treeIxxSt9_IdentityIxESt4lessIxESaIxEE14_M_create_nodeIJRKxEEEPSt13_Rb_tree_nodeIxEDpOT_(%"class.std::_Rb_tree"* nonnull align 8 dereferenceable(48) %4, i64* nonnull align 8 dereferenceable(8) %1) #27
  ret %"struct.std::_Rb_tree_node"* %5
}

; Function Attrs: minsize nounwind optsize
declare void @_ZSt29_Rb_tree_insert_and_rebalancebPSt18_Rb_tree_node_baseS0_RS_(i1 zeroext, %"struct.std::_Rb_tree_node_base"*, %"struct.std::_Rb_tree_node_base"*, %"struct.std::_Rb_tree_node_base"* nonnull align 8 dereferenceable(32)) local_unnamed_addr #1

; Function Attrs: minsize mustprogress optsize sspstrong uwtable
define linkonce_odr dso_local %"struct.std::_Rb_tree_node"* @_ZNSt8_Rb_treeIxxSt9_IdentityIxESt4lessIxESaIxEE14_M_create_nodeIJRKxEEEPSt13_Rb_tree_nodeIxEDpOT_(%"class.std::_Rb_tree"* nonnull align 8 dereferenceable(48) %0, i64* nonnull align 8 dereferenceable(8) %1) local_unnamed_addr #9 comdat align 2 {
  %3 = tail call %"struct.std::_Rb_tree_node"* @_ZNSt8_Rb_treeIxxSt9_IdentityIxESt4lessIxESaIxEE11_M_get_nodeEv(%"class.std::_Rb_tree"* nonnull align 8 dereferenceable(48) %0) #27
  %4 = getelementptr inbounds %"struct.std::_Rb_tree_node", %"struct.std::_Rb_tree_node"* %3, i64 0, i32 1
  %5 = bitcast %"struct.__gnu_cxx::__aligned_membuf"* %4 to i64*
  %6 = load i64, i64* %1, align 8, !tbaa !11
  store i64 %6, i64* %5, align 8, !tbaa !11
  ret %"struct.std::_Rb_tree_node"* %3
}

; Function Attrs: minsize mustprogress optsize sspstrong uwtable
define linkonce_odr dso_local %"struct.std::_Rb_tree_node"* @_ZNSt8_Rb_treeIxxSt9_IdentityIxESt4lessIxESaIxEE11_M_get_nodeEv(%"class.std::_Rb_tree"* nonnull align 8 dereferenceable(48) %0) local_unnamed_addr #9 comdat align 2 {
  %2 = bitcast %"class.std::_Rb_tree"* %0 to %"class.std::allocator.14"*
  %3 = tail call %"struct.std::_Rb_tree_node"* @_ZNSt16allocator_traitsISaISt13_Rb_tree_nodeIxEEE8allocateERS2_m(%"class.std::allocator.14"* nonnull align 1 dereferenceable(1) %2, i64 1) #27
  ret %"struct.std::_Rb_tree_node"* %3
}

; Function Attrs: minsize mustprogress optsize sspstrong uwtable
define linkonce_odr dso_local %"struct.std::_Rb_tree_node"* @_ZNSt16allocator_traitsISaISt13_Rb_tree_nodeIxEEE8allocateERS2_m(%"class.std::allocator.14"* nonnull align 1 dereferenceable(1) %0, i64 %1) local_unnamed_addr #9 comdat align 2 {
  %3 = bitcast %"class.std::allocator.14"* %0 to %"class.__gnu_cxx::new_allocator.15"*
  %4 = tail call %"struct.std::_Rb_tree_node"* @_ZN9__gnu_cxx13new_allocatorISt13_Rb_tree_nodeIxEE8allocateEmPKv(%"class.__gnu_cxx::new_allocator.15"* nonnull align 1 dereferenceable(1) %3, i64 %1, i8* null) #27
  ret %"struct.std::_Rb_tree_node"* %4
}

; Function Attrs: minsize mustprogress optsize sspstrong uwtable
define linkonce_odr dso_local %"struct.std::_Rb_tree_node"* @_ZN9__gnu_cxx13new_allocatorISt13_Rb_tree_nodeIxEE8allocateEmPKv(%"class.__gnu_cxx::new_allocator.15"* nonnull align 1 dereferenceable(1) %0, i64 %1, i8* %2) local_unnamed_addr #9 comdat align 2 {
  %4 = icmp ugt i64 %1, 230584300921369395
  br i1 %4, label %5, label %9, !prof !80

5:                                                ; preds = %3
  %6 = icmp ugt i64 %1, 461168601842738790
  br i1 %6, label %7, label %8

7:                                                ; preds = %5
  tail call void @_ZSt28__throw_bad_array_new_lengthv() #31
  unreachable

8:                                                ; preds = %5
  tail call void @_ZSt17__throw_bad_allocv() #31
  unreachable

9:                                                ; preds = %3
  %10 = mul nuw nsw i64 %1, 40
  %11 = tail call noalias nonnull i8* @_Znwm(i64 %10) #32
  %12 = bitcast i8* %11 to %"struct.std::_Rb_tree_node"*
  ret %"struct.std::_Rb_tree_node"* %12
}

; Function Attrs: minsize optsize
declare nonnull align 8 dereferenceable(16) %"class.std::basic_istream"* @_ZNSi10_M_extractIxEERSiRT_(%"class.std::basic_istream"* nonnull align 8 dereferenceable(16), i64* nonnull align 8 dereferenceable(8)) local_unnamed_addr #0

; Function Attrs: minsize optsize sspstrong uwtable
define linkonce_odr dso_local { %"struct.std::_Rb_tree_node_base"*, i8 } @_ZNSt8_Rb_treeIxxSt9_IdentityIxESt4lessIxESaIxEE16_M_insert_uniqueIxEESt4pairISt17_Rb_tree_iteratorIxEbEOT_(%"class.std::_Rb_tree"* nonnull align 8 dereferenceable(48) %0, i64* nonnull align 8 dereferenceable(8) %1) local_unnamed_addr #5 comdat align 2 {
  %3 = alloca %"struct.std::_Rb_tree<long long, long long, std::_Identity<long long>, std::less<long long>>::_Alloc_node", align 8
  %4 = tail call { %"struct.std::_Rb_tree_node_base"*, %"struct.std::_Rb_tree_node_base"* } @_ZNSt8_Rb_treeIxxSt9_IdentityIxESt4lessIxESaIxEE24_M_get_insert_unique_posERKx(%"class.std::_Rb_tree"* nonnull align 8 dereferenceable(48) %0, i64* nonnull align 8 dereferenceable(8) %1) #27
  %5 = extractvalue { %"struct.std::_Rb_tree_node_base"*, %"struct.std::_Rb_tree_node_base"* } %4, 0
  %6 = extractvalue { %"struct.std::_Rb_tree_node_base"*, %"struct.std::_Rb_tree_node_base"* } %4, 1
  %7 = icmp eq %"struct.std::_Rb_tree_node_base"* %6, null
  br i1 %7, label %12, label %8

8:                                                ; preds = %2
  %9 = bitcast %"struct.std::_Rb_tree<long long, long long, std::_Identity<long long>, std::less<long long>>::_Alloc_node"* %3 to i8*
  call void @llvm.lifetime.start.p0i8(i64 8, i8* nonnull %9) #29
  %10 = getelementptr inbounds %"struct.std::_Rb_tree<long long, long long, std::_Identity<long long>, std::less<long long>>::_Alloc_node", %"struct.std::_Rb_tree<long long, long long, std::_Identity<long long>, std::less<long long>>::_Alloc_node"* %3, i64 0, i32 0
  store %"class.std::_Rb_tree"* %0, %"class.std::_Rb_tree"** %10, align 8, !tbaa !72
  %11 = call %"struct.std::_Rb_tree_node_base"* @_ZNSt8_Rb_treeIxxSt9_IdentityIxESt4lessIxESaIxEE10_M_insert_IxNS5_11_Alloc_nodeEEESt17_Rb_tree_iteratorIxEPSt18_Rb_tree_node_baseSB_OT_RT0_(%"class.std::_Rb_tree"* nonnull align 8 dereferenceable(48) %0, %"struct.std::_Rb_tree_node_base"* %5, %"struct.std::_Rb_tree_node_base"* nonnull %6, i64* nonnull align 8 dereferenceable(8) %1, %"struct.std::_Rb_tree<long long, long long, std::_Identity<long long>, std::less<long long>>::_Alloc_node"* nonnull align 8 dereferenceable(8) %3) #27
  call void @llvm.lifetime.end.p0i8(i64 8, i8* nonnull %9) #29
  br label %12

12:                                               ; preds = %2, %8
  %13 = phi %"struct.std::_Rb_tree_node_base"* [ %11, %8 ], [ %5, %2 ]
  %14 = phi i8 [ 1, %8 ], [ 0, %2 ]
  %15 = insertvalue { %"struct.std::_Rb_tree_node_base"*, i8 } undef, %"struct.std::_Rb_tree_node_base"* %13, 0
  %16 = insertvalue { %"struct.std::_Rb_tree_node_base"*, i8 } %15, i8 %14, 1
  ret { %"struct.std::_Rb_tree_node_base"*, i8 } %16
}

; Function Attrs: minsize optsize sspstrong uwtable
define linkonce_odr dso_local %"struct.std::_Rb_tree_node_base"* @_ZNSt8_Rb_treeIxxSt9_IdentityIxESt4lessIxESaIxEE10_M_insert_IxNS5_11_Alloc_nodeEEESt17_Rb_tree_iteratorIxEPSt18_Rb_tree_node_baseSB_OT_RT0_(%"class.std::_Rb_tree"* nonnull align 8 dereferenceable(48) %0, %"struct.std::_Rb_tree_node_base"* %1, %"struct.std::_Rb_tree_node_base"* %2, i64* nonnull align 8 dereferenceable(8) %3, %"struct.std::_Rb_tree<long long, long long, std::_Identity<long long>, std::less<long long>>::_Alloc_node"* nonnull align 8 dereferenceable(8) %4) local_unnamed_addr #5 comdat align 2 {
  %6 = icmp eq %"struct.std::_Rb_tree_node_base"* %1, null
  br i1 %6, label %7, label %18

7:                                                ; preds = %5
  %8 = getelementptr inbounds %"class.std::_Rb_tree", %"class.std::_Rb_tree"* %0, i64 0, i32 0, i32 0, i32 0, i32 0
  %9 = getelementptr inbounds i8, i8* %8, i64 8
  %10 = bitcast i8* %9 to %"struct.std::_Rb_tree_node_base"*
  %11 = icmp eq %"struct.std::_Rb_tree_node_base"* %10, %2
  br i1 %11, label %18, label %12

12:                                               ; preds = %7
  %13 = getelementptr inbounds %"struct.std::_Rb_tree_node_base", %"struct.std::_Rb_tree_node_base"* %2, i64 1
  %14 = bitcast %"struct.std::_Rb_tree_node_base"* %13 to i64*
  %15 = load i64, i64* %3, align 8, !tbaa !11
  %16 = load i64, i64* %14, align 8, !tbaa !11
  %17 = icmp slt i64 %15, %16
  br label %18

18:                                               ; preds = %5, %12, %7
  %19 = phi i1 [ true, %7 ], [ %17, %12 ], [ true, %5 ]
  %20 = tail call %"struct.std::_Rb_tree_node"* @_ZNKSt8_Rb_treeIxxSt9_IdentityIxESt4lessIxESaIxEE11_Alloc_nodeclIxEEPSt13_Rb_tree_nodeIxEOT_(%"struct.std::_Rb_tree<long long, long long, std::_Identity<long long>, std::less<long long>>::_Alloc_node"* nonnull align 8 dereferenceable(8) %4, i64* nonnull align 8 dereferenceable(8) %3) #27
  %21 = getelementptr %"struct.std::_Rb_tree_node", %"struct.std::_Rb_tree_node"* %20, i64 0, i32 0
  %22 = getelementptr inbounds %"class.std::_Rb_tree", %"class.std::_Rb_tree"* %0, i64 0, i32 0, i32 0, i32 0, i32 0
  %23 = getelementptr inbounds i8, i8* %22, i64 8
  %24 = bitcast i8* %23 to %"struct.std::_Rb_tree_node_base"*
  tail call void @_ZSt29_Rb_tree_insert_and_rebalancebPSt18_Rb_tree_node_baseS0_RS_(i1 zeroext %19, %"struct.std::_Rb_tree_node_base"* %21, %"struct.std::_Rb_tree_node_base"* %2, %"struct.std::_Rb_tree_node_base"* nonnull align 8 dereferenceable(32) %24) #26
  %25 = getelementptr inbounds i8, i8* %22, i64 40
  %26 = bitcast i8* %25 to i64*
  %27 = load i64, i64* %26, align 8, !tbaa !82
  %28 = add i64 %27, 1
  store i64 %28, i64* %26, align 8, !tbaa !82
  ret %"struct.std::_Rb_tree_node_base"* %21
}

; Function Attrs: minsize mustprogress optsize sspstrong uwtable
define linkonce_odr dso_local %"struct.std::_Rb_tree_node"* @_ZNKSt8_Rb_treeIxxSt9_IdentityIxESt4lessIxESaIxEE11_Alloc_nodeclIxEEPSt13_Rb_tree_nodeIxEOT_(%"struct.std::_Rb_tree<long long, long long, std::_Identity<long long>, std::less<long long>>::_Alloc_node"* nonnull align 8 dereferenceable(8) %0, i64* nonnull align 8 dereferenceable(8) %1) local_unnamed_addr #9 comdat align 2 {
  %3 = getelementptr inbounds %"struct.std::_Rb_tree<long long, long long, std::_Identity<long long>, std::less<long long>>::_Alloc_node", %"struct.std::_Rb_tree<long long, long long, std::_Identity<long long>, std::less<long long>>::_Alloc_node"* %0, i64 0, i32 0
  %4 = load %"class.std::_Rb_tree"*, %"class.std::_Rb_tree"** %3, align 8, !tbaa !94
  %5 = tail call %"struct.std::_Rb_tree_node"* @_ZNSt8_Rb_treeIxxSt9_IdentityIxESt4lessIxESaIxEE14_M_create_nodeIJxEEEPSt13_Rb_tree_nodeIxEDpOT_(%"class.std::_Rb_tree"* nonnull align 8 dereferenceable(48) %4, i64* nonnull align 8 dereferenceable(8) %1) #27
  ret %"struct.std::_Rb_tree_node"* %5
}

; Function Attrs: minsize mustprogress optsize sspstrong uwtable
define linkonce_odr dso_local %"struct.std::_Rb_tree_node"* @_ZNSt8_Rb_treeIxxSt9_IdentityIxESt4lessIxESaIxEE14_M_create_nodeIJxEEEPSt13_Rb_tree_nodeIxEDpOT_(%"class.std::_Rb_tree"* nonnull align 8 dereferenceable(48) %0, i64* nonnull align 8 dereferenceable(8) %1) local_unnamed_addr #9 comdat align 2 {
  %3 = tail call %"struct.std::_Rb_tree_node"* @_ZNSt8_Rb_treeIxxSt9_IdentityIxESt4lessIxESaIxEE11_M_get_nodeEv(%"class.std::_Rb_tree"* nonnull align 8 dereferenceable(48) %0) #27
  %4 = getelementptr inbounds %"struct.std::_Rb_tree_node", %"struct.std::_Rb_tree_node"* %3, i64 0, i32 1
  %5 = bitcast %"struct.__gnu_cxx::__aligned_membuf"* %4 to i64*
  %6 = load i64, i64* %1, align 8, !tbaa !11
  store i64 %6, i64* %5, align 8, !tbaa !11
  ret %"struct.std::_Rb_tree_node"* %3
}

; Function Attrs: minsize optsize
declare nonnull align 8 dereferenceable(8) %"class.std::basic_ostream"* @_ZNSo9_M_insertIxEERSoT_(%"class.std::basic_ostream"* nonnull align 8 dereferenceable(8), i64) local_unnamed_addr #0

; Function Attrs: minsize mustprogress nofree nounwind optsize readonly willreturn
declare %"struct.std::_Rb_tree_node_base"* @_ZSt18_Rb_tree_incrementPKSt18_Rb_tree_node_base(%"struct.std::_Rb_tree_node_base"*) local_unnamed_addr #21

; Function Attrs: minsize mustprogress nofree nounwind optsize readonly willreturn
declare %"struct.std::_Rb_tree_node_base"* @_ZSt18_Rb_tree_decrementPKSt18_Rb_tree_node_base(%"struct.std::_Rb_tree_node_base"*) local_unnamed_addr #21

; Function Attrs: minsize mustprogress optsize sspstrong uwtable
define linkonce_odr dso_local { i64*, i32 } @_ZStplRKSt13_Bit_iteratorl(%"struct.std::_Bit_iterator"* nonnull align 8 dereferenceable(12) %0, i64 %1) local_unnamed_addr #9 comdat {
  %3 = getelementptr inbounds %"struct.std::_Bit_iterator", %"struct.std::_Bit_iterator"* %0, i64 0, i32 0, i32 0
  %4 = load i64*, i64** %3, align 8
  %5 = getelementptr inbounds %"struct.std::_Bit_iterator", %"struct.std::_Bit_iterator"* %0, i64 0, i32 0, i32 1
  %6 = load i32, i32* %5, align 8
  %7 = zext i32 %6 to i64
  %8 = add nsw i64 %7, %1
  %9 = sdiv i64 %8, 64
  %10 = srem i64 %8, 64
  %11 = icmp slt i64 %10, 0
  %12 = add nsw i64 %10, 64
  %13 = ashr i64 %10, 63
  %14 = add nsw i64 %13, %9
  %15 = getelementptr i64, i64* %4, i64 %14
  %16 = select i1 %11, i64 %12, i64 %10
  %17 = trunc i64 %16 to i32
  %18 = insertvalue { i64*, i32 } undef, i64* %15, 0
  %19 = insertvalue { i64*, i32 } %18, i32 %17, 1
  ret { i64*, i32 } %19
}

; Function Attrs: minsize optsize sspstrong uwtable
define linkonce_odr dso_local { i64*, i32 } @_ZNSt6vectorIbSaIbEE6insertESt19_Bit_const_iteratormRKb(%"class.std::vector.0"* nonnull align 8 dereferenceable(40) %0, i64* %1, i32 %2, i64 %3, i8* nonnull align 1 dereferenceable(1) %4) local_unnamed_addr #5 comdat align 2 personality i32 (...)* @__gxx_personality_v0 {
  %6 = alloca { i64*, i32 }, align 8
  %7 = bitcast { i64*, i32 }* %6 to %"struct.std::_Bit_iterator"*
  %8 = getelementptr inbounds %"class.std::vector.0", %"class.std::vector.0"* %0, i64 0, i32 0, i32 0, i32 0, i32 0, i32 0, i32 0
  %9 = load i64*, i64** %8, align 8, !tbaa !58
  %10 = ptrtoint i64* %1 to i64
  %11 = ptrtoint i64* %9 to i64
  %12 = sub i64 %10, %11
  %13 = shl nsw i64 %12, 3
  %14 = zext i32 %2 to i64
  %15 = add nsw i64 %13, %14
  %16 = load i8, i8* %4, align 1, !tbaa !57, !range !66
  %17 = icmp ne i8 %16, 0
  tail call void @_ZNSt6vectorIbSaIbEE14_M_fill_insertESt13_Bit_iteratormb(%"class.std::vector.0"* nonnull align 8 dereferenceable(40) %0, i64* %1, i32 %2, i64 %3, i1 zeroext %17) #27
  %18 = bitcast { i64*, i32 }* %6 to i8*
  call void @llvm.lifetime.start.p0i8(i64 16, i8* nonnull %18) #29
  %19 = load i64*, i64** %8, align 8, !tbaa !58
  %20 = getelementptr inbounds { i64*, i32 }, { i64*, i32 }* %6, i64 0, i32 0
  store i64* %19, i64** %20, align 8
  %21 = getelementptr inbounds { i64*, i32 }, { i64*, i32 }* %6, i64 0, i32 1
  store i32 0, i32* %21, align 8
  %22 = call { i64*, i32 } @_ZStplRKSt13_Bit_iteratorl(%"struct.std::_Bit_iterator"* nonnull align 8 dereferenceable(12) %7, i64 %15) #27
  call void @llvm.lifetime.end.p0i8(i64 16, i8* nonnull %18) #29
  ret { i64*, i32 } %22
}

; Function Attrs: minsize mustprogress nounwind optsize sspstrong uwtable
define linkonce_odr dso_local void @_ZNSt18_Bit_iterator_base7_M_incrEl(%"struct.std::_Bit_iterator_base"* nonnull align 8 dereferenceable(12) %0, i64 %1) local_unnamed_addr #12 comdat align 2 {
  %3 = getelementptr inbounds %"struct.std::_Bit_iterator_base", %"struct.std::_Bit_iterator_base"* %0, i64 0, i32 1
  %4 = load i32, i32* %3, align 8, !tbaa !61
  %5 = zext i32 %4 to i64
  %6 = add nsw i64 %5, %1
  %7 = sdiv i64 %6, 64
  %8 = getelementptr inbounds %"struct.std::_Bit_iterator_base", %"struct.std::_Bit_iterator_base"* %0, i64 0, i32 0
  %9 = load i64*, i64** %8, align 8, !tbaa !58
  %10 = srem i64 %6, 64
  %11 = icmp slt i64 %10, 0
  %12 = add nsw i64 %10, 64
  %13 = ashr i64 %10, 63
  %14 = add nsw i64 %13, %7
  %15 = getelementptr i64, i64* %9, i64 %14
  %16 = select i1 %11, i64 %12, i64 %10
  store i64* %15, i64** %8, align 8, !tbaa !58
  %17 = trunc i64 %16 to i32
  store i32 %17, i32* %3, align 8, !tbaa !61
  ret void
}

; Function Attrs: minsize optsize sspstrong uwtable
define linkonce_odr dso_local void @_ZNSt6vectorIbSaIbEE14_M_fill_insertESt13_Bit_iteratormb(%"class.std::vector.0"* nonnull align 8 dereferenceable(40) %0, i64* %1, i32 %2, i64 %3, i1 zeroext %4) local_unnamed_addr #5 comdat align 2 personality i32 (...)* @__gxx_personality_v0 {
  %6 = alloca { i64*, i32 }, align 8
  %7 = bitcast { i64*, i32 }* %6 to %"struct.std::_Bit_iterator"*
  %8 = alloca i8, align 1
  %9 = alloca { i64*, i32 }, align 8
  %10 = bitcast { i64*, i32 }* %9 to %"struct.std::_Bit_iterator"*
  %11 = alloca %"struct.std::_Bit_iterator", align 8
  %12 = getelementptr inbounds { i64*, i32 }, { i64*, i32 }* %6, i64 0, i32 0
  store i64* %1, i64** %12, align 8
  %13 = getelementptr inbounds { i64*, i32 }, { i64*, i32 }* %6, i64 0, i32 1
  store i32 %2, i32* %13, align 8
  %14 = zext i1 %4 to i8
  store i8 %14, i8* %8, align 1, !tbaa !57
  %15 = icmp eq i64 %3, 0
  br i1 %15, label %74, label %16

16:                                               ; preds = %5
  %17 = getelementptr inbounds %"class.std::vector.0", %"class.std::vector.0"* %0, i64 0, i32 0, i32 0, i32 0, i32 2
  %18 = load i64*, i64** %17, align 8, !tbaa !76
  %19 = getelementptr inbounds %"class.std::vector.0", %"class.std::vector.0"* %0, i64 0, i32 0, i32 0, i32 0, i32 0, i32 0, i32 0
  %20 = load i64*, i64** %19, align 8, !tbaa !58
  %21 = ptrtoint i64* %18 to i64
  %22 = ptrtoint i64* %20 to i64
  %23 = sub i64 %21, %22
  %24 = shl nsw i64 %23, 3
  %25 = getelementptr inbounds %"class.std::vector.0", %"class.std::vector.0"* %0, i64 0, i32 0, i32 0, i32 0, i32 1, i32 0, i32 0
  %26 = load i64*, i64** %25, align 8, !tbaa !58
  %27 = getelementptr inbounds %"class.std::vector.0", %"class.std::vector.0"* %0, i64 0, i32 0, i32 0, i32 0, i32 1, i32 0, i32 1
  %28 = load i32, i32* %27, align 8, !tbaa !61
  %29 = ptrtoint i64* %26 to i64
  %30 = sub i64 %22, %29
  %31 = zext i32 %28 to i64
  %32 = shl i64 %30, 3
  %33 = sub i64 %24, %31
  %34 = add i64 %33, %32
  %35 = icmp ult i64 %34, %3
  br i1 %35, label %46, label %36

36:                                               ; preds = %16
  %37 = getelementptr inbounds %"class.std::vector.0", %"class.std::vector.0"* %0, i64 0, i32 0, i32 0, i32 0, i32 1
  %38 = tail call { i64*, i32 } @_ZStplRKSt13_Bit_iteratorl(%"struct.std::_Bit_iterator"* nonnull align 8 dereferenceable(12) %37, i64 %3) #27
  %39 = extractvalue { i64*, i32 } %38, 0
  %40 = extractvalue { i64*, i32 } %38, 1
  %41 = tail call { i64*, i32 } @_ZNSt20__copy_move_backwardILb0ELb0ESt26random_access_iterator_tagE13__copy_move_bISt13_Bit_iteratorS3_EET0_T_S5_S4_(i64* %1, i32 %2, i64* %26, i32 %28, i64* %39, i32 %40) #27
  %42 = call { i64*, i32 } @_ZStplRKSt13_Bit_iteratorl(%"struct.std::_Bit_iterator"* nonnull align 8 dereferenceable(12) %7, i64 %3) #27
  %43 = extractvalue { i64*, i32 } %42, 0
  %44 = extractvalue { i64*, i32 } %42, 1
  call void @_ZSt9__fill_a1St13_Bit_iteratorS_RKb(i64* %1, i32 %2, i64* %43, i32 %44, i8* nonnull align 1 dereferenceable(1) %8) #27
  %45 = bitcast %"struct.std::_Bit_iterator"* %37 to %"struct.std::_Bit_iterator_base"*
  call void @_ZNSt18_Bit_iterator_base7_M_incrEl(%"struct.std::_Bit_iterator_base"* nonnull align 8 dereferenceable(12) %45, i64 %3) #27
  br label %74

46:                                               ; preds = %16
  %47 = tail call i64 @_ZNKSt6vectorIbSaIbEE12_M_check_lenEmPKc(%"class.std::vector.0"* nonnull align 8 dereferenceable(40) %0, i64 %3, i8* getelementptr inbounds ([29 x i8], [29 x i8]* @.str.11, i64 0, i64 0)) #27
  %48 = getelementptr inbounds %"class.std::vector.0", %"class.std::vector.0"* %0, i64 0, i32 0
  %49 = tail call i64* @_ZNSt13_Bvector_baseISaIbEE11_M_allocateEm(%"struct.std::_Bvector_base"* nonnull align 8 dereferenceable(40) %48, i64 %47) #27
  %50 = bitcast { i64*, i32 }* %9 to i8*
  call void @llvm.lifetime.start.p0i8(i64 16, i8* nonnull %50) #29
  %51 = load i64*, i64** %19, align 8, !tbaa !58
  %52 = getelementptr inbounds %"struct.std::_Bit_iterator", %"struct.std::_Bit_iterator"* %11, i64 0, i32 0, i32 0
  store i64* %49, i64** %52, align 8
  %53 = getelementptr inbounds %"struct.std::_Bit_iterator", %"struct.std::_Bit_iterator"* %11, i64 0, i32 0, i32 1
  store i32 0, i32* %53, align 8
  %54 = tail call { i64*, i32 } @_ZNSt6vectorIbSaIbEE15_M_copy_alignedESt19_Bit_const_iteratorS2_St13_Bit_iterator(%"class.std::vector.0"* nonnull align 8 dereferenceable(40) %0, i64* %51, i32 0, i64* %1, i32 %2, %"struct.std::_Bit_iterator"* nonnull byval(%"struct.std::_Bit_iterator") align 8 %11) #27
  %55 = getelementptr inbounds { i64*, i32 }, { i64*, i32 }* %9, i64 0, i32 0
  %56 = extractvalue { i64*, i32 } %54, 0
  store i64* %56, i64** %55, align 8
  %57 = getelementptr inbounds { i64*, i32 }, { i64*, i32 }* %9, i64 0, i32 1
  %58 = extractvalue { i64*, i32 } %54, 1
  store i32 %58, i32* %57, align 8
  %59 = call { i64*, i32 } @_ZStplRKSt13_Bit_iteratorl(%"struct.std::_Bit_iterator"* nonnull align 8 dereferenceable(12) %10, i64 %3) #27
  %60 = extractvalue { i64*, i32 } %59, 0
  %61 = extractvalue { i64*, i32 } %59, 1
  call void @_ZSt9__fill_a1St13_Bit_iteratorS_RKb(i64* %56, i32 %58, i64* %60, i32 %61, i8* nonnull align 1 dereferenceable(1) %8) #27
  %62 = load i64*, i64** %25, align 8
  %63 = load i32, i32* %27, align 8
  %64 = call { i64*, i32 } @_ZStplRKSt13_Bit_iteratorl(%"struct.std::_Bit_iterator"* nonnull align 8 dereferenceable(12) %10, i64 %3) #27
  %65 = extractvalue { i64*, i32 } %64, 0
  %66 = extractvalue { i64*, i32 } %64, 1
  %67 = call { i64*, i32 } @_ZNSt11__copy_moveILb0ELb0ESt26random_access_iterator_tagE8__copy_mISt13_Bit_iteratorS3_EET0_T_S5_S4_(i64* %1, i32 %2, i64* %62, i32 %63, i64* %65, i32 %66) #27
  %68 = extractvalue { i64*, i32 } %67, 0
  %69 = extractvalue { i64*, i32 } %67, 1
  call void @_ZNSt13_Bvector_baseISaIbEE13_M_deallocateEv(%"struct.std::_Bvector_base"* nonnull align 8 dereferenceable(40) %48) #27
  %70 = add i64 %47, 63
  %71 = lshr i64 %70, 6
  %72 = getelementptr inbounds i64, i64* %49, i64 %71
  store i64* %72, i64** %17, align 8, !tbaa !76
  store i64* %49, i64** %19, align 8
  %73 = getelementptr inbounds %"class.std::vector.0", %"class.std::vector.0"* %0, i64 0, i32 0, i32 0, i32 0, i32 0, i32 0, i32 1
  store i32 0, i32* %73, align 8
  store i64* %68, i64** %25, align 8
  store i32 %69, i32* %27, align 8
  call void @llvm.lifetime.end.p0i8(i64 16, i8* nonnull %50) #29
  br label %74

74:                                               ; preds = %5, %46, %36
  ret void
}

; Function Attrs: minsize optsize sspstrong uwtable
define linkonce_odr dso_local i64 @_ZNKSt6vectorIbSaIbEE12_M_check_lenEmPKc(%"class.std::vector.0"* nonnull align 8 dereferenceable(40) %0, i64 %1, i8* %2) local_unnamed_addr #5 comdat align 2 personality i32 (...)* @__gxx_personality_v0 {
  %4 = getelementptr inbounds %"class.std::vector.0", %"class.std::vector.0"* %0, i64 0, i32 0, i32 0, i32 0, i32 1, i32 0, i32 0
  %5 = load i64*, i64** %4, align 8, !tbaa !58
  %6 = getelementptr inbounds %"class.std::vector.0", %"class.std::vector.0"* %0, i64 0, i32 0, i32 0, i32 0, i32 1, i32 0, i32 1
  %7 = load i32, i32* %6, align 8, !tbaa !61
  %8 = getelementptr inbounds %"class.std::vector.0", %"class.std::vector.0"* %0, i64 0, i32 0, i32 0, i32 0, i32 0, i32 0, i32 0
  %9 = load i64*, i64** %8, align 8, !tbaa !58
  %10 = ptrtoint i64* %5 to i64
  %11 = ptrtoint i64* %9 to i64
  %12 = sub i64 %10, %11
  %13 = shl nsw i64 %12, 3
  %14 = zext i32 %7 to i64
  %15 = add nsw i64 %13, %14
  %16 = sub i64 9223372036854775744, %15
  %17 = icmp ult i64 %16, %1
  br i1 %17, label %18, label %19

18:                                               ; preds = %3
  tail call void @_ZSt20__throw_length_errorPKc(i8* %2) #31
  unreachable

19:                                               ; preds = %3
  %20 = icmp ult i64 %15, %1
  %21 = select i1 %20, i64 %1, i64 %15
  %22 = add i64 %21, %15
  %23 = icmp ult i64 %22, %15
  %24 = icmp ugt i64 %22, 9223372036854775744
  %25 = or i1 %23, %24
  %26 = select i1 %25, i64 9223372036854775744, i64 %22
  ret i64 %26
}

; Function Attrs: minsize mustprogress optsize sspstrong uwtable
define linkonce_odr dso_local i64* @_ZNSt13_Bvector_baseISaIbEE11_M_allocateEm(%"struct.std::_Bvector_base"* nonnull align 8 dereferenceable(40) %0, i64 %1) local_unnamed_addr #9 comdat align 2 {
  %3 = bitcast %"struct.std::_Bvector_base"* %0 to %"class.std::allocator.1"*
  %4 = add i64 %1, 63
  %5 = lshr i64 %4, 6
  %6 = tail call i64* @_ZNSt16allocator_traitsISaImEE8allocateERS0_m(%"class.std::allocator.1"* nonnull align 1 dereferenceable(1) %3, i64 %5) #27
  ret i64* %6
}

; Function Attrs: minsize optsize sspstrong uwtable
define linkonce_odr dso_local { i64*, i32 } @_ZNSt6vectorIbSaIbEE15_M_copy_alignedESt19_Bit_const_iteratorS2_St13_Bit_iterator(%"class.std::vector.0"* nonnull align 8 dereferenceable(40) %0, i64* %1, i32 %2, i64* %3, i32 %4, %"struct.std::_Bit_iterator"* byval(%"struct.std::_Bit_iterator") align 8 %5) local_unnamed_addr #5 comdat align 2 {
  %7 = getelementptr inbounds %"struct.std::_Bit_iterator", %"struct.std::_Bit_iterator"* %5, i64 0, i32 0, i32 0
  %8 = load i64*, i64** %7, align 8, !tbaa !58
  %9 = ptrtoint i64* %3 to i64
  %10 = ptrtoint i64* %1 to i64
  %11 = sub i64 %9, %10
  %12 = icmp eq i64 %11, 0
  br i1 %12, label %16, label %13

13:                                               ; preds = %6
  %14 = bitcast i64* %8 to i8*
  %15 = bitcast i64* %1 to i8*
  tail call void @llvm.memmove.p0i8.p0i8.i64(i8* align 8 %14, i8* align 8 %15, i64 %11, i1 false) #29
  br label %16

16:                                               ; preds = %6, %13
  %17 = ashr exact i64 %11, 3
  %18 = getelementptr inbounds i64, i64* %8, i64 %17
  %19 = tail call { i64*, i32 } @_ZNSt11__copy_moveILb0ELb0ESt26random_access_iterator_tagE8__copy_mISt19_Bit_const_iteratorSt13_Bit_iteratorEET0_T_S6_S5_(i64* %3, i32 0, i64* %3, i32 %4, i64* %18, i32 0) #27
  ret { i64*, i32 } %19
}

; Function Attrs: minsize optsize sspstrong uwtable
define linkonce_odr dso_local { i64*, i32 } @_ZNSt20__copy_move_backwardILb0ELb0ESt26random_access_iterator_tagE13__copy_move_bISt13_Bit_iteratorS3_EET0_T_S5_S4_(i64* %0, i32 %1, i64* %2, i32 %3, i64* %4, i32 %5) local_unnamed_addr #5 comdat align 2 {
  %7 = alloca %"struct.std::_Bit_reference", align 8
  %8 = alloca %"struct.std::_Bit_reference", align 8
  %9 = ptrtoint i64* %2 to i64
  %10 = ptrtoint i64* %0 to i64
  %11 = sub i64 %9, %10
  %12 = shl nsw i64 %11, 3
  %13 = zext i32 %3 to i64
  %14 = zext i32 %1 to i64
  %15 = sub nsw i64 %13, %14
  %16 = add i64 %15, %12
  %17 = bitcast %"struct.std::_Bit_reference"* %7 to i8*
  %18 = getelementptr inbounds %"struct.std::_Bit_reference", %"struct.std::_Bit_reference"* %7, i64 0, i32 0
  %19 = getelementptr inbounds %"struct.std::_Bit_reference", %"struct.std::_Bit_reference"* %7, i64 0, i32 1
  %20 = bitcast %"struct.std::_Bit_reference"* %8 to i8*
  %21 = getelementptr inbounds %"struct.std::_Bit_reference", %"struct.std::_Bit_reference"* %8, i64 0, i32 0
  %22 = getelementptr inbounds %"struct.std::_Bit_reference", %"struct.std::_Bit_reference"* %8, i64 0, i32 1
  br label %23

23:                                               ; preds = %30, %6
  %24 = phi i32 [ %3, %6 ], [ %33, %30 ]
  %25 = phi i64* [ %2, %6 ], [ %35, %30 ]
  %26 = phi i32 [ %5, %6 ], [ %40, %30 ]
  %27 = phi i64* [ %4, %6 ], [ %42, %30 ]
  %28 = phi i64 [ %16, %6 ], [ %46, %30 ]
  %29 = icmp sgt i64 %28, 0
  br i1 %29, label %30, label %47

30:                                               ; preds = %23
  call void @llvm.lifetime.start.p0i8(i64 16, i8* nonnull %17) #29
  %31 = add i32 %24, -1
  %32 = icmp eq i32 %24, 0
  %33 = select i1 %32, i32 63, i32 %31
  %34 = sext i1 %32 to i64
  %35 = getelementptr i64, i64* %25, i64 %34
  %36 = zext i32 %33 to i64
  %37 = shl nuw i64 1, %36
  store i64* %35, i64** %18, align 8
  store i64 %37, i64* %19, align 8
  call void @llvm.lifetime.start.p0i8(i64 16, i8* nonnull %20) #29
  %38 = add i32 %26, -1
  %39 = icmp eq i32 %26, 0
  %40 = select i1 %39, i32 63, i32 %38
  %41 = sext i1 %39 to i64
  %42 = getelementptr i64, i64* %27, i64 %41
  %43 = zext i32 %40 to i64
  %44 = shl nuw i64 1, %43
  store i64* %42, i64** %21, align 8
  store i64 %44, i64* %22, align 8
  %45 = call nonnull align 8 dereferenceable(16) %"struct.std::_Bit_reference"* @_ZNSt14_Bit_referenceaSERKS_(%"struct.std::_Bit_reference"* nonnull align 8 dereferenceable(16) %8, %"struct.std::_Bit_reference"* nonnull align 8 dereferenceable(16) %7) #26
  call void @llvm.lifetime.end.p0i8(i64 16, i8* nonnull %20) #29
  call void @llvm.lifetime.end.p0i8(i64 16, i8* nonnull %17) #29
  %46 = add nsw i64 %28, -1
  br label %23, !llvm.loop !96

47:                                               ; preds = %23
  %48 = insertvalue { i64*, i32 } undef, i64* %27, 0
  %49 = insertvalue { i64*, i32 } %48, i32 %26, 1
  ret { i64*, i32 } %49
}

; Function Attrs: inlinehint minsize mustprogress optsize sspstrong uwtable
define linkonce_odr dso_local void @_ZSt9__fill_a1St13_Bit_iteratorS_RKb(i64* %0, i32 %1, i64* %2, i32 %3, i8* nonnull align 1 dereferenceable(1) %4) local_unnamed_addr #8 comdat {
  %6 = icmp eq i64* %0, %2
  br i1 %6, label %51, label %7

7:                                                ; preds = %5
  %8 = icmp eq i32 %1, 0
  br i1 %8, label %9, label %11

9:                                                ; preds = %7
  %10 = load i8, i8* %4, align 1, !tbaa !57, !range !66
  br label %26

11:                                               ; preds = %7
  %12 = getelementptr inbounds i64, i64* %0, i64 1
  %13 = load i8, i8* %4, align 1, !tbaa !57, !range !66
  %14 = icmp eq i8 %13, 0
  %15 = zext i32 %1 to i64
  %16 = shl nsw i64 -1, %15
  br i1 %14, label %20, label %17

17:                                               ; preds = %11
  %18 = load i64, i64* %0, align 8, !tbaa !52
  %19 = or i64 %18, %16
  br label %24

20:                                               ; preds = %11
  %21 = xor i64 %16, -1
  %22 = load i64, i64* %0, align 8, !tbaa !52
  %23 = and i64 %22, %21
  br label %24

24:                                               ; preds = %17, %20
  %25 = phi i64 [ %23, %20 ], [ %19, %17 ]
  store i64 %25, i64* %0, align 8, !tbaa !52
  br label %26

26:                                               ; preds = %9, %24
  %27 = phi i8 [ %13, %24 ], [ %10, %9 ]
  %28 = phi i64* [ %12, %24 ], [ %0, %9 ]
  %29 = bitcast i64* %28 to i8*
  %30 = shl nuw i8 %27, 7
  %31 = ashr exact i8 %30, 7
  %32 = ptrtoint i64* %2 to i64
  %33 = ptrtoint i64* %28 to i64
  %34 = sub i64 %32, %33
  tail call void @llvm.memset.p0i8.i64(i8* align 8 %29, i8 %31, i64 %34, i1 false)
  %35 = icmp eq i32 %3, 0
  br i1 %35, label %56, label %36

36:                                               ; preds = %26
  %37 = load i8, i8* %4, align 1, !tbaa !57, !range !66
  %38 = icmp eq i8 %37, 0
  %39 = sub i32 64, %3
  %40 = zext i32 %39 to i64
  %41 = lshr i64 -1, %40
  br i1 %38, label %45, label %42

42:                                               ; preds = %36
  %43 = load i64, i64* %2, align 8, !tbaa !52
  %44 = or i64 %43, %41
  br label %49

45:                                               ; preds = %36
  %46 = xor i64 %41, -1
  %47 = load i64, i64* %2, align 8, !tbaa !52
  %48 = and i64 %47, %46
  br label %49

49:                                               ; preds = %42, %45
  %50 = phi i64 [ %48, %45 ], [ %44, %42 ]
  store i64 %50, i64* %2, align 8, !tbaa !52
  br label %56

51:                                               ; preds = %5
  %52 = icmp eq i32 %1, %3
  br i1 %52, label %56, label %53

53:                                               ; preds = %51
  %54 = load i8, i8* %4, align 1, !tbaa !57, !range !66
  %55 = icmp ne i8 %54, 0
  tail call void @_ZSt14__fill_bvectorPmjjb(i64* %0, i32 %1, i32 %3, i1 zeroext %55) #27
  br label %56

56:                                               ; preds = %26, %49, %51, %53
  ret void
}

; Function Attrs: inlinehint minsize mustprogress nounwind optsize sspstrong uwtable
define linkonce_odr dso_local void @_ZSt14__fill_bvectorPmjjb(i64* %0, i32 %1, i32 %2, i1 zeroext %3) local_unnamed_addr #22 comdat {
  %5 = zext i32 %1 to i64
  %6 = shl nsw i64 -1, %5
  %7 = sub i32 64, %2
  %8 = zext i32 %7 to i64
  %9 = lshr i64 -1, %8
  %10 = and i64 %9, %6
  br i1 %3, label %11, label %14

11:                                               ; preds = %4
  %12 = load i64, i64* %0, align 8, !tbaa !52
  %13 = or i64 %12, %10
  br label %18

14:                                               ; preds = %4
  %15 = xor i64 %10, -1
  %16 = load i64, i64* %0, align 8, !tbaa !52
  %17 = and i64 %16, %15
  br label %18

18:                                               ; preds = %14, %11
  %19 = phi i64 [ %17, %14 ], [ %13, %11 ]
  store i64 %19, i64* %0, align 8, !tbaa !52
  ret void
}

; Function Attrs: minsize mustprogress optsize sspstrong uwtable
define linkonce_odr dso_local i64* @_ZNSt16allocator_traitsISaImEE8allocateERS0_m(%"class.std::allocator.1"* nonnull align 1 dereferenceable(1) %0, i64 %1) local_unnamed_addr #9 comdat align 2 {
  %3 = bitcast %"class.std::allocator.1"* %0 to %"class.__gnu_cxx::new_allocator.2"*
  %4 = tail call i64* @_ZN9__gnu_cxx13new_allocatorImE8allocateEmPKv(%"class.__gnu_cxx::new_allocator.2"* nonnull align 1 dereferenceable(1) %3, i64 %1, i8* null) #27
  ret i64* %4
}

; Function Attrs: minsize mustprogress optsize sspstrong uwtable
define linkonce_odr dso_local i64* @_ZN9__gnu_cxx13new_allocatorImE8allocateEmPKv(%"class.__gnu_cxx::new_allocator.2"* nonnull align 1 dereferenceable(1) %0, i64 %1, i8* %2) local_unnamed_addr #9 comdat align 2 {
  %4 = icmp ugt i64 %1, 1152921504606846975
  br i1 %4, label %5, label %9, !prof !80

5:                                                ; preds = %3
  %6 = icmp ugt i64 %1, 2305843009213693951
  br i1 %6, label %7, label %8

7:                                                ; preds = %5
  tail call void @_ZSt28__throw_bad_array_new_lengthv() #31
  unreachable

8:                                                ; preds = %5
  tail call void @_ZSt17__throw_bad_allocv() #31
  unreachable

9:                                                ; preds = %3
  %10 = shl nuw nsw i64 %1, 3
  %11 = tail call noalias nonnull i8* @_Znwm(i64 %10) #32
  %12 = bitcast i8* %11 to i64*
  ret i64* %12
}

; Function Attrs: argmemonly mustprogress nofree nounwind willreturn
declare void @llvm.memmove.p0i8.p0i8.i64(i8* nocapture writeonly, i8* nocapture readonly, i64, i1 immarg) #6

; Function Attrs: minsize optsize sspstrong uwtable
define linkonce_odr dso_local { i64*, i32 } @_ZNSt11__copy_moveILb0ELb0ESt26random_access_iterator_tagE8__copy_mISt19_Bit_const_iteratorSt13_Bit_iteratorEET0_T_S6_S5_(i64* %0, i32 %1, i64* %2, i32 %3, i64* %4, i32 %5) local_unnamed_addr #5 comdat align 2 {
  %7 = ptrtoint i64* %2 to i64
  %8 = ptrtoint i64* %0 to i64
  %9 = sub i64 %7, %8
  %10 = shl nsw i64 %9, 3
  %11 = zext i32 %3 to i64
  %12 = zext i32 %1 to i64
  %13 = sub nsw i64 %11, %12
  %14 = add i64 %13, %10
  br label %15

15:                                               ; preds = %40, %6
  %16 = phi i32 [ %5, %6 ], [ %49, %40 ]
  %17 = phi i64* [ %4, %6 ], [ %51, %40 ]
  %18 = phi i64* [ %0, %6 ], [ %45, %40 ]
  %19 = phi i32 [ %1, %6 ], [ %46, %40 ]
  %20 = phi i64 [ %14, %6 ], [ %52, %40 ]
  %21 = icmp sgt i64 %20, 0
  br i1 %21, label %25, label %22

22:                                               ; preds = %15
  %23 = insertvalue { i64*, i32 } undef, i64* %17, 0
  %24 = insertvalue { i64*, i32 } %23, i32 %16, 1
  ret { i64*, i32 } %24

25:                                               ; preds = %15
  %26 = zext i32 %19 to i64
  %27 = shl nuw i64 1, %26
  %28 = load i64, i64* %18, align 8, !tbaa !52
  %29 = and i64 %28, %27
  %30 = icmp eq i64 %29, 0
  %31 = zext i32 %16 to i64
  %32 = shl nuw i64 1, %31
  br i1 %30, label %36, label %33

33:                                               ; preds = %25
  %34 = load i64, i64* %17, align 8, !tbaa !52
  %35 = or i64 %34, %32
  br label %40

36:                                               ; preds = %25
  %37 = xor i64 %32, -1
  %38 = load i64, i64* %17, align 8, !tbaa !52
  %39 = and i64 %38, %37
  br label %40

40:                                               ; preds = %33, %36
  %41 = phi i64 [ %39, %36 ], [ %35, %33 ]
  store i64 %41, i64* %17, align 8, !tbaa !52
  %42 = add i32 %19, 1
  %43 = icmp eq i32 %19, 63
  %44 = zext i1 %43 to i64
  %45 = getelementptr i64, i64* %18, i64 %44
  %46 = select i1 %43, i32 0, i32 %42
  %47 = add i32 %16, 1
  %48 = icmp eq i32 %16, 63
  %49 = select i1 %48, i32 0, i32 %47
  %50 = zext i1 %48 to i64
  %51 = getelementptr i64, i64* %17, i64 %50
  %52 = add nsw i64 %20, -1
  br label %15, !llvm.loop !97
}

; Function Attrs: minsize optsize sspstrong uwtable
define linkonce_odr dso_local { i64*, i32 } @_ZNSt11__copy_moveILb0ELb0ESt26random_access_iterator_tagE8__copy_mISt13_Bit_iteratorS3_EET0_T_S5_S4_(i64* %0, i32 %1, i64* %2, i32 %3, i64* %4, i32 %5) local_unnamed_addr #5 comdat align 2 {
  %7 = alloca %"struct.std::_Bit_reference", align 8
  %8 = alloca %"struct.std::_Bit_reference", align 8
  %9 = ptrtoint i64* %2 to i64
  %10 = ptrtoint i64* %0 to i64
  %11 = sub i64 %9, %10
  %12 = shl nsw i64 %11, 3
  %13 = zext i32 %3 to i64
  %14 = zext i32 %1 to i64
  %15 = sub nsw i64 %13, %14
  %16 = add i64 %15, %12
  %17 = bitcast %"struct.std::_Bit_reference"* %7 to i8*
  %18 = getelementptr inbounds %"struct.std::_Bit_reference", %"struct.std::_Bit_reference"* %7, i64 0, i32 0
  %19 = getelementptr inbounds %"struct.std::_Bit_reference", %"struct.std::_Bit_reference"* %7, i64 0, i32 1
  %20 = bitcast %"struct.std::_Bit_reference"* %8 to i8*
  %21 = getelementptr inbounds %"struct.std::_Bit_reference", %"struct.std::_Bit_reference"* %8, i64 0, i32 0
  %22 = getelementptr inbounds %"struct.std::_Bit_reference", %"struct.std::_Bit_reference"* %8, i64 0, i32 1
  br label %23

23:                                               ; preds = %33, %6
  %24 = phi i64* [ %0, %6 ], [ %42, %33 ]
  %25 = phi i32 [ %1, %6 ], [ %43, %33 ]
  %26 = phi i32 [ %5, %6 ], [ %46, %33 ]
  %27 = phi i64* [ %4, %6 ], [ %48, %33 ]
  %28 = phi i64 [ %16, %6 ], [ %49, %33 ]
  %29 = icmp sgt i64 %28, 0
  br i1 %29, label %33, label %30

30:                                               ; preds = %23
  %31 = insertvalue { i64*, i32 } undef, i64* %27, 0
  %32 = insertvalue { i64*, i32 } %31, i32 %26, 1
  ret { i64*, i32 } %32

33:                                               ; preds = %23
  call void @llvm.lifetime.start.p0i8(i64 16, i8* nonnull %17) #29
  %34 = zext i32 %25 to i64
  %35 = shl nuw i64 1, %34
  store i64* %24, i64** %18, align 8
  store i64 %35, i64* %19, align 8
  call void @llvm.lifetime.start.p0i8(i64 16, i8* nonnull %20) #29
  %36 = zext i32 %26 to i64
  %37 = shl nuw i64 1, %36
  store i64* %27, i64** %21, align 8
  store i64 %37, i64* %22, align 8
  %38 = call nonnull align 8 dereferenceable(16) %"struct.std::_Bit_reference"* @_ZNSt14_Bit_referenceaSERKS_(%"struct.std::_Bit_reference"* nonnull align 8 dereferenceable(16) %8, %"struct.std::_Bit_reference"* nonnull align 8 dereferenceable(16) %7) #26
  call void @llvm.lifetime.end.p0i8(i64 16, i8* nonnull %20) #29
  call void @llvm.lifetime.end.p0i8(i64 16, i8* nonnull %17) #29
  %39 = add i32 %25, 1
  %40 = icmp eq i32 %25, 63
  %41 = zext i1 %40 to i64
  %42 = getelementptr i64, i64* %24, i64 %41
  %43 = select i1 %40, i32 0, i32 %39
  %44 = add i32 %26, 1
  %45 = icmp eq i32 %26, 63
  %46 = select i1 %45, i32 0, i32 %44
  %47 = zext i1 %45 to i64
  %48 = getelementptr i64, i64* %27, i64 %47
  %49 = add nsw i64 %28, -1
  br label %23, !llvm.loop !98
}

; Function Attrs: minsize optsize sspstrong uwtable
define linkonce_odr dso_local void @_ZNSt6vectorIxSaIxEE14_M_fill_insertEN9__gnu_cxx17__normal_iteratorIPxS1_EEmRKx(%"class.std::vector"* nonnull align 8 dereferenceable(24) %0, i64* %1, i64 %2, i64* nonnull align 8 dereferenceable(8) %3) local_unnamed_addr #5 comdat align 2 personality i8* bitcast (i32 (...)* @__gxx_personality_v0 to i8*) {
  %5 = alloca %"struct.std::vector<long long>::_Temporary_value", align 8
  %6 = icmp eq i64 %2, 0
  br i1 %6, label %123, label %7

7:                                                ; preds = %4
  %8 = getelementptr inbounds %"class.std::vector", %"class.std::vector"* %0, i64 0, i32 0, i32 0, i32 0, i32 2
  %9 = load i64*, i64** %8, align 8, !tbaa !73
  %10 = getelementptr inbounds %"class.std::vector", %"class.std::vector"* %0, i64 0, i32 0, i32 0, i32 0, i32 1
  %11 = load i64*, i64** %10, align 8, !tbaa !62
  %12 = ptrtoint i64* %9 to i64
  %13 = ptrtoint i64* %11 to i64
  %14 = sub i64 %12, %13
  %15 = ashr exact i64 %14, 3
  %16 = icmp ult i64 %15, %2
  br i1 %16, label %73, label %17

17:                                               ; preds = %7
  %18 = bitcast %"struct.std::vector<long long>::_Temporary_value"* %5 to i8*
  call void @llvm.lifetime.start.p0i8(i64 16, i8* nonnull %18) #29
  %19 = getelementptr inbounds %"struct.std::vector<long long>::_Temporary_value", %"struct.std::vector<long long>::_Temporary_value"* %5, i64 0, i32 0
  store %"class.std::vector"* %0, %"class.std::vector"** %19, align 8, !tbaa !99
  %20 = getelementptr inbounds %"struct.std::vector<long long>::_Temporary_value", %"struct.std::vector<long long>::_Temporary_value"* %5, i64 0, i32 1
  %21 = bitcast %"union.std::aligned_storage<8, 8>::type"* %20 to i64*
  %22 = load i64, i64* %3, align 8, !tbaa !11
  store i64 %22, i64* %21, align 8, !tbaa !11
  %23 = ptrtoint i64* %1 to i64
  %24 = sub i64 %13, %23
  %25 = ashr exact i64 %24, 3
  %26 = icmp ugt i64 %25, %2
  br i1 %26, label %27, label %55

27:                                               ; preds = %17
  %28 = sub i64 0, %2
  %29 = getelementptr inbounds i64, i64* %11, i64 %28
  %30 = ptrtoint i64* %29 to i64
  %31 = shl i64 %2, 3
  %32 = icmp eq i64 %31, 0
  br i1 %32, label %37, label %33

33:                                               ; preds = %27
  %34 = bitcast i64* %11 to i8*
  %35 = bitcast i64* %29 to i8*
  tail call void @llvm.memmove.p0i8.p0i8.i64(i8* align 8 %34, i8* align 8 %35, i64 %31, i1 false) #29
  %36 = load i64*, i64** %10, align 8, !tbaa !62
  br label %37

37:                                               ; preds = %33, %27
  %38 = phi i64* [ %36, %33 ], [ %11, %27 ]
  %39 = getelementptr inbounds i64, i64* %38, i64 %2
  store i64* %39, i64** %10, align 8, !tbaa !62
  %40 = sub i64 %30, %23
  %41 = icmp eq i64 %40, 0
  br i1 %41, label %48, label %42

42:                                               ; preds = %37
  %43 = ashr exact i64 %40, 3
  %44 = sub nsw i64 0, %43
  %45 = getelementptr inbounds i64, i64* %11, i64 %44
  %46 = bitcast i64* %45 to i8*
  %47 = bitcast i64* %1 to i8*
  tail call void @llvm.memmove.p0i8.p0i8.i64(i8* align 8 %46, i8* align 8 %47, i64 %40, i1 false) #29
  br label %48

48:                                               ; preds = %42, %37
  %49 = getelementptr inbounds i64, i64* %1, i64 %2
  br label %50

50:                                               ; preds = %53, %48
  %51 = phi i64* [ %1, %48 ], [ %54, %53 ]
  %52 = icmp eq i64* %51, %49
  br i1 %52, label %72, label %53

53:                                               ; preds = %50
  store i64 %22, i64* %51, align 8, !tbaa !11
  %54 = getelementptr inbounds i64, i64* %51, i64 1
  br label %50, !llvm.loop !101

55:                                               ; preds = %17
  %56 = sub i64 %2, %25
  %57 = call i64* @_ZSt10__fill_n_aIPxmxET_S1_T0_RKT1_St26random_access_iterator_tag(i64* %11, i64 %56, i64* nonnull align 8 dereferenceable(8) %21) #27
  store i64* %57, i64** %10, align 8, !tbaa !62
  %58 = icmp eq i64 %24, 0
  br i1 %58, label %63, label %59

59:                                               ; preds = %55
  %60 = bitcast i64* %57 to i8*
  %61 = bitcast i64* %1 to i8*
  call void @llvm.memmove.p0i8.p0i8.i64(i8* align 8 %60, i8* align 8 %61, i64 %24, i1 false) #29
  %62 = load i64*, i64** %10, align 8, !tbaa !62
  br label %63

63:                                               ; preds = %59, %55
  %64 = phi i64* [ %62, %59 ], [ %57, %55 ]
  %65 = getelementptr inbounds i64, i64* %64, i64 %25
  store i64* %65, i64** %10, align 8, !tbaa !62
  %66 = load i64, i64* %21, align 8, !tbaa !11
  br label %67

67:                                               ; preds = %70, %63
  %68 = phi i64* [ %1, %63 ], [ %71, %70 ]
  %69 = icmp eq i64* %68, %11
  br i1 %69, label %72, label %70

70:                                               ; preds = %67
  store i64 %66, i64* %68, align 8, !tbaa !11
  %71 = getelementptr inbounds i64, i64* %68, i64 1
  br label %67, !llvm.loop !101

72:                                               ; preds = %67, %50
  call void @llvm.lifetime.end.p0i8(i64 16, i8* nonnull %18) #29
  br label %123

73:                                               ; preds = %7
  %74 = getelementptr inbounds %"class.std::vector", %"class.std::vector"* %0, i64 0, i32 0
  %75 = tail call i64 @_ZNKSt6vectorIxSaIxEE12_M_check_lenEmPKc(%"class.std::vector"* nonnull align 8 dereferenceable(24) %0, i64 %2, i8* getelementptr inbounds ([23 x i8], [23 x i8]* @.str.12, i64 0, i64 0)) #27
  %76 = getelementptr inbounds %"class.std::vector", %"class.std::vector"* %0, i64 0, i32 0, i32 0, i32 0, i32 0
  %77 = load i64*, i64** %76, align 8, !tbaa !72
  %78 = ptrtoint i64* %1 to i64
  %79 = ptrtoint i64* %77 to i64
  %80 = sub i64 %78, %79
  %81 = ashr exact i64 %80, 3
  %82 = tail call i64* @_ZNSt12_Vector_baseIxSaIxEE11_M_allocateEm(%"struct.std::_Vector_base"* nonnull align 8 dereferenceable(24) %74, i64 %75) #27
  %83 = getelementptr inbounds i64, i64* %82, i64 %81
  %84 = invoke i64* @_ZSt10__fill_n_aIPxmxET_S1_T0_RKT1_St26random_access_iterator_tag(i64* %83, i64 %2, i64* nonnull align 8 dereferenceable(8) %3) #27
          to label %85 unwind label %113

85:                                               ; preds = %73
  %86 = load i64*, i64** %76, align 8, !tbaa !53
  %87 = ptrtoint i64* %86 to i64
  %88 = sub i64 %78, %87
  %89 = icmp eq i64 %88, 0
  br i1 %89, label %93, label %90

90:                                               ; preds = %85
  %91 = bitcast i64* %82 to i8*
  %92 = bitcast i64* %86 to i8*
  tail call void @llvm.memmove.p0i8.p0i8.i64(i8* align 8 %91, i8* align 8 %92, i64 %88, i1 false) #29
  br label %93

93:                                               ; preds = %90, %85
  %94 = ashr exact i64 %88, 3
  %95 = add nsw i64 %94, %2
  %96 = getelementptr inbounds i64, i64* %82, i64 %95
  %97 = load i64*, i64** %10, align 8, !tbaa !62
  %98 = ptrtoint i64* %97 to i64
  %99 = sub i64 %98, %78
  %100 = icmp eq i64 %99, 0
  br i1 %100, label %104, label %101

101:                                              ; preds = %93
  %102 = bitcast i64* %96 to i8*
  %103 = bitcast i64* %1 to i8*
  tail call void @llvm.memmove.p0i8.p0i8.i64(i8* align 8 %102, i8* align 8 %103, i64 %99, i1 false) #29
  br label %104

104:                                              ; preds = %101, %93
  %105 = ashr exact i64 %99, 3
  %106 = getelementptr inbounds i64, i64* %96, i64 %105
  %107 = load i64*, i64** %76, align 8, !tbaa !53
  %108 = icmp eq i64* %107, null
  br i1 %108, label %111, label %109

109:                                              ; preds = %104
  %110 = bitcast i64* %107 to i8*
  tail call void @_ZdlPv(i8* nonnull %110) #26
  br label %111

111:                                              ; preds = %104, %109
  store i64* %82, i64** %76, align 8, !tbaa !53
  store i64* %106, i64** %10, align 8, !tbaa !62
  %112 = getelementptr inbounds i64, i64* %82, i64 %75
  store i64* %112, i64** %8, align 8, !tbaa !73
  br label %123

113:                                              ; preds = %73
  %114 = landingpad { i8*, i32 }
          catch i8* null
  %115 = extractvalue { i8*, i32 } %114, 0
  %116 = tail call i8* @__cxa_begin_catch(i8* %115) #29
  %117 = icmp eq i64* %82, null
  br i1 %117, label %122, label %120

118:                                              ; preds = %122
  %119 = landingpad { i8*, i32 }
          cleanup
  invoke void @__cxa_end_catch()
          to label %124 unwind label %125

120:                                              ; preds = %113
  %121 = bitcast i64* %82 to i8*
  tail call void @_ZdlPv(i8* nonnull %121) #26
  br label %122

122:                                              ; preds = %120, %113
  invoke void @__cxa_rethrow() #33
          to label %128 unwind label %118

123:                                              ; preds = %72, %111, %4
  ret void

124:                                              ; preds = %118
  resume { i8*, i32 } %119

125:                                              ; preds = %118
  %126 = landingpad { i8*, i32 }
          catch i8* null
  %127 = extractvalue { i8*, i32 } %126, 0
  tail call void @__clang_call_terminate(i8* %127) #28
  unreachable

128:                                              ; preds = %122
  unreachable
}

; Function Attrs: minsize mustprogress optsize sspstrong uwtable
define linkonce_odr dso_local i64 @_ZNKSt6vectorIxSaIxEE12_M_check_lenEmPKc(%"class.std::vector"* nonnull align 8 dereferenceable(24) %0, i64 %1, i8* %2) local_unnamed_addr #9 comdat align 2 {
  %4 = getelementptr inbounds %"class.std::vector", %"class.std::vector"* %0, i64 0, i32 0, i32 0, i32 0, i32 1
  %5 = load i64*, i64** %4, align 8, !tbaa !62
  %6 = getelementptr inbounds %"class.std::vector", %"class.std::vector"* %0, i64 0, i32 0, i32 0, i32 0, i32 0
  %7 = load i64*, i64** %6, align 8, !tbaa !53
  %8 = ptrtoint i64* %5 to i64
  %9 = ptrtoint i64* %7 to i64
  %10 = sub i64 %8, %9
  %11 = ashr exact i64 %10, 3
  %12 = sub nsw i64 1152921504606846975, %11
  %13 = icmp ult i64 %12, %1
  br i1 %13, label %14, label %15

14:                                               ; preds = %3
  tail call void @_ZSt20__throw_length_errorPKc(i8* %2) #31
  unreachable

15:                                               ; preds = %3
  %16 = icmp ult i64 %11, %1
  %17 = select i1 %16, i64 %1, i64 %11
  %18 = add i64 %17, %11
  %19 = icmp ult i64 %18, %11
  %20 = icmp ugt i64 %18, 1152921504606846975
  %21 = or i1 %19, %20
  %22 = select i1 %21, i64 1152921504606846975, i64 %18
  ret i64 %22
}

; Function Attrs: minsize mustprogress optsize sspstrong uwtable
define linkonce_odr dso_local i64* @_ZNSt12_Vector_baseIxSaIxEE11_M_allocateEm(%"struct.std::_Vector_base"* nonnull align 8 dereferenceable(24) %0, i64 %1) local_unnamed_addr #9 comdat align 2 {
  %3 = icmp eq i64 %1, 0
  br i1 %3, label %7, label %4

4:                                                ; preds = %2
  %5 = bitcast %"struct.std::_Vector_base"* %0 to %"class.std::allocator"*
  %6 = tail call i64* @_ZNSt16allocator_traitsISaIxEE8allocateERS0_m(%"class.std::allocator"* nonnull align 1 dereferenceable(1) %5, i64 %1) #27
  br label %7

7:                                                ; preds = %2, %4
  %8 = phi i64* [ %6, %4 ], [ null, %2 ]
  ret i64* %8
}

; Function Attrs: inlinehint minsize mustprogress optsize sspstrong uwtable
define linkonce_odr dso_local i64* @_ZSt10__fill_n_aIPxmxET_S1_T0_RKT1_St26random_access_iterator_tag(i64* %0, i64 %1, i64* nonnull align 8 dereferenceable(8) %2) local_unnamed_addr #8 comdat {
  %4 = icmp eq i64 %1, 0
  br i1 %4, label %13, label %5

5:                                                ; preds = %3
  %6 = getelementptr inbounds i64, i64* %0, i64 %1
  %7 = load i64, i64* %2, align 8, !tbaa !11
  br label %8

8:                                                ; preds = %11, %5
  %9 = phi i64* [ %0, %5 ], [ %12, %11 ]
  %10 = icmp eq i64* %9, %6
  br i1 %10, label %13, label %11

11:                                               ; preds = %8
  store i64 %7, i64* %9, align 8, !tbaa !11
  %12 = getelementptr inbounds i64, i64* %9, i64 1
  br label %8, !llvm.loop !101

13:                                               ; preds = %8, %3
  %14 = phi i64* [ %0, %3 ], [ %6, %8 ]
  ret i64* %14
}

; Function Attrs: minsize mustprogress optsize sspstrong uwtable
define linkonce_odr dso_local i64* @_ZNSt16allocator_traitsISaIxEE8allocateERS0_m(%"class.std::allocator"* nonnull align 1 dereferenceable(1) %0, i64 %1) local_unnamed_addr #9 comdat align 2 {
  %3 = bitcast %"class.std::allocator"* %0 to %"class.__gnu_cxx::new_allocator"*
  %4 = tail call i64* @_ZN9__gnu_cxx13new_allocatorIxE8allocateEmPKv(%"class.__gnu_cxx::new_allocator"* nonnull align 1 dereferenceable(1) %3, i64 %1, i8* null) #27
  ret i64* %4
}

; Function Attrs: minsize mustprogress optsize sspstrong uwtable
define linkonce_odr dso_local i64* @_ZN9__gnu_cxx13new_allocatorIxE8allocateEmPKv(%"class.__gnu_cxx::new_allocator"* nonnull align 1 dereferenceable(1) %0, i64 %1, i8* %2) local_unnamed_addr #9 comdat align 2 {
  %4 = icmp ugt i64 %1, 1152921504606846975
  br i1 %4, label %5, label %9, !prof !80

5:                                                ; preds = %3
  %6 = icmp ugt i64 %1, 2305843009213693951
  br i1 %6, label %7, label %8

7:                                                ; preds = %5
  tail call void @_ZSt28__throw_bad_array_new_lengthv() #31
  unreachable

8:                                                ; preds = %5
  tail call void @_ZSt17__throw_bad_allocv() #31
  unreachable

9:                                                ; preds = %3
  %10 = shl nuw nsw i64 %1, 3
  %11 = tail call noalias nonnull i8* @_Znwm(i64 %10) #32
  %12 = bitcast i8* %11 to i64*
  ret i64* %12
}

; Function Attrs: minsize optsize sspstrong uwtable
define linkonce_odr dso_local { i64*, i64 } @_ZNKSt13_Bit_iteratorixEl(%"struct.std::_Bit_iterator"* nonnull align 8 dereferenceable(12) %0, i64 %1) local_unnamed_addr #5 comdat align 2 {
  %3 = tail call { i64*, i32 } @_ZStplRKSt13_Bit_iteratorl(%"struct.std::_Bit_iterator"* nonnull align 8 dereferenceable(12) %0, i64 %1) #27
  %4 = extractvalue { i64*, i32 } %3, 0
  %5 = extractvalue { i64*, i32 } %3, 1
  %6 = zext i32 %5 to i64
  %7 = shl nuw i64 1, %6
  %8 = insertvalue { i64*, i64 } undef, i64* %4, 0
  %9 = insertvalue { i64*, i64 } %8, i64 %7, 1
  ret { i64*, i64 } %9
}

; Function Attrs: minsize optsize sspstrong uwtable
define linkonce_odr dso_local void @_ZNSt6vectorIxSaIxEE12emplace_backIJxEEEvDpOT_(%"class.std::vector"* nonnull align 8 dereferenceable(24) %0, i64* nonnull align 8 dereferenceable(8) %1) local_unnamed_addr #5 comdat align 2 {
  %3 = getelementptr inbounds %"class.std::vector", %"class.std::vector"* %0, i64 0, i32 0, i32 0, i32 0, i32 1
  %4 = load i64*, i64** %3, align 8, !tbaa !62
  %5 = getelementptr inbounds %"class.std::vector", %"class.std::vector"* %0, i64 0, i32 0, i32 0, i32 0, i32 2
  %6 = load i64*, i64** %5, align 8, !tbaa !73
  %7 = icmp eq i64* %4, %6
  br i1 %7, label %11, label %8

8:                                                ; preds = %2
  %9 = load i64, i64* %1, align 8, !tbaa !11
  store i64 %9, i64* %4, align 8, !tbaa !11
  %10 = getelementptr inbounds i64, i64* %4, i64 1
  store i64* %10, i64** %3, align 8, !tbaa !62
  br label %12

11:                                               ; preds = %2
  tail call void @_ZNSt6vectorIxSaIxEE17_M_realloc_insertIJxEEEvN9__gnu_cxx17__normal_iteratorIPxS1_EEDpOT_(%"class.std::vector"* nonnull align 8 dereferenceable(24) %0, i64* %4, i64* nonnull align 8 dereferenceable(8) %1) #27
  br label %12

12:                                               ; preds = %11, %8
  ret void
}

; Function Attrs: minsize optsize sspstrong uwtable
define linkonce_odr dso_local void @_ZNSt6vectorIxSaIxEE17_M_realloc_insertIJxEEEvN9__gnu_cxx17__normal_iteratorIPxS1_EEDpOT_(%"class.std::vector"* nonnull align 8 dereferenceable(24) %0, i64* %1, i64* nonnull align 8 dereferenceable(8) %2) local_unnamed_addr #5 comdat align 2 {
  %4 = tail call i64 @_ZNKSt6vectorIxSaIxEE12_M_check_lenEmPKc(%"class.std::vector"* nonnull align 8 dereferenceable(24) %0, i64 1, i8* getelementptr inbounds ([26 x i8], [26 x i8]* @.str.13, i64 0, i64 0)) #27
  %5 = getelementptr inbounds %"class.std::vector", %"class.std::vector"* %0, i64 0, i32 0
  %6 = getelementptr inbounds %"class.std::vector", %"class.std::vector"* %0, i64 0, i32 0, i32 0, i32 0, i32 0
  %7 = load i64*, i64** %6, align 8, !tbaa !53
  %8 = getelementptr inbounds %"class.std::vector", %"class.std::vector"* %0, i64 0, i32 0, i32 0, i32 0, i32 1
  %9 = load i64*, i64** %8, align 8, !tbaa !62
  %10 = ptrtoint i64* %1 to i64
  %11 = ptrtoint i64* %7 to i64
  %12 = sub i64 %10, %11
  %13 = ashr exact i64 %12, 3
  %14 = tail call i64* @_ZNSt12_Vector_baseIxSaIxEE11_M_allocateEm(%"struct.std::_Vector_base"* nonnull align 8 dereferenceable(24) %5, i64 %4) #27
  %15 = getelementptr inbounds i64, i64* %14, i64 %13
  %16 = load i64, i64* %2, align 8, !tbaa !11
  store i64 %16, i64* %15, align 8, !tbaa !11
  %17 = icmp sgt i64 %12, 0
  br i1 %17, label %18, label %21

18:                                               ; preds = %3
  %19 = bitcast i64* %14 to i8*
  %20 = bitcast i64* %7 to i8*
  tail call void @llvm.memmove.p0i8.p0i8.i64(i8* align 8 %19, i8* align 8 %20, i64 %12, i1 false) #29
  br label %21

21:                                               ; preds = %3, %18
  %22 = getelementptr inbounds i64, i64* %15, i64 1
  %23 = ptrtoint i64* %9 to i64
  %24 = sub i64 %23, %10
  %25 = icmp sgt i64 %24, 0
  br i1 %25, label %26, label %29

26:                                               ; preds = %21
  %27 = bitcast i64* %22 to i8*
  %28 = bitcast i64* %1 to i8*
  tail call void @llvm.memmove.p0i8.p0i8.i64(i8* nonnull align 8 %27, i8* align 8 %28, i64 %24, i1 false) #29
  br label %29

29:                                               ; preds = %21, %26
  %30 = icmp eq i64* %7, null
  br i1 %30, label %33, label %31

31:                                               ; preds = %29
  %32 = bitcast i64* %7 to i8*
  tail call void @_ZdlPv(i8* nonnull %32) #26
  br label %33

33:                                               ; preds = %29, %31
  %34 = getelementptr inbounds %"class.std::vector", %"class.std::vector"* %0, i64 0, i32 0, i32 0, i32 0, i32 2
  %35 = ashr exact i64 %24, 3
  %36 = getelementptr inbounds i64, i64* %22, i64 %35
  store i64* %14, i64** %6, align 8, !tbaa !53
  store i64* %36, i64** %8, align 8, !tbaa !62
  %37 = getelementptr inbounds i64, i64* %14, i64 %4
  store i64* %37, i64** %34, align 8, !tbaa !73
  ret void
}

; Function Attrs: minsize optsize sspstrong uwtable
define linkonce_odr dso_local void @_ZNSt6vectorISt4pairIxxESaIS1_EE12emplace_backIJS1_EEEvDpOT_(%"class.std::vector.4"* nonnull align 8 dereferenceable(24) %0, %"struct.std::pair"* nonnull align 8 dereferenceable(16) %1) local_unnamed_addr #5 comdat align 2 {
  %3 = getelementptr inbounds %"class.std::vector.4", %"class.std::vector.4"* %0, i64 0, i32 0, i32 0, i32 0, i32 1
  %4 = load %"struct.std::pair"*, %"struct.std::pair"** %3, align 8, !tbaa !33
  %5 = getelementptr inbounds %"class.std::vector.4", %"class.std::vector.4"* %0, i64 0, i32 0, i32 0, i32 0, i32 2
  %6 = load %"struct.std::pair"*, %"struct.std::pair"** %5, align 8, !tbaa !102
  %7 = icmp eq %"struct.std::pair"* %4, %6
  br i1 %7, label %13, label %8

8:                                                ; preds = %2
  %9 = bitcast %"struct.std::pair"* %4 to i8*
  %10 = bitcast %"struct.std::pair"* %1 to i8*
  tail call void @llvm.memcpy.p0i8.p0i8.i64(i8* noundef nonnull align 8 dereferenceable(16) %9, i8* noundef nonnull align 8 dereferenceable(16) %10, i64 16, i1 false) #29
  %11 = load %"struct.std::pair"*, %"struct.std::pair"** %3, align 8, !tbaa !33
  %12 = getelementptr inbounds %"struct.std::pair", %"struct.std::pair"* %11, i64 1
  store %"struct.std::pair"* %12, %"struct.std::pair"** %3, align 8, !tbaa !33
  br label %14

13:                                               ; preds = %2
  tail call void @_ZNSt6vectorISt4pairIxxESaIS1_EE17_M_realloc_insertIJS1_EEEvN9__gnu_cxx17__normal_iteratorIPS1_S3_EEDpOT_(%"class.std::vector.4"* nonnull align 8 dereferenceable(24) %0, %"struct.std::pair"* %4, %"struct.std::pair"* nonnull align 8 dereferenceable(16) %1) #27
  br label %14

14:                                               ; preds = %13, %8
  ret void
}

; Function Attrs: minsize optsize sspstrong uwtable
define linkonce_odr dso_local void @_ZNSt6vectorISt4pairIxxESaIS1_EE17_M_realloc_insertIJS1_EEEvN9__gnu_cxx17__normal_iteratorIPS1_S3_EEDpOT_(%"class.std::vector.4"* nonnull align 8 dereferenceable(24) %0, %"struct.std::pair"* %1, %"struct.std::pair"* nonnull align 8 dereferenceable(16) %2) local_unnamed_addr #5 comdat align 2 {
  %4 = tail call i64 @_ZNKSt6vectorISt4pairIxxESaIS1_EE12_M_check_lenEmPKc(%"class.std::vector.4"* nonnull align 8 dereferenceable(24) %0, i64 1, i8* getelementptr inbounds ([26 x i8], [26 x i8]* @.str.13, i64 0, i64 0)) #27
  %5 = getelementptr inbounds %"class.std::vector.4", %"class.std::vector.4"* %0, i64 0, i32 0
  %6 = getelementptr inbounds %"class.std::vector.4", %"class.std::vector.4"* %0, i64 0, i32 0, i32 0, i32 0, i32 0
  %7 = load %"struct.std::pair"*, %"struct.std::pair"** %6, align 8, !tbaa !35
  %8 = getelementptr inbounds %"class.std::vector.4", %"class.std::vector.4"* %0, i64 0, i32 0, i32 0, i32 0, i32 1
  %9 = load %"struct.std::pair"*, %"struct.std::pair"** %8, align 8, !tbaa !33
  %10 = ptrtoint %"struct.std::pair"* %1 to i64
  %11 = ptrtoint %"struct.std::pair"* %7 to i64
  %12 = sub i64 %10, %11
  %13 = ashr exact i64 %12, 4
  %14 = tail call %"struct.std::pair"* @_ZNSt12_Vector_baseISt4pairIxxESaIS1_EE11_M_allocateEm(%"struct.std::_Vector_base.5"* nonnull align 8 dereferenceable(24) %5, i64 %4) #27
  %15 = getelementptr inbounds %"struct.std::pair", %"struct.std::pair"* %14, i64 %13
  %16 = bitcast %"struct.std::pair"* %15 to i8*
  %17 = bitcast %"struct.std::pair"* %2 to i8*
  tail call void @llvm.memcpy.p0i8.p0i8.i64(i8* noundef nonnull align 8 dereferenceable(16) %16, i8* noundef nonnull align 8 dereferenceable(16) %17, i64 16, i1 false) #29
  br label %18

18:                                               ; preds = %22, %3
  %19 = phi %"struct.std::pair"* [ %7, %3 ], [ %25, %22 ]
  %20 = phi %"struct.std::pair"* [ %14, %3 ], [ %26, %22 ]
  %21 = icmp eq %"struct.std::pair"* %19, %1
  br i1 %21, label %27, label %22

22:                                               ; preds = %18
  %23 = bitcast %"struct.std::pair"* %20 to i8*
  %24 = bitcast %"struct.std::pair"* %19 to i8*
  tail call void @llvm.memcpy.p0i8.p0i8.i64(i8* noundef nonnull align 8 dereferenceable(16) %23, i8* noundef nonnull align 8 dereferenceable(16) %24, i64 16, i1 false) #29, !alias.scope !103
  %25 = getelementptr inbounds %"struct.std::pair", %"struct.std::pair"* %19, i64 1
  %26 = getelementptr inbounds %"struct.std::pair", %"struct.std::pair"* %20, i64 1
  br label %18, !llvm.loop !107

27:                                               ; preds = %18, %32
  %28 = phi %"struct.std::pair"* [ %35, %32 ], [ %1, %18 ]
  %29 = phi %"struct.std::pair"* [ %30, %32 ], [ %20, %18 ]
  %30 = getelementptr inbounds %"struct.std::pair", %"struct.std::pair"* %29, i64 1
  %31 = icmp eq %"struct.std::pair"* %28, %9
  br i1 %31, label %36, label %32

32:                                               ; preds = %27
  %33 = bitcast %"struct.std::pair"* %30 to i8*
  %34 = bitcast %"struct.std::pair"* %28 to i8*
  tail call void @llvm.memcpy.p0i8.p0i8.i64(i8* noundef nonnull align 8 dereferenceable(16) %33, i8* noundef nonnull align 8 dereferenceable(16) %34, i64 16, i1 false) #29, !alias.scope !108
  %35 = getelementptr inbounds %"struct.std::pair", %"struct.std::pair"* %28, i64 1
  br label %27, !llvm.loop !107

36:                                               ; preds = %27
  %37 = icmp eq %"struct.std::pair"* %7, null
  br i1 %37, label %40, label %38

38:                                               ; preds = %36
  %39 = bitcast %"struct.std::pair"* %7 to i8*
  tail call void @_ZdlPv(i8* nonnull %39) #26
  br label %40

40:                                               ; preds = %36, %38
  %41 = getelementptr inbounds %"class.std::vector.4", %"class.std::vector.4"* %0, i64 0, i32 0, i32 0, i32 0, i32 2
  store %"struct.std::pair"* %14, %"struct.std::pair"** %6, align 8, !tbaa !35
  store %"struct.std::pair"* %30, %"struct.std::pair"** %8, align 8, !tbaa !33
  %42 = getelementptr inbounds %"struct.std::pair", %"struct.std::pair"* %14, i64 %4
  store %"struct.std::pair"* %42, %"struct.std::pair"** %41, align 8, !tbaa !102
  ret void
}

; Function Attrs: minsize mustprogress optsize sspstrong uwtable
define linkonce_odr dso_local i64 @_ZNKSt6vectorISt4pairIxxESaIS1_EE12_M_check_lenEmPKc(%"class.std::vector.4"* nonnull align 8 dereferenceable(24) %0, i64 %1, i8* %2) local_unnamed_addr #9 comdat align 2 {
  %4 = getelementptr inbounds %"class.std::vector.4", %"class.std::vector.4"* %0, i64 0, i32 0, i32 0, i32 0, i32 1
  %5 = load %"struct.std::pair"*, %"struct.std::pair"** %4, align 8, !tbaa !33
  %6 = getelementptr inbounds %"class.std::vector.4", %"class.std::vector.4"* %0, i64 0, i32 0, i32 0, i32 0, i32 0
  %7 = load %"struct.std::pair"*, %"struct.std::pair"** %6, align 8, !tbaa !35
  %8 = ptrtoint %"struct.std::pair"* %5 to i64
  %9 = ptrtoint %"struct.std::pair"* %7 to i64
  %10 = sub i64 %8, %9
  %11 = ashr exact i64 %10, 4
  %12 = sub nsw i64 576460752303423487, %11
  %13 = icmp ult i64 %12, %1
  br i1 %13, label %14, label %15

14:                                               ; preds = %3
  tail call void @_ZSt20__throw_length_errorPKc(i8* %2) #31
  unreachable

15:                                               ; preds = %3
  %16 = icmp ult i64 %11, %1
  %17 = select i1 %16, i64 %1, i64 %11
  %18 = add i64 %17, %11
  %19 = icmp ult i64 %18, %11
  %20 = icmp ugt i64 %18, 576460752303423487
  %21 = or i1 %19, %20
  %22 = select i1 %21, i64 576460752303423487, i64 %18
  ret i64 %22
}

; Function Attrs: minsize mustprogress optsize sspstrong uwtable
define linkonce_odr dso_local %"struct.std::pair"* @_ZNSt12_Vector_baseISt4pairIxxESaIS1_EE11_M_allocateEm(%"struct.std::_Vector_base.5"* nonnull align 8 dereferenceable(24) %0, i64 %1) local_unnamed_addr #9 comdat align 2 {
  %3 = icmp eq i64 %1, 0
  br i1 %3, label %7, label %4

4:                                                ; preds = %2
  %5 = bitcast %"struct.std::_Vector_base.5"* %0 to %"class.std::allocator.6"*
  %6 = tail call %"struct.std::pair"* @_ZNSt16allocator_traitsISaISt4pairIxxEEE8allocateERS2_m(%"class.std::allocator.6"* nonnull align 1 dereferenceable(1) %5, i64 %1) #27
  br label %7

7:                                                ; preds = %2, %4
  %8 = phi %"struct.std::pair"* [ %6, %4 ], [ null, %2 ]
  ret %"struct.std::pair"* %8
}

; Function Attrs: minsize mustprogress optsize sspstrong uwtable
define linkonce_odr dso_local %"struct.std::pair"* @_ZNSt16allocator_traitsISaISt4pairIxxEEE8allocateERS2_m(%"class.std::allocator.6"* nonnull align 1 dereferenceable(1) %0, i64 %1) local_unnamed_addr #9 comdat align 2 {
  %3 = bitcast %"class.std::allocator.6"* %0 to %"class.__gnu_cxx::new_allocator.7"*
  %4 = tail call %"struct.std::pair"* @_ZN9__gnu_cxx13new_allocatorISt4pairIxxEE8allocateEmPKv(%"class.__gnu_cxx::new_allocator.7"* nonnull align 1 dereferenceable(1) %3, i64 %1, i8* null) #27
  ret %"struct.std::pair"* %4
}

; Function Attrs: minsize mustprogress optsize sspstrong uwtable
define linkonce_odr dso_local %"struct.std::pair"* @_ZN9__gnu_cxx13new_allocatorISt4pairIxxEE8allocateEmPKv(%"class.__gnu_cxx::new_allocator.7"* nonnull align 1 dereferenceable(1) %0, i64 %1, i8* %2) local_unnamed_addr #9 comdat align 2 {
  %4 = icmp ugt i64 %1, 576460752303423487
  br i1 %4, label %5, label %9, !prof !80

5:                                                ; preds = %3
  %6 = icmp ugt i64 %1, 1152921504606846975
  br i1 %6, label %7, label %8

7:                                                ; preds = %5
  tail call void @_ZSt28__throw_bad_array_new_lengthv() #31
  unreachable

8:                                                ; preds = %5
  tail call void @_ZSt17__throw_bad_allocv() #31
  unreachable

9:                                                ; preds = %3
  %10 = shl nuw nsw i64 %1, 4
  %11 = tail call noalias nonnull i8* @_Znwm(i64 %10) #32
  %12 = bitcast i8* %11 to %"struct.std::pair"*
  ret %"struct.std::pair"* %12
}

; Function Attrs: minsize optsize sspstrong uwtable
define linkonce_odr dso_local void @_ZNSt6vectorIxSaIxEE17_M_realloc_insertIJRKxEEEvN9__gnu_cxx17__normal_iteratorIPxS1_EEDpOT_(%"class.std::vector"* nonnull align 8 dereferenceable(24) %0, i64* %1, i64* nonnull align 8 dereferenceable(8) %2) local_unnamed_addr #5 comdat align 2 {
  %4 = tail call i64 @_ZNKSt6vectorIxSaIxEE12_M_check_lenEmPKc(%"class.std::vector"* nonnull align 8 dereferenceable(24) %0, i64 1, i8* getelementptr inbounds ([26 x i8], [26 x i8]* @.str.13, i64 0, i64 0)) #27
  %5 = getelementptr inbounds %"class.std::vector", %"class.std::vector"* %0, i64 0, i32 0
  %6 = getelementptr inbounds %"class.std::vector", %"class.std::vector"* %0, i64 0, i32 0, i32 0, i32 0, i32 0
  %7 = load i64*, i64** %6, align 8, !tbaa !53
  %8 = getelementptr inbounds %"class.std::vector", %"class.std::vector"* %0, i64 0, i32 0, i32 0, i32 0, i32 1
  %9 = load i64*, i64** %8, align 8, !tbaa !62
  %10 = ptrtoint i64* %1 to i64
  %11 = ptrtoint i64* %7 to i64
  %12 = sub i64 %10, %11
  %13 = ashr exact i64 %12, 3
  %14 = tail call i64* @_ZNSt12_Vector_baseIxSaIxEE11_M_allocateEm(%"struct.std::_Vector_base"* nonnull align 8 dereferenceable(24) %5, i64 %4) #27
  %15 = getelementptr inbounds i64, i64* %14, i64 %13
  %16 = load i64, i64* %2, align 8, !tbaa !11
  store i64 %16, i64* %15, align 8, !tbaa !11
  %17 = icmp sgt i64 %12, 0
  br i1 %17, label %18, label %21

18:                                               ; preds = %3
  %19 = bitcast i64* %14 to i8*
  %20 = bitcast i64* %7 to i8*
  tail call void @llvm.memmove.p0i8.p0i8.i64(i8* align 8 %19, i8* align 8 %20, i64 %12, i1 false) #29
  br label %21

21:                                               ; preds = %3, %18
  %22 = getelementptr inbounds i64, i64* %15, i64 1
  %23 = ptrtoint i64* %9 to i64
  %24 = sub i64 %23, %10
  %25 = icmp sgt i64 %24, 0
  br i1 %25, label %26, label %29

26:                                               ; preds = %21
  %27 = bitcast i64* %22 to i8*
  %28 = bitcast i64* %1 to i8*
  tail call void @llvm.memmove.p0i8.p0i8.i64(i8* nonnull align 8 %27, i8* align 8 %28, i64 %24, i1 false) #29
  br label %29

29:                                               ; preds = %21, %26
  %30 = icmp eq i64* %7, null
  br i1 %30, label %33, label %31

31:                                               ; preds = %29
  %32 = bitcast i64* %7 to i8*
  tail call void @_ZdlPv(i8* nonnull %32) #26
  br label %33

33:                                               ; preds = %29, %31
  %34 = getelementptr inbounds %"class.std::vector", %"class.std::vector"* %0, i64 0, i32 0, i32 0, i32 0, i32 2
  %35 = ashr exact i64 %24, 3
  %36 = getelementptr inbounds i64, i64* %22, i64 %35
  store i64* %14, i64** %6, align 8, !tbaa !53
  store i64* %36, i64** %8, align 8, !tbaa !62
  %37 = getelementptr inbounds i64, i64* %14, i64 %4
  store i64* %37, i64** %34, align 8, !tbaa !73
  ret void
}

; Function Attrs: inlinehint minsize mustprogress optsize sspstrong uwtable
define linkonce_odr dso_local void @_ZSt6__sortIN9__gnu_cxx17__normal_iteratorIPxSt6vectorIxSaIxEEEENS0_5__ops15_Iter_less_iterEEvT_S9_T0_(i64* %0, i64* %1) local_unnamed_addr #8 comdat {
  %3 = icmp eq i64* %0, %1
  br i1 %3, label %12, label %4

4:                                                ; preds = %2
  %5 = ptrtoint i64* %1 to i64
  %6 = ptrtoint i64* %0 to i64
  %7 = sub i64 %5, %6
  %8 = ashr exact i64 %7, 3
  %9 = tail call i64 @llvm.ctlz.i64(i64 %8, i1 true) #29, !range !112
  %10 = shl nuw nsw i64 %9, 1
  %11 = xor i64 %10, 126
  tail call void @_ZSt16__introsort_loopIN9__gnu_cxx17__normal_iteratorIPxSt6vectorIxSaIxEEEElNS0_5__ops15_Iter_less_iterEEvT_S9_T0_T1_(i64* %0, i64* %1, i64 %11) #27
  tail call void @_ZSt22__final_insertion_sortIN9__gnu_cxx17__normal_iteratorIPxSt6vectorIxSaIxEEEENS0_5__ops15_Iter_less_iterEEvT_S9_T0_(i64* %0, i64* %1) #27
  br label %12

12:                                               ; preds = %4, %2
  ret void
}

; Function Attrs: minsize mustprogress optsize sspstrong uwtable
define linkonce_odr dso_local void @_ZSt16__introsort_loopIN9__gnu_cxx17__normal_iteratorIPxSt6vectorIxSaIxEEEElNS0_5__ops15_Iter_less_iterEEvT_S9_T0_T1_(i64* %0, i64* %1, i64 %2) local_unnamed_addr #9 comdat {
  %4 = ptrtoint i64* %0 to i64
  br label %5

5:                                                ; preds = %14, %3
  %6 = phi i64* [ %1, %3 ], [ %16, %14 ]
  %7 = phi i64 [ %2, %3 ], [ %15, %14 ]
  %8 = ptrtoint i64* %6 to i64
  %9 = sub i64 %8, %4
  %10 = icmp sgt i64 %9, 128
  br i1 %10, label %11, label %17

11:                                               ; preds = %5
  %12 = icmp eq i64 %7, 0
  br i1 %12, label %13, label %14

13:                                               ; preds = %11
  tail call void @_ZSt14__partial_sortIN9__gnu_cxx17__normal_iteratorIPxSt6vectorIxSaIxEEEENS0_5__ops15_Iter_less_iterEEvT_S9_S9_T0_(i64* %0, i64* %6, i64* %6) #27
  br label %17

14:                                               ; preds = %11
  %15 = add nsw i64 %7, -1
  %16 = tail call i64* @_ZSt27__unguarded_partition_pivotIN9__gnu_cxx17__normal_iteratorIPxSt6vectorIxSaIxEEEENS0_5__ops15_Iter_less_iterEET_S9_S9_T0_(i64* %0, i64* %6) #27
  tail call void @_ZSt16__introsort_loopIN9__gnu_cxx17__normal_iteratorIPxSt6vectorIxSaIxEEEElNS0_5__ops15_Iter_less_iterEEvT_S9_T0_T1_(i64* %16, i64* %6, i64 %15) #27
  br label %5, !llvm.loop !113

17:                                               ; preds = %5, %13
  ret void
}

; Function Attrs: minsize optsize sspstrong uwtable
define linkonce_odr dso_local void @_ZSt22__final_insertion_sortIN9__gnu_cxx17__normal_iteratorIPxSt6vectorIxSaIxEEEENS0_5__ops15_Iter_less_iterEEvT_S9_T0_(i64* %0, i64* %1) local_unnamed_addr #5 comdat {
  %3 = ptrtoint i64* %1 to i64
  %4 = ptrtoint i64* %0 to i64
  %5 = sub i64 %3, %4
  %6 = icmp sgt i64 %5, 128
  br i1 %6, label %7, label %9

7:                                                ; preds = %2
  %8 = getelementptr inbounds i64, i64* %0, i64 16
  tail call void @_ZSt16__insertion_sortIN9__gnu_cxx17__normal_iteratorIPxSt6vectorIxSaIxEEEENS0_5__ops15_Iter_less_iterEEvT_S9_T0_(i64* %0, i64* nonnull %8) #27
  tail call void @_ZSt26__unguarded_insertion_sortIN9__gnu_cxx17__normal_iteratorIPxSt6vectorIxSaIxEEEENS0_5__ops15_Iter_less_iterEEvT_S9_T0_(i64* nonnull %8, i64* %1) #27
  br label %10

9:                                                ; preds = %2
  tail call void @_ZSt16__insertion_sortIN9__gnu_cxx17__normal_iteratorIPxSt6vectorIxSaIxEEEENS0_5__ops15_Iter_less_iterEEvT_S9_T0_(i64* %0, i64* %1) #27
  br label %10

10:                                               ; preds = %9, %7
  ret void
}

; Function Attrs: inlinehint minsize mustprogress optsize sspstrong uwtable
define linkonce_odr dso_local void @_ZSt14__partial_sortIN9__gnu_cxx17__normal_iteratorIPxSt6vectorIxSaIxEEEENS0_5__ops15_Iter_less_iterEEvT_S9_S9_T0_(i64* %0, i64* %1, i64* %2) local_unnamed_addr #8 comdat {
  %4 = alloca %"struct.__gnu_cxx::__ops::_Iter_less_iter", align 1
  tail call void @_ZSt13__heap_selectIN9__gnu_cxx17__normal_iteratorIPxSt6vectorIxSaIxEEEENS0_5__ops15_Iter_less_iterEEvT_S9_S9_T0_(i64* %0, i64* %1, i64* %2) #27
  call void @_ZSt11__sort_heapIN9__gnu_cxx17__normal_iteratorIPxSt6vectorIxSaIxEEEENS0_5__ops15_Iter_less_iterEEvT_S9_RT0_(i64* %0, i64* %1, %"struct.__gnu_cxx::__ops::_Iter_less_iter"* nonnull align 1 dereferenceable(1) %4) #27
  ret void
}

; Function Attrs: inlinehint minsize optsize sspstrong uwtable
define linkonce_odr dso_local i64* @_ZSt27__unguarded_partition_pivotIN9__gnu_cxx17__normal_iteratorIPxSt6vectorIxSaIxEEEENS0_5__ops15_Iter_less_iterEET_S9_S9_T0_(i64* %0, i64* %1) local_unnamed_addr #23 comdat {
  %3 = ptrtoint i64* %1 to i64
  %4 = ptrtoint i64* %0 to i64
  %5 = sub i64 %3, %4
  %6 = ashr exact i64 %5, 3
  %7 = sdiv i64 %6, 2
  %8 = getelementptr inbounds i64, i64* %0, i64 %7
  %9 = getelementptr inbounds i64, i64* %0, i64 1
  %10 = getelementptr inbounds i64, i64* %1, i64 -1
  tail call void @_ZSt22__move_median_to_firstIN9__gnu_cxx17__normal_iteratorIPxSt6vectorIxSaIxEEEENS0_5__ops15_Iter_less_iterEEvT_S9_S9_S9_T0_(i64* %0, i64* nonnull %9, i64* %8, i64* nonnull %10) #27
  %11 = tail call i64* @_ZSt21__unguarded_partitionIN9__gnu_cxx17__normal_iteratorIPxSt6vectorIxSaIxEEEENS0_5__ops15_Iter_less_iterEET_S9_S9_S9_T0_(i64* nonnull %9, i64* %1, i64* %0) #27
  ret i64* %11
}

; Function Attrs: minsize mustprogress optsize sspstrong uwtable
define linkonce_odr dso_local void @_ZSt13__heap_selectIN9__gnu_cxx17__normal_iteratorIPxSt6vectorIxSaIxEEEENS0_5__ops15_Iter_less_iterEEvT_S9_S9_T0_(i64* %0, i64* %1, i64* %2) local_unnamed_addr #9 comdat {
  %4 = alloca %"struct.__gnu_cxx::__ops::_Iter_less_iter", align 1
  call void @_ZSt11__make_heapIN9__gnu_cxx17__normal_iteratorIPxSt6vectorIxSaIxEEEENS0_5__ops15_Iter_less_iterEEvT_S9_RT0_(i64* %0, i64* %1, %"struct.__gnu_cxx::__ops::_Iter_less_iter"* nonnull align 1 dereferenceable(1) %4) #27
  br label %5

5:                                                ; preds = %14, %3
  %6 = phi i64* [ %1, %3 ], [ %15, %14 ]
  %7 = icmp ult i64* %6, %2
  br i1 %7, label %9, label %8

8:                                                ; preds = %5
  ret void

9:                                                ; preds = %5
  %10 = load i64, i64* %6, align 8, !tbaa !11
  %11 = load i64, i64* %0, align 8, !tbaa !11
  %12 = icmp slt i64 %10, %11
  br i1 %12, label %13, label %14

13:                                               ; preds = %9
  call void @_ZSt10__pop_heapIN9__gnu_cxx17__normal_iteratorIPxSt6vectorIxSaIxEEEENS0_5__ops15_Iter_less_iterEEvT_S9_S9_RT0_(i64* nonnull %0, i64* %1, i64* nonnull %6, %"struct.__gnu_cxx::__ops::_Iter_less_iter"* nonnull align 1 dereferenceable(1) %4) #27
  br label %14

14:                                               ; preds = %9, %13
  %15 = getelementptr inbounds i64, i64* %6, i64 1
  br label %5, !llvm.loop !114
}

; Function Attrs: minsize mustprogress optsize sspstrong uwtable
define linkonce_odr dso_local void @_ZSt11__sort_heapIN9__gnu_cxx17__normal_iteratorIPxSt6vectorIxSaIxEEEENS0_5__ops15_Iter_less_iterEEvT_S9_RT0_(i64* %0, i64* %1, %"struct.__gnu_cxx::__ops::_Iter_less_iter"* nonnull align 1 dereferenceable(1) %2) local_unnamed_addr #9 comdat {
  %4 = ptrtoint i64* %0 to i64
  br label %5

5:                                                ; preds = %10, %3
  %6 = phi i64* [ %1, %3 ], [ %11, %10 ]
  %7 = ptrtoint i64* %6 to i64
  %8 = sub i64 %7, %4
  %9 = icmp sgt i64 %8, 8
  br i1 %9, label %10, label %12

10:                                               ; preds = %5
  %11 = getelementptr inbounds i64, i64* %6, i64 -1
  tail call void @_ZSt10__pop_heapIN9__gnu_cxx17__normal_iteratorIPxSt6vectorIxSaIxEEEENS0_5__ops15_Iter_less_iterEEvT_S9_S9_RT0_(i64* %0, i64* nonnull %11, i64* nonnull %11, %"struct.__gnu_cxx::__ops::_Iter_less_iter"* nonnull align 1 dereferenceable(1) %2) #27
  br label %5, !llvm.loop !115

12:                                               ; preds = %5
  ret void
}

; Function Attrs: minsize optsize sspstrong uwtable
define linkonce_odr dso_local void @_ZSt11__make_heapIN9__gnu_cxx17__normal_iteratorIPxSt6vectorIxSaIxEEEENS0_5__ops15_Iter_less_iterEEvT_S9_RT0_(i64* %0, i64* %1, %"struct.__gnu_cxx::__ops::_Iter_less_iter"* nonnull align 1 dereferenceable(1) %2) local_unnamed_addr #5 comdat {
  %4 = ptrtoint i64* %1 to i64
  %5 = ptrtoint i64* %0 to i64
  %6 = sub i64 %4, %5
  %7 = ashr exact i64 %6, 3
  %8 = icmp slt i64 %6, 16
  br i1 %8, label %18, label %9

9:                                                ; preds = %3
  %10 = add nsw i64 %7, -2
  %11 = lshr i64 %10, 1
  br label %12

12:                                               ; preds = %12, %9
  %13 = phi i64 [ %11, %9 ], [ %17, %12 ]
  %14 = getelementptr inbounds i64, i64* %0, i64 %13
  %15 = load i64, i64* %14, align 8, !tbaa !11
  tail call void @_ZSt13__adjust_heapIN9__gnu_cxx17__normal_iteratorIPxSt6vectorIxSaIxEEEElxNS0_5__ops15_Iter_less_iterEEvT_T0_SA_T1_T2_(i64* %0, i64 %13, i64 %7, i64 %15) #27
  %16 = icmp eq i64 %13, 0
  %17 = add nsw i64 %13, -1
  br i1 %16, label %18, label %12, !llvm.loop !116

18:                                               ; preds = %12, %3
  ret void
}

; Function Attrs: inlinehint minsize mustprogress optsize sspstrong uwtable
define linkonce_odr dso_local void @_ZSt10__pop_heapIN9__gnu_cxx17__normal_iteratorIPxSt6vectorIxSaIxEEEENS0_5__ops15_Iter_less_iterEEvT_S9_S9_RT0_(i64* %0, i64* %1, i64* %2, %"struct.__gnu_cxx::__ops::_Iter_less_iter"* nonnull align 1 dereferenceable(1) %3) local_unnamed_addr #8 comdat {
  %5 = load i64, i64* %2, align 8, !tbaa !11
  %6 = load i64, i64* %0, align 8, !tbaa !11
  store i64 %6, i64* %2, align 8, !tbaa !11
  %7 = ptrtoint i64* %1 to i64
  %8 = ptrtoint i64* %0 to i64
  %9 = sub i64 %7, %8
  %10 = ashr exact i64 %9, 3
  tail call void @_ZSt13__adjust_heapIN9__gnu_cxx17__normal_iteratorIPxSt6vectorIxSaIxEEEElxNS0_5__ops15_Iter_less_iterEEvT_T0_SA_T1_T2_(i64* nonnull %0, i64 0, i64 %10, i64 %5) #27
  ret void
}

; Function Attrs: minsize optsize sspstrong uwtable
define linkonce_odr dso_local void @_ZSt13__adjust_heapIN9__gnu_cxx17__normal_iteratorIPxSt6vectorIxSaIxEEEElxNS0_5__ops15_Iter_less_iterEEvT_T0_SA_T1_T2_(i64* %0, i64 %1, i64 %2, i64 %3) local_unnamed_addr #5 comdat {
  %5 = alloca %"struct.__gnu_cxx::__ops::_Iter_less_val", align 1
  %6 = add nsw i64 %2, -1
  %7 = sdiv i64 %6, 2
  br label %8

8:                                                ; preds = %11, %4
  %9 = phi i64 [ %1, %4 ], [ %20, %11 ]
  %10 = icmp slt i64 %9, %7
  br i1 %10, label %11, label %24

11:                                               ; preds = %8
  %12 = shl i64 %9, 1
  %13 = add i64 %12, 2
  %14 = getelementptr inbounds i64, i64* %0, i64 %13
  %15 = or i64 %12, 1
  %16 = getelementptr inbounds i64, i64* %0, i64 %15
  %17 = load i64, i64* %14, align 8, !tbaa !11
  %18 = load i64, i64* %16, align 8, !tbaa !11
  %19 = icmp slt i64 %17, %18
  %20 = select i1 %19, i64 %15, i64 %13
  %21 = getelementptr inbounds i64, i64* %0, i64 %20
  %22 = load i64, i64* %21, align 8, !tbaa !11
  %23 = getelementptr inbounds i64, i64* %0, i64 %9
  store i64 %22, i64* %23, align 8, !tbaa !11
  br label %8, !llvm.loop !117

24:                                               ; preds = %8
  %25 = and i64 %2, 1
  %26 = icmp eq i64 %25, 0
  br i1 %26, label %27, label %37

27:                                               ; preds = %24
  %28 = add nsw i64 %2, -2
  %29 = sdiv i64 %28, 2
  %30 = icmp eq i64 %9, %29
  br i1 %30, label %31, label %37

31:                                               ; preds = %27
  %32 = shl i64 %9, 1
  %33 = or i64 %32, 1
  %34 = getelementptr inbounds i64, i64* %0, i64 %33
  %35 = load i64, i64* %34, align 8, !tbaa !11
  %36 = getelementptr inbounds i64, i64* %0, i64 %9
  store i64 %35, i64* %36, align 8, !tbaa !11
  br label %37

37:                                               ; preds = %31, %27, %24
  %38 = phi i64 [ %33, %31 ], [ %9, %27 ], [ %9, %24 ]
  %39 = getelementptr inbounds %"struct.__gnu_cxx::__ops::_Iter_less_val", %"struct.__gnu_cxx::__ops::_Iter_less_val"* %5, i64 0, i32 0
  call void @llvm.lifetime.start.p0i8(i64 1, i8* nonnull %39) #29
  call void @_ZSt11__push_heapIN9__gnu_cxx17__normal_iteratorIPxSt6vectorIxSaIxEEEElxNS0_5__ops14_Iter_less_valEEvT_T0_SA_T1_RT2_(i64* %0, i64 %38, i64 %1, i64 %3, %"struct.__gnu_cxx::__ops::_Iter_less_val"* nonnull align 1 dereferenceable(1) %5) #27
  call void @llvm.lifetime.end.p0i8(i64 1, i8* nonnull %39) #29
  ret void
}

; Function Attrs: minsize optsize sspstrong uwtable
define linkonce_odr dso_local void @_ZSt11__push_heapIN9__gnu_cxx17__normal_iteratorIPxSt6vectorIxSaIxEEEElxNS0_5__ops14_Iter_less_valEEvT_T0_SA_T1_RT2_(i64* %0, i64 %1, i64 %2, i64 %3, %"struct.__gnu_cxx::__ops::_Iter_less_val"* nonnull align 1 dereferenceable(1) %4) local_unnamed_addr #5 comdat {
  br label %6

6:                                                ; preds = %15, %5
  %7 = phi i64 [ %1, %5 ], [ %9, %15 ]
  %8 = add nsw i64 %7, -1
  %9 = sdiv i64 %8, 2
  %10 = icmp sgt i64 %7, %2
  br i1 %10, label %11, label %17

11:                                               ; preds = %6
  %12 = getelementptr inbounds i64, i64* %0, i64 %9
  %13 = load i64, i64* %12, align 8, !tbaa !11
  %14 = icmp slt i64 %13, %3
  br i1 %14, label %15, label %17

15:                                               ; preds = %11
  %16 = getelementptr inbounds i64, i64* %0, i64 %7
  store i64 %13, i64* %16, align 8, !tbaa !11
  br label %6, !llvm.loop !118

17:                                               ; preds = %6, %11
  %18 = getelementptr inbounds i64, i64* %0, i64 %7
  store i64 %3, i64* %18, align 8, !tbaa !11
  ret void
}

; Function Attrs: minsize mustprogress optsize sspstrong uwtable
define linkonce_odr dso_local void @_ZSt22__move_median_to_firstIN9__gnu_cxx17__normal_iteratorIPxSt6vectorIxSaIxEEEENS0_5__ops15_Iter_less_iterEEvT_S9_S9_S9_T0_(i64* %0, i64* %1, i64* %2, i64* %3) local_unnamed_addr #9 comdat {
  %5 = load i64, i64* %1, align 8, !tbaa !11
  %6 = load i64, i64* %2, align 8, !tbaa !11
  %7 = icmp slt i64 %5, %6
  %8 = load i64, i64* %3, align 8, !tbaa !11
  br i1 %7, label %9, label %18

9:                                                ; preds = %4
  %10 = icmp slt i64 %6, %8
  br i1 %10, label %11, label %13

11:                                               ; preds = %9
  %12 = load i64, i64* %0, align 8, !tbaa !11
  store i64 %6, i64* %0, align 8, !tbaa !11
  store i64 %12, i64* %2, align 8, !tbaa !11
  br label %27

13:                                               ; preds = %9
  %14 = icmp slt i64 %5, %8
  %15 = load i64, i64* %0, align 8, !tbaa !11
  br i1 %14, label %16, label %17

16:                                               ; preds = %13
  store i64 %8, i64* %0, align 8, !tbaa !11
  store i64 %15, i64* %3, align 8, !tbaa !11
  br label %27

17:                                               ; preds = %13
  store i64 %5, i64* %0, align 8, !tbaa !11
  store i64 %15, i64* %1, align 8, !tbaa !11
  br label %27

18:                                               ; preds = %4
  %19 = icmp slt i64 %5, %8
  br i1 %19, label %20, label %22

20:                                               ; preds = %18
  %21 = load i64, i64* %0, align 8, !tbaa !11
  store i64 %5, i64* %0, align 8, !tbaa !11
  store i64 %21, i64* %1, align 8, !tbaa !11
  br label %27

22:                                               ; preds = %18
  %23 = icmp slt i64 %6, %8
  %24 = load i64, i64* %0, align 8, !tbaa !11
  br i1 %23, label %25, label %26

25:                                               ; preds = %22
  store i64 %8, i64* %0, align 8, !tbaa !11
  store i64 %24, i64* %3, align 8, !tbaa !11
  br label %27

26:                                               ; preds = %22
  store i64 %6, i64* %0, align 8, !tbaa !11
  store i64 %24, i64* %2, align 8, !tbaa !11
  br label %27

27:                                               ; preds = %20, %26, %25, %11, %17, %16
  ret void
}

; Function Attrs: minsize mustprogress nounwind optsize sspstrong uwtable
define linkonce_odr dso_local i64* @_ZSt21__unguarded_partitionIN9__gnu_cxx17__normal_iteratorIPxSt6vectorIxSaIxEEEENS0_5__ops15_Iter_less_iterEET_S9_S9_S9_T0_(i64* %0, i64* %1, i64* %2) local_unnamed_addr #12 comdat {
  br label %4

4:                                                ; preds = %3, %21
  %5 = phi i64* [ %0, %3 ], [ %12, %21 ]
  %6 = phi i64* [ %1, %3 ], [ %15, %21 ]
  %7 = load i64, i64* %2, align 8, !tbaa !11
  br label %8

8:                                                ; preds = %8, %4
  %9 = phi i64* [ %5, %4 ], [ %12, %8 ]
  %10 = load i64, i64* %9, align 8, !tbaa !11
  %11 = icmp slt i64 %10, %7
  %12 = getelementptr inbounds i64, i64* %9, i64 1
  br i1 %11, label %8, label %13, !llvm.loop !119

13:                                               ; preds = %8, %13
  %14 = phi i64* [ %15, %13 ], [ %6, %8 ]
  %15 = getelementptr inbounds i64, i64* %14, i64 -1
  %16 = load i64, i64* %15, align 8, !tbaa !11
  %17 = icmp slt i64 %7, %16
  br i1 %17, label %13, label %18, !llvm.loop !120

18:                                               ; preds = %13
  %19 = icmp ult i64* %9, %15
  br i1 %19, label %21, label %20

20:                                               ; preds = %18
  ret i64* %9

21:                                               ; preds = %18
  store i64 %16, i64* %9, align 8, !tbaa !11
  store i64 %10, i64* %15, align 8, !tbaa !11
  br label %4, !llvm.loop !121
}

; Function Attrs: mustprogress nofree nosync nounwind readnone speculatable willreturn
declare i64 @llvm.ctlz.i64(i64, i1 immarg) #24

; Function Attrs: minsize optsize sspstrong uwtable
define linkonce_odr dso_local void @_ZSt16__insertion_sortIN9__gnu_cxx17__normal_iteratorIPxSt6vectorIxSaIxEEEENS0_5__ops15_Iter_less_iterEEvT_S9_T0_(i64* %0, i64* %1) local_unnamed_addr #5 comdat {
  %3 = icmp eq i64* %0, %1
  br i1 %3, label %27, label %4

4:                                                ; preds = %2
  %5 = ptrtoint i64* %0 to i64
  %6 = bitcast i64* %0 to i8*
  br label %7

7:                                                ; preds = %25, %4
  %8 = phi i64* [ %0, %4 ], [ %9, %25 ]
  %9 = getelementptr inbounds i64, i64* %8, i64 1
  %10 = icmp eq i64* %9, %1
  br i1 %10, label %27, label %11

11:                                               ; preds = %7
  %12 = load i64, i64* %9, align 8, !tbaa !11
  %13 = load i64, i64* %0, align 8, !tbaa !11
  %14 = icmp slt i64 %12, %13
  br i1 %14, label %15, label %26

15:                                               ; preds = %11
  %16 = ptrtoint i64* %9 to i64
  %17 = sub i64 %16, %5
  %18 = icmp eq i64 %17, 0
  br i1 %18, label %24, label %19

19:                                               ; preds = %15
  %20 = ashr exact i64 %17, 3
  %21 = sub nsw i64 2, %20
  %22 = getelementptr inbounds i64, i64* %8, i64 %21
  %23 = bitcast i64* %22 to i8*
  tail call void @llvm.memmove.p0i8.p0i8.i64(i8* nonnull align 8 %23, i8* nonnull align 8 %6, i64 %17, i1 false) #29
  br label %24

24:                                               ; preds = %15, %19
  store i64 %12, i64* %0, align 8, !tbaa !11
  br label %25

25:                                               ; preds = %24, %26
  br label %7, !llvm.loop !122

26:                                               ; preds = %11
  tail call void @_ZSt25__unguarded_linear_insertIN9__gnu_cxx17__normal_iteratorIPxSt6vectorIxSaIxEEEENS0_5__ops14_Val_less_iterEEvT_T0_(i64* nonnull %9) #27
  br label %25

27:                                               ; preds = %7, %2
  ret void
}

; Function Attrs: inlinehint minsize mustprogress optsize sspstrong uwtable
define linkonce_odr dso_local void @_ZSt26__unguarded_insertion_sortIN9__gnu_cxx17__normal_iteratorIPxSt6vectorIxSaIxEEEENS0_5__ops15_Iter_less_iterEEvT_S9_T0_(i64* %0, i64* %1) local_unnamed_addr #8 comdat {
  br label %3

3:                                                ; preds = %7, %2
  %4 = phi i64* [ %0, %2 ], [ %8, %7 ]
  %5 = icmp eq i64* %4, %1
  br i1 %5, label %6, label %7

6:                                                ; preds = %3
  ret void

7:                                                ; preds = %3
  tail call void @_ZSt25__unguarded_linear_insertIN9__gnu_cxx17__normal_iteratorIPxSt6vectorIxSaIxEEEENS0_5__ops14_Val_less_iterEEvT_T0_(i64* %4) #27
  %8 = getelementptr inbounds i64, i64* %4, i64 1
  br label %3, !llvm.loop !123
}

; Function Attrs: minsize mustprogress optsize sspstrong uwtable
define linkonce_odr dso_local void @_ZSt25__unguarded_linear_insertIN9__gnu_cxx17__normal_iteratorIPxSt6vectorIxSaIxEEEENS0_5__ops14_Val_less_iterEEvT_T0_(i64* %0) local_unnamed_addr #9 comdat {
  %2 = load i64, i64* %0, align 8, !tbaa !11
  br label %3

3:                                                ; preds = %8, %1
  %4 = phi i64* [ %0, %1 ], [ %5, %8 ]
  %5 = getelementptr inbounds i64, i64* %4, i64 -1
  %6 = load i64, i64* %5, align 8, !tbaa !11
  %7 = icmp slt i64 %2, %6
  br i1 %7, label %8, label %9

8:                                                ; preds = %3
  store i64 %6, i64* %4, align 8, !tbaa !11
  br label %3, !llvm.loop !124

9:                                                ; preds = %3
  store i64 %2, i64* %4, align 8, !tbaa !11
  ret void
}

; Function Attrs: minsize optsize sspstrong uwtable
define internal void @_GLOBAL__sub_I_s347287969.cpp() #5 section ".text.startup" personality i32 (...)* @__gxx_personality_v0 {
  %1 = alloca %"class.std::allocator.11", align 1
  tail call void @_ZNSt8ios_base4InitC1Ev(%"class.std::ios_base::Init"* nonnull align 1 dereferenceable(1) @_ZStL8__ioinit) #27
  %2 = tail call i32 @__cxa_atexit(void (i8*)* bitcast (void (%"class.std::ios_base::Init"*)* @_ZNSt8ios_base4InitD1Ev to void (i8*)*), i8* getelementptr inbounds (%"class.std::ios_base::Init", %"class.std::ios_base::Init"* @_ZStL8__ioinit, i64 0, i32 0), i8* nonnull @__dso_handle) #29
  tail call void @llvm.memset.p0i8.i64(i8* noundef nonnull align 8 dereferenceable(24) bitcast (%"class.std::vector"* @primes to i8*), i8 0, i64 24, i1 false) #29
  %3 = tail call i32 @__cxa_atexit(void (i8*)* bitcast (void (%"class.std::vector"*)* @_ZNSt6vectorIxSaIxEED2Ev to void (i8*)*), i8* bitcast (%"class.std::vector"* @primes to i8*), i8* nonnull @__dso_handle) #29
  store i64* null, i64** getelementptr inbounds (%"class.std::vector.0", %"class.std::vector.0"* @isprime, i64 0, i32 0, i32 0, i32 0, i32 0, i32 0, i32 0), align 8, !tbaa !58
  store i32 0, i32* getelementptr inbounds (%"class.std::vector.0", %"class.std::vector.0"* @isprime, i64 0, i32 0, i32 0, i32 0, i32 0, i32 0, i32 1), align 8, !tbaa !61
  store i64* null, i64** getelementptr inbounds (%"class.std::vector.0", %"class.std::vector.0"* @isprime, i64 0, i32 0, i32 0, i32 0, i32 1, i32 0, i32 0), align 8, !tbaa !58
  store i32 0, i32* getelementptr inbounds (%"class.std::vector.0", %"class.std::vector.0"* @isprime, i64 0, i32 0, i32 0, i32 0, i32 1, i32 0, i32 1), align 8, !tbaa !61
  store i64* null, i64** getelementptr inbounds (%"class.std::vector.0", %"class.std::vector.0"* @isprime, i64 0, i32 0, i32 0, i32 0, i32 2), align 8, !tbaa !76
  %4 = tail call i32 @__cxa_atexit(void (i8*)* bitcast (void (%"struct.std::_Bvector_base"*)* @_ZNSt13_Bvector_baseISaIbEED2Ev to void (i8*)*), i8* bitcast (%"class.std::vector.0"* @isprime to i8*), i8* nonnull @__dso_handle) #29
  tail call void @llvm.memset.p0i8.i64(i8* noundef nonnull align 8 dereferenceable(24) bitcast (%"class.std::vector"* @min_factor to i8*), i8 0, i64 24, i1 false) #29
  %5 = tail call i32 @__cxa_atexit(void (i8*)* bitcast (void (%"class.std::vector"*)* @_ZNSt6vectorIxSaIxEED2Ev to void (i8*)*), i8* bitcast (%"class.std::vector"* @min_factor to i8*), i8* nonnull @__dso_handle) #29
  tail call void @llvm.memset.p0i8.i64(i8* noundef nonnull align 8 dereferenceable(24) bitcast (%"class.std::vector.4"* @res_pf to i8*), i8 0, i64 24, i1 false) #29
  %6 = tail call i32 @__cxa_atexit(void (i8*)* bitcast (void (%"class.std::vector.4"*)* @_ZNSt6vectorISt4pairIxxESaIS1_EED2Ev to void (i8*)*), i8* bitcast (%"class.std::vector.4"* @res_pf to i8*), i8* nonnull @__dso_handle) #29
  tail call void @llvm.memset.p0i8.i64(i8* noundef nonnull align 8 dereferenceable(24) bitcast (%"class.std::vector"* @factor_list to i8*), i8 0, i64 24, i1 false) #29
  %7 = tail call i32 @__cxa_atexit(void (i8*)* bitcast (void (%"class.std::vector"*)* @_ZNSt6vectorIxSaIxEED2Ev to void (i8*)*), i8* bitcast (%"class.std::vector"* @factor_list to i8*), i8* nonnull @__dso_handle) #29
  %8 = getelementptr inbounds %"class.std::allocator.11", %"class.std::allocator.11"* %1, i64 0, i32 0
  call void @llvm.lifetime.start.p0i8(i64 1, i8* nonnull %8) #29
  call void @_ZNSt6vectorISt3setIxSt4lessIxESaIxEESaIS4_EEC2EmRKS5_(%"class.std::vector.9"* nonnull align 8 dereferenceable(24) @alp, i64 26, %"class.std::allocator.11"* nonnull align 1 dereferenceable(1) %1) #27
  call void @llvm.lifetime.end.p0i8(i64 1, i8* nonnull %8) #29
  %9 = call i32 @__cxa_atexit(void (i8*)* bitcast (void (%"class.std::vector.9"*)* @_ZNSt6vectorISt3setIxSt4lessIxESaIxEESaIS4_EED2Ev to void (i8*)*), i8* bitcast (%"class.std::vector.9"* @alp to i8*), i8* nonnull @__dso_handle) #29
  ret void
}

; Function Attrs: nofree nosync nounwind readnone speculatable willreturn
declare i64 @llvm.smax.i64(i64, i64) #25

; Function Attrs: nofree nosync nounwind readnone speculatable willreturn
declare i64 @llvm.abs.i64(i64, i1 immarg) #25

attributes #0 = { minsize optsize "frame-pointer"="none" "no-trapping-math"="true" "stack-protector-buffer-size"="8" "target-cpu"="x86-64" "target-features"="+cx8,+fxsr,+mmx,+sse,+sse2,+x87" "tune-cpu"="generic" }
attributes #1 = { minsize nounwind optsize "frame-pointer"="none" "no-trapping-math"="true" "stack-protector-buffer-size"="8" "target-cpu"="x86-64" "target-features"="+cx8,+fxsr,+mmx,+sse,+sse2,+x87" "tune-cpu"="generic" }
attributes #2 = { nofree nounwind }
attributes #3 = { minsize nounwind optsize sspstrong uwtable "frame-pointer"="none" "min-legal-vector-width"="0" "no-trapping-math"="true" "stack-protector-buffer-size"="8" "target-cpu"="x86-64" "target-features"="+cx8,+fxsr,+mmx,+sse,+sse2,+x87" "tune-cpu"="generic" }
attributes #4 = { argmemonly mustprogress nofree nosync nounwind willreturn }
attributes #5 = { minsize optsize sspstrong uwtable "frame-pointer"="none" "min-legal-vector-width"="0" "no-trapping-math"="true" "stack-protector-buffer-size"="8" "target-cpu"="x86-64" "target-features"="+cx8,+fxsr,+mmx,+sse,+sse2,+x87" "tune-cpu"="generic" }
attributes #6 = { argmemonly mustprogress nofree nounwind willreturn }
attributes #7 = { minsize norecurse optsize sspstrong uwtable "frame-pointer"="none" "min-legal-vector-width"="0" "no-trapping-math"="true" "stack-protector-buffer-size"="8" "target-cpu"="x86-64" "target-features"="+cx8,+fxsr,+mmx,+sse,+sse2,+x87" "tune-cpu"="generic" }
attributes #8 = { inlinehint minsize mustprogress optsize sspstrong uwtable "frame-pointer"="none" "min-legal-vector-width"="0" "no-trapping-math"="true" "stack-protector-buffer-size"="8" "target-cpu"="x86-64" "target-features"="+cx8,+fxsr,+mmx,+sse,+sse2,+x87" "tune-cpu"="generic" }
attributes #9 = { minsize mustprogress optsize sspstrong uwtable "frame-pointer"="none" "min-legal-vector-width"="0" "no-trapping-math"="true" "stack-protector-buffer-size"="8" "target-cpu"="x86-64" "target-features"="+cx8,+fxsr,+mmx,+sse,+sse2,+x87" "tune-cpu"="generic" }
attributes #10 = { minsize mustprogress nofree norecurse nosync nounwind optsize readnone sspstrong uwtable willreturn "frame-pointer"="none" "min-legal-vector-width"="0" "no-trapping-math"="true" "stack-protector-buffer-size"="8" "target-cpu"="x86-64" "target-features"="+cx8,+fxsr,+mmx,+sse,+sse2,+x87" "tune-cpu"="generic" }
attributes #11 = { minsize mustprogress nofree nosync nounwind optsize readnone sspstrong uwtable willreturn "frame-pointer"="none" "min-legal-vector-width"="0" "no-trapping-math"="true" "stack-protector-buffer-size"="8" "target-cpu"="x86-64" "target-features"="+cx8,+fxsr,+mmx,+sse,+sse2,+x87" "tune-cpu"="generic" }
attributes #12 = { minsize mustprogress nounwind optsize sspstrong uwtable "frame-pointer"="none" "min-legal-vector-width"="0" "no-trapping-math"="true" "stack-protector-buffer-size"="8" "target-cpu"="x86-64" "target-features"="+cx8,+fxsr,+mmx,+sse,+sse2,+x87" "tune-cpu"="generic" }
attributes #13 = { minsize mustprogress nofree norecurse nosync nounwind optsize sspstrong uwtable "frame-pointer"="none" "min-legal-vector-width"="0" "no-trapping-math"="true" "stack-protector-buffer-size"="8" "target-cpu"="x86-64" "target-features"="+cx8,+fxsr,+mmx,+sse,+sse2,+x87" "tune-cpu"="generic" }
attributes #14 = { minsize mustprogress nofree norecurse nosync nounwind optsize readonly sspstrong uwtable willreturn "frame-pointer"="none" "min-legal-vector-width"="0" "no-trapping-math"="true" "stack-protector-buffer-size"="8" "target-cpu"="x86-64" "target-features"="+cx8,+fxsr,+mmx,+sse,+sse2,+x87" "tune-cpu"="generic" }
attributes #15 = { noinline noreturn nounwind }
attributes #16 = { minsize mustprogress nofree nounwind optsize willreturn "frame-pointer"="none" "no-trapping-math"="true" "stack-protector-buffer-size"="8" "target-cpu"="x86-64" "target-features"="+cx8,+fxsr,+mmx,+sse,+sse2,+x87" "tune-cpu"="generic" }
attributes #17 = { minsize nobuiltin nounwind optsize "frame-pointer"="none" "no-trapping-math"="true" "stack-protector-buffer-size"="8" "target-cpu"="x86-64" "target-features"="+cx8,+fxsr,+mmx,+sse,+sse2,+x87" "tune-cpu"="generic" }
attributes #18 = { minsize noreturn optsize "frame-pointer"="none" "no-trapping-math"="true" "stack-protector-buffer-size"="8" "target-cpu"="x86-64" "target-features"="+cx8,+fxsr,+mmx,+sse,+sse2,+x87" "tune-cpu"="generic" }
attributes #19 = { minsize nobuiltin optsize allocsize(0) "frame-pointer"="none" "no-trapping-math"="true" "stack-protector-buffer-size"="8" "target-cpu"="x86-64" "target-features"="+cx8,+fxsr,+mmx,+sse,+sse2,+x87" "tune-cpu"="generic" }
attributes #20 = { argmemonly mustprogress nofree nounwind willreturn writeonly }
attributes #21 = { minsize mustprogress nofree nounwind optsize readonly willreturn "frame-pointer"="none" "no-trapping-math"="true" "stack-protector-buffer-size"="8" "target-cpu"="x86-64" "target-features"="+cx8,+fxsr,+mmx,+sse,+sse2,+x87" "tune-cpu"="generic" }
attributes #22 = { inlinehint minsize mustprogress nounwind optsize sspstrong uwtable "frame-pointer"="none" "min-legal-vector-width"="0" "no-trapping-math"="true" "stack-protector-buffer-size"="8" "target-cpu"="x86-64" "target-features"="+cx8,+fxsr,+mmx,+sse,+sse2,+x87" "tune-cpu"="generic" }
attributes #23 = { inlinehint minsize optsize sspstrong uwtable "frame-pointer"="none" "min-legal-vector-width"="0" "no-trapping-math"="true" "stack-protector-buffer-size"="8" "target-cpu"="x86-64" "target-features"="+cx8,+fxsr,+mmx,+sse,+sse2,+x87" "tune-cpu"="generic" }
attributes #24 = { mustprogress nofree nosync nounwind readnone speculatable willreturn }
attributes #25 = { nofree nosync nounwind readnone speculatable willreturn }
attributes #26 = { minsize nounwind optsize }
attributes #27 = { minsize optsize }
attributes #28 = { noreturn nounwind }
attributes #29 = { nounwind }
attributes #30 = { minsize nounwind optsize readonly willreturn }
attributes #31 = { minsize noreturn optsize }
attributes #32 = { minsize optsize allocsize(0) }
attributes #33 = { noreturn }

!llvm.module.flags = !{!0, !1, !2, !3}
!llvm.ident = !{!4}

!0 = !{i32 1, !"wchar_size", i32 4}
!1 = !{i32 7, !"PIC Level", i32 2}
!2 = !{i32 7, !"PIE Level", i32 2}
!3 = !{i32 7, !"uwtable", i32 1}
!4 = !{!"clang version 13.0.0"}
!5 = !{!6, !7, i64 0}
!6 = !{!"_ZTSNSt12_Vector_baseISt3setIxSt4lessIxESaIxEESaIS4_EE17_Vector_impl_dataE", !7, i64 0, !7, i64 8, !7, i64 16}
!7 = !{!"any pointer", !8, i64 0}
!8 = !{!"omnipotent char", !9, i64 0}
!9 = !{!"Simple C++ TBAA"}
!10 = !{!6, !7, i64 8}
!11 = !{!12, !12, i64 0}
!12 = !{!"long long", !8, i64 0}
!13 = distinct !{!13, !14}
!14 = !{!"llvm.loop.mustprogress"}
!15 = distinct !{!15, !14}
!16 = !{!17, !17, i64 0}
!17 = !{!"vtable pointer", !9, i64 0}
!18 = !{!19, !7, i64 216}
!19 = !{!"_ZTSSt9basic_iosIcSt11char_traitsIcEE", !7, i64 216, !8, i64 224, !20, i64 225, !7, i64 232, !7, i64 240, !7, i64 248, !7, i64 256}
!20 = !{!"bool", !8, i64 0}
!21 = !{!22, !7, i64 0}
!22 = !{!"_ZTSNSt7__cxx1112basic_stringIcSt11char_traitsIcESaIcEE12_Alloc_hiderE", !7, i64 0}
!23 = !{!24, !25, i64 8}
!24 = !{!"_ZTSNSt7__cxx1112basic_stringIcSt11char_traitsIcESaIcEEE", !22, i64 0, !25, i64 8, !8, i64 16}
!25 = !{!"long", !8, i64 0}
!26 = !{!8, !8, i64 0}
!27 = !{!24, !7, i64 0}
!28 = distinct !{!28, !14}
!29 = distinct !{!29, !14}
!30 = !{!31, !7, i64 8}
!31 = !{!"_ZTSNSt12_Vector_baseISt6vectorISt4pairIxxESaIS2_EESaIS4_EE17_Vector_impl_dataE", !7, i64 0, !7, i64 8, !7, i64 16}
!32 = !{!31, !7, i64 0}
!33 = !{!34, !7, i64 8}
!34 = !{!"_ZTSNSt12_Vector_baseISt4pairIxxESaIS1_EE17_Vector_impl_dataE", !7, i64 0, !7, i64 8, !7, i64 16}
!35 = !{!34, !7, i64 0}
!36 = distinct !{!36, !14}
!37 = !{!38, !12, i64 0}
!38 = !{!"_ZTSSt4pairIxxE", !12, i64 0, !12, i64 8}
!39 = !{!38, !12, i64 8}
!40 = distinct !{!40, !14}
!41 = !{!42, !7, i64 16}
!42 = !{!"_ZTSSt15_Rb_tree_header", !43, i64 0, !25, i64 32}
!43 = !{!"_ZTSSt18_Rb_tree_node_base", !44, i64 0, !7, i64 8, !7, i64 16, !7, i64 24}
!44 = !{!"_ZTSSt14_Rb_tree_color", !8, i64 0}
!45 = distinct !{!45, !14}
!46 = distinct !{!46, !14}
!47 = distinct !{!47, !14}
!48 = distinct !{!48, !14}
!49 = distinct !{!49, !14}
!50 = distinct !{!50, !14}
!51 = distinct !{!51, !14}
!52 = !{!25, !25, i64 0}
!53 = !{!54, !7, i64 0}
!54 = !{!"_ZTSNSt12_Vector_baseIxSaIxEE17_Vector_impl_dataE", !7, i64 0, !7, i64 8, !7, i64 16}
!55 = distinct !{!55, !14}
!56 = distinct !{!56, !14}
!57 = !{!20, !20, i64 0}
!58 = !{!59, !7, i64 0}
!59 = !{!"_ZTSSt18_Bit_iterator_base", !7, i64 0, !60, i64 8}
!60 = !{!"int", !8, i64 0}
!61 = !{!59, !60, i64 8}
!62 = !{!54, !7, i64 8}
!63 = !{!64, !25, i64 8}
!64 = !{!"_ZTSSt14_Bit_reference", !7, i64 0, !25, i64 8}
!65 = !{!64, !7, i64 0}
!66 = !{i8 0, i8 2}
!67 = distinct !{!67, !14}
!68 = distinct !{!68, !14}
!69 = distinct !{!69, !14}
!70 = distinct !{!70, !14}
!71 = distinct !{!71, !14}
!72 = !{!7, !7, i64 0}
!73 = !{!54, !7, i64 16}
!74 = distinct !{!74, !14}
!75 = distinct !{!75, !14}
!76 = !{!77, !7, i64 32}
!77 = !{!"_ZTSNSt13_Bvector_baseISaIbEE18_Bvector_impl_dataE", !78, i64 0, !78, i64 16, !7, i64 32}
!78 = !{!"_ZTSSt13_Bit_iterator"}
!79 = !{!6, !7, i64 16}
!80 = !{!"branch_weights", i32 1, i32 2000}
!81 = !{!42, !7, i64 24}
!82 = !{!42, !25, i64 32}
!83 = distinct !{!83, !14}
!84 = distinct !{!84, !14}
!85 = !{!42, !7, i64 8}
!86 = !{!43, !7, i64 24}
!87 = !{!43, !7, i64 16}
!88 = distinct !{!88, !14}
!89 = distinct !{!89, !14}
!90 = distinct !{!90, !14}
!91 = distinct !{!91, !14}
!92 = distinct !{!92, !14}
!93 = distinct !{!93, !14}
!94 = !{!95, !7, i64 0}
!95 = !{!"_ZTSNSt8_Rb_treeIxxSt9_IdentityIxESt4lessIxESaIxEE11_Alloc_nodeE", !7, i64 0}
!96 = distinct !{!96, !14}
!97 = distinct !{!97, !14}
!98 = distinct !{!98, !14}
!99 = !{!100, !7, i64 0}
!100 = !{!"_ZTSNSt6vectorIxSaIxEE16_Temporary_valueE", !7, i64 0, !8, i64 8}
!101 = distinct !{!101, !14}
!102 = !{!34, !7, i64 16}
!103 = !{!104, !106}
!104 = distinct !{!104, !105, !"_ZSt19__relocate_object_aISt4pairIxxES1_SaIS1_EEvPT_PT0_RT1_: argument 0"}
!105 = distinct !{!105, !"_ZSt19__relocate_object_aISt4pairIxxES1_SaIS1_EEvPT_PT0_RT1_"}
!106 = distinct !{!106, !105, !"_ZSt19__relocate_object_aISt4pairIxxES1_SaIS1_EEvPT_PT0_RT1_: argument 1"}
!107 = distinct !{!107, !14}
!108 = !{!109, !111}
!109 = distinct !{!109, !110, !"_ZSt19__relocate_object_aISt4pairIxxES1_SaIS1_EEvPT_PT0_RT1_: argument 0"}
!110 = distinct !{!110, !"_ZSt19__relocate_object_aISt4pairIxxES1_SaIS1_EEvPT_PT0_RT1_"}
!111 = distinct !{!111, !110, !"_ZSt19__relocate_object_aISt4pairIxxES1_SaIS1_EEvPT_PT0_RT1_: argument 1"}
!112 = !{i64 0, i64 65}
!113 = distinct !{!113, !14}
!114 = distinct !{!114, !14}
!115 = distinct !{!115, !14}
!116 = distinct !{!116, !14}
!117 = distinct !{!117, !14}
!118 = distinct !{!118, !14}
!119 = distinct !{!119, !14}
!120 = distinct !{!120, !14}
!121 = distinct !{!121, !14}
!122 = distinct !{!122, !14}
!123 = distinct !{!123, !14}
!124 = distinct !{!124, !14}
