; ModuleID = 'Project_CodeNet_C++1400/p01315/s136356039.cpp'
source_filename = "Project_CodeNet_C++1400/p01315/s136356039.cpp"
target datalayout = "e-m:e-p270:32:32-p271:32:32-p272:64:64-i64:64-f80:128-n8:16:32:64-S128"
target triple = "x86_64-pc-linux-gnu"

%"class.std::ios_base::Init" = type { i8 }
%"class.std::vector" = type { %"struct.std::_Vector_base" }
%"struct.std::_Vector_base" = type { %"struct.std::_Vector_base<std::pair<double, std::__cxx11::basic_string<char>>, std::allocator<std::pair<double, std::__cxx11::basic_string<char>>>>::_Vector_impl" }
%"struct.std::_Vector_base<std::pair<double, std::__cxx11::basic_string<char>>, std::allocator<std::pair<double, std::__cxx11::basic_string<char>>>>::_Vector_impl" = type { %"struct.std::_Vector_base<std::pair<double, std::__cxx11::basic_string<char>>, std::allocator<std::pair<double, std::__cxx11::basic_string<char>>>>::_Vector_impl_data" }
%"struct.std::_Vector_base<std::pair<double, std::__cxx11::basic_string<char>>, std::allocator<std::pair<double, std::__cxx11::basic_string<char>>>>::_Vector_impl_data" = type { %"struct.std::pair"*, %"struct.std::pair"*, %"struct.std::pair"* }
%"struct.std::pair" = type { double, %"class.std::__cxx11::basic_string" }
%"class.std::__cxx11::basic_string" = type { %"struct.std::__cxx11::basic_string<char>::_Alloc_hider", i64, %union.anon }
%"struct.std::__cxx11::basic_string<char>::_Alloc_hider" = type { i8* }
%union.anon = type { i64, [8 x i8] }
%"class.std::basic_istream" = type { i32 (...)**, i64, %"class.std::basic_ios" }
%"class.std::basic_ios" = type { %"class.std::ios_base", %"class.std::basic_ostream"*, i8, i8, %"class.std::basic_streambuf"*, %"class.std::ctype"*, %"class.std::num_put"*, %"class.std::num_get"* }
%"class.std::ios_base" = type { i32 (...)**, i64, i64, i32, i32, i32, %"struct.std::ios_base::_Callback_list"*, %"struct.std::ios_base::_Words", [8 x %"struct.std::ios_base::_Words"], i32, %"struct.std::ios_base::_Words"*, %"class.std::locale" }
%"struct.std::ios_base::_Callback_list" = type { %"struct.std::ios_base::_Callback_list"*, void (i32, %"class.std::ios_base"*, i32)*, i32, i32 }
%"struct.std::ios_base::_Words" = type { i8*, i64 }
%"class.std::locale" = type { %"class.std::locale::_Impl"* }
%"class.std::locale::_Impl" = type { i32, %"class.std::locale::facet"**, i64, %"class.std::locale::facet"**, i8** }
%"class.std::locale::facet" = type <{ i32 (...)**, i32, [4 x i8] }>
%"class.std::basic_ostream" = type { i32 (...)**, %"class.std::basic_ios" }
%"class.std::basic_streambuf" = type { i32 (...)**, i8*, i8*, i8*, i8*, i8*, i8*, %"class.std::locale" }
%"class.std::ctype" = type <{ %"class.std::locale::facet.base", [4 x i8], %struct.__locale_struct*, i8, [7 x i8], i32*, i32*, i16*, i8, [256 x i8], [256 x i8], i8, [6 x i8] }>
%"class.std::locale::facet.base" = type <{ i32 (...)**, i32 }>
%struct.__locale_struct = type { [13 x %struct.__locale_data*], i16*, i32*, i32*, [13 x i8*] }
%struct.__locale_data = type opaque
%"class.std::num_put" = type { %"class.std::locale::facet.base", [4 x i8] }
%"class.std::num_get" = type { %"class.std::locale::facet.base", [4 x i8] }
%"struct.__gnu_cxx::__ops::_Iter_comp_iter" = type { i1 (%"struct.std::pair"*, %"struct.std::pair"*)* }
%"struct.__gnu_cxx::__ops::_Iter_comp_val" = type { i1 (%"struct.std::pair"*, %"struct.std::pair"*)* }
%"struct.__gnu_cxx::__ops::_Val_comp_iter" = type { i1 (%"struct.std::pair"*, %"struct.std::pair"*)* }

$_ZNSt6vectorISt4pairIdNSt7__cxx1112basic_stringIcSt11char_traitsIcESaIcEEEESaIS7_EED2Ev = comdat any

$_ZSt16__introsort_loopIN9__gnu_cxx17__normal_iteratorIPSt4pairIdNSt7__cxx1112basic_stringIcSt11char_traitsIcESaIcEEEESt6vectorIS9_SaIS9_EEEElNS0_5__ops15_Iter_comp_iterIPFbS9_S9_EEEEvT_SK_T0_T1_ = comdat any

$_ZSt11__make_heapIN9__gnu_cxx17__normal_iteratorIPSt4pairIdNSt7__cxx1112basic_stringIcSt11char_traitsIcESaIcEEEESt6vectorIS9_SaIS9_EEEENS0_5__ops15_Iter_comp_iterIPFbS9_S9_EEEEvT_SK_RT0_ = comdat any

$_ZN9__gnu_cxx5__ops15_Iter_comp_iterIPFbSt4pairIdNSt7__cxx1112basic_stringIcSt11char_traitsIcESaIcEEEES9_EEclINS_17__normal_iteratorIPS9_St6vectorIS9_SaIS9_EEEESJ_EEbT_T0_ = comdat any

$_ZSt10__pop_heapIN9__gnu_cxx17__normal_iteratorIPSt4pairIdNSt7__cxx1112basic_stringIcSt11char_traitsIcESaIcEEEESt6vectorIS9_SaIS9_EEEENS0_5__ops15_Iter_comp_iterIPFbS9_S9_EEEEvT_SK_SK_RT0_ = comdat any

$_ZSt13__adjust_heapIN9__gnu_cxx17__normal_iteratorIPSt4pairIdNSt7__cxx1112basic_stringIcSt11char_traitsIcESaIcEEEESt6vectorIS9_SaIS9_EEEElS9_NS0_5__ops15_Iter_comp_iterIPFbS9_S9_EEEEvT_T0_SL_T1_T2_ = comdat any

$_ZSt11__push_heapIN9__gnu_cxx17__normal_iteratorIPSt4pairIdNSt7__cxx1112basic_stringIcSt11char_traitsIcESaIcEEEESt6vectorIS9_SaIS9_EEEElS9_NS0_5__ops14_Iter_comp_valIPFbS9_S9_EEEEvT_T0_SL_T1_RT2_ = comdat any

$_ZN9__gnu_cxx5__ops14_Iter_comp_valIPFbSt4pairIdNSt7__cxx1112basic_stringIcSt11char_traitsIcESaIcEEEES9_EEclINS_17__normal_iteratorIPS9_St6vectorIS9_SaIS9_EEEES9_EEbT_RT0_ = comdat any

$_ZSt22__move_median_to_firstIN9__gnu_cxx17__normal_iteratorIPSt4pairIdNSt7__cxx1112basic_stringIcSt11char_traitsIcESaIcEEEESt6vectorIS9_SaIS9_EEEENS0_5__ops15_Iter_comp_iterIPFbS9_S9_EEEEvT_SK_SK_SK_T0_ = comdat any

$_ZSt16__insertion_sortIN9__gnu_cxx17__normal_iteratorIPSt4pairIdNSt7__cxx1112basic_stringIcSt11char_traitsIcESaIcEEEESt6vectorIS9_SaIS9_EEEENS0_5__ops15_Iter_comp_iterIPFbS9_S9_EEEEvT_SK_T0_ = comdat any

$_ZSt25__unguarded_linear_insertIN9__gnu_cxx17__normal_iteratorIPSt4pairIdNSt7__cxx1112basic_stringIcSt11char_traitsIcESaIcEEEESt6vectorIS9_SaIS9_EEEENS0_5__ops14_Val_comp_iterIPFbS9_S9_EEEEvT_T0_ = comdat any

$_ZN9__gnu_cxx5__ops14_Val_comp_iterIPFbSt4pairIdNSt7__cxx1112basic_stringIcSt11char_traitsIcESaIcEEEES9_EEclIS9_NS_17__normal_iteratorIPS9_St6vectorIS9_SaIS9_EEEEEEbRT_T0_ = comdat any

@_ZStL8__ioinit = internal global %"class.std::ios_base::Init" zeroinitializer, align 1
@__dso_handle = external hidden global i8
@_Z1vB5cxx11 = dso_local global %"class.std::vector" zeroinitializer, align 8
@_ZSt3cin = external global %"class.std::basic_istream", align 8
@_ZSt4cout = external global %"class.std::basic_ostream", align 8
@.str = private unnamed_addr constant [2 x i8] c"#\00", align 1
@.str.3 = private unnamed_addr constant [26 x i8] c"vector::_M_realloc_insert\00", align 1
@llvm.global_ctors = appending global [1 x { i32, void ()*, i8* }] [{ i32, void ()*, i8* } { i32 65535, void ()* @_GLOBAL__sub_I_s136356039.cpp, i8* null }]

declare void @_ZNSt8ios_base4InitC1Ev(%"class.std::ios_base::Init"* nonnull align 1 dereferenceable(1)) unnamed_addr #0

; Function Attrs: nounwind
declare void @_ZNSt8ios_base4InitD1Ev(%"class.std::ios_base::Init"* nonnull align 1 dereferenceable(1)) unnamed_addr #1

; Function Attrs: nofree nounwind
declare i32 @__cxa_atexit(void (i8*)*, i8*, i8*) local_unnamed_addr #2

; Function Attrs: nounwind sspstrong uwtable
define linkonce_odr dso_local void @_ZNSt6vectorISt4pairIdNSt7__cxx1112basic_stringIcSt11char_traitsIcESaIcEEEESaIS7_EED2Ev(%"class.std::vector"* nonnull align 8 dereferenceable(24) %0) unnamed_addr #3 comdat align 2 personality i8* bitcast (i32 (...)* @__gxx_personality_v0 to i8*) {
  %2 = getelementptr inbounds %"class.std::vector", %"class.std::vector"* %0, i64 0, i32 0, i32 0, i32 0, i32 0
  %3 = load %"struct.std::pair"*, %"struct.std::pair"** %2, align 8, !tbaa !5
  %4 = getelementptr inbounds %"class.std::vector", %"class.std::vector"* %0, i64 0, i32 0, i32 0, i32 0, i32 1
  %5 = load %"struct.std::pair"*, %"struct.std::pair"** %4, align 8, !tbaa !10
  %6 = icmp eq %"struct.std::pair"* %3, %5
  br i1 %6, label %20, label %7

7:                                                ; preds = %1, %15
  %8 = phi %"struct.std::pair"* [ %16, %15 ], [ %3, %1 ]
  %9 = getelementptr inbounds %"struct.std::pair", %"struct.std::pair"* %8, i64 0, i32 1, i32 0, i32 0
  %10 = load i8*, i8** %9, align 8, !tbaa !11
  %11 = getelementptr inbounds %"struct.std::pair", %"struct.std::pair"* %8, i64 0, i32 1, i32 2
  %12 = bitcast %union.anon* %11 to i8*
  %13 = icmp eq i8* %10, %12
  br i1 %13, label %15, label %14

14:                                               ; preds = %7
  tail call void @_ZdlPv(i8* %10) #18
  br label %15

15:                                               ; preds = %14, %7
  %16 = getelementptr inbounds %"struct.std::pair", %"struct.std::pair"* %8, i64 1
  %17 = icmp eq %"struct.std::pair"* %16, %5
  br i1 %17, label %18, label %7, !llvm.loop !15

18:                                               ; preds = %15
  %19 = load %"struct.std::pair"*, %"struct.std::pair"** %2, align 8, !tbaa !5
  br label %20

20:                                               ; preds = %18, %1
  %21 = phi %"struct.std::pair"* [ %19, %18 ], [ %3, %1 ]
  %22 = icmp eq %"struct.std::pair"* %21, null
  br i1 %22, label %25, label %23

23:                                               ; preds = %20
  %24 = bitcast %"struct.std::pair"* %21 to i8*
  tail call void @_ZdlPv(i8* nonnull %24) #18
  br label %25

25:                                               ; preds = %20, %23
  ret void
}

; Function Attrs: mustprogress nofree nounwind readonly sspstrong uwtable willreturn
define dso_local zeroext i1 @_Z4compSt4pairIdNSt7__cxx1112basic_stringIcSt11char_traitsIcESaIcEEEES6_(%"struct.std::pair"* nocapture readonly %0, %"struct.std::pair"* nocapture readonly %1) #4 personality i32 (...)* @__gxx_personality_v0 {
  %3 = getelementptr inbounds %"struct.std::pair", %"struct.std::pair"* %0, i64 0, i32 0
  %4 = load double, double* %3, align 8, !tbaa !17
  %5 = getelementptr inbounds %"struct.std::pair", %"struct.std::pair"* %1, i64 0, i32 0
  %6 = load double, double* %5, align 8, !tbaa !17
  %7 = fcmp une double %4, %6
  br i1 %7, label %8, label %10

8:                                                ; preds = %2
  %9 = fcmp ogt double %4, %6
  br label %35

10:                                               ; preds = %2
  %11 = getelementptr inbounds %"struct.std::pair", %"struct.std::pair"* %0, i64 0, i32 1, i32 1
  %12 = load i64, i64* %11, align 8, !tbaa !20
  %13 = getelementptr inbounds %"struct.std::pair", %"struct.std::pair"* %1, i64 0, i32 1, i32 1
  %14 = load i64, i64* %13, align 8, !tbaa !20
  %15 = icmp ugt i64 %12, %14
  %16 = select i1 %15, i64 %14, i64 %12
  %17 = icmp eq i64 %16, 0
  br i1 %17, label %25, label %18

18:                                               ; preds = %10
  %19 = getelementptr inbounds %"struct.std::pair", %"struct.std::pair"* %1, i64 0, i32 1, i32 0, i32 0
  %20 = load i8*, i8** %19, align 8, !tbaa !11
  %21 = getelementptr inbounds %"struct.std::pair", %"struct.std::pair"* %0, i64 0, i32 1, i32 0, i32 0
  %22 = load i8*, i8** %21, align 8, !tbaa !11
  %23 = tail call i32 @memcmp(i8* %22, i8* %20, i64 %16) #18
  %24 = icmp eq i32 %23, 0
  br i1 %24, label %25, label %32

25:                                               ; preds = %18, %10
  %26 = sub i64 %12, %14
  %27 = icmp sgt i64 %26, -2147483648
  %28 = select i1 %27, i64 %26, i64 -2147483648
  %29 = icmp slt i64 %28, 2147483647
  %30 = select i1 %29, i64 %28, i64 2147483647
  %31 = trunc i64 %30 to i32
  br label %32

32:                                               ; preds = %18, %25
  %33 = phi i32 [ %23, %18 ], [ %31, %25 ]
  %34 = icmp slt i32 %33, 0
  br label %35

35:                                               ; preds = %32, %8
  %36 = phi i1 [ %9, %8 ], [ %34, %32 ]
  ret i1 %36
}

; Function Attrs: norecurse sspstrong uwtable
define dso_local i32 @main() local_unnamed_addr #5 personality i8* bitcast (i32 (...)* @__gxx_personality_v0 to i8*) {
  %1 = alloca i64, align 8
  %2 = alloca i32, align 4
  %3 = alloca %"class.std::__cxx11::basic_string", align 8
  %4 = alloca i32, align 4
  %5 = alloca i32, align 4
  %6 = alloca i32, align 4
  %7 = alloca i32, align 4
  %8 = alloca i32, align 4
  %9 = alloca i32, align 4
  %10 = alloca i32, align 4
  %11 = alloca i32, align 4
  %12 = alloca i32, align 4
  %13 = alloca %"struct.std::pair", align 8
  %14 = bitcast i32* %2 to i8*
  %15 = bitcast %"class.std::__cxx11::basic_string"* %3 to i8*
  %16 = getelementptr inbounds %"class.std::__cxx11::basic_string", %"class.std::__cxx11::basic_string"* %3, i64 0, i32 2
  %17 = bitcast %"class.std::__cxx11::basic_string"* %3 to %union.anon**
  %18 = getelementptr inbounds %"class.std::__cxx11::basic_string", %"class.std::__cxx11::basic_string"* %3, i64 0, i32 1
  %19 = bitcast %union.anon* %16 to i8*
  %20 = bitcast i32* %4 to i8*
  %21 = bitcast i32* %5 to i8*
  %22 = bitcast i32* %6 to i8*
  %23 = bitcast i32* %7 to i8*
  %24 = bitcast i32* %8 to i8*
  %25 = bitcast i32* %9 to i8*
  %26 = bitcast i32* %10 to i8*
  %27 = bitcast i32* %11 to i8*
  %28 = bitcast i32* %12 to i8*
  %29 = bitcast %"struct.std::pair"* %13 to i8*
  %30 = getelementptr inbounds %"struct.std::pair", %"struct.std::pair"* %13, i64 0, i32 0
  %31 = getelementptr inbounds %"struct.std::pair", %"struct.std::pair"* %13, i64 0, i32 1
  %32 = getelementptr inbounds %"struct.std::pair", %"struct.std::pair"* %13, i64 0, i32 1, i32 2
  %33 = bitcast %"class.std::__cxx11::basic_string"* %31 to %union.anon**
  %34 = getelementptr inbounds %"class.std::__cxx11::basic_string", %"class.std::__cxx11::basic_string"* %3, i64 0, i32 0, i32 0
  %35 = bitcast i64* %1 to i8*
  %36 = bitcast %union.anon* %32 to i8*
  %37 = getelementptr inbounds %"class.std::__cxx11::basic_string", %"class.std::__cxx11::basic_string"* %31, i64 0, i32 0, i32 0
  %38 = getelementptr inbounds %"struct.std::pair", %"struct.std::pair"* %13, i64 0, i32 1, i32 2, i32 0
  %39 = getelementptr inbounds %"struct.std::pair", %"struct.std::pair"* %13, i64 0, i32 1, i32 1
  %40 = getelementptr inbounds %"struct.std::pair", %"struct.std::pair"* %13, i64 0, i32 1, i32 0, i32 0
  call void @llvm.lifetime.start.p0i8(i64 4, i8* nonnull %14) #18
  %41 = call nonnull align 8 dereferenceable(16) %"class.std::basic_istream"* @_ZNSirsERi(%"class.std::basic_istream"* nonnull align 8 dereferenceable(16) @_ZSt3cin, i32* nonnull align 4 dereferenceable(4) %2)
  %42 = load i32, i32* %2, align 4, !tbaa !21
  %43 = icmp eq i32 %42, 0
  br i1 %43, label %347, label %44

44:                                               ; preds = %0, %302
  %45 = phi i32 [ %304, %302 ], [ %42, %0 ]
  %46 = icmp sgt i32 %45, 0
  br i1 %46, label %71, label %47

47:                                               ; preds = %233, %44
  %48 = load %"struct.std::pair"*, %"struct.std::pair"** getelementptr inbounds (%"class.std::vector", %"class.std::vector"* @_Z1vB5cxx11, i64 0, i32 0, i32 0, i32 0, i32 0), align 8, !tbaa !23
  %49 = load %"struct.std::pair"*, %"struct.std::pair"** getelementptr inbounds (%"class.std::vector", %"class.std::vector"* @_Z1vB5cxx11, i64 0, i32 0, i32 0, i32 0, i32 1), align 8, !tbaa !23
  %50 = icmp eq %"struct.std::pair"* %48, %49
  br i1 %50, label %68, label %51

51:                                               ; preds = %47
  %52 = ptrtoint %"struct.std::pair"* %49 to i64
  %53 = ptrtoint %"struct.std::pair"* %48 to i64
  %54 = sub i64 %52, %53
  %55 = sdiv exact i64 %54, 40
  %56 = call i64 @llvm.ctlz.i64(i64 %55, i1 true) #18, !range !24
  %57 = shl nuw nsw i64 %56, 1
  %58 = xor i64 %57, 126
  call void @_ZSt16__introsort_loopIN9__gnu_cxx17__normal_iteratorIPSt4pairIdNSt7__cxx1112basic_stringIcSt11char_traitsIcESaIcEEEESt6vectorIS9_SaIS9_EEEElNS0_5__ops15_Iter_comp_iterIPFbS9_S9_EEEEvT_SK_T0_T1_(%"struct.std::pair"* %48, %"struct.std::pair"* %49, i64 %58, i1 (%"struct.std::pair"*, %"struct.std::pair"*)* nonnull @_Z4compSt4pairIdNSt7__cxx1112basic_stringIcSt11char_traitsIcESaIcEEEES6_)
  %59 = icmp sgt i64 %54, 640
  br i1 %59, label %60, label %67

60:                                               ; preds = %51
  %61 = getelementptr inbounds %"struct.std::pair", %"struct.std::pair"* %48, i64 16
  call void @_ZSt16__insertion_sortIN9__gnu_cxx17__normal_iteratorIPSt4pairIdNSt7__cxx1112basic_stringIcSt11char_traitsIcESaIcEEEESt6vectorIS9_SaIS9_EEEENS0_5__ops15_Iter_comp_iterIPFbS9_S9_EEEEvT_SK_T0_(%"struct.std::pair"* %48, %"struct.std::pair"* nonnull %61, i1 (%"struct.std::pair"*, %"struct.std::pair"*)* nonnull @_Z4compSt4pairIdNSt7__cxx1112basic_stringIcSt11char_traitsIcESaIcEEEES6_)
  %62 = icmp eq %"struct.std::pair"* %61, %49
  br i1 %62, label %68, label %63

63:                                               ; preds = %60, %63
  %64 = phi %"struct.std::pair"* [ %65, %63 ], [ %61, %60 ]
  call void @_ZSt25__unguarded_linear_insertIN9__gnu_cxx17__normal_iteratorIPSt4pairIdNSt7__cxx1112basic_stringIcSt11char_traitsIcESaIcEEEESt6vectorIS9_SaIS9_EEEENS0_5__ops14_Val_comp_iterIPFbS9_S9_EEEEvT_T0_(%"struct.std::pair"* nonnull %64, i1 (%"struct.std::pair"*, %"struct.std::pair"*)* nonnull @_Z4compSt4pairIdNSt7__cxx1112basic_stringIcSt11char_traitsIcESaIcEEEES6_)
  %65 = getelementptr inbounds %"struct.std::pair", %"struct.std::pair"* %64, i64 1
  %66 = icmp eq %"struct.std::pair"* %65, %49
  br i1 %66, label %68, label %63, !llvm.loop !25

67:                                               ; preds = %51
  call void @_ZSt16__insertion_sortIN9__gnu_cxx17__normal_iteratorIPSt4pairIdNSt7__cxx1112basic_stringIcSt11char_traitsIcESaIcEEEESt6vectorIS9_SaIS9_EEEENS0_5__ops15_Iter_comp_iterIPFbS9_S9_EEEEvT_SK_T0_(%"struct.std::pair"* %48, %"struct.std::pair"* %49, i1 (%"struct.std::pair"*, %"struct.std::pair"*)* nonnull @_Z4compSt4pairIdNSt7__cxx1112basic_stringIcSt11char_traitsIcESaIcEEEES6_)
  br label %68

68:                                               ; preds = %63, %47, %60, %67
  %69 = load i32, i32* %2, align 4, !tbaa !21
  %70 = icmp sgt i32 %69, 0
  br i1 %70, label %306, label %258

71:                                               ; preds = %44, %233
  %72 = phi i32 [ %234, %233 ], [ 0, %44 ]
  call void @llvm.lifetime.start.p0i8(i64 32, i8* nonnull %15) #18
  store %union.anon* %16, %union.anon** %17, align 8, !tbaa !26
  store i64 0, i64* %18, align 8, !tbaa !20
  store i8 0, i8* %19, align 8, !tbaa !27
  call void @llvm.lifetime.start.p0i8(i64 4, i8* nonnull %20) #18
  call void @llvm.lifetime.start.p0i8(i64 4, i8* nonnull %21) #18
  call void @llvm.lifetime.start.p0i8(i64 4, i8* nonnull %22) #18
  call void @llvm.lifetime.start.p0i8(i64 4, i8* nonnull %23) #18
  call void @llvm.lifetime.start.p0i8(i64 4, i8* nonnull %24) #18
  call void @llvm.lifetime.start.p0i8(i64 4, i8* nonnull %25) #18
  call void @llvm.lifetime.start.p0i8(i64 4, i8* nonnull %26) #18
  call void @llvm.lifetime.start.p0i8(i64 4, i8* nonnull %27) #18
  call void @llvm.lifetime.start.p0i8(i64 4, i8* nonnull %28) #18
  %73 = invoke nonnull align 8 dereferenceable(16) %"class.std::basic_istream"* @_ZStrsIcSt11char_traitsIcESaIcEERSt13basic_istreamIT_T0_ES7_RNSt7__cxx1112basic_stringIS4_S5_T1_EE(%"class.std::basic_istream"* nonnull align 8 dereferenceable(16) @_ZSt3cin, %"class.std::__cxx11::basic_string"* nonnull align 8 dereferenceable(32) %3)
          to label %74 unwind label %237

74:                                               ; preds = %71
  %75 = invoke nonnull align 8 dereferenceable(16) %"class.std::basic_istream"* @_ZNSirsERi(%"class.std::basic_istream"* nonnull align 8 dereferenceable(16) %73, i32* nonnull align 4 dereferenceable(4) %12)
          to label %76 unwind label %237

76:                                               ; preds = %74
  %77 = invoke nonnull align 8 dereferenceable(16) %"class.std::basic_istream"* @_ZNSirsERi(%"class.std::basic_istream"* nonnull align 8 dereferenceable(16) %75, i32* nonnull align 4 dereferenceable(4) %4)
          to label %78 unwind label %237

78:                                               ; preds = %76
  %79 = invoke nonnull align 8 dereferenceable(16) %"class.std::basic_istream"* @_ZNSirsERi(%"class.std::basic_istream"* nonnull align 8 dereferenceable(16) %77, i32* nonnull align 4 dereferenceable(4) %5)
          to label %80 unwind label %237

80:                                               ; preds = %78
  %81 = invoke nonnull align 8 dereferenceable(16) %"class.std::basic_istream"* @_ZNSirsERi(%"class.std::basic_istream"* nonnull align 8 dereferenceable(16) %79, i32* nonnull align 4 dereferenceable(4) %6)
          to label %82 unwind label %237

82:                                               ; preds = %80
  %83 = invoke nonnull align 8 dereferenceable(16) %"class.std::basic_istream"* @_ZNSirsERi(%"class.std::basic_istream"* nonnull align 8 dereferenceable(16) %81, i32* nonnull align 4 dereferenceable(4) %7)
          to label %84 unwind label %237

84:                                               ; preds = %82
  %85 = invoke nonnull align 8 dereferenceable(16) %"class.std::basic_istream"* @_ZNSirsERi(%"class.std::basic_istream"* nonnull align 8 dereferenceable(16) %83, i32* nonnull align 4 dereferenceable(4) %8)
          to label %86 unwind label %237

86:                                               ; preds = %84
  %87 = invoke nonnull align 8 dereferenceable(16) %"class.std::basic_istream"* @_ZNSirsERi(%"class.std::basic_istream"* nonnull align 8 dereferenceable(16) %85, i32* nonnull align 4 dereferenceable(4) %9)
          to label %88 unwind label %237

88:                                               ; preds = %86
  %89 = invoke nonnull align 8 dereferenceable(16) %"class.std::basic_istream"* @_ZNSirsERi(%"class.std::basic_istream"* nonnull align 8 dereferenceable(16) %87, i32* nonnull align 4 dereferenceable(4) %10)
          to label %90 unwind label %237

90:                                               ; preds = %88
  %91 = invoke nonnull align 8 dereferenceable(16) %"class.std::basic_istream"* @_ZNSirsERi(%"class.std::basic_istream"* nonnull align 8 dereferenceable(16) %89, i32* nonnull align 4 dereferenceable(4) %11)
          to label %92 unwind label %237

92:                                               ; preds = %90
  %93 = load i32, i32* %4, align 4, !tbaa !21
  %94 = load i32, i32* %5, align 4, !tbaa !21
  %95 = add nsw i32 %94, %93
  %96 = load i32, i32* %6, align 4, !tbaa !21
  %97 = add nsw i32 %95, %96
  %98 = load i32, i32* %11, align 4, !tbaa !21
  %99 = load i32, i32* %7, align 4, !tbaa !21
  %100 = load i32, i32* %8, align 4, !tbaa !21
  %101 = add nsw i32 %100, %99
  %102 = mul nsw i32 %101, %98
  %103 = add nsw i32 %97, %102
  %104 = sitofp i32 %103 to double
  %105 = load i32, i32* %9, align 4, !tbaa !21
  %106 = mul nsw i32 %105, %98
  %107 = load i32, i32* %10, align 4, !tbaa !21
  %108 = mul nsw i32 %106, %107
  %109 = load i32, i32* %12, align 4, !tbaa !21
  %110 = sub nsw i32 %108, %109
  %111 = sitofp i32 %110 to double
  %112 = fdiv double %111, %104
  call void @llvm.lifetime.start.p0i8(i64 40, i8* nonnull %29) #18
  call void @llvm.experimental.noalias.scope.decl(metadata !28)
  store double %112, double* %30, align 8, !tbaa !17, !alias.scope !28
  store %union.anon* %32, %union.anon** %33, align 8, !tbaa !26, !alias.scope !28
  %113 = load i8*, i8** %34, align 8, !tbaa !11, !noalias !28
  %114 = load i64, i64* %18, align 8, !tbaa !20, !noalias !28
  call void @llvm.lifetime.start.p0i8(i64 8, i8* nonnull %35) #18, !noalias !28
  store i64 %114, i64* %1, align 8, !tbaa !31, !noalias !28
  %115 = icmp ugt i64 %114, 15
  br i1 %115, label %116, label %120

116:                                              ; preds = %92
  %117 = invoke i8* @_ZNSt7__cxx1112basic_stringIcSt11char_traitsIcESaIcEE9_M_createERmm(%"class.std::__cxx11::basic_string"* nonnull align 8 dereferenceable(32) %31, i64* nonnull align 8 dereferenceable(8) %1, i64 0)
          to label %118 unwind label %239

118:                                              ; preds = %116
  store i8* %117, i8** %37, align 8, !tbaa !11, !alias.scope !28
  %119 = load i64, i64* %1, align 8, !tbaa !31, !noalias !28
  store i64 %119, i64* %38, align 8, !tbaa !27, !alias.scope !28
  br label %120

120:                                              ; preds = %92, %118
  %121 = phi i8* [ %117, %118 ], [ %36, %92 ]
  switch i64 %114, label %124 [
    i64 1, label %122
    i64 0, label %125
  ]

122:                                              ; preds = %120
  %123 = load i8, i8* %113, align 1, !tbaa !27
  store i8 %123, i8* %121, align 1, !tbaa !27
  br label %125

124:                                              ; preds = %120
  call void @llvm.memcpy.p0i8.p0i8.i64(i8* align 1 %121, i8* align 1 %113, i64 %114, i1 false) #18
  br label %125

125:                                              ; preds = %124, %122, %120
  %126 = load i64, i64* %1, align 8, !tbaa !31, !noalias !28
  store i64 %126, i64* %39, align 8, !tbaa !20, !alias.scope !28
  %127 = load i8*, i8** %37, align 8, !tbaa !11, !alias.scope !28
  %128 = getelementptr inbounds i8, i8* %127, i64 %126
  store i8 0, i8* %128, align 1, !tbaa !27
  call void @llvm.lifetime.end.p0i8(i64 8, i8* nonnull %35) #18, !noalias !28
  %129 = load %"struct.std::pair"*, %"struct.std::pair"** getelementptr inbounds (%"class.std::vector", %"class.std::vector"* @_Z1vB5cxx11, i64 0, i32 0, i32 0, i32 0, i32 1), align 8, !tbaa !10
  %130 = load %"struct.std::pair"*, %"struct.std::pair"** getelementptr inbounds (%"class.std::vector", %"class.std::vector"* @_Z1vB5cxx11, i64 0, i32 0, i32 0, i32 0, i32 2), align 8, !tbaa !32
  %131 = icmp eq %"struct.std::pair"* %129, %130
  br i1 %131, label %150, label %132

132:                                              ; preds = %125
  %133 = getelementptr inbounds %"struct.std::pair", %"struct.std::pair"* %129, i64 0, i32 0
  %134 = load double, double* %30, align 8, !tbaa !17
  store double %134, double* %133, align 8, !tbaa !17
  %135 = getelementptr inbounds %"struct.std::pair", %"struct.std::pair"* %129, i64 0, i32 1
  %136 = getelementptr inbounds %"struct.std::pair", %"struct.std::pair"* %129, i64 0, i32 1, i32 2
  %137 = bitcast %"class.std::__cxx11::basic_string"* %135 to %union.anon**
  store %union.anon* %136, %union.anon** %137, align 8, !tbaa !26
  %138 = load i8*, i8** %37, align 8, !tbaa !11
  %139 = icmp eq i8* %138, %36
  br i1 %139, label %140, label %142

140:                                              ; preds = %132
  %141 = bitcast %union.anon* %136 to i8*
  call void @llvm.memcpy.p0i8.p0i8.i64(i8* noundef nonnull align 8 dereferenceable(16) %141, i8* noundef nonnull align 8 dereferenceable(16) %36, i64 16, i1 false) #18
  br label %146

142:                                              ; preds = %132
  %143 = getelementptr inbounds %"class.std::__cxx11::basic_string", %"class.std::__cxx11::basic_string"* %135, i64 0, i32 0, i32 0
  store i8* %138, i8** %143, align 8, !tbaa !11
  %144 = load i64, i64* %38, align 8, !tbaa !27
  %145 = getelementptr inbounds %"struct.std::pair", %"struct.std::pair"* %129, i64 0, i32 1, i32 2, i32 0
  store i64 %144, i64* %145, align 8, !tbaa !27
  br label %146

146:                                              ; preds = %140, %142
  %147 = load i64, i64* %39, align 8, !tbaa !20
  %148 = getelementptr inbounds %"struct.std::pair", %"struct.std::pair"* %129, i64 0, i32 1, i32 1
  store i64 %147, i64* %148, align 8, !tbaa !20
  store %union.anon* %32, %union.anon** %33, align 8, !tbaa !11
  %149 = getelementptr inbounds %"struct.std::pair", %"struct.std::pair"* %129, i64 1
  store %"struct.std::pair"* %149, %"struct.std::pair"** getelementptr inbounds (%"class.std::vector", %"class.std::vector"* @_Z1vB5cxx11, i64 0, i32 0, i32 0, i32 0, i32 1), align 8, !tbaa !10
  br label %229

150:                                              ; preds = %125
  %151 = load %"struct.std::pair"*, %"struct.std::pair"** getelementptr inbounds (%"class.std::vector", %"class.std::vector"* @_Z1vB5cxx11, i64 0, i32 0, i32 0, i32 0, i32 0), align 8, !tbaa !5
  %152 = ptrtoint %"struct.std::pair"* %129 to i64
  %153 = ptrtoint %"struct.std::pair"* %151 to i64
  %154 = sub i64 %152, %153
  %155 = sdiv exact i64 %154, 40
  %156 = icmp eq i64 %154, 9223372036854775800
  br i1 %156, label %157, label %159

157:                                              ; preds = %150
  invoke void @_ZSt20__throw_length_errorPKc(i8* getelementptr inbounds ([26 x i8], [26 x i8]* @.str.3, i64 0, i64 0)) #19
          to label %158 unwind label %243

158:                                              ; preds = %157
  unreachable

159:                                              ; preds = %150
  %160 = icmp eq i64 %154, 0
  %161 = select i1 %160, i64 1, i64 %155
  %162 = add nsw i64 %161, %155
  %163 = icmp ult i64 %162, %155
  %164 = icmp ugt i64 %162, 230584300921369395
  %165 = or i1 %163, %164
  %166 = select i1 %165, i64 230584300921369395, i64 %162
  %167 = mul nuw nsw i64 %166, 40
  %168 = invoke noalias nonnull i8* @_Znwm(i64 %167) #20
          to label %169 unwind label %241

169:                                              ; preds = %159
  %170 = bitcast i8* %168 to %"struct.std::pair"*
  %171 = getelementptr inbounds %"struct.std::pair", %"struct.std::pair"* %170, i64 %155, i32 0
  %172 = load double, double* %30, align 8, !tbaa !17
  store double %172, double* %171, align 8, !tbaa !17
  %173 = getelementptr inbounds %"struct.std::pair", %"struct.std::pair"* %170, i64 %155, i32 1
  %174 = getelementptr inbounds %"struct.std::pair", %"struct.std::pair"* %170, i64 %155, i32 1, i32 2
  %175 = bitcast %"class.std::__cxx11::basic_string"* %173 to %union.anon**
  store %union.anon* %174, %union.anon** %175, align 8, !tbaa !26
  %176 = load i8*, i8** %37, align 8, !tbaa !11
  %177 = icmp eq i8* %176, %36
  br i1 %177, label %178, label %180

178:                                              ; preds = %169
  %179 = bitcast %union.anon* %174 to i8*
  call void @llvm.memcpy.p0i8.p0i8.i64(i8* noundef nonnull align 8 dereferenceable(16) %179, i8* noundef nonnull align 8 dereferenceable(16) %36, i64 16, i1 false) #18
  br label %184

180:                                              ; preds = %169
  %181 = getelementptr inbounds %"class.std::__cxx11::basic_string", %"class.std::__cxx11::basic_string"* %173, i64 0, i32 0, i32 0
  store i8* %176, i8** %181, align 8, !tbaa !11
  %182 = load i64, i64* %38, align 8, !tbaa !27
  %183 = getelementptr inbounds %"struct.std::pair", %"struct.std::pair"* %170, i64 %155, i32 1, i32 2, i32 0
  store i64 %182, i64* %183, align 8, !tbaa !27
  br label %184

184:                                              ; preds = %180, %178
  %185 = load i64, i64* %39, align 8, !tbaa !20
  %186 = getelementptr inbounds %"struct.std::pair", %"struct.std::pair"* %170, i64 %155, i32 1, i32 1
  store i64 %185, i64* %186, align 8, !tbaa !20
  store %union.anon* %32, %union.anon** %33, align 8, !tbaa !11
  store i64 0, i64* %39, align 8, !tbaa !20
  store i8 0, i8* %36, align 8, !tbaa !27
  %187 = icmp eq %"struct.std::pair"* %151, %129
  br i1 %187, label %218, label %188

188:                                              ; preds = %184, %210
  %189 = phi %"struct.std::pair"* [ %216, %210 ], [ %170, %184 ]
  %190 = phi %"struct.std::pair"* [ %215, %210 ], [ %151, %184 ]
  call void @llvm.experimental.noalias.scope.decl(metadata !33) #18
  call void @llvm.experimental.noalias.scope.decl(metadata !36) #18
  %191 = getelementptr inbounds %"struct.std::pair", %"struct.std::pair"* %189, i64 0, i32 0
  %192 = getelementptr inbounds %"struct.std::pair", %"struct.std::pair"* %190, i64 0, i32 0
  %193 = load double, double* %192, align 8, !tbaa !17, !alias.scope !36, !noalias !33
  store double %193, double* %191, align 8, !tbaa !17, !alias.scope !33, !noalias !36
  %194 = getelementptr inbounds %"struct.std::pair", %"struct.std::pair"* %189, i64 0, i32 1
  %195 = getelementptr inbounds %"struct.std::pair", %"struct.std::pair"* %190, i64 0, i32 1
  %196 = getelementptr inbounds %"struct.std::pair", %"struct.std::pair"* %189, i64 0, i32 1, i32 2
  %197 = bitcast %"class.std::__cxx11::basic_string"* %194 to %union.anon**
  store %union.anon* %196, %union.anon** %197, align 8, !tbaa !26, !alias.scope !33, !noalias !36
  %198 = getelementptr inbounds %"class.std::__cxx11::basic_string", %"class.std::__cxx11::basic_string"* %195, i64 0, i32 0, i32 0
  %199 = load i8*, i8** %198, align 8, !tbaa !11, !alias.scope !36, !noalias !33
  %200 = getelementptr inbounds %"struct.std::pair", %"struct.std::pair"* %190, i64 0, i32 1, i32 2
  %201 = bitcast %union.anon* %200 to i8*
  %202 = icmp eq i8* %199, %201
  br i1 %202, label %203, label %205

203:                                              ; preds = %188
  %204 = bitcast %union.anon* %196 to i8*
  call void @llvm.memcpy.p0i8.p0i8.i64(i8* noundef nonnull align 8 dereferenceable(16) %204, i8* noundef nonnull align 8 dereferenceable(16) %199, i64 16, i1 false) #18
  br label %210

205:                                              ; preds = %188
  %206 = getelementptr inbounds %"class.std::__cxx11::basic_string", %"class.std::__cxx11::basic_string"* %194, i64 0, i32 0, i32 0
  store i8* %199, i8** %206, align 8, !tbaa !11, !alias.scope !33, !noalias !36
  %207 = getelementptr inbounds %"struct.std::pair", %"struct.std::pair"* %190, i64 0, i32 1, i32 2, i32 0
  %208 = load i64, i64* %207, align 8, !tbaa !27, !alias.scope !36, !noalias !33
  %209 = getelementptr inbounds %"struct.std::pair", %"struct.std::pair"* %189, i64 0, i32 1, i32 2, i32 0
  store i64 %208, i64* %209, align 8, !tbaa !27, !alias.scope !33, !noalias !36
  br label %210

210:                                              ; preds = %205, %203
  %211 = getelementptr inbounds %"struct.std::pair", %"struct.std::pair"* %190, i64 0, i32 1, i32 1
  %212 = load i64, i64* %211, align 8, !tbaa !20, !alias.scope !36, !noalias !33
  %213 = getelementptr inbounds %"struct.std::pair", %"struct.std::pair"* %189, i64 0, i32 1, i32 1
  store i64 %212, i64* %213, align 8, !tbaa !20, !alias.scope !33, !noalias !36
  %214 = bitcast %"class.std::__cxx11::basic_string"* %195 to %union.anon**
  store %union.anon* %200, %union.anon** %214, align 8, !tbaa !11, !alias.scope !36, !noalias !33
  store i64 0, i64* %211, align 8, !tbaa !20, !alias.scope !36, !noalias !33
  store i8 0, i8* %201, align 8, !tbaa !27, !alias.scope !36, !noalias !33
  %215 = getelementptr inbounds %"struct.std::pair", %"struct.std::pair"* %190, i64 1
  %216 = getelementptr inbounds %"struct.std::pair", %"struct.std::pair"* %189, i64 1
  %217 = icmp eq %"struct.std::pair"* %215, %129
  br i1 %217, label %218, label %188, !llvm.loop !38

218:                                              ; preds = %210, %184
  %219 = phi %"struct.std::pair"* [ %170, %184 ], [ %216, %210 ]
  %220 = getelementptr inbounds %"struct.std::pair", %"struct.std::pair"* %219, i64 1
  %221 = icmp eq %"struct.std::pair"* %151, null
  br i1 %221, label %224, label %222

222:                                              ; preds = %218
  %223 = bitcast %"struct.std::pair"* %151 to i8*
  call void @_ZdlPv(i8* nonnull %223) #18
  br label %224

224:                                              ; preds = %218, %222
  store i8* %168, i8** bitcast (%"class.std::vector"* @_Z1vB5cxx11 to i8**), align 8, !tbaa !5
  store %"struct.std::pair"* %220, %"struct.std::pair"** getelementptr inbounds (%"class.std::vector", %"class.std::vector"* @_Z1vB5cxx11, i64 0, i32 0, i32 0, i32 0, i32 1), align 8, !tbaa !10
  %225 = getelementptr inbounds %"struct.std::pair", %"struct.std::pair"* %170, i64 %166
  store %"struct.std::pair"* %225, %"struct.std::pair"** getelementptr inbounds (%"class.std::vector", %"class.std::vector"* @_Z1vB5cxx11, i64 0, i32 0, i32 0, i32 0, i32 2), align 8, !tbaa !32
  %226 = load i8*, i8** %40, align 8, !tbaa !11
  %227 = icmp eq i8* %226, %36
  br i1 %227, label %229, label %228

228:                                              ; preds = %224
  call void @_ZdlPv(i8* %226) #18
  br label %229

229:                                              ; preds = %146, %224, %228
  call void @llvm.lifetime.end.p0i8(i64 40, i8* nonnull %29) #18
  call void @llvm.lifetime.end.p0i8(i64 4, i8* nonnull %28) #18
  call void @llvm.lifetime.end.p0i8(i64 4, i8* nonnull %27) #18
  call void @llvm.lifetime.end.p0i8(i64 4, i8* nonnull %26) #18
  call void @llvm.lifetime.end.p0i8(i64 4, i8* nonnull %25) #18
  call void @llvm.lifetime.end.p0i8(i64 4, i8* nonnull %24) #18
  call void @llvm.lifetime.end.p0i8(i64 4, i8* nonnull %23) #18
  call void @llvm.lifetime.end.p0i8(i64 4, i8* nonnull %22) #18
  call void @llvm.lifetime.end.p0i8(i64 4, i8* nonnull %21) #18
  call void @llvm.lifetime.end.p0i8(i64 4, i8* nonnull %20) #18
  %230 = load i8*, i8** %34, align 8, !tbaa !11
  %231 = icmp eq i8* %230, %19
  br i1 %231, label %233, label %232

232:                                              ; preds = %229
  call void @_ZdlPv(i8* %230) #18
  br label %233

233:                                              ; preds = %229, %232
  call void @llvm.lifetime.end.p0i8(i64 32, i8* nonnull %15) #18
  %234 = add nuw nsw i32 %72, 1
  %235 = load i32, i32* %2, align 4, !tbaa !21
  %236 = icmp slt i32 %234, %235
  br i1 %236, label %71, label %47, !llvm.loop !39

237:                                              ; preds = %90, %88, %86, %84, %82, %80, %78, %76, %74, %71
  %238 = landingpad { i8*, i32 }
          cleanup
  br label %252

239:                                              ; preds = %116
  %240 = landingpad { i8*, i32 }
          cleanup
  br label %250

241:                                              ; preds = %159
  %242 = landingpad { i8*, i32 }
          cleanup
  br label %245

243:                                              ; preds = %157
  %244 = landingpad { i8*, i32 }
          cleanup
  br label %245

245:                                              ; preds = %243, %241
  %246 = phi { i8*, i32 } [ %242, %241 ], [ %244, %243 ]
  %247 = load i8*, i8** %40, align 8, !tbaa !11
  %248 = icmp eq i8* %247, %36
  br i1 %248, label %250, label %249

249:                                              ; preds = %245
  call void @_ZdlPv(i8* %247) #18
  br label %250

250:                                              ; preds = %249, %245, %239
  %251 = phi { i8*, i32 } [ %240, %239 ], [ %246, %245 ], [ %246, %249 ]
  call void @llvm.lifetime.end.p0i8(i64 40, i8* nonnull %29) #18
  br label %252

252:                                              ; preds = %250, %237
  %253 = phi { i8*, i32 } [ %251, %250 ], [ %238, %237 ]
  call void @llvm.lifetime.end.p0i8(i64 4, i8* nonnull %28) #18
  call void @llvm.lifetime.end.p0i8(i64 4, i8* nonnull %27) #18
  call void @llvm.lifetime.end.p0i8(i64 4, i8* nonnull %26) #18
  call void @llvm.lifetime.end.p0i8(i64 4, i8* nonnull %25) #18
  call void @llvm.lifetime.end.p0i8(i64 4, i8* nonnull %24) #18
  call void @llvm.lifetime.end.p0i8(i64 4, i8* nonnull %23) #18
  call void @llvm.lifetime.end.p0i8(i64 4, i8* nonnull %22) #18
  call void @llvm.lifetime.end.p0i8(i64 4, i8* nonnull %21) #18
  call void @llvm.lifetime.end.p0i8(i64 4, i8* nonnull %20) #18
  %254 = load i8*, i8** %34, align 8, !tbaa !11
  %255 = icmp eq i8* %254, %19
  br i1 %255, label %257, label %256

256:                                              ; preds = %252
  call void @_ZdlPv(i8* %254) #18
  br label %257

257:                                              ; preds = %252, %256
  call void @llvm.lifetime.end.p0i8(i64 32, i8* nonnull %15) #18
  call void @llvm.lifetime.end.p0i8(i64 4, i8* nonnull %14) #18
  resume { i8*, i32 } %253

258:                                              ; preds = %339, %68
  %259 = call nonnull align 8 dereferenceable(8) %"class.std::basic_ostream"* @_ZSt16__ostream_insertIcSt11char_traitsIcEERSt13basic_ostreamIT_T0_ES6_PKS3_l(%"class.std::basic_ostream"* nonnull align 8 dereferenceable(8) @_ZSt4cout, i8* nonnull getelementptr inbounds ([2 x i8], [2 x i8]* @.str, i64 0, i64 0), i64 1)
  %260 = load i8*, i8** bitcast (%"class.std::basic_ostream"* @_ZSt4cout to i8**), align 8, !tbaa !40
  %261 = getelementptr i8, i8* %260, i64 -24
  %262 = bitcast i8* %261 to i64*
  %263 = load i64, i64* %262, align 8
  %264 = add nsw i64 %263, 240
  %265 = getelementptr inbounds i8, i8* bitcast (%"class.std::basic_ostream"* @_ZSt4cout to i8*), i64 %264
  %266 = bitcast i8* %265 to %"class.std::ctype"**
  %267 = load %"class.std::ctype"*, %"class.std::ctype"** %266, align 8, !tbaa !42
  %268 = icmp eq %"class.std::ctype"* %267, null
  br i1 %268, label %269, label %270

269:                                              ; preds = %258
  call void @_ZSt16__throw_bad_castv() #19
  unreachable

270:                                              ; preds = %258
  %271 = getelementptr inbounds %"class.std::ctype", %"class.std::ctype"* %267, i64 0, i32 8
  %272 = load i8, i8* %271, align 8, !tbaa !45
  %273 = icmp eq i8 %272, 0
  br i1 %273, label %277, label %274

274:                                              ; preds = %270
  %275 = getelementptr inbounds %"class.std::ctype", %"class.std::ctype"* %267, i64 0, i32 9, i64 10
  %276 = load i8, i8* %275, align 1, !tbaa !27
  br label %283

277:                                              ; preds = %270
  call void @_ZNKSt5ctypeIcE13_M_widen_initEv(%"class.std::ctype"* nonnull align 8 dereferenceable(570) %267)
  %278 = bitcast %"class.std::ctype"* %267 to i8 (%"class.std::ctype"*, i8)***
  %279 = load i8 (%"class.std::ctype"*, i8)**, i8 (%"class.std::ctype"*, i8)*** %278, align 8, !tbaa !40
  %280 = getelementptr inbounds i8 (%"class.std::ctype"*, i8)*, i8 (%"class.std::ctype"*, i8)** %279, i64 6
  %281 = load i8 (%"class.std::ctype"*, i8)*, i8 (%"class.std::ctype"*, i8)** %280, align 8
  %282 = call signext i8 %281(%"class.std::ctype"* nonnull align 8 dereferenceable(570) %267, i8 signext 10)
  br label %283

283:                                              ; preds = %274, %277
  %284 = phi i8 [ %276, %274 ], [ %282, %277 ]
  %285 = call nonnull align 8 dereferenceable(8) %"class.std::basic_ostream"* @_ZNSo3putEc(%"class.std::basic_ostream"* nonnull align 8 dereferenceable(8) @_ZSt4cout, i8 signext %284)
  %286 = call nonnull align 8 dereferenceable(8) %"class.std::basic_ostream"* @_ZNSo5flushEv(%"class.std::basic_ostream"* nonnull align 8 dereferenceable(8) %285)
  %287 = load %"struct.std::pair"*, %"struct.std::pair"** getelementptr inbounds (%"class.std::vector", %"class.std::vector"* @_Z1vB5cxx11, i64 0, i32 0, i32 0, i32 0, i32 0), align 8, !tbaa !5
  %288 = load %"struct.std::pair"*, %"struct.std::pair"** getelementptr inbounds (%"class.std::vector", %"class.std::vector"* @_Z1vB5cxx11, i64 0, i32 0, i32 0, i32 0, i32 1), align 8, !tbaa !10
  %289 = icmp eq %"struct.std::pair"* %288, %287
  br i1 %289, label %302, label %290

290:                                              ; preds = %283, %298
  %291 = phi %"struct.std::pair"* [ %299, %298 ], [ %287, %283 ]
  %292 = getelementptr inbounds %"struct.std::pair", %"struct.std::pair"* %291, i64 0, i32 1, i32 0, i32 0
  %293 = load i8*, i8** %292, align 8, !tbaa !11
  %294 = getelementptr inbounds %"struct.std::pair", %"struct.std::pair"* %291, i64 0, i32 1, i32 2
  %295 = bitcast %union.anon* %294 to i8*
  %296 = icmp eq i8* %293, %295
  br i1 %296, label %298, label %297

297:                                              ; preds = %290
  call void @_ZdlPv(i8* %293) #18
  br label %298

298:                                              ; preds = %297, %290
  %299 = getelementptr inbounds %"struct.std::pair", %"struct.std::pair"* %291, i64 1
  %300 = icmp eq %"struct.std::pair"* %299, %288
  br i1 %300, label %301, label %290, !llvm.loop !15

301:                                              ; preds = %298
  store %"struct.std::pair"* %287, %"struct.std::pair"** getelementptr inbounds (%"class.std::vector", %"class.std::vector"* @_Z1vB5cxx11, i64 0, i32 0, i32 0, i32 0, i32 1), align 8, !tbaa !10
  br label %302

302:                                              ; preds = %283, %301
  call void @llvm.lifetime.end.p0i8(i64 4, i8* nonnull %14) #18
  call void @llvm.lifetime.start.p0i8(i64 4, i8* nonnull %14) #18
  %303 = call nonnull align 8 dereferenceable(16) %"class.std::basic_istream"* @_ZNSirsERi(%"class.std::basic_istream"* nonnull align 8 dereferenceable(16) @_ZSt3cin, i32* nonnull align 4 dereferenceable(4) %2)
  %304 = load i32, i32* %2, align 4, !tbaa !21
  %305 = icmp eq i32 %304, 0
  br i1 %305, label %347, label %44, !llvm.loop !47

306:                                              ; preds = %68, %339
  %307 = phi i64 [ %343, %339 ], [ 0, %68 ]
  %308 = load %"struct.std::pair"*, %"struct.std::pair"** getelementptr inbounds (%"class.std::vector", %"class.std::vector"* @_Z1vB5cxx11, i64 0, i32 0, i32 0, i32 0, i32 0), align 8, !tbaa !5
  %309 = getelementptr inbounds %"struct.std::pair", %"struct.std::pair"* %308, i64 %307, i32 1, i32 0, i32 0
  %310 = load i8*, i8** %309, align 8, !tbaa !11
  %311 = getelementptr inbounds %"struct.std::pair", %"struct.std::pair"* %308, i64 %307, i32 1, i32 1
  %312 = load i64, i64* %311, align 8, !tbaa !20
  %313 = call nonnull align 8 dereferenceable(8) %"class.std::basic_ostream"* @_ZSt16__ostream_insertIcSt11char_traitsIcEERSt13basic_ostreamIT_T0_ES6_PKS3_l(%"class.std::basic_ostream"* nonnull align 8 dereferenceable(8) @_ZSt4cout, i8* %310, i64 %312)
  %314 = bitcast %"class.std::basic_ostream"* %313 to i8**
  %315 = load i8*, i8** %314, align 8, !tbaa !40
  %316 = getelementptr i8, i8* %315, i64 -24
  %317 = bitcast i8* %316 to i64*
  %318 = load i64, i64* %317, align 8
  %319 = bitcast %"class.std::basic_ostream"* %313 to i8*
  %320 = add nsw i64 %318, 240
  %321 = getelementptr inbounds i8, i8* %319, i64 %320
  %322 = bitcast i8* %321 to %"class.std::ctype"**
  %323 = load %"class.std::ctype"*, %"class.std::ctype"** %322, align 8, !tbaa !42
  %324 = icmp eq %"class.std::ctype"* %323, null
  br i1 %324, label %325, label %326

325:                                              ; preds = %306
  call void @_ZSt16__throw_bad_castv() #19
  unreachable

326:                                              ; preds = %306
  %327 = getelementptr inbounds %"class.std::ctype", %"class.std::ctype"* %323, i64 0, i32 8
  %328 = load i8, i8* %327, align 8, !tbaa !45
  %329 = icmp eq i8 %328, 0
  br i1 %329, label %333, label %330

330:                                              ; preds = %326
  %331 = getelementptr inbounds %"class.std::ctype", %"class.std::ctype"* %323, i64 0, i32 9, i64 10
  %332 = load i8, i8* %331, align 1, !tbaa !27
  br label %339

333:                                              ; preds = %326
  call void @_ZNKSt5ctypeIcE13_M_widen_initEv(%"class.std::ctype"* nonnull align 8 dereferenceable(570) %323)
  %334 = bitcast %"class.std::ctype"* %323 to i8 (%"class.std::ctype"*, i8)***
  %335 = load i8 (%"class.std::ctype"*, i8)**, i8 (%"class.std::ctype"*, i8)*** %334, align 8, !tbaa !40
  %336 = getelementptr inbounds i8 (%"class.std::ctype"*, i8)*, i8 (%"class.std::ctype"*, i8)** %335, i64 6
  %337 = load i8 (%"class.std::ctype"*, i8)*, i8 (%"class.std::ctype"*, i8)** %336, align 8
  %338 = call signext i8 %337(%"class.std::ctype"* nonnull align 8 dereferenceable(570) %323, i8 signext 10)
  br label %339

339:                                              ; preds = %330, %333
  %340 = phi i8 [ %332, %330 ], [ %338, %333 ]
  %341 = call nonnull align 8 dereferenceable(8) %"class.std::basic_ostream"* @_ZNSo3putEc(%"class.std::basic_ostream"* nonnull align 8 dereferenceable(8) %313, i8 signext %340)
  %342 = call nonnull align 8 dereferenceable(8) %"class.std::basic_ostream"* @_ZNSo5flushEv(%"class.std::basic_ostream"* nonnull align 8 dereferenceable(8) %341)
  %343 = add nuw nsw i64 %307, 1
  %344 = load i32, i32* %2, align 4, !tbaa !21
  %345 = sext i32 %344 to i64
  %346 = icmp slt i64 %343, %345
  br i1 %346, label %306, label %258, !llvm.loop !48

347:                                              ; preds = %302, %0
  call void @llvm.lifetime.end.p0i8(i64 4, i8* nonnull %14) #18
  ret i32 0
}

; Function Attrs: argmemonly mustprogress nofree nosync nounwind willreturn
declare void @llvm.lifetime.start.p0i8(i64 immarg, i8* nocapture) #6

declare nonnull align 8 dereferenceable(16) %"class.std::basic_istream"* @_ZNSirsERi(%"class.std::basic_istream"* nonnull align 8 dereferenceable(16), i32* nonnull align 4 dereferenceable(4)) local_unnamed_addr #0

declare nonnull align 8 dereferenceable(16) %"class.std::basic_istream"* @_ZStrsIcSt11char_traitsIcESaIcEERSt13basic_istreamIT_T0_ES7_RNSt7__cxx1112basic_stringIS4_S5_T1_EE(%"class.std::basic_istream"* nonnull align 8 dereferenceable(16), %"class.std::__cxx11::basic_string"* nonnull align 8 dereferenceable(32)) local_unnamed_addr #0

declare i32 @__gxx_personality_v0(...)

; Function Attrs: argmemonly mustprogress nofree nosync nounwind willreturn
declare void @llvm.lifetime.end.p0i8(i64 immarg, i8* nocapture) #6

declare i8* @_ZNSt7__cxx1112basic_stringIcSt11char_traitsIcESaIcEE9_M_createERmm(%"class.std::__cxx11::basic_string"* nonnull align 8 dereferenceable(32), i64* nonnull align 8 dereferenceable(8), i64) local_unnamed_addr #0

; Function Attrs: argmemonly mustprogress nofree nounwind willreturn
declare void @llvm.memcpy.p0i8.p0i8.i64(i8* noalias nocapture writeonly, i8* noalias nocapture readonly, i64, i1 immarg) #7

; Function Attrs: nobuiltin nounwind
declare void @_ZdlPv(i8*) local_unnamed_addr #8

; Function Attrs: argmemonly mustprogress nofree nounwind readonly willreturn
declare i32 @memcmp(i8* nocapture, i8* nocapture, i64) local_unnamed_addr #9

; Function Attrs: noreturn
declare void @_ZSt20__throw_length_errorPKc(i8*) local_unnamed_addr #10

; Function Attrs: nobuiltin allocsize(0)
declare nonnull i8* @_Znwm(i64) local_unnamed_addr #11

; Function Attrs: sspstrong uwtable
define linkonce_odr dso_local void @_ZSt16__introsort_loopIN9__gnu_cxx17__normal_iteratorIPSt4pairIdNSt7__cxx1112basic_stringIcSt11char_traitsIcESaIcEEEESt6vectorIS9_SaIS9_EEEElNS0_5__ops15_Iter_comp_iterIPFbS9_S9_EEEEvT_SK_T0_T1_(%"struct.std::pair"* %0, %"struct.std::pair"* %1, i64 %2, i1 (%"struct.std::pair"*, %"struct.std::pair"*)* %3) local_unnamed_addr #12 comdat {
  %5 = alloca %"struct.__gnu_cxx::__ops::_Iter_comp_iter", align 8
  %6 = alloca %"struct.__gnu_cxx::__ops::_Iter_comp_iter", align 8
  %7 = alloca %"struct.__gnu_cxx::__ops::_Iter_comp_iter", align 8
  %8 = ptrtoint %"struct.std::pair"* %0 to i64
  %9 = getelementptr inbounds %"struct.std::pair", %"struct.std::pair"* %0, i64 1
  %10 = bitcast %"struct.__gnu_cxx::__ops::_Iter_comp_iter"* %5 to i8*
  %11 = getelementptr inbounds %"struct.__gnu_cxx::__ops::_Iter_comp_iter", %"struct.__gnu_cxx::__ops::_Iter_comp_iter"* %5, i64 0, i32 0
  %12 = ptrtoint %"struct.std::pair"* %1 to i64
  %13 = sub i64 %12, %8
  %14 = icmp sgt i64 %13, 640
  br i1 %14, label %15, label %61

15:                                               ; preds = %4, %56
  %16 = phi i64 [ %59, %56 ], [ %13, %4 ]
  %17 = phi i64 [ %57, %56 ], [ %2, %4 ]
  %18 = phi %"struct.std::pair"* [ %40, %56 ], [ %1, %4 ]
  %19 = icmp eq i64 %17, 0
  br i1 %19, label %20, label %32

20:                                               ; preds = %15
  %21 = bitcast %"struct.__gnu_cxx::__ops::_Iter_comp_iter"* %7 to i8*
  call void @llvm.lifetime.start.p0i8(i64 8, i8* nonnull %21)
  %22 = getelementptr inbounds %"struct.__gnu_cxx::__ops::_Iter_comp_iter", %"struct.__gnu_cxx::__ops::_Iter_comp_iter"* %7, i64 0, i32 0
  store i1 (%"struct.std::pair"*, %"struct.std::pair"*)* %3, i1 (%"struct.std::pair"*, %"struct.std::pair"*)** %22, align 8
  %23 = bitcast %"struct.__gnu_cxx::__ops::_Iter_comp_iter"* %6 to i8*
  call void @llvm.lifetime.start.p0i8(i64 8, i8* nonnull %23)
  %24 = getelementptr inbounds %"struct.__gnu_cxx::__ops::_Iter_comp_iter", %"struct.__gnu_cxx::__ops::_Iter_comp_iter"* %6, i64 0, i32 0
  store i1 (%"struct.std::pair"*, %"struct.std::pair"*)* %3, i1 (%"struct.std::pair"*, %"struct.std::pair"*)** %24, align 8
  call void @_ZSt11__make_heapIN9__gnu_cxx17__normal_iteratorIPSt4pairIdNSt7__cxx1112basic_stringIcSt11char_traitsIcESaIcEEEESt6vectorIS9_SaIS9_EEEENS0_5__ops15_Iter_comp_iterIPFbS9_S9_EEEEvT_SK_RT0_(%"struct.std::pair"* %0, %"struct.std::pair"* %18, %"struct.__gnu_cxx::__ops::_Iter_comp_iter"* nonnull align 8 dereferenceable(8) %6)
  call void @llvm.lifetime.end.p0i8(i64 8, i8* nonnull %23)
  br label %25

25:                                               ; preds = %20, %25
  %26 = phi %"struct.std::pair"* [ %27, %25 ], [ %18, %20 ]
  %27 = getelementptr inbounds %"struct.std::pair", %"struct.std::pair"* %26, i64 -1
  call void @_ZSt10__pop_heapIN9__gnu_cxx17__normal_iteratorIPSt4pairIdNSt7__cxx1112basic_stringIcSt11char_traitsIcESaIcEEEESt6vectorIS9_SaIS9_EEEENS0_5__ops15_Iter_comp_iterIPFbS9_S9_EEEEvT_SK_SK_RT0_(%"struct.std::pair"* %0, %"struct.std::pair"* nonnull %27, %"struct.std::pair"* nonnull %27, %"struct.__gnu_cxx::__ops::_Iter_comp_iter"* nonnull align 8 dereferenceable(8) %7)
  %28 = ptrtoint %"struct.std::pair"* %27 to i64
  %29 = sub i64 %28, %8
  %30 = icmp sgt i64 %29, 40
  br i1 %30, label %25, label %31, !llvm.loop !49

31:                                               ; preds = %25
  call void @llvm.lifetime.end.p0i8(i64 8, i8* nonnull %21)
  br label %61

32:                                               ; preds = %15
  %33 = udiv i64 %16, 80
  %34 = getelementptr inbounds %"struct.std::pair", %"struct.std::pair"* %0, i64 %33
  %35 = getelementptr inbounds %"struct.std::pair", %"struct.std::pair"* %18, i64 -1
  call void @_ZSt22__move_median_to_firstIN9__gnu_cxx17__normal_iteratorIPSt4pairIdNSt7__cxx1112basic_stringIcSt11char_traitsIcESaIcEEEESt6vectorIS9_SaIS9_EEEENS0_5__ops15_Iter_comp_iterIPFbS9_S9_EEEEvT_SK_SK_SK_T0_(%"struct.std::pair"* %0, %"struct.std::pair"* nonnull %9, %"struct.std::pair"* %34, %"struct.std::pair"* nonnull %35, i1 (%"struct.std::pair"*, %"struct.std::pair"*)* %3)
  call void @llvm.lifetime.start.p0i8(i64 8, i8* nonnull %10)
  store i1 (%"struct.std::pair"*, %"struct.std::pair"*)* %3, i1 (%"struct.std::pair"*, %"struct.std::pair"*)** %11, align 8
  br label %36

36:                                               ; preds = %49, %32
  %37 = phi %"struct.std::pair"* [ %9, %32 ], [ %42, %49 ]
  %38 = phi %"struct.std::pair"* [ %18, %32 ], [ %45, %49 ]
  br label %39

39:                                               ; preds = %39, %36
  %40 = phi %"struct.std::pair"* [ %37, %36 ], [ %42, %39 ]
  %41 = call zeroext i1 @_ZN9__gnu_cxx5__ops15_Iter_comp_iterIPFbSt4pairIdNSt7__cxx1112basic_stringIcSt11char_traitsIcESaIcEEEES9_EEclINS_17__normal_iteratorIPS9_St6vectorIS9_SaIS9_EEEESJ_EEbT_T0_(%"struct.__gnu_cxx::__ops::_Iter_comp_iter"* nonnull align 8 dereferenceable(8) %5, %"struct.std::pair"* nonnull %40, %"struct.std::pair"* %0)
  %42 = getelementptr inbounds %"struct.std::pair", %"struct.std::pair"* %40, i64 1
  br i1 %41, label %39, label %43, !llvm.loop !50

43:                                               ; preds = %39, %43
  %44 = phi %"struct.std::pair"* [ %45, %43 ], [ %38, %39 ]
  %45 = getelementptr inbounds %"struct.std::pair", %"struct.std::pair"* %44, i64 -1
  %46 = call zeroext i1 @_ZN9__gnu_cxx5__ops15_Iter_comp_iterIPFbSt4pairIdNSt7__cxx1112basic_stringIcSt11char_traitsIcESaIcEEEES9_EEclINS_17__normal_iteratorIPS9_St6vectorIS9_SaIS9_EEEESJ_EEbT_T0_(%"struct.__gnu_cxx::__ops::_Iter_comp_iter"* nonnull align 8 dereferenceable(8) %5, %"struct.std::pair"* %0, %"struct.std::pair"* nonnull %45)
  br i1 %46, label %43, label %47, !llvm.loop !51

47:                                               ; preds = %43
  %48 = icmp ult %"struct.std::pair"* %40, %45
  br i1 %48, label %49, label %56

49:                                               ; preds = %47
  %50 = getelementptr inbounds %"struct.std::pair", %"struct.std::pair"* %40, i64 0, i32 0
  %51 = getelementptr inbounds %"struct.std::pair", %"struct.std::pair"* %45, i64 0, i32 0
  %52 = load double, double* %50, align 8, !tbaa !52
  %53 = load double, double* %51, align 8, !tbaa !52
  store double %53, double* %50, align 8, !tbaa !52
  store double %52, double* %51, align 8, !tbaa !52
  %54 = getelementptr inbounds %"struct.std::pair", %"struct.std::pair"* %40, i64 0, i32 1
  %55 = getelementptr inbounds %"struct.std::pair", %"struct.std::pair"* %44, i64 -1, i32 1
  call void @_ZNSt7__cxx1112basic_stringIcSt11char_traitsIcESaIcEE4swapERS4_(%"class.std::__cxx11::basic_string"* nonnull align 8 dereferenceable(32) %54, %"class.std::__cxx11::basic_string"* nonnull align 8 dereferenceable(32) %55) #18
  br label %36, !llvm.loop !53

56:                                               ; preds = %47
  %57 = add nsw i64 %17, -1
  call void @llvm.lifetime.end.p0i8(i64 8, i8* nonnull %10)
  call void @_ZSt16__introsort_loopIN9__gnu_cxx17__normal_iteratorIPSt4pairIdNSt7__cxx1112basic_stringIcSt11char_traitsIcESaIcEEEESt6vectorIS9_SaIS9_EEEElNS0_5__ops15_Iter_comp_iterIPFbS9_S9_EEEEvT_SK_T0_T1_(%"struct.std::pair"* %40, %"struct.std::pair"* %18, i64 %57, i1 (%"struct.std::pair"*, %"struct.std::pair"*)* %3)
  %58 = ptrtoint %"struct.std::pair"* %40 to i64
  %59 = sub i64 %58, %8
  %60 = icmp sgt i64 %59, 640
  br i1 %60, label %15, label %61, !llvm.loop !54

61:                                               ; preds = %56, %4, %31
  ret void
}

; Function Attrs: sspstrong uwtable
define linkonce_odr dso_local void @_ZSt11__make_heapIN9__gnu_cxx17__normal_iteratorIPSt4pairIdNSt7__cxx1112basic_stringIcSt11char_traitsIcESaIcEEEESt6vectorIS9_SaIS9_EEEENS0_5__ops15_Iter_comp_iterIPFbS9_S9_EEEEvT_SK_RT0_(%"struct.std::pair"* %0, %"struct.std::pair"* %1, %"struct.__gnu_cxx::__ops::_Iter_comp_iter"* nonnull align 8 dereferenceable(8) %2) local_unnamed_addr #12 comdat personality i8* bitcast (i32 (...)* @__gxx_personality_v0 to i8*) {
  %4 = alloca %"struct.std::pair", align 8
  %5 = alloca %"struct.std::pair", align 8
  %6 = ptrtoint %"struct.std::pair"* %1 to i64
  %7 = ptrtoint %"struct.std::pair"* %0 to i64
  %8 = sub i64 %6, %7
  %9 = sdiv exact i64 %8, 40
  %10 = icmp slt i64 %8, 80
  br i1 %10, label %80, label %11

11:                                               ; preds = %3
  %12 = add nsw i64 %9, -2
  %13 = lshr i64 %12, 1
  %14 = bitcast %"struct.std::pair"* %4 to i8*
  %15 = getelementptr inbounds %"struct.std::pair", %"struct.std::pair"* %4, i64 0, i32 0
  %16 = getelementptr inbounds %"struct.std::pair", %"struct.std::pair"* %4, i64 0, i32 1
  %17 = getelementptr inbounds %"struct.std::pair", %"struct.std::pair"* %4, i64 0, i32 1, i32 2
  %18 = bitcast %"class.std::__cxx11::basic_string"* %16 to %union.anon**
  %19 = getelementptr inbounds %"class.std::__cxx11::basic_string", %"class.std::__cxx11::basic_string"* %16, i64 0, i32 0, i32 0
  %20 = getelementptr inbounds %"struct.std::pair", %"struct.std::pair"* %4, i64 0, i32 1, i32 2, i32 0
  %21 = bitcast %union.anon* %17 to i8*
  %22 = getelementptr inbounds %"struct.std::pair", %"struct.std::pair"* %4, i64 0, i32 1, i32 1
  %23 = getelementptr inbounds %"struct.std::pair", %"struct.std::pair"* %5, i64 0, i32 0
  %24 = getelementptr inbounds %"struct.std::pair", %"struct.std::pair"* %5, i64 0, i32 1
  %25 = getelementptr inbounds %"struct.std::pair", %"struct.std::pair"* %5, i64 0, i32 1, i32 2
  %26 = bitcast %"class.std::__cxx11::basic_string"* %24 to %union.anon**
  %27 = getelementptr inbounds %"class.std::__cxx11::basic_string", %"class.std::__cxx11::basic_string"* %24, i64 0, i32 0, i32 0
  %28 = getelementptr inbounds %"struct.std::pair", %"struct.std::pair"* %5, i64 0, i32 1, i32 2, i32 0
  %29 = bitcast %union.anon* %25 to i8*
  %30 = getelementptr inbounds %"struct.std::pair", %"struct.std::pair"* %5, i64 0, i32 1, i32 1
  %31 = getelementptr inbounds %"struct.__gnu_cxx::__ops::_Iter_comp_iter", %"struct.__gnu_cxx::__ops::_Iter_comp_iter"* %2, i64 0, i32 0
  %32 = getelementptr inbounds %"struct.std::pair", %"struct.std::pair"* %5, i64 0, i32 1, i32 0, i32 0
  %33 = getelementptr inbounds %"struct.std::pair", %"struct.std::pair"* %4, i64 0, i32 1, i32 0, i32 0
  br label %34

34:                                               ; preds = %69, %11
  %35 = phi i64 [ %13, %11 ], [ %65, %69 ]
  call void @llvm.lifetime.start.p0i8(i64 40, i8* nonnull %14) #18
  %36 = getelementptr inbounds %"struct.std::pair", %"struct.std::pair"* %0, i64 %35, i32 0
  %37 = load double, double* %36, align 8, !tbaa !17
  store double %37, double* %15, align 8, !tbaa !17
  %38 = getelementptr inbounds %"struct.std::pair", %"struct.std::pair"* %0, i64 %35, i32 1
  store %union.anon* %17, %union.anon** %18, align 8, !tbaa !26
  %39 = getelementptr inbounds %"class.std::__cxx11::basic_string", %"class.std::__cxx11::basic_string"* %38, i64 0, i32 0, i32 0
  %40 = load i8*, i8** %39, align 8, !tbaa !11
  %41 = getelementptr inbounds %"struct.std::pair", %"struct.std::pair"* %0, i64 %35, i32 1, i32 2
  %42 = bitcast %union.anon* %41 to i8*
  %43 = icmp eq i8* %40, %42
  br i1 %43, label %44, label %45

44:                                               ; preds = %34
  call void @llvm.memcpy.p0i8.p0i8.i64(i8* noundef nonnull align 8 dereferenceable(16) %21, i8* noundef nonnull align 8 dereferenceable(16) %40, i64 16, i1 false) #18
  br label %48

45:                                               ; preds = %34
  store i8* %40, i8** %19, align 8, !tbaa !11
  %46 = getelementptr inbounds %"struct.std::pair", %"struct.std::pair"* %0, i64 %35, i32 1, i32 2, i32 0
  %47 = load i64, i64* %46, align 8, !tbaa !27
  store i64 %47, i64* %20, align 8, !tbaa !27
  br label %48

48:                                               ; preds = %44, %45
  %49 = phi i8* [ %21, %44 ], [ %40, %45 ]
  %50 = getelementptr inbounds %"struct.std::pair", %"struct.std::pair"* %0, i64 %35, i32 1, i32 1
  %51 = load i64, i64* %50, align 8, !tbaa !20
  %52 = bitcast %"class.std::__cxx11::basic_string"* %38 to %union.anon**
  store %union.anon* %41, %union.anon** %52, align 8, !tbaa !11
  store i64 0, i64* %50, align 8, !tbaa !20
  store i8 0, i8* %42, align 8, !tbaa !27
  store double %37, double* %23, align 8, !tbaa !17
  store %union.anon* %25, %union.anon** %26, align 8, !tbaa !26
  %53 = icmp eq i8* %49, %21
  br i1 %53, label %54, label %55

54:                                               ; preds = %48
  call void @llvm.memcpy.p0i8.p0i8.i64(i8* noundef nonnull align 8 dereferenceable(16) %29, i8* noundef nonnull align 8 dereferenceable(16) %21, i64 16, i1 false) #18
  br label %57

55:                                               ; preds = %48
  store i8* %49, i8** %27, align 8, !tbaa !11
  %56 = load i64, i64* %20, align 8, !tbaa !27
  store i64 %56, i64* %28, align 8, !tbaa !27
  br label %57

57:                                               ; preds = %54, %55
  store i64 %51, i64* %30, align 8, !tbaa !20
  store %union.anon* %17, %union.anon** %18, align 8, !tbaa !11
  store i64 0, i64* %22, align 8, !tbaa !20
  store i8 0, i8* %21, align 8, !tbaa !27
  %58 = load i1 (%"struct.std::pair"*, %"struct.std::pair"*)*, i1 (%"struct.std::pair"*, %"struct.std::pair"*)** %31, align 8, !tbaa.struct !55
  invoke void @_ZSt13__adjust_heapIN9__gnu_cxx17__normal_iteratorIPSt4pairIdNSt7__cxx1112basic_stringIcSt11char_traitsIcESaIcEEEESt6vectorIS9_SaIS9_EEEElS9_NS0_5__ops15_Iter_comp_iterIPFbS9_S9_EEEEvT_T0_SL_T1_T2_(%"struct.std::pair"* nonnull %0, i64 %35, i64 %9, %"struct.std::pair"* nonnull %5, i1 (%"struct.std::pair"*, %"struct.std::pair"*)* %58)
          to label %59 unwind label %70

59:                                               ; preds = %57
  %60 = load i8*, i8** %32, align 8, !tbaa !11
  %61 = icmp eq i8* %60, %29
  br i1 %61, label %63, label %62

62:                                               ; preds = %59
  call void @_ZdlPv(i8* %60) #18
  br label %63

63:                                               ; preds = %59, %62
  %64 = icmp eq i64 %35, 0
  %65 = add nsw i64 %35, -1
  %66 = load i8*, i8** %33, align 8, !tbaa !11
  %67 = icmp eq i8* %66, %21
  br i1 %67, label %69, label %68

68:                                               ; preds = %63
  call void @_ZdlPv(i8* %66) #18
  br label %69

69:                                               ; preds = %63, %68
  call void @llvm.lifetime.end.p0i8(i64 40, i8* nonnull %14) #18
  br i1 %64, label %80, label %34, !llvm.loop !56

70:                                               ; preds = %57
  %71 = landingpad { i8*, i32 }
          cleanup
  %72 = load i8*, i8** %32, align 8, !tbaa !11
  %73 = icmp eq i8* %72, %29
  br i1 %73, label %75, label %74

74:                                               ; preds = %70
  call void @_ZdlPv(i8* %72) #18
  br label %75

75:                                               ; preds = %70, %74
  %76 = load i8*, i8** %33, align 8, !tbaa !11
  %77 = icmp eq i8* %76, %21
  br i1 %77, label %79, label %78

78:                                               ; preds = %75
  call void @_ZdlPv(i8* %76) #18
  br label %79

79:                                               ; preds = %75, %78
  call void @llvm.lifetime.end.p0i8(i64 40, i8* nonnull %14) #18
  resume { i8*, i32 } %71

80:                                               ; preds = %69, %3
  ret void
}

; Function Attrs: sspstrong uwtable
define linkonce_odr dso_local zeroext i1 @_ZN9__gnu_cxx5__ops15_Iter_comp_iterIPFbSt4pairIdNSt7__cxx1112basic_stringIcSt11char_traitsIcESaIcEEEES9_EEclINS_17__normal_iteratorIPS9_St6vectorIS9_SaIS9_EEEESJ_EEbT_T0_(%"struct.__gnu_cxx::__ops::_Iter_comp_iter"* nonnull align 8 dereferenceable(8) %0, %"struct.std::pair"* %1, %"struct.std::pair"* %2) local_unnamed_addr #12 comdat align 2 personality i8* bitcast (i32 (...)* @__gxx_personality_v0 to i8*) {
  %4 = alloca i64, align 8
  %5 = alloca i64, align 8
  %6 = alloca %"struct.std::pair", align 8
  %7 = alloca %"struct.std::pair", align 8
  %8 = getelementptr inbounds %"struct.__gnu_cxx::__ops::_Iter_comp_iter", %"struct.__gnu_cxx::__ops::_Iter_comp_iter"* %0, i64 0, i32 0
  %9 = load i1 (%"struct.std::pair"*, %"struct.std::pair"*)*, i1 (%"struct.std::pair"*, %"struct.std::pair"*)** %8, align 8, !tbaa !57
  %10 = getelementptr inbounds %"struct.std::pair", %"struct.std::pair"* %6, i64 0, i32 0
  %11 = getelementptr inbounds %"struct.std::pair", %"struct.std::pair"* %1, i64 0, i32 0
  %12 = load double, double* %11, align 8, !tbaa !17
  store double %12, double* %10, align 8, !tbaa !17
  %13 = getelementptr inbounds %"struct.std::pair", %"struct.std::pair"* %6, i64 0, i32 1
  %14 = getelementptr inbounds %"struct.std::pair", %"struct.std::pair"* %6, i64 0, i32 1, i32 2
  %15 = bitcast %"class.std::__cxx11::basic_string"* %13 to %union.anon**
  store %union.anon* %14, %union.anon** %15, align 8, !tbaa !26
  %16 = getelementptr inbounds %"struct.std::pair", %"struct.std::pair"* %1, i64 0, i32 1, i32 0, i32 0
  %17 = load i8*, i8** %16, align 8, !tbaa !11
  %18 = getelementptr inbounds %"struct.std::pair", %"struct.std::pair"* %1, i64 0, i32 1, i32 1
  %19 = load i64, i64* %18, align 8, !tbaa !20
  %20 = bitcast i64* %5 to i8*
  call void @llvm.lifetime.start.p0i8(i64 8, i8* nonnull %20) #18
  store i64 %19, i64* %5, align 8, !tbaa !31
  %21 = icmp ugt i64 %19, 15
  br i1 %21, label %24, label %22

22:                                               ; preds = %3
  %23 = bitcast %union.anon* %14 to i8*
  br label %29

24:                                               ; preds = %3
  %25 = call i8* @_ZNSt7__cxx1112basic_stringIcSt11char_traitsIcESaIcEE9_M_createERmm(%"class.std::__cxx11::basic_string"* nonnull align 8 dereferenceable(32) %13, i64* nonnull align 8 dereferenceable(8) %5, i64 0)
  %26 = getelementptr inbounds %"class.std::__cxx11::basic_string", %"class.std::__cxx11::basic_string"* %13, i64 0, i32 0, i32 0
  store i8* %25, i8** %26, align 8, !tbaa !11
  %27 = load i64, i64* %5, align 8, !tbaa !31
  %28 = getelementptr inbounds %"struct.std::pair", %"struct.std::pair"* %6, i64 0, i32 1, i32 2, i32 0
  store i64 %27, i64* %28, align 8, !tbaa !27
  br label %29

29:                                               ; preds = %24, %22
  %30 = phi i8* [ %23, %22 ], [ %25, %24 ]
  switch i64 %19, label %33 [
    i64 1, label %31
    i64 0, label %34
  ]

31:                                               ; preds = %29
  %32 = load i8, i8* %17, align 1, !tbaa !27
  store i8 %32, i8* %30, align 1, !tbaa !27
  br label %34

33:                                               ; preds = %29
  call void @llvm.memcpy.p0i8.p0i8.i64(i8* align 1 %30, i8* align 1 %17, i64 %19, i1 false) #18
  br label %34

34:                                               ; preds = %29, %31, %33
  %35 = getelementptr inbounds %"class.std::__cxx11::basic_string", %"class.std::__cxx11::basic_string"* %13, i64 0, i32 0, i32 0
  %36 = load i64, i64* %5, align 8, !tbaa !31
  %37 = getelementptr inbounds %"struct.std::pair", %"struct.std::pair"* %6, i64 0, i32 1, i32 1
  store i64 %36, i64* %37, align 8, !tbaa !20
  %38 = load i8*, i8** %35, align 8, !tbaa !11
  %39 = getelementptr inbounds i8, i8* %38, i64 %36
  store i8 0, i8* %39, align 1, !tbaa !27
  call void @llvm.lifetime.end.p0i8(i64 8, i8* nonnull %20) #18
  %40 = getelementptr inbounds %"struct.std::pair", %"struct.std::pair"* %7, i64 0, i32 0
  %41 = getelementptr inbounds %"struct.std::pair", %"struct.std::pair"* %2, i64 0, i32 0
  %42 = load double, double* %41, align 8, !tbaa !17
  store double %42, double* %40, align 8, !tbaa !17
  %43 = getelementptr inbounds %"struct.std::pair", %"struct.std::pair"* %7, i64 0, i32 1
  %44 = getelementptr inbounds %"struct.std::pair", %"struct.std::pair"* %7, i64 0, i32 1, i32 2
  %45 = bitcast %"class.std::__cxx11::basic_string"* %43 to %union.anon**
  store %union.anon* %44, %union.anon** %45, align 8, !tbaa !26
  %46 = getelementptr inbounds %"struct.std::pair", %"struct.std::pair"* %2, i64 0, i32 1, i32 0, i32 0
  %47 = load i8*, i8** %46, align 8, !tbaa !11
  %48 = getelementptr inbounds %"struct.std::pair", %"struct.std::pair"* %2, i64 0, i32 1, i32 1
  %49 = load i64, i64* %48, align 8, !tbaa !20
  %50 = bitcast i64* %4 to i8*
  call void @llvm.lifetime.start.p0i8(i64 8, i8* nonnull %50) #18
  store i64 %49, i64* %4, align 8, !tbaa !31
  %51 = icmp ugt i64 %49, 15
  br i1 %51, label %54, label %52

52:                                               ; preds = %34
  %53 = bitcast %union.anon* %44 to i8*
  br label %60

54:                                               ; preds = %34
  %55 = invoke i8* @_ZNSt7__cxx1112basic_stringIcSt11char_traitsIcESaIcEE9_M_createERmm(%"class.std::__cxx11::basic_string"* nonnull align 8 dereferenceable(32) %43, i64* nonnull align 8 dereferenceable(8) %4, i64 0)
          to label %56 unwind label %85

56:                                               ; preds = %54
  %57 = getelementptr inbounds %"class.std::__cxx11::basic_string", %"class.std::__cxx11::basic_string"* %43, i64 0, i32 0, i32 0
  store i8* %55, i8** %57, align 8, !tbaa !11
  %58 = load i64, i64* %4, align 8, !tbaa !31
  %59 = getelementptr inbounds %"struct.std::pair", %"struct.std::pair"* %7, i64 0, i32 1, i32 2, i32 0
  store i64 %58, i64* %59, align 8, !tbaa !27
  br label %60

60:                                               ; preds = %56, %52
  %61 = phi i8* [ %53, %52 ], [ %55, %56 ]
  switch i64 %49, label %64 [
    i64 1, label %62
    i64 0, label %65
  ]

62:                                               ; preds = %60
  %63 = load i8, i8* %47, align 1, !tbaa !27
  store i8 %63, i8* %61, align 1, !tbaa !27
  br label %65

64:                                               ; preds = %60
  call void @llvm.memcpy.p0i8.p0i8.i64(i8* align 1 %61, i8* align 1 %47, i64 %49, i1 false) #18
  br label %65

65:                                               ; preds = %64, %62, %60
  %66 = getelementptr inbounds %"class.std::__cxx11::basic_string", %"class.std::__cxx11::basic_string"* %43, i64 0, i32 0, i32 0
  %67 = load i64, i64* %4, align 8, !tbaa !31
  %68 = getelementptr inbounds %"struct.std::pair", %"struct.std::pair"* %7, i64 0, i32 1, i32 1
  store i64 %67, i64* %68, align 8, !tbaa !20
  %69 = load i8*, i8** %66, align 8, !tbaa !11
  %70 = getelementptr inbounds i8, i8* %69, i64 %67
  store i8 0, i8* %70, align 1, !tbaa !27
  call void @llvm.lifetime.end.p0i8(i64 8, i8* nonnull %50) #18
  %71 = invoke zeroext i1 %9(%"struct.std::pair"* nonnull %6, %"struct.std::pair"* nonnull %7)
          to label %72 unwind label %87

72:                                               ; preds = %65
  %73 = getelementptr inbounds %"struct.std::pair", %"struct.std::pair"* %7, i64 0, i32 1, i32 0, i32 0
  %74 = load i8*, i8** %73, align 8, !tbaa !11
  %75 = bitcast %union.anon* %44 to i8*
  %76 = icmp eq i8* %74, %75
  br i1 %76, label %78, label %77

77:                                               ; preds = %72
  call void @_ZdlPv(i8* %74) #18
  br label %78

78:                                               ; preds = %72, %77
  %79 = getelementptr inbounds %"struct.std::pair", %"struct.std::pair"* %6, i64 0, i32 1, i32 0, i32 0
  %80 = load i8*, i8** %79, align 8, !tbaa !11
  %81 = bitcast %union.anon* %14 to i8*
  %82 = icmp eq i8* %80, %81
  br i1 %82, label %84, label %83

83:                                               ; preds = %78
  call void @_ZdlPv(i8* %80) #18
  br label %84

84:                                               ; preds = %78, %83
  ret i1 %71

85:                                               ; preds = %54
  %86 = landingpad { i8*, i32 }
          cleanup
  br label %94

87:                                               ; preds = %65
  %88 = landingpad { i8*, i32 }
          cleanup
  %89 = getelementptr inbounds %"struct.std::pair", %"struct.std::pair"* %7, i64 0, i32 1, i32 0, i32 0
  %90 = load i8*, i8** %89, align 8, !tbaa !11
  %91 = bitcast %union.anon* %44 to i8*
  %92 = icmp eq i8* %90, %91
  br i1 %92, label %94, label %93

93:                                               ; preds = %87
  call void @_ZdlPv(i8* %90) #18
  br label %94

94:                                               ; preds = %93, %87, %85
  %95 = phi { i8*, i32 } [ %86, %85 ], [ %88, %87 ], [ %88, %93 ]
  %96 = getelementptr inbounds %"struct.std::pair", %"struct.std::pair"* %6, i64 0, i32 1, i32 0, i32 0
  %97 = load i8*, i8** %96, align 8, !tbaa !11
  %98 = bitcast %union.anon* %14 to i8*
  %99 = icmp eq i8* %97, %98
  br i1 %99, label %101, label %100

100:                                              ; preds = %94
  call void @_ZdlPv(i8* %97) #18
  br label %101

101:                                              ; preds = %94, %100
  resume { i8*, i32 } %95
}

; Function Attrs: inlinehint sspstrong uwtable
define linkonce_odr dso_local void @_ZSt10__pop_heapIN9__gnu_cxx17__normal_iteratorIPSt4pairIdNSt7__cxx1112basic_stringIcSt11char_traitsIcESaIcEEEESt6vectorIS9_SaIS9_EEEENS0_5__ops15_Iter_comp_iterIPFbS9_S9_EEEEvT_SK_SK_RT0_(%"struct.std::pair"* %0, %"struct.std::pair"* %1, %"struct.std::pair"* %2, %"struct.__gnu_cxx::__ops::_Iter_comp_iter"* nonnull align 8 dereferenceable(8) %3) local_unnamed_addr #13 comdat personality i8* bitcast (i32 (...)* @__gxx_personality_v0 to i8*) {
  %5 = alloca %"struct.std::pair", align 8
  %6 = alloca %"struct.std::pair", align 8
  %7 = bitcast %"struct.std::pair"* %5 to i8*
  call void @llvm.lifetime.start.p0i8(i64 40, i8* nonnull %7) #18
  %8 = getelementptr inbounds %"struct.std::pair", %"struct.std::pair"* %5, i64 0, i32 0
  %9 = getelementptr inbounds %"struct.std::pair", %"struct.std::pair"* %2, i64 0, i32 0
  %10 = load double, double* %9, align 8, !tbaa !17
  store double %10, double* %8, align 8, !tbaa !17
  %11 = getelementptr inbounds %"struct.std::pair", %"struct.std::pair"* %5, i64 0, i32 1
  %12 = getelementptr inbounds %"struct.std::pair", %"struct.std::pair"* %2, i64 0, i32 1
  %13 = getelementptr inbounds %"struct.std::pair", %"struct.std::pair"* %5, i64 0, i32 1, i32 2
  %14 = bitcast %"class.std::__cxx11::basic_string"* %11 to %union.anon**
  store %union.anon* %13, %union.anon** %14, align 8, !tbaa !26
  %15 = getelementptr inbounds %"class.std::__cxx11::basic_string", %"class.std::__cxx11::basic_string"* %12, i64 0, i32 0, i32 0
  %16 = load i8*, i8** %15, align 8, !tbaa !11
  %17 = getelementptr inbounds %"struct.std::pair", %"struct.std::pair"* %2, i64 0, i32 1, i32 2
  %18 = bitcast %union.anon* %17 to i8*
  %19 = icmp eq i8* %16, %18
  br i1 %19, label %20, label %22

20:                                               ; preds = %4
  %21 = bitcast %union.anon* %13 to i8*
  call void @llvm.memcpy.p0i8.p0i8.i64(i8* noundef nonnull align 8 dereferenceable(16) %21, i8* noundef nonnull align 8 dereferenceable(16) %16, i64 16, i1 false) #18
  br label %27

22:                                               ; preds = %4
  %23 = getelementptr inbounds %"class.std::__cxx11::basic_string", %"class.std::__cxx11::basic_string"* %11, i64 0, i32 0, i32 0
  store i8* %16, i8** %23, align 8, !tbaa !11
  %24 = getelementptr inbounds %"struct.std::pair", %"struct.std::pair"* %2, i64 0, i32 1, i32 2, i32 0
  %25 = load i64, i64* %24, align 8, !tbaa !27
  %26 = getelementptr inbounds %"struct.std::pair", %"struct.std::pair"* %5, i64 0, i32 1, i32 2, i32 0
  store i64 %25, i64* %26, align 8, !tbaa !27
  br label %27

27:                                               ; preds = %20, %22
  %28 = getelementptr inbounds %"struct.std::pair", %"struct.std::pair"* %2, i64 0, i32 1, i32 1
  %29 = load i64, i64* %28, align 8, !tbaa !20
  %30 = getelementptr inbounds %"struct.std::pair", %"struct.std::pair"* %5, i64 0, i32 1, i32 1
  store i64 %29, i64* %30, align 8, !tbaa !20
  %31 = bitcast %"class.std::__cxx11::basic_string"* %12 to %union.anon**
  store %union.anon* %17, %union.anon** %31, align 8, !tbaa !11
  store i64 0, i64* %28, align 8, !tbaa !20
  store i8 0, i8* %18, align 8, !tbaa !27
  %32 = getelementptr inbounds %"struct.std::pair", %"struct.std::pair"* %0, i64 0, i32 0
  %33 = load double, double* %32, align 8, !tbaa !52
  store double %33, double* %9, align 8, !tbaa !17
  %34 = getelementptr inbounds %"struct.std::pair", %"struct.std::pair"* %0, i64 0, i32 1
  %35 = getelementptr inbounds %"class.std::__cxx11::basic_string", %"class.std::__cxx11::basic_string"* %34, i64 0, i32 0, i32 0
  %36 = load i8*, i8** %35, align 8, !tbaa !11
  %37 = getelementptr inbounds %"struct.std::pair", %"struct.std::pair"* %0, i64 0, i32 1, i32 2
  %38 = bitcast %union.anon* %37 to i8*
  %39 = icmp eq i8* %36, %38
  br i1 %39, label %40, label %52

40:                                               ; preds = %27
  %41 = icmp eq %"struct.std::pair"* %0, %2
  br i1 %41, label %60, label %42, !prof !59

42:                                               ; preds = %40
  %43 = getelementptr inbounds %"struct.std::pair", %"struct.std::pair"* %0, i64 0, i32 1, i32 1
  %44 = load i64, i64* %43, align 8, !tbaa !20
  switch i64 %44, label %47 [
    i64 0, label %48
    i64 1, label %45
  ]

45:                                               ; preds = %42
  %46 = load i8, i8* %36, align 1, !tbaa !27
  store i8 %46, i8* %18, align 1, !tbaa !27
  br label %48

47:                                               ; preds = %42
  call void @llvm.memcpy.p0i8.p0i8.i64(i8* nonnull align 1 %18, i8* align 1 %36, i64 %44, i1 false) #18
  br label %48

48:                                               ; preds = %42, %47, %45
  %49 = load i64, i64* %43, align 8, !tbaa !20
  store i64 %49, i64* %28, align 8, !tbaa !20
  %50 = getelementptr inbounds i8, i8* %18, i64 %49
  store i8 0, i8* %50, align 1, !tbaa !27
  %51 = load i8*, i8** %35, align 8, !tbaa !11
  br label %60

52:                                               ; preds = %27
  %53 = getelementptr inbounds %"struct.std::pair", %"struct.std::pair"* %2, i64 0, i32 1, i32 0, i32 0
  %54 = getelementptr inbounds %"struct.std::pair", %"struct.std::pair"* %2, i64 0, i32 1, i32 2, i32 0
  store i8* %36, i8** %53, align 8, !tbaa !11
  %55 = getelementptr inbounds %"struct.std::pair", %"struct.std::pair"* %0, i64 0, i32 1, i32 1
  %56 = load i64, i64* %55, align 8, !tbaa !20
  store i64 %56, i64* %28, align 8, !tbaa !20
  %57 = getelementptr %union.anon, %union.anon* %37, i64 0, i32 0
  %58 = load i64, i64* %57, align 8, !tbaa !27
  store i64 %58, i64* %54, align 8, !tbaa !27
  %59 = bitcast %"class.std::__cxx11::basic_string"* %34 to %union.anon**
  store %union.anon* %37, %union.anon** %59, align 8, !tbaa !11
  br label %60

60:                                               ; preds = %40, %48, %52
  %61 = phi i8* [ %51, %48 ], [ %38, %52 ], [ %36, %40 ]
  %62 = getelementptr inbounds %"struct.std::pair", %"struct.std::pair"* %0, i64 0, i32 1, i32 1
  store i64 0, i64* %62, align 8, !tbaa !20
  store i8 0, i8* %61, align 1, !tbaa !27
  %63 = ptrtoint %"struct.std::pair"* %1 to i64
  %64 = ptrtoint %"struct.std::pair"* %0 to i64
  %65 = sub i64 %63, %64
  %66 = sdiv exact i64 %65, 40
  %67 = getelementptr inbounds %"struct.std::pair", %"struct.std::pair"* %6, i64 0, i32 0
  %68 = load double, double* %8, align 8, !tbaa !17
  store double %68, double* %67, align 8, !tbaa !17
  %69 = getelementptr inbounds %"struct.std::pair", %"struct.std::pair"* %6, i64 0, i32 1
  %70 = getelementptr inbounds %"struct.std::pair", %"struct.std::pair"* %6, i64 0, i32 1, i32 2
  %71 = bitcast %"class.std::__cxx11::basic_string"* %69 to %union.anon**
  store %union.anon* %70, %union.anon** %71, align 8, !tbaa !26
  %72 = getelementptr inbounds %"class.std::__cxx11::basic_string", %"class.std::__cxx11::basic_string"* %11, i64 0, i32 0, i32 0
  %73 = load i8*, i8** %72, align 8, !tbaa !11
  %74 = bitcast %union.anon* %13 to i8*
  %75 = icmp eq i8* %73, %74
  br i1 %75, label %76, label %78

76:                                               ; preds = %60
  %77 = bitcast %union.anon* %70 to i8*
  call void @llvm.memcpy.p0i8.p0i8.i64(i8* noundef nonnull align 8 dereferenceable(16) %77, i8* noundef nonnull align 8 dereferenceable(16) %74, i64 16, i1 false) #18
  br label %83

78:                                               ; preds = %60
  %79 = getelementptr inbounds %"class.std::__cxx11::basic_string", %"class.std::__cxx11::basic_string"* %69, i64 0, i32 0, i32 0
  store i8* %73, i8** %79, align 8, !tbaa !11
  %80 = getelementptr inbounds %"struct.std::pair", %"struct.std::pair"* %5, i64 0, i32 1, i32 2, i32 0
  %81 = load i64, i64* %80, align 8, !tbaa !27
  %82 = getelementptr inbounds %"struct.std::pair", %"struct.std::pair"* %6, i64 0, i32 1, i32 2, i32 0
  store i64 %81, i64* %82, align 8, !tbaa !27
  br label %83

83:                                               ; preds = %76, %78
  %84 = load i64, i64* %30, align 8, !tbaa !20
  %85 = getelementptr inbounds %"struct.std::pair", %"struct.std::pair"* %6, i64 0, i32 1, i32 1
  store i64 %84, i64* %85, align 8, !tbaa !20
  store %union.anon* %13, %union.anon** %14, align 8, !tbaa !11
  store i64 0, i64* %30, align 8, !tbaa !20
  store i8 0, i8* %74, align 8, !tbaa !27
  %86 = getelementptr inbounds %"struct.__gnu_cxx::__ops::_Iter_comp_iter", %"struct.__gnu_cxx::__ops::_Iter_comp_iter"* %3, i64 0, i32 0
  %87 = load i1 (%"struct.std::pair"*, %"struct.std::pair"*)*, i1 (%"struct.std::pair"*, %"struct.std::pair"*)** %86, align 8, !tbaa.struct !55
  invoke void @_ZSt13__adjust_heapIN9__gnu_cxx17__normal_iteratorIPSt4pairIdNSt7__cxx1112basic_stringIcSt11char_traitsIcESaIcEEEESt6vectorIS9_SaIS9_EEEElS9_NS0_5__ops15_Iter_comp_iterIPFbS9_S9_EEEEvT_T0_SL_T1_T2_(%"struct.std::pair"* nonnull %0, i64 0, i64 %66, %"struct.std::pair"* nonnull %6, i1 (%"struct.std::pair"*, %"struct.std::pair"*)* %87)
          to label %88 unwind label %100

88:                                               ; preds = %83
  %89 = getelementptr inbounds %"struct.std::pair", %"struct.std::pair"* %6, i64 0, i32 1, i32 0, i32 0
  %90 = load i8*, i8** %89, align 8, !tbaa !11
  %91 = bitcast %union.anon* %70 to i8*
  %92 = icmp eq i8* %90, %91
  br i1 %92, label %94, label %93

93:                                               ; preds = %88
  call void @_ZdlPv(i8* %90) #18
  br label %94

94:                                               ; preds = %88, %93
  %95 = getelementptr inbounds %"struct.std::pair", %"struct.std::pair"* %5, i64 0, i32 1, i32 0, i32 0
  %96 = load i8*, i8** %95, align 8, !tbaa !11
  %97 = icmp eq i8* %96, %74
  br i1 %97, label %99, label %98

98:                                               ; preds = %94
  call void @_ZdlPv(i8* %96) #18
  br label %99

99:                                               ; preds = %94, %98
  call void @llvm.lifetime.end.p0i8(i64 40, i8* nonnull %7) #18
  ret void

100:                                              ; preds = %83
  %101 = landingpad { i8*, i32 }
          cleanup
  %102 = getelementptr inbounds %"struct.std::pair", %"struct.std::pair"* %6, i64 0, i32 1, i32 0, i32 0
  %103 = load i8*, i8** %102, align 8, !tbaa !11
  %104 = bitcast %union.anon* %70 to i8*
  %105 = icmp eq i8* %103, %104
  br i1 %105, label %107, label %106

106:                                              ; preds = %100
  call void @_ZdlPv(i8* %103) #18
  br label %107

107:                                              ; preds = %100, %106
  %108 = getelementptr inbounds %"struct.std::pair", %"struct.std::pair"* %5, i64 0, i32 1, i32 0, i32 0
  %109 = load i8*, i8** %108, align 8, !tbaa !11
  %110 = icmp eq i8* %109, %74
  br i1 %110, label %112, label %111

111:                                              ; preds = %107
  call void @_ZdlPv(i8* %109) #18
  br label %112

112:                                              ; preds = %107, %111
  call void @llvm.lifetime.end.p0i8(i64 40, i8* nonnull %7) #18
  resume { i8*, i32 } %101
}

; Function Attrs: sspstrong uwtable
define linkonce_odr dso_local void @_ZSt13__adjust_heapIN9__gnu_cxx17__normal_iteratorIPSt4pairIdNSt7__cxx1112basic_stringIcSt11char_traitsIcESaIcEEEESt6vectorIS9_SaIS9_EEEElS9_NS0_5__ops15_Iter_comp_iterIPFbS9_S9_EEEEvT_T0_SL_T1_T2_(%"struct.std::pair"* %0, i64 %1, i64 %2, %"struct.std::pair"* %3, i1 (%"struct.std::pair"*, %"struct.std::pair"*)* %4) local_unnamed_addr #12 comdat personality i8* bitcast (i32 (...)* @__gxx_personality_v0 to i8*) {
  %6 = alloca %"struct.__gnu_cxx::__ops::_Iter_comp_iter", align 8
  %7 = alloca %"struct.__gnu_cxx::__ops::_Iter_comp_val", align 8
  %8 = alloca %"struct.std::pair", align 8
  %9 = getelementptr inbounds %"struct.__gnu_cxx::__ops::_Iter_comp_iter", %"struct.__gnu_cxx::__ops::_Iter_comp_iter"* %6, i64 0, i32 0
  store i1 (%"struct.std::pair"*, %"struct.std::pair"*)* %4, i1 (%"struct.std::pair"*, %"struct.std::pair"*)** %9, align 8
  %10 = add nsw i64 %2, -1
  %11 = sdiv i64 %10, 2
  %12 = icmp sgt i64 %11, %1
  br i1 %12, label %13, label %72

13:                                               ; preds = %5, %68
  %14 = phi i64 [ %21, %68 ], [ %1, %5 ]
  %15 = shl i64 %14, 1
  %16 = add i64 %15, 2
  %17 = getelementptr inbounds %"struct.std::pair", %"struct.std::pair"* %0, i64 %16
  %18 = or i64 %15, 1
  %19 = getelementptr inbounds %"struct.std::pair", %"struct.std::pair"* %0, i64 %18
  %20 = call zeroext i1 @_ZN9__gnu_cxx5__ops15_Iter_comp_iterIPFbSt4pairIdNSt7__cxx1112basic_stringIcSt11char_traitsIcESaIcEEEES9_EEclINS_17__normal_iteratorIPS9_St6vectorIS9_SaIS9_EEEESJ_EEbT_T0_(%"struct.__gnu_cxx::__ops::_Iter_comp_iter"* nonnull align 8 dereferenceable(8) %6, %"struct.std::pair"* %17, %"struct.std::pair"* nonnull %19)
  %21 = select i1 %20, i64 %18, i64 %16
  %22 = getelementptr inbounds %"struct.std::pair", %"struct.std::pair"* %0, i64 %21, i32 0
  %23 = load double, double* %22, align 8, !tbaa !52
  %24 = getelementptr inbounds %"struct.std::pair", %"struct.std::pair"* %0, i64 %14, i32 0
  store double %23, double* %24, align 8, !tbaa !17
  %25 = getelementptr inbounds %"struct.std::pair", %"struct.std::pair"* %0, i64 %21, i32 1
  %26 = getelementptr inbounds %"struct.std::pair", %"struct.std::pair"* %0, i64 %14, i32 1, i32 0, i32 0
  %27 = getelementptr inbounds %"class.std::__cxx11::basic_string", %"class.std::__cxx11::basic_string"* %25, i64 0, i32 0, i32 0
  %28 = load i8*, i8** %27, align 8, !tbaa !11
  %29 = getelementptr inbounds %"struct.std::pair", %"struct.std::pair"* %0, i64 %21, i32 1, i32 2
  %30 = bitcast %union.anon* %29 to i8*
  %31 = icmp eq i8* %28, %30
  br i1 %31, label %32, label %50

32:                                               ; preds = %13
  %33 = icmp eq i64 %21, %14
  br i1 %33, label %68, label %34, !prof !59

34:                                               ; preds = %32
  %35 = getelementptr inbounds %"struct.std::pair", %"struct.std::pair"* %0, i64 %21, i32 1, i32 1
  %36 = load i64, i64* %35, align 8, !tbaa !20
  %37 = icmp eq i64 %36, 0
  br i1 %37, label %44, label %38

38:                                               ; preds = %34
  %39 = load i8*, i8** %26, align 8, !tbaa !11
  %40 = icmp eq i64 %36, 1
  br i1 %40, label %41, label %43

41:                                               ; preds = %38
  %42 = load i8, i8* %28, align 1, !tbaa !27
  store i8 %42, i8* %39, align 1, !tbaa !27
  br label %44

43:                                               ; preds = %38
  call void @llvm.memcpy.p0i8.p0i8.i64(i8* align 1 %39, i8* align 1 %28, i64 %36, i1 false) #18
  br label %44

44:                                               ; preds = %43, %41, %34
  %45 = load i64, i64* %35, align 8, !tbaa !20
  %46 = getelementptr inbounds %"struct.std::pair", %"struct.std::pair"* %0, i64 %14, i32 1, i32 1
  store i64 %45, i64* %46, align 8, !tbaa !20
  %47 = load i8*, i8** %26, align 8, !tbaa !11
  %48 = getelementptr inbounds i8, i8* %47, i64 %45
  store i8 0, i8* %48, align 1, !tbaa !27
  %49 = load i8*, i8** %27, align 8, !tbaa !11
  br label %68

50:                                               ; preds = %13
  %51 = getelementptr inbounds %"struct.std::pair", %"struct.std::pair"* %0, i64 %14, i32 1, i32 2
  %52 = bitcast %union.anon* %51 to i8*
  %53 = load i8*, i8** %26, align 8, !tbaa !11
  %54 = icmp eq i8* %53, %52
  %55 = getelementptr inbounds %"struct.std::pair", %"struct.std::pair"* %0, i64 %14, i32 1, i32 2, i32 0
  %56 = load i64, i64* %55, align 8
  store i8* %28, i8** %26, align 8, !tbaa !11
  %57 = getelementptr inbounds %"struct.std::pair", %"struct.std::pair"* %0, i64 %21, i32 1, i32 1
  %58 = getelementptr inbounds %"struct.std::pair", %"struct.std::pair"* %0, i64 %14, i32 1, i32 1
  %59 = bitcast i64* %57 to <2 x i64>*
  %60 = load <2 x i64>, <2 x i64>* %59, align 8, !tbaa !27
  %61 = bitcast i64* %58 to <2 x i64>*
  store <2 x i64> %60, <2 x i64>* %61, align 8, !tbaa !27
  %62 = icmp eq i8* %53, null
  %63 = or i1 %54, %62
  br i1 %63, label %66, label %64

64:                                               ; preds = %50
  store i8* %53, i8** %27, align 8, !tbaa !11
  %65 = getelementptr inbounds %"struct.std::pair", %"struct.std::pair"* %0, i64 %21, i32 1, i32 2, i32 0
  store i64 %56, i64* %65, align 8, !tbaa !27
  br label %68

66:                                               ; preds = %50
  %67 = bitcast %"class.std::__cxx11::basic_string"* %25 to %union.anon**
  store %union.anon* %29, %union.anon** %67, align 8, !tbaa !11
  br label %68

68:                                               ; preds = %32, %44, %64, %66
  %69 = phi i8* [ %49, %44 ], [ %53, %64 ], [ %30, %66 ], [ %28, %32 ]
  %70 = getelementptr inbounds %"struct.std::pair", %"struct.std::pair"* %0, i64 %21, i32 1, i32 1
  store i64 0, i64* %70, align 8, !tbaa !20
  store i8 0, i8* %69, align 1, !tbaa !27
  %71 = icmp slt i64 %21, %11
  br i1 %71, label %13, label %72, !llvm.loop !60

72:                                               ; preds = %68, %5
  %73 = phi i64 [ %1, %5 ], [ %21, %68 ]
  %74 = and i64 %2, 1
  %75 = icmp eq i64 %74, 0
  br i1 %75, label %76, label %132

76:                                               ; preds = %72
  %77 = add nsw i64 %2, -2
  %78 = sdiv i64 %77, 2
  %79 = icmp eq i64 %73, %78
  br i1 %79, label %80, label %132

80:                                               ; preds = %76
  %81 = shl i64 %73, 1
  %82 = or i64 %81, 1
  %83 = getelementptr inbounds %"struct.std::pair", %"struct.std::pair"* %0, i64 %82, i32 0
  %84 = load double, double* %83, align 8, !tbaa !52
  %85 = getelementptr inbounds %"struct.std::pair", %"struct.std::pair"* %0, i64 %73, i32 0
  store double %84, double* %85, align 8, !tbaa !17
  %86 = getelementptr inbounds %"struct.std::pair", %"struct.std::pair"* %0, i64 %82, i32 1
  %87 = getelementptr inbounds %"struct.std::pair", %"struct.std::pair"* %0, i64 %73, i32 1, i32 0, i32 0
  %88 = getelementptr inbounds %"class.std::__cxx11::basic_string", %"class.std::__cxx11::basic_string"* %86, i64 0, i32 0, i32 0
  %89 = load i8*, i8** %88, align 8, !tbaa !11
  %90 = getelementptr inbounds %"struct.std::pair", %"struct.std::pair"* %0, i64 %82, i32 1, i32 2
  %91 = bitcast %union.anon* %90 to i8*
  %92 = icmp eq i8* %89, %91
  br i1 %92, label %93, label %111

93:                                               ; preds = %80
  %94 = icmp eq i64 %82, %73
  br i1 %94, label %129, label %95, !prof !59

95:                                               ; preds = %93
  %96 = getelementptr inbounds %"struct.std::pair", %"struct.std::pair"* %0, i64 %82, i32 1, i32 1
  %97 = load i64, i64* %96, align 8, !tbaa !20
  %98 = icmp eq i64 %97, 0
  br i1 %98, label %105, label %99

99:                                               ; preds = %95
  %100 = load i8*, i8** %87, align 8, !tbaa !11
  %101 = icmp eq i64 %97, 1
  br i1 %101, label %102, label %104

102:                                              ; preds = %99
  %103 = load i8, i8* %89, align 1, !tbaa !27
  store i8 %103, i8* %100, align 1, !tbaa !27
  br label %105

104:                                              ; preds = %99
  call void @llvm.memcpy.p0i8.p0i8.i64(i8* align 1 %100, i8* align 1 %89, i64 %97, i1 false) #18
  br label %105

105:                                              ; preds = %104, %102, %95
  %106 = load i64, i64* %96, align 8, !tbaa !20
  %107 = getelementptr inbounds %"struct.std::pair", %"struct.std::pair"* %0, i64 %73, i32 1, i32 1
  store i64 %106, i64* %107, align 8, !tbaa !20
  %108 = load i8*, i8** %87, align 8, !tbaa !11
  %109 = getelementptr inbounds i8, i8* %108, i64 %106
  store i8 0, i8* %109, align 1, !tbaa !27
  %110 = load i8*, i8** %88, align 8, !tbaa !11
  br label %129

111:                                              ; preds = %80
  %112 = getelementptr inbounds %"struct.std::pair", %"struct.std::pair"* %0, i64 %73, i32 1, i32 2
  %113 = bitcast %union.anon* %112 to i8*
  %114 = load i8*, i8** %87, align 8, !tbaa !11
  %115 = icmp eq i8* %114, %113
  %116 = getelementptr inbounds %"struct.std::pair", %"struct.std::pair"* %0, i64 %73, i32 1, i32 2, i32 0
  %117 = load i64, i64* %116, align 8
  store i8* %89, i8** %87, align 8, !tbaa !11
  %118 = getelementptr inbounds %"struct.std::pair", %"struct.std::pair"* %0, i64 %82, i32 1, i32 1
  %119 = load i64, i64* %118, align 8, !tbaa !20
  %120 = getelementptr inbounds %"struct.std::pair", %"struct.std::pair"* %0, i64 %73, i32 1, i32 1
  store i64 %119, i64* %120, align 8, !tbaa !20
  %121 = getelementptr %union.anon, %union.anon* %90, i64 0, i32 0
  %122 = load i64, i64* %121, align 8, !tbaa !27
  store i64 %122, i64* %116, align 8, !tbaa !27
  %123 = icmp eq i8* %114, null
  %124 = or i1 %115, %123
  br i1 %124, label %127, label %125

125:                                              ; preds = %111
  store i8* %114, i8** %88, align 8, !tbaa !11
  %126 = getelementptr inbounds %"struct.std::pair", %"struct.std::pair"* %0, i64 %82, i32 1, i32 2, i32 0
  store i64 %117, i64* %126, align 8, !tbaa !27
  br label %129

127:                                              ; preds = %111
  %128 = bitcast %"class.std::__cxx11::basic_string"* %86 to %union.anon**
  store %union.anon* %90, %union.anon** %128, align 8, !tbaa !11
  br label %129

129:                                              ; preds = %93, %105, %125, %127
  %130 = phi i8* [ %110, %105 ], [ %114, %125 ], [ %91, %127 ], [ %89, %93 ]
  %131 = getelementptr inbounds %"struct.std::pair", %"struct.std::pair"* %0, i64 %82, i32 1, i32 1
  store i64 0, i64* %131, align 8, !tbaa !20
  store i8 0, i8* %130, align 1, !tbaa !27
  br label %132

132:                                              ; preds = %129, %76, %72
  %133 = phi i64 [ %82, %129 ], [ %73, %76 ], [ %73, %72 ]
  %134 = bitcast %"struct.__gnu_cxx::__ops::_Iter_comp_val"* %7 to i8*
  call void @llvm.lifetime.start.p0i8(i64 8, i8* nonnull %134) #18
  %135 = getelementptr inbounds %"struct.__gnu_cxx::__ops::_Iter_comp_val", %"struct.__gnu_cxx::__ops::_Iter_comp_val"* %7, i64 0, i32 0
  %136 = load i1 (%"struct.std::pair"*, %"struct.std::pair"*)*, i1 (%"struct.std::pair"*, %"struct.std::pair"*)** %9, align 8, !tbaa !23
  store i1 (%"struct.std::pair"*, %"struct.std::pair"*)* %136, i1 (%"struct.std::pair"*, %"struct.std::pair"*)** %135, align 8, !tbaa !61
  %137 = getelementptr inbounds %"struct.std::pair", %"struct.std::pair"* %8, i64 0, i32 0
  %138 = getelementptr inbounds %"struct.std::pair", %"struct.std::pair"* %3, i64 0, i32 0
  %139 = load double, double* %138, align 8, !tbaa !17
  store double %139, double* %137, align 8, !tbaa !17
  %140 = getelementptr inbounds %"struct.std::pair", %"struct.std::pair"* %8, i64 0, i32 1
  %141 = getelementptr inbounds %"struct.std::pair", %"struct.std::pair"* %3, i64 0, i32 1
  %142 = getelementptr inbounds %"struct.std::pair", %"struct.std::pair"* %8, i64 0, i32 1, i32 2
  %143 = bitcast %"class.std::__cxx11::basic_string"* %140 to %union.anon**
  store %union.anon* %142, %union.anon** %143, align 8, !tbaa !26
  %144 = getelementptr inbounds %"class.std::__cxx11::basic_string", %"class.std::__cxx11::basic_string"* %141, i64 0, i32 0, i32 0
  %145 = load i8*, i8** %144, align 8, !tbaa !11
  %146 = getelementptr inbounds %"struct.std::pair", %"struct.std::pair"* %3, i64 0, i32 1, i32 2
  %147 = bitcast %union.anon* %146 to i8*
  %148 = icmp eq i8* %145, %147
  br i1 %148, label %149, label %151

149:                                              ; preds = %132
  %150 = bitcast %union.anon* %142 to i8*
  call void @llvm.memcpy.p0i8.p0i8.i64(i8* noundef nonnull align 8 dereferenceable(16) %150, i8* noundef nonnull align 8 dereferenceable(16) %145, i64 16, i1 false) #18
  br label %156

151:                                              ; preds = %132
  %152 = getelementptr inbounds %"class.std::__cxx11::basic_string", %"class.std::__cxx11::basic_string"* %140, i64 0, i32 0, i32 0
  store i8* %145, i8** %152, align 8, !tbaa !11
  %153 = getelementptr inbounds %"struct.std::pair", %"struct.std::pair"* %3, i64 0, i32 1, i32 2, i32 0
  %154 = load i64, i64* %153, align 8, !tbaa !27
  %155 = getelementptr inbounds %"struct.std::pair", %"struct.std::pair"* %8, i64 0, i32 1, i32 2, i32 0
  store i64 %154, i64* %155, align 8, !tbaa !27
  br label %156

156:                                              ; preds = %149, %151
  %157 = getelementptr inbounds %"struct.std::pair", %"struct.std::pair"* %3, i64 0, i32 1, i32 1
  %158 = load i64, i64* %157, align 8, !tbaa !20
  %159 = getelementptr inbounds %"struct.std::pair", %"struct.std::pair"* %8, i64 0, i32 1, i32 1
  store i64 %158, i64* %159, align 8, !tbaa !20
  %160 = bitcast %"class.std::__cxx11::basic_string"* %141 to %union.anon**
  store %union.anon* %146, %union.anon** %160, align 8, !tbaa !11
  store i64 0, i64* %157, align 8, !tbaa !20
  store i8 0, i8* %147, align 8, !tbaa !27
  invoke void @_ZSt11__push_heapIN9__gnu_cxx17__normal_iteratorIPSt4pairIdNSt7__cxx1112basic_stringIcSt11char_traitsIcESaIcEEEESt6vectorIS9_SaIS9_EEEElS9_NS0_5__ops14_Iter_comp_valIPFbS9_S9_EEEEvT_T0_SL_T1_RT2_(%"struct.std::pair"* %0, i64 %133, i64 %1, %"struct.std::pair"* nonnull %8, %"struct.__gnu_cxx::__ops::_Iter_comp_val"* nonnull align 8 dereferenceable(8) %7)
          to label %161 unwind label %168

161:                                              ; preds = %156
  %162 = getelementptr inbounds %"struct.std::pair", %"struct.std::pair"* %8, i64 0, i32 1, i32 0, i32 0
  %163 = load i8*, i8** %162, align 8, !tbaa !11
  %164 = bitcast %union.anon* %142 to i8*
  %165 = icmp eq i8* %163, %164
  br i1 %165, label %167, label %166

166:                                              ; preds = %161
  call void @_ZdlPv(i8* %163) #18
  br label %167

167:                                              ; preds = %161, %166
  call void @llvm.lifetime.end.p0i8(i64 8, i8* nonnull %134) #18
  ret void

168:                                              ; preds = %156
  %169 = landingpad { i8*, i32 }
          cleanup
  %170 = getelementptr inbounds %"struct.std::pair", %"struct.std::pair"* %8, i64 0, i32 1, i32 0, i32 0
  %171 = load i8*, i8** %170, align 8, !tbaa !11
  %172 = bitcast %union.anon* %142 to i8*
  %173 = icmp eq i8* %171, %172
  br i1 %173, label %175, label %174

174:                                              ; preds = %168
  call void @_ZdlPv(i8* %171) #18
  br label %175

175:                                              ; preds = %168, %174
  call void @llvm.lifetime.end.p0i8(i64 8, i8* nonnull %134) #18
  resume { i8*, i32 } %169
}

; Function Attrs: sspstrong uwtable
define linkonce_odr dso_local void @_ZSt11__push_heapIN9__gnu_cxx17__normal_iteratorIPSt4pairIdNSt7__cxx1112basic_stringIcSt11char_traitsIcESaIcEEEESt6vectorIS9_SaIS9_EEEElS9_NS0_5__ops14_Iter_comp_valIPFbS9_S9_EEEEvT_T0_SL_T1_RT2_(%"struct.std::pair"* %0, i64 %1, i64 %2, %"struct.std::pair"* %3, %"struct.__gnu_cxx::__ops::_Iter_comp_val"* nonnull align 8 dereferenceable(8) %4) local_unnamed_addr #12 comdat personality i32 (...)* @__gxx_personality_v0 {
  %6 = icmp sgt i64 %1, %2
  br i1 %6, label %7, label %64

7:                                                ; preds = %5, %60
  %8 = phi i64 [ %10, %60 ], [ %1, %5 ]
  %9 = add nsw i64 %8, -1
  %10 = sdiv i64 %9, 2
  %11 = getelementptr inbounds %"struct.std::pair", %"struct.std::pair"* %0, i64 %10
  %12 = tail call zeroext i1 @_ZN9__gnu_cxx5__ops14_Iter_comp_valIPFbSt4pairIdNSt7__cxx1112basic_stringIcSt11char_traitsIcESaIcEEEES9_EEclINS_17__normal_iteratorIPS9_St6vectorIS9_SaIS9_EEEES9_EEbT_RT0_(%"struct.__gnu_cxx::__ops::_Iter_comp_val"* nonnull align 8 dereferenceable(8) %4, %"struct.std::pair"* %11, %"struct.std::pair"* nonnull align 8 dereferenceable(40) %3)
  br i1 %12, label %13, label %64

13:                                               ; preds = %7
  %14 = getelementptr inbounds %"struct.std::pair", %"struct.std::pair"* %11, i64 0, i32 0
  %15 = load double, double* %14, align 8, !tbaa !52
  %16 = getelementptr inbounds %"struct.std::pair", %"struct.std::pair"* %0, i64 %8, i32 0
  store double %15, double* %16, align 8, !tbaa !17
  %17 = getelementptr inbounds %"struct.std::pair", %"struct.std::pair"* %0, i64 %10, i32 1
  %18 = getelementptr inbounds %"struct.std::pair", %"struct.std::pair"* %0, i64 %8, i32 1, i32 0, i32 0
  %19 = getelementptr inbounds %"class.std::__cxx11::basic_string", %"class.std::__cxx11::basic_string"* %17, i64 0, i32 0, i32 0
  %20 = load i8*, i8** %19, align 8, !tbaa !11
  %21 = getelementptr inbounds %"struct.std::pair", %"struct.std::pair"* %0, i64 %10, i32 1, i32 2
  %22 = bitcast %union.anon* %21 to i8*
  %23 = icmp eq i8* %20, %22
  br i1 %23, label %24, label %42

24:                                               ; preds = %13
  %25 = icmp eq i64 %10, %8
  br i1 %25, label %60, label %26, !prof !59

26:                                               ; preds = %24
  %27 = getelementptr inbounds %"struct.std::pair", %"struct.std::pair"* %0, i64 %10, i32 1, i32 1
  %28 = load i64, i64* %27, align 8, !tbaa !20
  %29 = icmp eq i64 %28, 0
  br i1 %29, label %36, label %30

30:                                               ; preds = %26
  %31 = load i8*, i8** %18, align 8, !tbaa !11
  %32 = icmp eq i64 %28, 1
  br i1 %32, label %33, label %35

33:                                               ; preds = %30
  %34 = load i8, i8* %20, align 1, !tbaa !27
  store i8 %34, i8* %31, align 1, !tbaa !27
  br label %36

35:                                               ; preds = %30
  tail call void @llvm.memcpy.p0i8.p0i8.i64(i8* align 1 %31, i8* align 1 %20, i64 %28, i1 false) #18
  br label %36

36:                                               ; preds = %35, %33, %26
  %37 = load i64, i64* %27, align 8, !tbaa !20
  %38 = getelementptr inbounds %"struct.std::pair", %"struct.std::pair"* %0, i64 %8, i32 1, i32 1
  store i64 %37, i64* %38, align 8, !tbaa !20
  %39 = load i8*, i8** %18, align 8, !tbaa !11
  %40 = getelementptr inbounds i8, i8* %39, i64 %37
  store i8 0, i8* %40, align 1, !tbaa !27
  %41 = load i8*, i8** %19, align 8, !tbaa !11
  br label %60

42:                                               ; preds = %13
  %43 = getelementptr inbounds %"struct.std::pair", %"struct.std::pair"* %0, i64 %8, i32 1, i32 2
  %44 = bitcast %union.anon* %43 to i8*
  %45 = load i8*, i8** %18, align 8, !tbaa !11
  %46 = icmp eq i8* %45, %44
  %47 = getelementptr inbounds %"struct.std::pair", %"struct.std::pair"* %0, i64 %8, i32 1, i32 2, i32 0
  %48 = load i64, i64* %47, align 8
  store i8* %20, i8** %18, align 8, !tbaa !11
  %49 = getelementptr inbounds %"struct.std::pair", %"struct.std::pair"* %0, i64 %10, i32 1, i32 1
  %50 = getelementptr inbounds %"struct.std::pair", %"struct.std::pair"* %0, i64 %8, i32 1, i32 1
  %51 = bitcast i64* %49 to <2 x i64>*
  %52 = load <2 x i64>, <2 x i64>* %51, align 8, !tbaa !27
  %53 = bitcast i64* %50 to <2 x i64>*
  store <2 x i64> %52, <2 x i64>* %53, align 8, !tbaa !27
  %54 = icmp eq i8* %45, null
  %55 = or i1 %46, %54
  br i1 %55, label %58, label %56

56:                                               ; preds = %42
  store i8* %45, i8** %19, align 8, !tbaa !11
  %57 = getelementptr inbounds %"struct.std::pair", %"struct.std::pair"* %0, i64 %10, i32 1, i32 2, i32 0
  store i64 %48, i64* %57, align 8, !tbaa !27
  br label %60

58:                                               ; preds = %42
  %59 = bitcast %"class.std::__cxx11::basic_string"* %17 to %union.anon**
  store %union.anon* %21, %union.anon** %59, align 8, !tbaa !11
  br label %60

60:                                               ; preds = %24, %36, %56, %58
  %61 = phi i8* [ %41, %36 ], [ %45, %56 ], [ %22, %58 ], [ %20, %24 ]
  %62 = getelementptr inbounds %"struct.std::pair", %"struct.std::pair"* %0, i64 %10, i32 1, i32 1
  store i64 0, i64* %62, align 8, !tbaa !20
  store i8 0, i8* %61, align 1, !tbaa !27
  %63 = icmp sgt i64 %10, %2
  br i1 %63, label %7, label %64, !llvm.loop !63

64:                                               ; preds = %7, %60, %5
  %65 = phi i64 [ %1, %5 ], [ %10, %60 ], [ %8, %7 ]
  %66 = getelementptr inbounds %"struct.std::pair", %"struct.std::pair"* %0, i64 %65
  %67 = getelementptr inbounds %"struct.std::pair", %"struct.std::pair"* %3, i64 0, i32 0
  %68 = load double, double* %67, align 8, !tbaa !52
  %69 = getelementptr inbounds %"struct.std::pair", %"struct.std::pair"* %66, i64 0, i32 0
  store double %68, double* %69, align 8, !tbaa !17
  %70 = getelementptr inbounds %"struct.std::pair", %"struct.std::pair"* %3, i64 0, i32 1
  %71 = getelementptr inbounds %"struct.std::pair", %"struct.std::pair"* %0, i64 %65, i32 1, i32 0, i32 0
  %72 = getelementptr inbounds %"class.std::__cxx11::basic_string", %"class.std::__cxx11::basic_string"* %70, i64 0, i32 0, i32 0
  %73 = load i8*, i8** %72, align 8, !tbaa !11
  %74 = getelementptr inbounds %"struct.std::pair", %"struct.std::pair"* %3, i64 0, i32 1, i32 2
  %75 = bitcast %union.anon* %74 to i8*
  %76 = icmp eq i8* %73, %75
  br i1 %76, label %77, label %95

77:                                               ; preds = %64
  %78 = icmp eq %"struct.std::pair"* %66, %3
  br i1 %78, label %113, label %79, !prof !59

79:                                               ; preds = %77
  %80 = getelementptr inbounds %"struct.std::pair", %"struct.std::pair"* %3, i64 0, i32 1, i32 1
  %81 = load i64, i64* %80, align 8, !tbaa !20
  %82 = icmp eq i64 %81, 0
  br i1 %82, label %89, label %83

83:                                               ; preds = %79
  %84 = load i8*, i8** %71, align 8, !tbaa !11
  %85 = icmp eq i64 %81, 1
  br i1 %85, label %86, label %88

86:                                               ; preds = %83
  %87 = load i8, i8* %73, align 1, !tbaa !27
  store i8 %87, i8* %84, align 1, !tbaa !27
  br label %89

88:                                               ; preds = %83
  tail call void @llvm.memcpy.p0i8.p0i8.i64(i8* align 1 %84, i8* align 1 %73, i64 %81, i1 false) #18
  br label %89

89:                                               ; preds = %88, %86, %79
  %90 = load i64, i64* %80, align 8, !tbaa !20
  %91 = getelementptr inbounds %"struct.std::pair", %"struct.std::pair"* %0, i64 %65, i32 1, i32 1
  store i64 %90, i64* %91, align 8, !tbaa !20
  %92 = load i8*, i8** %71, align 8, !tbaa !11
  %93 = getelementptr inbounds i8, i8* %92, i64 %90
  store i8 0, i8* %93, align 1, !tbaa !27
  %94 = load i8*, i8** %72, align 8, !tbaa !11
  br label %113

95:                                               ; preds = %64
  %96 = getelementptr inbounds %"struct.std::pair", %"struct.std::pair"* %0, i64 %65, i32 1, i32 2
  %97 = bitcast %union.anon* %96 to i8*
  %98 = load i8*, i8** %71, align 8, !tbaa !11
  %99 = icmp eq i8* %98, %97
  %100 = getelementptr inbounds %"struct.std::pair", %"struct.std::pair"* %0, i64 %65, i32 1, i32 2, i32 0
  %101 = load i64, i64* %100, align 8
  store i8* %73, i8** %71, align 8, !tbaa !11
  %102 = getelementptr inbounds %"struct.std::pair", %"struct.std::pair"* %3, i64 0, i32 1, i32 1
  %103 = load i64, i64* %102, align 8, !tbaa !20
  %104 = getelementptr inbounds %"struct.std::pair", %"struct.std::pair"* %0, i64 %65, i32 1, i32 1
  store i64 %103, i64* %104, align 8, !tbaa !20
  %105 = getelementptr %union.anon, %union.anon* %74, i64 0, i32 0
  %106 = load i64, i64* %105, align 8, !tbaa !27
  store i64 %106, i64* %100, align 8, !tbaa !27
  %107 = icmp eq i8* %98, null
  %108 = or i1 %99, %107
  br i1 %108, label %111, label %109

109:                                              ; preds = %95
  store i8* %98, i8** %72, align 8, !tbaa !11
  %110 = getelementptr inbounds %"struct.std::pair", %"struct.std::pair"* %3, i64 0, i32 1, i32 2, i32 0
  store i64 %101, i64* %110, align 8, !tbaa !27
  br label %113

111:                                              ; preds = %95
  %112 = bitcast %"class.std::__cxx11::basic_string"* %70 to %union.anon**
  store %union.anon* %74, %union.anon** %112, align 8, !tbaa !11
  br label %113

113:                                              ; preds = %77, %89, %109, %111
  %114 = phi i8* [ %94, %89 ], [ %98, %109 ], [ %75, %111 ], [ %73, %77 ]
  %115 = getelementptr inbounds %"struct.std::pair", %"struct.std::pair"* %3, i64 0, i32 1, i32 1
  store i64 0, i64* %115, align 8, !tbaa !20
  store i8 0, i8* %114, align 1, !tbaa !27
  ret void
}

; Function Attrs: sspstrong uwtable
define linkonce_odr dso_local zeroext i1 @_ZN9__gnu_cxx5__ops14_Iter_comp_valIPFbSt4pairIdNSt7__cxx1112basic_stringIcSt11char_traitsIcESaIcEEEES9_EEclINS_17__normal_iteratorIPS9_St6vectorIS9_SaIS9_EEEES9_EEbT_RT0_(%"struct.__gnu_cxx::__ops::_Iter_comp_val"* nonnull align 8 dereferenceable(8) %0, %"struct.std::pair"* %1, %"struct.std::pair"* nonnull align 8 dereferenceable(40) %2) local_unnamed_addr #12 comdat align 2 personality i8* bitcast (i32 (...)* @__gxx_personality_v0 to i8*) {
  %4 = alloca i64, align 8
  %5 = alloca i64, align 8
  %6 = alloca %"struct.std::pair", align 8
  %7 = alloca %"struct.std::pair", align 8
  %8 = getelementptr inbounds %"struct.__gnu_cxx::__ops::_Iter_comp_val", %"struct.__gnu_cxx::__ops::_Iter_comp_val"* %0, i64 0, i32 0
  %9 = load i1 (%"struct.std::pair"*, %"struct.std::pair"*)*, i1 (%"struct.std::pair"*, %"struct.std::pair"*)** %8, align 8, !tbaa !61
  %10 = getelementptr inbounds %"struct.std::pair", %"struct.std::pair"* %6, i64 0, i32 0
  %11 = getelementptr inbounds %"struct.std::pair", %"struct.std::pair"* %1, i64 0, i32 0
  %12 = load double, double* %11, align 8, !tbaa !17
  store double %12, double* %10, align 8, !tbaa !17
  %13 = getelementptr inbounds %"struct.std::pair", %"struct.std::pair"* %6, i64 0, i32 1
  %14 = getelementptr inbounds %"struct.std::pair", %"struct.std::pair"* %6, i64 0, i32 1, i32 2
  %15 = bitcast %"class.std::__cxx11::basic_string"* %13 to %union.anon**
  store %union.anon* %14, %union.anon** %15, align 8, !tbaa !26
  %16 = getelementptr inbounds %"struct.std::pair", %"struct.std::pair"* %1, i64 0, i32 1, i32 0, i32 0
  %17 = load i8*, i8** %16, align 8, !tbaa !11
  %18 = getelementptr inbounds %"struct.std::pair", %"struct.std::pair"* %1, i64 0, i32 1, i32 1
  %19 = load i64, i64* %18, align 8, !tbaa !20
  %20 = bitcast i64* %5 to i8*
  call void @llvm.lifetime.start.p0i8(i64 8, i8* nonnull %20) #18
  store i64 %19, i64* %5, align 8, !tbaa !31
  %21 = icmp ugt i64 %19, 15
  br i1 %21, label %24, label %22

22:                                               ; preds = %3
  %23 = bitcast %union.anon* %14 to i8*
  br label %29

24:                                               ; preds = %3
  %25 = call i8* @_ZNSt7__cxx1112basic_stringIcSt11char_traitsIcESaIcEE9_M_createERmm(%"class.std::__cxx11::basic_string"* nonnull align 8 dereferenceable(32) %13, i64* nonnull align 8 dereferenceable(8) %5, i64 0)
  %26 = getelementptr inbounds %"class.std::__cxx11::basic_string", %"class.std::__cxx11::basic_string"* %13, i64 0, i32 0, i32 0
  store i8* %25, i8** %26, align 8, !tbaa !11
  %27 = load i64, i64* %5, align 8, !tbaa !31
  %28 = getelementptr inbounds %"struct.std::pair", %"struct.std::pair"* %6, i64 0, i32 1, i32 2, i32 0
  store i64 %27, i64* %28, align 8, !tbaa !27
  br label %29

29:                                               ; preds = %24, %22
  %30 = phi i8* [ %23, %22 ], [ %25, %24 ]
  switch i64 %19, label %33 [
    i64 1, label %31
    i64 0, label %34
  ]

31:                                               ; preds = %29
  %32 = load i8, i8* %17, align 1, !tbaa !27
  store i8 %32, i8* %30, align 1, !tbaa !27
  br label %34

33:                                               ; preds = %29
  call void @llvm.memcpy.p0i8.p0i8.i64(i8* align 1 %30, i8* align 1 %17, i64 %19, i1 false) #18
  br label %34

34:                                               ; preds = %29, %31, %33
  %35 = getelementptr inbounds %"class.std::__cxx11::basic_string", %"class.std::__cxx11::basic_string"* %13, i64 0, i32 0, i32 0
  %36 = load i64, i64* %5, align 8, !tbaa !31
  %37 = getelementptr inbounds %"struct.std::pair", %"struct.std::pair"* %6, i64 0, i32 1, i32 1
  store i64 %36, i64* %37, align 8, !tbaa !20
  %38 = load i8*, i8** %35, align 8, !tbaa !11
  %39 = getelementptr inbounds i8, i8* %38, i64 %36
  store i8 0, i8* %39, align 1, !tbaa !27
  call void @llvm.lifetime.end.p0i8(i64 8, i8* nonnull %20) #18
  %40 = getelementptr inbounds %"struct.std::pair", %"struct.std::pair"* %7, i64 0, i32 0
  %41 = getelementptr inbounds %"struct.std::pair", %"struct.std::pair"* %2, i64 0, i32 0
  %42 = load double, double* %41, align 8, !tbaa !17
  store double %42, double* %40, align 8, !tbaa !17
  %43 = getelementptr inbounds %"struct.std::pair", %"struct.std::pair"* %7, i64 0, i32 1
  %44 = getelementptr inbounds %"struct.std::pair", %"struct.std::pair"* %7, i64 0, i32 1, i32 2
  %45 = bitcast %"class.std::__cxx11::basic_string"* %43 to %union.anon**
  store %union.anon* %44, %union.anon** %45, align 8, !tbaa !26
  %46 = getelementptr inbounds %"struct.std::pair", %"struct.std::pair"* %2, i64 0, i32 1, i32 0, i32 0
  %47 = load i8*, i8** %46, align 8, !tbaa !11
  %48 = getelementptr inbounds %"struct.std::pair", %"struct.std::pair"* %2, i64 0, i32 1, i32 1
  %49 = load i64, i64* %48, align 8, !tbaa !20
  %50 = bitcast i64* %4 to i8*
  call void @llvm.lifetime.start.p0i8(i64 8, i8* nonnull %50) #18
  store i64 %49, i64* %4, align 8, !tbaa !31
  %51 = icmp ugt i64 %49, 15
  br i1 %51, label %54, label %52

52:                                               ; preds = %34
  %53 = bitcast %union.anon* %44 to i8*
  br label %60

54:                                               ; preds = %34
  %55 = invoke i8* @_ZNSt7__cxx1112basic_stringIcSt11char_traitsIcESaIcEE9_M_createERmm(%"class.std::__cxx11::basic_string"* nonnull align 8 dereferenceable(32) %43, i64* nonnull align 8 dereferenceable(8) %4, i64 0)
          to label %56 unwind label %85

56:                                               ; preds = %54
  %57 = getelementptr inbounds %"class.std::__cxx11::basic_string", %"class.std::__cxx11::basic_string"* %43, i64 0, i32 0, i32 0
  store i8* %55, i8** %57, align 8, !tbaa !11
  %58 = load i64, i64* %4, align 8, !tbaa !31
  %59 = getelementptr inbounds %"struct.std::pair", %"struct.std::pair"* %7, i64 0, i32 1, i32 2, i32 0
  store i64 %58, i64* %59, align 8, !tbaa !27
  br label %60

60:                                               ; preds = %56, %52
  %61 = phi i8* [ %53, %52 ], [ %55, %56 ]
  switch i64 %49, label %64 [
    i64 1, label %62
    i64 0, label %65
  ]

62:                                               ; preds = %60
  %63 = load i8, i8* %47, align 1, !tbaa !27
  store i8 %63, i8* %61, align 1, !tbaa !27
  br label %65

64:                                               ; preds = %60
  call void @llvm.memcpy.p0i8.p0i8.i64(i8* align 1 %61, i8* align 1 %47, i64 %49, i1 false) #18
  br label %65

65:                                               ; preds = %64, %62, %60
  %66 = getelementptr inbounds %"class.std::__cxx11::basic_string", %"class.std::__cxx11::basic_string"* %43, i64 0, i32 0, i32 0
  %67 = load i64, i64* %4, align 8, !tbaa !31
  %68 = getelementptr inbounds %"struct.std::pair", %"struct.std::pair"* %7, i64 0, i32 1, i32 1
  store i64 %67, i64* %68, align 8, !tbaa !20
  %69 = load i8*, i8** %66, align 8, !tbaa !11
  %70 = getelementptr inbounds i8, i8* %69, i64 %67
  store i8 0, i8* %70, align 1, !tbaa !27
  call void @llvm.lifetime.end.p0i8(i64 8, i8* nonnull %50) #18
  %71 = invoke zeroext i1 %9(%"struct.std::pair"* nonnull %6, %"struct.std::pair"* nonnull %7)
          to label %72 unwind label %87

72:                                               ; preds = %65
  %73 = getelementptr inbounds %"struct.std::pair", %"struct.std::pair"* %7, i64 0, i32 1, i32 0, i32 0
  %74 = load i8*, i8** %73, align 8, !tbaa !11
  %75 = bitcast %union.anon* %44 to i8*
  %76 = icmp eq i8* %74, %75
  br i1 %76, label %78, label %77

77:                                               ; preds = %72
  call void @_ZdlPv(i8* %74) #18
  br label %78

78:                                               ; preds = %72, %77
  %79 = getelementptr inbounds %"struct.std::pair", %"struct.std::pair"* %6, i64 0, i32 1, i32 0, i32 0
  %80 = load i8*, i8** %79, align 8, !tbaa !11
  %81 = bitcast %union.anon* %14 to i8*
  %82 = icmp eq i8* %80, %81
  br i1 %82, label %84, label %83

83:                                               ; preds = %78
  call void @_ZdlPv(i8* %80) #18
  br label %84

84:                                               ; preds = %78, %83
  ret i1 %71

85:                                               ; preds = %54
  %86 = landingpad { i8*, i32 }
          cleanup
  br label %94

87:                                               ; preds = %65
  %88 = landingpad { i8*, i32 }
          cleanup
  %89 = getelementptr inbounds %"struct.std::pair", %"struct.std::pair"* %7, i64 0, i32 1, i32 0, i32 0
  %90 = load i8*, i8** %89, align 8, !tbaa !11
  %91 = bitcast %union.anon* %44 to i8*
  %92 = icmp eq i8* %90, %91
  br i1 %92, label %94, label %93

93:                                               ; preds = %87
  call void @_ZdlPv(i8* %90) #18
  br label %94

94:                                               ; preds = %93, %87, %85
  %95 = phi { i8*, i32 } [ %86, %85 ], [ %88, %87 ], [ %88, %93 ]
  %96 = getelementptr inbounds %"struct.std::pair", %"struct.std::pair"* %6, i64 0, i32 1, i32 0, i32 0
  %97 = load i8*, i8** %96, align 8, !tbaa !11
  %98 = bitcast %union.anon* %14 to i8*
  %99 = icmp eq i8* %97, %98
  br i1 %99, label %101, label %100

100:                                              ; preds = %94
  call void @_ZdlPv(i8* %97) #18
  br label %101

101:                                              ; preds = %94, %100
  resume { i8*, i32 } %95
}

; Function Attrs: mustprogress sspstrong uwtable
define linkonce_odr dso_local void @_ZSt22__move_median_to_firstIN9__gnu_cxx17__normal_iteratorIPSt4pairIdNSt7__cxx1112basic_stringIcSt11char_traitsIcESaIcEEEESt6vectorIS9_SaIS9_EEEENS0_5__ops15_Iter_comp_iterIPFbS9_S9_EEEEvT_SK_SK_SK_T0_(%"struct.std::pair"* %0, %"struct.std::pair"* %1, %"struct.std::pair"* %2, %"struct.std::pair"* %3, i1 (%"struct.std::pair"*, %"struct.std::pair"*)* %4) local_unnamed_addr #14 comdat {
  %6 = alloca %"struct.__gnu_cxx::__ops::_Iter_comp_iter", align 8
  %7 = getelementptr inbounds %"struct.__gnu_cxx::__ops::_Iter_comp_iter", %"struct.__gnu_cxx::__ops::_Iter_comp_iter"* %6, i64 0, i32 0
  store i1 (%"struct.std::pair"*, %"struct.std::pair"*)* %4, i1 (%"struct.std::pair"*, %"struct.std::pair"*)** %7, align 8
  %8 = call zeroext i1 @_ZN9__gnu_cxx5__ops15_Iter_comp_iterIPFbSt4pairIdNSt7__cxx1112basic_stringIcSt11char_traitsIcESaIcEEEES9_EEclINS_17__normal_iteratorIPS9_St6vectorIS9_SaIS9_EEEESJ_EEbT_T0_(%"struct.__gnu_cxx::__ops::_Iter_comp_iter"* nonnull align 8 dereferenceable(8) %6, %"struct.std::pair"* %1, %"struct.std::pair"* %2)
  br i1 %8, label %9, label %11

9:                                                ; preds = %5
  %10 = call zeroext i1 @_ZN9__gnu_cxx5__ops15_Iter_comp_iterIPFbSt4pairIdNSt7__cxx1112basic_stringIcSt11char_traitsIcESaIcEEEES9_EEclINS_17__normal_iteratorIPS9_St6vectorIS9_SaIS9_EEEESJ_EEbT_T0_(%"struct.__gnu_cxx::__ops::_Iter_comp_iter"* nonnull align 8 dereferenceable(8) %6, %"struct.std::pair"* %2, %"struct.std::pair"* %3)
  br i1 %10, label %17, label %13

11:                                               ; preds = %5
  %12 = call zeroext i1 @_ZN9__gnu_cxx5__ops15_Iter_comp_iterIPFbSt4pairIdNSt7__cxx1112basic_stringIcSt11char_traitsIcESaIcEEEES9_EEclINS_17__normal_iteratorIPS9_St6vectorIS9_SaIS9_EEEESJ_EEbT_T0_(%"struct.__gnu_cxx::__ops::_Iter_comp_iter"* nonnull align 8 dereferenceable(8) %6, %"struct.std::pair"* %1, %"struct.std::pair"* %3)
  br i1 %12, label %17, label %13

13:                                               ; preds = %11, %9
  %14 = phi %"struct.std::pair"* [ %1, %9 ], [ %2, %11 ]
  %15 = call zeroext i1 @_ZN9__gnu_cxx5__ops15_Iter_comp_iterIPFbSt4pairIdNSt7__cxx1112basic_stringIcSt11char_traitsIcESaIcEEEES9_EEclINS_17__normal_iteratorIPS9_St6vectorIS9_SaIS9_EEEESJ_EEbT_T0_(%"struct.__gnu_cxx::__ops::_Iter_comp_iter"* nonnull align 8 dereferenceable(8) %6, %"struct.std::pair"* %14, %"struct.std::pair"* %3)
  %16 = select i1 %15, %"struct.std::pair"* %3, %"struct.std::pair"* %14
  br label %17

17:                                               ; preds = %13, %11, %9
  %18 = phi %"struct.std::pair"* [ %2, %9 ], [ %1, %11 ], [ %16, %13 ]
  %19 = getelementptr inbounds %"struct.std::pair", %"struct.std::pair"* %0, i64 0, i32 0
  %20 = getelementptr inbounds %"struct.std::pair", %"struct.std::pair"* %18, i64 0, i32 0
  %21 = load double, double* %19, align 8, !tbaa !52
  %22 = load double, double* %20, align 8, !tbaa !52
  store double %22, double* %19, align 8, !tbaa !52
  store double %21, double* %20, align 8, !tbaa !52
  %23 = getelementptr inbounds %"struct.std::pair", %"struct.std::pair"* %0, i64 0, i32 1
  %24 = getelementptr inbounds %"struct.std::pair", %"struct.std::pair"* %18, i64 0, i32 1
  call void @_ZNSt7__cxx1112basic_stringIcSt11char_traitsIcESaIcEE4swapERS4_(%"class.std::__cxx11::basic_string"* nonnull align 8 dereferenceable(32) %23, %"class.std::__cxx11::basic_string"* nonnull align 8 dereferenceable(32) %24) #18
  ret void
}

; Function Attrs: nounwind
declare void @_ZNSt7__cxx1112basic_stringIcSt11char_traitsIcESaIcEE4swapERS4_(%"class.std::__cxx11::basic_string"* nonnull align 8 dereferenceable(32), %"class.std::__cxx11::basic_string"* nonnull align 8 dereferenceable(32)) local_unnamed_addr #1

; Function Attrs: mustprogress nofree nosync nounwind readnone speculatable willreturn
declare i64 @llvm.ctlz.i64(i64, i1 immarg) #15

; Function Attrs: sspstrong uwtable
define linkonce_odr dso_local void @_ZSt16__insertion_sortIN9__gnu_cxx17__normal_iteratorIPSt4pairIdNSt7__cxx1112basic_stringIcSt11char_traitsIcESaIcEEEESt6vectorIS9_SaIS9_EEEENS0_5__ops15_Iter_comp_iterIPFbS9_S9_EEEEvT_SK_T0_(%"struct.std::pair"* %0, %"struct.std::pair"* %1, i1 (%"struct.std::pair"*, %"struct.std::pair"*)* %2) local_unnamed_addr #12 comdat personality i8* bitcast (i32 (...)* @__gxx_personality_v0 to i8*) {
  %4 = alloca %"struct.__gnu_cxx::__ops::_Iter_comp_iter", align 8
  %5 = alloca %"struct.std::pair", align 8
  %6 = getelementptr inbounds %"struct.__gnu_cxx::__ops::_Iter_comp_iter", %"struct.__gnu_cxx::__ops::_Iter_comp_iter"* %4, i64 0, i32 0
  store i1 (%"struct.std::pair"*, %"struct.std::pair"*)* %2, i1 (%"struct.std::pair"*, %"struct.std::pair"*)** %6, align 8
  %7 = icmp eq %"struct.std::pair"* %0, %1
  br i1 %7, label %157, label %8

8:                                                ; preds = %3
  %9 = bitcast %"struct.std::pair"* %5 to i8*
  %10 = getelementptr inbounds %"struct.std::pair", %"struct.std::pair"* %5, i64 0, i32 0
  %11 = getelementptr inbounds %"struct.std::pair", %"struct.std::pair"* %5, i64 0, i32 1
  %12 = getelementptr inbounds %"struct.std::pair", %"struct.std::pair"* %5, i64 0, i32 1, i32 2
  %13 = bitcast %"class.std::__cxx11::basic_string"* %11 to %union.anon**
  %14 = getelementptr inbounds %"class.std::__cxx11::basic_string", %"class.std::__cxx11::basic_string"* %11, i64 0, i32 0, i32 0
  %15 = getelementptr inbounds %"struct.std::pair", %"struct.std::pair"* %5, i64 0, i32 1, i32 2, i32 0
  %16 = bitcast %union.anon* %12 to i8*
  %17 = getelementptr inbounds %"struct.std::pair", %"struct.std::pair"* %5, i64 0, i32 1, i32 1
  %18 = ptrtoint %"struct.std::pair"* %0 to i64
  %19 = getelementptr inbounds %"struct.std::pair", %"struct.std::pair"* %0, i64 0, i32 0
  %20 = getelementptr inbounds %"struct.std::pair", %"struct.std::pair"* %0, i64 0, i32 1, i32 0, i32 0
  %21 = getelementptr inbounds %"struct.std::pair", %"struct.std::pair"* %0, i64 0, i32 1, i32 2
  %22 = bitcast %union.anon* %21 to i8*
  %23 = getelementptr inbounds %"struct.std::pair", %"struct.std::pair"* %0, i64 0, i32 1, i32 2, i32 0
  %24 = getelementptr inbounds %"struct.std::pair", %"struct.std::pair"* %0, i64 0, i32 1, i32 1
  %25 = icmp eq %"struct.std::pair"* %5, %0
  %26 = getelementptr inbounds %"struct.std::pair", %"struct.std::pair"* %5, i64 0, i32 1, i32 0, i32 0
  %27 = getelementptr inbounds %"struct.std::pair", %"struct.std::pair"* %0, i64 1
  %28 = icmp eq %"struct.std::pair"* %27, %1
  br i1 %28, label %157, label %29

29:                                               ; preds = %8
  %30 = bitcast i64* %17 to <2 x i64>*
  %31 = bitcast i64* %24 to <2 x i64>*
  br label %32

32:                                               ; preds = %29, %154
  %33 = phi %"struct.std::pair"* [ %155, %154 ], [ %27, %29 ]
  %34 = phi %"struct.std::pair"* [ %33, %154 ], [ %0, %29 ]
  %35 = call zeroext i1 @_ZN9__gnu_cxx5__ops15_Iter_comp_iterIPFbSt4pairIdNSt7__cxx1112basic_stringIcSt11char_traitsIcESaIcEEEES9_EEclINS_17__normal_iteratorIPS9_St6vectorIS9_SaIS9_EEEESJ_EEbT_T0_(%"struct.__gnu_cxx::__ops::_Iter_comp_iter"* nonnull align 8 dereferenceable(8) %4, %"struct.std::pair"* nonnull %33, %"struct.std::pair"* %0)
  br i1 %35, label %36, label %152

36:                                               ; preds = %32
  call void @llvm.lifetime.start.p0i8(i64 40, i8* nonnull %9) #18
  %37 = getelementptr inbounds %"struct.std::pair", %"struct.std::pair"* %33, i64 0, i32 0
  %38 = load double, double* %37, align 8, !tbaa !17
  store double %38, double* %10, align 8, !tbaa !17
  %39 = getelementptr inbounds %"struct.std::pair", %"struct.std::pair"* %34, i64 1, i32 1
  store %union.anon* %12, %union.anon** %13, align 8, !tbaa !26
  %40 = getelementptr inbounds %"class.std::__cxx11::basic_string", %"class.std::__cxx11::basic_string"* %39, i64 0, i32 0, i32 0
  %41 = load i8*, i8** %40, align 8, !tbaa !11
  %42 = getelementptr inbounds %"struct.std::pair", %"struct.std::pair"* %34, i64 1, i32 1, i32 2
  %43 = bitcast %union.anon* %42 to i8*
  %44 = icmp eq i8* %41, %43
  br i1 %44, label %45, label %46

45:                                               ; preds = %36
  call void @llvm.memcpy.p0i8.p0i8.i64(i8* noundef nonnull align 8 dereferenceable(16) %16, i8* noundef nonnull align 8 dereferenceable(16) %41, i64 16, i1 false) #18
  br label %49

46:                                               ; preds = %36
  store i8* %41, i8** %14, align 8, !tbaa !11
  %47 = getelementptr inbounds %"struct.std::pair", %"struct.std::pair"* %34, i64 1, i32 1, i32 2, i32 0
  %48 = load i64, i64* %47, align 8, !tbaa !27
  store i64 %48, i64* %15, align 8, !tbaa !27
  br label %49

49:                                               ; preds = %45, %46
  %50 = phi i8* [ %16, %45 ], [ %41, %46 ]
  %51 = getelementptr inbounds %"struct.std::pair", %"struct.std::pair"* %34, i64 1, i32 1, i32 1
  %52 = load i64, i64* %51, align 8, !tbaa !20
  store i64 %52, i64* %17, align 8, !tbaa !20
  %53 = bitcast %"class.std::__cxx11::basic_string"* %39 to %union.anon**
  store %union.anon* %42, %union.anon** %53, align 8, !tbaa !11
  store i64 0, i64* %51, align 8, !tbaa !20
  store i8 0, i8* %43, align 8, !tbaa !27
  %54 = ptrtoint %"struct.std::pair"* %33 to i64
  %55 = sub i64 %54, %18
  %56 = icmp sgt i64 %55, 0
  br i1 %56, label %57, label %118

57:                                               ; preds = %49
  %58 = getelementptr inbounds %"struct.std::pair", %"struct.std::pair"* %34, i64 2
  %59 = udiv exact i64 %55, 40
  br label %60

60:                                               ; preds = %110, %57
  %61 = phi i64 [ %113, %110 ], [ %59, %57 ]
  %62 = phi %"struct.std::pair"* [ %65, %110 ], [ %58, %57 ]
  %63 = phi %"struct.std::pair"* [ %64, %110 ], [ %33, %57 ]
  %64 = getelementptr inbounds %"struct.std::pair", %"struct.std::pair"* %63, i64 -1
  %65 = getelementptr inbounds %"struct.std::pair", %"struct.std::pair"* %62, i64 -1
  %66 = getelementptr inbounds %"struct.std::pair", %"struct.std::pair"* %64, i64 0, i32 0
  %67 = load double, double* %66, align 8, !tbaa !52
  %68 = getelementptr inbounds %"struct.std::pair", %"struct.std::pair"* %65, i64 0, i32 0
  store double %67, double* %68, align 8, !tbaa !17
  %69 = getelementptr inbounds %"struct.std::pair", %"struct.std::pair"* %63, i64 -1, i32 1
  %70 = getelementptr inbounds %"struct.std::pair", %"struct.std::pair"* %62, i64 -1, i32 1, i32 0, i32 0
  %71 = getelementptr inbounds %"class.std::__cxx11::basic_string", %"class.std::__cxx11::basic_string"* %69, i64 0, i32 0, i32 0
  %72 = load i8*, i8** %71, align 8, !tbaa !11
  %73 = getelementptr inbounds %"struct.std::pair", %"struct.std::pair"* %63, i64 -1, i32 1, i32 2
  %74 = bitcast %union.anon* %73 to i8*
  %75 = icmp eq i8* %72, %74
  br i1 %75, label %76, label %92

76:                                               ; preds = %60
  %77 = getelementptr inbounds %"struct.std::pair", %"struct.std::pair"* %63, i64 -1, i32 1, i32 1
  %78 = load i64, i64* %77, align 8, !tbaa !20
  %79 = icmp eq i64 %78, 0
  br i1 %79, label %86, label %80

80:                                               ; preds = %76
  %81 = load i8*, i8** %70, align 8, !tbaa !11
  %82 = icmp eq i64 %78, 1
  br i1 %82, label %83, label %85

83:                                               ; preds = %80
  %84 = load i8, i8* %72, align 1, !tbaa !27
  store i8 %84, i8* %81, align 1, !tbaa !27
  br label %86

85:                                               ; preds = %80
  call void @llvm.memcpy.p0i8.p0i8.i64(i8* align 1 %81, i8* align 1 %72, i64 %78, i1 false) #18
  br label %86

86:                                               ; preds = %85, %83, %76
  %87 = load i64, i64* %77, align 8, !tbaa !20
  %88 = getelementptr inbounds %"struct.std::pair", %"struct.std::pair"* %62, i64 -1, i32 1, i32 1
  store i64 %87, i64* %88, align 8, !tbaa !20
  %89 = load i8*, i8** %70, align 8, !tbaa !11
  %90 = getelementptr inbounds i8, i8* %89, i64 %87
  store i8 0, i8* %90, align 1, !tbaa !27
  %91 = load i8*, i8** %71, align 8, !tbaa !11
  br label %110

92:                                               ; preds = %60
  %93 = getelementptr inbounds %"struct.std::pair", %"struct.std::pair"* %62, i64 -1, i32 1, i32 2
  %94 = bitcast %union.anon* %93 to i8*
  %95 = load i8*, i8** %70, align 8, !tbaa !11
  %96 = icmp eq i8* %95, %94
  %97 = getelementptr inbounds %"struct.std::pair", %"struct.std::pair"* %62, i64 -1, i32 1, i32 2, i32 0
  %98 = load i64, i64* %97, align 8
  store i8* %72, i8** %70, align 8, !tbaa !11
  %99 = getelementptr inbounds %"struct.std::pair", %"struct.std::pair"* %63, i64 -1, i32 1, i32 1
  %100 = load i64, i64* %99, align 8, !tbaa !20
  %101 = getelementptr inbounds %"struct.std::pair", %"struct.std::pair"* %62, i64 -1, i32 1, i32 1
  store i64 %100, i64* %101, align 8, !tbaa !20
  %102 = getelementptr %union.anon, %union.anon* %73, i64 0, i32 0
  %103 = load i64, i64* %102, align 8, !tbaa !27
  store i64 %103, i64* %97, align 8, !tbaa !27
  %104 = icmp eq i8* %95, null
  %105 = or i1 %96, %104
  br i1 %105, label %108, label %106

106:                                              ; preds = %92
  store i8* %95, i8** %71, align 8, !tbaa !11
  %107 = getelementptr inbounds %"struct.std::pair", %"struct.std::pair"* %63, i64 -1, i32 1, i32 2, i32 0
  store i64 %98, i64* %107, align 8, !tbaa !27
  br label %110

108:                                              ; preds = %92
  %109 = bitcast %"class.std::__cxx11::basic_string"* %69 to %union.anon**
  store %union.anon* %73, %union.anon** %109, align 8, !tbaa !11
  br label %110

110:                                              ; preds = %108, %106, %86
  %111 = phi i8* [ %91, %86 ], [ %95, %106 ], [ %74, %108 ]
  %112 = getelementptr inbounds %"struct.std::pair", %"struct.std::pair"* %63, i64 -1, i32 1, i32 1
  store i64 0, i64* %112, align 8, !tbaa !20
  store i8 0, i8* %111, align 1, !tbaa !27
  %113 = add nsw i64 %61, -1
  %114 = icmp sgt i64 %61, 1
  br i1 %114, label %60, label %115, !llvm.loop !64

115:                                              ; preds = %110
  %116 = load double, double* %10, align 8, !tbaa !52
  %117 = load i8*, i8** %14, align 8, !tbaa !11
  br label %118

118:                                              ; preds = %115, %49
  %119 = phi i8* [ %117, %115 ], [ %50, %49 ]
  %120 = phi double [ %116, %115 ], [ %38, %49 ]
  store double %120, double* %19, align 8, !tbaa !17
  %121 = icmp eq i8* %119, %16
  br i1 %121, label %122, label %137

122:                                              ; preds = %118
  br i1 %25, label %146, label %123, !prof !59

123:                                              ; preds = %122
  %124 = load i64, i64* %17, align 8, !tbaa !20
  %125 = icmp eq i64 %124, 0
  br i1 %125, label %132, label %126

126:                                              ; preds = %123
  %127 = load i8*, i8** %20, align 8, !tbaa !11
  %128 = icmp eq i64 %124, 1
  br i1 %128, label %129, label %131

129:                                              ; preds = %126
  %130 = load i8, i8* %16, align 8, !tbaa !27
  store i8 %130, i8* %127, align 1, !tbaa !27
  br label %132

131:                                              ; preds = %126
  call void @llvm.memcpy.p0i8.p0i8.i64(i8* align 1 %127, i8* nonnull align 8 %16, i64 %124, i1 false) #18
  br label %132

132:                                              ; preds = %131, %129, %123
  %133 = load i64, i64* %17, align 8, !tbaa !20
  store i64 %133, i64* %24, align 8, !tbaa !20
  %134 = load i8*, i8** %20, align 8, !tbaa !11
  %135 = getelementptr inbounds i8, i8* %134, i64 %133
  store i8 0, i8* %135, align 1, !tbaa !27
  %136 = load i8*, i8** %14, align 8, !tbaa !11
  br label %146

137:                                              ; preds = %118
  %138 = load i8*, i8** %20, align 8, !tbaa !11
  %139 = icmp eq i8* %138, %22
  %140 = load i64, i64* %23, align 8
  store i8* %119, i8** %20, align 8, !tbaa !11
  %141 = load <2 x i64>, <2 x i64>* %30, align 8, !tbaa !27
  store <2 x i64> %141, <2 x i64>* %31, align 8, !tbaa !27
  %142 = icmp eq i8* %138, null
  %143 = or i1 %139, %142
  br i1 %143, label %145, label %144

144:                                              ; preds = %137
  store i8* %138, i8** %14, align 8, !tbaa !11
  store i64 %140, i64* %15, align 8, !tbaa !27
  br label %146

145:                                              ; preds = %137
  store %union.anon* %12, %union.anon** %13, align 8, !tbaa !11
  br label %146

146:                                              ; preds = %122, %132, %144, %145
  %147 = phi i8* [ %136, %132 ], [ %138, %144 ], [ %16, %145 ], [ %16, %122 ]
  store i64 0, i64* %17, align 8, !tbaa !20
  store i8 0, i8* %147, align 1, !tbaa !27
  %148 = load i8*, i8** %26, align 8, !tbaa !11
  %149 = icmp eq i8* %148, %16
  br i1 %149, label %151, label %150

150:                                              ; preds = %146
  call void @_ZdlPv(i8* %148) #18
  br label %151

151:                                              ; preds = %146, %150
  call void @llvm.lifetime.end.p0i8(i64 40, i8* nonnull %9) #18
  br label %154

152:                                              ; preds = %32
  %153 = load i1 (%"struct.std::pair"*, %"struct.std::pair"*)*, i1 (%"struct.std::pair"*, %"struct.std::pair"*)** %6, align 8, !tbaa.struct !55
  call void @_ZSt25__unguarded_linear_insertIN9__gnu_cxx17__normal_iteratorIPSt4pairIdNSt7__cxx1112basic_stringIcSt11char_traitsIcESaIcEEEESt6vectorIS9_SaIS9_EEEENS0_5__ops14_Val_comp_iterIPFbS9_S9_EEEEvT_T0_(%"struct.std::pair"* nonnull %33, i1 (%"struct.std::pair"*, %"struct.std::pair"*)* %153)
  br label %154

154:                                              ; preds = %151, %152
  %155 = getelementptr inbounds %"struct.std::pair", %"struct.std::pair"* %33, i64 1
  %156 = icmp eq %"struct.std::pair"* %155, %1
  br i1 %156, label %157, label %32, !llvm.loop !65

157:                                              ; preds = %154, %8, %3
  ret void
}

; Function Attrs: sspstrong uwtable
define linkonce_odr dso_local void @_ZSt25__unguarded_linear_insertIN9__gnu_cxx17__normal_iteratorIPSt4pairIdNSt7__cxx1112basic_stringIcSt11char_traitsIcESaIcEEEESt6vectorIS9_SaIS9_EEEENS0_5__ops14_Val_comp_iterIPFbS9_S9_EEEEvT_T0_(%"struct.std::pair"* %0, i1 (%"struct.std::pair"*, %"struct.std::pair"*)* %1) local_unnamed_addr #12 comdat personality i8* bitcast (i32 (...)* @__gxx_personality_v0 to i8*) {
  %3 = alloca %"struct.__gnu_cxx::__ops::_Val_comp_iter", align 8
  %4 = alloca %"struct.std::pair", align 8
  %5 = getelementptr inbounds %"struct.__gnu_cxx::__ops::_Val_comp_iter", %"struct.__gnu_cxx::__ops::_Val_comp_iter"* %3, i64 0, i32 0
  store i1 (%"struct.std::pair"*, %"struct.std::pair"*)* %1, i1 (%"struct.std::pair"*, %"struct.std::pair"*)** %5, align 8
  %6 = bitcast %"struct.std::pair"* %4 to i8*
  call void @llvm.lifetime.start.p0i8(i64 40, i8* nonnull %6) #18
  %7 = getelementptr inbounds %"struct.std::pair", %"struct.std::pair"* %4, i64 0, i32 0
  %8 = getelementptr inbounds %"struct.std::pair", %"struct.std::pair"* %0, i64 0, i32 0
  %9 = load double, double* %8, align 8, !tbaa !17
  store double %9, double* %7, align 8, !tbaa !17
  %10 = getelementptr inbounds %"struct.std::pair", %"struct.std::pair"* %4, i64 0, i32 1
  %11 = getelementptr inbounds %"struct.std::pair", %"struct.std::pair"* %0, i64 0, i32 1
  %12 = getelementptr inbounds %"struct.std::pair", %"struct.std::pair"* %4, i64 0, i32 1, i32 2
  %13 = bitcast %"class.std::__cxx11::basic_string"* %10 to %union.anon**
  store %union.anon* %12, %union.anon** %13, align 8, !tbaa !26
  %14 = getelementptr inbounds %"class.std::__cxx11::basic_string", %"class.std::__cxx11::basic_string"* %11, i64 0, i32 0, i32 0
  %15 = load i8*, i8** %14, align 8, !tbaa !11
  %16 = getelementptr inbounds %"struct.std::pair", %"struct.std::pair"* %0, i64 0, i32 1, i32 2
  %17 = bitcast %union.anon* %16 to i8*
  %18 = icmp eq i8* %15, %17
  br i1 %18, label %19, label %21

19:                                               ; preds = %2
  %20 = bitcast %union.anon* %12 to i8*
  call void @llvm.memcpy.p0i8.p0i8.i64(i8* noundef nonnull align 8 dereferenceable(16) %20, i8* noundef nonnull align 8 dereferenceable(16) %15, i64 16, i1 false) #18
  br label %26

21:                                               ; preds = %2
  %22 = getelementptr inbounds %"class.std::__cxx11::basic_string", %"class.std::__cxx11::basic_string"* %10, i64 0, i32 0, i32 0
  store i8* %15, i8** %22, align 8, !tbaa !11
  %23 = getelementptr inbounds %"struct.std::pair", %"struct.std::pair"* %0, i64 0, i32 1, i32 2, i32 0
  %24 = load i64, i64* %23, align 8, !tbaa !27
  %25 = getelementptr inbounds %"struct.std::pair", %"struct.std::pair"* %4, i64 0, i32 1, i32 2, i32 0
  store i64 %24, i64* %25, align 8, !tbaa !27
  br label %26

26:                                               ; preds = %19, %21
  %27 = getelementptr inbounds %"struct.std::pair", %"struct.std::pair"* %0, i64 0, i32 1, i32 1
  %28 = load i64, i64* %27, align 8, !tbaa !20
  %29 = getelementptr inbounds %"struct.std::pair", %"struct.std::pair"* %4, i64 0, i32 1, i32 1
  store i64 %28, i64* %29, align 8, !tbaa !20
  %30 = bitcast %"class.std::__cxx11::basic_string"* %11 to %union.anon**
  store %union.anon* %16, %union.anon** %30, align 8, !tbaa !11
  store i64 0, i64* %27, align 8, !tbaa !20
  store i8 0, i8* %17, align 8, !tbaa !27
  br label %31

31:                                               ; preds = %81, %26
  %32 = phi %"struct.std::pair"* [ %0, %26 ], [ %33, %81 ]
  %33 = getelementptr inbounds %"struct.std::pair", %"struct.std::pair"* %32, i64 -1
  %34 = invoke zeroext i1 @_ZN9__gnu_cxx5__ops14_Val_comp_iterIPFbSt4pairIdNSt7__cxx1112basic_stringIcSt11char_traitsIcESaIcEEEES9_EEclIS9_NS_17__normal_iteratorIPS9_St6vectorIS9_SaIS9_EEEEEEbRT_T0_(%"struct.__gnu_cxx::__ops::_Val_comp_iter"* nonnull align 8 dereferenceable(8) %3, %"struct.std::pair"* nonnull align 8 dereferenceable(40) %4, %"struct.std::pair"* nonnull %33)
          to label %35 unwind label %84

35:                                               ; preds = %31
  br i1 %34, label %36, label %92

36:                                               ; preds = %35
  %37 = getelementptr inbounds %"struct.std::pair", %"struct.std::pair"* %33, i64 0, i32 0
  %38 = load double, double* %37, align 8, !tbaa !52
  %39 = getelementptr inbounds %"struct.std::pair", %"struct.std::pair"* %32, i64 0, i32 0
  store double %38, double* %39, align 8, !tbaa !17
  %40 = getelementptr inbounds %"struct.std::pair", %"struct.std::pair"* %32, i64 -1, i32 1
  %41 = getelementptr inbounds %"struct.std::pair", %"struct.std::pair"* %32, i64 0, i32 1, i32 0, i32 0
  %42 = getelementptr inbounds %"class.std::__cxx11::basic_string", %"class.std::__cxx11::basic_string"* %40, i64 0, i32 0, i32 0
  %43 = load i8*, i8** %42, align 8, !tbaa !11
  %44 = getelementptr inbounds %"struct.std::pair", %"struct.std::pair"* %32, i64 -1, i32 1, i32 2
  %45 = bitcast %union.anon* %44 to i8*
  %46 = icmp eq i8* %43, %45
  br i1 %46, label %47, label %63

47:                                               ; preds = %36
  %48 = getelementptr inbounds %"struct.std::pair", %"struct.std::pair"* %32, i64 -1, i32 1, i32 1
  %49 = load i64, i64* %48, align 8, !tbaa !20
  %50 = icmp eq i64 %49, 0
  br i1 %50, label %57, label %51

51:                                               ; preds = %47
  %52 = load i8*, i8** %41, align 8, !tbaa !11
  %53 = icmp eq i64 %49, 1
  br i1 %53, label %54, label %56

54:                                               ; preds = %51
  %55 = load i8, i8* %43, align 1, !tbaa !27
  store i8 %55, i8* %52, align 1, !tbaa !27
  br label %57

56:                                               ; preds = %51
  call void @llvm.memcpy.p0i8.p0i8.i64(i8* align 1 %52, i8* align 1 %43, i64 %49, i1 false) #18
  br label %57

57:                                               ; preds = %56, %54, %47
  %58 = load i64, i64* %48, align 8, !tbaa !20
  %59 = getelementptr inbounds %"struct.std::pair", %"struct.std::pair"* %32, i64 0, i32 1, i32 1
  store i64 %58, i64* %59, align 8, !tbaa !20
  %60 = load i8*, i8** %41, align 8, !tbaa !11
  %61 = getelementptr inbounds i8, i8* %60, i64 %58
  store i8 0, i8* %61, align 1, !tbaa !27
  %62 = load i8*, i8** %42, align 8, !tbaa !11
  br label %81

63:                                               ; preds = %36
  %64 = getelementptr inbounds %"struct.std::pair", %"struct.std::pair"* %32, i64 0, i32 1, i32 2
  %65 = bitcast %union.anon* %64 to i8*
  %66 = load i8*, i8** %41, align 8, !tbaa !11
  %67 = icmp eq i8* %66, %65
  %68 = getelementptr inbounds %"struct.std::pair", %"struct.std::pair"* %32, i64 0, i32 1, i32 2, i32 0
  %69 = load i64, i64* %68, align 8
  store i8* %43, i8** %41, align 8, !tbaa !11
  %70 = getelementptr inbounds %"struct.std::pair", %"struct.std::pair"* %32, i64 -1, i32 1, i32 1
  %71 = getelementptr inbounds %"struct.std::pair", %"struct.std::pair"* %32, i64 0, i32 1, i32 1
  %72 = bitcast i64* %70 to <2 x i64>*
  %73 = load <2 x i64>, <2 x i64>* %72, align 8, !tbaa !27
  %74 = bitcast i64* %71 to <2 x i64>*
  store <2 x i64> %73, <2 x i64>* %74, align 8, !tbaa !27
  %75 = icmp eq i8* %66, null
  %76 = or i1 %67, %75
  br i1 %76, label %79, label %77

77:                                               ; preds = %63
  store i8* %66, i8** %42, align 8, !tbaa !11
  %78 = getelementptr inbounds %"struct.std::pair", %"struct.std::pair"* %32, i64 -1, i32 1, i32 2, i32 0
  store i64 %69, i64* %78, align 8, !tbaa !27
  br label %81

79:                                               ; preds = %63
  %80 = bitcast %"class.std::__cxx11::basic_string"* %40 to %union.anon**
  store %union.anon* %44, %union.anon** %80, align 8, !tbaa !11
  br label %81

81:                                               ; preds = %57, %77, %79
  %82 = phi i8* [ %62, %57 ], [ %66, %77 ], [ %45, %79 ]
  %83 = getelementptr inbounds %"struct.std::pair", %"struct.std::pair"* %32, i64 -1, i32 1, i32 1
  store i64 0, i64* %83, align 8, !tbaa !20
  store i8 0, i8* %82, align 1, !tbaa !27
  br label %31, !llvm.loop !66

84:                                               ; preds = %31
  %85 = landingpad { i8*, i32 }
          cleanup
  %86 = getelementptr inbounds %"struct.std::pair", %"struct.std::pair"* %4, i64 0, i32 1, i32 0, i32 0
  %87 = load i8*, i8** %86, align 8, !tbaa !11
  %88 = bitcast %union.anon* %12 to i8*
  %89 = icmp eq i8* %87, %88
  br i1 %89, label %91, label %90

90:                                               ; preds = %84
  call void @_ZdlPv(i8* %87) #18
  br label %91

91:                                               ; preds = %84, %90
  call void @llvm.lifetime.end.p0i8(i64 40, i8* nonnull %6) #18
  resume { i8*, i32 } %85

92:                                               ; preds = %35
  %93 = load double, double* %7, align 8, !tbaa !52
  %94 = getelementptr inbounds %"struct.std::pair", %"struct.std::pair"* %32, i64 0, i32 0
  store double %93, double* %94, align 8, !tbaa !17
  %95 = getelementptr inbounds %"struct.std::pair", %"struct.std::pair"* %32, i64 0, i32 1, i32 0, i32 0
  %96 = getelementptr inbounds %"class.std::__cxx11::basic_string", %"class.std::__cxx11::basic_string"* %10, i64 0, i32 0, i32 0
  %97 = load i8*, i8** %96, align 8, !tbaa !11
  %98 = bitcast %union.anon* %12 to i8*
  %99 = icmp eq i8* %97, %98
  br i1 %99, label %100, label %117

100:                                              ; preds = %92
  %101 = icmp eq %"struct.std::pair"* %4, %32
  br i1 %101, label %133, label %102, !prof !59

102:                                              ; preds = %100
  %103 = load i64, i64* %29, align 8, !tbaa !20
  %104 = icmp eq i64 %103, 0
  br i1 %104, label %111, label %105

105:                                              ; preds = %102
  %106 = load i8*, i8** %95, align 8, !tbaa !11
  %107 = icmp eq i64 %103, 1
  br i1 %107, label %108, label %110

108:                                              ; preds = %105
  %109 = load i8, i8* %98, align 8, !tbaa !27
  store i8 %109, i8* %106, align 1, !tbaa !27
  br label %111

110:                                              ; preds = %105
  call void @llvm.memcpy.p0i8.p0i8.i64(i8* align 1 %106, i8* nonnull align 8 %98, i64 %103, i1 false) #18
  br label %111

111:                                              ; preds = %110, %108, %102
  %112 = load i64, i64* %29, align 8, !tbaa !20
  %113 = getelementptr inbounds %"struct.std::pair", %"struct.std::pair"* %32, i64 0, i32 1, i32 1
  store i64 %112, i64* %113, align 8, !tbaa !20
  %114 = load i8*, i8** %95, align 8, !tbaa !11
  %115 = getelementptr inbounds i8, i8* %114, i64 %112
  store i8 0, i8* %115, align 1, !tbaa !27
  %116 = load i8*, i8** %96, align 8, !tbaa !11
  br label %133

117:                                              ; preds = %92
  %118 = getelementptr inbounds %"struct.std::pair", %"struct.std::pair"* %32, i64 0, i32 1, i32 2
  %119 = bitcast %union.anon* %118 to i8*
  %120 = load i8*, i8** %95, align 8, !tbaa !11
  %121 = icmp eq i8* %120, %119
  %122 = getelementptr inbounds %"struct.std::pair", %"struct.std::pair"* %32, i64 0, i32 1, i32 2, i32 0
  %123 = load i64, i64* %122, align 8
  store i8* %97, i8** %95, align 8, !tbaa !11
  %124 = getelementptr inbounds %"struct.std::pair", %"struct.std::pair"* %32, i64 0, i32 1, i32 1
  %125 = bitcast i64* %29 to <2 x i64>*
  %126 = load <2 x i64>, <2 x i64>* %125, align 8, !tbaa !27
  %127 = bitcast i64* %124 to <2 x i64>*
  store <2 x i64> %126, <2 x i64>* %127, align 8, !tbaa !27
  %128 = icmp eq i8* %120, null
  %129 = or i1 %121, %128
  br i1 %129, label %132, label %130

130:                                              ; preds = %117
  store i8* %120, i8** %96, align 8, !tbaa !11
  %131 = getelementptr inbounds %"struct.std::pair", %"struct.std::pair"* %4, i64 0, i32 1, i32 2, i32 0
  store i64 %123, i64* %131, align 8, !tbaa !27
  br label %133

132:                                              ; preds = %117
  store %union.anon* %12, %union.anon** %13, align 8, !tbaa !11
  br label %133

133:                                              ; preds = %100, %111, %130, %132
  %134 = phi i8* [ %116, %111 ], [ %120, %130 ], [ %98, %132 ], [ %98, %100 ]
  store i64 0, i64* %29, align 8, !tbaa !20
  store i8 0, i8* %134, align 1, !tbaa !27
  %135 = getelementptr inbounds %"struct.std::pair", %"struct.std::pair"* %4, i64 0, i32 1, i32 0, i32 0
  %136 = load i8*, i8** %135, align 8, !tbaa !11
  %137 = icmp eq i8* %136, %98
  br i1 %137, label %139, label %138

138:                                              ; preds = %133
  call void @_ZdlPv(i8* %136) #18
  br label %139

139:                                              ; preds = %133, %138
  call void @llvm.lifetime.end.p0i8(i64 40, i8* nonnull %6) #18
  ret void
}

; Function Attrs: sspstrong uwtable
define linkonce_odr dso_local zeroext i1 @_ZN9__gnu_cxx5__ops14_Val_comp_iterIPFbSt4pairIdNSt7__cxx1112basic_stringIcSt11char_traitsIcESaIcEEEES9_EEclIS9_NS_17__normal_iteratorIPS9_St6vectorIS9_SaIS9_EEEEEEbRT_T0_(%"struct.__gnu_cxx::__ops::_Val_comp_iter"* nonnull align 8 dereferenceable(8) %0, %"struct.std::pair"* nonnull align 8 dereferenceable(40) %1, %"struct.std::pair"* %2) local_unnamed_addr #12 comdat align 2 personality i8* bitcast (i32 (...)* @__gxx_personality_v0 to i8*) {
  %4 = alloca i64, align 8
  %5 = alloca i64, align 8
  %6 = alloca %"struct.std::pair", align 8
  %7 = alloca %"struct.std::pair", align 8
  %8 = getelementptr inbounds %"struct.__gnu_cxx::__ops::_Val_comp_iter", %"struct.__gnu_cxx::__ops::_Val_comp_iter"* %0, i64 0, i32 0
  %9 = load i1 (%"struct.std::pair"*, %"struct.std::pair"*)*, i1 (%"struct.std::pair"*, %"struct.std::pair"*)** %8, align 8, !tbaa !67
  %10 = getelementptr inbounds %"struct.std::pair", %"struct.std::pair"* %6, i64 0, i32 0
  %11 = getelementptr inbounds %"struct.std::pair", %"struct.std::pair"* %1, i64 0, i32 0
  %12 = load double, double* %11, align 8, !tbaa !17
  store double %12, double* %10, align 8, !tbaa !17
  %13 = getelementptr inbounds %"struct.std::pair", %"struct.std::pair"* %6, i64 0, i32 1
  %14 = getelementptr inbounds %"struct.std::pair", %"struct.std::pair"* %6, i64 0, i32 1, i32 2
  %15 = bitcast %"class.std::__cxx11::basic_string"* %13 to %union.anon**
  store %union.anon* %14, %union.anon** %15, align 8, !tbaa !26
  %16 = getelementptr inbounds %"struct.std::pair", %"struct.std::pair"* %1, i64 0, i32 1, i32 0, i32 0
  %17 = load i8*, i8** %16, align 8, !tbaa !11
  %18 = getelementptr inbounds %"struct.std::pair", %"struct.std::pair"* %1, i64 0, i32 1, i32 1
  %19 = load i64, i64* %18, align 8, !tbaa !20
  %20 = bitcast i64* %5 to i8*
  call void @llvm.lifetime.start.p0i8(i64 8, i8* nonnull %20) #18
  store i64 %19, i64* %5, align 8, !tbaa !31
  %21 = icmp ugt i64 %19, 15
  br i1 %21, label %24, label %22

22:                                               ; preds = %3
  %23 = bitcast %union.anon* %14 to i8*
  br label %29

24:                                               ; preds = %3
  %25 = call i8* @_ZNSt7__cxx1112basic_stringIcSt11char_traitsIcESaIcEE9_M_createERmm(%"class.std::__cxx11::basic_string"* nonnull align 8 dereferenceable(32) %13, i64* nonnull align 8 dereferenceable(8) %5, i64 0)
  %26 = getelementptr inbounds %"class.std::__cxx11::basic_string", %"class.std::__cxx11::basic_string"* %13, i64 0, i32 0, i32 0
  store i8* %25, i8** %26, align 8, !tbaa !11
  %27 = load i64, i64* %5, align 8, !tbaa !31
  %28 = getelementptr inbounds %"struct.std::pair", %"struct.std::pair"* %6, i64 0, i32 1, i32 2, i32 0
  store i64 %27, i64* %28, align 8, !tbaa !27
  br label %29

29:                                               ; preds = %24, %22
  %30 = phi i8* [ %23, %22 ], [ %25, %24 ]
  switch i64 %19, label %33 [
    i64 1, label %31
    i64 0, label %34
  ]

31:                                               ; preds = %29
  %32 = load i8, i8* %17, align 1, !tbaa !27
  store i8 %32, i8* %30, align 1, !tbaa !27
  br label %34

33:                                               ; preds = %29
  call void @llvm.memcpy.p0i8.p0i8.i64(i8* align 1 %30, i8* align 1 %17, i64 %19, i1 false) #18
  br label %34

34:                                               ; preds = %29, %31, %33
  %35 = getelementptr inbounds %"class.std::__cxx11::basic_string", %"class.std::__cxx11::basic_string"* %13, i64 0, i32 0, i32 0
  %36 = load i64, i64* %5, align 8, !tbaa !31
  %37 = getelementptr inbounds %"struct.std::pair", %"struct.std::pair"* %6, i64 0, i32 1, i32 1
  store i64 %36, i64* %37, align 8, !tbaa !20
  %38 = load i8*, i8** %35, align 8, !tbaa !11
  %39 = getelementptr inbounds i8, i8* %38, i64 %36
  store i8 0, i8* %39, align 1, !tbaa !27
  call void @llvm.lifetime.end.p0i8(i64 8, i8* nonnull %20) #18
  %40 = getelementptr inbounds %"struct.std::pair", %"struct.std::pair"* %7, i64 0, i32 0
  %41 = getelementptr inbounds %"struct.std::pair", %"struct.std::pair"* %2, i64 0, i32 0
  %42 = load double, double* %41, align 8, !tbaa !17
  store double %42, double* %40, align 8, !tbaa !17
  %43 = getelementptr inbounds %"struct.std::pair", %"struct.std::pair"* %7, i64 0, i32 1
  %44 = getelementptr inbounds %"struct.std::pair", %"struct.std::pair"* %7, i64 0, i32 1, i32 2
  %45 = bitcast %"class.std::__cxx11::basic_string"* %43 to %union.anon**
  store %union.anon* %44, %union.anon** %45, align 8, !tbaa !26
  %46 = getelementptr inbounds %"struct.std::pair", %"struct.std::pair"* %2, i64 0, i32 1, i32 0, i32 0
  %47 = load i8*, i8** %46, align 8, !tbaa !11
  %48 = getelementptr inbounds %"struct.std::pair", %"struct.std::pair"* %2, i64 0, i32 1, i32 1
  %49 = load i64, i64* %48, align 8, !tbaa !20
  %50 = bitcast i64* %4 to i8*
  call void @llvm.lifetime.start.p0i8(i64 8, i8* nonnull %50) #18
  store i64 %49, i64* %4, align 8, !tbaa !31
  %51 = icmp ugt i64 %49, 15
  br i1 %51, label %54, label %52

52:                                               ; preds = %34
  %53 = bitcast %union.anon* %44 to i8*
  br label %60

54:                                               ; preds = %34
  %55 = invoke i8* @_ZNSt7__cxx1112basic_stringIcSt11char_traitsIcESaIcEE9_M_createERmm(%"class.std::__cxx11::basic_string"* nonnull align 8 dereferenceable(32) %43, i64* nonnull align 8 dereferenceable(8) %4, i64 0)
          to label %56 unwind label %85

56:                                               ; preds = %54
  %57 = getelementptr inbounds %"class.std::__cxx11::basic_string", %"class.std::__cxx11::basic_string"* %43, i64 0, i32 0, i32 0
  store i8* %55, i8** %57, align 8, !tbaa !11
  %58 = load i64, i64* %4, align 8, !tbaa !31
  %59 = getelementptr inbounds %"struct.std::pair", %"struct.std::pair"* %7, i64 0, i32 1, i32 2, i32 0
  store i64 %58, i64* %59, align 8, !tbaa !27
  br label %60

60:                                               ; preds = %56, %52
  %61 = phi i8* [ %53, %52 ], [ %55, %56 ]
  switch i64 %49, label %64 [
    i64 1, label %62
    i64 0, label %65
  ]

62:                                               ; preds = %60
  %63 = load i8, i8* %47, align 1, !tbaa !27
  store i8 %63, i8* %61, align 1, !tbaa !27
  br label %65

64:                                               ; preds = %60
  call void @llvm.memcpy.p0i8.p0i8.i64(i8* align 1 %61, i8* align 1 %47, i64 %49, i1 false) #18
  br label %65

65:                                               ; preds = %64, %62, %60
  %66 = getelementptr inbounds %"class.std::__cxx11::basic_string", %"class.std::__cxx11::basic_string"* %43, i64 0, i32 0, i32 0
  %67 = load i64, i64* %4, align 8, !tbaa !31
  %68 = getelementptr inbounds %"struct.std::pair", %"struct.std::pair"* %7, i64 0, i32 1, i32 1
  store i64 %67, i64* %68, align 8, !tbaa !20
  %69 = load i8*, i8** %66, align 8, !tbaa !11
  %70 = getelementptr inbounds i8, i8* %69, i64 %67
  store i8 0, i8* %70, align 1, !tbaa !27
  call void @llvm.lifetime.end.p0i8(i64 8, i8* nonnull %50) #18
  %71 = invoke zeroext i1 %9(%"struct.std::pair"* nonnull %6, %"struct.std::pair"* nonnull %7)
          to label %72 unwind label %87

72:                                               ; preds = %65
  %73 = getelementptr inbounds %"struct.std::pair", %"struct.std::pair"* %7, i64 0, i32 1, i32 0, i32 0
  %74 = load i8*, i8** %73, align 8, !tbaa !11
  %75 = bitcast %union.anon* %44 to i8*
  %76 = icmp eq i8* %74, %75
  br i1 %76, label %78, label %77

77:                                               ; preds = %72
  call void @_ZdlPv(i8* %74) #18
  br label %78

78:                                               ; preds = %72, %77
  %79 = getelementptr inbounds %"struct.std::pair", %"struct.std::pair"* %6, i64 0, i32 1, i32 0, i32 0
  %80 = load i8*, i8** %79, align 8, !tbaa !11
  %81 = bitcast %union.anon* %14 to i8*
  %82 = icmp eq i8* %80, %81
  br i1 %82, label %84, label %83

83:                                               ; preds = %78
  call void @_ZdlPv(i8* %80) #18
  br label %84

84:                                               ; preds = %78, %83
  ret i1 %71

85:                                               ; preds = %54
  %86 = landingpad { i8*, i32 }
          cleanup
  br label %94

87:                                               ; preds = %65
  %88 = landingpad { i8*, i32 }
          cleanup
  %89 = getelementptr inbounds %"struct.std::pair", %"struct.std::pair"* %7, i64 0, i32 1, i32 0, i32 0
  %90 = load i8*, i8** %89, align 8, !tbaa !11
  %91 = bitcast %union.anon* %44 to i8*
  %92 = icmp eq i8* %90, %91
  br i1 %92, label %94, label %93

93:                                               ; preds = %87
  call void @_ZdlPv(i8* %90) #18
  br label %94

94:                                               ; preds = %93, %87, %85
  %95 = phi { i8*, i32 } [ %86, %85 ], [ %88, %87 ], [ %88, %93 ]
  %96 = getelementptr inbounds %"struct.std::pair", %"struct.std::pair"* %6, i64 0, i32 1, i32 0, i32 0
  %97 = load i8*, i8** %96, align 8, !tbaa !11
  %98 = bitcast %union.anon* %14 to i8*
  %99 = icmp eq i8* %97, %98
  br i1 %99, label %101, label %100

100:                                              ; preds = %94
  call void @_ZdlPv(i8* %97) #18
  br label %101

101:                                              ; preds = %94, %100
  resume { i8*, i32 } %95
}

declare nonnull align 8 dereferenceable(8) %"class.std::basic_ostream"* @_ZSt16__ostream_insertIcSt11char_traitsIcEERSt13basic_ostreamIT_T0_ES6_PKS3_l(%"class.std::basic_ostream"* nonnull align 8 dereferenceable(8), i8*, i64) local_unnamed_addr #0

declare nonnull align 8 dereferenceable(8) %"class.std::basic_ostream"* @_ZNSo3putEc(%"class.std::basic_ostream"* nonnull align 8 dereferenceable(8), i8 signext) local_unnamed_addr #0

declare nonnull align 8 dereferenceable(8) %"class.std::basic_ostream"* @_ZNSo5flushEv(%"class.std::basic_ostream"* nonnull align 8 dereferenceable(8)) local_unnamed_addr #0

; Function Attrs: noreturn
declare void @_ZSt16__throw_bad_castv() local_unnamed_addr #10

declare void @_ZNKSt5ctypeIcE13_M_widen_initEv(%"class.std::ctype"* nonnull align 8 dereferenceable(570)) local_unnamed_addr #0

; Function Attrs: sspstrong uwtable
define internal void @_GLOBAL__sub_I_s136356039.cpp() #12 section ".text.startup" {
  tail call void @_ZNSt8ios_base4InitC1Ev(%"class.std::ios_base::Init"* nonnull align 1 dereferenceable(1) @_ZStL8__ioinit)
  %1 = tail call i32 @__cxa_atexit(void (i8*)* bitcast (void (%"class.std::ios_base::Init"*)* @_ZNSt8ios_base4InitD1Ev to void (i8*)*), i8* getelementptr inbounds (%"class.std::ios_base::Init", %"class.std::ios_base::Init"* @_ZStL8__ioinit, i64 0, i32 0), i8* nonnull @__dso_handle) #18
  tail call void @llvm.memset.p0i8.i64(i8* noundef nonnull align 8 dereferenceable(24) bitcast (%"class.std::vector"* @_Z1vB5cxx11 to i8*), i8 0, i64 24, i1 false) #18
  %2 = tail call i32 @__cxa_atexit(void (i8*)* bitcast (void (%"class.std::vector"*)* @_ZNSt6vectorISt4pairIdNSt7__cxx1112basic_stringIcSt11char_traitsIcESaIcEEEESaIS7_EED2Ev to void (i8*)*), i8* bitcast (%"class.std::vector"* @_Z1vB5cxx11 to i8*), i8* nonnull @__dso_handle) #18
  ret void
}

; Function Attrs: argmemonly nofree nounwind willreturn writeonly
declare void @llvm.memset.p0i8.i64(i8* nocapture writeonly, i8, i64, i1 immarg) #16

; Function Attrs: inaccessiblememonly nofree nosync nounwind willreturn
declare void @llvm.experimental.noalias.scope.decl(metadata) #17

attributes #0 = { "frame-pointer"="none" "no-trapping-math"="true" "stack-protector-buffer-size"="8" "target-cpu"="x86-64" "target-features"="+cx8,+fxsr,+mmx,+sse,+sse2,+x87" "tune-cpu"="generic" }
attributes #1 = { nounwind "frame-pointer"="none" "no-trapping-math"="true" "stack-protector-buffer-size"="8" "target-cpu"="x86-64" "target-features"="+cx8,+fxsr,+mmx,+sse,+sse2,+x87" "tune-cpu"="generic" }
attributes #2 = { nofree nounwind }
attributes #3 = { nounwind sspstrong uwtable "frame-pointer"="none" "min-legal-vector-width"="0" "no-trapping-math"="true" "stack-protector-buffer-size"="8" "target-cpu"="x86-64" "target-features"="+cx8,+fxsr,+mmx,+sse,+sse2,+x87" "tune-cpu"="generic" }
attributes #4 = { mustprogress nofree nounwind readonly sspstrong uwtable willreturn "frame-pointer"="none" "min-legal-vector-width"="0" "no-trapping-math"="true" "stack-protector-buffer-size"="8" "target-cpu"="x86-64" "target-features"="+cx8,+fxsr,+mmx,+sse,+sse2,+x87" "tune-cpu"="generic" }
attributes #5 = { norecurse sspstrong uwtable "frame-pointer"="none" "min-legal-vector-width"="0" "no-trapping-math"="true" "stack-protector-buffer-size"="8" "target-cpu"="x86-64" "target-features"="+cx8,+fxsr,+mmx,+sse,+sse2,+x87" "tune-cpu"="generic" }
attributes #6 = { argmemonly mustprogress nofree nosync nounwind willreturn }
attributes #7 = { argmemonly mustprogress nofree nounwind willreturn }
attributes #8 = { nobuiltin nounwind "frame-pointer"="none" "no-trapping-math"="true" "stack-protector-buffer-size"="8" "target-cpu"="x86-64" "target-features"="+cx8,+fxsr,+mmx,+sse,+sse2,+x87" "tune-cpu"="generic" }
attributes #9 = { argmemonly mustprogress nofree nounwind readonly willreturn "frame-pointer"="none" "no-trapping-math"="true" "stack-protector-buffer-size"="8" "target-cpu"="x86-64" "target-features"="+cx8,+fxsr,+mmx,+sse,+sse2,+x87" "tune-cpu"="generic" }
attributes #10 = { noreturn "frame-pointer"="none" "no-trapping-math"="true" "stack-protector-buffer-size"="8" "target-cpu"="x86-64" "target-features"="+cx8,+fxsr,+mmx,+sse,+sse2,+x87" "tune-cpu"="generic" }
attributes #11 = { nobuiltin allocsize(0) "frame-pointer"="none" "no-trapping-math"="true" "stack-protector-buffer-size"="8" "target-cpu"="x86-64" "target-features"="+cx8,+fxsr,+mmx,+sse,+sse2,+x87" "tune-cpu"="generic" }
attributes #12 = { sspstrong uwtable "frame-pointer"="none" "min-legal-vector-width"="0" "no-trapping-math"="true" "stack-protector-buffer-size"="8" "target-cpu"="x86-64" "target-features"="+cx8,+fxsr,+mmx,+sse,+sse2,+x87" "tune-cpu"="generic" }
attributes #13 = { inlinehint sspstrong uwtable "frame-pointer"="none" "min-legal-vector-width"="0" "no-trapping-math"="true" "stack-protector-buffer-size"="8" "target-cpu"="x86-64" "target-features"="+cx8,+fxsr,+mmx,+sse,+sse2,+x87" "tune-cpu"="generic" }
attributes #14 = { mustprogress sspstrong uwtable "frame-pointer"="none" "min-legal-vector-width"="0" "no-trapping-math"="true" "stack-protector-buffer-size"="8" "target-cpu"="x86-64" "target-features"="+cx8,+fxsr,+mmx,+sse,+sse2,+x87" "tune-cpu"="generic" }
attributes #15 = { mustprogress nofree nosync nounwind readnone speculatable willreturn }
attributes #16 = { argmemonly nofree nounwind willreturn writeonly }
attributes #17 = { inaccessiblememonly nofree nosync nounwind willreturn }
attributes #18 = { nounwind }
attributes #19 = { noreturn }
attributes #20 = { allocsize(0) }

!llvm.module.flags = !{!0, !1, !2, !3}
!llvm.ident = !{!4}

!0 = !{i32 1, !"wchar_size", i32 4}
!1 = !{i32 7, !"PIC Level", i32 2}
!2 = !{i32 7, !"PIE Level", i32 2}
!3 = !{i32 7, !"uwtable", i32 1}
!4 = !{!"clang version 13.0.0"}
!5 = !{!6, !7, i64 0}
!6 = !{!"_ZTSNSt12_Vector_baseISt4pairIdNSt7__cxx1112basic_stringIcSt11char_traitsIcESaIcEEEESaIS7_EE17_Vector_impl_dataE", !7, i64 0, !7, i64 8, !7, i64 16}
!7 = !{!"any pointer", !8, i64 0}
!8 = !{!"omnipotent char", !9, i64 0}
!9 = !{!"Simple C++ TBAA"}
!10 = !{!6, !7, i64 8}
!11 = !{!12, !7, i64 0}
!12 = !{!"_ZTSNSt7__cxx1112basic_stringIcSt11char_traitsIcESaIcEEE", !13, i64 0, !14, i64 8, !8, i64 16}
!13 = !{!"_ZTSNSt7__cxx1112basic_stringIcSt11char_traitsIcESaIcEE12_Alloc_hiderE", !7, i64 0}
!14 = !{!"long", !8, i64 0}
!15 = distinct !{!15, !16}
!16 = !{!"llvm.loop.mustprogress"}
!17 = !{!18, !19, i64 0}
!18 = !{!"_ZTSSt4pairIdNSt7__cxx1112basic_stringIcSt11char_traitsIcESaIcEEEE", !19, i64 0, !12, i64 8}
!19 = !{!"double", !8, i64 0}
!20 = !{!12, !14, i64 8}
!21 = !{!22, !22, i64 0}
!22 = !{!"int", !8, i64 0}
!23 = !{!7, !7, i64 0}
!24 = !{i64 0, i64 65}
!25 = distinct !{!25, !16}
!26 = !{!13, !7, i64 0}
!27 = !{!8, !8, i64 0}
!28 = !{!29}
!29 = distinct !{!29, !30, !"_ZSt9make_pairIRdRNSt7__cxx1112basic_stringIcSt11char_traitsIcESaIcEEEESt4pairINSt25__strip_reference_wrapperINSt5decayIT_E4typeEE6__typeENS9_INSA_IT0_E4typeEE6__typeEEOSB_OSG_: argument 0"}
!30 = distinct !{!30, !"_ZSt9make_pairIRdRNSt7__cxx1112basic_stringIcSt11char_traitsIcESaIcEEEESt4pairINSt25__strip_reference_wrapperINSt5decayIT_E4typeEE6__typeENS9_INSA_IT0_E4typeEE6__typeEEOSB_OSG_"}
!31 = !{!14, !14, i64 0}
!32 = !{!6, !7, i64 16}
!33 = !{!34}
!34 = distinct !{!34, !35, !"_ZSt19__relocate_object_aISt4pairIdNSt7__cxx1112basic_stringIcSt11char_traitsIcESaIcEEEES7_SaIS7_EEvPT_PT0_RT1_: argument 0"}
!35 = distinct !{!35, !"_ZSt19__relocate_object_aISt4pairIdNSt7__cxx1112basic_stringIcSt11char_traitsIcESaIcEEEES7_SaIS7_EEvPT_PT0_RT1_"}
!36 = !{!37}
!37 = distinct !{!37, !35, !"_ZSt19__relocate_object_aISt4pairIdNSt7__cxx1112basic_stringIcSt11char_traitsIcESaIcEEEES7_SaIS7_EEvPT_PT0_RT1_: argument 1"}
!38 = distinct !{!38, !16}
!39 = distinct !{!39, !16}
!40 = !{!41, !41, i64 0}
!41 = !{!"vtable pointer", !9, i64 0}
!42 = !{!43, !7, i64 240}
!43 = !{!"_ZTSSt9basic_iosIcSt11char_traitsIcEE", !7, i64 216, !8, i64 224, !44, i64 225, !7, i64 232, !7, i64 240, !7, i64 248, !7, i64 256}
!44 = !{!"bool", !8, i64 0}
!45 = !{!46, !8, i64 56}
!46 = !{!"_ZTSSt5ctypeIcE", !7, i64 16, !44, i64 24, !7, i64 32, !7, i64 40, !7, i64 48, !8, i64 56, !8, i64 57, !8, i64 313, !8, i64 569}
!47 = distinct !{!47, !16}
!48 = distinct !{!48, !16}
!49 = distinct !{!49, !16}
!50 = distinct !{!50, !16}
!51 = distinct !{!51, !16}
!52 = !{!19, !19, i64 0}
!53 = distinct !{!53, !16}
!54 = distinct !{!54, !16}
!55 = !{i64 0, i64 8, !23}
!56 = distinct !{!56, !16}
!57 = !{!58, !7, i64 0}
!58 = !{!"_ZTSN9__gnu_cxx5__ops15_Iter_comp_iterIPFbSt4pairIdNSt7__cxx1112basic_stringIcSt11char_traitsIcESaIcEEEES9_EEE", !7, i64 0}
!59 = !{!"branch_weights", i32 1, i32 2000}
!60 = distinct !{!60, !16}
!61 = !{!62, !7, i64 0}
!62 = !{!"_ZTSN9__gnu_cxx5__ops14_Iter_comp_valIPFbSt4pairIdNSt7__cxx1112basic_stringIcSt11char_traitsIcESaIcEEEES9_EEE", !7, i64 0}
!63 = distinct !{!63, !16}
!64 = distinct !{!64, !16}
!65 = distinct !{!65, !16}
!66 = distinct !{!66, !16}
!67 = !{!68, !7, i64 0}
!68 = !{!"_ZTSN9__gnu_cxx5__ops14_Val_comp_iterIPFbSt4pairIdNSt7__cxx1112basic_stringIcSt11char_traitsIcESaIcEEEES9_EEE", !7, i64 0}
