; ModuleID = 'Project_CodeNet_C++1400/p01315/s468351468.cpp'
source_filename = "Project_CodeNet_C++1400/p01315/s468351468.cpp"
target datalayout = "e-m:e-p270:32:32-p271:32:32-p272:64:64-i64:64-f80:128-n8:16:32:64-S128"
target triple = "x86_64-pc-linux-gnu"

%"class.std::ios_base::Init" = type { i8 }
%"class.std::basic_istream" = type { i32 (...)**, i64, %"class.std::basic_ios" }
%"class.std::basic_ios" = type { %"class.std::ios_base", %"class.std::basic_ostream"*, i8, i8, %"class.std::basic_streambuf"*, %"class.std::ctype"*, %"class.std::num_put"*, %"class.std::num_get"* }
%"class.std::ios_base" = type { i32 (...)**, i64, i64, i32, i32, i32, %"struct.std::ios_base::_Callback_list"*, %"struct.std::ios_base::_Words", [8 x %"struct.std::ios_base::_Words"], i32, %"struct.std::ios_base::_Words"*, %"class.std::locale" }
%"struct.std::ios_base::_Callback_list" = type { %"struct.std::ios_base::_Callback_list"*, void (i32, %"class.std::ios_base"*, i32)*, i32, i32 }
%"struct.std::ios_base::_Words" = type { i8*, i64 }
%"class.std::locale" = type { %"class.std::locale::_Impl"* }
%"class.std::locale::_Impl" = type { i32, %"class.std::locale::facet"**, i64, %"class.std::locale::facet"**, i8** }
%"class.std::locale::facet" = type <{ i32 (...)**, i32, [4 x i8] }>
%"class.std::basic_ostream" = type { i32 (...)**, %"class.std::basic_ios" }
%"class.std::basic_streambuf" = type { i32 (...)**, i8*, i8*, i8*, i8*, i8*, i8*, %"class.std::locale" }
%"class.std::ctype" = type <{ %"class.std::locale::facet.base", [4 x i8], %struct.__locale_struct*, i8, [7 x i8], i32*, i32*, i16*, i8, [256 x i8], [256 x i8], i8, [6 x i8] }>
%"class.std::locale::facet.base" = type <{ i32 (...)**, i32 }>
%struct.__locale_struct = type { [13 x %struct.__locale_data*], i16*, i32*, i32*, [13 x i8*] }
%struct.__locale_data = type opaque
%"class.std::num_put" = type { %"class.std::locale::facet.base", [4 x i8] }
%"class.std::num_get" = type { %"class.std::locale::facet.base", [4 x i8] }
%"class.std::vector" = type { %"struct.std::_Vector_base" }
%"struct.std::_Vector_base" = type { %"struct.std::_Vector_base<std::pair<double, std::__cxx11::basic_string<char>>, std::allocator<std::pair<double, std::__cxx11::basic_string<char>>>>::_Vector_impl" }
%"struct.std::_Vector_base<std::pair<double, std::__cxx11::basic_string<char>>, std::allocator<std::pair<double, std::__cxx11::basic_string<char>>>>::_Vector_impl" = type { %"struct.std::_Vector_base<std::pair<double, std::__cxx11::basic_string<char>>, std::allocator<std::pair<double, std::__cxx11::basic_string<char>>>>::_Vector_impl_data" }
%"struct.std::_Vector_base<std::pair<double, std::__cxx11::basic_string<char>>, std::allocator<std::pair<double, std::__cxx11::basic_string<char>>>>::_Vector_impl_data" = type { %"struct.std::pair"*, %"struct.std::pair"*, %"struct.std::pair"* }
%"struct.std::pair" = type { double, %"class.std::__cxx11::basic_string" }
%"class.std::__cxx11::basic_string" = type { %"struct.std::__cxx11::basic_string<char>::_Alloc_hider", i64, %union.anon }
%"struct.std::__cxx11::basic_string<char>::_Alloc_hider" = type { i8* }
%union.anon = type { i64, [8 x i8] }
%"struct.__gnu_cxx::__ops::_Iter_less_iter" = type { i8 }
%"struct.__gnu_cxx::__ops::_Iter_less_val" = type { i8 }

$_ZNSt6vectorISt4pairIdNSt7__cxx1112basic_stringIcSt11char_traitsIcESaIcEEEESaIS7_EED2Ev = comdat any

$_ZSt16__introsort_loopIN9__gnu_cxx17__normal_iteratorIPSt4pairIdNSt7__cxx1112basic_stringIcSt11char_traitsIcESaIcEEEESt6vectorIS9_SaIS9_EEEElNS0_5__ops15_Iter_less_iterEEvT_SH_T0_T1_ = comdat any

$_ZSt11__make_heapIN9__gnu_cxx17__normal_iteratorIPSt4pairIdNSt7__cxx1112basic_stringIcSt11char_traitsIcESaIcEEEESt6vectorIS9_SaIS9_EEEENS0_5__ops15_Iter_less_iterEEvT_SH_RT0_ = comdat any

$_ZSt10__pop_heapIN9__gnu_cxx17__normal_iteratorIPSt4pairIdNSt7__cxx1112basic_stringIcSt11char_traitsIcESaIcEEEESt6vectorIS9_SaIS9_EEEENS0_5__ops15_Iter_less_iterEEvT_SH_SH_RT0_ = comdat any

$_ZSt13__adjust_heapIN9__gnu_cxx17__normal_iteratorIPSt4pairIdNSt7__cxx1112basic_stringIcSt11char_traitsIcESaIcEEEESt6vectorIS9_SaIS9_EEEElS9_NS0_5__ops15_Iter_less_iterEEvT_T0_SI_T1_T2_ = comdat any

$_ZSt11__push_heapIN9__gnu_cxx17__normal_iteratorIPSt4pairIdNSt7__cxx1112basic_stringIcSt11char_traitsIcESaIcEEEESt6vectorIS9_SaIS9_EEEElS9_NS0_5__ops14_Iter_less_valEEvT_T0_SI_T1_RT2_ = comdat any

$_ZSt22__move_median_to_firstIN9__gnu_cxx17__normal_iteratorIPSt4pairIdNSt7__cxx1112basic_stringIcSt11char_traitsIcESaIcEEEESt6vectorIS9_SaIS9_EEEENS0_5__ops15_Iter_less_iterEEvT_SH_SH_SH_T0_ = comdat any

$_ZSt21__unguarded_partitionIN9__gnu_cxx17__normal_iteratorIPSt4pairIdNSt7__cxx1112basic_stringIcSt11char_traitsIcESaIcEEEESt6vectorIS9_SaIS9_EEEENS0_5__ops15_Iter_less_iterEET_SH_SH_SH_T0_ = comdat any

$_ZSt16__insertion_sortIN9__gnu_cxx17__normal_iteratorIPSt4pairIdNSt7__cxx1112basic_stringIcSt11char_traitsIcESaIcEEEESt6vectorIS9_SaIS9_EEEENS0_5__ops15_Iter_less_iterEEvT_SH_T0_ = comdat any

$_ZSt25__unguarded_linear_insertIN9__gnu_cxx17__normal_iteratorIPSt4pairIdNSt7__cxx1112basic_stringIcSt11char_traitsIcESaIcEEEESt6vectorIS9_SaIS9_EEEENS0_5__ops14_Val_less_iterEEvT_T0_ = comdat any

@_ZStL8__ioinit = internal global %"class.std::ios_base::Init" zeroinitializer, align 1
@__dso_handle = external hidden global i8
@_ZSt3cin = external global %"class.std::basic_istream", align 8
@_ZSt4cout = external global %"class.std::basic_ostream", align 8
@.str = private unnamed_addr constant [2 x i8] c"#\00", align 1
@llvm.global_ctors = appending global [1 x { i32, void ()*, i8* }] [{ i32, void ()*, i8* } { i32 65535, void ()* @_GLOBAL__sub_I_s468351468.cpp, i8* null }]

declare void @_ZNSt8ios_base4InitC1Ev(%"class.std::ios_base::Init"* nonnull align 1 dereferenceable(1)) unnamed_addr #0

; Function Attrs: nounwind
declare void @_ZNSt8ios_base4InitD1Ev(%"class.std::ios_base::Init"* nonnull align 1 dereferenceable(1)) unnamed_addr #1

; Function Attrs: nofree nounwind
declare i32 @__cxa_atexit(void (i8*)*, i8*, i8*) local_unnamed_addr #2

; Function Attrs: norecurse sspstrong uwtable
define dso_local i32 @main() local_unnamed_addr #3 personality i8* bitcast (i32 (...)* @__gxx_personality_v0 to i8*) {
  %1 = alloca i32, align 4
  %2 = alloca %"class.std::vector", align 8
  %3 = alloca [50 x %"class.std::__cxx11::basic_string"], align 16
  %4 = alloca [50 x i32], align 16
  %5 = alloca [50 x i32], align 16
  %6 = alloca [50 x i32], align 16
  %7 = alloca [50 x i32], align 16
  %8 = alloca [50 x i32], align 16
  %9 = alloca [50 x i32], align 16
  %10 = alloca [50 x i32], align 16
  %11 = alloca [50 x i32], align 16
  %12 = alloca [50 x i32], align 16
  %13 = alloca [50 x i32], align 16
  %14 = alloca [50 x i32], align 16
  %15 = bitcast i32* %1 to i8*
  call void @llvm.lifetime.start.p0i8(i64 4, i8* nonnull %15) #17
  %16 = bitcast %"class.std::vector"* %2 to i8*
  %17 = getelementptr inbounds %"class.std::vector", %"class.std::vector"* %2, i64 0, i32 0, i32 0, i32 0, i32 0
  %18 = bitcast %"class.std::vector"* %2 to i8**
  %19 = getelementptr inbounds %"class.std::vector", %"class.std::vector"* %2, i64 0, i32 0, i32 0, i32 0, i32 2
  %20 = bitcast %"struct.std::pair"** %19 to i8**
  %21 = getelementptr inbounds %"class.std::vector", %"class.std::vector"* %2, i64 0, i32 0, i32 0, i32 0, i32 1
  %22 = bitcast [50 x %"class.std::__cxx11::basic_string"]* %3 to i8*
  %23 = getelementptr inbounds [50 x %"class.std::__cxx11::basic_string"], [50 x %"class.std::__cxx11::basic_string"]* %3, i64 0, i64 0
  %24 = getelementptr inbounds [50 x %"class.std::__cxx11::basic_string"], [50 x %"class.std::__cxx11::basic_string"]* %3, i64 0, i64 50
  %25 = bitcast [50 x i32]* %4 to i8*
  %26 = bitcast [50 x i32]* %5 to i8*
  %27 = bitcast [50 x i32]* %6 to i8*
  %28 = bitcast [50 x i32]* %7 to i8*
  %29 = bitcast [50 x i32]* %8 to i8*
  %30 = bitcast [50 x i32]* %9 to i8*
  %31 = bitcast [50 x i32]* %10 to i8*
  %32 = bitcast [50 x i32]* %11 to i8*
  %33 = bitcast [50 x i32]* %12 to i8*
  %34 = bitcast [50 x i32]* %13 to i8*
  %35 = bitcast [50 x i32]* %14 to i8*
  %36 = call nonnull align 8 dereferenceable(16) %"class.std::basic_istream"* @_ZNSirsERi(%"class.std::basic_istream"* nonnull align 8 dereferenceable(16) @_ZSt3cin, i32* nonnull align 4 dereferenceable(4) %1)
  %37 = load i32, i32* %1, align 4, !tbaa !5
  %38 = icmp eq i32 %37, 0
  br i1 %38, label %891, label %39

39:                                               ; preds = %0
  %40 = bitcast %"struct.std::pair"** %21 to i8**
  %41 = getelementptr inbounds [50 x %"class.std::__cxx11::basic_string"], [50 x %"class.std::__cxx11::basic_string"]* %3, i64 0, i64 0, i32 2
  %42 = bitcast [50 x %"class.std::__cxx11::basic_string"]* %3 to %union.anon**
  %43 = getelementptr inbounds [50 x %"class.std::__cxx11::basic_string"], [50 x %"class.std::__cxx11::basic_string"]* %3, i64 0, i64 0, i32 1
  %44 = bitcast %union.anon* %41 to i8*
  %45 = getelementptr inbounds [50 x %"class.std::__cxx11::basic_string"], [50 x %"class.std::__cxx11::basic_string"]* %3, i64 0, i64 1
  %46 = getelementptr inbounds [50 x %"class.std::__cxx11::basic_string"], [50 x %"class.std::__cxx11::basic_string"]* %3, i64 0, i64 1, i32 2
  %47 = bitcast %"class.std::__cxx11::basic_string"* %45 to %union.anon**
  %48 = getelementptr inbounds [50 x %"class.std::__cxx11::basic_string"], [50 x %"class.std::__cxx11::basic_string"]* %3, i64 0, i64 1, i32 1
  %49 = bitcast %union.anon* %46 to i8*
  %50 = getelementptr inbounds [50 x %"class.std::__cxx11::basic_string"], [50 x %"class.std::__cxx11::basic_string"]* %3, i64 0, i64 2
  %51 = getelementptr inbounds [50 x %"class.std::__cxx11::basic_string"], [50 x %"class.std::__cxx11::basic_string"]* %3, i64 0, i64 2, i32 2
  %52 = bitcast %"class.std::__cxx11::basic_string"* %50 to %union.anon**
  %53 = getelementptr inbounds [50 x %"class.std::__cxx11::basic_string"], [50 x %"class.std::__cxx11::basic_string"]* %3, i64 0, i64 2, i32 1
  %54 = bitcast %union.anon* %51 to i8*
  %55 = getelementptr inbounds [50 x %"class.std::__cxx11::basic_string"], [50 x %"class.std::__cxx11::basic_string"]* %3, i64 0, i64 3
  %56 = getelementptr inbounds [50 x %"class.std::__cxx11::basic_string"], [50 x %"class.std::__cxx11::basic_string"]* %3, i64 0, i64 3, i32 2
  %57 = bitcast %"class.std::__cxx11::basic_string"* %55 to %union.anon**
  %58 = getelementptr inbounds [50 x %"class.std::__cxx11::basic_string"], [50 x %"class.std::__cxx11::basic_string"]* %3, i64 0, i64 3, i32 1
  %59 = bitcast %union.anon* %56 to i8*
  %60 = getelementptr inbounds [50 x %"class.std::__cxx11::basic_string"], [50 x %"class.std::__cxx11::basic_string"]* %3, i64 0, i64 4
  %61 = getelementptr inbounds [50 x %"class.std::__cxx11::basic_string"], [50 x %"class.std::__cxx11::basic_string"]* %3, i64 0, i64 4, i32 2
  %62 = bitcast %"class.std::__cxx11::basic_string"* %60 to %union.anon**
  %63 = getelementptr inbounds [50 x %"class.std::__cxx11::basic_string"], [50 x %"class.std::__cxx11::basic_string"]* %3, i64 0, i64 4, i32 1
  %64 = bitcast %union.anon* %61 to i8*
  %65 = getelementptr inbounds [50 x %"class.std::__cxx11::basic_string"], [50 x %"class.std::__cxx11::basic_string"]* %3, i64 0, i64 5
  %66 = getelementptr inbounds [50 x %"class.std::__cxx11::basic_string"], [50 x %"class.std::__cxx11::basic_string"]* %3, i64 0, i64 5, i32 2
  %67 = bitcast %"class.std::__cxx11::basic_string"* %65 to %union.anon**
  %68 = getelementptr inbounds [50 x %"class.std::__cxx11::basic_string"], [50 x %"class.std::__cxx11::basic_string"]* %3, i64 0, i64 5, i32 1
  %69 = bitcast %union.anon* %66 to i8*
  %70 = getelementptr inbounds [50 x %"class.std::__cxx11::basic_string"], [50 x %"class.std::__cxx11::basic_string"]* %3, i64 0, i64 6
  %71 = getelementptr inbounds [50 x %"class.std::__cxx11::basic_string"], [50 x %"class.std::__cxx11::basic_string"]* %3, i64 0, i64 6, i32 2
  %72 = bitcast %"class.std::__cxx11::basic_string"* %70 to %union.anon**
  %73 = getelementptr inbounds [50 x %"class.std::__cxx11::basic_string"], [50 x %"class.std::__cxx11::basic_string"]* %3, i64 0, i64 6, i32 1
  %74 = bitcast %union.anon* %71 to i8*
  %75 = getelementptr inbounds [50 x %"class.std::__cxx11::basic_string"], [50 x %"class.std::__cxx11::basic_string"]* %3, i64 0, i64 7
  %76 = getelementptr inbounds [50 x %"class.std::__cxx11::basic_string"], [50 x %"class.std::__cxx11::basic_string"]* %3, i64 0, i64 7, i32 2
  %77 = bitcast %"class.std::__cxx11::basic_string"* %75 to %union.anon**
  %78 = getelementptr inbounds [50 x %"class.std::__cxx11::basic_string"], [50 x %"class.std::__cxx11::basic_string"]* %3, i64 0, i64 7, i32 1
  %79 = bitcast %union.anon* %76 to i8*
  %80 = getelementptr inbounds [50 x %"class.std::__cxx11::basic_string"], [50 x %"class.std::__cxx11::basic_string"]* %3, i64 0, i64 8
  %81 = getelementptr inbounds [50 x %"class.std::__cxx11::basic_string"], [50 x %"class.std::__cxx11::basic_string"]* %3, i64 0, i64 8, i32 2
  %82 = bitcast %"class.std::__cxx11::basic_string"* %80 to %union.anon**
  %83 = getelementptr inbounds [50 x %"class.std::__cxx11::basic_string"], [50 x %"class.std::__cxx11::basic_string"]* %3, i64 0, i64 8, i32 1
  %84 = bitcast %union.anon* %81 to i8*
  %85 = getelementptr inbounds [50 x %"class.std::__cxx11::basic_string"], [50 x %"class.std::__cxx11::basic_string"]* %3, i64 0, i64 9
  %86 = getelementptr inbounds [50 x %"class.std::__cxx11::basic_string"], [50 x %"class.std::__cxx11::basic_string"]* %3, i64 0, i64 9, i32 2
  %87 = bitcast %"class.std::__cxx11::basic_string"* %85 to %union.anon**
  %88 = getelementptr inbounds [50 x %"class.std::__cxx11::basic_string"], [50 x %"class.std::__cxx11::basic_string"]* %3, i64 0, i64 9, i32 1
  %89 = bitcast %union.anon* %86 to i8*
  %90 = getelementptr inbounds [50 x %"class.std::__cxx11::basic_string"], [50 x %"class.std::__cxx11::basic_string"]* %3, i64 0, i64 10
  %91 = getelementptr inbounds [50 x %"class.std::__cxx11::basic_string"], [50 x %"class.std::__cxx11::basic_string"]* %3, i64 0, i64 10, i32 2
  %92 = bitcast %"class.std::__cxx11::basic_string"* %90 to %union.anon**
  %93 = getelementptr inbounds [50 x %"class.std::__cxx11::basic_string"], [50 x %"class.std::__cxx11::basic_string"]* %3, i64 0, i64 10, i32 1
  %94 = bitcast %union.anon* %91 to i8*
  %95 = getelementptr inbounds [50 x %"class.std::__cxx11::basic_string"], [50 x %"class.std::__cxx11::basic_string"]* %3, i64 0, i64 11
  %96 = getelementptr inbounds [50 x %"class.std::__cxx11::basic_string"], [50 x %"class.std::__cxx11::basic_string"]* %3, i64 0, i64 11, i32 2
  %97 = bitcast %"class.std::__cxx11::basic_string"* %95 to %union.anon**
  %98 = getelementptr inbounds [50 x %"class.std::__cxx11::basic_string"], [50 x %"class.std::__cxx11::basic_string"]* %3, i64 0, i64 11, i32 1
  %99 = bitcast %union.anon* %96 to i8*
  %100 = getelementptr inbounds [50 x %"class.std::__cxx11::basic_string"], [50 x %"class.std::__cxx11::basic_string"]* %3, i64 0, i64 12
  %101 = getelementptr inbounds [50 x %"class.std::__cxx11::basic_string"], [50 x %"class.std::__cxx11::basic_string"]* %3, i64 0, i64 12, i32 2
  %102 = bitcast %"class.std::__cxx11::basic_string"* %100 to %union.anon**
  %103 = getelementptr inbounds [50 x %"class.std::__cxx11::basic_string"], [50 x %"class.std::__cxx11::basic_string"]* %3, i64 0, i64 12, i32 1
  %104 = bitcast %union.anon* %101 to i8*
  %105 = getelementptr inbounds [50 x %"class.std::__cxx11::basic_string"], [50 x %"class.std::__cxx11::basic_string"]* %3, i64 0, i64 13
  %106 = getelementptr inbounds [50 x %"class.std::__cxx11::basic_string"], [50 x %"class.std::__cxx11::basic_string"]* %3, i64 0, i64 13, i32 2
  %107 = bitcast %"class.std::__cxx11::basic_string"* %105 to %union.anon**
  %108 = getelementptr inbounds [50 x %"class.std::__cxx11::basic_string"], [50 x %"class.std::__cxx11::basic_string"]* %3, i64 0, i64 13, i32 1
  %109 = bitcast %union.anon* %106 to i8*
  %110 = getelementptr inbounds [50 x %"class.std::__cxx11::basic_string"], [50 x %"class.std::__cxx11::basic_string"]* %3, i64 0, i64 14
  %111 = getelementptr inbounds [50 x %"class.std::__cxx11::basic_string"], [50 x %"class.std::__cxx11::basic_string"]* %3, i64 0, i64 14, i32 2
  %112 = bitcast %"class.std::__cxx11::basic_string"* %110 to %union.anon**
  %113 = getelementptr inbounds [50 x %"class.std::__cxx11::basic_string"], [50 x %"class.std::__cxx11::basic_string"]* %3, i64 0, i64 14, i32 1
  %114 = bitcast %union.anon* %111 to i8*
  %115 = getelementptr inbounds [50 x %"class.std::__cxx11::basic_string"], [50 x %"class.std::__cxx11::basic_string"]* %3, i64 0, i64 15
  %116 = getelementptr inbounds [50 x %"class.std::__cxx11::basic_string"], [50 x %"class.std::__cxx11::basic_string"]* %3, i64 0, i64 15, i32 2
  %117 = bitcast %"class.std::__cxx11::basic_string"* %115 to %union.anon**
  %118 = getelementptr inbounds [50 x %"class.std::__cxx11::basic_string"], [50 x %"class.std::__cxx11::basic_string"]* %3, i64 0, i64 15, i32 1
  %119 = bitcast %union.anon* %116 to i8*
  %120 = getelementptr inbounds [50 x %"class.std::__cxx11::basic_string"], [50 x %"class.std::__cxx11::basic_string"]* %3, i64 0, i64 16
  %121 = getelementptr inbounds [50 x %"class.std::__cxx11::basic_string"], [50 x %"class.std::__cxx11::basic_string"]* %3, i64 0, i64 16, i32 2
  %122 = bitcast %"class.std::__cxx11::basic_string"* %120 to %union.anon**
  %123 = getelementptr inbounds [50 x %"class.std::__cxx11::basic_string"], [50 x %"class.std::__cxx11::basic_string"]* %3, i64 0, i64 16, i32 1
  %124 = bitcast %union.anon* %121 to i8*
  %125 = getelementptr inbounds [50 x %"class.std::__cxx11::basic_string"], [50 x %"class.std::__cxx11::basic_string"]* %3, i64 0, i64 17
  %126 = getelementptr inbounds [50 x %"class.std::__cxx11::basic_string"], [50 x %"class.std::__cxx11::basic_string"]* %3, i64 0, i64 17, i32 2
  %127 = bitcast %"class.std::__cxx11::basic_string"* %125 to %union.anon**
  %128 = getelementptr inbounds [50 x %"class.std::__cxx11::basic_string"], [50 x %"class.std::__cxx11::basic_string"]* %3, i64 0, i64 17, i32 1
  %129 = bitcast %union.anon* %126 to i8*
  %130 = getelementptr inbounds [50 x %"class.std::__cxx11::basic_string"], [50 x %"class.std::__cxx11::basic_string"]* %3, i64 0, i64 18
  %131 = getelementptr inbounds [50 x %"class.std::__cxx11::basic_string"], [50 x %"class.std::__cxx11::basic_string"]* %3, i64 0, i64 18, i32 2
  %132 = bitcast %"class.std::__cxx11::basic_string"* %130 to %union.anon**
  %133 = getelementptr inbounds [50 x %"class.std::__cxx11::basic_string"], [50 x %"class.std::__cxx11::basic_string"]* %3, i64 0, i64 18, i32 1
  %134 = bitcast %union.anon* %131 to i8*
  %135 = getelementptr inbounds [50 x %"class.std::__cxx11::basic_string"], [50 x %"class.std::__cxx11::basic_string"]* %3, i64 0, i64 19
  %136 = getelementptr inbounds [50 x %"class.std::__cxx11::basic_string"], [50 x %"class.std::__cxx11::basic_string"]* %3, i64 0, i64 19, i32 2
  %137 = bitcast %"class.std::__cxx11::basic_string"* %135 to %union.anon**
  %138 = getelementptr inbounds [50 x %"class.std::__cxx11::basic_string"], [50 x %"class.std::__cxx11::basic_string"]* %3, i64 0, i64 19, i32 1
  %139 = bitcast %union.anon* %136 to i8*
  %140 = getelementptr inbounds [50 x %"class.std::__cxx11::basic_string"], [50 x %"class.std::__cxx11::basic_string"]* %3, i64 0, i64 20
  %141 = getelementptr inbounds [50 x %"class.std::__cxx11::basic_string"], [50 x %"class.std::__cxx11::basic_string"]* %3, i64 0, i64 20, i32 2
  %142 = bitcast %"class.std::__cxx11::basic_string"* %140 to %union.anon**
  %143 = getelementptr inbounds [50 x %"class.std::__cxx11::basic_string"], [50 x %"class.std::__cxx11::basic_string"]* %3, i64 0, i64 20, i32 1
  %144 = bitcast %union.anon* %141 to i8*
  %145 = getelementptr inbounds [50 x %"class.std::__cxx11::basic_string"], [50 x %"class.std::__cxx11::basic_string"]* %3, i64 0, i64 21
  %146 = getelementptr inbounds [50 x %"class.std::__cxx11::basic_string"], [50 x %"class.std::__cxx11::basic_string"]* %3, i64 0, i64 21, i32 2
  %147 = bitcast %"class.std::__cxx11::basic_string"* %145 to %union.anon**
  %148 = getelementptr inbounds [50 x %"class.std::__cxx11::basic_string"], [50 x %"class.std::__cxx11::basic_string"]* %3, i64 0, i64 21, i32 1
  %149 = bitcast %union.anon* %146 to i8*
  %150 = getelementptr inbounds [50 x %"class.std::__cxx11::basic_string"], [50 x %"class.std::__cxx11::basic_string"]* %3, i64 0, i64 22
  %151 = getelementptr inbounds [50 x %"class.std::__cxx11::basic_string"], [50 x %"class.std::__cxx11::basic_string"]* %3, i64 0, i64 22, i32 2
  %152 = bitcast %"class.std::__cxx11::basic_string"* %150 to %union.anon**
  %153 = getelementptr inbounds [50 x %"class.std::__cxx11::basic_string"], [50 x %"class.std::__cxx11::basic_string"]* %3, i64 0, i64 22, i32 1
  %154 = bitcast %union.anon* %151 to i8*
  %155 = getelementptr inbounds [50 x %"class.std::__cxx11::basic_string"], [50 x %"class.std::__cxx11::basic_string"]* %3, i64 0, i64 23
  %156 = getelementptr inbounds [50 x %"class.std::__cxx11::basic_string"], [50 x %"class.std::__cxx11::basic_string"]* %3, i64 0, i64 23, i32 2
  %157 = bitcast %"class.std::__cxx11::basic_string"* %155 to %union.anon**
  %158 = getelementptr inbounds [50 x %"class.std::__cxx11::basic_string"], [50 x %"class.std::__cxx11::basic_string"]* %3, i64 0, i64 23, i32 1
  %159 = bitcast %union.anon* %156 to i8*
  %160 = getelementptr inbounds [50 x %"class.std::__cxx11::basic_string"], [50 x %"class.std::__cxx11::basic_string"]* %3, i64 0, i64 24
  %161 = getelementptr inbounds [50 x %"class.std::__cxx11::basic_string"], [50 x %"class.std::__cxx11::basic_string"]* %3, i64 0, i64 24, i32 2
  %162 = bitcast %"class.std::__cxx11::basic_string"* %160 to %union.anon**
  %163 = getelementptr inbounds [50 x %"class.std::__cxx11::basic_string"], [50 x %"class.std::__cxx11::basic_string"]* %3, i64 0, i64 24, i32 1
  %164 = bitcast %union.anon* %161 to i8*
  %165 = getelementptr inbounds [50 x %"class.std::__cxx11::basic_string"], [50 x %"class.std::__cxx11::basic_string"]* %3, i64 0, i64 25
  %166 = getelementptr inbounds [50 x %"class.std::__cxx11::basic_string"], [50 x %"class.std::__cxx11::basic_string"]* %3, i64 0, i64 25, i32 2
  %167 = bitcast %"class.std::__cxx11::basic_string"* %165 to %union.anon**
  %168 = getelementptr inbounds [50 x %"class.std::__cxx11::basic_string"], [50 x %"class.std::__cxx11::basic_string"]* %3, i64 0, i64 25, i32 1
  %169 = bitcast %union.anon* %166 to i8*
  %170 = getelementptr inbounds [50 x %"class.std::__cxx11::basic_string"], [50 x %"class.std::__cxx11::basic_string"]* %3, i64 0, i64 26
  %171 = getelementptr inbounds [50 x %"class.std::__cxx11::basic_string"], [50 x %"class.std::__cxx11::basic_string"]* %3, i64 0, i64 26, i32 2
  %172 = bitcast %"class.std::__cxx11::basic_string"* %170 to %union.anon**
  %173 = getelementptr inbounds [50 x %"class.std::__cxx11::basic_string"], [50 x %"class.std::__cxx11::basic_string"]* %3, i64 0, i64 26, i32 1
  %174 = bitcast %union.anon* %171 to i8*
  %175 = getelementptr inbounds [50 x %"class.std::__cxx11::basic_string"], [50 x %"class.std::__cxx11::basic_string"]* %3, i64 0, i64 27
  %176 = getelementptr inbounds [50 x %"class.std::__cxx11::basic_string"], [50 x %"class.std::__cxx11::basic_string"]* %3, i64 0, i64 27, i32 2
  %177 = bitcast %"class.std::__cxx11::basic_string"* %175 to %union.anon**
  %178 = getelementptr inbounds [50 x %"class.std::__cxx11::basic_string"], [50 x %"class.std::__cxx11::basic_string"]* %3, i64 0, i64 27, i32 1
  %179 = bitcast %union.anon* %176 to i8*
  %180 = getelementptr inbounds [50 x %"class.std::__cxx11::basic_string"], [50 x %"class.std::__cxx11::basic_string"]* %3, i64 0, i64 28
  %181 = getelementptr inbounds [50 x %"class.std::__cxx11::basic_string"], [50 x %"class.std::__cxx11::basic_string"]* %3, i64 0, i64 28, i32 2
  %182 = bitcast %"class.std::__cxx11::basic_string"* %180 to %union.anon**
  %183 = getelementptr inbounds [50 x %"class.std::__cxx11::basic_string"], [50 x %"class.std::__cxx11::basic_string"]* %3, i64 0, i64 28, i32 1
  %184 = bitcast %union.anon* %181 to i8*
  %185 = getelementptr inbounds [50 x %"class.std::__cxx11::basic_string"], [50 x %"class.std::__cxx11::basic_string"]* %3, i64 0, i64 29
  %186 = getelementptr inbounds [50 x %"class.std::__cxx11::basic_string"], [50 x %"class.std::__cxx11::basic_string"]* %3, i64 0, i64 29, i32 2
  %187 = bitcast %"class.std::__cxx11::basic_string"* %185 to %union.anon**
  %188 = getelementptr inbounds [50 x %"class.std::__cxx11::basic_string"], [50 x %"class.std::__cxx11::basic_string"]* %3, i64 0, i64 29, i32 1
  %189 = bitcast %union.anon* %186 to i8*
  %190 = getelementptr inbounds [50 x %"class.std::__cxx11::basic_string"], [50 x %"class.std::__cxx11::basic_string"]* %3, i64 0, i64 30
  %191 = getelementptr inbounds [50 x %"class.std::__cxx11::basic_string"], [50 x %"class.std::__cxx11::basic_string"]* %3, i64 0, i64 30, i32 2
  %192 = bitcast %"class.std::__cxx11::basic_string"* %190 to %union.anon**
  %193 = getelementptr inbounds [50 x %"class.std::__cxx11::basic_string"], [50 x %"class.std::__cxx11::basic_string"]* %3, i64 0, i64 30, i32 1
  %194 = bitcast %union.anon* %191 to i8*
  %195 = getelementptr inbounds [50 x %"class.std::__cxx11::basic_string"], [50 x %"class.std::__cxx11::basic_string"]* %3, i64 0, i64 31
  %196 = getelementptr inbounds [50 x %"class.std::__cxx11::basic_string"], [50 x %"class.std::__cxx11::basic_string"]* %3, i64 0, i64 31, i32 2
  %197 = bitcast %"class.std::__cxx11::basic_string"* %195 to %union.anon**
  %198 = getelementptr inbounds [50 x %"class.std::__cxx11::basic_string"], [50 x %"class.std::__cxx11::basic_string"]* %3, i64 0, i64 31, i32 1
  %199 = bitcast %union.anon* %196 to i8*
  %200 = getelementptr inbounds [50 x %"class.std::__cxx11::basic_string"], [50 x %"class.std::__cxx11::basic_string"]* %3, i64 0, i64 32
  %201 = getelementptr inbounds [50 x %"class.std::__cxx11::basic_string"], [50 x %"class.std::__cxx11::basic_string"]* %3, i64 0, i64 32, i32 2
  %202 = bitcast %"class.std::__cxx11::basic_string"* %200 to %union.anon**
  %203 = getelementptr inbounds [50 x %"class.std::__cxx11::basic_string"], [50 x %"class.std::__cxx11::basic_string"]* %3, i64 0, i64 32, i32 1
  %204 = bitcast %union.anon* %201 to i8*
  %205 = getelementptr inbounds [50 x %"class.std::__cxx11::basic_string"], [50 x %"class.std::__cxx11::basic_string"]* %3, i64 0, i64 33
  %206 = getelementptr inbounds [50 x %"class.std::__cxx11::basic_string"], [50 x %"class.std::__cxx11::basic_string"]* %3, i64 0, i64 33, i32 2
  %207 = bitcast %"class.std::__cxx11::basic_string"* %205 to %union.anon**
  %208 = getelementptr inbounds [50 x %"class.std::__cxx11::basic_string"], [50 x %"class.std::__cxx11::basic_string"]* %3, i64 0, i64 33, i32 1
  %209 = bitcast %union.anon* %206 to i8*
  %210 = getelementptr inbounds [50 x %"class.std::__cxx11::basic_string"], [50 x %"class.std::__cxx11::basic_string"]* %3, i64 0, i64 34
  %211 = getelementptr inbounds [50 x %"class.std::__cxx11::basic_string"], [50 x %"class.std::__cxx11::basic_string"]* %3, i64 0, i64 34, i32 2
  %212 = bitcast %"class.std::__cxx11::basic_string"* %210 to %union.anon**
  %213 = getelementptr inbounds [50 x %"class.std::__cxx11::basic_string"], [50 x %"class.std::__cxx11::basic_string"]* %3, i64 0, i64 34, i32 1
  %214 = bitcast %union.anon* %211 to i8*
  %215 = getelementptr inbounds [50 x %"class.std::__cxx11::basic_string"], [50 x %"class.std::__cxx11::basic_string"]* %3, i64 0, i64 35
  %216 = getelementptr inbounds [50 x %"class.std::__cxx11::basic_string"], [50 x %"class.std::__cxx11::basic_string"]* %3, i64 0, i64 35, i32 2
  %217 = bitcast %"class.std::__cxx11::basic_string"* %215 to %union.anon**
  %218 = getelementptr inbounds [50 x %"class.std::__cxx11::basic_string"], [50 x %"class.std::__cxx11::basic_string"]* %3, i64 0, i64 35, i32 1
  %219 = bitcast %union.anon* %216 to i8*
  %220 = getelementptr inbounds [50 x %"class.std::__cxx11::basic_string"], [50 x %"class.std::__cxx11::basic_string"]* %3, i64 0, i64 36
  %221 = getelementptr inbounds [50 x %"class.std::__cxx11::basic_string"], [50 x %"class.std::__cxx11::basic_string"]* %3, i64 0, i64 36, i32 2
  %222 = bitcast %"class.std::__cxx11::basic_string"* %220 to %union.anon**
  %223 = getelementptr inbounds [50 x %"class.std::__cxx11::basic_string"], [50 x %"class.std::__cxx11::basic_string"]* %3, i64 0, i64 36, i32 1
  %224 = bitcast %union.anon* %221 to i8*
  %225 = getelementptr inbounds [50 x %"class.std::__cxx11::basic_string"], [50 x %"class.std::__cxx11::basic_string"]* %3, i64 0, i64 37
  %226 = getelementptr inbounds [50 x %"class.std::__cxx11::basic_string"], [50 x %"class.std::__cxx11::basic_string"]* %3, i64 0, i64 37, i32 2
  %227 = bitcast %"class.std::__cxx11::basic_string"* %225 to %union.anon**
  %228 = getelementptr inbounds [50 x %"class.std::__cxx11::basic_string"], [50 x %"class.std::__cxx11::basic_string"]* %3, i64 0, i64 37, i32 1
  %229 = bitcast %union.anon* %226 to i8*
  %230 = getelementptr inbounds [50 x %"class.std::__cxx11::basic_string"], [50 x %"class.std::__cxx11::basic_string"]* %3, i64 0, i64 38
  %231 = getelementptr inbounds [50 x %"class.std::__cxx11::basic_string"], [50 x %"class.std::__cxx11::basic_string"]* %3, i64 0, i64 38, i32 2
  %232 = bitcast %"class.std::__cxx11::basic_string"* %230 to %union.anon**
  %233 = getelementptr inbounds [50 x %"class.std::__cxx11::basic_string"], [50 x %"class.std::__cxx11::basic_string"]* %3, i64 0, i64 38, i32 1
  %234 = bitcast %union.anon* %231 to i8*
  %235 = getelementptr inbounds [50 x %"class.std::__cxx11::basic_string"], [50 x %"class.std::__cxx11::basic_string"]* %3, i64 0, i64 39
  %236 = getelementptr inbounds [50 x %"class.std::__cxx11::basic_string"], [50 x %"class.std::__cxx11::basic_string"]* %3, i64 0, i64 39, i32 2
  %237 = bitcast %"class.std::__cxx11::basic_string"* %235 to %union.anon**
  %238 = getelementptr inbounds [50 x %"class.std::__cxx11::basic_string"], [50 x %"class.std::__cxx11::basic_string"]* %3, i64 0, i64 39, i32 1
  %239 = bitcast %union.anon* %236 to i8*
  %240 = getelementptr inbounds [50 x %"class.std::__cxx11::basic_string"], [50 x %"class.std::__cxx11::basic_string"]* %3, i64 0, i64 40
  %241 = getelementptr inbounds [50 x %"class.std::__cxx11::basic_string"], [50 x %"class.std::__cxx11::basic_string"]* %3, i64 0, i64 40, i32 2
  %242 = bitcast %"class.std::__cxx11::basic_string"* %240 to %union.anon**
  %243 = getelementptr inbounds [50 x %"class.std::__cxx11::basic_string"], [50 x %"class.std::__cxx11::basic_string"]* %3, i64 0, i64 40, i32 1
  %244 = bitcast %union.anon* %241 to i8*
  %245 = getelementptr inbounds [50 x %"class.std::__cxx11::basic_string"], [50 x %"class.std::__cxx11::basic_string"]* %3, i64 0, i64 41
  %246 = getelementptr inbounds [50 x %"class.std::__cxx11::basic_string"], [50 x %"class.std::__cxx11::basic_string"]* %3, i64 0, i64 41, i32 2
  %247 = bitcast %"class.std::__cxx11::basic_string"* %245 to %union.anon**
  %248 = getelementptr inbounds [50 x %"class.std::__cxx11::basic_string"], [50 x %"class.std::__cxx11::basic_string"]* %3, i64 0, i64 41, i32 1
  %249 = bitcast %union.anon* %246 to i8*
  %250 = getelementptr inbounds [50 x %"class.std::__cxx11::basic_string"], [50 x %"class.std::__cxx11::basic_string"]* %3, i64 0, i64 42
  %251 = getelementptr inbounds [50 x %"class.std::__cxx11::basic_string"], [50 x %"class.std::__cxx11::basic_string"]* %3, i64 0, i64 42, i32 2
  %252 = bitcast %"class.std::__cxx11::basic_string"* %250 to %union.anon**
  %253 = getelementptr inbounds [50 x %"class.std::__cxx11::basic_string"], [50 x %"class.std::__cxx11::basic_string"]* %3, i64 0, i64 42, i32 1
  %254 = bitcast %union.anon* %251 to i8*
  %255 = getelementptr inbounds [50 x %"class.std::__cxx11::basic_string"], [50 x %"class.std::__cxx11::basic_string"]* %3, i64 0, i64 43
  %256 = getelementptr inbounds [50 x %"class.std::__cxx11::basic_string"], [50 x %"class.std::__cxx11::basic_string"]* %3, i64 0, i64 43, i32 2
  %257 = bitcast %"class.std::__cxx11::basic_string"* %255 to %union.anon**
  %258 = getelementptr inbounds [50 x %"class.std::__cxx11::basic_string"], [50 x %"class.std::__cxx11::basic_string"]* %3, i64 0, i64 43, i32 1
  %259 = bitcast %union.anon* %256 to i8*
  %260 = getelementptr inbounds [50 x %"class.std::__cxx11::basic_string"], [50 x %"class.std::__cxx11::basic_string"]* %3, i64 0, i64 44
  %261 = getelementptr inbounds [50 x %"class.std::__cxx11::basic_string"], [50 x %"class.std::__cxx11::basic_string"]* %3, i64 0, i64 44, i32 2
  %262 = bitcast %"class.std::__cxx11::basic_string"* %260 to %union.anon**
  %263 = getelementptr inbounds [50 x %"class.std::__cxx11::basic_string"], [50 x %"class.std::__cxx11::basic_string"]* %3, i64 0, i64 44, i32 1
  %264 = bitcast %union.anon* %261 to i8*
  %265 = getelementptr inbounds [50 x %"class.std::__cxx11::basic_string"], [50 x %"class.std::__cxx11::basic_string"]* %3, i64 0, i64 45
  %266 = getelementptr inbounds [50 x %"class.std::__cxx11::basic_string"], [50 x %"class.std::__cxx11::basic_string"]* %3, i64 0, i64 45, i32 2
  %267 = bitcast %"class.std::__cxx11::basic_string"* %265 to %union.anon**
  %268 = getelementptr inbounds [50 x %"class.std::__cxx11::basic_string"], [50 x %"class.std::__cxx11::basic_string"]* %3, i64 0, i64 45, i32 1
  %269 = bitcast %union.anon* %266 to i8*
  %270 = getelementptr inbounds [50 x %"class.std::__cxx11::basic_string"], [50 x %"class.std::__cxx11::basic_string"]* %3, i64 0, i64 46
  %271 = getelementptr inbounds [50 x %"class.std::__cxx11::basic_string"], [50 x %"class.std::__cxx11::basic_string"]* %3, i64 0, i64 46, i32 2
  %272 = bitcast %"class.std::__cxx11::basic_string"* %270 to %union.anon**
  %273 = getelementptr inbounds [50 x %"class.std::__cxx11::basic_string"], [50 x %"class.std::__cxx11::basic_string"]* %3, i64 0, i64 46, i32 1
  %274 = bitcast %union.anon* %271 to i8*
  %275 = getelementptr inbounds [50 x %"class.std::__cxx11::basic_string"], [50 x %"class.std::__cxx11::basic_string"]* %3, i64 0, i64 47
  %276 = getelementptr inbounds [50 x %"class.std::__cxx11::basic_string"], [50 x %"class.std::__cxx11::basic_string"]* %3, i64 0, i64 47, i32 2
  %277 = bitcast %"class.std::__cxx11::basic_string"* %275 to %union.anon**
  %278 = getelementptr inbounds [50 x %"class.std::__cxx11::basic_string"], [50 x %"class.std::__cxx11::basic_string"]* %3, i64 0, i64 47, i32 1
  %279 = bitcast %union.anon* %276 to i8*
  %280 = getelementptr inbounds [50 x %"class.std::__cxx11::basic_string"], [50 x %"class.std::__cxx11::basic_string"]* %3, i64 0, i64 48
  %281 = getelementptr inbounds [50 x %"class.std::__cxx11::basic_string"], [50 x %"class.std::__cxx11::basic_string"]* %3, i64 0, i64 48, i32 2
  %282 = bitcast %"class.std::__cxx11::basic_string"* %280 to %union.anon**
  %283 = getelementptr inbounds [50 x %"class.std::__cxx11::basic_string"], [50 x %"class.std::__cxx11::basic_string"]* %3, i64 0, i64 48, i32 1
  %284 = bitcast %union.anon* %281 to i8*
  %285 = getelementptr inbounds [50 x %"class.std::__cxx11::basic_string"], [50 x %"class.std::__cxx11::basic_string"]* %3, i64 0, i64 49
  %286 = getelementptr inbounds [50 x %"class.std::__cxx11::basic_string"], [50 x %"class.std::__cxx11::basic_string"]* %3, i64 0, i64 49, i32 2
  %287 = bitcast %"class.std::__cxx11::basic_string"* %285 to %union.anon**
  %288 = getelementptr inbounds [50 x %"class.std::__cxx11::basic_string"], [50 x %"class.std::__cxx11::basic_string"]* %3, i64 0, i64 49, i32 1
  %289 = bitcast %union.anon* %286 to i8*
  br label %290

290:                                              ; preds = %39, %869
  call void @llvm.lifetime.start.p0i8(i64 24, i8* nonnull %16) #17
  call void @llvm.memset.p0i8.i64(i8* noundef nonnull align 8 dereferenceable(24) %16, i8 0, i64 24, i1 false) #17
  %291 = call noalias nonnull i8* @_Znwm(i64 2000) #18
  store i8* %291, i8** %18, align 8, !tbaa !9
  %292 = getelementptr inbounds i8, i8* %291, i64 2000
  store i8* %292, i8** %20, align 8, !tbaa !12
  %293 = bitcast i8* %291 to double*
  store double 0.000000e+00, double* %293, align 8, !tbaa !13
  %294 = getelementptr inbounds i8, i8* %291, i64 8
  %295 = getelementptr inbounds i8, i8* %291, i64 24
  %296 = bitcast i8* %294 to i8**
  store i8* %295, i8** %296, align 8, !tbaa !19
  %297 = getelementptr inbounds i8, i8* %291, i64 16
  %298 = bitcast i8* %297 to i64*
  store i64 0, i64* %298, align 8, !tbaa !20
  store i8 0, i8* %295, align 8, !tbaa !21
  %299 = getelementptr inbounds i8, i8* %291, i64 40
  %300 = bitcast i8* %299 to double*
  store double 0.000000e+00, double* %300, align 8, !tbaa !13
  %301 = getelementptr inbounds i8, i8* %291, i64 48
  %302 = getelementptr inbounds i8, i8* %291, i64 64
  %303 = bitcast i8* %301 to i8**
  store i8* %302, i8** %303, align 8, !tbaa !19
  %304 = getelementptr inbounds i8, i8* %291, i64 56
  %305 = bitcast i8* %304 to i64*
  store i64 0, i64* %305, align 8, !tbaa !20
  store i8 0, i8* %302, align 8, !tbaa !21
  %306 = getelementptr inbounds i8, i8* %291, i64 80
  %307 = bitcast i8* %306 to double*
  store double 0.000000e+00, double* %307, align 8, !tbaa !13
  %308 = getelementptr inbounds i8, i8* %291, i64 88
  %309 = getelementptr inbounds i8, i8* %291, i64 104
  %310 = bitcast i8* %308 to i8**
  store i8* %309, i8** %310, align 8, !tbaa !19
  %311 = getelementptr inbounds i8, i8* %291, i64 96
  %312 = bitcast i8* %311 to i64*
  store i64 0, i64* %312, align 8, !tbaa !20
  store i8 0, i8* %309, align 8, !tbaa !21
  %313 = getelementptr inbounds i8, i8* %291, i64 120
  %314 = bitcast i8* %313 to double*
  store double 0.000000e+00, double* %314, align 8, !tbaa !13
  %315 = getelementptr inbounds i8, i8* %291, i64 128
  %316 = getelementptr inbounds i8, i8* %291, i64 144
  %317 = bitcast i8* %315 to i8**
  store i8* %316, i8** %317, align 8, !tbaa !19
  %318 = getelementptr inbounds i8, i8* %291, i64 136
  %319 = bitcast i8* %318 to i64*
  store i64 0, i64* %319, align 8, !tbaa !20
  store i8 0, i8* %316, align 8, !tbaa !21
  %320 = getelementptr inbounds i8, i8* %291, i64 160
  %321 = bitcast i8* %320 to double*
  store double 0.000000e+00, double* %321, align 8, !tbaa !13
  %322 = getelementptr inbounds i8, i8* %291, i64 168
  %323 = getelementptr inbounds i8, i8* %291, i64 184
  %324 = bitcast i8* %322 to i8**
  store i8* %323, i8** %324, align 8, !tbaa !19
  %325 = getelementptr inbounds i8, i8* %291, i64 176
  %326 = bitcast i8* %325 to i64*
  store i64 0, i64* %326, align 8, !tbaa !20
  store i8 0, i8* %323, align 8, !tbaa !21
  %327 = getelementptr inbounds i8, i8* %291, i64 200
  %328 = bitcast i8* %327 to double*
  store double 0.000000e+00, double* %328, align 8, !tbaa !13
  %329 = getelementptr inbounds i8, i8* %291, i64 208
  %330 = getelementptr inbounds i8, i8* %291, i64 224
  %331 = bitcast i8* %329 to i8**
  store i8* %330, i8** %331, align 8, !tbaa !19
  %332 = getelementptr inbounds i8, i8* %291, i64 216
  %333 = bitcast i8* %332 to i64*
  store i64 0, i64* %333, align 8, !tbaa !20
  store i8 0, i8* %330, align 8, !tbaa !21
  %334 = getelementptr inbounds i8, i8* %291, i64 240
  %335 = bitcast i8* %334 to double*
  store double 0.000000e+00, double* %335, align 8, !tbaa !13
  %336 = getelementptr inbounds i8, i8* %291, i64 248
  %337 = getelementptr inbounds i8, i8* %291, i64 264
  %338 = bitcast i8* %336 to i8**
  store i8* %337, i8** %338, align 8, !tbaa !19
  %339 = getelementptr inbounds i8, i8* %291, i64 256
  %340 = bitcast i8* %339 to i64*
  store i64 0, i64* %340, align 8, !tbaa !20
  store i8 0, i8* %337, align 8, !tbaa !21
  %341 = getelementptr inbounds i8, i8* %291, i64 280
  %342 = bitcast i8* %341 to double*
  store double 0.000000e+00, double* %342, align 8, !tbaa !13
  %343 = getelementptr inbounds i8, i8* %291, i64 288
  %344 = getelementptr inbounds i8, i8* %291, i64 304
  %345 = bitcast i8* %343 to i8**
  store i8* %344, i8** %345, align 8, !tbaa !19
  %346 = getelementptr inbounds i8, i8* %291, i64 296
  %347 = bitcast i8* %346 to i64*
  store i64 0, i64* %347, align 8, !tbaa !20
  store i8 0, i8* %344, align 8, !tbaa !21
  %348 = getelementptr inbounds i8, i8* %291, i64 320
  %349 = bitcast i8* %348 to double*
  store double 0.000000e+00, double* %349, align 8, !tbaa !13
  %350 = getelementptr inbounds i8, i8* %291, i64 328
  %351 = getelementptr inbounds i8, i8* %291, i64 344
  %352 = bitcast i8* %350 to i8**
  store i8* %351, i8** %352, align 8, !tbaa !19
  %353 = getelementptr inbounds i8, i8* %291, i64 336
  %354 = bitcast i8* %353 to i64*
  store i64 0, i64* %354, align 8, !tbaa !20
  store i8 0, i8* %351, align 8, !tbaa !21
  %355 = getelementptr inbounds i8, i8* %291, i64 360
  %356 = bitcast i8* %355 to double*
  store double 0.000000e+00, double* %356, align 8, !tbaa !13
  %357 = getelementptr inbounds i8, i8* %291, i64 368
  %358 = getelementptr inbounds i8, i8* %291, i64 384
  %359 = bitcast i8* %357 to i8**
  store i8* %358, i8** %359, align 8, !tbaa !19
  %360 = getelementptr inbounds i8, i8* %291, i64 376
  %361 = bitcast i8* %360 to i64*
  store i64 0, i64* %361, align 8, !tbaa !20
  store i8 0, i8* %358, align 8, !tbaa !21
  %362 = getelementptr inbounds i8, i8* %291, i64 400
  %363 = bitcast i8* %362 to double*
  store double 0.000000e+00, double* %363, align 8, !tbaa !13
  %364 = getelementptr inbounds i8, i8* %291, i64 408
  %365 = getelementptr inbounds i8, i8* %291, i64 424
  %366 = bitcast i8* %364 to i8**
  store i8* %365, i8** %366, align 8, !tbaa !19
  %367 = getelementptr inbounds i8, i8* %291, i64 416
  %368 = bitcast i8* %367 to i64*
  store i64 0, i64* %368, align 8, !tbaa !20
  store i8 0, i8* %365, align 8, !tbaa !21
  %369 = getelementptr inbounds i8, i8* %291, i64 440
  %370 = bitcast i8* %369 to double*
  store double 0.000000e+00, double* %370, align 8, !tbaa !13
  %371 = getelementptr inbounds i8, i8* %291, i64 448
  %372 = getelementptr inbounds i8, i8* %291, i64 464
  %373 = bitcast i8* %371 to i8**
  store i8* %372, i8** %373, align 8, !tbaa !19
  %374 = getelementptr inbounds i8, i8* %291, i64 456
  %375 = bitcast i8* %374 to i64*
  store i64 0, i64* %375, align 8, !tbaa !20
  store i8 0, i8* %372, align 8, !tbaa !21
  %376 = getelementptr inbounds i8, i8* %291, i64 480
  %377 = bitcast i8* %376 to double*
  store double 0.000000e+00, double* %377, align 8, !tbaa !13
  %378 = getelementptr inbounds i8, i8* %291, i64 488
  %379 = getelementptr inbounds i8, i8* %291, i64 504
  %380 = bitcast i8* %378 to i8**
  store i8* %379, i8** %380, align 8, !tbaa !19
  %381 = getelementptr inbounds i8, i8* %291, i64 496
  %382 = bitcast i8* %381 to i64*
  store i64 0, i64* %382, align 8, !tbaa !20
  store i8 0, i8* %379, align 8, !tbaa !21
  %383 = getelementptr inbounds i8, i8* %291, i64 520
  %384 = bitcast i8* %383 to double*
  store double 0.000000e+00, double* %384, align 8, !tbaa !13
  %385 = getelementptr inbounds i8, i8* %291, i64 528
  %386 = getelementptr inbounds i8, i8* %291, i64 544
  %387 = bitcast i8* %385 to i8**
  store i8* %386, i8** %387, align 8, !tbaa !19
  %388 = getelementptr inbounds i8, i8* %291, i64 536
  %389 = bitcast i8* %388 to i64*
  store i64 0, i64* %389, align 8, !tbaa !20
  store i8 0, i8* %386, align 8, !tbaa !21
  %390 = getelementptr inbounds i8, i8* %291, i64 560
  %391 = bitcast i8* %390 to double*
  store double 0.000000e+00, double* %391, align 8, !tbaa !13
  %392 = getelementptr inbounds i8, i8* %291, i64 568
  %393 = getelementptr inbounds i8, i8* %291, i64 584
  %394 = bitcast i8* %392 to i8**
  store i8* %393, i8** %394, align 8, !tbaa !19
  %395 = getelementptr inbounds i8, i8* %291, i64 576
  %396 = bitcast i8* %395 to i64*
  store i64 0, i64* %396, align 8, !tbaa !20
  store i8 0, i8* %393, align 8, !tbaa !21
  %397 = getelementptr inbounds i8, i8* %291, i64 600
  %398 = bitcast i8* %397 to double*
  store double 0.000000e+00, double* %398, align 8, !tbaa !13
  %399 = getelementptr inbounds i8, i8* %291, i64 608
  %400 = getelementptr inbounds i8, i8* %291, i64 624
  %401 = bitcast i8* %399 to i8**
  store i8* %400, i8** %401, align 8, !tbaa !19
  %402 = getelementptr inbounds i8, i8* %291, i64 616
  %403 = bitcast i8* %402 to i64*
  store i64 0, i64* %403, align 8, !tbaa !20
  store i8 0, i8* %400, align 8, !tbaa !21
  %404 = getelementptr inbounds i8, i8* %291, i64 640
  %405 = bitcast i8* %404 to double*
  store double 0.000000e+00, double* %405, align 8, !tbaa !13
  %406 = getelementptr inbounds i8, i8* %291, i64 648
  %407 = getelementptr inbounds i8, i8* %291, i64 664
  %408 = bitcast i8* %406 to i8**
  store i8* %407, i8** %408, align 8, !tbaa !19
  %409 = getelementptr inbounds i8, i8* %291, i64 656
  %410 = bitcast i8* %409 to i64*
  store i64 0, i64* %410, align 8, !tbaa !20
  store i8 0, i8* %407, align 8, !tbaa !21
  %411 = getelementptr inbounds i8, i8* %291, i64 680
  %412 = bitcast i8* %411 to double*
  store double 0.000000e+00, double* %412, align 8, !tbaa !13
  %413 = getelementptr inbounds i8, i8* %291, i64 688
  %414 = getelementptr inbounds i8, i8* %291, i64 704
  %415 = bitcast i8* %413 to i8**
  store i8* %414, i8** %415, align 8, !tbaa !19
  %416 = getelementptr inbounds i8, i8* %291, i64 696
  %417 = bitcast i8* %416 to i64*
  store i64 0, i64* %417, align 8, !tbaa !20
  store i8 0, i8* %414, align 8, !tbaa !21
  %418 = getelementptr inbounds i8, i8* %291, i64 720
  %419 = bitcast i8* %418 to double*
  store double 0.000000e+00, double* %419, align 8, !tbaa !13
  %420 = getelementptr inbounds i8, i8* %291, i64 728
  %421 = getelementptr inbounds i8, i8* %291, i64 744
  %422 = bitcast i8* %420 to i8**
  store i8* %421, i8** %422, align 8, !tbaa !19
  %423 = getelementptr inbounds i8, i8* %291, i64 736
  %424 = bitcast i8* %423 to i64*
  store i64 0, i64* %424, align 8, !tbaa !20
  store i8 0, i8* %421, align 8, !tbaa !21
  %425 = getelementptr inbounds i8, i8* %291, i64 760
  %426 = bitcast i8* %425 to double*
  store double 0.000000e+00, double* %426, align 8, !tbaa !13
  %427 = getelementptr inbounds i8, i8* %291, i64 768
  %428 = getelementptr inbounds i8, i8* %291, i64 784
  %429 = bitcast i8* %427 to i8**
  store i8* %428, i8** %429, align 8, !tbaa !19
  %430 = getelementptr inbounds i8, i8* %291, i64 776
  %431 = bitcast i8* %430 to i64*
  store i64 0, i64* %431, align 8, !tbaa !20
  store i8 0, i8* %428, align 8, !tbaa !21
  %432 = getelementptr inbounds i8, i8* %291, i64 800
  %433 = bitcast i8* %432 to double*
  store double 0.000000e+00, double* %433, align 8, !tbaa !13
  %434 = getelementptr inbounds i8, i8* %291, i64 808
  %435 = getelementptr inbounds i8, i8* %291, i64 824
  %436 = bitcast i8* %434 to i8**
  store i8* %435, i8** %436, align 8, !tbaa !19
  %437 = getelementptr inbounds i8, i8* %291, i64 816
  %438 = bitcast i8* %437 to i64*
  store i64 0, i64* %438, align 8, !tbaa !20
  store i8 0, i8* %435, align 8, !tbaa !21
  %439 = getelementptr inbounds i8, i8* %291, i64 840
  %440 = bitcast i8* %439 to double*
  store double 0.000000e+00, double* %440, align 8, !tbaa !13
  %441 = getelementptr inbounds i8, i8* %291, i64 848
  %442 = getelementptr inbounds i8, i8* %291, i64 864
  %443 = bitcast i8* %441 to i8**
  store i8* %442, i8** %443, align 8, !tbaa !19
  %444 = getelementptr inbounds i8, i8* %291, i64 856
  %445 = bitcast i8* %444 to i64*
  store i64 0, i64* %445, align 8, !tbaa !20
  store i8 0, i8* %442, align 8, !tbaa !21
  %446 = getelementptr inbounds i8, i8* %291, i64 880
  %447 = bitcast i8* %446 to double*
  store double 0.000000e+00, double* %447, align 8, !tbaa !13
  %448 = getelementptr inbounds i8, i8* %291, i64 888
  %449 = getelementptr inbounds i8, i8* %291, i64 904
  %450 = bitcast i8* %448 to i8**
  store i8* %449, i8** %450, align 8, !tbaa !19
  %451 = getelementptr inbounds i8, i8* %291, i64 896
  %452 = bitcast i8* %451 to i64*
  store i64 0, i64* %452, align 8, !tbaa !20
  store i8 0, i8* %449, align 8, !tbaa !21
  %453 = getelementptr inbounds i8, i8* %291, i64 920
  %454 = bitcast i8* %453 to double*
  store double 0.000000e+00, double* %454, align 8, !tbaa !13
  %455 = getelementptr inbounds i8, i8* %291, i64 928
  %456 = getelementptr inbounds i8, i8* %291, i64 944
  %457 = bitcast i8* %455 to i8**
  store i8* %456, i8** %457, align 8, !tbaa !19
  %458 = getelementptr inbounds i8, i8* %291, i64 936
  %459 = bitcast i8* %458 to i64*
  store i64 0, i64* %459, align 8, !tbaa !20
  store i8 0, i8* %456, align 8, !tbaa !21
  %460 = getelementptr inbounds i8, i8* %291, i64 960
  %461 = bitcast i8* %460 to double*
  store double 0.000000e+00, double* %461, align 8, !tbaa !13
  %462 = getelementptr inbounds i8, i8* %291, i64 968
  %463 = getelementptr inbounds i8, i8* %291, i64 984
  %464 = bitcast i8* %462 to i8**
  store i8* %463, i8** %464, align 8, !tbaa !19
  %465 = getelementptr inbounds i8, i8* %291, i64 976
  %466 = bitcast i8* %465 to i64*
  store i64 0, i64* %466, align 8, !tbaa !20
  store i8 0, i8* %463, align 8, !tbaa !21
  %467 = getelementptr inbounds i8, i8* %291, i64 1000
  %468 = bitcast i8* %467 to double*
  store double 0.000000e+00, double* %468, align 8, !tbaa !13
  %469 = getelementptr inbounds i8, i8* %291, i64 1008
  %470 = getelementptr inbounds i8, i8* %291, i64 1024
  %471 = bitcast i8* %469 to i8**
  store i8* %470, i8** %471, align 8, !tbaa !19
  %472 = getelementptr inbounds i8, i8* %291, i64 1016
  %473 = bitcast i8* %472 to i64*
  store i64 0, i64* %473, align 8, !tbaa !20
  store i8 0, i8* %470, align 8, !tbaa !21
  %474 = getelementptr inbounds i8, i8* %291, i64 1040
  %475 = bitcast i8* %474 to double*
  store double 0.000000e+00, double* %475, align 8, !tbaa !13
  %476 = getelementptr inbounds i8, i8* %291, i64 1048
  %477 = getelementptr inbounds i8, i8* %291, i64 1064
  %478 = bitcast i8* %476 to i8**
  store i8* %477, i8** %478, align 8, !tbaa !19
  %479 = getelementptr inbounds i8, i8* %291, i64 1056
  %480 = bitcast i8* %479 to i64*
  store i64 0, i64* %480, align 8, !tbaa !20
  store i8 0, i8* %477, align 8, !tbaa !21
  %481 = getelementptr inbounds i8, i8* %291, i64 1080
  %482 = bitcast i8* %481 to double*
  store double 0.000000e+00, double* %482, align 8, !tbaa !13
  %483 = getelementptr inbounds i8, i8* %291, i64 1088
  %484 = getelementptr inbounds i8, i8* %291, i64 1104
  %485 = bitcast i8* %483 to i8**
  store i8* %484, i8** %485, align 8, !tbaa !19
  %486 = getelementptr inbounds i8, i8* %291, i64 1096
  %487 = bitcast i8* %486 to i64*
  store i64 0, i64* %487, align 8, !tbaa !20
  store i8 0, i8* %484, align 8, !tbaa !21
  %488 = getelementptr inbounds i8, i8* %291, i64 1120
  %489 = bitcast i8* %488 to double*
  store double 0.000000e+00, double* %489, align 8, !tbaa !13
  %490 = getelementptr inbounds i8, i8* %291, i64 1128
  %491 = getelementptr inbounds i8, i8* %291, i64 1144
  %492 = bitcast i8* %490 to i8**
  store i8* %491, i8** %492, align 8, !tbaa !19
  %493 = getelementptr inbounds i8, i8* %291, i64 1136
  %494 = bitcast i8* %493 to i64*
  store i64 0, i64* %494, align 8, !tbaa !20
  store i8 0, i8* %491, align 8, !tbaa !21
  %495 = getelementptr inbounds i8, i8* %291, i64 1160
  %496 = bitcast i8* %495 to double*
  store double 0.000000e+00, double* %496, align 8, !tbaa !13
  %497 = getelementptr inbounds i8, i8* %291, i64 1168
  %498 = getelementptr inbounds i8, i8* %291, i64 1184
  %499 = bitcast i8* %497 to i8**
  store i8* %498, i8** %499, align 8, !tbaa !19
  %500 = getelementptr inbounds i8, i8* %291, i64 1176
  %501 = bitcast i8* %500 to i64*
  store i64 0, i64* %501, align 8, !tbaa !20
  store i8 0, i8* %498, align 8, !tbaa !21
  %502 = getelementptr inbounds i8, i8* %291, i64 1200
  %503 = bitcast i8* %502 to double*
  store double 0.000000e+00, double* %503, align 8, !tbaa !13
  %504 = getelementptr inbounds i8, i8* %291, i64 1208
  %505 = getelementptr inbounds i8, i8* %291, i64 1224
  %506 = bitcast i8* %504 to i8**
  store i8* %505, i8** %506, align 8, !tbaa !19
  %507 = getelementptr inbounds i8, i8* %291, i64 1216
  %508 = bitcast i8* %507 to i64*
  store i64 0, i64* %508, align 8, !tbaa !20
  store i8 0, i8* %505, align 8, !tbaa !21
  %509 = getelementptr inbounds i8, i8* %291, i64 1240
  %510 = bitcast i8* %509 to double*
  store double 0.000000e+00, double* %510, align 8, !tbaa !13
  %511 = getelementptr inbounds i8, i8* %291, i64 1248
  %512 = getelementptr inbounds i8, i8* %291, i64 1264
  %513 = bitcast i8* %511 to i8**
  store i8* %512, i8** %513, align 8, !tbaa !19
  %514 = getelementptr inbounds i8, i8* %291, i64 1256
  %515 = bitcast i8* %514 to i64*
  store i64 0, i64* %515, align 8, !tbaa !20
  store i8 0, i8* %512, align 8, !tbaa !21
  %516 = getelementptr inbounds i8, i8* %291, i64 1280
  %517 = bitcast i8* %516 to double*
  store double 0.000000e+00, double* %517, align 8, !tbaa !13
  %518 = getelementptr inbounds i8, i8* %291, i64 1288
  %519 = getelementptr inbounds i8, i8* %291, i64 1304
  %520 = bitcast i8* %518 to i8**
  store i8* %519, i8** %520, align 8, !tbaa !19
  %521 = getelementptr inbounds i8, i8* %291, i64 1296
  %522 = bitcast i8* %521 to i64*
  store i64 0, i64* %522, align 8, !tbaa !20
  store i8 0, i8* %519, align 8, !tbaa !21
  %523 = getelementptr inbounds i8, i8* %291, i64 1320
  %524 = bitcast i8* %523 to double*
  store double 0.000000e+00, double* %524, align 8, !tbaa !13
  %525 = getelementptr inbounds i8, i8* %291, i64 1328
  %526 = getelementptr inbounds i8, i8* %291, i64 1344
  %527 = bitcast i8* %525 to i8**
  store i8* %526, i8** %527, align 8, !tbaa !19
  %528 = getelementptr inbounds i8, i8* %291, i64 1336
  %529 = bitcast i8* %528 to i64*
  store i64 0, i64* %529, align 8, !tbaa !20
  store i8 0, i8* %526, align 8, !tbaa !21
  %530 = getelementptr inbounds i8, i8* %291, i64 1360
  %531 = bitcast i8* %530 to double*
  store double 0.000000e+00, double* %531, align 8, !tbaa !13
  %532 = getelementptr inbounds i8, i8* %291, i64 1368
  %533 = getelementptr inbounds i8, i8* %291, i64 1384
  %534 = bitcast i8* %532 to i8**
  store i8* %533, i8** %534, align 8, !tbaa !19
  %535 = getelementptr inbounds i8, i8* %291, i64 1376
  %536 = bitcast i8* %535 to i64*
  store i64 0, i64* %536, align 8, !tbaa !20
  store i8 0, i8* %533, align 8, !tbaa !21
  %537 = getelementptr inbounds i8, i8* %291, i64 1400
  %538 = bitcast i8* %537 to double*
  store double 0.000000e+00, double* %538, align 8, !tbaa !13
  %539 = getelementptr inbounds i8, i8* %291, i64 1408
  %540 = getelementptr inbounds i8, i8* %291, i64 1424
  %541 = bitcast i8* %539 to i8**
  store i8* %540, i8** %541, align 8, !tbaa !19
  %542 = getelementptr inbounds i8, i8* %291, i64 1416
  %543 = bitcast i8* %542 to i64*
  store i64 0, i64* %543, align 8, !tbaa !20
  store i8 0, i8* %540, align 8, !tbaa !21
  %544 = getelementptr inbounds i8, i8* %291, i64 1440
  %545 = bitcast i8* %544 to double*
  store double 0.000000e+00, double* %545, align 8, !tbaa !13
  %546 = getelementptr inbounds i8, i8* %291, i64 1448
  %547 = getelementptr inbounds i8, i8* %291, i64 1464
  %548 = bitcast i8* %546 to i8**
  store i8* %547, i8** %548, align 8, !tbaa !19
  %549 = getelementptr inbounds i8, i8* %291, i64 1456
  %550 = bitcast i8* %549 to i64*
  store i64 0, i64* %550, align 8, !tbaa !20
  store i8 0, i8* %547, align 8, !tbaa !21
  %551 = getelementptr inbounds i8, i8* %291, i64 1480
  %552 = bitcast i8* %551 to double*
  store double 0.000000e+00, double* %552, align 8, !tbaa !13
  %553 = getelementptr inbounds i8, i8* %291, i64 1488
  %554 = getelementptr inbounds i8, i8* %291, i64 1504
  %555 = bitcast i8* %553 to i8**
  store i8* %554, i8** %555, align 8, !tbaa !19
  %556 = getelementptr inbounds i8, i8* %291, i64 1496
  %557 = bitcast i8* %556 to i64*
  store i64 0, i64* %557, align 8, !tbaa !20
  store i8 0, i8* %554, align 8, !tbaa !21
  %558 = getelementptr inbounds i8, i8* %291, i64 1520
  %559 = bitcast i8* %558 to double*
  store double 0.000000e+00, double* %559, align 8, !tbaa !13
  %560 = getelementptr inbounds i8, i8* %291, i64 1528
  %561 = getelementptr inbounds i8, i8* %291, i64 1544
  %562 = bitcast i8* %560 to i8**
  store i8* %561, i8** %562, align 8, !tbaa !19
  %563 = getelementptr inbounds i8, i8* %291, i64 1536
  %564 = bitcast i8* %563 to i64*
  store i64 0, i64* %564, align 8, !tbaa !20
  store i8 0, i8* %561, align 8, !tbaa !21
  %565 = getelementptr inbounds i8, i8* %291, i64 1560
  %566 = bitcast i8* %565 to double*
  store double 0.000000e+00, double* %566, align 8, !tbaa !13
  %567 = getelementptr inbounds i8, i8* %291, i64 1568
  %568 = getelementptr inbounds i8, i8* %291, i64 1584
  %569 = bitcast i8* %567 to i8**
  store i8* %568, i8** %569, align 8, !tbaa !19
  %570 = getelementptr inbounds i8, i8* %291, i64 1576
  %571 = bitcast i8* %570 to i64*
  store i64 0, i64* %571, align 8, !tbaa !20
  store i8 0, i8* %568, align 8, !tbaa !21
  %572 = getelementptr inbounds i8, i8* %291, i64 1600
  %573 = bitcast i8* %572 to double*
  store double 0.000000e+00, double* %573, align 8, !tbaa !13
  %574 = getelementptr inbounds i8, i8* %291, i64 1608
  %575 = getelementptr inbounds i8, i8* %291, i64 1624
  %576 = bitcast i8* %574 to i8**
  store i8* %575, i8** %576, align 8, !tbaa !19
  %577 = getelementptr inbounds i8, i8* %291, i64 1616
  %578 = bitcast i8* %577 to i64*
  store i64 0, i64* %578, align 8, !tbaa !20
  store i8 0, i8* %575, align 8, !tbaa !21
  %579 = getelementptr inbounds i8, i8* %291, i64 1640
  %580 = bitcast i8* %579 to double*
  store double 0.000000e+00, double* %580, align 8, !tbaa !13
  %581 = getelementptr inbounds i8, i8* %291, i64 1648
  %582 = getelementptr inbounds i8, i8* %291, i64 1664
  %583 = bitcast i8* %581 to i8**
  store i8* %582, i8** %583, align 8, !tbaa !19
  %584 = getelementptr inbounds i8, i8* %291, i64 1656
  %585 = bitcast i8* %584 to i64*
  store i64 0, i64* %585, align 8, !tbaa !20
  store i8 0, i8* %582, align 8, !tbaa !21
  %586 = getelementptr inbounds i8, i8* %291, i64 1680
  %587 = bitcast i8* %586 to double*
  store double 0.000000e+00, double* %587, align 8, !tbaa !13
  %588 = getelementptr inbounds i8, i8* %291, i64 1688
  %589 = getelementptr inbounds i8, i8* %291, i64 1704
  %590 = bitcast i8* %588 to i8**
  store i8* %589, i8** %590, align 8, !tbaa !19
  %591 = getelementptr inbounds i8, i8* %291, i64 1696
  %592 = bitcast i8* %591 to i64*
  store i64 0, i64* %592, align 8, !tbaa !20
  store i8 0, i8* %589, align 8, !tbaa !21
  %593 = getelementptr inbounds i8, i8* %291, i64 1720
  %594 = bitcast i8* %593 to double*
  store double 0.000000e+00, double* %594, align 8, !tbaa !13
  %595 = getelementptr inbounds i8, i8* %291, i64 1728
  %596 = getelementptr inbounds i8, i8* %291, i64 1744
  %597 = bitcast i8* %595 to i8**
  store i8* %596, i8** %597, align 8, !tbaa !19
  %598 = getelementptr inbounds i8, i8* %291, i64 1736
  %599 = bitcast i8* %598 to i64*
  store i64 0, i64* %599, align 8, !tbaa !20
  store i8 0, i8* %596, align 8, !tbaa !21
  %600 = getelementptr inbounds i8, i8* %291, i64 1760
  %601 = bitcast i8* %600 to double*
  store double 0.000000e+00, double* %601, align 8, !tbaa !13
  %602 = getelementptr inbounds i8, i8* %291, i64 1768
  %603 = getelementptr inbounds i8, i8* %291, i64 1784
  %604 = bitcast i8* %602 to i8**
  store i8* %603, i8** %604, align 8, !tbaa !19
  %605 = getelementptr inbounds i8, i8* %291, i64 1776
  %606 = bitcast i8* %605 to i64*
  store i64 0, i64* %606, align 8, !tbaa !20
  store i8 0, i8* %603, align 8, !tbaa !21
  %607 = getelementptr inbounds i8, i8* %291, i64 1800
  %608 = bitcast i8* %607 to double*
  store double 0.000000e+00, double* %608, align 8, !tbaa !13
  %609 = getelementptr inbounds i8, i8* %291, i64 1808
  %610 = getelementptr inbounds i8, i8* %291, i64 1824
  %611 = bitcast i8* %609 to i8**
  store i8* %610, i8** %611, align 8, !tbaa !19
  %612 = getelementptr inbounds i8, i8* %291, i64 1816
  %613 = bitcast i8* %612 to i64*
  store i64 0, i64* %613, align 8, !tbaa !20
  store i8 0, i8* %610, align 8, !tbaa !21
  %614 = getelementptr inbounds i8, i8* %291, i64 1840
  %615 = bitcast i8* %614 to double*
  store double 0.000000e+00, double* %615, align 8, !tbaa !13
  %616 = getelementptr inbounds i8, i8* %291, i64 1848
  %617 = getelementptr inbounds i8, i8* %291, i64 1864
  %618 = bitcast i8* %616 to i8**
  store i8* %617, i8** %618, align 8, !tbaa !19
  %619 = getelementptr inbounds i8, i8* %291, i64 1856
  %620 = bitcast i8* %619 to i64*
  store i64 0, i64* %620, align 8, !tbaa !20
  store i8 0, i8* %617, align 8, !tbaa !21
  %621 = getelementptr inbounds i8, i8* %291, i64 1880
  %622 = bitcast i8* %621 to double*
  store double 0.000000e+00, double* %622, align 8, !tbaa !13
  %623 = getelementptr inbounds i8, i8* %291, i64 1888
  %624 = getelementptr inbounds i8, i8* %291, i64 1904
  %625 = bitcast i8* %623 to i8**
  store i8* %624, i8** %625, align 8, !tbaa !19
  %626 = getelementptr inbounds i8, i8* %291, i64 1896
  %627 = bitcast i8* %626 to i64*
  store i64 0, i64* %627, align 8, !tbaa !20
  store i8 0, i8* %624, align 8, !tbaa !21
  %628 = getelementptr inbounds i8, i8* %291, i64 1920
  %629 = bitcast i8* %628 to double*
  store double 0.000000e+00, double* %629, align 8, !tbaa !13
  %630 = getelementptr inbounds i8, i8* %291, i64 1928
  %631 = getelementptr inbounds i8, i8* %291, i64 1944
  %632 = bitcast i8* %630 to i8**
  store i8* %631, i8** %632, align 8, !tbaa !19
  %633 = getelementptr inbounds i8, i8* %291, i64 1936
  %634 = bitcast i8* %633 to i64*
  store i64 0, i64* %634, align 8, !tbaa !20
  store i8 0, i8* %631, align 8, !tbaa !21
  %635 = getelementptr inbounds i8, i8* %291, i64 1960
  %636 = bitcast i8* %635 to double*
  store double 0.000000e+00, double* %636, align 8, !tbaa !13
  %637 = getelementptr inbounds i8, i8* %291, i64 1968
  %638 = getelementptr inbounds i8, i8* %291, i64 1984
  %639 = bitcast i8* %637 to i8**
  store i8* %638, i8** %639, align 8, !tbaa !19
  %640 = getelementptr inbounds i8, i8* %291, i64 1976
  %641 = bitcast i8* %640 to i64*
  store i64 0, i64* %641, align 8, !tbaa !20
  store i8 0, i8* %638, align 8, !tbaa !21
  %642 = getelementptr inbounds i8, i8* %291, i64 2000
  store i8* %642, i8** %40, align 8, !tbaa !22
  call void @llvm.lifetime.start.p0i8(i64 1600, i8* nonnull %22) #17
  store %union.anon* %41, %union.anon** %42, align 16, !tbaa !19
  store i64 0, i64* %43, align 8, !tbaa !20
  store i8 0, i8* %44, align 16, !tbaa !21
  store %union.anon* %46, %union.anon** %47, align 16, !tbaa !19
  store i64 0, i64* %48, align 8, !tbaa !20
  store i8 0, i8* %49, align 16, !tbaa !21
  store %union.anon* %51, %union.anon** %52, align 16, !tbaa !19
  store i64 0, i64* %53, align 8, !tbaa !20
  store i8 0, i8* %54, align 16, !tbaa !21
  store %union.anon* %56, %union.anon** %57, align 16, !tbaa !19
  store i64 0, i64* %58, align 8, !tbaa !20
  store i8 0, i8* %59, align 16, !tbaa !21
  store %union.anon* %61, %union.anon** %62, align 16, !tbaa !19
  store i64 0, i64* %63, align 8, !tbaa !20
  store i8 0, i8* %64, align 16, !tbaa !21
  store %union.anon* %66, %union.anon** %67, align 16, !tbaa !19
  store i64 0, i64* %68, align 8, !tbaa !20
  store i8 0, i8* %69, align 16, !tbaa !21
  store %union.anon* %71, %union.anon** %72, align 16, !tbaa !19
  store i64 0, i64* %73, align 8, !tbaa !20
  store i8 0, i8* %74, align 16, !tbaa !21
  store %union.anon* %76, %union.anon** %77, align 16, !tbaa !19
  store i64 0, i64* %78, align 8, !tbaa !20
  store i8 0, i8* %79, align 16, !tbaa !21
  store %union.anon* %81, %union.anon** %82, align 16, !tbaa !19
  store i64 0, i64* %83, align 8, !tbaa !20
  store i8 0, i8* %84, align 16, !tbaa !21
  store %union.anon* %86, %union.anon** %87, align 16, !tbaa !19
  store i64 0, i64* %88, align 8, !tbaa !20
  store i8 0, i8* %89, align 16, !tbaa !21
  store %union.anon* %91, %union.anon** %92, align 16, !tbaa !19
  store i64 0, i64* %93, align 8, !tbaa !20
  store i8 0, i8* %94, align 16, !tbaa !21
  store %union.anon* %96, %union.anon** %97, align 16, !tbaa !19
  store i64 0, i64* %98, align 8, !tbaa !20
  store i8 0, i8* %99, align 16, !tbaa !21
  store %union.anon* %101, %union.anon** %102, align 16, !tbaa !19
  store i64 0, i64* %103, align 8, !tbaa !20
  store i8 0, i8* %104, align 16, !tbaa !21
  store %union.anon* %106, %union.anon** %107, align 16, !tbaa !19
  store i64 0, i64* %108, align 8, !tbaa !20
  store i8 0, i8* %109, align 16, !tbaa !21
  store %union.anon* %111, %union.anon** %112, align 16, !tbaa !19
  store i64 0, i64* %113, align 8, !tbaa !20
  store i8 0, i8* %114, align 16, !tbaa !21
  store %union.anon* %116, %union.anon** %117, align 16, !tbaa !19
  store i64 0, i64* %118, align 8, !tbaa !20
  store i8 0, i8* %119, align 16, !tbaa !21
  store %union.anon* %121, %union.anon** %122, align 16, !tbaa !19
  store i64 0, i64* %123, align 8, !tbaa !20
  store i8 0, i8* %124, align 16, !tbaa !21
  store %union.anon* %126, %union.anon** %127, align 16, !tbaa !19
  store i64 0, i64* %128, align 8, !tbaa !20
  store i8 0, i8* %129, align 16, !tbaa !21
  store %union.anon* %131, %union.anon** %132, align 16, !tbaa !19
  store i64 0, i64* %133, align 8, !tbaa !20
  store i8 0, i8* %134, align 16, !tbaa !21
  store %union.anon* %136, %union.anon** %137, align 16, !tbaa !19
  store i64 0, i64* %138, align 8, !tbaa !20
  store i8 0, i8* %139, align 16, !tbaa !21
  store %union.anon* %141, %union.anon** %142, align 16, !tbaa !19
  store i64 0, i64* %143, align 8, !tbaa !20
  store i8 0, i8* %144, align 16, !tbaa !21
  store %union.anon* %146, %union.anon** %147, align 16, !tbaa !19
  store i64 0, i64* %148, align 8, !tbaa !20
  store i8 0, i8* %149, align 16, !tbaa !21
  store %union.anon* %151, %union.anon** %152, align 16, !tbaa !19
  store i64 0, i64* %153, align 8, !tbaa !20
  store i8 0, i8* %154, align 16, !tbaa !21
  store %union.anon* %156, %union.anon** %157, align 16, !tbaa !19
  store i64 0, i64* %158, align 8, !tbaa !20
  store i8 0, i8* %159, align 16, !tbaa !21
  store %union.anon* %161, %union.anon** %162, align 16, !tbaa !19
  store i64 0, i64* %163, align 8, !tbaa !20
  store i8 0, i8* %164, align 16, !tbaa !21
  store %union.anon* %166, %union.anon** %167, align 16, !tbaa !19
  store i64 0, i64* %168, align 8, !tbaa !20
  store i8 0, i8* %169, align 16, !tbaa !21
  store %union.anon* %171, %union.anon** %172, align 16, !tbaa !19
  store i64 0, i64* %173, align 8, !tbaa !20
  store i8 0, i8* %174, align 16, !tbaa !21
  store %union.anon* %176, %union.anon** %177, align 16, !tbaa !19
  store i64 0, i64* %178, align 8, !tbaa !20
  store i8 0, i8* %179, align 16, !tbaa !21
  store %union.anon* %181, %union.anon** %182, align 16, !tbaa !19
  store i64 0, i64* %183, align 8, !tbaa !20
  store i8 0, i8* %184, align 16, !tbaa !21
  store %union.anon* %186, %union.anon** %187, align 16, !tbaa !19
  store i64 0, i64* %188, align 8, !tbaa !20
  store i8 0, i8* %189, align 16, !tbaa !21
  store %union.anon* %191, %union.anon** %192, align 16, !tbaa !19
  store i64 0, i64* %193, align 8, !tbaa !20
  store i8 0, i8* %194, align 16, !tbaa !21
  store %union.anon* %196, %union.anon** %197, align 16, !tbaa !19
  store i64 0, i64* %198, align 8, !tbaa !20
  store i8 0, i8* %199, align 16, !tbaa !21
  store %union.anon* %201, %union.anon** %202, align 16, !tbaa !19
  store i64 0, i64* %203, align 8, !tbaa !20
  store i8 0, i8* %204, align 16, !tbaa !21
  store %union.anon* %206, %union.anon** %207, align 16, !tbaa !19
  store i64 0, i64* %208, align 8, !tbaa !20
  store i8 0, i8* %209, align 16, !tbaa !21
  store %union.anon* %211, %union.anon** %212, align 16, !tbaa !19
  store i64 0, i64* %213, align 8, !tbaa !20
  store i8 0, i8* %214, align 16, !tbaa !21
  store %union.anon* %216, %union.anon** %217, align 16, !tbaa !19
  store i64 0, i64* %218, align 8, !tbaa !20
  store i8 0, i8* %219, align 16, !tbaa !21
  store %union.anon* %221, %union.anon** %222, align 16, !tbaa !19
  store i64 0, i64* %223, align 8, !tbaa !20
  store i8 0, i8* %224, align 16, !tbaa !21
  store %union.anon* %226, %union.anon** %227, align 16, !tbaa !19
  store i64 0, i64* %228, align 8, !tbaa !20
  store i8 0, i8* %229, align 16, !tbaa !21
  store %union.anon* %231, %union.anon** %232, align 16, !tbaa !19
  store i64 0, i64* %233, align 8, !tbaa !20
  store i8 0, i8* %234, align 16, !tbaa !21
  store %union.anon* %236, %union.anon** %237, align 16, !tbaa !19
  store i64 0, i64* %238, align 8, !tbaa !20
  store i8 0, i8* %239, align 16, !tbaa !21
  store %union.anon* %241, %union.anon** %242, align 16, !tbaa !19
  store i64 0, i64* %243, align 8, !tbaa !20
  store i8 0, i8* %244, align 16, !tbaa !21
  store %union.anon* %246, %union.anon** %247, align 16, !tbaa !19
  store i64 0, i64* %248, align 8, !tbaa !20
  store i8 0, i8* %249, align 16, !tbaa !21
  store %union.anon* %251, %union.anon** %252, align 16, !tbaa !19
  store i64 0, i64* %253, align 8, !tbaa !20
  store i8 0, i8* %254, align 16, !tbaa !21
  store %union.anon* %256, %union.anon** %257, align 16, !tbaa !19
  store i64 0, i64* %258, align 8, !tbaa !20
  store i8 0, i8* %259, align 16, !tbaa !21
  store %union.anon* %261, %union.anon** %262, align 16, !tbaa !19
  store i64 0, i64* %263, align 8, !tbaa !20
  store i8 0, i8* %264, align 16, !tbaa !21
  store %union.anon* %266, %union.anon** %267, align 16, !tbaa !19
  store i64 0, i64* %268, align 8, !tbaa !20
  store i8 0, i8* %269, align 16, !tbaa !21
  store %union.anon* %271, %union.anon** %272, align 16, !tbaa !19
  store i64 0, i64* %273, align 8, !tbaa !20
  store i8 0, i8* %274, align 16, !tbaa !21
  store %union.anon* %276, %union.anon** %277, align 16, !tbaa !19
  store i64 0, i64* %278, align 8, !tbaa !20
  store i8 0, i8* %279, align 16, !tbaa !21
  store %union.anon* %281, %union.anon** %282, align 16, !tbaa !19
  store i64 0, i64* %283, align 8, !tbaa !20
  store i8 0, i8* %284, align 16, !tbaa !21
  store %union.anon* %286, %union.anon** %287, align 16, !tbaa !19
  store i64 0, i64* %288, align 8, !tbaa !20
  store i8 0, i8* %289, align 16, !tbaa !21
  call void @llvm.lifetime.start.p0i8(i64 200, i8* nonnull %25) #17
  call void @llvm.lifetime.start.p0i8(i64 200, i8* nonnull %26) #17
  call void @llvm.lifetime.start.p0i8(i64 200, i8* nonnull %27) #17
  call void @llvm.lifetime.start.p0i8(i64 200, i8* nonnull %28) #17
  call void @llvm.lifetime.start.p0i8(i64 200, i8* nonnull %29) #17
  call void @llvm.lifetime.start.p0i8(i64 200, i8* nonnull %30) #17
  call void @llvm.lifetime.start.p0i8(i64 200, i8* nonnull %31) #17
  call void @llvm.lifetime.start.p0i8(i64 200, i8* nonnull %32) #17
  call void @llvm.lifetime.start.p0i8(i64 200, i8* nonnull %33) #17
  call void @llvm.lifetime.start.p0i8(i64 200, i8* nonnull %34) #17
  call void @llvm.memset.p0i8.i64(i8* noundef nonnull align 16 dereferenceable(200) %34, i8 0, i64 200, i1 false)
  call void @llvm.lifetime.start.p0i8(i64 200, i8* nonnull %35) #17
  call void @llvm.memset.p0i8.i64(i8* noundef nonnull align 16 dereferenceable(200) %35, i8 0, i64 200, i1 false)
  %643 = load i32, i32* %1, align 4, !tbaa !5
  %644 = icmp sgt i32 %643, 0
  br i1 %644, label %645, label %647

645:                                              ; preds = %290
  %646 = load %"struct.std::pair"*, %"struct.std::pair"** %17, align 8, !tbaa !9
  br label %670

647:                                              ; preds = %737, %290
  %648 = phi i32 [ %643, %290 ], [ %747, %737 ]
  %649 = sext i32 %648 to i64
  %650 = load %"struct.std::pair"*, %"struct.std::pair"** %17, align 8, !tbaa !23
  %651 = getelementptr inbounds %"struct.std::pair", %"struct.std::pair"* %650, i64 %649
  %652 = icmp eq i32 %648, 0
  br i1 %652, label %750, label %653

653:                                              ; preds = %647
  %654 = call i64 @llvm.ctlz.i64(i64 %649, i1 true) #17, !range !24
  %655 = shl nuw nsw i64 %654, 1
  %656 = xor i64 %655, 126
  invoke void @_ZSt16__introsort_loopIN9__gnu_cxx17__normal_iteratorIPSt4pairIdNSt7__cxx1112basic_stringIcSt11char_traitsIcESaIcEEEESt6vectorIS9_SaIS9_EEEElNS0_5__ops15_Iter_less_iterEEvT_SH_T0_T1_(%"struct.std::pair"* %650, %"struct.std::pair"* nonnull %651, i64 %656)
          to label %657 unwind label %757

657:                                              ; preds = %653
  %658 = mul nsw i64 %649, 40
  %659 = icmp sgt i64 %658, 640
  br i1 %659, label %660, label %669

660:                                              ; preds = %657
  %661 = getelementptr inbounds %"struct.std::pair", %"struct.std::pair"* %650, i64 16
  invoke void @_ZSt16__insertion_sortIN9__gnu_cxx17__normal_iteratorIPSt4pairIdNSt7__cxx1112basic_stringIcSt11char_traitsIcESaIcEEEESt6vectorIS9_SaIS9_EEEENS0_5__ops15_Iter_less_iterEEvT_SH_T0_(%"struct.std::pair"* %650, %"struct.std::pair"* nonnull %661)
          to label %662 unwind label %757

662:                                              ; preds = %660
  %663 = icmp eq i32 %648, 16
  br i1 %663, label %750, label %664

664:                                              ; preds = %662, %666
  %665 = phi %"struct.std::pair"* [ %667, %666 ], [ %661, %662 ]
  invoke void @_ZSt25__unguarded_linear_insertIN9__gnu_cxx17__normal_iteratorIPSt4pairIdNSt7__cxx1112basic_stringIcSt11char_traitsIcESaIcEEEESt6vectorIS9_SaIS9_EEEENS0_5__ops14_Val_less_iterEEvT_T0_(%"struct.std::pair"* nonnull %665)
          to label %666 unwind label %755

666:                                              ; preds = %664
  %667 = getelementptr inbounds %"struct.std::pair", %"struct.std::pair"* %665, i64 1
  %668 = icmp eq %"struct.std::pair"* %667, %651
  br i1 %668, label %750, label %664, !llvm.loop !25

669:                                              ; preds = %657
  invoke void @_ZSt16__insertion_sortIN9__gnu_cxx17__normal_iteratorIPSt4pairIdNSt7__cxx1112basic_stringIcSt11char_traitsIcESaIcEEEESt6vectorIS9_SaIS9_EEEENS0_5__ops15_Iter_less_iterEEvT_SH_T0_(%"struct.std::pair"* %650, %"struct.std::pair"* nonnull %651)
          to label %750 unwind label %757

670:                                              ; preds = %645, %737
  %671 = phi i64 [ 0, %645 ], [ %746, %737 ]
  %672 = getelementptr inbounds %"struct.std::pair", %"struct.std::pair"* %646, i64 %671, i32 1
  %673 = invoke nonnull align 8 dereferenceable(16) %"class.std::basic_istream"* @_ZStrsIcSt11char_traitsIcESaIcEERSt13basic_istreamIT_T0_ES7_RNSt7__cxx1112basic_stringIS4_S5_T1_EE(%"class.std::basic_istream"* nonnull align 8 dereferenceable(16) @_ZSt3cin, %"class.std::__cxx11::basic_string"* nonnull align 8 dereferenceable(32) %672)
          to label %674 unwind label %735

674:                                              ; preds = %670
  %675 = getelementptr inbounds [50 x i32], [50 x i32]* %4, i64 0, i64 %671
  %676 = invoke nonnull align 8 dereferenceable(16) %"class.std::basic_istream"* @_ZNSirsERi(%"class.std::basic_istream"* nonnull align 8 dereferenceable(16) %673, i32* nonnull align 4 dereferenceable(4) %675)
          to label %677 unwind label %735

677:                                              ; preds = %674
  %678 = getelementptr inbounds [50 x i32], [50 x i32]* %5, i64 0, i64 %671
  %679 = invoke nonnull align 8 dereferenceable(16) %"class.std::basic_istream"* @_ZNSirsERi(%"class.std::basic_istream"* nonnull align 8 dereferenceable(16) %676, i32* nonnull align 4 dereferenceable(4) %678)
          to label %680 unwind label %735

680:                                              ; preds = %677
  %681 = getelementptr inbounds [50 x i32], [50 x i32]* %6, i64 0, i64 %671
  %682 = invoke nonnull align 8 dereferenceable(16) %"class.std::basic_istream"* @_ZNSirsERi(%"class.std::basic_istream"* nonnull align 8 dereferenceable(16) %679, i32* nonnull align 4 dereferenceable(4) %681)
          to label %683 unwind label %735

683:                                              ; preds = %680
  %684 = getelementptr inbounds [50 x i32], [50 x i32]* %7, i64 0, i64 %671
  %685 = invoke nonnull align 8 dereferenceable(16) %"class.std::basic_istream"* @_ZNSirsERi(%"class.std::basic_istream"* nonnull align 8 dereferenceable(16) %682, i32* nonnull align 4 dereferenceable(4) %684)
          to label %686 unwind label %735

686:                                              ; preds = %683
  %687 = getelementptr inbounds [50 x i32], [50 x i32]* %8, i64 0, i64 %671
  %688 = invoke nonnull align 8 dereferenceable(16) %"class.std::basic_istream"* @_ZNSirsERi(%"class.std::basic_istream"* nonnull align 8 dereferenceable(16) %685, i32* nonnull align 4 dereferenceable(4) %687)
          to label %689 unwind label %735

689:                                              ; preds = %686
  %690 = getelementptr inbounds [50 x i32], [50 x i32]* %9, i64 0, i64 %671
  %691 = invoke nonnull align 8 dereferenceable(16) %"class.std::basic_istream"* @_ZNSirsERi(%"class.std::basic_istream"* nonnull align 8 dereferenceable(16) %688, i32* nonnull align 4 dereferenceable(4) %690)
          to label %692 unwind label %735

692:                                              ; preds = %689
  %693 = getelementptr inbounds [50 x i32], [50 x i32]* %10, i64 0, i64 %671
  %694 = invoke nonnull align 8 dereferenceable(16) %"class.std::basic_istream"* @_ZNSirsERi(%"class.std::basic_istream"* nonnull align 8 dereferenceable(16) %691, i32* nonnull align 4 dereferenceable(4) %693)
          to label %695 unwind label %735

695:                                              ; preds = %692
  %696 = getelementptr inbounds [50 x i32], [50 x i32]* %11, i64 0, i64 %671
  %697 = invoke nonnull align 8 dereferenceable(16) %"class.std::basic_istream"* @_ZNSirsERi(%"class.std::basic_istream"* nonnull align 8 dereferenceable(16) %694, i32* nonnull align 4 dereferenceable(4) %696)
          to label %698 unwind label %735

698:                                              ; preds = %695
  %699 = getelementptr inbounds [50 x i32], [50 x i32]* %12, i64 0, i64 %671
  %700 = invoke nonnull align 8 dereferenceable(16) %"class.std::basic_istream"* @_ZNSirsERi(%"class.std::basic_istream"* nonnull align 8 dereferenceable(16) %697, i32* nonnull align 4 dereferenceable(4) %699)
          to label %701 unwind label %735

701:                                              ; preds = %698
  %702 = load i32, i32* %675, align 4, !tbaa !5
  %703 = getelementptr inbounds [50 x i32], [50 x i32]* %13, i64 0, i64 %671
  %704 = load i32, i32* %703, align 4, !tbaa !5
  %705 = sub nsw i32 %704, %702
  %706 = load i32, i32* %678, align 4, !tbaa !5
  %707 = load i32, i32* %681, align 4, !tbaa !5
  %708 = load i32, i32* %684, align 4, !tbaa !5
  %709 = load i32, i32* %687, align 4, !tbaa !5
  %710 = load i32, i32* %690, align 4, !tbaa !5
  %711 = getelementptr inbounds [50 x i32], [50 x i32]* %14, i64 0, i64 %671
  %712 = load i32, i32* %711, align 4, !tbaa !5
  %713 = add i32 %710, %709
  %714 = add i32 %713, %706
  %715 = add i32 %714, %707
  %716 = add i32 %715, %708
  %717 = add i32 %716, %712
  store i32 %717, i32* %711, align 4, !tbaa !5
  %718 = load i32, i32* %693, align 4, !tbaa !5
  %719 = load i32, i32* %696, align 4, !tbaa !5
  %720 = mul nsw i32 %719, %718
  %721 = load i32, i32* %699, align 4, !tbaa !5
  %722 = add nsw i32 %705, %720
  %723 = add nsw i32 %721, -1
  %724 = icmp sgt i32 %721, 1
  br i1 %724, label %725, label %737

725:                                              ; preds = %701
  %726 = add i32 %717, %710
  %727 = add nsw i32 %721, -2
  %728 = mul i32 %713, %727
  %729 = mul i32 %721, %719
  %730 = mul i32 %729, %718
  %731 = add i32 %704, %730
  %732 = add i32 %726, %709
  %733 = add i32 %732, %728
  %734 = sub i32 %731, %702
  store i32 %733, i32* %711, align 4, !tbaa !5
  br label %737

735:                                              ; preds = %698, %695, %692, %689, %686, %683, %680, %677, %674, %670
  %736 = landingpad { i8*, i32 }
          cleanup
  br label %877

737:                                              ; preds = %725, %701
  %738 = phi i32 [ %733, %725 ], [ %717, %701 ]
  %739 = phi i32 [ 0, %725 ], [ %723, %701 ]
  %740 = phi i32 [ %734, %725 ], [ %722, %701 ]
  store i32 %740, i32* %703, align 4, !tbaa !5
  store i32 %739, i32* %699, align 4, !tbaa !5
  %741 = sitofp i32 %740 to double
  %742 = sitofp i32 %738 to double
  %743 = fneg double %741
  %744 = fdiv double %743, %742
  %745 = getelementptr inbounds %"struct.std::pair", %"struct.std::pair"* %646, i64 %671, i32 0
  store double %744, double* %745, align 8, !tbaa !13
  %746 = add nuw nsw i64 %671, 1
  %747 = load i32, i32* %1, align 4, !tbaa !5
  %748 = sext i32 %747 to i64
  %749 = icmp slt i64 %746, %748
  br i1 %749, label %670, label %647, !llvm.loop !27

750:                                              ; preds = %666, %662, %647, %669
  %751 = load i32, i32* %1, align 4, !tbaa !5
  %752 = icmp sgt i32 %751, 0
  br i1 %752, label %759, label %753

753:                                              ; preds = %799, %750
  %754 = invoke nonnull align 8 dereferenceable(8) %"class.std::basic_ostream"* @_ZSt16__ostream_insertIcSt11char_traitsIcEERSt13basic_ostreamIT_T0_ES6_PKS3_l(%"class.std::basic_ostream"* nonnull align 8 dereferenceable(8) @_ZSt4cout, i8* nonnull getelementptr inbounds ([2 x i8], [2 x i8]* @.str, i64 0, i64 0), i64 1)
          to label %808 unwind label %873

755:                                              ; preds = %664
  %756 = landingpad { i8*, i32 }
          cleanup
  br label %877

757:                                              ; preds = %653, %660, %669
  %758 = landingpad { i8*, i32 }
          cleanup
  br label %877

759:                                              ; preds = %750, %799
  %760 = phi i64 [ %800, %799 ], [ 0, %750 ]
  %761 = getelementptr inbounds %"struct.std::pair", %"struct.std::pair"* %650, i64 %760, i32 1, i32 0, i32 0
  %762 = load i8*, i8** %761, align 8, !tbaa !28
  %763 = getelementptr inbounds %"struct.std::pair", %"struct.std::pair"* %650, i64 %760, i32 1, i32 1
  %764 = load i64, i64* %763, align 8, !tbaa !20
  %765 = invoke nonnull align 8 dereferenceable(8) %"class.std::basic_ostream"* @_ZSt16__ostream_insertIcSt11char_traitsIcEERSt13basic_ostreamIT_T0_ES6_PKS3_l(%"class.std::basic_ostream"* nonnull align 8 dereferenceable(8) @_ZSt4cout, i8* %762, i64 %764)
          to label %766 unwind label %804

766:                                              ; preds = %759
  %767 = bitcast %"class.std::basic_ostream"* %765 to i8**
  %768 = load i8*, i8** %767, align 8, !tbaa !29
  %769 = getelementptr i8, i8* %768, i64 -24
  %770 = bitcast i8* %769 to i64*
  %771 = load i64, i64* %770, align 8
  %772 = bitcast %"class.std::basic_ostream"* %765 to i8*
  %773 = add nsw i64 %771, 240
  %774 = getelementptr inbounds i8, i8* %772, i64 %773
  %775 = bitcast i8* %774 to %"class.std::ctype"**
  %776 = load %"class.std::ctype"*, %"class.std::ctype"** %775, align 8, !tbaa !31
  %777 = icmp eq %"class.std::ctype"* %776, null
  br i1 %777, label %778, label %780

778:                                              ; preds = %766
  invoke void @_ZSt16__throw_bad_castv() #19
          to label %779 unwind label %806

779:                                              ; preds = %778
  unreachable

780:                                              ; preds = %766
  %781 = getelementptr inbounds %"class.std::ctype", %"class.std::ctype"* %776, i64 0, i32 8
  %782 = load i8, i8* %781, align 8, !tbaa !34
  %783 = icmp eq i8 %782, 0
  br i1 %783, label %787, label %784

784:                                              ; preds = %780
  %785 = getelementptr inbounds %"class.std::ctype", %"class.std::ctype"* %776, i64 0, i32 9, i64 10
  %786 = load i8, i8* %785, align 1, !tbaa !21
  br label %794

787:                                              ; preds = %780
  invoke void @_ZNKSt5ctypeIcE13_M_widen_initEv(%"class.std::ctype"* nonnull align 8 dereferenceable(570) %776)
          to label %788 unwind label %804

788:                                              ; preds = %787
  %789 = bitcast %"class.std::ctype"* %776 to i8 (%"class.std::ctype"*, i8)***
  %790 = load i8 (%"class.std::ctype"*, i8)**, i8 (%"class.std::ctype"*, i8)*** %789, align 8, !tbaa !29
  %791 = getelementptr inbounds i8 (%"class.std::ctype"*, i8)*, i8 (%"class.std::ctype"*, i8)** %790, i64 6
  %792 = load i8 (%"class.std::ctype"*, i8)*, i8 (%"class.std::ctype"*, i8)** %791, align 8
  %793 = invoke signext i8 %792(%"class.std::ctype"* nonnull align 8 dereferenceable(570) %776, i8 signext 10)
          to label %794 unwind label %804

794:                                              ; preds = %788, %784
  %795 = phi i8 [ %786, %784 ], [ %793, %788 ]
  %796 = invoke nonnull align 8 dereferenceable(8) %"class.std::basic_ostream"* @_ZNSo3putEc(%"class.std::basic_ostream"* nonnull align 8 dereferenceable(8) %765, i8 signext %795)
          to label %797 unwind label %804

797:                                              ; preds = %794
  %798 = invoke nonnull align 8 dereferenceable(8) %"class.std::basic_ostream"* @_ZNSo5flushEv(%"class.std::basic_ostream"* nonnull align 8 dereferenceable(8) %796)
          to label %799 unwind label %804

799:                                              ; preds = %797
  %800 = add nuw nsw i64 %760, 1
  %801 = load i32, i32* %1, align 4, !tbaa !5
  %802 = sext i32 %801 to i64
  %803 = icmp slt i64 %800, %802
  br i1 %803, label %759, label %753, !llvm.loop !36

804:                                              ; preds = %759, %787, %788, %794, %797
  %805 = landingpad { i8*, i32 }
          cleanup
  br label %877

806:                                              ; preds = %778
  %807 = landingpad { i8*, i32 }
          cleanup
  br label %877

808:                                              ; preds = %753
  %809 = load i8*, i8** bitcast (%"class.std::basic_ostream"* @_ZSt4cout to i8**), align 8, !tbaa !29
  %810 = getelementptr i8, i8* %809, i64 -24
  %811 = bitcast i8* %810 to i64*
  %812 = load i64, i64* %811, align 8
  %813 = add nsw i64 %812, 240
  %814 = getelementptr inbounds i8, i8* bitcast (%"class.std::basic_ostream"* @_ZSt4cout to i8*), i64 %813
  %815 = bitcast i8* %814 to %"class.std::ctype"**
  %816 = load %"class.std::ctype"*, %"class.std::ctype"** %815, align 8, !tbaa !31
  %817 = icmp eq %"class.std::ctype"* %816, null
  br i1 %817, label %818, label %820

818:                                              ; preds = %808
  invoke void @_ZSt16__throw_bad_castv() #19
          to label %819 unwind label %875

819:                                              ; preds = %818
  unreachable

820:                                              ; preds = %808
  %821 = getelementptr inbounds %"class.std::ctype", %"class.std::ctype"* %816, i64 0, i32 8
  %822 = load i8, i8* %821, align 8, !tbaa !34
  %823 = icmp eq i8 %822, 0
  br i1 %823, label %827, label %824

824:                                              ; preds = %820
  %825 = getelementptr inbounds %"class.std::ctype", %"class.std::ctype"* %816, i64 0, i32 9, i64 10
  %826 = load i8, i8* %825, align 1, !tbaa !21
  br label %834

827:                                              ; preds = %820
  invoke void @_ZNKSt5ctypeIcE13_M_widen_initEv(%"class.std::ctype"* nonnull align 8 dereferenceable(570) %816)
          to label %828 unwind label %873

828:                                              ; preds = %827
  %829 = bitcast %"class.std::ctype"* %816 to i8 (%"class.std::ctype"*, i8)***
  %830 = load i8 (%"class.std::ctype"*, i8)**, i8 (%"class.std::ctype"*, i8)*** %829, align 8, !tbaa !29
  %831 = getelementptr inbounds i8 (%"class.std::ctype"*, i8)*, i8 (%"class.std::ctype"*, i8)** %830, i64 6
  %832 = load i8 (%"class.std::ctype"*, i8)*, i8 (%"class.std::ctype"*, i8)** %831, align 8
  %833 = invoke signext i8 %832(%"class.std::ctype"* nonnull align 8 dereferenceable(570) %816, i8 signext 10)
          to label %834 unwind label %873

834:                                              ; preds = %828, %824
  %835 = phi i8 [ %826, %824 ], [ %833, %828 ]
  %836 = invoke nonnull align 8 dereferenceable(8) %"class.std::basic_ostream"* @_ZNSo3putEc(%"class.std::basic_ostream"* nonnull align 8 dereferenceable(8) @_ZSt4cout, i8 signext %835)
          to label %837 unwind label %873

837:                                              ; preds = %834
  %838 = invoke nonnull align 8 dereferenceable(8) %"class.std::basic_ostream"* @_ZNSo5flushEv(%"class.std::basic_ostream"* nonnull align 8 dereferenceable(8) %836)
          to label %839 unwind label %873

839:                                              ; preds = %837
  call void @llvm.lifetime.end.p0i8(i64 200, i8* nonnull %35) #17
  call void @llvm.lifetime.end.p0i8(i64 200, i8* nonnull %34) #17
  call void @llvm.lifetime.end.p0i8(i64 200, i8* nonnull %33) #17
  call void @llvm.lifetime.end.p0i8(i64 200, i8* nonnull %32) #17
  call void @llvm.lifetime.end.p0i8(i64 200, i8* nonnull %31) #17
  call void @llvm.lifetime.end.p0i8(i64 200, i8* nonnull %30) #17
  call void @llvm.lifetime.end.p0i8(i64 200, i8* nonnull %29) #17
  call void @llvm.lifetime.end.p0i8(i64 200, i8* nonnull %28) #17
  call void @llvm.lifetime.end.p0i8(i64 200, i8* nonnull %27) #17
  call void @llvm.lifetime.end.p0i8(i64 200, i8* nonnull %26) #17
  call void @llvm.lifetime.end.p0i8(i64 200, i8* nonnull %25) #17
  br label %840

840:                                              ; preds = %849, %839
  %841 = phi %"class.std::__cxx11::basic_string"* [ %24, %839 ], [ %842, %849 ]
  %842 = getelementptr inbounds %"class.std::__cxx11::basic_string", %"class.std::__cxx11::basic_string"* %841, i64 -1
  %843 = getelementptr inbounds %"class.std::__cxx11::basic_string", %"class.std::__cxx11::basic_string"* %842, i64 0, i32 0, i32 0
  %844 = load i8*, i8** %843, align 8, !tbaa !28
  %845 = getelementptr inbounds %"class.std::__cxx11::basic_string", %"class.std::__cxx11::basic_string"* %841, i64 -1, i32 2
  %846 = bitcast %union.anon* %845 to i8*
  %847 = icmp eq i8* %844, %846
  br i1 %847, label %849, label %848

848:                                              ; preds = %840
  call void @_ZdlPv(i8* %844) #17
  br label %849

849:                                              ; preds = %840, %848
  %850 = icmp eq %"class.std::__cxx11::basic_string"* %842, %23
  br i1 %850, label %851, label %840

851:                                              ; preds = %849
  call void @llvm.lifetime.end.p0i8(i64 1600, i8* nonnull %22) #17
  %852 = load %"struct.std::pair"*, %"struct.std::pair"** %21, align 8, !tbaa !22
  %853 = icmp eq %"struct.std::pair"* %650, %852
  br i1 %853, label %865, label %854

854:                                              ; preds = %851, %862
  %855 = phi %"struct.std::pair"* [ %863, %862 ], [ %650, %851 ]
  %856 = getelementptr inbounds %"struct.std::pair", %"struct.std::pair"* %855, i64 0, i32 1, i32 0, i32 0
  %857 = load i8*, i8** %856, align 8, !tbaa !28
  %858 = getelementptr inbounds %"struct.std::pair", %"struct.std::pair"* %855, i64 0, i32 1, i32 2
  %859 = bitcast %union.anon* %858 to i8*
  %860 = icmp eq i8* %857, %859
  br i1 %860, label %862, label %861

861:                                              ; preds = %854
  call void @_ZdlPv(i8* %857) #17
  br label %862

862:                                              ; preds = %861, %854
  %863 = getelementptr inbounds %"struct.std::pair", %"struct.std::pair"* %855, i64 1
  %864 = icmp eq %"struct.std::pair"* %863, %852
  br i1 %864, label %865, label %854, !llvm.loop !37

865:                                              ; preds = %862, %851
  %866 = icmp eq %"struct.std::pair"* %650, null
  br i1 %866, label %869, label %867

867:                                              ; preds = %865
  %868 = bitcast %"struct.std::pair"* %650 to i8*
  call void @_ZdlPv(i8* nonnull %868) #17
  br label %869

869:                                              ; preds = %865, %867
  call void @llvm.lifetime.end.p0i8(i64 24, i8* nonnull %16) #17
  %870 = call nonnull align 8 dereferenceable(16) %"class.std::basic_istream"* @_ZNSirsERi(%"class.std::basic_istream"* nonnull align 8 dereferenceable(16) @_ZSt3cin, i32* nonnull align 4 dereferenceable(4) %1)
  %871 = load i32, i32* %1, align 4, !tbaa !5
  %872 = icmp eq i32 %871, 0
  br i1 %872, label %891, label %290, !llvm.loop !38

873:                                              ; preds = %753, %827, %828, %834, %837
  %874 = landingpad { i8*, i32 }
          cleanup
  br label %877

875:                                              ; preds = %818
  %876 = landingpad { i8*, i32 }
          cleanup
  br label %877

877:                                              ; preds = %873, %875, %804, %806, %755, %757, %735
  %878 = phi { i8*, i32 } [ %736, %735 ], [ %756, %755 ], [ %758, %757 ], [ %805, %804 ], [ %807, %806 ], [ %874, %873 ], [ %876, %875 ]
  call void @llvm.lifetime.end.p0i8(i64 200, i8* nonnull %35) #17
  call void @llvm.lifetime.end.p0i8(i64 200, i8* nonnull %34) #17
  call void @llvm.lifetime.end.p0i8(i64 200, i8* nonnull %33) #17
  call void @llvm.lifetime.end.p0i8(i64 200, i8* nonnull %32) #17
  call void @llvm.lifetime.end.p0i8(i64 200, i8* nonnull %31) #17
  call void @llvm.lifetime.end.p0i8(i64 200, i8* nonnull %30) #17
  call void @llvm.lifetime.end.p0i8(i64 200, i8* nonnull %29) #17
  call void @llvm.lifetime.end.p0i8(i64 200, i8* nonnull %28) #17
  call void @llvm.lifetime.end.p0i8(i64 200, i8* nonnull %27) #17
  call void @llvm.lifetime.end.p0i8(i64 200, i8* nonnull %26) #17
  call void @llvm.lifetime.end.p0i8(i64 200, i8* nonnull %25) #17
  br label %879

879:                                              ; preds = %888, %877
  %880 = phi %"class.std::__cxx11::basic_string"* [ %24, %877 ], [ %881, %888 ]
  %881 = getelementptr inbounds %"class.std::__cxx11::basic_string", %"class.std::__cxx11::basic_string"* %880, i64 -1
  %882 = getelementptr inbounds %"class.std::__cxx11::basic_string", %"class.std::__cxx11::basic_string"* %881, i64 0, i32 0, i32 0
  %883 = load i8*, i8** %882, align 8, !tbaa !28
  %884 = getelementptr inbounds %"class.std::__cxx11::basic_string", %"class.std::__cxx11::basic_string"* %880, i64 -1, i32 2
  %885 = bitcast %union.anon* %884 to i8*
  %886 = icmp eq i8* %883, %885
  br i1 %886, label %888, label %887

887:                                              ; preds = %879
  call void @_ZdlPv(i8* %883) #17
  br label %888

888:                                              ; preds = %879, %887
  %889 = icmp eq %"class.std::__cxx11::basic_string"* %881, %23
  br i1 %889, label %890, label %879

890:                                              ; preds = %888
  call void @llvm.lifetime.end.p0i8(i64 1600, i8* nonnull %22) #17
  call void @_ZNSt6vectorISt4pairIdNSt7__cxx1112basic_stringIcSt11char_traitsIcESaIcEEEESaIS7_EED2Ev(%"class.std::vector"* nonnull align 8 dereferenceable(24) %2) #17
  call void @llvm.lifetime.end.p0i8(i64 24, i8* nonnull %16) #17
  call void @llvm.lifetime.end.p0i8(i64 4, i8* nonnull %15) #17
  resume { i8*, i32 } %878

891:                                              ; preds = %869, %0
  call void @llvm.lifetime.end.p0i8(i64 4, i8* nonnull %15) #17
  ret i32 0
}

; Function Attrs: argmemonly mustprogress nofree nosync nounwind willreturn
declare void @llvm.lifetime.start.p0i8(i64 immarg, i8* nocapture) #4

declare nonnull align 8 dereferenceable(16) %"class.std::basic_istream"* @_ZNSirsERi(%"class.std::basic_istream"* nonnull align 8 dereferenceable(16), i32* nonnull align 4 dereferenceable(4)) local_unnamed_addr #0

declare i32 @__gxx_personality_v0(...)

; Function Attrs: argmemonly mustprogress nofree nosync nounwind willreturn
declare void @llvm.lifetime.end.p0i8(i64 immarg, i8* nocapture) #4

; Function Attrs: argmemonly mustprogress nofree nounwind willreturn writeonly
declare void @llvm.memset.p0i8.i64(i8* nocapture writeonly, i8, i64, i1 immarg) #5

declare nonnull align 8 dereferenceable(16) %"class.std::basic_istream"* @_ZStrsIcSt11char_traitsIcESaIcEERSt13basic_istreamIT_T0_ES7_RNSt7__cxx1112basic_stringIS4_S5_T1_EE(%"class.std::basic_istream"* nonnull align 8 dereferenceable(16), %"class.std::__cxx11::basic_string"* nonnull align 8 dereferenceable(32)) local_unnamed_addr #0

; Function Attrs: nounwind sspstrong uwtable
define linkonce_odr dso_local void @_ZNSt6vectorISt4pairIdNSt7__cxx1112basic_stringIcSt11char_traitsIcESaIcEEEESaIS7_EED2Ev(%"class.std::vector"* nonnull align 8 dereferenceable(24) %0) unnamed_addr #6 comdat align 2 personality i8* bitcast (i32 (...)* @__gxx_personality_v0 to i8*) {
  %2 = getelementptr inbounds %"class.std::vector", %"class.std::vector"* %0, i64 0, i32 0, i32 0, i32 0, i32 0
  %3 = load %"struct.std::pair"*, %"struct.std::pair"** %2, align 8, !tbaa !9
  %4 = getelementptr inbounds %"class.std::vector", %"class.std::vector"* %0, i64 0, i32 0, i32 0, i32 0, i32 1
  %5 = load %"struct.std::pair"*, %"struct.std::pair"** %4, align 8, !tbaa !22
  %6 = icmp eq %"struct.std::pair"* %3, %5
  br i1 %6, label %20, label %7

7:                                                ; preds = %1, %15
  %8 = phi %"struct.std::pair"* [ %16, %15 ], [ %3, %1 ]
  %9 = getelementptr inbounds %"struct.std::pair", %"struct.std::pair"* %8, i64 0, i32 1, i32 0, i32 0
  %10 = load i8*, i8** %9, align 8, !tbaa !28
  %11 = getelementptr inbounds %"struct.std::pair", %"struct.std::pair"* %8, i64 0, i32 1, i32 2
  %12 = bitcast %union.anon* %11 to i8*
  %13 = icmp eq i8* %10, %12
  br i1 %13, label %15, label %14

14:                                               ; preds = %7
  tail call void @_ZdlPv(i8* %10) #17
  br label %15

15:                                               ; preds = %14, %7
  %16 = getelementptr inbounds %"struct.std::pair", %"struct.std::pair"* %8, i64 1
  %17 = icmp eq %"struct.std::pair"* %16, %5
  br i1 %17, label %18, label %7, !llvm.loop !37

18:                                               ; preds = %15
  %19 = load %"struct.std::pair"*, %"struct.std::pair"** %2, align 8, !tbaa !9
  br label %20

20:                                               ; preds = %18, %1
  %21 = phi %"struct.std::pair"* [ %19, %18 ], [ %3, %1 ]
  %22 = icmp eq %"struct.std::pair"* %21, null
  br i1 %22, label %25, label %23

23:                                               ; preds = %20
  %24 = bitcast %"struct.std::pair"* %21 to i8*
  tail call void @_ZdlPv(i8* nonnull %24) #17
  br label %25

25:                                               ; preds = %20, %23
  ret void
}

; Function Attrs: nobuiltin nounwind
declare void @_ZdlPv(i8*) local_unnamed_addr #7

; Function Attrs: nobuiltin allocsize(0)
declare nonnull i8* @_Znwm(i64) local_unnamed_addr #8

; Function Attrs: argmemonly mustprogress nofree nounwind willreturn
declare void @llvm.memcpy.p0i8.p0i8.i64(i8* noalias nocapture writeonly, i8* noalias nocapture readonly, i64, i1 immarg) #9

; Function Attrs: sspstrong uwtable
define linkonce_odr dso_local void @_ZSt16__introsort_loopIN9__gnu_cxx17__normal_iteratorIPSt4pairIdNSt7__cxx1112basic_stringIcSt11char_traitsIcESaIcEEEESt6vectorIS9_SaIS9_EEEElNS0_5__ops15_Iter_less_iterEEvT_SH_T0_T1_(%"struct.std::pair"* %0, %"struct.std::pair"* %1, i64 %2) local_unnamed_addr #10 comdat personality i32 (...)* @__gxx_personality_v0 {
  %4 = alloca %"struct.__gnu_cxx::__ops::_Iter_less_iter", align 1
  %5 = alloca %"struct.__gnu_cxx::__ops::_Iter_less_iter", align 1
  %6 = ptrtoint %"struct.std::pair"* %0 to i64
  %7 = getelementptr inbounds %"struct.std::pair", %"struct.std::pair"* %0, i64 1
  %8 = ptrtoint %"struct.std::pair"* %1 to i64
  %9 = sub i64 %8, %6
  %10 = icmp sgt i64 %9, 640
  br i1 %10, label %11, label %35

11:                                               ; preds = %3, %26
  %12 = phi i64 [ %33, %26 ], [ %9, %3 ]
  %13 = phi i64 [ %27, %26 ], [ %2, %3 ]
  %14 = phi %"struct.std::pair"* [ %31, %26 ], [ %1, %3 ]
  %15 = icmp eq i64 %13, 0
  br i1 %15, label %16, label %26

16:                                               ; preds = %11
  %17 = getelementptr inbounds %"struct.__gnu_cxx::__ops::_Iter_less_iter", %"struct.__gnu_cxx::__ops::_Iter_less_iter"* %5, i64 0, i32 0
  call void @llvm.lifetime.start.p0i8(i64 1, i8* nonnull %17)
  %18 = getelementptr inbounds %"struct.__gnu_cxx::__ops::_Iter_less_iter", %"struct.__gnu_cxx::__ops::_Iter_less_iter"* %4, i64 0, i32 0
  call void @llvm.lifetime.start.p0i8(i64 1, i8* nonnull %18)
  call void @_ZSt11__make_heapIN9__gnu_cxx17__normal_iteratorIPSt4pairIdNSt7__cxx1112basic_stringIcSt11char_traitsIcESaIcEEEESt6vectorIS9_SaIS9_EEEENS0_5__ops15_Iter_less_iterEEvT_SH_RT0_(%"struct.std::pair"* %0, %"struct.std::pair"* %14, %"struct.__gnu_cxx::__ops::_Iter_less_iter"* nonnull align 1 dereferenceable(1) %4)
  call void @llvm.lifetime.end.p0i8(i64 1, i8* nonnull %18)
  br label %19

19:                                               ; preds = %16, %19
  %20 = phi %"struct.std::pair"* [ %21, %19 ], [ %14, %16 ]
  %21 = getelementptr inbounds %"struct.std::pair", %"struct.std::pair"* %20, i64 -1
  call void @_ZSt10__pop_heapIN9__gnu_cxx17__normal_iteratorIPSt4pairIdNSt7__cxx1112basic_stringIcSt11char_traitsIcESaIcEEEESt6vectorIS9_SaIS9_EEEENS0_5__ops15_Iter_less_iterEEvT_SH_SH_RT0_(%"struct.std::pair"* %0, %"struct.std::pair"* nonnull %21, %"struct.std::pair"* nonnull %21, %"struct.__gnu_cxx::__ops::_Iter_less_iter"* nonnull align 1 dereferenceable(1) %5)
  %22 = ptrtoint %"struct.std::pair"* %21 to i64
  %23 = sub i64 %22, %6
  %24 = icmp sgt i64 %23, 40
  br i1 %24, label %19, label %25, !llvm.loop !39

25:                                               ; preds = %19
  call void @llvm.lifetime.end.p0i8(i64 1, i8* nonnull %17)
  br label %35

26:                                               ; preds = %11
  %27 = add nsw i64 %13, -1
  %28 = udiv i64 %12, 80
  %29 = getelementptr inbounds %"struct.std::pair", %"struct.std::pair"* %0, i64 %28
  %30 = getelementptr inbounds %"struct.std::pair", %"struct.std::pair"* %14, i64 -1
  tail call void @_ZSt22__move_median_to_firstIN9__gnu_cxx17__normal_iteratorIPSt4pairIdNSt7__cxx1112basic_stringIcSt11char_traitsIcESaIcEEEESt6vectorIS9_SaIS9_EEEENS0_5__ops15_Iter_less_iterEEvT_SH_SH_SH_T0_(%"struct.std::pair"* %0, %"struct.std::pair"* nonnull %7, %"struct.std::pair"* %29, %"struct.std::pair"* nonnull %30)
  %31 = tail call %"struct.std::pair"* @_ZSt21__unguarded_partitionIN9__gnu_cxx17__normal_iteratorIPSt4pairIdNSt7__cxx1112basic_stringIcSt11char_traitsIcESaIcEEEESt6vectorIS9_SaIS9_EEEENS0_5__ops15_Iter_less_iterEET_SH_SH_SH_T0_(%"struct.std::pair"* nonnull %7, %"struct.std::pair"* %14, %"struct.std::pair"* %0)
  tail call void @_ZSt16__introsort_loopIN9__gnu_cxx17__normal_iteratorIPSt4pairIdNSt7__cxx1112basic_stringIcSt11char_traitsIcESaIcEEEESt6vectorIS9_SaIS9_EEEElNS0_5__ops15_Iter_less_iterEEvT_SH_T0_T1_(%"struct.std::pair"* %31, %"struct.std::pair"* %14, i64 %27)
  %32 = ptrtoint %"struct.std::pair"* %31 to i64
  %33 = sub i64 %32, %6
  %34 = icmp sgt i64 %33, 640
  br i1 %34, label %11, label %35, !llvm.loop !40

35:                                               ; preds = %26, %3, %25
  ret void
}

; Function Attrs: sspstrong uwtable
define linkonce_odr dso_local void @_ZSt11__make_heapIN9__gnu_cxx17__normal_iteratorIPSt4pairIdNSt7__cxx1112basic_stringIcSt11char_traitsIcESaIcEEEESt6vectorIS9_SaIS9_EEEENS0_5__ops15_Iter_less_iterEEvT_SH_RT0_(%"struct.std::pair"* %0, %"struct.std::pair"* %1, %"struct.__gnu_cxx::__ops::_Iter_less_iter"* nonnull align 1 dereferenceable(1) %2) local_unnamed_addr #10 comdat personality i8* bitcast (i32 (...)* @__gxx_personality_v0 to i8*) {
  %4 = alloca %"struct.std::pair", align 8
  %5 = alloca %"struct.std::pair", align 8
  %6 = ptrtoint %"struct.std::pair"* %1 to i64
  %7 = ptrtoint %"struct.std::pair"* %0 to i64
  %8 = sub i64 %6, %7
  %9 = sdiv exact i64 %8, 40
  %10 = icmp slt i64 %8, 80
  br i1 %10, label %78, label %11

11:                                               ; preds = %3
  %12 = add nsw i64 %9, -2
  %13 = lshr i64 %12, 1
  %14 = bitcast %"struct.std::pair"* %4 to i8*
  %15 = getelementptr inbounds %"struct.std::pair", %"struct.std::pair"* %4, i64 0, i32 0
  %16 = getelementptr inbounds %"struct.std::pair", %"struct.std::pair"* %4, i64 0, i32 1
  %17 = getelementptr inbounds %"struct.std::pair", %"struct.std::pair"* %4, i64 0, i32 1, i32 2
  %18 = bitcast %"class.std::__cxx11::basic_string"* %16 to %union.anon**
  %19 = getelementptr inbounds %"class.std::__cxx11::basic_string", %"class.std::__cxx11::basic_string"* %16, i64 0, i32 0, i32 0
  %20 = getelementptr inbounds %"struct.std::pair", %"struct.std::pair"* %4, i64 0, i32 1, i32 2, i32 0
  %21 = bitcast %union.anon* %17 to i8*
  %22 = getelementptr inbounds %"struct.std::pair", %"struct.std::pair"* %4, i64 0, i32 1, i32 1
  %23 = getelementptr inbounds %"struct.std::pair", %"struct.std::pair"* %5, i64 0, i32 0
  %24 = getelementptr inbounds %"struct.std::pair", %"struct.std::pair"* %5, i64 0, i32 1
  %25 = getelementptr inbounds %"struct.std::pair", %"struct.std::pair"* %5, i64 0, i32 1, i32 2
  %26 = bitcast %"class.std::__cxx11::basic_string"* %24 to %union.anon**
  %27 = getelementptr inbounds %"class.std::__cxx11::basic_string", %"class.std::__cxx11::basic_string"* %24, i64 0, i32 0, i32 0
  %28 = getelementptr inbounds %"struct.std::pair", %"struct.std::pair"* %5, i64 0, i32 1, i32 2, i32 0
  %29 = bitcast %union.anon* %25 to i8*
  %30 = getelementptr inbounds %"struct.std::pair", %"struct.std::pair"* %5, i64 0, i32 1, i32 1
  %31 = getelementptr inbounds %"struct.std::pair", %"struct.std::pair"* %5, i64 0, i32 1, i32 0, i32 0
  %32 = getelementptr inbounds %"struct.std::pair", %"struct.std::pair"* %4, i64 0, i32 1, i32 0, i32 0
  br label %33

33:                                               ; preds = %67, %11
  %34 = phi i64 [ %13, %11 ], [ %63, %67 ]
  call void @llvm.lifetime.start.p0i8(i64 40, i8* nonnull %14) #17
  %35 = getelementptr inbounds %"struct.std::pair", %"struct.std::pair"* %0, i64 %34, i32 0
  %36 = load double, double* %35, align 8, !tbaa !13
  store double %36, double* %15, align 8, !tbaa !13
  %37 = getelementptr inbounds %"struct.std::pair", %"struct.std::pair"* %0, i64 %34, i32 1
  store %union.anon* %17, %union.anon** %18, align 8, !tbaa !19
  %38 = getelementptr inbounds %"class.std::__cxx11::basic_string", %"class.std::__cxx11::basic_string"* %37, i64 0, i32 0, i32 0
  %39 = load i8*, i8** %38, align 8, !tbaa !28
  %40 = getelementptr inbounds %"struct.std::pair", %"struct.std::pair"* %0, i64 %34, i32 1, i32 2
  %41 = bitcast %union.anon* %40 to i8*
  %42 = icmp eq i8* %39, %41
  br i1 %42, label %43, label %44

43:                                               ; preds = %33
  call void @llvm.memcpy.p0i8.p0i8.i64(i8* noundef nonnull align 8 dereferenceable(16) %21, i8* noundef nonnull align 8 dereferenceable(16) %39, i64 16, i1 false) #17
  br label %47

44:                                               ; preds = %33
  store i8* %39, i8** %19, align 8, !tbaa !28
  %45 = getelementptr inbounds %"struct.std::pair", %"struct.std::pair"* %0, i64 %34, i32 1, i32 2, i32 0
  %46 = load i64, i64* %45, align 8, !tbaa !21
  store i64 %46, i64* %20, align 8, !tbaa !21
  br label %47

47:                                               ; preds = %43, %44
  %48 = phi i8* [ %21, %43 ], [ %39, %44 ]
  %49 = getelementptr inbounds %"struct.std::pair", %"struct.std::pair"* %0, i64 %34, i32 1, i32 1
  %50 = load i64, i64* %49, align 8, !tbaa !20
  %51 = bitcast %"class.std::__cxx11::basic_string"* %37 to %union.anon**
  store %union.anon* %40, %union.anon** %51, align 8, !tbaa !28
  store i64 0, i64* %49, align 8, !tbaa !20
  store i8 0, i8* %41, align 8, !tbaa !21
  store double %36, double* %23, align 8, !tbaa !13
  store %union.anon* %25, %union.anon** %26, align 8, !tbaa !19
  %52 = icmp eq i8* %48, %21
  br i1 %52, label %53, label %54

53:                                               ; preds = %47
  call void @llvm.memcpy.p0i8.p0i8.i64(i8* noundef nonnull align 8 dereferenceable(16) %29, i8* noundef nonnull align 8 dereferenceable(16) %21, i64 16, i1 false) #17
  br label %56

54:                                               ; preds = %47
  store i8* %48, i8** %27, align 8, !tbaa !28
  %55 = load i64, i64* %20, align 8, !tbaa !21
  store i64 %55, i64* %28, align 8, !tbaa !21
  br label %56

56:                                               ; preds = %53, %54
  store i64 %50, i64* %30, align 8, !tbaa !20
  store %union.anon* %17, %union.anon** %18, align 8, !tbaa !28
  store i64 0, i64* %22, align 8, !tbaa !20
  store i8 0, i8* %21, align 8, !tbaa !21
  invoke void @_ZSt13__adjust_heapIN9__gnu_cxx17__normal_iteratorIPSt4pairIdNSt7__cxx1112basic_stringIcSt11char_traitsIcESaIcEEEESt6vectorIS9_SaIS9_EEEElS9_NS0_5__ops15_Iter_less_iterEEvT_T0_SI_T1_T2_(%"struct.std::pair"* nonnull %0, i64 %34, i64 %9, %"struct.std::pair"* nonnull %5)
          to label %57 unwind label %68

57:                                               ; preds = %56
  %58 = load i8*, i8** %31, align 8, !tbaa !28
  %59 = icmp eq i8* %58, %29
  br i1 %59, label %61, label %60

60:                                               ; preds = %57
  call void @_ZdlPv(i8* %58) #17
  br label %61

61:                                               ; preds = %57, %60
  %62 = icmp eq i64 %34, 0
  %63 = add nsw i64 %34, -1
  %64 = load i8*, i8** %32, align 8, !tbaa !28
  %65 = icmp eq i8* %64, %21
  br i1 %65, label %67, label %66

66:                                               ; preds = %61
  call void @_ZdlPv(i8* %64) #17
  br label %67

67:                                               ; preds = %61, %66
  call void @llvm.lifetime.end.p0i8(i64 40, i8* nonnull %14) #17
  br i1 %62, label %78, label %33, !llvm.loop !41

68:                                               ; preds = %56
  %69 = landingpad { i8*, i32 }
          cleanup
  %70 = load i8*, i8** %31, align 8, !tbaa !28
  %71 = icmp eq i8* %70, %29
  br i1 %71, label %73, label %72

72:                                               ; preds = %68
  call void @_ZdlPv(i8* %70) #17
  br label %73

73:                                               ; preds = %68, %72
  %74 = load i8*, i8** %32, align 8, !tbaa !28
  %75 = icmp eq i8* %74, %21
  br i1 %75, label %77, label %76

76:                                               ; preds = %73
  call void @_ZdlPv(i8* %74) #17
  br label %77

77:                                               ; preds = %73, %76
  call void @llvm.lifetime.end.p0i8(i64 40, i8* nonnull %14) #17
  resume { i8*, i32 } %69

78:                                               ; preds = %67, %3
  ret void
}

; Function Attrs: inlinehint sspstrong uwtable
define linkonce_odr dso_local void @_ZSt10__pop_heapIN9__gnu_cxx17__normal_iteratorIPSt4pairIdNSt7__cxx1112basic_stringIcSt11char_traitsIcESaIcEEEESt6vectorIS9_SaIS9_EEEENS0_5__ops15_Iter_less_iterEEvT_SH_SH_RT0_(%"struct.std::pair"* %0, %"struct.std::pair"* %1, %"struct.std::pair"* %2, %"struct.__gnu_cxx::__ops::_Iter_less_iter"* nonnull align 1 dereferenceable(1) %3) local_unnamed_addr #11 comdat personality i8* bitcast (i32 (...)* @__gxx_personality_v0 to i8*) {
  %5 = alloca %"struct.std::pair", align 8
  %6 = alloca %"struct.std::pair", align 8
  %7 = bitcast %"struct.std::pair"* %5 to i8*
  call void @llvm.lifetime.start.p0i8(i64 40, i8* nonnull %7) #17
  %8 = getelementptr inbounds %"struct.std::pair", %"struct.std::pair"* %5, i64 0, i32 0
  %9 = getelementptr inbounds %"struct.std::pair", %"struct.std::pair"* %2, i64 0, i32 0
  %10 = load double, double* %9, align 8, !tbaa !13
  store double %10, double* %8, align 8, !tbaa !13
  %11 = getelementptr inbounds %"struct.std::pair", %"struct.std::pair"* %5, i64 0, i32 1
  %12 = getelementptr inbounds %"struct.std::pair", %"struct.std::pair"* %2, i64 0, i32 1
  %13 = getelementptr inbounds %"struct.std::pair", %"struct.std::pair"* %5, i64 0, i32 1, i32 2
  %14 = bitcast %"class.std::__cxx11::basic_string"* %11 to %union.anon**
  store %union.anon* %13, %union.anon** %14, align 8, !tbaa !19
  %15 = getelementptr inbounds %"class.std::__cxx11::basic_string", %"class.std::__cxx11::basic_string"* %12, i64 0, i32 0, i32 0
  %16 = load i8*, i8** %15, align 8, !tbaa !28
  %17 = getelementptr inbounds %"struct.std::pair", %"struct.std::pair"* %2, i64 0, i32 1, i32 2
  %18 = bitcast %union.anon* %17 to i8*
  %19 = icmp eq i8* %16, %18
  br i1 %19, label %20, label %22

20:                                               ; preds = %4
  %21 = bitcast %union.anon* %13 to i8*
  call void @llvm.memcpy.p0i8.p0i8.i64(i8* noundef nonnull align 8 dereferenceable(16) %21, i8* noundef nonnull align 8 dereferenceable(16) %16, i64 16, i1 false) #17
  br label %27

22:                                               ; preds = %4
  %23 = getelementptr inbounds %"class.std::__cxx11::basic_string", %"class.std::__cxx11::basic_string"* %11, i64 0, i32 0, i32 0
  store i8* %16, i8** %23, align 8, !tbaa !28
  %24 = getelementptr inbounds %"struct.std::pair", %"struct.std::pair"* %2, i64 0, i32 1, i32 2, i32 0
  %25 = load i64, i64* %24, align 8, !tbaa !21
  %26 = getelementptr inbounds %"struct.std::pair", %"struct.std::pair"* %5, i64 0, i32 1, i32 2, i32 0
  store i64 %25, i64* %26, align 8, !tbaa !21
  br label %27

27:                                               ; preds = %20, %22
  %28 = getelementptr inbounds %"struct.std::pair", %"struct.std::pair"* %2, i64 0, i32 1, i32 1
  %29 = load i64, i64* %28, align 8, !tbaa !20
  %30 = getelementptr inbounds %"struct.std::pair", %"struct.std::pair"* %5, i64 0, i32 1, i32 1
  store i64 %29, i64* %30, align 8, !tbaa !20
  %31 = bitcast %"class.std::__cxx11::basic_string"* %12 to %union.anon**
  store %union.anon* %17, %union.anon** %31, align 8, !tbaa !28
  store i64 0, i64* %28, align 8, !tbaa !20
  store i8 0, i8* %18, align 8, !tbaa !21
  %32 = getelementptr inbounds %"struct.std::pair", %"struct.std::pair"* %0, i64 0, i32 0
  %33 = load double, double* %32, align 8, !tbaa !42
  store double %33, double* %9, align 8, !tbaa !13
  %34 = getelementptr inbounds %"struct.std::pair", %"struct.std::pair"* %0, i64 0, i32 1
  %35 = getelementptr inbounds %"class.std::__cxx11::basic_string", %"class.std::__cxx11::basic_string"* %34, i64 0, i32 0, i32 0
  %36 = load i8*, i8** %35, align 8, !tbaa !28
  %37 = getelementptr inbounds %"struct.std::pair", %"struct.std::pair"* %0, i64 0, i32 1, i32 2
  %38 = bitcast %union.anon* %37 to i8*
  %39 = icmp eq i8* %36, %38
  br i1 %39, label %40, label %52

40:                                               ; preds = %27
  %41 = icmp eq %"struct.std::pair"* %0, %2
  br i1 %41, label %60, label %42, !prof !43

42:                                               ; preds = %40
  %43 = getelementptr inbounds %"struct.std::pair", %"struct.std::pair"* %0, i64 0, i32 1, i32 1
  %44 = load i64, i64* %43, align 8, !tbaa !20
  switch i64 %44, label %47 [
    i64 0, label %48
    i64 1, label %45
  ]

45:                                               ; preds = %42
  %46 = load i8, i8* %36, align 1, !tbaa !21
  store i8 %46, i8* %18, align 1, !tbaa !21
  br label %48

47:                                               ; preds = %42
  call void @llvm.memcpy.p0i8.p0i8.i64(i8* nonnull align 1 %18, i8* align 1 %36, i64 %44, i1 false) #17
  br label %48

48:                                               ; preds = %42, %47, %45
  %49 = load i64, i64* %43, align 8, !tbaa !20
  store i64 %49, i64* %28, align 8, !tbaa !20
  %50 = getelementptr inbounds i8, i8* %18, i64 %49
  store i8 0, i8* %50, align 1, !tbaa !21
  %51 = load i8*, i8** %35, align 8, !tbaa !28
  br label %60

52:                                               ; preds = %27
  %53 = getelementptr inbounds %"struct.std::pair", %"struct.std::pair"* %2, i64 0, i32 1, i32 0, i32 0
  %54 = getelementptr inbounds %"struct.std::pair", %"struct.std::pair"* %2, i64 0, i32 1, i32 2, i32 0
  store i8* %36, i8** %53, align 8, !tbaa !28
  %55 = getelementptr inbounds %"struct.std::pair", %"struct.std::pair"* %0, i64 0, i32 1, i32 1
  %56 = load i64, i64* %55, align 8, !tbaa !20
  store i64 %56, i64* %28, align 8, !tbaa !20
  %57 = getelementptr %union.anon, %union.anon* %37, i64 0, i32 0
  %58 = load i64, i64* %57, align 8, !tbaa !21
  store i64 %58, i64* %54, align 8, !tbaa !21
  %59 = bitcast %"class.std::__cxx11::basic_string"* %34 to %union.anon**
  store %union.anon* %37, %union.anon** %59, align 8, !tbaa !28
  br label %60

60:                                               ; preds = %40, %48, %52
  %61 = phi i8* [ %51, %48 ], [ %38, %52 ], [ %36, %40 ]
  %62 = getelementptr inbounds %"struct.std::pair", %"struct.std::pair"* %0, i64 0, i32 1, i32 1
  store i64 0, i64* %62, align 8, !tbaa !20
  store i8 0, i8* %61, align 1, !tbaa !21
  %63 = ptrtoint %"struct.std::pair"* %1 to i64
  %64 = ptrtoint %"struct.std::pair"* %0 to i64
  %65 = sub i64 %63, %64
  %66 = sdiv exact i64 %65, 40
  %67 = getelementptr inbounds %"struct.std::pair", %"struct.std::pair"* %6, i64 0, i32 0
  %68 = load double, double* %8, align 8, !tbaa !13
  store double %68, double* %67, align 8, !tbaa !13
  %69 = getelementptr inbounds %"struct.std::pair", %"struct.std::pair"* %6, i64 0, i32 1
  %70 = getelementptr inbounds %"struct.std::pair", %"struct.std::pair"* %6, i64 0, i32 1, i32 2
  %71 = bitcast %"class.std::__cxx11::basic_string"* %69 to %union.anon**
  store %union.anon* %70, %union.anon** %71, align 8, !tbaa !19
  %72 = getelementptr inbounds %"class.std::__cxx11::basic_string", %"class.std::__cxx11::basic_string"* %11, i64 0, i32 0, i32 0
  %73 = load i8*, i8** %72, align 8, !tbaa !28
  %74 = bitcast %union.anon* %13 to i8*
  %75 = icmp eq i8* %73, %74
  br i1 %75, label %76, label %78

76:                                               ; preds = %60
  %77 = bitcast %union.anon* %70 to i8*
  call void @llvm.memcpy.p0i8.p0i8.i64(i8* noundef nonnull align 8 dereferenceable(16) %77, i8* noundef nonnull align 8 dereferenceable(16) %74, i64 16, i1 false) #17
  br label %83

78:                                               ; preds = %60
  %79 = getelementptr inbounds %"class.std::__cxx11::basic_string", %"class.std::__cxx11::basic_string"* %69, i64 0, i32 0, i32 0
  store i8* %73, i8** %79, align 8, !tbaa !28
  %80 = getelementptr inbounds %"struct.std::pair", %"struct.std::pair"* %5, i64 0, i32 1, i32 2, i32 0
  %81 = load i64, i64* %80, align 8, !tbaa !21
  %82 = getelementptr inbounds %"struct.std::pair", %"struct.std::pair"* %6, i64 0, i32 1, i32 2, i32 0
  store i64 %81, i64* %82, align 8, !tbaa !21
  br label %83

83:                                               ; preds = %76, %78
  %84 = load i64, i64* %30, align 8, !tbaa !20
  %85 = getelementptr inbounds %"struct.std::pair", %"struct.std::pair"* %6, i64 0, i32 1, i32 1
  store i64 %84, i64* %85, align 8, !tbaa !20
  store %union.anon* %13, %union.anon** %14, align 8, !tbaa !28
  store i64 0, i64* %30, align 8, !tbaa !20
  store i8 0, i8* %74, align 8, !tbaa !21
  invoke void @_ZSt13__adjust_heapIN9__gnu_cxx17__normal_iteratorIPSt4pairIdNSt7__cxx1112basic_stringIcSt11char_traitsIcESaIcEEEESt6vectorIS9_SaIS9_EEEElS9_NS0_5__ops15_Iter_less_iterEEvT_T0_SI_T1_T2_(%"struct.std::pair"* nonnull %0, i64 0, i64 %66, %"struct.std::pair"* nonnull %6)
          to label %86 unwind label %98

86:                                               ; preds = %83
  %87 = getelementptr inbounds %"struct.std::pair", %"struct.std::pair"* %6, i64 0, i32 1, i32 0, i32 0
  %88 = load i8*, i8** %87, align 8, !tbaa !28
  %89 = bitcast %union.anon* %70 to i8*
  %90 = icmp eq i8* %88, %89
  br i1 %90, label %92, label %91

91:                                               ; preds = %86
  call void @_ZdlPv(i8* %88) #17
  br label %92

92:                                               ; preds = %86, %91
  %93 = getelementptr inbounds %"struct.std::pair", %"struct.std::pair"* %5, i64 0, i32 1, i32 0, i32 0
  %94 = load i8*, i8** %93, align 8, !tbaa !28
  %95 = icmp eq i8* %94, %74
  br i1 %95, label %97, label %96

96:                                               ; preds = %92
  call void @_ZdlPv(i8* %94) #17
  br label %97

97:                                               ; preds = %92, %96
  call void @llvm.lifetime.end.p0i8(i64 40, i8* nonnull %7) #17
  ret void

98:                                               ; preds = %83
  %99 = landingpad { i8*, i32 }
          cleanup
  %100 = getelementptr inbounds %"struct.std::pair", %"struct.std::pair"* %6, i64 0, i32 1, i32 0, i32 0
  %101 = load i8*, i8** %100, align 8, !tbaa !28
  %102 = bitcast %union.anon* %70 to i8*
  %103 = icmp eq i8* %101, %102
  br i1 %103, label %105, label %104

104:                                              ; preds = %98
  call void @_ZdlPv(i8* %101) #17
  br label %105

105:                                              ; preds = %98, %104
  %106 = getelementptr inbounds %"struct.std::pair", %"struct.std::pair"* %5, i64 0, i32 1, i32 0, i32 0
  %107 = load i8*, i8** %106, align 8, !tbaa !28
  %108 = icmp eq i8* %107, %74
  br i1 %108, label %110, label %109

109:                                              ; preds = %105
  call void @_ZdlPv(i8* %107) #17
  br label %110

110:                                              ; preds = %105, %109
  call void @llvm.lifetime.end.p0i8(i64 40, i8* nonnull %7) #17
  resume { i8*, i32 } %99
}

; Function Attrs: sspstrong uwtable
define linkonce_odr dso_local void @_ZSt13__adjust_heapIN9__gnu_cxx17__normal_iteratorIPSt4pairIdNSt7__cxx1112basic_stringIcSt11char_traitsIcESaIcEEEESt6vectorIS9_SaIS9_EEEElS9_NS0_5__ops15_Iter_less_iterEEvT_T0_SI_T1_T2_(%"struct.std::pair"* %0, i64 %1, i64 %2, %"struct.std::pair"* %3) local_unnamed_addr #10 comdat personality i8* bitcast (i32 (...)* @__gxx_personality_v0 to i8*) {
  %5 = alloca %"struct.__gnu_cxx::__ops::_Iter_less_val", align 1
  %6 = alloca %"struct.std::pair", align 8
  %7 = add nsw i64 %2, -1
  %8 = sdiv i64 %7, 2
  %9 = icmp sgt i64 %8, %1
  br i1 %9, label %10, label %99

10:                                               ; preds = %4, %95
  %11 = phi i64 [ %50, %95 ], [ %1, %4 ]
  %12 = shl i64 %11, 1
  %13 = add i64 %12, 2
  %14 = or i64 %12, 1
  %15 = getelementptr inbounds %"struct.std::pair", %"struct.std::pair"* %0, i64 %13, i32 0
  %16 = load double, double* %15, align 8, !tbaa !13
  %17 = getelementptr inbounds %"struct.std::pair", %"struct.std::pair"* %0, i64 %14, i32 0
  %18 = load double, double* %17, align 8, !tbaa !13
  %19 = fcmp olt double %16, %18
  br i1 %19, label %47, label %20

20:                                               ; preds = %10
  %21 = fcmp olt double %18, %16
  br i1 %21, label %48, label %22

22:                                               ; preds = %20
  %23 = getelementptr inbounds %"struct.std::pair", %"struct.std::pair"* %0, i64 %13, i32 1, i32 1
  %24 = load i64, i64* %23, align 8, !tbaa !20
  %25 = getelementptr inbounds %"struct.std::pair", %"struct.std::pair"* %0, i64 %14, i32 1, i32 1
  %26 = load i64, i64* %25, align 8, !tbaa !20
  %27 = icmp ugt i64 %24, %26
  %28 = select i1 %27, i64 %26, i64 %24
  %29 = icmp eq i64 %28, 0
  br i1 %29, label %37, label %30

30:                                               ; preds = %22
  %31 = getelementptr inbounds %"struct.std::pair", %"struct.std::pair"* %0, i64 %14, i32 1, i32 0, i32 0
  %32 = load i8*, i8** %31, align 8, !tbaa !28
  %33 = getelementptr inbounds %"struct.std::pair", %"struct.std::pair"* %0, i64 %13, i32 1, i32 0, i32 0
  %34 = load i8*, i8** %33, align 8, !tbaa !28
  %35 = tail call i32 @memcmp(i8* %34, i8* %32, i64 %28) #17
  %36 = icmp eq i32 %35, 0
  br i1 %36, label %37, label %44

37:                                               ; preds = %30, %22
  %38 = sub i64 %24, %26
  %39 = icmp sgt i64 %38, -2147483648
  %40 = select i1 %39, i64 %38, i64 -2147483648
  %41 = icmp slt i64 %40, 2147483647
  %42 = select i1 %41, i64 %40, i64 2147483647
  %43 = trunc i64 %42 to i32
  br label %44

44:                                               ; preds = %30, %37
  %45 = phi i32 [ %35, %30 ], [ %43, %37 ]
  %46 = icmp slt i32 %45, 0
  br i1 %46, label %47, label %48

47:                                               ; preds = %10, %44
  br label %48

48:                                               ; preds = %20, %44, %47
  %49 = phi double [ %18, %47 ], [ %16, %44 ], [ %16, %20 ]
  %50 = phi i64 [ %14, %47 ], [ %13, %44 ], [ %13, %20 ]
  %51 = getelementptr inbounds %"struct.std::pair", %"struct.std::pair"* %0, i64 %11, i32 0
  store double %49, double* %51, align 8, !tbaa !13
  %52 = getelementptr inbounds %"struct.std::pair", %"struct.std::pair"* %0, i64 %50, i32 1
  %53 = getelementptr inbounds %"struct.std::pair", %"struct.std::pair"* %0, i64 %11, i32 1, i32 0, i32 0
  %54 = getelementptr inbounds %"class.std::__cxx11::basic_string", %"class.std::__cxx11::basic_string"* %52, i64 0, i32 0, i32 0
  %55 = load i8*, i8** %54, align 8, !tbaa !28
  %56 = getelementptr inbounds %"struct.std::pair", %"struct.std::pair"* %0, i64 %50, i32 1, i32 2
  %57 = bitcast %union.anon* %56 to i8*
  %58 = icmp eq i8* %55, %57
  br i1 %58, label %59, label %77

59:                                               ; preds = %48
  %60 = icmp eq i64 %50, %11
  br i1 %60, label %95, label %61, !prof !43

61:                                               ; preds = %59
  %62 = getelementptr inbounds %"struct.std::pair", %"struct.std::pair"* %0, i64 %50, i32 1, i32 1
  %63 = load i64, i64* %62, align 8, !tbaa !20
  %64 = icmp eq i64 %63, 0
  br i1 %64, label %71, label %65

65:                                               ; preds = %61
  %66 = load i8*, i8** %53, align 8, !tbaa !28
  %67 = icmp eq i64 %63, 1
  br i1 %67, label %68, label %70

68:                                               ; preds = %65
  %69 = load i8, i8* %55, align 1, !tbaa !21
  store i8 %69, i8* %66, align 1, !tbaa !21
  br label %71

70:                                               ; preds = %65
  tail call void @llvm.memcpy.p0i8.p0i8.i64(i8* align 1 %66, i8* align 1 %55, i64 %63, i1 false) #17
  br label %71

71:                                               ; preds = %70, %68, %61
  %72 = load i64, i64* %62, align 8, !tbaa !20
  %73 = getelementptr inbounds %"struct.std::pair", %"struct.std::pair"* %0, i64 %11, i32 1, i32 1
  store i64 %72, i64* %73, align 8, !tbaa !20
  %74 = load i8*, i8** %53, align 8, !tbaa !28
  %75 = getelementptr inbounds i8, i8* %74, i64 %72
  store i8 0, i8* %75, align 1, !tbaa !21
  %76 = load i8*, i8** %54, align 8, !tbaa !28
  br label %95

77:                                               ; preds = %48
  %78 = getelementptr inbounds %"struct.std::pair", %"struct.std::pair"* %0, i64 %11, i32 1, i32 2
  %79 = bitcast %union.anon* %78 to i8*
  %80 = load i8*, i8** %53, align 8, !tbaa !28
  %81 = icmp eq i8* %80, %79
  %82 = getelementptr inbounds %"struct.std::pair", %"struct.std::pair"* %0, i64 %11, i32 1, i32 2, i32 0
  %83 = load i64, i64* %82, align 8
  store i8* %55, i8** %53, align 8, !tbaa !28
  %84 = getelementptr inbounds %"struct.std::pair", %"struct.std::pair"* %0, i64 %50, i32 1, i32 1
  %85 = getelementptr inbounds %"struct.std::pair", %"struct.std::pair"* %0, i64 %11, i32 1, i32 1
  %86 = bitcast i64* %84 to <2 x i64>*
  %87 = load <2 x i64>, <2 x i64>* %86, align 8, !tbaa !21
  %88 = bitcast i64* %85 to <2 x i64>*
  store <2 x i64> %87, <2 x i64>* %88, align 8, !tbaa !21
  %89 = icmp eq i8* %80, null
  %90 = or i1 %81, %89
  br i1 %90, label %93, label %91

91:                                               ; preds = %77
  store i8* %80, i8** %54, align 8, !tbaa !28
  %92 = getelementptr inbounds %"struct.std::pair", %"struct.std::pair"* %0, i64 %50, i32 1, i32 2, i32 0
  store i64 %83, i64* %92, align 8, !tbaa !21
  br label %95

93:                                               ; preds = %77
  %94 = bitcast %"class.std::__cxx11::basic_string"* %52 to %union.anon**
  store %union.anon* %56, %union.anon** %94, align 8, !tbaa !28
  br label %95

95:                                               ; preds = %59, %71, %91, %93
  %96 = phi i8* [ %76, %71 ], [ %80, %91 ], [ %57, %93 ], [ %55, %59 ]
  %97 = getelementptr inbounds %"struct.std::pair", %"struct.std::pair"* %0, i64 %50, i32 1, i32 1
  store i64 0, i64* %97, align 8, !tbaa !20
  store i8 0, i8* %96, align 1, !tbaa !21
  %98 = icmp slt i64 %50, %8
  br i1 %98, label %10, label %99, !llvm.loop !44

99:                                               ; preds = %95, %4
  %100 = phi i64 [ %1, %4 ], [ %50, %95 ]
  %101 = and i64 %2, 1
  %102 = icmp eq i64 %101, 0
  br i1 %102, label %103, label %159

103:                                              ; preds = %99
  %104 = add nsw i64 %2, -2
  %105 = sdiv i64 %104, 2
  %106 = icmp eq i64 %100, %105
  br i1 %106, label %107, label %159

107:                                              ; preds = %103
  %108 = shl i64 %100, 1
  %109 = or i64 %108, 1
  %110 = getelementptr inbounds %"struct.std::pair", %"struct.std::pair"* %0, i64 %109, i32 0
  %111 = load double, double* %110, align 8, !tbaa !42
  %112 = getelementptr inbounds %"struct.std::pair", %"struct.std::pair"* %0, i64 %100, i32 0
  store double %111, double* %112, align 8, !tbaa !13
  %113 = getelementptr inbounds %"struct.std::pair", %"struct.std::pair"* %0, i64 %109, i32 1
  %114 = getelementptr inbounds %"struct.std::pair", %"struct.std::pair"* %0, i64 %100, i32 1, i32 0, i32 0
  %115 = getelementptr inbounds %"class.std::__cxx11::basic_string", %"class.std::__cxx11::basic_string"* %113, i64 0, i32 0, i32 0
  %116 = load i8*, i8** %115, align 8, !tbaa !28
  %117 = getelementptr inbounds %"struct.std::pair", %"struct.std::pair"* %0, i64 %109, i32 1, i32 2
  %118 = bitcast %union.anon* %117 to i8*
  %119 = icmp eq i8* %116, %118
  br i1 %119, label %120, label %138

120:                                              ; preds = %107
  %121 = icmp eq i64 %109, %100
  br i1 %121, label %156, label %122, !prof !43

122:                                              ; preds = %120
  %123 = getelementptr inbounds %"struct.std::pair", %"struct.std::pair"* %0, i64 %109, i32 1, i32 1
  %124 = load i64, i64* %123, align 8, !tbaa !20
  %125 = icmp eq i64 %124, 0
  br i1 %125, label %132, label %126

126:                                              ; preds = %122
  %127 = load i8*, i8** %114, align 8, !tbaa !28
  %128 = icmp eq i64 %124, 1
  br i1 %128, label %129, label %131

129:                                              ; preds = %126
  %130 = load i8, i8* %116, align 1, !tbaa !21
  store i8 %130, i8* %127, align 1, !tbaa !21
  br label %132

131:                                              ; preds = %126
  tail call void @llvm.memcpy.p0i8.p0i8.i64(i8* align 1 %127, i8* align 1 %116, i64 %124, i1 false) #17
  br label %132

132:                                              ; preds = %131, %129, %122
  %133 = load i64, i64* %123, align 8, !tbaa !20
  %134 = getelementptr inbounds %"struct.std::pair", %"struct.std::pair"* %0, i64 %100, i32 1, i32 1
  store i64 %133, i64* %134, align 8, !tbaa !20
  %135 = load i8*, i8** %114, align 8, !tbaa !28
  %136 = getelementptr inbounds i8, i8* %135, i64 %133
  store i8 0, i8* %136, align 1, !tbaa !21
  %137 = load i8*, i8** %115, align 8, !tbaa !28
  br label %156

138:                                              ; preds = %107
  %139 = getelementptr inbounds %"struct.std::pair", %"struct.std::pair"* %0, i64 %100, i32 1, i32 2
  %140 = bitcast %union.anon* %139 to i8*
  %141 = load i8*, i8** %114, align 8, !tbaa !28
  %142 = icmp eq i8* %141, %140
  %143 = getelementptr inbounds %"struct.std::pair", %"struct.std::pair"* %0, i64 %100, i32 1, i32 2, i32 0
  %144 = load i64, i64* %143, align 8
  store i8* %116, i8** %114, align 8, !tbaa !28
  %145 = getelementptr inbounds %"struct.std::pair", %"struct.std::pair"* %0, i64 %109, i32 1, i32 1
  %146 = load i64, i64* %145, align 8, !tbaa !20
  %147 = getelementptr inbounds %"struct.std::pair", %"struct.std::pair"* %0, i64 %100, i32 1, i32 1
  store i64 %146, i64* %147, align 8, !tbaa !20
  %148 = getelementptr %union.anon, %union.anon* %117, i64 0, i32 0
  %149 = load i64, i64* %148, align 8, !tbaa !21
  store i64 %149, i64* %143, align 8, !tbaa !21
  %150 = icmp eq i8* %141, null
  %151 = or i1 %142, %150
  br i1 %151, label %154, label %152

152:                                              ; preds = %138
  store i8* %141, i8** %115, align 8, !tbaa !28
  %153 = getelementptr inbounds %"struct.std::pair", %"struct.std::pair"* %0, i64 %109, i32 1, i32 2, i32 0
  store i64 %144, i64* %153, align 8, !tbaa !21
  br label %156

154:                                              ; preds = %138
  %155 = bitcast %"class.std::__cxx11::basic_string"* %113 to %union.anon**
  store %union.anon* %117, %union.anon** %155, align 8, !tbaa !28
  br label %156

156:                                              ; preds = %120, %132, %152, %154
  %157 = phi i8* [ %137, %132 ], [ %141, %152 ], [ %118, %154 ], [ %116, %120 ]
  %158 = getelementptr inbounds %"struct.std::pair", %"struct.std::pair"* %0, i64 %109, i32 1, i32 1
  store i64 0, i64* %158, align 8, !tbaa !20
  store i8 0, i8* %157, align 1, !tbaa !21
  br label %159

159:                                              ; preds = %156, %103, %99
  %160 = phi i64 [ %109, %156 ], [ %100, %103 ], [ %100, %99 ]
  %161 = getelementptr inbounds %"struct.__gnu_cxx::__ops::_Iter_less_val", %"struct.__gnu_cxx::__ops::_Iter_less_val"* %5, i64 0, i32 0
  call void @llvm.lifetime.start.p0i8(i64 1, i8* nonnull %161) #17
  %162 = getelementptr inbounds %"struct.std::pair", %"struct.std::pair"* %6, i64 0, i32 0
  %163 = getelementptr inbounds %"struct.std::pair", %"struct.std::pair"* %3, i64 0, i32 0
  %164 = load double, double* %163, align 8, !tbaa !13
  store double %164, double* %162, align 8, !tbaa !13
  %165 = getelementptr inbounds %"struct.std::pair", %"struct.std::pair"* %6, i64 0, i32 1
  %166 = getelementptr inbounds %"struct.std::pair", %"struct.std::pair"* %3, i64 0, i32 1
  %167 = getelementptr inbounds %"struct.std::pair", %"struct.std::pair"* %6, i64 0, i32 1, i32 2
  %168 = bitcast %"class.std::__cxx11::basic_string"* %165 to %union.anon**
  store %union.anon* %167, %union.anon** %168, align 8, !tbaa !19
  %169 = getelementptr inbounds %"class.std::__cxx11::basic_string", %"class.std::__cxx11::basic_string"* %166, i64 0, i32 0, i32 0
  %170 = load i8*, i8** %169, align 8, !tbaa !28
  %171 = getelementptr inbounds %"struct.std::pair", %"struct.std::pair"* %3, i64 0, i32 1, i32 2
  %172 = bitcast %union.anon* %171 to i8*
  %173 = icmp eq i8* %170, %172
  br i1 %173, label %174, label %176

174:                                              ; preds = %159
  %175 = bitcast %union.anon* %167 to i8*
  call void @llvm.memcpy.p0i8.p0i8.i64(i8* noundef nonnull align 8 dereferenceable(16) %175, i8* noundef nonnull align 8 dereferenceable(16) %170, i64 16, i1 false) #17
  br label %181

176:                                              ; preds = %159
  %177 = getelementptr inbounds %"class.std::__cxx11::basic_string", %"class.std::__cxx11::basic_string"* %165, i64 0, i32 0, i32 0
  store i8* %170, i8** %177, align 8, !tbaa !28
  %178 = getelementptr inbounds %"struct.std::pair", %"struct.std::pair"* %3, i64 0, i32 1, i32 2, i32 0
  %179 = load i64, i64* %178, align 8, !tbaa !21
  %180 = getelementptr inbounds %"struct.std::pair", %"struct.std::pair"* %6, i64 0, i32 1, i32 2, i32 0
  store i64 %179, i64* %180, align 8, !tbaa !21
  br label %181

181:                                              ; preds = %174, %176
  %182 = getelementptr inbounds %"struct.std::pair", %"struct.std::pair"* %3, i64 0, i32 1, i32 1
  %183 = load i64, i64* %182, align 8, !tbaa !20
  %184 = getelementptr inbounds %"struct.std::pair", %"struct.std::pair"* %6, i64 0, i32 1, i32 1
  store i64 %183, i64* %184, align 8, !tbaa !20
  %185 = bitcast %"class.std::__cxx11::basic_string"* %166 to %union.anon**
  store %union.anon* %171, %union.anon** %185, align 8, !tbaa !28
  store i64 0, i64* %182, align 8, !tbaa !20
  store i8 0, i8* %172, align 8, !tbaa !21
  invoke void @_ZSt11__push_heapIN9__gnu_cxx17__normal_iteratorIPSt4pairIdNSt7__cxx1112basic_stringIcSt11char_traitsIcESaIcEEEESt6vectorIS9_SaIS9_EEEElS9_NS0_5__ops14_Iter_less_valEEvT_T0_SI_T1_RT2_(%"struct.std::pair"* %0, i64 %160, i64 %1, %"struct.std::pair"* nonnull %6, %"struct.__gnu_cxx::__ops::_Iter_less_val"* nonnull align 1 dereferenceable(1) %5)
          to label %186 unwind label %193

186:                                              ; preds = %181
  %187 = getelementptr inbounds %"struct.std::pair", %"struct.std::pair"* %6, i64 0, i32 1, i32 0, i32 0
  %188 = load i8*, i8** %187, align 8, !tbaa !28
  %189 = bitcast %union.anon* %167 to i8*
  %190 = icmp eq i8* %188, %189
  br i1 %190, label %192, label %191

191:                                              ; preds = %186
  call void @_ZdlPv(i8* %188) #17
  br label %192

192:                                              ; preds = %186, %191
  call void @llvm.lifetime.end.p0i8(i64 1, i8* nonnull %161) #17
  ret void

193:                                              ; preds = %181
  %194 = landingpad { i8*, i32 }
          cleanup
  %195 = getelementptr inbounds %"struct.std::pair", %"struct.std::pair"* %6, i64 0, i32 1, i32 0, i32 0
  %196 = load i8*, i8** %195, align 8, !tbaa !28
  %197 = bitcast %union.anon* %167 to i8*
  %198 = icmp eq i8* %196, %197
  br i1 %198, label %200, label %199

199:                                              ; preds = %193
  call void @_ZdlPv(i8* %196) #17
  br label %200

200:                                              ; preds = %193, %199
  call void @llvm.lifetime.end.p0i8(i64 1, i8* nonnull %161) #17
  resume { i8*, i32 } %194
}

; Function Attrs: sspstrong uwtable
define linkonce_odr dso_local void @_ZSt11__push_heapIN9__gnu_cxx17__normal_iteratorIPSt4pairIdNSt7__cxx1112basic_stringIcSt11char_traitsIcESaIcEEEESt6vectorIS9_SaIS9_EEEElS9_NS0_5__ops14_Iter_less_valEEvT_T0_SI_T1_RT2_(%"struct.std::pair"* %0, i64 %1, i64 %2, %"struct.std::pair"* %3, %"struct.__gnu_cxx::__ops::_Iter_less_val"* nonnull align 1 dereferenceable(1) %4) local_unnamed_addr #10 comdat personality i32 (...)* @__gxx_personality_v0 {
  %6 = getelementptr inbounds %"struct.std::pair", %"struct.std::pair"* %3, i64 0, i32 0
  %7 = getelementptr inbounds %"struct.std::pair", %"struct.std::pair"* %3, i64 0, i32 1, i32 1
  %8 = getelementptr inbounds %"struct.std::pair", %"struct.std::pair"* %3, i64 0, i32 1, i32 0, i32 0
  %9 = icmp sgt i64 %1, %2
  br i1 %9, label %10, label %92

10:                                               ; preds = %5, %88
  %11 = phi i64 [ %13, %88 ], [ %1, %5 ]
  %12 = add nsw i64 %11, -1
  %13 = sdiv i64 %12, 2
  %14 = getelementptr inbounds %"struct.std::pair", %"struct.std::pair"* %0, i64 %13, i32 0
  %15 = load double, double* %14, align 8, !tbaa !13
  %16 = load double, double* %6, align 8, !tbaa !13
  %17 = fcmp olt double %15, %16
  br i1 %17, label %43, label %18

18:                                               ; preds = %10
  %19 = fcmp olt double %16, %15
  br i1 %19, label %92, label %20

20:                                               ; preds = %18
  %21 = getelementptr inbounds %"struct.std::pair", %"struct.std::pair"* %0, i64 %13, i32 1, i32 1
  %22 = load i64, i64* %21, align 8, !tbaa !20
  %23 = load i64, i64* %7, align 8, !tbaa !20
  %24 = icmp ugt i64 %22, %23
  %25 = select i1 %24, i64 %23, i64 %22
  %26 = icmp eq i64 %25, 0
  br i1 %26, label %33, label %27

27:                                               ; preds = %20
  %28 = load i8*, i8** %8, align 8, !tbaa !28
  %29 = getelementptr inbounds %"struct.std::pair", %"struct.std::pair"* %0, i64 %13, i32 1, i32 0, i32 0
  %30 = load i8*, i8** %29, align 8, !tbaa !28
  %31 = tail call i32 @memcmp(i8* %30, i8* %28, i64 %25) #17
  %32 = icmp eq i32 %31, 0
  br i1 %32, label %33, label %40

33:                                               ; preds = %27, %20
  %34 = sub i64 %22, %23
  %35 = icmp sgt i64 %34, -2147483648
  %36 = select i1 %35, i64 %34, i64 -2147483648
  %37 = icmp slt i64 %36, 2147483647
  %38 = select i1 %37, i64 %36, i64 2147483647
  %39 = trunc i64 %38 to i32
  br label %40

40:                                               ; preds = %27, %33
  %41 = phi i32 [ %31, %27 ], [ %39, %33 ]
  %42 = icmp slt i32 %41, 0
  br i1 %42, label %43, label %92

43:                                               ; preds = %10, %40
  %44 = getelementptr inbounds %"struct.std::pair", %"struct.std::pair"* %0, i64 %11, i32 0
  store double %15, double* %44, align 8, !tbaa !13
  %45 = getelementptr inbounds %"struct.std::pair", %"struct.std::pair"* %0, i64 %13, i32 1
  %46 = getelementptr inbounds %"struct.std::pair", %"struct.std::pair"* %0, i64 %11, i32 1, i32 0, i32 0
  %47 = getelementptr inbounds %"class.std::__cxx11::basic_string", %"class.std::__cxx11::basic_string"* %45, i64 0, i32 0, i32 0
  %48 = load i8*, i8** %47, align 8, !tbaa !28
  %49 = getelementptr inbounds %"struct.std::pair", %"struct.std::pair"* %0, i64 %13, i32 1, i32 2
  %50 = bitcast %union.anon* %49 to i8*
  %51 = icmp eq i8* %48, %50
  br i1 %51, label %52, label %70

52:                                               ; preds = %43
  %53 = icmp eq i64 %13, %11
  br i1 %53, label %88, label %54, !prof !43

54:                                               ; preds = %52
  %55 = getelementptr inbounds %"struct.std::pair", %"struct.std::pair"* %0, i64 %13, i32 1, i32 1
  %56 = load i64, i64* %55, align 8, !tbaa !20
  %57 = icmp eq i64 %56, 0
  br i1 %57, label %64, label %58

58:                                               ; preds = %54
  %59 = load i8*, i8** %46, align 8, !tbaa !28
  %60 = icmp eq i64 %56, 1
  br i1 %60, label %61, label %63

61:                                               ; preds = %58
  %62 = load i8, i8* %48, align 1, !tbaa !21
  store i8 %62, i8* %59, align 1, !tbaa !21
  br label %64

63:                                               ; preds = %58
  tail call void @llvm.memcpy.p0i8.p0i8.i64(i8* align 1 %59, i8* align 1 %48, i64 %56, i1 false) #17
  br label %64

64:                                               ; preds = %63, %61, %54
  %65 = load i64, i64* %55, align 8, !tbaa !20
  %66 = getelementptr inbounds %"struct.std::pair", %"struct.std::pair"* %0, i64 %11, i32 1, i32 1
  store i64 %65, i64* %66, align 8, !tbaa !20
  %67 = load i8*, i8** %46, align 8, !tbaa !28
  %68 = getelementptr inbounds i8, i8* %67, i64 %65
  store i8 0, i8* %68, align 1, !tbaa !21
  %69 = load i8*, i8** %47, align 8, !tbaa !28
  br label %88

70:                                               ; preds = %43
  %71 = getelementptr inbounds %"struct.std::pair", %"struct.std::pair"* %0, i64 %11, i32 1, i32 2
  %72 = bitcast %union.anon* %71 to i8*
  %73 = load i8*, i8** %46, align 8, !tbaa !28
  %74 = icmp eq i8* %73, %72
  %75 = getelementptr inbounds %"struct.std::pair", %"struct.std::pair"* %0, i64 %11, i32 1, i32 2, i32 0
  %76 = load i64, i64* %75, align 8
  store i8* %48, i8** %46, align 8, !tbaa !28
  %77 = getelementptr inbounds %"struct.std::pair", %"struct.std::pair"* %0, i64 %13, i32 1, i32 1
  %78 = getelementptr inbounds %"struct.std::pair", %"struct.std::pair"* %0, i64 %11, i32 1, i32 1
  %79 = bitcast i64* %77 to <2 x i64>*
  %80 = load <2 x i64>, <2 x i64>* %79, align 8, !tbaa !21
  %81 = bitcast i64* %78 to <2 x i64>*
  store <2 x i64> %80, <2 x i64>* %81, align 8, !tbaa !21
  %82 = icmp eq i8* %73, null
  %83 = or i1 %74, %82
  br i1 %83, label %86, label %84

84:                                               ; preds = %70
  store i8* %73, i8** %47, align 8, !tbaa !28
  %85 = getelementptr inbounds %"struct.std::pair", %"struct.std::pair"* %0, i64 %13, i32 1, i32 2, i32 0
  store i64 %76, i64* %85, align 8, !tbaa !21
  br label %88

86:                                               ; preds = %70
  %87 = bitcast %"class.std::__cxx11::basic_string"* %45 to %union.anon**
  store %union.anon* %49, %union.anon** %87, align 8, !tbaa !28
  br label %88

88:                                               ; preds = %52, %64, %84, %86
  %89 = phi i8* [ %69, %64 ], [ %73, %84 ], [ %50, %86 ], [ %48, %52 ]
  %90 = getelementptr inbounds %"struct.std::pair", %"struct.std::pair"* %0, i64 %13, i32 1, i32 1
  store i64 0, i64* %90, align 8, !tbaa !20
  store i8 0, i8* %89, align 1, !tbaa !21
  %91 = icmp sgt i64 %13, %2
  br i1 %91, label %10, label %92, !llvm.loop !45

92:                                               ; preds = %40, %88, %18, %5
  %93 = phi i64 [ %1, %5 ], [ %11, %18 ], [ %13, %88 ], [ %11, %40 ]
  %94 = getelementptr inbounds %"struct.std::pair", %"struct.std::pair"* %0, i64 %93
  %95 = load double, double* %6, align 8, !tbaa !42
  %96 = getelementptr inbounds %"struct.std::pair", %"struct.std::pair"* %94, i64 0, i32 0
  store double %95, double* %96, align 8, !tbaa !13
  %97 = getelementptr inbounds %"struct.std::pair", %"struct.std::pair"* %3, i64 0, i32 1
  %98 = getelementptr inbounds %"struct.std::pair", %"struct.std::pair"* %0, i64 %93, i32 1, i32 0, i32 0
  %99 = getelementptr inbounds %"class.std::__cxx11::basic_string", %"class.std::__cxx11::basic_string"* %97, i64 0, i32 0, i32 0
  %100 = load i8*, i8** %99, align 8, !tbaa !28
  %101 = getelementptr inbounds %"struct.std::pair", %"struct.std::pair"* %3, i64 0, i32 1, i32 2
  %102 = bitcast %union.anon* %101 to i8*
  %103 = icmp eq i8* %100, %102
  br i1 %103, label %104, label %121

104:                                              ; preds = %92
  %105 = icmp eq %"struct.std::pair"* %94, %3
  br i1 %105, label %138, label %106, !prof !43

106:                                              ; preds = %104
  %107 = load i64, i64* %7, align 8, !tbaa !20
  %108 = icmp eq i64 %107, 0
  br i1 %108, label %115, label %109

109:                                              ; preds = %106
  %110 = load i8*, i8** %98, align 8, !tbaa !28
  %111 = icmp eq i64 %107, 1
  br i1 %111, label %112, label %114

112:                                              ; preds = %109
  %113 = load i8, i8* %100, align 1, !tbaa !21
  store i8 %113, i8* %110, align 1, !tbaa !21
  br label %115

114:                                              ; preds = %109
  tail call void @llvm.memcpy.p0i8.p0i8.i64(i8* align 1 %110, i8* align 1 %100, i64 %107, i1 false) #17
  br label %115

115:                                              ; preds = %114, %112, %106
  %116 = load i64, i64* %7, align 8, !tbaa !20
  %117 = getelementptr inbounds %"struct.std::pair", %"struct.std::pair"* %0, i64 %93, i32 1, i32 1
  store i64 %116, i64* %117, align 8, !tbaa !20
  %118 = load i8*, i8** %98, align 8, !tbaa !28
  %119 = getelementptr inbounds i8, i8* %118, i64 %116
  store i8 0, i8* %119, align 1, !tbaa !21
  %120 = load i8*, i8** %99, align 8, !tbaa !28
  br label %138

121:                                              ; preds = %92
  %122 = getelementptr inbounds %"struct.std::pair", %"struct.std::pair"* %0, i64 %93, i32 1, i32 2
  %123 = bitcast %union.anon* %122 to i8*
  %124 = load i8*, i8** %98, align 8, !tbaa !28
  %125 = icmp eq i8* %124, %123
  %126 = getelementptr inbounds %"struct.std::pair", %"struct.std::pair"* %0, i64 %93, i32 1, i32 2, i32 0
  %127 = load i64, i64* %126, align 8
  store i8* %100, i8** %98, align 8, !tbaa !28
  %128 = load i64, i64* %7, align 8, !tbaa !20
  %129 = getelementptr inbounds %"struct.std::pair", %"struct.std::pair"* %0, i64 %93, i32 1, i32 1
  store i64 %128, i64* %129, align 8, !tbaa !20
  %130 = getelementptr %union.anon, %union.anon* %101, i64 0, i32 0
  %131 = load i64, i64* %130, align 8, !tbaa !21
  store i64 %131, i64* %126, align 8, !tbaa !21
  %132 = icmp eq i8* %124, null
  %133 = or i1 %125, %132
  br i1 %133, label %136, label %134

134:                                              ; preds = %121
  store i8* %124, i8** %99, align 8, !tbaa !28
  %135 = getelementptr inbounds %"struct.std::pair", %"struct.std::pair"* %3, i64 0, i32 1, i32 2, i32 0
  store i64 %127, i64* %135, align 8, !tbaa !21
  br label %138

136:                                              ; preds = %121
  %137 = bitcast %"class.std::__cxx11::basic_string"* %97 to %union.anon**
  store %union.anon* %101, %union.anon** %137, align 8, !tbaa !28
  br label %138

138:                                              ; preds = %104, %115, %134, %136
  %139 = phi i8* [ %120, %115 ], [ %124, %134 ], [ %102, %136 ], [ %100, %104 ]
  store i64 0, i64* %7, align 8, !tbaa !20
  store i8 0, i8* %139, align 1, !tbaa !21
  ret void
}

; Function Attrs: argmemonly mustprogress nofree nounwind readonly willreturn
declare i32 @memcmp(i8* nocapture, i8* nocapture, i64) local_unnamed_addr #12

; Function Attrs: mustprogress sspstrong uwtable
define linkonce_odr dso_local void @_ZSt22__move_median_to_firstIN9__gnu_cxx17__normal_iteratorIPSt4pairIdNSt7__cxx1112basic_stringIcSt11char_traitsIcESaIcEEEESt6vectorIS9_SaIS9_EEEENS0_5__ops15_Iter_less_iterEEvT_SH_SH_SH_T0_(%"struct.std::pair"* %0, %"struct.std::pair"* %1, %"struct.std::pair"* %2, %"struct.std::pair"* %3) local_unnamed_addr #13 comdat personality i32 (...)* @__gxx_personality_v0 {
  %5 = getelementptr inbounds %"struct.std::pair", %"struct.std::pair"* %1, i64 0, i32 0
  %6 = load double, double* %5, align 8, !tbaa !13
  %7 = getelementptr inbounds %"struct.std::pair", %"struct.std::pair"* %2, i64 0, i32 0
  %8 = load double, double* %7, align 8, !tbaa !13
  %9 = fcmp olt double %6, %8
  br i1 %9, label %37, label %10

10:                                               ; preds = %4
  %11 = fcmp olt double %8, %6
  br i1 %11, label %106, label %12

12:                                               ; preds = %10
  %13 = getelementptr inbounds %"struct.std::pair", %"struct.std::pair"* %1, i64 0, i32 1, i32 1
  %14 = load i64, i64* %13, align 8, !tbaa !20
  %15 = getelementptr inbounds %"struct.std::pair", %"struct.std::pair"* %2, i64 0, i32 1, i32 1
  %16 = load i64, i64* %15, align 8, !tbaa !20
  %17 = icmp ugt i64 %14, %16
  %18 = select i1 %17, i64 %16, i64 %14
  %19 = icmp eq i64 %18, 0
  br i1 %19, label %27, label %20

20:                                               ; preds = %12
  %21 = getelementptr inbounds %"struct.std::pair", %"struct.std::pair"* %2, i64 0, i32 1, i32 0, i32 0
  %22 = load i8*, i8** %21, align 8, !tbaa !28
  %23 = getelementptr inbounds %"struct.std::pair", %"struct.std::pair"* %1, i64 0, i32 1, i32 0, i32 0
  %24 = load i8*, i8** %23, align 8, !tbaa !28
  %25 = tail call i32 @memcmp(i8* %24, i8* %22, i64 %18) #17
  %26 = icmp eq i32 %25, 0
  br i1 %26, label %27, label %34

27:                                               ; preds = %20, %12
  %28 = sub i64 %14, %16
  %29 = icmp sgt i64 %28, -2147483648
  %30 = select i1 %29, i64 %28, i64 -2147483648
  %31 = icmp slt i64 %30, 2147483647
  %32 = select i1 %31, i64 %30, i64 2147483647
  %33 = trunc i64 %32 to i32
  br label %34

34:                                               ; preds = %20, %27
  %35 = phi i32 [ %25, %20 ], [ %33, %27 ]
  %36 = icmp slt i32 %35, 0
  br i1 %36, label %37, label %106

37:                                               ; preds = %4, %34
  %38 = getelementptr inbounds %"struct.std::pair", %"struct.std::pair"* %3, i64 0, i32 0
  %39 = load double, double* %38, align 8, !tbaa !13
  %40 = fcmp olt double %8, %39
  br i1 %40, label %68, label %41

41:                                               ; preds = %37
  %42 = fcmp olt double %39, %8
  br i1 %42, label %71, label %43

43:                                               ; preds = %41
  %44 = getelementptr inbounds %"struct.std::pair", %"struct.std::pair"* %2, i64 0, i32 1, i32 1
  %45 = load i64, i64* %44, align 8, !tbaa !20
  %46 = getelementptr inbounds %"struct.std::pair", %"struct.std::pair"* %3, i64 0, i32 1, i32 1
  %47 = load i64, i64* %46, align 8, !tbaa !20
  %48 = icmp ugt i64 %45, %47
  %49 = select i1 %48, i64 %47, i64 %45
  %50 = icmp eq i64 %49, 0
  br i1 %50, label %58, label %51

51:                                               ; preds = %43
  %52 = getelementptr inbounds %"struct.std::pair", %"struct.std::pair"* %3, i64 0, i32 1, i32 0, i32 0
  %53 = load i8*, i8** %52, align 8, !tbaa !28
  %54 = getelementptr inbounds %"struct.std::pair", %"struct.std::pair"* %2, i64 0, i32 1, i32 0, i32 0
  %55 = load i8*, i8** %54, align 8, !tbaa !28
  %56 = tail call i32 @memcmp(i8* %55, i8* %53, i64 %49) #17
  %57 = icmp eq i32 %56, 0
  br i1 %57, label %58, label %65

58:                                               ; preds = %51, %43
  %59 = sub i64 %45, %47
  %60 = icmp sgt i64 %59, -2147483648
  %61 = select i1 %60, i64 %59, i64 -2147483648
  %62 = icmp slt i64 %61, 2147483647
  %63 = select i1 %62, i64 %61, i64 2147483647
  %64 = trunc i64 %63 to i32
  br label %65

65:                                               ; preds = %51, %58
  %66 = phi i32 [ %56, %51 ], [ %64, %58 ]
  %67 = icmp slt i32 %66, 0
  br i1 %67, label %68, label %71

68:                                               ; preds = %37, %65
  %69 = getelementptr inbounds %"struct.std::pair", %"struct.std::pair"* %0, i64 0, i32 0
  %70 = load double, double* %69, align 8, !tbaa !42
  store double %8, double* %69, align 8, !tbaa !42
  store double %70, double* %7, align 8, !tbaa !42
  br label %175

71:                                               ; preds = %41, %65
  %72 = fcmp olt double %6, %39
  br i1 %72, label %100, label %73

73:                                               ; preds = %71
  %74 = fcmp olt double %39, %6
  br i1 %74, label %103, label %75

75:                                               ; preds = %73
  %76 = getelementptr inbounds %"struct.std::pair", %"struct.std::pair"* %1, i64 0, i32 1, i32 1
  %77 = load i64, i64* %76, align 8, !tbaa !20
  %78 = getelementptr inbounds %"struct.std::pair", %"struct.std::pair"* %3, i64 0, i32 1, i32 1
  %79 = load i64, i64* %78, align 8, !tbaa !20
  %80 = icmp ugt i64 %77, %79
  %81 = select i1 %80, i64 %79, i64 %77
  %82 = icmp eq i64 %81, 0
  br i1 %82, label %90, label %83

83:                                               ; preds = %75
  %84 = getelementptr inbounds %"struct.std::pair", %"struct.std::pair"* %3, i64 0, i32 1, i32 0, i32 0
  %85 = load i8*, i8** %84, align 8, !tbaa !28
  %86 = getelementptr inbounds %"struct.std::pair", %"struct.std::pair"* %1, i64 0, i32 1, i32 0, i32 0
  %87 = load i8*, i8** %86, align 8, !tbaa !28
  %88 = tail call i32 @memcmp(i8* %87, i8* %85, i64 %81) #17
  %89 = icmp eq i32 %88, 0
  br i1 %89, label %90, label %97

90:                                               ; preds = %83, %75
  %91 = sub i64 %77, %79
  %92 = icmp sgt i64 %91, -2147483648
  %93 = select i1 %92, i64 %91, i64 -2147483648
  %94 = icmp slt i64 %93, 2147483647
  %95 = select i1 %94, i64 %93, i64 2147483647
  %96 = trunc i64 %95 to i32
  br label %97

97:                                               ; preds = %83, %90
  %98 = phi i32 [ %88, %83 ], [ %96, %90 ]
  %99 = icmp slt i32 %98, 0
  br i1 %99, label %100, label %103

100:                                              ; preds = %71, %97
  %101 = getelementptr inbounds %"struct.std::pair", %"struct.std::pair"* %0, i64 0, i32 0
  %102 = load double, double* %101, align 8, !tbaa !42
  store double %39, double* %101, align 8, !tbaa !42
  store double %102, double* %38, align 8, !tbaa !42
  br label %175

103:                                              ; preds = %73, %97
  %104 = getelementptr inbounds %"struct.std::pair", %"struct.std::pair"* %0, i64 0, i32 0
  %105 = load double, double* %104, align 8, !tbaa !42
  store double %6, double* %104, align 8, !tbaa !42
  store double %105, double* %5, align 8, !tbaa !42
  br label %175

106:                                              ; preds = %10, %34
  %107 = getelementptr inbounds %"struct.std::pair", %"struct.std::pair"* %3, i64 0, i32 0
  %108 = load double, double* %107, align 8, !tbaa !13
  %109 = fcmp olt double %6, %108
  br i1 %109, label %137, label %110

110:                                              ; preds = %106
  %111 = fcmp olt double %108, %6
  br i1 %111, label %140, label %112

112:                                              ; preds = %110
  %113 = getelementptr inbounds %"struct.std::pair", %"struct.std::pair"* %1, i64 0, i32 1, i32 1
  %114 = load i64, i64* %113, align 8, !tbaa !20
  %115 = getelementptr inbounds %"struct.std::pair", %"struct.std::pair"* %3, i64 0, i32 1, i32 1
  %116 = load i64, i64* %115, align 8, !tbaa !20
  %117 = icmp ugt i64 %114, %116
  %118 = select i1 %117, i64 %116, i64 %114
  %119 = icmp eq i64 %118, 0
  br i1 %119, label %127, label %120

120:                                              ; preds = %112
  %121 = getelementptr inbounds %"struct.std::pair", %"struct.std::pair"* %3, i64 0, i32 1, i32 0, i32 0
  %122 = load i8*, i8** %121, align 8, !tbaa !28
  %123 = getelementptr inbounds %"struct.std::pair", %"struct.std::pair"* %1, i64 0, i32 1, i32 0, i32 0
  %124 = load i8*, i8** %123, align 8, !tbaa !28
  %125 = tail call i32 @memcmp(i8* %124, i8* %122, i64 %118) #17
  %126 = icmp eq i32 %125, 0
  br i1 %126, label %127, label %134

127:                                              ; preds = %120, %112
  %128 = sub i64 %114, %116
  %129 = icmp sgt i64 %128, -2147483648
  %130 = select i1 %129, i64 %128, i64 -2147483648
  %131 = icmp slt i64 %130, 2147483647
  %132 = select i1 %131, i64 %130, i64 2147483647
  %133 = trunc i64 %132 to i32
  br label %134

134:                                              ; preds = %120, %127
  %135 = phi i32 [ %125, %120 ], [ %133, %127 ]
  %136 = icmp slt i32 %135, 0
  br i1 %136, label %137, label %140

137:                                              ; preds = %106, %134
  %138 = getelementptr inbounds %"struct.std::pair", %"struct.std::pair"* %0, i64 0, i32 0
  %139 = load double, double* %138, align 8, !tbaa !42
  store double %6, double* %138, align 8, !tbaa !42
  store double %139, double* %5, align 8, !tbaa !42
  br label %175

140:                                              ; preds = %110, %134
  %141 = fcmp olt double %8, %108
  br i1 %141, label %169, label %142

142:                                              ; preds = %140
  %143 = fcmp olt double %108, %8
  br i1 %143, label %172, label %144

144:                                              ; preds = %142
  %145 = getelementptr inbounds %"struct.std::pair", %"struct.std::pair"* %2, i64 0, i32 1, i32 1
  %146 = load i64, i64* %145, align 8, !tbaa !20
  %147 = getelementptr inbounds %"struct.std::pair", %"struct.std::pair"* %3, i64 0, i32 1, i32 1
  %148 = load i64, i64* %147, align 8, !tbaa !20
  %149 = icmp ugt i64 %146, %148
  %150 = select i1 %149, i64 %148, i64 %146
  %151 = icmp eq i64 %150, 0
  br i1 %151, label %159, label %152

152:                                              ; preds = %144
  %153 = getelementptr inbounds %"struct.std::pair", %"struct.std::pair"* %3, i64 0, i32 1, i32 0, i32 0
  %154 = load i8*, i8** %153, align 8, !tbaa !28
  %155 = getelementptr inbounds %"struct.std::pair", %"struct.std::pair"* %2, i64 0, i32 1, i32 0, i32 0
  %156 = load i8*, i8** %155, align 8, !tbaa !28
  %157 = tail call i32 @memcmp(i8* %156, i8* %154, i64 %150) #17
  %158 = icmp eq i32 %157, 0
  br i1 %158, label %159, label %166

159:                                              ; preds = %152, %144
  %160 = sub i64 %146, %148
  %161 = icmp sgt i64 %160, -2147483648
  %162 = select i1 %161, i64 %160, i64 -2147483648
  %163 = icmp slt i64 %162, 2147483647
  %164 = select i1 %163, i64 %162, i64 2147483647
  %165 = trunc i64 %164 to i32
  br label %166

166:                                              ; preds = %152, %159
  %167 = phi i32 [ %157, %152 ], [ %165, %159 ]
  %168 = icmp slt i32 %167, 0
  br i1 %168, label %169, label %172

169:                                              ; preds = %140, %166
  %170 = getelementptr inbounds %"struct.std::pair", %"struct.std::pair"* %0, i64 0, i32 0
  %171 = load double, double* %170, align 8, !tbaa !42
  store double %108, double* %170, align 8, !tbaa !42
  store double %171, double* %107, align 8, !tbaa !42
  br label %175

172:                                              ; preds = %142, %166
  %173 = getelementptr inbounds %"struct.std::pair", %"struct.std::pair"* %0, i64 0, i32 0
  %174 = load double, double* %173, align 8, !tbaa !42
  store double %8, double* %173, align 8, !tbaa !42
  store double %174, double* %7, align 8, !tbaa !42
  br label %175

175:                                              ; preds = %137, %172, %169, %68, %103, %100
  %176 = phi %"struct.std::pair"* [ %1, %137 ], [ %2, %172 ], [ %3, %169 ], [ %2, %68 ], [ %1, %103 ], [ %3, %100 ]
  %177 = getelementptr inbounds %"struct.std::pair", %"struct.std::pair"* %0, i64 0, i32 1
  %178 = getelementptr inbounds %"struct.std::pair", %"struct.std::pair"* %176, i64 0, i32 1
  tail call void @_ZNSt7__cxx1112basic_stringIcSt11char_traitsIcESaIcEE4swapERS4_(%"class.std::__cxx11::basic_string"* nonnull align 8 dereferenceable(32) %177, %"class.std::__cxx11::basic_string"* nonnull align 8 dereferenceable(32) %178) #17
  ret void
}

; Function Attrs: mustprogress nounwind sspstrong uwtable
define linkonce_odr dso_local %"struct.std::pair"* @_ZSt21__unguarded_partitionIN9__gnu_cxx17__normal_iteratorIPSt4pairIdNSt7__cxx1112basic_stringIcSt11char_traitsIcESaIcEEEESt6vectorIS9_SaIS9_EEEENS0_5__ops15_Iter_less_iterEET_SH_SH_SH_T0_(%"struct.std::pair"* %0, %"struct.std::pair"* %1, %"struct.std::pair"* %2) local_unnamed_addr #14 comdat personality i32 (...)* @__gxx_personality_v0 {
  %4 = getelementptr inbounds %"struct.std::pair", %"struct.std::pair"* %2, i64 0, i32 0
  %5 = getelementptr inbounds %"struct.std::pair", %"struct.std::pair"* %2, i64 0, i32 1, i32 1
  %6 = getelementptr inbounds %"struct.std::pair", %"struct.std::pair"* %2, i64 0, i32 1, i32 0, i32 0
  br label %7

7:                                                ; preds = %3, %80
  %8 = phi %"struct.std::pair"* [ %0, %3 ], [ %84, %80 ]
  %9 = phi %"struct.std::pair"* [ %1, %3 ], [ %47, %80 ]
  %10 = load double, double* %4, align 8, !tbaa !13
  br label %11

11:                                               ; preds = %41, %7
  %12 = phi %"struct.std::pair"* [ %8, %7 ], [ %42, %41 ]
  %13 = getelementptr inbounds %"struct.std::pair", %"struct.std::pair"* %12, i64 0, i32 0
  %14 = load double, double* %13, align 8, !tbaa !13
  %15 = fcmp olt double %14, %10
  br i1 %15, label %41, label %16

16:                                               ; preds = %11
  %17 = fcmp olt double %10, %14
  br i1 %17, label %43, label %18

18:                                               ; preds = %16
  %19 = getelementptr inbounds %"struct.std::pair", %"struct.std::pair"* %12, i64 0, i32 1, i32 1
  %20 = load i64, i64* %19, align 8, !tbaa !20
  %21 = load i64, i64* %5, align 8, !tbaa !20
  %22 = icmp ugt i64 %20, %21
  %23 = select i1 %22, i64 %21, i64 %20
  %24 = icmp eq i64 %23, 0
  br i1 %24, label %31, label %25

25:                                               ; preds = %18
  %26 = load i8*, i8** %6, align 8, !tbaa !28
  %27 = getelementptr inbounds %"struct.std::pair", %"struct.std::pair"* %12, i64 0, i32 1, i32 0, i32 0
  %28 = load i8*, i8** %27, align 8, !tbaa !28
  %29 = tail call i32 @memcmp(i8* %28, i8* %26, i64 %23) #17
  %30 = icmp eq i32 %29, 0
  br i1 %30, label %31, label %38

31:                                               ; preds = %25, %18
  %32 = sub i64 %20, %21
  %33 = icmp sgt i64 %32, -2147483648
  %34 = select i1 %33, i64 %32, i64 -2147483648
  %35 = icmp slt i64 %34, 2147483647
  %36 = select i1 %35, i64 %34, i64 2147483647
  %37 = trunc i64 %36 to i32
  br label %38

38:                                               ; preds = %25, %31
  %39 = phi i32 [ %29, %25 ], [ %37, %31 ]
  %40 = icmp slt i32 %39, 0
  br i1 %40, label %41, label %43

41:                                               ; preds = %11, %38
  %42 = getelementptr inbounds %"struct.std::pair", %"struct.std::pair"* %12, i64 1
  br label %11, !llvm.loop !46

43:                                               ; preds = %16, %38
  %44 = getelementptr inbounds %"struct.std::pair", %"struct.std::pair"* %12, i64 0, i32 0
  br label %45

45:                                               ; preds = %51, %43
  %46 = phi %"struct.std::pair"* [ %9, %43 ], [ %47, %51 ]
  %47 = getelementptr inbounds %"struct.std::pair", %"struct.std::pair"* %46, i64 -1
  %48 = getelementptr inbounds %"struct.std::pair", %"struct.std::pair"* %47, i64 0, i32 0
  %49 = load double, double* %48, align 8, !tbaa !13
  %50 = fcmp olt double %10, %49
  br i1 %50, label %51, label %52

51:                                               ; preds = %45, %74
  br label %45, !llvm.loop !47

52:                                               ; preds = %45
  %53 = fcmp olt double %49, %10
  br i1 %53, label %77, label %54

54:                                               ; preds = %52
  %55 = load i64, i64* %5, align 8, !tbaa !20
  %56 = getelementptr inbounds %"struct.std::pair", %"struct.std::pair"* %46, i64 -1, i32 1, i32 1
  %57 = load i64, i64* %56, align 8, !tbaa !20
  %58 = icmp ugt i64 %55, %57
  %59 = select i1 %58, i64 %57, i64 %55
  %60 = icmp eq i64 %59, 0
  br i1 %60, label %67, label %61

61:                                               ; preds = %54
  %62 = getelementptr inbounds %"struct.std::pair", %"struct.std::pair"* %46, i64 -1, i32 1, i32 0, i32 0
  %63 = load i8*, i8** %62, align 8, !tbaa !28
  %64 = load i8*, i8** %6, align 8, !tbaa !28
  %65 = tail call i32 @memcmp(i8* %64, i8* %63, i64 %59) #17
  %66 = icmp eq i32 %65, 0
  br i1 %66, label %67, label %74

67:                                               ; preds = %61, %54
  %68 = sub i64 %55, %57
  %69 = icmp sgt i64 %68, -2147483648
  %70 = select i1 %69, i64 %68, i64 -2147483648
  %71 = icmp slt i64 %70, 2147483647
  %72 = select i1 %71, i64 %70, i64 2147483647
  %73 = trunc i64 %72 to i32
  br label %74

74:                                               ; preds = %61, %67
  %75 = phi i32 [ %65, %61 ], [ %73, %67 ]
  %76 = icmp slt i32 %75, 0
  br i1 %76, label %51, label %77

77:                                               ; preds = %52, %74
  %78 = icmp ult %"struct.std::pair"* %12, %47
  br i1 %78, label %80, label %79

79:                                               ; preds = %77
  ret %"struct.std::pair"* %12

80:                                               ; preds = %77
  %81 = getelementptr inbounds %"struct.std::pair", %"struct.std::pair"* %47, i64 0, i32 0
  store double %49, double* %44, align 8, !tbaa !42
  store double %14, double* %81, align 8, !tbaa !42
  %82 = getelementptr inbounds %"struct.std::pair", %"struct.std::pair"* %12, i64 0, i32 1
  %83 = getelementptr inbounds %"struct.std::pair", %"struct.std::pair"* %46, i64 -1, i32 1
  tail call void @_ZNSt7__cxx1112basic_stringIcSt11char_traitsIcESaIcEE4swapERS4_(%"class.std::__cxx11::basic_string"* nonnull align 8 dereferenceable(32) %82, %"class.std::__cxx11::basic_string"* nonnull align 8 dereferenceable(32) %83) #17
  %84 = getelementptr inbounds %"struct.std::pair", %"struct.std::pair"* %12, i64 1
  br label %7, !llvm.loop !48
}

; Function Attrs: nounwind
declare void @_ZNSt7__cxx1112basic_stringIcSt11char_traitsIcESaIcEE4swapERS4_(%"class.std::__cxx11::basic_string"* nonnull align 8 dereferenceable(32), %"class.std::__cxx11::basic_string"* nonnull align 8 dereferenceable(32)) local_unnamed_addr #1

; Function Attrs: mustprogress nofree nosync nounwind readnone speculatable willreturn
declare i64 @llvm.ctlz.i64(i64, i1 immarg) #15

; Function Attrs: sspstrong uwtable
define linkonce_odr dso_local void @_ZSt16__insertion_sortIN9__gnu_cxx17__normal_iteratorIPSt4pairIdNSt7__cxx1112basic_stringIcSt11char_traitsIcESaIcEEEESt6vectorIS9_SaIS9_EEEENS0_5__ops15_Iter_less_iterEEvT_SH_T0_(%"struct.std::pair"* %0, %"struct.std::pair"* %1) local_unnamed_addr #10 comdat personality i8* bitcast (i32 (...)* @__gxx_personality_v0 to i8*) {
  %3 = alloca %"struct.std::pair", align 8
  %4 = icmp eq %"struct.std::pair"* %0, %1
  br i1 %4, label %179, label %5

5:                                                ; preds = %2
  %6 = getelementptr inbounds %"struct.std::pair", %"struct.std::pair"* %0, i64 0, i32 0
  %7 = getelementptr inbounds %"struct.std::pair", %"struct.std::pair"* %0, i64 0, i32 1, i32 1
  %8 = getelementptr inbounds %"struct.std::pair", %"struct.std::pair"* %0, i64 0, i32 1, i32 0, i32 0
  %9 = bitcast %"struct.std::pair"* %3 to i8*
  %10 = getelementptr inbounds %"struct.std::pair", %"struct.std::pair"* %3, i64 0, i32 0
  %11 = getelementptr inbounds %"struct.std::pair", %"struct.std::pair"* %3, i64 0, i32 1
  %12 = getelementptr inbounds %"struct.std::pair", %"struct.std::pair"* %3, i64 0, i32 1, i32 2
  %13 = bitcast %"class.std::__cxx11::basic_string"* %11 to %union.anon**
  %14 = getelementptr inbounds %"class.std::__cxx11::basic_string", %"class.std::__cxx11::basic_string"* %11, i64 0, i32 0, i32 0
  %15 = getelementptr inbounds %"struct.std::pair", %"struct.std::pair"* %3, i64 0, i32 1, i32 2, i32 0
  %16 = bitcast %union.anon* %12 to i8*
  %17 = getelementptr inbounds %"struct.std::pair", %"struct.std::pair"* %3, i64 0, i32 1, i32 1
  %18 = ptrtoint %"struct.std::pair"* %0 to i64
  %19 = getelementptr inbounds %"struct.std::pair", %"struct.std::pair"* %0, i64 0, i32 1, i32 2
  %20 = bitcast %union.anon* %19 to i8*
  %21 = getelementptr inbounds %"struct.std::pair", %"struct.std::pair"* %0, i64 0, i32 1, i32 2, i32 0
  %22 = icmp eq %"struct.std::pair"* %3, %0
  %23 = getelementptr inbounds %"struct.std::pair", %"struct.std::pair"* %3, i64 0, i32 1, i32 0, i32 0
  %24 = getelementptr inbounds %"struct.std::pair", %"struct.std::pair"* %0, i64 1
  %25 = icmp eq %"struct.std::pair"* %24, %1
  br i1 %25, label %179, label %26

26:                                               ; preds = %5
  %27 = bitcast i64* %17 to <2 x i64>*
  %28 = bitcast i64* %7 to <2 x i64>*
  br label %29

29:                                               ; preds = %26, %176
  %30 = phi %"struct.std::pair"* [ %177, %176 ], [ %24, %26 ]
  %31 = phi %"struct.std::pair"* [ %30, %176 ], [ %0, %26 ]
  %32 = getelementptr inbounds %"struct.std::pair", %"struct.std::pair"* %30, i64 0, i32 0
  %33 = load double, double* %32, align 8, !tbaa !13
  %34 = load double, double* %6, align 8, !tbaa !13
  %35 = fcmp olt double %33, %34
  br i1 %35, label %61, label %36

36:                                               ; preds = %29
  %37 = fcmp olt double %34, %33
  br i1 %37, label %175, label %38

38:                                               ; preds = %36
  %39 = getelementptr inbounds %"struct.std::pair", %"struct.std::pair"* %31, i64 1, i32 1, i32 1
  %40 = load i64, i64* %39, align 8, !tbaa !20
  %41 = load i64, i64* %7, align 8, !tbaa !20
  %42 = icmp ugt i64 %40, %41
  %43 = select i1 %42, i64 %41, i64 %40
  %44 = icmp eq i64 %43, 0
  br i1 %44, label %51, label %45

45:                                               ; preds = %38
  %46 = load i8*, i8** %8, align 8, !tbaa !28
  %47 = getelementptr inbounds %"struct.std::pair", %"struct.std::pair"* %31, i64 1, i32 1, i32 0, i32 0
  %48 = load i8*, i8** %47, align 8, !tbaa !28
  %49 = call i32 @memcmp(i8* %48, i8* %46, i64 %43) #17
  %50 = icmp eq i32 %49, 0
  br i1 %50, label %51, label %58

51:                                               ; preds = %45, %38
  %52 = sub i64 %40, %41
  %53 = icmp sgt i64 %52, -2147483648
  %54 = select i1 %53, i64 %52, i64 -2147483648
  %55 = icmp slt i64 %54, 2147483647
  %56 = select i1 %55, i64 %54, i64 2147483647
  %57 = trunc i64 %56 to i32
  br label %58

58:                                               ; preds = %45, %51
  %59 = phi i32 [ %49, %45 ], [ %57, %51 ]
  %60 = icmp slt i32 %59, 0
  br i1 %60, label %61, label %175

61:                                               ; preds = %29, %58
  call void @llvm.lifetime.start.p0i8(i64 40, i8* nonnull %9) #17
  store double %33, double* %10, align 8, !tbaa !13
  %62 = getelementptr inbounds %"struct.std::pair", %"struct.std::pair"* %31, i64 1, i32 1
  store %union.anon* %12, %union.anon** %13, align 8, !tbaa !19
  %63 = getelementptr inbounds %"class.std::__cxx11::basic_string", %"class.std::__cxx11::basic_string"* %62, i64 0, i32 0, i32 0
  %64 = load i8*, i8** %63, align 8, !tbaa !28
  %65 = getelementptr inbounds %"struct.std::pair", %"struct.std::pair"* %31, i64 1, i32 1, i32 2
  %66 = bitcast %union.anon* %65 to i8*
  %67 = icmp eq i8* %64, %66
  br i1 %67, label %68, label %69

68:                                               ; preds = %61
  call void @llvm.memcpy.p0i8.p0i8.i64(i8* noundef nonnull align 8 dereferenceable(16) %16, i8* noundef nonnull align 8 dereferenceable(16) %64, i64 16, i1 false) #17
  br label %72

69:                                               ; preds = %61
  store i8* %64, i8** %14, align 8, !tbaa !28
  %70 = getelementptr inbounds %"struct.std::pair", %"struct.std::pair"* %31, i64 1, i32 1, i32 2, i32 0
  %71 = load i64, i64* %70, align 8, !tbaa !21
  store i64 %71, i64* %15, align 8, !tbaa !21
  br label %72

72:                                               ; preds = %68, %69
  %73 = phi i8* [ %16, %68 ], [ %64, %69 ]
  %74 = getelementptr inbounds %"struct.std::pair", %"struct.std::pair"* %31, i64 1, i32 1, i32 1
  %75 = load i64, i64* %74, align 8, !tbaa !20
  store i64 %75, i64* %17, align 8, !tbaa !20
  %76 = bitcast %"class.std::__cxx11::basic_string"* %62 to %union.anon**
  store %union.anon* %65, %union.anon** %76, align 8, !tbaa !28
  store i64 0, i64* %74, align 8, !tbaa !20
  store i8 0, i8* %66, align 8, !tbaa !21
  %77 = ptrtoint %"struct.std::pair"* %30 to i64
  %78 = sub i64 %77, %18
  %79 = icmp sgt i64 %78, 0
  br i1 %79, label %80, label %141

80:                                               ; preds = %72
  %81 = getelementptr inbounds %"struct.std::pair", %"struct.std::pair"* %31, i64 2
  %82 = udiv exact i64 %78, 40
  br label %83

83:                                               ; preds = %133, %80
  %84 = phi i64 [ %136, %133 ], [ %82, %80 ]
  %85 = phi %"struct.std::pair"* [ %88, %133 ], [ %81, %80 ]
  %86 = phi %"struct.std::pair"* [ %87, %133 ], [ %30, %80 ]
  %87 = getelementptr inbounds %"struct.std::pair", %"struct.std::pair"* %86, i64 -1
  %88 = getelementptr inbounds %"struct.std::pair", %"struct.std::pair"* %85, i64 -1
  %89 = getelementptr inbounds %"struct.std::pair", %"struct.std::pair"* %87, i64 0, i32 0
  %90 = load double, double* %89, align 8, !tbaa !42
  %91 = getelementptr inbounds %"struct.std::pair", %"struct.std::pair"* %88, i64 0, i32 0
  store double %90, double* %91, align 8, !tbaa !13
  %92 = getelementptr inbounds %"struct.std::pair", %"struct.std::pair"* %86, i64 -1, i32 1
  %93 = getelementptr inbounds %"struct.std::pair", %"struct.std::pair"* %85, i64 -1, i32 1, i32 0, i32 0
  %94 = getelementptr inbounds %"class.std::__cxx11::basic_string", %"class.std::__cxx11::basic_string"* %92, i64 0, i32 0, i32 0
  %95 = load i8*, i8** %94, align 8, !tbaa !28
  %96 = getelementptr inbounds %"struct.std::pair", %"struct.std::pair"* %86, i64 -1, i32 1, i32 2
  %97 = bitcast %union.anon* %96 to i8*
  %98 = icmp eq i8* %95, %97
  br i1 %98, label %99, label %115

99:                                               ; preds = %83
  %100 = getelementptr inbounds %"struct.std::pair", %"struct.std::pair"* %86, i64 -1, i32 1, i32 1
  %101 = load i64, i64* %100, align 8, !tbaa !20
  %102 = icmp eq i64 %101, 0
  br i1 %102, label %109, label %103

103:                                              ; preds = %99
  %104 = load i8*, i8** %93, align 8, !tbaa !28
  %105 = icmp eq i64 %101, 1
  br i1 %105, label %106, label %108

106:                                              ; preds = %103
  %107 = load i8, i8* %95, align 1, !tbaa !21
  store i8 %107, i8* %104, align 1, !tbaa !21
  br label %109

108:                                              ; preds = %103
  call void @llvm.memcpy.p0i8.p0i8.i64(i8* align 1 %104, i8* align 1 %95, i64 %101, i1 false) #17
  br label %109

109:                                              ; preds = %108, %106, %99
  %110 = load i64, i64* %100, align 8, !tbaa !20
  %111 = getelementptr inbounds %"struct.std::pair", %"struct.std::pair"* %85, i64 -1, i32 1, i32 1
  store i64 %110, i64* %111, align 8, !tbaa !20
  %112 = load i8*, i8** %93, align 8, !tbaa !28
  %113 = getelementptr inbounds i8, i8* %112, i64 %110
  store i8 0, i8* %113, align 1, !tbaa !21
  %114 = load i8*, i8** %94, align 8, !tbaa !28
  br label %133

115:                                              ; preds = %83
  %116 = getelementptr inbounds %"struct.std::pair", %"struct.std::pair"* %85, i64 -1, i32 1, i32 2
  %117 = bitcast %union.anon* %116 to i8*
  %118 = load i8*, i8** %93, align 8, !tbaa !28
  %119 = icmp eq i8* %118, %117
  %120 = getelementptr inbounds %"struct.std::pair", %"struct.std::pair"* %85, i64 -1, i32 1, i32 2, i32 0
  %121 = load i64, i64* %120, align 8
  store i8* %95, i8** %93, align 8, !tbaa !28
  %122 = getelementptr inbounds %"struct.std::pair", %"struct.std::pair"* %86, i64 -1, i32 1, i32 1
  %123 = load i64, i64* %122, align 8, !tbaa !20
  %124 = getelementptr inbounds %"struct.std::pair", %"struct.std::pair"* %85, i64 -1, i32 1, i32 1
  store i64 %123, i64* %124, align 8, !tbaa !20
  %125 = getelementptr %union.anon, %union.anon* %96, i64 0, i32 0
  %126 = load i64, i64* %125, align 8, !tbaa !21
  store i64 %126, i64* %120, align 8, !tbaa !21
  %127 = icmp eq i8* %118, null
  %128 = or i1 %119, %127
  br i1 %128, label %131, label %129

129:                                              ; preds = %115
  store i8* %118, i8** %94, align 8, !tbaa !28
  %130 = getelementptr inbounds %"struct.std::pair", %"struct.std::pair"* %86, i64 -1, i32 1, i32 2, i32 0
  store i64 %121, i64* %130, align 8, !tbaa !21
  br label %133

131:                                              ; preds = %115
  %132 = bitcast %"class.std::__cxx11::basic_string"* %92 to %union.anon**
  store %union.anon* %96, %union.anon** %132, align 8, !tbaa !28
  br label %133

133:                                              ; preds = %131, %129, %109
  %134 = phi i8* [ %114, %109 ], [ %118, %129 ], [ %97, %131 ]
  %135 = getelementptr inbounds %"struct.std::pair", %"struct.std::pair"* %86, i64 -1, i32 1, i32 1
  store i64 0, i64* %135, align 8, !tbaa !20
  store i8 0, i8* %134, align 1, !tbaa !21
  %136 = add nsw i64 %84, -1
  %137 = icmp sgt i64 %84, 1
  br i1 %137, label %83, label %138, !llvm.loop !49

138:                                              ; preds = %133
  %139 = load double, double* %10, align 8, !tbaa !42
  %140 = load i8*, i8** %14, align 8, !tbaa !28
  br label %141

141:                                              ; preds = %138, %72
  %142 = phi i8* [ %140, %138 ], [ %73, %72 ]
  %143 = phi double [ %139, %138 ], [ %33, %72 ]
  store double %143, double* %6, align 8, !tbaa !13
  %144 = icmp eq i8* %142, %16
  br i1 %144, label %145, label %160

145:                                              ; preds = %141
  br i1 %22, label %169, label %146, !prof !43

146:                                              ; preds = %145
  %147 = load i64, i64* %17, align 8, !tbaa !20
  %148 = icmp eq i64 %147, 0
  br i1 %148, label %155, label %149

149:                                              ; preds = %146
  %150 = load i8*, i8** %8, align 8, !tbaa !28
  %151 = icmp eq i64 %147, 1
  br i1 %151, label %152, label %154

152:                                              ; preds = %149
  %153 = load i8, i8* %16, align 8, !tbaa !21
  store i8 %153, i8* %150, align 1, !tbaa !21
  br label %155

154:                                              ; preds = %149
  call void @llvm.memcpy.p0i8.p0i8.i64(i8* align 1 %150, i8* nonnull align 8 %16, i64 %147, i1 false) #17
  br label %155

155:                                              ; preds = %154, %152, %146
  %156 = load i64, i64* %17, align 8, !tbaa !20
  store i64 %156, i64* %7, align 8, !tbaa !20
  %157 = load i8*, i8** %8, align 8, !tbaa !28
  %158 = getelementptr inbounds i8, i8* %157, i64 %156
  store i8 0, i8* %158, align 1, !tbaa !21
  %159 = load i8*, i8** %14, align 8, !tbaa !28
  br label %169

160:                                              ; preds = %141
  %161 = load i8*, i8** %8, align 8, !tbaa !28
  %162 = icmp eq i8* %161, %20
  %163 = load i64, i64* %21, align 8
  store i8* %142, i8** %8, align 8, !tbaa !28
  %164 = load <2 x i64>, <2 x i64>* %27, align 8, !tbaa !21
  store <2 x i64> %164, <2 x i64>* %28, align 8, !tbaa !21
  %165 = icmp eq i8* %161, null
  %166 = or i1 %162, %165
  br i1 %166, label %168, label %167

167:                                              ; preds = %160
  store i8* %161, i8** %14, align 8, !tbaa !28
  store i64 %163, i64* %15, align 8, !tbaa !21
  br label %169

168:                                              ; preds = %160
  store %union.anon* %12, %union.anon** %13, align 8, !tbaa !28
  br label %169

169:                                              ; preds = %145, %155, %167, %168
  %170 = phi i8* [ %159, %155 ], [ %161, %167 ], [ %16, %168 ], [ %16, %145 ]
  store i64 0, i64* %17, align 8, !tbaa !20
  store i8 0, i8* %170, align 1, !tbaa !21
  %171 = load i8*, i8** %23, align 8, !tbaa !28
  %172 = icmp eq i8* %171, %16
  br i1 %172, label %174, label %173

173:                                              ; preds = %169
  call void @_ZdlPv(i8* %171) #17
  br label %174

174:                                              ; preds = %169, %173
  call void @llvm.lifetime.end.p0i8(i64 40, i8* nonnull %9) #17
  br label %176

175:                                              ; preds = %36, %58
  call void @_ZSt25__unguarded_linear_insertIN9__gnu_cxx17__normal_iteratorIPSt4pairIdNSt7__cxx1112basic_stringIcSt11char_traitsIcESaIcEEEESt6vectorIS9_SaIS9_EEEENS0_5__ops14_Val_less_iterEEvT_T0_(%"struct.std::pair"* nonnull %30)
  br label %176

176:                                              ; preds = %174, %175
  %177 = getelementptr inbounds %"struct.std::pair", %"struct.std::pair"* %30, i64 1
  %178 = icmp eq %"struct.std::pair"* %177, %1
  br i1 %178, label %179, label %29, !llvm.loop !50

179:                                              ; preds = %176, %5, %2
  ret void
}

; Function Attrs: sspstrong uwtable
define linkonce_odr dso_local void @_ZSt25__unguarded_linear_insertIN9__gnu_cxx17__normal_iteratorIPSt4pairIdNSt7__cxx1112basic_stringIcSt11char_traitsIcESaIcEEEESt6vectorIS9_SaIS9_EEEENS0_5__ops14_Val_less_iterEEvT_T0_(%"struct.std::pair"* %0) local_unnamed_addr #10 comdat personality i8* bitcast (i32 (...)* @__gxx_personality_v0 to i8*) {
  %2 = alloca %"struct.std::pair", align 8
  %3 = bitcast %"struct.std::pair"* %2 to i8*
  call void @llvm.lifetime.start.p0i8(i64 40, i8* nonnull %3) #17
  %4 = getelementptr inbounds %"struct.std::pair", %"struct.std::pair"* %2, i64 0, i32 0
  %5 = getelementptr inbounds %"struct.std::pair", %"struct.std::pair"* %0, i64 0, i32 0
  %6 = load double, double* %5, align 8, !tbaa !13
  store double %6, double* %4, align 8, !tbaa !13
  %7 = getelementptr inbounds %"struct.std::pair", %"struct.std::pair"* %2, i64 0, i32 1
  %8 = getelementptr inbounds %"struct.std::pair", %"struct.std::pair"* %0, i64 0, i32 1
  %9 = getelementptr inbounds %"struct.std::pair", %"struct.std::pair"* %2, i64 0, i32 1, i32 2
  %10 = bitcast %"class.std::__cxx11::basic_string"* %7 to %union.anon**
  store %union.anon* %9, %union.anon** %10, align 8, !tbaa !19
  %11 = getelementptr inbounds %"class.std::__cxx11::basic_string", %"class.std::__cxx11::basic_string"* %8, i64 0, i32 0, i32 0
  %12 = load i8*, i8** %11, align 8, !tbaa !28
  %13 = getelementptr inbounds %"struct.std::pair", %"struct.std::pair"* %0, i64 0, i32 1, i32 2
  %14 = bitcast %union.anon* %13 to i8*
  %15 = icmp eq i8* %12, %14
  br i1 %15, label %16, label %18

16:                                               ; preds = %1
  %17 = bitcast %union.anon* %9 to i8*
  call void @llvm.memcpy.p0i8.p0i8.i64(i8* noundef nonnull align 8 dereferenceable(16) %17, i8* noundef nonnull align 8 dereferenceable(16) %12, i64 16, i1 false) #17
  br label %23

18:                                               ; preds = %1
  %19 = getelementptr inbounds %"class.std::__cxx11::basic_string", %"class.std::__cxx11::basic_string"* %7, i64 0, i32 0, i32 0
  store i8* %12, i8** %19, align 8, !tbaa !28
  %20 = getelementptr inbounds %"struct.std::pair", %"struct.std::pair"* %0, i64 0, i32 1, i32 2, i32 0
  %21 = load i64, i64* %20, align 8, !tbaa !21
  %22 = getelementptr inbounds %"struct.std::pair", %"struct.std::pair"* %2, i64 0, i32 1, i32 2, i32 0
  store i64 %21, i64* %22, align 8, !tbaa !21
  br label %23

23:                                               ; preds = %16, %18
  %24 = getelementptr inbounds %"struct.std::pair", %"struct.std::pair"* %0, i64 0, i32 1, i32 1
  %25 = load i64, i64* %24, align 8, !tbaa !20
  %26 = getelementptr inbounds %"struct.std::pair", %"struct.std::pair"* %2, i64 0, i32 1, i32 1
  store i64 %25, i64* %26, align 8, !tbaa !20
  %27 = bitcast %"class.std::__cxx11::basic_string"* %8 to %union.anon**
  store %union.anon* %13, %union.anon** %27, align 8, !tbaa !28
  store i64 0, i64* %24, align 8, !tbaa !20
  store i8 0, i8* %14, align 8, !tbaa !21
  %28 = getelementptr inbounds %"struct.std::pair", %"struct.std::pair"* %2, i64 0, i32 1, i32 0, i32 0
  br label %29

29:                                               ; preds = %104, %23
  %30 = phi double [ %6, %23 ], [ %107, %104 ]
  %31 = phi %"struct.std::pair"* [ %0, %23 ], [ %32, %104 ]
  %32 = getelementptr inbounds %"struct.std::pair", %"struct.std::pair"* %31, i64 -1
  %33 = getelementptr inbounds %"struct.std::pair", %"struct.std::pair"* %32, i64 0, i32 0
  %34 = load double, double* %33, align 8, !tbaa !13
  %35 = fcmp olt double %30, %34
  br i1 %35, label %61, label %36

36:                                               ; preds = %29
  %37 = fcmp olt double %34, %30
  br i1 %37, label %108, label %38

38:                                               ; preds = %36
  %39 = load i64, i64* %26, align 8, !tbaa !20
  %40 = getelementptr inbounds %"struct.std::pair", %"struct.std::pair"* %31, i64 -1, i32 1, i32 1
  %41 = load i64, i64* %40, align 8, !tbaa !20
  %42 = icmp ugt i64 %39, %41
  %43 = select i1 %42, i64 %41, i64 %39
  %44 = icmp eq i64 %43, 0
  br i1 %44, label %51, label %45

45:                                               ; preds = %38
  %46 = getelementptr inbounds %"struct.std::pair", %"struct.std::pair"* %31, i64 -1, i32 1, i32 0, i32 0
  %47 = load i8*, i8** %46, align 8, !tbaa !28
  %48 = load i8*, i8** %28, align 8, !tbaa !28
  %49 = call i32 @memcmp(i8* %48, i8* %47, i64 %43) #17
  %50 = icmp eq i32 %49, 0
  br i1 %50, label %51, label %58

51:                                               ; preds = %45, %38
  %52 = sub i64 %39, %41
  %53 = icmp sgt i64 %52, -2147483648
  %54 = select i1 %53, i64 %52, i64 -2147483648
  %55 = icmp slt i64 %54, 2147483647
  %56 = select i1 %55, i64 %54, i64 2147483647
  %57 = trunc i64 %56 to i32
  br label %58

58:                                               ; preds = %45, %51
  %59 = phi i32 [ %49, %45 ], [ %57, %51 ]
  %60 = icmp slt i32 %59, 0
  br i1 %60, label %61, label %108

61:                                               ; preds = %29, %58
  %62 = getelementptr inbounds %"struct.std::pair", %"struct.std::pair"* %31, i64 0, i32 0
  store double %34, double* %62, align 8, !tbaa !13
  %63 = getelementptr inbounds %"struct.std::pair", %"struct.std::pair"* %31, i64 -1, i32 1
  %64 = getelementptr inbounds %"struct.std::pair", %"struct.std::pair"* %31, i64 0, i32 1, i32 0, i32 0
  %65 = getelementptr inbounds %"class.std::__cxx11::basic_string", %"class.std::__cxx11::basic_string"* %63, i64 0, i32 0, i32 0
  %66 = load i8*, i8** %65, align 8, !tbaa !28
  %67 = getelementptr inbounds %"struct.std::pair", %"struct.std::pair"* %31, i64 -1, i32 1, i32 2
  %68 = bitcast %union.anon* %67 to i8*
  %69 = icmp eq i8* %66, %68
  br i1 %69, label %70, label %86

70:                                               ; preds = %61
  %71 = getelementptr inbounds %"struct.std::pair", %"struct.std::pair"* %31, i64 -1, i32 1, i32 1
  %72 = load i64, i64* %71, align 8, !tbaa !20
  %73 = icmp eq i64 %72, 0
  br i1 %73, label %80, label %74

74:                                               ; preds = %70
  %75 = load i8*, i8** %64, align 8, !tbaa !28
  %76 = icmp eq i64 %72, 1
  br i1 %76, label %77, label %79

77:                                               ; preds = %74
  %78 = load i8, i8* %66, align 1, !tbaa !21
  store i8 %78, i8* %75, align 1, !tbaa !21
  br label %80

79:                                               ; preds = %74
  call void @llvm.memcpy.p0i8.p0i8.i64(i8* align 1 %75, i8* align 1 %66, i64 %72, i1 false) #17
  br label %80

80:                                               ; preds = %79, %77, %70
  %81 = load i64, i64* %71, align 8, !tbaa !20
  %82 = getelementptr inbounds %"struct.std::pair", %"struct.std::pair"* %31, i64 0, i32 1, i32 1
  store i64 %81, i64* %82, align 8, !tbaa !20
  %83 = load i8*, i8** %64, align 8, !tbaa !28
  %84 = getelementptr inbounds i8, i8* %83, i64 %81
  store i8 0, i8* %84, align 1, !tbaa !21
  %85 = load i8*, i8** %65, align 8, !tbaa !28
  br label %104

86:                                               ; preds = %61
  %87 = getelementptr inbounds %"struct.std::pair", %"struct.std::pair"* %31, i64 0, i32 1, i32 2
  %88 = bitcast %union.anon* %87 to i8*
  %89 = load i8*, i8** %64, align 8, !tbaa !28
  %90 = icmp eq i8* %89, %88
  %91 = getelementptr inbounds %"struct.std::pair", %"struct.std::pair"* %31, i64 0, i32 1, i32 2, i32 0
  %92 = load i64, i64* %91, align 8
  store i8* %66, i8** %64, align 8, !tbaa !28
  %93 = getelementptr inbounds %"struct.std::pair", %"struct.std::pair"* %31, i64 -1, i32 1, i32 1
  %94 = getelementptr inbounds %"struct.std::pair", %"struct.std::pair"* %31, i64 0, i32 1, i32 1
  %95 = bitcast i64* %93 to <2 x i64>*
  %96 = load <2 x i64>, <2 x i64>* %95, align 8, !tbaa !21
  %97 = bitcast i64* %94 to <2 x i64>*
  store <2 x i64> %96, <2 x i64>* %97, align 8, !tbaa !21
  %98 = icmp eq i8* %89, null
  %99 = or i1 %90, %98
  br i1 %99, label %102, label %100

100:                                              ; preds = %86
  store i8* %89, i8** %65, align 8, !tbaa !28
  %101 = getelementptr inbounds %"struct.std::pair", %"struct.std::pair"* %31, i64 -1, i32 1, i32 2, i32 0
  store i64 %92, i64* %101, align 8, !tbaa !21
  br label %104

102:                                              ; preds = %86
  %103 = bitcast %"class.std::__cxx11::basic_string"* %63 to %union.anon**
  store %union.anon* %67, %union.anon** %103, align 8, !tbaa !28
  br label %104

104:                                              ; preds = %80, %100, %102
  %105 = phi i8* [ %85, %80 ], [ %89, %100 ], [ %68, %102 ]
  %106 = getelementptr inbounds %"struct.std::pair", %"struct.std::pair"* %31, i64 -1, i32 1, i32 1
  store i64 0, i64* %106, align 8, !tbaa !20
  store i8 0, i8* %105, align 1, !tbaa !21
  %107 = load double, double* %4, align 8, !tbaa !13
  br label %29, !llvm.loop !51

108:                                              ; preds = %36, %58
  %109 = getelementptr inbounds %"struct.std::pair", %"struct.std::pair"* %31, i64 0, i32 0
  store double %30, double* %109, align 8, !tbaa !13
  %110 = getelementptr inbounds %"struct.std::pair", %"struct.std::pair"* %31, i64 0, i32 1, i32 0, i32 0
  %111 = getelementptr inbounds %"class.std::__cxx11::basic_string", %"class.std::__cxx11::basic_string"* %7, i64 0, i32 0, i32 0
  %112 = load i8*, i8** %111, align 8, !tbaa !28
  %113 = bitcast %union.anon* %9 to i8*
  %114 = icmp eq i8* %112, %113
  br i1 %114, label %115, label %132

115:                                              ; preds = %108
  %116 = icmp eq %"struct.std::pair"* %2, %31
  br i1 %116, label %148, label %117, !prof !43

117:                                              ; preds = %115
  %118 = load i64, i64* %26, align 8, !tbaa !20
  %119 = icmp eq i64 %118, 0
  br i1 %119, label %126, label %120

120:                                              ; preds = %117
  %121 = load i8*, i8** %110, align 8, !tbaa !28
  %122 = icmp eq i64 %118, 1
  br i1 %122, label %123, label %125

123:                                              ; preds = %120
  %124 = load i8, i8* %113, align 8, !tbaa !21
  store i8 %124, i8* %121, align 1, !tbaa !21
  br label %126

125:                                              ; preds = %120
  call void @llvm.memcpy.p0i8.p0i8.i64(i8* align 1 %121, i8* nonnull align 8 %113, i64 %118, i1 false) #17
  br label %126

126:                                              ; preds = %125, %123, %117
  %127 = load i64, i64* %26, align 8, !tbaa !20
  %128 = getelementptr inbounds %"struct.std::pair", %"struct.std::pair"* %31, i64 0, i32 1, i32 1
  store i64 %127, i64* %128, align 8, !tbaa !20
  %129 = load i8*, i8** %110, align 8, !tbaa !28
  %130 = getelementptr inbounds i8, i8* %129, i64 %127
  store i8 0, i8* %130, align 1, !tbaa !21
  %131 = load i8*, i8** %111, align 8, !tbaa !28
  br label %148

132:                                              ; preds = %108
  %133 = getelementptr inbounds %"struct.std::pair", %"struct.std::pair"* %31, i64 0, i32 1, i32 2
  %134 = bitcast %union.anon* %133 to i8*
  %135 = load i8*, i8** %110, align 8, !tbaa !28
  %136 = icmp eq i8* %135, %134
  %137 = getelementptr inbounds %"struct.std::pair", %"struct.std::pair"* %31, i64 0, i32 1, i32 2, i32 0
  %138 = load i64, i64* %137, align 8
  store i8* %112, i8** %110, align 8, !tbaa !28
  %139 = getelementptr inbounds %"struct.std::pair", %"struct.std::pair"* %31, i64 0, i32 1, i32 1
  %140 = bitcast i64* %26 to <2 x i64>*
  %141 = load <2 x i64>, <2 x i64>* %140, align 8, !tbaa !21
  %142 = bitcast i64* %139 to <2 x i64>*
  store <2 x i64> %141, <2 x i64>* %142, align 8, !tbaa !21
  %143 = icmp eq i8* %135, null
  %144 = or i1 %136, %143
  br i1 %144, label %147, label %145

145:                                              ; preds = %132
  store i8* %135, i8** %111, align 8, !tbaa !28
  %146 = getelementptr inbounds %"struct.std::pair", %"struct.std::pair"* %2, i64 0, i32 1, i32 2, i32 0
  store i64 %138, i64* %146, align 8, !tbaa !21
  br label %148

147:                                              ; preds = %132
  store %union.anon* %9, %union.anon** %10, align 8, !tbaa !28
  br label %148

148:                                              ; preds = %115, %126, %145, %147
  %149 = phi i8* [ %131, %126 ], [ %135, %145 ], [ %113, %147 ], [ %113, %115 ]
  store i64 0, i64* %26, align 8, !tbaa !20
  store i8 0, i8* %149, align 1, !tbaa !21
  %150 = load i8*, i8** %28, align 8, !tbaa !28
  %151 = icmp eq i8* %150, %113
  br i1 %151, label %153, label %152

152:                                              ; preds = %148
  call void @_ZdlPv(i8* %150) #17
  br label %153

153:                                              ; preds = %148, %152
  call void @llvm.lifetime.end.p0i8(i64 40, i8* nonnull %3) #17
  ret void
}

declare nonnull align 8 dereferenceable(8) %"class.std::basic_ostream"* @_ZSt16__ostream_insertIcSt11char_traitsIcEERSt13basic_ostreamIT_T0_ES6_PKS3_l(%"class.std::basic_ostream"* nonnull align 8 dereferenceable(8), i8*, i64) local_unnamed_addr #0

declare nonnull align 8 dereferenceable(8) %"class.std::basic_ostream"* @_ZNSo3putEc(%"class.std::basic_ostream"* nonnull align 8 dereferenceable(8), i8 signext) local_unnamed_addr #0

declare nonnull align 8 dereferenceable(8) %"class.std::basic_ostream"* @_ZNSo5flushEv(%"class.std::basic_ostream"* nonnull align 8 dereferenceable(8)) local_unnamed_addr #0

; Function Attrs: noreturn
declare void @_ZSt16__throw_bad_castv() local_unnamed_addr #16

declare void @_ZNKSt5ctypeIcE13_M_widen_initEv(%"class.std::ctype"* nonnull align 8 dereferenceable(570)) local_unnamed_addr #0

; Function Attrs: sspstrong uwtable
define internal void @_GLOBAL__sub_I_s468351468.cpp() #10 section ".text.startup" {
  tail call void @_ZNSt8ios_base4InitC1Ev(%"class.std::ios_base::Init"* nonnull align 1 dereferenceable(1) @_ZStL8__ioinit)
  %1 = tail call i32 @__cxa_atexit(void (i8*)* bitcast (void (%"class.std::ios_base::Init"*)* @_ZNSt8ios_base4InitD1Ev to void (i8*)*), i8* getelementptr inbounds (%"class.std::ios_base::Init", %"class.std::ios_base::Init"* @_ZStL8__ioinit, i64 0, i32 0), i8* nonnull @__dso_handle) #17
  ret void
}

attributes #0 = { "frame-pointer"="none" "no-trapping-math"="true" "stack-protector-buffer-size"="8" "target-cpu"="x86-64" "target-features"="+cx8,+fxsr,+mmx,+sse,+sse2,+x87" "tune-cpu"="generic" }
attributes #1 = { nounwind "frame-pointer"="none" "no-trapping-math"="true" "stack-protector-buffer-size"="8" "target-cpu"="x86-64" "target-features"="+cx8,+fxsr,+mmx,+sse,+sse2,+x87" "tune-cpu"="generic" }
attributes #2 = { nofree nounwind }
attributes #3 = { norecurse sspstrong uwtable "frame-pointer"="none" "min-legal-vector-width"="0" "no-trapping-math"="true" "stack-protector-buffer-size"="8" "target-cpu"="x86-64" "target-features"="+cx8,+fxsr,+mmx,+sse,+sse2,+x87" "tune-cpu"="generic" }
attributes #4 = { argmemonly mustprogress nofree nosync nounwind willreturn }
attributes #5 = { argmemonly mustprogress nofree nounwind willreturn writeonly }
attributes #6 = { nounwind sspstrong uwtable "frame-pointer"="none" "min-legal-vector-width"="0" "no-trapping-math"="true" "stack-protector-buffer-size"="8" "target-cpu"="x86-64" "target-features"="+cx8,+fxsr,+mmx,+sse,+sse2,+x87" "tune-cpu"="generic" }
attributes #7 = { nobuiltin nounwind "frame-pointer"="none" "no-trapping-math"="true" "stack-protector-buffer-size"="8" "target-cpu"="x86-64" "target-features"="+cx8,+fxsr,+mmx,+sse,+sse2,+x87" "tune-cpu"="generic" }
attributes #8 = { nobuiltin allocsize(0) "frame-pointer"="none" "no-trapping-math"="true" "stack-protector-buffer-size"="8" "target-cpu"="x86-64" "target-features"="+cx8,+fxsr,+mmx,+sse,+sse2,+x87" "tune-cpu"="generic" }
attributes #9 = { argmemonly mustprogress nofree nounwind willreturn }
attributes #10 = { sspstrong uwtable "frame-pointer"="none" "min-legal-vector-width"="0" "no-trapping-math"="true" "stack-protector-buffer-size"="8" "target-cpu"="x86-64" "target-features"="+cx8,+fxsr,+mmx,+sse,+sse2,+x87" "tune-cpu"="generic" }
attributes #11 = { inlinehint sspstrong uwtable "frame-pointer"="none" "min-legal-vector-width"="0" "no-trapping-math"="true" "stack-protector-buffer-size"="8" "target-cpu"="x86-64" "target-features"="+cx8,+fxsr,+mmx,+sse,+sse2,+x87" "tune-cpu"="generic" }
attributes #12 = { argmemonly mustprogress nofree nounwind readonly willreturn "frame-pointer"="none" "no-trapping-math"="true" "stack-protector-buffer-size"="8" "target-cpu"="x86-64" "target-features"="+cx8,+fxsr,+mmx,+sse,+sse2,+x87" "tune-cpu"="generic" }
attributes #13 = { mustprogress sspstrong uwtable "frame-pointer"="none" "min-legal-vector-width"="0" "no-trapping-math"="true" "stack-protector-buffer-size"="8" "target-cpu"="x86-64" "target-features"="+cx8,+fxsr,+mmx,+sse,+sse2,+x87" "tune-cpu"="generic" }
attributes #14 = { mustprogress nounwind sspstrong uwtable "frame-pointer"="none" "min-legal-vector-width"="0" "no-trapping-math"="true" "stack-protector-buffer-size"="8" "target-cpu"="x86-64" "target-features"="+cx8,+fxsr,+mmx,+sse,+sse2,+x87" "tune-cpu"="generic" }
attributes #15 = { mustprogress nofree nosync nounwind readnone speculatable willreturn }
attributes #16 = { noreturn "frame-pointer"="none" "no-trapping-math"="true" "stack-protector-buffer-size"="8" "target-cpu"="x86-64" "target-features"="+cx8,+fxsr,+mmx,+sse,+sse2,+x87" "tune-cpu"="generic" }
attributes #17 = { nounwind }
attributes #18 = { allocsize(0) }
attributes #19 = { noreturn }

!llvm.module.flags = !{!0, !1, !2, !3}
!llvm.ident = !{!4}

!0 = !{i32 1, !"wchar_size", i32 4}
!1 = !{i32 7, !"PIC Level", i32 2}
!2 = !{i32 7, !"PIE Level", i32 2}
!3 = !{i32 7, !"uwtable", i32 1}
!4 = !{!"clang version 13.0.0"}
!5 = !{!6, !6, i64 0}
!6 = !{!"int", !7, i64 0}
!7 = !{!"omnipotent char", !8, i64 0}
!8 = !{!"Simple C++ TBAA"}
!9 = !{!10, !11, i64 0}
!10 = !{!"_ZTSNSt12_Vector_baseISt4pairIdNSt7__cxx1112basic_stringIcSt11char_traitsIcESaIcEEEESaIS7_EE17_Vector_impl_dataE", !11, i64 0, !11, i64 8, !11, i64 16}
!11 = !{!"any pointer", !7, i64 0}
!12 = !{!10, !11, i64 16}
!13 = !{!14, !15, i64 0}
!14 = !{!"_ZTSSt4pairIdNSt7__cxx1112basic_stringIcSt11char_traitsIcESaIcEEEE", !15, i64 0, !16, i64 8}
!15 = !{!"double", !7, i64 0}
!16 = !{!"_ZTSNSt7__cxx1112basic_stringIcSt11char_traitsIcESaIcEEE", !17, i64 0, !18, i64 8, !7, i64 16}
!17 = !{!"_ZTSNSt7__cxx1112basic_stringIcSt11char_traitsIcESaIcEE12_Alloc_hiderE", !11, i64 0}
!18 = !{!"long", !7, i64 0}
!19 = !{!17, !11, i64 0}
!20 = !{!16, !18, i64 8}
!21 = !{!7, !7, i64 0}
!22 = !{!10, !11, i64 8}
!23 = !{!11, !11, i64 0}
!24 = !{i64 0, i64 65}
!25 = distinct !{!25, !26}
!26 = !{!"llvm.loop.mustprogress"}
!27 = distinct !{!27, !26}
!28 = !{!16, !11, i64 0}
!29 = !{!30, !30, i64 0}
!30 = !{!"vtable pointer", !8, i64 0}
!31 = !{!32, !11, i64 240}
!32 = !{!"_ZTSSt9basic_iosIcSt11char_traitsIcEE", !11, i64 216, !7, i64 224, !33, i64 225, !11, i64 232, !11, i64 240, !11, i64 248, !11, i64 256}
!33 = !{!"bool", !7, i64 0}
!34 = !{!35, !7, i64 56}
!35 = !{!"_ZTSSt5ctypeIcE", !11, i64 16, !33, i64 24, !11, i64 32, !11, i64 40, !11, i64 48, !7, i64 56, !7, i64 57, !7, i64 313, !7, i64 569}
!36 = distinct !{!36, !26}
!37 = distinct !{!37, !26}
!38 = distinct !{!38, !26}
!39 = distinct !{!39, !26}
!40 = distinct !{!40, !26}
!41 = distinct !{!41, !26}
!42 = !{!15, !15, i64 0}
!43 = !{!"branch_weights", i32 1, i32 2000}
!44 = distinct !{!44, !26}
!45 = distinct !{!45, !26}
!46 = distinct !{!46, !26}
!47 = distinct !{!47, !26}
!48 = distinct !{!48, !26}
!49 = distinct !{!49, !26}
!50 = distinct !{!50, !26}
!51 = distinct !{!51, !26}
