; ModuleID = 'Project_CodeNet_C++1400/p03618/s512421590.cpp'
source_filename = "Project_CodeNet_C++1400/p03618/s512421590.cpp"
target datalayout = "e-m:e-p270:32:32-p271:32:32-p272:64:64-i64:64-f80:128-n8:16:32:64-S128"
target triple = "x86_64-pc-linux-gnu"

%"class.std::ios_base::Init" = type { i8 }
%"class.std::basic_ostream" = type { i32 (...)**, %"class.std::basic_ios" }
%"class.std::basic_ios" = type { %"class.std::ios_base", %"class.std::basic_ostream"*, i8, i8, %"class.std::basic_streambuf"*, %"class.std::ctype"*, %"class.std::num_put"*, %"class.std::num_get"* }
%"class.std::ios_base" = type { i32 (...)**, i64, i64, i32, i32, i32, %"struct.std::ios_base::_Callback_list"*, %"struct.std::ios_base::_Words", [8 x %"struct.std::ios_base::_Words"], i32, %"struct.std::ios_base::_Words"*, %"class.std::locale" }
%"struct.std::ios_base::_Callback_list" = type { %"struct.std::ios_base::_Callback_list"*, void (i32, %"class.std::ios_base"*, i32)*, i32, i32 }
%"struct.std::ios_base::_Words" = type { i8*, i64 }
%"class.std::locale" = type { %"class.std::locale::_Impl"* }
%"class.std::locale::_Impl" = type { i32, %"class.std::locale::facet"**, i64, %"class.std::locale::facet"**, i8** }
%"class.std::locale::facet" = type <{ i32 (...)**, i32, [4 x i8] }>
%"class.std::basic_streambuf" = type { i32 (...)**, i8*, i8*, i8*, i8*, i8*, i8*, %"class.std::locale" }
%"class.std::ctype" = type <{ %"class.std::locale::facet.base", [4 x i8], %struct.__locale_struct*, i8, [7 x i8], i32*, i32*, i16*, i8, [256 x i8], [256 x i8], i8, [6 x i8] }>
%"class.std::locale::facet.base" = type <{ i32 (...)**, i32 }>
%struct.__locale_struct = type { [13 x %struct.__locale_data*], i16*, i32*, i32*, [13 x i8*] }
%struct.__locale_data = type opaque
%"class.std::num_put" = type { %"class.std::locale::facet.base", [4 x i8] }
%"class.std::num_get" = type { %"class.std::locale::facet.base", [4 x i8] }
%"class.std::vector" = type { %"struct.std::_Vector_base" }
%"struct.std::_Vector_base" = type { %"struct.std::_Vector_base<int, std::allocator<int>>::_Vector_impl" }
%"struct.std::_Vector_base<int, std::allocator<int>>::_Vector_impl" = type { %"struct.std::_Vector_base<int, std::allocator<int>>::_Vector_impl_data" }
%"struct.std::_Vector_base<int, std::allocator<int>>::_Vector_impl_data" = type { i32*, i32*, i32* }
%"class.std::vector.0" = type { %"struct.std::_Vector_base.1" }
%"struct.std::_Vector_base.1" = type { %"struct.std::_Vector_base<char, std::allocator<char>>::_Vector_impl" }
%"struct.std::_Vector_base<char, std::allocator<char>>::_Vector_impl" = type { %"struct.std::_Vector_base<char, std::allocator<char>>::_Vector_impl_data" }
%"struct.std::_Vector_base<char, std::allocator<char>>::_Vector_impl_data" = type { i8*, i8*, i8* }
%"class.std::vector.6" = type { %"struct.std::_Vector_base.7" }
%"struct.std::_Vector_base.7" = type { %"struct.std::_Vector_base<std::__cxx11::basic_string<char>, std::allocator<std::__cxx11::basic_string<char>>>::_Vector_impl" }
%"struct.std::_Vector_base<std::__cxx11::basic_string<char>, std::allocator<std::__cxx11::basic_string<char>>>::_Vector_impl" = type { %"struct.std::_Vector_base<std::__cxx11::basic_string<char>, std::allocator<std::__cxx11::basic_string<char>>>::_Vector_impl_data" }
%"struct.std::_Vector_base<std::__cxx11::basic_string<char>, std::allocator<std::__cxx11::basic_string<char>>>::_Vector_impl_data" = type { %"class.std::__cxx11::basic_string"*, %"class.std::__cxx11::basic_string"*, %"class.std::__cxx11::basic_string"* }
%"class.std::__cxx11::basic_string" = type { %"struct.std::__cxx11::basic_string<char>::_Alloc_hider", i64, %union.anon }
%"struct.std::__cxx11::basic_string<char>::_Alloc_hider" = type { i8* }
%union.anon = type { i64, [8 x i8] }
%"class.std::basic_istream" = type { i32 (...)**, i64, %"class.std::basic_ios" }
%"struct.std::piecewise_construct_t" = type { i8 }
%"class.std::allocator" = type { i8 }
%"class.std::allocator.2" = type { i8 }
%"class.std::allocator.8" = type { i8 }
%"class.std::map" = type { %"class.std::_Rb_tree" }
%"class.std::_Rb_tree" = type { %"struct.std::_Rb_tree<char, std::pair<const char, int>, std::_Select1st<std::pair<const char, int>>, std::less<char>>::_Rb_tree_impl" }
%"struct.std::_Rb_tree<char, std::pair<const char, int>, std::_Select1st<std::pair<const char, int>>, std::less<char>>::_Rb_tree_impl" = type { %"struct.std::_Rb_tree_key_compare", %"struct.std::_Rb_tree_header" }
%"struct.std::_Rb_tree_key_compare" = type { %"struct.std::less" }
%"struct.std::less" = type { i8 }
%"struct.std::_Rb_tree_header" = type { %"struct.std::_Rb_tree_node_base", i64 }
%"struct.std::_Rb_tree_node_base" = type { i32, %"struct.std::_Rb_tree_node_base"*, %"struct.std::_Rb_tree_node_base"*, %"struct.std::_Rb_tree_node_base"* }
%"struct.std::pair" = type { i8, i32 }
%"class.std::tuple" = type { %"struct.std::_Tuple_impl" }
%"struct.std::_Tuple_impl" = type { %"struct.std::_Head_base" }
%"struct.std::_Head_base" = type { i8* }
%"class.std::tuple.15" = type { i8 }
%"struct.std::_Rb_tree_node" = type { %"struct.std::_Rb_tree_node_base", %"struct.__gnu_cxx::__aligned_membuf" }
%"struct.__gnu_cxx::__aligned_membuf" = type { [8 x i8] }
%"class.__gnu_cxx::new_allocator" = type { i8 }
%"class.__gnu_cxx::new_allocator.3" = type { i8 }
%"class.__gnu_cxx::new_allocator.9" = type { i8 }
%"class.std::allocator.12" = type { i8 }
%"class.__gnu_cxx::new_allocator.13" = type { i8 }

$_ZNSt6vectorIiSaIiEEC2ESt16initializer_listIiERKS0_ = comdat any

$_ZNSt6vectorIiSaIiEED2Ev = comdat any

$_ZNSt6vectorIcSaIcEEC2ESt16initializer_listIcERKS0_ = comdat any

$_ZNSt6vectorIcSaIcEED2Ev = comdat any

$_ZNSt6vectorINSt7__cxx1112basic_stringIcSt11char_traitsIcESaIcEEESaIS5_EEC2ESt16initializer_listIS5_ERKS6_ = comdat any

$_ZNSt6vectorINSt7__cxx1112basic_stringIcSt11char_traitsIcESaIcEEESaIS5_EED2Ev = comdat any

$_ZNSt3mapIciSt4lessIcESaISt4pairIKciEEEixERS3_ = comdat any

$__clang_call_terminate = comdat any

$_ZNSt8_Rb_treeIcSt4pairIKciESt10_Select1stIS2_ESt4lessIcESaIS2_EED2Ev = comdat any

$_ZNSt8_Rb_treeIcSt4pairIKciESt10_Select1stIS2_ESt4lessIcESaIS2_EE8_M_eraseEPSt13_Rb_tree_nodeIS2_E = comdat any

$_ZNSt6vectorIiSaIiEE19_M_range_initializeIPKiEEvT_S5_St20forward_iterator_tag = comdat any

$_ZNSt12_Vector_baseIiSaIiEED2Ev = comdat any

$_ZNSt12_Vector_baseIiSaIiEE11_M_allocateEm = comdat any

$_ZNSt6vectorIiSaIiEE17_S_check_init_lenEmRKS0_ = comdat any

$_ZNSt16allocator_traitsISaIiEE8allocateERS0_m = comdat any

$_ZN9__gnu_cxx13new_allocatorIiE8allocateEmPKv = comdat any

$_ZNSt6vectorIcSaIcEE19_M_range_initializeIPKcEEvT_S5_St20forward_iterator_tag = comdat any

$_ZNSt12_Vector_baseIcSaIcEED2Ev = comdat any

$_ZNSt12_Vector_baseIcSaIcEE11_M_allocateEm = comdat any

$_ZNSt6vectorIcSaIcEE17_S_check_init_lenEmRKS0_ = comdat any

$_ZNSt16allocator_traitsISaIcEE8allocateERS0_m = comdat any

$_ZN9__gnu_cxx13new_allocatorIcE8allocateEmPKv = comdat any

$_ZNSt6vectorINSt7__cxx1112basic_stringIcSt11char_traitsIcESaIcEEESaIS5_EE19_M_range_initializeIPKS5_EEvT_SB_St20forward_iterator_tag = comdat any

$_ZNSt12_Vector_baseINSt7__cxx1112basic_stringIcSt11char_traitsIcESaIcEEESaIS5_EED2Ev = comdat any

$_ZNSt12_Vector_baseINSt7__cxx1112basic_stringIcSt11char_traitsIcESaIcEEESaIS5_EE11_M_allocateEm = comdat any

$_ZNSt6vectorINSt7__cxx1112basic_stringIcSt11char_traitsIcESaIcEEESaIS5_EE17_S_check_init_lenEmRKS6_ = comdat any

$_ZNSt16allocator_traitsISaINSt7__cxx1112basic_stringIcSt11char_traitsIcESaIcEEEEE8allocateERS6_m = comdat any

$_ZN9__gnu_cxx13new_allocatorINSt7__cxx1112basic_stringIcSt11char_traitsIcESaIcEEEE8allocateEmPKv = comdat any

$_ZNSt20__uninitialized_copyILb0EE13__uninit_copyIPKNSt7__cxx1112basic_stringIcSt11char_traitsIcESaIcEEEPS7_EET0_T_SC_SB_ = comdat any

$_ZNSt12_Destroy_auxILb0EE9__destroyIPNSt7__cxx1112basic_stringIcSt11char_traitsIcESaIcEEEEEvT_S9_ = comdat any

$_ZNSt8_Rb_treeIcSt4pairIKciESt10_Select1stIS2_ESt4lessIcESaIS2_EE22_M_emplace_hint_uniqueIJRKSt21piecewise_construct_tSt5tupleIJRS1_EESD_IJEEEEESt17_Rb_tree_iteratorIS2_ESt23_Rb_tree_const_iteratorIS2_EDpOT_ = comdat any

$_ZNSt8_Rb_treeIcSt4pairIKciESt10_Select1stIS2_ESt4lessIcESaIS2_EE11lower_boundERS1_ = comdat any

$_ZNSt8_Rb_treeIcSt4pairIKciESt10_Select1stIS2_ESt4lessIcESaIS2_EE14_M_lower_boundEPSt13_Rb_tree_nodeIS2_EPSt18_Rb_tree_node_baseRS1_ = comdat any

$_ZNSt8_Rb_treeIcSt4pairIKciESt10_Select1stIS2_ESt4lessIcESaIS2_EE14_M_create_nodeIJRKSt21piecewise_construct_tSt5tupleIJRS1_EESD_IJEEEEEPSt13_Rb_tree_nodeIS2_EDpOT_ = comdat any

$_ZNSt8_Rb_treeIcSt4pairIKciESt10_Select1stIS2_ESt4lessIcESaIS2_EE29_M_get_insert_hint_unique_posESt23_Rb_tree_const_iteratorIS2_ERS1_ = comdat any

$_ZNSt8_Rb_treeIcSt4pairIKciESt10_Select1stIS2_ESt4lessIcESaIS2_EE14_M_insert_nodeEPSt18_Rb_tree_node_baseSA_PSt13_Rb_tree_nodeIS2_E = comdat any

$_ZNSt8_Rb_treeIcSt4pairIKciESt10_Select1stIS2_ESt4lessIcESaIS2_EE11_M_get_nodeEv = comdat any

$_ZNSt16allocator_traitsISaISt13_Rb_tree_nodeISt4pairIKciEEEE8allocateERS5_m = comdat any

$_ZN9__gnu_cxx13new_allocatorISt13_Rb_tree_nodeISt4pairIKciEEE8allocateEmPKv = comdat any

$_ZNSt8_Rb_treeIcSt4pairIKciESt10_Select1stIS2_ESt4lessIcESaIS2_EE24_M_get_insert_unique_posERS1_ = comdat any

@_ZStL8__ioinit = internal global %"class.std::ios_base::Init" zeroinitializer, align 1
@__dso_handle = external hidden global i8
@_ZL2PI = internal global double 0.000000e+00, align 8
@_ZSt4cout = external global %"class.std::basic_ostream", align 8
@.str = private unnamed_addr constant [4 x i8] c"Yes\00", align 1
@.str.2 = private unnamed_addr constant [3 x i8] c"No\00", align 1
@.str.3 = private unnamed_addr constant [4 x i8] c"YES\00", align 1
@.str.4 = private unnamed_addr constant [3 x i8] c"NO\00", align 1
@.str.5 = private unnamed_addr constant [4 x i8] c"yes\00", align 1
@.str.6 = private unnamed_addr constant [3 x i8] c"no\00", align 1
@dx = dso_local global %"class.std::vector" zeroinitializer, align 8
@constinit = private unnamed_addr constant [8 x i32] [i32 1, i32 0, i32 -1, i32 0, i32 1, i32 1, i32 -1, i32 -1], align 4
@dy = dso_local global %"class.std::vector" zeroinitializer, align 8
@constinit.9 = private unnamed_addr constant [8 x i32] [i32 0, i32 1, i32 0, i32 -1, i32 1, i32 -1, i32 1, i32 -1], align 4
@dc = dso_local global %"class.std::vector.0" zeroinitializer, align 8
@_Z2dsB5cxx11 = dso_local global %"class.std::vector.6" zeroinitializer, align 8
@.str.12 = private unnamed_addr constant [2 x i8] c"R\00", align 1
@.str.13 = private unnamed_addr constant [2 x i8] c"D\00", align 1
@.str.14 = private unnamed_addr constant [2 x i8] c"L\00", align 1
@.str.15 = private unnamed_addr constant [2 x i8] c"U\00", align 1
@.str.16 = private unnamed_addr constant [3 x i8] c"RD\00", align 1
@.str.17 = private unnamed_addr constant [3 x i8] c"RU\00", align 1
@.str.18 = private unnamed_addr constant [3 x i8] c"LD\00", align 1
@.str.19 = private unnamed_addr constant [3 x i8] c"LU\00", align 1
@_ZSt3cin = external global %"class.std::basic_istream", align 8
@.str.21 = private unnamed_addr constant [49 x i8] c"cannot create std::vector larger than max_size()\00", align 1
@_ZStL19piecewise_construct = internal constant %"struct.std::piecewise_construct_t" undef, align 1
@llvm.global_ctors = appending global [1 x { i32, void ()*, i8* }] [{ i32, void ()*, i8* } { i32 65535, void ()* @_GLOBAL__sub_I_s512421590.cpp, i8* null }]

; Function Attrs: minsize optsize
declare void @_ZNSt8ios_base4InitC1Ev(%"class.std::ios_base::Init"* nonnull align 1 dereferenceable(1)) unnamed_addr #0

; Function Attrs: minsize nounwind optsize
declare void @_ZNSt8ios_base4InitD1Ev(%"class.std::ios_base::Init"* nonnull align 1 dereferenceable(1)) unnamed_addr #1

; Function Attrs: nofree nounwind
declare i32 @__cxa_atexit(void (i8*)*, i8*, i8*) local_unnamed_addr #2

; Function Attrs: argmemonly mustprogress nofree nosync nounwind willreturn
declare {}* @llvm.invariant.start.p0i8(i64 immarg, i8* nocapture) #3

; Function Attrs: minsize mustprogress noreturn optsize sspstrong uwtable
define dso_local void @_Z4cYesv() local_unnamed_addr #4 {
  %1 = tail call nonnull align 8 dereferenceable(8) %"class.std::basic_ostream"* @_ZStlsISt11char_traitsIcEERSt13basic_ostreamIcT_ES5_PKc(%"class.std::basic_ostream"* nonnull align 8 dereferenceable(8) @_ZSt4cout, i8* getelementptr inbounds ([4 x i8], [4 x i8]* @.str, i64 0, i64 0)) #19
  %2 = tail call nonnull align 8 dereferenceable(8) %"class.std::basic_ostream"* @_ZSt4endlIcSt11char_traitsIcEERSt13basic_ostreamIT_T0_ES6_(%"class.std::basic_ostream"* nonnull align 8 dereferenceable(8) %1) #19
  tail call void @exit(i32 0) #20
  unreachable
}

; Function Attrs: inlinehint minsize mustprogress optsize sspstrong uwtable
declare nonnull align 8 dereferenceable(8) %"class.std::basic_ostream"* @_ZStlsISt11char_traitsIcEERSt13basic_ostreamIcT_ES5_PKc(%"class.std::basic_ostream"* nonnull align 8 dereferenceable(8), i8*) local_unnamed_addr #5

; Function Attrs: inlinehint minsize mustprogress optsize sspstrong uwtable
declare nonnull align 8 dereferenceable(8) %"class.std::basic_ostream"* @_ZSt4endlIcSt11char_traitsIcEERSt13basic_ostreamIT_T0_ES6_(%"class.std::basic_ostream"* nonnull align 8 dereferenceable(8)) local_unnamed_addr #5

; Function Attrs: minsize noreturn nounwind optsize
declare void @exit(i32) local_unnamed_addr #6

; Function Attrs: minsize mustprogress noreturn optsize sspstrong uwtable
define dso_local void @_Z3cNov() local_unnamed_addr #4 {
  %1 = tail call nonnull align 8 dereferenceable(8) %"class.std::basic_ostream"* @_ZStlsISt11char_traitsIcEERSt13basic_ostreamIcT_ES5_PKc(%"class.std::basic_ostream"* nonnull align 8 dereferenceable(8) @_ZSt4cout, i8* getelementptr inbounds ([3 x i8], [3 x i8]* @.str.2, i64 0, i64 0)) #19
  %2 = tail call nonnull align 8 dereferenceable(8) %"class.std::basic_ostream"* @_ZSt4endlIcSt11char_traitsIcEERSt13basic_ostreamIT_T0_ES6_(%"class.std::basic_ostream"* nonnull align 8 dereferenceable(8) %1) #19
  tail call void @exit(i32 0) #20
  unreachable
}

; Function Attrs: minsize mustprogress noreturn optsize sspstrong uwtable
define dso_local void @_Z4cYESv() local_unnamed_addr #4 {
  %1 = tail call nonnull align 8 dereferenceable(8) %"class.std::basic_ostream"* @_ZStlsISt11char_traitsIcEERSt13basic_ostreamIcT_ES5_PKc(%"class.std::basic_ostream"* nonnull align 8 dereferenceable(8) @_ZSt4cout, i8* getelementptr inbounds ([4 x i8], [4 x i8]* @.str.3, i64 0, i64 0)) #19
  %2 = tail call nonnull align 8 dereferenceable(8) %"class.std::basic_ostream"* @_ZSt4endlIcSt11char_traitsIcEERSt13basic_ostreamIT_T0_ES6_(%"class.std::basic_ostream"* nonnull align 8 dereferenceable(8) %1) #19
  tail call void @exit(i32 0) #20
  unreachable
}

; Function Attrs: minsize mustprogress noreturn optsize sspstrong uwtable
define dso_local void @_Z3cNOv() local_unnamed_addr #4 {
  %1 = tail call nonnull align 8 dereferenceable(8) %"class.std::basic_ostream"* @_ZStlsISt11char_traitsIcEERSt13basic_ostreamIcT_ES5_PKc(%"class.std::basic_ostream"* nonnull align 8 dereferenceable(8) @_ZSt4cout, i8* getelementptr inbounds ([3 x i8], [3 x i8]* @.str.4, i64 0, i64 0)) #19
  %2 = tail call nonnull align 8 dereferenceable(8) %"class.std::basic_ostream"* @_ZSt4endlIcSt11char_traitsIcEERSt13basic_ostreamIT_T0_ES6_(%"class.std::basic_ostream"* nonnull align 8 dereferenceable(8) %1) #19
  tail call void @exit(i32 0) #20
  unreachable
}

; Function Attrs: minsize mustprogress noreturn optsize sspstrong uwtable
define dso_local void @_Z4cyesv() local_unnamed_addr #4 {
  %1 = tail call nonnull align 8 dereferenceable(8) %"class.std::basic_ostream"* @_ZStlsISt11char_traitsIcEERSt13basic_ostreamIcT_ES5_PKc(%"class.std::basic_ostream"* nonnull align 8 dereferenceable(8) @_ZSt4cout, i8* getelementptr inbounds ([4 x i8], [4 x i8]* @.str.5, i64 0, i64 0)) #19
  %2 = tail call nonnull align 8 dereferenceable(8) %"class.std::basic_ostream"* @_ZSt4endlIcSt11char_traitsIcEERSt13basic_ostreamIT_T0_ES6_(%"class.std::basic_ostream"* nonnull align 8 dereferenceable(8) %1) #19
  tail call void @exit(i32 0) #20
  unreachable
}

; Function Attrs: minsize mustprogress noreturn optsize sspstrong uwtable
define dso_local void @_Z3cnov() local_unnamed_addr #4 {
  %1 = tail call nonnull align 8 dereferenceable(8) %"class.std::basic_ostream"* @_ZStlsISt11char_traitsIcEERSt13basic_ostreamIcT_ES5_PKc(%"class.std::basic_ostream"* nonnull align 8 dereferenceable(8) @_ZSt4cout, i8* getelementptr inbounds ([3 x i8], [3 x i8]* @.str.6, i64 0, i64 0)) #19
  %2 = tail call nonnull align 8 dereferenceable(8) %"class.std::basic_ostream"* @_ZSt4endlIcSt11char_traitsIcEERSt13basic_ostreamIT_T0_ES6_(%"class.std::basic_ostream"* nonnull align 8 dereferenceable(8) %1) #19
  tail call void @exit(i32 0) #20
  unreachable
}

; Function Attrs: minsize mustprogress noreturn optsize sspstrong uwtable
define dso_local void @_Z5cMINUv() local_unnamed_addr #4 {
  %1 = tail call nonnull align 8 dereferenceable(8) %"class.std::basic_ostream"* @_ZNSolsEi(%"class.std::basic_ostream"* nonnull align 8 dereferenceable(8) @_ZSt4cout, i32 -1) #19
  %2 = tail call nonnull align 8 dereferenceable(8) %"class.std::basic_ostream"* @_ZSt4endlIcSt11char_traitsIcEERSt13basic_ostreamIT_T0_ES6_(%"class.std::basic_ostream"* nonnull align 8 dereferenceable(8) %1) #19
  tail call void @exit(i32 0) #20
  unreachable
}

; Function Attrs: minsize optsize
declare nonnull align 8 dereferenceable(8) %"class.std::basic_ostream"* @_ZNSolsEi(%"class.std::basic_ostream"* nonnull align 8 dereferenceable(8), i32) local_unnamed_addr #0

; Function Attrs: minsize mustprogress noreturn optsize sspstrong uwtable
define dso_local void @_Z5cZEROv() local_unnamed_addr #4 {
  %1 = tail call nonnull align 8 dereferenceable(8) %"class.std::basic_ostream"* @_ZNSolsEi(%"class.std::basic_ostream"* nonnull align 8 dereferenceable(8) @_ZSt4cout, i32 0) #19
  %2 = tail call nonnull align 8 dereferenceable(8) %"class.std::basic_ostream"* @_ZSt4endlIcSt11char_traitsIcEERSt13basic_ostreamIT_T0_ES6_(%"class.std::basic_ostream"* nonnull align 8 dereferenceable(8) %1) #19
  tail call void @exit(i32 0) #20
  unreachable
}

; Function Attrs: argmemonly mustprogress nofree nosync nounwind willreturn
declare void @llvm.lifetime.start.p0i8(i64 immarg, i8* nocapture) #3

; Function Attrs: argmemonly mustprogress nofree nounwind willreturn
declare void @llvm.memcpy.p0i8.p0i8.i64(i8* noalias nocapture writeonly, i8* noalias nocapture readonly, i64, i1 immarg) #7

; Function Attrs: minsize optsize sspstrong uwtable
define linkonce_odr dso_local void @_ZNSt6vectorIiSaIiEEC2ESt16initializer_listIiERKS0_(%"class.std::vector"* nonnull align 8 dereferenceable(24) %0, i32* %1, i64 %2, %"class.std::allocator"* nonnull align 1 dereferenceable(1) %3) unnamed_addr #8 comdat align 2 personality i8* bitcast (i32 (...)* @__gxx_personality_v0 to i8*) {
  %5 = bitcast %"class.std::vector"* %0 to i8*
  tail call void @llvm.memset.p0i8.i64(i8* noundef nonnull align 8 dereferenceable(24) %5, i8 0, i64 24, i1 false) #21
  %6 = getelementptr inbounds i32, i32* %1, i64 %2
  invoke void @_ZNSt6vectorIiSaIiEE19_M_range_initializeIPKiEEvT_S5_St20forward_iterator_tag(%"class.std::vector"* nonnull align 8 dereferenceable(24) %0, i32* %1, i32* %6) #19
          to label %7 unwind label %8

7:                                                ; preds = %4
  ret void

8:                                                ; preds = %4
  %9 = landingpad { i8*, i32 }
          cleanup
  %10 = getelementptr inbounds %"class.std::vector", %"class.std::vector"* %0, i64 0, i32 0
  tail call void @_ZNSt12_Vector_baseIiSaIiEED2Ev(%"struct.std::_Vector_base"* nonnull align 8 dereferenceable(24) %10) #22
  resume { i8*, i32 } %9
}

declare i32 @__gxx_personality_v0(...)

; Function Attrs: argmemonly mustprogress nofree nosync nounwind willreturn
declare void @llvm.lifetime.end.p0i8(i64 immarg, i8* nocapture) #3

; Function Attrs: minsize nounwind optsize sspstrong uwtable
define linkonce_odr dso_local void @_ZNSt6vectorIiSaIiEED2Ev(%"class.std::vector"* nonnull align 8 dereferenceable(24) %0) unnamed_addr #9 comdat align 2 personality i8* bitcast (i32 (...)* @__gxx_personality_v0 to i8*) {
  %2 = getelementptr inbounds %"class.std::vector", %"class.std::vector"* %0, i64 0, i32 0
  tail call void @_ZNSt12_Vector_baseIiSaIiEED2Ev(%"struct.std::_Vector_base"* nonnull align 8 dereferenceable(24) %2) #22
  ret void
}

; Function Attrs: minsize optsize sspstrong uwtable
define linkonce_odr dso_local void @_ZNSt6vectorIcSaIcEEC2ESt16initializer_listIcERKS0_(%"class.std::vector.0"* nonnull align 8 dereferenceable(24) %0, i8* %1, i64 %2, %"class.std::allocator.2"* nonnull align 1 dereferenceable(1) %3) unnamed_addr #8 comdat align 2 personality i8* bitcast (i32 (...)* @__gxx_personality_v0 to i8*) {
  %5 = bitcast %"class.std::vector.0"* %0 to i8*
  tail call void @llvm.memset.p0i8.i64(i8* noundef nonnull align 8 dereferenceable(24) %5, i8 0, i64 24, i1 false) #21
  %6 = getelementptr inbounds i8, i8* %1, i64 %2
  invoke void @_ZNSt6vectorIcSaIcEE19_M_range_initializeIPKcEEvT_S5_St20forward_iterator_tag(%"class.std::vector.0"* nonnull align 8 dereferenceable(24) %0, i8* %1, i8* %6) #19
          to label %7 unwind label %8

7:                                                ; preds = %4
  ret void

8:                                                ; preds = %4
  %9 = landingpad { i8*, i32 }
          cleanup
  %10 = getelementptr inbounds %"class.std::vector.0", %"class.std::vector.0"* %0, i64 0, i32 0
  tail call void @_ZNSt12_Vector_baseIcSaIcEED2Ev(%"struct.std::_Vector_base.1"* nonnull align 8 dereferenceable(24) %10) #22
  resume { i8*, i32 } %9
}

; Function Attrs: minsize nounwind optsize sspstrong uwtable
define linkonce_odr dso_local void @_ZNSt6vectorIcSaIcEED2Ev(%"class.std::vector.0"* nonnull align 8 dereferenceable(24) %0) unnamed_addr #9 comdat align 2 personality i8* bitcast (i32 (...)* @__gxx_personality_v0 to i8*) {
  %2 = getelementptr inbounds %"class.std::vector.0", %"class.std::vector.0"* %0, i64 0, i32 0
  tail call void @_ZNSt12_Vector_baseIcSaIcEED2Ev(%"struct.std::_Vector_base.1"* nonnull align 8 dereferenceable(24) %2) #22
  ret void
}

; Function Attrs: minsize optsize sspstrong uwtable
declare void @_ZNSt7__cxx1112basic_stringIcSt11char_traitsIcESaIcEEC2EPKcRKS3_(%"class.std::__cxx11::basic_string"* nonnull align 8 dereferenceable(32), i8*, %"class.std::allocator.2"* nonnull align 1 dereferenceable(1)) unnamed_addr #8 align 2

; Function Attrs: minsize optsize sspstrong uwtable
define linkonce_odr dso_local void @_ZNSt6vectorINSt7__cxx1112basic_stringIcSt11char_traitsIcESaIcEEESaIS5_EEC2ESt16initializer_listIS5_ERKS6_(%"class.std::vector.6"* nonnull align 8 dereferenceable(24) %0, %"class.std::__cxx11::basic_string"* %1, i64 %2, %"class.std::allocator.8"* nonnull align 1 dereferenceable(1) %3) unnamed_addr #8 comdat align 2 personality i8* bitcast (i32 (...)* @__gxx_personality_v0 to i8*) {
  %5 = bitcast %"class.std::vector.6"* %0 to i8*
  tail call void @llvm.memset.p0i8.i64(i8* noundef nonnull align 8 dereferenceable(24) %5, i8 0, i64 24, i1 false) #21
  %6 = getelementptr inbounds %"class.std::__cxx11::basic_string", %"class.std::__cxx11::basic_string"* %1, i64 %2
  invoke void @_ZNSt6vectorINSt7__cxx1112basic_stringIcSt11char_traitsIcESaIcEEESaIS5_EE19_M_range_initializeIPKS5_EEvT_SB_St20forward_iterator_tag(%"class.std::vector.6"* nonnull align 8 dereferenceable(24) %0, %"class.std::__cxx11::basic_string"* %1, %"class.std::__cxx11::basic_string"* %6) #19
          to label %7 unwind label %8

7:                                                ; preds = %4
  ret void

8:                                                ; preds = %4
  %9 = landingpad { i8*, i32 }
          cleanup
  %10 = getelementptr inbounds %"class.std::vector.6", %"class.std::vector.6"* %0, i64 0, i32 0
  tail call void @_ZNSt12_Vector_baseINSt7__cxx1112basic_stringIcSt11char_traitsIcESaIcEEESaIS5_EED2Ev(%"struct.std::_Vector_base.7"* nonnull align 8 dereferenceable(24) %10) #22
  resume { i8*, i32 } %9
}

; Function Attrs: minsize nounwind optsize sspstrong uwtable
declare void @_ZNSt7__cxx1112basic_stringIcSt11char_traitsIcESaIcEED2Ev(%"class.std::__cxx11::basic_string"* nonnull align 8 dereferenceable(32)) unnamed_addr #9 align 2

; Function Attrs: minsize nounwind optsize sspstrong uwtable
define linkonce_odr dso_local void @_ZNSt6vectorINSt7__cxx1112basic_stringIcSt11char_traitsIcESaIcEEESaIS5_EED2Ev(%"class.std::vector.6"* nonnull align 8 dereferenceable(24) %0) unnamed_addr #9 comdat align 2 personality i8* bitcast (i32 (...)* @__gxx_personality_v0 to i8*) {
  %2 = getelementptr inbounds %"class.std::vector.6", %"class.std::vector.6"* %0, i64 0, i32 0
  %3 = getelementptr inbounds %"class.std::vector.6", %"class.std::vector.6"* %0, i64 0, i32 0, i32 0, i32 0, i32 0
  %4 = load %"class.std::__cxx11::basic_string"*, %"class.std::__cxx11::basic_string"** %3, align 8, !tbaa !5
  %5 = getelementptr inbounds %"class.std::vector.6", %"class.std::vector.6"* %0, i64 0, i32 0, i32 0, i32 0, i32 1
  %6 = load %"class.std::__cxx11::basic_string"*, %"class.std::__cxx11::basic_string"** %5, align 8, !tbaa !10
  invoke void @_ZNSt12_Destroy_auxILb0EE9__destroyIPNSt7__cxx1112basic_stringIcSt11char_traitsIcESaIcEEEEEvT_S9_(%"class.std::__cxx11::basic_string"* %4, %"class.std::__cxx11::basic_string"* %6) #19
          to label %7 unwind label %8

7:                                                ; preds = %1
  tail call void @_ZNSt12_Vector_baseINSt7__cxx1112basic_stringIcSt11char_traitsIcESaIcEEESaIS5_EED2Ev(%"struct.std::_Vector_base.7"* nonnull align 8 dereferenceable(24) %2) #22
  ret void

8:                                                ; preds = %1
  %9 = landingpad { i8*, i32 }
          catch i8* null
  %10 = extractvalue { i8*, i32 } %9, 0
  tail call void @_ZNSt12_Vector_baseINSt7__cxx1112basic_stringIcSt11char_traitsIcESaIcEEESaIS5_EED2Ev(%"struct.std::_Vector_base.7"* nonnull align 8 dereferenceable(24) %2) #22
  tail call void @__clang_call_terminate(i8* %10) #23
  unreachable
}

; Function Attrs: minsize mustprogress nofree norecurse nosync nounwind optsize readnone sspstrong uwtable willreturn
define dso_local i64 @_Z3Gcdxx(i64 %0, i64 %1) local_unnamed_addr #10 {
  br label %3

3:                                                ; preds = %7, %2
  %4 = phi i64 [ %1, %2 ], [ %8, %7 ]
  %5 = phi i64 [ %0, %2 ], [ %4, %7 ]
  %6 = icmp eq i64 %4, 0
  br i1 %6, label %9, label %7

7:                                                ; preds = %3
  %8 = srem i64 %5, %4
  br label %3, !llvm.loop !11

9:                                                ; preds = %3
  ret i64 %5
}

; Function Attrs: minsize mustprogress nofree norecurse nosync nounwind optsize readnone sspstrong uwtable willreturn
define dso_local i64 @_Z3Lcmxx(i64 %0, i64 %1) local_unnamed_addr #10 {
  br label %3

3:                                                ; preds = %7, %2
  %4 = phi i64 [ %1, %2 ], [ %8, %7 ]
  %5 = phi i64 [ %0, %2 ], [ %4, %7 ]
  %6 = icmp eq i64 %4, 0
  br i1 %6, label %9, label %7

7:                                                ; preds = %3
  %8 = srem i64 %5, %4
  br label %3, !llvm.loop !11

9:                                                ; preds = %3
  %10 = sdiv i64 %0, %5
  %11 = mul nsw i64 %10, %1
  ret i64 %11
}

; Function Attrs: minsize mustprogress nofree norecurse nosync nounwind optsize readnone sspstrong uwtable willreturn
define dso_local i64 @_Z6ModPowxxx(i64 %0, i64 %1, i64 %2) local_unnamed_addr #10 {
  br label %4

4:                                                ; preds = %15, %3
  %5 = phi i64 [ %1, %3 ], [ %19, %15 ]
  %6 = phi i64 [ %0, %3 ], [ %18, %15 ]
  %7 = phi i64 [ 1, %3 ], [ %16, %15 ]
  %8 = icmp sgt i64 %5, 0
  br i1 %8, label %9, label %20

9:                                                ; preds = %4
  %10 = and i64 %5, 1
  %11 = icmp eq i64 %10, 0
  br i1 %11, label %15, label %12

12:                                               ; preds = %9
  %13 = mul nsw i64 %7, %6
  %14 = srem i64 %13, %2
  br label %15

15:                                               ; preds = %12, %9
  %16 = phi i64 [ %14, %12 ], [ %7, %9 ]
  %17 = mul nsw i64 %6, %6
  %18 = srem i64 %17, %2
  %19 = lshr i64 %5, 1
  br label %4, !llvm.loop !13

20:                                               ; preds = %4
  ret i64 %7
}

; Function Attrs: minsize norecurse optsize sspstrong uwtable
define dso_local i32 @main() local_unnamed_addr #11 personality i8* bitcast (i32 (...)* @__gxx_personality_v0 to i8*) {
  %1 = alloca %"class.std::__cxx11::basic_string", align 8
  %2 = alloca %"class.std::map", align 8
  %3 = alloca i8, align 1
  %4 = load i8*, i8** bitcast (%"class.std::basic_istream"* @_ZSt3cin to i8**), align 8, !tbaa !14
  %5 = getelementptr i8, i8* %4, i64 -24
  %6 = bitcast i8* %5 to i64*
  %7 = load i64, i64* %6, align 8
  %8 = add nsw i64 %7, 216
  %9 = getelementptr inbounds i8, i8* bitcast (%"class.std::basic_istream"* @_ZSt3cin to i8*), i64 %8
  %10 = bitcast i8* %9 to %"class.std::basic_ostream"**
  store %"class.std::basic_ostream"* null, %"class.std::basic_ostream"** %10, align 8, !tbaa !16
  %11 = tail call zeroext i1 @_ZNSt8ios_base15sync_with_stdioEb(i1 zeroext false) #19
  %12 = load i8*, i8** bitcast (%"class.std::basic_ostream"* @_ZSt4cout to i8**), align 8, !tbaa !14
  %13 = getelementptr i8, i8* %12, i64 -24
  %14 = bitcast i8* %13 to i64*
  %15 = load i64, i64* %14, align 8
  %16 = add nsw i64 %15, 24
  %17 = getelementptr inbounds i8, i8* bitcast (%"class.std::basic_ostream"* @_ZSt4cout to i8*), i64 %16
  %18 = bitcast i8* %17 to i32*
  %19 = load i32, i32* %18, align 8, !tbaa !19
  %20 = and i32 %19, -261
  %21 = or i32 %20, 4
  store i32 %21, i32* %18, align 8, !tbaa !27
  %22 = load i64, i64* %14, align 8
  %23 = add nsw i64 %22, 8
  %24 = getelementptr inbounds i8, i8* bitcast (%"class.std::basic_ostream"* @_ZSt4cout to i8*), i64 %23
  %25 = bitcast i8* %24 to i64*
  store i64 12, i64* %25, align 8, !tbaa !28
  %26 = bitcast %"class.std::__cxx11::basic_string"* %1 to i8*
  call void @llvm.lifetime.start.p0i8(i64 32, i8* nonnull %26) #21
  %27 = getelementptr inbounds %"class.std::__cxx11::basic_string", %"class.std::__cxx11::basic_string"* %1, i64 0, i32 2
  %28 = bitcast %"class.std::__cxx11::basic_string"* %1 to %union.anon**
  store %union.anon* %27, %union.anon** %28, align 8, !tbaa !29
  %29 = getelementptr inbounds %"class.std::__cxx11::basic_string", %"class.std::__cxx11::basic_string"* %1, i64 0, i32 1
  store i64 0, i64* %29, align 8, !tbaa !31
  %30 = bitcast %union.anon* %27 to i8*
  store i8 0, i8* %30, align 8, !tbaa !33
  %31 = invoke nonnull align 8 dereferenceable(16) %"class.std::basic_istream"* @_ZStrsIcSt11char_traitsIcESaIcEERSt13basic_istreamIT_T0_ES7_RNSt7__cxx1112basic_stringIS4_S5_T1_EE(%"class.std::basic_istream"* nonnull align 8 dereferenceable(16) @_ZSt3cin, %"class.std::__cxx11::basic_string"* nonnull align 8 dereferenceable(32) %1) #19
          to label %32 unwind label %61

32:                                               ; preds = %0
  %33 = load i64, i64* %29, align 8, !tbaa !31
  %34 = getelementptr inbounds %"class.std::map", %"class.std::map"* %2, i64 0, i32 0, i32 0, i32 0, i32 0, i32 0
  call void @llvm.lifetime.start.p0i8(i64 48, i8* nonnull %34) #21
  %35 = getelementptr inbounds i8, i8* %34, i64 8
  %36 = bitcast i8* %35 to i32*
  store i32 0, i32* %36, align 8, !tbaa !34
  %37 = getelementptr inbounds i8, i8* %34, i64 16
  %38 = bitcast i8* %37 to %"struct.std::_Rb_tree_node_base"**
  store %"struct.std::_Rb_tree_node_base"* null, %"struct.std::_Rb_tree_node_base"** %38, align 8, !tbaa !38
  %39 = getelementptr inbounds i8, i8* %34, i64 24
  %40 = bitcast i8* %39 to i8**
  store i8* %35, i8** %40, align 8, !tbaa !39
  %41 = getelementptr inbounds i8, i8* %34, i64 32
  %42 = bitcast i8* %41 to i8**
  store i8* %35, i8** %42, align 8, !tbaa !40
  %43 = getelementptr inbounds i8, i8* %34, i64 40
  %44 = bitcast i8* %43 to i64*
  store i64 0, i64* %44, align 8, !tbaa !41
  %45 = getelementptr inbounds %"class.std::__cxx11::basic_string", %"class.std::__cxx11::basic_string"* %1, i64 0, i32 0, i32 0
  %46 = load i8*, i8** %45, align 8, !tbaa !42
  %47 = getelementptr inbounds i8, i8* %46, i64 %33
  br label %48

48:                                               ; preds = %66, %32
  %49 = phi i8* [ %46, %32 ], [ %69, %66 ]
  %50 = icmp eq i8* %49, %47
  br i1 %50, label %51, label %63

51:                                               ; preds = %48
  %52 = shl i64 %33, 32
  %53 = ashr exact i64 %52, 32
  %54 = add i64 %52, -4294967296
  %55 = ashr exact i64 %54, 32
  %56 = mul nsw i64 %55, %53
  %57 = sdiv i64 %56, 2
  %58 = bitcast i8* %39 to %"struct.std::_Rb_tree_node_base"**
  %59 = load %"struct.std::_Rb_tree_node_base"*, %"struct.std::_Rb_tree_node_base"** %58, align 8, !tbaa !39
  %60 = bitcast i8* %35 to %"struct.std::_Rb_tree_node_base"*
  br label %72

61:                                               ; preds = %0
  %62 = landingpad { i8*, i32 }
          cleanup
  br label %100

63:                                               ; preds = %48
  call void @llvm.lifetime.start.p0i8(i64 1, i8* nonnull %3) #21
  %64 = load i8, i8* %49, align 1, !tbaa !33
  store i8 %64, i8* %3, align 1, !tbaa !33
  %65 = invoke nonnull align 4 dereferenceable(4) i32* @_ZNSt3mapIciSt4lessIcESaISt4pairIKciEEEixERS3_(%"class.std::map"* nonnull align 8 dereferenceable(48) %2, i8* nonnull align 1 dereferenceable(1) %3) #19
          to label %66 unwind label %70

66:                                               ; preds = %63
  %67 = load i32, i32* %65, align 4, !tbaa !43
  %68 = add nsw i32 %67, 1
  store i32 %68, i32* %65, align 4, !tbaa !43
  call void @llvm.lifetime.end.p0i8(i64 1, i8* nonnull %3) #21
  %69 = getelementptr inbounds i8, i8* %49, i64 1
  br label %48

70:                                               ; preds = %63
  %71 = landingpad { i8*, i32 }
          cleanup
  call void @llvm.lifetime.end.p0i8(i64 1, i8* nonnull %3) #21
  br label %97

72:                                               ; preds = %79, %51
  %73 = phi %"struct.std::_Rb_tree_node_base"* [ %59, %51 ], [ %90, %79 ]
  %74 = phi i64 [ %57, %51 ], [ %89, %79 ]
  %75 = icmp eq %"struct.std::_Rb_tree_node_base"* %73, %60
  br i1 %75, label %76, label %79

76:                                               ; preds = %72
  %77 = add nsw i64 %74, 1
  %78 = invoke nonnull align 8 dereferenceable(8) %"class.std::basic_ostream"* @_ZNSo9_M_insertIxEERSoT_(%"class.std::basic_ostream"* nonnull align 8 dereferenceable(8) @_ZSt4cout, i64 %77) #19
          to label %91 unwind label %95

79:                                               ; preds = %72
  %80 = getelementptr inbounds %"struct.std::_Rb_tree_node_base", %"struct.std::_Rb_tree_node_base"* %73, i64 1
  %81 = bitcast %"struct.std::_Rb_tree_node_base"* %80 to %"struct.std::pair"*
  %82 = getelementptr inbounds %"struct.std::pair", %"struct.std::pair"* %81, i64 0, i32 1
  %83 = load i32, i32* %82, align 4
  %84 = sext i32 %83 to i64
  %85 = add nsw i32 %83, -1
  %86 = sext i32 %85 to i64
  %87 = mul nsw i64 %86, %84
  %88 = sdiv i64 %87, -2
  %89 = add i64 %88, %74
  %90 = call %"struct.std::_Rb_tree_node_base"* @_ZSt18_Rb_tree_incrementPSt18_Rb_tree_node_base(%"struct.std::_Rb_tree_node_base"* %73) #24
  br label %72

91:                                               ; preds = %76
  %92 = invoke nonnull align 8 dereferenceable(8) %"class.std::basic_ostream"* @_ZSt4endlIcSt11char_traitsIcEERSt13basic_ostreamIT_T0_ES6_(%"class.std::basic_ostream"* nonnull align 8 dereferenceable(8) %78) #19
          to label %93 unwind label %95

93:                                               ; preds = %91
  %94 = getelementptr inbounds %"class.std::map", %"class.std::map"* %2, i64 0, i32 0
  call void @_ZNSt8_Rb_treeIcSt4pairIKciESt10_Select1stIS2_ESt4lessIcESaIS2_EED2Ev(%"class.std::_Rb_tree"* nonnull align 8 dereferenceable(48) %94) #22
  call void @llvm.lifetime.end.p0i8(i64 48, i8* nonnull %34) #21
  call void @_ZNSt7__cxx1112basic_stringIcSt11char_traitsIcESaIcEED2Ev(%"class.std::__cxx11::basic_string"* nonnull align 8 dereferenceable(32) %1) #22
  call void @llvm.lifetime.end.p0i8(i64 32, i8* nonnull %26) #21
  ret i32 0

95:                                               ; preds = %91, %76
  %96 = landingpad { i8*, i32 }
          cleanup
  br label %97

97:                                               ; preds = %95, %70
  %98 = phi { i8*, i32 } [ %71, %70 ], [ %96, %95 ]
  %99 = getelementptr inbounds %"class.std::map", %"class.std::map"* %2, i64 0, i32 0
  call void @_ZNSt8_Rb_treeIcSt4pairIKciESt10_Select1stIS2_ESt4lessIcESaIS2_EED2Ev(%"class.std::_Rb_tree"* nonnull align 8 dereferenceable(48) %99) #22
  call void @llvm.lifetime.end.p0i8(i64 48, i8* nonnull %34) #21
  br label %100

100:                                              ; preds = %97, %61
  %101 = phi { i8*, i32 } [ %98, %97 ], [ %62, %61 ]
  call void @_ZNSt7__cxx1112basic_stringIcSt11char_traitsIcESaIcEED2Ev(%"class.std::__cxx11::basic_string"* nonnull align 8 dereferenceable(32) %1) #22
  call void @llvm.lifetime.end.p0i8(i64 32, i8* nonnull %26) #21
  resume { i8*, i32 } %101
}

; Function Attrs: minsize optsize
declare zeroext i1 @_ZNSt8ios_base15sync_with_stdioEb(i1 zeroext) local_unnamed_addr #0

; Function Attrs: minsize optsize
declare nonnull align 8 dereferenceable(16) %"class.std::basic_istream"* @_ZStrsIcSt11char_traitsIcESaIcEERSt13basic_istreamIT_T0_ES7_RNSt7__cxx1112basic_stringIS4_S5_T1_EE(%"class.std::basic_istream"* nonnull align 8 dereferenceable(16), %"class.std::__cxx11::basic_string"* nonnull align 8 dereferenceable(32)) local_unnamed_addr #0

; Function Attrs: minsize optsize sspstrong uwtable
define linkonce_odr dso_local nonnull align 4 dereferenceable(4) i32* @_ZNSt3mapIciSt4lessIcESaISt4pairIKciEEEixERS3_(%"class.std::map"* nonnull align 8 dereferenceable(48) %0, i8* nonnull align 1 dereferenceable(1) %1) local_unnamed_addr #8 comdat align 2 personality i32 (...)* @__gxx_personality_v0 {
  %3 = alloca %"class.std::tuple", align 8
  %4 = alloca %"class.std::tuple.15", align 1
  %5 = getelementptr inbounds %"class.std::map", %"class.std::map"* %0, i64 0, i32 0
  %6 = tail call %"struct.std::_Rb_tree_node_base"* @_ZNSt8_Rb_treeIcSt4pairIKciESt10_Select1stIS2_ESt4lessIcESaIS2_EE11lower_boundERS1_(%"class.std::_Rb_tree"* nonnull align 8 dereferenceable(48) %5, i8* nonnull align 1 dereferenceable(1) %1) #19
  %7 = getelementptr inbounds %"class.std::map", %"class.std::map"* %0, i64 0, i32 0, i32 0, i32 0, i32 0, i32 0
  %8 = getelementptr inbounds i8, i8* %7, i64 8
  %9 = bitcast i8* %8 to %"struct.std::_Rb_tree_node_base"*
  %10 = icmp eq %"struct.std::_Rb_tree_node_base"* %6, %9
  br i1 %10, label %17, label %11

11:                                               ; preds = %2
  %12 = getelementptr inbounds %"struct.std::_Rb_tree_node_base", %"struct.std::_Rb_tree_node_base"* %6, i64 1
  %13 = bitcast %"struct.std::_Rb_tree_node_base"* %12 to i8*
  %14 = load i8, i8* %1, align 1, !tbaa !33
  %15 = load i8, i8* %13, align 1, !tbaa !33
  %16 = icmp slt i8 %14, %15
  br i1 %16, label %17, label %22

17:                                               ; preds = %2, %11
  %18 = bitcast %"class.std::tuple"* %3 to i8*
  call void @llvm.lifetime.start.p0i8(i64 8, i8* nonnull %18) #21
  %19 = getelementptr inbounds %"class.std::tuple", %"class.std::tuple"* %3, i64 0, i32 0, i32 0, i32 0
  store i8* %1, i8** %19, align 8, !tbaa !44
  %20 = getelementptr inbounds %"class.std::tuple.15", %"class.std::tuple.15"* %4, i64 0, i32 0
  call void @llvm.lifetime.start.p0i8(i64 1, i8* nonnull %20) #21
  %21 = call %"struct.std::_Rb_tree_node_base"* @_ZNSt8_Rb_treeIcSt4pairIKciESt10_Select1stIS2_ESt4lessIcESaIS2_EE22_M_emplace_hint_uniqueIJRKSt21piecewise_construct_tSt5tupleIJRS1_EESD_IJEEEEESt17_Rb_tree_iteratorIS2_ESt23_Rb_tree_const_iteratorIS2_EDpOT_(%"class.std::_Rb_tree"* nonnull align 8 dereferenceable(48) %5, %"struct.std::_Rb_tree_node_base"* %6, %"struct.std::piecewise_construct_t"* nonnull align 1 dereferenceable(1) @_ZStL19piecewise_construct, %"class.std::tuple"* nonnull align 8 dereferenceable(8) %3, %"class.std::tuple.15"* nonnull align 1 dereferenceable(1) %4) #19
  call void @llvm.lifetime.end.p0i8(i64 1, i8* nonnull %20) #21
  call void @llvm.lifetime.end.p0i8(i64 8, i8* nonnull %18) #21
  br label %22

22:                                               ; preds = %17, %11
  %23 = phi %"struct.std::_Rb_tree_node_base"* [ %21, %17 ], [ %6, %11 ]
  %24 = getelementptr inbounds %"struct.std::_Rb_tree_node_base", %"struct.std::_Rb_tree_node_base"* %23, i64 1
  %25 = bitcast %"struct.std::_Rb_tree_node_base"* %24 to %"struct.std::pair"*
  %26 = getelementptr inbounds %"struct.std::pair", %"struct.std::pair"* %25, i64 0, i32 1
  ret i32* %26
}

; Function Attrs: noinline noreturn nounwind
define linkonce_odr hidden void @__clang_call_terminate(i8* %0) local_unnamed_addr #12 comdat {
  %2 = tail call i8* @__cxa_begin_catch(i8* %0) #21
  tail call void @_ZSt9terminatev() #23
  unreachable
}

declare i8* @__cxa_begin_catch(i8*) local_unnamed_addr

declare void @_ZSt9terminatev() local_unnamed_addr

; Function Attrs: minsize nounwind optsize sspstrong uwtable
define linkonce_odr dso_local void @_ZNSt8_Rb_treeIcSt4pairIKciESt10_Select1stIS2_ESt4lessIcESaIS2_EED2Ev(%"class.std::_Rb_tree"* nonnull align 8 dereferenceable(48) %0) unnamed_addr #9 comdat align 2 personality i8* bitcast (i32 (...)* @__gxx_personality_v0 to i8*) {
  %2 = getelementptr inbounds %"class.std::_Rb_tree", %"class.std::_Rb_tree"* %0, i64 0, i32 0, i32 0, i32 0, i32 0
  %3 = getelementptr inbounds i8, i8* %2, i64 16
  %4 = bitcast i8* %3 to %"struct.std::_Rb_tree_node"**
  %5 = load %"struct.std::_Rb_tree_node"*, %"struct.std::_Rb_tree_node"** %4, align 8, !tbaa !38
  invoke void @_ZNSt8_Rb_treeIcSt4pairIKciESt10_Select1stIS2_ESt4lessIcESaIS2_EE8_M_eraseEPSt13_Rb_tree_nodeIS2_E(%"class.std::_Rb_tree"* nonnull align 8 dereferenceable(48) %0, %"struct.std::_Rb_tree_node"* %5) #19
          to label %6 unwind label %7

6:                                                ; preds = %1
  ret void

7:                                                ; preds = %1
  %8 = landingpad { i8*, i32 }
          catch i8* null
  %9 = extractvalue { i8*, i32 } %8, 0
  tail call void @__clang_call_terminate(i8* %9) #23
  unreachable
}

; Function Attrs: minsize mustprogress optsize sspstrong uwtable
define linkonce_odr dso_local void @_ZNSt8_Rb_treeIcSt4pairIKciESt10_Select1stIS2_ESt4lessIcESaIS2_EE8_M_eraseEPSt13_Rb_tree_nodeIS2_E(%"class.std::_Rb_tree"* nonnull align 8 dereferenceable(48) %0, %"struct.std::_Rb_tree_node"* %1) local_unnamed_addr #13 comdat align 2 personality i32 (...)* @__gxx_personality_v0 {
  br label %3

3:                                                ; preds = %6, %2
  %4 = phi %"struct.std::_Rb_tree_node"* [ %1, %2 ], [ %12, %6 ]
  %5 = icmp eq %"struct.std::_Rb_tree_node"* %4, null
  br i1 %5, label %14, label %6

6:                                                ; preds = %3
  %7 = getelementptr inbounds %"struct.std::_Rb_tree_node", %"struct.std::_Rb_tree_node"* %4, i64 0, i32 0, i32 3
  %8 = bitcast %"struct.std::_Rb_tree_node_base"** %7 to %"struct.std::_Rb_tree_node"**
  %9 = load %"struct.std::_Rb_tree_node"*, %"struct.std::_Rb_tree_node"** %8, align 8, !tbaa !45
  tail call void @_ZNSt8_Rb_treeIcSt4pairIKciESt10_Select1stIS2_ESt4lessIcESaIS2_EE8_M_eraseEPSt13_Rb_tree_nodeIS2_E(%"class.std::_Rb_tree"* nonnull align 8 dereferenceable(48) %0, %"struct.std::_Rb_tree_node"* %9) #19
  %10 = getelementptr inbounds %"struct.std::_Rb_tree_node", %"struct.std::_Rb_tree_node"* %4, i64 0, i32 0, i32 2
  %11 = bitcast %"struct.std::_Rb_tree_node_base"** %10 to %"struct.std::_Rb_tree_node"**
  %12 = load %"struct.std::_Rb_tree_node"*, %"struct.std::_Rb_tree_node"** %11, align 8, !tbaa !46
  %13 = bitcast %"struct.std::_Rb_tree_node"* %4 to i8*
  tail call void @_ZdlPv(i8* nonnull %13) #22
  br label %3, !llvm.loop !47

14:                                               ; preds = %3
  ret void
}

; Function Attrs: minsize nobuiltin nounwind optsize
declare void @_ZdlPv(i8*) local_unnamed_addr #14

; Function Attrs: minsize mustprogress optsize sspstrong uwtable
define linkonce_odr dso_local void @_ZNSt6vectorIiSaIiEE19_M_range_initializeIPKiEEvT_S5_St20forward_iterator_tag(%"class.std::vector"* nonnull align 8 dereferenceable(24) %0, i32* %1, i32* %2) local_unnamed_addr #13 comdat align 2 {
  %4 = ptrtoint i32* %2 to i64
  %5 = ptrtoint i32* %1 to i64
  %6 = sub i64 %4, %5
  %7 = ashr exact i64 %6, 2
  %8 = getelementptr inbounds %"class.std::vector", %"class.std::vector"* %0, i64 0, i32 0
  %9 = bitcast %"class.std::vector"* %0 to %"class.std::allocator"*
  %10 = tail call i64 @_ZNSt6vectorIiSaIiEE17_S_check_init_lenEmRKS0_(i64 %7, %"class.std::allocator"* nonnull align 1 dereferenceable(1) %9) #19
  %11 = tail call i32* @_ZNSt12_Vector_baseIiSaIiEE11_M_allocateEm(%"struct.std::_Vector_base"* nonnull align 8 dereferenceable(24) %8, i64 %10) #19
  %12 = getelementptr inbounds %"class.std::vector", %"class.std::vector"* %0, i64 0, i32 0, i32 0, i32 0, i32 0
  store i32* %11, i32** %12, align 8, !tbaa !48
  %13 = getelementptr inbounds i32, i32* %11, i64 %7
  %14 = getelementptr inbounds %"class.std::vector", %"class.std::vector"* %0, i64 0, i32 0, i32 0, i32 0, i32 2
  store i32* %13, i32** %14, align 8, !tbaa !50
  %15 = icmp eq i64 %6, 0
  br i1 %15, label %19, label %16

16:                                               ; preds = %3
  %17 = bitcast i32* %11 to i8*
  %18 = bitcast i32* %1 to i8*
  tail call void @llvm.memmove.p0i8.p0i8.i64(i8* align 4 %17, i8* align 4 %18, i64 %6, i1 false) #21
  br label %19

19:                                               ; preds = %3, %16
  %20 = getelementptr inbounds %"class.std::vector", %"class.std::vector"* %0, i64 0, i32 0, i32 0, i32 0, i32 1
  store i32* %13, i32** %20, align 8, !tbaa !51
  ret void
}

; Function Attrs: minsize nounwind optsize sspstrong uwtable
define linkonce_odr dso_local void @_ZNSt12_Vector_baseIiSaIiEED2Ev(%"struct.std::_Vector_base"* nonnull align 8 dereferenceable(24) %0) unnamed_addr #9 comdat align 2 personality i8* bitcast (i32 (...)* @__gxx_personality_v0 to i8*) {
  %2 = getelementptr inbounds %"struct.std::_Vector_base", %"struct.std::_Vector_base"* %0, i64 0, i32 0, i32 0, i32 0
  %3 = load i32*, i32** %2, align 8, !tbaa !48
  %4 = icmp eq i32* %3, null
  br i1 %4, label %7, label %5

5:                                                ; preds = %1
  %6 = bitcast i32* %3 to i8*
  tail call void @_ZdlPv(i8* nonnull %6) #22
  br label %7

7:                                                ; preds = %5, %1
  ret void
}

; Function Attrs: minsize mustprogress optsize sspstrong uwtable
define linkonce_odr dso_local i32* @_ZNSt12_Vector_baseIiSaIiEE11_M_allocateEm(%"struct.std::_Vector_base"* nonnull align 8 dereferenceable(24) %0, i64 %1) local_unnamed_addr #13 comdat align 2 {
  %3 = icmp eq i64 %1, 0
  br i1 %3, label %7, label %4

4:                                                ; preds = %2
  %5 = bitcast %"struct.std::_Vector_base"* %0 to %"class.std::allocator"*
  %6 = tail call i32* @_ZNSt16allocator_traitsISaIiEE8allocateERS0_m(%"class.std::allocator"* nonnull align 1 dereferenceable(1) %5, i64 %1) #19
  br label %7

7:                                                ; preds = %2, %4
  %8 = phi i32* [ %6, %4 ], [ null, %2 ]
  ret i32* %8
}

; Function Attrs: minsize optsize sspstrong uwtable
define linkonce_odr dso_local i64 @_ZNSt6vectorIiSaIiEE17_S_check_init_lenEmRKS0_(i64 %0, %"class.std::allocator"* nonnull align 1 dereferenceable(1) %1) local_unnamed_addr #8 comdat align 2 personality i32 (...)* @__gxx_personality_v0 {
  %3 = icmp ugt i64 %0, 2305843009213693951
  br i1 %3, label %4, label %5

4:                                                ; preds = %2
  tail call void @_ZSt20__throw_length_errorPKc(i8* getelementptr inbounds ([49 x i8], [49 x i8]* @.str.21, i64 0, i64 0)) #25
  unreachable

5:                                                ; preds = %2
  ret i64 %0
}

; Function Attrs: minsize mustprogress optsize sspstrong uwtable
define linkonce_odr dso_local i32* @_ZNSt16allocator_traitsISaIiEE8allocateERS0_m(%"class.std::allocator"* nonnull align 1 dereferenceable(1) %0, i64 %1) local_unnamed_addr #13 comdat align 2 {
  %3 = bitcast %"class.std::allocator"* %0 to %"class.__gnu_cxx::new_allocator"*
  %4 = tail call i32* @_ZN9__gnu_cxx13new_allocatorIiE8allocateEmPKv(%"class.__gnu_cxx::new_allocator"* nonnull align 1 dereferenceable(1) %3, i64 %1, i8* null) #19
  ret i32* %4
}

; Function Attrs: minsize mustprogress optsize sspstrong uwtable
define linkonce_odr dso_local i32* @_ZN9__gnu_cxx13new_allocatorIiE8allocateEmPKv(%"class.__gnu_cxx::new_allocator"* nonnull align 1 dereferenceable(1) %0, i64 %1, i8* %2) local_unnamed_addr #13 comdat align 2 {
  %4 = icmp ugt i64 %1, 2305843009213693951
  br i1 %4, label %5, label %9, !prof !52

5:                                                ; preds = %3
  %6 = icmp ugt i64 %1, 4611686018427387903
  br i1 %6, label %7, label %8

7:                                                ; preds = %5
  tail call void @_ZSt28__throw_bad_array_new_lengthv() #25
  unreachable

8:                                                ; preds = %5
  tail call void @_ZSt17__throw_bad_allocv() #25
  unreachable

9:                                                ; preds = %3
  %10 = shl nuw nsw i64 %1, 2
  %11 = tail call noalias nonnull i8* @_Znwm(i64 %10) #26
  %12 = bitcast i8* %11 to i32*
  ret i32* %12
}

; Function Attrs: minsize noreturn optsize
declare void @_ZSt28__throw_bad_array_new_lengthv() local_unnamed_addr #15

; Function Attrs: minsize noreturn optsize
declare void @_ZSt17__throw_bad_allocv() local_unnamed_addr #15

; Function Attrs: minsize nobuiltin optsize allocsize(0)
declare nonnull i8* @_Znwm(i64) local_unnamed_addr #16

; Function Attrs: minsize noreturn optsize
declare void @_ZSt20__throw_length_errorPKc(i8*) local_unnamed_addr #15

; Function Attrs: argmemonly mustprogress nofree nounwind willreturn
declare void @llvm.memmove.p0i8.p0i8.i64(i8* nocapture writeonly, i8* nocapture readonly, i64, i1 immarg) #7

; Function Attrs: minsize mustprogress optsize sspstrong uwtable
define linkonce_odr dso_local void @_ZNSt6vectorIcSaIcEE19_M_range_initializeIPKcEEvT_S5_St20forward_iterator_tag(%"class.std::vector.0"* nonnull align 8 dereferenceable(24) %0, i8* %1, i8* %2) local_unnamed_addr #13 comdat align 2 {
  %4 = ptrtoint i8* %2 to i64
  %5 = ptrtoint i8* %1 to i64
  %6 = sub i64 %4, %5
  %7 = getelementptr inbounds %"class.std::vector.0", %"class.std::vector.0"* %0, i64 0, i32 0
  %8 = bitcast %"class.std::vector.0"* %0 to %"class.std::allocator.2"*
  %9 = tail call i64 @_ZNSt6vectorIcSaIcEE17_S_check_init_lenEmRKS0_(i64 %6, %"class.std::allocator.2"* nonnull align 1 dereferenceable(1) %8) #19
  %10 = tail call i8* @_ZNSt12_Vector_baseIcSaIcEE11_M_allocateEm(%"struct.std::_Vector_base.1"* nonnull align 8 dereferenceable(24) %7, i64 %9) #19
  %11 = getelementptr inbounds %"class.std::vector.0", %"class.std::vector.0"* %0, i64 0, i32 0, i32 0, i32 0, i32 0
  store i8* %10, i8** %11, align 8, !tbaa !53
  %12 = getelementptr inbounds i8, i8* %10, i64 %6
  %13 = getelementptr inbounds %"class.std::vector.0", %"class.std::vector.0"* %0, i64 0, i32 0, i32 0, i32 0, i32 2
  store i8* %12, i8** %13, align 8, !tbaa !55
  %14 = icmp eq i64 %6, 0
  br i1 %14, label %16, label %15

15:                                               ; preds = %3
  tail call void @llvm.memmove.p0i8.p0i8.i64(i8* align 1 %10, i8* align 1 %1, i64 %6, i1 false) #21
  br label %16

16:                                               ; preds = %3, %15
  %17 = getelementptr inbounds %"class.std::vector.0", %"class.std::vector.0"* %0, i64 0, i32 0, i32 0, i32 0, i32 1
  store i8* %12, i8** %17, align 8, !tbaa !56
  ret void
}

; Function Attrs: minsize nounwind optsize sspstrong uwtable
define linkonce_odr dso_local void @_ZNSt12_Vector_baseIcSaIcEED2Ev(%"struct.std::_Vector_base.1"* nonnull align 8 dereferenceable(24) %0) unnamed_addr #9 comdat align 2 personality i8* bitcast (i32 (...)* @__gxx_personality_v0 to i8*) {
  %2 = getelementptr inbounds %"struct.std::_Vector_base.1", %"struct.std::_Vector_base.1"* %0, i64 0, i32 0, i32 0, i32 0
  %3 = load i8*, i8** %2, align 8, !tbaa !53
  %4 = icmp eq i8* %3, null
  br i1 %4, label %6, label %5

5:                                                ; preds = %1
  tail call void @_ZdlPv(i8* nonnull %3) #22
  br label %6

6:                                                ; preds = %5, %1
  ret void
}

; Function Attrs: minsize mustprogress optsize sspstrong uwtable
define linkonce_odr dso_local i8* @_ZNSt12_Vector_baseIcSaIcEE11_M_allocateEm(%"struct.std::_Vector_base.1"* nonnull align 8 dereferenceable(24) %0, i64 %1) local_unnamed_addr #13 comdat align 2 {
  %3 = icmp eq i64 %1, 0
  br i1 %3, label %7, label %4

4:                                                ; preds = %2
  %5 = bitcast %"struct.std::_Vector_base.1"* %0 to %"class.std::allocator.2"*
  %6 = tail call i8* @_ZNSt16allocator_traitsISaIcEE8allocateERS0_m(%"class.std::allocator.2"* nonnull align 1 dereferenceable(1) %5, i64 %1) #19
  br label %7

7:                                                ; preds = %2, %4
  %8 = phi i8* [ %6, %4 ], [ null, %2 ]
  ret i8* %8
}

; Function Attrs: minsize optsize sspstrong uwtable
define linkonce_odr dso_local i64 @_ZNSt6vectorIcSaIcEE17_S_check_init_lenEmRKS0_(i64 %0, %"class.std::allocator.2"* nonnull align 1 dereferenceable(1) %1) local_unnamed_addr #8 comdat align 2 {
  %3 = icmp slt i64 %0, 0
  br i1 %3, label %4, label %5

4:                                                ; preds = %2
  tail call void @_ZSt20__throw_length_errorPKc(i8* getelementptr inbounds ([49 x i8], [49 x i8]* @.str.21, i64 0, i64 0)) #25
  unreachable

5:                                                ; preds = %2
  ret i64 %0
}

; Function Attrs: minsize mustprogress optsize sspstrong uwtable
define linkonce_odr dso_local i8* @_ZNSt16allocator_traitsISaIcEE8allocateERS0_m(%"class.std::allocator.2"* nonnull align 1 dereferenceable(1) %0, i64 %1) local_unnamed_addr #13 comdat align 2 {
  %3 = bitcast %"class.std::allocator.2"* %0 to %"class.__gnu_cxx::new_allocator.3"*
  %4 = tail call i8* @_ZN9__gnu_cxx13new_allocatorIcE8allocateEmPKv(%"class.__gnu_cxx::new_allocator.3"* nonnull align 1 dereferenceable(1) %3, i64 %1, i8* null) #19
  ret i8* %4
}

; Function Attrs: minsize mustprogress optsize sspstrong uwtable
define linkonce_odr dso_local i8* @_ZN9__gnu_cxx13new_allocatorIcE8allocateEmPKv(%"class.__gnu_cxx::new_allocator.3"* nonnull align 1 dereferenceable(1) %0, i64 %1, i8* %2) local_unnamed_addr #13 comdat align 2 {
  %4 = icmp slt i64 %1, 0
  br i1 %4, label %5, label %6, !prof !52

5:                                                ; preds = %3
  tail call void @_ZSt17__throw_bad_allocv() #25
  unreachable

6:                                                ; preds = %3
  %7 = tail call noalias nonnull i8* @_Znwm(i64 %1) #26
  ret i8* %7
}

; Function Attrs: minsize mustprogress optsize sspstrong uwtable
define linkonce_odr dso_local void @_ZNSt6vectorINSt7__cxx1112basic_stringIcSt11char_traitsIcESaIcEEESaIS5_EE19_M_range_initializeIPKS5_EEvT_SB_St20forward_iterator_tag(%"class.std::vector.6"* nonnull align 8 dereferenceable(24) %0, %"class.std::__cxx11::basic_string"* %1, %"class.std::__cxx11::basic_string"* %2) local_unnamed_addr #13 comdat align 2 {
  %4 = ptrtoint %"class.std::__cxx11::basic_string"* %2 to i64
  %5 = ptrtoint %"class.std::__cxx11::basic_string"* %1 to i64
  %6 = sub i64 %4, %5
  %7 = ashr exact i64 %6, 5
  %8 = getelementptr inbounds %"class.std::vector.6", %"class.std::vector.6"* %0, i64 0, i32 0
  %9 = bitcast %"class.std::vector.6"* %0 to %"class.std::allocator.8"*
  %10 = tail call i64 @_ZNSt6vectorINSt7__cxx1112basic_stringIcSt11char_traitsIcESaIcEEESaIS5_EE17_S_check_init_lenEmRKS6_(i64 %7, %"class.std::allocator.8"* nonnull align 1 dereferenceable(1) %9) #19
  %11 = tail call %"class.std::__cxx11::basic_string"* @_ZNSt12_Vector_baseINSt7__cxx1112basic_stringIcSt11char_traitsIcESaIcEEESaIS5_EE11_M_allocateEm(%"struct.std::_Vector_base.7"* nonnull align 8 dereferenceable(24) %8, i64 %10) #19
  %12 = getelementptr inbounds %"class.std::vector.6", %"class.std::vector.6"* %0, i64 0, i32 0, i32 0, i32 0, i32 0
  store %"class.std::__cxx11::basic_string"* %11, %"class.std::__cxx11::basic_string"** %12, align 8, !tbaa !5
  %13 = getelementptr inbounds %"class.std::__cxx11::basic_string", %"class.std::__cxx11::basic_string"* %11, i64 %7
  %14 = getelementptr inbounds %"class.std::vector.6", %"class.std::vector.6"* %0, i64 0, i32 0, i32 0, i32 0, i32 2
  store %"class.std::__cxx11::basic_string"* %13, %"class.std::__cxx11::basic_string"** %14, align 8, !tbaa !57
  %15 = tail call %"class.std::__cxx11::basic_string"* @_ZNSt20__uninitialized_copyILb0EE13__uninit_copyIPKNSt7__cxx1112basic_stringIcSt11char_traitsIcESaIcEEEPS7_EET0_T_SC_SB_(%"class.std::__cxx11::basic_string"* %1, %"class.std::__cxx11::basic_string"* %2, %"class.std::__cxx11::basic_string"* %11) #19
  %16 = getelementptr inbounds %"class.std::vector.6", %"class.std::vector.6"* %0, i64 0, i32 0, i32 0, i32 0, i32 1
  store %"class.std::__cxx11::basic_string"* %15, %"class.std::__cxx11::basic_string"** %16, align 8, !tbaa !10
  ret void
}

; Function Attrs: minsize nounwind optsize sspstrong uwtable
define linkonce_odr dso_local void @_ZNSt12_Vector_baseINSt7__cxx1112basic_stringIcSt11char_traitsIcESaIcEEESaIS5_EED2Ev(%"struct.std::_Vector_base.7"* nonnull align 8 dereferenceable(24) %0) unnamed_addr #9 comdat align 2 personality i8* bitcast (i32 (...)* @__gxx_personality_v0 to i8*) {
  %2 = getelementptr inbounds %"struct.std::_Vector_base.7", %"struct.std::_Vector_base.7"* %0, i64 0, i32 0, i32 0, i32 0
  %3 = load %"class.std::__cxx11::basic_string"*, %"class.std::__cxx11::basic_string"** %2, align 8, !tbaa !5
  %4 = icmp eq %"class.std::__cxx11::basic_string"* %3, null
  br i1 %4, label %7, label %5

5:                                                ; preds = %1
  %6 = bitcast %"class.std::__cxx11::basic_string"* %3 to i8*
  tail call void @_ZdlPv(i8* nonnull %6) #22
  br label %7

7:                                                ; preds = %5, %1
  ret void
}

; Function Attrs: minsize mustprogress optsize sspstrong uwtable
define linkonce_odr dso_local %"class.std::__cxx11::basic_string"* @_ZNSt12_Vector_baseINSt7__cxx1112basic_stringIcSt11char_traitsIcESaIcEEESaIS5_EE11_M_allocateEm(%"struct.std::_Vector_base.7"* nonnull align 8 dereferenceable(24) %0, i64 %1) local_unnamed_addr #13 comdat align 2 {
  %3 = icmp eq i64 %1, 0
  br i1 %3, label %7, label %4

4:                                                ; preds = %2
  %5 = bitcast %"struct.std::_Vector_base.7"* %0 to %"class.std::allocator.8"*
  %6 = tail call %"class.std::__cxx11::basic_string"* @_ZNSt16allocator_traitsISaINSt7__cxx1112basic_stringIcSt11char_traitsIcESaIcEEEEE8allocateERS6_m(%"class.std::allocator.8"* nonnull align 1 dereferenceable(1) %5, i64 %1) #19
  br label %7

7:                                                ; preds = %2, %4
  %8 = phi %"class.std::__cxx11::basic_string"* [ %6, %4 ], [ null, %2 ]
  ret %"class.std::__cxx11::basic_string"* %8
}

; Function Attrs: minsize optsize sspstrong uwtable
define linkonce_odr dso_local i64 @_ZNSt6vectorINSt7__cxx1112basic_stringIcSt11char_traitsIcESaIcEEESaIS5_EE17_S_check_init_lenEmRKS6_(i64 %0, %"class.std::allocator.8"* nonnull align 1 dereferenceable(1) %1) local_unnamed_addr #8 comdat align 2 {
  %3 = icmp ugt i64 %0, 288230376151711743
  br i1 %3, label %4, label %5

4:                                                ; preds = %2
  tail call void @_ZSt20__throw_length_errorPKc(i8* getelementptr inbounds ([49 x i8], [49 x i8]* @.str.21, i64 0, i64 0)) #25
  unreachable

5:                                                ; preds = %2
  ret i64 %0
}

; Function Attrs: minsize mustprogress optsize sspstrong uwtable
define linkonce_odr dso_local %"class.std::__cxx11::basic_string"* @_ZNSt16allocator_traitsISaINSt7__cxx1112basic_stringIcSt11char_traitsIcESaIcEEEEE8allocateERS6_m(%"class.std::allocator.8"* nonnull align 1 dereferenceable(1) %0, i64 %1) local_unnamed_addr #13 comdat align 2 {
  %3 = bitcast %"class.std::allocator.8"* %0 to %"class.__gnu_cxx::new_allocator.9"*
  %4 = tail call %"class.std::__cxx11::basic_string"* @_ZN9__gnu_cxx13new_allocatorINSt7__cxx1112basic_stringIcSt11char_traitsIcESaIcEEEE8allocateEmPKv(%"class.__gnu_cxx::new_allocator.9"* nonnull align 1 dereferenceable(1) %3, i64 %1, i8* null) #19
  ret %"class.std::__cxx11::basic_string"* %4
}

; Function Attrs: minsize mustprogress optsize sspstrong uwtable
define linkonce_odr dso_local %"class.std::__cxx11::basic_string"* @_ZN9__gnu_cxx13new_allocatorINSt7__cxx1112basic_stringIcSt11char_traitsIcESaIcEEEE8allocateEmPKv(%"class.__gnu_cxx::new_allocator.9"* nonnull align 1 dereferenceable(1) %0, i64 %1, i8* %2) local_unnamed_addr #13 comdat align 2 {
  %4 = icmp ugt i64 %1, 288230376151711743
  br i1 %4, label %5, label %9, !prof !52

5:                                                ; preds = %3
  %6 = icmp ugt i64 %1, 576460752303423487
  br i1 %6, label %7, label %8

7:                                                ; preds = %5
  tail call void @_ZSt28__throw_bad_array_new_lengthv() #25
  unreachable

8:                                                ; preds = %5
  tail call void @_ZSt17__throw_bad_allocv() #25
  unreachable

9:                                                ; preds = %3
  %10 = shl nuw nsw i64 %1, 5
  %11 = tail call noalias nonnull i8* @_Znwm(i64 %10) #26
  %12 = bitcast i8* %11 to %"class.std::__cxx11::basic_string"*
  ret %"class.std::__cxx11::basic_string"* %12
}

; Function Attrs: minsize mustprogress optsize sspstrong uwtable
define linkonce_odr dso_local %"class.std::__cxx11::basic_string"* @_ZNSt20__uninitialized_copyILb0EE13__uninit_copyIPKNSt7__cxx1112basic_stringIcSt11char_traitsIcESaIcEEEPS7_EET0_T_SC_SB_(%"class.std::__cxx11::basic_string"* %0, %"class.std::__cxx11::basic_string"* %1, %"class.std::__cxx11::basic_string"* %2) local_unnamed_addr #13 comdat align 2 personality i8* bitcast (i32 (...)* @__gxx_personality_v0 to i8*) {
  br label %4

4:                                                ; preds = %9, %3
  %5 = phi %"class.std::__cxx11::basic_string"* [ %0, %3 ], [ %10, %9 ]
  %6 = phi %"class.std::__cxx11::basic_string"* [ %2, %3 ], [ %11, %9 ]
  %7 = icmp eq %"class.std::__cxx11::basic_string"* %5, %1
  br i1 %7, label %17, label %8

8:                                                ; preds = %4
  invoke void @_ZNSt7__cxx1112basic_stringIcSt11char_traitsIcESaIcEEC2ERKS4_(%"class.std::__cxx11::basic_string"* nonnull align 8 dereferenceable(32) %6, %"class.std::__cxx11::basic_string"* nonnull align 8 dereferenceable(32) %5) #19
          to label %9 unwind label %12

9:                                                ; preds = %8
  %10 = getelementptr inbounds %"class.std::__cxx11::basic_string", %"class.std::__cxx11::basic_string"* %5, i64 1
  %11 = getelementptr inbounds %"class.std::__cxx11::basic_string", %"class.std::__cxx11::basic_string"* %6, i64 1
  br label %4, !llvm.loop !58

12:                                               ; preds = %8
  %13 = landingpad { i8*, i32 }
          catch i8* null
  %14 = extractvalue { i8*, i32 } %13, 0
  %15 = tail call i8* @__cxa_begin_catch(i8* %14) #21
  invoke void @_ZNSt12_Destroy_auxILb0EE9__destroyIPNSt7__cxx1112basic_stringIcSt11char_traitsIcESaIcEEEEEvT_S9_(%"class.std::__cxx11::basic_string"* %2, %"class.std::__cxx11::basic_string"* %6) #19
          to label %16 unwind label %18

16:                                               ; preds = %12
  invoke void @__cxa_rethrow() #27
          to label %24 unwind label %18

17:                                               ; preds = %4
  ret %"class.std::__cxx11::basic_string"* %6

18:                                               ; preds = %12, %16
  %19 = landingpad { i8*, i32 }
          cleanup
  invoke void @__cxa_end_catch()
          to label %20 unwind label %21

20:                                               ; preds = %18
  resume { i8*, i32 } %19

21:                                               ; preds = %18
  %22 = landingpad { i8*, i32 }
          catch i8* null
  %23 = extractvalue { i8*, i32 } %22, 0
  tail call void @__clang_call_terminate(i8* %23) #23
  unreachable

24:                                               ; preds = %16
  unreachable
}

declare void @__cxa_rethrow() local_unnamed_addr

declare void @__cxa_end_catch() local_unnamed_addr

; Function Attrs: minsize optsize sspstrong uwtable
declare void @_ZNSt7__cxx1112basic_stringIcSt11char_traitsIcESaIcEEC2ERKS4_(%"class.std::__cxx11::basic_string"* nonnull align 8 dereferenceable(32), %"class.std::__cxx11::basic_string"* nonnull align 8 dereferenceable(32)) unnamed_addr #8 align 2

; Function Attrs: minsize mustprogress optsize sspstrong uwtable
define linkonce_odr dso_local void @_ZNSt12_Destroy_auxILb0EE9__destroyIPNSt7__cxx1112basic_stringIcSt11char_traitsIcESaIcEEEEEvT_S9_(%"class.std::__cxx11::basic_string"* %0, %"class.std::__cxx11::basic_string"* %1) local_unnamed_addr #13 comdat align 2 {
  br label %3

3:                                                ; preds = %6, %2
  %4 = phi %"class.std::__cxx11::basic_string"* [ %0, %2 ], [ %7, %6 ]
  %5 = icmp eq %"class.std::__cxx11::basic_string"* %4, %1
  br i1 %5, label %8, label %6

6:                                                ; preds = %3
  tail call void @_ZNSt7__cxx1112basic_stringIcSt11char_traitsIcESaIcEED2Ev(%"class.std::__cxx11::basic_string"* nonnull align 8 dereferenceable(32) %4) #22
  %7 = getelementptr inbounds %"class.std::__cxx11::basic_string", %"class.std::__cxx11::basic_string"* %4, i64 1
  br label %3, !llvm.loop !59

8:                                                ; preds = %3
  ret void
}

; Function Attrs: minsize optsize sspstrong uwtable
define linkonce_odr dso_local %"struct.std::_Rb_tree_node_base"* @_ZNSt8_Rb_treeIcSt4pairIKciESt10_Select1stIS2_ESt4lessIcESaIS2_EE22_M_emplace_hint_uniqueIJRKSt21piecewise_construct_tSt5tupleIJRS1_EESD_IJEEEEESt17_Rb_tree_iteratorIS2_ESt23_Rb_tree_const_iteratorIS2_EDpOT_(%"class.std::_Rb_tree"* nonnull align 8 dereferenceable(48) %0, %"struct.std::_Rb_tree_node_base"* %1, %"struct.std::piecewise_construct_t"* nonnull align 1 dereferenceable(1) %2, %"class.std::tuple"* nonnull align 8 dereferenceable(8) %3, %"class.std::tuple.15"* nonnull align 1 dereferenceable(1) %4) local_unnamed_addr #8 comdat align 2 personality i8* bitcast (i32 (...)* @__gxx_personality_v0 to i8*) {
  %6 = tail call %"struct.std::_Rb_tree_node"* @_ZNSt8_Rb_treeIcSt4pairIKciESt10_Select1stIS2_ESt4lessIcESaIS2_EE14_M_create_nodeIJRKSt21piecewise_construct_tSt5tupleIJRS1_EESD_IJEEEEEPSt13_Rb_tree_nodeIS2_EDpOT_(%"class.std::_Rb_tree"* nonnull align 8 dereferenceable(48) %0, %"struct.std::piecewise_construct_t"* nonnull align 1 dereferenceable(1) %2, %"class.std::tuple"* nonnull align 8 dereferenceable(8) %3, %"class.std::tuple.15"* nonnull align 1 dereferenceable(1) %4) #19
  %7 = getelementptr inbounds %"struct.std::_Rb_tree_node", %"struct.std::_Rb_tree_node"* %6, i64 0, i32 1, i32 0, i64 0
  %8 = invoke { %"struct.std::_Rb_tree_node_base"*, %"struct.std::_Rb_tree_node_base"* } @_ZNSt8_Rb_treeIcSt4pairIKciESt10_Select1stIS2_ESt4lessIcESaIS2_EE29_M_get_insert_hint_unique_posESt23_Rb_tree_const_iteratorIS2_ERS1_(%"class.std::_Rb_tree"* nonnull align 8 dereferenceable(48) %0, %"struct.std::_Rb_tree_node_base"* %1, i8* nonnull align 1 dereferenceable(1) %7) #19
          to label %9 unwind label %15

9:                                                ; preds = %5
  %10 = extractvalue { %"struct.std::_Rb_tree_node_base"*, %"struct.std::_Rb_tree_node_base"* } %8, 0
  %11 = extractvalue { %"struct.std::_Rb_tree_node_base"*, %"struct.std::_Rb_tree_node_base"* } %8, 1
  %12 = icmp eq %"struct.std::_Rb_tree_node_base"* %11, null
  br i1 %12, label %20, label %13

13:                                               ; preds = %9
  %14 = invoke %"struct.std::_Rb_tree_node_base"* @_ZNSt8_Rb_treeIcSt4pairIKciESt10_Select1stIS2_ESt4lessIcESaIS2_EE14_M_insert_nodeEPSt18_Rb_tree_node_baseSA_PSt13_Rb_tree_nodeIS2_E(%"class.std::_Rb_tree"* nonnull align 8 dereferenceable(48) %0, %"struct.std::_Rb_tree_node_base"* %10, %"struct.std::_Rb_tree_node_base"* nonnull %11, %"struct.std::_Rb_tree_node"* %6) #19
          to label %22 unwind label %15

15:                                               ; preds = %13, %5
  %16 = landingpad { i8*, i32 }
          catch i8* null
  %17 = extractvalue { i8*, i32 } %16, 0
  %18 = tail call i8* @__cxa_begin_catch(i8* %17) #21
  %19 = bitcast %"struct.std::_Rb_tree_node"* %6 to i8*
  tail call void @_ZdlPv(i8* %19) #22
  invoke void @__cxa_rethrow() #27
          to label %30 unwind label %24

20:                                               ; preds = %9
  %21 = bitcast %"struct.std::_Rb_tree_node"* %6 to i8*
  tail call void @_ZdlPv(i8* %21) #22
  br label %22

22:                                               ; preds = %13, %20
  %23 = phi %"struct.std::_Rb_tree_node_base"* [ %10, %20 ], [ %14, %13 ]
  ret %"struct.std::_Rb_tree_node_base"* %23

24:                                               ; preds = %15
  %25 = landingpad { i8*, i32 }
          cleanup
  invoke void @__cxa_end_catch()
          to label %26 unwind label %27

26:                                               ; preds = %24
  resume { i8*, i32 } %25

27:                                               ; preds = %24
  %28 = landingpad { i8*, i32 }
          catch i8* null
  %29 = extractvalue { i8*, i32 } %28, 0
  tail call void @__clang_call_terminate(i8* %29) #23
  unreachable

30:                                               ; preds = %15
  unreachable
}

; Function Attrs: minsize mustprogress optsize sspstrong uwtable
define linkonce_odr dso_local %"struct.std::_Rb_tree_node_base"* @_ZNSt8_Rb_treeIcSt4pairIKciESt10_Select1stIS2_ESt4lessIcESaIS2_EE11lower_boundERS1_(%"class.std::_Rb_tree"* nonnull align 8 dereferenceable(48) %0, i8* nonnull align 1 dereferenceable(1) %1) local_unnamed_addr #13 comdat align 2 {
  %3 = getelementptr inbounds %"class.std::_Rb_tree", %"class.std::_Rb_tree"* %0, i64 0, i32 0, i32 0, i32 0, i32 0
  %4 = getelementptr inbounds i8, i8* %3, i64 16
  %5 = bitcast i8* %4 to %"struct.std::_Rb_tree_node"**
  %6 = load %"struct.std::_Rb_tree_node"*, %"struct.std::_Rb_tree_node"** %5, align 8, !tbaa !38
  %7 = getelementptr inbounds i8, i8* %3, i64 8
  %8 = bitcast i8* %7 to %"struct.std::_Rb_tree_node_base"*
  %9 = tail call %"struct.std::_Rb_tree_node_base"* @_ZNSt8_Rb_treeIcSt4pairIKciESt10_Select1stIS2_ESt4lessIcESaIS2_EE14_M_lower_boundEPSt13_Rb_tree_nodeIS2_EPSt18_Rb_tree_node_baseRS1_(%"class.std::_Rb_tree"* nonnull align 8 dereferenceable(48) %0, %"struct.std::_Rb_tree_node"* %6, %"struct.std::_Rb_tree_node_base"* nonnull %8, i8* nonnull align 1 dereferenceable(1) %1) #19
  ret %"struct.std::_Rb_tree_node_base"* %9
}

; Function Attrs: minsize optsize sspstrong uwtable
define linkonce_odr dso_local %"struct.std::_Rb_tree_node_base"* @_ZNSt8_Rb_treeIcSt4pairIKciESt10_Select1stIS2_ESt4lessIcESaIS2_EE14_M_lower_boundEPSt13_Rb_tree_nodeIS2_EPSt18_Rb_tree_node_baseRS1_(%"class.std::_Rb_tree"* nonnull align 8 dereferenceable(48) %0, %"struct.std::_Rb_tree_node"* %1, %"struct.std::_Rb_tree_node_base"* %2, i8* nonnull align 1 dereferenceable(1) %3) local_unnamed_addr #8 comdat align 2 {
  %5 = load i8, i8* %3, align 1
  br label %6

6:                                                ; preds = %10, %4
  %7 = phi %"struct.std::_Rb_tree_node_base"* [ %2, %4 ], [ %17, %10 ]
  %8 = phi %"struct.std::_Rb_tree_node"* [ %1, %4 ], [ %20, %10 ]
  %9 = icmp eq %"struct.std::_Rb_tree_node"* %8, null
  br i1 %9, label %21, label %10

10:                                               ; preds = %6
  %11 = getelementptr inbounds %"struct.std::_Rb_tree_node", %"struct.std::_Rb_tree_node"* %8, i64 0, i32 1, i32 0, i64 0
  %12 = load i8, i8* %11, align 1, !tbaa !33
  %13 = icmp slt i8 %12, %5
  %14 = getelementptr inbounds %"struct.std::_Rb_tree_node", %"struct.std::_Rb_tree_node"* %8, i64 0, i32 0, i32 3
  %15 = getelementptr %"struct.std::_Rb_tree_node", %"struct.std::_Rb_tree_node"* %8, i64 0, i32 0
  %16 = getelementptr inbounds %"struct.std::_Rb_tree_node", %"struct.std::_Rb_tree_node"* %8, i64 0, i32 0, i32 2
  %17 = select i1 %13, %"struct.std::_Rb_tree_node_base"* %7, %"struct.std::_Rb_tree_node_base"* %15
  %18 = select i1 %13, %"struct.std::_Rb_tree_node_base"** %14, %"struct.std::_Rb_tree_node_base"** %16
  %19 = bitcast %"struct.std::_Rb_tree_node_base"** %18 to %"struct.std::_Rb_tree_node"**
  %20 = load %"struct.std::_Rb_tree_node"*, %"struct.std::_Rb_tree_node"** %19, align 8, !tbaa !44
  br label %6, !llvm.loop !60

21:                                               ; preds = %6
  ret %"struct.std::_Rb_tree_node_base"* %7
}

; Function Attrs: minsize optsize sspstrong uwtable
define linkonce_odr dso_local %"struct.std::_Rb_tree_node"* @_ZNSt8_Rb_treeIcSt4pairIKciESt10_Select1stIS2_ESt4lessIcESaIS2_EE14_M_create_nodeIJRKSt21piecewise_construct_tSt5tupleIJRS1_EESD_IJEEEEEPSt13_Rb_tree_nodeIS2_EDpOT_(%"class.std::_Rb_tree"* nonnull align 8 dereferenceable(48) %0, %"struct.std::piecewise_construct_t"* nonnull align 1 dereferenceable(1) %1, %"class.std::tuple"* nonnull align 8 dereferenceable(8) %2, %"class.std::tuple.15"* nonnull align 1 dereferenceable(1) %3) local_unnamed_addr #8 comdat align 2 personality i32 (...)* @__gxx_personality_v0 {
  %5 = tail call %"struct.std::_Rb_tree_node"* @_ZNSt8_Rb_treeIcSt4pairIKciESt10_Select1stIS2_ESt4lessIcESaIS2_EE11_M_get_nodeEv(%"class.std::_Rb_tree"* nonnull align 8 dereferenceable(48) %0) #19
  %6 = getelementptr inbounds %"class.std::tuple", %"class.std::tuple"* %2, i64 0, i32 0, i32 0, i32 0
  %7 = load i8*, i8** %6, align 8, !tbaa !61
  %8 = getelementptr inbounds %"struct.std::_Rb_tree_node", %"struct.std::_Rb_tree_node"* %5, i64 0, i32 1, i32 0, i64 0
  %9 = load i8, i8* %7, align 1, !tbaa !33
  store i8 %9, i8* %8, align 4, !tbaa !63
  %10 = getelementptr inbounds %"struct.std::_Rb_tree_node", %"struct.std::_Rb_tree_node"* %5, i64 0, i32 1, i32 0, i64 4
  %11 = bitcast i8* %10 to i32*
  store i32 0, i32* %11, align 4, !tbaa !65
  ret %"struct.std::_Rb_tree_node"* %5
}

; Function Attrs: minsize optsize sspstrong uwtable
define linkonce_odr dso_local { %"struct.std::_Rb_tree_node_base"*, %"struct.std::_Rb_tree_node_base"* } @_ZNSt8_Rb_treeIcSt4pairIKciESt10_Select1stIS2_ESt4lessIcESaIS2_EE29_M_get_insert_hint_unique_posESt23_Rb_tree_const_iteratorIS2_ERS1_(%"class.std::_Rb_tree"* nonnull align 8 dereferenceable(48) %0, %"struct.std::_Rb_tree_node_base"* %1, i8* nonnull align 1 dereferenceable(1) %2) local_unnamed_addr #8 comdat align 2 {
  %4 = getelementptr inbounds %"class.std::_Rb_tree", %"class.std::_Rb_tree"* %0, i64 0, i32 0, i32 0, i32 0, i32 0
  %5 = getelementptr inbounds i8, i8* %4, i64 8
  %6 = bitcast i8* %5 to %"struct.std::_Rb_tree_node_base"*
  %7 = icmp eq %"struct.std::_Rb_tree_node_base"* %6, %1
  br i1 %7, label %8, label %26

8:                                                ; preds = %3
  %9 = getelementptr inbounds i8, i8* %4, i64 40
  %10 = bitcast i8* %9 to i64*
  %11 = load i64, i64* %10, align 8, !tbaa !41
  %12 = icmp eq i64 %11, 0
  br i1 %12, label %22, label %13

13:                                               ; preds = %8
  %14 = getelementptr inbounds i8, i8* %4, i64 32
  %15 = bitcast i8* %14 to %"struct.std::_Rb_tree_node_base"**
  %16 = load %"struct.std::_Rb_tree_node_base"*, %"struct.std::_Rb_tree_node_base"** %15, align 8, !tbaa !44
  %17 = getelementptr inbounds %"struct.std::_Rb_tree_node_base", %"struct.std::_Rb_tree_node_base"* %16, i64 1
  %18 = bitcast %"struct.std::_Rb_tree_node_base"* %17 to i8*
  %19 = load i8, i8* %18, align 1, !tbaa !33
  %20 = load i8, i8* %2, align 1, !tbaa !33
  %21 = icmp slt i8 %19, %20
  br i1 %21, label %78, label %22

22:                                               ; preds = %13, %8
  %23 = tail call { %"struct.std::_Rb_tree_node_base"*, %"struct.std::_Rb_tree_node_base"* } @_ZNSt8_Rb_treeIcSt4pairIKciESt10_Select1stIS2_ESt4lessIcESaIS2_EE24_M_get_insert_unique_posERS1_(%"class.std::_Rb_tree"* nonnull align 8 dereferenceable(48) %0, i8* nonnull align 1 dereferenceable(1) %2) #19
  %24 = extractvalue { %"struct.std::_Rb_tree_node_base"*, %"struct.std::_Rb_tree_node_base"* } %23, 0
  %25 = extractvalue { %"struct.std::_Rb_tree_node_base"*, %"struct.std::_Rb_tree_node_base"* } %23, 1
  br label %78

26:                                               ; preds = %3
  %27 = getelementptr inbounds %"struct.std::_Rb_tree_node_base", %"struct.std::_Rb_tree_node_base"* %1, i64 1
  %28 = bitcast %"struct.std::_Rb_tree_node_base"* %27 to i8*
  %29 = load i8, i8* %2, align 1, !tbaa !33
  %30 = load i8, i8* %28, align 1, !tbaa !33
  %31 = icmp slt i8 %29, %30
  br i1 %31, label %32, label %54

32:                                               ; preds = %26
  %33 = getelementptr inbounds i8, i8* %4, i64 24
  %34 = bitcast i8* %33 to %"struct.std::_Rb_tree_node_base"**
  %35 = load %"struct.std::_Rb_tree_node_base"*, %"struct.std::_Rb_tree_node_base"** %34, align 8, !tbaa !44
  %36 = icmp eq %"struct.std::_Rb_tree_node_base"* %35, %1
  br i1 %36, label %78, label %37

37:                                               ; preds = %32
  %38 = tail call %"struct.std::_Rb_tree_node_base"* @_ZSt18_Rb_tree_decrementPSt18_Rb_tree_node_base(%"struct.std::_Rb_tree_node_base"* nonnull %1) #24
  %39 = getelementptr inbounds %"struct.std::_Rb_tree_node_base", %"struct.std::_Rb_tree_node_base"* %38, i64 1
  %40 = bitcast %"struct.std::_Rb_tree_node_base"* %39 to i8*
  %41 = load i8, i8* %40, align 1, !tbaa !33
  %42 = icmp slt i8 %41, %29
  br i1 %42, label %43, label %50

43:                                               ; preds = %37
  %44 = getelementptr inbounds %"struct.std::_Rb_tree_node_base", %"struct.std::_Rb_tree_node_base"* %38, i64 0, i32 3
  %45 = bitcast %"struct.std::_Rb_tree_node_base"** %44 to %"struct.std::_Rb_tree_node"**
  %46 = load %"struct.std::_Rb_tree_node"*, %"struct.std::_Rb_tree_node"** %45, align 8, !tbaa !45
  %47 = icmp eq %"struct.std::_Rb_tree_node"* %46, null
  %48 = select i1 %47, %"struct.std::_Rb_tree_node_base"* null, %"struct.std::_Rb_tree_node_base"* %1
  %49 = select i1 %47, %"struct.std::_Rb_tree_node_base"* %38, %"struct.std::_Rb_tree_node_base"* %1
  br label %78

50:                                               ; preds = %37
  %51 = tail call { %"struct.std::_Rb_tree_node_base"*, %"struct.std::_Rb_tree_node_base"* } @_ZNSt8_Rb_treeIcSt4pairIKciESt10_Select1stIS2_ESt4lessIcESaIS2_EE24_M_get_insert_unique_posERS1_(%"class.std::_Rb_tree"* nonnull align 8 dereferenceable(48) %0, i8* nonnull align 1 dereferenceable(1) %2) #19
  %52 = extractvalue { %"struct.std::_Rb_tree_node_base"*, %"struct.std::_Rb_tree_node_base"* } %51, 0
  %53 = extractvalue { %"struct.std::_Rb_tree_node_base"*, %"struct.std::_Rb_tree_node_base"* } %51, 1
  br label %78

54:                                               ; preds = %26
  %55 = icmp slt i8 %30, %29
  br i1 %55, label %56, label %78

56:                                               ; preds = %54
  %57 = getelementptr inbounds i8, i8* %4, i64 32
  %58 = bitcast i8* %57 to %"struct.std::_Rb_tree_node_base"**
  %59 = load %"struct.std::_Rb_tree_node_base"*, %"struct.std::_Rb_tree_node_base"** %58, align 8, !tbaa !44
  %60 = icmp eq %"struct.std::_Rb_tree_node_base"* %59, %1
  br i1 %60, label %78, label %61

61:                                               ; preds = %56
  %62 = tail call %"struct.std::_Rb_tree_node_base"* @_ZSt18_Rb_tree_incrementPSt18_Rb_tree_node_base(%"struct.std::_Rb_tree_node_base"* nonnull %1) #24
  %63 = getelementptr inbounds %"struct.std::_Rb_tree_node_base", %"struct.std::_Rb_tree_node_base"* %62, i64 1
  %64 = bitcast %"struct.std::_Rb_tree_node_base"* %63 to i8*
  %65 = load i8, i8* %64, align 1, !tbaa !33
  %66 = icmp slt i8 %29, %65
  br i1 %66, label %67, label %74

67:                                               ; preds = %61
  %68 = getelementptr inbounds %"struct.std::_Rb_tree_node_base", %"struct.std::_Rb_tree_node_base"* %1, i64 0, i32 3
  %69 = bitcast %"struct.std::_Rb_tree_node_base"** %68 to %"struct.std::_Rb_tree_node"**
  %70 = load %"struct.std::_Rb_tree_node"*, %"struct.std::_Rb_tree_node"** %69, align 8, !tbaa !45
  %71 = icmp eq %"struct.std::_Rb_tree_node"* %70, null
  %72 = select i1 %71, %"struct.std::_Rb_tree_node_base"* null, %"struct.std::_Rb_tree_node_base"* %62
  %73 = select i1 %71, %"struct.std::_Rb_tree_node_base"* %1, %"struct.std::_Rb_tree_node_base"* %62
  br label %78

74:                                               ; preds = %61
  %75 = tail call { %"struct.std::_Rb_tree_node_base"*, %"struct.std::_Rb_tree_node_base"* } @_ZNSt8_Rb_treeIcSt4pairIKciESt10_Select1stIS2_ESt4lessIcESaIS2_EE24_M_get_insert_unique_posERS1_(%"class.std::_Rb_tree"* nonnull align 8 dereferenceable(48) %0, i8* nonnull align 1 dereferenceable(1) %2) #19
  %76 = extractvalue { %"struct.std::_Rb_tree_node_base"*, %"struct.std::_Rb_tree_node_base"* } %75, 0
  %77 = extractvalue { %"struct.std::_Rb_tree_node_base"*, %"struct.std::_Rb_tree_node_base"* } %75, 1
  br label %78

78:                                               ; preds = %67, %43, %54, %74, %56, %50, %32, %13, %22
  %79 = phi %"struct.std::_Rb_tree_node_base"* [ %24, %22 ], [ null, %13 ], [ %52, %50 ], [ %1, %32 ], [ %76, %74 ], [ null, %56 ], [ %1, %54 ], [ %48, %43 ], [ %72, %67 ]
  %80 = phi %"struct.std::_Rb_tree_node_base"* [ %25, %22 ], [ %16, %13 ], [ %53, %50 ], [ %1, %32 ], [ %77, %74 ], [ %1, %56 ], [ null, %54 ], [ %49, %43 ], [ %73, %67 ]
  %81 = insertvalue { %"struct.std::_Rb_tree_node_base"*, %"struct.std::_Rb_tree_node_base"* } undef, %"struct.std::_Rb_tree_node_base"* %79, 0
  %82 = insertvalue { %"struct.std::_Rb_tree_node_base"*, %"struct.std::_Rb_tree_node_base"* } %81, %"struct.std::_Rb_tree_node_base"* %80, 1
  ret { %"struct.std::_Rb_tree_node_base"*, %"struct.std::_Rb_tree_node_base"* } %82
}

; Function Attrs: minsize optsize sspstrong uwtable
define linkonce_odr dso_local %"struct.std::_Rb_tree_node_base"* @_ZNSt8_Rb_treeIcSt4pairIKciESt10_Select1stIS2_ESt4lessIcESaIS2_EE14_M_insert_nodeEPSt18_Rb_tree_node_baseSA_PSt13_Rb_tree_nodeIS2_E(%"class.std::_Rb_tree"* nonnull align 8 dereferenceable(48) %0, %"struct.std::_Rb_tree_node_base"* %1, %"struct.std::_Rb_tree_node_base"* %2, %"struct.std::_Rb_tree_node"* %3) local_unnamed_addr #8 comdat align 2 {
  %5 = icmp eq %"struct.std::_Rb_tree_node_base"* %1, null
  br i1 %5, label %6, label %18

6:                                                ; preds = %4
  %7 = getelementptr inbounds %"class.std::_Rb_tree", %"class.std::_Rb_tree"* %0, i64 0, i32 0, i32 0, i32 0, i32 0
  %8 = getelementptr inbounds i8, i8* %7, i64 8
  %9 = bitcast i8* %8 to %"struct.std::_Rb_tree_node_base"*
  %10 = icmp eq %"struct.std::_Rb_tree_node_base"* %9, %2
  br i1 %10, label %18, label %11

11:                                               ; preds = %6
  %12 = getelementptr inbounds %"struct.std::_Rb_tree_node", %"struct.std::_Rb_tree_node"* %3, i64 0, i32 1, i32 0, i64 0
  %13 = getelementptr inbounds %"struct.std::_Rb_tree_node_base", %"struct.std::_Rb_tree_node_base"* %2, i64 1
  %14 = bitcast %"struct.std::_Rb_tree_node_base"* %13 to i8*
  %15 = load i8, i8* %12, align 1, !tbaa !33
  %16 = load i8, i8* %14, align 1, !tbaa !33
  %17 = icmp slt i8 %15, %16
  br label %18

18:                                               ; preds = %4, %11, %6
  %19 = phi i1 [ true, %6 ], [ %17, %11 ], [ true, %4 ]
  %20 = getelementptr %"struct.std::_Rb_tree_node", %"struct.std::_Rb_tree_node"* %3, i64 0, i32 0
  %21 = getelementptr inbounds %"class.std::_Rb_tree", %"class.std::_Rb_tree"* %0, i64 0, i32 0, i32 0, i32 0, i32 0
  %22 = getelementptr inbounds i8, i8* %21, i64 8
  %23 = bitcast i8* %22 to %"struct.std::_Rb_tree_node_base"*
  tail call void @_ZSt29_Rb_tree_insert_and_rebalancebPSt18_Rb_tree_node_baseS0_RS_(i1 zeroext %19, %"struct.std::_Rb_tree_node_base"* %20, %"struct.std::_Rb_tree_node_base"* %2, %"struct.std::_Rb_tree_node_base"* nonnull align 8 dereferenceable(32) %23) #22
  %24 = getelementptr inbounds i8, i8* %21, i64 40
  %25 = bitcast i8* %24 to i64*
  %26 = load i64, i64* %25, align 8, !tbaa !41
  %27 = add i64 %26, 1
  store i64 %27, i64* %25, align 8, !tbaa !41
  ret %"struct.std::_Rb_tree_node_base"* %20
}

; Function Attrs: minsize mustprogress optsize sspstrong uwtable
define linkonce_odr dso_local %"struct.std::_Rb_tree_node"* @_ZNSt8_Rb_treeIcSt4pairIKciESt10_Select1stIS2_ESt4lessIcESaIS2_EE11_M_get_nodeEv(%"class.std::_Rb_tree"* nonnull align 8 dereferenceable(48) %0) local_unnamed_addr #13 comdat align 2 {
  %2 = bitcast %"class.std::_Rb_tree"* %0 to %"class.std::allocator.12"*
  %3 = tail call %"struct.std::_Rb_tree_node"* @_ZNSt16allocator_traitsISaISt13_Rb_tree_nodeISt4pairIKciEEEE8allocateERS5_m(%"class.std::allocator.12"* nonnull align 1 dereferenceable(1) %2, i64 1) #19
  ret %"struct.std::_Rb_tree_node"* %3
}

; Function Attrs: minsize mustprogress optsize sspstrong uwtable
define linkonce_odr dso_local %"struct.std::_Rb_tree_node"* @_ZNSt16allocator_traitsISaISt13_Rb_tree_nodeISt4pairIKciEEEE8allocateERS5_m(%"class.std::allocator.12"* nonnull align 1 dereferenceable(1) %0, i64 %1) local_unnamed_addr #13 comdat align 2 {
  %3 = bitcast %"class.std::allocator.12"* %0 to %"class.__gnu_cxx::new_allocator.13"*
  %4 = tail call %"struct.std::_Rb_tree_node"* @_ZN9__gnu_cxx13new_allocatorISt13_Rb_tree_nodeISt4pairIKciEEE8allocateEmPKv(%"class.__gnu_cxx::new_allocator.13"* nonnull align 1 dereferenceable(1) %3, i64 %1, i8* null) #19
  ret %"struct.std::_Rb_tree_node"* %4
}

; Function Attrs: minsize mustprogress optsize sspstrong uwtable
define linkonce_odr dso_local %"struct.std::_Rb_tree_node"* @_ZN9__gnu_cxx13new_allocatorISt13_Rb_tree_nodeISt4pairIKciEEE8allocateEmPKv(%"class.__gnu_cxx::new_allocator.13"* nonnull align 1 dereferenceable(1) %0, i64 %1, i8* %2) local_unnamed_addr #13 comdat align 2 {
  %4 = icmp ugt i64 %1, 230584300921369395
  br i1 %4, label %5, label %9, !prof !52

5:                                                ; preds = %3
  %6 = icmp ugt i64 %1, 461168601842738790
  br i1 %6, label %7, label %8

7:                                                ; preds = %5
  tail call void @_ZSt28__throw_bad_array_new_lengthv() #25
  unreachable

8:                                                ; preds = %5
  tail call void @_ZSt17__throw_bad_allocv() #25
  unreachable

9:                                                ; preds = %3
  %10 = mul nuw nsw i64 %1, 40
  %11 = tail call noalias nonnull i8* @_Znwm(i64 %10) #26
  %12 = bitcast i8* %11 to %"struct.std::_Rb_tree_node"*
  ret %"struct.std::_Rb_tree_node"* %12
}

; Function Attrs: minsize optsize sspstrong uwtable
define linkonce_odr dso_local { %"struct.std::_Rb_tree_node_base"*, %"struct.std::_Rb_tree_node_base"* } @_ZNSt8_Rb_treeIcSt4pairIKciESt10_Select1stIS2_ESt4lessIcESaIS2_EE24_M_get_insert_unique_posERS1_(%"class.std::_Rb_tree"* nonnull align 8 dereferenceable(48) %0, i8* nonnull align 1 dereferenceable(1) %1) local_unnamed_addr #8 comdat align 2 {
  %3 = getelementptr inbounds %"class.std::_Rb_tree", %"class.std::_Rb_tree"* %0, i64 0, i32 0, i32 0, i32 0, i32 0
  %4 = getelementptr inbounds i8, i8* %3, i64 16
  %5 = bitcast i8* %4 to %"struct.std::_Rb_tree_node"**
  %6 = getelementptr inbounds i8, i8* %3, i64 8
  %7 = bitcast i8* %6 to %"struct.std::_Rb_tree_node_base"*
  %8 = load i8, i8* %1, align 1
  br label %9

9:                                                ; preds = %15, %2
  %10 = phi %"struct.std::_Rb_tree_node"** [ %5, %2 ], [ %23, %15 ]
  %11 = phi %"struct.std::_Rb_tree_node_base"* [ %7, %2 ], [ %16, %15 ]
  %12 = phi i1 [ true, %2 ], [ %19, %15 ]
  %13 = load %"struct.std::_Rb_tree_node"*, %"struct.std::_Rb_tree_node"** %10, align 8, !tbaa !44
  %14 = icmp eq %"struct.std::_Rb_tree_node"* %13, null
  br i1 %14, label %24, label %15

15:                                               ; preds = %9
  %16 = getelementptr %"struct.std::_Rb_tree_node", %"struct.std::_Rb_tree_node"* %13, i64 0, i32 0
  %17 = getelementptr inbounds %"struct.std::_Rb_tree_node", %"struct.std::_Rb_tree_node"* %13, i64 0, i32 1, i32 0, i64 0
  %18 = load i8, i8* %17, align 1, !tbaa !33
  %19 = icmp slt i8 %8, %18
  %20 = getelementptr inbounds %"struct.std::_Rb_tree_node", %"struct.std::_Rb_tree_node"* %13, i64 0, i32 0, i32 2
  %21 = getelementptr inbounds %"struct.std::_Rb_tree_node", %"struct.std::_Rb_tree_node"* %13, i64 0, i32 0, i32 3
  %22 = select i1 %19, %"struct.std::_Rb_tree_node_base"** %20, %"struct.std::_Rb_tree_node_base"** %21
  %23 = bitcast %"struct.std::_Rb_tree_node_base"** %22 to %"struct.std::_Rb_tree_node"**
  br label %9, !llvm.loop !66

24:                                               ; preds = %9
  br i1 %12, label %25, label %32

25:                                               ; preds = %24
  %26 = getelementptr inbounds i8, i8* %3, i64 24
  %27 = bitcast i8* %26 to %"struct.std::_Rb_tree_node_base"**
  %28 = load %"struct.std::_Rb_tree_node_base"*, %"struct.std::_Rb_tree_node_base"** %27, align 8, !tbaa !39
  %29 = icmp eq %"struct.std::_Rb_tree_node_base"* %11, %28
  br i1 %29, label %40, label %30

30:                                               ; preds = %25
  %31 = tail call %"struct.std::_Rb_tree_node_base"* @_ZSt18_Rb_tree_decrementPSt18_Rb_tree_node_base(%"struct.std::_Rb_tree_node_base"* %11) #24
  br label %32

32:                                               ; preds = %30, %24
  %33 = phi %"struct.std::_Rb_tree_node_base"* [ %31, %30 ], [ %11, %24 ]
  %34 = getelementptr inbounds %"struct.std::_Rb_tree_node_base", %"struct.std::_Rb_tree_node_base"* %33, i64 1
  %35 = bitcast %"struct.std::_Rb_tree_node_base"* %34 to i8*
  %36 = load i8, i8* %35, align 1, !tbaa !33
  %37 = icmp slt i8 %36, %8
  %38 = select i1 %37, %"struct.std::_Rb_tree_node_base"* null, %"struct.std::_Rb_tree_node_base"* %33
  %39 = select i1 %37, %"struct.std::_Rb_tree_node_base"* %11, %"struct.std::_Rb_tree_node_base"* null
  br label %40

40:                                               ; preds = %25, %32
  %41 = phi %"struct.std::_Rb_tree_node_base"* [ %38, %32 ], [ null, %25 ]
  %42 = phi %"struct.std::_Rb_tree_node_base"* [ %39, %32 ], [ %11, %25 ]
  %43 = insertvalue { %"struct.std::_Rb_tree_node_base"*, %"struct.std::_Rb_tree_node_base"* } undef, %"struct.std::_Rb_tree_node_base"* %41, 0
  %44 = insertvalue { %"struct.std::_Rb_tree_node_base"*, %"struct.std::_Rb_tree_node_base"* } %43, %"struct.std::_Rb_tree_node_base"* %42, 1
  ret { %"struct.std::_Rb_tree_node_base"*, %"struct.std::_Rb_tree_node_base"* } %44
}

; Function Attrs: minsize mustprogress nofree nounwind optsize readonly willreturn
declare %"struct.std::_Rb_tree_node_base"* @_ZSt18_Rb_tree_decrementPSt18_Rb_tree_node_base(%"struct.std::_Rb_tree_node_base"*) local_unnamed_addr #17

; Function Attrs: minsize nounwind optsize
declare void @_ZSt29_Rb_tree_insert_and_rebalancebPSt18_Rb_tree_node_baseS0_RS_(i1 zeroext, %"struct.std::_Rb_tree_node_base"*, %"struct.std::_Rb_tree_node_base"*, %"struct.std::_Rb_tree_node_base"* nonnull align 8 dereferenceable(32)) local_unnamed_addr #1

; Function Attrs: minsize mustprogress nofree nounwind optsize readonly willreturn
declare %"struct.std::_Rb_tree_node_base"* @_ZSt18_Rb_tree_incrementPSt18_Rb_tree_node_base(%"struct.std::_Rb_tree_node_base"*) local_unnamed_addr #17

; Function Attrs: minsize optsize
declare nonnull align 8 dereferenceable(8) %"class.std::basic_ostream"* @_ZNSo9_M_insertIxEERSoT_(%"class.std::basic_ostream"* nonnull align 8 dereferenceable(8), i64) local_unnamed_addr #0

; Function Attrs: minsize optsize sspstrong uwtable
define internal void @_GLOBAL__sub_I_s512421590.cpp() #8 section ".text.startup" personality i32 (...)* @__gxx_personality_v0 {
  %1 = alloca [8 x %"class.std::__cxx11::basic_string"], align 8
  %2 = alloca %"class.std::allocator.2", align 1
  %3 = alloca %"class.std::allocator.2", align 1
  %4 = alloca %"class.std::allocator.2", align 1
  %5 = alloca %"class.std::allocator.2", align 1
  %6 = alloca %"class.std::allocator.2", align 1
  %7 = alloca %"class.std::allocator.2", align 1
  %8 = alloca %"class.std::allocator.2", align 1
  %9 = alloca %"class.std::allocator.2", align 1
  %10 = alloca %"class.std::allocator.8", align 1
  %11 = alloca [4 x i8], align 1
  %12 = alloca %"class.std::allocator.2", align 1
  %13 = alloca [8 x i32], align 4
  %14 = alloca %"class.std::allocator", align 1
  %15 = alloca [8 x i32], align 4
  %16 = alloca %"class.std::allocator", align 1
  tail call void @_ZNSt8ios_base4InitC1Ev(%"class.std::ios_base::Init"* nonnull align 1 dereferenceable(1) @_ZStL8__ioinit) #19
  %17 = tail call i32 @__cxa_atexit(void (i8*)* bitcast (void (%"class.std::ios_base::Init"*)* @_ZNSt8ios_base4InitD1Ev to void (i8*)*), i8* getelementptr inbounds (%"class.std::ios_base::Init", %"class.std::ios_base::Init"* @_ZStL8__ioinit, i64 0, i32 0), i8* nonnull @__dso_handle) #21
  store double 0x400921FB54442D18, double* @_ZL2PI, align 8, !tbaa !67
  %18 = tail call {}* @llvm.invariant.start.p0i8(i64 8, i8* bitcast (double* @_ZL2PI to i8*)) #21
  %19 = bitcast [8 x i32]* %15 to i8*
  call void @llvm.lifetime.start.p0i8(i64 32, i8* nonnull %19) #21
  call void @llvm.memcpy.p0i8.p0i8.i64(i8* noundef nonnull align 4 dereferenceable(32) %19, i8* noundef nonnull align 4 dereferenceable(32) bitcast ([8 x i32]* @constinit to i8*), i64 32, i1 false), !tbaa.struct !69
  %20 = getelementptr inbounds [8 x i32], [8 x i32]* %15, i64 0, i64 0
  %21 = getelementptr inbounds %"class.std::allocator", %"class.std::allocator"* %16, i64 0, i32 0
  call void @llvm.lifetime.start.p0i8(i64 1, i8* nonnull %21) #21
  call void @_ZNSt6vectorIiSaIiEEC2ESt16initializer_listIiERKS0_(%"class.std::vector"* nonnull align 8 dereferenceable(24) @dx, i32* nonnull %20, i64 8, %"class.std::allocator"* nonnull align 1 dereferenceable(1) %16) #19
  call void @llvm.lifetime.end.p0i8(i64 1, i8* nonnull %21) #21
  call void @llvm.lifetime.end.p0i8(i64 32, i8* nonnull %19) #21
  %22 = call i32 @__cxa_atexit(void (i8*)* bitcast (void (%"class.std::vector"*)* @_ZNSt6vectorIiSaIiEED2Ev to void (i8*)*), i8* bitcast (%"class.std::vector"* @dx to i8*), i8* nonnull @__dso_handle) #21
  %23 = bitcast [8 x i32]* %13 to i8*
  call void @llvm.lifetime.start.p0i8(i64 32, i8* nonnull %23) #21
  call void @llvm.memcpy.p0i8.p0i8.i64(i8* noundef nonnull align 4 dereferenceable(32) %23, i8* noundef nonnull align 4 dereferenceable(32) bitcast ([8 x i32]* @constinit.9 to i8*), i64 32, i1 false), !tbaa.struct !69
  %24 = getelementptr inbounds [8 x i32], [8 x i32]* %13, i64 0, i64 0
  %25 = getelementptr inbounds %"class.std::allocator", %"class.std::allocator"* %14, i64 0, i32 0
  call void @llvm.lifetime.start.p0i8(i64 1, i8* nonnull %25) #21
  call void @_ZNSt6vectorIiSaIiEEC2ESt16initializer_listIiERKS0_(%"class.std::vector"* nonnull align 8 dereferenceable(24) @dy, i32* nonnull %24, i64 8, %"class.std::allocator"* nonnull align 1 dereferenceable(1) %14) #19
  call void @llvm.lifetime.end.p0i8(i64 1, i8* nonnull %25) #21
  call void @llvm.lifetime.end.p0i8(i64 32, i8* nonnull %23) #21
  %26 = call i32 @__cxa_atexit(void (i8*)* bitcast (void (%"class.std::vector"*)* @_ZNSt6vectorIiSaIiEED2Ev to void (i8*)*), i8* bitcast (%"class.std::vector"* @dy to i8*), i8* nonnull @__dso_handle) #21
  %27 = getelementptr inbounds [4 x i8], [4 x i8]* %11, i64 0, i64 0
  call void @llvm.lifetime.start.p0i8(i64 4, i8* nonnull %27) #21
  store i8 82, i8* %27, align 1, !tbaa !33
  %28 = getelementptr inbounds [4 x i8], [4 x i8]* %11, i64 0, i64 1
  store i8 68, i8* %28, align 1, !tbaa !33
  %29 = getelementptr inbounds [4 x i8], [4 x i8]* %11, i64 0, i64 2
  store i8 76, i8* %29, align 1, !tbaa !33
  %30 = getelementptr inbounds [4 x i8], [4 x i8]* %11, i64 0, i64 3
  store i8 85, i8* %30, align 1, !tbaa !33
  %31 = getelementptr inbounds %"class.std::allocator.2", %"class.std::allocator.2"* %12, i64 0, i32 0
  call void @llvm.lifetime.start.p0i8(i64 1, i8* nonnull %31) #21
  call void @_ZNSt6vectorIcSaIcEEC2ESt16initializer_listIcERKS0_(%"class.std::vector.0"* nonnull align 8 dereferenceable(24) @dc, i8* nonnull %27, i64 4, %"class.std::allocator.2"* nonnull align 1 dereferenceable(1) %12) #19
  call void @llvm.lifetime.end.p0i8(i64 1, i8* nonnull %31) #21
  call void @llvm.lifetime.end.p0i8(i64 4, i8* nonnull %27) #21
  %32 = call i32 @__cxa_atexit(void (i8*)* bitcast (void (%"class.std::vector.0"*)* @_ZNSt6vectorIcSaIcEED2Ev to void (i8*)*), i8* bitcast (%"class.std::vector.0"* @dc to i8*), i8* nonnull @__dso_handle) #21
  %33 = bitcast [8 x %"class.std::__cxx11::basic_string"]* %1 to i8*
  call void @llvm.lifetime.start.p0i8(i64 256, i8* nonnull %33) #21
  %34 = getelementptr inbounds [8 x %"class.std::__cxx11::basic_string"], [8 x %"class.std::__cxx11::basic_string"]* %1, i64 0, i64 0
  %35 = getelementptr inbounds %"class.std::allocator.2", %"class.std::allocator.2"* %2, i64 0, i32 0
  call void @llvm.lifetime.start.p0i8(i64 1, i8* nonnull %35) #21
  invoke void @_ZNSt7__cxx1112basic_stringIcSt11char_traitsIcESaIcEEC2EPKcRKS3_(%"class.std::__cxx11::basic_string"* nonnull align 8 dereferenceable(32) %34, i8* getelementptr inbounds ([2 x i8], [2 x i8]* @.str.12, i64 0, i64 0), %"class.std::allocator.2"* nonnull align 1 dereferenceable(1) %2) #19
          to label %36 unwind label %65

36:                                               ; preds = %0
  %37 = getelementptr inbounds [8 x %"class.std::__cxx11::basic_string"], [8 x %"class.std::__cxx11::basic_string"]* %1, i64 0, i64 1
  %38 = getelementptr inbounds %"class.std::allocator.2", %"class.std::allocator.2"* %3, i64 0, i32 0
  call void @llvm.lifetime.start.p0i8(i64 1, i8* nonnull %38) #21
  invoke void @_ZNSt7__cxx1112basic_stringIcSt11char_traitsIcESaIcEEC2EPKcRKS3_(%"class.std::__cxx11::basic_string"* nonnull align 8 dereferenceable(32) %37, i8* getelementptr inbounds ([2 x i8], [2 x i8]* @.str.13, i64 0, i64 0), %"class.std::allocator.2"* nonnull align 1 dereferenceable(1) %3) #19
          to label %39 unwind label %67

39:                                               ; preds = %36
  %40 = getelementptr inbounds [8 x %"class.std::__cxx11::basic_string"], [8 x %"class.std::__cxx11::basic_string"]* %1, i64 0, i64 2
  %41 = getelementptr inbounds %"class.std::allocator.2", %"class.std::allocator.2"* %4, i64 0, i32 0
  call void @llvm.lifetime.start.p0i8(i64 1, i8* nonnull %41) #21
  invoke void @_ZNSt7__cxx1112basic_stringIcSt11char_traitsIcESaIcEEC2EPKcRKS3_(%"class.std::__cxx11::basic_string"* nonnull align 8 dereferenceable(32) %40, i8* getelementptr inbounds ([2 x i8], [2 x i8]* @.str.14, i64 0, i64 0), %"class.std::allocator.2"* nonnull align 1 dereferenceable(1) %4) #19
          to label %42 unwind label %69

42:                                               ; preds = %39
  %43 = getelementptr inbounds [8 x %"class.std::__cxx11::basic_string"], [8 x %"class.std::__cxx11::basic_string"]* %1, i64 0, i64 3
  %44 = getelementptr inbounds %"class.std::allocator.2", %"class.std::allocator.2"* %5, i64 0, i32 0
  call void @llvm.lifetime.start.p0i8(i64 1, i8* nonnull %44) #21
  invoke void @_ZNSt7__cxx1112basic_stringIcSt11char_traitsIcESaIcEEC2EPKcRKS3_(%"class.std::__cxx11::basic_string"* nonnull align 8 dereferenceable(32) %43, i8* getelementptr inbounds ([2 x i8], [2 x i8]* @.str.15, i64 0, i64 0), %"class.std::allocator.2"* nonnull align 1 dereferenceable(1) %5) #19
          to label %45 unwind label %71

45:                                               ; preds = %42
  %46 = getelementptr inbounds [8 x %"class.std::__cxx11::basic_string"], [8 x %"class.std::__cxx11::basic_string"]* %1, i64 0, i64 4
  %47 = getelementptr inbounds %"class.std::allocator.2", %"class.std::allocator.2"* %6, i64 0, i32 0
  call void @llvm.lifetime.start.p0i8(i64 1, i8* nonnull %47) #21
  invoke void @_ZNSt7__cxx1112basic_stringIcSt11char_traitsIcESaIcEEC2EPKcRKS3_(%"class.std::__cxx11::basic_string"* nonnull align 8 dereferenceable(32) %46, i8* getelementptr inbounds ([3 x i8], [3 x i8]* @.str.16, i64 0, i64 0), %"class.std::allocator.2"* nonnull align 1 dereferenceable(1) %6) #19
          to label %48 unwind label %73

48:                                               ; preds = %45
  %49 = getelementptr inbounds [8 x %"class.std::__cxx11::basic_string"], [8 x %"class.std::__cxx11::basic_string"]* %1, i64 0, i64 5
  %50 = getelementptr inbounds %"class.std::allocator.2", %"class.std::allocator.2"* %7, i64 0, i32 0
  call void @llvm.lifetime.start.p0i8(i64 1, i8* nonnull %50) #21
  invoke void @_ZNSt7__cxx1112basic_stringIcSt11char_traitsIcESaIcEEC2EPKcRKS3_(%"class.std::__cxx11::basic_string"* nonnull align 8 dereferenceable(32) %49, i8* getelementptr inbounds ([3 x i8], [3 x i8]* @.str.17, i64 0, i64 0), %"class.std::allocator.2"* nonnull align 1 dereferenceable(1) %7) #19
          to label %51 unwind label %75

51:                                               ; preds = %48
  %52 = getelementptr inbounds [8 x %"class.std::__cxx11::basic_string"], [8 x %"class.std::__cxx11::basic_string"]* %1, i64 0, i64 6
  %53 = getelementptr inbounds %"class.std::allocator.2", %"class.std::allocator.2"* %8, i64 0, i32 0
  call void @llvm.lifetime.start.p0i8(i64 1, i8* nonnull %53) #21
  invoke void @_ZNSt7__cxx1112basic_stringIcSt11char_traitsIcESaIcEEC2EPKcRKS3_(%"class.std::__cxx11::basic_string"* nonnull align 8 dereferenceable(32) %52, i8* getelementptr inbounds ([3 x i8], [3 x i8]* @.str.18, i64 0, i64 0), %"class.std::allocator.2"* nonnull align 1 dereferenceable(1) %8) #19
          to label %54 unwind label %77

54:                                               ; preds = %51
  %55 = getelementptr inbounds [8 x %"class.std::__cxx11::basic_string"], [8 x %"class.std::__cxx11::basic_string"]* %1, i64 0, i64 7
  %56 = getelementptr inbounds %"class.std::allocator.2", %"class.std::allocator.2"* %9, i64 0, i32 0
  call void @llvm.lifetime.start.p0i8(i64 1, i8* nonnull %56) #21
  invoke void @_ZNSt7__cxx1112basic_stringIcSt11char_traitsIcESaIcEEC2EPKcRKS3_(%"class.std::__cxx11::basic_string"* nonnull align 8 dereferenceable(32) %55, i8* getelementptr inbounds ([3 x i8], [3 x i8]* @.str.19, i64 0, i64 0), %"class.std::allocator.2"* nonnull align 1 dereferenceable(1) %9) #19
          to label %57 unwind label %79

57:                                               ; preds = %54
  %58 = getelementptr inbounds %"class.std::allocator.8", %"class.std::allocator.8"* %10, i64 0, i32 0
  call void @llvm.lifetime.start.p0i8(i64 1, i8* nonnull %58) #21
  invoke void @_ZNSt6vectorINSt7__cxx1112basic_stringIcSt11char_traitsIcESaIcEEESaIS5_EEC2ESt16initializer_listIS5_ERKS6_(%"class.std::vector.6"* nonnull align 8 dereferenceable(24) @_Z2dsB5cxx11, %"class.std::__cxx11::basic_string"* nonnull %34, i64 8, %"class.std::allocator.8"* nonnull align 1 dereferenceable(1) %10) #19
          to label %59 unwind label %81

59:                                               ; preds = %57
  call void @llvm.lifetime.end.p0i8(i64 1, i8* nonnull %58) #21
  %60 = getelementptr inbounds [8 x %"class.std::__cxx11::basic_string"], [8 x %"class.std::__cxx11::basic_string"]* %1, i64 0, i64 8
  br label %61

61:                                               ; preds = %61, %59
  %62 = phi %"class.std::__cxx11::basic_string"* [ %60, %59 ], [ %63, %61 ]
  %63 = getelementptr inbounds %"class.std::__cxx11::basic_string", %"class.std::__cxx11::basic_string"* %62, i64 -1
  call void @_ZNSt7__cxx1112basic_stringIcSt11char_traitsIcESaIcEED2Ev(%"class.std::__cxx11::basic_string"* nonnull align 8 dereferenceable(32) %63) #22
  %64 = icmp eq %"class.std::__cxx11::basic_string"* %63, %34
  br i1 %64, label %129, label %61

65:                                               ; preds = %0
  %66 = landingpad { i8*, i32 }
          cleanup
  br label %115

67:                                               ; preds = %36
  %68 = landingpad { i8*, i32 }
          cleanup
  br label %111

69:                                               ; preds = %39
  %70 = landingpad { i8*, i32 }
          cleanup
  br label %107

71:                                               ; preds = %42
  %72 = landingpad { i8*, i32 }
          cleanup
  br label %103

73:                                               ; preds = %45
  %74 = landingpad { i8*, i32 }
          cleanup
  br label %99

75:                                               ; preds = %48
  %76 = landingpad { i8*, i32 }
          cleanup
  br label %95

77:                                               ; preds = %51
  %78 = landingpad { i8*, i32 }
          cleanup
  br label %91

79:                                               ; preds = %54
  %80 = landingpad { i8*, i32 }
          cleanup
  br label %88

81:                                               ; preds = %57
  %82 = landingpad { i8*, i32 }
          cleanup
  call void @llvm.lifetime.end.p0i8(i64 1, i8* nonnull %58) #21
  %83 = getelementptr inbounds [8 x %"class.std::__cxx11::basic_string"], [8 x %"class.std::__cxx11::basic_string"]* %1, i64 0, i64 8
  br label %84

84:                                               ; preds = %84, %81
  %85 = phi %"class.std::__cxx11::basic_string"* [ %83, %81 ], [ %86, %84 ]
  %86 = getelementptr inbounds %"class.std::__cxx11::basic_string", %"class.std::__cxx11::basic_string"* %85, i64 -1
  call void @_ZNSt7__cxx1112basic_stringIcSt11char_traitsIcESaIcEED2Ev(%"class.std::__cxx11::basic_string"* nonnull align 8 dereferenceable(32) %86) #22
  %87 = icmp eq %"class.std::__cxx11::basic_string"* %86, %34
  br i1 %87, label %88, label %84

88:                                               ; preds = %84, %79
  %89 = phi { i8*, i32 } [ %80, %79 ], [ %82, %84 ]
  %90 = phi i1 [ true, %79 ], [ false, %84 ]
  call void @llvm.lifetime.end.p0i8(i64 1, i8* nonnull %56) #21
  br label %91

91:                                               ; preds = %88, %77
  %92 = phi i64 [ 7, %88 ], [ 6, %77 ]
  %93 = phi { i8*, i32 } [ %89, %88 ], [ %78, %77 ]
  %94 = phi i1 [ %90, %88 ], [ true, %77 ]
  call void @llvm.lifetime.end.p0i8(i64 1, i8* nonnull %53) #21
  br label %95

95:                                               ; preds = %91, %75
  %96 = phi i64 [ %92, %91 ], [ 5, %75 ]
  %97 = phi { i8*, i32 } [ %93, %91 ], [ %76, %75 ]
  %98 = phi i1 [ %94, %91 ], [ true, %75 ]
  call void @llvm.lifetime.end.p0i8(i64 1, i8* nonnull %50) #21
  br label %99

99:                                               ; preds = %95, %73
  %100 = phi i64 [ %96, %95 ], [ 4, %73 ]
  %101 = phi { i8*, i32 } [ %97, %95 ], [ %74, %73 ]
  %102 = phi i1 [ %98, %95 ], [ true, %73 ]
  call void @llvm.lifetime.end.p0i8(i64 1, i8* nonnull %47) #21
  br label %103

103:                                              ; preds = %99, %71
  %104 = phi i64 [ %100, %99 ], [ 3, %71 ]
  %105 = phi { i8*, i32 } [ %101, %99 ], [ %72, %71 ]
  %106 = phi i1 [ %102, %99 ], [ true, %71 ]
  call void @llvm.lifetime.end.p0i8(i64 1, i8* nonnull %44) #21
  br label %107

107:                                              ; preds = %103, %69
  %108 = phi i64 [ %104, %103 ], [ 2, %69 ]
  %109 = phi { i8*, i32 } [ %105, %103 ], [ %70, %69 ]
  %110 = phi i1 [ %106, %103 ], [ true, %69 ]
  call void @llvm.lifetime.end.p0i8(i64 1, i8* nonnull %41) #21
  br label %111

111:                                              ; preds = %107, %67
  %112 = phi i64 [ %108, %107 ], [ 1, %67 ]
  %113 = phi { i8*, i32 } [ %109, %107 ], [ %68, %67 ]
  %114 = phi i1 [ %110, %107 ], [ true, %67 ]
  call void @llvm.lifetime.end.p0i8(i64 1, i8* nonnull %38) #21
  br label %115

115:                                              ; preds = %111, %65
  %116 = phi i64 [ %112, %111 ], [ 0, %65 ]
  %117 = phi { i8*, i32 } [ %113, %111 ], [ %66, %65 ]
  %118 = phi i1 [ %114, %111 ], [ true, %65 ]
  call void @llvm.lifetime.end.p0i8(i64 1, i8* nonnull %35) #21
  %119 = xor i1 %118, true
  %120 = icmp eq i64 %116, 0
  %121 = select i1 %119, i1 true, i1 %120
  br i1 %121, label %128, label %122

122:                                              ; preds = %115
  %123 = getelementptr inbounds [8 x %"class.std::__cxx11::basic_string"], [8 x %"class.std::__cxx11::basic_string"]* %1, i64 0, i64 %116
  br label %124

124:                                              ; preds = %124, %122
  %125 = phi %"class.std::__cxx11::basic_string"* [ %126, %124 ], [ %123, %122 ]
  %126 = getelementptr inbounds %"class.std::__cxx11::basic_string", %"class.std::__cxx11::basic_string"* %125, i64 -1
  call void @_ZNSt7__cxx1112basic_stringIcSt11char_traitsIcESaIcEED2Ev(%"class.std::__cxx11::basic_string"* nonnull align 8 dereferenceable(32) %126) #22
  %127 = icmp eq %"class.std::__cxx11::basic_string"* %126, %34
  br i1 %127, label %128, label %124

128:                                              ; preds = %124, %115
  call void @llvm.lifetime.end.p0i8(i64 256, i8* nonnull %33) #21
  resume { i8*, i32 } %117

129:                                              ; preds = %61
  call void @llvm.lifetime.end.p0i8(i64 1, i8* nonnull %56) #21
  call void @llvm.lifetime.end.p0i8(i64 1, i8* nonnull %53) #21
  call void @llvm.lifetime.end.p0i8(i64 1, i8* nonnull %50) #21
  call void @llvm.lifetime.end.p0i8(i64 1, i8* nonnull %47) #21
  call void @llvm.lifetime.end.p0i8(i64 1, i8* nonnull %44) #21
  call void @llvm.lifetime.end.p0i8(i64 1, i8* nonnull %41) #21
  call void @llvm.lifetime.end.p0i8(i64 1, i8* nonnull %38) #21
  call void @llvm.lifetime.end.p0i8(i64 1, i8* nonnull %35) #21
  call void @llvm.lifetime.end.p0i8(i64 256, i8* nonnull %33) #21
  %130 = call i32 @__cxa_atexit(void (i8*)* bitcast (void (%"class.std::vector.6"*)* @_ZNSt6vectorINSt7__cxx1112basic_stringIcSt11char_traitsIcESaIcEEESaIS5_EED2Ev to void (i8*)*), i8* bitcast (%"class.std::vector.6"* @_Z2dsB5cxx11 to i8*), i8* nonnull @__dso_handle) #21
  ret void
}

; Function Attrs: argmemonly nofree nounwind willreturn writeonly
declare void @llvm.memset.p0i8.i64(i8* nocapture writeonly, i8, i64, i1 immarg) #18

attributes #0 = { minsize optsize "frame-pointer"="none" "no-trapping-math"="true" "stack-protector-buffer-size"="8" "target-cpu"="x86-64" "target-features"="+cx8,+fxsr,+mmx,+sse,+sse2,+x87" "tune-cpu"="generic" }
attributes #1 = { minsize nounwind optsize "frame-pointer"="none" "no-trapping-math"="true" "stack-protector-buffer-size"="8" "target-cpu"="x86-64" "target-features"="+cx8,+fxsr,+mmx,+sse,+sse2,+x87" "tune-cpu"="generic" }
attributes #2 = { nofree nounwind }
attributes #3 = { argmemonly mustprogress nofree nosync nounwind willreturn }
attributes #4 = { minsize mustprogress noreturn optsize sspstrong uwtable "frame-pointer"="none" "min-legal-vector-width"="0" "no-trapping-math"="true" "stack-protector-buffer-size"="8" "target-cpu"="x86-64" "target-features"="+cx8,+fxsr,+mmx,+sse,+sse2,+x87" "tune-cpu"="generic" }
attributes #5 = { inlinehint minsize mustprogress optsize sspstrong uwtable "frame-pointer"="none" "min-legal-vector-width"="0" "no-trapping-math"="true" "stack-protector-buffer-size"="8" "target-cpu"="x86-64" "target-features"="+cx8,+fxsr,+mmx,+sse,+sse2,+x87" "tune-cpu"="generic" }
attributes #6 = { minsize noreturn nounwind optsize "frame-pointer"="none" "no-trapping-math"="true" "stack-protector-buffer-size"="8" "target-cpu"="x86-64" "target-features"="+cx8,+fxsr,+mmx,+sse,+sse2,+x87" "tune-cpu"="generic" }
attributes #7 = { argmemonly mustprogress nofree nounwind willreturn }
attributes #8 = { minsize optsize sspstrong uwtable "frame-pointer"="none" "min-legal-vector-width"="0" "no-trapping-math"="true" "stack-protector-buffer-size"="8" "target-cpu"="x86-64" "target-features"="+cx8,+fxsr,+mmx,+sse,+sse2,+x87" "tune-cpu"="generic" }
attributes #9 = { minsize nounwind optsize sspstrong uwtable "frame-pointer"="none" "min-legal-vector-width"="0" "no-trapping-math"="true" "stack-protector-buffer-size"="8" "target-cpu"="x86-64" "target-features"="+cx8,+fxsr,+mmx,+sse,+sse2,+x87" "tune-cpu"="generic" }
attributes #10 = { minsize mustprogress nofree norecurse nosync nounwind optsize readnone sspstrong uwtable willreturn "frame-pointer"="none" "min-legal-vector-width"="0" "no-trapping-math"="true" "stack-protector-buffer-size"="8" "target-cpu"="x86-64" "target-features"="+cx8,+fxsr,+mmx,+sse,+sse2,+x87" "tune-cpu"="generic" }
attributes #11 = { minsize norecurse optsize sspstrong uwtable "frame-pointer"="none" "min-legal-vector-width"="0" "no-trapping-math"="true" "stack-protector-buffer-size"="8" "target-cpu"="x86-64" "target-features"="+cx8,+fxsr,+mmx,+sse,+sse2,+x87" "tune-cpu"="generic" }
attributes #12 = { noinline noreturn nounwind }
attributes #13 = { minsize mustprogress optsize sspstrong uwtable "frame-pointer"="none" "min-legal-vector-width"="0" "no-trapping-math"="true" "stack-protector-buffer-size"="8" "target-cpu"="x86-64" "target-features"="+cx8,+fxsr,+mmx,+sse,+sse2,+x87" "tune-cpu"="generic" }
attributes #14 = { minsize nobuiltin nounwind optsize "frame-pointer"="none" "no-trapping-math"="true" "stack-protector-buffer-size"="8" "target-cpu"="x86-64" "target-features"="+cx8,+fxsr,+mmx,+sse,+sse2,+x87" "tune-cpu"="generic" }
attributes #15 = { minsize noreturn optsize "frame-pointer"="none" "no-trapping-math"="true" "stack-protector-buffer-size"="8" "target-cpu"="x86-64" "target-features"="+cx8,+fxsr,+mmx,+sse,+sse2,+x87" "tune-cpu"="generic" }
attributes #16 = { minsize nobuiltin optsize allocsize(0) "frame-pointer"="none" "no-trapping-math"="true" "stack-protector-buffer-size"="8" "target-cpu"="x86-64" "target-features"="+cx8,+fxsr,+mmx,+sse,+sse2,+x87" "tune-cpu"="generic" }
attributes #17 = { minsize mustprogress nofree nounwind optsize readonly willreturn "frame-pointer"="none" "no-trapping-math"="true" "stack-protector-buffer-size"="8" "target-cpu"="x86-64" "target-features"="+cx8,+fxsr,+mmx,+sse,+sse2,+x87" "tune-cpu"="generic" }
attributes #18 = { argmemonly nofree nounwind willreturn writeonly }
attributes #19 = { minsize optsize }
attributes #20 = { minsize noreturn nounwind optsize }
attributes #21 = { nounwind }
attributes #22 = { minsize nounwind optsize }
attributes #23 = { noreturn nounwind }
attributes #24 = { minsize nounwind optsize readonly willreturn }
attributes #25 = { minsize noreturn optsize }
attributes #26 = { minsize optsize allocsize(0) }
attributes #27 = { noreturn }

!llvm.module.flags = !{!0, !1, !2, !3}
!llvm.ident = !{!4}

!0 = !{i32 1, !"wchar_size", i32 4}
!1 = !{i32 7, !"PIC Level", i32 2}
!2 = !{i32 7, !"PIE Level", i32 2}
!3 = !{i32 7, !"uwtable", i32 1}
!4 = !{!"clang version 13.0.0"}
!5 = !{!6, !7, i64 0}
!6 = !{!"_ZTSNSt12_Vector_baseINSt7__cxx1112basic_stringIcSt11char_traitsIcESaIcEEESaIS5_EE17_Vector_impl_dataE", !7, i64 0, !7, i64 8, !7, i64 16}
!7 = !{!"any pointer", !8, i64 0}
!8 = !{!"omnipotent char", !9, i64 0}
!9 = !{!"Simple C++ TBAA"}
!10 = !{!6, !7, i64 8}
!11 = distinct !{!11, !12}
!12 = !{!"llvm.loop.mustprogress"}
!13 = distinct !{!13, !12}
!14 = !{!15, !15, i64 0}
!15 = !{!"vtable pointer", !9, i64 0}
!16 = !{!17, !7, i64 216}
!17 = !{!"_ZTSSt9basic_iosIcSt11char_traitsIcEE", !7, i64 216, !8, i64 224, !18, i64 225, !7, i64 232, !7, i64 240, !7, i64 248, !7, i64 256}
!18 = !{!"bool", !8, i64 0}
!19 = !{!20, !22, i64 24}
!20 = !{!"_ZTSSt8ios_base", !21, i64 8, !21, i64 16, !22, i64 24, !23, i64 28, !23, i64 32, !7, i64 40, !24, i64 48, !8, i64 64, !25, i64 192, !7, i64 200, !26, i64 208}
!21 = !{!"long", !8, i64 0}
!22 = !{!"_ZTSSt13_Ios_Fmtflags", !8, i64 0}
!23 = !{!"_ZTSSt12_Ios_Iostate", !8, i64 0}
!24 = !{!"_ZTSNSt8ios_base6_WordsE", !7, i64 0, !21, i64 8}
!25 = !{!"int", !8, i64 0}
!26 = !{!"_ZTSSt6locale", !7, i64 0}
!27 = !{!22, !22, i64 0}
!28 = !{!20, !21, i64 8}
!29 = !{!30, !7, i64 0}
!30 = !{!"_ZTSNSt7__cxx1112basic_stringIcSt11char_traitsIcESaIcEE12_Alloc_hiderE", !7, i64 0}
!31 = !{!32, !21, i64 8}
!32 = !{!"_ZTSNSt7__cxx1112basic_stringIcSt11char_traitsIcESaIcEEE", !30, i64 0, !21, i64 8, !8, i64 16}
!33 = !{!8, !8, i64 0}
!34 = !{!35, !37, i64 0}
!35 = !{!"_ZTSSt15_Rb_tree_header", !36, i64 0, !21, i64 32}
!36 = !{!"_ZTSSt18_Rb_tree_node_base", !37, i64 0, !7, i64 8, !7, i64 16, !7, i64 24}
!37 = !{!"_ZTSSt14_Rb_tree_color", !8, i64 0}
!38 = !{!35, !7, i64 8}
!39 = !{!35, !7, i64 16}
!40 = !{!35, !7, i64 24}
!41 = !{!35, !21, i64 32}
!42 = !{!32, !7, i64 0}
!43 = !{!25, !25, i64 0}
!44 = !{!7, !7, i64 0}
!45 = !{!36, !7, i64 24}
!46 = !{!36, !7, i64 16}
!47 = distinct !{!47, !12}
!48 = !{!49, !7, i64 0}
!49 = !{!"_ZTSNSt12_Vector_baseIiSaIiEE17_Vector_impl_dataE", !7, i64 0, !7, i64 8, !7, i64 16}
!50 = !{!49, !7, i64 16}
!51 = !{!49, !7, i64 8}
!52 = !{!"branch_weights", i32 1, i32 2000}
!53 = !{!54, !7, i64 0}
!54 = !{!"_ZTSNSt12_Vector_baseIcSaIcEE17_Vector_impl_dataE", !7, i64 0, !7, i64 8, !7, i64 16}
!55 = !{!54, !7, i64 16}
!56 = !{!54, !7, i64 8}
!57 = !{!6, !7, i64 16}
!58 = distinct !{!58, !12}
!59 = distinct !{!59, !12}
!60 = distinct !{!60, !12}
!61 = !{!62, !7, i64 0}
!62 = !{!"_ZTSSt10_Head_baseILm0ERKcLb0EE", !7, i64 0}
!63 = !{!64, !8, i64 0}
!64 = !{!"_ZTSSt4pairIKciE", !8, i64 0, !25, i64 4}
!65 = !{!64, !25, i64 4}
!66 = distinct !{!66, !12}
!67 = !{!68, !68, i64 0}
!68 = !{!"double", !8, i64 0}
!69 = !{i64 0, i64 32, !33}
