; ModuleID = 'Project_CodeNet_C++1400/p03354/s596957618.cpp'
source_filename = "Project_CodeNet_C++1400/p03354/s596957618.cpp"
target datalayout = "e-m:e-p270:32:32-p271:32:32-p272:64:64-i64:64-f80:128-n8:16:32:64-S128"
target triple = "x86_64-pc-linux-gnu"

%"class.std::ios_base::Init" = type { i8 }
%"class.std::basic_ostream" = type { i32 (...)**, %"class.std::basic_ios" }
%"class.std::basic_ios" = type { %"class.std::ios_base", %"class.std::basic_ostream"*, i8, i8, %"class.std::basic_streambuf"*, %"class.std::ctype"*, %"class.std::num_put"*, %"class.std::num_get"* }
%"class.std::ios_base" = type { i32 (...)**, i64, i64, i32, i32, i32, %"struct.std::ios_base::_Callback_list"*, %"struct.std::ios_base::_Words", [8 x %"struct.std::ios_base::_Words"], i32, %"struct.std::ios_base::_Words"*, %"class.std::locale" }
%"struct.std::ios_base::_Callback_list" = type { %"struct.std::ios_base::_Callback_list"*, void (i32, %"class.std::ios_base"*, i32)*, i32, i32 }
%"struct.std::ios_base::_Words" = type { i8*, i64 }
%"class.std::locale" = type { %"class.std::locale::_Impl"* }
%"class.std::locale::_Impl" = type { i32, %"class.std::locale::facet"**, i64, %"class.std::locale::facet"**, i8** }
%"class.std::locale::facet" = type <{ i32 (...)**, i32, [4 x i8] }>
%"class.std::basic_streambuf" = type { i32 (...)**, i8*, i8*, i8*, i8*, i8*, i8*, %"class.std::locale" }
%"class.std::ctype" = type <{ %"class.std::locale::facet.base", [4 x i8], %struct.__locale_struct*, i8, [7 x i8], i32*, i32*, i16*, i8, [256 x i8], [256 x i8], i8, [6 x i8] }>
%"class.std::locale::facet.base" = type <{ i32 (...)**, i32 }>
%struct.__locale_struct = type { [13 x %struct.__locale_data*], i16*, i32*, i32*, [13 x i8*] }
%struct.__locale_data = type opaque
%"class.std::num_put" = type { %"class.std::locale::facet.base", [4 x i8] }
%"class.std::num_get" = type { %"class.std::locale::facet.base", [4 x i8] }
%"class.std::basic_istream" = type { i32 (...)**, i64, %"class.std::basic_ios" }
%"class.__gnu_debug::_Error_formatter" = type { i8*, i32, [9 x %"struct.__gnu_debug::_Error_formatter::_Parameter"], i32, i8*, i8* }
%"struct.__gnu_debug::_Error_formatter::_Parameter" = type { i32, %union.anon.29 }
%union.anon.29 = type { %struct.anon }
%struct.anon = type { %"struct.__gnu_debug::_Error_formatter::_Parameter::_Instance", i32, i32, i8*, %"class.std::type_info"* }
%"struct.__gnu_debug::_Error_formatter::_Parameter::_Instance" = type { %"struct.__gnu_debug::_Error_formatter::_Parameter::_Type", i8* }
%"struct.__gnu_debug::_Error_formatter::_Parameter::_Type" = type { i8*, %"class.std::type_info"* }
%"class.std::type_info" = type { i32 (...)**, i8* }
%"class.std::__cxx11::basic_string" = type { %"struct.std::__cxx11::basic_string<char>::_Alloc_hider", i64, %union.anon }
%"struct.std::__cxx11::basic_string<char>::_Alloc_hider" = type { i8* }
%union.anon = type { i64, [8 x i8] }
%"class.std::allocator" = type { i8 }
%"class.std::__debug::vector" = type { %"class.__gnu_debug::_Safe_container.base", %"class.std::__cxx1998::vector", %"class.__gnu_debug::_Safe_vector" }
%"class.__gnu_debug::_Safe_container.base" = type { %"class.__gnu_debug::_Safe_sequence.base" }
%"class.__gnu_debug::_Safe_sequence.base" = type { %"class.__gnu_debug::_Safe_sequence_base.base" }
%"class.__gnu_debug::_Safe_sequence_base.base" = type <{ %"class.__gnu_debug::_Safe_iterator_base"*, %"class.__gnu_debug::_Safe_iterator_base"*, i32 }>
%"class.__gnu_debug::_Safe_iterator_base" = type { %"class.__gnu_debug::_Safe_sequence_base"*, i32, %"class.__gnu_debug::_Safe_iterator_base"*, %"class.__gnu_debug::_Safe_iterator_base"* }
%"class.__gnu_debug::_Safe_sequence_base" = type <{ %"class.__gnu_debug::_Safe_iterator_base"*, %"class.__gnu_debug::_Safe_iterator_base"*, i32, [4 x i8] }>
%"class.std::__cxx1998::vector" = type { %"struct.std::__cxx1998::_Vector_base" }
%"struct.std::__cxx1998::_Vector_base" = type { %"struct.std::__cxx1998::_Vector_base<int, std::allocator<int>>::_Vector_impl" }
%"struct.std::__cxx1998::_Vector_base<int, std::allocator<int>>::_Vector_impl" = type { %"struct.std::__cxx1998::_Vector_base<int, std::allocator<int>>::_Vector_impl_data" }
%"struct.std::__cxx1998::_Vector_base<int, std::allocator<int>>::_Vector_impl_data" = type { i32*, i32*, i32* }
%"class.__gnu_debug::_Safe_vector" = type { i64 }
%"class.std::allocator.0" = type { i8 }
%class.Unionfind = type <{ i32, [4 x i8], %"class.std::__debug::vector", %"class.std::__debug::vector", %"class.std::__debug::vector", i32, [4 x i8] }>
%"class.std::__debug::vector.3" = type { %"class.__gnu_debug::_Safe_container.base.7", %"class.std::__cxx1998::vector.8", %"class.__gnu_debug::_Safe_vector.13" }
%"class.__gnu_debug::_Safe_container.base.7" = type { %"class.__gnu_debug::_Safe_sequence.base.6" }
%"class.__gnu_debug::_Safe_sequence.base.6" = type { %"class.__gnu_debug::_Safe_sequence_base.base" }
%"class.std::__cxx1998::vector.8" = type { %"struct.std::__cxx1998::_Vector_base.9" }
%"struct.std::__cxx1998::_Vector_base.9" = type { %"struct.std::__cxx1998::_Vector_base<std::__debug::vector<int>, std::allocator<std::__debug::vector<int>>>::_Vector_impl" }
%"struct.std::__cxx1998::_Vector_base<std::__debug::vector<int>, std::allocator<std::__debug::vector<int>>>::_Vector_impl" = type { %"struct.std::__cxx1998::_Vector_base<std::__debug::vector<int>, std::allocator<std::__debug::vector<int>>>::_Vector_impl_data" }
%"struct.std::__cxx1998::_Vector_base<std::__debug::vector<int>, std::allocator<std::__debug::vector<int>>>::_Vector_impl_data" = type { %"class.std::__debug::vector"*, %"class.std::__debug::vector"*, %"class.std::__debug::vector"* }
%"class.__gnu_debug::_Safe_vector.13" = type { i64 }
%"class.__gnu_debug::_Safe_iterator" = type { %"class.__gnu_debug::_Safe_iterator.14" }
%"class.__gnu_debug::_Safe_iterator.14" = type { %"class.__gnu_debug::_Safe_iterator.15" }
%"class.__gnu_debug::_Safe_iterator.15" = type { %"class.__gnu_cxx::__normal_iterator", %"class.__gnu_debug::_Safe_iterator_base" }
%"class.__gnu_cxx::__normal_iterator" = type { %"class.std::__debug::vector"* }
%"class.std::__debug::set" = type { %"class.__gnu_debug::_Safe_container.base.19", %"class.std::__cxx1998::set" }
%"class.__gnu_debug::_Safe_container.base.19" = type { %"class.__gnu_debug::_Safe_node_sequence.base" }
%"class.__gnu_debug::_Safe_node_sequence.base" = type { %"class.__gnu_debug::_Safe_sequence.base.18" }
%"class.__gnu_debug::_Safe_sequence.base.18" = type { %"class.__gnu_debug::_Safe_sequence_base.base" }
%"class.std::__cxx1998::set" = type { %"class.std::_Rb_tree" }
%"class.std::_Rb_tree" = type { %"struct.std::_Rb_tree<int, int, std::_Identity<int>, std::less<int>>::_Rb_tree_impl" }
%"struct.std::_Rb_tree<int, int, std::_Identity<int>, std::less<int>>::_Rb_tree_impl" = type { %"struct.std::_Rb_tree_key_compare", %"struct.std::_Rb_tree_header" }
%"struct.std::_Rb_tree_key_compare" = type { %"struct.std::less" }
%"struct.std::less" = type { i8 }
%"struct.std::_Rb_tree_header" = type { %"struct.std::_Rb_tree_node_base", i64 }
%"struct.std::_Rb_tree_node_base" = type { i32, %"struct.std::_Rb_tree_node_base"*, %"struct.std::_Rb_tree_node_base"*, %"struct.std::_Rb_tree_node_base"* }
%"class.__gnu_debug::_Safe_iterator.23" = type { %"class.__gnu_debug::_Safe_iterator.24" }
%"class.__gnu_debug::_Safe_iterator.24" = type { %"class.__gnu_debug::_Safe_iterator.25" }
%"class.__gnu_debug::_Safe_iterator.25" = type { %"class.__gnu_cxx::__normal_iterator.26", %"class.__gnu_debug::_Safe_iterator_base" }
%"class.__gnu_cxx::__normal_iterator.26" = type { i32* }
%"struct.std::pair" = type <{ %"class.__gnu_debug::_Safe_iterator.27", i8, [7 x i8] }>
%"class.__gnu_debug::_Safe_iterator.27" = type { %"class.__gnu_debug::_Safe_iterator.28" }
%"class.__gnu_debug::_Safe_iterator.28" = type { %"struct.std::_Rb_tree_const_iterator", %"class.__gnu_debug::_Safe_iterator_base" }
%"struct.std::_Rb_tree_const_iterator" = type { %"struct.std::_Rb_tree_node_base"* }
%"class.std::allocator.10" = type { i8 }
%"class.__gnu_cxx::new_allocator.1" = type { i8 }
%"class.__gnu_cxx::new_allocator.11" = type { i8 }
%"class.__gnu_cxx::__normal_iterator.32" = type { i32* }
%"struct.std::_Rb_tree_node" = type <{ %"struct.std::_Rb_tree_node_base", %"struct.__gnu_cxx::__aligned_membuf", [4 x i8] }>
%"struct.__gnu_cxx::__aligned_membuf" = type { [4 x i8] }
%"class.__gnu_cxx::new_allocator" = type { i8 }
%"class.__gnu_cxx::__scoped_lock" = type { %"class.__gnu_cxx::__mutex"* }
%"class.__gnu_cxx::__mutex" = type { %union.pthread_mutex_t }
%union.pthread_mutex_t = type { %struct.__pthread_mutex_s }
%struct.__pthread_mutex_s = type { i32, i32, i32, i32, i32, i16, i16, %struct.__pthread_internal_list }
%struct.__pthread_internal_list = type { %struct.__pthread_internal_list*, %struct.__pthread_internal_list* }
%"class.__gnu_cxx::__concurrence_lock_error" = type { %"class.std::exception" }
%"class.std::exception" = type { i32 (...)** }
%"class.__gnu_cxx::__concurrence_unlock_error" = type { %"class.std::exception" }
%"struct.std::_Rb_tree<int, int, std::_Identity<int>, std::less<int>>::_Alloc_node" = type { %"class.std::_Rb_tree"* }
%"class.std::allocator.20" = type { i8 }
%"class.__gnu_cxx::new_allocator.21" = type { i8 }

$_ZStplIcSt11char_traitsIcESaIcEENSt7__cxx1112basic_stringIT_T0_T1_EEOS8_S5_ = comdat any

$_ZStplIcSt11char_traitsIcESaIcEENSt7__cxx1112basic_stringIT_T0_T1_EES5_RKS8_ = comdat any

$_ZNSt7__cxx1112basic_stringIcSt11char_traitsIcESaIcEED2Ev = comdat any

$_ZNSt7__cxx1112basic_stringIcSt11char_traitsIcESaIcEEC2EPKcRKS3_ = comdat any

$_ZNSt7__debug6vectorIiSaIiEEC2EmRKS1_ = comdat any

$_ZN9UnionfindC2Ei = comdat any

$_ZNSt7__debug6vectorIiSaIiEEixEm = comdat any

$_ZN9Unionfind5uniteEii = comdat any

$_ZN9Unionfind5groupEv = comdat any

$_ZNSt7__debug6vectorINS0_IiSaIiEEESaIS2_EE5beginEv = comdat any

$_ZNSt7__debug6vectorINS0_IiSaIiEEESaIS2_EE3endEv = comdat any

$_ZN11__gnu_debugneERKNS_14_Safe_iteratorIN9__gnu_cxx17__normal_iteratorIPNSt7__debug6vectorIiSaIiEEENSt9__cxx19986vectorIS6_SaIS6_EEEEENS4_IS6_SA_EESt26random_access_iterator_tagEESH_ = comdat any

$_ZNK11__gnu_debug14_Safe_iteratorIN9__gnu_cxx17__normal_iteratorIPNSt7__debug6vectorIiSaIiEEENSt9__cxx19986vectorIS6_SaIS6_EEEEENS4_IS6_SA_EESt20forward_iterator_tagEdeEv = comdat any

$_ZNSt7__debug6vectorIiSaIiEEC2ERKS2_ = comdat any

$_ZNSt7__debug6vectorIiSaIiEE5beginEv = comdat any

$_ZNSt7__debug6vectorIiSaIiEE3endEv = comdat any

$_ZN11__gnu_debugneERKNS_14_Safe_iteratorIN9__gnu_cxx17__normal_iteratorIPiNSt9__cxx19986vectorIiSaIiEEEEENSt7__debug6vectorIiS6_EESt26random_access_iterator_tagEESF_ = comdat any

$_ZNK11__gnu_debug14_Safe_iteratorIN9__gnu_cxx17__normal_iteratorIPiNSt9__cxx19986vectorIiSaIiEEEEENSt7__debug6vectorIiS6_EESt20forward_iterator_tagEdeEv = comdat any

$_ZNSt7__debug3setIiSt4lessIiESaIiEE6insertERKi = comdat any

$_ZN11__gnu_debugneERKNS_14_Safe_iteratorISt23_Rb_tree_const_iteratorIiENSt7__debug3setIiSt4lessIiESaIiEEESt26bidirectional_iterator_tagEESC_ = comdat any

$_ZNSt7__debug3setIiSt4lessIiESaIiEE4findERKi = comdat any

$_ZNSt7__debug3setIiSt4lessIiESaIiEE3endEv = comdat any

$_ZNSt7__debug3setIiSt4lessIiESaIiEED2Ev = comdat any

$_ZNSt7__debug6vectorIiSaIiEED2Ev = comdat any

$_ZNSt7__debug6vectorINS0_IiSaIiEEESaIS2_EED2Ev = comdat any

$_ZN9UnionfindD2Ev = comdat any

$_ZNSt7__debug6vectorIiSaIiEEC2EmRKiRKS1_ = comdat any

$_ZNSt9__cxx19986vectorIiSaIiEEC2EmRKiRKS1_ = comdat any

$_ZN11__gnu_debug12_Safe_vectorINSt7__debug6vectorIiSaIiEEENSt9__cxx19986vectorIiS3_EEEC2Ev = comdat any

$_ZNSt9__cxx19986vectorIiSaIiEE17_S_check_init_lenEmRKS1_ = comdat any

$_ZNSt9__cxx19986vectorIiSaIiEE18_M_fill_initializeEmRKi = comdat any

$_ZNSt9__cxx199812_Vector_baseIiSaIiEED2Ev = comdat any

$__clang_call_terminate = comdat any

$_ZNSt9__cxx199812_Vector_baseIiSaIiEE17_M_create_storageEm = comdat any

$_ZNSt9__cxx199812_Vector_baseIiSaIiEE11_M_allocateEm = comdat any

$_ZNSt16allocator_traitsISaIiEE8allocateERS0_m = comdat any

$_ZN9__gnu_cxx13new_allocatorIiE8allocateEmPKv = comdat any

$_ZSt10__fill_n_aIPimiET_S1_T0_RKT1_St26random_access_iterator_tag = comdat any

$_ZN11__gnu_debug16_Error_formatter5_S_atEPKcjS2_ = comdat any

$_ZN11__gnu_debug16_Error_formatter10_M_integerElPKc = comdat any

$_ZN11__gnu_debug16_Error_formatterC2EPKcjS2_ = comdat any

$_ZN11__gnu_debug12_Safe_vectorINSt7__debug6vectorIiSaIiEEENSt9__cxx19986vectorIiS3_EEE29_M_update_guaranteed_capacityEv = comdat any

$_ZN9Unionfind4rootEi = comdat any

$_ZNSt7__debug6vectorINS0_IiSaIiEEESaIS2_EEC2Ev = comdat any

$_ZNSt7__debug6vectorINS0_IiSaIiEEESaIS2_EEC2EmRKS3_ = comdat any

$_ZNSt7__debug6vectorINS0_IiSaIiEEESaIS2_EEixEm = comdat any

$_ZNSt7__debug6vectorIiSaIiEE9push_backERKi = comdat any

$_ZNSt7__debug6vectorINS0_IiSaIiEEESaIS2_EE9push_backERKS2_ = comdat any

$_ZN11__gnu_debug12_Safe_vectorINSt7__debug6vectorINS2_IiSaIiEEESaIS4_EEENSt9__cxx19986vectorIS4_S5_EEEC2Ev = comdat any

$_ZN11__gnu_debug12_Safe_vectorINSt7__debug6vectorINS2_IiSaIiEEESaIS4_EEENSt9__cxx19986vectorIS4_S5_EEE29_M_update_guaranteed_capacityEv = comdat any

$_ZNSt9__cxx19986vectorINSt7__debug6vectorIiSaIiEEESaIS4_EEC2EmRKS5_ = comdat any

$_ZNSt9__cxx19986vectorINSt7__debug6vectorIiSaIiEEESaIS4_EE17_S_check_init_lenEmRKS5_ = comdat any

$_ZNSt9__cxx19986vectorINSt7__debug6vectorIiSaIiEEESaIS4_EE21_M_default_initializeEm = comdat any

$_ZNSt9__cxx199812_Vector_baseINSt7__debug6vectorIiSaIiEEESaIS4_EED2Ev = comdat any

$_ZNSt9__cxx199812_Vector_baseINSt7__debug6vectorIiSaIiEEESaIS4_EE17_M_create_storageEm = comdat any

$_ZNSt9__cxx199812_Vector_baseINSt7__debug6vectorIiSaIiEEESaIS4_EE11_M_allocateEm = comdat any

$_ZNSt16allocator_traitsISaINSt7__debug6vectorIiSaIiEEEEE8allocateERS4_m = comdat any

$_ZN9__gnu_cxx13new_allocatorINSt7__debug6vectorIiSaIiEEEE8allocateEmPKv = comdat any

$_ZNSt27__uninitialized_default_n_1ILb0EE18__uninit_default_nIPNSt7__debug6vectorIiSaIiEEEmEET_S7_T0_ = comdat any

$_ZSt10_ConstructINSt7__debug6vectorIiSaIiEEEJEEvPT_DpOT0_ = comdat any

$_ZNSt7__debug6vectorIiSaIiEEC2Ev = comdat any

$_ZNSt12_Destroy_auxILb0EE9__destroyIPNSt7__debug6vectorIiSaIiEEEEEvT_S7_ = comdat any

$_ZN11__gnu_debug16_Error_formatter11_M_sequenceINSt7__debug6vectorINS3_IiSaIiEEESaIS5_EEEEERS0_RKT_PKc = comdat any

$_ZNSt9__cxx19986vectorINSt7__debug6vectorIiSaIiEEESaIS4_EEixEm = comdat any

$_ZSt20__replacement_assertPKciS0_S0_ = comdat any

$_ZNSt9__cxx19986vectorIiSaIiEE9push_backERKi = comdat any

$_ZNSt9__cxx19986vectorIiSaIiEE17_M_realloc_insertIJRKiEEEvN9__gnu_cxx17__normal_iteratorIPiS2_EEDpOT_ = comdat any

$_ZNKSt9__cxx19986vectorIiSaIiEE12_M_check_lenEmPKc = comdat any

$_ZNSt9__cxx19986vectorINSt7__debug6vectorIiSaIiEEESaIS4_EE9push_backERKS4_ = comdat any

$_ZNSt9__cxx19986vectorINSt7__debug6vectorIiSaIiEEESaIS4_EE17_M_realloc_insertIJRKS4_EEEvN9__gnu_cxx17__normal_iteratorIPS4_S6_EEDpOT_ = comdat any

$_ZNKSt9__cxx19986vectorINSt7__debug6vectorIiSaIiEEESaIS4_EE12_M_check_lenEmPKc = comdat any

$_ZSt14__relocate_a_1IPNSt7__debug6vectorIiSaIiEEES4_SaIS3_EET0_T_S7_S6_RT1_ = comdat any

$_ZSt19__relocate_object_aINSt7__debug6vectorIiSaIiEEES3_SaIS3_EEvPT_PT0_RT1_ = comdat any

$_ZNSt7__debug6vectorIiSaIiEEC2EOS2_ = comdat any

$_ZN11__gnu_debug19_Safe_sequence_baseC2EOS0_ = comdat any

$_ZNSt9__cxx19986vectorIiSaIiEEC2ERKS2_ = comdat any

$_ZSt4copyIN9__gnu_cxx17__normal_iteratorIPKiNSt9__cxx19986vectorIiSaIiEEEEEPiET0_T_SB_SA_ = comdat any

$_ZN11__gnu_debug16_Error_formatter11_M_iteratorIN9__gnu_cxx17__normal_iteratorIPKiNSt9__cxx19986vectorIiSaIiEEEEEEERS0_RKT_PKc = comdat any

$_ZN11__gnu_debug16_Error_formatter10_ParameterC2IPKiNSt9__cxx19986vectorIiSaIiEEEEERKN9__gnu_cxx17__normal_iteratorIT_T0_EEPKcNS0_12_Is_iteratorE = comdat any

$_ZN11__gnu_debug16_Error_formatter10_ParameterC2IiEERKPKT_PKcNS0_12_Is_iteratorE = comdat any

$_ZN11__gnu_debug19_Safe_iterator_baseD2Ev = comdat any

$_ZN11__gnu_debug19_Safe_sequence_baseD2Ev = comdat any

$_ZNSt8_Rb_treeIiiSt9_IdentityIiESt4lessIiESaIiEED2Ev = comdat any

$_ZNSt8_Rb_treeIiiSt9_IdentityIiESt4lessIiESaIiEE8_M_eraseEPSt13_Rb_tree_nodeIiE = comdat any

$_ZNSt9__cxx19986vectorINSt7__debug6vectorIiSaIiEEESaIS4_EED2Ev = comdat any

$_ZNSt7__cxx1112basic_stringIcSt11char_traitsIcESaIcEE10_M_disposeEv = comdat any

$_ZNSt7__cxx1112basic_stringIcSt11char_traitsIcESaIcEE12_M_constructIPKcEEvT_S8_St20forward_iterator_tag = comdat any

$_ZNSt7__cxx1112basic_stringIcSt11char_traitsIcESaIcEE9_M_createERmm = comdat any

$_ZNSt16allocator_traitsISaIcEE8allocateERS0_m = comdat any

$_ZN9__gnu_cxx13new_allocatorIcE8allocateEmPKv = comdat any

$_ZNSt7__cxx1112basic_stringIcSt11char_traitsIcESaIcEE7reserveEm = comdat any

$_ZNSt7__cxx1112basic_stringIcSt11char_traitsIcESaIcEE6appendEmc = comdat any

$_ZNSt7__cxx1112basic_stringIcSt11char_traitsIcESaIcEE6appendERKS4_ = comdat any

$_ZNSt7__cxx1112basic_stringIcSt11char_traitsIcESaIcEE14_M_replace_auxEmmmc = comdat any

$_ZNKSt7__cxx1112basic_stringIcSt11char_traitsIcESaIcEE15_M_check_lengthEmmPKc = comdat any

$_ZNSt7__cxx1112basic_stringIcSt11char_traitsIcESaIcEE9_M_mutateEmmPKcm = comdat any

$_ZNSt7__cxx1112basic_stringIcSt11char_traitsIcESaIcEE9_M_appendEPKcm = comdat any

$_ZNSt7__cxx1112basic_stringIcSt11char_traitsIcESaIcEEC2EOS4_ = comdat any

$_ZNSt9__cxx19986vectorIiSaIiEEC2EmRKS1_ = comdat any

$_ZNSt9__cxx19986vectorIiSaIiEE21_M_default_initializeEm = comdat any

$_ZNSt27__uninitialized_default_n_1ILb1EE18__uninit_default_nIPimEET_S3_T0_ = comdat any

$_ZN11__gnu_debug16_Error_formatter11_M_sequenceINSt7__debug6vectorIiSaIiEEEEERS0_RKT_PKc = comdat any

$_ZNSt9__cxx19986vectorIiSaIiEEixEm = comdat any

$_ZN11__gnu_debug14_Safe_iteratorIN9__gnu_cxx17__normal_iteratorIPNSt7__debug6vectorIiSaIiEEENSt9__cxx19986vectorIS6_SaIS6_EEEEENS4_IS6_SA_EESt20forward_iterator_tagEC2ESC_PKNS_19_Safe_sequence_baseE = comdat any

$_ZN11__gnu_debug19_Safe_iterator_baseC2EPKNS_19_Safe_sequence_baseEb = comdat any

$_ZN11__gnu_debug16_Error_formatter11_M_iteratorINS_14_Safe_iteratorIN9__gnu_cxx17__normal_iteratorIPNSt7__debug6vectorIiSaIiEEENSt9__cxx19986vectorIS8_SaIS8_EEEEENS6_IS8_SC_EESt20forward_iterator_tagEEEERS0_RKT_PKc = comdat any

$_ZN11__gnu_debug16_Error_formatter10_ParameterC2IN9__gnu_cxx17__normal_iteratorIPNSt7__debug6vectorIiSaIiEEENSt9__cxx19986vectorIS8_SaIS8_EEEEENS6_IS8_SC_EESt20forward_iterator_tagEERKNS_14_Safe_iteratorIT_T0_T1_EEPKcNS0_12_Is_iteratorE = comdat any

$_ZN11__gnu_debug16_Error_formatter11_M_iteratorINS_14_Safe_iteratorIN9__gnu_cxx17__normal_iteratorIPNSt7__debug6vectorIiSaIiEEENSt9__cxx19986vectorIS8_SaIS8_EEEEENS6_IS8_SC_EESt26random_access_iterator_tagEEEERS0_RKT_PKc = comdat any

$_ZN11__gnu_debug16_Error_formatter10_ParameterC2IN9__gnu_cxx17__normal_iteratorIPNSt7__debug6vectorIiSaIiEEENSt9__cxx19986vectorIS8_SaIS8_EEEEENS6_IS8_SC_EESt26random_access_iterator_tagEERKNS_14_Safe_iteratorIT_T0_T1_EEPKcNS0_12_Is_iteratorE = comdat any

$_ZN11__gnu_debug14_Safe_iteratorIN9__gnu_cxx17__normal_iteratorIPNSt7__debug6vectorIiSaIiEEENSt9__cxx19986vectorIS6_SaIS6_EEEEENS4_IS6_SA_EESt20forward_iterator_tagEppEv = comdat any

$_ZNK11__gnu_debug14_Safe_iteratorIN9__gnu_cxx17__normal_iteratorIPNSt7__debug6vectorIiSaIiEEENSt9__cxx19986vectorIS6_SaIS6_EEEEENS4_IS6_SA_EESt20forward_iterator_tagE16_M_incrementableEv = comdat any

$_ZN9__gnu_cxx13__scoped_lockD2Ev = comdat any

$_ZN9__gnu_cxx7__mutex4lockEv = comdat any

$_ZN9__gnu_cxx30__throw_concurrence_lock_errorEv = comdat any

$_ZN9__gnu_cxx24__concurrence_lock_errorD0Ev = comdat any

$_ZNK9__gnu_cxx24__concurrence_lock_error4whatEv = comdat any

$_ZN9__gnu_cxx7__mutex6unlockEv = comdat any

$_ZN9__gnu_cxx32__throw_concurrence_unlock_errorEv = comdat any

$_ZN9__gnu_cxx26__concurrence_unlock_errorD0Ev = comdat any

$_ZNK9__gnu_cxx26__concurrence_unlock_error4whatEv = comdat any

$_ZNK11__gnu_debug14_Safe_iteratorIN9__gnu_cxx17__normal_iteratorIPNSt7__debug6vectorIiSaIiEEENSt9__cxx19986vectorIS6_SaIS6_EEEEENS4_IS6_SA_EESt20forward_iterator_tagE18_M_dereferenceableEv = comdat any

$_ZN11__gnu_debug14_Safe_iteratorIN9__gnu_cxx17__normal_iteratorIPiNSt9__cxx19986vectorIiSaIiEEEEENSt7__debug6vectorIiS6_EESt20forward_iterator_tagEC2ES8_PKNS_19_Safe_sequence_baseE = comdat any

$_ZN11__gnu_debug16_Error_formatter11_M_iteratorINS_14_Safe_iteratorIN9__gnu_cxx17__normal_iteratorIPiNSt9__cxx19986vectorIiSaIiEEEEENSt7__debug6vectorIiS8_EESt20forward_iterator_tagEEEERS0_RKT_PKc = comdat any

$_ZN11__gnu_debug16_Error_formatter10_ParameterC2IN9__gnu_cxx17__normal_iteratorIPiNSt9__cxx19986vectorIiSaIiEEEEENSt7__debug6vectorIiS8_EESt20forward_iterator_tagEERKNS_14_Safe_iteratorIT_T0_T1_EEPKcNS0_12_Is_iteratorE = comdat any

$_ZN11__gnu_debug16_Error_formatter11_M_iteratorINS_14_Safe_iteratorIN9__gnu_cxx17__normal_iteratorIPiNSt9__cxx19986vectorIiSaIiEEEEENSt7__debug6vectorIiS8_EESt26random_access_iterator_tagEEEERS0_RKT_PKc = comdat any

$_ZN11__gnu_debug16_Error_formatter10_ParameterC2IN9__gnu_cxx17__normal_iteratorIPiNSt9__cxx19986vectorIiSaIiEEEEENSt7__debug6vectorIiS8_EESt26random_access_iterator_tagEERKNS_14_Safe_iteratorIT_T0_T1_EEPKcNS0_12_Is_iteratorE = comdat any

$_ZN11__gnu_debug14_Safe_iteratorIN9__gnu_cxx17__normal_iteratorIPiNSt9__cxx19986vectorIiSaIiEEEEENSt7__debug6vectorIiS6_EESt20forward_iterator_tagEppEv = comdat any

$_ZNK11__gnu_debug14_Safe_iteratorIN9__gnu_cxx17__normal_iteratorIPiNSt9__cxx19986vectorIiSaIiEEEEENSt7__debug6vectorIiS6_EESt20forward_iterator_tagE16_M_incrementableEv = comdat any

$_ZNK11__gnu_debug14_Safe_iteratorIN9__gnu_cxx17__normal_iteratorIPiNSt9__cxx19986vectorIiSaIiEEEEENSt7__debug6vectorIiS6_EESt20forward_iterator_tagE18_M_dereferenceableEv = comdat any

$_ZNSt8_Rb_treeIiiSt9_IdentityIiESt4lessIiESaIiEE16_M_insert_uniqueIRKiEESt4pairISt17_Rb_tree_iteratorIiEbEOT_ = comdat any

$_ZNSt8_Rb_treeIiiSt9_IdentityIiESt4lessIiESaIiEE24_M_get_insert_unique_posERKi = comdat any

$_ZNSt8_Rb_treeIiiSt9_IdentityIiESt4lessIiESaIiEE10_M_insert_IRKiNS5_11_Alloc_nodeEEESt17_Rb_tree_iteratorIiEPSt18_Rb_tree_node_baseSD_OT_RT0_ = comdat any

$_ZNKSt8_Rb_treeIiiSt9_IdentityIiESt4lessIiESaIiEE11_Alloc_nodeclIRKiEEPSt13_Rb_tree_nodeIiEOT_ = comdat any

$_ZNSt8_Rb_treeIiiSt9_IdentityIiESt4lessIiESaIiEE14_M_create_nodeIJRKiEEEPSt13_Rb_tree_nodeIiEDpOT_ = comdat any

$_ZNSt8_Rb_treeIiiSt9_IdentityIiESt4lessIiESaIiEE11_M_get_nodeEv = comdat any

$_ZNSt16allocator_traitsISaISt13_Rb_tree_nodeIiEEE8allocateERS2_m = comdat any

$_ZN9__gnu_cxx13new_allocatorISt13_Rb_tree_nodeIiEE8allocateEmPKv = comdat any

$_ZN11__gnu_debug14_Safe_iteratorISt23_Rb_tree_const_iteratorIiENSt7__debug3setIiSt4lessIiESaIiEEESt20forward_iterator_tagEC2ES2_PKNS_19_Safe_sequence_baseE = comdat any

$_ZN11__gnu_debug16_Error_formatter11_M_iteratorINS_14_Safe_iteratorISt23_Rb_tree_const_iteratorIiENSt7__debug3setIiSt4lessIiESaIiEEESt20forward_iterator_tagEEEERS0_RKT_PKc = comdat any

$_ZN11__gnu_debug16_Error_formatter10_ParameterC2ISt23_Rb_tree_const_iteratorIiENSt7__debug3setIiSt4lessIiESaIiEEESt20forward_iterator_tagEERKNS_14_Safe_iteratorIT_T0_T1_EEPKcNS0_12_Is_iteratorE = comdat any

$_ZN11__gnu_debug14_Safe_iteratorISt23_Rb_tree_const_iteratorIiENSt7__debug3setIiSt4lessIiESaIiEEESt20forward_iterator_tagEC2EOSA_ = comdat any

$_ZN11__gnu_debug14_Safe_iteratorISt23_Rb_tree_const_iteratorIiENSt7__debug3setIiSt4lessIiESaIiEEESt20forward_iterator_tagE9_M_attachEPNS_19_Safe_sequence_baseE = comdat any

$_ZNSt8_Rb_treeIiiSt9_IdentityIiESt4lessIiESaIiEE4findERKi = comdat any

$_ZNSt8_Rb_treeIiiSt9_IdentityIiESt4lessIiESaIiEE14_M_lower_boundEPSt13_Rb_tree_nodeIiEPSt18_Rb_tree_node_baseRKi = comdat any

$_ZN11__gnu_debug16_Error_formatter11_M_iteratorINS_14_Safe_iteratorISt23_Rb_tree_const_iteratorIiENSt7__debug3setIiSt4lessIiESaIiEEESt26bidirectional_iterator_tagEEEERS0_RKT_PKc = comdat any

$_ZN11__gnu_debug16_Error_formatter10_ParameterC2ISt23_Rb_tree_const_iteratorIiENSt7__debug3setIiSt4lessIiESaIiEEESt26bidirectional_iterator_tagEERKNS_14_Safe_iteratorIT_T0_T1_EEPKcNS0_12_Is_iteratorE = comdat any

$_ZZN11__gnu_debug16_Error_formatter5_S_atEPKcjS2_E11__formatter = comdat any

$_ZGVZN11__gnu_debug16_Error_formatter5_S_atEPKcjS2_E11__formatter = comdat any

$_ZTSNSt7__debug6vectorINS0_IiSaIiEEESaIS2_EEE = comdat any

$_ZTSN11__gnu_debug15_Safe_containerINSt7__debug6vectorINS2_IiSaIiEEESaIS4_EEES5_NS_14_Safe_sequenceELb1EEE = comdat any

$_ZTSN11__gnu_debug14_Safe_sequenceINSt7__debug6vectorINS2_IiSaIiEEESaIS4_EEEEE = comdat any

$_ZTSN11__gnu_debug19_Safe_sequence_baseE = comdat any

$_ZTIN11__gnu_debug19_Safe_sequence_baseE = comdat any

$_ZTIN11__gnu_debug14_Safe_sequenceINSt7__debug6vectorINS2_IiSaIiEEESaIS4_EEEEE = comdat any

$_ZTIN11__gnu_debug15_Safe_containerINSt7__debug6vectorINS2_IiSaIiEEESaIS4_EEES5_NS_14_Safe_sequenceELb1EEE = comdat any

$_ZTSNSt9__cxx19986vectorINSt7__debug6vectorIiSaIiEEESaIS4_EEE = comdat any

$_ZTSNSt9__cxx199812_Vector_baseINSt7__debug6vectorIiSaIiEEESaIS4_EEE = comdat any

$_ZTINSt9__cxx199812_Vector_baseINSt7__debug6vectorIiSaIiEEESaIS4_EEE = comdat any

$_ZTINSt9__cxx19986vectorINSt7__debug6vectorIiSaIiEEESaIS4_EEE = comdat any

$_ZTSN11__gnu_debug12_Safe_vectorINSt7__debug6vectorINS2_IiSaIiEEESaIS4_EEENSt9__cxx19986vectorIS4_S5_EEEE = comdat any

$_ZTIN11__gnu_debug12_Safe_vectorINSt7__debug6vectorINS2_IiSaIiEEESaIS4_EEENSt9__cxx19986vectorIS4_S5_EEEE = comdat any

$_ZTINSt7__debug6vectorINS0_IiSaIiEEESaIS2_EEE = comdat any

$_ZTSN9__gnu_cxx17__normal_iteratorIPKiNSt9__cxx19986vectorIiSaIiEEEEE = comdat any

$_ZTIN9__gnu_cxx17__normal_iteratorIPKiNSt9__cxx19986vectorIiSaIiEEEEE = comdat any

$_ZTSNSt7__debug6vectorIiSaIiEEE = comdat any

$_ZTSN11__gnu_debug15_Safe_containerINSt7__debug6vectorIiSaIiEEES3_NS_14_Safe_sequenceELb1EEE = comdat any

$_ZTSN11__gnu_debug14_Safe_sequenceINSt7__debug6vectorIiSaIiEEEEE = comdat any

$_ZTIN11__gnu_debug14_Safe_sequenceINSt7__debug6vectorIiSaIiEEEEE = comdat any

$_ZTIN11__gnu_debug15_Safe_containerINSt7__debug6vectorIiSaIiEEES3_NS_14_Safe_sequenceELb1EEE = comdat any

$_ZTSNSt9__cxx19986vectorIiSaIiEEE = comdat any

$_ZTSNSt9__cxx199812_Vector_baseIiSaIiEEE = comdat any

$_ZTINSt9__cxx199812_Vector_baseIiSaIiEEE = comdat any

$_ZTINSt9__cxx19986vectorIiSaIiEEE = comdat any

$_ZTSN11__gnu_debug12_Safe_vectorINSt7__debug6vectorIiSaIiEEENSt9__cxx19986vectorIiS3_EEEE = comdat any

$_ZTIN11__gnu_debug12_Safe_vectorINSt7__debug6vectorIiSaIiEEENSt9__cxx19986vectorIiS3_EEEE = comdat any

$_ZTINSt7__debug6vectorIiSaIiEEE = comdat any

$_ZTSN9__gnu_cxx17__normal_iteratorIPNSt7__debug6vectorIiSaIiEEENSt9__cxx19986vectorIS4_SaIS4_EEEEE = comdat any

$_ZTIN9__gnu_cxx17__normal_iteratorIPNSt7__debug6vectorIiSaIiEEENSt9__cxx19986vectorIS4_SaIS4_EEEEE = comdat any

$_ZTSN9__gnu_cxx24__concurrence_lock_errorE = comdat any

$_ZTIN9__gnu_cxx24__concurrence_lock_errorE = comdat any

$_ZTVN9__gnu_cxx24__concurrence_lock_errorE = comdat any

$_ZTSN9__gnu_cxx26__concurrence_unlock_errorE = comdat any

$_ZTIN9__gnu_cxx26__concurrence_unlock_errorE = comdat any

$_ZTVN9__gnu_cxx26__concurrence_unlock_errorE = comdat any

$_ZTSN9__gnu_cxx17__normal_iteratorIPiNSt9__cxx19986vectorIiSaIiEEEEE = comdat any

$_ZTIN9__gnu_cxx17__normal_iteratorIPiNSt9__cxx19986vectorIiSaIiEEEEE = comdat any

$_ZTSSt23_Rb_tree_const_iteratorIiE = comdat any

$_ZTISt23_Rb_tree_const_iteratorIiE = comdat any

$_ZTSNSt7__debug3setIiSt4lessIiESaIiEEE = comdat any

$_ZTSN11__gnu_debug15_Safe_containerINSt7__debug3setIiSt4lessIiESaIiEEES5_NS_19_Safe_node_sequenceELb1EEE = comdat any

$_ZTSN11__gnu_debug19_Safe_node_sequenceINSt7__debug3setIiSt4lessIiESaIiEEEEE = comdat any

$_ZTSN11__gnu_debug14_Safe_sequenceINSt7__debug3setIiSt4lessIiESaIiEEEEE = comdat any

$_ZTIN11__gnu_debug14_Safe_sequenceINSt7__debug3setIiSt4lessIiESaIiEEEEE = comdat any

$_ZTIN11__gnu_debug19_Safe_node_sequenceINSt7__debug3setIiSt4lessIiESaIiEEEEE = comdat any

$_ZTIN11__gnu_debug15_Safe_containerINSt7__debug3setIiSt4lessIiESaIiEEES5_NS_19_Safe_node_sequenceELb1EEE = comdat any

$_ZTSNSt9__cxx19983setIiSt4lessIiESaIiEEE = comdat any

$_ZTINSt9__cxx19983setIiSt4lessIiESaIiEEE = comdat any

$_ZTINSt7__debug3setIiSt4lessIiESaIiEEE = comdat any

@_ZStL8__ioinit = internal global %"class.std::ios_base::Init" zeroinitializer, align 1
@__dso_handle = external hidden global i8
@.str = private unnamed_addr constant [5 x i8] c"true\00", align 1
@.str.1 = private unnamed_addr constant [6 x i8] c"false\00", align 1
@_ZSt4cerr = external global %"class.std::basic_ostream", align 8
@.str.2 = private unnamed_addr constant [2 x i8] c"\0A\00", align 1
@_ZSt4cout = external global %"class.std::basic_ostream", align 8
@_ZSt3cin = external global %"class.std::basic_istream", align 8
@.str.3 = private unnamed_addr constant [49 x i8] c"cannot create std::vector larger than max_size()\00", align 1
@.str.4 = private unnamed_addr constant [100 x i8] c"/usr/bin/../lib64/gcc/x86_64-pc-linux-gnu/11.1.0/../../../../include/c++/11.1.0/bits/stl_algobase.h\00", align 1
@.str.5 = private unnamed_addr constant [8 x i8] c"__first\00", align 1
@.str.6 = private unnamed_addr constant [4 x i8] c"__n\00", align 1
@_ZZN11__gnu_debug16_Error_formatter5_S_atEPKcjS2_E11__formatter = linkonce_odr dso_local global %"class.__gnu_debug::_Error_formatter" zeroinitializer, comdat, align 8
@_ZGVZN11__gnu_debug16_Error_formatter5_S_atEPKcjS2_E11__formatter = linkonce_odr dso_local global i64 0, comdat, align 8
@.str.7 = private unnamed_addr constant [93 x i8] c"/usr/bin/../lib64/gcc/x86_64-pc-linux-gnu/11.1.0/../../../../include/c++/11.1.0/debug/vector\00", align 1
@__PRETTY_FUNCTION__._ZNSt7__debug6vectorINS0_IiSaIiEEESaIS2_EEixEm = private unnamed_addr constant [161 x i8] c"std::vector::reference std::vector<std::vector<int>>::operator[](std::vector::size_type) [_Tp = std::vector<int>, _Allocator = std::allocator<std::vector<int>>]\00", align 1
@.str.8 = private unnamed_addr constant [5 x i8] c"this\00", align 1
@.str.9 = private unnamed_addr constant [5 x i8] c"size\00", align 1
@_ZTVN10__cxxabiv121__vmi_class_type_infoE = external global i8*
@_ZTSNSt7__debug6vectorINS0_IiSaIiEEESaIS2_EEE = linkonce_odr dso_local constant [42 x i8] c"NSt7__debug6vectorINS0_IiSaIiEEESaIS2_EEE\00", comdat, align 1
@_ZTVN10__cxxabiv120__si_class_type_infoE = external global i8*
@_ZTSN11__gnu_debug15_Safe_containerINSt7__debug6vectorINS2_IiSaIiEEESaIS4_EEES5_NS_14_Safe_sequenceELb1EEE = linkonce_odr dso_local constant [103 x i8] c"N11__gnu_debug15_Safe_containerINSt7__debug6vectorINS2_IiSaIiEEESaIS4_EEES5_NS_14_Safe_sequenceELb1EEE\00", comdat, align 1
@_ZTSN11__gnu_debug14_Safe_sequenceINSt7__debug6vectorINS2_IiSaIiEEESaIS4_EEEEE = linkonce_odr dso_local constant [75 x i8] c"N11__gnu_debug14_Safe_sequenceINSt7__debug6vectorINS2_IiSaIiEEESaIS4_EEEEE\00", comdat, align 1
@_ZTVN10__cxxabiv117__class_type_infoE = external global i8*
@_ZTSN11__gnu_debug19_Safe_sequence_baseE = linkonce_odr dso_local constant [37 x i8] c"N11__gnu_debug19_Safe_sequence_baseE\00", comdat, align 1
@_ZTIN11__gnu_debug19_Safe_sequence_baseE = linkonce_odr dso_local constant { i8*, i8* } { i8* bitcast (i8** getelementptr inbounds (i8*, i8** @_ZTVN10__cxxabiv117__class_type_infoE, i64 2) to i8*), i8* getelementptr inbounds ([37 x i8], [37 x i8]* @_ZTSN11__gnu_debug19_Safe_sequence_baseE, i32 0, i32 0) }, comdat, align 8
@_ZTIN11__gnu_debug14_Safe_sequenceINSt7__debug6vectorINS2_IiSaIiEEESaIS4_EEEEE = linkonce_odr dso_local constant { i8*, i8*, i8* } { i8* bitcast (i8** getelementptr inbounds (i8*, i8** @_ZTVN10__cxxabiv120__si_class_type_infoE, i64 2) to i8*), i8* getelementptr inbounds ([75 x i8], [75 x i8]* @_ZTSN11__gnu_debug14_Safe_sequenceINSt7__debug6vectorINS2_IiSaIiEEESaIS4_EEEEE, i32 0, i32 0), i8* bitcast ({ i8*, i8* }* @_ZTIN11__gnu_debug19_Safe_sequence_baseE to i8*) }, comdat, align 8
@_ZTIN11__gnu_debug15_Safe_containerINSt7__debug6vectorINS2_IiSaIiEEESaIS4_EEES5_NS_14_Safe_sequenceELb1EEE = linkonce_odr dso_local constant { i8*, i8*, i8* } { i8* bitcast (i8** getelementptr inbounds (i8*, i8** @_ZTVN10__cxxabiv120__si_class_type_infoE, i64 2) to i8*), i8* getelementptr inbounds ([103 x i8], [103 x i8]* @_ZTSN11__gnu_debug15_Safe_containerINSt7__debug6vectorINS2_IiSaIiEEESaIS4_EEES5_NS_14_Safe_sequenceELb1EEE, i32 0, i32 0), i8* bitcast ({ i8*, i8*, i8* }* @_ZTIN11__gnu_debug14_Safe_sequenceINSt7__debug6vectorINS2_IiSaIiEEESaIS4_EEEEE to i8*) }, comdat, align 8
@_ZTSNSt9__cxx19986vectorINSt7__debug6vectorIiSaIiEEESaIS4_EEE = linkonce_odr dso_local constant [58 x i8] c"NSt9__cxx19986vectorINSt7__debug6vectorIiSaIiEEESaIS4_EEE\00", comdat, align 1
@_ZTSNSt9__cxx199812_Vector_baseINSt7__debug6vectorIiSaIiEEESaIS4_EEE = linkonce_odr dso_local constant [65 x i8] c"NSt9__cxx199812_Vector_baseINSt7__debug6vectorIiSaIiEEESaIS4_EEE\00", comdat, align 1
@_ZTINSt9__cxx199812_Vector_baseINSt7__debug6vectorIiSaIiEEESaIS4_EEE = linkonce_odr dso_local constant { i8*, i8* } { i8* bitcast (i8** getelementptr inbounds (i8*, i8** @_ZTVN10__cxxabiv117__class_type_infoE, i64 2) to i8*), i8* getelementptr inbounds ([65 x i8], [65 x i8]* @_ZTSNSt9__cxx199812_Vector_baseINSt7__debug6vectorIiSaIiEEESaIS4_EEE, i32 0, i32 0) }, comdat, align 8
@_ZTINSt9__cxx19986vectorINSt7__debug6vectorIiSaIiEEESaIS4_EEE = linkonce_odr dso_local constant { i8*, i8*, i32, i32, i8*, i64 } { i8* bitcast (i8** getelementptr inbounds (i8*, i8** @_ZTVN10__cxxabiv121__vmi_class_type_infoE, i64 2) to i8*), i8* getelementptr inbounds ([58 x i8], [58 x i8]* @_ZTSNSt9__cxx19986vectorINSt7__debug6vectorIiSaIiEEESaIS4_EEE, i32 0, i32 0), i32 0, i32 1, i8* bitcast ({ i8*, i8* }* @_ZTINSt9__cxx199812_Vector_baseINSt7__debug6vectorIiSaIiEEESaIS4_EEE to i8*), i64 0 }, comdat, align 8
@_ZTSN11__gnu_debug12_Safe_vectorINSt7__debug6vectorINS2_IiSaIiEEESaIS4_EEENSt9__cxx19986vectorIS4_S5_EEEE = linkonce_odr dso_local constant [102 x i8] c"N11__gnu_debug12_Safe_vectorINSt7__debug6vectorINS2_IiSaIiEEESaIS4_EEENSt9__cxx19986vectorIS4_S5_EEEE\00", comdat, align 1
@_ZTIN11__gnu_debug12_Safe_vectorINSt7__debug6vectorINS2_IiSaIiEEESaIS4_EEENSt9__cxx19986vectorIS4_S5_EEEE = linkonce_odr dso_local constant { i8*, i8* } { i8* bitcast (i8** getelementptr inbounds (i8*, i8** @_ZTVN10__cxxabiv117__class_type_infoE, i64 2) to i8*), i8* getelementptr inbounds ([102 x i8], [102 x i8]* @_ZTSN11__gnu_debug12_Safe_vectorINSt7__debug6vectorINS2_IiSaIiEEESaIS4_EEENSt9__cxx19986vectorIS4_S5_EEEE, i32 0, i32 0) }, comdat, align 8
@_ZTINSt7__debug6vectorINS0_IiSaIiEEESaIS2_EEE = linkonce_odr dso_local constant { i8*, i8*, i32, i32, i8*, i64, i8*, i64, i8*, i64 } { i8* bitcast (i8** getelementptr inbounds (i8*, i8** @_ZTVN10__cxxabiv121__vmi_class_type_infoE, i64 2) to i8*), i8* getelementptr inbounds ([42 x i8], [42 x i8]* @_ZTSNSt7__debug6vectorINS0_IiSaIiEEESaIS2_EEE, i32 0, i32 0), i32 0, i32 3, i8* bitcast ({ i8*, i8*, i8* }* @_ZTIN11__gnu_debug15_Safe_containerINSt7__debug6vectorINS2_IiSaIiEEESaIS4_EEES5_NS_14_Safe_sequenceELb1EEE to i8*), i64 2, i8* bitcast ({ i8*, i8*, i32, i32, i8*, i64 }* @_ZTINSt9__cxx19986vectorINSt7__debug6vectorIiSaIiEEESaIS4_EEE to i8*), i64 6146, i8* bitcast ({ i8*, i8* }* @_ZTIN11__gnu_debug12_Safe_vectorINSt7__debug6vectorINS2_IiSaIiEEESaIS4_EEENSt9__cxx19986vectorIS4_S5_EEEE to i8*), i64 12290 }, comdat, align 8
@.str.10 = private unnamed_addr constant [98 x i8] c"/usr/bin/../lib64/gcc/x86_64-pc-linux-gnu/11.1.0/../../../../include/c++/11.1.0/bits/stl_vector.h\00", align 1
@__PRETTY_FUNCTION__._ZNSt9__cxx19986vectorINSt7__debug6vectorIiSaIiEEESaIS4_EEixEm = private unnamed_addr constant [190 x i8] c"std::__cxx1998::vector::reference std::__cxx1998::vector<std::vector<int>>::operator[](std::__cxx1998::vector::size_type) [_Tp = std::vector<int>, _Alloc = std::allocator<std::vector<int>>]\00", align 1
@.str.11 = private unnamed_addr constant [19 x i8] c"__n < this->size()\00", align 1
@.str.12 = private unnamed_addr constant [35 x i8] c"%s:%d: %s: Assertion '%s' failed.\0A\00", align 1
@.str.13 = private unnamed_addr constant [26 x i8] c"vector::_M_realloc_insert\00", align 1
@__PRETTY_FUNCTION__._ZSt4copyIN9__gnu_cxx17__normal_iteratorIPKiNSt9__cxx19986vectorIiSaIiEEEEEPiET0_T_SB_SA_ = private unnamed_addr constant [127 x i8] c"_OI std::copy(_II, _II, _OI) [_IIter = __gnu_cxx::__normal_iterator<const int *, std::__cxx1998::vector<int>>, _OIter = int *]\00", align 1
@.str.14 = private unnamed_addr constant [7 x i8] c"__last\00", align 1
@_ZTSN9__gnu_cxx17__normal_iteratorIPKiNSt9__cxx19986vectorIiSaIiEEEEE = linkonce_odr dso_local constant [66 x i8] c"N9__gnu_cxx17__normal_iteratorIPKiNSt9__cxx19986vectorIiSaIiEEEEE\00", comdat, align 1
@_ZTIN9__gnu_cxx17__normal_iteratorIPKiNSt9__cxx19986vectorIiSaIiEEEEE = linkonce_odr dso_local constant { i8*, i8* } { i8* bitcast (i8** getelementptr inbounds (i8*, i8** @_ZTVN10__cxxabiv117__class_type_infoE, i64 2) to i8*), i8* getelementptr inbounds ([66 x i8], [66 x i8]* @_ZTSN9__gnu_cxx17__normal_iteratorIPKiNSt9__cxx19986vectorIiSaIiEEEEE, i32 0, i32 0) }, comdat, align 8
@_ZTIPKi = external constant i8*
@.str.16 = private unnamed_addr constant [42 x i8] c"basic_string::_M_construct null not valid\00", align 1
@.str.17 = private unnamed_addr constant [24 x i8] c"basic_string::_M_create\00", align 1
@.str.18 = private unnamed_addr constant [29 x i8] c"basic_string::_M_replace_aux\00", align 1
@__PRETTY_FUNCTION__._ZNSt7__debug6vectorIiSaIiEEixEm = private unnamed_addr constant [122 x i8] c"std::vector::reference std::vector<int>::operator[](std::vector::size_type) [_Tp = int, _Allocator = std::allocator<int>]\00", align 1
@_ZTSNSt7__debug6vectorIiSaIiEEE = linkonce_odr dso_local constant [28 x i8] c"NSt7__debug6vectorIiSaIiEEE\00", comdat, align 1
@_ZTSN11__gnu_debug15_Safe_containerINSt7__debug6vectorIiSaIiEEES3_NS_14_Safe_sequenceELb1EEE = linkonce_odr dso_local constant [89 x i8] c"N11__gnu_debug15_Safe_containerINSt7__debug6vectorIiSaIiEEES3_NS_14_Safe_sequenceELb1EEE\00", comdat, align 1
@_ZTSN11__gnu_debug14_Safe_sequenceINSt7__debug6vectorIiSaIiEEEEE = linkonce_odr dso_local constant [61 x i8] c"N11__gnu_debug14_Safe_sequenceINSt7__debug6vectorIiSaIiEEEEE\00", comdat, align 1
@_ZTIN11__gnu_debug14_Safe_sequenceINSt7__debug6vectorIiSaIiEEEEE = linkonce_odr dso_local constant { i8*, i8*, i8* } { i8* bitcast (i8** getelementptr inbounds (i8*, i8** @_ZTVN10__cxxabiv120__si_class_type_infoE, i64 2) to i8*), i8* getelementptr inbounds ([61 x i8], [61 x i8]* @_ZTSN11__gnu_debug14_Safe_sequenceINSt7__debug6vectorIiSaIiEEEEE, i32 0, i32 0), i8* bitcast ({ i8*, i8* }* @_ZTIN11__gnu_debug19_Safe_sequence_baseE to i8*) }, comdat, align 8
@_ZTIN11__gnu_debug15_Safe_containerINSt7__debug6vectorIiSaIiEEES3_NS_14_Safe_sequenceELb1EEE = linkonce_odr dso_local constant { i8*, i8*, i8* } { i8* bitcast (i8** getelementptr inbounds (i8*, i8** @_ZTVN10__cxxabiv120__si_class_type_infoE, i64 2) to i8*), i8* getelementptr inbounds ([89 x i8], [89 x i8]* @_ZTSN11__gnu_debug15_Safe_containerINSt7__debug6vectorIiSaIiEEES3_NS_14_Safe_sequenceELb1EEE, i32 0, i32 0), i8* bitcast ({ i8*, i8*, i8* }* @_ZTIN11__gnu_debug14_Safe_sequenceINSt7__debug6vectorIiSaIiEEEEE to i8*) }, comdat, align 8
@_ZTSNSt9__cxx19986vectorIiSaIiEEE = linkonce_odr dso_local constant [30 x i8] c"NSt9__cxx19986vectorIiSaIiEEE\00", comdat, align 1
@_ZTSNSt9__cxx199812_Vector_baseIiSaIiEEE = linkonce_odr dso_local constant [37 x i8] c"NSt9__cxx199812_Vector_baseIiSaIiEEE\00", comdat, align 1
@_ZTINSt9__cxx199812_Vector_baseIiSaIiEEE = linkonce_odr dso_local constant { i8*, i8* } { i8* bitcast (i8** getelementptr inbounds (i8*, i8** @_ZTVN10__cxxabiv117__class_type_infoE, i64 2) to i8*), i8* getelementptr inbounds ([37 x i8], [37 x i8]* @_ZTSNSt9__cxx199812_Vector_baseIiSaIiEEE, i32 0, i32 0) }, comdat, align 8
@_ZTINSt9__cxx19986vectorIiSaIiEEE = linkonce_odr dso_local constant { i8*, i8*, i32, i32, i8*, i64 } { i8* bitcast (i8** getelementptr inbounds (i8*, i8** @_ZTVN10__cxxabiv121__vmi_class_type_infoE, i64 2) to i8*), i8* getelementptr inbounds ([30 x i8], [30 x i8]* @_ZTSNSt9__cxx19986vectorIiSaIiEEE, i32 0, i32 0), i32 0, i32 1, i8* bitcast ({ i8*, i8* }* @_ZTINSt9__cxx199812_Vector_baseIiSaIiEEE to i8*), i64 0 }, comdat, align 8
@_ZTSN11__gnu_debug12_Safe_vectorINSt7__debug6vectorIiSaIiEEENSt9__cxx19986vectorIiS3_EEEE = linkonce_odr dso_local constant [86 x i8] c"N11__gnu_debug12_Safe_vectorINSt7__debug6vectorIiSaIiEEENSt9__cxx19986vectorIiS3_EEEE\00", comdat, align 1
@_ZTIN11__gnu_debug12_Safe_vectorINSt7__debug6vectorIiSaIiEEENSt9__cxx19986vectorIiS3_EEEE = linkonce_odr dso_local constant { i8*, i8* } { i8* bitcast (i8** getelementptr inbounds (i8*, i8** @_ZTVN10__cxxabiv117__class_type_infoE, i64 2) to i8*), i8* getelementptr inbounds ([86 x i8], [86 x i8]* @_ZTSN11__gnu_debug12_Safe_vectorINSt7__debug6vectorIiSaIiEEENSt9__cxx19986vectorIiS3_EEEE, i32 0, i32 0) }, comdat, align 8
@_ZTINSt7__debug6vectorIiSaIiEEE = linkonce_odr dso_local constant { i8*, i8*, i32, i32, i8*, i64, i8*, i64, i8*, i64 } { i8* bitcast (i8** getelementptr inbounds (i8*, i8** @_ZTVN10__cxxabiv121__vmi_class_type_infoE, i64 2) to i8*), i8* getelementptr inbounds ([28 x i8], [28 x i8]* @_ZTSNSt7__debug6vectorIiSaIiEEE, i32 0, i32 0), i32 0, i32 3, i8* bitcast ({ i8*, i8*, i8* }* @_ZTIN11__gnu_debug15_Safe_containerINSt7__debug6vectorIiSaIiEEES3_NS_14_Safe_sequenceELb1EEE to i8*), i64 2, i8* bitcast ({ i8*, i8*, i32, i32, i8*, i64 }* @_ZTINSt9__cxx19986vectorIiSaIiEEE to i8*), i64 6146, i8* bitcast ({ i8*, i8* }* @_ZTIN11__gnu_debug12_Safe_vectorINSt7__debug6vectorIiSaIiEEENSt9__cxx19986vectorIiS3_EEEE to i8*), i64 12290 }, comdat, align 8
@__PRETTY_FUNCTION__._ZNSt9__cxx19986vectorIiSaIiEEixEm = private unnamed_addr constant [151 x i8] c"std::__cxx1998::vector::reference std::__cxx1998::vector<int>::operator[](std::__cxx1998::vector::size_type) [_Tp = int, _Alloc = std::allocator<int>]\00", align 1
@.str.19 = private unnamed_addr constant [102 x i8] c"/usr/bin/../lib64/gcc/x86_64-pc-linux-gnu/11.1.0/../../../../include/c++/11.1.0/debug/safe_iterator.h\00", align 1
@__PRETTY_FUNCTION__._ZN11__gnu_debug14_Safe_iteratorIN9__gnu_cxx17__normal_iteratorIPNSt7__debug6vectorIiSaIiEEENSt9__cxx19986vectorIS6_SaIS6_EEEEENS4_IS6_SA_EESt20forward_iterator_tagEC2ESC_PKNS_19_Safe_sequence_baseE = private unnamed_addr constant [434 x i8] c"__gnu_debug::_Safe_iterator<__gnu_cxx::__normal_iterator<std::vector<int> *, std::__cxx1998::vector<std::vector<int>>>, std::vector<std::vector<int>>, std::forward_iterator_tag>::_Safe_iterator(_Iterator, const __gnu_debug::_Safe_sequence_base *) [_Iterator = __gnu_cxx::__normal_iterator<std::vector<int> *, std::__cxx1998::vector<std::vector<int>>>, _Sequence = std::vector<std::vector<int>>, _Category = std::forward_iterator_tag]\00", align 1
@_ZTSN9__gnu_cxx17__normal_iteratorIPNSt7__debug6vectorIiSaIiEEENSt9__cxx19986vectorIS4_SaIS4_EEEEE = linkonce_odr dso_local constant [95 x i8] c"N9__gnu_cxx17__normal_iteratorIPNSt7__debug6vectorIiSaIiEEENSt9__cxx19986vectorIS4_SaIS4_EEEEE\00", comdat, align 1
@_ZTIN9__gnu_cxx17__normal_iteratorIPNSt7__debug6vectorIiSaIiEEENSt9__cxx19986vectorIS4_SaIS4_EEEEE = linkonce_odr dso_local constant { i8*, i8* } { i8* bitcast (i8** getelementptr inbounds (i8*, i8** @_ZTVN10__cxxabiv117__class_type_infoE, i64 2) to i8*), i8* getelementptr inbounds ([95 x i8], [95 x i8]* @_ZTSN9__gnu_cxx17__normal_iteratorIPNSt7__debug6vectorIiSaIiEEENSt9__cxx19986vectorIS4_SaIS4_EEEEE, i32 0, i32 0) }, comdat, align 8
@__PRETTY_FUNCTION__._ZN11__gnu_debugneERKNS_14_Safe_iteratorIN9__gnu_cxx17__normal_iteratorIPNSt7__debug6vectorIiSaIiEEENSt9__cxx19986vectorIS6_SaIS6_EEEEENS4_IS6_SA_EESt26random_access_iterator_tagEESH_ = private unnamed_addr constant [117 x i8] c"bool __gnu_debug::operator!=(const __gnu_debug::_Safe_iterator::_Self &, const __gnu_debug::_Safe_iterator::_Self &)\00", align 1
@.str.20 = private unnamed_addr constant [6 x i8] c"__lhs\00", align 1
@.str.21 = private unnamed_addr constant [6 x i8] c"__rhs\00", align 1
@__PRETTY_FUNCTION__._ZN11__gnu_debug14_Safe_iteratorIN9__gnu_cxx17__normal_iteratorIPNSt7__debug6vectorIiSaIiEEENSt9__cxx19986vectorIS6_SaIS6_EEEEENS4_IS6_SA_EESt20forward_iterator_tagEppEv = private unnamed_addr constant [428 x i8] c"_Safe_iterator<_Iterator, _Sequence, _Category> &__gnu_debug::_Safe_iterator<__gnu_cxx::__normal_iterator<std::vector<int> *, std::__cxx1998::vector<std::vector<int>>>, std::vector<std::vector<int>>, std::forward_iterator_tag>::operator++() [_Iterator = __gnu_cxx::__normal_iterator<std::vector<int> *, std::__cxx1998::vector<std::vector<int>>>, _Sequence = std::vector<std::vector<int>>, _Category = std::forward_iterator_tag]\00", align 1
@_ZTSN9__gnu_cxx24__concurrence_lock_errorE = linkonce_odr dso_local constant [39 x i8] c"N9__gnu_cxx24__concurrence_lock_errorE\00", comdat, align 1
@_ZTISt9exception = external constant i8*
@_ZTIN9__gnu_cxx24__concurrence_lock_errorE = linkonce_odr dso_local constant { i8*, i8*, i8* } { i8* bitcast (i8** getelementptr inbounds (i8*, i8** @_ZTVN10__cxxabiv120__si_class_type_infoE, i64 2) to i8*), i8* getelementptr inbounds ([39 x i8], [39 x i8]* @_ZTSN9__gnu_cxx24__concurrence_lock_errorE, i32 0, i32 0), i8* bitcast (i8** @_ZTISt9exception to i8*) }, comdat, align 8
@_ZTVN9__gnu_cxx24__concurrence_lock_errorE = linkonce_odr dso_local unnamed_addr constant { [5 x i8*] } { [5 x i8*] [i8* null, i8* bitcast ({ i8*, i8*, i8* }* @_ZTIN9__gnu_cxx24__concurrence_lock_errorE to i8*), i8* bitcast (void (%"class.std::exception"*)* @_ZNSt9exceptionD2Ev to i8*), i8* bitcast (void (%"class.__gnu_cxx::__concurrence_lock_error"*)* @_ZN9__gnu_cxx24__concurrence_lock_errorD0Ev to i8*), i8* bitcast (i8* (%"class.__gnu_cxx::__concurrence_lock_error"*)* @_ZNK9__gnu_cxx24__concurrence_lock_error4whatEv to i8*)] }, comdat, align 8
@.str.22 = private unnamed_addr constant [36 x i8] c"__gnu_cxx::__concurrence_lock_error\00", align 1
@_ZTSN9__gnu_cxx26__concurrence_unlock_errorE = linkonce_odr dso_local constant [41 x i8] c"N9__gnu_cxx26__concurrence_unlock_errorE\00", comdat, align 1
@_ZTIN9__gnu_cxx26__concurrence_unlock_errorE = linkonce_odr dso_local constant { i8*, i8*, i8* } { i8* bitcast (i8** getelementptr inbounds (i8*, i8** @_ZTVN10__cxxabiv120__si_class_type_infoE, i64 2) to i8*), i8* getelementptr inbounds ([41 x i8], [41 x i8]* @_ZTSN9__gnu_cxx26__concurrence_unlock_errorE, i32 0, i32 0), i8* bitcast (i8** @_ZTISt9exception to i8*) }, comdat, align 8
@_ZTVN9__gnu_cxx26__concurrence_unlock_errorE = linkonce_odr dso_local unnamed_addr constant { [5 x i8*] } { [5 x i8*] [i8* null, i8* bitcast ({ i8*, i8*, i8* }* @_ZTIN9__gnu_cxx26__concurrence_unlock_errorE to i8*), i8* bitcast (void (%"class.std::exception"*)* @_ZNSt9exceptionD2Ev to i8*), i8* bitcast (void (%"class.__gnu_cxx::__concurrence_unlock_error"*)* @_ZN9__gnu_cxx26__concurrence_unlock_errorD0Ev to i8*), i8* bitcast (i8* (%"class.__gnu_cxx::__concurrence_unlock_error"*)* @_ZNK9__gnu_cxx26__concurrence_unlock_error4whatEv to i8*)] }, comdat, align 8
@.str.23 = private unnamed_addr constant [38 x i8] c"__gnu_cxx::__concurrence_unlock_error\00", align 1
@__PRETTY_FUNCTION__._ZNK11__gnu_debug14_Safe_iteratorIN9__gnu_cxx17__normal_iteratorIPNSt7__debug6vectorIiSaIiEEENSt9__cxx19986vectorIS6_SaIS6_EEEEENS4_IS6_SA_EESt20forward_iterator_tagEdeEv = private unnamed_addr constant [423 x i8] c"__gnu_debug::_Safe_iterator::reference __gnu_debug::_Safe_iterator<__gnu_cxx::__normal_iterator<std::vector<int> *, std::__cxx1998::vector<std::vector<int>>>, std::vector<std::vector<int>>, std::forward_iterator_tag>::operator*() const [_Iterator = __gnu_cxx::__normal_iterator<std::vector<int> *, std::__cxx1998::vector<std::vector<int>>>, _Sequence = std::vector<std::vector<int>>, _Category = std::forward_iterator_tag]\00", align 1
@__PRETTY_FUNCTION__._ZN11__gnu_debug14_Safe_iteratorIN9__gnu_cxx17__normal_iteratorIPiNSt9__cxx19986vectorIiSaIiEEEEENSt7__debug6vectorIiS6_EESt20forward_iterator_tagEC2ES8_PKNS_19_Safe_sequence_baseE = private unnamed_addr constant [356 x i8] c"__gnu_debug::_Safe_iterator<__gnu_cxx::__normal_iterator<int *, std::__cxx1998::vector<int>>, std::vector<int>, std::forward_iterator_tag>::_Safe_iterator(_Iterator, const __gnu_debug::_Safe_sequence_base *) [_Iterator = __gnu_cxx::__normal_iterator<int *, std::__cxx1998::vector<int>>, _Sequence = std::vector<int>, _Category = std::forward_iterator_tag]\00", align 1
@_ZTSN9__gnu_cxx17__normal_iteratorIPiNSt9__cxx19986vectorIiSaIiEEEEE = linkonce_odr dso_local constant [65 x i8] c"N9__gnu_cxx17__normal_iteratorIPiNSt9__cxx19986vectorIiSaIiEEEEE\00", comdat, align 1
@_ZTIN9__gnu_cxx17__normal_iteratorIPiNSt9__cxx19986vectorIiSaIiEEEEE = linkonce_odr dso_local constant { i8*, i8* } { i8* bitcast (i8** getelementptr inbounds (i8*, i8** @_ZTVN10__cxxabiv117__class_type_infoE, i64 2) to i8*), i8* getelementptr inbounds ([65 x i8], [65 x i8]* @_ZTSN9__gnu_cxx17__normal_iteratorIPiNSt9__cxx19986vectorIiSaIiEEEEE, i32 0, i32 0) }, comdat, align 8
@__PRETTY_FUNCTION__._ZN11__gnu_debug14_Safe_iteratorIN9__gnu_cxx17__normal_iteratorIPiNSt9__cxx19986vectorIiSaIiEEEEENSt7__debug6vectorIiS6_EESt20forward_iterator_tagEppEv = private unnamed_addr constant [350 x i8] c"_Safe_iterator<_Iterator, _Sequence, _Category> &__gnu_debug::_Safe_iterator<__gnu_cxx::__normal_iterator<int *, std::__cxx1998::vector<int>>, std::vector<int>, std::forward_iterator_tag>::operator++() [_Iterator = __gnu_cxx::__normal_iterator<int *, std::__cxx1998::vector<int>>, _Sequence = std::vector<int>, _Category = std::forward_iterator_tag]\00", align 1
@__PRETTY_FUNCTION__._ZNK11__gnu_debug14_Safe_iteratorIN9__gnu_cxx17__normal_iteratorIPiNSt9__cxx19986vectorIiSaIiEEEEENSt7__debug6vectorIiS6_EESt20forward_iterator_tagEdeEv = private unnamed_addr constant [345 x i8] c"__gnu_debug::_Safe_iterator::reference __gnu_debug::_Safe_iterator<__gnu_cxx::__normal_iterator<int *, std::__cxx1998::vector<int>>, std::vector<int>, std::forward_iterator_tag>::operator*() const [_Iterator = __gnu_cxx::__normal_iterator<int *, std::__cxx1998::vector<int>>, _Sequence = std::vector<int>, _Category = std::forward_iterator_tag]\00", align 1
@__PRETTY_FUNCTION__._ZN11__gnu_debug14_Safe_iteratorISt23_Rb_tree_const_iteratorIiENSt7__debug3setIiSt4lessIiESaIiEEESt20forward_iterator_tagEC2ES2_PKNS_19_Safe_sequence_baseE = private unnamed_addr constant [288 x i8] c"__gnu_debug::_Safe_iterator<std::_Rb_tree_const_iterator<int>, std::set<int>, std::forward_iterator_tag>::_Safe_iterator(_Iterator, const __gnu_debug::_Safe_sequence_base *) [_Iterator = std::_Rb_tree_const_iterator<int>, _Sequence = std::set<int>, _Category = std::forward_iterator_tag]\00", align 1
@_ZTSSt23_Rb_tree_const_iteratorIiE = linkonce_odr dso_local constant [31 x i8] c"St23_Rb_tree_const_iteratorIiE\00", comdat, align 1
@_ZTISt23_Rb_tree_const_iteratorIiE = linkonce_odr dso_local constant { i8*, i8* } { i8* bitcast (i8** getelementptr inbounds (i8*, i8** @_ZTVN10__cxxabiv117__class_type_infoE, i64 2) to i8*), i8* getelementptr inbounds ([31 x i8], [31 x i8]* @_ZTSSt23_Rb_tree_const_iteratorIiE, i32 0, i32 0) }, comdat, align 8
@_ZTSNSt7__debug3setIiSt4lessIiESaIiEEE = linkonce_odr dso_local constant [35 x i8] c"NSt7__debug3setIiSt4lessIiESaIiEEE\00", comdat, align 1
@_ZTSN11__gnu_debug15_Safe_containerINSt7__debug3setIiSt4lessIiESaIiEEES5_NS_19_Safe_node_sequenceELb1EEE = linkonce_odr dso_local constant [101 x i8] c"N11__gnu_debug15_Safe_containerINSt7__debug3setIiSt4lessIiESaIiEEES5_NS_19_Safe_node_sequenceELb1EEE\00", comdat, align 1
@_ZTSN11__gnu_debug19_Safe_node_sequenceINSt7__debug3setIiSt4lessIiESaIiEEEEE = linkonce_odr dso_local constant [73 x i8] c"N11__gnu_debug19_Safe_node_sequenceINSt7__debug3setIiSt4lessIiESaIiEEEEE\00", comdat, align 1
@_ZTSN11__gnu_debug14_Safe_sequenceINSt7__debug3setIiSt4lessIiESaIiEEEEE = linkonce_odr dso_local constant [68 x i8] c"N11__gnu_debug14_Safe_sequenceINSt7__debug3setIiSt4lessIiESaIiEEEEE\00", comdat, align 1
@_ZTIN11__gnu_debug14_Safe_sequenceINSt7__debug3setIiSt4lessIiESaIiEEEEE = linkonce_odr dso_local constant { i8*, i8*, i8* } { i8* bitcast (i8** getelementptr inbounds (i8*, i8** @_ZTVN10__cxxabiv120__si_class_type_infoE, i64 2) to i8*), i8* getelementptr inbounds ([68 x i8], [68 x i8]* @_ZTSN11__gnu_debug14_Safe_sequenceINSt7__debug3setIiSt4lessIiESaIiEEEEE, i32 0, i32 0), i8* bitcast ({ i8*, i8* }* @_ZTIN11__gnu_debug19_Safe_sequence_baseE to i8*) }, comdat, align 8
@_ZTIN11__gnu_debug19_Safe_node_sequenceINSt7__debug3setIiSt4lessIiESaIiEEEEE = linkonce_odr dso_local constant { i8*, i8*, i8* } { i8* bitcast (i8** getelementptr inbounds (i8*, i8** @_ZTVN10__cxxabiv120__si_class_type_infoE, i64 2) to i8*), i8* getelementptr inbounds ([73 x i8], [73 x i8]* @_ZTSN11__gnu_debug19_Safe_node_sequenceINSt7__debug3setIiSt4lessIiESaIiEEEEE, i32 0, i32 0), i8* bitcast ({ i8*, i8*, i8* }* @_ZTIN11__gnu_debug14_Safe_sequenceINSt7__debug3setIiSt4lessIiESaIiEEEEE to i8*) }, comdat, align 8
@_ZTIN11__gnu_debug15_Safe_containerINSt7__debug3setIiSt4lessIiESaIiEEES5_NS_19_Safe_node_sequenceELb1EEE = linkonce_odr dso_local constant { i8*, i8*, i8* } { i8* bitcast (i8** getelementptr inbounds (i8*, i8** @_ZTVN10__cxxabiv120__si_class_type_infoE, i64 2) to i8*), i8* getelementptr inbounds ([101 x i8], [101 x i8]* @_ZTSN11__gnu_debug15_Safe_containerINSt7__debug3setIiSt4lessIiESaIiEEES5_NS_19_Safe_node_sequenceELb1EEE, i32 0, i32 0), i8* bitcast ({ i8*, i8*, i8* }* @_ZTIN11__gnu_debug19_Safe_node_sequenceINSt7__debug3setIiSt4lessIiESaIiEEEEE to i8*) }, comdat, align 8
@_ZTSNSt9__cxx19983setIiSt4lessIiESaIiEEE = linkonce_odr dso_local constant [37 x i8] c"NSt9__cxx19983setIiSt4lessIiESaIiEEE\00", comdat, align 1
@_ZTINSt9__cxx19983setIiSt4lessIiESaIiEEE = linkonce_odr dso_local constant { i8*, i8* } { i8* bitcast (i8** getelementptr inbounds (i8*, i8** @_ZTVN10__cxxabiv117__class_type_infoE, i64 2) to i8*), i8* getelementptr inbounds ([37 x i8], [37 x i8]* @_ZTSNSt9__cxx19983setIiSt4lessIiESaIiEEE, i32 0, i32 0) }, comdat, align 8
@_ZTINSt7__debug3setIiSt4lessIiESaIiEEE = linkonce_odr dso_local constant { i8*, i8*, i32, i32, i8*, i64, i8*, i64 } { i8* bitcast (i8** getelementptr inbounds (i8*, i8** @_ZTVN10__cxxabiv121__vmi_class_type_infoE, i64 2) to i8*), i8* getelementptr inbounds ([35 x i8], [35 x i8]* @_ZTSNSt7__debug3setIiSt4lessIiESaIiEEE, i32 0, i32 0), i32 0, i32 2, i8* bitcast ({ i8*, i8*, i8* }* @_ZTIN11__gnu_debug15_Safe_containerINSt7__debug3setIiSt4lessIiESaIiEEES5_NS_19_Safe_node_sequenceELb1EEE to i8*), i64 2, i8* bitcast ({ i8*, i8* }* @_ZTINSt9__cxx19983setIiSt4lessIiESaIiEEE to i8*), i64 6146 }, comdat, align 8
@__PRETTY_FUNCTION__._ZN11__gnu_debug14_Safe_iteratorISt23_Rb_tree_const_iteratorIiENSt7__debug3setIiSt4lessIiESaIiEEESt20forward_iterator_tagEC2EOSA_ = private unnamed_addr constant [287 x i8] c"__gnu_debug::_Safe_iterator<std::_Rb_tree_const_iterator<int>, std::set<int>, std::forward_iterator_tag>::_Safe_iterator(_Safe_iterator<_Iterator, _Sequence, _Category> &&) [_Iterator = std::_Rb_tree_const_iterator<int>, _Sequence = std::set<int>, _Category = std::forward_iterator_tag]\00", align 1
@.str.24 = private unnamed_addr constant [6 x i8] c"other\00", align 1
@llvm.global_ctors = appending global [1 x { i32, void ()*, i8* }] [{ i32, void ()*, i8* } { i32 65535, void ()* @_GLOBAL__sub_I_s596957618.cpp, i8* null }]

; Function Attrs: minsize optsize
declare void @_ZNSt8ios_base4InitC1Ev(%"class.std::ios_base::Init"* nonnull align 1 dereferenceable(1)) unnamed_addr #0

; Function Attrs: minsize nounwind optsize
declare void @_ZNSt8ios_base4InitD1Ev(%"class.std::ios_base::Init"* nonnull align 1 dereferenceable(1)) unnamed_addr #1

; Function Attrs: nofree nounwind
declare i32 @__cxa_atexit(void (i8*)*, i8*, i8*) local_unnamed_addr #2

; Function Attrs: minsize mustprogress optsize sspstrong uwtable
define dso_local void @_Z9to_stringRKNSt7__cxx1112basic_stringIcSt11char_traitsIcESaIcEEE(%"class.std::__cxx11::basic_string"* noalias sret(%"class.std::__cxx11::basic_string") align 8 %0, %"class.std::__cxx11::basic_string"* nonnull align 8 dereferenceable(32) %1) local_unnamed_addr #3 personality i8* bitcast (i32 (...)* @__gxx_personality_v0 to i8*) {
  %3 = alloca %"class.std::__cxx11::basic_string", align 8
  %4 = bitcast %"class.std::__cxx11::basic_string"* %3 to i8*
  call void @llvm.lifetime.start.p0i8(i64 32, i8* nonnull %4) #25
  call void @_ZStplIcSt11char_traitsIcESaIcEENSt7__cxx1112basic_stringIT_T0_T1_EES5_RKS8_(%"class.std::__cxx11::basic_string"* nonnull sret(%"class.std::__cxx11::basic_string") align 8 %3, i8 signext 34, %"class.std::__cxx11::basic_string"* nonnull align 8 dereferenceable(32) %1) #26
  invoke void @_ZStplIcSt11char_traitsIcESaIcEENSt7__cxx1112basic_stringIT_T0_T1_EEOS8_S5_(%"class.std::__cxx11::basic_string"* sret(%"class.std::__cxx11::basic_string") align 8 %0, %"class.std::__cxx11::basic_string"* nonnull align 8 dereferenceable(32) %3, i8 signext 34) #26
          to label %5 unwind label %6

5:                                                ; preds = %2
  call void @_ZNSt7__cxx1112basic_stringIcSt11char_traitsIcESaIcEED2Ev(%"class.std::__cxx11::basic_string"* nonnull align 8 dereferenceable(32) %3) #27
  call void @llvm.lifetime.end.p0i8(i64 32, i8* nonnull %4) #25
  ret void

6:                                                ; preds = %2
  %7 = landingpad { i8*, i32 }
          cleanup
  call void @_ZNSt7__cxx1112basic_stringIcSt11char_traitsIcESaIcEED2Ev(%"class.std::__cxx11::basic_string"* nonnull align 8 dereferenceable(32) %3) #27
  call void @llvm.lifetime.end.p0i8(i64 32, i8* nonnull %4) #25
  resume { i8*, i32 } %7
}

; Function Attrs: inlinehint minsize mustprogress optsize sspstrong uwtable
define linkonce_odr dso_local void @_ZStplIcSt11char_traitsIcESaIcEENSt7__cxx1112basic_stringIT_T0_T1_EEOS8_S5_(%"class.std::__cxx11::basic_string"* noalias sret(%"class.std::__cxx11::basic_string") align 8 %0, %"class.std::__cxx11::basic_string"* nonnull align 8 dereferenceable(32) %1, i8 signext %2) local_unnamed_addr #4 comdat {
  %4 = tail call nonnull align 8 dereferenceable(32) %"class.std::__cxx11::basic_string"* @_ZNSt7__cxx1112basic_stringIcSt11char_traitsIcESaIcEE6appendEmc(%"class.std::__cxx11::basic_string"* nonnull align 8 dereferenceable(32) %1, i64 1, i8 signext %2) #26
  tail call void @_ZNSt7__cxx1112basic_stringIcSt11char_traitsIcESaIcEEC2EOS4_(%"class.std::__cxx11::basic_string"* nonnull align 8 dereferenceable(32) %0, %"class.std::__cxx11::basic_string"* nonnull align 8 dereferenceable(32) %4) #27
  ret void
}

; Function Attrs: argmemonly mustprogress nofree nosync nounwind willreturn
declare void @llvm.lifetime.start.p0i8(i64 immarg, i8* nocapture) #5

; Function Attrs: minsize optsize sspstrong uwtable
define linkonce_odr dso_local void @_ZStplIcSt11char_traitsIcESaIcEENSt7__cxx1112basic_stringIT_T0_T1_EES5_RKS8_(%"class.std::__cxx11::basic_string"* noalias sret(%"class.std::__cxx11::basic_string") align 8 %0, i8 signext %1, %"class.std::__cxx11::basic_string"* nonnull align 8 dereferenceable(32) %2) local_unnamed_addr #6 comdat personality i8* bitcast (i32 (...)* @__gxx_personality_v0 to i8*) {
  %4 = getelementptr inbounds %"class.std::__cxx11::basic_string", %"class.std::__cxx11::basic_string"* %0, i64 0, i32 2
  %5 = bitcast %"class.std::__cxx11::basic_string"* %0 to %union.anon**
  store %union.anon* %4, %union.anon** %5, align 8, !tbaa !5
  %6 = getelementptr inbounds %"class.std::__cxx11::basic_string", %"class.std::__cxx11::basic_string"* %0, i64 0, i32 1
  store i64 0, i64* %6, align 8, !tbaa !10
  %7 = bitcast %union.anon* %4 to i8*
  store i8 0, i8* %7, align 8, !tbaa !13
  %8 = getelementptr inbounds %"class.std::__cxx11::basic_string", %"class.std::__cxx11::basic_string"* %2, i64 0, i32 1
  %9 = load i64, i64* %8, align 8, !tbaa !10
  %10 = add i64 %9, 1
  invoke void @_ZNSt7__cxx1112basic_stringIcSt11char_traitsIcESaIcEE7reserveEm(%"class.std::__cxx11::basic_string"* nonnull align 8 dereferenceable(32) %0, i64 %10) #26
          to label %11 unwind label %15

11:                                               ; preds = %3
  %12 = invoke nonnull align 8 dereferenceable(32) %"class.std::__cxx11::basic_string"* @_ZNSt7__cxx1112basic_stringIcSt11char_traitsIcESaIcEE6appendEmc(%"class.std::__cxx11::basic_string"* nonnull align 8 dereferenceable(32) %0, i64 1, i8 signext %1) #26
          to label %13 unwind label %15

13:                                               ; preds = %11
  %14 = invoke nonnull align 8 dereferenceable(32) %"class.std::__cxx11::basic_string"* @_ZNSt7__cxx1112basic_stringIcSt11char_traitsIcESaIcEE6appendERKS4_(%"class.std::__cxx11::basic_string"* nonnull align 8 dereferenceable(32) %0, %"class.std::__cxx11::basic_string"* nonnull align 8 dereferenceable(32) %2) #26
          to label %17 unwind label %15

15:                                               ; preds = %13, %11, %3
  %16 = landingpad { i8*, i32 }
          cleanup
  tail call void @_ZNSt7__cxx1112basic_stringIcSt11char_traitsIcESaIcEED2Ev(%"class.std::__cxx11::basic_string"* nonnull align 8 dereferenceable(32) %0) #27
  resume { i8*, i32 } %16

17:                                               ; preds = %13
  ret void
}

declare i32 @__gxx_personality_v0(...)

; Function Attrs: minsize nounwind optsize sspstrong uwtable
define linkonce_odr dso_local void @_ZNSt7__cxx1112basic_stringIcSt11char_traitsIcESaIcEED2Ev(%"class.std::__cxx11::basic_string"* nonnull align 8 dereferenceable(32) %0) unnamed_addr #7 comdat align 2 personality i8* bitcast (i32 (...)* @__gxx_personality_v0 to i8*) {
  invoke void @_ZNSt7__cxx1112basic_stringIcSt11char_traitsIcESaIcEE10_M_disposeEv(%"class.std::__cxx11::basic_string"* nonnull align 8 dereferenceable(32) %0) #26
          to label %2 unwind label %3

2:                                                ; preds = %1
  ret void

3:                                                ; preds = %1
  %4 = landingpad { i8*, i32 }
          catch i8* null
  %5 = extractvalue { i8*, i32 } %4, 0
  tail call void @__clang_call_terminate(i8* %5) #28
  unreachable
}

; Function Attrs: argmemonly mustprogress nofree nosync nounwind willreturn
declare void @llvm.lifetime.end.p0i8(i64 immarg, i8* nocapture) #5

; Function Attrs: minsize optsize sspstrong uwtable
define dso_local void @_Z9to_stringB5cxx11c(%"class.std::__cxx11::basic_string"* noalias sret(%"class.std::__cxx11::basic_string") align 8 %0, i8 signext %1) local_unnamed_addr #6 personality i8* bitcast (i32 (...)* @__gxx_personality_v0 to i8*) {
  %3 = alloca i8, align 1
  %4 = alloca %"class.std::__cxx11::basic_string", align 8
  %5 = alloca %"class.std::allocator", align 1
  store i8 %1, i8* %3, align 1, !tbaa !13
  %6 = bitcast %"class.std::__cxx11::basic_string"* %4 to i8*
  call void @llvm.lifetime.start.p0i8(i64 32, i8* nonnull %6) #25
  %7 = getelementptr inbounds %"class.std::allocator", %"class.std::allocator"* %5, i64 0, i32 0
  call void @llvm.lifetime.start.p0i8(i64 1, i8* nonnull %7) #25
  call void @_ZNSt7__cxx1112basic_stringIcSt11char_traitsIcESaIcEEC2EPKcRKS3_(%"class.std::__cxx11::basic_string"* nonnull align 8 dereferenceable(32) %4, i8* nonnull %3, %"class.std::allocator"* nonnull align 1 dereferenceable(1) %5) #26
  invoke void @_Z9to_stringRKNSt7__cxx1112basic_stringIcSt11char_traitsIcESaIcEEE(%"class.std::__cxx11::basic_string"* sret(%"class.std::__cxx11::basic_string") align 8 %0, %"class.std::__cxx11::basic_string"* nonnull align 8 dereferenceable(32) %4) #26
          to label %8 unwind label %9

8:                                                ; preds = %2
  call void @_ZNSt7__cxx1112basic_stringIcSt11char_traitsIcESaIcEED2Ev(%"class.std::__cxx11::basic_string"* nonnull align 8 dereferenceable(32) %4) #27
  call void @llvm.lifetime.end.p0i8(i64 1, i8* nonnull %7) #25
  call void @llvm.lifetime.end.p0i8(i64 32, i8* nonnull %6) #25
  ret void

9:                                                ; preds = %2
  %10 = landingpad { i8*, i32 }
          cleanup
  call void @_ZNSt7__cxx1112basic_stringIcSt11char_traitsIcESaIcEED2Ev(%"class.std::__cxx11::basic_string"* nonnull align 8 dereferenceable(32) %4) #27
  call void @llvm.lifetime.end.p0i8(i64 1, i8* nonnull %7) #25
  call void @llvm.lifetime.end.p0i8(i64 32, i8* nonnull %6) #25
  resume { i8*, i32 } %10
}

; Function Attrs: minsize optsize sspstrong uwtable
define linkonce_odr dso_local void @_ZNSt7__cxx1112basic_stringIcSt11char_traitsIcESaIcEEC2EPKcRKS3_(%"class.std::__cxx11::basic_string"* nonnull align 8 dereferenceable(32) %0, i8* %1, %"class.std::allocator"* nonnull align 1 dereferenceable(1) %2) unnamed_addr #6 comdat align 2 personality i8* bitcast (i32 (...)* @__gxx_personality_v0 to i8*) {
  %4 = getelementptr inbounds %"class.std::__cxx11::basic_string", %"class.std::__cxx11::basic_string"* %0, i64 0, i32 2
  %5 = bitcast %"class.std::__cxx11::basic_string"* %0 to %union.anon**
  store %union.anon* %4, %union.anon** %5, align 8, !tbaa !5
  %6 = icmp eq i8* %1, null
  br i1 %6, label %10, label %7

7:                                                ; preds = %3
  %8 = tail call i64 @strlen(i8* noundef nonnull dereferenceable(1) %1) #27
  %9 = getelementptr inbounds i8, i8* %1, i64 %8
  br label %10

10:                                               ; preds = %3, %7
  %11 = phi i8* [ %9, %7 ], [ inttoptr (i64 -1 to i8*), %3 ]
  tail call void @_ZNSt7__cxx1112basic_stringIcSt11char_traitsIcESaIcEE12_M_constructIPKcEEvT_S8_St20forward_iterator_tag(%"class.std::__cxx11::basic_string"* nonnull align 8 dereferenceable(32) %0, i8* %1, i8* %11) #26
  ret void
}

; Function Attrs: minsize optsize sspstrong uwtable
define dso_local void @_Z9to_stringB5cxx11b(%"class.std::__cxx11::basic_string"* noalias nonnull sret(%"class.std::__cxx11::basic_string") align 8 %0, i1 zeroext %1) local_unnamed_addr #6 personality i8* bitcast (i32 (...)* @__gxx_personality_v0 to i8*) {
  %3 = alloca %"class.std::allocator", align 1
  %4 = select i1 %1, i8* getelementptr inbounds ([5 x i8], [5 x i8]* @.str, i64 0, i64 0), i8* getelementptr inbounds ([6 x i8], [6 x i8]* @.str.1, i64 0, i64 0)
  %5 = getelementptr inbounds %"class.std::allocator", %"class.std::allocator"* %3, i64 0, i32 0
  call void @llvm.lifetime.start.p0i8(i64 1, i8* nonnull %5) #25
  call void @_ZNSt7__cxx1112basic_stringIcSt11char_traitsIcESaIcEEC2EPKcRKS3_(%"class.std::__cxx11::basic_string"* nonnull align 8 dereferenceable(32) %0, i8* %4, %"class.std::allocator"* nonnull align 1 dereferenceable(1) %3) #26
  call void @llvm.lifetime.end.p0i8(i64 1, i8* nonnull %5) #25
  ret void
}

; Function Attrs: minsize mustprogress optsize sspstrong uwtable
define dso_local void @_Z9debug_outv() local_unnamed_addr #3 {
  %1 = tail call nonnull align 8 dereferenceable(8) %"class.std::basic_ostream"* @_ZStlsISt11char_traitsIcEERSt13basic_ostreamIcT_ES5_PKc(%"class.std::basic_ostream"* nonnull align 8 dereferenceable(8) @_ZSt4cerr, i8* getelementptr inbounds ([2 x i8], [2 x i8]* @.str.2, i64 0, i64 0)) #26
  ret void
}

; Function Attrs: inlinehint minsize mustprogress optsize sspstrong uwtable
declare nonnull align 8 dereferenceable(8) %"class.std::basic_ostream"* @_ZStlsISt11char_traitsIcEERSt13basic_ostreamIcT_ES5_PKc(%"class.std::basic_ostream"* nonnull align 8 dereferenceable(8), i8*) local_unnamed_addr #4

; Function Attrs: minsize mustprogress optsize sspstrong uwtable
define dso_local void @_Z5Printv() local_unnamed_addr #3 {
  %1 = tail call nonnull align 8 dereferenceable(8) %"class.std::basic_ostream"* @_ZStlsISt11char_traitsIcEERSt13basic_ostreamIcT_ES5_PKc(%"class.std::basic_ostream"* nonnull align 8 dereferenceable(8) @_ZSt4cout, i8* getelementptr inbounds ([2 x i8], [2 x i8]* @.str.2, i64 0, i64 0)) #26
  ret void
}

; Function Attrs: minsize norecurse optsize sspstrong uwtable
define dso_local i32 @main() local_unnamed_addr #8 personality i8* bitcast (i32 (...)* @__gxx_personality_v0 to i8*) {
  %1 = alloca i32, align 4
  %2 = alloca i32, align 4
  %3 = alloca %"class.std::__debug::vector", align 8
  %4 = alloca %"class.std::allocator.0", align 1
  %5 = alloca %"class.std::__debug::vector", align 8
  %6 = alloca %"class.std::allocator.0", align 1
  %7 = alloca %class.Unionfind, align 8
  %8 = alloca i32, align 4
  %9 = alloca i32, align 4
  %10 = alloca %"class.std::__debug::vector.3", align 8
  %11 = alloca %"class.__gnu_debug::_Safe_iterator", align 8
  %12 = alloca %"class.__gnu_debug::_Safe_iterator", align 8
  %13 = alloca %"class.std::__debug::vector", align 8
  %14 = alloca %"class.std::__debug::set", align 8
  %15 = alloca %"class.__gnu_debug::_Safe_iterator.23", align 8
  %16 = alloca %"class.__gnu_debug::_Safe_iterator.23", align 8
  %17 = alloca i32, align 4
  %18 = alloca %"struct.std::pair", align 8
  %19 = alloca %"class.__gnu_debug::_Safe_iterator.23", align 8
  %20 = alloca %"class.__gnu_debug::_Safe_iterator.23", align 8
  %21 = alloca %"class.__gnu_debug::_Safe_iterator.27", align 8
  %22 = alloca %"class.__gnu_debug::_Safe_iterator.27", align 8
  %23 = tail call zeroext i1 @_ZNSt8ios_base15sync_with_stdioEb(i1 zeroext false) #26
  %24 = load i8*, i8** bitcast (%"class.std::basic_istream"* @_ZSt3cin to i8**), align 8, !tbaa !14
  %25 = getelementptr i8, i8* %24, i64 -24
  %26 = bitcast i8* %25 to i64*
  %27 = load i64, i64* %26, align 8
  %28 = add nsw i64 %27, 216
  %29 = getelementptr inbounds i8, i8* bitcast (%"class.std::basic_istream"* @_ZSt3cin to i8*), i64 %28
  %30 = bitcast i8* %29 to %"class.std::basic_ostream"**
  store %"class.std::basic_ostream"* null, %"class.std::basic_ostream"** %30, align 8, !tbaa !16
  %31 = bitcast i32* %1 to i8*
  call void @llvm.lifetime.start.p0i8(i64 4, i8* nonnull %31) #25
  %32 = bitcast i32* %2 to i8*
  call void @llvm.lifetime.start.p0i8(i64 4, i8* nonnull %32) #25
  %33 = call nonnull align 8 dereferenceable(16) %"class.std::basic_istream"* @_ZNSirsERi(%"class.std::basic_istream"* nonnull align 8 dereferenceable(16) @_ZSt3cin, i32* nonnull align 4 dereferenceable(4) %1) #26
  %34 = call nonnull align 8 dereferenceable(16) %"class.std::basic_istream"* @_ZNSirsERi(%"class.std::basic_istream"* nonnull align 8 dereferenceable(16) %33, i32* nonnull align 4 dereferenceable(4) %2) #26
  %35 = bitcast %"class.std::__debug::vector"* %3 to i8*
  call void @llvm.lifetime.start.p0i8(i64 56, i8* nonnull %35) #25
  %36 = load i32, i32* %1, align 4, !tbaa !19
  %37 = sext i32 %36 to i64
  %38 = getelementptr inbounds %"class.std::allocator.0", %"class.std::allocator.0"* %4, i64 0, i32 0
  call void @llvm.lifetime.start.p0i8(i64 1, i8* nonnull %38) #25
  call void @_ZNSt7__debug6vectorIiSaIiEEC2EmRKS1_(%"class.std::__debug::vector"* nonnull align 8 dereferenceable(56) %3, i64 %37, %"class.std::allocator.0"* nonnull align 1 dereferenceable(1) %4) #26
  call void @llvm.lifetime.end.p0i8(i64 1, i8* nonnull %38) #25
  %39 = bitcast %"class.std::__debug::vector"* %5 to i8*
  call void @llvm.lifetime.start.p0i8(i64 56, i8* nonnull %39) #25
  %40 = load i32, i32* %1, align 4, !tbaa !19
  %41 = sext i32 %40 to i64
  %42 = getelementptr inbounds %"class.std::allocator.0", %"class.std::allocator.0"* %6, i64 0, i32 0
  call void @llvm.lifetime.start.p0i8(i64 1, i8* nonnull %42) #25
  invoke void @_ZNSt7__debug6vectorIiSaIiEEC2EmRKS1_(%"class.std::__debug::vector"* nonnull align 8 dereferenceable(56) %5, i64 %41, %"class.std::allocator.0"* nonnull align 1 dereferenceable(1) %6) #26
          to label %43 unwind label %54

43:                                               ; preds = %0
  call void @llvm.lifetime.end.p0i8(i64 1, i8* nonnull %42) #25
  %44 = bitcast %class.Unionfind* %7 to i8*
  call void @llvm.lifetime.start.p0i8(i64 184, i8* nonnull %44) #25
  %45 = load i32, i32* %1, align 4, !tbaa !19
  invoke void @_ZN9UnionfindC2Ei(%class.Unionfind* nonnull align 8 dereferenceable(180) %7, i32 %45) #26
          to label %46 unwind label %56

46:                                               ; preds = %43, %61
  %47 = phi i64 [ %70, %61 ], [ 0, %43 ]
  %48 = load i32, i32* %1, align 4, !tbaa !19
  %49 = sext i32 %48 to i64
  %50 = icmp slt i64 %47, %49
  br i1 %50, label %58, label %51

51:                                               ; preds = %46
  %52 = bitcast i32* %8 to i8*
  %53 = bitcast i32* %9 to i8*
  br label %73

54:                                               ; preds = %0
  %55 = landingpad { i8*, i32 }
          cleanup
  call void @llvm.lifetime.end.p0i8(i64 1, i8* nonnull %42) #25
  br label %187

56:                                               ; preds = %43
  %57 = landingpad { i8*, i32 }
          cleanup
  br label %185

58:                                               ; preds = %46
  %59 = call nonnull align 4 dereferenceable(4) i32* @_ZNSt7__debug6vectorIiSaIiEEixEm(%"class.std::__debug::vector"* nonnull align 8 dereferenceable(56) %3, i64 %47) #27
  %60 = invoke nonnull align 8 dereferenceable(16) %"class.std::basic_istream"* @_ZNSirsERi(%"class.std::basic_istream"* nonnull align 8 dereferenceable(16) @_ZSt3cin, i32* nonnull align 4 dereferenceable(4) %59) #26
          to label %61 unwind label %71

61:                                               ; preds = %58
  %62 = call nonnull align 4 dereferenceable(4) i32* @_ZNSt7__debug6vectorIiSaIiEEixEm(%"class.std::__debug::vector"* nonnull align 8 dereferenceable(56) %3, i64 %47) #27
  %63 = load i32, i32* %62, align 4, !tbaa !19
  %64 = add nsw i32 %63, -1
  store i32 %64, i32* %62, align 4, !tbaa !19
  %65 = call nonnull align 4 dereferenceable(4) i32* @_ZNSt7__debug6vectorIiSaIiEEixEm(%"class.std::__debug::vector"* nonnull align 8 dereferenceable(56) %3, i64 %47) #27
  %66 = load i32, i32* %65, align 4, !tbaa !19
  %67 = sext i32 %66 to i64
  %68 = call nonnull align 4 dereferenceable(4) i32* @_ZNSt7__debug6vectorIiSaIiEEixEm(%"class.std::__debug::vector"* nonnull align 8 dereferenceable(56) %5, i64 %67) #27
  %69 = trunc i64 %47 to i32
  store i32 %69, i32* %68, align 4, !tbaa !19
  %70 = add nuw nsw i64 %47, 1
  br label %46, !llvm.loop !21

71:                                               ; preds = %58
  %72 = landingpad { i8*, i32 }
          cleanup
  br label %183

73:                                               ; preds = %51, %89
  %74 = phi i64 [ 0, %51 ], [ %90, %89 ]
  %75 = load i32, i32* %2, align 4, !tbaa !19
  %76 = sext i32 %75 to i64
  %77 = icmp slt i64 %74, %76
  br i1 %77, label %80, label %78

78:                                               ; preds = %73
  %79 = bitcast %"class.std::__debug::vector.3"* %10 to i8*
  call void @llvm.lifetime.start.p0i8(i64 56, i8* nonnull %79) #25
  invoke void @_ZN9Unionfind5groupEv(%"class.std::__debug::vector.3"* nonnull sret(%"class.std::__debug::vector.3") align 8 %10, %class.Unionfind* nonnull align 8 dereferenceable(180) %7) #26
          to label %93 unwind label %134

80:                                               ; preds = %73
  call void @llvm.lifetime.start.p0i8(i64 4, i8* nonnull %52) #25
  call void @llvm.lifetime.start.p0i8(i64 4, i8* nonnull %53) #25
  %81 = invoke nonnull align 8 dereferenceable(16) %"class.std::basic_istream"* @_ZNSirsERi(%"class.std::basic_istream"* nonnull align 8 dereferenceable(16) @_ZSt3cin, i32* nonnull align 4 dereferenceable(4) %8) #26
          to label %82 unwind label %91

82:                                               ; preds = %80
  %83 = invoke nonnull align 8 dereferenceable(16) %"class.std::basic_istream"* @_ZNSirsERi(%"class.std::basic_istream"* nonnull align 8 dereferenceable(16) %81, i32* nonnull align 4 dereferenceable(4) %9) #26
          to label %84 unwind label %91

84:                                               ; preds = %82
  %85 = load i32, i32* %8, align 4, !tbaa !19
  %86 = add nsw i32 %85, -1
  store i32 %86, i32* %8, align 4, !tbaa !19
  %87 = load i32, i32* %9, align 4, !tbaa !19
  %88 = add nsw i32 %87, -1
  store i32 %88, i32* %9, align 4, !tbaa !19
  invoke void @_ZN9Unionfind5uniteEii(%class.Unionfind* nonnull align 8 dereferenceable(180) %7, i32 %86, i32 %88) #26
          to label %89 unwind label %91

89:                                               ; preds = %84
  call void @llvm.lifetime.end.p0i8(i64 4, i8* nonnull %53) #25
  call void @llvm.lifetime.end.p0i8(i64 4, i8* nonnull %52) #25
  %90 = add nuw nsw i64 %74, 1
  br label %73, !llvm.loop !23

91:                                               ; preds = %84, %82, %80
  %92 = landingpad { i8*, i32 }
          cleanup
  call void @llvm.lifetime.end.p0i8(i64 4, i8* nonnull %53) #25
  call void @llvm.lifetime.end.p0i8(i64 4, i8* nonnull %52) #25
  br label %183

93:                                               ; preds = %78
  %94 = bitcast %"class.__gnu_debug::_Safe_iterator"* %11 to i8*
  call void @llvm.lifetime.start.p0i8(i64 40, i8* nonnull %94) #25
  call void @_ZNSt7__debug6vectorINS0_IiSaIiEEESaIS2_EE5beginEv(%"class.__gnu_debug::_Safe_iterator"* nonnull sret(%"class.__gnu_debug::_Safe_iterator") align 8 %11, %"class.std::__debug::vector.3"* nonnull align 8 dereferenceable(56) %10) #27
  %95 = bitcast %"class.__gnu_debug::_Safe_iterator"* %12 to i8*
  call void @llvm.lifetime.start.p0i8(i64 40, i8* nonnull %95) #25
  call void @_ZNSt7__debug6vectorINS0_IiSaIiEEESaIS2_EE3endEv(%"class.__gnu_debug::_Safe_iterator"* nonnull sret(%"class.__gnu_debug::_Safe_iterator") align 8 %12, %"class.std::__debug::vector.3"* nonnull align 8 dereferenceable(56) %10) #27
  %96 = bitcast %"class.std::__debug::vector"* %13 to i8*
  %97 = getelementptr inbounds %"class.__gnu_debug::_Safe_iterator", %"class.__gnu_debug::_Safe_iterator"* %11, i64 0, i32 0, i32 0
  %98 = bitcast %"class.std::__debug::set"* %14 to i8*
  %99 = getelementptr inbounds %"class.std::__debug::set", %"class.std::__debug::set"* %14, i64 0, i32 0, i32 0, i32 0, i32 0, i32 2
  %100 = getelementptr inbounds %"class.std::__debug::set", %"class.std::__debug::set"* %14, i64 0, i32 1, i32 0, i32 0, i32 0, i32 0, i32 0
  %101 = getelementptr inbounds i8, i8* %100, i64 8
  %102 = bitcast i8* %101 to i32*
  %103 = getelementptr inbounds i8, i8* %100, i64 16
  %104 = bitcast i8* %103 to %"struct.std::_Rb_tree_node_base"**
  %105 = getelementptr inbounds i8, i8* %100, i64 24
  %106 = bitcast i8* %105 to i8**
  %107 = getelementptr inbounds i8, i8* %100, i64 32
  %108 = bitcast i8* %107 to i8**
  %109 = getelementptr inbounds i8, i8* %100, i64 40
  %110 = bitcast i8* %109 to i64*
  %111 = bitcast %"class.__gnu_debug::_Safe_iterator.23"* %15 to i8*
  %112 = bitcast %"class.__gnu_debug::_Safe_iterator.23"* %16 to i8*
  %113 = bitcast i32* %17 to i8*
  %114 = getelementptr inbounds %"class.__gnu_debug::_Safe_iterator.23", %"class.__gnu_debug::_Safe_iterator.23"* %15, i64 0, i32 0, i32 0
  %115 = getelementptr inbounds %"struct.std::pair", %"struct.std::pair"* %18, i64 0, i32 0, i32 0, i32 1
  %116 = getelementptr inbounds %"class.__gnu_debug::_Safe_iterator.23", %"class.__gnu_debug::_Safe_iterator.23"* %16, i64 0, i32 0, i32 0, i32 1
  %117 = getelementptr inbounds %"class.__gnu_debug::_Safe_iterator.23", %"class.__gnu_debug::_Safe_iterator.23"* %15, i64 0, i32 0, i32 0, i32 1
  %118 = bitcast %"class.__gnu_debug::_Safe_iterator.23"* %19 to i8*
  %119 = bitcast %"class.__gnu_debug::_Safe_iterator.23"* %20 to i8*
  %120 = getelementptr inbounds %"class.__gnu_debug::_Safe_iterator.23", %"class.__gnu_debug::_Safe_iterator.23"* %19, i64 0, i32 0, i32 0
  %121 = bitcast %"class.__gnu_debug::_Safe_iterator.27"* %21 to i8*
  %122 = bitcast %"class.__gnu_debug::_Safe_iterator.27"* %22 to i8*
  %123 = getelementptr inbounds %"class.__gnu_debug::_Safe_iterator.27", %"class.__gnu_debug::_Safe_iterator.27"* %22, i64 0, i32 0, i32 1
  %124 = getelementptr inbounds %"class.__gnu_debug::_Safe_iterator.27", %"class.__gnu_debug::_Safe_iterator.27"* %21, i64 0, i32 0, i32 1
  %125 = getelementptr inbounds %"class.__gnu_debug::_Safe_iterator.23", %"class.__gnu_debug::_Safe_iterator.23"* %20, i64 0, i32 0, i32 0, i32 1
  %126 = getelementptr inbounds %"class.__gnu_debug::_Safe_iterator.23", %"class.__gnu_debug::_Safe_iterator.23"* %19, i64 0, i32 0, i32 0, i32 1
  br label %127

127:                                              ; preds = %154, %93
  %128 = phi i32 [ 0, %93 ], [ %152, %154 ]
  %129 = call zeroext i1 @_ZN11__gnu_debugneERKNS_14_Safe_iteratorIN9__gnu_cxx17__normal_iteratorIPNSt7__debug6vectorIiSaIiEEENSt9__cxx19986vectorIS6_SaIS6_EEEEENS4_IS6_SA_EESt26random_access_iterator_tagEESH_(%"class.__gnu_debug::_Safe_iterator"* nonnull align 8 dereferenceable(40) %11, %"class.__gnu_debug::_Safe_iterator"* nonnull align 8 dereferenceable(40) %12) #27
  br i1 %129, label %136, label %130

130:                                              ; preds = %127
  %131 = getelementptr inbounds %"class.__gnu_debug::_Safe_iterator", %"class.__gnu_debug::_Safe_iterator"* %12, i64 0, i32 0, i32 0, i32 1
  call void @_ZN11__gnu_debug19_Safe_iterator_baseD2Ev(%"class.__gnu_debug::_Safe_iterator_base"* nonnull align 8 dereferenceable(32) %131) #27
  call void @llvm.lifetime.end.p0i8(i64 40, i8* nonnull %95) #25
  %132 = getelementptr inbounds %"class.__gnu_debug::_Safe_iterator", %"class.__gnu_debug::_Safe_iterator"* %11, i64 0, i32 0, i32 0, i32 1
  call void @_ZN11__gnu_debug19_Safe_iterator_baseD2Ev(%"class.__gnu_debug::_Safe_iterator_base"* nonnull align 8 dereferenceable(32) %132) #27
  call void @llvm.lifetime.end.p0i8(i64 40, i8* nonnull %94) #25
  %133 = invoke nonnull align 8 dereferenceable(8) %"class.std::basic_ostream"* @_ZNSolsEi(%"class.std::basic_ostream"* nonnull align 8 dereferenceable(8) @_ZSt4cout, i32 %128) #26
          to label %174 unwind label %177

134:                                              ; preds = %78
  %135 = landingpad { i8*, i32 }
          cleanup
  br label %181

136:                                              ; preds = %127
  call void @llvm.lifetime.start.p0i8(i64 56, i8* nonnull %96) #25
  %137 = call nonnull align 8 dereferenceable(56) %"class.std::__debug::vector"* @_ZNK11__gnu_debug14_Safe_iteratorIN9__gnu_cxx17__normal_iteratorIPNSt7__debug6vectorIiSaIiEEENSt9__cxx19986vectorIS6_SaIS6_EEEEENS4_IS6_SA_EESt20forward_iterator_tagEdeEv(%"class.__gnu_debug::_Safe_iterator.15"* nonnull align 8 dereferenceable(40) %97) #27
  invoke void @_ZNSt7__debug6vectorIiSaIiEEC2ERKS2_(%"class.std::__debug::vector"* nonnull align 8 dereferenceable(56) %13, %"class.std::__debug::vector"* nonnull align 8 dereferenceable(56) %137) #26
          to label %138 unwind label %142

138:                                              ; preds = %136
  call void @llvm.lifetime.start.p0i8(i64 72, i8* nonnull %98) #25
  call void @llvm.memset.p0i8.i64(i8* noundef nonnull align 8 dereferenceable(16) %98, i8 0, i64 16, i1 false) #25
  store i32 1, i32* %99, align 8, !tbaa !24
  store i32 0, i32* %102, align 8, !tbaa !26
  store %"struct.std::_Rb_tree_node_base"* null, %"struct.std::_Rb_tree_node_base"** %104, align 8, !tbaa !30
  store i8* %101, i8** %106, align 8, !tbaa !31
  store i8* %101, i8** %108, align 8, !tbaa !32
  store i64 0, i64* %110, align 8, !tbaa !33
  call void @llvm.lifetime.start.p0i8(i64 40, i8* nonnull %111) #25
  call void @_ZNSt7__debug6vectorIiSaIiEE5beginEv(%"class.__gnu_debug::_Safe_iterator.23"* nonnull sret(%"class.__gnu_debug::_Safe_iterator.23") align 8 %15, %"class.std::__debug::vector"* nonnull align 8 dereferenceable(56) %13) #27
  call void @llvm.lifetime.start.p0i8(i64 40, i8* nonnull %112) #25
  call void @_ZNSt7__debug6vectorIiSaIiEE3endEv(%"class.__gnu_debug::_Safe_iterator.23"* nonnull sret(%"class.__gnu_debug::_Safe_iterator.23") align 8 %16, %"class.std::__debug::vector"* nonnull align 8 dereferenceable(56) %13) #27
  br label %139

139:                                              ; preds = %147, %138
  %140 = call zeroext i1 @_ZN11__gnu_debugneERKNS_14_Safe_iteratorIN9__gnu_cxx17__normal_iteratorIPiNSt9__cxx19986vectorIiSaIiEEEEENSt7__debug6vectorIiS6_EESt26random_access_iterator_tagEESF_(%"class.__gnu_debug::_Safe_iterator.23"* nonnull align 8 dereferenceable(40) %15, %"class.__gnu_debug::_Safe_iterator.23"* nonnull align 8 dereferenceable(40) %16) #27
  br i1 %140, label %144, label %141

141:                                              ; preds = %139
  call void @_ZN11__gnu_debug19_Safe_iterator_baseD2Ev(%"class.__gnu_debug::_Safe_iterator_base"* nonnull align 8 dereferenceable(32) %116) #27
  call void @llvm.lifetime.end.p0i8(i64 40, i8* nonnull %112) #25
  call void @_ZN11__gnu_debug19_Safe_iterator_baseD2Ev(%"class.__gnu_debug::_Safe_iterator_base"* nonnull align 8 dereferenceable(32) %117) #27
  call void @llvm.lifetime.end.p0i8(i64 40, i8* nonnull %111) #25
  call void @llvm.lifetime.start.p0i8(i64 40, i8* nonnull %118) #25
  call void @_ZNSt7__debug6vectorIiSaIiEE5beginEv(%"class.__gnu_debug::_Safe_iterator.23"* nonnull sret(%"class.__gnu_debug::_Safe_iterator.23") align 8 %19, %"class.std::__debug::vector"* nonnull align 8 dereferenceable(56) %13) #27
  call void @llvm.lifetime.start.p0i8(i64 40, i8* nonnull %119) #25
  call void @_ZNSt7__debug6vectorIiSaIiEE3endEv(%"class.__gnu_debug::_Safe_iterator.23"* nonnull sret(%"class.__gnu_debug::_Safe_iterator.23") align 8 %20, %"class.std::__debug::vector"* nonnull align 8 dereferenceable(56) %13) #27
  br label %151

142:                                              ; preds = %136
  %143 = landingpad { i8*, i32 }
          cleanup
  br label %170

144:                                              ; preds = %139
  call void @llvm.lifetime.start.p0i8(i64 4, i8* nonnull %113) #25
  %145 = call nonnull align 4 dereferenceable(4) i32* @_ZNK11__gnu_debug14_Safe_iteratorIN9__gnu_cxx17__normal_iteratorIPiNSt9__cxx19986vectorIiSaIiEEEEENSt7__debug6vectorIiS6_EESt20forward_iterator_tagEdeEv(%"class.__gnu_debug::_Safe_iterator.25"* nonnull align 8 dereferenceable(40) %114) #27
  %146 = load i32, i32* %145, align 4, !tbaa !19
  store i32 %146, i32* %17, align 4, !tbaa !19
  invoke void @_ZNSt7__debug3setIiSt4lessIiESaIiEE6insertERKi(%"struct.std::pair"* nonnull sret(%"struct.std::pair") align 8 %18, %"class.std::__debug::set"* nonnull align 8 dereferenceable(72) %14, i32* nonnull align 4 dereferenceable(4) %17) #26
          to label %147 unwind label %149

147:                                              ; preds = %144
  call void @_ZN11__gnu_debug19_Safe_iterator_baseD2Ev(%"class.__gnu_debug::_Safe_iterator_base"* nonnull align 8 dereferenceable(32) %115) #27
  call void @llvm.lifetime.end.p0i8(i64 4, i8* nonnull %113) #25
  %148 = call nonnull align 8 dereferenceable(40) %"class.__gnu_debug::_Safe_iterator.25"* @_ZN11__gnu_debug14_Safe_iteratorIN9__gnu_cxx17__normal_iteratorIPiNSt9__cxx19986vectorIiSaIiEEEEENSt7__debug6vectorIiS6_EESt20forward_iterator_tagEppEv(%"class.__gnu_debug::_Safe_iterator.25"* nonnull align 8 dereferenceable(40) %114) #27
  br label %139

149:                                              ; preds = %144
  %150 = landingpad { i8*, i32 }
          cleanup
  call void @llvm.lifetime.end.p0i8(i64 4, i8* nonnull %113) #25
  call void @_ZN11__gnu_debug19_Safe_iterator_baseD2Ev(%"class.__gnu_debug::_Safe_iterator_base"* nonnull align 8 dereferenceable(32) %116) #27
  call void @llvm.lifetime.end.p0i8(i64 40, i8* nonnull %112) #25
  call void @_ZN11__gnu_debug19_Safe_iterator_baseD2Ev(%"class.__gnu_debug::_Safe_iterator_base"* nonnull align 8 dereferenceable(32) %117) #27
  call void @llvm.lifetime.end.p0i8(i64 40, i8* nonnull %111) #25
  br label %168

151:                                              ; preds = %161, %141
  %152 = phi i32 [ %128, %141 ], [ %164, %161 ]
  %153 = call zeroext i1 @_ZN11__gnu_debugneERKNS_14_Safe_iteratorIN9__gnu_cxx17__normal_iteratorIPiNSt9__cxx19986vectorIiSaIiEEEEENSt7__debug6vectorIiS6_EESt26random_access_iterator_tagEESF_(%"class.__gnu_debug::_Safe_iterator.23"* nonnull align 8 dereferenceable(40) %19, %"class.__gnu_debug::_Safe_iterator.23"* nonnull align 8 dereferenceable(40) %20) #27
  br i1 %153, label %156, label %154

154:                                              ; preds = %151
  call void @_ZN11__gnu_debug19_Safe_iterator_baseD2Ev(%"class.__gnu_debug::_Safe_iterator_base"* nonnull align 8 dereferenceable(32) %125) #27
  call void @llvm.lifetime.end.p0i8(i64 40, i8* nonnull %119) #25
  call void @_ZN11__gnu_debug19_Safe_iterator_baseD2Ev(%"class.__gnu_debug::_Safe_iterator_base"* nonnull align 8 dereferenceable(32) %126) #27
  call void @llvm.lifetime.end.p0i8(i64 40, i8* nonnull %118) #25
  call void @_ZNSt7__debug3setIiSt4lessIiESaIiEED2Ev(%"class.std::__debug::set"* nonnull align 8 dereferenceable(72) %14) #27
  call void @llvm.lifetime.end.p0i8(i64 72, i8* nonnull %98) #25
  call void @_ZNSt7__debug6vectorIiSaIiEED2Ev(%"class.std::__debug::vector"* nonnull align 8 dereferenceable(56) %13) #27
  call void @llvm.lifetime.end.p0i8(i64 56, i8* nonnull %96) #25
  %155 = call nonnull align 8 dereferenceable(40) %"class.__gnu_debug::_Safe_iterator.15"* @_ZN11__gnu_debug14_Safe_iteratorIN9__gnu_cxx17__normal_iteratorIPNSt7__debug6vectorIiSaIiEEENSt9__cxx19986vectorIS6_SaIS6_EEEEENS4_IS6_SA_EESt20forward_iterator_tagEppEv(%"class.__gnu_debug::_Safe_iterator.15"* nonnull align 8 dereferenceable(40) %97) #27
  br label %127

156:                                              ; preds = %151
  %157 = call nonnull align 4 dereferenceable(4) i32* @_ZNK11__gnu_debug14_Safe_iteratorIN9__gnu_cxx17__normal_iteratorIPiNSt9__cxx19986vectorIiSaIiEEEEENSt7__debug6vectorIiS6_EESt20forward_iterator_tagEdeEv(%"class.__gnu_debug::_Safe_iterator.25"* nonnull align 8 dereferenceable(40) %120) #27
  %158 = load i32, i32* %157, align 4, !tbaa !19
  call void @llvm.lifetime.start.p0i8(i64 40, i8* nonnull %121) #25
  %159 = sext i32 %158 to i64
  %160 = call nonnull align 4 dereferenceable(4) i32* @_ZNSt7__debug6vectorIiSaIiEEixEm(%"class.std::__debug::vector"* nonnull align 8 dereferenceable(56) %3, i64 %159) #27
  invoke void @_ZNSt7__debug3setIiSt4lessIiESaIiEE4findERKi(%"class.__gnu_debug::_Safe_iterator.27"* nonnull sret(%"class.__gnu_debug::_Safe_iterator.27") align 8 %21, %"class.std::__debug::set"* nonnull align 8 dereferenceable(72) %14, i32* nonnull align 4 dereferenceable(4) %160) #26
          to label %161 unwind label %166

161:                                              ; preds = %156
  call void @llvm.lifetime.start.p0i8(i64 40, i8* nonnull %122) #25
  call void @_ZNSt7__debug3setIiSt4lessIiESaIiEE3endEv(%"class.__gnu_debug::_Safe_iterator.27"* nonnull sret(%"class.__gnu_debug::_Safe_iterator.27") align 8 %22, %"class.std::__debug::set"* nonnull align 8 dereferenceable(72) %14) #27
  %162 = call zeroext i1 @_ZN11__gnu_debugneERKNS_14_Safe_iteratorISt23_Rb_tree_const_iteratorIiENSt7__debug3setIiSt4lessIiESaIiEEESt26bidirectional_iterator_tagEESC_(%"class.__gnu_debug::_Safe_iterator.27"* nonnull align 8 dereferenceable(40) %21, %"class.__gnu_debug::_Safe_iterator.27"* nonnull align 8 dereferenceable(40) %22) #27
  call void @_ZN11__gnu_debug19_Safe_iterator_baseD2Ev(%"class.__gnu_debug::_Safe_iterator_base"* nonnull align 8 dereferenceable(32) %123) #27
  call void @llvm.lifetime.end.p0i8(i64 40, i8* nonnull %122) #25
  call void @_ZN11__gnu_debug19_Safe_iterator_baseD2Ev(%"class.__gnu_debug::_Safe_iterator_base"* nonnull align 8 dereferenceable(32) %124) #27
  call void @llvm.lifetime.end.p0i8(i64 40, i8* nonnull %121) #25
  %163 = zext i1 %162 to i32
  %164 = add nsw i32 %152, %163
  %165 = call nonnull align 8 dereferenceable(40) %"class.__gnu_debug::_Safe_iterator.25"* @_ZN11__gnu_debug14_Safe_iteratorIN9__gnu_cxx17__normal_iteratorIPiNSt9__cxx19986vectorIiSaIiEEEEENSt7__debug6vectorIiS6_EESt20forward_iterator_tagEppEv(%"class.__gnu_debug::_Safe_iterator.25"* nonnull align 8 dereferenceable(40) %120) #27
  br label %151

166:                                              ; preds = %156
  %167 = landingpad { i8*, i32 }
          cleanup
  call void @llvm.lifetime.end.p0i8(i64 40, i8* nonnull %121) #25
  call void @_ZN11__gnu_debug19_Safe_iterator_baseD2Ev(%"class.__gnu_debug::_Safe_iterator_base"* nonnull align 8 dereferenceable(32) %125) #27
  call void @llvm.lifetime.end.p0i8(i64 40, i8* nonnull %119) #25
  call void @_ZN11__gnu_debug19_Safe_iterator_baseD2Ev(%"class.__gnu_debug::_Safe_iterator_base"* nonnull align 8 dereferenceable(32) %126) #27
  call void @llvm.lifetime.end.p0i8(i64 40, i8* nonnull %118) #25
  br label %168

168:                                              ; preds = %166, %149
  %169 = phi { i8*, i32 } [ %150, %149 ], [ %167, %166 ]
  call void @_ZNSt7__debug3setIiSt4lessIiESaIiEED2Ev(%"class.std::__debug::set"* nonnull align 8 dereferenceable(72) %14) #27
  call void @llvm.lifetime.end.p0i8(i64 72, i8* nonnull %98) #25
  call void @_ZNSt7__debug6vectorIiSaIiEED2Ev(%"class.std::__debug::vector"* nonnull align 8 dereferenceable(56) %13) #27
  br label %170

170:                                              ; preds = %168, %142
  %171 = phi { i8*, i32 } [ %169, %168 ], [ %143, %142 ]
  call void @llvm.lifetime.end.p0i8(i64 56, i8* nonnull %96) #25
  %172 = getelementptr inbounds %"class.__gnu_debug::_Safe_iterator", %"class.__gnu_debug::_Safe_iterator"* %12, i64 0, i32 0, i32 0, i32 1
  call void @_ZN11__gnu_debug19_Safe_iterator_baseD2Ev(%"class.__gnu_debug::_Safe_iterator_base"* nonnull align 8 dereferenceable(32) %172) #27
  call void @llvm.lifetime.end.p0i8(i64 40, i8* nonnull %95) #25
  %173 = getelementptr inbounds %"class.__gnu_debug::_Safe_iterator", %"class.__gnu_debug::_Safe_iterator"* %11, i64 0, i32 0, i32 0, i32 1
  call void @_ZN11__gnu_debug19_Safe_iterator_baseD2Ev(%"class.__gnu_debug::_Safe_iterator_base"* nonnull align 8 dereferenceable(32) %173) #27
  call void @llvm.lifetime.end.p0i8(i64 40, i8* nonnull %94) #25
  br label %179

174:                                              ; preds = %130
  %175 = invoke nonnull align 8 dereferenceable(8) %"class.std::basic_ostream"* @_ZStlsISt11char_traitsIcEERSt13basic_ostreamIcT_ES5_PKc(%"class.std::basic_ostream"* nonnull align 8 dereferenceable(8) %133, i8* getelementptr inbounds ([2 x i8], [2 x i8]* @.str.2, i64 0, i64 0)) #26
          to label %176 unwind label %177

176:                                              ; preds = %174
  call void @_ZNSt7__debug6vectorINS0_IiSaIiEEESaIS2_EED2Ev(%"class.std::__debug::vector.3"* nonnull align 8 dereferenceable(56) %10) #27
  call void @llvm.lifetime.end.p0i8(i64 56, i8* nonnull %79) #25
  call void @_ZN9UnionfindD2Ev(%class.Unionfind* nonnull align 8 dereferenceable(180) %7) #27
  call void @llvm.lifetime.end.p0i8(i64 184, i8* nonnull %44) #25
  call void @_ZNSt7__debug6vectorIiSaIiEED2Ev(%"class.std::__debug::vector"* nonnull align 8 dereferenceable(56) %5) #27
  call void @llvm.lifetime.end.p0i8(i64 56, i8* nonnull %39) #25
  call void @_ZNSt7__debug6vectorIiSaIiEED2Ev(%"class.std::__debug::vector"* nonnull align 8 dereferenceable(56) %3) #27
  call void @llvm.lifetime.end.p0i8(i64 56, i8* nonnull %35) #25
  call void @llvm.lifetime.end.p0i8(i64 4, i8* nonnull %32) #25
  call void @llvm.lifetime.end.p0i8(i64 4, i8* nonnull %31) #25
  ret i32 0

177:                                              ; preds = %174, %130
  %178 = landingpad { i8*, i32 }
          cleanup
  br label %179

179:                                              ; preds = %177, %170
  %180 = phi { i8*, i32 } [ %171, %170 ], [ %178, %177 ]
  call void @_ZNSt7__debug6vectorINS0_IiSaIiEEESaIS2_EED2Ev(%"class.std::__debug::vector.3"* nonnull align 8 dereferenceable(56) %10) #27
  br label %181

181:                                              ; preds = %179, %134
  %182 = phi { i8*, i32 } [ %180, %179 ], [ %135, %134 ]
  call void @llvm.lifetime.end.p0i8(i64 56, i8* nonnull %79) #25
  br label %183

183:                                              ; preds = %181, %91, %71
  %184 = phi { i8*, i32 } [ %72, %71 ], [ %92, %91 ], [ %182, %181 ]
  call void @_ZN9UnionfindD2Ev(%class.Unionfind* nonnull align 8 dereferenceable(180) %7) #27
  br label %185

185:                                              ; preds = %183, %56
  %186 = phi { i8*, i32 } [ %184, %183 ], [ %57, %56 ]
  call void @llvm.lifetime.end.p0i8(i64 184, i8* nonnull %44) #25
  call void @_ZNSt7__debug6vectorIiSaIiEED2Ev(%"class.std::__debug::vector"* nonnull align 8 dereferenceable(56) %5) #27
  br label %187

187:                                              ; preds = %185, %54
  %188 = phi { i8*, i32 } [ %186, %185 ], [ %55, %54 ]
  call void @llvm.lifetime.end.p0i8(i64 56, i8* nonnull %39) #25
  call void @_ZNSt7__debug6vectorIiSaIiEED2Ev(%"class.std::__debug::vector"* nonnull align 8 dereferenceable(56) %3) #27
  call void @llvm.lifetime.end.p0i8(i64 56, i8* nonnull %35) #25
  call void @llvm.lifetime.end.p0i8(i64 4, i8* nonnull %32) #25
  call void @llvm.lifetime.end.p0i8(i64 4, i8* nonnull %31) #25
  resume { i8*, i32 } %188
}

; Function Attrs: minsize optsize
declare zeroext i1 @_ZNSt8ios_base15sync_with_stdioEb(i1 zeroext) local_unnamed_addr #0

; Function Attrs: minsize optsize
declare nonnull align 8 dereferenceable(16) %"class.std::basic_istream"* @_ZNSirsERi(%"class.std::basic_istream"* nonnull align 8 dereferenceable(16), i32* nonnull align 4 dereferenceable(4)) local_unnamed_addr #0

; Function Attrs: minsize optsize sspstrong uwtable
define linkonce_odr dso_local void @_ZNSt7__debug6vectorIiSaIiEEC2EmRKS1_(%"class.std::__debug::vector"* nonnull align 8 dereferenceable(56) %0, i64 %1, %"class.std::allocator.0"* nonnull align 1 dereferenceable(1) %2) unnamed_addr #6 comdat align 2 personality i8* bitcast (i32 (...)* @__gxx_personality_v0 to i8*) {
  %4 = getelementptr inbounds %"class.std::__debug::vector", %"class.std::__debug::vector"* %0, i64 0, i32 0, i32 0, i32 0, i32 2
  %5 = bitcast %"class.std::__debug::vector"* %0 to i8*
  tail call void @llvm.memset.p0i8.i64(i8* noundef nonnull align 8 dereferenceable(16) %5, i8 0, i64 16, i1 false) #25
  store i32 1, i32* %4, align 8, !tbaa !24
  %6 = getelementptr inbounds %"class.std::__debug::vector", %"class.std::__debug::vector"* %0, i64 0, i32 1
  invoke void @_ZNSt9__cxx19986vectorIiSaIiEEC2EmRKS1_(%"class.std::__cxx1998::vector"* nonnull align 8 dereferenceable(24) %6, i64 %1, %"class.std::allocator.0"* nonnull align 1 dereferenceable(1) %2) #26
          to label %7 unwind label %9

7:                                                ; preds = %3
  %8 = getelementptr inbounds %"class.std::__debug::vector", %"class.std::__debug::vector"* %0, i64 0, i32 2, i32 0
  store i64 %1, i64* %8, align 8, !tbaa !34
  ret void

9:                                                ; preds = %3
  %10 = landingpad { i8*, i32 }
          cleanup
  %11 = bitcast %"class.std::__debug::vector"* %0 to %"class.__gnu_debug::_Safe_sequence_base"*
  tail call void @_ZN11__gnu_debug19_Safe_sequence_baseD2Ev(%"class.__gnu_debug::_Safe_sequence_base"* nonnull align 8 dereferenceable(20) %11) #27
  resume { i8*, i32 } %10
}

; Function Attrs: minsize optsize sspstrong uwtable
define linkonce_odr dso_local void @_ZN9UnionfindC2Ei(%class.Unionfind* nonnull align 8 dereferenceable(180) %0, i32 %1) unnamed_addr #6 comdat align 2 personality i8* bitcast (i32 (...)* @__gxx_personality_v0 to i8*) {
  %3 = alloca %"class.std::allocator.0", align 1
  %4 = alloca i32, align 4
  %5 = alloca %"class.std::allocator.0", align 1
  %6 = alloca i32, align 4
  %7 = alloca %"class.std::allocator.0", align 1
  %8 = getelementptr inbounds %class.Unionfind, %class.Unionfind* %0, i64 0, i32 0
  store i32 %1, i32* %8, align 8, !tbaa !36
  %9 = getelementptr inbounds %class.Unionfind, %class.Unionfind* %0, i64 0, i32 2
  %10 = sext i32 %1 to i64
  %11 = getelementptr inbounds %"class.std::allocator.0", %"class.std::allocator.0"* %3, i64 0, i32 0
  call void @llvm.lifetime.start.p0i8(i64 1, i8* nonnull %11) #25
  call void @_ZNSt7__debug6vectorIiSaIiEEC2EmRKS1_(%"class.std::__debug::vector"* nonnull align 8 dereferenceable(56) %9, i64 %10, %"class.std::allocator.0"* nonnull align 1 dereferenceable(1) %3) #26
  call void @llvm.lifetime.end.p0i8(i64 1, i8* nonnull %11) #25
  %12 = getelementptr inbounds %class.Unionfind, %class.Unionfind* %0, i64 0, i32 3
  %13 = bitcast i32* %4 to i8*
  call void @llvm.lifetime.start.p0i8(i64 4, i8* nonnull %13) #25
  store i32 0, i32* %4, align 4, !tbaa !19
  %14 = getelementptr inbounds %"class.std::allocator.0", %"class.std::allocator.0"* %5, i64 0, i32 0
  call void @llvm.lifetime.start.p0i8(i64 1, i8* nonnull %14) #25
  invoke void @_ZNSt7__debug6vectorIiSaIiEEC2EmRKiRKS1_(%"class.std::__debug::vector"* nonnull align 8 dereferenceable(56) %12, i64 %10, i32* nonnull align 4 dereferenceable(4) %4, %"class.std::allocator.0"* nonnull align 1 dereferenceable(1) %5) #26
          to label %15 unwind label %27

15:                                               ; preds = %2
  call void @llvm.lifetime.end.p0i8(i64 1, i8* nonnull %14) #25
  call void @llvm.lifetime.end.p0i8(i64 4, i8* nonnull %13) #25
  %16 = getelementptr inbounds %class.Unionfind, %class.Unionfind* %0, i64 0, i32 4
  %17 = bitcast i32* %6 to i8*
  call void @llvm.lifetime.start.p0i8(i64 4, i8* nonnull %17) #25
  store i32 1, i32* %6, align 4, !tbaa !19
  %18 = getelementptr inbounds %"class.std::allocator.0", %"class.std::allocator.0"* %7, i64 0, i32 0
  call void @llvm.lifetime.start.p0i8(i64 1, i8* nonnull %18) #25
  invoke void @_ZNSt7__debug6vectorIiSaIiEEC2EmRKiRKS1_(%"class.std::__debug::vector"* nonnull align 8 dereferenceable(56) %16, i64 %10, i32* nonnull align 4 dereferenceable(4) %6, %"class.std::allocator.0"* nonnull align 1 dereferenceable(1) %7) #26
          to label %19 unwind label %29

19:                                               ; preds = %15
  call void @llvm.lifetime.end.p0i8(i64 1, i8* nonnull %18) #25
  call void @llvm.lifetime.end.p0i8(i64 4, i8* nonnull %17) #25
  %20 = call i32 @llvm.smax.i32(i32 %1, i32 0)
  %21 = zext i32 %20 to i64
  br label %22

22:                                               ; preds = %31, %19
  %23 = phi i64 [ %34, %31 ], [ 0, %19 ]
  %24 = icmp eq i64 %23, %21
  br i1 %24, label %25, label %31

25:                                               ; preds = %22
  %26 = getelementptr inbounds %class.Unionfind, %class.Unionfind* %0, i64 0, i32 5
  store i32 %1, i32* %26, align 8, !tbaa !39
  ret void

27:                                               ; preds = %2
  %28 = landingpad { i8*, i32 }
          cleanup
  call void @llvm.lifetime.end.p0i8(i64 1, i8* nonnull %14) #25
  call void @llvm.lifetime.end.p0i8(i64 4, i8* nonnull %13) #25
  br label %35

29:                                               ; preds = %15
  %30 = landingpad { i8*, i32 }
          cleanup
  call void @llvm.lifetime.end.p0i8(i64 1, i8* nonnull %18) #25
  call void @llvm.lifetime.end.p0i8(i64 4, i8* nonnull %17) #25
  call void @_ZNSt7__debug6vectorIiSaIiEED2Ev(%"class.std::__debug::vector"* nonnull align 8 dereferenceable(56) %12) #27
  br label %35

31:                                               ; preds = %22
  %32 = call nonnull align 4 dereferenceable(4) i32* @_ZNSt7__debug6vectorIiSaIiEEixEm(%"class.std::__debug::vector"* nonnull align 8 dereferenceable(56) %9, i64 %23) #27
  %33 = trunc i64 %23 to i32
  store i32 %33, i32* %32, align 4, !tbaa !19
  %34 = add nuw nsw i64 %23, 1
  br label %22, !llvm.loop !40

35:                                               ; preds = %29, %27
  %36 = phi { i8*, i32 } [ %30, %29 ], [ %28, %27 ]
  call void @_ZNSt7__debug6vectorIiSaIiEED2Ev(%"class.std::__debug::vector"* nonnull align 8 dereferenceable(56) %9) #27
  resume { i8*, i32 } %36
}

; Function Attrs: minsize mustprogress nounwind optsize sspstrong uwtable
define linkonce_odr dso_local nonnull align 4 dereferenceable(4) i32* @_ZNSt7__debug6vectorIiSaIiEEixEm(%"class.std::__debug::vector"* nonnull align 8 dereferenceable(56) %0, i64 %1) local_unnamed_addr #9 comdat align 2 personality i8* bitcast (i32 (...)* @__gxx_personality_v0 to i8*) {
  %3 = getelementptr inbounds %"class.std::__debug::vector", %"class.std::__debug::vector"* %0, i64 0, i32 1
  %4 = getelementptr inbounds %"class.std::__debug::vector", %"class.std::__debug::vector"* %0, i64 0, i32 1, i32 0, i32 0, i32 0, i32 1
  %5 = load i32*, i32** %4, align 8, !tbaa !41
  %6 = getelementptr inbounds %"class.std::__cxx1998::vector", %"class.std::__cxx1998::vector"* %3, i64 0, i32 0, i32 0, i32 0, i32 0
  %7 = load i32*, i32** %6, align 8, !tbaa !43
  %8 = ptrtoint i32* %5 to i64
  %9 = ptrtoint i32* %7 to i64
  %10 = sub i64 %8, %9
  %11 = ashr exact i64 %10, 2
  %12 = icmp ugt i64 %11, %1
  br i1 %12, label %30, label %13, !prof !44

13:                                               ; preds = %2
  %14 = invoke nonnull align 8 dereferenceable(544) %"class.__gnu_debug::_Error_formatter"* @_ZN11__gnu_debug16_Error_formatter5_S_atEPKcjS2_(i8* getelementptr inbounds ([93 x i8], [93 x i8]* @.str.7, i64 0, i64 0), i32 438, i8* getelementptr inbounds ([122 x i8], [122 x i8]* @__PRETTY_FUNCTION__._ZNSt7__debug6vectorIiSaIiEEixEm, i64 0, i64 0)) #26
          to label %15 unwind label %32

15:                                               ; preds = %13
  %16 = tail call nonnull align 8 dereferenceable(544) %"class.__gnu_debug::_Error_formatter"* @_ZNK11__gnu_debug16_Error_formatter10_M_messageENS_13_Debug_msg_idE(%"class.__gnu_debug::_Error_formatter"* nonnull align 8 dereferenceable(544) %14, i32 5) #27
  %17 = invoke nonnull align 8 dereferenceable(544) %"class.__gnu_debug::_Error_formatter"* @_ZN11__gnu_debug16_Error_formatter11_M_sequenceINSt7__debug6vectorIiSaIiEEEEERS0_RKT_PKc(%"class.__gnu_debug::_Error_formatter"* nonnull align 8 dereferenceable(544) %16, %"class.std::__debug::vector"* nonnull align 8 dereferenceable(56) %0, i8* getelementptr inbounds ([5 x i8], [5 x i8]* @.str.8, i64 0, i64 0)) #26
          to label %18 unwind label %32

18:                                               ; preds = %15
  %19 = invoke nonnull align 8 dereferenceable(544) %"class.__gnu_debug::_Error_formatter"* @_ZN11__gnu_debug16_Error_formatter10_M_integerElPKc(%"class.__gnu_debug::_Error_formatter"* nonnull align 8 dereferenceable(544) %17, i64 %1, i8* getelementptr inbounds ([4 x i8], [4 x i8]* @.str.6, i64 0, i64 0)) #26
          to label %20 unwind label %32

20:                                               ; preds = %18
  %21 = load i32*, i32** %4, align 8, !tbaa !41
  %22 = load i32*, i32** %6, align 8, !tbaa !43
  %23 = ptrtoint i32* %21 to i64
  %24 = ptrtoint i32* %22 to i64
  %25 = sub i64 %23, %24
  %26 = ashr exact i64 %25, 2
  %27 = invoke nonnull align 8 dereferenceable(544) %"class.__gnu_debug::_Error_formatter"* @_ZN11__gnu_debug16_Error_formatter10_M_integerElPKc(%"class.__gnu_debug::_Error_formatter"* nonnull align 8 dereferenceable(544) %19, i64 %26, i8* getelementptr inbounds ([5 x i8], [5 x i8]* @.str.9, i64 0, i64 0)) #26
          to label %28 unwind label %32

28:                                               ; preds = %20
  invoke void @_ZNK11__gnu_debug16_Error_formatter8_M_errorEv(%"class.__gnu_debug::_Error_formatter"* nonnull align 8 dereferenceable(544) %27) #29
          to label %29 unwind label %32

29:                                               ; preds = %28
  unreachable

30:                                               ; preds = %2
  %31 = tail call nonnull align 4 dereferenceable(4) i32* @_ZNSt9__cxx19986vectorIiSaIiEEixEm(%"class.std::__cxx1998::vector"* nonnull align 8 dereferenceable(24) %3, i64 %1) #27
  ret i32* %31

32:                                               ; preds = %28, %20, %18, %15, %13
  %33 = landingpad { i8*, i32 }
          catch i8* null
  %34 = extractvalue { i8*, i32 } %33, 0
  tail call void @__clang_call_terminate(i8* %34) #28
  unreachable
}

; Function Attrs: minsize mustprogress optsize sspstrong uwtable
define linkonce_odr dso_local void @_ZN9Unionfind5uniteEii(%class.Unionfind* nonnull align 8 dereferenceable(180) %0, i32 %1, i32 %2) local_unnamed_addr #3 comdat align 2 {
  %4 = tail call i32 @_ZN9Unionfind4rootEi(%class.Unionfind* nonnull align 8 dereferenceable(180) %0, i32 %1) #26
  %5 = tail call i32 @_ZN9Unionfind4rootEi(%class.Unionfind* nonnull align 8 dereferenceable(180) %0, i32 %2) #26
  %6 = icmp eq i32 %4, %5
  br i1 %6, label %46, label %7

7:                                                ; preds = %3
  %8 = getelementptr inbounds %class.Unionfind, %class.Unionfind* %0, i64 0, i32 5
  %9 = load i32, i32* %8, align 8, !tbaa !39
  %10 = add nsw i32 %9, -1
  store i32 %10, i32* %8, align 8, !tbaa !39
  %11 = getelementptr inbounds %class.Unionfind, %class.Unionfind* %0, i64 0, i32 3
  %12 = sext i32 %4 to i64
  %13 = tail call nonnull align 4 dereferenceable(4) i32* @_ZNSt7__debug6vectorIiSaIiEEixEm(%"class.std::__debug::vector"* nonnull align 8 dereferenceable(56) %11, i64 %12) #27
  %14 = load i32, i32* %13, align 4, !tbaa !19
  %15 = sext i32 %5 to i64
  %16 = tail call nonnull align 4 dereferenceable(4) i32* @_ZNSt7__debug6vectorIiSaIiEEixEm(%"class.std::__debug::vector"* nonnull align 8 dereferenceable(56) %11, i64 %15) #27
  %17 = load i32, i32* %16, align 4, !tbaa !19
  %18 = icmp slt i32 %14, %17
  %19 = getelementptr inbounds %class.Unionfind, %class.Unionfind* %0, i64 0, i32 2
  br i1 %18, label %20, label %26

20:                                               ; preds = %7
  %21 = tail call nonnull align 4 dereferenceable(4) i32* @_ZNSt7__debug6vectorIiSaIiEEixEm(%"class.std::__debug::vector"* nonnull align 8 dereferenceable(56) %19, i64 %12) #27
  store i32 %5, i32* %21, align 4, !tbaa !19
  %22 = getelementptr inbounds %class.Unionfind, %class.Unionfind* %0, i64 0, i32 4
  %23 = tail call nonnull align 4 dereferenceable(4) i32* @_ZNSt7__debug6vectorIiSaIiEEixEm(%"class.std::__debug::vector"* nonnull align 8 dereferenceable(56) %22, i64 %12) #27
  %24 = load i32, i32* %23, align 4, !tbaa !19
  %25 = tail call nonnull align 4 dereferenceable(4) i32* @_ZNSt7__debug6vectorIiSaIiEEixEm(%"class.std::__debug::vector"* nonnull align 8 dereferenceable(56) %22, i64 %15) #27
  br label %41

26:                                               ; preds = %7
  %27 = tail call nonnull align 4 dereferenceable(4) i32* @_ZNSt7__debug6vectorIiSaIiEEixEm(%"class.std::__debug::vector"* nonnull align 8 dereferenceable(56) %19, i64 %15) #27
  store i32 %4, i32* %27, align 4, !tbaa !19
  %28 = getelementptr inbounds %class.Unionfind, %class.Unionfind* %0, i64 0, i32 4
  %29 = tail call nonnull align 4 dereferenceable(4) i32* @_ZNSt7__debug6vectorIiSaIiEEixEm(%"class.std::__debug::vector"* nonnull align 8 dereferenceable(56) %28, i64 %15) #27
  %30 = load i32, i32* %29, align 4, !tbaa !19
  %31 = tail call nonnull align 4 dereferenceable(4) i32* @_ZNSt7__debug6vectorIiSaIiEEixEm(%"class.std::__debug::vector"* nonnull align 8 dereferenceable(56) %28, i64 %12) #27
  %32 = load i32, i32* %31, align 4, !tbaa !19
  %33 = add nsw i32 %32, %30
  store i32 %33, i32* %31, align 4, !tbaa !19
  %34 = tail call nonnull align 4 dereferenceable(4) i32* @_ZNSt7__debug6vectorIiSaIiEEixEm(%"class.std::__debug::vector"* nonnull align 8 dereferenceable(56) %11, i64 %12) #27
  %35 = load i32, i32* %34, align 4, !tbaa !19
  %36 = tail call nonnull align 4 dereferenceable(4) i32* @_ZNSt7__debug6vectorIiSaIiEEixEm(%"class.std::__debug::vector"* nonnull align 8 dereferenceable(56) %11, i64 %15) #27
  %37 = load i32, i32* %36, align 4, !tbaa !19
  %38 = icmp eq i32 %35, %37
  br i1 %38, label %39, label %46

39:                                               ; preds = %26
  %40 = tail call nonnull align 4 dereferenceable(4) i32* @_ZNSt7__debug6vectorIiSaIiEEixEm(%"class.std::__debug::vector"* nonnull align 8 dereferenceable(56) %11, i64 %12) #27
  br label %41

41:                                               ; preds = %20, %39
  %42 = phi i32* [ %40, %39 ], [ %25, %20 ]
  %43 = phi i32 [ 1, %39 ], [ %24, %20 ]
  %44 = load i32, i32* %42, align 4, !tbaa !19
  %45 = add nsw i32 %44, %43
  store i32 %45, i32* %42, align 4, !tbaa !19
  br label %46

46:                                               ; preds = %41, %26, %3
  ret void
}

; Function Attrs: minsize optsize sspstrong uwtable
define linkonce_odr dso_local void @_ZN9Unionfind5groupEv(%"class.std::__debug::vector.3"* noalias sret(%"class.std::__debug::vector.3") align 8 %0, %class.Unionfind* nonnull align 8 dereferenceable(180) %1) local_unnamed_addr #6 comdat align 2 personality i8* bitcast (i32 (...)* @__gxx_personality_v0 to i8*) {
  %3 = alloca %"class.std::__debug::vector.3", align 8
  %4 = alloca %"class.std::allocator.10", align 1
  %5 = alloca i32, align 4
  tail call void @_ZNSt7__debug6vectorINS0_IiSaIiEEESaIS2_EEC2Ev(%"class.std::__debug::vector.3"* nonnull align 8 dereferenceable(56) %0) #27
  %6 = bitcast %"class.std::__debug::vector.3"* %3 to i8*
  call void @llvm.lifetime.start.p0i8(i64 56, i8* nonnull %6) #25
  %7 = getelementptr inbounds %class.Unionfind, %class.Unionfind* %1, i64 0, i32 0
  %8 = load i32, i32* %7, align 8, !tbaa !36
  %9 = sext i32 %8 to i64
  %10 = getelementptr inbounds %"class.std::allocator.10", %"class.std::allocator.10"* %4, i64 0, i32 0
  call void @llvm.lifetime.start.p0i8(i64 1, i8* nonnull %10) #25
  invoke void @_ZNSt7__debug6vectorINS0_IiSaIiEEESaIS2_EEC2EmRKS3_(%"class.std::__debug::vector.3"* nonnull align 8 dereferenceable(56) %3, i64 %9, %"class.std::allocator.10"* nonnull align 1 dereferenceable(1) %4) #26
          to label %11 unwind label %18

11:                                               ; preds = %2
  call void @llvm.lifetime.end.p0i8(i64 1, i8* nonnull %10) #25
  %12 = bitcast i32* %5 to i8*
  call void @llvm.lifetime.start.p0i8(i64 4, i8* nonnull %12) #25
  br label %13

13:                                               ; preds = %25, %11
  %14 = phi i32 [ 0, %11 ], [ %27, %25 ]
  store i32 %14, i32* %5, align 4, !tbaa !19
  %15 = load i32, i32* %7, align 8, !tbaa !36
  %16 = icmp slt i32 %14, %15
  br i1 %16, label %20, label %17

17:                                               ; preds = %13
  call void @llvm.lifetime.end.p0i8(i64 4, i8* nonnull %12) #25
  br label %30

18:                                               ; preds = %2
  %19 = landingpad { i8*, i32 }
          cleanup
  call void @llvm.lifetime.end.p0i8(i64 1, i8* nonnull %10) #25
  br label %52

20:                                               ; preds = %13
  %21 = invoke i32 @_ZN9Unionfind4rootEi(%class.Unionfind* nonnull align 8 dereferenceable(180) %1, i32 %14) #26
          to label %22 unwind label %28

22:                                               ; preds = %20
  %23 = sext i32 %21 to i64
  %24 = call nonnull align 8 dereferenceable(56) %"class.std::__debug::vector"* @_ZNSt7__debug6vectorINS0_IiSaIiEEESaIS2_EEixEm(%"class.std::__debug::vector.3"* nonnull align 8 dereferenceable(56) %3, i64 %23) #27
  invoke void @_ZNSt7__debug6vectorIiSaIiEE9push_backERKi(%"class.std::__debug::vector"* nonnull align 8 dereferenceable(56) %24, i32* nonnull align 4 dereferenceable(4) %5) #26
          to label %25 unwind label %28

25:                                               ; preds = %22
  %26 = load i32, i32* %5, align 4, !tbaa !19
  %27 = add nsw i32 %26, 1
  br label %13, !llvm.loop !45

28:                                               ; preds = %22, %20
  %29 = landingpad { i8*, i32 }
          cleanup
  call void @llvm.lifetime.end.p0i8(i64 4, i8* nonnull %12) #25
  br label %50

30:                                               ; preds = %47, %17
  %31 = phi i32 [ %49, %47 ], [ %15, %17 ]
  %32 = phi i64 [ %48, %47 ], [ 0, %17 ]
  %33 = sext i32 %31 to i64
  %34 = icmp slt i64 %32, %33
  br i1 %34, label %36, label %35

35:                                               ; preds = %30
  call void @_ZNSt7__debug6vectorINS0_IiSaIiEEESaIS2_EED2Ev(%"class.std::__debug::vector.3"* nonnull align 8 dereferenceable(56) %3) #27
  call void @llvm.lifetime.end.p0i8(i64 56, i8* nonnull %6) #25
  ret void

36:                                               ; preds = %30
  %37 = call nonnull align 8 dereferenceable(56) %"class.std::__debug::vector"* @_ZNSt7__debug6vectorINS0_IiSaIiEEESaIS2_EEixEm(%"class.std::__debug::vector.3"* nonnull align 8 dereferenceable(56) %3, i64 %32) #27
  %38 = getelementptr inbounds %"class.std::__debug::vector", %"class.std::__debug::vector"* %37, i64 0, i32 1, i32 0, i32 0, i32 0, i32 0
  %39 = load i32*, i32** %38, align 8, !tbaa !46
  %40 = getelementptr inbounds %"class.std::__debug::vector", %"class.std::__debug::vector"* %37, i64 0, i32 1, i32 0, i32 0, i32 0, i32 1
  %41 = load i32*, i32** %40, align 8, !tbaa !46
  %42 = icmp eq i32* %39, %41
  br i1 %42, label %47, label %43

43:                                               ; preds = %36
  %44 = call nonnull align 8 dereferenceable(56) %"class.std::__debug::vector"* @_ZNSt7__debug6vectorINS0_IiSaIiEEESaIS2_EEixEm(%"class.std::__debug::vector.3"* nonnull align 8 dereferenceable(56) %3, i64 %32) #27
  invoke void @_ZNSt7__debug6vectorINS0_IiSaIiEEESaIS2_EE9push_backERKS2_(%"class.std::__debug::vector.3"* nonnull align 8 dereferenceable(56) %0, %"class.std::__debug::vector"* nonnull align 8 dereferenceable(56) %44) #26
          to label %47 unwind label %45

45:                                               ; preds = %43
  %46 = landingpad { i8*, i32 }
          cleanup
  br label %50

47:                                               ; preds = %36, %43
  %48 = add nuw nsw i64 %32, 1
  %49 = load i32, i32* %7, align 8, !tbaa !36
  br label %30, !llvm.loop !47

50:                                               ; preds = %45, %28
  %51 = phi { i8*, i32 } [ %29, %28 ], [ %46, %45 ]
  call void @_ZNSt7__debug6vectorINS0_IiSaIiEEESaIS2_EED2Ev(%"class.std::__debug::vector.3"* nonnull align 8 dereferenceable(56) %3) #27
  br label %52

52:                                               ; preds = %50, %18
  %53 = phi { i8*, i32 } [ %51, %50 ], [ %19, %18 ]
  call void @llvm.lifetime.end.p0i8(i64 56, i8* nonnull %6) #25
  call void @_ZNSt7__debug6vectorINS0_IiSaIiEEESaIS2_EED2Ev(%"class.std::__debug::vector.3"* nonnull align 8 dereferenceable(56) %0) #27
  resume { i8*, i32 } %53
}

; Function Attrs: minsize nounwind optsize sspstrong uwtable
define linkonce_odr dso_local void @_ZNSt7__debug6vectorINS0_IiSaIiEEESaIS2_EE5beginEv(%"class.__gnu_debug::_Safe_iterator"* noalias sret(%"class.__gnu_debug::_Safe_iterator") align 8 %0, %"class.std::__debug::vector.3"* nonnull align 8 dereferenceable(56) %1) local_unnamed_addr #7 comdat align 2 {
  %3 = getelementptr inbounds %"class.std::__debug::vector.3", %"class.std::__debug::vector.3"* %1, i64 0, i32 1, i32 0, i32 0, i32 0, i32 0
  %4 = load %"class.std::__debug::vector"*, %"class.std::__debug::vector"** %3, align 8, !tbaa !46
  %5 = bitcast %"class.std::__debug::vector.3"* %1 to %"class.__gnu_debug::_Safe_sequence_base"*
  %6 = getelementptr inbounds %"class.__gnu_debug::_Safe_iterator", %"class.__gnu_debug::_Safe_iterator"* %0, i64 0, i32 0, i32 0
  tail call void @_ZN11__gnu_debug14_Safe_iteratorIN9__gnu_cxx17__normal_iteratorIPNSt7__debug6vectorIiSaIiEEENSt9__cxx19986vectorIS6_SaIS6_EEEEENS4_IS6_SA_EESt20forward_iterator_tagEC2ESC_PKNS_19_Safe_sequence_baseE(%"class.__gnu_debug::_Safe_iterator.15"* nonnull align 8 dereferenceable(40) %6, %"class.std::__debug::vector"* %4, %"class.__gnu_debug::_Safe_sequence_base"* nonnull %5) #27
  ret void
}

; Function Attrs: minsize nounwind optsize sspstrong uwtable
define linkonce_odr dso_local void @_ZNSt7__debug6vectorINS0_IiSaIiEEESaIS2_EE3endEv(%"class.__gnu_debug::_Safe_iterator"* noalias sret(%"class.__gnu_debug::_Safe_iterator") align 8 %0, %"class.std::__debug::vector.3"* nonnull align 8 dereferenceable(56) %1) local_unnamed_addr #7 comdat align 2 {
  %3 = getelementptr inbounds %"class.std::__debug::vector.3", %"class.std::__debug::vector.3"* %1, i64 0, i32 1, i32 0, i32 0, i32 0, i32 1
  %4 = load %"class.std::__debug::vector"*, %"class.std::__debug::vector"** %3, align 8, !tbaa !46
  %5 = bitcast %"class.std::__debug::vector.3"* %1 to %"class.__gnu_debug::_Safe_sequence_base"*
  %6 = getelementptr inbounds %"class.__gnu_debug::_Safe_iterator", %"class.__gnu_debug::_Safe_iterator"* %0, i64 0, i32 0, i32 0
  tail call void @_ZN11__gnu_debug14_Safe_iteratorIN9__gnu_cxx17__normal_iteratorIPNSt7__debug6vectorIiSaIiEEENSt9__cxx19986vectorIS6_SaIS6_EEEEENS4_IS6_SA_EESt20forward_iterator_tagEC2ESC_PKNS_19_Safe_sequence_baseE(%"class.__gnu_debug::_Safe_iterator.15"* nonnull align 8 dereferenceable(40) %6, %"class.std::__debug::vector"* %4, %"class.__gnu_debug::_Safe_sequence_base"* nonnull %5) #27
  ret void
}

; Function Attrs: minsize nounwind optsize sspstrong uwtable
define linkonce_odr dso_local zeroext i1 @_ZN11__gnu_debugneERKNS_14_Safe_iteratorIN9__gnu_cxx17__normal_iteratorIPNSt7__debug6vectorIiSaIiEEENSt9__cxx19986vectorIS6_SaIS6_EEEEENS4_IS6_SA_EESt26random_access_iterator_tagEESH_(%"class.__gnu_debug::_Safe_iterator"* nonnull align 8 dereferenceable(40) %0, %"class.__gnu_debug::_Safe_iterator"* nonnull align 8 dereferenceable(40) %1) local_unnamed_addr #7 comdat personality i8* bitcast (i32 (...)* @__gxx_personality_v0 to i8*) {
  %3 = getelementptr inbounds %"class.__gnu_debug::_Safe_iterator", %"class.__gnu_debug::_Safe_iterator"* %0, i64 0, i32 0, i32 0, i32 1
  %4 = tail call zeroext i1 @_ZNK11__gnu_debug19_Safe_iterator_base11_M_singularEv(%"class.__gnu_debug::_Safe_iterator_base"* nonnull align 8 dereferenceable(32) %3) #30
  br i1 %4, label %8, label %5

5:                                                ; preds = %2
  %6 = getelementptr inbounds %"class.__gnu_debug::_Safe_iterator", %"class.__gnu_debug::_Safe_iterator"* %1, i64 0, i32 0, i32 0, i32 1
  %7 = tail call zeroext i1 @_ZNK11__gnu_debug19_Safe_iterator_base11_M_singularEv(%"class.__gnu_debug::_Safe_iterator_base"* nonnull align 8 dereferenceable(32) %6) #30
  br i1 %7, label %8, label %25

8:                                                ; preds = %5, %2
  %9 = getelementptr inbounds %"class.__gnu_debug::_Safe_iterator", %"class.__gnu_debug::_Safe_iterator"* %0, i64 0, i32 0, i32 0, i32 0, i32 0
  %10 = load %"class.std::__debug::vector"*, %"class.std::__debug::vector"** %9, align 8, !tbaa !46
  %11 = icmp eq %"class.std::__debug::vector"* %10, null
  br i1 %11, label %12, label %16

12:                                               ; preds = %8
  %13 = getelementptr inbounds %"class.__gnu_debug::_Safe_iterator", %"class.__gnu_debug::_Safe_iterator"* %1, i64 0, i32 0, i32 0, i32 0, i32 0
  %14 = load %"class.std::__debug::vector"*, %"class.std::__debug::vector"** %13, align 8, !tbaa !46
  %15 = icmp eq %"class.std::__debug::vector"* %14, null
  br i1 %15, label %25, label %16, !prof !44

16:                                               ; preds = %8, %12
  %17 = invoke nonnull align 8 dereferenceable(544) %"class.__gnu_debug::_Error_formatter"* @_ZN11__gnu_debug16_Error_formatter5_S_atEPKcjS2_(i8* getelementptr inbounds ([102 x i8], [102 x i8]* @.str.19, i64 0, i64 0), i32 487, i8* getelementptr inbounds ([117 x i8], [117 x i8]* @__PRETTY_FUNCTION__._ZN11__gnu_debugneERKNS_14_Safe_iteratorIN9__gnu_cxx17__normal_iteratorIPNSt7__debug6vectorIiSaIiEEENSt9__cxx19986vectorIS6_SaIS6_EEEEENS4_IS6_SA_EESt26random_access_iterator_tagEESH_, i64 0, i64 0)) #26
          to label %18 unwind label %43

18:                                               ; preds = %16
  %19 = tail call nonnull align 8 dereferenceable(544) %"class.__gnu_debug::_Error_formatter"* @_ZNK11__gnu_debug16_Error_formatter10_M_messageENS_13_Debug_msg_idE(%"class.__gnu_debug::_Error_formatter"* nonnull align 8 dereferenceable(544) %17, i32 31) #27
  %20 = invoke nonnull align 8 dereferenceable(544) %"class.__gnu_debug::_Error_formatter"* @_ZN11__gnu_debug16_Error_formatter11_M_iteratorINS_14_Safe_iteratorIN9__gnu_cxx17__normal_iteratorIPNSt7__debug6vectorIiSaIiEEENSt9__cxx19986vectorIS8_SaIS8_EEEEENS6_IS8_SC_EESt26random_access_iterator_tagEEEERS0_RKT_PKc(%"class.__gnu_debug::_Error_formatter"* nonnull align 8 dereferenceable(544) %19, %"class.__gnu_debug::_Safe_iterator"* nonnull align 8 dereferenceable(40) %0, i8* getelementptr inbounds ([6 x i8], [6 x i8]* @.str.20, i64 0, i64 0)) #26
          to label %21 unwind label %43

21:                                               ; preds = %18
  %22 = invoke nonnull align 8 dereferenceable(544) %"class.__gnu_debug::_Error_formatter"* @_ZN11__gnu_debug16_Error_formatter11_M_iteratorINS_14_Safe_iteratorIN9__gnu_cxx17__normal_iteratorIPNSt7__debug6vectorIiSaIiEEENSt9__cxx19986vectorIS8_SaIS8_EEEEENS6_IS8_SC_EESt26random_access_iterator_tagEEEERS0_RKT_PKc(%"class.__gnu_debug::_Error_formatter"* nonnull align 8 dereferenceable(544) %20, %"class.__gnu_debug::_Safe_iterator"* nonnull align 8 dereferenceable(40) %1, i8* getelementptr inbounds ([6 x i8], [6 x i8]* @.str.21, i64 0, i64 0)) #26
          to label %23 unwind label %43

23:                                               ; preds = %21
  invoke void @_ZNK11__gnu_debug16_Error_formatter8_M_errorEv(%"class.__gnu_debug::_Error_formatter"* nonnull align 8 dereferenceable(544) %22) #29
          to label %24 unwind label %43

24:                                               ; preds = %23
  unreachable

25:                                               ; preds = %5, %12
  %26 = getelementptr inbounds %"class.__gnu_debug::_Safe_iterator", %"class.__gnu_debug::_Safe_iterator"* %1, i64 0, i32 0, i32 0, i32 1
  %27 = tail call zeroext i1 @_ZNK11__gnu_debug19_Safe_iterator_base14_M_can_compareERKS0_(%"class.__gnu_debug::_Safe_iterator_base"* nonnull align 8 dereferenceable(32) %3, %"class.__gnu_debug::_Safe_iterator_base"* nonnull align 8 dereferenceable(32) %26) #30
  br i1 %27, label %37, label %28, !prof !44

28:                                               ; preds = %25
  %29 = invoke nonnull align 8 dereferenceable(544) %"class.__gnu_debug::_Error_formatter"* @_ZN11__gnu_debug16_Error_formatter5_S_atEPKcjS2_(i8* getelementptr inbounds ([102 x i8], [102 x i8]* @.str.19, i64 0, i64 0), i32 487, i8* getelementptr inbounds ([117 x i8], [117 x i8]* @__PRETTY_FUNCTION__._ZN11__gnu_debugneERKNS_14_Safe_iteratorIN9__gnu_cxx17__normal_iteratorIPNSt7__debug6vectorIiSaIiEEENSt9__cxx19986vectorIS6_SaIS6_EEEEENS4_IS6_SA_EESt26random_access_iterator_tagEESH_, i64 0, i64 0)) #26
          to label %30 unwind label %43

30:                                               ; preds = %28
  %31 = tail call nonnull align 8 dereferenceable(544) %"class.__gnu_debug::_Error_formatter"* @_ZNK11__gnu_debug16_Error_formatter10_M_messageENS_13_Debug_msg_idE(%"class.__gnu_debug::_Error_formatter"* nonnull align 8 dereferenceable(544) %29, i32 32) #27
  %32 = invoke nonnull align 8 dereferenceable(544) %"class.__gnu_debug::_Error_formatter"* @_ZN11__gnu_debug16_Error_formatter11_M_iteratorINS_14_Safe_iteratorIN9__gnu_cxx17__normal_iteratorIPNSt7__debug6vectorIiSaIiEEENSt9__cxx19986vectorIS8_SaIS8_EEEEENS6_IS8_SC_EESt26random_access_iterator_tagEEEERS0_RKT_PKc(%"class.__gnu_debug::_Error_formatter"* nonnull align 8 dereferenceable(544) %31, %"class.__gnu_debug::_Safe_iterator"* nonnull align 8 dereferenceable(40) %0, i8* getelementptr inbounds ([6 x i8], [6 x i8]* @.str.20, i64 0, i64 0)) #26
          to label %33 unwind label %43

33:                                               ; preds = %30
  %34 = invoke nonnull align 8 dereferenceable(544) %"class.__gnu_debug::_Error_formatter"* @_ZN11__gnu_debug16_Error_formatter11_M_iteratorINS_14_Safe_iteratorIN9__gnu_cxx17__normal_iteratorIPNSt7__debug6vectorIiSaIiEEENSt9__cxx19986vectorIS8_SaIS8_EEEEENS6_IS8_SC_EESt26random_access_iterator_tagEEEERS0_RKT_PKc(%"class.__gnu_debug::_Error_formatter"* nonnull align 8 dereferenceable(544) %32, %"class.__gnu_debug::_Safe_iterator"* nonnull align 8 dereferenceable(40) %1, i8* getelementptr inbounds ([6 x i8], [6 x i8]* @.str.21, i64 0, i64 0)) #26
          to label %35 unwind label %43

35:                                               ; preds = %33
  invoke void @_ZNK11__gnu_debug16_Error_formatter8_M_errorEv(%"class.__gnu_debug::_Error_formatter"* nonnull align 8 dereferenceable(544) %34) #29
          to label %36 unwind label %43

36:                                               ; preds = %35
  unreachable

37:                                               ; preds = %25
  %38 = getelementptr inbounds %"class.__gnu_debug::_Safe_iterator", %"class.__gnu_debug::_Safe_iterator"* %0, i64 0, i32 0, i32 0, i32 0, i32 0
  %39 = load %"class.std::__debug::vector"*, %"class.std::__debug::vector"** %38, align 8, !tbaa !46
  %40 = getelementptr inbounds %"class.__gnu_debug::_Safe_iterator", %"class.__gnu_debug::_Safe_iterator"* %1, i64 0, i32 0, i32 0, i32 0, i32 0
  %41 = load %"class.std::__debug::vector"*, %"class.std::__debug::vector"** %40, align 8, !tbaa !46
  %42 = icmp ne %"class.std::__debug::vector"* %39, %41
  ret i1 %42

43:                                               ; preds = %35, %33, %30, %28, %23, %21, %18, %16
  %44 = landingpad { i8*, i32 }
          catch i8* null
  %45 = extractvalue { i8*, i32 } %44, 0
  tail call void @__clang_call_terminate(i8* %45) #28
  unreachable
}

; Function Attrs: minsize mustprogress nounwind optsize sspstrong uwtable
define linkonce_odr dso_local nonnull align 8 dereferenceable(56) %"class.std::__debug::vector"* @_ZNK11__gnu_debug14_Safe_iteratorIN9__gnu_cxx17__normal_iteratorIPNSt7__debug6vectorIiSaIiEEENSt9__cxx19986vectorIS6_SaIS6_EEEEENS4_IS6_SA_EESt20forward_iterator_tagEdeEv(%"class.__gnu_debug::_Safe_iterator.15"* nonnull align 8 dereferenceable(40) %0) local_unnamed_addr #9 comdat align 2 personality i8* bitcast (i32 (...)* @__gxx_personality_v0 to i8*) {
  %2 = invoke zeroext i1 @_ZNK11__gnu_debug14_Safe_iteratorIN9__gnu_cxx17__normal_iteratorIPNSt7__debug6vectorIiSaIiEEENSt9__cxx19986vectorIS6_SaIS6_EEEEENS4_IS6_SA_EESt20forward_iterator_tagE18_M_dereferenceableEv(%"class.__gnu_debug::_Safe_iterator.15"* nonnull align 8 dereferenceable(40) %0) #26
          to label %3 unwind label %14

3:                                                ; preds = %1
  br i1 %2, label %11, label %4, !prof !44

4:                                                ; preds = %3
  %5 = invoke nonnull align 8 dereferenceable(544) %"class.__gnu_debug::_Error_formatter"* @_ZN11__gnu_debug16_Error_formatter5_S_atEPKcjS2_(i8* getelementptr inbounds ([102 x i8], [102 x i8]* @.str.19, i64 0, i64 0), i32 305, i8* getelementptr inbounds ([423 x i8], [423 x i8]* @__PRETTY_FUNCTION__._ZNK11__gnu_debug14_Safe_iteratorIN9__gnu_cxx17__normal_iteratorIPNSt7__debug6vectorIiSaIiEEENSt9__cxx19986vectorIS6_SaIS6_EEEEENS4_IS6_SA_EESt20forward_iterator_tagEdeEv, i64 0, i64 0)) #26
          to label %6 unwind label %14

6:                                                ; preds = %4
  %7 = tail call nonnull align 8 dereferenceable(544) %"class.__gnu_debug::_Error_formatter"* @_ZNK11__gnu_debug16_Error_formatter10_M_messageENS_13_Debug_msg_idE(%"class.__gnu_debug::_Error_formatter"* nonnull align 8 dereferenceable(544) %5, i32 25) #27
  %8 = invoke nonnull align 8 dereferenceable(544) %"class.__gnu_debug::_Error_formatter"* @_ZN11__gnu_debug16_Error_formatter11_M_iteratorINS_14_Safe_iteratorIN9__gnu_cxx17__normal_iteratorIPNSt7__debug6vectorIiSaIiEEENSt9__cxx19986vectorIS8_SaIS8_EEEEENS6_IS8_SC_EESt20forward_iterator_tagEEEERS0_RKT_PKc(%"class.__gnu_debug::_Error_formatter"* nonnull align 8 dereferenceable(544) %7, %"class.__gnu_debug::_Safe_iterator.15"* nonnull align 8 dereferenceable(40) %0, i8* getelementptr inbounds ([5 x i8], [5 x i8]* @.str.8, i64 0, i64 0)) #26
          to label %9 unwind label %14

9:                                                ; preds = %6
  invoke void @_ZNK11__gnu_debug16_Error_formatter8_M_errorEv(%"class.__gnu_debug::_Error_formatter"* nonnull align 8 dereferenceable(544) %8) #29
          to label %10 unwind label %14

10:                                               ; preds = %9
  unreachable

11:                                               ; preds = %3
  %12 = getelementptr inbounds %"class.__gnu_debug::_Safe_iterator.15", %"class.__gnu_debug::_Safe_iterator.15"* %0, i64 0, i32 0, i32 0
  %13 = load %"class.std::__debug::vector"*, %"class.std::__debug::vector"** %12, align 8, !tbaa !48
  ret %"class.std::__debug::vector"* %13

14:                                               ; preds = %9, %6, %4, %1
  %15 = landingpad { i8*, i32 }
          catch i8* null
  %16 = extractvalue { i8*, i32 } %15, 0
  tail call void @__clang_call_terminate(i8* %16) #28
  unreachable
}

; Function Attrs: minsize optsize sspstrong uwtable
define linkonce_odr dso_local void @_ZNSt7__debug6vectorIiSaIiEEC2ERKS2_(%"class.std::__debug::vector"* nonnull align 8 dereferenceable(56) %0, %"class.std::__debug::vector"* nonnull align 8 dereferenceable(56) %1) unnamed_addr #6 comdat align 2 personality i8* bitcast (i32 (...)* @__gxx_personality_v0 to i8*) {
  %3 = getelementptr inbounds %"class.std::__debug::vector", %"class.std::__debug::vector"* %0, i64 0, i32 0, i32 0, i32 0, i32 2
  %4 = bitcast %"class.std::__debug::vector"* %0 to i8*
  tail call void @llvm.memset.p0i8.i64(i8* noundef nonnull align 8 dereferenceable(16) %4, i8 0, i64 16, i1 false) #25
  store i32 1, i32* %3, align 8, !tbaa !24
  %5 = getelementptr inbounds %"class.std::__debug::vector", %"class.std::__debug::vector"* %0, i64 0, i32 1
  %6 = getelementptr inbounds %"class.std::__debug::vector", %"class.std::__debug::vector"* %1, i64 0, i32 1
  invoke void @_ZNSt9__cxx19986vectorIiSaIiEEC2ERKS2_(%"class.std::__cxx1998::vector"* nonnull align 8 dereferenceable(24) %5, %"class.std::__cxx1998::vector"* nonnull align 8 dereferenceable(24) %6) #26
          to label %7 unwind label %10

7:                                                ; preds = %2
  %8 = getelementptr inbounds %"class.std::__debug::vector", %"class.std::__debug::vector"* %0, i64 0, i32 2
  %9 = getelementptr inbounds %"class.__gnu_debug::_Safe_vector", %"class.__gnu_debug::_Safe_vector"* %8, i64 0, i32 0
  store i64 0, i64* %9, align 8, !tbaa !34
  tail call void @_ZN11__gnu_debug12_Safe_vectorINSt7__debug6vectorIiSaIiEEENSt9__cxx19986vectorIiS3_EEE29_M_update_guaranteed_capacityEv(%"class.__gnu_debug::_Safe_vector"* nonnull align 8 dereferenceable(8) %8) #27
  ret void

10:                                               ; preds = %2
  %11 = landingpad { i8*, i32 }
          cleanup
  %12 = bitcast %"class.std::__debug::vector"* %0 to %"class.__gnu_debug::_Safe_sequence_base"*
  tail call void @_ZN11__gnu_debug19_Safe_sequence_baseD2Ev(%"class.__gnu_debug::_Safe_sequence_base"* nonnull align 8 dereferenceable(20) %12) #27
  resume { i8*, i32 } %11
}

; Function Attrs: minsize nounwind optsize sspstrong uwtable
define linkonce_odr dso_local void @_ZNSt7__debug6vectorIiSaIiEE5beginEv(%"class.__gnu_debug::_Safe_iterator.23"* noalias sret(%"class.__gnu_debug::_Safe_iterator.23") align 8 %0, %"class.std::__debug::vector"* nonnull align 8 dereferenceable(56) %1) local_unnamed_addr #7 comdat align 2 {
  %3 = getelementptr inbounds %"class.std::__debug::vector", %"class.std::__debug::vector"* %1, i64 0, i32 1, i32 0, i32 0, i32 0, i32 0
  %4 = load i32*, i32** %3, align 8, !tbaa !46
  %5 = bitcast %"class.std::__debug::vector"* %1 to %"class.__gnu_debug::_Safe_sequence_base"*
  %6 = getelementptr inbounds %"class.__gnu_debug::_Safe_iterator.23", %"class.__gnu_debug::_Safe_iterator.23"* %0, i64 0, i32 0, i32 0
  tail call void @_ZN11__gnu_debug14_Safe_iteratorIN9__gnu_cxx17__normal_iteratorIPiNSt9__cxx19986vectorIiSaIiEEEEENSt7__debug6vectorIiS6_EESt20forward_iterator_tagEC2ES8_PKNS_19_Safe_sequence_baseE(%"class.__gnu_debug::_Safe_iterator.25"* nonnull align 8 dereferenceable(40) %6, i32* %4, %"class.__gnu_debug::_Safe_sequence_base"* nonnull %5) #27
  ret void
}

; Function Attrs: minsize nounwind optsize sspstrong uwtable
define linkonce_odr dso_local void @_ZNSt7__debug6vectorIiSaIiEE3endEv(%"class.__gnu_debug::_Safe_iterator.23"* noalias sret(%"class.__gnu_debug::_Safe_iterator.23") align 8 %0, %"class.std::__debug::vector"* nonnull align 8 dereferenceable(56) %1) local_unnamed_addr #7 comdat align 2 {
  %3 = getelementptr inbounds %"class.std::__debug::vector", %"class.std::__debug::vector"* %1, i64 0, i32 1, i32 0, i32 0, i32 0, i32 1
  %4 = load i32*, i32** %3, align 8, !tbaa !46
  %5 = bitcast %"class.std::__debug::vector"* %1 to %"class.__gnu_debug::_Safe_sequence_base"*
  %6 = getelementptr inbounds %"class.__gnu_debug::_Safe_iterator.23", %"class.__gnu_debug::_Safe_iterator.23"* %0, i64 0, i32 0, i32 0
  tail call void @_ZN11__gnu_debug14_Safe_iteratorIN9__gnu_cxx17__normal_iteratorIPiNSt9__cxx19986vectorIiSaIiEEEEENSt7__debug6vectorIiS6_EESt20forward_iterator_tagEC2ES8_PKNS_19_Safe_sequence_baseE(%"class.__gnu_debug::_Safe_iterator.25"* nonnull align 8 dereferenceable(40) %6, i32* %4, %"class.__gnu_debug::_Safe_sequence_base"* nonnull %5) #27
  ret void
}

; Function Attrs: minsize nounwind optsize sspstrong uwtable
define linkonce_odr dso_local zeroext i1 @_ZN11__gnu_debugneERKNS_14_Safe_iteratorIN9__gnu_cxx17__normal_iteratorIPiNSt9__cxx19986vectorIiSaIiEEEEENSt7__debug6vectorIiS6_EESt26random_access_iterator_tagEESF_(%"class.__gnu_debug::_Safe_iterator.23"* nonnull align 8 dereferenceable(40) %0, %"class.__gnu_debug::_Safe_iterator.23"* nonnull align 8 dereferenceable(40) %1) local_unnamed_addr #7 comdat personality i8* bitcast (i32 (...)* @__gxx_personality_v0 to i8*) {
  %3 = getelementptr inbounds %"class.__gnu_debug::_Safe_iterator.23", %"class.__gnu_debug::_Safe_iterator.23"* %0, i64 0, i32 0, i32 0, i32 1
  %4 = tail call zeroext i1 @_ZNK11__gnu_debug19_Safe_iterator_base11_M_singularEv(%"class.__gnu_debug::_Safe_iterator_base"* nonnull align 8 dereferenceable(32) %3) #30
  br i1 %4, label %8, label %5

5:                                                ; preds = %2
  %6 = getelementptr inbounds %"class.__gnu_debug::_Safe_iterator.23", %"class.__gnu_debug::_Safe_iterator.23"* %1, i64 0, i32 0, i32 0, i32 1
  %7 = tail call zeroext i1 @_ZNK11__gnu_debug19_Safe_iterator_base11_M_singularEv(%"class.__gnu_debug::_Safe_iterator_base"* nonnull align 8 dereferenceable(32) %6) #30
  br i1 %7, label %8, label %25

8:                                                ; preds = %5, %2
  %9 = getelementptr inbounds %"class.__gnu_debug::_Safe_iterator.23", %"class.__gnu_debug::_Safe_iterator.23"* %0, i64 0, i32 0, i32 0, i32 0, i32 0
  %10 = load i32*, i32** %9, align 8, !tbaa !46
  %11 = icmp eq i32* %10, null
  br i1 %11, label %12, label %16

12:                                               ; preds = %8
  %13 = getelementptr inbounds %"class.__gnu_debug::_Safe_iterator.23", %"class.__gnu_debug::_Safe_iterator.23"* %1, i64 0, i32 0, i32 0, i32 0, i32 0
  %14 = load i32*, i32** %13, align 8, !tbaa !46
  %15 = icmp eq i32* %14, null
  br i1 %15, label %25, label %16, !prof !44

16:                                               ; preds = %8, %12
  %17 = invoke nonnull align 8 dereferenceable(544) %"class.__gnu_debug::_Error_formatter"* @_ZN11__gnu_debug16_Error_formatter5_S_atEPKcjS2_(i8* getelementptr inbounds ([102 x i8], [102 x i8]* @.str.19, i64 0, i64 0), i32 487, i8* getelementptr inbounds ([117 x i8], [117 x i8]* @__PRETTY_FUNCTION__._ZN11__gnu_debugneERKNS_14_Safe_iteratorIN9__gnu_cxx17__normal_iteratorIPNSt7__debug6vectorIiSaIiEEENSt9__cxx19986vectorIS6_SaIS6_EEEEENS4_IS6_SA_EESt26random_access_iterator_tagEESH_, i64 0, i64 0)) #26
          to label %18 unwind label %43

18:                                               ; preds = %16
  %19 = tail call nonnull align 8 dereferenceable(544) %"class.__gnu_debug::_Error_formatter"* @_ZNK11__gnu_debug16_Error_formatter10_M_messageENS_13_Debug_msg_idE(%"class.__gnu_debug::_Error_formatter"* nonnull align 8 dereferenceable(544) %17, i32 31) #27
  %20 = invoke nonnull align 8 dereferenceable(544) %"class.__gnu_debug::_Error_formatter"* @_ZN11__gnu_debug16_Error_formatter11_M_iteratorINS_14_Safe_iteratorIN9__gnu_cxx17__normal_iteratorIPiNSt9__cxx19986vectorIiSaIiEEEEENSt7__debug6vectorIiS8_EESt26random_access_iterator_tagEEEERS0_RKT_PKc(%"class.__gnu_debug::_Error_formatter"* nonnull align 8 dereferenceable(544) %19, %"class.__gnu_debug::_Safe_iterator.23"* nonnull align 8 dereferenceable(40) %0, i8* getelementptr inbounds ([6 x i8], [6 x i8]* @.str.20, i64 0, i64 0)) #26
          to label %21 unwind label %43

21:                                               ; preds = %18
  %22 = invoke nonnull align 8 dereferenceable(544) %"class.__gnu_debug::_Error_formatter"* @_ZN11__gnu_debug16_Error_formatter11_M_iteratorINS_14_Safe_iteratorIN9__gnu_cxx17__normal_iteratorIPiNSt9__cxx19986vectorIiSaIiEEEEENSt7__debug6vectorIiS8_EESt26random_access_iterator_tagEEEERS0_RKT_PKc(%"class.__gnu_debug::_Error_formatter"* nonnull align 8 dereferenceable(544) %20, %"class.__gnu_debug::_Safe_iterator.23"* nonnull align 8 dereferenceable(40) %1, i8* getelementptr inbounds ([6 x i8], [6 x i8]* @.str.21, i64 0, i64 0)) #26
          to label %23 unwind label %43

23:                                               ; preds = %21
  invoke void @_ZNK11__gnu_debug16_Error_formatter8_M_errorEv(%"class.__gnu_debug::_Error_formatter"* nonnull align 8 dereferenceable(544) %22) #29
          to label %24 unwind label %43

24:                                               ; preds = %23
  unreachable

25:                                               ; preds = %5, %12
  %26 = getelementptr inbounds %"class.__gnu_debug::_Safe_iterator.23", %"class.__gnu_debug::_Safe_iterator.23"* %1, i64 0, i32 0, i32 0, i32 1
  %27 = tail call zeroext i1 @_ZNK11__gnu_debug19_Safe_iterator_base14_M_can_compareERKS0_(%"class.__gnu_debug::_Safe_iterator_base"* nonnull align 8 dereferenceable(32) %3, %"class.__gnu_debug::_Safe_iterator_base"* nonnull align 8 dereferenceable(32) %26) #30
  br i1 %27, label %37, label %28, !prof !44

28:                                               ; preds = %25
  %29 = invoke nonnull align 8 dereferenceable(544) %"class.__gnu_debug::_Error_formatter"* @_ZN11__gnu_debug16_Error_formatter5_S_atEPKcjS2_(i8* getelementptr inbounds ([102 x i8], [102 x i8]* @.str.19, i64 0, i64 0), i32 487, i8* getelementptr inbounds ([117 x i8], [117 x i8]* @__PRETTY_FUNCTION__._ZN11__gnu_debugneERKNS_14_Safe_iteratorIN9__gnu_cxx17__normal_iteratorIPNSt7__debug6vectorIiSaIiEEENSt9__cxx19986vectorIS6_SaIS6_EEEEENS4_IS6_SA_EESt26random_access_iterator_tagEESH_, i64 0, i64 0)) #26
          to label %30 unwind label %43

30:                                               ; preds = %28
  %31 = tail call nonnull align 8 dereferenceable(544) %"class.__gnu_debug::_Error_formatter"* @_ZNK11__gnu_debug16_Error_formatter10_M_messageENS_13_Debug_msg_idE(%"class.__gnu_debug::_Error_formatter"* nonnull align 8 dereferenceable(544) %29, i32 32) #27
  %32 = invoke nonnull align 8 dereferenceable(544) %"class.__gnu_debug::_Error_formatter"* @_ZN11__gnu_debug16_Error_formatter11_M_iteratorINS_14_Safe_iteratorIN9__gnu_cxx17__normal_iteratorIPiNSt9__cxx19986vectorIiSaIiEEEEENSt7__debug6vectorIiS8_EESt26random_access_iterator_tagEEEERS0_RKT_PKc(%"class.__gnu_debug::_Error_formatter"* nonnull align 8 dereferenceable(544) %31, %"class.__gnu_debug::_Safe_iterator.23"* nonnull align 8 dereferenceable(40) %0, i8* getelementptr inbounds ([6 x i8], [6 x i8]* @.str.20, i64 0, i64 0)) #26
          to label %33 unwind label %43

33:                                               ; preds = %30
  %34 = invoke nonnull align 8 dereferenceable(544) %"class.__gnu_debug::_Error_formatter"* @_ZN11__gnu_debug16_Error_formatter11_M_iteratorINS_14_Safe_iteratorIN9__gnu_cxx17__normal_iteratorIPiNSt9__cxx19986vectorIiSaIiEEEEENSt7__debug6vectorIiS8_EESt26random_access_iterator_tagEEEERS0_RKT_PKc(%"class.__gnu_debug::_Error_formatter"* nonnull align 8 dereferenceable(544) %32, %"class.__gnu_debug::_Safe_iterator.23"* nonnull align 8 dereferenceable(40) %1, i8* getelementptr inbounds ([6 x i8], [6 x i8]* @.str.21, i64 0, i64 0)) #26
          to label %35 unwind label %43

35:                                               ; preds = %33
  invoke void @_ZNK11__gnu_debug16_Error_formatter8_M_errorEv(%"class.__gnu_debug::_Error_formatter"* nonnull align 8 dereferenceable(544) %34) #29
          to label %36 unwind label %43

36:                                               ; preds = %35
  unreachable

37:                                               ; preds = %25
  %38 = getelementptr inbounds %"class.__gnu_debug::_Safe_iterator.23", %"class.__gnu_debug::_Safe_iterator.23"* %0, i64 0, i32 0, i32 0, i32 0, i32 0
  %39 = load i32*, i32** %38, align 8, !tbaa !46
  %40 = getelementptr inbounds %"class.__gnu_debug::_Safe_iterator.23", %"class.__gnu_debug::_Safe_iterator.23"* %1, i64 0, i32 0, i32 0, i32 0, i32 0
  %41 = load i32*, i32** %40, align 8, !tbaa !46
  %42 = icmp ne i32* %39, %41
  ret i1 %42

43:                                               ; preds = %35, %33, %30, %28, %23, %21, %18, %16
  %44 = landingpad { i8*, i32 }
          catch i8* null
  %45 = extractvalue { i8*, i32 } %44, 0
  tail call void @__clang_call_terminate(i8* %45) #28
  unreachable
}

; Function Attrs: minsize mustprogress nounwind optsize sspstrong uwtable
define linkonce_odr dso_local nonnull align 4 dereferenceable(4) i32* @_ZNK11__gnu_debug14_Safe_iteratorIN9__gnu_cxx17__normal_iteratorIPiNSt9__cxx19986vectorIiSaIiEEEEENSt7__debug6vectorIiS6_EESt20forward_iterator_tagEdeEv(%"class.__gnu_debug::_Safe_iterator.25"* nonnull align 8 dereferenceable(40) %0) local_unnamed_addr #9 comdat align 2 personality i8* bitcast (i32 (...)* @__gxx_personality_v0 to i8*) {
  %2 = invoke zeroext i1 @_ZNK11__gnu_debug14_Safe_iteratorIN9__gnu_cxx17__normal_iteratorIPiNSt9__cxx19986vectorIiSaIiEEEEENSt7__debug6vectorIiS6_EESt20forward_iterator_tagE18_M_dereferenceableEv(%"class.__gnu_debug::_Safe_iterator.25"* nonnull align 8 dereferenceable(40) %0) #26
          to label %3 unwind label %14

3:                                                ; preds = %1
  br i1 %2, label %11, label %4, !prof !44

4:                                                ; preds = %3
  %5 = invoke nonnull align 8 dereferenceable(544) %"class.__gnu_debug::_Error_formatter"* @_ZN11__gnu_debug16_Error_formatter5_S_atEPKcjS2_(i8* getelementptr inbounds ([102 x i8], [102 x i8]* @.str.19, i64 0, i64 0), i32 305, i8* getelementptr inbounds ([345 x i8], [345 x i8]* @__PRETTY_FUNCTION__._ZNK11__gnu_debug14_Safe_iteratorIN9__gnu_cxx17__normal_iteratorIPiNSt9__cxx19986vectorIiSaIiEEEEENSt7__debug6vectorIiS6_EESt20forward_iterator_tagEdeEv, i64 0, i64 0)) #26
          to label %6 unwind label %14

6:                                                ; preds = %4
  %7 = tail call nonnull align 8 dereferenceable(544) %"class.__gnu_debug::_Error_formatter"* @_ZNK11__gnu_debug16_Error_formatter10_M_messageENS_13_Debug_msg_idE(%"class.__gnu_debug::_Error_formatter"* nonnull align 8 dereferenceable(544) %5, i32 25) #27
  %8 = invoke nonnull align 8 dereferenceable(544) %"class.__gnu_debug::_Error_formatter"* @_ZN11__gnu_debug16_Error_formatter11_M_iteratorINS_14_Safe_iteratorIN9__gnu_cxx17__normal_iteratorIPiNSt9__cxx19986vectorIiSaIiEEEEENSt7__debug6vectorIiS8_EESt20forward_iterator_tagEEEERS0_RKT_PKc(%"class.__gnu_debug::_Error_formatter"* nonnull align 8 dereferenceable(544) %7, %"class.__gnu_debug::_Safe_iterator.25"* nonnull align 8 dereferenceable(40) %0, i8* getelementptr inbounds ([5 x i8], [5 x i8]* @.str.8, i64 0, i64 0)) #26
          to label %9 unwind label %14

9:                                                ; preds = %6
  invoke void @_ZNK11__gnu_debug16_Error_formatter8_M_errorEv(%"class.__gnu_debug::_Error_formatter"* nonnull align 8 dereferenceable(544) %8) #29
          to label %10 unwind label %14

10:                                               ; preds = %9
  unreachable

11:                                               ; preds = %3
  %12 = getelementptr inbounds %"class.__gnu_debug::_Safe_iterator.25", %"class.__gnu_debug::_Safe_iterator.25"* %0, i64 0, i32 0, i32 0
  %13 = load i32*, i32** %12, align 8, !tbaa !50
  ret i32* %13

14:                                               ; preds = %9, %6, %4, %1
  %15 = landingpad { i8*, i32 }
          catch i8* null
  %16 = extractvalue { i8*, i32 } %15, 0
  tail call void @__clang_call_terminate(i8* %16) #28
  unreachable
}

; Function Attrs: minsize optsize sspstrong uwtable
define linkonce_odr dso_local void @_ZNSt7__debug3setIiSt4lessIiESaIiEE6insertERKi(%"struct.std::pair"* noalias sret(%"struct.std::pair") align 8 %0, %"class.std::__debug::set"* nonnull align 8 dereferenceable(72) %1, i32* nonnull align 4 dereferenceable(4) %2) local_unnamed_addr #6 comdat align 2 personality i8* bitcast (i32 (...)* @__gxx_personality_v0 to i8*) {
  %4 = alloca %"class.__gnu_debug::_Safe_iterator.27", align 8
  %5 = getelementptr inbounds %"class.std::__debug::set", %"class.std::__debug::set"* %1, i64 0, i32 1, i32 0, i32 0, i32 0, i32 0, i32 0
  %6 = bitcast i8* %5 to %"class.std::_Rb_tree"*
  %7 = tail call { %"struct.std::_Rb_tree_node_base"*, i8 } @_ZNSt8_Rb_treeIiiSt9_IdentityIiESt4lessIiESaIiEE16_M_insert_uniqueIRKiEESt4pairISt17_Rb_tree_iteratorIiEbEOT_(%"class.std::_Rb_tree"* nonnull align 8 dereferenceable(48) %6, i32* nonnull align 4 dereferenceable(4) %2) #26
  %8 = extractvalue { %"struct.std::_Rb_tree_node_base"*, i8 } %7, 0
  %9 = extractvalue { %"struct.std::_Rb_tree_node_base"*, i8 } %7, 1
  %10 = bitcast %"class.__gnu_debug::_Safe_iterator.27"* %4 to i8*
  call void @llvm.lifetime.start.p0i8(i64 40, i8* nonnull %10) #25
  %11 = bitcast %"class.std::__debug::set"* %1 to %"class.__gnu_debug::_Safe_sequence_base"*
  %12 = getelementptr inbounds %"class.__gnu_debug::_Safe_iterator.27", %"class.__gnu_debug::_Safe_iterator.27"* %4, i64 0, i32 0
  call void @_ZN11__gnu_debug14_Safe_iteratorISt23_Rb_tree_const_iteratorIiENSt7__debug3setIiSt4lessIiESaIiEEESt20forward_iterator_tagEC2ES2_PKNS_19_Safe_sequence_baseE(%"class.__gnu_debug::_Safe_iterator.28"* nonnull align 8 dereferenceable(40) %12, %"struct.std::_Rb_tree_node_base"* %8, %"class.__gnu_debug::_Safe_sequence_base"* nonnull %11) #27
  %13 = getelementptr inbounds %"struct.std::pair", %"struct.std::pair"* %0, i64 0, i32 0, i32 0
  call void @_ZN11__gnu_debug14_Safe_iteratorISt23_Rb_tree_const_iteratorIiENSt7__debug3setIiSt4lessIiESaIiEEESt20forward_iterator_tagEC2EOSA_(%"class.__gnu_debug::_Safe_iterator.28"* nonnull align 8 dereferenceable(40) %13, %"class.__gnu_debug::_Safe_iterator.28"* nonnull align 8 dereferenceable(40) %12) #27
  %14 = getelementptr inbounds %"struct.std::pair", %"struct.std::pair"* %0, i64 0, i32 1
  store i8 %9, i8* %14, align 8, !tbaa !52
  %15 = getelementptr inbounds %"class.__gnu_debug::_Safe_iterator.27", %"class.__gnu_debug::_Safe_iterator.27"* %4, i64 0, i32 0, i32 1
  call void @_ZN11__gnu_debug19_Safe_iterator_baseD2Ev(%"class.__gnu_debug::_Safe_iterator_base"* nonnull align 8 dereferenceable(32) %15) #27
  call void @llvm.lifetime.end.p0i8(i64 40, i8* nonnull %10) #25
  ret void
}

; Function Attrs: minsize nounwind optsize sspstrong uwtable
define linkonce_odr dso_local zeroext i1 @_ZN11__gnu_debugneERKNS_14_Safe_iteratorISt23_Rb_tree_const_iteratorIiENSt7__debug3setIiSt4lessIiESaIiEEESt26bidirectional_iterator_tagEESC_(%"class.__gnu_debug::_Safe_iterator.27"* nonnull align 8 dereferenceable(40) %0, %"class.__gnu_debug::_Safe_iterator.27"* nonnull align 8 dereferenceable(40) %1) local_unnamed_addr #7 comdat personality i8* bitcast (i32 (...)* @__gxx_personality_v0 to i8*) {
  %3 = getelementptr inbounds %"class.__gnu_debug::_Safe_iterator.27", %"class.__gnu_debug::_Safe_iterator.27"* %0, i64 0, i32 0, i32 1
  %4 = tail call zeroext i1 @_ZNK11__gnu_debug19_Safe_iterator_base11_M_singularEv(%"class.__gnu_debug::_Safe_iterator_base"* nonnull align 8 dereferenceable(32) %3) #30
  br i1 %4, label %8, label %5

5:                                                ; preds = %2
  %6 = getelementptr inbounds %"class.__gnu_debug::_Safe_iterator.27", %"class.__gnu_debug::_Safe_iterator.27"* %1, i64 0, i32 0, i32 1
  %7 = tail call zeroext i1 @_ZNK11__gnu_debug19_Safe_iterator_base11_M_singularEv(%"class.__gnu_debug::_Safe_iterator_base"* nonnull align 8 dereferenceable(32) %6) #30
  br i1 %7, label %8, label %25

8:                                                ; preds = %5, %2
  %9 = getelementptr inbounds %"class.__gnu_debug::_Safe_iterator.27", %"class.__gnu_debug::_Safe_iterator.27"* %0, i64 0, i32 0, i32 0, i32 0
  %10 = load %"struct.std::_Rb_tree_node_base"*, %"struct.std::_Rb_tree_node_base"** %9, align 8, !tbaa !55
  %11 = icmp eq %"struct.std::_Rb_tree_node_base"* %10, null
  br i1 %11, label %12, label %16

12:                                               ; preds = %8
  %13 = getelementptr inbounds %"class.__gnu_debug::_Safe_iterator.27", %"class.__gnu_debug::_Safe_iterator.27"* %1, i64 0, i32 0, i32 0, i32 0
  %14 = load %"struct.std::_Rb_tree_node_base"*, %"struct.std::_Rb_tree_node_base"** %13, align 8, !tbaa !55
  %15 = icmp eq %"struct.std::_Rb_tree_node_base"* %14, null
  br i1 %15, label %25, label %16, !prof !44

16:                                               ; preds = %8, %12
  %17 = invoke nonnull align 8 dereferenceable(544) %"class.__gnu_debug::_Error_formatter"* @_ZN11__gnu_debug16_Error_formatter5_S_atEPKcjS2_(i8* getelementptr inbounds ([102 x i8], [102 x i8]* @.str.19, i64 0, i64 0), i32 487, i8* getelementptr inbounds ([117 x i8], [117 x i8]* @__PRETTY_FUNCTION__._ZN11__gnu_debugneERKNS_14_Safe_iteratorIN9__gnu_cxx17__normal_iteratorIPNSt7__debug6vectorIiSaIiEEENSt9__cxx19986vectorIS6_SaIS6_EEEEENS4_IS6_SA_EESt26random_access_iterator_tagEESH_, i64 0, i64 0)) #26
          to label %18 unwind label %43

18:                                               ; preds = %16
  %19 = tail call nonnull align 8 dereferenceable(544) %"class.__gnu_debug::_Error_formatter"* @_ZNK11__gnu_debug16_Error_formatter10_M_messageENS_13_Debug_msg_idE(%"class.__gnu_debug::_Error_formatter"* nonnull align 8 dereferenceable(544) %17, i32 31) #27
  %20 = invoke nonnull align 8 dereferenceable(544) %"class.__gnu_debug::_Error_formatter"* @_ZN11__gnu_debug16_Error_formatter11_M_iteratorINS_14_Safe_iteratorISt23_Rb_tree_const_iteratorIiENSt7__debug3setIiSt4lessIiESaIiEEESt26bidirectional_iterator_tagEEEERS0_RKT_PKc(%"class.__gnu_debug::_Error_formatter"* nonnull align 8 dereferenceable(544) %19, %"class.__gnu_debug::_Safe_iterator.27"* nonnull align 8 dereferenceable(40) %0, i8* getelementptr inbounds ([6 x i8], [6 x i8]* @.str.20, i64 0, i64 0)) #26
          to label %21 unwind label %43

21:                                               ; preds = %18
  %22 = invoke nonnull align 8 dereferenceable(544) %"class.__gnu_debug::_Error_formatter"* @_ZN11__gnu_debug16_Error_formatter11_M_iteratorINS_14_Safe_iteratorISt23_Rb_tree_const_iteratorIiENSt7__debug3setIiSt4lessIiESaIiEEESt26bidirectional_iterator_tagEEEERS0_RKT_PKc(%"class.__gnu_debug::_Error_formatter"* nonnull align 8 dereferenceable(544) %20, %"class.__gnu_debug::_Safe_iterator.27"* nonnull align 8 dereferenceable(40) %1, i8* getelementptr inbounds ([6 x i8], [6 x i8]* @.str.21, i64 0, i64 0)) #26
          to label %23 unwind label %43

23:                                               ; preds = %21
  invoke void @_ZNK11__gnu_debug16_Error_formatter8_M_errorEv(%"class.__gnu_debug::_Error_formatter"* nonnull align 8 dereferenceable(544) %22) #29
          to label %24 unwind label %43

24:                                               ; preds = %23
  unreachable

25:                                               ; preds = %5, %12
  %26 = getelementptr inbounds %"class.__gnu_debug::_Safe_iterator.27", %"class.__gnu_debug::_Safe_iterator.27"* %1, i64 0, i32 0, i32 1
  %27 = tail call zeroext i1 @_ZNK11__gnu_debug19_Safe_iterator_base14_M_can_compareERKS0_(%"class.__gnu_debug::_Safe_iterator_base"* nonnull align 8 dereferenceable(32) %3, %"class.__gnu_debug::_Safe_iterator_base"* nonnull align 8 dereferenceable(32) %26) #30
  br i1 %27, label %37, label %28, !prof !44

28:                                               ; preds = %25
  %29 = invoke nonnull align 8 dereferenceable(544) %"class.__gnu_debug::_Error_formatter"* @_ZN11__gnu_debug16_Error_formatter5_S_atEPKcjS2_(i8* getelementptr inbounds ([102 x i8], [102 x i8]* @.str.19, i64 0, i64 0), i32 487, i8* getelementptr inbounds ([117 x i8], [117 x i8]* @__PRETTY_FUNCTION__._ZN11__gnu_debugneERKNS_14_Safe_iteratorIN9__gnu_cxx17__normal_iteratorIPNSt7__debug6vectorIiSaIiEEENSt9__cxx19986vectorIS6_SaIS6_EEEEENS4_IS6_SA_EESt26random_access_iterator_tagEESH_, i64 0, i64 0)) #26
          to label %30 unwind label %43

30:                                               ; preds = %28
  %31 = tail call nonnull align 8 dereferenceable(544) %"class.__gnu_debug::_Error_formatter"* @_ZNK11__gnu_debug16_Error_formatter10_M_messageENS_13_Debug_msg_idE(%"class.__gnu_debug::_Error_formatter"* nonnull align 8 dereferenceable(544) %29, i32 32) #27
  %32 = invoke nonnull align 8 dereferenceable(544) %"class.__gnu_debug::_Error_formatter"* @_ZN11__gnu_debug16_Error_formatter11_M_iteratorINS_14_Safe_iteratorISt23_Rb_tree_const_iteratorIiENSt7__debug3setIiSt4lessIiESaIiEEESt26bidirectional_iterator_tagEEEERS0_RKT_PKc(%"class.__gnu_debug::_Error_formatter"* nonnull align 8 dereferenceable(544) %31, %"class.__gnu_debug::_Safe_iterator.27"* nonnull align 8 dereferenceable(40) %0, i8* getelementptr inbounds ([6 x i8], [6 x i8]* @.str.20, i64 0, i64 0)) #26
          to label %33 unwind label %43

33:                                               ; preds = %30
  %34 = invoke nonnull align 8 dereferenceable(544) %"class.__gnu_debug::_Error_formatter"* @_ZN11__gnu_debug16_Error_formatter11_M_iteratorINS_14_Safe_iteratorISt23_Rb_tree_const_iteratorIiENSt7__debug3setIiSt4lessIiESaIiEEESt26bidirectional_iterator_tagEEEERS0_RKT_PKc(%"class.__gnu_debug::_Error_formatter"* nonnull align 8 dereferenceable(544) %32, %"class.__gnu_debug::_Safe_iterator.27"* nonnull align 8 dereferenceable(40) %1, i8* getelementptr inbounds ([6 x i8], [6 x i8]* @.str.21, i64 0, i64 0)) #26
          to label %35 unwind label %43

35:                                               ; preds = %33
  invoke void @_ZNK11__gnu_debug16_Error_formatter8_M_errorEv(%"class.__gnu_debug::_Error_formatter"* nonnull align 8 dereferenceable(544) %34) #29
          to label %36 unwind label %43

36:                                               ; preds = %35
  unreachable

37:                                               ; preds = %25
  %38 = getelementptr inbounds %"class.__gnu_debug::_Safe_iterator.27", %"class.__gnu_debug::_Safe_iterator.27"* %0, i64 0, i32 0, i32 0, i32 0
  %39 = load %"struct.std::_Rb_tree_node_base"*, %"struct.std::_Rb_tree_node_base"** %38, align 8, !tbaa !55
  %40 = getelementptr inbounds %"class.__gnu_debug::_Safe_iterator.27", %"class.__gnu_debug::_Safe_iterator.27"* %1, i64 0, i32 0, i32 0, i32 0
  %41 = load %"struct.std::_Rb_tree_node_base"*, %"struct.std::_Rb_tree_node_base"** %40, align 8, !tbaa !55
  %42 = icmp ne %"struct.std::_Rb_tree_node_base"* %39, %41
  ret i1 %42

43:                                               ; preds = %35, %33, %30, %28, %23, %21, %18, %16
  %44 = landingpad { i8*, i32 }
          catch i8* null
  %45 = extractvalue { i8*, i32 } %44, 0
  tail call void @__clang_call_terminate(i8* %45) #28
  unreachable
}

; Function Attrs: minsize optsize sspstrong uwtable
define linkonce_odr dso_local void @_ZNSt7__debug3setIiSt4lessIiESaIiEE4findERKi(%"class.__gnu_debug::_Safe_iterator.27"* noalias sret(%"class.__gnu_debug::_Safe_iterator.27") align 8 %0, %"class.std::__debug::set"* nonnull align 8 dereferenceable(72) %1, i32* nonnull align 4 dereferenceable(4) %2) local_unnamed_addr #6 comdat align 2 {
  %4 = getelementptr inbounds %"class.std::__debug::set", %"class.std::__debug::set"* %1, i64 0, i32 1, i32 0, i32 0, i32 0, i32 0, i32 0
  %5 = bitcast i8* %4 to %"class.std::_Rb_tree"*
  %6 = tail call %"struct.std::_Rb_tree_node_base"* @_ZNSt8_Rb_treeIiiSt9_IdentityIiESt4lessIiESaIiEE4findERKi(%"class.std::_Rb_tree"* nonnull align 8 dereferenceable(48) %5, i32* nonnull align 4 dereferenceable(4) %2) #26
  %7 = bitcast %"class.std::__debug::set"* %1 to %"class.__gnu_debug::_Safe_sequence_base"*
  %8 = getelementptr inbounds %"class.__gnu_debug::_Safe_iterator.27", %"class.__gnu_debug::_Safe_iterator.27"* %0, i64 0, i32 0
  tail call void @_ZN11__gnu_debug14_Safe_iteratorISt23_Rb_tree_const_iteratorIiENSt7__debug3setIiSt4lessIiESaIiEEESt20forward_iterator_tagEC2ES2_PKNS_19_Safe_sequence_baseE(%"class.__gnu_debug::_Safe_iterator.28"* nonnull align 8 dereferenceable(40) %8, %"struct.std::_Rb_tree_node_base"* %6, %"class.__gnu_debug::_Safe_sequence_base"* nonnull %7) #27
  ret void
}

; Function Attrs: minsize nounwind optsize sspstrong uwtable
define linkonce_odr dso_local void @_ZNSt7__debug3setIiSt4lessIiESaIiEE3endEv(%"class.__gnu_debug::_Safe_iterator.27"* noalias sret(%"class.__gnu_debug::_Safe_iterator.27") align 8 %0, %"class.std::__debug::set"* nonnull align 8 dereferenceable(72) %1) local_unnamed_addr #7 comdat align 2 {
  %3 = getelementptr inbounds %"class.std::__debug::set", %"class.std::__debug::set"* %1, i64 0, i32 1, i32 0, i32 0, i32 0, i32 0, i32 0
  %4 = getelementptr inbounds i8, i8* %3, i64 8
  %5 = bitcast i8* %4 to %"struct.std::_Rb_tree_node_base"*
  %6 = bitcast %"class.std::__debug::set"* %1 to %"class.__gnu_debug::_Safe_sequence_base"*
  %7 = getelementptr inbounds %"class.__gnu_debug::_Safe_iterator.27", %"class.__gnu_debug::_Safe_iterator.27"* %0, i64 0, i32 0
  tail call void @_ZN11__gnu_debug14_Safe_iteratorISt23_Rb_tree_const_iteratorIiENSt7__debug3setIiSt4lessIiESaIiEEESt20forward_iterator_tagEC2ES2_PKNS_19_Safe_sequence_baseE(%"class.__gnu_debug::_Safe_iterator.28"* nonnull align 8 dereferenceable(40) %7, %"struct.std::_Rb_tree_node_base"* nonnull %5, %"class.__gnu_debug::_Safe_sequence_base"* nonnull %6) #27
  ret void
}

; Function Attrs: minsize nounwind optsize sspstrong uwtable
define linkonce_odr dso_local void @_ZNSt7__debug3setIiSt4lessIiESaIiEED2Ev(%"class.std::__debug::set"* nonnull align 8 dereferenceable(72) %0) unnamed_addr #7 comdat align 2 {
  %2 = getelementptr inbounds %"class.std::__debug::set", %"class.std::__debug::set"* %0, i64 0, i32 1, i32 0, i32 0, i32 0, i32 0, i32 0
  %3 = bitcast i8* %2 to %"class.std::_Rb_tree"*
  tail call void @_ZNSt8_Rb_treeIiiSt9_IdentityIiESt4lessIiESaIiEED2Ev(%"class.std::_Rb_tree"* nonnull align 8 dereferenceable(48) %3) #27
  %4 = bitcast %"class.std::__debug::set"* %0 to %"class.__gnu_debug::_Safe_sequence_base"*
  tail call void @_ZN11__gnu_debug19_Safe_sequence_baseD2Ev(%"class.__gnu_debug::_Safe_sequence_base"* nonnull align 8 dereferenceable(20) %4) #27
  ret void
}

; Function Attrs: minsize nounwind optsize sspstrong uwtable
define linkonce_odr dso_local void @_ZNSt7__debug6vectorIiSaIiEED2Ev(%"class.std::__debug::vector"* nonnull align 8 dereferenceable(56) %0) unnamed_addr #7 comdat align 2 personality i32 (...)* @__gxx_personality_v0 {
  %2 = getelementptr inbounds %"class.std::__debug::vector", %"class.std::__debug::vector"* %0, i64 0, i32 1, i32 0
  tail call void @_ZNSt9__cxx199812_Vector_baseIiSaIiEED2Ev(%"struct.std::__cxx1998::_Vector_base"* nonnull align 8 dereferenceable(24) %2) #27
  %3 = bitcast %"class.std::__debug::vector"* %0 to %"class.__gnu_debug::_Safe_sequence_base"*
  tail call void @_ZN11__gnu_debug19_Safe_sequence_baseD2Ev(%"class.__gnu_debug::_Safe_sequence_base"* nonnull align 8 dereferenceable(20) %3) #27
  ret void
}

; Function Attrs: minsize optsize
declare nonnull align 8 dereferenceable(8) %"class.std::basic_ostream"* @_ZNSolsEi(%"class.std::basic_ostream"* nonnull align 8 dereferenceable(8), i32) local_unnamed_addr #0

; Function Attrs: minsize nounwind optsize sspstrong uwtable
define linkonce_odr dso_local void @_ZNSt7__debug6vectorINS0_IiSaIiEEESaIS2_EED2Ev(%"class.std::__debug::vector.3"* nonnull align 8 dereferenceable(56) %0) unnamed_addr #7 comdat align 2 {
  %2 = getelementptr inbounds %"class.std::__debug::vector.3", %"class.std::__debug::vector.3"* %0, i64 0, i32 1
  tail call void @_ZNSt9__cxx19986vectorINSt7__debug6vectorIiSaIiEEESaIS4_EED2Ev(%"class.std::__cxx1998::vector.8"* nonnull align 8 dereferenceable(24) %2) #27
  %3 = bitcast %"class.std::__debug::vector.3"* %0 to %"class.__gnu_debug::_Safe_sequence_base"*
  tail call void @_ZN11__gnu_debug19_Safe_sequence_baseD2Ev(%"class.__gnu_debug::_Safe_sequence_base"* nonnull align 8 dereferenceable(20) %3) #27
  ret void
}

; Function Attrs: inlinehint minsize nounwind optsize sspstrong uwtable
define linkonce_odr dso_local void @_ZN9UnionfindD2Ev(%class.Unionfind* nonnull align 8 dereferenceable(180) %0) unnamed_addr #10 comdat align 2 {
  %2 = getelementptr inbounds %class.Unionfind, %class.Unionfind* %0, i64 0, i32 4
  tail call void @_ZNSt7__debug6vectorIiSaIiEED2Ev(%"class.std::__debug::vector"* nonnull align 8 dereferenceable(56) %2) #27
  %3 = getelementptr inbounds %class.Unionfind, %class.Unionfind* %0, i64 0, i32 3
  tail call void @_ZNSt7__debug6vectorIiSaIiEED2Ev(%"class.std::__debug::vector"* nonnull align 8 dereferenceable(56) %3) #27
  %4 = getelementptr inbounds %class.Unionfind, %class.Unionfind* %0, i64 0, i32 2
  tail call void @_ZNSt7__debug6vectorIiSaIiEED2Ev(%"class.std::__debug::vector"* nonnull align 8 dereferenceable(56) %4) #27
  ret void
}

; Function Attrs: minsize optsize sspstrong uwtable
define linkonce_odr dso_local void @_ZNSt7__debug6vectorIiSaIiEEC2EmRKiRKS1_(%"class.std::__debug::vector"* nonnull align 8 dereferenceable(56) %0, i64 %1, i32* nonnull align 4 dereferenceable(4) %2, %"class.std::allocator.0"* nonnull align 1 dereferenceable(1) %3) unnamed_addr #6 comdat align 2 personality i8* bitcast (i32 (...)* @__gxx_personality_v0 to i8*) {
  %5 = getelementptr inbounds %"class.std::__debug::vector", %"class.std::__debug::vector"* %0, i64 0, i32 0, i32 0, i32 0, i32 2
  %6 = bitcast %"class.std::__debug::vector"* %0 to i8*
  tail call void @llvm.memset.p0i8.i64(i8* noundef nonnull align 8 dereferenceable(16) %6, i8 0, i64 16, i1 false) #25
  store i32 1, i32* %5, align 8, !tbaa !24
  %7 = getelementptr inbounds %"class.std::__debug::vector", %"class.std::__debug::vector"* %0, i64 0, i32 1
  invoke void @_ZNSt9__cxx19986vectorIiSaIiEEC2EmRKiRKS1_(%"class.std::__cxx1998::vector"* nonnull align 8 dereferenceable(24) %7, i64 %1, i32* nonnull align 4 dereferenceable(4) %2, %"class.std::allocator.0"* nonnull align 1 dereferenceable(1) %3) #26
          to label %8 unwind label %10

8:                                                ; preds = %4
  %9 = getelementptr inbounds %"class.std::__debug::vector", %"class.std::__debug::vector"* %0, i64 0, i32 2
  tail call void @_ZN11__gnu_debug12_Safe_vectorINSt7__debug6vectorIiSaIiEEENSt9__cxx19986vectorIiS3_EEEC2Ev(%"class.__gnu_debug::_Safe_vector"* nonnull align 8 dereferenceable(8) %9) #27
  ret void

10:                                               ; preds = %4
  %11 = landingpad { i8*, i32 }
          cleanup
  %12 = bitcast %"class.std::__debug::vector"* %0 to %"class.__gnu_debug::_Safe_sequence_base"*
  tail call void @_ZN11__gnu_debug19_Safe_sequence_baseD2Ev(%"class.__gnu_debug::_Safe_sequence_base"* nonnull align 8 dereferenceable(20) %12) #27
  resume { i8*, i32 } %11
}

; Function Attrs: minsize optsize sspstrong uwtable
define linkonce_odr dso_local void @_ZNSt9__cxx19986vectorIiSaIiEEC2EmRKiRKS1_(%"class.std::__cxx1998::vector"* nonnull align 8 dereferenceable(24) %0, i64 %1, i32* nonnull align 4 dereferenceable(4) %2, %"class.std::allocator.0"* nonnull align 1 dereferenceable(1) %3) unnamed_addr #6 comdat align 2 personality i8* bitcast (i32 (...)* @__gxx_personality_v0 to i8*) {
  %5 = getelementptr inbounds %"class.std::__cxx1998::vector", %"class.std::__cxx1998::vector"* %0, i64 0, i32 0
  %6 = tail call i64 @_ZNSt9__cxx19986vectorIiSaIiEE17_S_check_init_lenEmRKS1_(i64 %1, %"class.std::allocator.0"* nonnull align 1 dereferenceable(1) %3) #26
  %7 = bitcast %"class.std::__cxx1998::vector"* %0 to i8*
  tail call void @llvm.memset.p0i8.i64(i8* noundef nonnull align 8 dereferenceable(24) %7, i8 0, i64 24, i1 false) #25
  tail call void @_ZNSt9__cxx199812_Vector_baseIiSaIiEE17_M_create_storageEm(%"struct.std::__cxx1998::_Vector_base"* nonnull align 8 dereferenceable(24) %5, i64 %6) #26
  invoke void @_ZNSt9__cxx19986vectorIiSaIiEE18_M_fill_initializeEmRKi(%"class.std::__cxx1998::vector"* nonnull align 8 dereferenceable(24) %0, i64 %1, i32* nonnull align 4 dereferenceable(4) %2) #26
          to label %8 unwind label %9

8:                                                ; preds = %4
  ret void

9:                                                ; preds = %4
  %10 = landingpad { i8*, i32 }
          cleanup
  tail call void @_ZNSt9__cxx199812_Vector_baseIiSaIiEED2Ev(%"struct.std::__cxx1998::_Vector_base"* nonnull align 8 dereferenceable(24) %5) #27
  resume { i8*, i32 } %10
}

; Function Attrs: minsize nounwind optsize sspstrong uwtable
define linkonce_odr dso_local void @_ZN11__gnu_debug12_Safe_vectorINSt7__debug6vectorIiSaIiEEENSt9__cxx19986vectorIiS3_EEEC2Ev(%"class.__gnu_debug::_Safe_vector"* nonnull align 8 dereferenceable(8) %0) unnamed_addr #7 comdat align 2 {
  %2 = getelementptr inbounds %"class.__gnu_debug::_Safe_vector", %"class.__gnu_debug::_Safe_vector"* %0, i64 0, i32 0
  store i64 0, i64* %2, align 8, !tbaa !34
  tail call void @_ZN11__gnu_debug12_Safe_vectorINSt7__debug6vectorIiSaIiEEENSt9__cxx19986vectorIiS3_EEE29_M_update_guaranteed_capacityEv(%"class.__gnu_debug::_Safe_vector"* nonnull align 8 dereferenceable(8) %0) #27
  ret void
}

; Function Attrs: minsize optsize sspstrong uwtable
define linkonce_odr dso_local i64 @_ZNSt9__cxx19986vectorIiSaIiEE17_S_check_init_lenEmRKS1_(i64 %0, %"class.std::allocator.0"* nonnull align 1 dereferenceable(1) %1) local_unnamed_addr #6 comdat align 2 personality i32 (...)* @__gxx_personality_v0 {
  %3 = icmp ugt i64 %0, 2305843009213693951
  br i1 %3, label %4, label %5

4:                                                ; preds = %2
  tail call void @_ZSt20__throw_length_errorPKc(i8* getelementptr inbounds ([49 x i8], [49 x i8]* @.str.3, i64 0, i64 0)) #29
  unreachable

5:                                                ; preds = %2
  ret i64 %0
}

; Function Attrs: minsize mustprogress optsize sspstrong uwtable
define linkonce_odr dso_local void @_ZNSt9__cxx19986vectorIiSaIiEE18_M_fill_initializeEmRKi(%"class.std::__cxx1998::vector"* nonnull align 8 dereferenceable(24) %0, i64 %1, i32* nonnull align 4 dereferenceable(4) %2) local_unnamed_addr #3 comdat align 2 {
  %4 = getelementptr inbounds %"class.std::__cxx1998::vector", %"class.std::__cxx1998::vector"* %0, i64 0, i32 0, i32 0, i32 0, i32 0
  %5 = load i32*, i32** %4, align 8, !tbaa !43
  %6 = tail call i32* @_ZSt10__fill_n_aIPimiET_S1_T0_RKT1_St26random_access_iterator_tag(i32* %5, i64 %1, i32* nonnull align 4 dereferenceable(4) %2) #26
  %7 = getelementptr inbounds %"class.std::__cxx1998::vector", %"class.std::__cxx1998::vector"* %0, i64 0, i32 0, i32 0, i32 0, i32 1
  store i32* %6, i32** %7, align 8, !tbaa !41
  ret void
}

; Function Attrs: minsize nounwind optsize sspstrong uwtable
define linkonce_odr dso_local void @_ZNSt9__cxx199812_Vector_baseIiSaIiEED2Ev(%"struct.std::__cxx1998::_Vector_base"* nonnull align 8 dereferenceable(24) %0) unnamed_addr #7 comdat align 2 personality i8* bitcast (i32 (...)* @__gxx_personality_v0 to i8*) {
  %2 = getelementptr inbounds %"struct.std::__cxx1998::_Vector_base", %"struct.std::__cxx1998::_Vector_base"* %0, i64 0, i32 0, i32 0, i32 0
  %3 = load i32*, i32** %2, align 8, !tbaa !43
  %4 = icmp eq i32* %3, null
  br i1 %4, label %7, label %5

5:                                                ; preds = %1
  %6 = bitcast i32* %3 to i8*
  tail call void @_ZdlPv(i8* nonnull %6) #27
  br label %7

7:                                                ; preds = %5, %1
  ret void
}

; Function Attrs: minsize noreturn optsize
declare void @_ZSt20__throw_length_errorPKc(i8*) local_unnamed_addr #11

; Function Attrs: noinline noreturn nounwind
define linkonce_odr hidden void @__clang_call_terminate(i8* %0) local_unnamed_addr #12 comdat {
  %2 = tail call i8* @__cxa_begin_catch(i8* %0) #25
  tail call void @_ZSt9terminatev() #28
  unreachable
}

declare i8* @__cxa_begin_catch(i8*) local_unnamed_addr

declare void @_ZSt9terminatev() local_unnamed_addr

; Function Attrs: minsize mustprogress optsize sspstrong uwtable
define linkonce_odr dso_local void @_ZNSt9__cxx199812_Vector_baseIiSaIiEE17_M_create_storageEm(%"struct.std::__cxx1998::_Vector_base"* nonnull align 8 dereferenceable(24) %0, i64 %1) local_unnamed_addr #3 comdat align 2 {
  %3 = tail call i32* @_ZNSt9__cxx199812_Vector_baseIiSaIiEE11_M_allocateEm(%"struct.std::__cxx1998::_Vector_base"* nonnull align 8 dereferenceable(24) %0, i64 %1) #26
  %4 = getelementptr inbounds %"struct.std::__cxx1998::_Vector_base", %"struct.std::__cxx1998::_Vector_base"* %0, i64 0, i32 0, i32 0, i32 0
  store i32* %3, i32** %4, align 8, !tbaa !43
  %5 = getelementptr inbounds %"struct.std::__cxx1998::_Vector_base", %"struct.std::__cxx1998::_Vector_base"* %0, i64 0, i32 0, i32 0, i32 1
  store i32* %3, i32** %5, align 8, !tbaa !41
  %6 = getelementptr inbounds i32, i32* %3, i64 %1
  %7 = getelementptr inbounds %"struct.std::__cxx1998::_Vector_base", %"struct.std::__cxx1998::_Vector_base"* %0, i64 0, i32 0, i32 0, i32 2
  store i32* %6, i32** %7, align 8, !tbaa !57
  ret void
}

; Function Attrs: minsize mustprogress optsize sspstrong uwtable
define linkonce_odr dso_local i32* @_ZNSt9__cxx199812_Vector_baseIiSaIiEE11_M_allocateEm(%"struct.std::__cxx1998::_Vector_base"* nonnull align 8 dereferenceable(24) %0, i64 %1) local_unnamed_addr #3 comdat align 2 {
  %3 = icmp eq i64 %1, 0
  br i1 %3, label %7, label %4

4:                                                ; preds = %2
  %5 = bitcast %"struct.std::__cxx1998::_Vector_base"* %0 to %"class.std::allocator.0"*
  %6 = tail call i32* @_ZNSt16allocator_traitsISaIiEE8allocateERS0_m(%"class.std::allocator.0"* nonnull align 1 dereferenceable(1) %5, i64 %1) #26
  br label %7

7:                                                ; preds = %2, %4
  %8 = phi i32* [ %6, %4 ], [ null, %2 ]
  ret i32* %8
}

; Function Attrs: minsize mustprogress optsize sspstrong uwtable
define linkonce_odr dso_local i32* @_ZNSt16allocator_traitsISaIiEE8allocateERS0_m(%"class.std::allocator.0"* nonnull align 1 dereferenceable(1) %0, i64 %1) local_unnamed_addr #3 comdat align 2 {
  %3 = bitcast %"class.std::allocator.0"* %0 to %"class.__gnu_cxx::new_allocator.1"*
  %4 = tail call i32* @_ZN9__gnu_cxx13new_allocatorIiE8allocateEmPKv(%"class.__gnu_cxx::new_allocator.1"* nonnull align 1 dereferenceable(1) %3, i64 %1, i8* null) #26
  ret i32* %4
}

; Function Attrs: minsize mustprogress optsize sspstrong uwtable
define linkonce_odr dso_local i32* @_ZN9__gnu_cxx13new_allocatorIiE8allocateEmPKv(%"class.__gnu_cxx::new_allocator.1"* nonnull align 1 dereferenceable(1) %0, i64 %1, i8* %2) local_unnamed_addr #3 comdat align 2 {
  %4 = icmp ugt i64 %1, 2305843009213693951
  br i1 %4, label %5, label %9, !prof !58

5:                                                ; preds = %3
  %6 = icmp ugt i64 %1, 4611686018427387903
  br i1 %6, label %7, label %8

7:                                                ; preds = %5
  tail call void @_ZSt28__throw_bad_array_new_lengthv() #29
  unreachable

8:                                                ; preds = %5
  tail call void @_ZSt17__throw_bad_allocv() #29
  unreachable

9:                                                ; preds = %3
  %10 = shl nuw nsw i64 %1, 2
  %11 = tail call noalias nonnull i8* @_Znwm(i64 %10) #31
  %12 = bitcast i8* %11 to i32*
  ret i32* %12
}

; Function Attrs: minsize noreturn optsize
declare void @_ZSt28__throw_bad_array_new_lengthv() local_unnamed_addr #11

; Function Attrs: minsize noreturn optsize
declare void @_ZSt17__throw_bad_allocv() local_unnamed_addr #11

; Function Attrs: minsize nobuiltin optsize allocsize(0)
declare nonnull i8* @_Znwm(i64) local_unnamed_addr #13

; Function Attrs: inlinehint minsize mustprogress optsize sspstrong uwtable
define linkonce_odr dso_local i32* @_ZSt10__fill_n_aIPimiET_S1_T0_RKT1_St26random_access_iterator_tag(i32* %0, i64 %1, i32* nonnull align 4 dereferenceable(4) %2) local_unnamed_addr #4 comdat {
  %4 = icmp eq i64 %1, 0
  br i1 %4, label %13, label %5

5:                                                ; preds = %3
  %6 = getelementptr inbounds i32, i32* %0, i64 %1
  %7 = load i32, i32* %2, align 4, !tbaa !19
  br label %8

8:                                                ; preds = %11, %5
  %9 = phi i32* [ %0, %5 ], [ %12, %11 ]
  %10 = icmp eq i32* %9, %6
  br i1 %10, label %13, label %11

11:                                               ; preds = %8
  store i32 %7, i32* %9, align 4, !tbaa !19
  %12 = getelementptr inbounds i32, i32* %9, i64 1
  br label %8, !llvm.loop !59

13:                                               ; preds = %8, %3
  %14 = phi i32* [ %0, %3 ], [ %6, %8 ]
  ret i32* %14
}

; Function Attrs: minsize mustprogress optsize sspstrong uwtable
define linkonce_odr dso_local nonnull align 8 dereferenceable(544) %"class.__gnu_debug::_Error_formatter"* @_ZN11__gnu_debug16_Error_formatter5_S_atEPKcjS2_(i8* %0, i32 %1, i8* %2) local_unnamed_addr #3 comdat align 2 personality i8* bitcast (i32 (...)* @__gxx_personality_v0 to i8*) {
  %4 = load atomic i8, i8* bitcast (i64* @_ZGVZN11__gnu_debug16_Error_formatter5_S_atEPKcjS2_E11__formatter to i8*) acquire, align 8
  %5 = icmp eq i8 %4, 0
  br i1 %5, label %6, label %11, !prof !60

6:                                                ; preds = %3
  %7 = tail call i32 @__cxa_guard_acquire(i64* nonnull @_ZGVZN11__gnu_debug16_Error_formatter5_S_atEPKcjS2_E11__formatter) #25
  %8 = icmp eq i32 %7, 0
  br i1 %8, label %11, label %9

9:                                                ; preds = %6
  invoke void @_ZN11__gnu_debug16_Error_formatterC2EPKcjS2_(%"class.__gnu_debug::_Error_formatter"* nonnull align 8 dereferenceable(544) @_ZZN11__gnu_debug16_Error_formatter5_S_atEPKcjS2_E11__formatter, i8* %0, i32 %1, i8* %2) #26
          to label %10 unwind label %12

10:                                               ; preds = %9
  tail call void @__cxa_guard_release(i64* nonnull @_ZGVZN11__gnu_debug16_Error_formatter5_S_atEPKcjS2_E11__formatter) #25
  br label %11

11:                                               ; preds = %10, %6, %3
  ret %"class.__gnu_debug::_Error_formatter"* @_ZZN11__gnu_debug16_Error_formatter5_S_atEPKcjS2_E11__formatter

12:                                               ; preds = %9
  %13 = landingpad { i8*, i32 }
          cleanup
  tail call void @__cxa_guard_abort(i64* nonnull @_ZGVZN11__gnu_debug16_Error_formatter5_S_atEPKcjS2_E11__formatter) #25
  resume { i8*, i32 } %13
}

; Function Attrs: minsize nounwind optsize
declare nonnull align 8 dereferenceable(544) %"class.__gnu_debug::_Error_formatter"* @_ZNK11__gnu_debug16_Error_formatter10_M_messageENS_13_Debug_msg_idE(%"class.__gnu_debug::_Error_formatter"* nonnull align 8 dereferenceable(544), i32) local_unnamed_addr #1

; Function Attrs: minsize optsize sspstrong uwtable
define linkonce_odr dso_local nonnull align 8 dereferenceable(544) %"class.__gnu_debug::_Error_formatter"* @_ZN11__gnu_debug16_Error_formatter10_M_integerElPKc(%"class.__gnu_debug::_Error_formatter"* nonnull align 8 dereferenceable(544) %0, i64 %1, i8* %2) local_unnamed_addr #6 comdat align 2 {
  %4 = getelementptr inbounds %"class.__gnu_debug::_Error_formatter", %"class.__gnu_debug::_Error_formatter"* %0, i64 0, i32 3
  %5 = load i32, i32* %4, align 8, !tbaa !61
  %6 = icmp ult i32 %5, 9
  br i1 %6, label %7, label %16

7:                                                ; preds = %3
  %8 = add nuw nsw i32 %5, 1
  store i32 %8, i32* %4, align 8, !tbaa !61
  %9 = zext i32 %5 to i64
  %10 = getelementptr inbounds %"class.__gnu_debug::_Error_formatter", %"class.__gnu_debug::_Error_formatter"* %0, i64 0, i32 2, i64 %9, i32 0
  store i32 3, i32* %10, align 8
  %11 = getelementptr inbounds %"class.__gnu_debug::_Error_formatter", %"class.__gnu_debug::_Error_formatter"* %0, i64 0, i32 2, i64 %9, i32 1, i32 0, i32 0, i32 0, i32 0
  store i8* %2, i8** %11, align 8
  %12 = getelementptr inbounds %"class.__gnu_debug::_Error_formatter", %"class.__gnu_debug::_Error_formatter"* %0, i64 0, i32 2, i64 %9, i32 1, i32 0, i32 0, i32 0, i32 1
  %13 = bitcast %"class.std::type_info"** %12 to i64*
  store i64 %1, i64* %13, align 8
  %14 = getelementptr inbounds %"class.__gnu_debug::_Error_formatter", %"class.__gnu_debug::_Error_formatter"* %0, i64 0, i32 2, i64 %9, i32 1, i32 0, i32 0, i32 1
  %15 = bitcast i8** %14 to i8*
  call void @llvm.memset.p0i8.i64(i8* noundef nonnull align 8 dereferenceable(32) %15, i8 0, i64 32, i1 false)
  br label %16

16:                                               ; preds = %7, %3
  ret %"class.__gnu_debug::_Error_formatter"* %0
}

; Function Attrs: minsize noreturn optsize
declare void @_ZNK11__gnu_debug16_Error_formatter8_M_errorEv(%"class.__gnu_debug::_Error_formatter"* nonnull align 8 dereferenceable(544)) local_unnamed_addr #11

; Function Attrs: nofree nounwind
declare i32 @__cxa_guard_acquire(i64*) local_unnamed_addr #2

; Function Attrs: minsize optsize sspstrong uwtable
define linkonce_odr dso_local void @_ZN11__gnu_debug16_Error_formatterC2EPKcjS2_(%"class.__gnu_debug::_Error_formatter"* nonnull align 8 dereferenceable(544) %0, i8* %1, i32 %2, i8* %3) unnamed_addr #6 comdat align 2 {
  %5 = getelementptr inbounds %"class.__gnu_debug::_Error_formatter", %"class.__gnu_debug::_Error_formatter"* %0, i64 0, i32 0
  store i8* %1, i8** %5, align 8, !tbaa !63
  %6 = getelementptr inbounds %"class.__gnu_debug::_Error_formatter", %"class.__gnu_debug::_Error_formatter"* %0, i64 0, i32 1
  store i32 %2, i32* %6, align 8, !tbaa !64
  %7 = getelementptr inbounds %"class.__gnu_debug::_Error_formatter", %"class.__gnu_debug::_Error_formatter"* %0, i64 0, i32 2, i64 0
  %8 = getelementptr inbounds %"class.__gnu_debug::_Error_formatter", %"class.__gnu_debug::_Error_formatter"* %0, i64 0, i32 2, i64 9
  br label %9

9:                                                ; preds = %9, %4
  %10 = phi %"struct.__gnu_debug::_Error_formatter::_Parameter"* [ %7, %4 ], [ %14, %9 ]
  %11 = getelementptr inbounds %"struct.__gnu_debug::_Error_formatter::_Parameter", %"struct.__gnu_debug::_Error_formatter::_Parameter"* %10, i64 0, i32 0
  store i32 0, i32* %11, align 8, !tbaa !65
  %12 = getelementptr inbounds %"struct.__gnu_debug::_Error_formatter::_Parameter", %"struct.__gnu_debug::_Error_formatter::_Parameter"* %10, i64 0, i32 1
  %13 = bitcast %union.anon.29* %12 to i8*
  tail call void @llvm.memset.p0i8.i64(i8* noundef nonnull align 8 dereferenceable(48) %13, i8 0, i64 48, i1 false) #25
  %14 = getelementptr inbounds %"struct.__gnu_debug::_Error_formatter::_Parameter", %"struct.__gnu_debug::_Error_formatter::_Parameter"* %10, i64 1
  %15 = icmp eq %"struct.__gnu_debug::_Error_formatter::_Parameter"* %14, %8
  br i1 %15, label %16, label %9

16:                                               ; preds = %9
  %17 = getelementptr inbounds %"class.__gnu_debug::_Error_formatter", %"class.__gnu_debug::_Error_formatter"* %0, i64 0, i32 3
  store i32 0, i32* %17, align 8, !tbaa !61
  %18 = getelementptr inbounds %"class.__gnu_debug::_Error_formatter", %"class.__gnu_debug::_Error_formatter"* %0, i64 0, i32 4
  store i8* null, i8** %18, align 8, !tbaa !68
  %19 = getelementptr inbounds %"class.__gnu_debug::_Error_formatter", %"class.__gnu_debug::_Error_formatter"* %0, i64 0, i32 5
  store i8* %3, i8** %19, align 8, !tbaa !69
  ret void
}

; Function Attrs: nofree nounwind
declare void @__cxa_guard_abort(i64*) local_unnamed_addr #2

; Function Attrs: nofree nounwind
declare void @__cxa_guard_release(i64*) local_unnamed_addr #2

; Function Attrs: argmemonly mustprogress nofree nounwind willreturn writeonly
declare void @llvm.memset.p0i8.i64(i8* nocapture writeonly, i8, i64, i1 immarg) #14

; Function Attrs: argmemonly mustprogress nofree nounwind willreturn
declare void @llvm.memcpy.p0i8.p0i8.i64(i8* noalias nocapture writeonly, i8* noalias nocapture readonly, i64, i1 immarg) #15

; Function Attrs: minsize nobuiltin nounwind optsize
declare void @_ZdlPv(i8*) local_unnamed_addr #16

; Function Attrs: minsize mustprogress nounwind optsize sspstrong uwtable
define linkonce_odr dso_local void @_ZN11__gnu_debug12_Safe_vectorINSt7__debug6vectorIiSaIiEEENSt9__cxx19986vectorIiS3_EEE29_M_update_guaranteed_capacityEv(%"class.__gnu_debug::_Safe_vector"* nonnull align 8 dereferenceable(8) %0) local_unnamed_addr #9 comdat align 2 personality i8* bitcast (i32 (...)* @__gxx_personality_v0 to i8*) {
  %2 = getelementptr inbounds %"class.__gnu_debug::_Safe_vector", %"class.__gnu_debug::_Safe_vector"* %0, i64 -3
  %3 = getelementptr inbounds %"class.__gnu_debug::_Safe_vector", %"class.__gnu_debug::_Safe_vector"* %0, i64 -2
  %4 = bitcast %"class.__gnu_debug::_Safe_vector"* %3 to i32**
  %5 = load i32*, i32** %4, align 8, !tbaa !41
  %6 = bitcast %"class.__gnu_debug::_Safe_vector"* %2 to i32**
  %7 = load i32*, i32** %6, align 8, !tbaa !43
  %8 = ptrtoint i32* %5 to i64
  %9 = ptrtoint i32* %7 to i64
  %10 = sub i64 %8, %9
  %11 = ashr exact i64 %10, 2
  %12 = getelementptr inbounds %"class.__gnu_debug::_Safe_vector", %"class.__gnu_debug::_Safe_vector"* %0, i64 0, i32 0
  %13 = load i64, i64* %12, align 8, !tbaa !34
  %14 = icmp ugt i64 %11, %13
  br i1 %14, label %15, label %16

15:                                               ; preds = %1
  store i64 %11, i64* %12, align 8, !tbaa !34
  br label %16

16:                                               ; preds = %15, %1
  ret void
}

; Function Attrs: minsize optsize
declare void @_ZN11__gnu_debug19_Safe_sequence_base13_M_detach_allEv(%"class.__gnu_debug::_Safe_sequence_base"* nonnull align 8 dereferenceable(20)) local_unnamed_addr #0

; Function Attrs: minsize mustprogress optsize sspstrong uwtable
define linkonce_odr dso_local i32 @_ZN9Unionfind4rootEi(%class.Unionfind* nonnull align 8 dereferenceable(180) %0, i32 %1) local_unnamed_addr #3 comdat align 2 {
  %3 = getelementptr inbounds %class.Unionfind, %class.Unionfind* %0, i64 0, i32 2
  %4 = sext i32 %1 to i64
  %5 = tail call nonnull align 4 dereferenceable(4) i32* @_ZNSt7__debug6vectorIiSaIiEEixEm(%"class.std::__debug::vector"* nonnull align 8 dereferenceable(56) %3, i64 %4) #27
  %6 = load i32, i32* %5, align 4, !tbaa !19
  %7 = icmp eq i32 %6, %1
  br i1 %7, label %8, label %10

8:                                                ; preds = %2, %10
  %9 = phi i32 [ %13, %10 ], [ %1, %2 ]
  ret i32 %9

10:                                               ; preds = %2
  %11 = tail call nonnull align 4 dereferenceable(4) i32* @_ZNSt7__debug6vectorIiSaIiEEixEm(%"class.std::__debug::vector"* nonnull align 8 dereferenceable(56) %3, i64 %4) #27
  %12 = load i32, i32* %11, align 4, !tbaa !19
  %13 = tail call i32 @_ZN9Unionfind4rootEi(%class.Unionfind* nonnull align 8 dereferenceable(180) %0, i32 %12) #26
  %14 = tail call nonnull align 4 dereferenceable(4) i32* @_ZNSt7__debug6vectorIiSaIiEEixEm(%"class.std::__debug::vector"* nonnull align 8 dereferenceable(56) %3, i64 %4) #27
  store i32 %13, i32* %14, align 4, !tbaa !19
  br label %8
}

; Function Attrs: minsize nounwind optsize sspstrong uwtable
define linkonce_odr dso_local void @_ZNSt7__debug6vectorINS0_IiSaIiEEESaIS2_EEC2Ev(%"class.std::__debug::vector.3"* nonnull align 8 dereferenceable(56) %0) unnamed_addr #7 comdat align 2 {
  %2 = getelementptr inbounds %"class.std::__debug::vector.3", %"class.std::__debug::vector.3"* %0, i64 0, i32 0, i32 0, i32 0, i32 2
  %3 = bitcast %"class.std::__debug::vector.3"* %0 to i8*
  tail call void @llvm.memset.p0i8.i64(i8* noundef nonnull align 8 dereferenceable(16) %3, i8 0, i64 16, i1 false) #25
  store i32 1, i32* %2, align 8, !tbaa !24
  %4 = getelementptr inbounds %"class.std::__debug::vector.3", %"class.std::__debug::vector.3"* %0, i64 0, i32 1
  %5 = bitcast %"class.std::__cxx1998::vector.8"* %4 to i8*
  tail call void @llvm.memset.p0i8.i64(i8* noundef nonnull align 8 dereferenceable(24) %5, i8 0, i64 24, i1 false) #25
  %6 = getelementptr inbounds %"class.std::__debug::vector.3", %"class.std::__debug::vector.3"* %0, i64 0, i32 2
  tail call void @_ZN11__gnu_debug12_Safe_vectorINSt7__debug6vectorINS2_IiSaIiEEESaIS4_EEENSt9__cxx19986vectorIS4_S5_EEEC2Ev(%"class.__gnu_debug::_Safe_vector.13"* nonnull align 8 dereferenceable(8) %6) #27
  ret void
}

; Function Attrs: minsize optsize sspstrong uwtable
define linkonce_odr dso_local void @_ZNSt7__debug6vectorINS0_IiSaIiEEESaIS2_EEC2EmRKS3_(%"class.std::__debug::vector.3"* nonnull align 8 dereferenceable(56) %0, i64 %1, %"class.std::allocator.10"* nonnull align 1 dereferenceable(1) %2) unnamed_addr #6 comdat align 2 personality i8* bitcast (i32 (...)* @__gxx_personality_v0 to i8*) {
  %4 = getelementptr inbounds %"class.std::__debug::vector.3", %"class.std::__debug::vector.3"* %0, i64 0, i32 0, i32 0, i32 0, i32 2
  %5 = bitcast %"class.std::__debug::vector.3"* %0 to i8*
  tail call void @llvm.memset.p0i8.i64(i8* noundef nonnull align 8 dereferenceable(16) %5, i8 0, i64 16, i1 false) #25
  store i32 1, i32* %4, align 8, !tbaa !24
  %6 = getelementptr inbounds %"class.std::__debug::vector.3", %"class.std::__debug::vector.3"* %0, i64 0, i32 1
  invoke void @_ZNSt9__cxx19986vectorINSt7__debug6vectorIiSaIiEEESaIS4_EEC2EmRKS5_(%"class.std::__cxx1998::vector.8"* nonnull align 8 dereferenceable(24) %6, i64 %1, %"class.std::allocator.10"* nonnull align 1 dereferenceable(1) %2) #26
          to label %7 unwind label %9

7:                                                ; preds = %3
  %8 = getelementptr inbounds %"class.std::__debug::vector.3", %"class.std::__debug::vector.3"* %0, i64 0, i32 2, i32 0
  store i64 %1, i64* %8, align 8, !tbaa !70
  ret void

9:                                                ; preds = %3
  %10 = landingpad { i8*, i32 }
          cleanup
  %11 = bitcast %"class.std::__debug::vector.3"* %0 to %"class.__gnu_debug::_Safe_sequence_base"*
  tail call void @_ZN11__gnu_debug19_Safe_sequence_baseD2Ev(%"class.__gnu_debug::_Safe_sequence_base"* nonnull align 8 dereferenceable(20) %11) #27
  resume { i8*, i32 } %10
}

; Function Attrs: minsize mustprogress nounwind optsize sspstrong uwtable
define linkonce_odr dso_local nonnull align 8 dereferenceable(56) %"class.std::__debug::vector"* @_ZNSt7__debug6vectorINS0_IiSaIiEEESaIS2_EEixEm(%"class.std::__debug::vector.3"* nonnull align 8 dereferenceable(56) %0, i64 %1) local_unnamed_addr #9 comdat align 2 personality i8* bitcast (i32 (...)* @__gxx_personality_v0 to i8*) {
  %3 = getelementptr inbounds %"class.std::__debug::vector.3", %"class.std::__debug::vector.3"* %0, i64 0, i32 1
  %4 = getelementptr inbounds %"class.std::__debug::vector.3", %"class.std::__debug::vector.3"* %0, i64 0, i32 1, i32 0, i32 0, i32 0, i32 1
  %5 = load %"class.std::__debug::vector"*, %"class.std::__debug::vector"** %4, align 8, !tbaa !72
  %6 = getelementptr inbounds %"class.std::__cxx1998::vector.8", %"class.std::__cxx1998::vector.8"* %3, i64 0, i32 0, i32 0, i32 0, i32 0
  %7 = load %"class.std::__debug::vector"*, %"class.std::__debug::vector"** %6, align 8, !tbaa !74
  %8 = ptrtoint %"class.std::__debug::vector"* %5 to i64
  %9 = ptrtoint %"class.std::__debug::vector"* %7 to i64
  %10 = sub i64 %8, %9
  %11 = sdiv exact i64 %10, 56
  %12 = icmp ugt i64 %11, %1
  br i1 %12, label %30, label %13, !prof !44

13:                                               ; preds = %2
  %14 = invoke nonnull align 8 dereferenceable(544) %"class.__gnu_debug::_Error_formatter"* @_ZN11__gnu_debug16_Error_formatter5_S_atEPKcjS2_(i8* getelementptr inbounds ([93 x i8], [93 x i8]* @.str.7, i64 0, i64 0), i32 438, i8* getelementptr inbounds ([161 x i8], [161 x i8]* @__PRETTY_FUNCTION__._ZNSt7__debug6vectorINS0_IiSaIiEEESaIS2_EEixEm, i64 0, i64 0)) #26
          to label %15 unwind label %32

15:                                               ; preds = %13
  %16 = tail call nonnull align 8 dereferenceable(544) %"class.__gnu_debug::_Error_formatter"* @_ZNK11__gnu_debug16_Error_formatter10_M_messageENS_13_Debug_msg_idE(%"class.__gnu_debug::_Error_formatter"* nonnull align 8 dereferenceable(544) %14, i32 5) #27
  %17 = invoke nonnull align 8 dereferenceable(544) %"class.__gnu_debug::_Error_formatter"* @_ZN11__gnu_debug16_Error_formatter11_M_sequenceINSt7__debug6vectorINS3_IiSaIiEEESaIS5_EEEEERS0_RKT_PKc(%"class.__gnu_debug::_Error_formatter"* nonnull align 8 dereferenceable(544) %16, %"class.std::__debug::vector.3"* nonnull align 8 dereferenceable(56) %0, i8* getelementptr inbounds ([5 x i8], [5 x i8]* @.str.8, i64 0, i64 0)) #26
          to label %18 unwind label %32

18:                                               ; preds = %15
  %19 = invoke nonnull align 8 dereferenceable(544) %"class.__gnu_debug::_Error_formatter"* @_ZN11__gnu_debug16_Error_formatter10_M_integerElPKc(%"class.__gnu_debug::_Error_formatter"* nonnull align 8 dereferenceable(544) %17, i64 %1, i8* getelementptr inbounds ([4 x i8], [4 x i8]* @.str.6, i64 0, i64 0)) #26
          to label %20 unwind label %32

20:                                               ; preds = %18
  %21 = load %"class.std::__debug::vector"*, %"class.std::__debug::vector"** %4, align 8, !tbaa !72
  %22 = load %"class.std::__debug::vector"*, %"class.std::__debug::vector"** %6, align 8, !tbaa !74
  %23 = ptrtoint %"class.std::__debug::vector"* %21 to i64
  %24 = ptrtoint %"class.std::__debug::vector"* %22 to i64
  %25 = sub i64 %23, %24
  %26 = sdiv exact i64 %25, 56
  %27 = invoke nonnull align 8 dereferenceable(544) %"class.__gnu_debug::_Error_formatter"* @_ZN11__gnu_debug16_Error_formatter10_M_integerElPKc(%"class.__gnu_debug::_Error_formatter"* nonnull align 8 dereferenceable(544) %19, i64 %26, i8* getelementptr inbounds ([5 x i8], [5 x i8]* @.str.9, i64 0, i64 0)) #26
          to label %28 unwind label %32

28:                                               ; preds = %20
  invoke void @_ZNK11__gnu_debug16_Error_formatter8_M_errorEv(%"class.__gnu_debug::_Error_formatter"* nonnull align 8 dereferenceable(544) %27) #29
          to label %29 unwind label %32

29:                                               ; preds = %28
  unreachable

30:                                               ; preds = %2
  %31 = tail call nonnull align 8 dereferenceable(56) %"class.std::__debug::vector"* @_ZNSt9__cxx19986vectorINSt7__debug6vectorIiSaIiEEESaIS4_EEixEm(%"class.std::__cxx1998::vector.8"* nonnull align 8 dereferenceable(24) %3, i64 %1) #27
  ret %"class.std::__debug::vector"* %31

32:                                               ; preds = %28, %20, %18, %15, %13
  %33 = landingpad { i8*, i32 }
          catch i8* null
  %34 = extractvalue { i8*, i32 } %33, 0
  tail call void @__clang_call_terminate(i8* %34) #28
  unreachable
}

; Function Attrs: minsize mustprogress optsize sspstrong uwtable
define linkonce_odr dso_local void @_ZNSt7__debug6vectorIiSaIiEE9push_backERKi(%"class.std::__debug::vector"* nonnull align 8 dereferenceable(56) %0, i32* nonnull align 4 dereferenceable(4) %1) local_unnamed_addr #3 comdat align 2 {
  %3 = getelementptr inbounds %"class.std::__debug::vector", %"class.std::__debug::vector"* %0, i64 0, i32 2
  %4 = getelementptr inbounds %"class.std::__debug::vector", %"class.std::__debug::vector"* %0, i64 0, i32 1
  %5 = getelementptr inbounds %"class.std::__debug::vector", %"class.std::__debug::vector"* %0, i64 0, i32 1, i32 0, i32 0, i32 0, i32 1
  %6 = load i32*, i32** %5, align 8, !tbaa !41
  %7 = getelementptr inbounds %"class.std::__cxx1998::vector", %"class.std::__cxx1998::vector"* %4, i64 0, i32 0, i32 0, i32 0, i32 0
  %8 = load i32*, i32** %7, align 8, !tbaa !43
  %9 = ptrtoint i32* %6 to i64
  %10 = ptrtoint i32* %8 to i64
  %11 = sub i64 %9, %10
  %12 = ashr exact i64 %11, 2
  %13 = add nsw i64 %12, 1
  %14 = getelementptr inbounds %"class.__gnu_debug::_Safe_vector", %"class.__gnu_debug::_Safe_vector"* %3, i64 -1
  %15 = bitcast %"class.__gnu_debug::_Safe_vector"* %14 to i32**
  %16 = load i32*, i32** %15, align 8, !tbaa !57
  %17 = ptrtoint i32* %16 to i64
  %18 = sub i64 %17, %10
  %19 = ashr exact i64 %18, 2
  %20 = icmp ult i64 %19, %13
  tail call void @_ZNSt9__cxx19986vectorIiSaIiEE9push_backERKi(%"class.std::__cxx1998::vector"* nonnull align 8 dereferenceable(24) %4, i32* nonnull align 4 dereferenceable(4) %1) #26
  br i1 %20, label %21, label %27

21:                                               ; preds = %2
  %22 = getelementptr inbounds %"class.std::__debug::vector", %"class.std::__debug::vector"* %0, i64 0, i32 0, i32 0, i32 0, i32 2
  %23 = load i32, i32* %22, align 8, !tbaa !24
  %24 = add i32 %23, 1
  %25 = icmp eq i32 %24, 0
  %26 = select i1 %25, i32 1, i32 %24
  store i32 %26, i32* %22, align 8, !tbaa !24
  br label %27

27:                                               ; preds = %21, %2
  tail call void @_ZN11__gnu_debug12_Safe_vectorINSt7__debug6vectorIiSaIiEEENSt9__cxx19986vectorIiS3_EEE29_M_update_guaranteed_capacityEv(%"class.__gnu_debug::_Safe_vector"* nonnull align 8 dereferenceable(8) %3) #27
  ret void
}

; Function Attrs: minsize mustprogress optsize sspstrong uwtable
define linkonce_odr dso_local void @_ZNSt7__debug6vectorINS0_IiSaIiEEESaIS2_EE9push_backERKS2_(%"class.std::__debug::vector.3"* nonnull align 8 dereferenceable(56) %0, %"class.std::__debug::vector"* nonnull align 8 dereferenceable(56) %1) local_unnamed_addr #3 comdat align 2 {
  %3 = getelementptr inbounds %"class.std::__debug::vector.3", %"class.std::__debug::vector.3"* %0, i64 0, i32 2
  %4 = getelementptr inbounds %"class.std::__debug::vector.3", %"class.std::__debug::vector.3"* %0, i64 0, i32 1
  %5 = getelementptr inbounds %"class.std::__debug::vector.3", %"class.std::__debug::vector.3"* %0, i64 0, i32 1, i32 0, i32 0, i32 0, i32 1
  %6 = load %"class.std::__debug::vector"*, %"class.std::__debug::vector"** %5, align 8, !tbaa !72
  %7 = getelementptr inbounds %"class.std::__cxx1998::vector.8", %"class.std::__cxx1998::vector.8"* %4, i64 0, i32 0, i32 0, i32 0, i32 0
  %8 = load %"class.std::__debug::vector"*, %"class.std::__debug::vector"** %7, align 8, !tbaa !74
  %9 = ptrtoint %"class.std::__debug::vector"* %6 to i64
  %10 = ptrtoint %"class.std::__debug::vector"* %8 to i64
  %11 = sub i64 %9, %10
  %12 = sdiv exact i64 %11, 56
  %13 = add nsw i64 %12, 1
  %14 = getelementptr inbounds %"class.__gnu_debug::_Safe_vector.13", %"class.__gnu_debug::_Safe_vector.13"* %3, i64 -1
  %15 = bitcast %"class.__gnu_debug::_Safe_vector.13"* %14 to %"class.std::__debug::vector"**
  %16 = load %"class.std::__debug::vector"*, %"class.std::__debug::vector"** %15, align 8, !tbaa !75
  %17 = ptrtoint %"class.std::__debug::vector"* %16 to i64
  %18 = sub i64 %17, %10
  %19 = sdiv exact i64 %18, 56
  %20 = icmp ult i64 %19, %13
  tail call void @_ZNSt9__cxx19986vectorINSt7__debug6vectorIiSaIiEEESaIS4_EE9push_backERKS4_(%"class.std::__cxx1998::vector.8"* nonnull align 8 dereferenceable(24) %4, %"class.std::__debug::vector"* nonnull align 8 dereferenceable(56) %1) #26
  br i1 %20, label %21, label %27

21:                                               ; preds = %2
  %22 = getelementptr inbounds %"class.std::__debug::vector.3", %"class.std::__debug::vector.3"* %0, i64 0, i32 0, i32 0, i32 0, i32 2
  %23 = load i32, i32* %22, align 8, !tbaa !24
  %24 = add i32 %23, 1
  %25 = icmp eq i32 %24, 0
  %26 = select i1 %25, i32 1, i32 %24
  store i32 %26, i32* %22, align 8, !tbaa !24
  br label %27

27:                                               ; preds = %21, %2
  tail call void @_ZN11__gnu_debug12_Safe_vectorINSt7__debug6vectorINS2_IiSaIiEEESaIS4_EEENSt9__cxx19986vectorIS4_S5_EEE29_M_update_guaranteed_capacityEv(%"class.__gnu_debug::_Safe_vector.13"* nonnull align 8 dereferenceable(8) %3) #27
  ret void
}

; Function Attrs: minsize nounwind optsize sspstrong uwtable
define linkonce_odr dso_local void @_ZN11__gnu_debug12_Safe_vectorINSt7__debug6vectorINS2_IiSaIiEEESaIS4_EEENSt9__cxx19986vectorIS4_S5_EEEC2Ev(%"class.__gnu_debug::_Safe_vector.13"* nonnull align 8 dereferenceable(8) %0) unnamed_addr #7 comdat align 2 {
  %2 = getelementptr inbounds %"class.__gnu_debug::_Safe_vector.13", %"class.__gnu_debug::_Safe_vector.13"* %0, i64 0, i32 0
  store i64 0, i64* %2, align 8, !tbaa !70
  tail call void @_ZN11__gnu_debug12_Safe_vectorINSt7__debug6vectorINS2_IiSaIiEEESaIS4_EEENSt9__cxx19986vectorIS4_S5_EEE29_M_update_guaranteed_capacityEv(%"class.__gnu_debug::_Safe_vector.13"* nonnull align 8 dereferenceable(8) %0) #27
  ret void
}

; Function Attrs: minsize mustprogress nounwind optsize sspstrong uwtable
define linkonce_odr dso_local void @_ZN11__gnu_debug12_Safe_vectorINSt7__debug6vectorINS2_IiSaIiEEESaIS4_EEENSt9__cxx19986vectorIS4_S5_EEE29_M_update_guaranteed_capacityEv(%"class.__gnu_debug::_Safe_vector.13"* nonnull align 8 dereferenceable(8) %0) local_unnamed_addr #9 comdat align 2 personality i8* bitcast (i32 (...)* @__gxx_personality_v0 to i8*) {
  %2 = getelementptr inbounds %"class.__gnu_debug::_Safe_vector.13", %"class.__gnu_debug::_Safe_vector.13"* %0, i64 -3
  %3 = getelementptr inbounds %"class.__gnu_debug::_Safe_vector.13", %"class.__gnu_debug::_Safe_vector.13"* %0, i64 -2
  %4 = bitcast %"class.__gnu_debug::_Safe_vector.13"* %3 to %"class.std::__debug::vector"**
  %5 = load %"class.std::__debug::vector"*, %"class.std::__debug::vector"** %4, align 8, !tbaa !72
  %6 = bitcast %"class.__gnu_debug::_Safe_vector.13"* %2 to %"class.std::__debug::vector"**
  %7 = load %"class.std::__debug::vector"*, %"class.std::__debug::vector"** %6, align 8, !tbaa !74
  %8 = ptrtoint %"class.std::__debug::vector"* %5 to i64
  %9 = ptrtoint %"class.std::__debug::vector"* %7 to i64
  %10 = sub i64 %8, %9
  %11 = sdiv exact i64 %10, 56
  %12 = getelementptr inbounds %"class.__gnu_debug::_Safe_vector.13", %"class.__gnu_debug::_Safe_vector.13"* %0, i64 0, i32 0
  %13 = load i64, i64* %12, align 8, !tbaa !70
  %14 = icmp ugt i64 %11, %13
  br i1 %14, label %15, label %16

15:                                               ; preds = %1
  store i64 %11, i64* %12, align 8, !tbaa !70
  br label %16

16:                                               ; preds = %15, %1
  ret void
}

; Function Attrs: minsize optsize sspstrong uwtable
define linkonce_odr dso_local void @_ZNSt9__cxx19986vectorINSt7__debug6vectorIiSaIiEEESaIS4_EEC2EmRKS5_(%"class.std::__cxx1998::vector.8"* nonnull align 8 dereferenceable(24) %0, i64 %1, %"class.std::allocator.10"* nonnull align 1 dereferenceable(1) %2) unnamed_addr #6 comdat align 2 personality i8* bitcast (i32 (...)* @__gxx_personality_v0 to i8*) {
  %4 = getelementptr inbounds %"class.std::__cxx1998::vector.8", %"class.std::__cxx1998::vector.8"* %0, i64 0, i32 0
  %5 = tail call i64 @_ZNSt9__cxx19986vectorINSt7__debug6vectorIiSaIiEEESaIS4_EE17_S_check_init_lenEmRKS5_(i64 %1, %"class.std::allocator.10"* nonnull align 1 dereferenceable(1) %2) #26
  %6 = bitcast %"class.std::__cxx1998::vector.8"* %0 to i8*
  tail call void @llvm.memset.p0i8.i64(i8* noundef nonnull align 8 dereferenceable(24) %6, i8 0, i64 24, i1 false) #25
  tail call void @_ZNSt9__cxx199812_Vector_baseINSt7__debug6vectorIiSaIiEEESaIS4_EE17_M_create_storageEm(%"struct.std::__cxx1998::_Vector_base.9"* nonnull align 8 dereferenceable(24) %4, i64 %5) #26
  invoke void @_ZNSt9__cxx19986vectorINSt7__debug6vectorIiSaIiEEESaIS4_EE21_M_default_initializeEm(%"class.std::__cxx1998::vector.8"* nonnull align 8 dereferenceable(24) %0, i64 %1) #26
          to label %7 unwind label %8

7:                                                ; preds = %3
  ret void

8:                                                ; preds = %3
  %9 = landingpad { i8*, i32 }
          cleanup
  tail call void @_ZNSt9__cxx199812_Vector_baseINSt7__debug6vectorIiSaIiEEESaIS4_EED2Ev(%"struct.std::__cxx1998::_Vector_base.9"* nonnull align 8 dereferenceable(24) %4) #27
  resume { i8*, i32 } %9
}

; Function Attrs: minsize optsize sspstrong uwtable
define linkonce_odr dso_local i64 @_ZNSt9__cxx19986vectorINSt7__debug6vectorIiSaIiEEESaIS4_EE17_S_check_init_lenEmRKS5_(i64 %0, %"class.std::allocator.10"* nonnull align 1 dereferenceable(1) %1) local_unnamed_addr #6 comdat align 2 {
  %3 = icmp ugt i64 %0, 164703072086692425
  br i1 %3, label %4, label %5

4:                                                ; preds = %2
  tail call void @_ZSt20__throw_length_errorPKc(i8* getelementptr inbounds ([49 x i8], [49 x i8]* @.str.3, i64 0, i64 0)) #29
  unreachable

5:                                                ; preds = %2
  ret i64 %0
}

; Function Attrs: minsize mustprogress optsize sspstrong uwtable
define linkonce_odr dso_local void @_ZNSt9__cxx19986vectorINSt7__debug6vectorIiSaIiEEESaIS4_EE21_M_default_initializeEm(%"class.std::__cxx1998::vector.8"* nonnull align 8 dereferenceable(24) %0, i64 %1) local_unnamed_addr #3 comdat align 2 {
  %3 = getelementptr inbounds %"class.std::__cxx1998::vector.8", %"class.std::__cxx1998::vector.8"* %0, i64 0, i32 0, i32 0, i32 0, i32 0
  %4 = load %"class.std::__debug::vector"*, %"class.std::__debug::vector"** %3, align 8, !tbaa !74
  %5 = tail call %"class.std::__debug::vector"* @_ZNSt27__uninitialized_default_n_1ILb0EE18__uninit_default_nIPNSt7__debug6vectorIiSaIiEEEmEET_S7_T0_(%"class.std::__debug::vector"* %4, i64 %1) #26
  %6 = getelementptr inbounds %"class.std::__cxx1998::vector.8", %"class.std::__cxx1998::vector.8"* %0, i64 0, i32 0, i32 0, i32 0, i32 1
  store %"class.std::__debug::vector"* %5, %"class.std::__debug::vector"** %6, align 8, !tbaa !72
  ret void
}

; Function Attrs: minsize nounwind optsize sspstrong uwtable
define linkonce_odr dso_local void @_ZNSt9__cxx199812_Vector_baseINSt7__debug6vectorIiSaIiEEESaIS4_EED2Ev(%"struct.std::__cxx1998::_Vector_base.9"* nonnull align 8 dereferenceable(24) %0) unnamed_addr #7 comdat align 2 personality i8* bitcast (i32 (...)* @__gxx_personality_v0 to i8*) {
  %2 = getelementptr inbounds %"struct.std::__cxx1998::_Vector_base.9", %"struct.std::__cxx1998::_Vector_base.9"* %0, i64 0, i32 0, i32 0, i32 0
  %3 = load %"class.std::__debug::vector"*, %"class.std::__debug::vector"** %2, align 8, !tbaa !74
  %4 = icmp eq %"class.std::__debug::vector"* %3, null
  br i1 %4, label %7, label %5

5:                                                ; preds = %1
  %6 = bitcast %"class.std::__debug::vector"* %3 to i8*
  tail call void @_ZdlPv(i8* nonnull %6) #27
  br label %7

7:                                                ; preds = %5, %1
  ret void
}

; Function Attrs: minsize mustprogress optsize sspstrong uwtable
define linkonce_odr dso_local void @_ZNSt9__cxx199812_Vector_baseINSt7__debug6vectorIiSaIiEEESaIS4_EE17_M_create_storageEm(%"struct.std::__cxx1998::_Vector_base.9"* nonnull align 8 dereferenceable(24) %0, i64 %1) local_unnamed_addr #3 comdat align 2 {
  %3 = tail call %"class.std::__debug::vector"* @_ZNSt9__cxx199812_Vector_baseINSt7__debug6vectorIiSaIiEEESaIS4_EE11_M_allocateEm(%"struct.std::__cxx1998::_Vector_base.9"* nonnull align 8 dereferenceable(24) %0, i64 %1) #26
  %4 = getelementptr inbounds %"struct.std::__cxx1998::_Vector_base.9", %"struct.std::__cxx1998::_Vector_base.9"* %0, i64 0, i32 0, i32 0, i32 0
  store %"class.std::__debug::vector"* %3, %"class.std::__debug::vector"** %4, align 8, !tbaa !74
  %5 = getelementptr inbounds %"struct.std::__cxx1998::_Vector_base.9", %"struct.std::__cxx1998::_Vector_base.9"* %0, i64 0, i32 0, i32 0, i32 1
  store %"class.std::__debug::vector"* %3, %"class.std::__debug::vector"** %5, align 8, !tbaa !72
  %6 = getelementptr inbounds %"class.std::__debug::vector", %"class.std::__debug::vector"* %3, i64 %1
  %7 = getelementptr inbounds %"struct.std::__cxx1998::_Vector_base.9", %"struct.std::__cxx1998::_Vector_base.9"* %0, i64 0, i32 0, i32 0, i32 2
  store %"class.std::__debug::vector"* %6, %"class.std::__debug::vector"** %7, align 8, !tbaa !75
  ret void
}

; Function Attrs: minsize mustprogress optsize sspstrong uwtable
define linkonce_odr dso_local %"class.std::__debug::vector"* @_ZNSt9__cxx199812_Vector_baseINSt7__debug6vectorIiSaIiEEESaIS4_EE11_M_allocateEm(%"struct.std::__cxx1998::_Vector_base.9"* nonnull align 8 dereferenceable(24) %0, i64 %1) local_unnamed_addr #3 comdat align 2 {
  %3 = icmp eq i64 %1, 0
  br i1 %3, label %7, label %4

4:                                                ; preds = %2
  %5 = bitcast %"struct.std::__cxx1998::_Vector_base.9"* %0 to %"class.std::allocator.10"*
  %6 = tail call %"class.std::__debug::vector"* @_ZNSt16allocator_traitsISaINSt7__debug6vectorIiSaIiEEEEE8allocateERS4_m(%"class.std::allocator.10"* nonnull align 1 dereferenceable(1) %5, i64 %1) #26
  br label %7

7:                                                ; preds = %2, %4
  %8 = phi %"class.std::__debug::vector"* [ %6, %4 ], [ null, %2 ]
  ret %"class.std::__debug::vector"* %8
}

; Function Attrs: minsize mustprogress optsize sspstrong uwtable
define linkonce_odr dso_local %"class.std::__debug::vector"* @_ZNSt16allocator_traitsISaINSt7__debug6vectorIiSaIiEEEEE8allocateERS4_m(%"class.std::allocator.10"* nonnull align 1 dereferenceable(1) %0, i64 %1) local_unnamed_addr #3 comdat align 2 {
  %3 = bitcast %"class.std::allocator.10"* %0 to %"class.__gnu_cxx::new_allocator.11"*
  %4 = tail call %"class.std::__debug::vector"* @_ZN9__gnu_cxx13new_allocatorINSt7__debug6vectorIiSaIiEEEE8allocateEmPKv(%"class.__gnu_cxx::new_allocator.11"* nonnull align 1 dereferenceable(1) %3, i64 %1, i8* null) #26
  ret %"class.std::__debug::vector"* %4
}

; Function Attrs: minsize mustprogress optsize sspstrong uwtable
define linkonce_odr dso_local %"class.std::__debug::vector"* @_ZN9__gnu_cxx13new_allocatorINSt7__debug6vectorIiSaIiEEEE8allocateEmPKv(%"class.__gnu_cxx::new_allocator.11"* nonnull align 1 dereferenceable(1) %0, i64 %1, i8* %2) local_unnamed_addr #3 comdat align 2 {
  %4 = icmp ugt i64 %1, 164703072086692425
  br i1 %4, label %5, label %9, !prof !58

5:                                                ; preds = %3
  %6 = icmp ugt i64 %1, 329406144173384850
  br i1 %6, label %7, label %8

7:                                                ; preds = %5
  tail call void @_ZSt28__throw_bad_array_new_lengthv() #29
  unreachable

8:                                                ; preds = %5
  tail call void @_ZSt17__throw_bad_allocv() #29
  unreachable

9:                                                ; preds = %3
  %10 = mul nuw nsw i64 %1, 56
  %11 = tail call noalias nonnull i8* @_Znwm(i64 %10) #31
  %12 = bitcast i8* %11 to %"class.std::__debug::vector"*
  ret %"class.std::__debug::vector"* %12
}

; Function Attrs: minsize mustprogress optsize sspstrong uwtable
define linkonce_odr dso_local %"class.std::__debug::vector"* @_ZNSt27__uninitialized_default_n_1ILb0EE18__uninit_default_nIPNSt7__debug6vectorIiSaIiEEEmEET_S7_T0_(%"class.std::__debug::vector"* %0, i64 %1) local_unnamed_addr #3 comdat align 2 personality i8* bitcast (i32 (...)* @__gxx_personality_v0 to i8*) {
  br label %3

3:                                                ; preds = %7, %2
  %4 = phi i64 [ %1, %2 ], [ %8, %7 ]
  %5 = phi %"class.std::__debug::vector"* [ %0, %2 ], [ %9, %7 ]
  %6 = icmp eq i64 %4, 0
  br i1 %6, label %10, label %7

7:                                                ; preds = %3
  tail call void @_ZSt10_ConstructINSt7__debug6vectorIiSaIiEEEJEEvPT_DpOT0_(%"class.std::__debug::vector"* %5) #26
  %8 = add i64 %4, -1
  %9 = getelementptr inbounds %"class.std::__debug::vector", %"class.std::__debug::vector"* %5, i64 1
  br label %3, !llvm.loop !76

10:                                               ; preds = %3
  ret %"class.std::__debug::vector"* %5
}

; Function Attrs: inlinehint minsize mustprogress nounwind optsize sspstrong uwtable
define linkonce_odr dso_local void @_ZSt10_ConstructINSt7__debug6vectorIiSaIiEEEJEEvPT_DpOT0_(%"class.std::__debug::vector"* %0) local_unnamed_addr #17 comdat {
  %2 = bitcast %"class.std::__debug::vector"* %0 to i8*
  tail call void @llvm.memset.p0i8.i64(i8* noundef nonnull align 8 dereferenceable(56) %2, i8 0, i64 56, i1 false)
  tail call void @_ZNSt7__debug6vectorIiSaIiEEC2Ev(%"class.std::__debug::vector"* nonnull align 8 dereferenceable(56) %0) #27
  ret void
}

declare void @__cxa_rethrow() local_unnamed_addr

declare void @__cxa_end_catch() local_unnamed_addr

; Function Attrs: minsize nounwind optsize sspstrong uwtable
define linkonce_odr dso_local void @_ZNSt7__debug6vectorIiSaIiEEC2Ev(%"class.std::__debug::vector"* nonnull align 8 dereferenceable(56) %0) unnamed_addr #7 comdat align 2 {
  %2 = getelementptr inbounds %"class.std::__debug::vector", %"class.std::__debug::vector"* %0, i64 0, i32 0, i32 0, i32 0, i32 2
  %3 = bitcast %"class.std::__debug::vector"* %0 to i8*
  tail call void @llvm.memset.p0i8.i64(i8* noundef nonnull align 8 dereferenceable(16) %3, i8 0, i64 16, i1 false) #25
  store i32 1, i32* %2, align 8, !tbaa !24
  %4 = getelementptr inbounds %"class.std::__debug::vector", %"class.std::__debug::vector"* %0, i64 0, i32 1
  %5 = bitcast %"class.std::__cxx1998::vector"* %4 to i8*
  tail call void @llvm.memset.p0i8.i64(i8* noundef nonnull align 8 dereferenceable(24) %5, i8 0, i64 24, i1 false) #25
  %6 = getelementptr inbounds %"class.std::__debug::vector", %"class.std::__debug::vector"* %0, i64 0, i32 2
  tail call void @_ZN11__gnu_debug12_Safe_vectorINSt7__debug6vectorIiSaIiEEENSt9__cxx19986vectorIiS3_EEEC2Ev(%"class.__gnu_debug::_Safe_vector"* nonnull align 8 dereferenceable(8) %6) #27
  ret void
}

; Function Attrs: minsize mustprogress optsize sspstrong uwtable
define linkonce_odr dso_local void @_ZNSt12_Destroy_auxILb0EE9__destroyIPNSt7__debug6vectorIiSaIiEEEEEvT_S7_(%"class.std::__debug::vector"* %0, %"class.std::__debug::vector"* %1) local_unnamed_addr #3 comdat align 2 {
  br label %3

3:                                                ; preds = %6, %2
  %4 = phi %"class.std::__debug::vector"* [ %0, %2 ], [ %7, %6 ]
  %5 = icmp eq %"class.std::__debug::vector"* %4, %1
  br i1 %5, label %8, label %6

6:                                                ; preds = %3
  tail call void @_ZNSt7__debug6vectorIiSaIiEED2Ev(%"class.std::__debug::vector"* nonnull align 8 dereferenceable(56) %4) #27
  %7 = getelementptr inbounds %"class.std::__debug::vector", %"class.std::__debug::vector"* %4, i64 1
  br label %3, !llvm.loop !77

8:                                                ; preds = %3
  ret void
}

; Function Attrs: minsize optsize sspstrong uwtable
define linkonce_odr dso_local nonnull align 8 dereferenceable(544) %"class.__gnu_debug::_Error_formatter"* @_ZN11__gnu_debug16_Error_formatter11_M_sequenceINSt7__debug6vectorINS3_IiSaIiEEESaIS5_EEEEERS0_RKT_PKc(%"class.__gnu_debug::_Error_formatter"* nonnull align 8 dereferenceable(544) %0, %"class.std::__debug::vector.3"* nonnull align 8 dereferenceable(56) %1, i8* %2) local_unnamed_addr #6 comdat align 2 {
  %4 = getelementptr inbounds %"class.__gnu_debug::_Error_formatter", %"class.__gnu_debug::_Error_formatter"* %0, i64 0, i32 3
  %5 = load i32, i32* %4, align 8, !tbaa !61
  %6 = icmp ult i32 %5, 9
  br i1 %6, label %7, label %17

7:                                                ; preds = %3
  %8 = add nuw nsw i32 %5, 1
  store i32 %8, i32* %4, align 8, !tbaa !61
  %9 = zext i32 %5 to i64
  %10 = getelementptr inbounds %"class.__gnu_debug::_Error_formatter", %"class.__gnu_debug::_Error_formatter"* %0, i64 0, i32 2, i64 %9, i32 0
  store i32 2, i32* %10, align 8
  %11 = getelementptr inbounds %"class.__gnu_debug::_Error_formatter", %"class.__gnu_debug::_Error_formatter"* %0, i64 0, i32 2, i64 %9, i32 1, i32 0, i32 0, i32 0, i32 0
  store i8* %2, i8** %11, align 8
  %12 = getelementptr inbounds %"class.__gnu_debug::_Error_formatter", %"class.__gnu_debug::_Error_formatter"* %0, i64 0, i32 2, i64 %9, i32 1, i32 0, i32 0, i32 0, i32 1
  store %"class.std::type_info"* bitcast ({ i8*, i8*, i32, i32, i8*, i64, i8*, i64, i8*, i64 }* @_ZTINSt7__debug6vectorINS0_IiSaIiEEESaIS2_EEE to %"class.std::type_info"*), %"class.std::type_info"** %12, align 8
  %13 = getelementptr inbounds %"class.__gnu_debug::_Error_formatter", %"class.__gnu_debug::_Error_formatter"* %0, i64 0, i32 2, i64 %9, i32 1, i32 0, i32 0, i32 1
  %14 = bitcast i8** %13 to %"class.std::__debug::vector.3"**
  store %"class.std::__debug::vector.3"* %1, %"class.std::__debug::vector.3"** %14, align 8
  %15 = getelementptr inbounds %"class.__gnu_debug::_Error_formatter", %"class.__gnu_debug::_Error_formatter"* %0, i64 0, i32 2, i64 %9, i32 1, i32 0, i32 1
  %16 = bitcast i32* %15 to i8*
  call void @llvm.memset.p0i8.i64(i8* noundef nonnull align 8 dereferenceable(24) %16, i8 0, i64 24, i1 false)
  br label %17

17:                                               ; preds = %7, %3
  ret %"class.__gnu_debug::_Error_formatter"* %0
}

; Function Attrs: minsize mustprogress nounwind optsize sspstrong uwtable
define linkonce_odr dso_local nonnull align 8 dereferenceable(56) %"class.std::__debug::vector"* @_ZNSt9__cxx19986vectorINSt7__debug6vectorIiSaIiEEESaIS4_EEixEm(%"class.std::__cxx1998::vector.8"* nonnull align 8 dereferenceable(24) %0, i64 %1) local_unnamed_addr #9 comdat align 2 personality i8* bitcast (i32 (...)* @__gxx_personality_v0 to i8*) {
  %3 = getelementptr inbounds %"class.std::__cxx1998::vector.8", %"class.std::__cxx1998::vector.8"* %0, i64 0, i32 0, i32 0, i32 0, i32 1
  %4 = load %"class.std::__debug::vector"*, %"class.std::__debug::vector"** %3, align 8, !tbaa !72
  %5 = getelementptr inbounds %"class.std::__cxx1998::vector.8", %"class.std::__cxx1998::vector.8"* %0, i64 0, i32 0, i32 0, i32 0, i32 0
  %6 = load %"class.std::__debug::vector"*, %"class.std::__debug::vector"** %5, align 8, !tbaa !74
  %7 = ptrtoint %"class.std::__debug::vector"* %4 to i64
  %8 = ptrtoint %"class.std::__debug::vector"* %6 to i64
  %9 = sub i64 %7, %8
  %10 = sdiv exact i64 %9, 56
  %11 = icmp ugt i64 %10, %1
  br i1 %11, label %14, label %12, !prof !44

12:                                               ; preds = %2
  invoke void @_ZSt20__replacement_assertPKciS0_S0_(i8* getelementptr inbounds ([98 x i8], [98 x i8]* @.str.10, i64 0, i64 0), i32 1045, i8* getelementptr inbounds ([190 x i8], [190 x i8]* @__PRETTY_FUNCTION__._ZNSt9__cxx19986vectorINSt7__debug6vectorIiSaIiEEESaIS4_EEixEm, i64 0, i64 0), i8* getelementptr inbounds ([19 x i8], [19 x i8]* @.str.11, i64 0, i64 0)) #29
          to label %13 unwind label %16

13:                                               ; preds = %12
  unreachable

14:                                               ; preds = %2
  %15 = getelementptr inbounds %"class.std::__debug::vector", %"class.std::__debug::vector"* %6, i64 %1
  ret %"class.std::__debug::vector"* %15

16:                                               ; preds = %12
  %17 = landingpad { i8*, i32 }
          catch i8* null
  %18 = extractvalue { i8*, i32 } %17, 0
  tail call void @__clang_call_terminate(i8* %18) #28
  unreachable
}

; Function Attrs: inlinehint minsize mustprogress noreturn optsize sspstrong uwtable
define linkonce_odr dso_local void @_ZSt20__replacement_assertPKciS0_S0_(i8* %0, i32 %1, i8* %2, i8* %3) local_unnamed_addr #18 comdat {
  %5 = tail call i32 (i8*, ...) @printf(i8* nonnull dereferenceable(1) getelementptr inbounds ([35 x i8], [35 x i8]* @.str.12, i64 0, i64 0), i8* %0, i32 %1, i8* %2, i8* %3) #26
  tail call void @abort() #32
  unreachable
}

; Function Attrs: minsize nofree nounwind optsize
declare noundef i32 @printf(i8* nocapture noundef readonly, ...) local_unnamed_addr #19

; Function Attrs: minsize noreturn nounwind optsize
declare void @abort() local_unnamed_addr #20

; Function Attrs: minsize optsize sspstrong uwtable
define linkonce_odr dso_local void @_ZNSt9__cxx19986vectorIiSaIiEE9push_backERKi(%"class.std::__cxx1998::vector"* nonnull align 8 dereferenceable(24) %0, i32* nonnull align 4 dereferenceable(4) %1) local_unnamed_addr #6 comdat align 2 {
  %3 = getelementptr inbounds %"class.std::__cxx1998::vector", %"class.std::__cxx1998::vector"* %0, i64 0, i32 0, i32 0, i32 0, i32 1
  %4 = load i32*, i32** %3, align 8, !tbaa !41
  %5 = getelementptr inbounds %"class.std::__cxx1998::vector", %"class.std::__cxx1998::vector"* %0, i64 0, i32 0, i32 0, i32 0, i32 2
  %6 = load i32*, i32** %5, align 8, !tbaa !57
  %7 = icmp eq i32* %4, %6
  br i1 %7, label %11, label %8

8:                                                ; preds = %2
  %9 = load i32, i32* %1, align 4, !tbaa !19
  store i32 %9, i32* %4, align 4, !tbaa !19
  %10 = getelementptr inbounds i32, i32* %4, i64 1
  store i32* %10, i32** %3, align 8, !tbaa !41
  br label %12

11:                                               ; preds = %2
  tail call void @_ZNSt9__cxx19986vectorIiSaIiEE17_M_realloc_insertIJRKiEEEvN9__gnu_cxx17__normal_iteratorIPiS2_EEDpOT_(%"class.std::__cxx1998::vector"* nonnull align 8 dereferenceable(24) %0, i32* %4, i32* nonnull align 4 dereferenceable(4) %1) #26
  br label %12

12:                                               ; preds = %11, %8
  ret void
}

; Function Attrs: minsize optsize sspstrong uwtable
define linkonce_odr dso_local void @_ZNSt9__cxx19986vectorIiSaIiEE17_M_realloc_insertIJRKiEEEvN9__gnu_cxx17__normal_iteratorIPiS2_EEDpOT_(%"class.std::__cxx1998::vector"* nonnull align 8 dereferenceable(24) %0, i32* %1, i32* nonnull align 4 dereferenceable(4) %2) local_unnamed_addr #6 comdat align 2 {
  %4 = tail call i64 @_ZNKSt9__cxx19986vectorIiSaIiEE12_M_check_lenEmPKc(%"class.std::__cxx1998::vector"* nonnull align 8 dereferenceable(24) %0, i64 1, i8* getelementptr inbounds ([26 x i8], [26 x i8]* @.str.13, i64 0, i64 0)) #26
  %5 = getelementptr inbounds %"class.std::__cxx1998::vector", %"class.std::__cxx1998::vector"* %0, i64 0, i32 0
  %6 = getelementptr inbounds %"class.std::__cxx1998::vector", %"class.std::__cxx1998::vector"* %0, i64 0, i32 0, i32 0, i32 0, i32 0
  %7 = load i32*, i32** %6, align 8, !tbaa !43
  %8 = getelementptr inbounds %"class.std::__cxx1998::vector", %"class.std::__cxx1998::vector"* %0, i64 0, i32 0, i32 0, i32 0, i32 1
  %9 = load i32*, i32** %8, align 8, !tbaa !41
  %10 = ptrtoint i32* %1 to i64
  %11 = ptrtoint i32* %7 to i64
  %12 = sub i64 %10, %11
  %13 = ashr exact i64 %12, 2
  %14 = tail call i32* @_ZNSt9__cxx199812_Vector_baseIiSaIiEE11_M_allocateEm(%"struct.std::__cxx1998::_Vector_base"* nonnull align 8 dereferenceable(24) %5, i64 %4) #26
  %15 = getelementptr inbounds i32, i32* %14, i64 %13
  %16 = load i32, i32* %2, align 4, !tbaa !19
  store i32 %16, i32* %15, align 4, !tbaa !19
  %17 = icmp sgt i64 %12, 0
  br i1 %17, label %18, label %21

18:                                               ; preds = %3
  %19 = bitcast i32* %14 to i8*
  %20 = bitcast i32* %7 to i8*
  tail call void @llvm.memmove.p0i8.p0i8.i64(i8* align 4 %19, i8* align 4 %20, i64 %12, i1 false) #25
  br label %21

21:                                               ; preds = %3, %18
  %22 = getelementptr inbounds i32, i32* %15, i64 1
  %23 = ptrtoint i32* %9 to i64
  %24 = sub i64 %23, %10
  %25 = icmp sgt i64 %24, 0
  br i1 %25, label %26, label %29

26:                                               ; preds = %21
  %27 = bitcast i32* %22 to i8*
  %28 = bitcast i32* %1 to i8*
  tail call void @llvm.memmove.p0i8.p0i8.i64(i8* nonnull align 4 %27, i8* align 4 %28, i64 %24, i1 false) #25
  br label %29

29:                                               ; preds = %21, %26
  %30 = icmp eq i32* %7, null
  br i1 %30, label %33, label %31

31:                                               ; preds = %29
  %32 = bitcast i32* %7 to i8*
  tail call void @_ZdlPv(i8* nonnull %32) #27
  br label %33

33:                                               ; preds = %29, %31
  %34 = getelementptr inbounds %"class.std::__cxx1998::vector", %"class.std::__cxx1998::vector"* %0, i64 0, i32 0, i32 0, i32 0, i32 2
  %35 = ashr exact i64 %24, 2
  %36 = getelementptr inbounds i32, i32* %22, i64 %35
  store i32* %14, i32** %6, align 8, !tbaa !43
  store i32* %36, i32** %8, align 8, !tbaa !41
  %37 = getelementptr inbounds i32, i32* %14, i64 %4
  store i32* %37, i32** %34, align 8, !tbaa !57
  ret void
}

; Function Attrs: minsize mustprogress optsize sspstrong uwtable
define linkonce_odr dso_local i64 @_ZNKSt9__cxx19986vectorIiSaIiEE12_M_check_lenEmPKc(%"class.std::__cxx1998::vector"* nonnull align 8 dereferenceable(24) %0, i64 %1, i8* %2) local_unnamed_addr #3 comdat align 2 personality i32 (...)* @__gxx_personality_v0 {
  %4 = getelementptr inbounds %"class.std::__cxx1998::vector", %"class.std::__cxx1998::vector"* %0, i64 0, i32 0, i32 0, i32 0, i32 1
  %5 = load i32*, i32** %4, align 8, !tbaa !41
  %6 = getelementptr inbounds %"class.std::__cxx1998::vector", %"class.std::__cxx1998::vector"* %0, i64 0, i32 0, i32 0, i32 0, i32 0
  %7 = load i32*, i32** %6, align 8, !tbaa !43
  %8 = ptrtoint i32* %5 to i64
  %9 = ptrtoint i32* %7 to i64
  %10 = sub i64 %8, %9
  %11 = ashr exact i64 %10, 2
  %12 = sub nsw i64 2305843009213693951, %11
  %13 = icmp ult i64 %12, %1
  br i1 %13, label %14, label %15

14:                                               ; preds = %3
  tail call void @_ZSt20__throw_length_errorPKc(i8* %2) #29
  unreachable

15:                                               ; preds = %3
  %16 = icmp ult i64 %11, %1
  %17 = select i1 %16, i64 %1, i64 %11
  %18 = add i64 %17, %11
  %19 = icmp ult i64 %18, %11
  %20 = icmp ugt i64 %18, 2305843009213693951
  %21 = or i1 %19, %20
  %22 = select i1 %21, i64 2305843009213693951, i64 %18
  ret i64 %22
}

; Function Attrs: argmemonly mustprogress nofree nounwind willreturn
declare void @llvm.memmove.p0i8.p0i8.i64(i8* nocapture writeonly, i8* nocapture readonly, i64, i1 immarg) #15

; Function Attrs: minsize optsize sspstrong uwtable
define linkonce_odr dso_local void @_ZNSt9__cxx19986vectorINSt7__debug6vectorIiSaIiEEESaIS4_EE9push_backERKS4_(%"class.std::__cxx1998::vector.8"* nonnull align 8 dereferenceable(24) %0, %"class.std::__debug::vector"* nonnull align 8 dereferenceable(56) %1) local_unnamed_addr #6 comdat align 2 {
  %3 = getelementptr inbounds %"class.std::__cxx1998::vector.8", %"class.std::__cxx1998::vector.8"* %0, i64 0, i32 0, i32 0, i32 0, i32 1
  %4 = load %"class.std::__debug::vector"*, %"class.std::__debug::vector"** %3, align 8, !tbaa !72
  %5 = getelementptr inbounds %"class.std::__cxx1998::vector.8", %"class.std::__cxx1998::vector.8"* %0, i64 0, i32 0, i32 0, i32 0, i32 2
  %6 = load %"class.std::__debug::vector"*, %"class.std::__debug::vector"** %5, align 8, !tbaa !75
  %7 = icmp eq %"class.std::__debug::vector"* %4, %6
  br i1 %7, label %11, label %8

8:                                                ; preds = %2
  tail call void @_ZNSt7__debug6vectorIiSaIiEEC2ERKS2_(%"class.std::__debug::vector"* nonnull align 8 dereferenceable(56) %4, %"class.std::__debug::vector"* nonnull align 8 dereferenceable(56) %1) #26
  %9 = load %"class.std::__debug::vector"*, %"class.std::__debug::vector"** %3, align 8, !tbaa !72
  %10 = getelementptr inbounds %"class.std::__debug::vector", %"class.std::__debug::vector"* %9, i64 1
  store %"class.std::__debug::vector"* %10, %"class.std::__debug::vector"** %3, align 8, !tbaa !72
  br label %12

11:                                               ; preds = %2
  tail call void @_ZNSt9__cxx19986vectorINSt7__debug6vectorIiSaIiEEESaIS4_EE17_M_realloc_insertIJRKS4_EEEvN9__gnu_cxx17__normal_iteratorIPS4_S6_EEDpOT_(%"class.std::__cxx1998::vector.8"* nonnull align 8 dereferenceable(24) %0, %"class.std::__debug::vector"* %4, %"class.std::__debug::vector"* nonnull align 8 dereferenceable(56) %1) #26
  br label %12

12:                                               ; preds = %11, %8
  ret void
}

; Function Attrs: minsize optsize sspstrong uwtable
define linkonce_odr dso_local void @_ZNSt9__cxx19986vectorINSt7__debug6vectorIiSaIiEEESaIS4_EE17_M_realloc_insertIJRKS4_EEEvN9__gnu_cxx17__normal_iteratorIPS4_S6_EEDpOT_(%"class.std::__cxx1998::vector.8"* nonnull align 8 dereferenceable(24) %0, %"class.std::__debug::vector"* %1, %"class.std::__debug::vector"* nonnull align 8 dereferenceable(56) %2) local_unnamed_addr #6 comdat align 2 personality i8* bitcast (i32 (...)* @__gxx_personality_v0 to i8*) {
  %4 = tail call i64 @_ZNKSt9__cxx19986vectorINSt7__debug6vectorIiSaIiEEESaIS4_EE12_M_check_lenEmPKc(%"class.std::__cxx1998::vector.8"* nonnull align 8 dereferenceable(24) %0, i64 1, i8* getelementptr inbounds ([26 x i8], [26 x i8]* @.str.13, i64 0, i64 0)) #26
  %5 = getelementptr inbounds %"class.std::__cxx1998::vector.8", %"class.std::__cxx1998::vector.8"* %0, i64 0, i32 0
  %6 = getelementptr inbounds %"class.std::__cxx1998::vector.8", %"class.std::__cxx1998::vector.8"* %0, i64 0, i32 0, i32 0, i32 0, i32 0
  %7 = load %"class.std::__debug::vector"*, %"class.std::__debug::vector"** %6, align 8, !tbaa !74
  %8 = getelementptr inbounds %"class.std::__cxx1998::vector.8", %"class.std::__cxx1998::vector.8"* %0, i64 0, i32 0, i32 0, i32 0, i32 1
  %9 = load %"class.std::__debug::vector"*, %"class.std::__debug::vector"** %8, align 8, !tbaa !72
  %10 = ptrtoint %"class.std::__debug::vector"* %1 to i64
  %11 = ptrtoint %"class.std::__debug::vector"* %7 to i64
  %12 = sub i64 %10, %11
  %13 = sdiv exact i64 %12, 56
  %14 = tail call %"class.std::__debug::vector"* @_ZNSt9__cxx199812_Vector_baseINSt7__debug6vectorIiSaIiEEESaIS4_EE11_M_allocateEm(%"struct.std::__cxx1998::_Vector_base.9"* nonnull align 8 dereferenceable(24) %5, i64 %4) #26
  %15 = getelementptr inbounds %"class.std::__debug::vector", %"class.std::__debug::vector"* %14, i64 %13
  invoke void @_ZNSt7__debug6vectorIiSaIiEEC2ERKS2_(%"class.std::__debug::vector"* nonnull align 8 dereferenceable(56) %15, %"class.std::__debug::vector"* nonnull align 8 dereferenceable(56) %2) #26
          to label %16 unwind label %27

16:                                               ; preds = %3
  %17 = bitcast %"class.std::__cxx1998::vector.8"* %0 to %"class.std::allocator.10"*
  %18 = tail call %"class.std::__debug::vector"* @_ZSt14__relocate_a_1IPNSt7__debug6vectorIiSaIiEEES4_SaIS3_EET0_T_S7_S6_RT1_(%"class.std::__debug::vector"* %7, %"class.std::__debug::vector"* %1, %"class.std::__debug::vector"* %14, %"class.std::allocator.10"* nonnull align 1 dereferenceable(1) %17) #27
  %19 = getelementptr inbounds %"class.std::__debug::vector", %"class.std::__debug::vector"* %18, i64 1
  %20 = tail call %"class.std::__debug::vector"* @_ZSt14__relocate_a_1IPNSt7__debug6vectorIiSaIiEEES4_SaIS3_EET0_T_S7_S6_RT1_(%"class.std::__debug::vector"* %1, %"class.std::__debug::vector"* %9, %"class.std::__debug::vector"* nonnull %19, %"class.std::allocator.10"* nonnull align 1 dereferenceable(1) %17) #27
  %21 = icmp eq %"class.std::__debug::vector"* %7, null
  br i1 %21, label %24, label %22

22:                                               ; preds = %16
  %23 = bitcast %"class.std::__debug::vector"* %7 to i8*
  tail call void @_ZdlPv(i8* nonnull %23) #27
  br label %24

24:                                               ; preds = %16, %22
  %25 = getelementptr inbounds %"class.std::__cxx1998::vector.8", %"class.std::__cxx1998::vector.8"* %0, i64 0, i32 0, i32 0, i32 0, i32 2
  store %"class.std::__debug::vector"* %14, %"class.std::__debug::vector"** %6, align 8, !tbaa !74
  store %"class.std::__debug::vector"* %20, %"class.std::__debug::vector"** %8, align 8, !tbaa !72
  %26 = getelementptr inbounds %"class.std::__debug::vector", %"class.std::__debug::vector"* %14, i64 %4
  store %"class.std::__debug::vector"* %26, %"class.std::__debug::vector"** %25, align 8, !tbaa !75
  ret void

27:                                               ; preds = %3
  %28 = landingpad { i8*, i32 }
          catch i8* null
  %29 = extractvalue { i8*, i32 } %28, 0
  %30 = tail call i8* @__cxa_begin_catch(i8* %29) #25
  %31 = icmp eq %"class.std::__debug::vector"* %14, null
  br i1 %31, label %32, label %33

32:                                               ; preds = %27
  tail call void @_ZNSt7__debug6vectorIiSaIiEED2Ev(%"class.std::__debug::vector"* nonnull align 8 dereferenceable(56) %15) #27
  br label %38

33:                                               ; preds = %27
  invoke void @_ZNSt12_Destroy_auxILb0EE9__destroyIPNSt7__debug6vectorIiSaIiEEEEEvT_S7_(%"class.std::__debug::vector"* nonnull %14, %"class.std::__debug::vector"* nonnull %14) #26
          to label %36 unwind label %34

34:                                               ; preds = %33, %38
  %35 = landingpad { i8*, i32 }
          cleanup
  invoke void @__cxa_end_catch()
          to label %39 unwind label %40

36:                                               ; preds = %33
  %37 = bitcast %"class.std::__debug::vector"* %14 to i8*
  tail call void @_ZdlPv(i8* nonnull %37) #27
  br label %38

38:                                               ; preds = %36, %32
  invoke void @__cxa_rethrow() #33
          to label %43 unwind label %34

39:                                               ; preds = %34
  resume { i8*, i32 } %35

40:                                               ; preds = %34
  %41 = landingpad { i8*, i32 }
          catch i8* null
  %42 = extractvalue { i8*, i32 } %41, 0
  tail call void @__clang_call_terminate(i8* %42) #28
  unreachable

43:                                               ; preds = %38
  unreachable
}

; Function Attrs: minsize mustprogress optsize sspstrong uwtable
define linkonce_odr dso_local i64 @_ZNKSt9__cxx19986vectorINSt7__debug6vectorIiSaIiEEESaIS4_EE12_M_check_lenEmPKc(%"class.std::__cxx1998::vector.8"* nonnull align 8 dereferenceable(24) %0, i64 %1, i8* %2) local_unnamed_addr #3 comdat align 2 {
  %4 = getelementptr inbounds %"class.std::__cxx1998::vector.8", %"class.std::__cxx1998::vector.8"* %0, i64 0, i32 0, i32 0, i32 0, i32 1
  %5 = load %"class.std::__debug::vector"*, %"class.std::__debug::vector"** %4, align 8, !tbaa !72
  %6 = getelementptr inbounds %"class.std::__cxx1998::vector.8", %"class.std::__cxx1998::vector.8"* %0, i64 0, i32 0, i32 0, i32 0, i32 0
  %7 = load %"class.std::__debug::vector"*, %"class.std::__debug::vector"** %6, align 8, !tbaa !74
  %8 = ptrtoint %"class.std::__debug::vector"* %5 to i64
  %9 = ptrtoint %"class.std::__debug::vector"* %7 to i64
  %10 = sub i64 %8, %9
  %11 = sdiv exact i64 %10, 56
  %12 = sub nsw i64 164703072086692425, %11
  %13 = icmp ult i64 %12, %1
  br i1 %13, label %14, label %15

14:                                               ; preds = %3
  tail call void @_ZSt20__throw_length_errorPKc(i8* %2) #29
  unreachable

15:                                               ; preds = %3
  %16 = icmp ult i64 %11, %1
  %17 = select i1 %16, i64 %1, i64 %11
  %18 = add i64 %17, %11
  %19 = icmp ult i64 %18, %11
  %20 = icmp ugt i64 %18, 164703072086692425
  %21 = or i1 %19, %20
  %22 = select i1 %21, i64 164703072086692425, i64 %18
  ret i64 %22
}

; Function Attrs: inlinehint minsize mustprogress nounwind optsize sspstrong uwtable
define linkonce_odr dso_local %"class.std::__debug::vector"* @_ZSt14__relocate_a_1IPNSt7__debug6vectorIiSaIiEEES4_SaIS3_EET0_T_S7_S6_RT1_(%"class.std::__debug::vector"* %0, %"class.std::__debug::vector"* %1, %"class.std::__debug::vector"* %2, %"class.std::allocator.10"* nonnull align 1 dereferenceable(1) %3) local_unnamed_addr #17 comdat {
  br label %5

5:                                                ; preds = %9, %4
  %6 = phi %"class.std::__debug::vector"* [ %0, %4 ], [ %10, %9 ]
  %7 = phi %"class.std::__debug::vector"* [ %2, %4 ], [ %11, %9 ]
  %8 = icmp eq %"class.std::__debug::vector"* %6, %1
  br i1 %8, label %12, label %9

9:                                                ; preds = %5
  tail call void @_ZSt19__relocate_object_aINSt7__debug6vectorIiSaIiEEES3_SaIS3_EEvPT_PT0_RT1_(%"class.std::__debug::vector"* %7, %"class.std::__debug::vector"* %6, %"class.std::allocator.10"* nonnull align 1 dereferenceable(1) %3) #27
  %10 = getelementptr inbounds %"class.std::__debug::vector", %"class.std::__debug::vector"* %6, i64 1
  %11 = getelementptr inbounds %"class.std::__debug::vector", %"class.std::__debug::vector"* %7, i64 1
  br label %5, !llvm.loop !78

12:                                               ; preds = %5
  ret %"class.std::__debug::vector"* %7
}

; Function Attrs: inlinehint minsize mustprogress nounwind optsize sspstrong uwtable
define linkonce_odr dso_local void @_ZSt19__relocate_object_aINSt7__debug6vectorIiSaIiEEES3_SaIS3_EEvPT_PT0_RT1_(%"class.std::__debug::vector"* noalias %0, %"class.std::__debug::vector"* noalias %1, %"class.std::allocator.10"* nonnull align 1 dereferenceable(1) %2) local_unnamed_addr #17 comdat {
  tail call void @_ZNSt7__debug6vectorIiSaIiEEC2EOS2_(%"class.std::__debug::vector"* nonnull align 8 dereferenceable(56) %0, %"class.std::__debug::vector"* nonnull align 8 dereferenceable(56) %1) #27
  tail call void @_ZNSt7__debug6vectorIiSaIiEED2Ev(%"class.std::__debug::vector"* nonnull align 8 dereferenceable(56) %1) #27
  ret void
}

; Function Attrs: minsize nounwind optsize sspstrong uwtable
define linkonce_odr dso_local void @_ZNSt7__debug6vectorIiSaIiEEC2EOS2_(%"class.std::__debug::vector"* nonnull align 8 dereferenceable(56) %0, %"class.std::__debug::vector"* nonnull align 8 dereferenceable(56) %1) unnamed_addr #7 comdat align 2 {
  %3 = bitcast %"class.std::__debug::vector"* %0 to %"class.__gnu_debug::_Safe_sequence_base"*
  %4 = bitcast %"class.std::__debug::vector"* %1 to %"class.__gnu_debug::_Safe_sequence_base"*
  tail call void @_ZN11__gnu_debug19_Safe_sequence_baseC2EOS0_(%"class.__gnu_debug::_Safe_sequence_base"* nonnull align 8 dereferenceable(20) %3, %"class.__gnu_debug::_Safe_sequence_base"* nonnull align 8 dereferenceable(20) %4) #27
  %5 = getelementptr inbounds %"class.std::__debug::vector", %"class.std::__debug::vector"* %1, i64 0, i32 1
  %6 = getelementptr inbounds %"class.std::__debug::vector", %"class.std::__debug::vector"* %0, i64 0, i32 1, i32 0, i32 0, i32 0, i32 0
  %7 = bitcast %"class.std::__cxx1998::vector"* %5 to <2 x i32*>*
  %8 = load <2 x i32*>, <2 x i32*>* %7, align 8, !tbaa !46
  %9 = bitcast i32** %6 to <2 x i32*>*
  store <2 x i32*> %8, <2 x i32*>* %9, align 8, !tbaa !46
  %10 = getelementptr inbounds %"class.std::__debug::vector", %"class.std::__debug::vector"* %0, i64 0, i32 1, i32 0, i32 0, i32 0, i32 2
  %11 = getelementptr inbounds %"class.std::__debug::vector", %"class.std::__debug::vector"* %1, i64 0, i32 1, i32 0, i32 0, i32 0, i32 2
  %12 = load i32*, i32** %11, align 8, !tbaa !57
  store i32* %12, i32** %10, align 8, !tbaa !57
  %13 = bitcast %"class.std::__cxx1998::vector"* %5 to i8*
  tail call void @llvm.memset.p0i8.i64(i8* noundef nonnull align 8 dereferenceable(24) %13, i8 0, i64 24, i1 false) #25
  %14 = getelementptr inbounds %"class.std::__debug::vector", %"class.std::__debug::vector"* %0, i64 0, i32 2
  tail call void @_ZN11__gnu_debug12_Safe_vectorINSt7__debug6vectorIiSaIiEEENSt9__cxx19986vectorIiS3_EEEC2Ev(%"class.__gnu_debug::_Safe_vector"* nonnull align 8 dereferenceable(8) %14) #27
  %15 = getelementptr inbounds %"class.std::__debug::vector", %"class.std::__debug::vector"* %1, i64 0, i32 2, i32 0
  store i64 0, i64* %15, align 8, !tbaa !34
  ret void
}

; Function Attrs: minsize nounwind optsize sspstrong uwtable
define linkonce_odr dso_local void @_ZN11__gnu_debug19_Safe_sequence_baseC2EOS0_(%"class.__gnu_debug::_Safe_sequence_base"* nonnull align 8 dereferenceable(20) %0, %"class.__gnu_debug::_Safe_sequence_base"* nonnull align 8 dereferenceable(20) %1) unnamed_addr #7 comdat align 2 {
  %3 = getelementptr inbounds %"class.__gnu_debug::_Safe_sequence_base", %"class.__gnu_debug::_Safe_sequence_base"* %0, i64 0, i32 2
  %4 = bitcast %"class.__gnu_debug::_Safe_sequence_base"* %0 to i8*
  tail call void @llvm.memset.p0i8.i64(i8* noundef nonnull align 8 dereferenceable(16) %4, i8 0, i64 16, i1 false) #25
  store i32 1, i32* %3, align 8, !tbaa !24
  tail call void @_ZN11__gnu_debug19_Safe_sequence_base7_M_swapERS0_(%"class.__gnu_debug::_Safe_sequence_base"* nonnull align 8 dereferenceable(20) %0, %"class.__gnu_debug::_Safe_sequence_base"* nonnull align 8 dereferenceable(20) %1) #27
  ret void
}

; Function Attrs: minsize nounwind optsize
declare void @_ZN11__gnu_debug19_Safe_sequence_base7_M_swapERS0_(%"class.__gnu_debug::_Safe_sequence_base"* nonnull align 8 dereferenceable(20), %"class.__gnu_debug::_Safe_sequence_base"* nonnull align 8 dereferenceable(20)) local_unnamed_addr #1

; Function Attrs: minsize optsize sspstrong uwtable
define linkonce_odr dso_local void @_ZNSt9__cxx19986vectorIiSaIiEEC2ERKS2_(%"class.std::__cxx1998::vector"* nonnull align 8 dereferenceable(24) %0, %"class.std::__cxx1998::vector"* nonnull align 8 dereferenceable(24) %1) unnamed_addr #6 comdat align 2 personality i8* bitcast (i32 (...)* @__gxx_personality_v0 to i8*) {
  %3 = getelementptr inbounds %"class.std::__cxx1998::vector", %"class.std::__cxx1998::vector"* %0, i64 0, i32 0
  %4 = getelementptr inbounds %"class.std::__cxx1998::vector", %"class.std::__cxx1998::vector"* %1, i64 0, i32 0, i32 0, i32 0, i32 1
  %5 = load i32*, i32** %4, align 8, !tbaa !41
  %6 = getelementptr inbounds %"class.std::__cxx1998::vector", %"class.std::__cxx1998::vector"* %1, i64 0, i32 0, i32 0, i32 0, i32 0
  %7 = load i32*, i32** %6, align 8, !tbaa !43
  %8 = ptrtoint i32* %5 to i64
  %9 = ptrtoint i32* %7 to i64
  %10 = sub i64 %8, %9
  %11 = ashr exact i64 %10, 2
  %12 = bitcast %"class.std::__cxx1998::vector"* %0 to i8*
  tail call void @llvm.memset.p0i8.i64(i8* noundef nonnull align 8 dereferenceable(24) %12, i8 0, i64 24, i1 false) #25
  tail call void @_ZNSt9__cxx199812_Vector_baseIiSaIiEE17_M_create_storageEm(%"struct.std::__cxx1998::_Vector_base"* nonnull align 8 dereferenceable(24) %3, i64 %11) #26
  %13 = load i32*, i32** %6, align 8, !tbaa !46
  %14 = load i32*, i32** %4, align 8, !tbaa !46
  %15 = getelementptr inbounds %"class.std::__cxx1998::vector", %"class.std::__cxx1998::vector"* %0, i64 0, i32 0, i32 0, i32 0, i32 0
  %16 = load i32*, i32** %15, align 8, !tbaa !43
  %17 = invoke i32* @_ZSt4copyIN9__gnu_cxx17__normal_iteratorIPKiNSt9__cxx19986vectorIiSaIiEEEEEPiET0_T_SB_SA_(i32* %13, i32* %14, i32* %16) #26
          to label %18 unwind label %20

18:                                               ; preds = %2
  %19 = getelementptr inbounds %"class.std::__cxx1998::vector", %"class.std::__cxx1998::vector"* %0, i64 0, i32 0, i32 0, i32 0, i32 1
  store i32* %17, i32** %19, align 8, !tbaa !41
  ret void

20:                                               ; preds = %2
  %21 = landingpad { i8*, i32 }
          cleanup
  tail call void @_ZNSt9__cxx199812_Vector_baseIiSaIiEED2Ev(%"struct.std::__cxx1998::_Vector_base"* nonnull align 8 dereferenceable(24) %3) #27
  resume { i8*, i32 } %21
}

; Function Attrs: inlinehint minsize optsize sspstrong uwtable
define linkonce_odr dso_local i32* @_ZSt4copyIN9__gnu_cxx17__normal_iteratorIPKiNSt9__cxx19986vectorIiSaIiEEEEEPiET0_T_SB_SA_(i32* %0, i32* %1, i32* %2) local_unnamed_addr #21 comdat {
  %4 = alloca %"class.__gnu_cxx::__normal_iterator.32", align 8
  %5 = alloca %"class.__gnu_cxx::__normal_iterator.32", align 8
  %6 = getelementptr inbounds %"class.__gnu_cxx::__normal_iterator.32", %"class.__gnu_cxx::__normal_iterator.32"* %4, i64 0, i32 0
  store i32* %0, i32** %6, align 8
  %7 = getelementptr inbounds %"class.__gnu_cxx::__normal_iterator.32", %"class.__gnu_cxx::__normal_iterator.32"* %5, i64 0, i32 0
  store i32* %1, i32** %7, align 8
  %8 = ptrtoint i32* %1 to i64
  %9 = ptrtoint i32* %0 to i64
  %10 = sub i64 %8, %9
  %11 = icmp sgt i64 %10, -4
  br i1 %11, label %17, label %12, !prof !44

12:                                               ; preds = %3
  %13 = tail call nonnull align 8 dereferenceable(544) %"class.__gnu_debug::_Error_formatter"* @_ZN11__gnu_debug16_Error_formatter5_S_atEPKcjS2_(i8* getelementptr inbounds ([100 x i8], [100 x i8]* @.str.4, i64 0, i64 0), i32 617, i8* getelementptr inbounds ([127 x i8], [127 x i8]* @__PRETTY_FUNCTION__._ZSt4copyIN9__gnu_cxx17__normal_iteratorIPKiNSt9__cxx19986vectorIiSaIiEEEEEPiET0_T_SB_SA_, i64 0, i64 0)) #26
  %14 = tail call nonnull align 8 dereferenceable(544) %"class.__gnu_debug::_Error_formatter"* @_ZNK11__gnu_debug16_Error_formatter10_M_messageENS_13_Debug_msg_idE(%"class.__gnu_debug::_Error_formatter"* nonnull align 8 dereferenceable(544) %13, i32 0) #27
  %15 = call nonnull align 8 dereferenceable(544) %"class.__gnu_debug::_Error_formatter"* @_ZN11__gnu_debug16_Error_formatter11_M_iteratorIN9__gnu_cxx17__normal_iteratorIPKiNSt9__cxx19986vectorIiSaIiEEEEEEERS0_RKT_PKc(%"class.__gnu_debug::_Error_formatter"* nonnull align 8 dereferenceable(544) %14, %"class.__gnu_cxx::__normal_iterator.32"* nonnull align 8 dereferenceable(8) %4, i8* getelementptr inbounds ([8 x i8], [8 x i8]* @.str.5, i64 0, i64 0)) #26
  %16 = call nonnull align 8 dereferenceable(544) %"class.__gnu_debug::_Error_formatter"* @_ZN11__gnu_debug16_Error_formatter11_M_iteratorIN9__gnu_cxx17__normal_iteratorIPKiNSt9__cxx19986vectorIiSaIiEEEEEEERS0_RKT_PKc(%"class.__gnu_debug::_Error_formatter"* nonnull align 8 dereferenceable(544) %15, %"class.__gnu_cxx::__normal_iterator.32"* nonnull align 8 dereferenceable(8) %5, i8* getelementptr inbounds ([7 x i8], [7 x i8]* @.str.14, i64 0, i64 0)) #26
  call void @_ZNK11__gnu_debug16_Error_formatter8_M_errorEv(%"class.__gnu_debug::_Error_formatter"* nonnull align 8 dereferenceable(544) %16) #29
  unreachable

17:                                               ; preds = %3
  %18 = icmp eq i64 %10, 0
  br i1 %18, label %22, label %19

19:                                               ; preds = %17
  %20 = bitcast i32* %2 to i8*
  %21 = bitcast i32* %0 to i8*
  tail call void @llvm.memmove.p0i8.p0i8.i64(i8* align 4 %20, i8* align 4 %21, i64 %10, i1 false) #25
  br label %22

22:                                               ; preds = %17, %19
  %23 = ashr exact i64 %10, 2
  %24 = getelementptr inbounds i32, i32* %2, i64 %23
  ret i32* %24
}

; Function Attrs: minsize mustprogress optsize sspstrong uwtable
define linkonce_odr dso_local nonnull align 8 dereferenceable(544) %"class.__gnu_debug::_Error_formatter"* @_ZN11__gnu_debug16_Error_formatter11_M_iteratorIN9__gnu_cxx17__normal_iteratorIPKiNSt9__cxx19986vectorIiSaIiEEEEEEERS0_RKT_PKc(%"class.__gnu_debug::_Error_formatter"* nonnull align 8 dereferenceable(544) %0, %"class.__gnu_cxx::__normal_iterator.32"* nonnull align 8 dereferenceable(8) %1, i8* %2) local_unnamed_addr #3 comdat align 2 {
  %4 = alloca %"struct.__gnu_debug::_Error_formatter::_Parameter", align 8
  %5 = getelementptr inbounds %"class.__gnu_debug::_Error_formatter", %"class.__gnu_debug::_Error_formatter"* %0, i64 0, i32 3
  %6 = load i32, i32* %5, align 8, !tbaa !61
  %7 = icmp ult i32 %6, 9
  br i1 %7, label %8, label %15

8:                                                ; preds = %3
  %9 = bitcast %"struct.__gnu_debug::_Error_formatter::_Parameter"* %4 to i8*
  call void @llvm.lifetime.start.p0i8(i64 56, i8* nonnull %9) #25
  call void @_ZN11__gnu_debug16_Error_formatter10_ParameterC2IPKiNSt9__cxx19986vectorIiSaIiEEEEERKN9__gnu_cxx17__normal_iteratorIT_T0_EEPKcNS0_12_Is_iteratorE(%"struct.__gnu_debug::_Error_formatter::_Parameter"* nonnull align 8 dereferenceable(56) %4, %"class.__gnu_cxx::__normal_iterator.32"* nonnull align 8 dereferenceable(8) %1, i8* %2) #26
  %10 = load i32, i32* %5, align 8, !tbaa !61
  %11 = add i32 %10, 1
  store i32 %11, i32* %5, align 8, !tbaa !61
  %12 = zext i32 %10 to i64
  %13 = getelementptr inbounds %"class.__gnu_debug::_Error_formatter", %"class.__gnu_debug::_Error_formatter"* %0, i64 0, i32 2, i64 %12
  %14 = bitcast %"struct.__gnu_debug::_Error_formatter::_Parameter"* %13 to i8*
  call void @llvm.memcpy.p0i8.p0i8.i64(i8* noundef nonnull align 8 dereferenceable(56) %14, i8* noundef nonnull align 8 dereferenceable(56) %9, i64 56, i1 false)
  call void @llvm.lifetime.end.p0i8(i64 56, i8* nonnull %9) #25
  br label %15

15:                                               ; preds = %8, %3
  ret %"class.__gnu_debug::_Error_formatter"* %0
}

; Function Attrs: minsize optsize sspstrong uwtable
define linkonce_odr dso_local void @_ZN11__gnu_debug16_Error_formatter10_ParameterC2IPKiNSt9__cxx19986vectorIiSaIiEEEEERKN9__gnu_cxx17__normal_iteratorIT_T0_EEPKcNS0_12_Is_iteratorE(%"struct.__gnu_debug::_Error_formatter::_Parameter"* nonnull align 8 dereferenceable(56) %0, %"class.__gnu_cxx::__normal_iterator.32"* nonnull align 8 dereferenceable(8) %1, i8* %2) unnamed_addr #6 comdat align 2 {
  %4 = getelementptr inbounds %"class.__gnu_cxx::__normal_iterator.32", %"class.__gnu_cxx::__normal_iterator.32"* %1, i64 0, i32 0
  tail call void @_ZN11__gnu_debug16_Error_formatter10_ParameterC2IiEERKPKT_PKcNS0_12_Is_iteratorE(%"struct.__gnu_debug::_Error_formatter::_Parameter"* nonnull align 8 dereferenceable(56) %0, i32** nonnull align 8 dereferenceable(8) %4, i8* %2) #26
  %5 = getelementptr inbounds %"struct.__gnu_debug::_Error_formatter::_Parameter", %"struct.__gnu_debug::_Error_formatter::_Parameter"* %0, i64 0, i32 1, i32 0, i32 0, i32 0, i32 1
  store %"class.std::type_info"* bitcast ({ i8*, i8* }* @_ZTIN9__gnu_cxx17__normal_iteratorIPKiNSt9__cxx19986vectorIiSaIiEEEEE to %"class.std::type_info"*), %"class.std::type_info"** %5, align 8, !tbaa !13
  ret void
}

; Function Attrs: minsize nounwind optsize sspstrong uwtable
define linkonce_odr dso_local void @_ZN11__gnu_debug16_Error_formatter10_ParameterC2IiEERKPKT_PKcNS0_12_Is_iteratorE(%"struct.__gnu_debug::_Error_formatter::_Parameter"* nonnull align 8 dereferenceable(56) %0, i32** nonnull align 8 dereferenceable(8) %1, i8* %2) unnamed_addr #7 comdat align 2 {
  %4 = getelementptr inbounds %"struct.__gnu_debug::_Error_formatter::_Parameter", %"struct.__gnu_debug::_Error_formatter::_Parameter"* %0, i64 0, i32 0
  store i32 1, i32* %4, align 8, !tbaa !65
  %5 = getelementptr inbounds %"struct.__gnu_debug::_Error_formatter::_Parameter", %"struct.__gnu_debug::_Error_formatter::_Parameter"* %0, i64 0, i32 1, i32 0, i32 1
  %6 = bitcast i32* %5 to i8*
  tail call void @llvm.memset.p0i8.i64(i8* noundef nonnull align 8 dereferenceable(48) %6, i8 0, i64 24, i1 false)
