; ModuleID = 'Project_CodeNet_C++1400/p03354/s632738285.cpp'
source_filename = "Project_CodeNet_C++1400/p03354/s632738285.cpp"
target datalayout = "e-m:e-p270:32:32-p271:32:32-p272:64:64-i64:64-f80:128-n8:16:32:64-S128"
target triple = "x86_64-pc-linux-gnu"

%"class.std::ios_base::Init" = type { i8 }
%"class.std::basic_istream" = type { i32 (...)**, i64, %"class.std::basic_ios" }
%"class.std::basic_ios" = type { %"class.std::ios_base", %"class.std::basic_ostream"*, i8, i8, %"class.std::basic_streambuf"*, %"class.std::ctype"*, %"class.std::num_put"*, %"class.std::num_get"* }
%"class.std::ios_base" = type { i32 (...)**, i64, i64, i32, i32, i32, %"struct.std::ios_base::_Callback_list"*, %"struct.std::ios_base::_Words", [8 x %"struct.std::ios_base::_Words"], i32, %"struct.std::ios_base::_Words"*, %"class.std::locale" }
%"struct.std::ios_base::_Callback_list" = type { %"struct.std::ios_base::_Callback_list"*, void (i32, %"class.std::ios_base"*, i32)*, i32, i32 }
%"struct.std::ios_base::_Words" = type { i8*, i64 }
%"class.std::locale" = type { %"class.std::locale::_Impl"* }
%"class.std::locale::_Impl" = type { i32, %"class.std::locale::facet"**, i64, %"class.std::locale::facet"**, i8** }
%"class.std::locale::facet" = type <{ i32 (...)**, i32, [4 x i8] }>
%"class.std::basic_ostream" = type { i32 (...)**, %"class.std::basic_ios" }
%"class.std::basic_streambuf" = type { i32 (...)**, i8*, i8*, i8*, i8*, i8*, i8*, %"class.std::locale" }
%"class.std::ctype" = type <{ %"class.std::locale::facet.base", [4 x i8], %struct.__locale_struct*, i8, [7 x i8], i32*, i32*, i16*, i8, [256 x i8], [256 x i8], i8, [6 x i8] }>
%"class.std::locale::facet.base" = type <{ i32 (...)**, i32 }>
%struct.__locale_struct = type { [13 x %struct.__locale_data*], i16*, i32*, i32*, [13 x i8*] }
%struct.__locale_data = type opaque
%"class.std::num_put" = type { %"class.std::locale::facet.base", [4 x i8] }
%"class.std::num_get" = type { %"class.std::locale::facet.base", [4 x i8] }
%"class.std::vector" = type { %"struct.std::_Vector_base" }
%"struct.std::_Vector_base" = type { %"struct.std::_Vector_base<int, std::allocator<int>>::_Vector_impl" }
%"struct.std::_Vector_base<int, std::allocator<int>>::_Vector_impl" = type { %"struct.std::_Vector_base<int, std::allocator<int>>::_Vector_impl_data" }
%"struct.std::_Vector_base<int, std::allocator<int>>::_Vector_impl_data" = type { i32*, i32*, i32* }
%"class.std::allocator" = type { i8 }
%"class.std::vector.0" = type { %"struct.std::_Vector_base.1" }
%"struct.std::_Vector_base.1" = type { %"struct.std::_Vector_base<std::vector<int>, std::allocator<std::vector<int>>>::_Vector_impl" }
%"struct.std::_Vector_base<std::vector<int>, std::allocator<std::vector<int>>>::_Vector_impl" = type { %"struct.std::_Vector_base<std::vector<int>, std::allocator<std::vector<int>>>::_Vector_impl_data" }
%"struct.std::_Vector_base<std::vector<int>, std::allocator<std::vector<int>>>::_Vector_impl_data" = type { %"class.std::vector"*, %"class.std::vector"*, %"class.std::vector"* }
%"class.std::allocator.2" = type { i8 }
%"class.std::vector.6" = type { %"struct.std::_Bvector_base" }
%"struct.std::_Bvector_base" = type { %"struct.std::_Bvector_base<std::allocator<bool>>::_Bvector_impl" }
%"struct.std::_Bvector_base<std::allocator<bool>>::_Bvector_impl" = type { %"struct.std::_Bvector_base<std::allocator<bool>>::_Bvector_impl_data" }
%"struct.std::_Bvector_base<std::allocator<bool>>::_Bvector_impl_data" = type { %"struct.std::_Bit_iterator", %"struct.std::_Bit_iterator", i64* }
%"struct.std::_Bit_iterator" = type { %"struct.std::_Bit_iterator_base.base", [4 x i8] }
%"struct.std::_Bit_iterator_base.base" = type <{ i64*, i32 }>
%"class.std::allocator.10" = type { i8 }
%"class.std::stack" = type { %"class.std::deque" }
%"class.std::deque" = type { %"class.std::_Deque_base" }
%"class.std::_Deque_base" = type { %"struct.std::_Deque_base<int, std::allocator<int>>::_Deque_impl" }
%"struct.std::_Deque_base<int, std::allocator<int>>::_Deque_impl" = type { %"struct.std::_Deque_base<int, std::allocator<int>>::_Deque_impl_data" }
%"struct.std::_Deque_base<int, std::allocator<int>>::_Deque_impl_data" = type { i32**, i64, %"struct.std::_Deque_iterator", %"struct.std::_Deque_iterator" }
%"struct.std::_Deque_iterator" = type { i32*, i32*, i32*, i32** }
%"class.std::set" = type { %"class.std::_Rb_tree" }
%"class.std::_Rb_tree" = type { %"struct.std::_Rb_tree<int, int, std::_Identity<int>, std::less<int>>::_Rb_tree_impl" }
%"struct.std::_Rb_tree<int, int, std::_Identity<int>, std::less<int>>::_Rb_tree_impl" = type { %"struct.std::_Rb_tree_key_compare", %"struct.std::_Rb_tree_header" }
%"struct.std::_Rb_tree_key_compare" = type { %"struct.std::less" }
%"struct.std::less" = type { i8 }
%"struct.std::_Rb_tree_header" = type { %"struct.std::_Rb_tree_node_base", i64 }
%"struct.std::_Rb_tree_node_base" = type { i32, %"struct.std::_Rb_tree_node_base"*, %"struct.std::_Rb_tree_node_base"*, %"struct.std::_Rb_tree_node_base"* }
%"struct.std::_Rb_tree_node" = type <{ %"struct.std::_Rb_tree_node_base", %"struct.__gnu_cxx::__aligned_membuf", [4 x i8] }>
%"struct.__gnu_cxx::__aligned_membuf" = type { [4 x i8] }
%"class.__gnu_cxx::new_allocator" = type { i8 }
%"class.__gnu_cxx::new_allocator.3" = type { i8 }
%"struct.__gnu_cxx::__ops::_Iter_less_iter" = type { i8 }
%"struct.__gnu_cxx::__ops::_Iter_less_val" = type { i8 }
%"class.std::allocator.7" = type { i8 }
%"class.__gnu_cxx::new_allocator.8" = type { i8 }
%"class.std::allocator.16" = type { i8 }
%"class.__gnu_cxx::new_allocator.17" = type { i8 }
%"struct.std::_Rb_tree<int, int, std::_Identity<int>, std::less<int>>::_Alloc_node" = type { %"class.std::_Rb_tree"* }
%"class.std::allocator.13" = type { i8 }
%"class.__gnu_cxx::new_allocator.14" = type { i8 }

$_ZNSt6vectorIiSaIiEEC2EmRKS0_ = comdat any

$_ZNSt6vectorIS_IiSaIiEESaIS1_EEC2EmRKS1_RKS2_ = comdat any

$_ZNSt6vectorIiSaIiEE12emplace_backIJRiEEEvDpOT_ = comdat any

$_ZNSt6vectorIiSaIiEE5eraseEN9__gnu_cxx17__normal_iteratorIPKiS1_EES6_ = comdat any

$_ZNSt6vectorIbSaIbEEC2EmRKbRKS0_ = comdat any

$_ZNSt5stackIiSt5dequeIiSaIiEEEC2IS2_vEEv = comdat any

$_ZNSt6vectorIbSaIbEEixEm = comdat any

$_ZNSt13_Bvector_baseISaIbEED2Ev = comdat any

$_ZNSt6vectorIS_IiSaIiEESaIS1_EED2Ev = comdat any

$__clang_call_terminate = comdat any

$_ZNSt8_Rb_treeIiiSt9_IdentityIiESt4lessIiESaIiEED2Ev = comdat any

$_ZNSt8_Rb_treeIiiSt9_IdentityIiESt4lessIiESaIiEE8_M_eraseEPSt13_Rb_tree_nodeIiE = comdat any

$_ZNSt11_Deque_baseIiSaIiEED2Ev = comdat any

$_ZNSt11_Deque_baseIiSaIiEE16_M_destroy_nodesEPPiS3_ = comdat any

$_ZNSt6vectorIiSaIiEE17_S_check_init_lenEmRKS0_ = comdat any

$_ZNSt6vectorIiSaIiEE21_M_default_initializeEm = comdat any

$_ZNSt12_Vector_baseIiSaIiEED2Ev = comdat any

$_ZNSt12_Vector_baseIiSaIiEE17_M_create_storageEm = comdat any

$_ZNSt12_Vector_baseIiSaIiEE11_M_allocateEm = comdat any

$_ZNSt16allocator_traitsISaIiEE8allocateERS0_m = comdat any

$_ZN9__gnu_cxx13new_allocatorIiE8allocateEmPKv = comdat any

$_ZNSt27__uninitialized_default_n_1ILb1EE18__uninit_default_nIPimEET_S3_T0_ = comdat any

$_ZSt10__fill_n_aIPimiET_S1_T0_RKT1_St26random_access_iterator_tag = comdat any

$_ZNSt6vectorIS_IiSaIiEESaIS1_EE17_S_check_init_lenEmRKS2_ = comdat any

$_ZNSt6vectorIS_IiSaIiEESaIS1_EE18_M_fill_initializeEmRKS1_ = comdat any

$_ZNSt12_Vector_baseISt6vectorIiSaIiEESaIS2_EED2Ev = comdat any

$_ZNSt12_Vector_baseISt6vectorIiSaIiEESaIS2_EE17_M_create_storageEm = comdat any

$_ZNSt12_Vector_baseISt6vectorIiSaIiEESaIS2_EE11_M_allocateEm = comdat any

$_ZNSt16allocator_traitsISaISt6vectorIiSaIiEEEE8allocateERS3_m = comdat any

$_ZN9__gnu_cxx13new_allocatorISt6vectorIiSaIiEEE8allocateEmPKv = comdat any

$_ZNSt22__uninitialized_fill_nILb0EE15__uninit_fill_nIPSt6vectorIiSaIiEEmS4_EET_S6_T0_RKT1_ = comdat any

$_ZNSt6vectorIiSaIiEEC2ERKS1_ = comdat any

$_ZNSt12_Destroy_auxILb0EE9__destroyIPSt6vectorIiSaIiEEEEvT_S6_ = comdat any

$_ZNSt6vectorIiSaIiEE17_M_realloc_insertIJRiEEEvN9__gnu_cxx17__normal_iteratorIPiS1_EEDpOT_ = comdat any

$_ZNKSt6vectorIiSaIiEE12_M_check_lenEmPKc = comdat any

$_ZSt6__sortIN9__gnu_cxx17__normal_iteratorIPiSt6vectorIiSaIiEEEENS0_5__ops15_Iter_less_iterEEvT_S9_T0_ = comdat any

$_ZSt16__introsort_loopIN9__gnu_cxx17__normal_iteratorIPiSt6vectorIiSaIiEEEElNS0_5__ops15_Iter_less_iterEEvT_S9_T0_T1_ = comdat any

$_ZSt22__final_insertion_sortIN9__gnu_cxx17__normal_iteratorIPiSt6vectorIiSaIiEEEENS0_5__ops15_Iter_less_iterEEvT_S9_T0_ = comdat any

$_ZSt14__partial_sortIN9__gnu_cxx17__normal_iteratorIPiSt6vectorIiSaIiEEEENS0_5__ops15_Iter_less_iterEEvT_S9_S9_T0_ = comdat any

$_ZSt27__unguarded_partition_pivotIN9__gnu_cxx17__normal_iteratorIPiSt6vectorIiSaIiEEEENS0_5__ops15_Iter_less_iterEET_S9_S9_T0_ = comdat any

$_ZSt13__heap_selectIN9__gnu_cxx17__normal_iteratorIPiSt6vectorIiSaIiEEEENS0_5__ops15_Iter_less_iterEEvT_S9_S9_T0_ = comdat any

$_ZSt11__sort_heapIN9__gnu_cxx17__normal_iteratorIPiSt6vectorIiSaIiEEEENS0_5__ops15_Iter_less_iterEEvT_S9_RT0_ = comdat any

$_ZSt11__make_heapIN9__gnu_cxx17__normal_iteratorIPiSt6vectorIiSaIiEEEENS0_5__ops15_Iter_less_iterEEvT_S9_RT0_ = comdat any

$_ZSt10__pop_heapIN9__gnu_cxx17__normal_iteratorIPiSt6vectorIiSaIiEEEENS0_5__ops15_Iter_less_iterEEvT_S9_S9_RT0_ = comdat any

$_ZSt13__adjust_heapIN9__gnu_cxx17__normal_iteratorIPiSt6vectorIiSaIiEEEEliNS0_5__ops15_Iter_less_iterEEvT_T0_SA_T1_T2_ = comdat any

$_ZSt11__push_heapIN9__gnu_cxx17__normal_iteratorIPiSt6vectorIiSaIiEEEEliNS0_5__ops14_Iter_less_valEEvT_T0_SA_T1_RT2_ = comdat any

$_ZSt22__move_median_to_firstIN9__gnu_cxx17__normal_iteratorIPiSt6vectorIiSaIiEEEENS0_5__ops15_Iter_less_iterEEvT_S9_S9_S9_T0_ = comdat any

$_ZSt21__unguarded_partitionIN9__gnu_cxx17__normal_iteratorIPiSt6vectorIiSaIiEEEENS0_5__ops15_Iter_less_iterEET_S9_S9_S9_T0_ = comdat any

$_ZSt16__insertion_sortIN9__gnu_cxx17__normal_iteratorIPiSt6vectorIiSaIiEEEENS0_5__ops15_Iter_less_iterEEvT_S9_T0_ = comdat any

$_ZSt26__unguarded_insertion_sortIN9__gnu_cxx17__normal_iteratorIPiSt6vectorIiSaIiEEEENS0_5__ops15_Iter_less_iterEEvT_S9_T0_ = comdat any

$_ZSt25__unguarded_linear_insertIN9__gnu_cxx17__normal_iteratorIPiSt6vectorIiSaIiEEEENS0_5__ops14_Val_less_iterEEvT_T0_ = comdat any

$_ZSt8__uniqueIN9__gnu_cxx17__normal_iteratorIPiSt6vectorIiSaIiEEEENS0_5__ops19_Iter_equal_to_iterEET_S9_S9_T0_ = comdat any

$_ZSt15__adjacent_findIN9__gnu_cxx17__normal_iteratorIPiSt6vectorIiSaIiEEEENS0_5__ops19_Iter_equal_to_iterEET_S9_S9_T0_ = comdat any

$_ZNSt6vectorIiSaIiEE8_M_eraseEN9__gnu_cxx17__normal_iteratorIPiS1_EES5_ = comdat any

$_ZNSt6vectorIbSaIbEE13_M_initializeEm = comdat any

$_ZNSt13_Bvector_baseISaIbEE11_M_allocateEm = comdat any

$_ZStplRKSt13_Bit_iteratorl = comdat any

$_ZNSt16allocator_traitsISaImEE8allocateERS0_m = comdat any

$_ZN9__gnu_cxx13new_allocatorImE8allocateEmPKv = comdat any

$_ZNSt13_Bvector_baseISaIbEE13_M_deallocateEv = comdat any

$_ZNSt11_Deque_baseIiSaIiEEC2Ev = comdat any

$_ZNSt11_Deque_baseIiSaIiEE17_M_initialize_mapEm = comdat any

$_ZNSt11_Deque_baseIiSaIiEE15_M_allocate_mapEm = comdat any

$_ZNSt11_Deque_baseIiSaIiEE15_M_create_nodesEPPiS3_ = comdat any

$_ZNSt16allocator_traitsISaIPiEE8allocateERS1_m = comdat any

$_ZN9__gnu_cxx13new_allocatorIPiE8allocateEmPKv = comdat any

$_ZNSt11_Deque_baseIiSaIiEE16_M_allocate_nodeEv = comdat any

$_ZNKSt13_Bit_iteratorixEl = comdat any

$_ZNSt5dequeIiSaIiEE9push_backERKi = comdat any

$_ZNSt5dequeIiSaIiEE16_M_push_back_auxIJRKiEEEvDpOT_ = comdat any

$_ZNKSt5dequeIiSaIiEE4sizeEv = comdat any

$_ZNSt5dequeIiSaIiEE22_M_reserve_map_at_backEm = comdat any

$_ZStmiRKSt15_Deque_iteratorIiRiPiES4_ = comdat any

$_ZNSt5dequeIiSaIiEE17_M_reallocate_mapEmb = comdat any

$_ZNSt5dequeIiSaIiEE8pop_backEv = comdat any

$_ZNSt5dequeIiSaIiEE15_M_pop_back_auxEv = comdat any

$_ZNSt8_Rb_treeIiiSt9_IdentityIiESt4lessIiESaIiEE16_M_insert_uniqueIRKiEESt4pairISt17_Rb_tree_iteratorIiEbEOT_ = comdat any

$_ZNSt8_Rb_treeIiiSt9_IdentityIiESt4lessIiESaIiEE24_M_get_insert_unique_posERKi = comdat any

$_ZNSt8_Rb_treeIiiSt9_IdentityIiESt4lessIiESaIiEE10_M_insert_IRKiNS5_11_Alloc_nodeEEESt17_Rb_tree_iteratorIiEPSt18_Rb_tree_node_baseSD_OT_RT0_ = comdat any

$_ZNKSt8_Rb_treeIiiSt9_IdentityIiESt4lessIiESaIiEE11_Alloc_nodeclIRKiEEPSt13_Rb_tree_nodeIiEOT_ = comdat any

$_ZNSt8_Rb_treeIiiSt9_IdentityIiESt4lessIiESaIiEE14_M_create_nodeIJRKiEEEPSt13_Rb_tree_nodeIiEDpOT_ = comdat any

$_ZNSt8_Rb_treeIiiSt9_IdentityIiESt4lessIiESaIiEE11_M_get_nodeEv = comdat any

$_ZNSt16allocator_traitsISaISt13_Rb_tree_nodeIiEEE8allocateERS2_m = comdat any

$_ZN9__gnu_cxx13new_allocatorISt13_Rb_tree_nodeIiEE8allocateEmPKv = comdat any

$_ZNSt8_Rb_treeIiiSt9_IdentityIiESt4lessIiESaIiEE4findERKi = comdat any

$_ZNSt8_Rb_treeIiiSt9_IdentityIiESt4lessIiESaIiEE14_M_lower_boundEPSt13_Rb_tree_nodeIiEPSt18_Rb_tree_node_baseRKi = comdat any

@_ZStL8__ioinit = internal global %"class.std::ios_base::Init" zeroinitializer, align 1
@__dso_handle = external hidden global i8
@_ZSt3cin = external global %"class.std::basic_istream", align 8
@_ZSt4cout = external global %"class.std::basic_ostream", align 8
@.str = private unnamed_addr constant [49 x i8] c"cannot create std::vector larger than max_size()\00", align 1
@.str.1 = private unnamed_addr constant [26 x i8] c"vector::_M_realloc_insert\00", align 1
@.str.2 = private unnamed_addr constant [48 x i8] c"cannot create std::deque larger than max_size()\00", align 1
@llvm.global_ctors = appending global [1 x { i32, void ()*, i8* }] [{ i32, void ()*, i8* } { i32 65535, void ()* @_GLOBAL__sub_I_s632738285.cpp, i8* null }]

; Function Attrs: minsize optsize
declare void @_ZNSt8ios_base4InitC1Ev(%"class.std::ios_base::Init"* nonnull align 1 dereferenceable(1)) unnamed_addr #0

; Function Attrs: minsize nounwind optsize
declare void @_ZNSt8ios_base4InitD1Ev(%"class.std::ios_base::Init"* nonnull align 1 dereferenceable(1)) unnamed_addr #1

; Function Attrs: nofree nounwind
declare i32 @__cxa_atexit(void (i8*)*, i8*, i8*) local_unnamed_addr #2

; Function Attrs: minsize norecurse optsize sspstrong uwtable
define dso_local i32 @main() local_unnamed_addr #3 personality i8* bitcast (i32 (...)* @__gxx_personality_v0 to i8*) {
  %1 = alloca i32, align 4
  %2 = alloca i32, align 4
  %3 = alloca %"class.std::vector", align 8
  %4 = alloca %"class.std::allocator", align 1
  %5 = alloca %"class.std::vector.0", align 8
  %6 = alloca %"class.std::vector", align 8
  %7 = alloca %"class.std::allocator", align 1
  %8 = alloca %"class.std::allocator.2", align 1
  %9 = alloca i32, align 4
  %10 = alloca i32, align 4
  %11 = alloca %"class.std::vector.6", align 8
  %12 = alloca i8, align 1
  %13 = alloca %"class.std::allocator.10", align 1
  %14 = alloca %"class.std::stack", align 8
  %15 = alloca i32, align 4
  %16 = alloca %"class.std::vector", align 8
  %17 = alloca %"class.std::allocator", align 1
  %18 = alloca %"class.std::set", align 8
  %19 = alloca i32, align 4
  %20 = alloca i32, align 4
  %21 = alloca i32, align 4
  %22 = bitcast i32* %1 to i8*
  call void @llvm.lifetime.start.p0i8(i64 4, i8* nonnull %22) #19
  %23 = bitcast i32* %2 to i8*
  call void @llvm.lifetime.start.p0i8(i64 4, i8* nonnull %23) #19
  %24 = call nonnull align 8 dereferenceable(16) %"class.std::basic_istream"* @_ZNSirsERi(%"class.std::basic_istream"* nonnull align 8 dereferenceable(16) @_ZSt3cin, i32* nonnull align 4 dereferenceable(4) %1) #20
  %25 = call nonnull align 8 dereferenceable(16) %"class.std::basic_istream"* @_ZNSirsERi(%"class.std::basic_istream"* nonnull align 8 dereferenceable(16) %24, i32* nonnull align 4 dereferenceable(4) %2) #20
  %26 = bitcast %"class.std::vector"* %3 to i8*
  call void @llvm.lifetime.start.p0i8(i64 24, i8* nonnull %26) #19
  %27 = load i32, i32* %1, align 4, !tbaa !5
  %28 = sext i32 %27 to i64
  %29 = getelementptr inbounds %"class.std::allocator", %"class.std::allocator"* %4, i64 0, i32 0
  call void @llvm.lifetime.start.p0i8(i64 1, i8* nonnull %29) #19
  call void @_ZNSt6vectorIiSaIiEEC2EmRKS0_(%"class.std::vector"* nonnull align 8 dereferenceable(24) %3, i64 %28, %"class.std::allocator"* nonnull align 1 dereferenceable(1) %4) #20
  call void @llvm.lifetime.end.p0i8(i64 1, i8* nonnull %29) #19
  %30 = getelementptr inbounds %"class.std::vector", %"class.std::vector"* %3, i64 0, i32 0, i32 0, i32 0, i32 0
  br label %31

31:                                               ; preds = %44, %0
  %32 = phi i64 [ %49, %44 ], [ 0, %0 ]
  %33 = load i32, i32* %1, align 4, !tbaa !5
  %34 = sext i32 %33 to i64
  %35 = icmp slt i64 %32, %34
  br i1 %35, label %40, label %36

36:                                               ; preds = %31
  %37 = bitcast %"class.std::vector.0"* %5 to i8*
  call void @llvm.lifetime.start.p0i8(i64 24, i8* nonnull %37) #19
  %38 = bitcast %"class.std::vector"* %6 to i8*
  call void @llvm.lifetime.start.p0i8(i64 24, i8* nonnull %38) #19
  %39 = getelementptr inbounds %"class.std::allocator", %"class.std::allocator"* %7, i64 0, i32 0
  call void @llvm.lifetime.start.p0i8(i64 1, i8* nonnull %39) #19
  invoke void @_ZNSt6vectorIiSaIiEEC2EmRKS0_(%"class.std::vector"* nonnull align 8 dereferenceable(24) %6, i64 0, %"class.std::allocator"* nonnull align 1 dereferenceable(1) %7) #20
          to label %52 unwind label %64

40:                                               ; preds = %31
  %41 = load i32*, i32** %30, align 8, !tbaa !9
  %42 = getelementptr inbounds i32, i32* %41, i64 %32
  %43 = invoke nonnull align 8 dereferenceable(16) %"class.std::basic_istream"* @_ZNSirsERi(%"class.std::basic_istream"* nonnull align 8 dereferenceable(16) @_ZSt3cin, i32* nonnull align 4 dereferenceable(4) %42) #20
          to label %44 unwind label %50

44:                                               ; preds = %40
  %45 = load i32*, i32** %30, align 8, !tbaa !9
  %46 = getelementptr inbounds i32, i32* %45, i64 %32
  %47 = load i32, i32* %46, align 4, !tbaa !5
  %48 = add nsw i32 %47, -1
  store i32 %48, i32* %46, align 4, !tbaa !5
  %49 = add nuw nsw i64 %32, 1
  br label %31, !llvm.loop !12

50:                                               ; preds = %40
  %51 = landingpad { i8*, i32 }
          cleanup
  br label %312

52:                                               ; preds = %36
  %53 = sext i32 %33 to i64
  %54 = getelementptr inbounds %"class.std::allocator.2", %"class.std::allocator.2"* %8, i64 0, i32 0
  call void @llvm.lifetime.start.p0i8(i64 1, i8* nonnull %54) #19
  invoke void @_ZNSt6vectorIS_IiSaIiEESaIS1_EEC2EmRKS1_RKS2_(%"class.std::vector.0"* nonnull align 8 dereferenceable(24) %5, i64 %53, %"class.std::vector"* nonnull align 8 dereferenceable(24) %6, %"class.std::allocator.2"* nonnull align 1 dereferenceable(1) %8) #20
          to label %55 unwind label %66

55:                                               ; preds = %52
  call void @llvm.lifetime.end.p0i8(i64 1, i8* nonnull %54) #19
  %56 = getelementptr inbounds %"class.std::vector", %"class.std::vector"* %6, i64 0, i32 0
  call void @_ZNSt12_Vector_baseIiSaIiEED2Ev(%"struct.std::_Vector_base"* nonnull align 8 dereferenceable(24) %56) #21
  call void @llvm.lifetime.end.p0i8(i64 1, i8* nonnull %39) #19
  call void @llvm.lifetime.end.p0i8(i64 24, i8* nonnull %38) #19
  %57 = bitcast i32* %9 to i8*
  %58 = bitcast i32* %10 to i8*
  %59 = getelementptr inbounds %"class.std::vector.0", %"class.std::vector.0"* %5, i64 0, i32 0, i32 0, i32 0, i32 0
  br label %60

60:                                               ; preds = %88, %55
  %61 = phi i32 [ 0, %55 ], [ %89, %88 ]
  %62 = load i32, i32* %2, align 4, !tbaa !5
  %63 = icmp slt i32 %61, %62
  br i1 %63, label %71, label %92

64:                                               ; preds = %36
  %65 = landingpad { i8*, i32 }
          cleanup
  br label %69

66:                                               ; preds = %52
  %67 = landingpad { i8*, i32 }
          cleanup
  call void @llvm.lifetime.end.p0i8(i64 1, i8* nonnull %54) #19
  %68 = getelementptr inbounds %"class.std::vector", %"class.std::vector"* %6, i64 0, i32 0
  call void @_ZNSt12_Vector_baseIiSaIiEED2Ev(%"struct.std::_Vector_base"* nonnull align 8 dereferenceable(24) %68) #21
  br label %69

69:                                               ; preds = %66, %64
  %70 = phi { i8*, i32 } [ %67, %66 ], [ %65, %64 ]
  call void @llvm.lifetime.end.p0i8(i64 1, i8* nonnull %39) #19
  call void @llvm.lifetime.end.p0i8(i64 24, i8* nonnull %38) #19
  br label %310

71:                                               ; preds = %60
  call void @llvm.lifetime.start.p0i8(i64 4, i8* nonnull %57) #19
  call void @llvm.lifetime.start.p0i8(i64 4, i8* nonnull %58) #19
  %72 = invoke nonnull align 8 dereferenceable(16) %"class.std::basic_istream"* @_ZNSirsERi(%"class.std::basic_istream"* nonnull align 8 dereferenceable(16) @_ZSt3cin, i32* nonnull align 4 dereferenceable(4) %9) #20
          to label %73 unwind label %90

73:                                               ; preds = %71
  %74 = invoke nonnull align 8 dereferenceable(16) %"class.std::basic_istream"* @_ZNSirsERi(%"class.std::basic_istream"* nonnull align 8 dereferenceable(16) %72, i32* nonnull align 4 dereferenceable(4) %10) #20
          to label %75 unwind label %90

75:                                               ; preds = %73
  %76 = load i32, i32* %9, align 4, !tbaa !5
  %77 = add nsw i32 %76, -1
  store i32 %77, i32* %9, align 4, !tbaa !5
  %78 = load i32, i32* %10, align 4, !tbaa !5
  %79 = add nsw i32 %78, -1
  store i32 %79, i32* %10, align 4, !tbaa !5
  %80 = sext i32 %77 to i64
  %81 = load %"class.std::vector"*, %"class.std::vector"** %59, align 8, !tbaa !14
  %82 = getelementptr inbounds %"class.std::vector", %"class.std::vector"* %81, i64 %80
  invoke void @_ZNSt6vectorIiSaIiEE12emplace_backIJRiEEEvDpOT_(%"class.std::vector"* nonnull align 8 dereferenceable(24) %82, i32* nonnull align 4 dereferenceable(4) %10) #20
          to label %83 unwind label %90

83:                                               ; preds = %75
  %84 = load i32, i32* %10, align 4, !tbaa !5
  %85 = sext i32 %84 to i64
  %86 = load %"class.std::vector"*, %"class.std::vector"** %59, align 8, !tbaa !14
  %87 = getelementptr inbounds %"class.std::vector", %"class.std::vector"* %86, i64 %85
  invoke void @_ZNSt6vectorIiSaIiEE12emplace_backIJRiEEEvDpOT_(%"class.std::vector"* nonnull align 8 dereferenceable(24) %87, i32* nonnull align 4 dereferenceable(4) %9) #20
          to label %88 unwind label %90

88:                                               ; preds = %83
  call void @llvm.lifetime.end.p0i8(i64 4, i8* nonnull %58) #19
  call void @llvm.lifetime.end.p0i8(i64 4, i8* nonnull %57) #19
  %89 = add nuw nsw i32 %61, 1
  br label %60, !llvm.loop !16

90:                                               ; preds = %83, %75, %73, %71
  %91 = landingpad { i8*, i32 }
          cleanup
  call void @llvm.lifetime.end.p0i8(i64 4, i8* nonnull %58) #19
  call void @llvm.lifetime.end.p0i8(i64 4, i8* nonnull %57) #19
  br label %308

92:                                               ; preds = %60, %120
  %93 = phi i64 [ %121, %120 ], [ 0, %60 ]
  %94 = load i32, i32* %1, align 4, !tbaa !5
  %95 = sext i32 %94 to i64
  %96 = icmp slt i64 %93, %95
  br i1 %96, label %101, label %97

97:                                               ; preds = %92
  %98 = sext i32 %94 to i64
  %99 = bitcast %"class.std::vector.6"* %11 to i8*
  call void @llvm.lifetime.start.p0i8(i64 40, i8* nonnull %99) #19
  call void @llvm.lifetime.start.p0i8(i64 1, i8* nonnull %12) #19
  store i8 0, i8* %12, align 1, !tbaa !17
  %100 = getelementptr inbounds %"class.std::allocator.10", %"class.std::allocator.10"* %13, i64 0, i32 0
  call void @llvm.lifetime.start.p0i8(i64 1, i8* nonnull %100) #19
  invoke void @_ZNSt6vectorIbSaIbEEC2EmRKbRKS0_(%"class.std::vector.6"* nonnull align 8 dereferenceable(40) %11, i64 %98, i8* nonnull align 1 dereferenceable(1) %12, %"class.std::allocator.10"* nonnull align 1 dereferenceable(1) %13) #20
          to label %128 unwind label %164

101:                                              ; preds = %92
  %102 = load %"class.std::vector"*, %"class.std::vector"** %59, align 8, !tbaa !14
  %103 = getelementptr inbounds %"class.std::vector", %"class.std::vector"* %102, i64 %93, i32 0, i32 0, i32 0, i32 0
  %104 = load i32*, i32** %103, align 8, !tbaa !19
  %105 = getelementptr inbounds %"class.std::vector", %"class.std::vector"* %102, i64 %93, i32 0, i32 0, i32 0, i32 1
  %106 = load i32*, i32** %105, align 8, !tbaa !19
  invoke void @_ZSt6__sortIN9__gnu_cxx17__normal_iteratorIPiSt6vectorIiSaIiEEEENS0_5__ops15_Iter_less_iterEEvT_S9_T0_(i32* %104, i32* %106) #20
          to label %107 unwind label %122

107:                                              ; preds = %101
  %108 = load %"class.std::vector"*, %"class.std::vector"** %59, align 8, !tbaa !14
  %109 = getelementptr inbounds %"class.std::vector", %"class.std::vector"* %108, i64 %93
  %110 = getelementptr inbounds %"class.std::vector", %"class.std::vector"* %109, i64 0, i32 0, i32 0, i32 0, i32 0
  %111 = load i32*, i32** %110, align 8, !tbaa !19
  %112 = getelementptr inbounds %"class.std::vector", %"class.std::vector"* %108, i64 %93, i32 0, i32 0, i32 0, i32 1
  %113 = load i32*, i32** %112, align 8, !tbaa !19
  %114 = invoke i32* @_ZSt8__uniqueIN9__gnu_cxx17__normal_iteratorIPiSt6vectorIiSaIiEEEENS0_5__ops19_Iter_equal_to_iterEET_S9_S9_T0_(i32* %111, i32* %113) #20
          to label %115 unwind label %124

115:                                              ; preds = %107
  %116 = load %"class.std::vector"*, %"class.std::vector"** %59, align 8, !tbaa !14
  %117 = getelementptr inbounds %"class.std::vector", %"class.std::vector"* %116, i64 %93, i32 0, i32 0, i32 0, i32 1
  %118 = load i32*, i32** %117, align 8, !tbaa !19
  %119 = invoke i32* @_ZNSt6vectorIiSaIiEE5eraseEN9__gnu_cxx17__normal_iteratorIPKiS1_EES6_(%"class.std::vector"* nonnull align 8 dereferenceable(24) %109, i32* %114, i32* %118) #20
          to label %120 unwind label %126

120:                                              ; preds = %115
  %121 = add nuw nsw i64 %93, 1
  br label %92, !llvm.loop !20

122:                                              ; preds = %101
  %123 = landingpad { i8*, i32 }
          cleanup
  br label %308

124:                                              ; preds = %107
  %125 = landingpad { i8*, i32 }
          cleanup
  br label %308

126:                                              ; preds = %115
  %127 = landingpad { i8*, i32 }
          cleanup
  br label %308

128:                                              ; preds = %97
  call void @llvm.lifetime.end.p0i8(i64 1, i8* nonnull %100) #19
  call void @llvm.lifetime.end.p0i8(i64 1, i8* nonnull %12) #19
  %129 = bitcast %"class.std::stack"* %14 to i8*
  call void @llvm.lifetime.start.p0i8(i64 80, i8* nonnull %129) #19
  invoke void @_ZNSt5stackIiSt5dequeIiSaIiEEEC2IS2_vEEv(%"class.std::stack"* nonnull align 8 dereferenceable(80) %14) #20
          to label %130 unwind label %166

130:                                              ; preds = %128
  %131 = bitcast i32* %15 to i8*
  call void @llvm.lifetime.start.p0i8(i64 4, i8* nonnull %131) #19
  %132 = getelementptr inbounds %"class.std::stack", %"class.std::stack"* %14, i64 0, i32 0
  %133 = bitcast %"class.std::vector"* %16 to i8*
  %134 = getelementptr inbounds %"class.std::allocator", %"class.std::allocator"* %17, i64 0, i32 0
  %135 = getelementptr inbounds %"class.std::set", %"class.std::set"* %18, i64 0, i32 0, i32 0, i32 0, i32 0, i32 0
  %136 = getelementptr inbounds i8, i8* %135, i64 8
  %137 = bitcast i8* %136 to i32*
  %138 = getelementptr inbounds i8, i8* %135, i64 16
  %139 = bitcast i8* %138 to %"struct.std::_Rb_tree_node_base"**
  %140 = getelementptr inbounds i8, i8* %135, i64 24
  %141 = bitcast i8* %140 to i8**
  %142 = getelementptr inbounds i8, i8* %135, i64 32
  %143 = bitcast i8* %142 to i8**
  %144 = getelementptr inbounds i8, i8* %135, i64 40
  %145 = bitcast i8* %144 to i64*
  %146 = bitcast i32* %19 to i8*
  %147 = getelementptr inbounds %"class.std::stack", %"class.std::stack"* %14, i64 0, i32 0, i32 0, i32 0, i32 0, i32 3, i32 0
  %148 = getelementptr inbounds %"class.std::stack", %"class.std::stack"* %14, i64 0, i32 0, i32 0, i32 0, i32 0, i32 3, i32 1
  %149 = getelementptr inbounds %"class.std::stack", %"class.std::stack"* %14, i64 0, i32 0, i32 0, i32 0, i32 0, i32 3, i32 3
  %150 = getelementptr inbounds %"class.std::set", %"class.std::set"* %18, i64 0, i32 0
  %151 = bitcast i32* %20 to i8*
  %152 = getelementptr inbounds %"class.std::vector", %"class.std::vector"* %16, i64 0, i32 0, i32 0, i32 0, i32 0
  %153 = getelementptr inbounds %"class.std::vector", %"class.std::vector"* %16, i64 0, i32 0, i32 0, i32 0, i32 1
  %154 = bitcast i32* %21 to i8*
  %155 = bitcast i8* %136 to %"struct.std::_Rb_tree_node_base"*
  %156 = getelementptr inbounds %"class.std::vector", %"class.std::vector"* %16, i64 0, i32 0
  br label %157

157:                                              ; preds = %282, %130
  %158 = phi i32 [ 0, %130 ], [ %285, %282 ]
  %159 = phi i32 [ 0, %130 ], [ %283, %282 ]
  store i32 %158, i32* %15, align 4, !tbaa !5
  %160 = load i32, i32* %1, align 4, !tbaa !5
  %161 = icmp slt i32 %158, %160
  br i1 %161, label %168, label %162

162:                                              ; preds = %157
  call void @llvm.lifetime.end.p0i8(i64 4, i8* nonnull %131) #19
  %163 = invoke nonnull align 8 dereferenceable(8) %"class.std::basic_ostream"* @_ZNSolsEi(%"class.std::basic_ostream"* nonnull align 8 dereferenceable(8) @_ZSt4cout, i32 %159) #20
          to label %292 unwind label %298

164:                                              ; preds = %97
  %165 = landingpad { i8*, i32 }
          cleanup
  call void @llvm.lifetime.end.p0i8(i64 1, i8* nonnull %100) #19
  call void @llvm.lifetime.end.p0i8(i64 1, i8* nonnull %12) #19
  br label %306

166:                                              ; preds = %128
  %167 = landingpad { i8*, i32 }
          cleanup
  br label %303

168:                                              ; preds = %157
  %169 = sext i32 %158 to i64
  %170 = invoke { i64*, i64 } @_ZNSt6vectorIbSaIbEEixEm(%"class.std::vector.6"* nonnull align 8 dereferenceable(40) %11, i64 %169) #20
          to label %171 unwind label %177

171:                                              ; preds = %168
  %172 = extractvalue { i64*, i64 } %170, 0
  %173 = extractvalue { i64*, i64 } %170, 1
  %174 = load i64, i64* %172, align 8, !tbaa !21
  %175 = and i64 %174, %173
  %176 = icmp eq i64 %175, 0
  br i1 %176, label %179, label %282

177:                                              ; preds = %168
  %178 = landingpad { i8*, i32 }
          cleanup
  br label %290

179:                                              ; preds = %171
  invoke void @_ZNSt5dequeIiSaIiEE9push_backERKi(%"class.std::deque"* nonnull align 8 dereferenceable(80) %132, i32* nonnull align 4 dereferenceable(4) %15) #20
          to label %180 unwind label %224

180:                                              ; preds = %179
  %181 = load i32, i32* %15, align 4, !tbaa !5
  %182 = sext i32 %181 to i64
  %183 = invoke { i64*, i64 } @_ZNSt6vectorIbSaIbEEixEm(%"class.std::vector.6"* nonnull align 8 dereferenceable(40) %11, i64 %182) #20
          to label %184 unwind label %226

184:                                              ; preds = %180
  %185 = extractvalue { i64*, i64 } %183, 0
  %186 = extractvalue { i64*, i64 } %183, 1
  %187 = load i64, i64* %185, align 8, !tbaa !21
  %188 = or i64 %187, %186
  store i64 %188, i64* %185, align 8, !tbaa !21
  call void @llvm.lifetime.start.p0i8(i64 24, i8* nonnull %133) #19
  call void @llvm.lifetime.start.p0i8(i64 1, i8* nonnull %134) #19
  invoke void @_ZNSt6vectorIiSaIiEEC2EmRKS0_(%"class.std::vector"* nonnull align 8 dereferenceable(24) %16, i64 0, %"class.std::allocator"* nonnull align 1 dereferenceable(1) %17) #20
          to label %189 unwind label %228

189:                                              ; preds = %184
  call void @llvm.lifetime.end.p0i8(i64 1, i8* nonnull %134) #19
  call void @llvm.lifetime.start.p0i8(i64 48, i8* nonnull %135) #19
  store i32 0, i32* %137, align 8, !tbaa !23
  store %"struct.std::_Rb_tree_node_base"* null, %"struct.std::_Rb_tree_node_base"** %139, align 8, !tbaa !27
  store i8* %136, i8** %141, align 8, !tbaa !28
  store i8* %136, i8** %143, align 8, !tbaa !29
  store i64 0, i64* %145, align 8, !tbaa !30
  br label %190

190:                                              ; preds = %223, %189
  %191 = call i64 @_ZNKSt5dequeIiSaIiEE4sizeEv(%"class.std::deque"* nonnull align 8 dereferenceable(80) %132) #21
  %192 = icmp eq i64 %191, 0
  br i1 %192, label %264, label %193

193:                                              ; preds = %190
  call void @llvm.lifetime.start.p0i8(i64 4, i8* nonnull %146) #19
  %194 = load i32*, i32** %147, align 8, !tbaa !31, !noalias !33
  %195 = load i32*, i32** %148, align 8, !tbaa !36, !noalias !33
  %196 = icmp eq i32* %194, %195
  br i1 %196, label %197, label %202

197:                                              ; preds = %193
  %198 = load i32**, i32*** %149, align 8, !tbaa !37, !noalias !33
  %199 = getelementptr inbounds i32*, i32** %198, i64 -1
  %200 = load i32*, i32** %199, align 8, !tbaa !19
  %201 = getelementptr inbounds i32, i32* %200, i64 128
  br label %202

202:                                              ; preds = %193, %197
  %203 = phi i32* [ %201, %197 ], [ %194, %193 ]
  %204 = getelementptr inbounds i32, i32* %203, i64 -1
  %205 = load i32, i32* %204, align 4, !tbaa !5
  store i32 %205, i32* %19, align 4, !tbaa !5
  call void @_ZNSt5dequeIiSaIiEE8pop_backEv(%"class.std::deque"* nonnull align 8 dereferenceable(80) %132) #21
  invoke void @_ZNSt6vectorIiSaIiEE12emplace_backIJRiEEEvDpOT_(%"class.std::vector"* nonnull align 8 dereferenceable(24) %16, i32* nonnull align 4 dereferenceable(4) %19) #20
          to label %206 unwind label %230

206:                                              ; preds = %202
  %207 = load i32, i32* %19, align 4, !tbaa !5
  %208 = sext i32 %207 to i64
  %209 = load i32*, i32** %30, align 8, !tbaa !9
  %210 = getelementptr inbounds i32, i32* %209, i64 %208
  %211 = invoke { %"struct.std::_Rb_tree_node_base"*, i8 } @_ZNSt8_Rb_treeIiiSt9_IdentityIiESt4lessIiESaIiEE16_M_insert_uniqueIRKiEESt4pairISt17_Rb_tree_iteratorIiEbEOT_(%"class.std::_Rb_tree"* nonnull align 8 dereferenceable(48) %150, i32* nonnull align 4 dereferenceable(4) %210) #20
          to label %212 unwind label %230

212:                                              ; preds = %206
  %213 = load i32, i32* %19, align 4, !tbaa !5
  %214 = sext i32 %213 to i64
  %215 = load %"class.std::vector"*, %"class.std::vector"** %59, align 8, !tbaa !14
  %216 = getelementptr inbounds %"class.std::vector", %"class.std::vector"* %215, i64 %214, i32 0, i32 0, i32 0, i32 0
  %217 = load i32*, i32** %216, align 8, !tbaa !19
  %218 = getelementptr inbounds %"class.std::vector", %"class.std::vector"* %215, i64 %214, i32 0, i32 0, i32 0, i32 1
  %219 = load i32*, i32** %218, align 8, !tbaa !19
  br label %220

220:                                              ; preds = %258, %212
  %221 = phi i32* [ %217, %212 ], [ %259, %258 ]
  %222 = icmp eq i32* %221, %219
  br i1 %222, label %223, label %232

223:                                              ; preds = %220
  call void @llvm.lifetime.end.p0i8(i64 4, i8* nonnull %146) #19
  br label %190, !llvm.loop !38

224:                                              ; preds = %179
  %225 = landingpad { i8*, i32 }
          cleanup
  br label %290

226:                                              ; preds = %180
  %227 = landingpad { i8*, i32 }
          cleanup
  br label %290

228:                                              ; preds = %184
  %229 = landingpad { i8*, i32 }
          cleanup
  call void @llvm.lifetime.end.p0i8(i64 1, i8* nonnull %134) #19
  br label %288

230:                                              ; preds = %206, %202
  %231 = landingpad { i8*, i32 }
          cleanup
  br label %262

232:                                              ; preds = %220
  call void @llvm.lifetime.start.p0i8(i64 4, i8* nonnull %151) #19
  %233 = load i32, i32* %221, align 4, !tbaa !5
  store i32 %233, i32* %20, align 4, !tbaa !5
  %234 = sext i32 %233 to i64
  %235 = invoke { i64*, i64 } @_ZNSt6vectorIbSaIbEEixEm(%"class.std::vector.6"* nonnull align 8 dereferenceable(40) %11, i64 %234) #20
          to label %236 unwind label %252

236:                                              ; preds = %232
  %237 = extractvalue { i64*, i64 } %235, 0
  %238 = extractvalue { i64*, i64 } %235, 1
  %239 = load i64, i64* %237, align 8, !tbaa !21
  %240 = and i64 %239, %238
  %241 = icmp eq i64 %240, 0
  br i1 %241, label %242, label %258

242:                                              ; preds = %236
  invoke void @_ZNSt5dequeIiSaIiEE9push_backERKi(%"class.std::deque"* nonnull align 8 dereferenceable(80) %132, i32* nonnull align 4 dereferenceable(4) %20) #20
          to label %243 unwind label %254

243:                                              ; preds = %242
  %244 = load i32, i32* %20, align 4, !tbaa !5
  %245 = sext i32 %244 to i64
  %246 = invoke { i64*, i64 } @_ZNSt6vectorIbSaIbEEixEm(%"class.std::vector.6"* nonnull align 8 dereferenceable(40) %11, i64 %245) #20
          to label %247 unwind label %256

247:                                              ; preds = %243
  %248 = extractvalue { i64*, i64 } %246, 0
  %249 = extractvalue { i64*, i64 } %246, 1
  %250 = load i64, i64* %248, align 8, !tbaa !21
  %251 = or i64 %250, %249
  store i64 %251, i64* %248, align 8, !tbaa !21
  br label %258

252:                                              ; preds = %232
  %253 = landingpad { i8*, i32 }
          cleanup
  br label %260

254:                                              ; preds = %242
  %255 = landingpad { i8*, i32 }
          cleanup
  br label %260

256:                                              ; preds = %243
  %257 = landingpad { i8*, i32 }
          cleanup
  br label %260

258:                                              ; preds = %247, %236
  call void @llvm.lifetime.end.p0i8(i64 4, i8* nonnull %151) #19
  %259 = getelementptr inbounds i32, i32* %221, i64 1
  br label %220

260:                                              ; preds = %256, %254, %252
  %261 = phi { i8*, i32 } [ %257, %256 ], [ %255, %254 ], [ %253, %252 ]
  call void @llvm.lifetime.end.p0i8(i64 4, i8* nonnull %151) #19
  br label %262

262:                                              ; preds = %260, %230
  %263 = phi { i8*, i32 } [ %261, %260 ], [ %231, %230 ]
  call void @llvm.lifetime.end.p0i8(i64 4, i8* nonnull %146) #19
  br label %286

264:                                              ; preds = %190
  %265 = load i32*, i32** %152, align 8, !tbaa !19
  %266 = load i32*, i32** %153, align 8, !tbaa !19
  br label %267

267:                                              ; preds = %275, %264
  %268 = phi i32* [ %265, %264 ], [ %279, %275 ]
  %269 = phi i32 [ %159, %264 ], [ %278, %275 ]
  %270 = icmp eq i32* %268, %266
  br i1 %270, label %271, label %272

271:                                              ; preds = %267
  call void @_ZNSt8_Rb_treeIiiSt9_IdentityIiESt4lessIiESaIiEED2Ev(%"class.std::_Rb_tree"* nonnull align 8 dereferenceable(48) %150) #21
  call void @llvm.lifetime.end.p0i8(i64 48, i8* nonnull %135) #19
  call void @_ZNSt12_Vector_baseIiSaIiEED2Ev(%"struct.std::_Vector_base"* nonnull align 8 dereferenceable(24) %156) #21
  call void @llvm.lifetime.end.p0i8(i64 24, i8* nonnull %133) #19
  br label %282

272:                                              ; preds = %267
  call void @llvm.lifetime.start.p0i8(i64 4, i8* nonnull %154) #19
  %273 = load i32, i32* %268, align 4, !tbaa !5
  store i32 %273, i32* %21, align 4, !tbaa !5
  %274 = invoke %"struct.std::_Rb_tree_node_base"* @_ZNSt8_Rb_treeIiiSt9_IdentityIiESt4lessIiESaIiEE4findERKi(%"class.std::_Rb_tree"* nonnull align 8 dereferenceable(48) %150, i32* nonnull align 4 dereferenceable(4) %21) #20
          to label %275 unwind label %280

275:                                              ; preds = %272
  %276 = icmp ne %"struct.std::_Rb_tree_node_base"* %274, %155
  %277 = zext i1 %276 to i32
  %278 = add nsw i32 %269, %277
  call void @llvm.lifetime.end.p0i8(i64 4, i8* nonnull %154) #19
  %279 = getelementptr inbounds i32, i32* %268, i64 1
  br label %267

280:                                              ; preds = %272
  %281 = landingpad { i8*, i32 }
          cleanup
  call void @llvm.lifetime.end.p0i8(i64 4, i8* nonnull %154) #19
  br label %286

282:                                              ; preds = %171, %271
  %283 = phi i32 [ %159, %171 ], [ %269, %271 ]
  %284 = load i32, i32* %15, align 4, !tbaa !5
  %285 = add nsw i32 %284, 1
  br label %157, !llvm.loop !39

286:                                              ; preds = %280, %262
  %287 = phi { i8*, i32 } [ %263, %262 ], [ %281, %280 ]
  call void @_ZNSt8_Rb_treeIiiSt9_IdentityIiESt4lessIiESaIiEED2Ev(%"class.std::_Rb_tree"* nonnull align 8 dereferenceable(48) %150) #21
  call void @llvm.lifetime.end.p0i8(i64 48, i8* nonnull %135) #19
  call void @_ZNSt12_Vector_baseIiSaIiEED2Ev(%"struct.std::_Vector_base"* nonnull align 8 dereferenceable(24) %156) #21
  br label %288

288:                                              ; preds = %286, %228
  %289 = phi { i8*, i32 } [ %287, %286 ], [ %229, %228 ]
  call void @llvm.lifetime.end.p0i8(i64 24, i8* nonnull %133) #19
  br label %290

290:                                              ; preds = %288, %226, %224, %177
  %291 = phi { i8*, i32 } [ %289, %288 ], [ %227, %226 ], [ %225, %224 ], [ %178, %177 ]
  call void @llvm.lifetime.end.p0i8(i64 4, i8* nonnull %131) #19
  br label %300

292:                                              ; preds = %162
  %293 = invoke nonnull align 8 dereferenceable(8) %"class.std::basic_ostream"* @_ZSt4endlIcSt11char_traitsIcEERSt13basic_ostreamIT_T0_ES6_(%"class.std::basic_ostream"* nonnull align 8 dereferenceable(8) %163) #20
          to label %294 unwind label %298

294:                                              ; preds = %292
  %295 = getelementptr inbounds %"class.std::stack", %"class.std::stack"* %14, i64 0, i32 0, i32 0
  call void @_ZNSt11_Deque_baseIiSaIiEED2Ev(%"class.std::_Deque_base"* nonnull align 8 dereferenceable(80) %295) #21
  call void @llvm.lifetime.end.p0i8(i64 80, i8* nonnull %129) #19
  %296 = getelementptr inbounds %"class.std::vector.6", %"class.std::vector.6"* %11, i64 0, i32 0
  call void @_ZNSt13_Bvector_baseISaIbEED2Ev(%"struct.std::_Bvector_base"* nonnull align 8 dereferenceable(40) %296) #21
  call void @llvm.lifetime.end.p0i8(i64 40, i8* nonnull %99) #19
  call void @_ZNSt6vectorIS_IiSaIiEESaIS1_EED2Ev(%"class.std::vector.0"* nonnull align 8 dereferenceable(24) %5) #21
  call void @llvm.lifetime.end.p0i8(i64 24, i8* nonnull %37) #19
  %297 = getelementptr inbounds %"class.std::vector", %"class.std::vector"* %3, i64 0, i32 0
  call void @_ZNSt12_Vector_baseIiSaIiEED2Ev(%"struct.std::_Vector_base"* nonnull align 8 dereferenceable(24) %297) #21
  call void @llvm.lifetime.end.p0i8(i64 24, i8* nonnull %26) #19
  call void @llvm.lifetime.end.p0i8(i64 4, i8* nonnull %23) #19
  call void @llvm.lifetime.end.p0i8(i64 4, i8* nonnull %22) #19
  ret i32 0

298:                                              ; preds = %292, %162
  %299 = landingpad { i8*, i32 }
          cleanup
  br label %300

300:                                              ; preds = %298, %290
  %301 = phi { i8*, i32 } [ %291, %290 ], [ %299, %298 ]
  %302 = getelementptr inbounds %"class.std::stack", %"class.std::stack"* %14, i64 0, i32 0, i32 0
  call void @_ZNSt11_Deque_baseIiSaIiEED2Ev(%"class.std::_Deque_base"* nonnull align 8 dereferenceable(80) %302) #21
  br label %303

303:                                              ; preds = %300, %166
  %304 = phi { i8*, i32 } [ %301, %300 ], [ %167, %166 ]
  call void @llvm.lifetime.end.p0i8(i64 80, i8* nonnull %129) #19
  %305 = getelementptr inbounds %"class.std::vector.6", %"class.std::vector.6"* %11, i64 0, i32 0
  call void @_ZNSt13_Bvector_baseISaIbEED2Ev(%"struct.std::_Bvector_base"* nonnull align 8 dereferenceable(40) %305) #21
  br label %306

306:                                              ; preds = %303, %164
  %307 = phi { i8*, i32 } [ %304, %303 ], [ %165, %164 ]
  call void @llvm.lifetime.end.p0i8(i64 40, i8* nonnull %99) #19
  br label %308

308:                                              ; preds = %124, %126, %122, %306, %90
  %309 = phi { i8*, i32 } [ %91, %90 ], [ %307, %306 ], [ %123, %122 ], [ %127, %126 ], [ %125, %124 ]
  call void @_ZNSt6vectorIS_IiSaIiEESaIS1_EED2Ev(%"class.std::vector.0"* nonnull align 8 dereferenceable(24) %5) #21
  br label %310

310:                                              ; preds = %308, %69
  %311 = phi { i8*, i32 } [ %309, %308 ], [ %70, %69 ]
  call void @llvm.lifetime.end.p0i8(i64 24, i8* nonnull %37) #19
  br label %312

312:                                              ; preds = %310, %50
  %313 = phi { i8*, i32 } [ %51, %50 ], [ %311, %310 ]
  %314 = getelementptr inbounds %"class.std::vector", %"class.std::vector"* %3, i64 0, i32 0
  call void @_ZNSt12_Vector_baseIiSaIiEED2Ev(%"struct.std::_Vector_base"* nonnull align 8 dereferenceable(24) %314) #21
  call void @llvm.lifetime.end.p0i8(i64 24, i8* nonnull %26) #19
  call void @llvm.lifetime.end.p0i8(i64 4, i8* nonnull %23) #19
  call void @llvm.lifetime.end.p0i8(i64 4, i8* nonnull %22) #19
  resume { i8*, i32 } %313
}

; Function Attrs: argmemonly mustprogress nofree nosync nounwind willreturn
declare void @llvm.lifetime.start.p0i8(i64 immarg, i8* nocapture) #4

; Function Attrs: minsize optsize
declare nonnull align 8 dereferenceable(16) %"class.std::basic_istream"* @_ZNSirsERi(%"class.std::basic_istream"* nonnull align 8 dereferenceable(16), i32* nonnull align 4 dereferenceable(4)) local_unnamed_addr #0

; Function Attrs: minsize optsize sspstrong uwtable
define linkonce_odr dso_local void @_ZNSt6vectorIiSaIiEEC2EmRKS0_(%"class.std::vector"* nonnull align 8 dereferenceable(24) %0, i64 %1, %"class.std::allocator"* nonnull align 1 dereferenceable(1) %2) unnamed_addr #5 comdat align 2 personality i8* bitcast (i32 (...)* @__gxx_personality_v0 to i8*) {
  %4 = getelementptr inbounds %"class.std::vector", %"class.std::vector"* %0, i64 0, i32 0
  %5 = tail call i64 @_ZNSt6vectorIiSaIiEE17_S_check_init_lenEmRKS0_(i64 %1, %"class.std::allocator"* nonnull align 1 dereferenceable(1) %2) #20
  %6 = bitcast %"class.std::vector"* %0 to i8*
  tail call void @llvm.memset.p0i8.i64(i8* noundef nonnull align 8 dereferenceable(24) %6, i8 0, i64 24, i1 false) #19
  tail call void @_ZNSt12_Vector_baseIiSaIiEE17_M_create_storageEm(%"struct.std::_Vector_base"* nonnull align 8 dereferenceable(24) %4, i64 %5) #20
  invoke void @_ZNSt6vectorIiSaIiEE21_M_default_initializeEm(%"class.std::vector"* nonnull align 8 dereferenceable(24) %0, i64 %1) #20
          to label %7 unwind label %8

7:                                                ; preds = %3
  ret void

8:                                                ; preds = %3
  %9 = landingpad { i8*, i32 }
          cleanup
  tail call void @_ZNSt12_Vector_baseIiSaIiEED2Ev(%"struct.std::_Vector_base"* nonnull align 8 dereferenceable(24) %4) #21
  resume { i8*, i32 } %9
}

declare i32 @__gxx_personality_v0(...)

; Function Attrs: argmemonly mustprogress nofree nosync nounwind willreturn
declare void @llvm.lifetime.end.p0i8(i64 immarg, i8* nocapture) #4

; Function Attrs: minsize optsize sspstrong uwtable
define linkonce_odr dso_local void @_ZNSt6vectorIS_IiSaIiEESaIS1_EEC2EmRKS1_RKS2_(%"class.std::vector.0"* nonnull align 8 dereferenceable(24) %0, i64 %1, %"class.std::vector"* nonnull align 8 dereferenceable(24) %2, %"class.std::allocator.2"* nonnull align 1 dereferenceable(1) %3) unnamed_addr #5 comdat align 2 personality i8* bitcast (i32 (...)* @__gxx_personality_v0 to i8*) {
  %5 = getelementptr inbounds %"class.std::vector.0", %"class.std::vector.0"* %0, i64 0, i32 0
  %6 = tail call i64 @_ZNSt6vectorIS_IiSaIiEESaIS1_EE17_S_check_init_lenEmRKS2_(i64 %1, %"class.std::allocator.2"* nonnull align 1 dereferenceable(1) %3) #20
  %7 = bitcast %"class.std::vector.0"* %0 to i8*
  tail call void @llvm.memset.p0i8.i64(i8* noundef nonnull align 8 dereferenceable(24) %7, i8 0, i64 24, i1 false) #19
  tail call void @_ZNSt12_Vector_baseISt6vectorIiSaIiEESaIS2_EE17_M_create_storageEm(%"struct.std::_Vector_base.1"* nonnull align 8 dereferenceable(24) %5, i64 %6) #20
  invoke void @_ZNSt6vectorIS_IiSaIiEESaIS1_EE18_M_fill_initializeEmRKS1_(%"class.std::vector.0"* nonnull align 8 dereferenceable(24) %0, i64 %1, %"class.std::vector"* nonnull align 8 dereferenceable(24) %2) #20
          to label %8 unwind label %9

8:                                                ; preds = %4
  ret void

9:                                                ; preds = %4
  %10 = landingpad { i8*, i32 }
          cleanup
  tail call void @_ZNSt12_Vector_baseISt6vectorIiSaIiEESaIS2_EED2Ev(%"struct.std::_Vector_base.1"* nonnull align 8 dereferenceable(24) %5) #21
  resume { i8*, i32 } %10
}

; Function Attrs: minsize optsize sspstrong uwtable
define linkonce_odr dso_local void @_ZNSt6vectorIiSaIiEE12emplace_backIJRiEEEvDpOT_(%"class.std::vector"* nonnull align 8 dereferenceable(24) %0, i32* nonnull align 4 dereferenceable(4) %1) local_unnamed_addr #5 comdat align 2 {
  %3 = getelementptr inbounds %"class.std::vector", %"class.std::vector"* %0, i64 0, i32 0, i32 0, i32 0, i32 1
  %4 = load i32*, i32** %3, align 8, !tbaa !40
  %5 = getelementptr inbounds %"class.std::vector", %"class.std::vector"* %0, i64 0, i32 0, i32 0, i32 0, i32 2
  %6 = load i32*, i32** %5, align 8, !tbaa !41
  %7 = icmp eq i32* %4, %6
  br i1 %7, label %11, label %8

8:                                                ; preds = %2
  %9 = load i32, i32* %1, align 4, !tbaa !5
  store i32 %9, i32* %4, align 4, !tbaa !5
  %10 = getelementptr inbounds i32, i32* %4, i64 1
  store i32* %10, i32** %3, align 8, !tbaa !40
  br label %12

11:                                               ; preds = %2
  tail call void @_ZNSt6vectorIiSaIiEE17_M_realloc_insertIJRiEEEvN9__gnu_cxx17__normal_iteratorIPiS1_EEDpOT_(%"class.std::vector"* nonnull align 8 dereferenceable(24) %0, i32* %4, i32* nonnull align 4 dereferenceable(4) %1) #20
  br label %12

12:                                               ; preds = %11, %8
  ret void
}

; Function Attrs: minsize optsize sspstrong uwtable
define linkonce_odr dso_local i32* @_ZNSt6vectorIiSaIiEE5eraseEN9__gnu_cxx17__normal_iteratorIPKiS1_EES6_(%"class.std::vector"* nonnull align 8 dereferenceable(24) %0, i32* %1, i32* %2) local_unnamed_addr #5 comdat align 2 {
  %4 = getelementptr inbounds %"class.std::vector", %"class.std::vector"* %0, i64 0, i32 0, i32 0, i32 0, i32 0
  %5 = load i32*, i32** %4, align 8, !tbaa !19
  %6 = ptrtoint i32* %1 to i64
  %7 = ptrtoint i32* %5 to i64
  %8 = sub i64 %6, %7
  %9 = ashr exact i64 %8, 2
  %10 = getelementptr inbounds i32, i32* %5, i64 %9
  %11 = ptrtoint i32* %2 to i64
  %12 = sub i64 %11, %7
  %13 = ashr exact i64 %12, 2
  %14 = getelementptr inbounds i32, i32* %5, i64 %13
  %15 = tail call i32* @_ZNSt6vectorIiSaIiEE8_M_eraseEN9__gnu_cxx17__normal_iteratorIPiS1_EES5_(%"class.std::vector"* nonnull align 8 dereferenceable(24) %0, i32* %10, i32* %14) #20
  ret i32* %15
}

; Function Attrs: minsize optsize sspstrong uwtable
define linkonce_odr dso_local void @_ZNSt6vectorIbSaIbEEC2EmRKbRKS0_(%"class.std::vector.6"* nonnull align 8 dereferenceable(40) %0, i64 %1, i8* nonnull align 1 dereferenceable(1) %2, %"class.std::allocator.10"* nonnull align 1 dereferenceable(1) %3) unnamed_addr #5 comdat align 2 personality i8* bitcast (i32 (...)* @__gxx_personality_v0 to i8*) {
  %5 = getelementptr inbounds %"class.std::vector.6", %"class.std::vector.6"* %0, i64 0, i32 0, i32 0, i32 0, i32 0, i32 0, i32 0
  store i64* null, i64** %5, align 8, !tbaa !42
  %6 = getelementptr inbounds %"class.std::vector.6", %"class.std::vector.6"* %0, i64 0, i32 0, i32 0, i32 0, i32 0, i32 0, i32 1
  store i32 0, i32* %6, align 8, !tbaa !44
  %7 = getelementptr inbounds %"class.std::vector.6", %"class.std::vector.6"* %0, i64 0, i32 0, i32 0, i32 0, i32 1, i32 0, i32 0
  store i64* null, i64** %7, align 8, !tbaa !42
  %8 = getelementptr inbounds %"class.std::vector.6", %"class.std::vector.6"* %0, i64 0, i32 0, i32 0, i32 0, i32 1, i32 0, i32 1
  store i32 0, i32* %8, align 8, !tbaa !44
  %9 = getelementptr inbounds %"class.std::vector.6", %"class.std::vector.6"* %0, i64 0, i32 0, i32 0, i32 0, i32 2
  store i64* null, i64** %9, align 8, !tbaa !45
  invoke void @_ZNSt6vectorIbSaIbEE13_M_initializeEm(%"class.std::vector.6"* nonnull align 8 dereferenceable(40) %0, i64 %1) #20
          to label %10 unwind label %23

10:                                               ; preds = %4
  %11 = load i64*, i64** %5, align 8, !tbaa !42
  %12 = icmp eq i64* %11, null
  br i1 %12, label %22, label %13

13:                                               ; preds = %10
  %14 = load i8, i8* %2, align 1, !tbaa !17, !range !48
  %15 = bitcast i64* %11 to i8*
  %16 = shl nuw i8 %14, 7
  %17 = ashr exact i8 %16, 7
  %18 = load i64*, i64** %9, align 8, !tbaa !45
  %19 = ptrtoint i64* %18 to i64
  %20 = ptrtoint i64* %11 to i64
  %21 = sub i64 %19, %20
  tail call void @llvm.memset.p0i8.i64(i8* nonnull align 8 %15, i8 %17, i64 %21, i1 false) #19
  br label %22

22:                                               ; preds = %10, %13
  ret void

23:                                               ; preds = %4
  %24 = landingpad { i8*, i32 }
          cleanup
  %25 = getelementptr inbounds %"class.std::vector.6", %"class.std::vector.6"* %0, i64 0, i32 0
  tail call void @_ZNSt13_Bvector_baseISaIbEED2Ev(%"struct.std::_Bvector_base"* nonnull align 8 dereferenceable(40) %25) #21
  resume { i8*, i32 } %24
}

; Function Attrs: minsize optsize sspstrong uwtable
define linkonce_odr dso_local void @_ZNSt5stackIiSt5dequeIiSaIiEEEC2IS2_vEEv(%"class.std::stack"* nonnull align 8 dereferenceable(80) %0) unnamed_addr #5 comdat align 2 {
  %2 = bitcast %"class.std::stack"* %0 to i8*
  tail call void @llvm.memset.p0i8.i64(i8* noundef nonnull align 8 dereferenceable(80) %2, i8 0, i64 80, i1 false)
  %3 = getelementptr inbounds %"class.std::stack", %"class.std::stack"* %0, i64 0, i32 0, i32 0
  tail call void @_ZNSt11_Deque_baseIiSaIiEEC2Ev(%"class.std::_Deque_base"* nonnull align 8 dereferenceable(80) %3) #20
  ret void
}

; Function Attrs: minsize optsize sspstrong uwtable
define linkonce_odr dso_local { i64*, i64 } @_ZNSt6vectorIbSaIbEEixEm(%"class.std::vector.6"* nonnull align 8 dereferenceable(40) %0, i64 %1) local_unnamed_addr #5 comdat align 2 personality i32 (...)* @__gxx_personality_v0 {
  %3 = alloca { i64*, i32 }, align 8
  %4 = bitcast { i64*, i32 }* %3 to %"struct.std::_Bit_iterator"*
  %5 = bitcast { i64*, i32 }* %3 to i8*
  call void @llvm.lifetime.start.p0i8(i64 16, i8* nonnull %5) #19
  %6 = getelementptr inbounds %"class.std::vector.6", %"class.std::vector.6"* %0, i64 0, i32 0, i32 0, i32 0, i32 0, i32 0, i32 0
  %7 = load i64*, i64** %6, align 8, !tbaa !42
  %8 = getelementptr inbounds { i64*, i32 }, { i64*, i32 }* %3, i64 0, i32 0
  store i64* %7, i64** %8, align 8
  %9 = getelementptr inbounds { i64*, i32 }, { i64*, i32 }* %3, i64 0, i32 1
  store i32 0, i32* %9, align 8
  %10 = call { i64*, i64 } @_ZNKSt13_Bit_iteratorixEl(%"struct.std::_Bit_iterator"* nonnull align 8 dereferenceable(12) %4, i64 %1) #20
  call void @llvm.lifetime.end.p0i8(i64 16, i8* nonnull %5) #19
  ret { i64*, i64 } %10
}

; Function Attrs: minsize optsize
declare nonnull align 8 dereferenceable(8) %"class.std::basic_ostream"* @_ZNSolsEi(%"class.std::basic_ostream"* nonnull align 8 dereferenceable(8), i32) local_unnamed_addr #0

; Function Attrs: inlinehint minsize mustprogress optsize sspstrong uwtable
declare nonnull align 8 dereferenceable(8) %"class.std::basic_ostream"* @_ZSt4endlIcSt11char_traitsIcEERSt13basic_ostreamIT_T0_ES6_(%"class.std::basic_ostream"* nonnull align 8 dereferenceable(8)) local_unnamed_addr #6

; Function Attrs: minsize nounwind optsize sspstrong uwtable
define linkonce_odr dso_local void @_ZNSt13_Bvector_baseISaIbEED2Ev(%"struct.std::_Bvector_base"* nonnull align 8 dereferenceable(40) %0) unnamed_addr #7 comdat align 2 personality i8* bitcast (i32 (...)* @__gxx_personality_v0 to i8*) {
  invoke void @_ZNSt13_Bvector_baseISaIbEE13_M_deallocateEv(%"struct.std::_Bvector_base"* nonnull align 8 dereferenceable(40) %0) #20
          to label %2 unwind label %3

2:                                                ; preds = %1
  ret void

3:                                                ; preds = %1
  %4 = landingpad { i8*, i32 }
          catch i8* null
  %5 = extractvalue { i8*, i32 } %4, 0
  tail call void @__clang_call_terminate(i8* %5) #22
  unreachable
}

; Function Attrs: minsize nounwind optsize sspstrong uwtable
define linkonce_odr dso_local void @_ZNSt6vectorIS_IiSaIiEESaIS1_EED2Ev(%"class.std::vector.0"* nonnull align 8 dereferenceable(24) %0) unnamed_addr #7 comdat align 2 personality i8* bitcast (i32 (...)* @__gxx_personality_v0 to i8*) {
  %2 = getelementptr inbounds %"class.std::vector.0", %"class.std::vector.0"* %0, i64 0, i32 0
  %3 = getelementptr inbounds %"class.std::vector.0", %"class.std::vector.0"* %0, i64 0, i32 0, i32 0, i32 0, i32 0
  %4 = load %"class.std::vector"*, %"class.std::vector"** %3, align 8, !tbaa !14
  %5 = getelementptr inbounds %"class.std::vector.0", %"class.std::vector.0"* %0, i64 0, i32 0, i32 0, i32 0, i32 1
  %6 = load %"class.std::vector"*, %"class.std::vector"** %5, align 8, !tbaa !49
  invoke void @_ZNSt12_Destroy_auxILb0EE9__destroyIPSt6vectorIiSaIiEEEEvT_S6_(%"class.std::vector"* %4, %"class.std::vector"* %6) #20
          to label %7 unwind label %8

7:                                                ; preds = %1
  tail call void @_ZNSt12_Vector_baseISt6vectorIiSaIiEESaIS2_EED2Ev(%"struct.std::_Vector_base.1"* nonnull align 8 dereferenceable(24) %2) #21
  ret void

8:                                                ; preds = %1
  %9 = landingpad { i8*, i32 }
          catch i8* null
  %10 = extractvalue { i8*, i32 } %9, 0
  tail call void @_ZNSt12_Vector_baseISt6vectorIiSaIiEESaIS2_EED2Ev(%"struct.std::_Vector_base.1"* nonnull align 8 dereferenceable(24) %2) #21
  tail call void @__clang_call_terminate(i8* %10) #22
  unreachable
}

; Function Attrs: noinline noreturn nounwind
define linkonce_odr hidden void @__clang_call_terminate(i8* %0) local_unnamed_addr #8 comdat {
  %2 = tail call i8* @__cxa_begin_catch(i8* %0) #19
  tail call void @_ZSt9terminatev() #22
  unreachable
}

declare i8* @__cxa_begin_catch(i8*) local_unnamed_addr

declare void @_ZSt9terminatev() local_unnamed_addr

; Function Attrs: minsize nounwind optsize sspstrong uwtable
define linkonce_odr dso_local void @_ZNSt8_Rb_treeIiiSt9_IdentityIiESt4lessIiESaIiEED2Ev(%"class.std::_Rb_tree"* nonnull align 8 dereferenceable(48) %0) unnamed_addr #7 comdat align 2 personality i8* bitcast (i32 (...)* @__gxx_personality_v0 to i8*) {
  %2 = getelementptr inbounds %"class.std::_Rb_tree", %"class.std::_Rb_tree"* %0, i64 0, i32 0, i32 0, i32 0, i32 0
  %3 = getelementptr inbounds i8, i8* %2, i64 16
  %4 = bitcast i8* %3 to %"struct.std::_Rb_tree_node"**
  %5 = load %"struct.std::_Rb_tree_node"*, %"struct.std::_Rb_tree_node"** %4, align 8, !tbaa !27
  invoke void @_ZNSt8_Rb_treeIiiSt9_IdentityIiESt4lessIiESaIiEE8_M_eraseEPSt13_Rb_tree_nodeIiE(%"class.std::_Rb_tree"* nonnull align 8 dereferenceable(48) %0, %"struct.std::_Rb_tree_node"* %5) #20
          to label %6 unwind label %7

6:                                                ; preds = %1
  ret void

7:                                                ; preds = %1
  %8 = landingpad { i8*, i32 }
          catch i8* null
  %9 = extractvalue { i8*, i32 } %8, 0
  tail call void @__clang_call_terminate(i8* %9) #22
  unreachable
}

; Function Attrs: minsize mustprogress optsize sspstrong uwtable
define linkonce_odr dso_local void @_ZNSt8_Rb_treeIiiSt9_IdentityIiESt4lessIiESaIiEE8_M_eraseEPSt13_Rb_tree_nodeIiE(%"class.std::_Rb_tree"* nonnull align 8 dereferenceable(48) %0, %"struct.std::_Rb_tree_node"* %1) local_unnamed_addr #9 comdat align 2 personality i32 (...)* @__gxx_personality_v0 {
  br label %3

3:                                                ; preds = %6, %2
  %4 = phi %"struct.std::_Rb_tree_node"* [ %1, %2 ], [ %12, %6 ]
  %5 = icmp eq %"struct.std::_Rb_tree_node"* %4, null
  br i1 %5, label %14, label %6

6:                                                ; preds = %3
  %7 = getelementptr inbounds %"struct.std::_Rb_tree_node", %"struct.std::_Rb_tree_node"* %4, i64 0, i32 0, i32 3
  %8 = bitcast %"struct.std::_Rb_tree_node_base"** %7 to %"struct.std::_Rb_tree_node"**
  %9 = load %"struct.std::_Rb_tree_node"*, %"struct.std::_Rb_tree_node"** %8, align 8, !tbaa !50
  tail call void @_ZNSt8_Rb_treeIiiSt9_IdentityIiESt4lessIiESaIiEE8_M_eraseEPSt13_Rb_tree_nodeIiE(%"class.std::_Rb_tree"* nonnull align 8 dereferenceable(48) %0, %"struct.std::_Rb_tree_node"* %9) #20
  %10 = getelementptr inbounds %"struct.std::_Rb_tree_node", %"struct.std::_Rb_tree_node"* %4, i64 0, i32 0, i32 2
  %11 = bitcast %"struct.std::_Rb_tree_node_base"** %10 to %"struct.std::_Rb_tree_node"**
  %12 = load %"struct.std::_Rb_tree_node"*, %"struct.std::_Rb_tree_node"** %11, align 8, !tbaa !51
  %13 = bitcast %"struct.std::_Rb_tree_node"* %4 to i8*
  tail call void @_ZdlPv(i8* nonnull %13) #21
  br label %3, !llvm.loop !52

14:                                               ; preds = %3
  ret void
}

; Function Attrs: minsize nobuiltin nounwind optsize
declare void @_ZdlPv(i8*) local_unnamed_addr #10

; Function Attrs: minsize nounwind optsize sspstrong uwtable
define linkonce_odr dso_local void @_ZNSt11_Deque_baseIiSaIiEED2Ev(%"class.std::_Deque_base"* nonnull align 8 dereferenceable(80) %0) unnamed_addr #7 comdat align 2 personality i32 (...)* @__gxx_personality_v0 {
  %2 = getelementptr inbounds %"class.std::_Deque_base", %"class.std::_Deque_base"* %0, i64 0, i32 0, i32 0, i32 0
  %3 = load i32**, i32*** %2, align 8, !tbaa !53
  %4 = icmp eq i32** %3, null
  br i1 %4, label %13, label %5

5:                                                ; preds = %1
  %6 = getelementptr inbounds %"class.std::_Deque_base", %"class.std::_Deque_base"* %0, i64 0, i32 0, i32 0, i32 2, i32 3
  %7 = load i32**, i32*** %6, align 8, !tbaa !55
  %8 = getelementptr inbounds %"class.std::_Deque_base", %"class.std::_Deque_base"* %0, i64 0, i32 0, i32 0, i32 3, i32 3
  %9 = load i32**, i32*** %8, align 8, !tbaa !56
  %10 = getelementptr inbounds i32*, i32** %9, i64 1
  tail call void @_ZNSt11_Deque_baseIiSaIiEE16_M_destroy_nodesEPPiS3_(%"class.std::_Deque_base"* nonnull align 8 dereferenceable(80) %0, i32** %7, i32** nonnull %10) #21
  %11 = bitcast %"class.std::_Deque_base"* %0 to i8**
  %12 = load i8*, i8** %11, align 8, !tbaa !53
  tail call void @_ZdlPv(i8* %12) #21
  br label %13

13:                                               ; preds = %5, %1
  ret void
}

; Function Attrs: minsize mustprogress nounwind optsize sspstrong uwtable
define linkonce_odr dso_local void @_ZNSt11_Deque_baseIiSaIiEE16_M_destroy_nodesEPPiS3_(%"class.std::_Deque_base"* nonnull align 8 dereferenceable(80) %0, i32** %1, i32** %2) local_unnamed_addr #11 comdat align 2 personality i32 (...)* @__gxx_personality_v0 {
  br label %4

4:                                                ; preds = %8, %3
  %5 = phi i32** [ %1, %3 ], [ %11, %8 ]
  %6 = icmp ult i32** %5, %2
  br i1 %6, label %8, label %7

7:                                                ; preds = %4
  ret void

8:                                                ; preds = %4
  %9 = bitcast i32** %5 to i8**
  %10 = load i8*, i8** %9, align 8, !tbaa !19
  tail call void @_ZdlPv(i8* %10) #21
  %11 = getelementptr inbounds i32*, i32** %5, i64 1
  br label %4, !llvm.loop !57
}

; Function Attrs: minsize optsize sspstrong uwtable
define linkonce_odr dso_local i64 @_ZNSt6vectorIiSaIiEE17_S_check_init_lenEmRKS0_(i64 %0, %"class.std::allocator"* nonnull align 1 dereferenceable(1) %1) local_unnamed_addr #5 comdat align 2 personality i32 (...)* @__gxx_personality_v0 {
  %3 = icmp ugt i64 %0, 2305843009213693951
  br i1 %3, label %4, label %5

4:                                                ; preds = %2
  tail call void @_ZSt20__throw_length_errorPKc(i8* getelementptr inbounds ([49 x i8], [49 x i8]* @.str, i64 0, i64 0)) #23
  unreachable

5:                                                ; preds = %2
  ret i64 %0
}

; Function Attrs: minsize mustprogress optsize sspstrong uwtable
define linkonce_odr dso_local void @_ZNSt6vectorIiSaIiEE21_M_default_initializeEm(%"class.std::vector"* nonnull align 8 dereferenceable(24) %0, i64 %1) local_unnamed_addr #9 comdat align 2 {
  %3 = getelementptr inbounds %"class.std::vector", %"class.std::vector"* %0, i64 0, i32 0, i32 0, i32 0, i32 0
  %4 = load i32*, i32** %3, align 8, !tbaa !9
  %5 = tail call i32* @_ZNSt27__uninitialized_default_n_1ILb1EE18__uninit_default_nIPimEET_S3_T0_(i32* %4, i64 %1) #20
  %6 = getelementptr inbounds %"class.std::vector", %"class.std::vector"* %0, i64 0, i32 0, i32 0, i32 0, i32 1
  store i32* %5, i32** %6, align 8, !tbaa !40
  ret void
}

; Function Attrs: minsize nounwind optsize sspstrong uwtable
define linkonce_odr dso_local void @_ZNSt12_Vector_baseIiSaIiEED2Ev(%"struct.std::_Vector_base"* nonnull align 8 dereferenceable(24) %0) unnamed_addr #7 comdat align 2 personality i8* bitcast (i32 (...)* @__gxx_personality_v0 to i8*) {
  %2 = getelementptr inbounds %"struct.std::_Vector_base", %"struct.std::_Vector_base"* %0, i64 0, i32 0, i32 0, i32 0
  %3 = load i32*, i32** %2, align 8, !tbaa !9
  %4 = icmp eq i32* %3, null
  br i1 %4, label %7, label %5

5:                                                ; preds = %1
  %6 = bitcast i32* %3 to i8*
  tail call void @_ZdlPv(i8* nonnull %6) #21
  br label %7

7:                                                ; preds = %5, %1
  ret void
}

; Function Attrs: minsize noreturn optsize
declare void @_ZSt20__throw_length_errorPKc(i8*) local_unnamed_addr #12

; Function Attrs: minsize mustprogress optsize sspstrong uwtable
define linkonce_odr dso_local void @_ZNSt12_Vector_baseIiSaIiEE17_M_create_storageEm(%"struct.std::_Vector_base"* nonnull align 8 dereferenceable(24) %0, i64 %1) local_unnamed_addr #9 comdat align 2 {
  %3 = tail call i32* @_ZNSt12_Vector_baseIiSaIiEE11_M_allocateEm(%"struct.std::_Vector_base"* nonnull align 8 dereferenceable(24) %0, i64 %1) #20
  %4 = getelementptr inbounds %"struct.std::_Vector_base", %"struct.std::_Vector_base"* %0, i64 0, i32 0, i32 0, i32 0
  store i32* %3, i32** %4, align 8, !tbaa !9
  %5 = getelementptr inbounds %"struct.std::_Vector_base", %"struct.std::_Vector_base"* %0, i64 0, i32 0, i32 0, i32 1
  store i32* %3, i32** %5, align 8, !tbaa !40
  %6 = getelementptr inbounds i32, i32* %3, i64 %1
  %7 = getelementptr inbounds %"struct.std::_Vector_base", %"struct.std::_Vector_base"* %0, i64 0, i32 0, i32 0, i32 2
  store i32* %6, i32** %7, align 8, !tbaa !41
  ret void
}

; Function Attrs: minsize mustprogress optsize sspstrong uwtable
define linkonce_odr dso_local i32* @_ZNSt12_Vector_baseIiSaIiEE11_M_allocateEm(%"struct.std::_Vector_base"* nonnull align 8 dereferenceable(24) %0, i64 %1) local_unnamed_addr #9 comdat align 2 {
  %3 = icmp eq i64 %1, 0
  br i1 %3, label %7, label %4

4:                                                ; preds = %2
  %5 = bitcast %"struct.std::_Vector_base"* %0 to %"class.std::allocator"*
  %6 = tail call i32* @_ZNSt16allocator_traitsISaIiEE8allocateERS0_m(%"class.std::allocator"* nonnull align 1 dereferenceable(1) %5, i64 %1) #20
  br label %7

7:                                                ; preds = %2, %4
  %8 = phi i32* [ %6, %4 ], [ null, %2 ]
  ret i32* %8
}

; Function Attrs: minsize mustprogress optsize sspstrong uwtable
define linkonce_odr dso_local i32* @_ZNSt16allocator_traitsISaIiEE8allocateERS0_m(%"class.std::allocator"* nonnull align 1 dereferenceable(1) %0, i64 %1) local_unnamed_addr #9 comdat align 2 {
  %3 = bitcast %"class.std::allocator"* %0 to %"class.__gnu_cxx::new_allocator"*
  %4 = tail call i32* @_ZN9__gnu_cxx13new_allocatorIiE8allocateEmPKv(%"class.__gnu_cxx::new_allocator"* nonnull align 1 dereferenceable(1) %3, i64 %1, i8* null) #20
  ret i32* %4
}

; Function Attrs: minsize mustprogress optsize sspstrong uwtable
define linkonce_odr dso_local i32* @_ZN9__gnu_cxx13new_allocatorIiE8allocateEmPKv(%"class.__gnu_cxx::new_allocator"* nonnull align 1 dereferenceable(1) %0, i64 %1, i8* %2) local_unnamed_addr #9 comdat align 2 {
  %4 = icmp ugt i64 %1, 2305843009213693951
  br i1 %4, label %5, label %9, !prof !58

5:                                                ; preds = %3
  %6 = icmp ugt i64 %1, 4611686018427387903
  br i1 %6, label %7, label %8

7:                                                ; preds = %5
  tail call void @_ZSt28__throw_bad_array_new_lengthv() #23
  unreachable

8:                                                ; preds = %5
  tail call void @_ZSt17__throw_bad_allocv() #23
  unreachable

9:                                                ; preds = %3
  %10 = shl nuw nsw i64 %1, 2
  %11 = tail call noalias nonnull i8* @_Znwm(i64 %10) #24
  %12 = bitcast i8* %11 to i32*
  ret i32* %12
}

; Function Attrs: minsize noreturn optsize
declare void @_ZSt28__throw_bad_array_new_lengthv() local_unnamed_addr #12

; Function Attrs: minsize noreturn optsize
declare void @_ZSt17__throw_bad_allocv() local_unnamed_addr #12

; Function Attrs: minsize nobuiltin optsize allocsize(0)
declare nonnull i8* @_Znwm(i64) local_unnamed_addr #13

; Function Attrs: minsize mustprogress optsize sspstrong uwtable
define linkonce_odr dso_local i32* @_ZNSt27__uninitialized_default_n_1ILb1EE18__uninit_default_nIPimEET_S3_T0_(i32* %0, i64 %1) local_unnamed_addr #9 comdat align 2 {
  %3 = icmp eq i64 %1, 0
  br i1 %3, label %8, label %4

4:                                                ; preds = %2
  store i32 0, i32* %0, align 4, !tbaa !5
  %5 = getelementptr inbounds i32, i32* %0, i64 1
  %6 = add i64 %1, -1
  %7 = tail call i32* @_ZSt10__fill_n_aIPimiET_S1_T0_RKT1_St26random_access_iterator_tag(i32* nonnull %5, i64 %6, i32* nonnull align 4 dereferenceable(4) %0) #20
  br label %8

8:                                                ; preds = %4, %2
  %9 = phi i32* [ %7, %4 ], [ %0, %2 ]
  ret i32* %9
}

; Function Attrs: inlinehint minsize mustprogress optsize sspstrong uwtable
define linkonce_odr dso_local i32* @_ZSt10__fill_n_aIPimiET_S1_T0_RKT1_St26random_access_iterator_tag(i32* %0, i64 %1, i32* nonnull align 4 dereferenceable(4) %2) local_unnamed_addr #6 comdat {
  %4 = icmp eq i64 %1, 0
  br i1 %4, label %13, label %5

5:                                                ; preds = %3
  %6 = getelementptr inbounds i32, i32* %0, i64 %1
  %7 = load i32, i32* %2, align 4, !tbaa !5
  br label %8

8:                                                ; preds = %11, %5
  %9 = phi i32* [ %0, %5 ], [ %12, %11 ]
  %10 = icmp eq i32* %9, %6
  br i1 %10, label %13, label %11

11:                                               ; preds = %8
  store i32 %7, i32* %9, align 4, !tbaa !5
  %12 = getelementptr inbounds i32, i32* %9, i64 1
  br label %8, !llvm.loop !59

13:                                               ; preds = %8, %3
  %14 = phi i32* [ %0, %3 ], [ %6, %8 ]
  ret i32* %14
}

; Function Attrs: minsize optsize sspstrong uwtable
define linkonce_odr dso_local i64 @_ZNSt6vectorIS_IiSaIiEESaIS1_EE17_S_check_init_lenEmRKS2_(i64 %0, %"class.std::allocator.2"* nonnull align 1 dereferenceable(1) %1) local_unnamed_addr #5 comdat align 2 {
  %3 = icmp ugt i64 %0, 384307168202282325
  br i1 %3, label %4, label %5

4:                                                ; preds = %2
  tail call void @_ZSt20__throw_length_errorPKc(i8* getelementptr inbounds ([49 x i8], [49 x i8]* @.str, i64 0, i64 0)) #23
  unreachable

5:                                                ; preds = %2
  ret i64 %0
}

; Function Attrs: minsize mustprogress optsize sspstrong uwtable
define linkonce_odr dso_local void @_ZNSt6vectorIS_IiSaIiEESaIS1_EE18_M_fill_initializeEmRKS1_(%"class.std::vector.0"* nonnull align 8 dereferenceable(24) %0, i64 %1, %"class.std::vector"* nonnull align 8 dereferenceable(24) %2) local_unnamed_addr #9 comdat align 2 {
  %4 = getelementptr inbounds %"class.std::vector.0", %"class.std::vector.0"* %0, i64 0, i32 0, i32 0, i32 0, i32 0
  %5 = load %"class.std::vector"*, %"class.std::vector"** %4, align 8, !tbaa !14
  %6 = tail call %"class.std::vector"* @_ZNSt22__uninitialized_fill_nILb0EE15__uninit_fill_nIPSt6vectorIiSaIiEEmS4_EET_S6_T0_RKT1_(%"class.std::vector"* %5, i64 %1, %"class.std::vector"* nonnull align 8 dereferenceable(24) %2) #20
  %7 = getelementptr inbounds %"class.std::vector.0", %"class.std::vector.0"* %0, i64 0, i32 0, i32 0, i32 0, i32 1
  store %"class.std::vector"* %6, %"class.std::vector"** %7, align 8, !tbaa !49
  ret void
}

; Function Attrs: minsize nounwind optsize sspstrong uwtable
define linkonce_odr dso_local void @_ZNSt12_Vector_baseISt6vectorIiSaIiEESaIS2_EED2Ev(%"struct.std::_Vector_base.1"* nonnull align 8 dereferenceable(24) %0) unnamed_addr #7 comdat align 2 personality i8* bitcast (i32 (...)* @__gxx_personality_v0 to i8*) {
  %2 = getelementptr inbounds %"struct.std::_Vector_base.1", %"struct.std::_Vector_base.1"* %0, i64 0, i32 0, i32 0, i32 0
  %3 = load %"class.std::vector"*, %"class.std::vector"** %2, align 8, !tbaa !14
  %4 = icmp eq %"class.std::vector"* %3, null
  br i1 %4, label %7, label %5

5:                                                ; preds = %1
  %6 = bitcast %"class.std::vector"* %3 to i8*
  tail call void @_ZdlPv(i8* nonnull %6) #21
  br label %7

7:                                                ; preds = %5, %1
  ret void
}

; Function Attrs: minsize mustprogress optsize sspstrong uwtable
define linkonce_odr dso_local void @_ZNSt12_Vector_baseISt6vectorIiSaIiEESaIS2_EE17_M_create_storageEm(%"struct.std::_Vector_base.1"* nonnull align 8 dereferenceable(24) %0, i64 %1) local_unnamed_addr #9 comdat align 2 {
  %3 = tail call %"class.std::vector"* @_ZNSt12_Vector_baseISt6vectorIiSaIiEESaIS2_EE11_M_allocateEm(%"struct.std::_Vector_base.1"* nonnull align 8 dereferenceable(24) %0, i64 %1) #20
  %4 = getelementptr inbounds %"struct.std::_Vector_base.1", %"struct.std::_Vector_base.1"* %0, i64 0, i32 0, i32 0, i32 0
  store %"class.std::vector"* %3, %"class.std::vector"** %4, align 8, !tbaa !14
  %5 = getelementptr inbounds %"struct.std::_Vector_base.1", %"struct.std::_Vector_base.1"* %0, i64 0, i32 0, i32 0, i32 1
  store %"class.std::vector"* %3, %"class.std::vector"** %5, align 8, !tbaa !49
  %6 = getelementptr inbounds %"class.std::vector", %"class.std::vector"* %3, i64 %1
  %7 = getelementptr inbounds %"struct.std::_Vector_base.1", %"struct.std::_Vector_base.1"* %0, i64 0, i32 0, i32 0, i32 2
  store %"class.std::vector"* %6, %"class.std::vector"** %7, align 8, !tbaa !60
  ret void
}

; Function Attrs: minsize mustprogress optsize sspstrong uwtable
define linkonce_odr dso_local %"class.std::vector"* @_ZNSt12_Vector_baseISt6vectorIiSaIiEESaIS2_EE11_M_allocateEm(%"struct.std::_Vector_base.1"* nonnull align 8 dereferenceable(24) %0, i64 %1) local_unnamed_addr #9 comdat align 2 {
  %3 = icmp eq i64 %1, 0
  br i1 %3, label %7, label %4

4:                                                ; preds = %2
  %5 = bitcast %"struct.std::_Vector_base.1"* %0 to %"class.std::allocator.2"*
  %6 = tail call %"class.std::vector"* @_ZNSt16allocator_traitsISaISt6vectorIiSaIiEEEE8allocateERS3_m(%"class.std::allocator.2"* nonnull align 1 dereferenceable(1) %5, i64 %1) #20
  br label %7

7:                                                ; preds = %2, %4
  %8 = phi %"class.std::vector"* [ %6, %4 ], [ null, %2 ]
  ret %"class.std::vector"* %8
}

; Function Attrs: minsize mustprogress optsize sspstrong uwtable
define linkonce_odr dso_local %"class.std::vector"* @_ZNSt16allocator_traitsISaISt6vectorIiSaIiEEEE8allocateERS3_m(%"class.std::allocator.2"* nonnull align 1 dereferenceable(1) %0, i64 %1) local_unnamed_addr #9 comdat align 2 {
  %3 = bitcast %"class.std::allocator.2"* %0 to %"class.__gnu_cxx::new_allocator.3"*
  %4 = tail call %"class.std::vector"* @_ZN9__gnu_cxx13new_allocatorISt6vectorIiSaIiEEE8allocateEmPKv(%"class.__gnu_cxx::new_allocator.3"* nonnull align 1 dereferenceable(1) %3, i64 %1, i8* null) #20
  ret %"class.std::vector"* %4
}

; Function Attrs: minsize mustprogress optsize sspstrong uwtable
define linkonce_odr dso_local %"class.std::vector"* @_ZN9__gnu_cxx13new_allocatorISt6vectorIiSaIiEEE8allocateEmPKv(%"class.__gnu_cxx::new_allocator.3"* nonnull align 1 dereferenceable(1) %0, i64 %1, i8* %2) local_unnamed_addr #9 comdat align 2 {
  %4 = icmp ugt i64 %1, 384307168202282325
  br i1 %4, label %5, label %9, !prof !58

5:                                                ; preds = %3
  %6 = icmp ugt i64 %1, 768614336404564650
  br i1 %6, label %7, label %8

7:                                                ; preds = %5
  tail call void @_ZSt28__throw_bad_array_new_lengthv() #23
  unreachable

8:                                                ; preds = %5
  tail call void @_ZSt17__throw_bad_allocv() #23
  unreachable

9:                                                ; preds = %3
  %10 = mul nuw nsw i64 %1, 24
  %11 = tail call noalias nonnull i8* @_Znwm(i64 %10) #24
  %12 = bitcast i8* %11 to %"class.std::vector"*
  ret %"class.std::vector"* %12
}

; Function Attrs: minsize mustprogress optsize sspstrong uwtable
define linkonce_odr dso_local %"class.std::vector"* @_ZNSt22__uninitialized_fill_nILb0EE15__uninit_fill_nIPSt6vectorIiSaIiEEmS4_EET_S6_T0_RKT1_(%"class.std::vector"* %0, i64 %1, %"class.std::vector"* nonnull align 8 dereferenceable(24) %2) local_unnamed_addr #9 comdat align 2 personality i8* bitcast (i32 (...)* @__gxx_personality_v0 to i8*) {
  br label %4

4:                                                ; preds = %9, %3
  %5 = phi i64 [ %1, %3 ], [ %10, %9 ]
  %6 = phi %"class.std::vector"* [ %0, %3 ], [ %11, %9 ]
  %7 = icmp eq i64 %5, 0
  br i1 %7, label %17, label %8

8:                                                ; preds = %4
  invoke void @_ZNSt6vectorIiSaIiEEC2ERKS1_(%"class.std::vector"* nonnull align 8 dereferenceable(24) %6, %"class.std::vector"* nonnull align 8 dereferenceable(24) %2) #20
          to label %9 unwind label %12

9:                                                ; preds = %8
  %10 = add i64 %5, -1
  %11 = getelementptr inbounds %"class.std::vector", %"class.std::vector"* %6, i64 1
  br label %4, !llvm.loop !61

12:                                               ; preds = %8
  %13 = landingpad { i8*, i32 }
          catch i8* null
  %14 = extractvalue { i8*, i32 } %13, 0
  %15 = tail call i8* @__cxa_begin_catch(i8* %14) #19
  invoke void @_ZNSt12_Destroy_auxILb0EE9__destroyIPSt6vectorIiSaIiEEEEvT_S6_(%"class.std::vector"* %0, %"class.std::vector"* %6) #20
          to label %16 unwind label %18

16:                                               ; preds = %12
  invoke void @__cxa_rethrow() #25
          to label %24 unwind label %18

17:                                               ; preds = %4
  ret %"class.std::vector"* %6

18:                                               ; preds = %12, %16
  %19 = landingpad { i8*, i32 }
          cleanup
  invoke void @__cxa_end_catch()
          to label %20 unwind label %21

20:                                               ; preds = %18
  resume { i8*, i32 } %19

21:                                               ; preds = %18
  %22 = landingpad { i8*, i32 }
          catch i8* null
  %23 = extractvalue { i8*, i32 } %22, 0
  tail call void @__clang_call_terminate(i8* %23) #22
  unreachable

24:                                               ; preds = %16
  unreachable
}

declare void @__cxa_rethrow() local_unnamed_addr

declare void @__cxa_end_catch() local_unnamed_addr

; Function Attrs: minsize optsize sspstrong uwtable
define linkonce_odr dso_local void @_ZNSt6vectorIiSaIiEEC2ERKS1_(%"class.std::vector"* nonnull align 8 dereferenceable(24) %0, %"class.std::vector"* nonnull align 8 dereferenceable(24) %1) unnamed_addr #5 comdat align 2 personality i8* bitcast (i32 (...)* @__gxx_personality_v0 to i8*) {
  %3 = getelementptr inbounds %"class.std::vector", %"class.std::vector"* %0, i64 0, i32 0
  %4 = getelementptr inbounds %"class.std::vector", %"class.std::vector"* %1, i64 0, i32 0, i32 0, i32 0, i32 1
  %5 = load i32*, i32** %4, align 8, !tbaa !40
  %6 = getelementptr inbounds %"class.std::vector", %"class.std::vector"* %1, i64 0, i32 0, i32 0, i32 0, i32 0
  %7 = load i32*, i32** %6, align 8, !tbaa !9
  %8 = ptrtoint i32* %5 to i64
  %9 = ptrtoint i32* %7 to i64
  %10 = sub i64 %8, %9
  %11 = ashr exact i64 %10, 2
  %12 = bitcast %"class.std::vector"* %0 to i8*
  tail call void @llvm.memset.p0i8.i64(i8* noundef nonnull align 8 dereferenceable(24) %12, i8 0, i64 24, i1 false) #19
  tail call void @_ZNSt12_Vector_baseIiSaIiEE17_M_create_storageEm(%"struct.std::_Vector_base"* nonnull align 8 dereferenceable(24) %3, i64 %11) #20
  %13 = load i32*, i32** %6, align 8, !tbaa !19
  %14 = load i32*, i32** %4, align 8, !tbaa !19
  %15 = getelementptr inbounds %"class.std::vector", %"class.std::vector"* %0, i64 0, i32 0, i32 0, i32 0, i32 0
  %16 = load i32*, i32** %15, align 8, !tbaa !9
  %17 = ptrtoint i32* %14 to i64
  %18 = ptrtoint i32* %13 to i64
  %19 = sub i64 %17, %18
  %20 = icmp eq i64 %19, 0
  br i1 %20, label %24, label %21

21:                                               ; preds = %2
  %22 = bitcast i32* %16 to i8*
  %23 = bitcast i32* %13 to i8*
  tail call void @llvm.memmove.p0i8.p0i8.i64(i8* align 4 %22, i8* align 4 %23, i64 %19, i1 false) #19
  br label %24

24:                                               ; preds = %21, %2
  %25 = ashr exact i64 %19, 2
  %26 = getelementptr inbounds i32, i32* %16, i64 %25
  %27 = getelementptr inbounds %"class.std::vector", %"class.std::vector"* %0, i64 0, i32 0, i32 0, i32 0, i32 1
  store i32* %26, i32** %27, align 8, !tbaa !40
  ret void
}

; Function Attrs: argmemonly mustprogress nofree nounwind willreturn
declare void @llvm.memcpy.p0i8.p0i8.i64(i8* noalias nocapture writeonly, i8* noalias nocapture readonly, i64, i1 immarg) #14

; Function Attrs: argmemonly mustprogress nofree nounwind willreturn
declare void @llvm.memmove.p0i8.p0i8.i64(i8* nocapture writeonly, i8* nocapture readonly, i64, i1 immarg) #14

; Function Attrs: minsize optsize sspstrong uwtable
define linkonce_odr dso_local void @_ZNSt12_Destroy_auxILb0EE9__destroyIPSt6vectorIiSaIiEEEEvT_S6_(%"class.std::vector"* %0, %"class.std::vector"* %1) local_unnamed_addr #5 comdat align 2 personality i32 (...)* @__gxx_personality_v0 {
  br label %3

3:                                                ; preds = %6, %2
  %4 = phi %"class.std::vector"* [ %0, %2 ], [ %8, %6 ]
  %5 = icmp eq %"class.std::vector"* %4, %1
  br i1 %5, label %9, label %6

6:                                                ; preds = %3
  %7 = getelementptr inbounds %"class.std::vector", %"class.std::vector"* %4, i64 0, i32 0
  tail call void @_ZNSt12_Vector_baseIiSaIiEED2Ev(%"struct.std::_Vector_base"* nonnull align 8 dereferenceable(24) %7) #21
  %8 = getelementptr inbounds %"class.std::vector", %"class.std::vector"* %4, i64 1
  br label %3, !llvm.loop !62

9:                                                ; preds = %3
  ret void
}

; Function Attrs: minsize optsize sspstrong uwtable
define linkonce_odr dso_local void @_ZNSt6vectorIiSaIiEE17_M_realloc_insertIJRiEEEvN9__gnu_cxx17__normal_iteratorIPiS1_EEDpOT_(%"class.std::vector"* nonnull align 8 dereferenceable(24) %0, i32* %1, i32* nonnull align 4 dereferenceable(4) %2) local_unnamed_addr #5 comdat align 2 {
  %4 = tail call i64 @_ZNKSt6vectorIiSaIiEE12_M_check_lenEmPKc(%"class.std::vector"* nonnull align 8 dereferenceable(24) %0, i64 1, i8* getelementptr inbounds ([26 x i8], [26 x i8]* @.str.1, i64 0, i64 0)) #20
  %5 = getelementptr inbounds %"class.std::vector", %"class.std::vector"* %0, i64 0, i32 0
  %6 = getelementptr inbounds %"class.std::vector", %"class.std::vector"* %0, i64 0, i32 0, i32 0, i32 0, i32 0
  %7 = load i32*, i32** %6, align 8, !tbaa !9
  %8 = getelementptr inbounds %"class.std::vector", %"class.std::vector"* %0, i64 0, i32 0, i32 0, i32 0, i32 1
  %9 = load i32*, i32** %8, align 8, !tbaa !40
  %10 = ptrtoint i32* %1 to i64
  %11 = ptrtoint i32* %7 to i64
  %12 = sub i64 %10, %11
  %13 = ashr exact i64 %12, 2
  %14 = tail call i32* @_ZNSt12_Vector_baseIiSaIiEE11_M_allocateEm(%"struct.std::_Vector_base"* nonnull align 8 dereferenceable(24) %5, i64 %4) #20
  %15 = getelementptr inbounds i32, i32* %14, i64 %13
  %16 = load i32, i32* %2, align 4, !tbaa !5
  store i32 %16, i32* %15, align 4, !tbaa !5
  %17 = icmp sgt i64 %12, 0
  br i1 %17, label %18, label %21

18:                                               ; preds = %3
  %19 = bitcast i32* %14 to i8*
  %20 = bitcast i32* %7 to i8*
  tail call void @llvm.memmove.p0i8.p0i8.i64(i8* align 4 %19, i8* align 4 %20, i64 %12, i1 false) #19
  br label %21

21:                                               ; preds = %3, %18
  %22 = getelementptr inbounds i32, i32* %15, i64 1
  %23 = ptrtoint i32* %9 to i64
  %24 = sub i64 %23, %10
  %25 = icmp sgt i64 %24, 0
  br i1 %25, label %26, label %29

26:                                               ; preds = %21
  %27 = bitcast i32* %22 to i8*
  %28 = bitcast i32* %1 to i8*
  tail call void @llvm.memmove.p0i8.p0i8.i64(i8* nonnull align 4 %27, i8* align 4 %28, i64 %24, i1 false) #19
  br label %29

29:                                               ; preds = %21, %26
  %30 = icmp eq i32* %7, null
  br i1 %30, label %33, label %31

31:                                               ; preds = %29
  %32 = bitcast i32* %7 to i8*
  tail call void @_ZdlPv(i8* nonnull %32) #21
  br label %33

33:                                               ; preds = %29, %31
  %34 = getelementptr inbounds %"class.std::vector", %"class.std::vector"* %0, i64 0, i32 0, i32 0, i32 0, i32 2
  %35 = ashr exact i64 %24, 2
  %36 = getelementptr inbounds i32, i32* %22, i64 %35
  store i32* %14, i32** %6, align 8, !tbaa !9
  store i32* %36, i32** %8, align 8, !tbaa !40
  %37 = getelementptr inbounds i32, i32* %14, i64 %4
  store i32* %37, i32** %34, align 8, !tbaa !41
  ret void
}

; Function Attrs: minsize mustprogress optsize sspstrong uwtable
define linkonce_odr dso_local i64 @_ZNKSt6vectorIiSaIiEE12_M_check_lenEmPKc(%"class.std::vector"* nonnull align 8 dereferenceable(24) %0, i64 %1, i8* %2) local_unnamed_addr #9 comdat align 2 personality i32 (...)* @__gxx_personality_v0 {
  %4 = getelementptr inbounds %"class.std::vector", %"class.std::vector"* %0, i64 0, i32 0, i32 0, i32 0, i32 1
  %5 = load i32*, i32** %4, align 8, !tbaa !40
  %6 = getelementptr inbounds %"class.std::vector", %"class.std::vector"* %0, i64 0, i32 0, i32 0, i32 0, i32 0
  %7 = load i32*, i32** %6, align 8, !tbaa !9
  %8 = ptrtoint i32* %5 to i64
  %9 = ptrtoint i32* %7 to i64
  %10 = sub i64 %8, %9
  %11 = ashr exact i64 %10, 2
  %12 = sub nsw i64 2305843009213693951, %11
  %13 = icmp ult i64 %12, %1
  br i1 %13, label %14, label %15

14:                                               ; preds = %3
  tail call void @_ZSt20__throw_length_errorPKc(i8* %2) #23
  unreachable

15:                                               ; preds = %3
  %16 = icmp ult i64 %11, %1
  %17 = select i1 %16, i64 %1, i64 %11
  %18 = add i64 %17, %11
  %19 = icmp ult i64 %18, %11
  %20 = icmp ugt i64 %18, 2305843009213693951
  %21 = or i1 %19, %20
  %22 = select i1 %21, i64 2305843009213693951, i64 %18
  ret i64 %22
}

; Function Attrs: inlinehint minsize mustprogress optsize sspstrong uwtable
define linkonce_odr dso_local void @_ZSt6__sortIN9__gnu_cxx17__normal_iteratorIPiSt6vectorIiSaIiEEEENS0_5__ops15_Iter_less_iterEEvT_S9_T0_(i32* %0, i32* %1) local_unnamed_addr #6 comdat {
  %3 = icmp eq i32* %0, %1
  br i1 %3, label %12, label %4

4:                                                ; preds = %2
  %5 = ptrtoint i32* %1 to i64
  %6 = ptrtoint i32* %0 to i64
  %7 = sub i64 %5, %6
  %8 = ashr exact i64 %7, 2
  %9 = tail call i64 @llvm.ctlz.i64(i64 %8, i1 true) #19, !range !63
  %10 = shl nuw nsw i64 %9, 1
  %11 = xor i64 %10, 126
  tail call void @_ZSt16__introsort_loopIN9__gnu_cxx17__normal_iteratorIPiSt6vectorIiSaIiEEEElNS0_5__ops15_Iter_less_iterEEvT_S9_T0_T1_(i32* %0, i32* %1, i64 %11) #20
  tail call void @_ZSt22__final_insertion_sortIN9__gnu_cxx17__normal_iteratorIPiSt6vectorIiSaIiEEEENS0_5__ops15_Iter_less_iterEEvT_S9_T0_(i32* %0, i32* %1) #20
  br label %12

12:                                               ; preds = %4, %2
  ret void
}

; Function Attrs: minsize mustprogress optsize sspstrong uwtable
define linkonce_odr dso_local void @_ZSt16__introsort_loopIN9__gnu_cxx17__normal_iteratorIPiSt6vectorIiSaIiEEEElNS0_5__ops15_Iter_less_iterEEvT_S9_T0_T1_(i32* %0, i32* %1, i64 %2) local_unnamed_addr #9 comdat {
  %4 = ptrtoint i32* %0 to i64
  br label %5

5:                                                ; preds = %14, %3
  %6 = phi i32* [ %1, %3 ], [ %16, %14 ]
  %7 = phi i64 [ %2, %3 ], [ %15, %14 ]
  %8 = ptrtoint i32* %6 to i64
  %9 = sub i64 %8, %4
  %10 = icmp sgt i64 %9, 64
  br i1 %10, label %11, label %17

11:                                               ; preds = %5
  %12 = icmp eq i64 %7, 0
  br i1 %12, label %13, label %14

13:                                               ; preds = %11
  tail call void @_ZSt14__partial_sortIN9__gnu_cxx17__normal_iteratorIPiSt6vectorIiSaIiEEEENS0_5__ops15_Iter_less_iterEEvT_S9_S9_T0_(i32* %0, i32* %6, i32* %6) #20
  br label %17

14:                                               ; preds = %11
  %15 = add nsw i64 %7, -1
  %16 = tail call i32* @_ZSt27__unguarded_partition_pivotIN9__gnu_cxx17__normal_iteratorIPiSt6vectorIiSaIiEEEENS0_5__ops15_Iter_less_iterEET_S9_S9_T0_(i32* %0, i32* %6) #20
  tail call void @_ZSt16__introsort_loopIN9__gnu_cxx17__normal_iteratorIPiSt6vectorIiSaIiEEEElNS0_5__ops15_Iter_less_iterEEvT_S9_T0_T1_(i32* %16, i32* %6, i64 %15) #20
  br label %5, !llvm.loop !64

17:                                               ; preds = %5, %13
  ret void
}

; Function Attrs: minsize optsize sspstrong uwtable
define linkonce_odr dso_local void @_ZSt22__final_insertion_sortIN9__gnu_cxx17__normal_iteratorIPiSt6vectorIiSaIiEEEENS0_5__ops15_Iter_less_iterEEvT_S9_T0_(i32* %0, i32* %1) local_unnamed_addr #5 comdat {
  %3 = ptrtoint i32* %1 to i64
  %4 = ptrtoint i32* %0 to i64
  %5 = sub i64 %3, %4
  %6 = icmp sgt i64 %5, 64
  br i1 %6, label %7, label %9

7:                                                ; preds = %2
  %8 = getelementptr inbounds i32, i32* %0, i64 16
  tail call void @_ZSt16__insertion_sortIN9__gnu_cxx17__normal_iteratorIPiSt6vectorIiSaIiEEEENS0_5__ops15_Iter_less_iterEEvT_S9_T0_(i32* %0, i32* nonnull %8) #20
  tail call void @_ZSt26__unguarded_insertion_sortIN9__gnu_cxx17__normal_iteratorIPiSt6vectorIiSaIiEEEENS0_5__ops15_Iter_less_iterEEvT_S9_T0_(i32* nonnull %8, i32* %1) #20
  br label %10

9:                                                ; preds = %2
  tail call void @_ZSt16__insertion_sortIN9__gnu_cxx17__normal_iteratorIPiSt6vectorIiSaIiEEEENS0_5__ops15_Iter_less_iterEEvT_S9_T0_(i32* %0, i32* %1) #20
  br label %10

10:                                               ; preds = %9, %7
  ret void
}

; Function Attrs: inlinehint minsize mustprogress optsize sspstrong uwtable
define linkonce_odr dso_local void @_ZSt14__partial_sortIN9__gnu_cxx17__normal_iteratorIPiSt6vectorIiSaIiEEEENS0_5__ops15_Iter_less_iterEEvT_S9_S9_T0_(i32* %0, i32* %1, i32* %2) local_unnamed_addr #6 comdat {
  %4 = alloca %"struct.__gnu_cxx::__ops::_Iter_less_iter", align 1
  tail call void @_ZSt13__heap_selectIN9__gnu_cxx17__normal_iteratorIPiSt6vectorIiSaIiEEEENS0_5__ops15_Iter_less_iterEEvT_S9_S9_T0_(i32* %0, i32* %1, i32* %2) #20
  call void @_ZSt11__sort_heapIN9__gnu_cxx17__normal_iteratorIPiSt6vectorIiSaIiEEEENS0_5__ops15_Iter_less_iterEEvT_S9_RT0_(i32* %0, i32* %1, %"struct.__gnu_cxx::__ops::_Iter_less_iter"* nonnull align 1 dereferenceable(1) %4) #20
  ret void
}

; Function Attrs: inlinehint minsize optsize sspstrong uwtable
define linkonce_odr dso_local i32* @_ZSt27__unguarded_partition_pivotIN9__gnu_cxx17__normal_iteratorIPiSt6vectorIiSaIiEEEENS0_5__ops15_Iter_less_iterEET_S9_S9_T0_(i32* %0, i32* %1) local_unnamed_addr #15 comdat {
  %3 = ptrtoint i32* %1 to i64
  %4 = ptrtoint i32* %0 to i64
  %5 = sub i64 %3, %4
  %6 = ashr exact i64 %5, 2
  %7 = sdiv i64 %6, 2
  %8 = getelementptr inbounds i32, i32* %0, i64 %7
  %9 = getelementptr inbounds i32, i32* %0, i64 1
  %10 = getelementptr inbounds i32, i32* %1, i64 -1
  tail call void @_ZSt22__move_median_to_firstIN9__gnu_cxx17__normal_iteratorIPiSt6vectorIiSaIiEEEENS0_5__ops15_Iter_less_iterEEvT_S9_S9_S9_T0_(i32* %0, i32* nonnull %9, i32* %8, i32* nonnull %10) #20
  %11 = tail call i32* @_ZSt21__unguarded_partitionIN9__gnu_cxx17__normal_iteratorIPiSt6vectorIiSaIiEEEENS0_5__ops15_Iter_less_iterEET_S9_S9_S9_T0_(i32* nonnull %9, i32* %1, i32* %0) #20
  ret i32* %11
}

; Function Attrs: minsize mustprogress optsize sspstrong uwtable
define linkonce_odr dso_local void @_ZSt13__heap_selectIN9__gnu_cxx17__normal_iteratorIPiSt6vectorIiSaIiEEEENS0_5__ops15_Iter_less_iterEEvT_S9_S9_T0_(i32* %0, i32* %1, i32* %2) local_unnamed_addr #9 comdat {
  %4 = alloca %"struct.__gnu_cxx::__ops::_Iter_less_iter", align 1
  call void @_ZSt11__make_heapIN9__gnu_cxx17__normal_iteratorIPiSt6vectorIiSaIiEEEENS0_5__ops15_Iter_less_iterEEvT_S9_RT0_(i32* %0, i32* %1, %"struct.__gnu_cxx::__ops::_Iter_less_iter"* nonnull align 1 dereferenceable(1) %4) #20
  br label %5

5:                                                ; preds = %14, %3
  %6 = phi i32* [ %1, %3 ], [ %15, %14 ]
  %7 = icmp ult i32* %6, %2
  br i1 %7, label %9, label %8

8:                                                ; preds = %5
  ret void

9:                                                ; preds = %5
  %10 = load i32, i32* %6, align 4, !tbaa !5
  %11 = load i32, i32* %0, align 4, !tbaa !5
  %12 = icmp slt i32 %10, %11
  br i1 %12, label %13, label %14

13:                                               ; preds = %9
  call void @_ZSt10__pop_heapIN9__gnu_cxx17__normal_iteratorIPiSt6vectorIiSaIiEEEENS0_5__ops15_Iter_less_iterEEvT_S9_S9_RT0_(i32* nonnull %0, i32* %1, i32* nonnull %6, %"struct.__gnu_cxx::__ops::_Iter_less_iter"* nonnull align 1 dereferenceable(1) %4) #20
  br label %14

14:                                               ; preds = %9, %13
  %15 = getelementptr inbounds i32, i32* %6, i64 1
  br label %5, !llvm.loop !65
}

; Function Attrs: minsize mustprogress optsize sspstrong uwtable
define linkonce_odr dso_local void @_ZSt11__sort_heapIN9__gnu_cxx17__normal_iteratorIPiSt6vectorIiSaIiEEEENS0_5__ops15_Iter_less_iterEEvT_S9_RT0_(i32* %0, i32* %1, %"struct.__gnu_cxx::__ops::_Iter_less_iter"* nonnull align 1 dereferenceable(1) %2) local_unnamed_addr #9 comdat {
  %4 = ptrtoint i32* %0 to i64
  br label %5

5:                                                ; preds = %10, %3
  %6 = phi i32* [ %1, %3 ], [ %11, %10 ]
  %7 = ptrtoint i32* %6 to i64
  %8 = sub i64 %7, %4
  %9 = icmp sgt i64 %8, 4
  br i1 %9, label %10, label %12

10:                                               ; preds = %5
  %11 = getelementptr inbounds i32, i32* %6, i64 -1
  tail call void @_ZSt10__pop_heapIN9__gnu_cxx17__normal_iteratorIPiSt6vectorIiSaIiEEEENS0_5__ops15_Iter_less_iterEEvT_S9_S9_RT0_(i32* %0, i32* nonnull %11, i32* nonnull %11, %"struct.__gnu_cxx::__ops::_Iter_less_iter"* nonnull align 1 dereferenceable(1) %2) #20
  br label %5, !llvm.loop !66

12:                                               ; preds = %5
  ret void
}

; Function Attrs: minsize optsize sspstrong uwtable
define linkonce_odr dso_local void @_ZSt11__make_heapIN9__gnu_cxx17__normal_iteratorIPiSt6vectorIiSaIiEEEENS0_5__ops15_Iter_less_iterEEvT_S9_RT0_(i32* %0, i32* %1, %"struct.__gnu_cxx::__ops::_Iter_less_iter"* nonnull align 1 dereferenceable(1) %2) local_unnamed_addr #5 comdat {
  %4 = ptrtoint i32* %1 to i64
  %5 = ptrtoint i32* %0 to i64
  %6 = sub i64 %4, %5
  %7 = ashr exact i64 %6, 2
  %8 = icmp slt i64 %6, 8
  br i1 %8, label %18, label %9

9:                                                ; preds = %3
  %10 = add nsw i64 %7, -2
  %11 = lshr i64 %10, 1
  br label %12

12:                                               ; preds = %12, %9
  %13 = phi i64 [ %11, %9 ], [ %17, %12 ]
  %14 = getelementptr inbounds i32, i32* %0, i64 %13
  %15 = load i32, i32* %14, align 4, !tbaa !5
  tail call void @_ZSt13__adjust_heapIN9__gnu_cxx17__normal_iteratorIPiSt6vectorIiSaIiEEEEliNS0_5__ops15_Iter_less_iterEEvT_T0_SA_T1_T2_(i32* %0, i64 %13, i64 %7, i32 %15) #20
  %16 = icmp eq i64 %13, 0
  %17 = add nsw i64 %13, -1
  br i1 %16, label %18, label %12, !llvm.loop !67

18:                                               ; preds = %12, %3
  ret void
}

; Function Attrs: inlinehint minsize mustprogress optsize sspstrong uwtable
define linkonce_odr dso_local void @_ZSt10__pop_heapIN9__gnu_cxx17__normal_iteratorIPiSt6vectorIiSaIiEEEENS0_5__ops15_Iter_less_iterEEvT_S9_S9_RT0_(i32* %0, i32* %1, i32* %2, %"struct.__gnu_cxx::__ops::_Iter_less_iter"* nonnull align 1 dereferenceable(1) %3) local_unnamed_addr #6 comdat {
  %5 = load i32, i32* %2, align 4, !tbaa !5
  %6 = load i32, i32* %0, align 4, !tbaa !5
  store i32 %6, i32* %2, align 4, !tbaa !5
  %7 = ptrtoint i32* %1 to i64
  %8 = ptrtoint i32* %0 to i64
  %9 = sub i64 %7, %8
  %10 = ashr exact i64 %9, 2
  tail call void @_ZSt13__adjust_heapIN9__gnu_cxx17__normal_iteratorIPiSt6vectorIiSaIiEEEEliNS0_5__ops15_Iter_less_iterEEvT_T0_SA_T1_T2_(i32* nonnull %0, i64 0, i64 %10, i32 %5) #20
  ret void
}

; Function Attrs: minsize optsize sspstrong uwtable
define linkonce_odr dso_local void @_ZSt13__adjust_heapIN9__gnu_cxx17__normal_iteratorIPiSt6vectorIiSaIiEEEEliNS0_5__ops15_Iter_less_iterEEvT_T0_SA_T1_T2_(i32* %0, i64 %1, i64 %2, i32 %3) local_unnamed_addr #5 comdat {
  %5 = alloca %"struct.__gnu_cxx::__ops::_Iter_less_val", align 1
  %6 = add nsw i64 %2, -1
  %7 = sdiv i64 %6, 2
  br label %8

8:                                                ; preds = %11, %4
  %9 = phi i64 [ %1, %4 ], [ %20, %11 ]
  %10 = icmp slt i64 %9, %7
  br i1 %10, label %11, label %24

11:                                               ; preds = %8
  %12 = shl i64 %9, 1
  %13 = add i64 %12, 2
  %14 = getelementptr inbounds i32, i32* %0, i64 %13
  %15 = or i64 %12, 1
  %16 = getelementptr inbounds i32, i32* %0, i64 %15
  %17 = load i32, i32* %14, align 4, !tbaa !5
  %18 = load i32, i32* %16, align 4, !tbaa !5
  %19 = icmp slt i32 %17, %18
  %20 = select i1 %19, i64 %15, i64 %13
  %21 = getelementptr inbounds i32, i32* %0, i64 %20
  %22 = load i32, i32* %21, align 4, !tbaa !5
  %23 = getelementptr inbounds i32, i32* %0, i64 %9
  store i32 %22, i32* %23, align 4, !tbaa !5
  br label %8, !llvm.loop !68

24:                                               ; preds = %8
  %25 = and i64 %2, 1
  %26 = icmp eq i64 %25, 0
  br i1 %26, label %27, label %37

27:                                               ; preds = %24
  %28 = add nsw i64 %2, -2
  %29 = sdiv i64 %28, 2
  %30 = icmp eq i64 %9, %29
  br i1 %30, label %31, label %37

31:                                               ; preds = %27
  %32 = shl i64 %9, 1
  %33 = or i64 %32, 1
  %34 = getelementptr inbounds i32, i32* %0, i64 %33
  %35 = load i32, i32* %34, align 4, !tbaa !5
  %36 = getelementptr inbounds i32, i32* %0, i64 %9
  store i32 %35, i32* %36, align 4, !tbaa !5
  br label %37

37:                                               ; preds = %31, %27, %24
  %38 = phi i64 [ %33, %31 ], [ %9, %27 ], [ %9, %24 ]
  %39 = getelementptr inbounds %"struct.__gnu_cxx::__ops::_Iter_less_val", %"struct.__gnu_cxx::__ops::_Iter_less_val"* %5, i64 0, i32 0
  call void @llvm.lifetime.start.p0i8(i64 1, i8* nonnull %39) #19
  call void @_ZSt11__push_heapIN9__gnu_cxx17__normal_iteratorIPiSt6vectorIiSaIiEEEEliNS0_5__ops14_Iter_less_valEEvT_T0_SA_T1_RT2_(i32* %0, i64 %38, i64 %1, i32 %3, %"struct.__gnu_cxx::__ops::_Iter_less_val"* nonnull align 1 dereferenceable(1) %5) #20
  call void @llvm.lifetime.end.p0i8(i64 1, i8* nonnull %39) #19
  ret void
}

; Function Attrs: minsize optsize sspstrong uwtable
define linkonce_odr dso_local void @_ZSt11__push_heapIN9__gnu_cxx17__normal_iteratorIPiSt6vectorIiSaIiEEEEliNS0_5__ops14_Iter_less_valEEvT_T0_SA_T1_RT2_(i32* %0, i64 %1, i64 %2, i32 %3, %"struct.__gnu_cxx::__ops::_Iter_less_val"* nonnull align 1 dereferenceable(1) %4) local_unnamed_addr #5 comdat {
  br label %6

6:                                                ; preds = %15, %5
  %7 = phi i64 [ %1, %5 ], [ %9, %15 ]
  %8 = add nsw i64 %7, -1
  %9 = sdiv i64 %8, 2
  %10 = icmp sgt i64 %7, %2
  br i1 %10, label %11, label %17

11:                                               ; preds = %6
  %12 = getelementptr inbounds i32, i32* %0, i64 %9
  %13 = load i32, i32* %12, align 4, !tbaa !5
  %14 = icmp slt i32 %13, %3
  br i1 %14, label %15, label %17

15:                                               ; preds = %11
  %16 = getelementptr inbounds i32, i32* %0, i64 %7
  store i32 %13, i32* %16, align 4, !tbaa !5
  br label %6, !llvm.loop !69

17:                                               ; preds = %6, %11
  %18 = getelementptr inbounds i32, i32* %0, i64 %7
  store i32 %3, i32* %18, align 4, !tbaa !5
  ret void
}

; Function Attrs: minsize mustprogress optsize sspstrong uwtable
define linkonce_odr dso_local void @_ZSt22__move_median_to_firstIN9__gnu_cxx17__normal_iteratorIPiSt6vectorIiSaIiEEEENS0_5__ops15_Iter_less_iterEEvT_S9_S9_S9_T0_(i32* %0, i32* %1, i32* %2, i32* %3) local_unnamed_addr #9 comdat {
  %5 = load i32, i32* %1, align 4, !tbaa !5
  %6 = load i32, i32* %2, align 4, !tbaa !5
  %7 = icmp slt i32 %5, %6
  %8 = load i32, i32* %3, align 4, !tbaa !5
  br i1 %7, label %9, label %18

9:                                                ; preds = %4
  %10 = icmp slt i32 %6, %8
  br i1 %10, label %11, label %13

11:                                               ; preds = %9
  %12 = load i32, i32* %0, align 4, !tbaa !5
  store i32 %6, i32* %0, align 4, !tbaa !5
  store i32 %12, i32* %2, align 4, !tbaa !5
  br label %27

13:                                               ; preds = %9
  %14 = icmp slt i32 %5, %8
  %15 = load i32, i32* %0, align 4, !tbaa !5
  br i1 %14, label %16, label %17

16:                                               ; preds = %13
  store i32 %8, i32* %0, align 4, !tbaa !5
  store i32 %15, i32* %3, align 4, !tbaa !5
  br label %27

17:                                               ; preds = %13
  store i32 %5, i32* %0, align 4, !tbaa !5
  store i32 %15, i32* %1, align 4, !tbaa !5
  br label %27

18:                                               ; preds = %4
  %19 = icmp slt i32 %5, %8
  br i1 %19, label %20, label %22

20:                                               ; preds = %18
  %21 = load i32, i32* %0, align 4, !tbaa !5
  store i32 %5, i32* %0, align 4, !tbaa !5
  store i32 %21, i32* %1, align 4, !tbaa !5
  br label %27

22:                                               ; preds = %18
  %23 = icmp slt i32 %6, %8
  %24 = load i32, i32* %0, align 4, !tbaa !5
  br i1 %23, label %25, label %26

25:                                               ; preds = %22
  store i32 %8, i32* %0, align 4, !tbaa !5
  store i32 %24, i32* %3, align 4, !tbaa !5
  br label %27

26:                                               ; preds = %22
  store i32 %6, i32* %0, align 4, !tbaa !5
  store i32 %24, i32* %2, align 4, !tbaa !5
  br label %27

27:                                               ; preds = %20, %26, %25, %11, %17, %16
  ret void
}

; Function Attrs: minsize mustprogress nounwind optsize sspstrong uwtable
define linkonce_odr dso_local i32* @_ZSt21__unguarded_partitionIN9__gnu_cxx17__normal_iteratorIPiSt6vectorIiSaIiEEEENS0_5__ops15_Iter_less_iterEET_S9_S9_S9_T0_(i32* %0, i32* %1, i32* %2) local_unnamed_addr #11 comdat {
  br label %4

4:                                                ; preds = %3, %21
  %5 = phi i32* [ %0, %3 ], [ %12, %21 ]
  %6 = phi i32* [ %1, %3 ], [ %15, %21 ]
  %7 = load i32, i32* %2, align 4, !tbaa !5
  br label %8

8:                                                ; preds = %8, %4
  %9 = phi i32* [ %5, %4 ], [ %12, %8 ]
  %10 = load i32, i32* %9, align 4, !tbaa !5
  %11 = icmp slt i32 %10, %7
  %12 = getelementptr inbounds i32, i32* %9, i64 1
  br i1 %11, label %8, label %13, !llvm.loop !70

13:                                               ; preds = %8, %13
  %14 = phi i32* [ %15, %13 ], [ %6, %8 ]
  %15 = getelementptr inbounds i32, i32* %14, i64 -1
  %16 = load i32, i32* %15, align 4, !tbaa !5
  %17 = icmp slt i32 %7, %16
  br i1 %17, label %13, label %18, !llvm.loop !71

18:                                               ; preds = %13
  %19 = icmp ult i32* %9, %15
  br i1 %19, label %21, label %20

20:                                               ; preds = %18
  ret i32* %9

21:                                               ; preds = %18
  store i32 %16, i32* %9, align 4, !tbaa !5
  store i32 %10, i32* %15, align 4, !tbaa !5
  br label %4, !llvm.loop !72
}

; Function Attrs: mustprogress nofree nosync nounwind readnone speculatable willreturn
declare i64 @llvm.ctlz.i64(i64, i1 immarg) #16

; Function Attrs: minsize optsize sspstrong uwtable
define linkonce_odr dso_local void @_ZSt16__insertion_sortIN9__gnu_cxx17__normal_iteratorIPiSt6vectorIiSaIiEEEENS0_5__ops15_Iter_less_iterEEvT_S9_T0_(i32* %0, i32* %1) local_unnamed_addr #5 comdat {
  %3 = icmp eq i32* %0, %1
  br i1 %3, label %27, label %4

4:                                                ; preds = %2
  %5 = ptrtoint i32* %0 to i64
  %6 = bitcast i32* %0 to i8*
  br label %7

7:                                                ; preds = %25, %4
  %8 = phi i32* [ %0, %4 ], [ %9, %25 ]
  %9 = getelementptr inbounds i32, i32* %8, i64 1
  %10 = icmp eq i32* %9, %1
  br i1 %10, label %27, label %11

11:                                               ; preds = %7
  %12 = load i32, i32* %9, align 4, !tbaa !5
  %13 = load i32, i32* %0, align 4, !tbaa !5
  %14 = icmp slt i32 %12, %13
  br i1 %14, label %15, label %26

15:                                               ; preds = %11
  %16 = ptrtoint i32* %9 to i64
  %17 = sub i64 %16, %5
  %18 = icmp eq i64 %17, 0
  br i1 %18, label %24, label %19

19:                                               ; preds = %15
  %20 = ashr exact i64 %17, 2
  %21 = sub nsw i64 2, %20
  %22 = getelementptr inbounds i32, i32* %8, i64 %21
  %23 = bitcast i32* %22 to i8*
  tail call void @llvm.memmove.p0i8.p0i8.i64(i8* nonnull align 4 %23, i8* nonnull align 4 %6, i64 %17, i1 false) #19
  br label %24

24:                                               ; preds = %15, %19
  store i32 %12, i32* %0, align 4, !tbaa !5
  br label %25

25:                                               ; preds = %24, %26
  br label %7, !llvm.loop !73

26:                                               ; preds = %11
  tail call void @_ZSt25__unguarded_linear_insertIN9__gnu_cxx17__normal_iteratorIPiSt6vectorIiSaIiEEEENS0_5__ops14_Val_less_iterEEvT_T0_(i32* nonnull %9) #20
  br label %25

27:                                               ; preds = %7, %2
  ret void
}

; Function Attrs: inlinehint minsize mustprogress optsize sspstrong uwtable
define linkonce_odr dso_local void @_ZSt26__unguarded_insertion_sortIN9__gnu_cxx17__normal_iteratorIPiSt6vectorIiSaIiEEEENS0_5__ops15_Iter_less_iterEEvT_S9_T0_(i32* %0, i32* %1) local_unnamed_addr #6 comdat {
  br label %3

3:                                                ; preds = %7, %2
  %4 = phi i32* [ %0, %2 ], [ %8, %7 ]
  %5 = icmp eq i32* %4, %1
  br i1 %5, label %6, label %7

6:                                                ; preds = %3
  ret void

7:                                                ; preds = %3
  tail call void @_ZSt25__unguarded_linear_insertIN9__gnu_cxx17__normal_iteratorIPiSt6vectorIiSaIiEEEENS0_5__ops14_Val_less_iterEEvT_T0_(i32* %4) #20
  %8 = getelementptr inbounds i32, i32* %4, i64 1
  br label %3, !llvm.loop !74
}

; Function Attrs: minsize mustprogress optsize sspstrong uwtable
define linkonce_odr dso_local void @_ZSt25__unguarded_linear_insertIN9__gnu_cxx17__normal_iteratorIPiSt6vectorIiSaIiEEEENS0_5__ops14_Val_less_iterEEvT_T0_(i32* %0) local_unnamed_addr #9 comdat {
  %2 = load i32, i32* %0, align 4, !tbaa !5
  br label %3

3:                                                ; preds = %8, %1
  %4 = phi i32* [ %0, %1 ], [ %5, %8 ]
  %5 = getelementptr inbounds i32, i32* %4, i64 -1
  %6 = load i32, i32* %5, align 4, !tbaa !5
  %7 = icmp slt i32 %2, %6
  br i1 %7, label %8, label %9

8:                                                ; preds = %3
  store i32 %6, i32* %4, align 4, !tbaa !5
  br label %3, !llvm.loop !75

9:                                                ; preds = %3
  store i32 %2, i32* %4, align 4, !tbaa !5
  ret void
}

; Function Attrs: minsize mustprogress optsize sspstrong uwtable
define linkonce_odr dso_local i32* @_ZSt8__uniqueIN9__gnu_cxx17__normal_iteratorIPiSt6vectorIiSaIiEEEENS0_5__ops19_Iter_equal_to_iterEET_S9_S9_T0_(i32* %0, i32* %1) local_unnamed_addr #9 comdat {
  %3 = tail call i32* @_ZSt15__adjacent_findIN9__gnu_cxx17__normal_iteratorIPiSt6vectorIiSaIiEEEENS0_5__ops19_Iter_equal_to_iterEET_S9_S9_T0_(i32* %0, i32* %1) #20
  %4 = icmp eq i32* %3, %1
  br i1 %4, label %22, label %5

5:                                                ; preds = %2
  %6 = getelementptr inbounds i32, i32* %3, i64 1
  br label %7

7:                                                ; preds = %18, %5
  %8 = phi i32* [ %12, %18 ], [ %6, %5 ]
  %9 = phi i32* [ %19, %18 ], [ %3, %5 ]
  br label %10

10:                                               ; preds = %7, %14
  %11 = phi i32* [ %12, %14 ], [ %8, %7 ]
  %12 = getelementptr inbounds i32, i32* %11, i64 1
  %13 = icmp eq i32* %12, %1
  br i1 %13, label %20, label %14

14:                                               ; preds = %10
  %15 = load i32, i32* %9, align 4, !tbaa !5
  %16 = load i32, i32* %12, align 4, !tbaa !5
  %17 = icmp eq i32 %15, %16
  br i1 %17, label %10, label %18, !llvm.loop !76

18:                                               ; preds = %14
  %19 = getelementptr inbounds i32, i32* %9, i64 1
  store i32 %16, i32* %19, align 4, !tbaa !5
  br label %7, !llvm.loop !76

20:                                               ; preds = %10
  %21 = getelementptr inbounds i32, i32* %9, i64 1
  br label %22

22:                                               ; preds = %2, %20
  %23 = phi i32* [ %21, %20 ], [ %1, %2 ]
  ret i32* %23
}

; Function Attrs: minsize mustprogress optsize sspstrong uwtable
define linkonce_odr dso_local i32* @_ZSt15__adjacent_findIN9__gnu_cxx17__normal_iteratorIPiSt6vectorIiSaIiEEEENS0_5__ops19_Iter_equal_to_iterEET_S9_S9_T0_(i32* %0, i32* %1) local_unnamed_addr #9 comdat {
  %3 = icmp eq i32* %0, %1
  br i1 %3, label %12, label %4

4:                                                ; preds = %2, %8
  %5 = phi i32* [ %6, %8 ], [ %0, %2 ]
  %6 = getelementptr inbounds i32, i32* %5, i64 1
  %7 = icmp eq i32* %6, %1
  br i1 %7, label %12, label %8

8:                                                ; preds = %4
  %9 = load i32, i32* %5, align 4, !tbaa !5
  %10 = load i32, i32* %6, align 4, !tbaa !5
  %11 = icmp eq i32 %9, %10
  br i1 %11, label %12, label %4, !llvm.loop !77

12:                                               ; preds = %8, %4, %2
  %13 = phi i32* [ %0, %2 ], [ %1, %4 ], [ %5, %8 ]
  ret i32* %13
}

; Function Attrs: minsize optsize sspstrong uwtable
define linkonce_odr dso_local i32* @_ZNSt6vectorIiSaIiEE8_M_eraseEN9__gnu_cxx17__normal_iteratorIPiS1_EES5_(%"class.std::vector"* nonnull align 8 dereferenceable(24) %0, i32* %1, i32* %2) local_unnamed_addr #5 comdat align 2 personality i32 (...)* @__gxx_personality_v0 {
  %4 = icmp eq i32* %1, %2
  br i1 %4, label %30, label %5

5:                                                ; preds = %3
  %6 = getelementptr inbounds %"class.std::vector", %"class.std::vector"* %0, i64 0, i32 0, i32 0, i32 0, i32 1
  %7 = load i32*, i32** %6, align 8, !tbaa !19
  %8 = icmp eq i32* %7, %2
  br i1 %8, label %9, label %11

9:                                                ; preds = %5
  %10 = ptrtoint i32* %2 to i64
  br label %21

11:                                               ; preds = %5
  %12 = ptrtoint i32* %7 to i64
  %13 = ptrtoint i32* %2 to i64
  %14 = sub i64 %12, %13
  %15 = icmp eq i64 %14, 0
  br i1 %15, label %21, label %16

16:                                               ; preds = %11
  %17 = bitcast i32* %1 to i8*
  %18 = bitcast i32* %2 to i8*
  tail call void @llvm.memmove.p0i8.p0i8.i64(i8* align 4 %17, i8* align 4 %18, i64 %14, i1 false) #19
  %19 = load i32*, i32** %6, align 8, !tbaa !19
  %20 = ptrtoint i32* %19 to i64
  br label %21

21:                                               ; preds = %9, %16, %11
  %22 = phi i64 [ %10, %9 ], [ %20, %16 ], [ %12, %11 ]
  %23 = phi i64 [ %10, %9 ], [ %13, %16 ], [ %13, %11 ]
  %24 = phi i32* [ %2, %9 ], [ %19, %16 ], [ %7, %11 ]
  %25 = sub i64 %22, %23
  %26 = ashr exact i64 %25, 2
  %27 = getelementptr inbounds i32, i32* %1, i64 %26
  %28 = icmp eq i32* %24, %27
  br i1 %28, label %30, label %29

29:                                               ; preds = %21
  store i32* %27, i32** %6, align 8, !tbaa !40
  br label %30

30:                                               ; preds = %29, %21, %3
  ret i32* %1
}

; Function Attrs: minsize optsize sspstrong uwtable
define linkonce_odr dso_local void @_ZNSt6vectorIbSaIbEE13_M_initializeEm(%"class.std::vector.6"* nonnull align 8 dereferenceable(40) %0, i64 %1) local_unnamed_addr #5 comdat align 2 {
  %3 = alloca %"struct.std::_Bit_iterator", align 8
  %4 = icmp eq i64 %1, 0
  br i1 %4, label %21, label %5

5:                                                ; preds = %2
  %6 = getelementptr inbounds %"class.std::vector.6", %"class.std::vector.6"* %0, i64 0, i32 0
  %7 = tail call i64* @_ZNSt13_Bvector_baseISaIbEE11_M_allocateEm(%"struct.std::_Bvector_base"* nonnull align 8 dereferenceable(40) %6, i64 %1) #20
  %8 = add i64 %1, 63
  %9 = lshr i64 %8, 6
  %10 = getelementptr inbounds i64, i64* %7, i64 %9
  %11 = getelementptr inbounds %"class.std::vector.6", %"class.std::vector.6"* %0, i64 0, i32 0, i32 0, i32 0, i32 2
  store i64* %10, i64** %11, align 8, !tbaa !45
  %12 = bitcast %"struct.std::_Bit_iterator"* %3 to i8*
  call void @llvm.lifetime.start.p0i8(i64 16, i8* nonnull %12) #19
  %13 = getelementptr inbounds %"struct.std::_Bit_iterator", %"struct.std::_Bit_iterator"* %3, i64 0, i32 0, i32 0
  store i64* %7, i64** %13, align 8, !tbaa !42
  %14 = getelementptr inbounds %"struct.std::_Bit_iterator", %"struct.std::_Bit_iterator"* %3, i64 0, i32 0, i32 1
  store i32 0, i32* %14, align 8, !tbaa !44
  %15 = bitcast %"class.std::vector.6"* %0 to i8*
  call void @llvm.memcpy.p0i8.p0i8.i64(i8* noundef nonnull align 8 dereferenceable(12) %15, i8* noundef nonnull align 8 dereferenceable(12) %12, i64 12, i1 false)
  %16 = call { i64*, i32 } @_ZStplRKSt13_Bit_iteratorl(%"struct.std::_Bit_iterator"* nonnull align 8 dereferenceable(12) %3, i64 %1) #20
  %17 = extractvalue { i64*, i32 } %16, 0
  %18 = extractvalue { i64*, i32 } %16, 1
  %19 = getelementptr inbounds %"class.std::vector.6", %"class.std::vector.6"* %0, i64 0, i32 0, i32 0, i32 0, i32 1, i32 0, i32 0
  store i64* %17, i64** %19, align 8
  %20 = getelementptr inbounds %"class.std::vector.6", %"class.std::vector.6"* %0, i64 0, i32 0, i32 0, i32 0, i32 1, i32 0, i32 1
  store i32 %18, i32* %20, align 8
  call void @llvm.lifetime.end.p0i8(i64 16, i8* nonnull %12) #19
  br label %21

21:                                               ; preds = %5, %2
  ret void
}

; Function Attrs: minsize mustprogress optsize sspstrong uwtable
define linkonce_odr dso_local i64* @_ZNSt13_Bvector_baseISaIbEE11_M_allocateEm(%"struct.std::_Bvector_base"* nonnull align 8 dereferenceable(40) %0, i64 %1) local_unnamed_addr #9 comdat align 2 {
  %3 = bitcast %"struct.std::_Bvector_base"* %0 to %"class.std::allocator.7"*
  %4 = add i64 %1, 63
  %5 = lshr i64 %4, 6
  %6 = tail call i64* @_ZNSt16allocator_traitsISaImEE8allocateERS0_m(%"class.std::allocator.7"* nonnull align 1 dereferenceable(1) %3, i64 %5) #20
  ret i64* %6
}

; Function Attrs: minsize mustprogress optsize sspstrong uwtable
define linkonce_odr dso_local { i64*, i32 } @_ZStplRKSt13_Bit_iteratorl(%"struct.std::_Bit_iterator"* nonnull align 8 dereferenceable(12) %0, i64 %1) local_unnamed_addr #9 comdat {
  %3 = getelementptr inbounds %"struct.std::_Bit_iterator", %"struct.std::_Bit_iterator"* %0, i64 0, i32 0, i32 0
  %4 = load i64*, i64** %3, align 8
  %5 = getelementptr inbounds %"struct.std::_Bit_iterator", %"struct.std::_Bit_iterator"* %0, i64 0, i32 0, i32 1
  %6 = load i32, i32* %5, align 8
  %7 = zext i32 %6 to i64
  %8 = add nsw i64 %7, %1
  %9 = sdiv i64 %8, 64
  %10 = srem i64 %8, 64
  %11 = icmp slt i64 %10, 0
  %12 = add nsw i64 %10, 64
  %13 = ashr i64 %10, 63
  %14 = add nsw i64 %13, %9
  %15 = getelementptr i64, i64* %4, i64 %14
  %16 = select i1 %11, i64 %12, i64 %10
  %17 = trunc i64 %16 to i32
  %18 = insertvalue { i64*, i32 } undef, i64* %15, 0
  %19 = insertvalue { i64*, i32 } %18, i32 %17, 1
  ret { i64*, i32 } %19
}

; Function Attrs: minsize mustprogress optsize sspstrong uwtable
define linkonce_odr dso_local i64* @_ZNSt16allocator_traitsISaImEE8allocateERS0_m(%"class.std::allocator.7"* nonnull align 1 dereferenceable(1) %0, i64 %1) local_unnamed_addr #9 comdat align 2 {
  %3 = bitcast %"class.std::allocator.7"* %0 to %"class.__gnu_cxx::new_allocator.8"*
  %4 = tail call i64* @_ZN9__gnu_cxx13new_allocatorImE8allocateEmPKv(%"class.__gnu_cxx::new_allocator.8"* nonnull align 1 dereferenceable(1) %3, i64 %1, i8* null) #20
  ret i64* %4
}

; Function Attrs: minsize mustprogress optsize sspstrong uwtable
define linkonce_odr dso_local i64* @_ZN9__gnu_cxx13new_allocatorImE8allocateEmPKv(%"class.__gnu_cxx::new_allocator.8"* nonnull align 1 dereferenceable(1) %0, i64 %1, i8* %2) local_unnamed_addr #9 comdat align 2 {
  %4 = icmp ugt i64 %1, 1152921504606846975
  br i1 %4, label %5, label %9, !prof !58

5:                                                ; preds = %3
  %6 = icmp ugt i64 %1, 2305843009213693951
  br i1 %6, label %7, label %8

7:                                                ; preds = %5
  tail call void @_ZSt28__throw_bad_array_new_lengthv() #23
  unreachable

8:                                                ; preds = %5
  tail call void @_ZSt17__throw_bad_allocv() #23
  unreachable

9:                                                ; preds = %3
  %10 = shl nuw nsw i64 %1, 3
  %11 = tail call noalias nonnull i8* @_Znwm(i64 %10) #24
  %12 = bitcast i8* %11 to i64*
  ret i64* %12
}

; Function Attrs: argmemonly mustprogress nofree nounwind willreturn writeonly
declare void @llvm.memset.p0i8.i64(i8* nocapture writeonly, i8, i64, i1 immarg) #17

; Function Attrs: minsize optsize sspstrong uwtable
define linkonce_odr dso_local void @_ZNSt13_Bvector_baseISaIbEE13_M_deallocateEv(%"struct.std::_Bvector_base"* nonnull align 8 dereferenceable(40) %0) local_unnamed_addr #5 comdat align 2 personality i32 (...)* @__gxx_personality_v0 {
  %2 = getelementptr inbounds %"struct.std::_Bvector_base", %"struct.std::_Bvector_base"* %0, i64 0, i32 0, i32 0, i32 0, i32 0, i32 0
  %3 = load i64*, i64** %2, align 8, !tbaa !42
  %4 = icmp eq i64* %3, null
  br i1 %4, label %18, label %5

5:                                                ; preds = %1
  %6 = getelementptr inbounds %"struct.std::_Bvector_base", %"struct.std::_Bvector_base"* %0, i64 0, i32 0, i32 0, i32 2
  %7 = load i64*, i64** %6, align 8, !tbaa !45
  %8 = ptrtoint i64* %7 to i64
  %9 = ptrtoint i64* %3 to i64
  %10 = sub i64 %8, %9
  %11 = ashr exact i64 %10, 3
  %12 = sub nsw i64 0, %11
  %13 = getelementptr inbounds i64, i64* %7, i64 %12
  %14 = bitcast i64* %13 to i8*
  tail call void @_ZdlPv(i8* %14) #21
  store i64* null, i64** %2, align 8
  %15 = getelementptr inbounds %"struct.std::_Bvector_base", %"struct.std::_Bvector_base"* %0, i64 0, i32 0, i32 0, i32 0, i32 0, i32 1
  store i32 0, i32* %15, align 8
  %16 = getelementptr inbounds %"struct.std::_Bvector_base", %"struct.std::_Bvector_base"* %0, i64 0, i32 0, i32 0, i32 1, i32 0, i32 0
  store i64* null, i64** %16, align 8
  %17 = getelementptr inbounds %"struct.std::_Bvector_base", %"struct.std::_Bvector_base"* %0, i64 0, i32 0, i32 0, i32 1, i32 0, i32 1
  store i32 0, i32* %17, align 8
  store i64* null, i64** %6, align 8
  br label %18

18:                                               ; preds = %5, %1
  ret void
}

; Function Attrs: minsize optsize sspstrong uwtable
define linkonce_odr dso_local void @_ZNSt11_Deque_baseIiSaIiEEC2Ev(%"class.std::_Deque_base"* nonnull align 8 dereferenceable(80) %0) unnamed_addr #5 comdat align 2 personality i8* bitcast (i32 (...)* @__gxx_personality_v0 to i8*) {
  %2 = bitcast %"class.std::_Deque_base"* %0 to i8*
  tail call void @llvm.memset.p0i8.i64(i8* noundef nonnull align 8 dereferenceable(80) %2, i8 0, i64 80, i1 false) #19
  tail call void @_ZNSt11_Deque_baseIiSaIiEE17_M_initialize_mapEm(%"class.std::_Deque_base"* nonnull align 8 dereferenceable(80) %0, i64 0) #20
  ret void
}

; Function Attrs: minsize optsize sspstrong uwtable
define linkonce_odr dso_local void @_ZNSt11_Deque_baseIiSaIiEE17_M_initialize_mapEm(%"class.std::_Deque_base"* nonnull align 8 dereferenceable(80) %0, i64 %1) local_unnamed_addr #5 comdat align 2 personality i8* bitcast (i32 (...)* @__gxx_personality_v0 to i8*) {
  %3 = lshr i64 %1, 7
  %4 = add nuw nsw i64 %3, 1
  %5 = icmp ugt i64 %3, 5
  %6 = select i1 %5, i64 %3, i64 5
  %7 = add nuw nsw i64 %6, 3
  %8 = getelementptr inbounds %"class.std::_Deque_base", %"class.std::_Deque_base"* %0, i64 0, i32 0, i32 0, i32 1
  store i64 %7, i64* %8, align 8, !tbaa !78
  %9 = tail call i32** @_ZNSt11_Deque_baseIiSaIiEE15_M_allocate_mapEm(%"class.std::_Deque_base"* nonnull align 8 dereferenceable(80) %0, i64 %7) #20
  %10 = getelementptr inbounds %"class.std::_Deque_base", %"class.std::_Deque_base"* %0, i64 0, i32 0, i32 0, i32 0
  store i32** %9, i32*** %10, align 8, !tbaa !53
  %11 = load i64, i64* %8, align 8, !tbaa !78
  %12 = sub i64 %11, %4
  %13 = lshr i64 %12, 1
  %14 = getelementptr inbounds i32*, i32** %9, i64 %13
  %15 = getelementptr inbounds i32*, i32** %14, i64 %4
  invoke void @_ZNSt11_Deque_baseIiSaIiEE15_M_create_nodesEPPiS3_(%"class.std::_Deque_base"* nonnull align 8 dereferenceable(80) %0, i32** %14, i32** nonnull %15) #20
          to label %26 unwind label %16

16:                                               ; preds = %2
  %17 = landingpad { i8*, i32 }
          catch i8* null
  %18 = extractvalue { i8*, i32 } %17, 0
  %19 = tail call i8* @__cxa_begin_catch(i8* %18) #19
  %20 = bitcast %"class.std::_Deque_base"* %0 to i8**
  %21 = load i8*, i8** %20, align 8, !tbaa !53
  tail call void @_ZdlPv(i8* %21) #21
  %22 = bitcast %"class.std::_Deque_base"* %0 to i8*
  call void @llvm.memset.p0i8.i64(i8* noundef nonnull align 8 dereferenceable(16) %22, i8 0, i64 16, i1 false)
  invoke void @__cxa_rethrow() #25
          to label %45 unwind label %23

23:                                               ; preds = %16
  %24 = landingpad { i8*, i32 }
          cleanup
  invoke void @__cxa_end_catch()
          to label %25 unwind label %42

25:                                               ; preds = %23
  resume { i8*, i32 } %24

26:                                               ; preds = %2
  %27 = getelementptr inbounds %"class.std::_Deque_base", %"class.std::_Deque_base"* %0, i64 0, i32 0, i32 0, i32 2, i32 3
  store i32** %14, i32*** %27, align 8, !tbaa !37
  %28 = load i32*, i32** %14, align 8, !tbaa !19
  %29 = getelementptr inbounds %"class.std::_Deque_base", %"class.std::_Deque_base"* %0, i64 0, i32 0, i32 0, i32 2, i32 1
  store i32* %28, i32** %29, align 8, !tbaa !36
  %30 = getelementptr inbounds i32, i32* %28, i64 128
  %31 = getelementptr inbounds %"class.std::_Deque_base", %"class.std::_Deque_base"* %0, i64 0, i32 0, i32 0, i32 2, i32 2
  store i32* %30, i32** %31, align 8, !tbaa !79
  %32 = getelementptr inbounds i32*, i32** %15, i64 -1
  %33 = getelementptr inbounds %"class.std::_Deque_base", %"class.std::_Deque_base"* %0, i64 0, i32 0, i32 0, i32 3, i32 3
  store i32** %32, i32*** %33, align 8, !tbaa !37
  %34 = load i32*, i32** %32, align 8, !tbaa !19
  %35 = getelementptr inbounds %"class.std::_Deque_base", %"class.std::_Deque_base"* %0, i64 0, i32 0, i32 0, i32 3, i32 1
  store i32* %34, i32** %35, align 8, !tbaa !36
  %36 = getelementptr inbounds i32, i32* %34, i64 128
  %37 = getelementptr inbounds %"class.std::_Deque_base", %"class.std::_Deque_base"* %0, i64 0, i32 0, i32 0, i32 3, i32 2
  store i32* %36, i32** %37, align 8, !tbaa !79
  %38 = getelementptr inbounds %"class.std::_Deque_base", %"class.std::_Deque_base"* %0, i64 0, i32 0, i32 0, i32 2, i32 0
  store i32* %28, i32** %38, align 8, !tbaa !80
  %39 = and i64 %1, 127
  %40 = getelementptr inbounds i32, i32* %34, i64 %39
  %41 = getelementptr inbounds %"class.std::_Deque_base", %"class.std::_Deque_base"* %0, i64 0, i32 0, i32 0, i32 3, i32 0
  store i32* %40, i32** %41, align 8, !tbaa !81
  ret void

42:                                               ; preds = %23
  %43 = landingpad { i8*, i32 }
          catch i8* null
  %44 = extractvalue { i8*, i32 } %43, 0
  tail call void @__clang_call_terminate(i8* %44) #22
  unreachable

45:                                               ; preds = %16
  unreachable
}

; Function Attrs: minsize optsize sspstrong uwtable
define linkonce_odr dso_local i32** @_ZNSt11_Deque_baseIiSaIiEE15_M_allocate_mapEm(%"class.std::_Deque_base"* nonnull align 8 dereferenceable(80) %0, i64 %1) local_unnamed_addr #5 comdat align 2 personality i8* bitcast (i32 (...)* @__gxx_personality_v0 to i8*) {
  %3 = alloca %"class.std::allocator.16", align 1
  %4 = getelementptr inbounds %"class.std::allocator.16", %"class.std::allocator.16"* %3, i64 0, i32 0
  call void @llvm.lifetime.start.p0i8(i64 1, i8* nonnull %4) #19
  %5 = call i32** @_ZNSt16allocator_traitsISaIPiEE8allocateERS1_m(%"class.std::allocator.16"* nonnull align 1 dereferenceable(1) %3, i64 %1) #20
  call void @llvm.lifetime.end.p0i8(i64 1, i8* nonnull %4) #19
  ret i32** %5
}

; Function Attrs: minsize mustprogress optsize sspstrong uwtable
define linkonce_odr dso_local void @_ZNSt11_Deque_baseIiSaIiEE15_M_create_nodesEPPiS3_(%"class.std::_Deque_base"* nonnull align 8 dereferenceable(80) %0, i32** %1, i32** %2) local_unnamed_addr #9 comdat align 2 personality i8* bitcast (i32 (...)* @__gxx_personality_v0 to i8*) {
  br label %4

4:                                                ; preds = %9, %3
  %5 = phi i32** [ %1, %3 ], [ %10, %9 ]
  %6 = icmp ult i32** %5, %2
  br i1 %6, label %7, label %18

7:                                                ; preds = %4
  %8 = invoke i32* @_ZNSt11_Deque_baseIiSaIiEE16_M_allocate_nodeEv(%"class.std::_Deque_base"* nonnull align 8 dereferenceable(80) %0) #20
          to label %9 unwind label %11

9:                                                ; preds = %7
  store i32* %8, i32** %5, align 8, !tbaa !19
  %10 = getelementptr inbounds i32*, i32** %5, i64 1
  br label %4, !llvm.loop !82

11:                                               ; preds = %7
  %12 = landingpad { i8*, i32 }
          catch i8* null
  %13 = extractvalue { i8*, i32 } %12, 0
  %14 = tail call i8* @__cxa_begin_catch(i8* %13) #19
  tail call void @_ZNSt11_Deque_baseIiSaIiEE16_M_destroy_nodesEPPiS3_(%"class.std::_Deque_base"* nonnull align 8 dereferenceable(80) %0, i32** %1, i32** %5) #21
  invoke void @__cxa_rethrow() #25
          to label %22 unwind label %15

15:                                               ; preds = %11
  %16 = landingpad { i8*, i32 }
          cleanup
  invoke void @__cxa_end_catch()
          to label %17 unwind label %19

17:                                               ; preds = %15
  resume { i8*, i32 } %16

18:                                               ; preds = %4
  ret void

19:                                               ; preds = %15
  %20 = landingpad { i8*, i32 }
          catch i8* null
  %21 = extractvalue { i8*, i32 } %20, 0
  tail call void @__clang_call_terminate(i8* %21) #22
  unreachable

22:                                               ; preds = %11
  unreachable
}

; Function Attrs: minsize mustprogress optsize sspstrong uwtable
define linkonce_odr dso_local i32** @_ZNSt16allocator_traitsISaIPiEE8allocateERS1_m(%"class.std::allocator.16"* nonnull align 1 dereferenceable(1) %0, i64 %1) local_unnamed_addr #9 comdat align 2 {
  %3 = bitcast %"class.std::allocator.16"* %0 to %"class.__gnu_cxx::new_allocator.17"*
  %4 = tail call i32** @_ZN9__gnu_cxx13new_allocatorIPiE8allocateEmPKv(%"class.__gnu_cxx::new_allocator.17"* nonnull align 1 dereferenceable(1) %3, i64 %1, i8* null) #20
  ret i32** %4
}

; Function Attrs: minsize mustprogress optsize sspstrong uwtable
define linkonce_odr dso_local i32** @_ZN9__gnu_cxx13new_allocatorIPiE8allocateEmPKv(%"class.__gnu_cxx::new_allocator.17"* nonnull align 1 dereferenceable(1) %0, i64 %1, i8* %2) local_unnamed_addr #9 comdat align 2 {
  %4 = icmp ugt i64 %1, 1152921504606846975
  br i1 %4, label %5, label %9, !prof !58

5:                                                ; preds = %3
  %6 = icmp ugt i64 %1, 2305843009213693951
  br i1 %6, label %7, label %8

7:                                                ; preds = %5
  tail call void @_ZSt28__throw_bad_array_new_lengthv() #23
  unreachable

8:                                                ; preds = %5
  tail call void @_ZSt17__throw_bad_allocv() #23
  unreachable

9:                                                ; preds = %3
  %10 = shl nuw nsw i64 %1, 3
  %11 = tail call noalias nonnull i8* @_Znwm(i64 %10) #24
  %12 = bitcast i8* %11 to i32**
  ret i32** %12
}

; Function Attrs: minsize mustprogress optsize sspstrong uwtable
define linkonce_odr dso_local i32* @_ZNSt11_Deque_baseIiSaIiEE16_M_allocate_nodeEv(%"class.std::_Deque_base"* nonnull align 8 dereferenceable(80) %0) local_unnamed_addr #9 comdat align 2 {
  %2 = bitcast %"class.std::_Deque_base"* %0 to %"class.std::allocator"*
  %3 = tail call i32* @_ZNSt16allocator_traitsISaIiEE8allocateERS0_m(%"class.std::allocator"* nonnull align 1 dereferenceable(1) %2, i64 128) #20
  ret i32* %3
}

; Function Attrs: minsize optsize sspstrong uwtable
define linkonce_odr dso_local { i64*, i64 } @_ZNKSt13_Bit_iteratorixEl(%"struct.std::_Bit_iterator"* nonnull align 8 dereferenceable(12) %0, i64 %1) local_unnamed_addr #5 comdat align 2 {
  %3 = tail call { i64*, i32 } @_ZStplRKSt13_Bit_iteratorl(%"struct.std::_Bit_iterator"* nonnull align 8 dereferenceable(12) %0, i64 %1) #20
  %4 = extractvalue { i64*, i32 } %3, 0
  %5 = extractvalue { i64*, i32 } %3, 1
  %6 = zext i32 %5 to i64
  %7 = shl nuw i64 1, %6
  %8 = insertvalue { i64*, i64 } undef, i64* %4, 0
  %9 = insertvalue { i64*, i64 } %8, i64 %7, 1
  ret { i64*, i64 } %9
}

; Function Attrs: minsize mustprogress optsize sspstrong uwtable
define linkonce_odr dso_local void @_ZNSt5dequeIiSaIiEE9push_backERKi(%"class.std::deque"* nonnull align 8 dereferenceable(80) %0, i32* nonnull align 4 dereferenceable(4) %1) local_unnamed_addr #9 comdat align 2 {
  %3 = getelementptr inbounds %"class.std::deque", %"class.std::deque"* %0, i64 0, i32 0, i32 0, i32 0, i32 3, i32 0
  %4 = load i32*, i32** %3, align 8, !tbaa !81
  %5 = getelementptr inbounds %"class.std::deque", %"class.std::deque"* %0, i64 0, i32 0, i32 0, i32 0, i32 3, i32 2
  %6 = load i32*, i32** %5, align 8, !tbaa !83
  %7 = getelementptr inbounds i32, i32* %6, i64 -1
  %8 = icmp eq i32* %4, %7
  br i1 %8, label %12, label %9

9:                                                ; preds = %2
  %10 = load i32, i32* %1, align 4, !tbaa !5
  store i32 %10, i32* %4, align 4, !tbaa !5
  %11 = getelementptr inbounds i32, i32* %4, i64 1
  store i32* %11, i32** %3, align 8, !tbaa !81
  br label %13

12:                                               ; preds = %2
  tail call void @_ZNSt5dequeIiSaIiEE16_M_push_back_auxIJRKiEEEvDpOT_(%"class.std::deque"* nonnull align 8 dereferenceable(80) %0, i32* nonnull align 4 dereferenceable(4) %1) #20
  br label %13

13:                                               ; preds = %12, %9
  ret void
}

; Function Attrs: minsize mustprogress optsize sspstrong uwtable
define linkonce_odr dso_local void @_ZNSt5dequeIiSaIiEE16_M_push_back_auxIJRKiEEEvDpOT_(%"class.std::deque"* nonnull align 8 dereferenceable(80) %0, i32* nonnull align 4 dereferenceable(4) %1) local_unnamed_addr #9 comdat align 2 {
  %3 = tail call i64 @_ZNKSt5dequeIiSaIiEE4sizeEv(%"class.std::deque"* nonnull align 8 dereferenceable(80) %0) #21
  %4 = icmp eq i64 %3, 2305843009213693951
  br i1 %4, label %5, label %6

5:                                                ; preds = %2
  tail call void @_ZSt20__throw_length_errorPKc(i8* getelementptr inbounds ([48 x i8], [48 x i8]* @.str.2, i64 0, i64 0)) #23
  unreachable

6:                                                ; preds = %2
  tail call void @_ZNSt5dequeIiSaIiEE22_M_reserve_map_at_backEm(%"class.std::deque"* nonnull align 8 dereferenceable(80) %0, i64 1) #20
  %7 = getelementptr inbounds %"class.std::deque", %"class.std::deque"* %0, i64 0, i32 0
  %8 = tail call i32* @_ZNSt11_Deque_baseIiSaIiEE16_M_allocate_nodeEv(%"class.std::_Deque_base"* nonnull align 8 dereferenceable(80) %7) #20
  %9 = getelementptr inbounds %"class.std::deque", %"class.std::deque"* %0, i64 0, i32 0, i32 0, i32 0, i32 3, i32 3
  %10 = load i32**, i32*** %9, align 8, !tbaa !56
  %11 = getelementptr inbounds i32*, i32** %10, i64 1
  store i32* %8, i32** %11, align 8, !tbaa !19
  %12 = getelementptr inbounds %"class.std::deque", %"class.std::deque"* %0, i64 0, i32 0, i32 0, i32 0, i32 3, i32 0
  %13 = load i32*, i32** %12, align 8, !tbaa !81
  %14 = load i32, i32* %1, align 4, !tbaa !5
  store i32 %14, i32* %13, align 4, !tbaa !5
  %15 = load i32**, i32*** %9, align 8, !tbaa !56
  %16 = getelementptr inbounds i32*, i32** %15, i64 1
  store i32** %16, i32*** %9, align 8, !tbaa !37
  %17 = load i32*, i32** %16, align 8, !tbaa !19
  %18 = getelementptr inbounds %"class.std::deque", %"class.std::deque"* %0, i64 0, i32 0, i32 0, i32 0, i32 3, i32 1
  store i32* %17, i32** %18, align 8, !tbaa !36
  %19 = getelementptr inbounds i32, i32* %17, i64 128
  %20 = getelementptr inbounds %"class.std::deque", %"class.std::deque"* %0, i64 0, i32 0, i32 0, i32 0, i32 3, i32 2
  store i32* %19, i32** %20, align 8, !tbaa !79
  store i32* %17, i32** %12, align 8, !tbaa !81
  ret void
}

; Function Attrs: minsize mustprogress nounwind optsize sspstrong uwtable
define linkonce_odr dso_local i64 @_ZNKSt5dequeIiSaIiEE4sizeEv(%"class.std::deque"* nonnull align 8 dereferenceable(80) %0) local_unnamed_addr #11 comdat align 2 {
  %2 = getelementptr inbounds %"class.std::deque", %"class.std::deque"* %0, i64 0, i32 0, i32 0, i32 0, i32 3
  %3 = getelementptr inbounds %"class.std::deque", %"class.std::deque"* %0, i64 0, i32 0, i32 0, i32 0, i32 2
  %4 = tail call i64 @_ZStmiRKSt15_Deque_iteratorIiRiPiES4_(%"struct.std::_Deque_iterator"* nonnull align 8 dereferenceable(32) %2, %"struct.std::_Deque_iterator"* nonnull align 8 dereferenceable(32) %3) #21
  ret i64 %4
}

; Function Attrs: minsize mustprogress optsize sspstrong uwtable
define linkonce_odr dso_local void @_ZNSt5dequeIiSaIiEE22_M_reserve_map_at_backEm(%"class.std::deque"* nonnull align 8 dereferenceable(80) %0, i64 %1) local_unnamed_addr #9 comdat align 2 {
  %3 = add i64 %1, 1
  %4 = getelementptr inbounds %"class.std::deque", %"class.std::deque"* %0, i64 0, i32 0, i32 0, i32 0, i32 1
  %5 = load i64, i64* %4, align 8, !tbaa !78
  %6 = getelementptr inbounds %"class.std::deque", %"class.std::deque"* %0, i64 0, i32 0, i32 0, i32 0, i32 3, i32 3
  %7 = load i32**, i32*** %6, align 8, !tbaa !56
  %8 = getelementptr inbounds %"class.std::deque", %"class.std::deque"* %0, i64 0, i32 0, i32 0, i32 0, i32 0
  %9 = load i32**, i32*** %8, align 8, !tbaa !53
  %10 = ptrtoint i32** %7 to i64
  %11 = ptrtoint i32** %9 to i64
  %12 = sub i64 %10, %11
  %13 = ashr exact i64 %12, 3
  %14 = sub i64 %5, %13
  %15 = icmp ugt i64 %3, %14
  br i1 %15, label %16, label %17

16:                                               ; preds = %2
  tail call void @_ZNSt5dequeIiSaIiEE17_M_reallocate_mapEmb(%"class.std::deque"* nonnull align 8 dereferenceable(80) %0, i64 %1, i1 zeroext false) #20
  br label %17

17:                                               ; preds = %16, %2
  ret void
}

; Function Attrs: minsize mustprogress nounwind optsize sspstrong uwtable
define linkonce_odr dso_local i64 @_ZStmiRKSt15_Deque_iteratorIiRiPiES4_(%"struct.std::_Deque_iterator"* nonnull align 8 dereferenceable(32) %0, %"struct.std::_Deque_iterator"* nonnull align 8 dereferenceable(32) %1) local_unnamed_addr #11 comdat {
  %3 = getelementptr inbounds %"struct.std::_Deque_iterator", %"struct.std::_Deque_iterator"* %0, i64 0, i32 3
  %4 = load i32**, i32*** %3, align 8, !tbaa !37
  %5 = getelementptr inbounds %"struct.std::_Deque_iterator", %"struct.std::_Deque_iterator"* %1, i64 0, i32 3
  %6 = load i32**, i32*** %5, align 8, !tbaa !37
  %7 = ptrtoint i32** %4 to i64
  %8 = ptrtoint i32** %6 to i64
  %9 = sub i64 %7, %8
  %10 = ashr exact i64 %9, 3
  %11 = icmp ne i32** %4, null
  %12 = sext i1 %11 to i64
  %13 = add nsw i64 %10, %12
  %14 = shl nsw i64 %13, 7
  %15 = getelementptr inbounds %"struct.std::_Deque_iterator", %"struct.std::_Deque_iterator"* %0, i64 0, i32 0
  %16 = load i32*, i32** %15, align 8, !tbaa !31
  %17 = getelementptr inbounds %"struct.std::_Deque_iterator", %"struct.std::_Deque_iterator"* %0, i64 0, i32 1
  %18 = load i32*, i32** %17, align 8, !tbaa !36
  %19 = ptrtoint i32* %16 to i64
  %20 = ptrtoint i32* %18 to i64
  %21 = sub i64 %19, %20
  %22 = ashr exact i64 %21, 2
  %23 = add nsw i64 %14, %22
  %24 = getelementptr inbounds %"struct.std::_Deque_iterator", %"struct.std::_Deque_iterator"* %1, i64 0, i32 2
  %25 = load i32*, i32** %24, align 8, !tbaa !79
  %26 = getelementptr inbounds %"struct.std::_Deque_iterator", %"struct.std::_Deque_iterator"* %1, i64 0, i32 0
  %27 = load i32*, i32** %26, align 8, !tbaa !31
  %28 = ptrtoint i32* %25 to i64
  %29 = ptrtoint i32* %27 to i64
  %30 = sub i64 %28, %29
  %31 = ashr exact i64 %30, 2
  %32 = add nsw i64 %23, %31
  ret i64 %32
}

; Function Attrs: minsize optsize sspstrong uwtable
define linkonce_odr dso_local void @_ZNSt5dequeIiSaIiEE17_M_reallocate_mapEmb(%"class.std::deque"* nonnull align 8 dereferenceable(80) %0, i64 %1, i1 zeroext %2) local_unnamed_addr #5 comdat align 2 personality i32 (...)* @__gxx_personality_v0 {
  %4 = getelementptr inbounds %"class.std::deque", %"class.std::deque"* %0, i64 0, i32 0, i32 0, i32 0, i32 3, i32 3
  %5 = load i32**, i32*** %4, align 8, !tbaa !56
  %6 = getelementptr inbounds %"class.std::deque", %"class.std::deque"* %0, i64 0, i32 0, i32 0, i32 0, i32 2, i32 3
  %7 = load i32**, i32*** %6, align 8, !tbaa !55
  %8 = ptrtoint i32** %5 to i64
  %9 = ptrtoint i32** %7 to i64
  %10 = sub i64 %8, %9
  %11 = ashr exact i64 %10, 3
  %12 = add nsw i64 %11, 1
  %13 = add i64 %12, %1
  %14 = getelementptr inbounds %"class.std::deque", %"class.std::deque"* %0, i64 0, i32 0, i32 0, i32 0, i32 1
  %15 = load i64, i64* %14, align 8, !tbaa !78
  %16 = shl i64 %13, 1
  %17 = icmp ugt i64 %15, %16
  br i1 %17, label %18, label %42

18:                                               ; preds = %3
  %19 = getelementptr inbounds %"class.std::deque", %"class.std::deque"* %0, i64 0, i32 0, i32 0, i32 0, i32 0
  %20 = load i32**, i32*** %19, align 8, !tbaa !53
  %21 = sub i64 %15, %13
  %22 = lshr i64 %21, 1
  %23 = select i1 %2, i64 %1, i64 0
  %24 = add nsw i64 %22, %23
  %25 = getelementptr inbounds i32*, i32** %20, i64 %24
  %26 = icmp ult i32** %25, %7
  %27 = getelementptr inbounds i32*, i32** %5, i64 1
  %28 = ptrtoint i32** %27 to i64
  %29 = sub i64 %28, %9
  %30 = icmp eq i64 %29, 0
  br i1 %26, label %31, label %35

31:                                               ; preds = %18
  br i1 %30, label %68, label %32

32:                                               ; preds = %31
  %33 = bitcast i32** %25 to i8*
  %34 = bitcast i32** %7 to i8*
  tail call void @llvm.memmove.p0i8.p0i8.i64(i8* align 8 %33, i8* nonnull align 8 %34, i64 %29, i1 false) #19
  br label %68

35:                                               ; preds = %18
  br i1 %30, label %68, label %36

36:                                               ; preds = %35
  %37 = ashr exact i64 %29, 3
  %38 = sub nsw i64 %12, %37
  %39 = getelementptr inbounds i32*, i32** %25, i64 %38
  %40 = bitcast i32** %39 to i8*
  %41 = bitcast i32** %7 to i8*
  tail call void @llvm.memmove.p0i8.p0i8.i64(i8* align 8 %40, i8* align 8 %41, i64 %29, i1 false) #19
  br label %68

42:                                               ; preds = %3
  %43 = getelementptr inbounds %"class.std::deque", %"class.std::deque"* %0, i64 0, i32 0
  %44 = icmp ult i64 %15, %1
  %45 = select i1 %44, i64 %1, i64 %15
  %46 = add i64 %15, 2
  %47 = add i64 %46, %45
  %48 = tail call i32** @_ZNSt11_Deque_baseIiSaIiEE15_M_allocate_mapEm(%"class.std::_Deque_base"* nonnull align 8 dereferenceable(80) %43, i64 %47) #20
  %49 = sub i64 %47, %13
  %50 = lshr i64 %49, 1
  %51 = select i1 %2, i64 %1, i64 0
  %52 = add nsw i64 %50, %51
  %53 = getelementptr inbounds i32*, i32** %48, i64 %52
  %54 = load i32**, i32*** %6, align 8, !tbaa !55
  %55 = load i32**, i32*** %4, align 8, !tbaa !56
  %56 = getelementptr inbounds i32*, i32** %55, i64 1
  %57 = ptrtoint i32** %56 to i64
  %58 = ptrtoint i32** %54 to i64
  %59 = sub i64 %57, %58
  %60 = icmp eq i64 %59, 0
  br i1 %60, label %64, label %61

61:                                               ; preds = %42
  %62 = bitcast i32** %53 to i8*
  %63 = bitcast i32** %54 to i8*
  tail call void @llvm.memmove.p0i8.p0i8.i64(i8* align 8 %62, i8* align 8 %63, i64 %59, i1 false) #19
  br label %64

64:                                               ; preds = %42, %61
  %65 = getelementptr inbounds %"class.std::deque", %"class.std::deque"* %0, i64 0, i32 0, i32 0, i32 0, i32 0
  %66 = bitcast %"class.std::deque"* %0 to i8**
  %67 = load i8*, i8** %66, align 8, !tbaa !53
  tail call void @_ZdlPv(i8* %67) #21
  store i32** %48, i32*** %65, align 8, !tbaa !53
  store i64 %47, i64* %14, align 8, !tbaa !78
  br label %68

68:                                               ; preds = %32, %31, %36, %35, %64
  %69 = phi i32** [ %53, %64 ], [ %25, %35 ], [ %25, %36 ], [ %25, %31 ], [ %25, %32 ]
  store i32** %69, i32*** %6, align 8, !tbaa !37
  %70 = load i32*, i32** %69, align 8, !tbaa !19
  %71 = getelementptr inbounds %"class.std::deque", %"class.std::deque"* %0, i64 0, i32 0, i32 0, i32 0, i32 2, i32 1
  store i32* %70, i32** %71, align 8, !tbaa !36
  %72 = getelementptr inbounds i32, i32* %70, i64 128
  %73 = getelementptr inbounds %"class.std::deque", %"class.std::deque"* %0, i64 0, i32 0, i32 0, i32 0, i32 2, i32 2
  store i32* %72, i32** %73, align 8, !tbaa !79
  %74 = getelementptr inbounds i32*, i32** %69, i64 %11
  store i32** %74, i32*** %4, align 8, !tbaa !37
  %75 = load i32*, i32** %74, align 8, !tbaa !19
  %76 = getelementptr inbounds %"class.std::deque", %"class.std::deque"* %0, i64 0, i32 0, i32 0, i32 0, i32 3, i32 1
  store i32* %75, i32** %76, align 8, !tbaa !36
  %77 = getelementptr inbounds i32, i32* %75, i64 128
  %78 = getelementptr inbounds %"class.std::deque", %"class.std::deque"* %0, i64 0, i32 0, i32 0, i32 0, i32 3, i32 2
  store i32* %77, i32** %78, align 8, !tbaa !79
  ret void
}

; Function Attrs: minsize mustprogress nounwind optsize sspstrong uwtable
define linkonce_odr dso_local void @_ZNSt5dequeIiSaIiEE8pop_backEv(%"class.std::deque"* nonnull align 8 dereferenceable(80) %0) local_unnamed_addr #11 comdat align 2 personality i8* bitcast (i32 (...)* @__gxx_personality_v0 to i8*) {
  %2 = getelementptr inbounds %"class.std::deque", %"class.std::deque"* %0, i64 0, i32 0, i32 0, i32 0, i32 3, i32 0
  %3 = load i32*, i32** %2, align 8, !tbaa !81
  %4 = getelementptr inbounds %"class.std::deque", %"class.std::deque"* %0, i64 0, i32 0, i32 0, i32 0, i32 3, i32 1
  %5 = load i32*, i32** %4, align 8, !tbaa !84
  %6 = icmp eq i32* %3, %5
  br i1 %6, label %9, label %7

7:                                                ; preds = %1
  %8 = getelementptr inbounds i32, i32* %3, i64 -1
  store i32* %8, i32** %2, align 8, !tbaa !81
  br label %10

9:                                                ; preds = %1
  tail call void @_ZNSt5dequeIiSaIiEE15_M_pop_back_auxEv(%"class.std::deque"* nonnull align 8 dereferenceable(80) %0) #20
  br label %10

10:                                               ; preds = %9, %7
  ret void
}

; Function Attrs: minsize mustprogress nounwind optsize sspstrong uwtable
define linkonce_odr dso_local void @_ZNSt5dequeIiSaIiEE15_M_pop_back_auxEv(%"class.std::deque"* nonnull align 8 dereferenceable(80) %0) local_unnamed_addr #11 comdat align 2 personality i32 (...)* @__gxx_personality_v0 {
  %2 = getelementptr inbounds %"class.std::deque", %"class.std::deque"* %0, i64 0, i32 0, i32 0, i32 0, i32 3, i32 1
  %3 = bitcast i32** %2 to i8**
  %4 = load i8*, i8** %3, align 8, !tbaa !84
  tail call void @_ZdlPv(i8* %4) #21
  %5 = getelementptr inbounds %"class.std::deque", %"class.std::deque"* %0, i64 0, i32 0, i32 0, i32 0, i32 3, i32 3
  %6 = load i32**, i32*** %5, align 8, !tbaa !56
  %7 = getelementptr inbounds i32*, i32** %6, i64 -1
  store i32** %7, i32*** %5, align 8, !tbaa !37
  %8 = load i32*, i32** %7, align 8, !tbaa !19
  store i32* %8, i32** %2, align 8, !tbaa !36
  %9 = getelementptr inbounds i32, i32* %8, i64 128
  %10 = getelementptr inbounds %"class.std::deque", %"class.std::deque"* %0, i64 0, i32 0, i32 0, i32 0, i32 3, i32 2
  store i32* %9, i32** %10, align 8, !tbaa !79
  %11 = getelementptr inbounds i32, i32* %8, i64 127
  %12 = getelementptr inbounds %"class.std::deque", %"class.std::deque"* %0, i64 0, i32 0, i32 0, i32 0, i32 3, i32 0
  store i32* %11, i32** %12, align 8, !tbaa !81
  ret void
}

; Function Attrs: minsize optsize sspstrong uwtable
define linkonce_odr dso_local { %"struct.std::_Rb_tree_node_base"*, i8 } @_ZNSt8_Rb_treeIiiSt9_IdentityIiESt4lessIiESaIiEE16_M_insert_uniqueIRKiEESt4pairISt17_Rb_tree_iteratorIiEbEOT_(%"class.std::_Rb_tree"* nonnull align 8 dereferenceable(48) %0, i32* nonnull align 4 dereferenceable(4) %1) local_unnamed_addr #5 comdat align 2 {
  %3 = alloca %"struct.std::_Rb_tree<int, int, std::_Identity<int>, std::less<int>>::_Alloc_node", align 8
  %4 = tail call { %"struct.std::_Rb_tree_node_base"*, %"struct.std::_Rb_tree_node_base"* } @_ZNSt8_Rb_treeIiiSt9_IdentityIiESt4lessIiESaIiEE24_M_get_insert_unique_posERKi(%"class.std::_Rb_tree"* nonnull align 8 dereferenceable(48) %0, i32* nonnull align 4 dereferenceable(4) %1) #20
  %5 = extractvalue { %"struct.std::_Rb_tree_node_base"*, %"struct.std::_Rb_tree_node_base"* } %4, 0
  %6 = extractvalue { %"struct.std::_Rb_tree_node_base"*, %"struct.std::_Rb_tree_node_base"* } %4, 1
  %7 = icmp eq %"struct.std::_Rb_tree_node_base"* %6, null
  br i1 %7, label %12, label %8

8:                                                ; preds = %2
  %9 = bitcast %"struct.std::_Rb_tree<int, int, std::_Identity<int>, std::less<int>>::_Alloc_node"* %3 to i8*
  call void @llvm.lifetime.start.p0i8(i64 8, i8* nonnull %9) #19
  %10 = getelementptr inbounds %"struct.std::_Rb_tree<int, int, std::_Identity<int>, std::less<int>>::_Alloc_node", %"struct.std::_Rb_tree<int, int, std::_Identity<int>, std::less<int>>::_Alloc_node"* %3, i64 0, i32 0
  store %"class.std::_Rb_tree"* %0, %"class.std::_Rb_tree"** %10, align 8, !tbaa !19
  %11 = call %"struct.std::_Rb_tree_node_base"* @_ZNSt8_Rb_treeIiiSt9_IdentityIiESt4lessIiESaIiEE10_M_insert_IRKiNS5_11_Alloc_nodeEEESt17_Rb_tree_iteratorIiEPSt18_Rb_tree_node_baseSD_OT_RT0_(%"class.std::_Rb_tree"* nonnull align 8 dereferenceable(48) %0, %"struct.std::_Rb_tree_node_base"* %5, %"struct.std::_Rb_tree_node_base"* nonnull %6, i32* nonnull align 4 dereferenceable(4) %1, %"struct.std::_Rb_tree<int, int, std::_Identity<int>, std::less<int>>::_Alloc_node"* nonnull align 8 dereferenceable(8) %3) #20
  call void @llvm.lifetime.end.p0i8(i64 8, i8* nonnull %9) #19
  br label %12

12:                                               ; preds = %2, %8
  %13 = phi %"struct.std::_Rb_tree_node_base"* [ %11, %8 ], [ %5, %2 ]
  %14 = phi i8 [ 1, %8 ], [ 0, %2 ]
  %15 = insertvalue { %"struct.std::_Rb_tree_node_base"*, i8 } undef, %"struct.std::_Rb_tree_node_base"* %13, 0
  %16 = insertvalue { %"struct.std::_Rb_tree_node_base"*, i8 } %15, i8 %14, 1
  ret { %"struct.std::_Rb_tree_node_base"*, i8 } %16
}

; Function Attrs: minsize optsize sspstrong uwtable
define linkonce_odr dso_local { %"struct.std::_Rb_tree_node_base"*, %"struct.std::_Rb_tree_node_base"* } @_ZNSt8_Rb_treeIiiSt9_IdentityIiESt4lessIiESaIiEE24_M_get_insert_unique_posERKi(%"class.std::_Rb_tree"* nonnull align 8 dereferenceable(48) %0, i32* nonnull align 4 dereferenceable(4) %1) local_unnamed_addr #5 comdat align 2 {
  %3 = getelementptr inbounds %"class.std::_Rb_tree", %"class.std::_Rb_tree"* %0, i64 0, i32 0, i32 0, i32 0, i32 0
  %4 = getelementptr inbounds i8, i8* %3, i64 16
  %5 = bitcast i8* %4 to %"struct.std::_Rb_tree_node"**
  %6 = getelementptr inbounds i8, i8* %3, i64 8
  %7 = bitcast i8* %6 to %"struct.std::_Rb_tree_node_base"*
  %8 = load i32, i32* %1, align 4
  br label %9

9:                                                ; preds = %15, %2
  %10 = phi %"struct.std::_Rb_tree_node"** [ %5, %2 ], [ %24, %15 ]
  %11 = phi %"struct.std::_Rb_tree_node_base"* [ %7, %2 ], [ %16, %15 ]
  %12 = phi i1 [ true, %2 ], [ %20, %15 ]
  %13 = load %"struct.std::_Rb_tree_node"*, %"struct.std::_Rb_tree_node"** %10, align 8, !tbaa !19
  %14 = icmp eq %"struct.std::_Rb_tree_node"* %13, null
  br i1 %14, label %25, label %15

15:                                               ; preds = %9
  %16 = getelementptr %"struct.std::_Rb_tree_node", %"struct.std::_Rb_tree_node"* %13, i64 0, i32 0
  %17 = getelementptr inbounds %"struct.std::_Rb_tree_node", %"struct.std::_Rb_tree_node"* %13, i64 0, i32 1
  %18 = bitcast %"struct.__gnu_cxx::__aligned_membuf"* %17 to i32*
  %19 = load i32, i32* %18, align 4, !tbaa !5
  %20 = icmp slt i32 %8, %19
  %21 = getelementptr inbounds %"struct.std::_Rb_tree_node", %"struct.std::_Rb_tree_node"* %13, i64 0, i32 0, i32 2
  %22 = getelementptr inbounds %"struct.std::_Rb_tree_node", %"struct.std::_Rb_tree_node"* %13, i64 0, i32 0, i32 3
  %23 = select i1 %20, %"struct.std::_Rb_tree_node_base"** %21, %"struct.std::_Rb_tree_node_base"** %22
  %24 = bitcast %"struct.std::_Rb_tree_node_base"** %23 to %"struct.std::_Rb_tree_node"**
  br label %9, !llvm.loop !85

25:                                               ; preds = %9
  br i1 %12, label %26, label %33

26:                                               ; preds = %25
  %27 = getelementptr inbounds i8, i8* %3, i64 24
  %28 = bitcast i8* %27 to %"struct.std::_Rb_tree_node_base"**
  %29 = load %"struct.std::_Rb_tree_node_base"*, %"struct.std::_Rb_tree_node_base"** %28, align 8, !tbaa !28
  %30 = icmp eq %"struct.std::_Rb_tree_node_base"* %11, %29
  br i1 %30, label %40, label %31

31:                                               ; preds = %26
  %32 = tail call %"struct.std::_Rb_tree_node_base"* @_ZSt18_Rb_tree_decrementPSt18_Rb_tree_node_base(%"struct.std::_Rb_tree_node_base"* %11) #26
  br label %33

33:                                               ; preds = %31, %25
  %34 = phi %"struct.std::_Rb_tree_node_base"* [ %32, %31 ], [ %11, %25 ]
  %35 = getelementptr inbounds %"struct.std::_Rb_tree_node_base", %"struct.std::_Rb_tree_node_base"* %34, i64 1, i32 0
  %36 = load i32, i32* %35, align 4, !tbaa !5
  %37 = icmp slt i32 %36, %8
  %38 = select i1 %37, %"struct.std::_Rb_tree_node_base"* null, %"struct.std::_Rb_tree_node_base"* %34
  %39 = select i1 %37, %"struct.std::_Rb_tree_node_base"* %11, %"struct.std::_Rb_tree_node_base"* null
  br label %40

40:                                               ; preds = %26, %33
  %41 = phi %"struct.std::_Rb_tree_node_base"* [ %38, %33 ], [ null, %26 ]
  %42 = phi %"struct.std::_Rb_tree_node_base"* [ %39, %33 ], [ %11, %26 ]
  %43 = insertvalue { %"struct.std::_Rb_tree_node_base"*, %"struct.std::_Rb_tree_node_base"* } undef, %"struct.std::_Rb_tree_node_base"* %41, 0
  %44 = insertvalue { %"struct.std::_Rb_tree_node_base"*, %"struct.std::_Rb_tree_node_base"* } %43, %"struct.std::_Rb_tree_node_base"* %42, 1
  ret { %"struct.std::_Rb_tree_node_base"*, %"struct.std::_Rb_tree_node_base"* } %44
}

; Function Attrs: minsize optsize sspstrong uwtable
define linkonce_odr dso_local %"struct.std::_Rb_tree_node_base"* @_ZNSt8_Rb_treeIiiSt9_IdentityIiESt4lessIiESaIiEE10_M_insert_IRKiNS5_11_Alloc_nodeEEESt17_Rb_tree_iteratorIiEPSt18_Rb_tree_node_baseSD_OT_RT0_(%"class.std::_Rb_tree"* nonnull align 8 dereferenceable(48) %0, %"struct.std::_Rb_tree_node_base"* %1, %"struct.std::_Rb_tree_node_base"* %2, i32* nonnull align 4 dereferenceable(4) %3, %"struct.std::_Rb_tree<int, int, std::_Identity<int>, std::less<int>>::_Alloc_node"* nonnull align 8 dereferenceable(8) %4) local_unnamed_addr #5 comdat align 2 {
  %6 = icmp eq %"struct.std::_Rb_tree_node_base"* %1, null
  br i1 %6, label %7, label %17

7:                                                ; preds = %5
  %8 = getelementptr inbounds %"class.std::_Rb_tree", %"class.std::_Rb_tree"* %0, i64 0, i32 0, i32 0, i32 0, i32 0
  %9 = getelementptr inbounds i8, i8* %8, i64 8
  %10 = bitcast i8* %9 to %"struct.std::_Rb_tree_node_base"*
  %11 = icmp eq %"struct.std::_Rb_tree_node_base"* %10, %2
  br i1 %11, label %17, label %12

12:                                               ; preds = %7
  %13 = getelementptr inbounds %"struct.std::_Rb_tree_node_base", %"struct.std::_Rb_tree_node_base"* %2, i64 1, i32 0
  %14 = load i32, i32* %3, align 4, !tbaa !5
  %15 = load i32, i32* %13, align 4, !tbaa !5
  %16 = icmp slt i32 %14, %15
  br label %17

17:                                               ; preds = %5, %12, %7
  %18 = phi i1 [ true, %7 ], [ %16, %12 ], [ true, %5 ]
  %19 = tail call %"struct.std::_Rb_tree_node"* @_ZNKSt8_Rb_treeIiiSt9_IdentityIiESt4lessIiESaIiEE11_Alloc_nodeclIRKiEEPSt13_Rb_tree_nodeIiEOT_(%"struct.std::_Rb_tree<int, int, std::_Identity<int>, std::less<int>>::_Alloc_node"* nonnull align 8 dereferenceable(8) %4, i32* nonnull align 4 dereferenceable(4) %3) #20
  %20 = getelementptr %"struct.std::_Rb_tree_node", %"struct.std::_Rb_tree_node"* %19, i64 0, i32 0
  %21 = getelementptr inbounds %"class.std::_Rb_tree", %"class.std::_Rb_tree"* %0, i64 0, i32 0, i32 0, i32 0, i32 0
  %22 = getelementptr inbounds i8, i8* %21, i64 8
  %23 = bitcast i8* %22 to %"struct.std::_Rb_tree_node_base"*
  tail call void @_ZSt29_Rb_tree_insert_and_rebalancebPSt18_Rb_tree_node_baseS0_RS_(i1 zeroext %18, %"struct.std::_Rb_tree_node_base"* %20, %"struct.std::_Rb_tree_node_base"* %2, %"struct.std::_Rb_tree_node_base"* nonnull align 8 dereferenceable(32) %23) #21
  %24 = getelementptr inbounds i8, i8* %21, i64 40
  %25 = bitcast i8* %24 to i64*
  %26 = load i64, i64* %25, align 8, !tbaa !30
  %27 = add i64 %26, 1
  store i64 %27, i64* %25, align 8, !tbaa !30
  ret %"struct.std::_Rb_tree_node_base"* %20
}

; Function Attrs: minsize mustprogress nofree nounwind optsize readonly willreturn
declare %"struct.std::_Rb_tree_node_base"* @_ZSt18_Rb_tree_decrementPSt18_Rb_tree_node_base(%"struct.std::_Rb_tree_node_base"*) local_unnamed_addr #18

; Function Attrs: minsize mustprogress optsize sspstrong uwtable
define linkonce_odr dso_local %"struct.std::_Rb_tree_node"* @_ZNKSt8_Rb_treeIiiSt9_IdentityIiESt4lessIiESaIiEE11_Alloc_nodeclIRKiEEPSt13_Rb_tree_nodeIiEOT_(%"struct.std::_Rb_tree<int, int, std::_Identity<int>, std::less<int>>::_Alloc_node"* nonnull align 8 dereferenceable(8) %0, i32* nonnull align 4 dereferenceable(4) %1) local_unnamed_addr #9 comdat align 2 {
  %3 = getelementptr inbounds %"struct.std::_Rb_tree<int, int, std::_Identity<int>, std::less<int>>::_Alloc_node", %"struct.std::_Rb_tree<int, int, std::_Identity<int>, std::less<int>>::_Alloc_node"* %0, i64 0, i32 0
  %4 = load %"class.std::_Rb_tree"*, %"class.std::_Rb_tree"** %3, align 8, !tbaa !86
  %5 = tail call %"struct.std::_Rb_tree_node"* @_ZNSt8_Rb_treeIiiSt9_IdentityIiESt4lessIiESaIiEE14_M_create_nodeIJRKiEEEPSt13_Rb_tree_nodeIiEDpOT_(%"class.std::_Rb_tree"* nonnull align 8 dereferenceable(48) %4, i32* nonnull align 4 dereferenceable(4) %1) #20
  ret %"struct.std::_Rb_tree_node"* %5
}

; Function Attrs: minsize nounwind optsize
declare void @_ZSt29_Rb_tree_insert_and_rebalancebPSt18_Rb_tree_node_baseS0_RS_(i1 zeroext, %"struct.std::_Rb_tree_node_base"*, %"struct.std::_Rb_tree_node_base"*, %"struct.std::_Rb_tree_node_base"* nonnull align 8 dereferenceable(32)) local_unnamed_addr #1

; Function Attrs: minsize mustprogress optsize sspstrong uwtable
define linkonce_odr dso_local %"struct.std::_Rb_tree_node"* @_ZNSt8_Rb_treeIiiSt9_IdentityIiESt4lessIiESaIiEE14_M_create_nodeIJRKiEEEPSt13_Rb_tree_nodeIiEDpOT_(%"class.std::_Rb_tree"* nonnull align 8 dereferenceable(48) %0, i32* nonnull align 4 dereferenceable(4) %1) local_unnamed_addr #9 comdat align 2 {
  %3 = tail call %"struct.std::_Rb_tree_node"* @_ZNSt8_Rb_treeIiiSt9_IdentityIiESt4lessIiESaIiEE11_M_get_nodeEv(%"class.std::_Rb_tree"* nonnull align 8 dereferenceable(48) %0) #20
  %4 = getelementptr inbounds %"struct.std::_Rb_tree_node", %"struct.std::_Rb_tree_node"* %3, i64 0, i32 1
  %5 = bitcast %"struct.__gnu_cxx::__aligned_membuf"* %4 to i32*
  %6 = load i32, i32* %1, align 4, !tbaa !5
  store i32 %6, i32* %5, align 4, !tbaa !5
  ret %"struct.std::_Rb_tree_node"* %3
}

; Function Attrs: minsize mustprogress optsize sspstrong uwtable
define linkonce_odr dso_local %"struct.std::_Rb_tree_node"* @_ZNSt8_Rb_treeIiiSt9_IdentityIiESt4lessIiESaIiEE11_M_get_nodeEv(%"class.std::_Rb_tree"* nonnull align 8 dereferenceable(48) %0) local_unnamed_addr #9 comdat align 2 {
  %2 = bitcast %"class.std::_Rb_tree"* %0 to %"class.std::allocator.13"*
  %3 = tail call %"struct.std::_Rb_tree_node"* @_ZNSt16allocator_traitsISaISt13_Rb_tree_nodeIiEEE8allocateERS2_m(%"class.std::allocator.13"* nonnull align 1 dereferenceable(1) %2, i64 1) #20
  ret %"struct.std::_Rb_tree_node"* %3
}

; Function Attrs: minsize mustprogress optsize sspstrong uwtable
define linkonce_odr dso_local %"struct.std::_Rb_tree_node"* @_ZNSt16allocator_traitsISaISt13_Rb_tree_nodeIiEEE8allocateERS2_m(%"class.std::allocator.13"* nonnull align 1 dereferenceable(1) %0, i64 %1) local_unnamed_addr #9 comdat align 2 {
  %3 = bitcast %"class.std::allocator.13"* %0 to %"class.__gnu_cxx::new_allocator.14"*
  %4 = tail call %"struct.std::_Rb_tree_node"* @_ZN9__gnu_cxx13new_allocatorISt13_Rb_tree_nodeIiEE8allocateEmPKv(%"class.__gnu_cxx::new_allocator.14"* nonnull align 1 dereferenceable(1) %3, i64 %1, i8* null) #20
  ret %"struct.std::_Rb_tree_node"* %4
}

; Function Attrs: minsize mustprogress optsize sspstrong uwtable
define linkonce_odr dso_local %"struct.std::_Rb_tree_node"* @_ZN9__gnu_cxx13new_allocatorISt13_Rb_tree_nodeIiEE8allocateEmPKv(%"class.__gnu_cxx::new_allocator.14"* nonnull align 1 dereferenceable(1) %0, i64 %1, i8* %2) local_unnamed_addr #9 comdat align 2 {
  %4 = icmp ugt i64 %1, 230584300921369395
  br i1 %4, label %5, label %9, !prof !58

5:                                                ; preds = %3
  %6 = icmp ugt i64 %1, 461168601842738790
  br i1 %6, label %7, label %8

7:                                                ; preds = %5
  tail call void @_ZSt28__throw_bad_array_new_lengthv() #23
  unreachable

8:                                                ; preds = %5
  tail call void @_ZSt17__throw_bad_allocv() #23
  unreachable

9:                                                ; preds = %3
  %10 = mul nuw nsw i64 %1, 40
  %11 = tail call noalias nonnull i8* @_Znwm(i64 %10) #24
  %12 = bitcast i8* %11 to %"struct.std::_Rb_tree_node"*
  ret %"struct.std::_Rb_tree_node"* %12
}

; Function Attrs: minsize optsize sspstrong uwtable
define linkonce_odr dso_local %"struct.std::_Rb_tree_node_base"* @_ZNSt8_Rb_treeIiiSt9_IdentityIiESt4lessIiESaIiEE4findERKi(%"class.std::_Rb_tree"* nonnull align 8 dereferenceable(48) %0, i32* nonnull align 4 dereferenceable(4) %1) local_unnamed_addr #5 comdat align 2 {
  %3 = getelementptr inbounds %"class.std::_Rb_tree", %"class.std::_Rb_tree"* %0, i64 0, i32 0, i32 0, i32 0, i32 0
  %4 = getelementptr inbounds i8, i8* %3, i64 16
  %5 = bitcast i8* %4 to %"struct.std::_Rb_tree_node"**
  %6 = load %"struct.std::_Rb_tree_node"*, %"struct.std::_Rb_tree_node"** %5, align 8, !tbaa !27
  %7 = getelementptr inbounds i8, i8* %3, i64 8
  %8 = bitcast i8* %7 to %"struct.std::_Rb_tree_node_base"*
  %9 = tail call %"struct.std::_Rb_tree_node_base"* @_ZNSt8_Rb_treeIiiSt9_IdentityIiESt4lessIiESaIiEE14_M_lower_boundEPSt13_Rb_tree_nodeIiEPSt18_Rb_tree_node_baseRKi(%"class.std::_Rb_tree"* nonnull align 8 dereferenceable(48) %0, %"struct.std::_Rb_tree_node"* %6, %"struct.std::_Rb_tree_node_base"* nonnull %8, i32* nonnull align 4 dereferenceable(4) %1) #20
  %10 = icmp eq %"struct.std::_Rb_tree_node_base"* %9, %8
  br i1 %10, label %17, label %11

11:                                               ; preds = %2
  %12 = getelementptr inbounds %"struct.std::_Rb_tree_node_base", %"struct.std::_Rb_tree_node_base"* %9, i64 1, i32 0
  %13 = load i32, i32* %1, align 4, !tbaa !5
  %14 = load i32, i32* %12, align 4, !tbaa !5
  %15 = icmp slt i32 %13, %14
  %16 = select i1 %15, %"struct.std::_Rb_tree_node_base"* %8, %"struct.std::_Rb_tree_node_base"* %9
  br label %17

17:                                               ; preds = %11, %2
  %18 = phi %"struct.std::_Rb_tree_node_base"* [ %8, %2 ], [ %16, %11 ]
  ret %"struct.std::_Rb_tree_node_base"* %18
}

; Function Attrs: minsize optsize sspstrong uwtable
define linkonce_odr dso_local %"struct.std::_Rb_tree_node_base"* @_ZNSt8_Rb_treeIiiSt9_IdentityIiESt4lessIiESaIiEE14_M_lower_boundEPSt13_Rb_tree_nodeIiEPSt18_Rb_tree_node_baseRKi(%"class.std::_Rb_tree"* nonnull align 8 dereferenceable(48) %0, %"struct.std::_Rb_tree_node"* %1, %"struct.std::_Rb_tree_node_base"* %2, i32* nonnull align 4 dereferenceable(4) %3) local_unnamed_addr #5 comdat align 2 {
  %5 = load i32, i32* %3, align 4
  br label %6

6:                                                ; preds = %10, %4
  %7 = phi %"struct.std::_Rb_tree_node_base"* [ %2, %4 ], [ %18, %10 ]
  %8 = phi %"struct.std::_Rb_tree_node"* [ %1, %4 ], [ %21, %10 ]
  %9 = icmp eq %"struct.std::_Rb_tree_node"* %8, null
  br i1 %9, label %22, label %10

10:                                               ; preds = %6
  %11 = getelementptr inbounds %"struct.std::_Rb_tree_node", %"struct.std::_Rb_tree_node"* %8, i64 0, i32 1
  %12 = bitcast %"struct.__gnu_cxx::__aligned_membuf"* %11 to i32*
  %13 = load i32, i32* %12, align 4, !tbaa !5
  %14 = icmp slt i32 %13, %5
  %15 = getelementptr inbounds %"struct.std::_Rb_tree_node", %"struct.std::_Rb_tree_node"* %8, i64 0, i32 0, i32 3
  %16 = getelementptr %"struct.std::_Rb_tree_node", %"struct.std::_Rb_tree_node"* %8, i64 0, i32 0
  %17 = getelementptr inbounds %"struct.std::_Rb_tree_node", %"struct.std::_Rb_tree_node"* %8, i64 0, i32 0, i32 2
  %18 = select i1 %14, %"struct.std::_Rb_tree_node_base"* %7, %"struct.std::_Rb_tree_node_base"* %16
  %19 = select i1 %14, %"struct.std::_Rb_tree_node_base"** %15, %"struct.std::_Rb_tree_node_base"** %17
  %20 = bitcast %"struct.std::_Rb_tree_node_base"** %19 to %"struct.std::_Rb_tree_node"**
  %21 = load %"struct.std::_Rb_tree_node"*, %"struct.std::_Rb_tree_node"** %20, align 8, !tbaa !19
  br label %6, !llvm.loop !88

22:                                               ; preds = %6
  ret %"struct.std::_Rb_tree_node_base"* %7
}

; Function Attrs: minsize optsize sspstrong uwtable
define internal void @_GLOBAL__sub_I_s632738285.cpp() #5 section ".text.startup" {
  tail call void @_ZNSt8ios_base4InitC1Ev(%"class.std::ios_base::Init"* nonnull align 1 dereferenceable(1) @_ZStL8__ioinit) #20
  %1 = tail call i32 @__cxa_atexit(void (i8*)* bitcast (void (%"class.std::ios_base::Init"*)* @_ZNSt8ios_base4InitD1Ev to void (i8*)*), i8* getelementptr inbounds (%"class.std::ios_base::Init", %"class.std::ios_base::Init"* @_ZStL8__ioinit, i64 0, i32 0), i8* nonnull @__dso_handle) #19
  ret void
}

attributes #0 = { minsize optsize "frame-pointer"="none" "no-trapping-math"="true" "stack-protector-buffer-size"="8" "target-cpu"="x86-64" "target-features"="+cx8,+fxsr,+mmx,+sse,+sse2,+x87" "tune-cpu"="generic" }
attributes #1 = { minsize nounwind optsize "frame-pointer"="none" "no-trapping-math"="true" "stack-protector-buffer-size"="8" "target-cpu"="x86-64" "target-features"="+cx8,+fxsr,+mmx,+sse,+sse2,+x87" "tune-cpu"="generic" }
attributes #2 = { nofree nounwind }
attributes #3 = { minsize norecurse optsize sspstrong uwtable "frame-pointer"="none" "min-legal-vector-width"="0" "no-trapping-math"="true" "stack-protector-buffer-size"="8" "target-cpu"="x86-64" "target-features"="+cx8,+fxsr,+mmx,+sse,+sse2,+x87" "tune-cpu"="generic" }
attributes #4 = { argmemonly mustprogress nofree nosync nounwind willreturn }
attributes #5 = { minsize optsize sspstrong uwtable "frame-pointer"="none" "min-legal-vector-width"="0" "no-trapping-math"="true" "stack-protector-buffer-size"="8" "target-cpu"="x86-64" "target-features"="+cx8,+fxsr,+mmx,+sse,+sse2,+x87" "tune-cpu"="generic" }
attributes #6 = { inlinehint minsize mustprogress optsize sspstrong uwtable "frame-pointer"="none" "min-legal-vector-width"="0" "no-trapping-math"="true" "stack-protector-buffer-size"="8" "target-cpu"="x86-64" "target-features"="+cx8,+fxsr,+mmx,+sse,+sse2,+x87" "tune-cpu"="generic" }
attributes #7 = { minsize nounwind optsize sspstrong uwtable "frame-pointer"="none" "min-legal-vector-width"="0" "no-trapping-math"="true" "stack-protector-buffer-size"="8" "target-cpu"="x86-64" "target-features"="+cx8,+fxsr,+mmx,+sse,+sse2,+x87" "tune-cpu"="generic" }
attributes #8 = { noinline noreturn nounwind }
attributes #9 = { minsize mustprogress optsize sspstrong uwtable "frame-pointer"="none" "min-legal-vector-width"="0" "no-trapping-math"="true" "stack-protector-buffer-size"="8" "target-cpu"="x86-64" "target-features"="+cx8,+fxsr,+mmx,+sse,+sse2,+x87" "tune-cpu"="generic" }
attributes #10 = { minsize nobuiltin nounwind optsize "frame-pointer"="none" "no-trapping-math"="true" "stack-protector-buffer-size"="8" "target-cpu"="x86-64" "target-features"="+cx8,+fxsr,+mmx,+sse,+sse2,+x87" "tune-cpu"="generic" }
attributes #11 = { minsize mustprogress nounwind optsize sspstrong uwtable "frame-pointer"="none" "min-legal-vector-width"="0" "no-trapping-math"="true" "stack-protector-buffer-size"="8" "target-cpu"="x86-64" "target-features"="+cx8,+fxsr,+mmx,+sse,+sse2,+x87" "tune-cpu"="generic" }
attributes #12 = { minsize noreturn optsize "frame-pointer"="none" "no-trapping-math"="true" "stack-protector-buffer-size"="8" "target-cpu"="x86-64" "target-features"="+cx8,+fxsr,+mmx,+sse,+sse2,+x87" "tune-cpu"="generic" }
attributes #13 = { minsize nobuiltin optsize allocsize(0) "frame-pointer"="none" "no-trapping-math"="true" "stack-protector-buffer-size"="8" "target-cpu"="x86-64" "target-features"="+cx8,+fxsr,+mmx,+sse,+sse2,+x87" "tune-cpu"="generic" }
attributes #14 = { argmemonly mustprogress nofree nounwind willreturn }
attributes #15 = { inlinehint minsize optsize sspstrong uwtable "frame-pointer"="none" "min-legal-vector-width"="0" "no-trapping-math"="true" "stack-protector-buffer-size"="8" "target-cpu"="x86-64" "target-features"="+cx8,+fxsr,+mmx,+sse,+sse2,+x87" "tune-cpu"="generic" }
attributes #16 = { mustprogress nofree nosync nounwind readnone speculatable willreturn }
attributes #17 = { argmemonly mustprogress nofree nounwind willreturn writeonly }
attributes #18 = { minsize mustprogress nofree nounwind optsize readonly willreturn "frame-pointer"="none" "no-trapping-math"="true" "stack-protector-buffer-size"="8" "target-cpu"="x86-64" "target-features"="+cx8,+fxsr,+mmx,+sse,+sse2,+x87" "tune-cpu"="generic" }
attributes #19 = { nounwind }
attributes #20 = { minsize optsize }
attributes #21 = { minsize nounwind optsize }
attributes #22 = { noreturn nounwind }
attributes #23 = { minsize noreturn optsize }
attributes #24 = { minsize optsize allocsize(0) }
attributes #25 = { noreturn }
attributes #26 = { minsize nounwind optsize readonly willreturn }

!llvm.module.flags = !{!0, !1, !2, !3}
!llvm.ident = !{!4}

!0 = !{i32 1, !"wchar_size", i32 4}
!1 = !{i32 7, !"PIC Level", i32 2}
!2 = !{i32 7, !"PIE Level", i32 2}
!3 = !{i32 7, !"uwtable", i32 1}
!4 = !{!"clang version 13.0.0"}
!5 = !{!6, !6, i64 0}
!6 = !{!"int", !7, i64 0}
!7 = !{!"omnipotent char", !8, i64 0}
!8 = !{!"Simple C++ TBAA"}
!9 = !{!10, !11, i64 0}
!10 = !{!"_ZTSNSt12_Vector_baseIiSaIiEE17_Vector_impl_dataE", !11, i64 0, !11, i64 8, !11, i64 16}
!11 = !{!"any pointer", !7, i64 0}
!12 = distinct !{!12, !13}
!13 = !{!"llvm.loop.mustprogress"}
!14 = !{!15, !11, i64 0}
!15 = !{!"_ZTSNSt12_Vector_baseISt6vectorIiSaIiEESaIS2_EE17_Vector_impl_dataE", !11, i64 0, !11, i64 8, !11, i64 16}
!16 = distinct !{!16, !13}
!17 = !{!18, !18, i64 0}
!18 = !{!"bool", !7, i64 0}
!19 = !{!11, !11, i64 0}
!20 = distinct !{!20, !13}
!21 = !{!22, !22, i64 0}
!22 = !{!"long", !7, i64 0}
!23 = !{!24, !26, i64 0}
!24 = !{!"_ZTSSt15_Rb_tree_header", !25, i64 0, !22, i64 32}
!25 = !{!"_ZTSSt18_Rb_tree_node_base", !26, i64 0, !11, i64 8, !11, i64 16, !11, i64 24}
!26 = !{!"_ZTSSt14_Rb_tree_color", !7, i64 0}
!27 = !{!24, !11, i64 8}
!28 = !{!24, !11, i64 16}
!29 = !{!24, !11, i64 24}
!30 = !{!24, !22, i64 32}
!31 = !{!32, !11, i64 0}
!32 = !{!"_ZTSSt15_Deque_iteratorIiRiPiE", !11, i64 0, !11, i64 8, !11, i64 16, !11, i64 24}
!33 = !{!34}
!34 = distinct !{!34, !35, !"_ZNSt5dequeIiSaIiEE3endEv: argument 0"}
!35 = distinct !{!35, !"_ZNSt5dequeIiSaIiEE3endEv"}
!36 = !{!32, !11, i64 8}
!37 = !{!32, !11, i64 24}
!38 = distinct !{!38, !13}
!39 = distinct !{!39, !13}
!40 = !{!10, !11, i64 8}
!41 = !{!10, !11, i64 16}
!42 = !{!43, !11, i64 0}
!43 = !{!"_ZTSSt18_Bit_iterator_base", !11, i64 0, !6, i64 8}
!44 = !{!43, !6, i64 8}
!45 = !{!46, !11, i64 32}
!46 = !{!"_ZTSNSt13_Bvector_baseISaIbEE18_Bvector_impl_dataE", !47, i64 0, !47, i64 16, !11, i64 32}
!47 = !{!"_ZTSSt13_Bit_iterator"}
!48 = !{i8 0, i8 2}
!49 = !{!15, !11, i64 8}
!50 = !{!25, !11, i64 24}
!51 = !{!25, !11, i64 16}
!52 = distinct !{!52, !13}
!53 = !{!54, !11, i64 0}
!54 = !{!"_ZTSNSt11_Deque_baseIiSaIiEE16_Deque_impl_dataE", !11, i64 0, !22, i64 8, !32, i64 16, !32, i64 48}
!55 = !{!54, !11, i64 40}
!56 = !{!54, !11, i64 72}
!57 = distinct !{!57, !13}
!58 = !{!"branch_weights", i32 1, i32 2000}
!59 = distinct !{!59, !13}
!60 = !{!15, !11, i64 16}
!61 = distinct !{!61, !13}
!62 = distinct !{!62, !13}
!63 = !{i64 0, i64 65}
!64 = distinct !{!64, !13}
!65 = distinct !{!65, !13}
!66 = distinct !{!66, !13}
!67 = distinct !{!67, !13}
!68 = distinct !{!68, !13}
!69 = distinct !{!69, !13}
!70 = distinct !{!70, !13}
!71 = distinct !{!71, !13}
!72 = distinct !{!72, !13}
!73 = distinct !{!73, !13}
!74 = distinct !{!74, !13}
!75 = distinct !{!75, !13}
!76 = distinct !{!76, !13}
!77 = distinct !{!77, !13}
!78 = !{!54, !22, i64 8}
!79 = !{!32, !11, i64 16}
!80 = !{!54, !11, i64 16}
!81 = !{!54, !11, i64 48}
!82 = distinct !{!82, !13}
!83 = !{!54, !11, i64 64}
!84 = !{!54, !11, i64 56}
!85 = distinct !{!85, !13}
!86 = !{!87, !11, i64 0}
!87 = !{!"_ZTSNSt8_Rb_treeIiiSt9_IdentityIiESt4lessIiESaIiEE11_Alloc_nodeE", !11, i64 0}
!88 = distinct !{!88, !13}
