; ModuleID = 'Project_CodeNet_C++1400/p01315/s939891080.cpp'
source_filename = "Project_CodeNet_C++1400/p01315/s939891080.cpp"
target datalayout = "e-m:e-p270:32:32-p271:32:32-p272:64:64-i64:64-f80:128-n8:16:32:64-S128"
target triple = "x86_64-pc-linux-gnu"

%"class.std::ios_base::Init" = type { i8 }
%"class.std::basic_istream" = type { i32 (...)**, i64, %"class.std::basic_ios" }
%"class.std::basic_ios" = type { %"class.std::ios_base", %"class.std::basic_ostream"*, i8, i8, %"class.std::basic_streambuf"*, %"class.std::ctype"*, %"class.std::num_put"*, %"class.std::num_get"* }
%"class.std::ios_base" = type { i32 (...)**, i64, i64, i32, i32, i32, %"struct.std::ios_base::_Callback_list"*, %"struct.std::ios_base::_Words", [8 x %"struct.std::ios_base::_Words"], i32, %"struct.std::ios_base::_Words"*, %"class.std::locale" }
%"struct.std::ios_base::_Callback_list" = type { %"struct.std::ios_base::_Callback_list"*, void (i32, %"class.std::ios_base"*, i32)*, i32, i32 }
%"struct.std::ios_base::_Words" = type { i8*, i64 }
%"class.std::locale" = type { %"class.std::locale::_Impl"* }
%"class.std::locale::_Impl" = type { i32, %"class.std::locale::facet"**, i64, %"class.std::locale::facet"**, i8** }
%"class.std::locale::facet" = type <{ i32 (...)**, i32, [4 x i8] }>
%"class.std::basic_ostream" = type { i32 (...)**, %"class.std::basic_ios" }
%"class.std::basic_streambuf" = type { i32 (...)**, i8*, i8*, i8*, i8*, i8*, i8*, %"class.std::locale" }
%"class.std::ctype" = type <{ %"class.std::locale::facet.base", [4 x i8], %struct.__locale_struct*, i8, [7 x i8], i32*, i32*, i16*, i8, [256 x i8], [256 x i8], i8, [6 x i8] }>
%"class.std::locale::facet.base" = type <{ i32 (...)**, i32 }>
%struct.__locale_struct = type { [13 x %struct.__locale_data*], i16*, i32*, i32*, [13 x i8*] }
%struct.__locale_data = type opaque
%"class.std::num_put" = type { %"class.std::locale::facet.base", [4 x i8] }
%"class.std::num_get" = type { %"class.std::locale::facet.base", [4 x i8] }
%"class.std::__cxx11::basic_string" = type { %"struct.std::__cxx11::basic_string<char>::_Alloc_hider", i64, %union.anon }
%"struct.std::__cxx11::basic_string<char>::_Alloc_hider" = type { i8* }
%union.anon = type { i64, [8 x i8] }
%"struct.std::pair" = type { double, %"class.std::__cxx11::basic_string" }
%"struct.__gnu_cxx::__ops::_Iter_less_iter" = type { i8 }
%"struct.__gnu_cxx::__ops::_Iter_less_val" = type { i8 }

$__clang_call_terminate = comdat any

$_ZSt6__sortIPSt4pairIdNSt7__cxx1112basic_stringIcSt11char_traitsIcESaIcEEEEN9__gnu_cxx5__ops15_Iter_less_iterEEvT_SC_T0_ = comdat any

$_ZSt16__introsort_loopIPSt4pairIdNSt7__cxx1112basic_stringIcSt11char_traitsIcESaIcEEEElN9__gnu_cxx5__ops15_Iter_less_iterEEvT_SC_T0_T1_ = comdat any

$_ZSt22__final_insertion_sortIPSt4pairIdNSt7__cxx1112basic_stringIcSt11char_traitsIcESaIcEEEEN9__gnu_cxx5__ops15_Iter_less_iterEEvT_SC_T0_ = comdat any

$_ZSt14__partial_sortIPSt4pairIdNSt7__cxx1112basic_stringIcSt11char_traitsIcESaIcEEEEN9__gnu_cxx5__ops15_Iter_less_iterEEvT_SC_SC_T0_ = comdat any

$_ZSt27__unguarded_partition_pivotIPSt4pairIdNSt7__cxx1112basic_stringIcSt11char_traitsIcESaIcEEEEN9__gnu_cxx5__ops15_Iter_less_iterEET_SC_SC_T0_ = comdat any

$_ZSt13__heap_selectIPSt4pairIdNSt7__cxx1112basic_stringIcSt11char_traitsIcESaIcEEEEN9__gnu_cxx5__ops15_Iter_less_iterEEvT_SC_SC_T0_ = comdat any

$_ZSt11__sort_heapIPSt4pairIdNSt7__cxx1112basic_stringIcSt11char_traitsIcESaIcEEEEN9__gnu_cxx5__ops15_Iter_less_iterEEvT_SC_RT0_ = comdat any

$_ZSt11__make_heapIPSt4pairIdNSt7__cxx1112basic_stringIcSt11char_traitsIcESaIcEEEEN9__gnu_cxx5__ops15_Iter_less_iterEEvT_SC_RT0_ = comdat any

$_ZSt10__pop_heapIPSt4pairIdNSt7__cxx1112basic_stringIcSt11char_traitsIcESaIcEEEEN9__gnu_cxx5__ops15_Iter_less_iterEEvT_SC_SC_RT0_ = comdat any

$_ZNSt4pairIdNSt7__cxx1112basic_stringIcSt11char_traitsIcESaIcEEEEC2EOS6_ = comdat any

$_ZSt13__adjust_heapIPSt4pairIdNSt7__cxx1112basic_stringIcSt11char_traitsIcESaIcEEEElS7_N9__gnu_cxx5__ops15_Iter_less_iterEEvT_T0_SD_T1_T2_ = comdat any

$_ZNSt4pairIdNSt7__cxx1112basic_stringIcSt11char_traitsIcESaIcEEEEaSEOS6_ = comdat any

$_ZSt11__push_heapIPSt4pairIdNSt7__cxx1112basic_stringIcSt11char_traitsIcESaIcEEEElS7_N9__gnu_cxx5__ops14_Iter_less_valEEvT_T0_SD_T1_RT2_ = comdat any

$_ZStltIdNSt7__cxx1112basic_stringIcSt11char_traitsIcESaIcEEEEbRKSt4pairIT_T0_ESB_ = comdat any

$_ZStltIcSt11char_traitsIcESaIcEEbRKNSt7__cxx1112basic_stringIT_T0_T1_EESA_ = comdat any

$_ZSt22__move_median_to_firstIPSt4pairIdNSt7__cxx1112basic_stringIcSt11char_traitsIcESaIcEEEEN9__gnu_cxx5__ops15_Iter_less_iterEEvT_SC_SC_SC_T0_ = comdat any

$_ZSt21__unguarded_partitionIPSt4pairIdNSt7__cxx1112basic_stringIcSt11char_traitsIcESaIcEEEEN9__gnu_cxx5__ops15_Iter_less_iterEET_SC_SC_SC_T0_ = comdat any

$_ZNSt4pairIdNSt7__cxx1112basic_stringIcSt11char_traitsIcESaIcEEEE4swapERS6_ = comdat any

$_ZSt16__insertion_sortIPSt4pairIdNSt7__cxx1112basic_stringIcSt11char_traitsIcESaIcEEEEN9__gnu_cxx5__ops15_Iter_less_iterEEvT_SC_T0_ = comdat any

$_ZSt26__unguarded_insertion_sortIPSt4pairIdNSt7__cxx1112basic_stringIcSt11char_traitsIcESaIcEEEEN9__gnu_cxx5__ops15_Iter_less_iterEEvT_SC_T0_ = comdat any

$_ZSt25__unguarded_linear_insertIPSt4pairIdNSt7__cxx1112basic_stringIcSt11char_traitsIcESaIcEEEEN9__gnu_cxx5__ops14_Val_less_iterEEvT_T0_ = comdat any

$_ZNSt20__copy_move_backwardILb1ELb0ESt26random_access_iterator_tagE13__copy_move_bIPSt4pairIdNSt7__cxx1112basic_stringIcSt11char_traitsIcESaIcEEEESB_EET0_T_SD_SC_ = comdat any

@_ZStL8__ioinit = internal global %"class.std::ios_base::Init" zeroinitializer, align 1
@__dso_handle = external hidden global i8
@_ZSt3cin = external global %"class.std::basic_istream", align 8
@_ZSt4cout = external global %"class.std::basic_ostream", align 8
@.str = private unnamed_addr constant [2 x i8] c"#\00", align 1
@llvm.global_ctors = appending global [1 x { i32, void ()*, i8* }] [{ i32, void ()*, i8* } { i32 65535, void ()* @_GLOBAL__sub_I_s939891080.cpp, i8* null }]

; Function Attrs: minsize optsize
declare void @_ZNSt8ios_base4InitC1Ev(%"class.std::ios_base::Init"* nonnull align 1 dereferenceable(1)) unnamed_addr #0

; Function Attrs: minsize nounwind optsize
declare void @_ZNSt8ios_base4InitD1Ev(%"class.std::ios_base::Init"* nonnull align 1 dereferenceable(1)) unnamed_addr #1

; Function Attrs: nofree nounwind
declare i32 @__cxa_atexit(void (i8*)*, i8*, i8*) local_unnamed_addr #2

; Function Attrs: minsize norecurse optsize sspstrong uwtable
define dso_local i32 @main(i32 %0, i8** nocapture readnone %1) local_unnamed_addr #3 personality i8* bitcast (i32 (...)* @__gxx_personality_v0 to i8*) {
  %3 = alloca i32, align 4
  %4 = bitcast i32* %3 to i8*
  call void @llvm.lifetime.start.p0i8(i64 4, i8* nonnull %4) #15
  %5 = call nonnull align 8 dereferenceable(16) %"class.std::basic_istream"* @_ZNSirsERi(%"class.std::basic_istream"* nonnull align 8 dereferenceable(16) @_ZSt3cin, i32* nonnull align 4 dereferenceable(4) %3) #16
  br label %6

6:                                                ; preds = %175, %2
  %7 = load i32, i32* %3, align 4, !tbaa !5
  %8 = icmp eq i32 %7, 0
  br i1 %8, label %193, label %9

9:                                                ; preds = %6
  %10 = zext i32 %7 to i64
  %11 = call i8* @llvm.stacksave()
  %12 = alloca %"class.std::__cxx11::basic_string", i64 %10, align 16
  %13 = getelementptr inbounds %"class.std::__cxx11::basic_string", %"class.std::__cxx11::basic_string"* %12, i64 %10
  br label %14

14:                                               ; preds = %14, %9
  %15 = phi %"class.std::__cxx11::basic_string"* [ %12, %9 ], [ %20, %14 ]
  %16 = getelementptr inbounds %"class.std::__cxx11::basic_string", %"class.std::__cxx11::basic_string"* %15, i64 0, i32 2
  %17 = bitcast %"class.std::__cxx11::basic_string"* %15 to %union.anon**
  store %union.anon* %16, %union.anon** %17, align 8, !tbaa !9
  %18 = getelementptr inbounds %"class.std::__cxx11::basic_string", %"class.std::__cxx11::basic_string"* %15, i64 0, i32 1
  store i64 0, i64* %18, align 8, !tbaa !12
  %19 = bitcast %union.anon* %16 to i8*
  store i8 0, i8* %19, align 8, !tbaa !15
  %20 = getelementptr inbounds %"class.std::__cxx11::basic_string", %"class.std::__cxx11::basic_string"* %15, i64 1
  %21 = icmp eq %"class.std::__cxx11::basic_string"* %20, %13
  br i1 %21, label %22, label %14

22:                                               ; preds = %14
  %23 = load i32, i32* %3, align 4, !tbaa !5
  %24 = zext i32 %23 to i64
  %25 = alloca i32, i64 %24, align 16
  %26 = alloca i32, i64 %24, align 16
  %27 = alloca i32, i64 %24, align 16
  %28 = alloca i32, i64 %24, align 16
  %29 = alloca i32, i64 %24, align 16
  %30 = alloca i32, i64 %24, align 16
  %31 = alloca i32, i64 %24, align 16
  %32 = alloca i32, i64 %24, align 16
  %33 = alloca i32, i64 %24, align 16
  br label %34

34:                                               ; preds = %73, %22
  %35 = phi i32 [ %75, %73 ], [ %23, %22 ]
  %36 = phi i64 [ %74, %73 ], [ 0, %22 ]
  %37 = sext i32 %35 to i64
  %38 = icmp slt i64 %36, %37
  br i1 %38, label %43, label %39

39:                                               ; preds = %34
  %40 = zext i32 %35 to i64
  %41 = alloca %"struct.std::pair", i64 %40, align 16
  %42 = icmp eq i32 %35, 0
  br i1 %42, label %90, label %78

43:                                               ; preds = %34
  %44 = getelementptr inbounds %"class.std::__cxx11::basic_string", %"class.std::__cxx11::basic_string"* %12, i64 %36
  %45 = invoke nonnull align 8 dereferenceable(16) %"class.std::basic_istream"* @_ZStrsIcSt11char_traitsIcESaIcEERSt13basic_istreamIT_T0_ES7_RNSt7__cxx1112basic_stringIS4_S5_T1_EE(%"class.std::basic_istream"* nonnull align 8 dereferenceable(16) @_ZSt3cin, %"class.std::__cxx11::basic_string"* nonnull align 8 dereferenceable(32) %44) #16
          to label %46 unwind label %76

46:                                               ; preds = %43
  %47 = getelementptr inbounds i32, i32* %25, i64 %36
  %48 = invoke nonnull align 8 dereferenceable(16) %"class.std::basic_istream"* @_ZNSirsERi(%"class.std::basic_istream"* nonnull align 8 dereferenceable(16) %45, i32* nonnull align 4 dereferenceable(4) %47) #16
          to label %49 unwind label %76

49:                                               ; preds = %46
  %50 = getelementptr inbounds i32, i32* %26, i64 %36
  %51 = invoke nonnull align 8 dereferenceable(16) %"class.std::basic_istream"* @_ZNSirsERi(%"class.std::basic_istream"* nonnull align 8 dereferenceable(16) %48, i32* nonnull align 4 dereferenceable(4) %50) #16
          to label %52 unwind label %76

52:                                               ; preds = %49
  %53 = getelementptr inbounds i32, i32* %27, i64 %36
  %54 = invoke nonnull align 8 dereferenceable(16) %"class.std::basic_istream"* @_ZNSirsERi(%"class.std::basic_istream"* nonnull align 8 dereferenceable(16) %51, i32* nonnull align 4 dereferenceable(4) %53) #16
          to label %55 unwind label %76

55:                                               ; preds = %52
  %56 = getelementptr inbounds i32, i32* %28, i64 %36
  %57 = invoke nonnull align 8 dereferenceable(16) %"class.std::basic_istream"* @_ZNSirsERi(%"class.std::basic_istream"* nonnull align 8 dereferenceable(16) %54, i32* nonnull align 4 dereferenceable(4) %56) #16
          to label %58 unwind label %76

58:                                               ; preds = %55
  %59 = getelementptr inbounds i32, i32* %29, i64 %36
  %60 = invoke nonnull align 8 dereferenceable(16) %"class.std::basic_istream"* @_ZNSirsERi(%"class.std::basic_istream"* nonnull align 8 dereferenceable(16) %57, i32* nonnull align 4 dereferenceable(4) %59) #16
          to label %61 unwind label %76

61:                                               ; preds = %58
  %62 = getelementptr inbounds i32, i32* %30, i64 %36
  %63 = invoke nonnull align 8 dereferenceable(16) %"class.std::basic_istream"* @_ZNSirsERi(%"class.std::basic_istream"* nonnull align 8 dereferenceable(16) %60, i32* nonnull align 4 dereferenceable(4) %62) #16
          to label %64 unwind label %76

64:                                               ; preds = %61
  %65 = getelementptr inbounds i32, i32* %31, i64 %36
  %66 = invoke nonnull align 8 dereferenceable(16) %"class.std::basic_istream"* @_ZNSirsERi(%"class.std::basic_istream"* nonnull align 8 dereferenceable(16) %63, i32* nonnull align 4 dereferenceable(4) %65) #16
          to label %67 unwind label %76

67:                                               ; preds = %64
  %68 = getelementptr inbounds i32, i32* %32, i64 %36
  %69 = invoke nonnull align 8 dereferenceable(16) %"class.std::basic_istream"* @_ZNSirsERi(%"class.std::basic_istream"* nonnull align 8 dereferenceable(16) %66, i32* nonnull align 4 dereferenceable(4) %68) #16
          to label %70 unwind label %76

70:                                               ; preds = %67
  %71 = getelementptr inbounds i32, i32* %33, i64 %36
  %72 = invoke nonnull align 8 dereferenceable(16) %"class.std::basic_istream"* @_ZNSirsERi(%"class.std::basic_istream"* nonnull align 8 dereferenceable(16) %69, i32* nonnull align 4 dereferenceable(4) %71) #16
          to label %73 unwind label %76

73:                                               ; preds = %70
  %74 = add nuw nsw i64 %36, 1
  %75 = load i32, i32* %3, align 4, !tbaa !5
  br label %34, !llvm.loop !16

76:                                               ; preds = %70, %67, %64, %61, %58, %55, %52, %49, %46, %43
  %77 = landingpad { i8*, i32 }
          cleanup
  br label %186

78:                                               ; preds = %39
  %79 = getelementptr inbounds %"struct.std::pair", %"struct.std::pair"* %41, i64 %40
  br label %80

80:                                               ; preds = %80, %78
  %81 = phi %"struct.std::pair"* [ %41, %78 ], [ %88, %80 ]
  %82 = getelementptr inbounds %"struct.std::pair", %"struct.std::pair"* %81, i64 0, i32 0
  store double 0.000000e+00, double* %82, align 8, !tbaa !18
  %83 = getelementptr inbounds %"struct.std::pair", %"struct.std::pair"* %81, i64 0, i32 1
  %84 = getelementptr inbounds %"struct.std::pair", %"struct.std::pair"* %81, i64 0, i32 1, i32 2
  %85 = bitcast %"class.std::__cxx11::basic_string"* %83 to %union.anon**
  store %union.anon* %84, %union.anon** %85, align 8, !tbaa !9
  %86 = getelementptr inbounds %"struct.std::pair", %"struct.std::pair"* %81, i64 0, i32 1, i32 1
  store i64 0, i64* %86, align 8, !tbaa !12
  %87 = bitcast %union.anon* %84 to i8*
  store i8 0, i8* %87, align 8, !tbaa !15
  %88 = getelementptr inbounds %"struct.std::pair", %"struct.std::pair"* %81, i64 1
  %89 = icmp eq %"struct.std::pair"* %88, %79
  br i1 %89, label %90, label %80

90:                                               ; preds = %80, %39
  br label %91

91:                                               ; preds = %90, %101
  %92 = phi i32 [ %137, %101 ], [ %35, %90 ]
  %93 = phi i64 [ %136, %101 ], [ 0, %90 ]
  %94 = sext i32 %92 to i64
  %95 = icmp slt i64 %93, %94
  br i1 %95, label %98, label %96

96:                                               ; preds = %91
  %97 = getelementptr inbounds %"struct.std::pair", %"struct.std::pair"* %41, i64 %94
  invoke void @_ZSt6__sortIPSt4pairIdNSt7__cxx1112basic_stringIcSt11char_traitsIcESaIcEEEEN9__gnu_cxx5__ops15_Iter_less_iterEEvT_SC_T0_(%"struct.std::pair"* nonnull %41, %"struct.std::pair"* nonnull %97) #16
          to label %140 unwind label %147

98:                                               ; preds = %91
  %99 = getelementptr inbounds %"class.std::__cxx11::basic_string", %"class.std::__cxx11::basic_string"* %12, i64 %93
  %100 = getelementptr inbounds %"struct.std::pair", %"struct.std::pair"* %41, i64 %93, i32 1
  invoke void @_ZNSt7__cxx1112basic_stringIcSt11char_traitsIcESaIcEE9_M_assignERKS4_(%"class.std::__cxx11::basic_string"* nonnull align 8 dereferenceable(32) %100, %"class.std::__cxx11::basic_string"* nonnull align 8 dereferenceable(32) %99) #16
          to label %101 unwind label %138

101:                                              ; preds = %98
  %102 = getelementptr inbounds i32, i32* %31, i64 %93
  %103 = load i32, i32* %102, align 4, !tbaa !5
  %104 = sitofp i32 %103 to double
  %105 = getelementptr inbounds i32, i32* %32, i64 %93
  %106 = load i32, i32* %105, align 4, !tbaa !5
  %107 = sitofp i32 %106 to double
  %108 = fmul double %104, %107
  %109 = getelementptr inbounds i32, i32* %33, i64 %93
  %110 = load i32, i32* %109, align 4, !tbaa !5
  %111 = sitofp i32 %110 to double
  %112 = fmul double %108, %111
  %113 = getelementptr inbounds i32, i32* %25, i64 %93
  %114 = load i32, i32* %113, align 4, !tbaa !5
  %115 = sitofp i32 %114 to double
  %116 = fsub double %112, %115
  %117 = fneg double %116
  %118 = getelementptr inbounds i32, i32* %29, i64 %93
  %119 = load i32, i32* %118, align 4, !tbaa !5
  %120 = getelementptr inbounds i32, i32* %30, i64 %93
  %121 = load i32, i32* %120, align 4, !tbaa !5
  %122 = add nsw i32 %121, %119
  %123 = mul nsw i32 %122, %110
  %124 = getelementptr inbounds i32, i32* %26, i64 %93
  %125 = load i32, i32* %124, align 4, !tbaa !5
  %126 = add nsw i32 %123, %125
  %127 = getelementptr inbounds i32, i32* %27, i64 %93
  %128 = load i32, i32* %127, align 4, !tbaa !5
  %129 = add nsw i32 %126, %128
  %130 = getelementptr inbounds i32, i32* %28, i64 %93
  %131 = load i32, i32* %130, align 4, !tbaa !5
  %132 = add nsw i32 %129, %131
  %133 = sitofp i32 %132 to double
  %134 = fdiv double %117, %133
  %135 = getelementptr inbounds %"struct.std::pair", %"struct.std::pair"* %41, i64 %93, i32 0
  store double %134, double* %135, align 8, !tbaa !18
  %136 = add nuw nsw i64 %93, 1
  %137 = load i32, i32* %3, align 4, !tbaa !5
  br label %91, !llvm.loop !21

138:                                              ; preds = %98
  %139 = landingpad { i8*, i32 }
          cleanup
  br label %176

140:                                              ; preds = %96, %154
  %141 = phi i64 [ %155, %154 ], [ 0, %96 ]
  %142 = load i32, i32* %3, align 4, !tbaa !5
  %143 = sext i32 %142 to i64
  %144 = icmp slt i64 %141, %143
  br i1 %144, label %149, label %145

145:                                              ; preds = %140
  %146 = invoke nonnull align 8 dereferenceable(8) %"class.std::basic_ostream"* @_ZStlsISt11char_traitsIcEERSt13basic_ostreamIcT_ES5_PKc(%"class.std::basic_ostream"* nonnull align 8 dereferenceable(8) @_ZSt4cout, i8* getelementptr inbounds ([2 x i8], [2 x i8]* @.str, i64 0, i64 0)) #16
          to label %158 unwind label %147

147:                                              ; preds = %158, %96, %160, %145
  %148 = landingpad { i8*, i32 }
          cleanup
  br label %176

149:                                              ; preds = %140
  %150 = getelementptr inbounds %"struct.std::pair", %"struct.std::pair"* %41, i64 %141, i32 1
  %151 = invoke nonnull align 8 dereferenceable(8) %"class.std::basic_ostream"* @_ZStlsIcSt11char_traitsIcESaIcEERSt13basic_ostreamIT_T0_ES7_RKNSt7__cxx1112basic_stringIS4_S5_T1_EE(%"class.std::basic_ostream"* nonnull align 8 dereferenceable(8) @_ZSt4cout, %"class.std::__cxx11::basic_string"* nonnull align 8 dereferenceable(32) %150) #16
          to label %152 unwind label %156

152:                                              ; preds = %149
  %153 = invoke nonnull align 8 dereferenceable(8) %"class.std::basic_ostream"* @_ZSt4endlIcSt11char_traitsIcEERSt13basic_ostreamIT_T0_ES6_(%"class.std::basic_ostream"* nonnull align 8 dereferenceable(8) %151) #16
          to label %154 unwind label %156

154:                                              ; preds = %152
  %155 = add nuw nsw i64 %141, 1
  br label %140, !llvm.loop !22

156:                                              ; preds = %152, %149
  %157 = landingpad { i8*, i32 }
          cleanup
  br label %176

158:                                              ; preds = %145
  %159 = invoke nonnull align 8 dereferenceable(8) %"class.std::basic_ostream"* @_ZSt4endlIcSt11char_traitsIcEERSt13basic_ostreamIT_T0_ES6_(%"class.std::basic_ostream"* nonnull align 8 dereferenceable(8) %146) #16
          to label %160 unwind label %147

160:                                              ; preds = %158
  %161 = invoke nonnull align 8 dereferenceable(16) %"class.std::basic_istream"* @_ZNSirsERi(%"class.std::basic_istream"* nonnull align 8 dereferenceable(16) @_ZSt3cin, i32* nonnull align 4 dereferenceable(4) %3) #16
          to label %162 unwind label %147

162:                                              ; preds = %160
  br i1 %42, label %170, label %163

163:                                              ; preds = %162
  %164 = getelementptr inbounds %"struct.std::pair", %"struct.std::pair"* %41, i64 %40
  br label %165

165:                                              ; preds = %163, %165
  %166 = phi %"struct.std::pair"* [ %167, %165 ], [ %164, %163 ]
  %167 = getelementptr inbounds %"struct.std::pair", %"struct.std::pair"* %166, i64 -1
  %168 = getelementptr inbounds %"struct.std::pair", %"struct.std::pair"* %166, i64 -1, i32 1
  call void @_ZNSt7__cxx1112basic_stringIcSt11char_traitsIcESaIcEED2Ev(%"class.std::__cxx11::basic_string"* nonnull align 8 dereferenceable(32) %168) #17
  %169 = icmp eq %"struct.std::pair"* %167, %41
  br i1 %169, label %170, label %165

170:                                              ; preds = %165, %162
  br label %171

171:                                              ; preds = %170, %171
  %172 = phi %"class.std::__cxx11::basic_string"* [ %173, %171 ], [ %13, %170 ]
  %173 = getelementptr inbounds %"class.std::__cxx11::basic_string", %"class.std::__cxx11::basic_string"* %172, i64 -1
  call void @_ZNSt7__cxx1112basic_stringIcSt11char_traitsIcESaIcEED2Ev(%"class.std::__cxx11::basic_string"* nonnull align 8 dereferenceable(32) %173) #17
  %174 = icmp eq %"class.std::__cxx11::basic_string"* %173, %12
  br i1 %174, label %175, label %171

175:                                              ; preds = %171
  call void @llvm.stackrestore(i8* %11)
  br label %6, !llvm.loop !23

176:                                              ; preds = %156, %147, %138
  %177 = phi { i8*, i32 } [ %157, %156 ], [ %148, %147 ], [ %139, %138 ]
  br i1 %42, label %186, label %178

178:                                              ; preds = %176
  %179 = zext i32 %35 to i64
  %180 = getelementptr inbounds %"struct.std::pair", %"struct.std::pair"* %41, i64 %179
  br label %181

181:                                              ; preds = %178, %181
  %182 = phi %"struct.std::pair"* [ %183, %181 ], [ %180, %178 ]
  %183 = getelementptr inbounds %"struct.std::pair", %"struct.std::pair"* %182, i64 -1
  %184 = getelementptr inbounds %"struct.std::pair", %"struct.std::pair"* %182, i64 -1, i32 1
  call void @_ZNSt7__cxx1112basic_stringIcSt11char_traitsIcESaIcEED2Ev(%"class.std::__cxx11::basic_string"* nonnull align 8 dereferenceable(32) %184) #17
  %185 = icmp eq %"struct.std::pair"* %183, %41
  br i1 %185, label %186, label %181

186:                                              ; preds = %181, %176, %76
  %187 = phi { i8*, i32 } [ %77, %76 ], [ %177, %176 ], [ %177, %181 ]
  br label %188

188:                                              ; preds = %186, %188
  %189 = phi %"class.std::__cxx11::basic_string"* [ %13, %186 ], [ %190, %188 ]
  %190 = getelementptr inbounds %"class.std::__cxx11::basic_string", %"class.std::__cxx11::basic_string"* %189, i64 -1
  call void @_ZNSt7__cxx1112basic_stringIcSt11char_traitsIcESaIcEED2Ev(%"class.std::__cxx11::basic_string"* nonnull align 8 dereferenceable(32) %190) #17
  %191 = icmp eq %"class.std::__cxx11::basic_string"* %190, %12
  br i1 %191, label %192, label %188

192:                                              ; preds = %188
  call void @llvm.lifetime.end.p0i8(i64 4, i8* nonnull %4) #15
  resume { i8*, i32 } %187

193:                                              ; preds = %6
  call void @llvm.lifetime.end.p0i8(i64 4, i8* nonnull %4) #15
  ret i32 0
}

; Function Attrs: argmemonly mustprogress nofree nosync nounwind willreturn
declare void @llvm.lifetime.start.p0i8(i64 immarg, i8* nocapture) #4

; Function Attrs: minsize optsize
declare nonnull align 8 dereferenceable(16) %"class.std::basic_istream"* @_ZNSirsERi(%"class.std::basic_istream"* nonnull align 8 dereferenceable(16), i32* nonnull align 4 dereferenceable(4)) local_unnamed_addr #0

; Function Attrs: mustprogress nofree nosync nounwind willreturn
declare i8* @llvm.stacksave() #5

; Function Attrs: minsize optsize
declare nonnull align 8 dereferenceable(16) %"class.std::basic_istream"* @_ZStrsIcSt11char_traitsIcESaIcEERSt13basic_istreamIT_T0_ES7_RNSt7__cxx1112basic_stringIS4_S5_T1_EE(%"class.std::basic_istream"* nonnull align 8 dereferenceable(16), %"class.std::__cxx11::basic_string"* nonnull align 8 dereferenceable(32)) local_unnamed_addr #0

declare i32 @__gxx_personality_v0(...)

; Function Attrs: argmemonly mustprogress nofree nosync nounwind willreturn
declare void @llvm.lifetime.end.p0i8(i64 immarg, i8* nocapture) #4

; Function Attrs: inlinehint minsize mustprogress optsize sspstrong uwtable
declare nonnull align 8 dereferenceable(8) %"class.std::basic_ostream"* @_ZStlsIcSt11char_traitsIcESaIcEERSt13basic_ostreamIT_T0_ES7_RKNSt7__cxx1112basic_stringIS4_S5_T1_EE(%"class.std::basic_ostream"* nonnull align 8 dereferenceable(8), %"class.std::__cxx11::basic_string"* nonnull align 8 dereferenceable(32)) local_unnamed_addr #6

; Function Attrs: inlinehint minsize mustprogress optsize sspstrong uwtable
declare nonnull align 8 dereferenceable(8) %"class.std::basic_ostream"* @_ZSt4endlIcSt11char_traitsIcEERSt13basic_ostreamIT_T0_ES6_(%"class.std::basic_ostream"* nonnull align 8 dereferenceable(8)) local_unnamed_addr #6

; Function Attrs: inlinehint minsize mustprogress optsize sspstrong uwtable
declare nonnull align 8 dereferenceable(8) %"class.std::basic_ostream"* @_ZStlsISt11char_traitsIcEERSt13basic_ostreamIcT_ES5_PKc(%"class.std::basic_ostream"* nonnull align 8 dereferenceable(8), i8*) local_unnamed_addr #6

; Function Attrs: minsize nounwind optsize sspstrong uwtable
declare void @_ZNSt7__cxx1112basic_stringIcSt11char_traitsIcESaIcEED2Ev(%"class.std::__cxx11::basic_string"* nonnull align 8 dereferenceable(32)) unnamed_addr #7 align 2

; Function Attrs: mustprogress nofree nosync nounwind willreturn
declare void @llvm.stackrestore(i8*) #5

; Function Attrs: noinline noreturn nounwind
define linkonce_odr hidden void @__clang_call_terminate(i8* %0) local_unnamed_addr #8 comdat {
  %2 = tail call i8* @__cxa_begin_catch(i8* %0) #15
  tail call void @_ZSt9terminatev() #18
  unreachable
}

declare i8* @__cxa_begin_catch(i8*) local_unnamed_addr

declare void @_ZSt9terminatev() local_unnamed_addr

; Function Attrs: minsize optsize
declare void @_ZNSt7__cxx1112basic_stringIcSt11char_traitsIcESaIcEE9_M_assignERKS4_(%"class.std::__cxx11::basic_string"* nonnull align 8 dereferenceable(32), %"class.std::__cxx11::basic_string"* nonnull align 8 dereferenceable(32)) local_unnamed_addr #0

; Function Attrs: inlinehint minsize mustprogress optsize sspstrong uwtable
define linkonce_odr dso_local void @_ZSt6__sortIPSt4pairIdNSt7__cxx1112basic_stringIcSt11char_traitsIcESaIcEEEEN9__gnu_cxx5__ops15_Iter_less_iterEEvT_SC_T0_(%"struct.std::pair"* %0, %"struct.std::pair"* %1) local_unnamed_addr #6 comdat {
  %3 = icmp eq %"struct.std::pair"* %0, %1
  br i1 %3, label %12, label %4

4:                                                ; preds = %2
  %5 = ptrtoint %"struct.std::pair"* %1 to i64
  %6 = ptrtoint %"struct.std::pair"* %0 to i64
  %7 = sub i64 %5, %6
  %8 = sdiv exact i64 %7, 40
  %9 = tail call i64 @llvm.ctlz.i64(i64 %8, i1 true) #15, !range !24
  %10 = shl nuw nsw i64 %9, 1
  %11 = xor i64 %10, 126
  tail call void @_ZSt16__introsort_loopIPSt4pairIdNSt7__cxx1112basic_stringIcSt11char_traitsIcESaIcEEEElN9__gnu_cxx5__ops15_Iter_less_iterEEvT_SC_T0_T1_(%"struct.std::pair"* %0, %"struct.std::pair"* %1, i64 %11) #16
  tail call void @_ZSt22__final_insertion_sortIPSt4pairIdNSt7__cxx1112basic_stringIcSt11char_traitsIcESaIcEEEEN9__gnu_cxx5__ops15_Iter_less_iterEEvT_SC_T0_(%"struct.std::pair"* %0, %"struct.std::pair"* %1) #16
  br label %12

12:                                               ; preds = %4, %2
  ret void
}

; Function Attrs: minsize mustprogress optsize sspstrong uwtable
define linkonce_odr dso_local void @_ZSt16__introsort_loopIPSt4pairIdNSt7__cxx1112basic_stringIcSt11char_traitsIcESaIcEEEElN9__gnu_cxx5__ops15_Iter_less_iterEEvT_SC_T0_T1_(%"struct.std::pair"* %0, %"struct.std::pair"* %1, i64 %2) local_unnamed_addr #9 comdat {
  %4 = ptrtoint %"struct.std::pair"* %0 to i64
  br label %5

5:                                                ; preds = %14, %3
  %6 = phi i64 [ %2, %3 ], [ %15, %14 ]
  %7 = phi %"struct.std::pair"* [ %1, %3 ], [ %16, %14 ]
  %8 = ptrtoint %"struct.std::pair"* %7 to i64
  %9 = sub i64 %8, %4
  %10 = icmp sgt i64 %9, 640
  br i1 %10, label %11, label %17

11:                                               ; preds = %5
  %12 = icmp eq i64 %6, 0
  br i1 %12, label %13, label %14

13:                                               ; preds = %11
  tail call void @_ZSt14__partial_sortIPSt4pairIdNSt7__cxx1112basic_stringIcSt11char_traitsIcESaIcEEEEN9__gnu_cxx5__ops15_Iter_less_iterEEvT_SC_SC_T0_(%"struct.std::pair"* %0, %"struct.std::pair"* %7, %"struct.std::pair"* %7) #16
  br label %17

14:                                               ; preds = %11
  %15 = add nsw i64 %6, -1
  %16 = tail call %"struct.std::pair"* @_ZSt27__unguarded_partition_pivotIPSt4pairIdNSt7__cxx1112basic_stringIcSt11char_traitsIcESaIcEEEEN9__gnu_cxx5__ops15_Iter_less_iterEET_SC_SC_T0_(%"struct.std::pair"* %0, %"struct.std::pair"* %7) #16
  tail call void @_ZSt16__introsort_loopIPSt4pairIdNSt7__cxx1112basic_stringIcSt11char_traitsIcESaIcEEEElN9__gnu_cxx5__ops15_Iter_less_iterEEvT_SC_T0_T1_(%"struct.std::pair"* %16, %"struct.std::pair"* %7, i64 %15) #16
  br label %5, !llvm.loop !25

17:                                               ; preds = %5, %13
  ret void
}

; Function Attrs: minsize mustprogress optsize sspstrong uwtable
define linkonce_odr dso_local void @_ZSt22__final_insertion_sortIPSt4pairIdNSt7__cxx1112basic_stringIcSt11char_traitsIcESaIcEEEEN9__gnu_cxx5__ops15_Iter_less_iterEEvT_SC_T0_(%"struct.std::pair"* %0, %"struct.std::pair"* %1) local_unnamed_addr #9 comdat {
  %3 = ptrtoint %"struct.std::pair"* %1 to i64
  %4 = ptrtoint %"struct.std::pair"* %0 to i64
  %5 = sub i64 %3, %4
  %6 = icmp sgt i64 %5, 640
  br i1 %6, label %7, label %9

7:                                                ; preds = %2
  %8 = getelementptr inbounds %"struct.std::pair", %"struct.std::pair"* %0, i64 16
  tail call void @_ZSt16__insertion_sortIPSt4pairIdNSt7__cxx1112basic_stringIcSt11char_traitsIcESaIcEEEEN9__gnu_cxx5__ops15_Iter_less_iterEEvT_SC_T0_(%"struct.std::pair"* %0, %"struct.std::pair"* nonnull %8) #16
  tail call void @_ZSt26__unguarded_insertion_sortIPSt4pairIdNSt7__cxx1112basic_stringIcSt11char_traitsIcESaIcEEEEN9__gnu_cxx5__ops15_Iter_less_iterEEvT_SC_T0_(%"struct.std::pair"* nonnull %8, %"struct.std::pair"* %1) #16
  br label %10

9:                                                ; preds = %2
  tail call void @_ZSt16__insertion_sortIPSt4pairIdNSt7__cxx1112basic_stringIcSt11char_traitsIcESaIcEEEEN9__gnu_cxx5__ops15_Iter_less_iterEEvT_SC_T0_(%"struct.std::pair"* %0, %"struct.std::pair"* %1) #16
  br label %10

10:                                               ; preds = %9, %7
  ret void
}

; Function Attrs: inlinehint minsize mustprogress optsize sspstrong uwtable
define linkonce_odr dso_local void @_ZSt14__partial_sortIPSt4pairIdNSt7__cxx1112basic_stringIcSt11char_traitsIcESaIcEEEEN9__gnu_cxx5__ops15_Iter_less_iterEEvT_SC_SC_T0_(%"struct.std::pair"* %0, %"struct.std::pair"* %1, %"struct.std::pair"* %2) local_unnamed_addr #6 comdat {
  %4 = alloca %"struct.__gnu_cxx::__ops::_Iter_less_iter", align 1
  tail call void @_ZSt13__heap_selectIPSt4pairIdNSt7__cxx1112basic_stringIcSt11char_traitsIcESaIcEEEEN9__gnu_cxx5__ops15_Iter_less_iterEEvT_SC_SC_T0_(%"struct.std::pair"* %0, %"struct.std::pair"* %1, %"struct.std::pair"* %2) #16
  call void @_ZSt11__sort_heapIPSt4pairIdNSt7__cxx1112basic_stringIcSt11char_traitsIcESaIcEEEEN9__gnu_cxx5__ops15_Iter_less_iterEEvT_SC_RT0_(%"struct.std::pair"* %0, %"struct.std::pair"* %1, %"struct.__gnu_cxx::__ops::_Iter_less_iter"* nonnull align 1 dereferenceable(1) %4) #16
  ret void
}

; Function Attrs: inlinehint minsize mustprogress optsize sspstrong uwtable
define linkonce_odr dso_local %"struct.std::pair"* @_ZSt27__unguarded_partition_pivotIPSt4pairIdNSt7__cxx1112basic_stringIcSt11char_traitsIcESaIcEEEEN9__gnu_cxx5__ops15_Iter_less_iterEET_SC_SC_T0_(%"struct.std::pair"* %0, %"struct.std::pair"* %1) local_unnamed_addr #6 comdat {
  %3 = ptrtoint %"struct.std::pair"* %1 to i64
  %4 = ptrtoint %"struct.std::pair"* %0 to i64
  %5 = sub i64 %3, %4
  %6 = sdiv i64 %5, 80
  %7 = getelementptr inbounds %"struct.std::pair", %"struct.std::pair"* %0, i64 %6
  %8 = getelementptr inbounds %"struct.std::pair", %"struct.std::pair"* %0, i64 1
  %9 = getelementptr inbounds %"struct.std::pair", %"struct.std::pair"* %1, i64 -1
  tail call void @_ZSt22__move_median_to_firstIPSt4pairIdNSt7__cxx1112basic_stringIcSt11char_traitsIcESaIcEEEEN9__gnu_cxx5__ops15_Iter_less_iterEEvT_SC_SC_SC_T0_(%"struct.std::pair"* %0, %"struct.std::pair"* nonnull %8, %"struct.std::pair"* %7, %"struct.std::pair"* nonnull %9) #16
  %10 = tail call %"struct.std::pair"* @_ZSt21__unguarded_partitionIPSt4pairIdNSt7__cxx1112basic_stringIcSt11char_traitsIcESaIcEEEEN9__gnu_cxx5__ops15_Iter_less_iterEET_SC_SC_SC_T0_(%"struct.std::pair"* nonnull %8, %"struct.std::pair"* %1, %"struct.std::pair"* %0) #16
  ret %"struct.std::pair"* %10
}

; Function Attrs: minsize mustprogress optsize sspstrong uwtable
define linkonce_odr dso_local void @_ZSt13__heap_selectIPSt4pairIdNSt7__cxx1112basic_stringIcSt11char_traitsIcESaIcEEEEN9__gnu_cxx5__ops15_Iter_less_iterEEvT_SC_SC_T0_(%"struct.std::pair"* %0, %"struct.std::pair"* %1, %"struct.std::pair"* %2) local_unnamed_addr #9 comdat {
  %4 = alloca %"struct.__gnu_cxx::__ops::_Iter_less_iter", align 1
  call void @_ZSt11__make_heapIPSt4pairIdNSt7__cxx1112basic_stringIcSt11char_traitsIcESaIcEEEEN9__gnu_cxx5__ops15_Iter_less_iterEEvT_SC_RT0_(%"struct.std::pair"* %0, %"struct.std::pair"* %1, %"struct.__gnu_cxx::__ops::_Iter_less_iter"* nonnull align 1 dereferenceable(1) %4) #16
  br label %5

5:                                                ; preds = %12, %3
  %6 = phi %"struct.std::pair"* [ %1, %3 ], [ %13, %12 ]
  %7 = icmp ult %"struct.std::pair"* %6, %2
  br i1 %7, label %9, label %8

8:                                                ; preds = %5
  ret void

9:                                                ; preds = %5
  %10 = call zeroext i1 @_ZStltIdNSt7__cxx1112basic_stringIcSt11char_traitsIcESaIcEEEEbRKSt4pairIT_T0_ESB_(%"struct.std::pair"* nonnull align 8 dereferenceable(40) %6, %"struct.std::pair"* nonnull align 8 dereferenceable(40) %0) #17
  br i1 %10, label %11, label %12

11:                                               ; preds = %9
  call void @_ZSt10__pop_heapIPSt4pairIdNSt7__cxx1112basic_stringIcSt11char_traitsIcESaIcEEEEN9__gnu_cxx5__ops15_Iter_less_iterEEvT_SC_SC_RT0_(%"struct.std::pair"* nonnull %0, %"struct.std::pair"* %1, %"struct.std::pair"* nonnull %6, %"struct.__gnu_cxx::__ops::_Iter_less_iter"* nonnull align 1 dereferenceable(1) %4) #16
  br label %12

12:                                               ; preds = %9, %11
  %13 = getelementptr inbounds %"struct.std::pair", %"struct.std::pair"* %6, i64 1
  br label %5, !llvm.loop !26
}

; Function Attrs: minsize mustprogress optsize sspstrong uwtable
define linkonce_odr dso_local void @_ZSt11__sort_heapIPSt4pairIdNSt7__cxx1112basic_stringIcSt11char_traitsIcESaIcEEEEN9__gnu_cxx5__ops15_Iter_less_iterEEvT_SC_RT0_(%"struct.std::pair"* %0, %"struct.std::pair"* %1, %"struct.__gnu_cxx::__ops::_Iter_less_iter"* nonnull align 1 dereferenceable(1) %2) local_unnamed_addr #9 comdat {
  %4 = ptrtoint %"struct.std::pair"* %0 to i64
  br label %5

5:                                                ; preds = %10, %3
  %6 = phi %"struct.std::pair"* [ %1, %3 ], [ %11, %10 ]
  %7 = ptrtoint %"struct.std::pair"* %6 to i64
  %8 = sub i64 %7, %4
  %9 = icmp sgt i64 %8, 40
  br i1 %9, label %10, label %12

10:                                               ; preds = %5
  %11 = getelementptr inbounds %"struct.std::pair", %"struct.std::pair"* %6, i64 -1
  tail call void @_ZSt10__pop_heapIPSt4pairIdNSt7__cxx1112basic_stringIcSt11char_traitsIcESaIcEEEEN9__gnu_cxx5__ops15_Iter_less_iterEEvT_SC_SC_RT0_(%"struct.std::pair"* %0, %"struct.std::pair"* nonnull %11, %"struct.std::pair"* nonnull %11, %"struct.__gnu_cxx::__ops::_Iter_less_iter"* nonnull align 1 dereferenceable(1) %2) #16
  br label %5, !llvm.loop !27

12:                                               ; preds = %5
  ret void
}

; Function Attrs: minsize optsize sspstrong uwtable
define linkonce_odr dso_local void @_ZSt11__make_heapIPSt4pairIdNSt7__cxx1112basic_stringIcSt11char_traitsIcESaIcEEEEN9__gnu_cxx5__ops15_Iter_less_iterEEvT_SC_RT0_(%"struct.std::pair"* %0, %"struct.std::pair"* %1, %"struct.__gnu_cxx::__ops::_Iter_less_iter"* nonnull align 1 dereferenceable(1) %2) local_unnamed_addr #10 comdat personality i8* bitcast (i32 (...)* @__gxx_personality_v0 to i8*) {
  %4 = alloca %"struct.std::pair", align 8
  %5 = alloca %"struct.std::pair", align 8
  %6 = ptrtoint %"struct.std::pair"* %1 to i64
  %7 = ptrtoint %"struct.std::pair"* %0 to i64
  %8 = sub i64 %6, %7
  %9 = sdiv exact i64 %8, 40
  %10 = icmp slt i64 %8, 80
  br i1 %10, label %25, label %11

11:                                               ; preds = %3
  %12 = add nsw i64 %9, -2
  %13 = sdiv i64 %12, 2
  %14 = bitcast %"struct.std::pair"* %4 to i8*
  %15 = getelementptr inbounds %"struct.std::pair", %"struct.std::pair"* %5, i64 0, i32 1
  %16 = getelementptr inbounds %"struct.std::pair", %"struct.std::pair"* %4, i64 0, i32 1
  br label %17

17:                                               ; preds = %20, %11
  %18 = phi i64 [ %13, %11 ], [ %22, %20 ]
  call void @llvm.lifetime.start.p0i8(i64 40, i8* nonnull %14) #15
  %19 = getelementptr inbounds %"struct.std::pair", %"struct.std::pair"* %0, i64 %18
  call void @_ZNSt4pairIdNSt7__cxx1112basic_stringIcSt11char_traitsIcESaIcEEEEC2EOS6_(%"struct.std::pair"* nonnull align 8 dereferenceable(40) %4, %"struct.std::pair"* nonnull align 8 dereferenceable(40) %19) #17
  call void @_ZNSt4pairIdNSt7__cxx1112basic_stringIcSt11char_traitsIcESaIcEEEEC2EOS6_(%"struct.std::pair"* nonnull align 8 dereferenceable(40) %5, %"struct.std::pair"* nonnull align 8 dereferenceable(40) %4) #17
  invoke void @_ZSt13__adjust_heapIPSt4pairIdNSt7__cxx1112basic_stringIcSt11char_traitsIcESaIcEEEElS7_N9__gnu_cxx5__ops15_Iter_less_iterEEvT_T0_SD_T1_T2_(%"struct.std::pair"* %0, i64 %18, i64 %9, %"struct.std::pair"* nonnull %5) #16
          to label %20 unwind label %23

20:                                               ; preds = %17
  call void @_ZNSt7__cxx1112basic_stringIcSt11char_traitsIcESaIcEED2Ev(%"class.std::__cxx11::basic_string"* nonnull align 8 dereferenceable(32) %15) #17
  %21 = icmp eq i64 %18, 0
  %22 = add nsw i64 %18, -1
  call void @_ZNSt7__cxx1112basic_stringIcSt11char_traitsIcESaIcEED2Ev(%"class.std::__cxx11::basic_string"* nonnull align 8 dereferenceable(32) %16) #17
  call void @llvm.lifetime.end.p0i8(i64 40, i8* nonnull %14) #15
  br i1 %21, label %25, label %17, !llvm.loop !28

23:                                               ; preds = %17
  %24 = landingpad { i8*, i32 }
          cleanup
  call void @_ZNSt7__cxx1112basic_stringIcSt11char_traitsIcESaIcEED2Ev(%"class.std::__cxx11::basic_string"* nonnull align 8 dereferenceable(32) %15) #17
  call void @_ZNSt7__cxx1112basic_stringIcSt11char_traitsIcESaIcEED2Ev(%"class.std::__cxx11::basic_string"* nonnull align 8 dereferenceable(32) %16) #17
  call void @llvm.lifetime.end.p0i8(i64 40, i8* nonnull %14) #15
  resume { i8*, i32 } %24

25:                                               ; preds = %20, %3
  ret void
}

; Function Attrs: inlinehint minsize optsize sspstrong uwtable
define linkonce_odr dso_local void @_ZSt10__pop_heapIPSt4pairIdNSt7__cxx1112basic_stringIcSt11char_traitsIcESaIcEEEEN9__gnu_cxx5__ops15_Iter_less_iterEEvT_SC_SC_RT0_(%"struct.std::pair"* %0, %"struct.std::pair"* %1, %"struct.std::pair"* %2, %"struct.__gnu_cxx::__ops::_Iter_less_iter"* nonnull align 1 dereferenceable(1) %3) local_unnamed_addr #11 comdat personality i8* bitcast (i32 (...)* @__gxx_personality_v0 to i8*) {
  %5 = alloca %"struct.std::pair", align 8
  %6 = alloca %"struct.std::pair", align 8
  %7 = bitcast %"struct.std::pair"* %5 to i8*
  call void @llvm.lifetime.start.p0i8(i64 40, i8* nonnull %7) #15
  call void @_ZNSt4pairIdNSt7__cxx1112basic_stringIcSt11char_traitsIcESaIcEEEEC2EOS6_(%"struct.std::pair"* nonnull align 8 dereferenceable(40) %5, %"struct.std::pair"* nonnull align 8 dereferenceable(40) %2) #17
  %8 = call nonnull align 8 dereferenceable(40) %"struct.std::pair"* @_ZNSt4pairIdNSt7__cxx1112basic_stringIcSt11char_traitsIcESaIcEEEEaSEOS6_(%"struct.std::pair"* nonnull align 8 dereferenceable(40) %2, %"struct.std::pair"* nonnull align 8 dereferenceable(40) %0) #17
  %9 = ptrtoint %"struct.std::pair"* %1 to i64
  %10 = ptrtoint %"struct.std::pair"* %0 to i64
  %11 = sub i64 %9, %10
  %12 = sdiv exact i64 %11, 40
  call void @_ZNSt4pairIdNSt7__cxx1112basic_stringIcSt11char_traitsIcESaIcEEEEC2EOS6_(%"struct.std::pair"* nonnull align 8 dereferenceable(40) %6, %"struct.std::pair"* nonnull align 8 dereferenceable(40) %5) #17
  invoke void @_ZSt13__adjust_heapIPSt4pairIdNSt7__cxx1112basic_stringIcSt11char_traitsIcESaIcEEEElS7_N9__gnu_cxx5__ops15_Iter_less_iterEEvT_T0_SD_T1_T2_(%"struct.std::pair"* nonnull %0, i64 0, i64 %12, %"struct.std::pair"* nonnull %6) #16
          to label %13 unwind label %16

13:                                               ; preds = %4
  %14 = getelementptr inbounds %"struct.std::pair", %"struct.std::pair"* %6, i64 0, i32 1
  call void @_ZNSt7__cxx1112basic_stringIcSt11char_traitsIcESaIcEED2Ev(%"class.std::__cxx11::basic_string"* nonnull align 8 dereferenceable(32) %14) #17
  %15 = getelementptr inbounds %"struct.std::pair", %"struct.std::pair"* %5, i64 0, i32 1
  call void @_ZNSt7__cxx1112basic_stringIcSt11char_traitsIcESaIcEED2Ev(%"class.std::__cxx11::basic_string"* nonnull align 8 dereferenceable(32) %15) #17
  call void @llvm.lifetime.end.p0i8(i64 40, i8* nonnull %7) #15
  ret void

16:                                               ; preds = %4
  %17 = landingpad { i8*, i32 }
          cleanup
  %18 = getelementptr inbounds %"struct.std::pair", %"struct.std::pair"* %6, i64 0, i32 1
  call void @_ZNSt7__cxx1112basic_stringIcSt11char_traitsIcESaIcEED2Ev(%"class.std::__cxx11::basic_string"* nonnull align 8 dereferenceable(32) %18) #17
  %19 = getelementptr inbounds %"struct.std::pair", %"struct.std::pair"* %5, i64 0, i32 1
  call void @_ZNSt7__cxx1112basic_stringIcSt11char_traitsIcESaIcEED2Ev(%"class.std::__cxx11::basic_string"* nonnull align 8 dereferenceable(32) %19) #17
  call void @llvm.lifetime.end.p0i8(i64 40, i8* nonnull %7) #15
  resume { i8*, i32 } %17
}

; Function Attrs: minsize nounwind optsize sspstrong uwtable
define linkonce_odr dso_local void @_ZNSt4pairIdNSt7__cxx1112basic_stringIcSt11char_traitsIcESaIcEEEEC2EOS6_(%"struct.std::pair"* nonnull align 8 dereferenceable(40) %0, %"struct.std::pair"* nonnull align 8 dereferenceable(40) %1) unnamed_addr #7 comdat align 2 {
  %3 = getelementptr inbounds %"struct.std::pair", %"struct.std::pair"* %0, i64 0, i32 0
  %4 = getelementptr inbounds %"struct.std::pair", %"struct.std::pair"* %1, i64 0, i32 0
  %5 = load double, double* %4, align 8, !tbaa !18
  store double %5, double* %3, align 8, !tbaa !18
  %6 = getelementptr inbounds %"struct.std::pair", %"struct.std::pair"* %0, i64 0, i32 1
  %7 = getelementptr inbounds %"struct.std::pair", %"struct.std::pair"* %1, i64 0, i32 1
  tail call void @_ZNSt7__cxx1112basic_stringIcSt11char_traitsIcESaIcEEC2EOS4_(%"class.std::__cxx11::basic_string"* nonnull align 8 dereferenceable(32) %6, %"class.std::__cxx11::basic_string"* nonnull align 8 dereferenceable(32) %7) #17
  ret void
}

; Function Attrs: minsize optsize sspstrong uwtable
define linkonce_odr dso_local void @_ZSt13__adjust_heapIPSt4pairIdNSt7__cxx1112basic_stringIcSt11char_traitsIcESaIcEEEElS7_N9__gnu_cxx5__ops15_Iter_less_iterEEvT_T0_SD_T1_T2_(%"struct.std::pair"* %0, i64 %1, i64 %2, %"struct.std::pair"* %3) local_unnamed_addr #10 comdat personality i8* bitcast (i32 (...)* @__gxx_personality_v0 to i8*) {
  %5 = alloca %"struct.__gnu_cxx::__ops::_Iter_less_val", align 1
  %6 = alloca %"struct.std::pair", align 8
  %7 = add nsw i64 %2, -1
  %8 = sdiv i64 %7, 2
  br label %9

9:                                                ; preds = %12, %4
  %10 = phi i64 [ %1, %4 ], [ %19, %12 ]
  %11 = icmp slt i64 %10, %8
  br i1 %11, label %12, label %23

12:                                               ; preds = %9
  %13 = shl i64 %10, 1
  %14 = add i64 %13, 2
  %15 = getelementptr inbounds %"struct.std::pair", %"struct.std::pair"* %0, i64 %14
  %16 = or i64 %13, 1
  %17 = getelementptr inbounds %"struct.std::pair", %"struct.std::pair"* %0, i64 %16
  %18 = tail call zeroext i1 @_ZStltIdNSt7__cxx1112basic_stringIcSt11char_traitsIcESaIcEEEEbRKSt4pairIT_T0_ESB_(%"struct.std::pair"* nonnull align 8 dereferenceable(40) %15, %"struct.std::pair"* nonnull align 8 dereferenceable(40) %17) #17
  %19 = select i1 %18, i64 %16, i64 %14
  %20 = getelementptr inbounds %"struct.std::pair", %"struct.std::pair"* %0, i64 %19
  %21 = getelementptr inbounds %"struct.std::pair", %"struct.std::pair"* %0, i64 %10
  %22 = tail call nonnull align 8 dereferenceable(40) %"struct.std::pair"* @_ZNSt4pairIdNSt7__cxx1112basic_stringIcSt11char_traitsIcESaIcEEEEaSEOS6_(%"struct.std::pair"* nonnull align 8 dereferenceable(40) %21, %"struct.std::pair"* nonnull align 8 dereferenceable(40) %20) #17
  br label %9, !llvm.loop !29

23:                                               ; preds = %9
  %24 = and i64 %2, 1
  %25 = icmp eq i64 %24, 0
  br i1 %25, label %26, label %36

26:                                               ; preds = %23
  %27 = add nsw i64 %2, -2
  %28 = sdiv i64 %27, 2
  %29 = icmp eq i64 %10, %28
  br i1 %29, label %30, label %36

30:                                               ; preds = %26
  %31 = shl i64 %10, 1
  %32 = or i64 %31, 1
  %33 = getelementptr inbounds %"struct.std::pair", %"struct.std::pair"* %0, i64 %32
  %34 = getelementptr inbounds %"struct.std::pair", %"struct.std::pair"* %0, i64 %10
  %35 = tail call nonnull align 8 dereferenceable(40) %"struct.std::pair"* @_ZNSt4pairIdNSt7__cxx1112basic_stringIcSt11char_traitsIcESaIcEEEEaSEOS6_(%"struct.std::pair"* nonnull align 8 dereferenceable(40) %34, %"struct.std::pair"* nonnull align 8 dereferenceable(40) %33) #17
  br label %36

36:                                               ; preds = %30, %26, %23
  %37 = phi i64 [ %32, %30 ], [ %10, %26 ], [ %10, %23 ]
  %38 = getelementptr inbounds %"struct.__gnu_cxx::__ops::_Iter_less_val", %"struct.__gnu_cxx::__ops::_Iter_less_val"* %5, i64 0, i32 0
  call void @llvm.lifetime.start.p0i8(i64 1, i8* nonnull %38) #15
  call void @_ZNSt4pairIdNSt7__cxx1112basic_stringIcSt11char_traitsIcESaIcEEEEC2EOS6_(%"struct.std::pair"* nonnull align 8 dereferenceable(40) %6, %"struct.std::pair"* nonnull align 8 dereferenceable(40) %3) #17
  invoke void @_ZSt11__push_heapIPSt4pairIdNSt7__cxx1112basic_stringIcSt11char_traitsIcESaIcEEEElS7_N9__gnu_cxx5__ops14_Iter_less_valEEvT_T0_SD_T1_RT2_(%"struct.std::pair"* %0, i64 %37, i64 %1, %"struct.std::pair"* nonnull %6, %"struct.__gnu_cxx::__ops::_Iter_less_val"* nonnull align 1 dereferenceable(1) %5) #16
          to label %39 unwind label %41

39:                                               ; preds = %36
  %40 = getelementptr inbounds %"struct.std::pair", %"struct.std::pair"* %6, i64 0, i32 1
  call void @_ZNSt7__cxx1112basic_stringIcSt11char_traitsIcESaIcEED2Ev(%"class.std::__cxx11::basic_string"* nonnull align 8 dereferenceable(32) %40) #17
  call void @llvm.lifetime.end.p0i8(i64 1, i8* nonnull %38) #15
  ret void

41:                                               ; preds = %36
  %42 = landingpad { i8*, i32 }
          cleanup
  %43 = getelementptr inbounds %"struct.std::pair", %"struct.std::pair"* %6, i64 0, i32 1
  call void @_ZNSt7__cxx1112basic_stringIcSt11char_traitsIcESaIcEED2Ev(%"class.std::__cxx11::basic_string"* nonnull align 8 dereferenceable(32) %43) #17
  call void @llvm.lifetime.end.p0i8(i64 1, i8* nonnull %38) #15
  resume { i8*, i32 } %42
}

; Function Attrs: minsize nounwind optsize sspstrong uwtable
declare void @_ZNSt7__cxx1112basic_stringIcSt11char_traitsIcESaIcEEC2EOS4_(%"class.std::__cxx11::basic_string"* nonnull align 8 dereferenceable(32), %"class.std::__cxx11::basic_string"* nonnull align 8 dereferenceable(32)) unnamed_addr #7 align 2

; Function Attrs: minsize mustprogress nounwind optsize sspstrong uwtable
define linkonce_odr dso_local nonnull align 8 dereferenceable(40) %"struct.std::pair"* @_ZNSt4pairIdNSt7__cxx1112basic_stringIcSt11char_traitsIcESaIcEEEEaSEOS6_(%"struct.std::pair"* nonnull align 8 dereferenceable(40) %0, %"struct.std::pair"* nonnull align 8 dereferenceable(40) %1) local_unnamed_addr #12 comdat align 2 {
  %3 = getelementptr inbounds %"struct.std::pair", %"struct.std::pair"* %1, i64 0, i32 0
  %4 = load double, double* %3, align 8, !tbaa !30
  %5 = getelementptr inbounds %"struct.std::pair", %"struct.std::pair"* %0, i64 0, i32 0
  store double %4, double* %5, align 8, !tbaa !18
  %6 = getelementptr inbounds %"struct.std::pair", %"struct.std::pair"* %1, i64 0, i32 1
  %7 = getelementptr inbounds %"struct.std::pair", %"struct.std::pair"* %0, i64 0, i32 1
  %8 = tail call nonnull align 8 dereferenceable(32) %"class.std::__cxx11::basic_string"* @_ZNSt7__cxx1112basic_stringIcSt11char_traitsIcESaIcEEaSEOS4_(%"class.std::__cxx11::basic_string"* nonnull align 8 dereferenceable(32) %7, %"class.std::__cxx11::basic_string"* nonnull align 8 dereferenceable(32) %6) #17
  ret %"struct.std::pair"* %0
}

; Function Attrs: minsize mustprogress optsize sspstrong uwtable
define linkonce_odr dso_local void @_ZSt11__push_heapIPSt4pairIdNSt7__cxx1112basic_stringIcSt11char_traitsIcESaIcEEEElS7_N9__gnu_cxx5__ops14_Iter_less_valEEvT_T0_SD_T1_RT2_(%"struct.std::pair"* %0, i64 %1, i64 %2, %"struct.std::pair"* %3, %"struct.__gnu_cxx::__ops::_Iter_less_val"* nonnull align 1 dereferenceable(1) %4) local_unnamed_addr #9 comdat {
  br label %6

6:                                                ; preds = %14, %5
  %7 = phi i64 [ %1, %5 ], [ %9, %14 ]
  %8 = add nsw i64 %7, -1
  %9 = sdiv i64 %8, 2
  %10 = icmp sgt i64 %7, %2
  br i1 %10, label %11, label %17

11:                                               ; preds = %6
  %12 = getelementptr inbounds %"struct.std::pair", %"struct.std::pair"* %0, i64 %9
  %13 = tail call zeroext i1 @_ZStltIdNSt7__cxx1112basic_stringIcSt11char_traitsIcESaIcEEEEbRKSt4pairIT_T0_ESB_(%"struct.std::pair"* nonnull align 8 dereferenceable(40) %12, %"struct.std::pair"* nonnull align 8 dereferenceable(40) %3) #16
  br i1 %13, label %14, label %17

14:                                               ; preds = %11
  %15 = getelementptr inbounds %"struct.std::pair", %"struct.std::pair"* %0, i64 %7
  %16 = tail call nonnull align 8 dereferenceable(40) %"struct.std::pair"* @_ZNSt4pairIdNSt7__cxx1112basic_stringIcSt11char_traitsIcESaIcEEEEaSEOS6_(%"struct.std::pair"* nonnull align 8 dereferenceable(40) %15, %"struct.std::pair"* nonnull align 8 dereferenceable(40) %12) #17
  br label %6, !llvm.loop !31

17:                                               ; preds = %6, %11
  %18 = getelementptr inbounds %"struct.std::pair", %"struct.std::pair"* %0, i64 %7
  %19 = tail call nonnull align 8 dereferenceable(40) %"struct.std::pair"* @_ZNSt4pairIdNSt7__cxx1112basic_stringIcSt11char_traitsIcESaIcEEEEaSEOS6_(%"struct.std::pair"* nonnull align 8 dereferenceable(40) %18, %"struct.std::pair"* nonnull align 8 dereferenceable(40) %3) #17
  ret void
}

; Function Attrs: minsize mustprogress nounwind optsize sspstrong uwtable
declare nonnull align 8 dereferenceable(32) %"class.std::__cxx11::basic_string"* @_ZNSt7__cxx1112basic_stringIcSt11char_traitsIcESaIcEEaSEOS4_(%"class.std::__cxx11::basic_string"* nonnull align 8 dereferenceable(32), %"class.std::__cxx11::basic_string"* nonnull align 8 dereferenceable(32)) local_unnamed_addr #12 align 2

; Function Attrs: inlinehint minsize mustprogress nounwind optsize sspstrong uwtable
define linkonce_odr dso_local zeroext i1 @_ZStltIdNSt7__cxx1112basic_stringIcSt11char_traitsIcESaIcEEEEbRKSt4pairIT_T0_ESB_(%"struct.std::pair"* nonnull align 8 dereferenceable(40) %0, %"struct.std::pair"* nonnull align 8 dereferenceable(40) %1) local_unnamed_addr #13 comdat {
  %3 = getelementptr inbounds %"struct.std::pair", %"struct.std::pair"* %0, i64 0, i32 0
  %4 = load double, double* %3, align 8, !tbaa !18
  %5 = getelementptr inbounds %"struct.std::pair", %"struct.std::pair"* %1, i64 0, i32 0
  %6 = load double, double* %5, align 8, !tbaa !18
  %7 = fcmp olt double %4, %6
  br i1 %7, label %14, label %8

8:                                                ; preds = %2
  %9 = fcmp olt double %6, %4
  br i1 %9, label %14, label %10

10:                                               ; preds = %8
  %11 = getelementptr inbounds %"struct.std::pair", %"struct.std::pair"* %0, i64 0, i32 1
  %12 = getelementptr inbounds %"struct.std::pair", %"struct.std::pair"* %1, i64 0, i32 1
  %13 = tail call zeroext i1 @_ZStltIcSt11char_traitsIcESaIcEEbRKNSt7__cxx1112basic_stringIT_T0_T1_EESA_(%"class.std::__cxx11::basic_string"* nonnull align 8 dereferenceable(32) %11, %"class.std::__cxx11::basic_string"* nonnull align 8 dereferenceable(32) %12) #17
  br label %14

14:                                               ; preds = %8, %10, %2
  %15 = phi i1 [ true, %2 ], [ false, %8 ], [ %13, %10 ]
  ret i1 %15
}

; Function Attrs: inlinehint minsize mustprogress nounwind optsize sspstrong uwtable
define linkonce_odr dso_local zeroext i1 @_ZStltIcSt11char_traitsIcESaIcEEbRKNSt7__cxx1112basic_stringIT_T0_T1_EESA_(%"class.std::__cxx11::basic_string"* nonnull align 8 dereferenceable(32) %0, %"class.std::__cxx11::basic_string"* nonnull align 8 dereferenceable(32) %1) local_unnamed_addr #13 comdat personality i8* bitcast (i32 (...)* @__gxx_personality_v0 to i8*) {
  %3 = invoke i32 @_ZNKSt7__cxx1112basic_stringIcSt11char_traitsIcESaIcEE7compareERKS4_(%"class.std::__cxx11::basic_string"* nonnull align 8 dereferenceable(32) %0, %"class.std::__cxx11::basic_string"* nonnull align 8 dereferenceable(32) %1) #16
          to label %4 unwind label %6

4:                                                ; preds = %2
  %5 = icmp slt i32 %3, 0
  ret i1 %5

6:                                                ; preds = %2
  %7 = landingpad { i8*, i32 }
          catch i8* null
  %8 = extractvalue { i8*, i32 } %7, 0
  tail call void @__clang_call_terminate(i8* %8) #18
  unreachable
}

; Function Attrs: minsize mustprogress optsize sspstrong uwtable
declare i32 @_ZNKSt7__cxx1112basic_stringIcSt11char_traitsIcESaIcEE7compareERKS4_(%"class.std::__cxx11::basic_string"* nonnull align 8 dereferenceable(32), %"class.std::__cxx11::basic_string"* nonnull align 8 dereferenceable(32)) local_unnamed_addr #9 align 2

; Function Attrs: minsize mustprogress optsize sspstrong uwtable
define linkonce_odr dso_local void @_ZSt22__move_median_to_firstIPSt4pairIdNSt7__cxx1112basic_stringIcSt11char_traitsIcESaIcEEEEN9__gnu_cxx5__ops15_Iter_less_iterEEvT_SC_SC_SC_T0_(%"struct.std::pair"* %0, %"struct.std::pair"* %1, %"struct.std::pair"* %2, %"struct.std::pair"* %3) local_unnamed_addr #9 comdat {
  %5 = tail call zeroext i1 @_ZStltIdNSt7__cxx1112basic_stringIcSt11char_traitsIcESaIcEEEEbRKSt4pairIT_T0_ESB_(%"struct.std::pair"* nonnull align 8 dereferenceable(40) %1, %"struct.std::pair"* nonnull align 8 dereferenceable(40) %2) #17
  br i1 %5, label %6, label %8

6:                                                ; preds = %4
  %7 = tail call zeroext i1 @_ZStltIdNSt7__cxx1112basic_stringIcSt11char_traitsIcESaIcEEEEbRKSt4pairIT_T0_ESB_(%"struct.std::pair"* nonnull align 8 dereferenceable(40) %2, %"struct.std::pair"* nonnull align 8 dereferenceable(40) %3) #17
  br i1 %7, label %14, label %10

8:                                                ; preds = %4
  %9 = tail call zeroext i1 @_ZStltIdNSt7__cxx1112basic_stringIcSt11char_traitsIcESaIcEEEEbRKSt4pairIT_T0_ESB_(%"struct.std::pair"* nonnull align 8 dereferenceable(40) %1, %"struct.std::pair"* nonnull align 8 dereferenceable(40) %3) #17
  br i1 %9, label %14, label %10

10:                                               ; preds = %8, %6
  %11 = phi %"struct.std::pair"* [ %1, %6 ], [ %2, %8 ]
  %12 = tail call zeroext i1 @_ZStltIdNSt7__cxx1112basic_stringIcSt11char_traitsIcESaIcEEEEbRKSt4pairIT_T0_ESB_(%"struct.std::pair"* nonnull align 8 dereferenceable(40) %11, %"struct.std::pair"* nonnull align 8 dereferenceable(40) %3) #17
  %13 = select i1 %12, %"struct.std::pair"* %3, %"struct.std::pair"* %11
  br label %14

14:                                               ; preds = %10, %8, %6
  %15 = phi %"struct.std::pair"* [ %2, %6 ], [ %1, %8 ], [ %13, %10 ]
  tail call void @_ZNSt4pairIdNSt7__cxx1112basic_stringIcSt11char_traitsIcESaIcEEEE4swapERS6_(%"struct.std::pair"* nonnull align 8 dereferenceable(40) %0, %"struct.std::pair"* nonnull align 8 dereferenceable(40) %15) #17
  ret void
}

; Function Attrs: minsize mustprogress nounwind optsize sspstrong uwtable
define linkonce_odr dso_local %"struct.std::pair"* @_ZSt21__unguarded_partitionIPSt4pairIdNSt7__cxx1112basic_stringIcSt11char_traitsIcESaIcEEEEN9__gnu_cxx5__ops15_Iter_less_iterEET_SC_SC_SC_T0_(%"struct.std::pair"* %0, %"struct.std::pair"* %1, %"struct.std::pair"* %2) local_unnamed_addr #12 comdat {
  br label %4

4:                                                ; preds = %3, %18
  %5 = phi %"struct.std::pair"* [ %1, %3 ], [ %13, %18 ]
  %6 = phi %"struct.std::pair"* [ %0, %3 ], [ %10, %18 ]
  br label %7

7:                                                ; preds = %7, %4
  %8 = phi %"struct.std::pair"* [ %6, %4 ], [ %10, %7 ]
  %9 = tail call zeroext i1 @_ZStltIdNSt7__cxx1112basic_stringIcSt11char_traitsIcESaIcEEEEbRKSt4pairIT_T0_ESB_(%"struct.std::pair"* nonnull align 8 dereferenceable(40) %8, %"struct.std::pair"* nonnull align 8 dereferenceable(40) %2) #17
  %10 = getelementptr inbounds %"struct.std::pair", %"struct.std::pair"* %8, i64 1
  br i1 %9, label %7, label %11, !llvm.loop !32

11:                                               ; preds = %7, %11
  %12 = phi %"struct.std::pair"* [ %13, %11 ], [ %5, %7 ]
  %13 = getelementptr inbounds %"struct.std::pair", %"struct.std::pair"* %12, i64 -1
  %14 = tail call zeroext i1 @_ZStltIdNSt7__cxx1112basic_stringIcSt11char_traitsIcESaIcEEEEbRKSt4pairIT_T0_ESB_(%"struct.std::pair"* nonnull align 8 dereferenceable(40) %2, %"struct.std::pair"* nonnull align 8 dereferenceable(40) %13) #17
  br i1 %14, label %11, label %15, !llvm.loop !33

15:                                               ; preds = %11
  %16 = icmp ult %"struct.std::pair"* %8, %13
  br i1 %16, label %18, label %17

17:                                               ; preds = %15
  ret %"struct.std::pair"* %8

18:                                               ; preds = %15
  tail call void @_ZNSt4pairIdNSt7__cxx1112basic_stringIcSt11char_traitsIcESaIcEEEE4swapERS6_(%"struct.std::pair"* nonnull align 8 dereferenceable(40) %8, %"struct.std::pair"* nonnull align 8 dereferenceable(40) %13) #17
  br label %4, !llvm.loop !34
}

; Function Attrs: minsize mustprogress nounwind optsize sspstrong uwtable
define linkonce_odr dso_local void @_ZNSt4pairIdNSt7__cxx1112basic_stringIcSt11char_traitsIcESaIcEEEE4swapERS6_(%"struct.std::pair"* nonnull align 8 dereferenceable(40) %0, %"struct.std::pair"* nonnull align 8 dereferenceable(40) %1) local_unnamed_addr #12 comdat align 2 {
  %3 = getelementptr inbounds %"struct.std::pair", %"struct.std::pair"* %0, i64 0, i32 0
  %4 = getelementptr inbounds %"struct.std::pair", %"struct.std::pair"* %1, i64 0, i32 0
  %5 = load double, double* %3, align 8, !tbaa !30
  %6 = load double, double* %4, align 8, !tbaa !30
  store double %6, double* %3, align 8, !tbaa !30
  store double %5, double* %4, align 8, !tbaa !30
  %7 = getelementptr inbounds %"struct.std::pair", %"struct.std::pair"* %0, i64 0, i32 1
  %8 = getelementptr inbounds %"struct.std::pair", %"struct.std::pair"* %1, i64 0, i32 1
  tail call void @_ZNSt7__cxx1112basic_stringIcSt11char_traitsIcESaIcEE4swapERS4_(%"class.std::__cxx11::basic_string"* nonnull align 8 dereferenceable(32) %7, %"class.std::__cxx11::basic_string"* nonnull align 8 dereferenceable(32) %8) #17
  ret void
}

; Function Attrs: minsize nounwind optsize
declare void @_ZNSt7__cxx1112basic_stringIcSt11char_traitsIcESaIcEE4swapERS4_(%"class.std::__cxx11::basic_string"* nonnull align 8 dereferenceable(32), %"class.std::__cxx11::basic_string"* nonnull align 8 dereferenceable(32)) local_unnamed_addr #1

; Function Attrs: mustprogress nofree nosync nounwind readnone speculatable willreturn
declare i64 @llvm.ctlz.i64(i64, i1 immarg) #14

; Function Attrs: minsize optsize sspstrong uwtable
define linkonce_odr dso_local void @_ZSt16__insertion_sortIPSt4pairIdNSt7__cxx1112basic_stringIcSt11char_traitsIcESaIcEEEEN9__gnu_cxx5__ops15_Iter_less_iterEEvT_SC_T0_(%"struct.std::pair"* %0, %"struct.std::pair"* %1) local_unnamed_addr #10 comdat personality i8* bitcast (i32 (...)* @__gxx_personality_v0 to i8*) {
  %3 = alloca %"struct.std::pair", align 8
  %4 = icmp eq %"struct.std::pair"* %0, %1
  br i1 %4, label %20, label %5

5:                                                ; preds = %2
  %6 = bitcast %"struct.std::pair"* %3 to i8*
  %7 = getelementptr inbounds %"struct.std::pair", %"struct.std::pair"* %3, i64 0, i32 1
  br label %8

8:                                                ; preds = %18, %5
  %9 = phi %"struct.std::pair"* [ %0, %5 ], [ %10, %18 ]
  %10 = getelementptr inbounds %"struct.std::pair", %"struct.std::pair"* %9, i64 1
  %11 = icmp eq %"struct.std::pair"* %10, %1
  br i1 %11, label %20, label %12

12:                                               ; preds = %8
  %13 = call zeroext i1 @_ZStltIdNSt7__cxx1112basic_stringIcSt11char_traitsIcESaIcEEEEbRKSt4pairIT_T0_ESB_(%"struct.std::pair"* nonnull align 8 dereferenceable(40) %10, %"struct.std::pair"* nonnull align 8 dereferenceable(40) %0) #17
  br i1 %13, label %14, label %19

14:                                               ; preds = %12
  call void @llvm.lifetime.start.p0i8(i64 40, i8* nonnull %6) #15
  call void @_ZNSt4pairIdNSt7__cxx1112basic_stringIcSt11char_traitsIcESaIcEEEEC2EOS6_(%"struct.std::pair"* nonnull align 8 dereferenceable(40) %3, %"struct.std::pair"* nonnull align 8 dereferenceable(40) %10) #17
  %15 = getelementptr inbounds %"struct.std::pair", %"struct.std::pair"* %9, i64 2
  %16 = call %"struct.std::pair"* @_ZNSt20__copy_move_backwardILb1ELb0ESt26random_access_iterator_tagE13__copy_move_bIPSt4pairIdNSt7__cxx1112basic_stringIcSt11char_traitsIcESaIcEEEESB_EET0_T_SD_SC_(%"struct.std::pair"* nonnull %0, %"struct.std::pair"* nonnull %10, %"struct.std::pair"* nonnull %15) #16
  %17 = call nonnull align 8 dereferenceable(40) %"struct.std::pair"* @_ZNSt4pairIdNSt7__cxx1112basic_stringIcSt11char_traitsIcESaIcEEEEaSEOS6_(%"struct.std::pair"* nonnull align 8 dereferenceable(40) %0, %"struct.std::pair"* nonnull align 8 dereferenceable(40) %3) #17
  call void @_ZNSt7__cxx1112basic_stringIcSt11char_traitsIcESaIcEED2Ev(%"class.std::__cxx11::basic_string"* nonnull align 8 dereferenceable(32) %7) #17
  call void @llvm.lifetime.end.p0i8(i64 40, i8* nonnull %6) #15
  br label %18

18:                                               ; preds = %14, %19
  br label %8, !llvm.loop !35

19:                                               ; preds = %12
  call void @_ZSt25__unguarded_linear_insertIPSt4pairIdNSt7__cxx1112basic_stringIcSt11char_traitsIcESaIcEEEEN9__gnu_cxx5__ops14_Val_less_iterEEvT_T0_(%"struct.std::pair"* nonnull %10) #16
  br label %18

20:                                               ; preds = %8, %2
  ret void
}

; Function Attrs: inlinehint minsize mustprogress optsize sspstrong uwtable
define linkonce_odr dso_local void @_ZSt26__unguarded_insertion_sortIPSt4pairIdNSt7__cxx1112basic_stringIcSt11char_traitsIcESaIcEEEEN9__gnu_cxx5__ops15_Iter_less_iterEEvT_SC_T0_(%"struct.std::pair"* %0, %"struct.std::pair"* %1) local_unnamed_addr #6 comdat {
  br label %3

3:                                                ; preds = %7, %2
  %4 = phi %"struct.std::pair"* [ %0, %2 ], [ %8, %7 ]
  %5 = icmp eq %"struct.std::pair"* %4, %1
  br i1 %5, label %6, label %7

6:                                                ; preds = %3
  ret void

7:                                                ; preds = %3
  tail call void @_ZSt25__unguarded_linear_insertIPSt4pairIdNSt7__cxx1112basic_stringIcSt11char_traitsIcESaIcEEEEN9__gnu_cxx5__ops14_Val_less_iterEEvT_T0_(%"struct.std::pair"* %4) #16
  %8 = getelementptr inbounds %"struct.std::pair", %"struct.std::pair"* %4, i64 1
  br label %3, !llvm.loop !36
}

; Function Attrs: minsize optsize sspstrong uwtable
define linkonce_odr dso_local void @_ZSt25__unguarded_linear_insertIPSt4pairIdNSt7__cxx1112basic_stringIcSt11char_traitsIcESaIcEEEEN9__gnu_cxx5__ops14_Val_less_iterEEvT_T0_(%"struct.std::pair"* %0) local_unnamed_addr #10 comdat personality i8* bitcast (i32 (...)* @__gxx_personality_v0 to i8*) {
  %2 = alloca %"struct.std::pair", align 8
  %3 = bitcast %"struct.std::pair"* %2 to i8*
  call void @llvm.lifetime.start.p0i8(i64 40, i8* nonnull %3) #15
  call void @_ZNSt4pairIdNSt7__cxx1112basic_stringIcSt11char_traitsIcESaIcEEEEC2EOS6_(%"struct.std::pair"* nonnull align 8 dereferenceable(40) %2, %"struct.std::pair"* nonnull align 8 dereferenceable(40) %0) #17
  br label %4

4:                                                ; preds = %8, %1
  %5 = phi %"struct.std::pair"* [ %0, %1 ], [ %6, %8 ]
  %6 = getelementptr inbounds %"struct.std::pair", %"struct.std::pair"* %5, i64 -1
  %7 = call zeroext i1 @_ZStltIdNSt7__cxx1112basic_stringIcSt11char_traitsIcESaIcEEEEbRKSt4pairIT_T0_ESB_(%"struct.std::pair"* nonnull align 8 dereferenceable(40) %2, %"struct.std::pair"* nonnull align 8 dereferenceable(40) %6) #17
  br i1 %7, label %8, label %10

8:                                                ; preds = %4
  %9 = call nonnull align 8 dereferenceable(40) %"struct.std::pair"* @_ZNSt4pairIdNSt7__cxx1112basic_stringIcSt11char_traitsIcESaIcEEEEaSEOS6_(%"struct.std::pair"* nonnull align 8 dereferenceable(40) %5, %"struct.std::pair"* nonnull align 8 dereferenceable(40) %6) #17
  br label %4, !llvm.loop !37

10:                                               ; preds = %4
  %11 = call nonnull align 8 dereferenceable(40) %"struct.std::pair"* @_ZNSt4pairIdNSt7__cxx1112basic_stringIcSt11char_traitsIcESaIcEEEEaSEOS6_(%"struct.std::pair"* nonnull align 8 dereferenceable(40) %5, %"struct.std::pair"* nonnull align 8 dereferenceable(40) %2) #17
  %12 = getelementptr inbounds %"struct.std::pair", %"struct.std::pair"* %2, i64 0, i32 1
  call void @_ZNSt7__cxx1112basic_stringIcSt11char_traitsIcESaIcEED2Ev(%"class.std::__cxx11::basic_string"* nonnull align 8 dereferenceable(32) %12) #17
  call void @llvm.lifetime.end.p0i8(i64 40, i8* nonnull %3) #15
  ret void
}

; Function Attrs: minsize mustprogress nounwind optsize sspstrong uwtable
define linkonce_odr dso_local %"struct.std::pair"* @_ZNSt20__copy_move_backwardILb1ELb0ESt26random_access_iterator_tagE13__copy_move_bIPSt4pairIdNSt7__cxx1112basic_stringIcSt11char_traitsIcESaIcEEEESB_EET0_T_SD_SC_(%"struct.std::pair"* %0, %"struct.std::pair"* %1, %"struct.std::pair"* %2) local_unnamed_addr #12 comdat align 2 {
  %4 = ptrtoint %"struct.std::pair"* %1 to i64
  %5 = ptrtoint %"struct.std::pair"* %0 to i64
  %6 = sub i64 %4, %5
  %7 = sdiv exact i64 %6, 40
  br label %8

8:                                                ; preds = %13, %3
  %9 = phi %"struct.std::pair"* [ %1, %3 ], [ %14, %13 ]
  %10 = phi %"struct.std::pair"* [ %2, %3 ], [ %15, %13 ]
  %11 = phi i64 [ %7, %3 ], [ %17, %13 ]
  %12 = icmp sgt i64 %11, 0
  br i1 %12, label %13, label %18

13:                                               ; preds = %8
  %14 = getelementptr inbounds %"struct.std::pair", %"struct.std::pair"* %9, i64 -1
  %15 = getelementptr inbounds %"struct.std::pair", %"struct.std::pair"* %10, i64 -1
  %16 = tail call nonnull align 8 dereferenceable(40) %"struct.std::pair"* @_ZNSt4pairIdNSt7__cxx1112basic_stringIcSt11char_traitsIcESaIcEEEEaSEOS6_(%"struct.std::pair"* nonnull align 8 dereferenceable(40) %15, %"struct.std::pair"* nonnull align 8 dereferenceable(40) %14) #17
  %17 = add nsw i64 %11, -1
  br label %8, !llvm.loop !38

18:                                               ; preds = %8
  ret %"struct.std::pair"* %10
}

; Function Attrs: minsize optsize sspstrong uwtable
define internal void @_GLOBAL__sub_I_s939891080.cpp() #10 section ".text.startup" {
  tail call void @_ZNSt8ios_base4InitC1Ev(%"class.std::ios_base::Init"* nonnull align 1 dereferenceable(1) @_ZStL8__ioinit) #16
  %1 = tail call i32 @__cxa_atexit(void (i8*)* bitcast (void (%"class.std::ios_base::Init"*)* @_ZNSt8ios_base4InitD1Ev to void (i8*)*), i8* getelementptr inbounds (%"class.std::ios_base::Init", %"class.std::ios_base::Init"* @_ZStL8__ioinit, i64 0, i32 0), i8* nonnull @__dso_handle) #15
  ret void
}

attributes #0 = { minsize optsize "frame-pointer"="none" "no-trapping-math"="true" "stack-protector-buffer-size"="8" "target-cpu"="x86-64" "target-features"="+cx8,+fxsr,+mmx,+sse,+sse2,+x87" "tune-cpu"="generic" }
attributes #1 = { minsize nounwind optsize "frame-pointer"="none" "no-trapping-math"="true" "stack-protector-buffer-size"="8" "target-cpu"="x86-64" "target-features"="+cx8,+fxsr,+mmx,+sse,+sse2,+x87" "tune-cpu"="generic" }
attributes #2 = { nofree nounwind }
attributes #3 = { minsize norecurse optsize sspstrong uwtable "frame-pointer"="none" "min-legal-vector-width"="0" "no-trapping-math"="true" "stack-protector-buffer-size"="8" "target-cpu"="x86-64" "target-features"="+cx8,+fxsr,+mmx,+sse,+sse2,+x87" "tune-cpu"="generic" }
attributes #4 = { argmemonly mustprogress nofree nosync nounwind willreturn }
attributes #5 = { mustprogress nofree nosync nounwind willreturn }
attributes #6 = { inlinehint minsize mustprogress optsize sspstrong uwtable "frame-pointer"="none" "min-legal-vector-width"="0" "no-trapping-math"="true" "stack-protector-buffer-size"="8" "target-cpu"="x86-64" "target-features"="+cx8,+fxsr,+mmx,+sse,+sse2,+x87" "tune-cpu"="generic" }
attributes #7 = { minsize nounwind optsize sspstrong uwtable "frame-pointer"="none" "min-legal-vector-width"="0" "no-trapping-math"="true" "stack-protector-buffer-size"="8" "target-cpu"="x86-64" "target-features"="+cx8,+fxsr,+mmx,+sse,+sse2,+x87" "tune-cpu"="generic" }
attributes #8 = { noinline noreturn nounwind }
attributes #9 = { minsize mustprogress optsize sspstrong uwtable "frame-pointer"="none" "min-legal-vector-width"="0" "no-trapping-math"="true" "stack-protector-buffer-size"="8" "target-cpu"="x86-64" "target-features"="+cx8,+fxsr,+mmx,+sse,+sse2,+x87" "tune-cpu"="generic" }
attributes #10 = { minsize optsize sspstrong uwtable "frame-pointer"="none" "min-legal-vector-width"="0" "no-trapping-math"="true" "stack-protector-buffer-size"="8" "target-cpu"="x86-64" "target-features"="+cx8,+fxsr,+mmx,+sse,+sse2,+x87" "tune-cpu"="generic" }
attributes #11 = { inlinehint minsize optsize sspstrong uwtable "frame-pointer"="none" "min-legal-vector-width"="0" "no-trapping-math"="true" "stack-protector-buffer-size"="8" "target-cpu"="x86-64" "target-features"="+cx8,+fxsr,+mmx,+sse,+sse2,+x87" "tune-cpu"="generic" }
attributes #12 = { minsize mustprogress nounwind optsize sspstrong uwtable "frame-pointer"="none" "min-legal-vector-width"="0" "no-trapping-math"="true" "stack-protector-buffer-size"="8" "target-cpu"="x86-64" "target-features"="+cx8,+fxsr,+mmx,+sse,+sse2,+x87" "tune-cpu"="generic" }
attributes #13 = { inlinehint minsize mustprogress nounwind optsize sspstrong uwtable "frame-pointer"="none" "min-legal-vector-width"="0" "no-trapping-math"="true" "stack-protector-buffer-size"="8" "target-cpu"="x86-64" "target-features"="+cx8,+fxsr,+mmx,+sse,+sse2,+x87" "tune-cpu"="generic" }
attributes #14 = { mustprogress nofree nosync nounwind readnone speculatable willreturn }
attributes #15 = { nounwind }
attributes #16 = { minsize optsize }
attributes #17 = { minsize nounwind optsize }
attributes #18 = { noreturn nounwind }

!llvm.module.flags = !{!0, !1, !2, !3}
!llvm.ident = !{!4}

!0 = !{i32 1, !"wchar_size", i32 4}
!1 = !{i32 7, !"PIC Level", i32 2}
!2 = !{i32 7, !"PIE Level", i32 2}
!3 = !{i32 7, !"uwtable", i32 1}
!4 = !{!"clang version 13.0.0"}
!5 = !{!6, !6, i64 0}
!6 = !{!"int", !7, i64 0}
!7 = !{!"omnipotent char", !8, i64 0}
!8 = !{!"Simple C++ TBAA"}
!9 = !{!10, !11, i64 0}
!10 = !{!"_ZTSNSt7__cxx1112basic_stringIcSt11char_traitsIcESaIcEE12_Alloc_hiderE", !11, i64 0}
!11 = !{!"any pointer", !7, i64 0}
!12 = !{!13, !14, i64 8}
!13 = !{!"_ZTSNSt7__cxx1112basic_stringIcSt11char_traitsIcESaIcEEE", !10, i64 0, !14, i64 8, !7, i64 16}
!14 = !{!"long", !7, i64 0}
!15 = !{!7, !7, i64 0}
!16 = distinct !{!16, !17}
!17 = !{!"llvm.loop.mustprogress"}
!18 = !{!19, !20, i64 0}
!19 = !{!"_ZTSSt4pairIdNSt7__cxx1112basic_stringIcSt11char_traitsIcESaIcEEEE", !20, i64 0, !13, i64 8}
!20 = !{!"double", !7, i64 0}
!21 = distinct !{!21, !17}
!22 = distinct !{!22, !17}
!23 = distinct !{!23, !17}
!24 = !{i64 0, i64 65}
!25 = distinct !{!25, !17}
!26 = distinct !{!26, !17}
!27 = distinct !{!27, !17}
!28 = distinct !{!28, !17}
!29 = distinct !{!29, !17}
!30 = !{!20, !20, i64 0}
!31 = distinct !{!31, !17}
!32 = distinct !{!32, !17}
!33 = distinct !{!33, !17}
!34 = distinct !{!34, !17}
!35 = distinct !{!35, !17}
!36 = distinct !{!36, !17}
!37 = distinct !{!37, !17}
!38 = distinct !{!38, !17}
