; ModuleID = 'Project_CodeNet_C++1400/p03561/s503835494.cpp'
source_filename = "Project_CodeNet_C++1400/p03561/s503835494.cpp"
target datalayout = "e-m:e-p270:32:32-p271:32:32-p272:64:64-i64:64-f80:128-n8:16:32:64-S128"
target triple = "x86_64-pc-linux-gnu"

%"class.std::ios_base::Init" = type { i8 }
%"class.std::basic_ostream" = type { i32 (...)**, %"class.std::basic_ios" }
%"class.std::basic_ios" = type { %"class.std::ios_base", %"class.std::basic_ostream"*, i8, i8, %"class.std::basic_streambuf"*, %"class.std::ctype"*, %"class.std::num_put"*, %"class.std::num_get"* }
%"class.std::ios_base" = type { i32 (...)**, i64, i64, i32, i32, i32, %"struct.std::ios_base::_Callback_list"*, %"struct.std::ios_base::_Words", [8 x %"struct.std::ios_base::_Words"], i32, %"struct.std::ios_base::_Words"*, %"class.std::locale" }
%"struct.std::ios_base::_Callback_list" = type { %"struct.std::ios_base::_Callback_list"*, void (i32, %"class.std::ios_base"*, i32)*, i32, i32 }
%"struct.std::ios_base::_Words" = type { i8*, i64 }
%"class.std::locale" = type { %"class.std::locale::_Impl"* }
%"class.std::locale::_Impl" = type { i32, %"class.std::locale::facet"**, i64, %"class.std::locale::facet"**, i8** }
%"class.std::locale::facet" = type <{ i32 (...)**, i32, [4 x i8] }>
%"class.std::basic_streambuf" = type { i32 (...)**, i8*, i8*, i8*, i8*, i8*, i8*, %"class.std::locale" }
%"class.std::ctype" = type <{ %"class.std::locale::facet.base", [4 x i8], %struct.__locale_struct*, i8, [7 x i8], i32*, i32*, i16*, i8, [256 x i8], [256 x i8], i8, [6 x i8] }>
%"class.std::locale::facet.base" = type <{ i32 (...)**, i32 }>
%struct.__locale_struct = type { [13 x %struct.__locale_data*], i16*, i32*, i32*, [13 x i8*] }
%struct.__locale_data = type opaque
%"class.std::num_put" = type { %"class.std::locale::facet.base", [4 x i8] }
%"class.std::num_get" = type { %"class.std::locale::facet.base", [4 x i8] }
%"class.std::basic_istream" = type { i32 (...)**, i64, %"class.std::basic_ios" }
%"class.std::deque" = type { %"class.std::_Deque_base" }
%"class.std::_Deque_base" = type { %"struct.std::_Deque_base<int, std::allocator<int>>::_Deque_impl" }
%"struct.std::_Deque_base<int, std::allocator<int>>::_Deque_impl" = type { %"struct.std::_Deque_base<int, std::allocator<int>>::_Deque_impl_data" }
%"struct.std::_Deque_base<int, std::allocator<int>>::_Deque_impl_data" = type { i32**, i64, %"struct.std::_Deque_iterator", %"struct.std::_Deque_iterator" }
%"struct.std::_Deque_iterator" = type { i32*, i32*, i32*, i32** }
%"class.std::allocator" = type { i8 }

$_ZNSt5dequeIiSaIiEED2Ev = comdat any

$_ZNSt11_Deque_baseIiSaIiEE17_M_initialize_mapEm = comdat any

$__clang_call_terminate = comdat any

$_ZNSt5dequeIiSaIiEE16_M_push_back_auxIJRiEEEvDpOT_ = comdat any

$_ZNSt5dequeIiSaIiEE17_M_reallocate_mapEmb = comdat any

$_ZNSt5dequeIiSaIiEE14_M_fill_assignEmRKi = comdat any

$_ZNSt5dequeIiSaIiEE14_M_fill_insertESt15_Deque_iteratorIiRiPiEmRKi = comdat any

$_ZNSt5dequeIiSaIiEE13_M_insert_auxESt15_Deque_iteratorIiRiPiEmRKi = comdat any

$_ZNSt5dequeIiSaIiEE24_M_new_elements_at_frontEm = comdat any

$_ZNSt5dequeIiSaIiEE23_M_new_elements_at_backEm = comdat any

$_ZSt25__uninitialized_fill_moveISt15_Deque_iteratorIiRiPiEiS3_SaIiEET_S5_S5_RKT0_T1_S9_RT2_ = comdat any

$_ZSt15__copy_move_ditILb1EiRiPiSt15_Deque_iteratorIiS0_S1_EET3_S2_IT0_T1_T2_ES8_S4_ = comdat any

$_ZSt24__copy_move_backward_ditILb1EiRiPiSt15_Deque_iteratorIiS0_S1_EET3_S2_IT0_T1_T2_ES8_S4_ = comdat any

@_ZStL8__ioinit = internal global %"class.std::ios_base::Init" zeroinitializer, align 1
@__dso_handle = external hidden global i8
@_ZSt4cout = external global %"class.std::basic_ostream", align 8
@.str = private unnamed_addr constant [2 x i8] c" \00", align 1
@_ZSt3cin = external global %"class.std::basic_istream", align 8
@.str.1 = private unnamed_addr constant [48 x i8] c"cannot create std::deque larger than max_size()\00", align 1
@.str.2 = private unnamed_addr constant [32 x i8] c"deque::_M_new_elements_at_front\00", align 1
@.str.3 = private unnamed_addr constant [31 x i8] c"deque::_M_new_elements_at_back\00", align 1
@llvm.global_ctors = appending global [1 x { i32, void ()*, i8* }] [{ i32, void ()*, i8* } { i32 65535, void ()* @_GLOBAL__sub_I_s503835494.cpp, i8* null }]

declare void @_ZNSt8ios_base4InitC1Ev(%"class.std::ios_base::Init"* nonnull align 1 dereferenceable(1)) unnamed_addr #0

; Function Attrs: nounwind
declare void @_ZNSt8ios_base4InitD1Ev(%"class.std::ios_base::Init"* nonnull align 1 dereferenceable(1)) unnamed_addr #1

; Function Attrs: nofree nounwind
declare i32 @__cxa_atexit(void (i8*)*, i8*, i8*) local_unnamed_addr #2

; Function Attrs: sspstrong uwtable
define dso_local void @_Z5printRSt5dequeIiSaIiEE(%"class.std::deque"* nocapture nonnull readonly align 8 dereferenceable(80) %0) local_unnamed_addr #3 {
  %2 = getelementptr inbounds %"class.std::deque", %"class.std::deque"* %0, i64 0, i32 0, i32 0, i32 0, i32 3, i32 3
  %3 = getelementptr inbounds %"class.std::deque", %"class.std::deque"* %0, i64 0, i32 0, i32 0, i32 0, i32 2, i32 3
  %4 = getelementptr inbounds %"class.std::deque", %"class.std::deque"* %0, i64 0, i32 0, i32 0, i32 0, i32 3, i32 0
  %5 = getelementptr inbounds %"class.std::deque", %"class.std::deque"* %0, i64 0, i32 0, i32 0, i32 0, i32 3, i32 1
  %6 = getelementptr inbounds %"class.std::deque", %"class.std::deque"* %0, i64 0, i32 0, i32 0, i32 0, i32 2, i32 2
  %7 = getelementptr inbounds %"class.std::deque", %"class.std::deque"* %0, i64 0, i32 0, i32 0, i32 0, i32 2, i32 0
  %8 = getelementptr inbounds %"class.std::deque", %"class.std::deque"* %0, i64 0, i32 0, i32 0, i32 0, i32 2, i32 1
  br label %9

9:                                                ; preds = %97, %1
  %10 = phi i64 [ %101, %97 ], [ 0, %1 ]
  %11 = load i32**, i32*** %2, align 8, !tbaa !5
  %12 = load i32**, i32*** %3, align 8, !tbaa !5
  %13 = ptrtoint i32** %11 to i64
  %14 = ptrtoint i32** %12 to i64
  %15 = sub i64 %13, %14
  %16 = ashr exact i64 %15, 3
  %17 = icmp ne i32** %11, null
  %18 = sext i1 %17 to i64
  %19 = add nsw i64 %16, %18
  %20 = shl nsw i64 %19, 7
  %21 = load i32*, i32** %4, align 8, !tbaa !10
  %22 = load i32*, i32** %5, align 8, !tbaa !11
  %23 = ptrtoint i32* %21 to i64
  %24 = ptrtoint i32* %22 to i64
  %25 = sub i64 %23, %24
  %26 = ashr exact i64 %25, 2
  %27 = add nsw i64 %20, %26
  %28 = load i32*, i32** %6, align 8, !tbaa !12
  %29 = load i32*, i32** %7, align 8, !tbaa !10
  %30 = ptrtoint i32* %28 to i64
  %31 = ptrtoint i32* %29 to i64
  %32 = sub i64 %30, %31
  %33 = ashr exact i64 %32, 2
  %34 = add nsw i64 %27, %33
  %35 = icmp ugt i64 %34, %10
  br i1 %35, label %64, label %36

36:                                               ; preds = %9
  %37 = load i8*, i8** bitcast (%"class.std::basic_ostream"* @_ZSt4cout to i8**), align 8, !tbaa !13
  %38 = getelementptr i8, i8* %37, i64 -24
  %39 = bitcast i8* %38 to i64*
  %40 = load i64, i64* %39, align 8
  %41 = add nsw i64 %40, 240
  %42 = getelementptr inbounds i8, i8* bitcast (%"class.std::basic_ostream"* @_ZSt4cout to i8*), i64 %41
  %43 = bitcast i8* %42 to %"class.std::ctype"**
  %44 = load %"class.std::ctype"*, %"class.std::ctype"** %43, align 8, !tbaa !15
  %45 = icmp eq %"class.std::ctype"* %44, null
  br i1 %45, label %46, label %47

46:                                               ; preds = %36
  tail call void @_ZSt16__throw_bad_castv() #17
  unreachable

47:                                               ; preds = %36
  %48 = getelementptr inbounds %"class.std::ctype", %"class.std::ctype"* %44, i64 0, i32 8
  %49 = load i8, i8* %48, align 8, !tbaa !18
  %50 = icmp eq i8 %49, 0
  br i1 %50, label %54, label %51

51:                                               ; preds = %47
  %52 = getelementptr inbounds %"class.std::ctype", %"class.std::ctype"* %44, i64 0, i32 9, i64 10
  %53 = load i8, i8* %52, align 1, !tbaa !20
  br label %60

54:                                               ; preds = %47
  tail call void @_ZNKSt5ctypeIcE13_M_widen_initEv(%"class.std::ctype"* nonnull align 8 dereferenceable(570) %44)
  %55 = bitcast %"class.std::ctype"* %44 to i8 (%"class.std::ctype"*, i8)***
  %56 = load i8 (%"class.std::ctype"*, i8)**, i8 (%"class.std::ctype"*, i8)*** %55, align 8, !tbaa !13
  %57 = getelementptr inbounds i8 (%"class.std::ctype"*, i8)*, i8 (%"class.std::ctype"*, i8)** %56, i64 6
  %58 = load i8 (%"class.std::ctype"*, i8)*, i8 (%"class.std::ctype"*, i8)** %57, align 8
  %59 = tail call signext i8 %58(%"class.std::ctype"* nonnull align 8 dereferenceable(570) %44, i8 signext 10)
  br label %60

60:                                               ; preds = %51, %54
  %61 = phi i8 [ %53, %51 ], [ %59, %54 ]
  %62 = tail call nonnull align 8 dereferenceable(8) %"class.std::basic_ostream"* @_ZNSo3putEc(%"class.std::basic_ostream"* nonnull align 8 dereferenceable(8) @_ZSt4cout, i8 signext %61)
  %63 = tail call nonnull align 8 dereferenceable(8) %"class.std::basic_ostream"* @_ZNSo5flushEv(%"class.std::basic_ostream"* nonnull align 8 dereferenceable(8) %62)
  ret void

64:                                               ; preds = %9
  %65 = icmp eq i64 %10, 0
  br i1 %65, label %71, label %66

66:                                               ; preds = %64
  %67 = tail call nonnull align 8 dereferenceable(8) %"class.std::basic_ostream"* @_ZSt16__ostream_insertIcSt11char_traitsIcEERSt13basic_ostreamIT_T0_ES6_PKS3_l(%"class.std::basic_ostream"* nonnull align 8 dereferenceable(8) @_ZSt4cout, i8* nonnull getelementptr inbounds ([2 x i8], [2 x i8]* @.str, i64 0, i64 0), i64 1)
  %68 = load i32*, i32** %7, align 8, !tbaa !10, !noalias !21
  %69 = load i32**, i32*** %3, align 8, !tbaa !5, !noalias !21
  %70 = ptrtoint i32* %68 to i64
  br label %71

71:                                               ; preds = %66, %64
  %72 = phi i64 [ %70, %66 ], [ %31, %64 ]
  %73 = phi i32** [ %69, %66 ], [ %12, %64 ]
  %74 = phi i32* [ %68, %66 ], [ %29, %64 ]
  %75 = load i32*, i32** %8, align 8, !tbaa !11, !noalias !21
  %76 = ptrtoint i32* %75 to i64
  %77 = sub i64 %72, %76
  %78 = ashr exact i64 %77, 2
  %79 = add nsw i64 %78, %10
  %80 = icmp sgt i64 %79, -1
  br i1 %80, label %81, label %87

81:                                               ; preds = %71
  %82 = icmp slt i64 %79, 128
  br i1 %82, label %83, label %85

83:                                               ; preds = %81
  %84 = getelementptr inbounds i32, i32* %74, i64 %10
  br label %97

85:                                               ; preds = %81
  %86 = lshr i64 %79, 7
  br label %90

87:                                               ; preds = %71
  %88 = lshr i64 %79, 7
  %89 = or i64 %88, -144115188075855872
  br label %90

90:                                               ; preds = %87, %85
  %91 = phi i64 [ %86, %85 ], [ %89, %87 ]
  %92 = getelementptr inbounds i32*, i32** %73, i64 %91
  %93 = load i32*, i32** %92, align 8, !tbaa !24, !noalias !21
  %94 = mul i64 %91, -128
  %95 = add i64 %94, %79
  %96 = getelementptr inbounds i32, i32* %93, i64 %95
  br label %97

97:                                               ; preds = %83, %90
  %98 = phi i32* [ %96, %90 ], [ %84, %83 ]
  %99 = load i32, i32* %98, align 4, !tbaa !25
  %100 = tail call nonnull align 8 dereferenceable(8) %"class.std::basic_ostream"* @_ZNSolsEi(%"class.std::basic_ostream"* nonnull align 8 dereferenceable(8) @_ZSt4cout, i32 %99)
  %101 = add nuw i64 %10, 1
  br label %9, !llvm.loop !27
}

; Function Attrs: argmemonly mustprogress nofree nosync nounwind willreturn
declare void @llvm.lifetime.start.p0i8(i64 immarg, i8* nocapture) #4

declare nonnull align 8 dereferenceable(8) %"class.std::basic_ostream"* @_ZNSolsEi(%"class.std::basic_ostream"* nonnull align 8 dereferenceable(8), i32) local_unnamed_addr #0

; Function Attrs: argmemonly mustprogress nofree nosync nounwind willreturn
declare void @llvm.lifetime.end.p0i8(i64 immarg, i8* nocapture) #4

; Function Attrs: sspstrong uwtable
define dso_local void @_Z8movebackRSt5dequeIiSaIiEERiS3_(%"class.std::deque"* nonnull align 8 dereferenceable(80) %0, i32* nonnull align 4 dereferenceable(4) %1, i32* nocapture nonnull readonly align 4 dereferenceable(4) %2) local_unnamed_addr #3 personality i32 (...)* @__gxx_personality_v0 {
  %4 = getelementptr inbounds %"class.std::deque", %"class.std::deque"* %0, i64 0, i32 0, i32 0, i32 0, i32 3, i32 0
  %5 = load i32*, i32** %4, align 8, !tbaa !10, !noalias !29
  %6 = getelementptr inbounds %"class.std::deque", %"class.std::deque"* %0, i64 0, i32 0, i32 0, i32 0, i32 3, i32 1
  %7 = load i32*, i32** %6, align 8, !tbaa !11, !noalias !29
  %8 = icmp eq i32* %5, %7
  br i1 %8, label %9, label %18

9:                                                ; preds = %3
  %10 = getelementptr inbounds %"class.std::deque", %"class.std::deque"* %0, i64 0, i32 0, i32 0, i32 0, i32 3, i32 3
  %11 = load i32**, i32*** %10, align 8, !tbaa !5, !noalias !32
  %12 = getelementptr inbounds i32*, i32** %11, i64 -1
  %13 = load i32*, i32** %12, align 8, !tbaa !24
  %14 = getelementptr inbounds i32, i32* %13, i64 127
  %15 = load i32, i32* %14, align 4, !tbaa !25
  %16 = add nsw i32 %15, -1
  store i32 %16, i32* %14, align 4, !tbaa !25
  %17 = icmp eq i32 %16, 0
  br i1 %17, label %51, label %23

18:                                               ; preds = %3
  %19 = getelementptr inbounds i32, i32* %5, i64 -1
  %20 = load i32, i32* %19, align 4, !tbaa !25
  %21 = add nsw i32 %20, -1
  store i32 %21, i32* %19, align 4, !tbaa !25
  %22 = icmp eq i32 %21, 0
  br i1 %22, label %59, label %23

23:                                               ; preds = %9, %18
  %24 = getelementptr inbounds %"class.std::deque", %"class.std::deque"* %0, i64 0, i32 0, i32 0, i32 0, i32 3, i32 3
  %25 = getelementptr inbounds %"class.std::deque", %"class.std::deque"* %0, i64 0, i32 0, i32 0, i32 0, i32 2, i32 3
  %26 = getelementptr inbounds %"class.std::deque", %"class.std::deque"* %0, i64 0, i32 0, i32 0, i32 0, i32 2, i32 2
  %27 = getelementptr inbounds %"class.std::deque", %"class.std::deque"* %0, i64 0, i32 0, i32 0, i32 0, i32 2, i32 0
  %28 = getelementptr inbounds %"class.std::deque", %"class.std::deque"* %0, i64 0, i32 0, i32 0, i32 0, i32 3, i32 2
  br label %29

29:                                               ; preds = %76, %23
  %30 = phi i32* [ %78, %76 ], [ %7, %23 ]
  %31 = phi i32* [ %77, %76 ], [ %5, %23 ]
  %32 = load i32**, i32*** %24, align 8, !tbaa !5
  %33 = load i32**, i32*** %25, align 8, !tbaa !5
  %34 = ptrtoint i32** %32 to i64
  %35 = ptrtoint i32** %33 to i64
  %36 = sub i64 %34, %35
  %37 = ashr exact i64 %36, 3
  %38 = icmp ne i32** %32, null
  %39 = sext i1 %38 to i64
  %40 = add nsw i64 %37, %39
  %41 = shl nsw i64 %40, 7
  %42 = ptrtoint i32* %30 to i64
  %43 = load i32*, i32** %26, align 8, !tbaa !12
  %44 = load i32*, i32** %27, align 8, !tbaa !10
  %45 = ptrtoint i32* %43 to i64
  %46 = ptrtoint i32* %44 to i64
  %47 = sub i64 %45, %46
  %48 = ashr exact i64 %47, 2
  %49 = load i32*, i32** %28, align 8
  %50 = getelementptr inbounds i32, i32* %49, i64 -1
  br label %61

51:                                               ; preds = %9
  %52 = bitcast i32* %5 to i8*
  tail call void @_ZdlPv(i8* %52) #18
  %53 = load i32**, i32*** %10, align 8, !tbaa !33
  %54 = getelementptr inbounds i32*, i32** %53, i64 -1
  store i32** %54, i32*** %10, align 8, !tbaa !5
  %55 = load i32*, i32** %54, align 8, !tbaa !24
  store i32* %55, i32** %6, align 8, !tbaa !11
  %56 = getelementptr inbounds i32, i32* %55, i64 128
  %57 = getelementptr inbounds %"class.std::deque", %"class.std::deque"* %0, i64 0, i32 0, i32 0, i32 0, i32 3, i32 2
  store i32* %56, i32** %57, align 8, !tbaa !12
  %58 = getelementptr inbounds i32, i32* %55, i64 127
  br label %59

59:                                               ; preds = %18, %51
  %60 = phi i32* [ %58, %51 ], [ %19, %18 ]
  store i32* %60, i32** %4, align 8, !tbaa !36
  br label %79

61:                                               ; preds = %29, %73
  %62 = phi i32* [ %75, %73 ], [ %31, %29 ]
  %63 = ptrtoint i32* %62 to i64
  %64 = sub i64 %63, %42
  %65 = ashr exact i64 %64, 2
  %66 = add nsw i64 %41, %65
  %67 = add nsw i64 %66, %48
  %68 = load i32, i32* %2, align 4, !tbaa !25
  %69 = sext i32 %68 to i64
  %70 = icmp eq i64 %67, %69
  br i1 %70, label %79, label %71

71:                                               ; preds = %61
  %72 = icmp eq i32* %62, %50
  br i1 %72, label %76, label %73

73:                                               ; preds = %71
  %74 = load i32, i32* %1, align 4, !tbaa !25
  store i32 %74, i32* %62, align 4, !tbaa !25
  %75 = getelementptr inbounds i32, i32* %62, i64 1
  store i32* %75, i32** %4, align 8, !tbaa !36
  br label %61, !llvm.loop !37

76:                                               ; preds = %71
  tail call void @_ZNSt5dequeIiSaIiEE16_M_push_back_auxIJRiEEEvDpOT_(%"class.std::deque"* nonnull align 8 dereferenceable(80) %0, i32* nonnull align 4 dereferenceable(4) %1)
  %77 = load i32*, i32** %4, align 8, !tbaa !10
  %78 = load i32*, i32** %6, align 8, !tbaa !11
  br label %29, !llvm.loop !37

79:                                               ; preds = %61, %59
  ret void
}

; Function Attrs: norecurse sspstrong uwtable
define dso_local i32 @main() local_unnamed_addr #5 personality i8* bitcast (i32 (...)* @__gxx_personality_v0 to i8*) {
  %1 = alloca i32, align 4
  %2 = alloca i32, align 4
  %3 = alloca %"class.std::deque", align 8
  %4 = alloca i32, align 4
  %5 = bitcast i32* %1 to i8*
  call void @llvm.lifetime.start.p0i8(i64 4, i8* nonnull %5) #18
  %6 = bitcast i32* %2 to i8*
  call void @llvm.lifetime.start.p0i8(i64 4, i8* nonnull %6) #18
  %7 = call nonnull align 8 dereferenceable(16) %"class.std::basic_istream"* @_ZNSirsERi(%"class.std::basic_istream"* nonnull align 8 dereferenceable(16) @_ZSt3cin, i32* nonnull align 4 dereferenceable(4) %2)
  %8 = call nonnull align 8 dereferenceable(16) %"class.std::basic_istream"* @_ZNSirsERi(%"class.std::basic_istream"* nonnull align 8 dereferenceable(16) %7, i32* nonnull align 4 dereferenceable(4) %1)
  %9 = bitcast %"class.std::deque"* %3 to i8*
  call void @llvm.lifetime.start.p0i8(i64 80, i8* nonnull %9) #18
  %10 = getelementptr inbounds %"class.std::deque", %"class.std::deque"* %3, i64 0, i32 0
  call void @llvm.memset.p0i8.i64(i8* noundef nonnull align 8 dereferenceable(80) %9, i8 0, i64 80, i1 false) #18
  call void @_ZNSt11_Deque_baseIiSaIiEE17_M_initialize_mapEm(%"class.std::_Deque_base"* nonnull align 8 dereferenceable(80) %10, i64 0)
  %11 = load i32, i32* %2, align 4, !tbaa !25
  %12 = and i32 %11, 1
  %13 = icmp eq i32 %12, 0
  %14 = load i32, i32* %1, align 4, !tbaa !25
  %15 = sext i32 %14 to i64
  br i1 %13, label %16, label %49

16:                                               ; preds = %0
  invoke void @_ZNSt5dequeIiSaIiEE14_M_fill_assignEmRKi(%"class.std::deque"* nonnull align 8 dereferenceable(80) %3, i64 %15, i32* nonnull align 4 dereferenceable(4) %2)
          to label %17 unwind label %47

17:                                               ; preds = %16
  %18 = load i32, i32* %2, align 4, !tbaa !25
  %19 = sdiv i32 %18, 2
  %20 = getelementptr inbounds %"class.std::deque", %"class.std::deque"* %3, i64 0, i32 0, i32 0, i32 0, i32 2, i32 0
  %21 = load i32*, i32** %20, align 8, !tbaa !10, !noalias !38
  %22 = getelementptr inbounds %"class.std::deque", %"class.std::deque"* %3, i64 0, i32 0, i32 0, i32 0, i32 2, i32 1
  %23 = load i32*, i32** %22, align 8, !tbaa !11, !noalias !38
  %24 = getelementptr inbounds %"class.std::deque", %"class.std::deque"* %3, i64 0, i32 0, i32 0, i32 0, i32 2, i32 3
  %25 = load i32**, i32*** %24, align 8, !tbaa !5, !noalias !38
  %26 = ptrtoint i32* %21 to i64
  %27 = ptrtoint i32* %23 to i64
  %28 = sub i64 %26, %27
  %29 = ashr exact i64 %28, 2
  %30 = icmp sgt i64 %28, -4
  br i1 %30, label %31, label %35

31:                                               ; preds = %17
  %32 = icmp slt i64 %28, 512
  br i1 %32, label %45, label %33

33:                                               ; preds = %31
  %34 = lshr i64 %29, 7
  br label %38

35:                                               ; preds = %17
  %36 = lshr i64 %29, 7
  %37 = or i64 %36, -144115188075855872
  br label %38

38:                                               ; preds = %35, %33
  %39 = phi i64 [ %34, %33 ], [ %37, %35 ]
  %40 = getelementptr inbounds i32*, i32** %25, i64 %39
  %41 = load i32*, i32** %40, align 8, !tbaa !24, !noalias !38
  %42 = mul i64 %39, -128
  %43 = add i64 %42, %29
  %44 = getelementptr inbounds i32, i32* %41, i64 %43
  br label %45

45:                                               ; preds = %31, %38
  %46 = phi i32* [ %44, %38 ], [ %21, %31 ]
  store i32 %19, i32* %46, align 4, !tbaa !25
  br label %65

47:                                               ; preds = %16, %65
  %48 = landingpad { i8*, i32 }
          cleanup
  br label %90

49:                                               ; preds = %0
  %50 = bitcast i32* %4 to i8*
  call void @llvm.lifetime.start.p0i8(i64 4, i8* nonnull %50) #18
  %51 = sdiv i32 %11, 2
  %52 = add nsw i32 %51, 1
  store i32 %52, i32* %4, align 4, !tbaa !25
  invoke void @_ZNSt5dequeIiSaIiEE14_M_fill_assignEmRKi(%"class.std::deque"* nonnull align 8 dereferenceable(80) %3, i64 %15, i32* nonnull align 4 dereferenceable(4) %4)
          to label %53 unwind label %61

53:                                               ; preds = %49
  call void @llvm.lifetime.end.p0i8(i64 4, i8* nonnull %50) #18
  %54 = load i32, i32* %1, align 4, !tbaa !25
  %55 = sdiv i32 %54, 2
  br label %56

56:                                               ; preds = %59, %53
  %57 = phi i32 [ %55, %53 ], [ %60, %59 ]
  %58 = icmp eq i32 %57, 0
  br i1 %58, label %65, label %59

59:                                               ; preds = %56
  %60 = add nsw i32 %57, -1
  invoke void @_Z8movebackRSt5dequeIiSaIiEERiS3_(%"class.std::deque"* nonnull align 8 dereferenceable(80) %3, i32* nonnull align 4 dereferenceable(4) %2, i32* nonnull align 4 dereferenceable(4) %1)
          to label %56 unwind label %63, !llvm.loop !41

61:                                               ; preds = %49
  %62 = landingpad { i8*, i32 }
          cleanup
  call void @llvm.lifetime.end.p0i8(i64 4, i8* nonnull %50) #18
  br label %90

63:                                               ; preds = %59
  %64 = landingpad { i8*, i32 }
          cleanup
  br label %90

65:                                               ; preds = %56, %45
  invoke void @_Z5printRSt5dequeIiSaIiEE(%"class.std::deque"* nonnull align 8 dereferenceable(80) %3)
          to label %66 unwind label %47

66:                                               ; preds = %65
  %67 = getelementptr inbounds %"class.std::deque", %"class.std::deque"* %3, i64 0, i32 0, i32 0, i32 0, i32 0
  %68 = load i32**, i32*** %67, align 8, !tbaa !42
  %69 = icmp eq i32** %68, null
  br i1 %69, label %89, label %70

70:                                               ; preds = %66
  %71 = bitcast i32** %68 to i8*
  %72 = getelementptr inbounds %"class.std::deque", %"class.std::deque"* %3, i64 0, i32 0, i32 0, i32 0, i32 2, i32 3
  %73 = load i32**, i32*** %72, align 8, !tbaa !43
  %74 = getelementptr inbounds %"class.std::deque", %"class.std::deque"* %3, i64 0, i32 0, i32 0, i32 0, i32 3, i32 3
  %75 = load i32**, i32*** %74, align 8, !tbaa !33
  %76 = getelementptr inbounds i32*, i32** %75, i64 1
  %77 = icmp ult i32** %73, %76
  br i1 %77, label %78, label %87

78:                                               ; preds = %70, %78
  %79 = phi i32** [ %82, %78 ], [ %73, %70 ]
  %80 = bitcast i32** %79 to i8**
  %81 = load i8*, i8** %80, align 8, !tbaa !24
  call void @_ZdlPv(i8* %81) #18
  %82 = getelementptr inbounds i32*, i32** %79, i64 1
  %83 = icmp ult i32** %79, %75
  br i1 %83, label %78, label %84, !llvm.loop !44

84:                                               ; preds = %78
  %85 = bitcast %"class.std::deque"* %3 to i8**
  %86 = load i8*, i8** %85, align 8, !tbaa !42
  br label %87

87:                                               ; preds = %84, %70
  %88 = phi i8* [ %86, %84 ], [ %71, %70 ]
  call void @_ZdlPv(i8* %88) #18
  br label %89

89:                                               ; preds = %66, %87
  call void @llvm.lifetime.end.p0i8(i64 80, i8* nonnull %9) #18
  call void @llvm.lifetime.end.p0i8(i64 4, i8* nonnull %6) #18
  call void @llvm.lifetime.end.p0i8(i64 4, i8* nonnull %5) #18
  ret i32 0

90:                                               ; preds = %63, %61, %47
  %91 = phi { i8*, i32 } [ %48, %47 ], [ %64, %63 ], [ %62, %61 ]
  call void @_ZNSt5dequeIiSaIiEED2Ev(%"class.std::deque"* nonnull align 8 dereferenceable(80) %3) #18
  call void @llvm.lifetime.end.p0i8(i64 80, i8* nonnull %9) #18
  call void @llvm.lifetime.end.p0i8(i64 4, i8* nonnull %6) #18
  call void @llvm.lifetime.end.p0i8(i64 4, i8* nonnull %5) #18
  resume { i8*, i32 } %91
}

declare nonnull align 8 dereferenceable(16) %"class.std::basic_istream"* @_ZNSirsERi(%"class.std::basic_istream"* nonnull align 8 dereferenceable(16), i32* nonnull align 4 dereferenceable(4)) local_unnamed_addr #0

declare i32 @__gxx_personality_v0(...)

; Function Attrs: nounwind sspstrong uwtable
define linkonce_odr dso_local void @_ZNSt5dequeIiSaIiEED2Ev(%"class.std::deque"* nonnull align 8 dereferenceable(80) %0) unnamed_addr #6 comdat align 2 personality i8* bitcast (i32 (...)* @__gxx_personality_v0 to i8*) {
  %2 = getelementptr inbounds %"class.std::deque", %"class.std::deque"* %0, i64 0, i32 0, i32 0, i32 0, i32 0
  %3 = load i32**, i32*** %2, align 8, !tbaa !42
  %4 = icmp eq i32** %3, null
  br i1 %4, label %24, label %5

5:                                                ; preds = %1
  %6 = bitcast i32** %3 to i8*
  %7 = getelementptr inbounds %"class.std::deque", %"class.std::deque"* %0, i64 0, i32 0, i32 0, i32 0, i32 2, i32 3
  %8 = load i32**, i32*** %7, align 8, !tbaa !43
  %9 = getelementptr inbounds %"class.std::deque", %"class.std::deque"* %0, i64 0, i32 0, i32 0, i32 0, i32 3, i32 3
  %10 = load i32**, i32*** %9, align 8, !tbaa !33
  %11 = getelementptr inbounds i32*, i32** %10, i64 1
  %12 = icmp ult i32** %8, %11
  br i1 %12, label %13, label %22

13:                                               ; preds = %5, %13
  %14 = phi i32** [ %17, %13 ], [ %8, %5 ]
  %15 = bitcast i32** %14 to i8**
  %16 = load i8*, i8** %15, align 8, !tbaa !24
  tail call void @_ZdlPv(i8* %16) #18
  %17 = getelementptr inbounds i32*, i32** %14, i64 1
  %18 = icmp ult i32** %14, %10
  br i1 %18, label %13, label %19, !llvm.loop !44

19:                                               ; preds = %13
  %20 = bitcast %"class.std::deque"* %0 to i8**
  %21 = load i8*, i8** %20, align 8, !tbaa !42
  br label %22

22:                                               ; preds = %19, %5
  %23 = phi i8* [ %21, %19 ], [ %6, %5 ]
  tail call void @_ZdlPv(i8* %23) #18
  br label %24

24:                                               ; preds = %1, %22
  ret void
}

; Function Attrs: sspstrong uwtable
define linkonce_odr dso_local void @_ZNSt11_Deque_baseIiSaIiEE17_M_initialize_mapEm(%"class.std::_Deque_base"* nonnull align 8 dereferenceable(80) %0, i64 %1) local_unnamed_addr #3 comdat align 2 personality i8* bitcast (i32 (...)* @__gxx_personality_v0 to i8*) {
  %3 = lshr i64 %1, 7
  %4 = add nuw nsw i64 %3, 1
  %5 = icmp ugt i64 %3, 5
  %6 = select i1 %5, i64 %3, i64 5
  %7 = add nuw nsw i64 %6, 3
  %8 = getelementptr inbounds %"class.std::_Deque_base", %"class.std::_Deque_base"* %0, i64 0, i32 0, i32 0, i32 1
  store i64 %7, i64* %8, align 8, !tbaa !45
  %9 = shl nuw nsw i64 %7, 3
  %10 = tail call noalias nonnull i8* @_Znwm(i64 %9) #19
  %11 = bitcast i8* %10 to i32**
  %12 = bitcast %"class.std::_Deque_base"* %0 to i8**
  store i8* %10, i8** %12, align 8, !tbaa !42
  %13 = load i64, i64* %8, align 8, !tbaa !45
  %14 = sub i64 %13, %4
  %15 = lshr i64 %14, 1
  %16 = getelementptr inbounds i32*, i32** %11, i64 %15
  %17 = getelementptr inbounds i32*, i32** %16, i64 %4
  br label %18

18:                                               ; preds = %2, %21
  %19 = phi i32** [ %23, %21 ], [ %16, %2 ]
  %20 = invoke noalias nonnull i8* @_Znwm(i64 512) #19
          to label %21 unwind label %25

21:                                               ; preds = %18
  %22 = bitcast i32** %19 to i8**
  store i8* %20, i8** %22, align 8, !tbaa !24
  %23 = getelementptr inbounds i32*, i32** %19, i64 1
  %24 = icmp ult i32** %23, %17
  br i1 %24, label %18, label %51, !llvm.loop !46

25:                                               ; preds = %18
  %26 = landingpad { i8*, i32 }
          catch i8* null
  %27 = extractvalue { i8*, i32 } %26, 0
  %28 = tail call i8* @__cxa_begin_catch(i8* %27) #18
  %29 = icmp ugt i32** %19, %16
  br i1 %29, label %30, label %36

30:                                               ; preds = %25, %30
  %31 = phi i32** [ %34, %30 ], [ %16, %25 ]
  %32 = bitcast i32** %31 to i8**
  %33 = load i8*, i8** %32, align 8, !tbaa !24
  tail call void @_ZdlPv(i8* %33) #18
  %34 = getelementptr inbounds i32*, i32** %31, i64 1
  %35 = icmp ult i32** %34, %19
  br i1 %35, label %30, label %36, !llvm.loop !44

36:                                               ; preds = %30, %25
  invoke void @__cxa_rethrow() #17
          to label %42 unwind label %37

37:                                               ; preds = %36
  %38 = landingpad { i8*, i32 }
          catch i8* null
  invoke void @__cxa_end_catch()
          to label %43 unwind label %39

39:                                               ; preds = %37
  %40 = landingpad { i8*, i32 }
          catch i8* null
  %41 = extractvalue { i8*, i32 } %40, 0
  tail call void @__clang_call_terminate(i8* %41) #20
  unreachable

42:                                               ; preds = %36
  unreachable

43:                                               ; preds = %37
  %44 = extractvalue { i8*, i32 } %38, 0
  %45 = tail call i8* @__cxa_begin_catch(i8* %44) #18
  %46 = load i8*, i8** %12, align 8, !tbaa !42
  tail call void @_ZdlPv(i8* %46) #18
  %47 = bitcast %"class.std::_Deque_base"* %0 to i8*
  call void @llvm.memset.p0i8.i64(i8* noundef nonnull align 8 dereferenceable(16) %47, i8 0, i64 16, i1 false)
  invoke void @__cxa_rethrow() #17
          to label %70 unwind label %48

48:                                               ; preds = %43
  %49 = landingpad { i8*, i32 }
          cleanup
  invoke void @__cxa_end_catch()
          to label %50 unwind label %67

50:                                               ; preds = %48
  resume { i8*, i32 } %49

51:                                               ; preds = %21
  %52 = getelementptr inbounds %"class.std::_Deque_base", %"class.std::_Deque_base"* %0, i64 0, i32 0, i32 0, i32 2, i32 3
  store i32** %16, i32*** %52, align 8, !tbaa !5
  %53 = load i32*, i32** %16, align 8, !tbaa !24
  %54 = getelementptr inbounds %"class.std::_Deque_base", %"class.std::_Deque_base"* %0, i64 0, i32 0, i32 0, i32 2, i32 1
  store i32* %53, i32** %54, align 8, !tbaa !11
  %55 = getelementptr inbounds i32, i32* %53, i64 128
  %56 = getelementptr inbounds %"class.std::_Deque_base", %"class.std::_Deque_base"* %0, i64 0, i32 0, i32 0, i32 2, i32 2
  store i32* %55, i32** %56, align 8, !tbaa !12
  %57 = getelementptr inbounds i32*, i32** %17, i64 -1
  %58 = getelementptr inbounds %"class.std::_Deque_base", %"class.std::_Deque_base"* %0, i64 0, i32 0, i32 0, i32 3, i32 3
  store i32** %57, i32*** %58, align 8, !tbaa !5
  %59 = load i32*, i32** %57, align 8, !tbaa !24
  %60 = getelementptr inbounds %"class.std::_Deque_base", %"class.std::_Deque_base"* %0, i64 0, i32 0, i32 0, i32 3, i32 1
  store i32* %59, i32** %60, align 8, !tbaa !11
  %61 = getelementptr inbounds i32, i32* %59, i64 128
  %62 = getelementptr inbounds %"class.std::_Deque_base", %"class.std::_Deque_base"* %0, i64 0, i32 0, i32 0, i32 3, i32 2
  store i32* %61, i32** %62, align 8, !tbaa !12
  %63 = getelementptr inbounds %"class.std::_Deque_base", %"class.std::_Deque_base"* %0, i64 0, i32 0, i32 0, i32 2, i32 0
  store i32* %53, i32** %63, align 8, !tbaa !47
  %64 = and i64 %1, 127
  %65 = getelementptr inbounds i32, i32* %59, i64 %64
  %66 = getelementptr inbounds %"class.std::_Deque_base", %"class.std::_Deque_base"* %0, i64 0, i32 0, i32 0, i32 3, i32 0
  store i32* %65, i32** %66, align 8, !tbaa !36
  ret void

67:                                               ; preds = %48
  %68 = landingpad { i8*, i32 }
          catch i8* null
  %69 = extractvalue { i8*, i32 } %68, 0
  tail call void @__clang_call_terminate(i8* %69) #20
  unreachable

70:                                               ; preds = %43
  unreachable
}

declare i8* @__cxa_begin_catch(i8*) local_unnamed_addr

declare void @__cxa_rethrow() local_unnamed_addr

declare void @__cxa_end_catch() local_unnamed_addr

; Function Attrs: noinline noreturn nounwind
define linkonce_odr hidden void @__clang_call_terminate(i8* %0) local_unnamed_addr #7 comdat {
  %2 = tail call i8* @__cxa_begin_catch(i8* %0) #18
  tail call void @_ZSt9terminatev() #20
  unreachable
}

declare void @_ZSt9terminatev() local_unnamed_addr

; Function Attrs: noreturn
declare void @_ZSt28__throw_bad_array_new_lengthv() local_unnamed_addr #8

; Function Attrs: noreturn
declare void @_ZSt17__throw_bad_allocv() local_unnamed_addr #8

; Function Attrs: nobuiltin allocsize(0)
declare nonnull i8* @_Znwm(i64) local_unnamed_addr #9

; Function Attrs: nobuiltin nounwind
declare void @_ZdlPv(i8*) local_unnamed_addr #10

declare nonnull align 8 dereferenceable(8) %"class.std::basic_ostream"* @_ZSt16__ostream_insertIcSt11char_traitsIcEERSt13basic_ostreamIT_T0_ES6_PKS3_l(%"class.std::basic_ostream"* nonnull align 8 dereferenceable(8), i8*, i64) local_unnamed_addr #0

declare nonnull align 8 dereferenceable(8) %"class.std::basic_ostream"* @_ZNSo3putEc(%"class.std::basic_ostream"* nonnull align 8 dereferenceable(8), i8 signext) local_unnamed_addr #0

declare nonnull align 8 dereferenceable(8) %"class.std::basic_ostream"* @_ZNSo5flushEv(%"class.std::basic_ostream"* nonnull align 8 dereferenceable(8)) local_unnamed_addr #0

; Function Attrs: noreturn
declare void @_ZSt16__throw_bad_castv() local_unnamed_addr #8

declare void @_ZNKSt5ctypeIcE13_M_widen_initEv(%"class.std::ctype"* nonnull align 8 dereferenceable(570)) local_unnamed_addr #0

; Function Attrs: mustprogress sspstrong uwtable
define linkonce_odr dso_local void @_ZNSt5dequeIiSaIiEE16_M_push_back_auxIJRiEEEvDpOT_(%"class.std::deque"* nonnull align 8 dereferenceable(80) %0, i32* nonnull align 4 dereferenceable(4) %1) local_unnamed_addr #11 comdat align 2 personality i32 (...)* @__gxx_personality_v0 {
  %3 = getelementptr inbounds %"class.std::deque", %"class.std::deque"* %0, i64 0, i32 0, i32 0, i32 0, i32 3, i32 3
  %4 = load i32**, i32*** %3, align 8, !tbaa !5
  %5 = getelementptr inbounds %"class.std::deque", %"class.std::deque"* %0, i64 0, i32 0, i32 0, i32 0, i32 2, i32 3
  %6 = load i32**, i32*** %5, align 8, !tbaa !5
  %7 = ptrtoint i32** %4 to i64
  %8 = ptrtoint i32** %6 to i64
  %9 = sub i64 %7, %8
  %10 = ashr exact i64 %9, 3
  %11 = icmp ne i32** %4, null
  %12 = sext i1 %11 to i64
  %13 = add nsw i64 %10, %12
  %14 = shl nsw i64 %13, 7
  %15 = getelementptr inbounds %"class.std::deque", %"class.std::deque"* %0, i64 0, i32 0, i32 0, i32 0, i32 3, i32 0
  %16 = load i32*, i32** %15, align 8, !tbaa !10
  %17 = getelementptr inbounds %"class.std::deque", %"class.std::deque"* %0, i64 0, i32 0, i32 0, i32 0, i32 3, i32 1
  %18 = load i32*, i32** %17, align 8, !tbaa !11
  %19 = ptrtoint i32* %16 to i64
  %20 = ptrtoint i32* %18 to i64
  %21 = sub i64 %19, %20
  %22 = ashr exact i64 %21, 2
  %23 = add nsw i64 %14, %22
  %24 = getelementptr inbounds %"class.std::deque", %"class.std::deque"* %0, i64 0, i32 0, i32 0, i32 0, i32 2, i32 2
  %25 = load i32*, i32** %24, align 8, !tbaa !12
  %26 = getelementptr inbounds %"class.std::deque", %"class.std::deque"* %0, i64 0, i32 0, i32 0, i32 0, i32 2, i32 0
  %27 = load i32*, i32** %26, align 8, !tbaa !10
  %28 = ptrtoint i32* %25 to i64
  %29 = ptrtoint i32* %27 to i64
  %30 = sub i64 %28, %29
  %31 = ashr exact i64 %30, 2
  %32 = add nsw i64 %23, %31
  %33 = icmp eq i64 %32, 2305843009213693951
  br i1 %33, label %34, label %35

34:                                               ; preds = %2
  tail call void @_ZSt20__throw_length_errorPKc(i8* getelementptr inbounds ([48 x i8], [48 x i8]* @.str.1, i64 0, i64 0)) #17
  unreachable

35:                                               ; preds = %2
  %36 = getelementptr inbounds %"class.std::deque", %"class.std::deque"* %0, i64 0, i32 0, i32 0, i32 0, i32 1
  %37 = load i64, i64* %36, align 8, !tbaa !45
  %38 = getelementptr inbounds %"class.std::deque", %"class.std::deque"* %0, i64 0, i32 0, i32 0, i32 0, i32 0
  %39 = load i32**, i32*** %38, align 8, !tbaa !42
  %40 = ptrtoint i32** %39 to i64
  %41 = sub i64 %7, %40
  %42 = ashr exact i64 %41, 3
  %43 = sub i64 %37, %42
  %44 = icmp ult i64 %43, 2
  br i1 %44, label %45, label %46

45:                                               ; preds = %35
  tail call void @_ZNSt5dequeIiSaIiEE17_M_reallocate_mapEmb(%"class.std::deque"* nonnull align 8 dereferenceable(80) %0, i64 1, i1 zeroext false)
  br label %46

46:                                               ; preds = %35, %45
  %47 = tail call noalias nonnull i8* @_Znwm(i64 512) #19
  %48 = load i32**, i32*** %3, align 8, !tbaa !33
  %49 = getelementptr inbounds i32*, i32** %48, i64 1
  %50 = bitcast i32** %49 to i8**
  store i8* %47, i8** %50, align 8, !tbaa !24
  %51 = load i32*, i32** %15, align 8, !tbaa !36
  %52 = load i32, i32* %1, align 4, !tbaa !25
  store i32 %52, i32* %51, align 4, !tbaa !25
  %53 = load i32**, i32*** %3, align 8, !tbaa !33
  %54 = getelementptr inbounds i32*, i32** %53, i64 1
  store i32** %54, i32*** %3, align 8, !tbaa !5
  %55 = load i32*, i32** %54, align 8, !tbaa !24
  store i32* %55, i32** %17, align 8, !tbaa !11
  %56 = getelementptr inbounds i32, i32* %55, i64 128
  %57 = getelementptr inbounds %"class.std::deque", %"class.std::deque"* %0, i64 0, i32 0, i32 0, i32 0, i32 3, i32 2
  store i32* %56, i32** %57, align 8, !tbaa !12
  store i32* %55, i32** %15, align 8, !tbaa !36
  ret void
}

; Function Attrs: noreturn
declare void @_ZSt20__throw_length_errorPKc(i8*) local_unnamed_addr #8

; Function Attrs: sspstrong uwtable
define linkonce_odr dso_local void @_ZNSt5dequeIiSaIiEE17_M_reallocate_mapEmb(%"class.std::deque"* nonnull align 8 dereferenceable(80) %0, i64 %1, i1 zeroext %2) local_unnamed_addr #3 comdat align 2 personality i32 (...)* @__gxx_personality_v0 {
  %4 = getelementptr inbounds %"class.std::deque", %"class.std::deque"* %0, i64 0, i32 0, i32 0, i32 0, i32 3, i32 3
  %5 = load i32**, i32*** %4, align 8, !tbaa !33
  %6 = getelementptr inbounds %"class.std::deque", %"class.std::deque"* %0, i64 0, i32 0, i32 0, i32 0, i32 2, i32 3
  %7 = load i32**, i32*** %6, align 8, !tbaa !43
  %8 = ptrtoint i32** %5 to i64
  %9 = ptrtoint i32** %7 to i64
  %10 = sub i64 %8, %9
  %11 = ashr exact i64 %10, 3
  %12 = add nsw i64 %11, 1
  %13 = add i64 %12, %1
  %14 = getelementptr inbounds %"class.std::deque", %"class.std::deque"* %0, i64 0, i32 0, i32 0, i32 0, i32 1
  %15 = load i64, i64* %14, align 8, !tbaa !45
  %16 = shl i64 %13, 1
  %17 = icmp ugt i64 %15, %16
  br i1 %17, label %18, label %42

18:                                               ; preds = %3
  %19 = getelementptr inbounds %"class.std::deque", %"class.std::deque"* %0, i64 0, i32 0, i32 0, i32 0, i32 0
  %20 = load i32**, i32*** %19, align 8, !tbaa !42
  %21 = sub i64 %15, %13
  %22 = lshr i64 %21, 1
  %23 = select i1 %2, i64 %1, i64 0
  %24 = add nsw i64 %22, %23
  %25 = getelementptr inbounds i32*, i32** %20, i64 %24
  %26 = icmp ult i32** %25, %7
  %27 = getelementptr inbounds i32*, i32** %5, i64 1
  %28 = ptrtoint i32** %27 to i64
  %29 = sub i64 %28, %9
  %30 = icmp eq i64 %29, 0
  br i1 %26, label %31, label %35

31:                                               ; preds = %18
  br i1 %30, label %74, label %32

32:                                               ; preds = %31
  %33 = bitcast i32** %25 to i8*
  %34 = bitcast i32** %7 to i8*
  tail call void @llvm.memmove.p0i8.p0i8.i64(i8* align 8 %33, i8* nonnull align 8 %34, i64 %29, i1 false) #18
  br label %74

35:                                               ; preds = %18
  br i1 %30, label %74, label %36

36:                                               ; preds = %35
  %37 = ashr exact i64 %29, 3
  %38 = sub nsw i64 %12, %37
  %39 = getelementptr inbounds i32*, i32** %25, i64 %38
  %40 = bitcast i32** %39 to i8*
  %41 = bitcast i32** %7 to i8*
  tail call void @llvm.memmove.p0i8.p0i8.i64(i8* align 8 %40, i8* align 8 %41, i64 %29, i1 false) #18
  br label %74

42:                                               ; preds = %3
  %43 = icmp ult i64 %15, %1
  %44 = select i1 %43, i64 %1, i64 %15
  %45 = add i64 %15, 2
  %46 = add i64 %45, %44
  %47 = icmp ugt i64 %46, 1152921504606846975
  br i1 %47, label %48, label %52, !prof !48

48:                                               ; preds = %42
  %49 = icmp ugt i64 %46, 2305843009213693951
  br i1 %49, label %50, label %51

50:                                               ; preds = %48
  tail call void @_ZSt28__throw_bad_array_new_lengthv() #17
  unreachable

51:                                               ; preds = %48
  tail call void @_ZSt17__throw_bad_allocv() #17
  unreachable

52:                                               ; preds = %42
  %53 = shl nuw nsw i64 %46, 3
  %54 = tail call noalias nonnull i8* @_Znwm(i64 %53) #19
  %55 = bitcast i8* %54 to i32**
  %56 = sub i64 %46, %13
  %57 = lshr i64 %56, 1
  %58 = select i1 %2, i64 %1, i64 0
  %59 = add nsw i64 %57, %58
  %60 = getelementptr inbounds i32*, i32** %55, i64 %59
  %61 = load i32**, i32*** %6, align 8, !tbaa !43
  %62 = load i32**, i32*** %4, align 8, !tbaa !33
  %63 = getelementptr inbounds i32*, i32** %62, i64 1
  %64 = ptrtoint i32** %63 to i64
  %65 = ptrtoint i32** %61 to i64
  %66 = sub i64 %64, %65
  %67 = icmp eq i64 %66, 0
  br i1 %67, label %71, label %68

68:                                               ; preds = %52
  %69 = bitcast i32** %60 to i8*
  %70 = bitcast i32** %61 to i8*
  tail call void @llvm.memmove.p0i8.p0i8.i64(i8* nonnull align 8 %69, i8* align 8 %70, i64 %66, i1 false) #18
  br label %71

71:                                               ; preds = %52, %68
  %72 = bitcast %"class.std::deque"* %0 to i8**
  %73 = load i8*, i8** %72, align 8, !tbaa !42
  tail call void @_ZdlPv(i8* %73) #18
  store i8* %54, i8** %72, align 8, !tbaa !42
  store i64 %46, i64* %14, align 8, !tbaa !45
  br label %74

74:                                               ; preds = %32, %31, %36, %35, %71
  %75 = phi i32** [ %60, %71 ], [ %25, %35 ], [ %25, %36 ], [ %25, %31 ], [ %25, %32 ]
  store i32** %75, i32*** %6, align 8, !tbaa !5
  %76 = load i32*, i32** %75, align 8, !tbaa !24
  %77 = getelementptr inbounds %"class.std::deque", %"class.std::deque"* %0, i64 0, i32 0, i32 0, i32 0, i32 2, i32 1
  store i32* %76, i32** %77, align 8, !tbaa !11
  %78 = getelementptr inbounds i32, i32* %76, i64 128
  %79 = getelementptr inbounds %"class.std::deque", %"class.std::deque"* %0, i64 0, i32 0, i32 0, i32 0, i32 2, i32 2
  store i32* %78, i32** %79, align 8, !tbaa !12
  %80 = getelementptr inbounds i32*, i32** %75, i64 %11
  store i32** %80, i32*** %4, align 8, !tbaa !5
  %81 = load i32*, i32** %80, align 8, !tbaa !24
  %82 = getelementptr inbounds %"class.std::deque", %"class.std::deque"* %0, i64 0, i32 0, i32 0, i32 0, i32 3, i32 1
  store i32* %81, i32** %82, align 8, !tbaa !11
  %83 = getelementptr inbounds i32, i32* %81, i64 128
  %84 = getelementptr inbounds %"class.std::deque", %"class.std::deque"* %0, i64 0, i32 0, i32 0, i32 0, i32 3, i32 2
  store i32* %83, i32** %84, align 8, !tbaa !12
  ret void
}

; Function Attrs: argmemonly mustprogress nofree nounwind willreturn
declare void @llvm.memmove.p0i8.p0i8.i64(i8* nocapture writeonly, i8* nocapture readonly, i64, i1 immarg) #12

; Function Attrs: sspstrong uwtable
define linkonce_odr dso_local void @_ZNSt5dequeIiSaIiEE14_M_fill_assignEmRKi(%"class.std::deque"* nonnull align 8 dereferenceable(80) %0, i64 %1, i32* nonnull align 4 dereferenceable(4) %2) local_unnamed_addr #3 comdat align 2 personality i32 (...)* @__gxx_personality_v0 {
  %4 = alloca %"struct.std::_Deque_iterator", align 8
  %5 = getelementptr inbounds %"class.std::deque", %"class.std::deque"* %0, i64 0, i32 0, i32 0, i32 0, i32 3, i32 3
  %6 = load i32**, i32*** %5, align 8, !tbaa !5
  %7 = getelementptr inbounds %"class.std::deque", %"class.std::deque"* %0, i64 0, i32 0, i32 0, i32 0, i32 2, i32 3
  %8 = load i32**, i32*** %7, align 8, !tbaa !5
  %9 = ptrtoint i32** %6 to i64
  %10 = ptrtoint i32** %8 to i64
  %11 = sub i64 %9, %10
  %12 = ashr exact i64 %11, 3
  %13 = icmp ne i32** %6, null
  %14 = sext i1 %13 to i64
  %15 = add nsw i64 %12, %14
  %16 = shl nsw i64 %15, 7
  %17 = getelementptr inbounds %"class.std::deque", %"class.std::deque"* %0, i64 0, i32 0, i32 0, i32 0, i32 3, i32 0
  %18 = load i32*, i32** %17, align 8, !tbaa !10
  %19 = ptrtoint i32* %18 to i64
  %20 = getelementptr inbounds %"class.std::deque", %"class.std::deque"* %0, i64 0, i32 0, i32 0, i32 0, i32 3, i32 1
  %21 = load i32*, i32** %20, align 8, !tbaa !11
  %22 = ptrtoint i32* %21 to i64
  %23 = ptrtoint i32* %18 to i64
  %24 = ptrtoint i32* %21 to i64
  %25 = sub i64 %23, %24
  %26 = ashr exact i64 %25, 2
  %27 = add nsw i64 %16, %26
  %28 = getelementptr inbounds %"class.std::deque", %"class.std::deque"* %0, i64 0, i32 0, i32 0, i32 0, i32 2, i32 2
  %29 = load i32*, i32** %28, align 8, !tbaa !12
  %30 = ptrtoint i32* %29 to i64
  %31 = getelementptr inbounds %"class.std::deque", %"class.std::deque"* %0, i64 0, i32 0, i32 0, i32 0, i32 2, i32 0
  %32 = load i32*, i32** %31, align 8, !tbaa !10
  %33 = ptrtoint i32* %32 to i64
  %34 = ptrtoint i32* %29 to i64
  %35 = ptrtoint i32* %32 to i64
  %36 = sub i64 %34, %35
  %37 = ashr exact i64 %36, 2
  %38 = add nsw i64 %27, %37
  %39 = icmp ult i64 %38, %1
  br i1 %39, label %40, label %392

40:                                               ; preds = %3
  %41 = getelementptr inbounds %"class.std::deque", %"class.std::deque"* %0, i64 0, i32 0, i32 0, i32 0, i32 3, i32 2
  %42 = icmp eq i32** %8, %6
  %43 = load i32, i32* %2, align 4, !tbaa !25
  br i1 %42, label %297, label %44

44:                                               ; preds = %40
  %45 = icmp eq i32* %32, %29
  br i1 %45, label %132, label %46

46:                                               ; preds = %44
  %47 = add i64 %30, -4
  %48 = sub i64 %47, %33
  %49 = lshr i64 %48, 2
  %50 = add nuw nsw i64 %49, 1
  %51 = icmp ult i64 %48, 28
  br i1 %51, label %126, label %52

52:                                               ; preds = %46
  %53 = and i64 %50, 9223372036854775800
  %54 = getelementptr i32, i32* %32, i64 %53
  %55 = insertelement <4 x i32> poison, i32 %43, i32 0
  %56 = shufflevector <4 x i32> %55, <4 x i32> poison, <4 x i32> zeroinitializer
  %57 = insertelement <4 x i32> poison, i32 %43, i32 0
  %58 = shufflevector <4 x i32> %57, <4 x i32> poison, <4 x i32> zeroinitializer
  %59 = add nsw i64 %53, -8
  %60 = lshr exact i64 %59, 3
  %61 = add nuw nsw i64 %60, 1
  %62 = and i64 %61, 7
  %63 = icmp ult i64 %59, 56
  br i1 %63, label %111, label %64

64:                                               ; preds = %52
  %65 = and i64 %61, 4611686018427387896
  br label %66

66:                                               ; preds = %66, %64
  %67 = phi i64 [ 0, %64 ], [ %108, %66 ]
  %68 = phi i64 [ %65, %64 ], [ %109, %66 ]
  %69 = getelementptr i32, i32* %32, i64 %67
  %70 = bitcast i32* %69 to <4 x i32>*
  store <4 x i32> %56, <4 x i32>* %70, align 4, !tbaa !25
  %71 = getelementptr i32, i32* %69, i64 4
  %72 = bitcast i32* %71 to <4 x i32>*
  store <4 x i32> %58, <4 x i32>* %72, align 4, !tbaa !25
  %73 = or i64 %67, 8
  %74 = getelementptr i32, i32* %32, i64 %73
  %75 = bitcast i32* %74 to <4 x i32>*
  store <4 x i32> %56, <4 x i32>* %75, align 4, !tbaa !25
  %76 = getelementptr i32, i32* %74, i64 4
  %77 = bitcast i32* %76 to <4 x i32>*
  store <4 x i32> %58, <4 x i32>* %77, align 4, !tbaa !25
  %78 = or i64 %67, 16
  %79 = getelementptr i32, i32* %32, i64 %78
  %80 = bitcast i32* %79 to <4 x i32>*
  store <4 x i32> %56, <4 x i32>* %80, align 4, !tbaa !25
  %81 = getelementptr i32, i32* %79, i64 4
  %82 = bitcast i32* %81 to <4 x i32>*
  store <4 x i32> %58, <4 x i32>* %82, align 4, !tbaa !25
  %83 = or i64 %67, 24
  %84 = getelementptr i32, i32* %32, i64 %83
  %85 = bitcast i32* %84 to <4 x i32>*
  store <4 x i32> %56, <4 x i32>* %85, align 4, !tbaa !25
  %86 = getelementptr i32, i32* %84, i64 4
  %87 = bitcast i32* %86 to <4 x i32>*
  store <4 x i32> %58, <4 x i32>* %87, align 4, !tbaa !25
  %88 = or i64 %67, 32
  %89 = getelementptr i32, i32* %32, i64 %88
  %90 = bitcast i32* %89 to <4 x i32>*
  store <4 x i32> %56, <4 x i32>* %90, align 4, !tbaa !25
  %91 = getelementptr i32, i32* %89, i64 4
  %92 = bitcast i32* %91 to <4 x i32>*
  store <4 x i32> %58, <4 x i32>* %92, align 4, !tbaa !25
  %93 = or i64 %67, 40
  %94 = getelementptr i32, i32* %32, i64 %93
  %95 = bitcast i32* %94 to <4 x i32>*
  store <4 x i32> %56, <4 x i32>* %95, align 4, !tbaa !25
  %96 = getelementptr i32, i32* %94, i64 4
  %97 = bitcast i32* %96 to <4 x i32>*
  store <4 x i32> %58, <4 x i32>* %97, align 4, !tbaa !25
  %98 = or i64 %67, 48
  %99 = getelementptr i32, i32* %32, i64 %98
  %100 = bitcast i32* %99 to <4 x i32>*
  store <4 x i32> %56, <4 x i32>* %100, align 4, !tbaa !25
  %101 = getelementptr i32, i32* %99, i64 4
  %102 = bitcast i32* %101 to <4 x i32>*
  store <4 x i32> %58, <4 x i32>* %102, align 4, !tbaa !25
  %103 = or i64 %67, 56
  %104 = getelementptr i32, i32* %32, i64 %103
  %105 = bitcast i32* %104 to <4 x i32>*
  store <4 x i32> %56, <4 x i32>* %105, align 4, !tbaa !25
  %106 = getelementptr i32, i32* %104, i64 4
  %107 = bitcast i32* %106 to <4 x i32>*
  store <4 x i32> %58, <4 x i32>* %107, align 4, !tbaa !25
  %108 = add nuw i64 %67, 64
  %109 = add i64 %68, -8
  %110 = icmp eq i64 %109, 0
  br i1 %110, label %111, label %66, !llvm.loop !49

111:                                              ; preds = %66, %52
  %112 = phi i64 [ 0, %52 ], [ %108, %66 ]
  %113 = icmp eq i64 %62, 0
  br i1 %113, label %124, label %114

114:                                              ; preds = %111, %114
  %115 = phi i64 [ %121, %114 ], [ %112, %111 ]
  %116 = phi i64 [ %122, %114 ], [ %62, %111 ]
  %117 = getelementptr i32, i32* %32, i64 %115
  %118 = bitcast i32* %117 to <4 x i32>*
  store <4 x i32> %56, <4 x i32>* %118, align 4, !tbaa !25
  %119 = getelementptr i32, i32* %117, i64 4
  %120 = bitcast i32* %119 to <4 x i32>*
  store <4 x i32> %58, <4 x i32>* %120, align 4, !tbaa !25
  %121 = add nuw i64 %115, 8
  %122 = add i64 %116, -1
  %123 = icmp eq i64 %122, 0
  br i1 %123, label %124, label %114, !llvm.loop !51

124:                                              ; preds = %114, %111
  %125 = icmp eq i64 %50, %53
  br i1 %125, label %132, label %126

126:                                              ; preds = %46, %124
  %127 = phi i32* [ %32, %46 ], [ %54, %124 ]
  br label %128

128:                                              ; preds = %126, %128
  %129 = phi i32* [ %130, %128 ], [ %127, %126 ]
  store i32 %43, i32* %129, align 4, !tbaa !25
  %130 = getelementptr inbounds i32, i32* %129, i64 1
  %131 = icmp eq i32* %130, %29
  br i1 %131, label %132, label %128, !llvm.loop !53

132:                                              ; preds = %128, %124, %44
  %133 = getelementptr inbounds i32*, i32** %8, i64 1
  %134 = icmp ult i32** %133, %6
  br i1 %134, label %224, label %135

135:                                              ; preds = %224, %132
  %136 = load i32, i32* %2, align 4, !tbaa !25
  %137 = icmp eq i32* %21, %18
  br i1 %137, label %385, label %138

138:                                              ; preds = %135
  %139 = add i64 %19, -4
  %140 = sub i64 %139, %22
  %141 = lshr i64 %140, 2
  %142 = add nuw nsw i64 %141, 1
  %143 = icmp ult i64 %140, 28
  br i1 %143, label %218, label %144

144:                                              ; preds = %138
  %145 = and i64 %142, 9223372036854775800
  %146 = getelementptr i32, i32* %21, i64 %145
  %147 = insertelement <4 x i32> poison, i32 %136, i32 0
  %148 = shufflevector <4 x i32> %147, <4 x i32> poison, <4 x i32> zeroinitializer
  %149 = insertelement <4 x i32> poison, i32 %136, i32 0
  %150 = shufflevector <4 x i32> %149, <4 x i32> poison, <4 x i32> zeroinitializer
  %151 = add nsw i64 %145, -8
  %152 = lshr exact i64 %151, 3
  %153 = add nuw nsw i64 %152, 1
  %154 = and i64 %153, 7
  %155 = icmp ult i64 %151, 56
  br i1 %155, label %203, label %156

156:                                              ; preds = %144
  %157 = and i64 %153, 4611686018427387896
  br label %158

158:                                              ; preds = %158, %156
  %159 = phi i64 [ 0, %156 ], [ %200, %158 ]
  %160 = phi i64 [ %157, %156 ], [ %201, %158 ]
  %161 = getelementptr i32, i32* %21, i64 %159
  %162 = bitcast i32* %161 to <4 x i32>*
  store <4 x i32> %148, <4 x i32>* %162, align 4, !tbaa !25
  %163 = getelementptr i32, i32* %161, i64 4
  %164 = bitcast i32* %163 to <4 x i32>*
  store <4 x i32> %150, <4 x i32>* %164, align 4, !tbaa !25
  %165 = or i64 %159, 8
  %166 = getelementptr i32, i32* %21, i64 %165
  %167 = bitcast i32* %166 to <4 x i32>*
  store <4 x i32> %148, <4 x i32>* %167, align 4, !tbaa !25
  %168 = getelementptr i32, i32* %166, i64 4
  %169 = bitcast i32* %168 to <4 x i32>*
  store <4 x i32> %150, <4 x i32>* %169, align 4, !tbaa !25
  %170 = or i64 %159, 16
  %171 = getelementptr i32, i32* %21, i64 %170
  %172 = bitcast i32* %171 to <4 x i32>*
  store <4 x i32> %148, <4 x i32>* %172, align 4, !tbaa !25
  %173 = getelementptr i32, i32* %171, i64 4
  %174 = bitcast i32* %173 to <4 x i32>*
  store <4 x i32> %150, <4 x i32>* %174, align 4, !tbaa !25
  %175 = or i64 %159, 24
  %176 = getelementptr i32, i32* %21, i64 %175
  %177 = bitcast i32* %176 to <4 x i32>*
  store <4 x i32> %148, <4 x i32>* %177, align 4, !tbaa !25
  %178 = getelementptr i32, i32* %176, i64 4
  %179 = bitcast i32* %178 to <4 x i32>*
  store <4 x i32> %150, <4 x i32>* %179, align 4, !tbaa !25
  %180 = or i64 %159, 32
  %181 = getelementptr i32, i32* %21, i64 %180
  %182 = bitcast i32* %181 to <4 x i32>*
  store <4 x i32> %148, <4 x i32>* %182, align 4, !tbaa !25
  %183 = getelementptr i32, i32* %181, i64 4
  %184 = bitcast i32* %183 to <4 x i32>*
  store <4 x i32> %150, <4 x i32>* %184, align 4, !tbaa !25
  %185 = or i64 %159, 40
  %186 = getelementptr i32, i32* %21, i64 %185
  %187 = bitcast i32* %186 to <4 x i32>*
  store <4 x i32> %148, <4 x i32>* %187, align 4, !tbaa !25
  %188 = getelementptr i32, i32* %186, i64 4
  %189 = bitcast i32* %188 to <4 x i32>*
  store <4 x i32> %150, <4 x i32>* %189, align 4, !tbaa !25
  %190 = or i64 %159, 48
  %191 = getelementptr i32, i32* %21, i64 %190
  %192 = bitcast i32* %191 to <4 x i32>*
  store <4 x i32> %148, <4 x i32>* %192, align 4, !tbaa !25
  %193 = getelementptr i32, i32* %191, i64 4
  %194 = bitcast i32* %193 to <4 x i32>*
  store <4 x i32> %150, <4 x i32>* %194, align 4, !tbaa !25
  %195 = or i64 %159, 56
  %196 = getelementptr i32, i32* %21, i64 %195
  %197 = bitcast i32* %196 to <4 x i32>*
  store <4 x i32> %148, <4 x i32>* %197, align 4, !tbaa !25
  %198 = getelementptr i32, i32* %196, i64 4
  %199 = bitcast i32* %198 to <4 x i32>*
  store <4 x i32> %150, <4 x i32>* %199, align 4, !tbaa !25
  %200 = add nuw i64 %159, 64
  %201 = add i64 %160, -8
  %202 = icmp eq i64 %201, 0
  br i1 %202, label %203, label %158, !llvm.loop !55

203:                                              ; preds = %158, %144
  %204 = phi i64 [ 0, %144 ], [ %200, %158 ]
  %205 = icmp eq i64 %154, 0
  br i1 %205, label %216, label %206

206:                                              ; preds = %203, %206
  %207 = phi i64 [ %213, %206 ], [ %204, %203 ]
  %208 = phi i64 [ %214, %206 ], [ %154, %203 ]
  %209 = getelementptr i32, i32* %21, i64 %207
  %210 = bitcast i32* %209 to <4 x i32>*
  store <4 x i32> %148, <4 x i32>* %210, align 4, !tbaa !25
  %211 = getelementptr i32, i32* %209, i64 4
  %212 = bitcast i32* %211 to <4 x i32>*
  store <4 x i32> %150, <4 x i32>* %212, align 4, !tbaa !25
  %213 = add nuw i64 %207, 8
  %214 = add i64 %208, -1
  %215 = icmp eq i64 %214, 0
  br i1 %215, label %216, label %206, !llvm.loop !56

216:                                              ; preds = %206, %203
  %217 = icmp eq i64 %142, %145
  br i1 %217, label %385, label %218

218:                                              ; preds = %138, %216
  %219 = phi i32* [ %21, %138 ], [ %146, %216 ]
  br label %220

220:                                              ; preds = %218, %220
  %221 = phi i32* [ %222, %220 ], [ %219, %218 ]
  store i32 %136, i32* %221, align 4, !tbaa !25
  %222 = getelementptr inbounds i32, i32* %221, i64 1
  %223 = icmp eq i32* %222, %18
  br i1 %223, label %385, label %220, !llvm.loop !57

224:                                              ; preds = %132, %224
  %225 = phi i32** [ %295, %224 ], [ %133, %132 ]
  %226 = load i32*, i32** %225, align 8, !tbaa !24
  %227 = load i32, i32* %2, align 4, !tbaa !25
  %228 = insertelement <4 x i32> poison, i32 %227, i32 0
  %229 = shufflevector <4 x i32> %228, <4 x i32> poison, <4 x i32> zeroinitializer
  %230 = insertelement <4 x i32> poison, i32 %227, i32 0
  %231 = shufflevector <4 x i32> %230, <4 x i32> poison, <4 x i32> zeroinitializer
  %232 = bitcast i32* %226 to <4 x i32>*
  store <4 x i32> %229, <4 x i32>* %232, align 4, !tbaa !25
  %233 = getelementptr inbounds i32, i32* %226, i64 4
  %234 = bitcast i32* %233 to <4 x i32>*
  store <4 x i32> %231, <4 x i32>* %234, align 4, !tbaa !25
  %235 = getelementptr inbounds i32, i32* %226, i64 8
  %236 = bitcast i32* %235 to <4 x i32>*
  store <4 x i32> %229, <4 x i32>* %236, align 4, !tbaa !25
  %237 = getelementptr inbounds i32, i32* %226, i64 12
  %238 = bitcast i32* %237 to <4 x i32>*
  store <4 x i32> %231, <4 x i32>* %238, align 4, !tbaa !25
  %239 = getelementptr inbounds i32, i32* %226, i64 16
  %240 = bitcast i32* %239 to <4 x i32>*
  store <4 x i32> %229, <4 x i32>* %240, align 4, !tbaa !25
  %241 = getelementptr inbounds i32, i32* %226, i64 20
  %242 = bitcast i32* %241 to <4 x i32>*
  store <4 x i32> %231, <4 x i32>* %242, align 4, !tbaa !25
  %243 = getelementptr inbounds i32, i32* %226, i64 24
  %244 = bitcast i32* %243 to <4 x i32>*
  store <4 x i32> %229, <4 x i32>* %244, align 4, !tbaa !25
  %245 = getelementptr inbounds i32, i32* %226, i64 28
  %246 = bitcast i32* %245 to <4 x i32>*
  store <4 x i32> %231, <4 x i32>* %246, align 4, !tbaa !25
  %247 = getelementptr inbounds i32, i32* %226, i64 32
  %248 = bitcast i32* %247 to <4 x i32>*
  store <4 x i32> %229, <4 x i32>* %248, align 4, !tbaa !25
  %249 = getelementptr inbounds i32, i32* %226, i64 36
  %250 = bitcast i32* %249 to <4 x i32>*
  store <4 x i32> %231, <4 x i32>* %250, align 4, !tbaa !25
  %251 = getelementptr inbounds i32, i32* %226, i64 40
  %252 = bitcast i32* %251 to <4 x i32>*
  store <4 x i32> %229, <4 x i32>* %252, align 4, !tbaa !25
  %253 = getelementptr inbounds i32, i32* %226, i64 44
  %254 = bitcast i32* %253 to <4 x i32>*
  store <4 x i32> %231, <4 x i32>* %254, align 4, !tbaa !25
  %255 = getelementptr inbounds i32, i32* %226, i64 48
  %256 = bitcast i32* %255 to <4 x i32>*
  store <4 x i32> %229, <4 x i32>* %256, align 4, !tbaa !25
  %257 = getelementptr inbounds i32, i32* %226, i64 52
  %258 = bitcast i32* %257 to <4 x i32>*
  store <4 x i32> %231, <4 x i32>* %258, align 4, !tbaa !25
  %259 = getelementptr inbounds i32, i32* %226, i64 56
  %260 = bitcast i32* %259 to <4 x i32>*
  store <4 x i32> %229, <4 x i32>* %260, align 4, !tbaa !25
  %261 = getelementptr inbounds i32, i32* %226, i64 60
  %262 = bitcast i32* %261 to <4 x i32>*
  store <4 x i32> %231, <4 x i32>* %262, align 4, !tbaa !25
  %263 = getelementptr inbounds i32, i32* %226, i64 64
  %264 = bitcast i32* %263 to <4 x i32>*
  store <4 x i32> %229, <4 x i32>* %264, align 4, !tbaa !25
  %265 = getelementptr inbounds i32, i32* %226, i64 68
  %266 = bitcast i32* %265 to <4 x i32>*
  store <4 x i32> %231, <4 x i32>* %266, align 4, !tbaa !25
  %267 = getelementptr inbounds i32, i32* %226, i64 72
  %268 = bitcast i32* %267 to <4 x i32>*
  store <4 x i32> %229, <4 x i32>* %268, align 4, !tbaa !25
  %269 = getelementptr inbounds i32, i32* %226, i64 76
  %270 = bitcast i32* %269 to <4 x i32>*
  store <4 x i32> %231, <4 x i32>* %270, align 4, !tbaa !25
  %271 = getelementptr inbounds i32, i32* %226, i64 80
  %272 = bitcast i32* %271 to <4 x i32>*
  store <4 x i32> %229, <4 x i32>* %272, align 4, !tbaa !25
  %273 = getelementptr inbounds i32, i32* %226, i64 84
  %274 = bitcast i32* %273 to <4 x i32>*
  store <4 x i32> %231, <4 x i32>* %274, align 4, !tbaa !25
  %275 = getelementptr inbounds i32, i32* %226, i64 88
  %276 = bitcast i32* %275 to <4 x i32>*
  store <4 x i32> %229, <4 x i32>* %276, align 4, !tbaa !25
  %277 = getelementptr inbounds i32, i32* %226, i64 92
  %278 = bitcast i32* %277 to <4 x i32>*
  store <4 x i32> %231, <4 x i32>* %278, align 4, !tbaa !25
  %279 = getelementptr inbounds i32, i32* %226, i64 96
  %280 = bitcast i32* %279 to <4 x i32>*
  store <4 x i32> %229, <4 x i32>* %280, align 4, !tbaa !25
  %281 = getelementptr inbounds i32, i32* %226, i64 100
  %282 = bitcast i32* %281 to <4 x i32>*
  store <4 x i32> %231, <4 x i32>* %282, align 4, !tbaa !25
  %283 = getelementptr inbounds i32, i32* %226, i64 104
  %284 = bitcast i32* %283 to <4 x i32>*
  store <4 x i32> %229, <4 x i32>* %284, align 4, !tbaa !25
  %285 = getelementptr inbounds i32, i32* %226, i64 108
  %286 = bitcast i32* %285 to <4 x i32>*
  store <4 x i32> %231, <4 x i32>* %286, align 4, !tbaa !25
  %287 = getelementptr inbounds i32, i32* %226, i64 112
  %288 = bitcast i32* %287 to <4 x i32>*
  store <4 x i32> %229, <4 x i32>* %288, align 4, !tbaa !25
  %289 = getelementptr inbounds i32, i32* %226, i64 116
  %290 = bitcast i32* %289 to <4 x i32>*
  store <4 x i32> %231, <4 x i32>* %290, align 4, !tbaa !25
  %291 = getelementptr inbounds i32, i32* %226, i64 120
  %292 = bitcast i32* %291 to <4 x i32>*
  store <4 x i32> %229, <4 x i32>* %292, align 4, !tbaa !25
  %293 = getelementptr inbounds i32, i32* %226, i64 124
  %294 = bitcast i32* %293 to <4 x i32>*
  store <4 x i32> %231, <4 x i32>* %294, align 4, !tbaa !25
  %295 = getelementptr inbounds i32*, i32** %225, i64 1
  %296 = icmp ult i32** %295, %6
  br i1 %296, label %224, label %135, !llvm.loop !58

297:                                              ; preds = %40
  %298 = icmp eq i32* %32, %18
  br i1 %298, label %385, label %299

299:                                              ; preds = %297
  %300 = add i64 %19, -4
  %301 = sub i64 %300, %33
  %302 = lshr i64 %301, 2
  %303 = add nuw nsw i64 %302, 1
  %304 = icmp ult i64 %301, 28
  br i1 %304, label %379, label %305

305:                                              ; preds = %299
  %306 = and i64 %303, 9223372036854775800
  %307 = getelementptr i32, i32* %32, i64 %306
  %308 = insertelement <4 x i32> poison, i32 %43, i32 0
  %309 = shufflevector <4 x i32> %308, <4 x i32> poison, <4 x i32> zeroinitializer
  %310 = insertelement <4 x i32> poison, i32 %43, i32 0
  %311 = shufflevector <4 x i32> %310, <4 x i32> poison, <4 x i32> zeroinitializer
  %312 = add nsw i64 %306, -8
  %313 = lshr exact i64 %312, 3
  %314 = add nuw nsw i64 %313, 1
  %315 = and i64 %314, 7
  %316 = icmp ult i64 %312, 56
  br i1 %316, label %364, label %317

317:                                              ; preds = %305
  %318 = and i64 %314, 4611686018427387896
  br label %319

319:                                              ; preds = %319, %317
  %320 = phi i64 [ 0, %317 ], [ %361, %319 ]
  %321 = phi i64 [ %318, %317 ], [ %362, %319 ]
  %322 = getelementptr i32, i32* %32, i64 %320
  %323 = bitcast i32* %322 to <4 x i32>*
  store <4 x i32> %309, <4 x i32>* %323, align 4, !tbaa !25
  %324 = getelementptr i32, i32* %322, i64 4
  %325 = bitcast i32* %324 to <4 x i32>*
  store <4 x i32> %311, <4 x i32>* %325, align 4, !tbaa !25
  %326 = or i64 %320, 8
  %327 = getelementptr i32, i32* %32, i64 %326
  %328 = bitcast i32* %327 to <4 x i32>*
  store <4 x i32> %309, <4 x i32>* %328, align 4, !tbaa !25
  %329 = getelementptr i32, i32* %327, i64 4
  %330 = bitcast i32* %329 to <4 x i32>*
  store <4 x i32> %311, <4 x i32>* %330, align 4, !tbaa !25
  %331 = or i64 %320, 16
  %332 = getelementptr i32, i32* %32, i64 %331
  %333 = bitcast i32* %332 to <4 x i32>*
  store <4 x i32> %309, <4 x i32>* %333, align 4, !tbaa !25
  %334 = getelementptr i32, i32* %332, i64 4
  %335 = bitcast i32* %334 to <4 x i32>*
  store <4 x i32> %311, <4 x i32>* %335, align 4, !tbaa !25
  %336 = or i64 %320, 24
  %337 = getelementptr i32, i32* %32, i64 %336
  %338 = bitcast i32* %337 to <4 x i32>*
  store <4 x i32> %309, <4 x i32>* %338, align 4, !tbaa !25
  %339 = getelementptr i32, i32* %337, i64 4
  %340 = bitcast i32* %339 to <4 x i32>*
  store <4 x i32> %311, <4 x i32>* %340, align 4, !tbaa !25
  %341 = or i64 %320, 32
  %342 = getelementptr i32, i32* %32, i64 %341
  %343 = bitcast i32* %342 to <4 x i32>*
  store <4 x i32> %309, <4 x i32>* %343, align 4, !tbaa !25
  %344 = getelementptr i32, i32* %342, i64 4
  %345 = bitcast i32* %344 to <4 x i32>*
  store <4 x i32> %311, <4 x i32>* %345, align 4, !tbaa !25
  %346 = or i64 %320, 40
  %347 = getelementptr i32, i32* %32, i64 %346
  %348 = bitcast i32* %347 to <4 x i32>*
  store <4 x i32> %309, <4 x i32>* %348, align 4, !tbaa !25
  %349 = getelementptr i32, i32* %347, i64 4
  %350 = bitcast i32* %349 to <4 x i32>*
  store <4 x i32> %311, <4 x i32>* %350, align 4, !tbaa !25
  %351 = or i64 %320, 48
  %352 = getelementptr i32, i32* %32, i64 %351
  %353 = bitcast i32* %352 to <4 x i32>*
  store <4 x i32> %309, <4 x i32>* %353, align 4, !tbaa !25
  %354 = getelementptr i32, i32* %352, i64 4
  %355 = bitcast i32* %354 to <4 x i32>*
  store <4 x i32> %311, <4 x i32>* %355, align 4, !tbaa !25
  %356 = or i64 %320, 56
  %357 = getelementptr i32, i32* %32, i64 %356
  %358 = bitcast i32* %357 to <4 x i32>*
  store <4 x i32> %309, <4 x i32>* %358, align 4, !tbaa !25
  %359 = getelementptr i32, i32* %357, i64 4
  %360 = bitcast i32* %359 to <4 x i32>*
  store <4 x i32> %311, <4 x i32>* %360, align 4, !tbaa !25
  %361 = add nuw i64 %320, 64
  %362 = add i64 %321, -8
  %363 = icmp eq i64 %362, 0
  br i1 %363, label %364, label %319, !llvm.loop !59

364:                                              ; preds = %319, %305
  %365 = phi i64 [ 0, %305 ], [ %361, %319 ]
  %366 = icmp eq i64 %315, 0
  br i1 %366, label %377, label %367

367:                                              ; preds = %364, %367
  %368 = phi i64 [ %374, %367 ], [ %365, %364 ]
  %369 = phi i64 [ %375, %367 ], [ %315, %364 ]
  %370 = getelementptr i32, i32* %32, i64 %368
  %371 = bitcast i32* %370 to <4 x i32>*
  store <4 x i32> %309, <4 x i32>* %371, align 4, !tbaa !25
  %372 = getelementptr i32, i32* %370, i64 4
  %373 = bitcast i32* %372 to <4 x i32>*
  store <4 x i32> %311, <4 x i32>* %373, align 4, !tbaa !25
  %374 = add nuw i64 %368, 8
  %375 = add i64 %369, -1
  %376 = icmp eq i64 %375, 0
  br i1 %376, label %377, label %367, !llvm.loop !60

377:                                              ; preds = %367, %364
  %378 = icmp eq i64 %303, %306
  br i1 %378, label %385, label %379

379:                                              ; preds = %299, %377
  %380 = phi i32* [ %32, %299 ], [ %307, %377 ]
  br label %381

381:                                              ; preds = %379, %381
  %382 = phi i32* [ %383, %381 ], [ %380, %379 ]
  store i32 %43, i32* %382, align 4, !tbaa !25
  %383 = getelementptr inbounds i32, i32* %382, i64 1
  %384 = icmp eq i32* %383, %18
  br i1 %384, label %385, label %381, !llvm.loop !61

385:                                              ; preds = %220, %381, %216, %377, %135, %297
  tail call void @llvm.experimental.noalias.scope.decl(metadata !62)
  %386 = getelementptr inbounds %"struct.std::_Deque_iterator", %"struct.std::_Deque_iterator"* %4, i64 0, i32 0
  store i32* %18, i32** %386, align 8, !tbaa !10, !alias.scope !62
  %387 = getelementptr inbounds %"struct.std::_Deque_iterator", %"struct.std::_Deque_iterator"* %4, i64 0, i32 1
  store i32* %21, i32** %387, align 8, !tbaa !11, !alias.scope !62
  %388 = getelementptr inbounds %"struct.std::_Deque_iterator", %"struct.std::_Deque_iterator"* %4, i64 0, i32 2
  %389 = load i32*, i32** %41, align 8, !tbaa !12, !noalias !62
  store i32* %389, i32** %388, align 8, !tbaa !12, !alias.scope !62
  %390 = getelementptr inbounds %"struct.std::_Deque_iterator", %"struct.std::_Deque_iterator"* %4, i64 0, i32 3
  store i32** %6, i32*** %390, align 8, !tbaa !5, !alias.scope !62
  %391 = sub i64 %1, %38
  call void @_ZNSt5dequeIiSaIiEE14_M_fill_insertESt15_Deque_iteratorIiRiPiEmRKi(%"class.std::deque"* nonnull align 8 dereferenceable(80) %0, %"struct.std::_Deque_iterator"* nonnull %4, i64 %391, i32* nonnull align 4 dereferenceable(4) %2)
  br label %786

392:                                              ; preds = %3
  %393 = getelementptr inbounds %"class.std::deque", %"class.std::deque"* %0, i64 0, i32 0, i32 0, i32 0, i32 2, i32 1
  %394 = load i32*, i32** %393, align 8, !tbaa !11, !noalias !65
  %395 = ptrtoint i32* %394 to i64
  %396 = sub i64 %35, %395
  %397 = ashr exact i64 %396, 2
  %398 = add nsw i64 %397, %1
  %399 = icmp sgt i64 %398, -1
  br i1 %399, label %400, label %406

400:                                              ; preds = %392
  %401 = icmp slt i64 %398, 128
  br i1 %401, label %402, label %404

402:                                              ; preds = %400
  %403 = getelementptr inbounds i32, i32* %32, i64 %1
  br label %417

404:                                              ; preds = %400
  %405 = lshr i64 %398, 7
  br label %409

406:                                              ; preds = %392
  %407 = lshr i64 %398, 7
  %408 = or i64 %407, -144115188075855872
  br label %409

409:                                              ; preds = %406, %404
  %410 = phi i64 [ %405, %404 ], [ %408, %406 ]
  %411 = getelementptr inbounds i32*, i32** %8, i64 %410
  %412 = load i32*, i32** %411, align 8, !tbaa !24, !noalias !68
  %413 = getelementptr inbounds i32, i32* %412, i64 128
  %414 = mul i64 %410, -128
  %415 = add i64 %414, %398
  %416 = getelementptr inbounds i32, i32* %412, i64 %415
  br label %417

417:                                              ; preds = %402, %409
  %418 = phi i32* [ %394, %402 ], [ %412, %409 ]
  %419 = phi i32* [ %29, %402 ], [ %413, %409 ]
  %420 = phi i32** [ %8, %402 ], [ %411, %409 ]
  %421 = phi i32* [ %403, %402 ], [ %416, %409 ]
  %422 = ptrtoint i32* %421 to i64
  %423 = ptrtoint i32* %418 to i64
  %424 = icmp ult i32** %420, %6
  br i1 %424, label %425, label %435

425:                                              ; preds = %417, %425
  %426 = phi i32** [ %427, %425 ], [ %420, %417 ]
  %427 = getelementptr inbounds i32*, i32** %426, i64 1
  %428 = bitcast i32** %427 to i8**
  %429 = load i8*, i8** %428, align 8, !tbaa !24
  tail call void @_ZdlPv(i8* %429) #18
  %430 = icmp ult i32** %427, %6
  br i1 %430, label %425, label %431, !llvm.loop !44

431:                                              ; preds = %425
  %432 = load i32*, i32** %31, align 8, !tbaa !10, !noalias !71
  %433 = load i32*, i32** %28, align 8, !tbaa !12, !noalias !71
  %434 = load i32**, i32*** %7, align 8, !tbaa !5, !noalias !71
  br label %435

435:                                              ; preds = %431, %417
  %436 = phi i32** [ %434, %431 ], [ %8, %417 ]
  %437 = phi i32* [ %433, %431 ], [ %29, %417 ]
  %438 = phi i32* [ %432, %431 ], [ %32, %417 ]
  %439 = ptrtoint i32* %438 to i64
  %440 = ptrtoint i32* %437 to i64
  %441 = ptrtoint i32* %438 to i64
  store i32* %421, i32** %17, align 8, !tbaa.struct !74
  store i32* %418, i32** %20, align 8, !tbaa.struct !75
  %442 = getelementptr inbounds %"class.std::deque", %"class.std::deque"* %0, i64 0, i32 0, i32 0, i32 0, i32 3, i32 2
  store i32* %419, i32** %442, align 8, !tbaa.struct !76
  store i32** %420, i32*** %5, align 8, !tbaa.struct !77
  %443 = icmp eq i32** %436, %420
  %444 = load i32, i32* %2, align 4, !tbaa !25
  br i1 %443, label %698, label %445

445:                                              ; preds = %435
  %446 = icmp eq i32* %438, %437
  br i1 %446, label %533, label %447

447:                                              ; preds = %445
  %448 = add i64 %440, -4
  %449 = sub i64 %448, %441
  %450 = lshr i64 %449, 2
  %451 = add nuw nsw i64 %450, 1
  %452 = icmp ult i64 %449, 28
  br i1 %452, label %527, label %453

453:                                              ; preds = %447
  %454 = and i64 %451, 9223372036854775800
  %455 = getelementptr i32, i32* %438, i64 %454
  %456 = insertelement <4 x i32> poison, i32 %444, i32 0
  %457 = shufflevector <4 x i32> %456, <4 x i32> poison, <4 x i32> zeroinitializer
  %458 = insertelement <4 x i32> poison, i32 %444, i32 0
  %459 = shufflevector <4 x i32> %458, <4 x i32> poison, <4 x i32> zeroinitializer
  %460 = add nsw i64 %454, -8
  %461 = lshr exact i64 %460, 3
  %462 = add nuw nsw i64 %461, 1
  %463 = and i64 %462, 7
  %464 = icmp ult i64 %460, 56
  br i1 %464, label %512, label %465

465:                                              ; preds = %453
  %466 = and i64 %462, 4611686018427387896
  br label %467

467:                                              ; preds = %467, %465
  %468 = phi i64 [ 0, %465 ], [ %509, %467 ]
  %469 = phi i64 [ %466, %465 ], [ %510, %467 ]
  %470 = getelementptr i32, i32* %438, i64 %468
  %471 = bitcast i32* %470 to <4 x i32>*
  store <4 x i32> %457, <4 x i32>* %471, align 4, !tbaa !25
  %472 = getelementptr i32, i32* %470, i64 4
  %473 = bitcast i32* %472 to <4 x i32>*
  store <4 x i32> %459, <4 x i32>* %473, align 4, !tbaa !25
  %474 = or i64 %468, 8
  %475 = getelementptr i32, i32* %438, i64 %474
  %476 = bitcast i32* %475 to <4 x i32>*
  store <4 x i32> %457, <4 x i32>* %476, align 4, !tbaa !25
  %477 = getelementptr i32, i32* %475, i64 4
  %478 = bitcast i32* %477 to <4 x i32>*
  store <4 x i32> %459, <4 x i32>* %478, align 4, !tbaa !25
  %479 = or i64 %468, 16
  %480 = getelementptr i32, i32* %438, i64 %479
  %481 = bitcast i32* %480 to <4 x i32>*
  store <4 x i32> %457, <4 x i32>* %481, align 4, !tbaa !25
  %482 = getelementptr i32, i32* %480, i64 4
  %483 = bitcast i32* %482 to <4 x i32>*
  store <4 x i32> %459, <4 x i32>* %483, align 4, !tbaa !25
  %484 = or i64 %468, 24
  %485 = getelementptr i32, i32* %438, i64 %484
  %486 = bitcast i32* %485 to <4 x i32>*
  store <4 x i32> %457, <4 x i32>* %486, align 4, !tbaa !25
  %487 = getelementptr i32, i32* %485, i64 4
  %488 = bitcast i32* %487 to <4 x i32>*
  store <4 x i32> %459, <4 x i32>* %488, align 4, !tbaa !25
  %489 = or i64 %468, 32
  %490 = getelementptr i32, i32* %438, i64 %489
  %491 = bitcast i32* %490 to <4 x i32>*
  store <4 x i32> %457, <4 x i32>* %491, align 4, !tbaa !25
  %492 = getelementptr i32, i32* %490, i64 4
  %493 = bitcast i32* %492 to <4 x i32>*
  store <4 x i32> %459, <4 x i32>* %493, align 4, !tbaa !25
  %494 = or i64 %468, 40
  %495 = getelementptr i32, i32* %438, i64 %494
  %496 = bitcast i32* %495 to <4 x i32>*
  store <4 x i32> %457, <4 x i32>* %496, align 4, !tbaa !25
  %497 = getelementptr i32, i32* %495, i64 4
  %498 = bitcast i32* %497 to <4 x i32>*
  store <4 x i32> %459, <4 x i32>* %498, align 4, !tbaa !25
  %499 = or i64 %468, 48
  %500 = getelementptr i32, i32* %438, i64 %499
  %501 = bitcast i32* %500 to <4 x i32>*
  store <4 x i32> %457, <4 x i32>* %501, align 4, !tbaa !25
  %502 = getelementptr i32, i32* %500, i64 4
  %503 = bitcast i32* %502 to <4 x i32>*
  store <4 x i32> %459, <4 x i32>* %503, align 4, !tbaa !25
  %504 = or i64 %468, 56
  %505 = getelementptr i32, i32* %438, i64 %504
  %506 = bitcast i32* %505 to <4 x i32>*
  store <4 x i32> %457, <4 x i32>* %506, align 4, !tbaa !25
  %507 = getelementptr i32, i32* %505, i64 4
  %508 = bitcast i32* %507 to <4 x i32>*
  store <4 x i32> %459, <4 x i32>* %508, align 4, !tbaa !25
  %509 = add nuw i64 %468, 64
  %510 = add i64 %469, -8
  %511 = icmp eq i64 %510, 0
  br i1 %511, label %512, label %467, !llvm.loop !78

512:                                              ; preds = %467, %453
  %513 = phi i64 [ 0, %453 ], [ %509, %467 ]
  %514 = icmp eq i64 %463, 0
  br i1 %514, label %525, label %515

515:                                              ; preds = %512, %515
  %516 = phi i64 [ %522, %515 ], [ %513, %512 ]
  %517 = phi i64 [ %523, %515 ], [ %463, %512 ]
  %518 = getelementptr i32, i32* %438, i64 %516
  %519 = bitcast i32* %518 to <4 x i32>*
  store <4 x i32> %457, <4 x i32>* %519, align 4, !tbaa !25
  %520 = getelementptr i32, i32* %518, i64 4
  %521 = bitcast i32* %520 to <4 x i32>*
  store <4 x i32> %459, <4 x i32>* %521, align 4, !tbaa !25
  %522 = add nuw i64 %516, 8
  %523 = add i64 %517, -1
  %524 = icmp eq i64 %523, 0
  br i1 %524, label %525, label %515, !llvm.loop !79

525:                                              ; preds = %515, %512
  %526 = icmp eq i64 %451, %454
  br i1 %526, label %533, label %527

527:                                              ; preds = %447, %525
  %528 = phi i32* [ %438, %447 ], [ %455, %525 ]
  br label %529

529:                                              ; preds = %527, %529
  %530 = phi i32* [ %531, %529 ], [ %528, %527 ]
  store i32 %444, i32* %530, align 4, !tbaa !25
  %531 = getelementptr inbounds i32, i32* %530, i64 1
  %532 = icmp eq i32* %531, %437
  br i1 %532, label %533, label %529, !llvm.loop !80

533:                                              ; preds = %529, %525, %445
  %534 = getelementptr inbounds i32*, i32** %436, i64 1
  %535 = icmp ult i32** %534, %420
  br i1 %535, label %625, label %536

536:                                              ; preds = %625, %533
  %537 = load i32, i32* %2, align 4, !tbaa !25
  %538 = icmp eq i32* %418, %421
  br i1 %538, label %786, label %539

539:                                              ; preds = %536
  %540 = add i64 %422, -4
  %541 = sub i64 %540, %423
  %542 = lshr i64 %541, 2
  %543 = add nuw nsw i64 %542, 1
  %544 = icmp ult i64 %541, 28
  br i1 %544, label %619, label %545

545:                                              ; preds = %539
  %546 = and i64 %543, 9223372036854775800
  %547 = getelementptr i32, i32* %418, i64 %546
  %548 = insertelement <4 x i32> poison, i32 %537, i32 0
  %549 = shufflevector <4 x i32> %548, <4 x i32> poison, <4 x i32> zeroinitializer
  %550 = insertelement <4 x i32> poison, i32 %537, i32 0
  %551 = shufflevector <4 x i32> %550, <4 x i32> poison, <4 x i32> zeroinitializer
  %552 = add nsw i64 %546, -8
  %553 = lshr exact i64 %552, 3
  %554 = add nuw nsw i64 %553, 1
  %555 = and i64 %554, 7
  %556 = icmp ult i64 %552, 56
  br i1 %556, label %604, label %557

557:                                              ; preds = %545
  %558 = and i64 %554, 4611686018427387896
  br label %559

559:                                              ; preds = %559, %557
  %560 = phi i64 [ 0, %557 ], [ %601, %559 ]
  %561 = phi i64 [ %558, %557 ], [ %602, %559 ]
  %562 = getelementptr i32, i32* %418, i64 %560
  %563 = bitcast i32* %562 to <4 x i32>*
  store <4 x i32> %549, <4 x i32>* %563, align 4, !tbaa !25
  %564 = getelementptr i32, i32* %562, i64 4
  %565 = bitcast i32* %564 to <4 x i32>*
  store <4 x i32> %551, <4 x i32>* %565, align 4, !tbaa !25
  %566 = or i64 %560, 8
  %567 = getelementptr i32, i32* %418, i64 %566
  %568 = bitcast i32* %567 to <4 x i32>*
  store <4 x i32> %549, <4 x i32>* %568, align 4, !tbaa !25
  %569 = getelementptr i32, i32* %567, i64 4
  %570 = bitcast i32* %569 to <4 x i32>*
  store <4 x i32> %551, <4 x i32>* %570, align 4, !tbaa !25
  %571 = or i64 %560, 16
  %572 = getelementptr i32, i32* %418, i64 %571
  %573 = bitcast i32* %572 to <4 x i32>*
  store <4 x i32> %549, <4 x i32>* %573, align 4, !tbaa !25
  %574 = getelementptr i32, i32* %572, i64 4
  %575 = bitcast i32* %574 to <4 x i32>*
  store <4 x i32> %551, <4 x i32>* %575, align 4, !tbaa !25
  %576 = or i64 %560, 24
  %577 = getelementptr i32, i32* %418, i64 %576
  %578 = bitcast i32* %577 to <4 x i32>*
  store <4 x i32> %549, <4 x i32>* %578, align 4, !tbaa !25
  %579 = getelementptr i32, i32* %577, i64 4
  %580 = bitcast i32* %579 to <4 x i32>*
  store <4 x i32> %551, <4 x i32>* %580, align 4, !tbaa !25
  %581 = or i64 %560, 32
  %582 = getelementptr i32, i32* %418, i64 %581
  %583 = bitcast i32* %582 to <4 x i32>*
  store <4 x i32> %549, <4 x i32>* %583, align 4, !tbaa !25
  %584 = getelementptr i32, i32* %582, i64 4
  %585 = bitcast i32* %584 to <4 x i32>*
  store <4 x i32> %551, <4 x i32>* %585, align 4, !tbaa !25
  %586 = or i64 %560, 40
  %587 = getelementptr i32, i32* %418, i64 %586
  %588 = bitcast i32* %587 to <4 x i32>*
  store <4 x i32> %549, <4 x i32>* %588, align 4, !tbaa !25
  %589 = getelementptr i32, i32* %587, i64 4
  %590 = bitcast i32* %589 to <4 x i32>*
  store <4 x i32> %551, <4 x i32>* %590, align 4, !tbaa !25
  %591 = or i64 %560, 48
  %592 = getelementptr i32, i32* %418, i64 %591
  %593 = bitcast i32* %592 to <4 x i32>*
  store <4 x i32> %549, <4 x i32>* %593, align 4, !tbaa !25
  %594 = getelementptr i32, i32* %592, i64 4
  %595 = bitcast i32* %594 to <4 x i32>*
  store <4 x i32> %551, <4 x i32>* %595, align 4, !tbaa !25
  %596 = or i64 %560, 56
  %597 = getelementptr i32, i32* %418, i64 %596
  %598 = bitcast i32* %597 to <4 x i32>*
  store <4 x i32> %549, <4 x i32>* %598, align 4, !tbaa !25
  %599 = getelementptr i32, i32* %597, i64 4
  %600 = bitcast i32* %599 to <4 x i32>*
  store <4 x i32> %551, <4 x i32>* %600, align 4, !tbaa !25
  %601 = add nuw i64 %560, 64
  %602 = add i64 %561, -8
  %603 = icmp eq i64 %602, 0
  br i1 %603, label %604, label %559, !llvm.loop !81

604:                                              ; preds = %559, %545
  %605 = phi i64 [ 0, %545 ], [ %601, %559 ]
  %606 = icmp eq i64 %555, 0
  br i1 %606, label %617, label %607

607:                                              ; preds = %604, %607
  %608 = phi i64 [ %614, %607 ], [ %605, %604 ]
  %609 = phi i64 [ %615, %607 ], [ %555, %604 ]
  %610 = getelementptr i32, i32* %418, i64 %608
  %611 = bitcast i32* %610 to <4 x i32>*
  store <4 x i32> %549, <4 x i32>* %611, align 4, !tbaa !25
  %612 = getelementptr i32, i32* %610, i64 4
  %613 = bitcast i32* %612 to <4 x i32>*
  store <4 x i32> %551, <4 x i32>* %613, align 4, !tbaa !25
  %614 = add nuw i64 %608, 8
  %615 = add i64 %609, -1
  %616 = icmp eq i64 %615, 0
  br i1 %616, label %617, label %607, !llvm.loop !82

617:                                              ; preds = %607, %604
  %618 = icmp eq i64 %543, %546
  br i1 %618, label %786, label %619

619:                                              ; preds = %539, %617
  %620 = phi i32* [ %418, %539 ], [ %547, %617 ]
  br label %621

621:                                              ; preds = %619, %621
  %622 = phi i32* [ %623, %621 ], [ %620, %619 ]
  store i32 %537, i32* %622, align 4, !tbaa !25
  %623 = getelementptr inbounds i32, i32* %622, i64 1
  %624 = icmp eq i32* %623, %421
  br i1 %624, label %786, label %621, !llvm.loop !83

625:                                              ; preds = %533, %625
  %626 = phi i32** [ %696, %625 ], [ %534, %533 ]
  %627 = load i32*, i32** %626, align 8, !tbaa !24
  %628 = load i32, i32* %2, align 4, !tbaa !25
  %629 = insertelement <4 x i32> poison, i32 %628, i32 0
  %630 = shufflevector <4 x i32> %629, <4 x i32> poison, <4 x i32> zeroinitializer
  %631 = insertelement <4 x i32> poison, i32 %628, i32 0
  %632 = shufflevector <4 x i32> %631, <4 x i32> poison, <4 x i32> zeroinitializer
  %633 = bitcast i32* %627 to <4 x i32>*
  store <4 x i32> %630, <4 x i32>* %633, align 4, !tbaa !25
  %634 = getelementptr inbounds i32, i32* %627, i64 4
  %635 = bitcast i32* %634 to <4 x i32>*
  store <4 x i32> %632, <4 x i32>* %635, align 4, !tbaa !25
  %636 = getelementptr inbounds i32, i32* %627, i64 8
  %637 = bitcast i32* %636 to <4 x i32>*
  store <4 x i32> %630, <4 x i32>* %637, align 4, !tbaa !25
  %638 = getelementptr inbounds i32, i32* %627, i64 12
  %639 = bitcast i32* %638 to <4 x i32>*
  store <4 x i32> %632, <4 x i32>* %639, align 4, !tbaa !25
  %640 = getelementptr inbounds i32, i32* %627, i64 16
  %641 = bitcast i32* %640 to <4 x i32>*
  store <4 x i32> %630, <4 x i32>* %641, align 4, !tbaa !25
  %642 = getelementptr inbounds i32, i32* %627, i64 20
  %643 = bitcast i32* %642 to <4 x i32>*
  store <4 x i32> %632, <4 x i32>* %643, align 4, !tbaa !25
  %644 = getelementptr inbounds i32, i32* %627, i64 24
  %645 = bitcast i32* %644 to <4 x i32>*
  store <4 x i32> %630, <4 x i32>* %645, align 4, !tbaa !25
  %646 = getelementptr inbounds i32, i32* %627, i64 28
  %647 = bitcast i32* %646 to <4 x i32>*
  store <4 x i32> %632, <4 x i32>* %647, align 4, !tbaa !25
  %648 = getelementptr inbounds i32, i32* %627, i64 32
  %649 = bitcast i32* %648 to <4 x i32>*
  store <4 x i32> %630, <4 x i32>* %649, align 4, !tbaa !25
  %650 = getelementptr inbounds i32, i32* %627, i64 36
  %651 = bitcast i32* %650 to <4 x i32>*
  store <4 x i32> %632, <4 x i32>* %651, align 4, !tbaa !25
  %652 = getelementptr inbounds i32, i32* %627, i64 40
  %653 = bitcast i32* %652 to <4 x i32>*
  store <4 x i32> %630, <4 x i32>* %653, align 4, !tbaa !25
  %654 = getelementptr inbounds i32, i32* %627, i64 44
  %655 = bitcast i32* %654 to <4 x i32>*
  store <4 x i32> %632, <4 x i32>* %655, align 4, !tbaa !25
  %656 = getelementptr inbounds i32, i32* %627, i64 48
  %657 = bitcast i32* %656 to <4 x i32>*
  store <4 x i32> %630, <4 x i32>* %657, align 4, !tbaa !25
  %658 = getelementptr inbounds i32, i32* %627, i64 52
  %659 = bitcast i32* %658 to <4 x i32>*
  store <4 x i32> %632, <4 x i32>* %659, align 4, !tbaa !25
  %660 = getelementptr inbounds i32, i32* %627, i64 56
  %661 = bitcast i32* %660 to <4 x i32>*
  store <4 x i32> %630, <4 x i32>* %661, align 4, !tbaa !25
  %662 = getelementptr inbounds i32, i32* %627, i64 60
  %663 = bitcast i32* %662 to <4 x i32>*
  store <4 x i32> %632, <4 x i32>* %663, align 4, !tbaa !25
  %664 = getelementptr inbounds i32, i32* %627, i64 64
  %665 = bitcast i32* %664 to <4 x i32>*
  store <4 x i32> %630, <4 x i32>* %665, align 4, !tbaa !25
  %666 = getelementptr inbounds i32, i32* %627, i64 68
  %667 = bitcast i32* %666 to <4 x i32>*
  store <4 x i32> %632, <4 x i32>* %667, align 4, !tbaa !25
  %668 = getelementptr inbounds i32, i32* %627, i64 72
  %669 = bitcast i32* %668 to <4 x i32>*
  store <4 x i32> %630, <4 x i32>* %669, align 4, !tbaa !25
  %670 = getelementptr inbounds i32, i32* %627, i64 76
  %671 = bitcast i32* %670 to <4 x i32>*
  store <4 x i32> %632, <4 x i32>* %671, align 4, !tbaa !25
  %672 = getelementptr inbounds i32, i32* %627, i64 80
  %673 = bitcast i32* %672 to <4 x i32>*
  store <4 x i32> %630, <4 x i32>* %673, align 4, !tbaa !25
  %674 = getelementptr inbounds i32, i32* %627, i64 84
  %675 = bitcast i32* %674 to <4 x i32>*
  store <4 x i32> %632, <4 x i32>* %675, align 4, !tbaa !25
  %676 = getelementptr inbounds i32, i32* %627, i64 88
  %677 = bitcast i32* %676 to <4 x i32>*
  store <4 x i32> %630, <4 x i32>* %677, align 4, !tbaa !25
  %678 = getelementptr inbounds i32, i32* %627, i64 92
  %679 = bitcast i32* %678 to <4 x i32>*
  store <4 x i32> %632, <4 x i32>* %679, align 4, !tbaa !25
  %680 = getelementptr inbounds i32, i32* %627, i64 96
  %681 = bitcast i32* %680 to <4 x i32>*
  store <4 x i32> %630, <4 x i32>* %681, align 4, !tbaa !25
  %682 = getelementptr inbounds i32, i32* %627, i64 100
  %683 = bitcast i32* %682 to <4 x i32>*
  store <4 x i32> %632, <4 x i32>* %683, align 4, !tbaa !25
  %684 = getelementptr inbounds i32, i32* %627, i64 104
  %685 = bitcast i32* %684 to <4 x i32>*
  store <4 x i32> %630, <4 x i32>* %685, align 4, !tbaa !25
  %686 = getelementptr inbounds i32, i32* %627, i64 108
  %687 = bitcast i32* %686 to <4 x i32>*
  store <4 x i32> %632, <4 x i32>* %687, align 4, !tbaa !25
  %688 = getelementptr inbounds i32, i32* %627, i64 112
  %689 = bitcast i32* %688 to <4 x i32>*
  store <4 x i32> %630, <4 x i32>* %689, align 4, !tbaa !25
  %690 = getelementptr inbounds i32, i32* %627, i64 116
  %691 = bitcast i32* %690 to <4 x i32>*
  store <4 x i32> %632, <4 x i32>* %691, align 4, !tbaa !25
  %692 = getelementptr inbounds i32, i32* %627, i64 120
  %693 = bitcast i32* %692 to <4 x i32>*
  store <4 x i32> %630, <4 x i32>* %693, align 4, !tbaa !25
  %694 = getelementptr inbounds i32, i32* %627, i64 124
  %695 = bitcast i32* %694 to <4 x i32>*
  store <4 x i32> %632, <4 x i32>* %695, align 4, !tbaa !25
  %696 = getelementptr inbounds i32*, i32** %626, i64 1
  %697 = icmp ult i32** %696, %420
  br i1 %697, label %625, label %536, !llvm.loop !58

698:                                              ; preds = %435
  %699 = icmp eq i32* %438, %421
  br i1 %699, label %786, label %700

700:                                              ; preds = %698
  %701 = add i64 %422, -4
  %702 = sub i64 %701, %439
  %703 = lshr i64 %702, 2
  %704 = add nuw nsw i64 %703, 1
  %705 = icmp ult i64 %702, 28
  br i1 %705, label %780, label %706

706:                                              ; preds = %700
  %707 = and i64 %704, 9223372036854775800
  %708 = getelementptr i32, i32* %438, i64 %707
  %709 = insertelement <4 x i32> poison, i32 %444, i32 0
  %710 = shufflevector <4 x i32> %709, <4 x i32> poison, <4 x i32> zeroinitializer
  %711 = insertelement <4 x i32> poison, i32 %444, i32 0
  %712 = shufflevector <4 x i32> %711, <4 x i32> poison, <4 x i32> zeroinitializer
  %713 = add nsw i64 %707, -8
  %714 = lshr exact i64 %713, 3
  %715 = add nuw nsw i64 %714, 1
  %716 = and i64 %715, 7
  %717 = icmp ult i64 %713, 56
  br i1 %717, label %765, label %718

718:                                              ; preds = %706
  %719 = and i64 %715, 4611686018427387896
  br label %720

720:                                              ; preds = %720, %718
  %721 = phi i64 [ 0, %718 ], [ %762, %720 ]
  %722 = phi i64 [ %719, %718 ], [ %763, %720 ]
  %723 = getelementptr i32, i32* %438, i64 %721
  %724 = bitcast i32* %723 to <4 x i32>*
  store <4 x i32> %710, <4 x i32>* %724, align 4, !tbaa !25
  %725 = getelementptr i32, i32* %723, i64 4
  %726 = bitcast i32* %725 to <4 x i32>*
  store <4 x i32> %712, <4 x i32>* %726, align 4, !tbaa !25
  %727 = or i64 %721, 8
  %728 = getelementptr i32, i32* %438, i64 %727
  %729 = bitcast i32* %728 to <4 x i32>*
  store <4 x i32> %710, <4 x i32>* %729, align 4, !tbaa !25
  %730 = getelementptr i32, i32* %728, i64 4
  %731 = bitcast i32* %730 to <4 x i32>*
  store <4 x i32> %712, <4 x i32>* %731, align 4, !tbaa !25
  %732 = or i64 %721, 16
  %733 = getelementptr i32, i32* %438, i64 %732
  %734 = bitcast i32* %733 to <4 x i32>*
  store <4 x i32> %710, <4 x i32>* %734, align 4, !tbaa !25
  %735 = getelementptr i32, i32* %733, i64 4
  %736 = bitcast i32* %735 to <4 x i32>*
  store <4 x i32> %712, <4 x i32>* %736, align 4, !tbaa !25
  %737 = or i64 %721, 24
  %738 = getelementptr i32, i32* %438, i64 %737
  %739 = bitcast i32* %738 to <4 x i32>*
  store <4 x i32> %710, <4 x i32>* %739, align 4, !tbaa !25
  %740 = getelementptr i32, i32* %738, i64 4
  %741 = bitcast i32* %740 to <4 x i32>*
  store <4 x i32> %712, <4 x i32>* %741, align 4, !tbaa !25
  %742 = or i64 %721, 32
  %743 = getelementptr i32, i32* %438, i64 %742
  %744 = bitcast i32* %743 to <4 x i32>*
  store <4 x i32> %710, <4 x i32>* %744, align 4, !tbaa !25
  %745 = getelementptr i32, i32* %743, i64 4
  %746 = bitcast i32* %745 to <4 x i32>*
  store <4 x i32> %712, <4 x i32>* %746, align 4, !tbaa !25
  %747 = or i64 %721, 40
  %748 = getelementptr i32, i32* %438, i64 %747
  %749 = bitcast i32* %748 to <4 x i32>*
  store <4 x i32> %710, <4 x i32>* %749, align 4, !tbaa !25
  %750 = getelementptr i32, i32* %748, i64 4
  %751 = bitcast i32* %750 to <4 x i32>*
  store <4 x i32> %712, <4 x i32>* %751, align 4, !tbaa !25
  %752 = or i64 %721, 48
  %753 = getelementptr i32, i32* %438, i64 %752
  %754 = bitcast i32* %753 to <4 x i32>*
  store <4 x i32> %710, <4 x i32>* %754, align 4, !tbaa !25
  %755 = getelementptr i32, i32* %753, i64 4
  %756 = bitcast i32* %755 to <4 x i32>*
  store <4 x i32> %712, <4 x i32>* %756, align 4, !tbaa !25
  %757 = or i64 %721, 56
  %758 = getelementptr i32, i32* %438, i64 %757
  %759 = bitcast i32* %758 to <4 x i32>*
  store <4 x i32> %710, <4 x i32>* %759, align 4, !tbaa !25
  %760 = getelementptr i32, i32* %758, i64 4
  %761 = bitcast i32* %760 to <4 x i32>*
  store <4 x i32> %712, <4 x i32>* %761, align 4, !tbaa !25
  %762 = add nuw i64 %721, 64
  %763 = add i64 %722, -8
  %764 = icmp eq i64 %763, 0
  br i1 %764, label %765, label %720, !llvm.loop !84

765:                                              ; preds = %720, %706
  %766 = phi i64 [ 0, %706 ], [ %762, %720 ]
  %767 = icmp eq i64 %716, 0
  br i1 %767, label %778, label %768

768:                                              ; preds = %765, %768
  %769 = phi i64 [ %775, %768 ], [ %766, %765 ]
  %770 = phi i64 [ %776, %768 ], [ %716, %765 ]
  %771 = getelementptr i32, i32* %438, i64 %769
  %772 = bitcast i32* %771 to <4 x i32>*
  store <4 x i32> %710, <4 x i32>* %772, align 4, !tbaa !25
  %773 = getelementptr i32, i32* %771, i64 4
  %774 = bitcast i32* %773 to <4 x i32>*
  store <4 x i32> %712, <4 x i32>* %774, align 4, !tbaa !25
  %775 = add nuw i64 %769, 8
  %776 = add i64 %770, -1
  %777 = icmp eq i64 %776, 0
  br i1 %777, label %778, label %768, !llvm.loop !85

778:                                              ; preds = %768, %765
  %779 = icmp eq i64 %704, %707
  br i1 %779, label %786, label %780

780:                                              ; preds = %700, %778
  %781 = phi i32* [ %438, %700 ], [ %708, %778 ]
  br label %782

782:                                              ; preds = %780, %782
  %783 = phi i32* [ %784, %782 ], [ %781, %780 ]
  store i32 %444, i32* %783, align 4, !tbaa !25
  %784 = getelementptr inbounds i32, i32* %783, i64 1
  %785 = icmp eq i32* %784, %421
  br i1 %785, label %786, label %782, !llvm.loop !86

786:                                              ; preds = %621, %782, %617, %778, %698, %536, %385
  ret void
}

; Function Attrs: sspstrong uwtable
define linkonce_odr dso_local void @_ZNSt5dequeIiSaIiEE14_M_fill_insertESt15_Deque_iteratorIiRiPiEmRKi(%"class.std::deque"* nonnull align 8 dereferenceable(80) %0, %"struct.std::_Deque_iterator"* %1, i64 %2, i32* nonnull align 4 dereferenceable(4) %3) local_unnamed_addr #3 comdat align 2 personality i8* bitcast (i32 (...)* @__gxx_personality_v0 to i8*) {
  %5 = alloca %"struct.std::_Deque_iterator", align 8
  %6 = getelementptr inbounds %"struct.std::_Deque_iterator", %"struct.std::_Deque_iterator"* %1, i64 0, i32 0
  %7 = load i32*, i32** %6, align 8, !tbaa !10
  %8 = getelementptr inbounds %"class.std::deque", %"class.std::deque"* %0, i64 0, i32 0, i32 0, i32 0, i32 2, i32 0
  %9 = load i32*, i32** %8, align 8, !tbaa !47
  %10 = icmp eq i32* %7, %9
  br i1 %10, label %11, label %398

11:                                               ; preds = %4
  %12 = getelementptr inbounds %"class.std::deque", %"class.std::deque"* %0, i64 0, i32 0, i32 0, i32 0, i32 2, i32 1
  %13 = load i32*, i32** %12, align 8, !tbaa !87, !noalias !88
  %14 = ptrtoint i32* %7 to i64
  %15 = ptrtoint i32* %13 to i64
  %16 = sub i64 %14, %15
  %17 = ashr exact i64 %16, 2
  %18 = icmp ult i64 %17, %2
  br i1 %18, label %19, label %27

19:                                               ; preds = %11
  %20 = sub i64 %2, %17
  tail call void @_ZNSt5dequeIiSaIiEE24_M_new_elements_at_frontEm(%"class.std::deque"* nonnull align 8 dereferenceable(80) %0, i64 %20), !noalias !88
  %21 = load i32*, i32** %8, align 8, !tbaa !10, !noalias !91
  %22 = load i32*, i32** %12, align 8, !tbaa !11, !noalias !91
  %23 = ptrtoint i32* %21 to i64
  %24 = ptrtoint i32* %22 to i64
  %25 = sub i64 %23, %24
  %26 = ashr exact i64 %25, 2
  br label %27

27:                                               ; preds = %19, %11
  %28 = phi i64 [ %26, %19 ], [ %17, %11 ]
  %29 = phi i32* [ %22, %19 ], [ %13, %11 ]
  %30 = phi i32* [ %21, %19 ], [ %7, %11 ]
  %31 = ptrtoint i32* %30 to i64
  %32 = ptrtoint i32* %29 to i64
  %33 = getelementptr inbounds %"class.std::deque", %"class.std::deque"* %0, i64 0, i32 0, i32 0, i32 0, i32 2, i32 2
  %34 = load i32*, i32** %33, align 8, !tbaa !12, !noalias !91
  %35 = getelementptr inbounds %"class.std::deque", %"class.std::deque"* %0, i64 0, i32 0, i32 0, i32 0, i32 2, i32 3
  %36 = load i32**, i32*** %35, align 8, !tbaa !5, !noalias !91
  %37 = sub nsw i64 0, %2
  %38 = sub i64 %28, %2
  %39 = icmp sgt i64 %38, -1
  br i1 %39, label %40, label %47

40:                                               ; preds = %27
  %41 = icmp slt i64 %38, 128
  br i1 %41, label %42, label %45

42:                                               ; preds = %40
  %43 = getelementptr inbounds i32, i32* %30, i64 %37
  %44 = load i32, i32* %3, align 4, !tbaa !25
  br label %299

45:                                               ; preds = %40
  %46 = lshr i64 %38, 7
  br label %50

47:                                               ; preds = %27
  %48 = lshr i64 %38, 7
  %49 = or i64 %48, -144115188075855872
  br label %50

50:                                               ; preds = %45, %47
  %51 = phi i64 [ %46, %45 ], [ %49, %47 ]
  %52 = getelementptr inbounds i32*, i32** %36, i64 %51
  %53 = load i32*, i32** %52, align 8, !tbaa !24, !noalias !91
  %54 = getelementptr inbounds i32, i32* %53, i64 128
  %55 = mul i64 %51, -128
  %56 = add i64 %55, %38
  %57 = getelementptr inbounds i32, i32* %53, i64 %56
  %58 = icmp eq i64 %51, 0
  %59 = load i32, i32* %3, align 4, !tbaa !25
  br i1 %58, label %299, label %60

60:                                               ; preds = %50
  %61 = icmp eq i64 %56, 128
  br i1 %61, label %134, label %62

62:                                               ; preds = %60
  %63 = shl i64 %51, 7
  %64 = add i64 %63, %2
  %65 = add i64 %64, 128
  %66 = sub i64 %65, %28
  %67 = icmp ult i64 %66, 8
  br i1 %67, label %127, label %68

68:                                               ; preds = %62
  %69 = and i64 %66, -8
  %70 = add i64 %56, %69
  %71 = insertelement <4 x i32> poison, i32 %59, i32 0
  %72 = shufflevector <4 x i32> %71, <4 x i32> poison, <4 x i32> zeroinitializer
  %73 = insertelement <4 x i32> poison, i32 %59, i32 0
  %74 = shufflevector <4 x i32> %73, <4 x i32> poison, <4 x i32> zeroinitializer
  %75 = add i64 %69, -8
  %76 = lshr exact i64 %75, 3
  %77 = add nuw nsw i64 %76, 1
  %78 = and i64 %77, 3
  %79 = icmp ult i64 %75, 24
  br i1 %79, label %111, label %80

80:                                               ; preds = %68
  %81 = and i64 %77, 4611686018427387900
  br label %82

82:                                               ; preds = %82, %80
  %83 = phi i64 [ 0, %80 ], [ %108, %82 ]
  %84 = phi i64 [ %81, %80 ], [ %109, %82 ]
  %85 = add i64 %56, %83
  %86 = getelementptr inbounds i32, i32* %53, i64 %85
  %87 = bitcast i32* %86 to <4 x i32>*
  store <4 x i32> %72, <4 x i32>* %87, align 4, !tbaa !25
  %88 = getelementptr inbounds i32, i32* %86, i64 4
  %89 = bitcast i32* %88 to <4 x i32>*
  store <4 x i32> %74, <4 x i32>* %89, align 4, !tbaa !25
  %90 = or i64 %83, 8
  %91 = add i64 %56, %90
  %92 = getelementptr inbounds i32, i32* %53, i64 %91
  %93 = bitcast i32* %92 to <4 x i32>*
  store <4 x i32> %72, <4 x i32>* %93, align 4, !tbaa !25
  %94 = getelementptr inbounds i32, i32* %92, i64 4
  %95 = bitcast i32* %94 to <4 x i32>*
  store <4 x i32> %74, <4 x i32>* %95, align 4, !tbaa !25
  %96 = or i64 %83, 16
  %97 = add i64 %56, %96
  %98 = getelementptr inbounds i32, i32* %53, i64 %97
  %99 = bitcast i32* %98 to <4 x i32>*
  store <4 x i32> %72, <4 x i32>* %99, align 4, !tbaa !25
  %100 = getelementptr inbounds i32, i32* %98, i64 4
  %101 = bitcast i32* %100 to <4 x i32>*
  store <4 x i32> %74, <4 x i32>* %101, align 4, !tbaa !25
  %102 = or i64 %83, 24
  %103 = add i64 %56, %102
  %104 = getelementptr inbounds i32, i32* %53, i64 %103
  %105 = bitcast i32* %104 to <4 x i32>*
  store <4 x i32> %72, <4 x i32>* %105, align 4, !tbaa !25
  %106 = getelementptr inbounds i32, i32* %104, i64 4
  %107 = bitcast i32* %106 to <4 x i32>*
  store <4 x i32> %74, <4 x i32>* %107, align 4, !tbaa !25
  %108 = add nuw i64 %83, 32
  %109 = add i64 %84, -4
  %110 = icmp eq i64 %109, 0
  br i1 %110, label %111, label %82, !llvm.loop !94

111:                                              ; preds = %82, %68
  %112 = phi i64 [ 0, %68 ], [ %108, %82 ]
  %113 = icmp eq i64 %78, 0
  br i1 %113, label %125, label %114

114:                                              ; preds = %111, %114
  %115 = phi i64 [ %122, %114 ], [ %112, %111 ]
  %116 = phi i64 [ %123, %114 ], [ %78, %111 ]
  %117 = add i64 %56, %115
  %118 = getelementptr inbounds i32, i32* %53, i64 %117
  %119 = bitcast i32* %118 to <4 x i32>*
  store <4 x i32> %72, <4 x i32>* %119, align 4, !tbaa !25
  %120 = getelementptr inbounds i32, i32* %118, i64 4
  %121 = bitcast i32* %120 to <4 x i32>*
  store <4 x i32> %74, <4 x i32>* %121, align 4, !tbaa !25
  %122 = add nuw i64 %115, 8
  %123 = add i64 %116, -1
  %124 = icmp eq i64 %123, 0
  br i1 %124, label %125, label %114, !llvm.loop !95

125:                                              ; preds = %114, %111
  %126 = icmp eq i64 %66, %69
  br i1 %126, label %134, label %127

127:                                              ; preds = %62, %125
  %128 = phi i64 [ %56, %62 ], [ %70, %125 ]
  br label %129

129:                                              ; preds = %127, %129
  %130 = phi i64 [ %132, %129 ], [ %128, %127 ]
  %131 = getelementptr inbounds i32, i32* %53, i64 %130
  store i32 %59, i32* %131, align 4, !tbaa !25
  %132 = add nsw i64 %130, 1
  %133 = icmp eq i64 %132, 128
  br i1 %133, label %134, label %129, !llvm.loop !96

134:                                              ; preds = %129, %125, %60
  %135 = getelementptr inbounds i32*, i32** %52, i64 1
  %136 = icmp ult i32** %135, %36
  br i1 %136, label %226, label %137

137:                                              ; preds = %226, %134
  %138 = load i32, i32* %3, align 4, !tbaa !25
  %139 = icmp eq i32* %29, %30
  br i1 %139, label %393, label %140

140:                                              ; preds = %137
  %141 = add i64 %31, -4
  %142 = sub i64 %141, %32
  %143 = lshr i64 %142, 2
  %144 = add nuw nsw i64 %143, 1
  %145 = icmp ult i64 %142, 28
  br i1 %145, label %220, label %146

146:                                              ; preds = %140
  %147 = and i64 %144, 9223372036854775800
  %148 = getelementptr i32, i32* %29, i64 %147
  %149 = insertelement <4 x i32> poison, i32 %138, i32 0
  %150 = shufflevector <4 x i32> %149, <4 x i32> poison, <4 x i32> zeroinitializer
  %151 = insertelement <4 x i32> poison, i32 %138, i32 0
  %152 = shufflevector <4 x i32> %151, <4 x i32> poison, <4 x i32> zeroinitializer
  %153 = add nsw i64 %147, -8
  %154 = lshr exact i64 %153, 3
  %155 = add nuw nsw i64 %154, 1
  %156 = and i64 %155, 7
  %157 = icmp ult i64 %153, 56
  br i1 %157, label %205, label %158

158:                                              ; preds = %146
  %159 = and i64 %155, 4611686018427387896
  br label %160

160:                                              ; preds = %160, %158
  %161 = phi i64 [ 0, %158 ], [ %202, %160 ]
  %162 = phi i64 [ %159, %158 ], [ %203, %160 ]
  %163 = getelementptr i32, i32* %29, i64 %161
  %164 = bitcast i32* %163 to <4 x i32>*
  store <4 x i32> %150, <4 x i32>* %164, align 4, !tbaa !25
  %165 = getelementptr i32, i32* %163, i64 4
  %166 = bitcast i32* %165 to <4 x i32>*
  store <4 x i32> %152, <4 x i32>* %166, align 4, !tbaa !25
  %167 = or i64 %161, 8
  %168 = getelementptr i32, i32* %29, i64 %167
  %169 = bitcast i32* %168 to <4 x i32>*
  store <4 x i32> %150, <4 x i32>* %169, align 4, !tbaa !25
  %170 = getelementptr i32, i32* %168, i64 4
  %171 = bitcast i32* %170 to <4 x i32>*
  store <4 x i32> %152, <4 x i32>* %171, align 4, !tbaa !25
  %172 = or i64 %161, 16
  %173 = getelementptr i32, i32* %29, i64 %172
  %174 = bitcast i32* %173 to <4 x i32>*
  store <4 x i32> %150, <4 x i32>* %174, align 4, !tbaa !25
  %175 = getelementptr i32, i32* %173, i64 4
  %176 = bitcast i32* %175 to <4 x i32>*
  store <4 x i32> %152, <4 x i32>* %176, align 4, !tbaa !25
  %177 = or i64 %161, 24
  %178 = getelementptr i32, i32* %29, i64 %177
  %179 = bitcast i32* %178 to <4 x i32>*
  store <4 x i32> %150, <4 x i32>* %179, align 4, !tbaa !25
  %180 = getelementptr i32, i32* %178, i64 4
  %181 = bitcast i32* %180 to <4 x i32>*
  store <4 x i32> %152, <4 x i32>* %181, align 4, !tbaa !25
  %182 = or i64 %161, 32
  %183 = getelementptr i32, i32* %29, i64 %182
  %184 = bitcast i32* %183 to <4 x i32>*
  store <4 x i32> %150, <4 x i32>* %184, align 4, !tbaa !25
  %185 = getelementptr i32, i32* %183, i64 4
  %186 = bitcast i32* %185 to <4 x i32>*
  store <4 x i32> %152, <4 x i32>* %186, align 4, !tbaa !25
  %187 = or i64 %161, 40
  %188 = getelementptr i32, i32* %29, i64 %187
  %189 = bitcast i32* %188 to <4 x i32>*
  store <4 x i32> %150, <4 x i32>* %189, align 4, !tbaa !25
  %190 = getelementptr i32, i32* %188, i64 4
  %191 = bitcast i32* %190 to <4 x i32>*
  store <4 x i32> %152, <4 x i32>* %191, align 4, !tbaa !25
  %192 = or i64 %161, 48
  %193 = getelementptr i32, i32* %29, i64 %192
  %194 = bitcast i32* %193 to <4 x i32>*
  store <4 x i32> %150, <4 x i32>* %194, align 4, !tbaa !25
  %195 = getelementptr i32, i32* %193, i64 4
  %196 = bitcast i32* %195 to <4 x i32>*
  store <4 x i32> %152, <4 x i32>* %196, align 4, !tbaa !25
  %197 = or i64 %161, 56
  %198 = getelementptr i32, i32* %29, i64 %197
  %199 = bitcast i32* %198 to <4 x i32>*
  store <4 x i32> %150, <4 x i32>* %199, align 4, !tbaa !25
  %200 = getelementptr i32, i32* %198, i64 4
  %201 = bitcast i32* %200 to <4 x i32>*
  store <4 x i32> %152, <4 x i32>* %201, align 4, !tbaa !25
  %202 = add nuw i64 %161, 64
  %203 = add i64 %162, -8
  %204 = icmp eq i64 %203, 0
  br i1 %204, label %205, label %160, !llvm.loop !97

205:                                              ; preds = %160, %146
  %206 = phi i64 [ 0, %146 ], [ %202, %160 ]
  %207 = icmp eq i64 %156, 0
  br i1 %207, label %218, label %208

208:                                              ; preds = %205, %208
  %209 = phi i64 [ %215, %208 ], [ %206, %205 ]
  %210 = phi i64 [ %216, %208 ], [ %156, %205 ]
  %211 = getelementptr i32, i32* %29, i64 %209
  %212 = bitcast i32* %211 to <4 x i32>*
  store <4 x i32> %150, <4 x i32>* %212, align 4, !tbaa !25
  %213 = getelementptr i32, i32* %211, i64 4
  %214 = bitcast i32* %213 to <4 x i32>*
  store <4 x i32> %152, <4 x i32>* %214, align 4, !tbaa !25
  %215 = add nuw i64 %209, 8
  %216 = add i64 %210, -1
  %217 = icmp eq i64 %216, 0
  br i1 %217, label %218, label %208, !llvm.loop !98

218:                                              ; preds = %208, %205
  %219 = icmp eq i64 %144, %147
  br i1 %219, label %393, label %220

220:                                              ; preds = %140, %218
  %221 = phi i32* [ %29, %140 ], [ %148, %218 ]
  br label %222

222:                                              ; preds = %220, %222
  %223 = phi i32* [ %224, %222 ], [ %221, %220 ]
  store i32 %138, i32* %223, align 4, !tbaa !25
  %224 = getelementptr inbounds i32, i32* %223, i64 1
  %225 = icmp eq i32* %224, %30
  br i1 %225, label %393, label %222, !llvm.loop !99

226:                                              ; preds = %134, %226
  %227 = phi i32** [ %297, %226 ], [ %135, %134 ]
  %228 = load i32*, i32** %227, align 8, !tbaa !24
  %229 = load i32, i32* %3, align 4, !tbaa !25
  %230 = insertelement <4 x i32> poison, i32 %229, i32 0
  %231 = shufflevector <4 x i32> %230, <4 x i32> poison, <4 x i32> zeroinitializer
  %232 = insertelement <4 x i32> poison, i32 %229, i32 0
  %233 = shufflevector <4 x i32> %232, <4 x i32> poison, <4 x i32> zeroinitializer
  %234 = bitcast i32* %228 to <4 x i32>*
  store <4 x i32> %231, <4 x i32>* %234, align 4, !tbaa !25
  %235 = getelementptr inbounds i32, i32* %228, i64 4
  %236 = bitcast i32* %235 to <4 x i32>*
  store <4 x i32> %233, <4 x i32>* %236, align 4, !tbaa !25
  %237 = getelementptr inbounds i32, i32* %228, i64 8
  %238 = bitcast i32* %237 to <4 x i32>*
  store <4 x i32> %231, <4 x i32>* %238, align 4, !tbaa !25
  %239 = getelementptr inbounds i32, i32* %228, i64 12
  %240 = bitcast i32* %239 to <4 x i32>*
  store <4 x i32> %233, <4 x i32>* %240, align 4, !tbaa !25
  %241 = getelementptr inbounds i32, i32* %228, i64 16
  %242 = bitcast i32* %241 to <4 x i32>*
  store <4 x i32> %231, <4 x i32>* %242, align 4, !tbaa !25
  %243 = getelementptr inbounds i32, i32* %228, i64 20
  %244 = bitcast i32* %243 to <4 x i32>*
  store <4 x i32> %233, <4 x i32>* %244, align 4, !tbaa !25
  %245 = getelementptr inbounds i32, i32* %228, i64 24
  %246 = bitcast i32* %245 to <4 x i32>*
  store <4 x i32> %231, <4 x i32>* %246, align 4, !tbaa !25
  %247 = getelementptr inbounds i32, i32* %228, i64 28
  %248 = bitcast i32* %247 to <4 x i32>*
  store <4 x i32> %233, <4 x i32>* %248, align 4, !tbaa !25
  %249 = getelementptr inbounds i32, i32* %228, i64 32
  %250 = bitcast i32* %249 to <4 x i32>*
  store <4 x i32> %231, <4 x i32>* %250, align 4, !tbaa !25
  %251 = getelementptr inbounds i32, i32* %228, i64 36
  %252 = bitcast i32* %251 to <4 x i32>*
  store <4 x i32> %233, <4 x i32>* %252, align 4, !tbaa !25
  %253 = getelementptr inbounds i32, i32* %228, i64 40
  %254 = bitcast i32* %253 to <4 x i32>*
  store <4 x i32> %231, <4 x i32>* %254, align 4, !tbaa !25
  %255 = getelementptr inbounds i32, i32* %228, i64 44
  %256 = bitcast i32* %255 to <4 x i32>*
  store <4 x i32> %233, <4 x i32>* %256, align 4, !tbaa !25
  %257 = getelementptr inbounds i32, i32* %228, i64 48
  %258 = bitcast i32* %257 to <4 x i32>*
  store <4 x i32> %231, <4 x i32>* %258, align 4, !tbaa !25
  %259 = getelementptr inbounds i32, i32* %228, i64 52
  %260 = bitcast i32* %259 to <4 x i32>*
  store <4 x i32> %233, <4 x i32>* %260, align 4, !tbaa !25
  %261 = getelementptr inbounds i32, i32* %228, i64 56
  %262 = bitcast i32* %261 to <4 x i32>*
  store <4 x i32> %231, <4 x i32>* %262, align 4, !tbaa !25
  %263 = getelementptr inbounds i32, i32* %228, i64 60
  %264 = bitcast i32* %263 to <4 x i32>*
  store <4 x i32> %233, <4 x i32>* %264, align 4, !tbaa !25
  %265 = getelementptr inbounds i32, i32* %228, i64 64
  %266 = bitcast i32* %265 to <4 x i32>*
  store <4 x i32> %231, <4 x i32>* %266, align 4, !tbaa !25
  %267 = getelementptr inbounds i32, i32* %228, i64 68
  %268 = bitcast i32* %267 to <4 x i32>*
  store <4 x i32> %233, <4 x i32>* %268, align 4, !tbaa !25
  %269 = getelementptr inbounds i32, i32* %228, i64 72
  %270 = bitcast i32* %269 to <4 x i32>*
  store <4 x i32> %231, <4 x i32>* %270, align 4, !tbaa !25
  %271 = getelementptr inbounds i32, i32* %228, i64 76
  %272 = bitcast i32* %271 to <4 x i32>*
  store <4 x i32> %233, <4 x i32>* %272, align 4, !tbaa !25
  %273 = getelementptr inbounds i32, i32* %228, i64 80
  %274 = bitcast i32* %273 to <4 x i32>*
  store <4 x i32> %231, <4 x i32>* %274, align 4, !tbaa !25
  %275 = getelementptr inbounds i32, i32* %228, i64 84
  %276 = bitcast i32* %275 to <4 x i32>*
  store <4 x i32> %233, <4 x i32>* %276, align 4, !tbaa !25
  %277 = getelementptr inbounds i32, i32* %228, i64 88
  %278 = bitcast i32* %277 to <4 x i32>*
  store <4 x i32> %231, <4 x i32>* %278, align 4, !tbaa !25
  %279 = getelementptr inbounds i32, i32* %228, i64 92
  %280 = bitcast i32* %279 to <4 x i32>*
  store <4 x i32> %233, <4 x i32>* %280, align 4, !tbaa !25
  %281 = getelementptr inbounds i32, i32* %228, i64 96
  %282 = bitcast i32* %281 to <4 x i32>*
  store <4 x i32> %231, <4 x i32>* %282, align 4, !tbaa !25
  %283 = getelementptr inbounds i32, i32* %228, i64 100
  %284 = bitcast i32* %283 to <4 x i32>*
  store <4 x i32> %233, <4 x i32>* %284, align 4, !tbaa !25
  %285 = getelementptr inbounds i32, i32* %228, i64 104
  %286 = bitcast i32* %285 to <4 x i32>*
  store <4 x i32> %231, <4 x i32>* %286, align 4, !tbaa !25
  %287 = getelementptr inbounds i32, i32* %228, i64 108
  %288 = bitcast i32* %287 to <4 x i32>*
  store <4 x i32> %233, <4 x i32>* %288, align 4, !tbaa !25
  %289 = getelementptr inbounds i32, i32* %228, i64 112
  %290 = bitcast i32* %289 to <4 x i32>*
  store <4 x i32> %231, <4 x i32>* %290, align 4, !tbaa !25
  %291 = getelementptr inbounds i32, i32* %228, i64 116
  %292 = bitcast i32* %291 to <4 x i32>*
  store <4 x i32> %233, <4 x i32>* %292, align 4, !tbaa !25
  %293 = getelementptr inbounds i32, i32* %228, i64 120
  %294 = bitcast i32* %293 to <4 x i32>*
  store <4 x i32> %231, <4 x i32>* %294, align 4, !tbaa !25
  %295 = getelementptr inbounds i32, i32* %228, i64 124
  %296 = bitcast i32* %295 to <4 x i32>*
  store <4 x i32> %233, <4 x i32>* %296, align 4, !tbaa !25
  %297 = getelementptr inbounds i32*, i32** %227, i64 1
  %298 = icmp ult i32** %297, %36
  br i1 %298, label %226, label %137, !llvm.loop !58

299:                                              ; preds = %42, %50
  %300 = phi i32 [ %44, %42 ], [ %59, %50 ]
  %301 = phi i32* [ %43, %42 ], [ %57, %50 ]
  %302 = phi i32** [ %36, %42 ], [ %52, %50 ]
  %303 = phi i32* [ %34, %42 ], [ %54, %50 ]
  %304 = phi i32* [ %29, %42 ], [ %53, %50 ]
  %305 = icmp eq i32* %301, %30
  br i1 %305, label %393, label %306

306:                                              ; preds = %299
  %307 = ptrtoint i32* %301 to i64
  %308 = add i64 %31, -4
  %309 = sub i64 %308, %307
  %310 = lshr i64 %309, 2
  %311 = add nuw nsw i64 %310, 1
  %312 = icmp ult i64 %309, 28
  br i1 %312, label %387, label %313

313:                                              ; preds = %306
  %314 = and i64 %311, 9223372036854775800
  %315 = getelementptr i32, i32* %301, i64 %314
  %316 = insertelement <4 x i32> poison, i32 %300, i32 0
  %317 = shufflevector <4 x i32> %316, <4 x i32> poison, <4 x i32> zeroinitializer
  %318 = insertelement <4 x i32> poison, i32 %300, i32 0
  %319 = shufflevector <4 x i32> %318, <4 x i32> poison, <4 x i32> zeroinitializer
  %320 = add nsw i64 %314, -8
  %321 = lshr exact i64 %320, 3
  %322 = add nuw nsw i64 %321, 1
  %323 = and i64 %322, 7
  %324 = icmp ult i64 %320, 56
  br i1 %324, label %372, label %325

325:                                              ; preds = %313
  %326 = and i64 %322, 4611686018427387896
  br label %327

327:                                              ; preds = %327, %325
  %328 = phi i64 [ 0, %325 ], [ %369, %327 ]
  %329 = phi i64 [ %326, %325 ], [ %370, %327 ]
  %330 = getelementptr i32, i32* %301, i64 %328
  %331 = bitcast i32* %330 to <4 x i32>*
  store <4 x i32> %317, <4 x i32>* %331, align 4, !tbaa !25
  %332 = getelementptr i32, i32* %330, i64 4
  %333 = bitcast i32* %332 to <4 x i32>*
  store <4 x i32> %319, <4 x i32>* %333, align 4, !tbaa !25
  %334 = or i64 %328, 8
  %335 = getelementptr i32, i32* %301, i64 %334
  %336 = bitcast i32* %335 to <4 x i32>*
  store <4 x i32> %317, <4 x i32>* %336, align 4, !tbaa !25
  %337 = getelementptr i32, i32* %335, i64 4
  %338 = bitcast i32* %337 to <4 x i32>*
  store <4 x i32> %319, <4 x i32>* %338, align 4, !tbaa !25
  %339 = or i64 %328, 16
  %340 = getelementptr i32, i32* %301, i64 %339
  %341 = bitcast i32* %340 to <4 x i32>*
  store <4 x i32> %317, <4 x i32>* %341, align 4, !tbaa !25
  %342 = getelementptr i32, i32* %340, i64 4
  %343 = bitcast i32* %342 to <4 x i32>*
  store <4 x i32> %319, <4 x i32>* %343, align 4, !tbaa !25
  %344 = or i64 %328, 24
  %345 = getelementptr i32, i32* %301, i64 %344
  %346 = bitcast i32* %345 to <4 x i32>*
  store <4 x i32> %317, <4 x i32>* %346, align 4, !tbaa !25
  %347 = getelementptr i32, i32* %345, i64 4
  %348 = bitcast i32* %347 to <4 x i32>*
  store <4 x i32> %319, <4 x i32>* %348, align 4, !tbaa !25
  %349 = or i64 %328, 32
  %350 = getelementptr i32, i32* %301, i64 %349
  %351 = bitcast i32* %350 to <4 x i32>*
  store <4 x i32> %317, <4 x i32>* %351, align 4, !tbaa !25
  %352 = getelementptr i32, i32* %350, i64 4
  %353 = bitcast i32* %352 to <4 x i32>*
  store <4 x i32> %319, <4 x i32>* %353, align 4, !tbaa !25
  %354 = or i64 %328, 40
  %355 = getelementptr i32, i32* %301, i64 %354
  %356 = bitcast i32* %355 to <4 x i32>*
  store <4 x i32> %317, <4 x i32>* %356, align 4, !tbaa !25
  %357 = getelementptr i32, i32* %355, i64 4
  %358 = bitcast i32* %357 to <4 x i32>*
  store <4 x i32> %319, <4 x i32>* %358, align 4, !tbaa !25
  %359 = or i64 %328, 48
  %360 = getelementptr i32, i32* %301, i64 %359
  %361 = bitcast i32* %360 to <4 x i32>*
  store <4 x i32> %317, <4 x i32>* %361, align 4, !tbaa !25
  %362 = getelementptr i32, i32* %360, i64 4
  %363 = bitcast i32* %362 to <4 x i32>*
  store <4 x i32> %319, <4 x i32>* %363, align 4, !tbaa !25
  %364 = or i64 %328, 56
  %365 = getelementptr i32, i32* %301, i64 %364
  %366 = bitcast i32* %365 to <4 x i32>*
  store <4 x i32> %317, <4 x i32>* %366, align 4, !tbaa !25
  %367 = getelementptr i32, i32* %365, i64 4
  %368 = bitcast i32* %367 to <4 x i32>*
  store <4 x i32> %319, <4 x i32>* %368, align 4, !tbaa !25
  %369 = add nuw i64 %328, 64
  %370 = add i64 %329, -8
  %371 = icmp eq i64 %370, 0
  br i1 %371, label %372, label %327, !llvm.loop !100

372:                                              ; preds = %327, %313
  %373 = phi i64 [ 0, %313 ], [ %369, %327 ]
  %374 = icmp eq i64 %323, 0
  br i1 %374, label %385, label %375

375:                                              ; preds = %372, %375
  %376 = phi i64 [ %382, %375 ], [ %373, %372 ]
  %377 = phi i64 [ %383, %375 ], [ %323, %372 ]
  %378 = getelementptr i32, i32* %301, i64 %376
  %379 = bitcast i32* %378 to <4 x i32>*
  store <4 x i32> %317, <4 x i32>* %379, align 4, !tbaa !25
  %380 = getelementptr i32, i32* %378, i64 4
  %381 = bitcast i32* %380 to <4 x i32>*
  store <4 x i32> %319, <4 x i32>* %381, align 4, !tbaa !25
  %382 = add nuw i64 %376, 8
  %383 = add i64 %377, -1
  %384 = icmp eq i64 %383, 0
  br i1 %384, label %385, label %375, !llvm.loop !101

385:                                              ; preds = %375, %372
  %386 = icmp eq i64 %311, %314
  br i1 %386, label %393, label %387

387:                                              ; preds = %306, %385
  %388 = phi i32* [ %301, %306 ], [ %315, %385 ]
  br label %389

389:                                              ; preds = %387, %389
  %390 = phi i32* [ %391, %389 ], [ %388, %387 ]
  store i32 %300, i32* %390, align 4, !tbaa !25
  %391 = getelementptr inbounds i32, i32* %390, i64 1
  %392 = icmp eq i32* %391, %30
  br i1 %392, label %393, label %389, !llvm.loop !102

393:                                              ; preds = %222, %389, %218, %385, %299, %137
  %394 = phi i32* [ %301, %299 ], [ %57, %137 ], [ %301, %385 ], [ %57, %218 ], [ %301, %389 ], [ %57, %222 ]
  %395 = phi i32** [ %302, %299 ], [ %52, %137 ], [ %302, %385 ], [ %52, %218 ], [ %302, %389 ], [ %52, %222 ]
  %396 = phi i32* [ %303, %299 ], [ %54, %137 ], [ %303, %385 ], [ %54, %218 ], [ %303, %389 ], [ %54, %222 ]
  %397 = phi i32* [ %304, %299 ], [ %53, %137 ], [ %304, %385 ], [ %53, %218 ], [ %304, %389 ], [ %53, %222 ]
  store i32* %394, i32** %8, align 8, !tbaa.struct !74
  store i32* %397, i32** %12, align 8, !tbaa.struct !75
  store i32* %396, i32** %33, align 8, !tbaa.struct !76
  store i32** %395, i32*** %35, align 8, !tbaa.struct !77
  br label %809

398:                                              ; preds = %4
  %399 = getelementptr inbounds %"class.std::deque", %"class.std::deque"* %0, i64 0, i32 0, i32 0, i32 0, i32 3, i32 0
  %400 = load i32*, i32** %399, align 8, !tbaa !36
  %401 = icmp eq i32* %7, %400
  br i1 %401, label %402, label %799

402:                                              ; preds = %398
  %403 = getelementptr inbounds %"class.std::deque", %"class.std::deque"* %0, i64 0, i32 0, i32 0, i32 0, i32 3, i32 2
  %404 = load i32*, i32** %403, align 8, !tbaa !103, !noalias !104
  %405 = ptrtoint i32* %404 to i64
  %406 = ptrtoint i32* %7 to i64
  %407 = sub i64 %405, %406
  %408 = ashr exact i64 %407, 2
  %409 = add nsw i64 %408, -1
  %410 = icmp ult i64 %409, %2
  br i1 %410, label %411, label %416

411:                                              ; preds = %402
  %412 = sub i64 %2, %409
  tail call void @_ZNSt5dequeIiSaIiEE23_M_new_elements_at_backEm(%"class.std::deque"* nonnull align 8 dereferenceable(80) %0, i64 %412), !noalias !104
  %413 = load i32*, i32** %399, align 8, !tbaa !10, !noalias !107
  %414 = load i32*, i32** %403, align 8, !tbaa !12, !noalias !107
  %415 = ptrtoint i32* %413 to i64
  br label %416

416:                                              ; preds = %411, %402
  %417 = phi i64 [ %415, %411 ], [ %406, %402 ]
  %418 = phi i32* [ %414, %411 ], [ %404, %402 ]
  %419 = phi i32* [ %413, %411 ], [ %7, %402 ]
  %420 = ptrtoint i32* %418 to i64
  %421 = ptrtoint i32* %419 to i64
  %422 = getelementptr inbounds %"class.std::deque", %"class.std::deque"* %0, i64 0, i32 0, i32 0, i32 0, i32 3, i32 1
  %423 = load i32*, i32** %422, align 8, !tbaa !11, !noalias !107
  %424 = getelementptr inbounds %"class.std::deque", %"class.std::deque"* %0, i64 0, i32 0, i32 0, i32 0, i32 3, i32 3
  %425 = load i32**, i32*** %424, align 8, !tbaa !5, !noalias !107
  %426 = ptrtoint i32* %423 to i64
  %427 = sub i64 %417, %426
  %428 = ashr exact i64 %427, 2
  %429 = add nsw i64 %428, %2
  %430 = icmp sgt i64 %429, -1
  br i1 %430, label %431, label %435

431:                                              ; preds = %416
  %432 = icmp slt i64 %429, 128
  br i1 %432, label %704, label %433

433:                                              ; preds = %431
  %434 = lshr i64 %429, 7
  br label %438

435:                                              ; preds = %416
  %436 = lshr i64 %429, 7
  %437 = or i64 %436, -144115188075855872
  br label %438

438:                                              ; preds = %435, %433
  %439 = phi i64 [ %434, %433 ], [ %437, %435 ]
  %440 = getelementptr inbounds i32*, i32** %425, i64 %439
  %441 = load i32*, i32** %440, align 8, !tbaa !24, !noalias !107
  %442 = getelementptr inbounds i32, i32* %441, i64 128
  %443 = mul i64 %439, -128
  %444 = add i64 %443, %429
  %445 = getelementptr inbounds i32, i32* %441, i64 %444
  %446 = getelementptr inbounds i32*, i32** %425, i64 %439
  %447 = load i32, i32* %3, align 4, !tbaa !25
  %448 = icmp eq i32* %419, %418
  br i1 %448, label %535, label %449

449:                                              ; preds = %438
  %450 = add i64 %420, -4
  %451 = sub i64 %450, %421
  %452 = lshr i64 %451, 2
  %453 = add nuw nsw i64 %452, 1
  %454 = icmp ult i64 %451, 28
  br i1 %454, label %529, label %455

455:                                              ; preds = %449
  %456 = and i64 %453, 9223372036854775800
  %457 = getelementptr i32, i32* %419, i64 %456
  %458 = insertelement <4 x i32> poison, i32 %447, i32 0
  %459 = shufflevector <4 x i32> %458, <4 x i32> poison, <4 x i32> zeroinitializer
  %460 = insertelement <4 x i32> poison, i32 %447, i32 0
  %461 = shufflevector <4 x i32> %460, <4 x i32> poison, <4 x i32> zeroinitializer
  %462 = add nsw i64 %456, -8
  %463 = lshr exact i64 %462, 3
  %464 = add nuw nsw i64 %463, 1
  %465 = and i64 %464, 7
  %466 = icmp ult i64 %462, 56
  br i1 %466, label %514, label %467

467:                                              ; preds = %455
  %468 = and i64 %464, 4611686018427387896
  br label %469

469:                                              ; preds = %469, %467
  %470 = phi i64 [ 0, %467 ], [ %511, %469 ]
  %471 = phi i64 [ %468, %467 ], [ %512, %469 ]
  %472 = getelementptr i32, i32* %419, i64 %470
  %473 = bitcast i32* %472 to <4 x i32>*
  store <4 x i32> %459, <4 x i32>* %473, align 4, !tbaa !25
  %474 = getelementptr i32, i32* %472, i64 4
  %475 = bitcast i32* %474 to <4 x i32>*
  store <4 x i32> %461, <4 x i32>* %475, align 4, !tbaa !25
  %476 = or i64 %470, 8
  %477 = getelementptr i32, i32* %419, i64 %476
  %478 = bitcast i32* %477 to <4 x i32>*
  store <4 x i32> %459, <4 x i32>* %478, align 4, !tbaa !25
  %479 = getelementptr i32, i32* %477, i64 4
  %480 = bitcast i32* %479 to <4 x i32>*
  store <4 x i32> %461, <4 x i32>* %480, align 4, !tbaa !25
  %481 = or i64 %470, 16
  %482 = getelementptr i32, i32* %419, i64 %481
  %483 = bitcast i32* %482 to <4 x i32>*
  store <4 x i32> %459, <4 x i32>* %483, align 4, !tbaa !25
  %484 = getelementptr i32, i32* %482, i64 4
  %485 = bitcast i32* %484 to <4 x i32>*
  store <4 x i32> %461, <4 x i32>* %485, align 4, !tbaa !25
  %486 = or i64 %470, 24
  %487 = getelementptr i32, i32* %419, i64 %486
  %488 = bitcast i32* %487 to <4 x i32>*
  store <4 x i32> %459, <4 x i32>* %488, align 4, !tbaa !25
  %489 = getelementptr i32, i32* %487, i64 4
  %490 = bitcast i32* %489 to <4 x i32>*
  store <4 x i32> %461, <4 x i32>* %490, align 4, !tbaa !25
  %491 = or i64 %470, 32
  %492 = getelementptr i32, i32* %419, i64 %491
  %493 = bitcast i32* %492 to <4 x i32>*
  store <4 x i32> %459, <4 x i32>* %493, align 4, !tbaa !25
  %494 = getelementptr i32, i32* %492, i64 4
  %495 = bitcast i32* %494 to <4 x i32>*
  store <4 x i32> %461, <4 x i32>* %495, align 4, !tbaa !25
  %496 = or i64 %470, 40
  %497 = getelementptr i32, i32* %419, i64 %496
  %498 = bitcast i32* %497 to <4 x i32>*
  store <4 x i32> %459, <4 x i32>* %498, align 4, !tbaa !25
  %499 = getelementptr i32, i32* %497, i64 4
  %500 = bitcast i32* %499 to <4 x i32>*
  store <4 x i32> %461, <4 x i32>* %500, align 4, !tbaa !25
  %501 = or i64 %470, 48
  %502 = getelementptr i32, i32* %419, i64 %501
  %503 = bitcast i32* %502 to <4 x i32>*
  store <4 x i32> %459, <4 x i32>* %503, align 4, !tbaa !25
  %504 = getelementptr i32, i32* %502, i64 4
  %505 = bitcast i32* %504 to <4 x i32>*
  store <4 x i32> %461, <4 x i32>* %505, align 4, !tbaa !25
  %506 = or i64 %470, 56
  %507 = getelementptr i32, i32* %419, i64 %506
  %508 = bitcast i32* %507 to <4 x i32>*
  store <4 x i32> %459, <4 x i32>* %508, align 4, !tbaa !25
  %509 = getelementptr i32, i32* %507, i64 4
  %510 = bitcast i32* %509 to <4 x i32>*
  store <4 x i32> %461, <4 x i32>* %510, align 4, !tbaa !25
  %511 = add nuw i64 %470, 64
  %512 = add i64 %471, -8
  %513 = icmp eq i64 %512, 0
  br i1 %513, label %514, label %469, !llvm.loop !110

514:                                              ; preds = %469, %455
  %515 = phi i64 [ 0, %455 ], [ %511, %469 ]
  %516 = icmp eq i64 %465, 0
  br i1 %516, label %527, label %517

517:                                              ; preds = %514, %517
  %518 = phi i64 [ %524, %517 ], [ %515, %514 ]
  %519 = phi i64 [ %525, %517 ], [ %465, %514 ]
  %520 = getelementptr i32, i32* %419, i64 %518
  %521 = bitcast i32* %520 to <4 x i32>*
  store <4 x i32> %459, <4 x i32>* %521, align 4, !tbaa !25
  %522 = getelementptr i32, i32* %520, i64 4
  %523 = bitcast i32* %522 to <4 x i32>*
  store <4 x i32> %461, <4 x i32>* %523, align 4, !tbaa !25
  %524 = add nuw i64 %518, 8
  %525 = add i64 %519, -1
  %526 = icmp eq i64 %525, 0
  br i1 %526, label %527, label %517, !llvm.loop !111

527:                                              ; preds = %517, %514
  %528 = icmp eq i64 %453, %456
  br i1 %528, label %535, label %529

529:                                              ; preds = %449, %527
  %530 = phi i32* [ %419, %449 ], [ %457, %527 ]
  br label %531

531:                                              ; preds = %529, %531
  %532 = phi i32* [ %533, %531 ], [ %530, %529 ]
  store i32 %447, i32* %532, align 4, !tbaa !25
  %533 = getelementptr inbounds i32, i32* %532, i64 1
  %534 = icmp eq i32* %533, %418
  br i1 %534, label %535, label %531, !llvm.loop !112

535:                                              ; preds = %531, %527, %438
  %536 = icmp sgt i64 %439, 1
  br i1 %536, label %537, label %539

537:                                              ; preds = %535
  %538 = getelementptr inbounds i32*, i32** %425, i64 1
  br label %631

539:                                              ; preds = %631, %535
  %540 = load i32, i32* %3, align 4, !tbaa !25
  %541 = icmp eq i64 %444, 0
  br i1 %541, label %794, label %542

542:                                              ; preds = %539
  %543 = add i64 %428, %2
  %544 = shl i64 %543, 2
  %545 = add i64 %544, -4
  %546 = mul i64 %439, -512
  %547 = add i64 %546, %545
  %548 = lshr exact i64 %547, 2
  %549 = add nuw nsw i64 %548, 1
  %550 = icmp ult i64 %547, 28
  br i1 %550, label %625, label %551

551:                                              ; preds = %542
  %552 = and i64 %549, 9223372036854775800
  %553 = getelementptr i32, i32* %441, i64 %552
  %554 = insertelement <4 x i32> poison, i32 %540, i32 0
  %555 = shufflevector <4 x i32> %554, <4 x i32> poison, <4 x i32> zeroinitializer
  %556 = insertelement <4 x i32> poison, i32 %540, i32 0
  %557 = shufflevector <4 x i32> %556, <4 x i32> poison, <4 x i32> zeroinitializer
  %558 = add nsw i64 %552, -8
  %559 = lshr exact i64 %558, 3
  %560 = add nuw nsw i64 %559, 1
  %561 = and i64 %560, 7
  %562 = icmp ult i64 %558, 56
  br i1 %562, label %610, label %563

563:                                              ; preds = %551
  %564 = and i64 %560, 4611686018427387896
  br label %565

565:                                              ; preds = %565, %563
  %566 = phi i64 [ 0, %563 ], [ %607, %565 ]
  %567 = phi i64 [ %564, %563 ], [ %608, %565 ]
  %568 = getelementptr i32, i32* %441, i64 %566
  %569 = bitcast i32* %568 to <4 x i32>*
  store <4 x i32> %555, <4 x i32>* %569, align 4, !tbaa !25
  %570 = getelementptr i32, i32* %568, i64 4
  %571 = bitcast i32* %570 to <4 x i32>*
  store <4 x i32> %557, <4 x i32>* %571, align 4, !tbaa !25
  %572 = or i64 %566, 8
  %573 = getelementptr i32, i32* %441, i64 %572
  %574 = bitcast i32* %573 to <4 x i32>*
  store <4 x i32> %555, <4 x i32>* %574, align 4, !tbaa !25
  %575 = getelementptr i32, i32* %573, i64 4
  %576 = bitcast i32* %575 to <4 x i32>*
  store <4 x i32> %557, <4 x i32>* %576, align 4, !tbaa !25
  %577 = or i64 %566, 16
  %578 = getelementptr i32, i32* %441, i64 %577
  %579 = bitcast i32* %578 to <4 x i32>*
  store <4 x i32> %555, <4 x i32>* %579, align 4, !tbaa !25
  %580 = getelementptr i32, i32* %578, i64 4
  %581 = bitcast i32* %580 to <4 x i32>*
  store <4 x i32> %557, <4 x i32>* %581, align 4, !tbaa !25
  %582 = or i64 %566, 24
  %583 = getelementptr i32, i32* %441, i64 %582
  %584 = bitcast i32* %583 to <4 x i32>*
  store <4 x i32> %555, <4 x i32>* %584, align 4, !tbaa !25
  %585 = getelementptr i32, i32* %583, i64 4
  %586 = bitcast i32* %585 to <4 x i32>*
  store <4 x i32> %557, <4 x i32>* %586, align 4, !tbaa !25
  %587 = or i64 %566, 32
  %588 = getelementptr i32, i32* %441, i64 %587
  %589 = bitcast i32* %588 to <4 x i32>*
  store <4 x i32> %555, <4 x i32>* %589, align 4, !tbaa !25
  %590 = getelementptr i32, i32* %588, i64 4
  %591 = bitcast i32* %590 to <4 x i32>*
  store <4 x i32> %557, <4 x i32>* %591, align 4, !tbaa !25
  %592 = or i64 %566, 40
  %593 = getelementptr i32, i32* %441, i64 %592
  %594 = bitcast i32* %593 to <4 x i32>*
  store <4 x i32> %555, <4 x i32>* %594, align 4, !tbaa !25
  %595 = getelementptr i32, i32* %593, i64 4
  %596 = bitcast i32* %595 to <4 x i32>*
  store <4 x i32> %557, <4 x i32>* %596, align 4, !tbaa !25
  %597 = or i64 %566, 48
  %598 = getelementptr i32, i32* %441, i64 %597
  %599 = bitcast i32* %598 to <4 x i32>*
  store <4 x i32> %555, <4 x i32>* %599, align 4, !tbaa !25
  %600 = getelementptr i32, i32* %598, i64 4
  %601 = bitcast i32* %600 to <4 x i32>*
  store <4 x i32> %557, <4 x i32>* %601, align 4, !tbaa !25
  %602 = or i64 %566, 56
  %603 = getelementptr i32, i32* %441, i64 %602
  %604 = bitcast i32* %603 to <4 x i32>*
  store <4 x i32> %555, <4 x i32>* %604, align 4, !tbaa !25
  %605 = getelementptr i32, i32* %603, i64 4
  %606 = bitcast i32* %605 to <4 x i32>*
  store <4 x i32> %557, <4 x i32>* %606, align 4, !tbaa !25
  %607 = add nuw i64 %566, 64
  %608 = add i64 %567, -8
  %609 = icmp eq i64 %608, 0
  br i1 %609, label %610, label %565, !llvm.loop !113

610:                                              ; preds = %565, %551
  %611 = phi i64 [ 0, %551 ], [ %607, %565 ]
  %612 = icmp eq i64 %561, 0
  br i1 %612, label %623, label %613

613:                                              ; preds = %610, %613
  %614 = phi i64 [ %620, %613 ], [ %611, %610 ]
  %615 = phi i64 [ %621, %613 ], [ %561, %610 ]
  %616 = getelementptr i32, i32* %441, i64 %614
  %617 = bitcast i32* %616 to <4 x i32>*
  store <4 x i32> %555, <4 x i32>* %617, align 4, !tbaa !25
  %618 = getelementptr i32, i32* %616, i64 4
  %619 = bitcast i32* %618 to <4 x i32>*
  store <4 x i32> %557, <4 x i32>* %619, align 4, !tbaa !25
  %620 = add nuw i64 %614, 8
  %621 = add i64 %615, -1
  %622 = icmp eq i64 %621, 0
  br i1 %622, label %623, label %613, !llvm.loop !114

623:                                              ; preds = %613, %610
  %624 = icmp eq i64 %549, %552
  br i1 %624, label %794, label %625

625:                                              ; preds = %542, %623
  %626 = phi i32* [ %441, %542 ], [ %553, %623 ]
  br label %627

627:                                              ; preds = %625, %627
  %628 = phi i32* [ %629, %627 ], [ %626, %625 ]
  store i32 %540, i32* %628, align 4, !tbaa !25
  %629 = getelementptr inbounds i32, i32* %628, i64 1
  %630 = icmp eq i32* %629, %445
  br i1 %630, label %794, label %627, !llvm.loop !115

631:                                              ; preds = %537, %631
  %632 = phi i32** [ %702, %631 ], [ %538, %537 ]
  %633 = load i32*, i32** %632, align 8, !tbaa !24
  %634 = load i32, i32* %3, align 4, !tbaa !25
  %635 = insertelement <4 x i32> poison, i32 %634, i32 0
  %636 = shufflevector <4 x i32> %635, <4 x i32> poison, <4 x i32> zeroinitializer
  %637 = insertelement <4 x i32> poison, i32 %634, i32 0
  %638 = shufflevector <4 x i32> %637, <4 x i32> poison, <4 x i32> zeroinitializer
  %639 = bitcast i32* %633 to <4 x i32>*
  store <4 x i32> %636, <4 x i32>* %639, align 4, !tbaa !25
  %640 = getelementptr inbounds i32, i32* %633, i64 4
  %641 = bitcast i32* %640 to <4 x i32>*
  store <4 x i32> %638, <4 x i32>* %641, align 4, !tbaa !25
  %642 = getelementptr inbounds i32, i32* %633, i64 8
  %643 = bitcast i32* %642 to <4 x i32>*
  store <4 x i32> %636, <4 x i32>* %643, align 4, !tbaa !25
  %644 = getelementptr inbounds i32, i32* %633, i64 12
  %645 = bitcast i32* %644 to <4 x i32>*
  store <4 x i32> %638, <4 x i32>* %645, align 4, !tbaa !25
  %646 = getelementptr inbounds i32, i32* %633, i64 16
  %647 = bitcast i32* %646 to <4 x i32>*
  store <4 x i32> %636, <4 x i32>* %647, align 4, !tbaa !25
  %648 = getelementptr inbounds i32, i32* %633, i64 20
  %649 = bitcast i32* %648 to <4 x i32>*
  store <4 x i32> %638, <4 x i32>* %649, align 4, !tbaa !25
  %650 = getelementptr inbounds i32, i32* %633, i64 24
  %651 = bitcast i32* %650 to <4 x i32>*
  store <4 x i32> %636, <4 x i32>* %651, align 4, !tbaa !25
  %652 = getelementptr inbounds i32, i32* %633, i64 28
  %653 = bitcast i32* %652 to <4 x i32>*
  store <4 x i32> %638, <4 x i32>* %653, align 4, !tbaa !25
  %654 = getelementptr inbounds i32, i32* %633, i64 32
  %655 = bitcast i32* %654 to <4 x i32>*
  store <4 x i32> %636, <4 x i32>* %655, align 4, !tbaa !25
  %656 = getelementptr inbounds i32, i32* %633, i64 36
  %657 = bitcast i32* %656 to <4 x i32>*
  store <4 x i32> %638, <4 x i32>* %657, align 4, !tbaa !25
  %658 = getelementptr inbounds i32, i32* %633, i64 40
  %659 = bitcast i32* %658 to <4 x i32>*
  store <4 x i32> %636, <4 x i32>* %659, align 4, !tbaa !25
  %660 = getelementptr inbounds i32, i32* %633, i64 44
  %661 = bitcast i32* %660 to <4 x i32>*
  store <4 x i32> %638, <4 x i32>* %661, align 4, !tbaa !25
  %662 = getelementptr inbounds i32, i32* %633, i64 48
  %663 = bitcast i32* %662 to <4 x i32>*
  store <4 x i32> %636, <4 x i32>* %663, align 4, !tbaa !25
  %664 = getelementptr inbounds i32, i32* %633, i64 52
  %665 = bitcast i32* %664 to <4 x i32>*
  store <4 x i32> %638, <4 x i32>* %665, align 4, !tbaa !25
  %666 = getelementptr inbounds i32, i32* %633, i64 56
  %667 = bitcast i32* %666 to <4 x i32>*
  store <4 x i32> %636, <4 x i32>* %667, align 4, !tbaa !25
  %668 = getelementptr inbounds i32, i32* %633, i64 60
  %669 = bitcast i32* %668 to <4 x i32>*
  store <4 x i32> %638, <4 x i32>* %669, align 4, !tbaa !25
  %670 = getelementptr inbounds i32, i32* %633, i64 64
  %671 = bitcast i32* %670 to <4 x i32>*
  store <4 x i32> %636, <4 x i32>* %671, align 4, !tbaa !25
  %672 = getelementptr inbounds i32, i32* %633, i64 68
  %673 = bitcast i32* %672 to <4 x i32>*
  store <4 x i32> %638, <4 x i32>* %673, align 4, !tbaa !25
  %674 = getelementptr inbounds i32, i32* %633, i64 72
  %675 = bitcast i32* %674 to <4 x i32>*
  store <4 x i32> %636, <4 x i32>* %675, align 4, !tbaa !25
  %676 = getelementptr inbounds i32, i32* %633, i64 76
  %677 = bitcast i32* %676 to <4 x i32>*
  store <4 x i32> %638, <4 x i32>* %677, align 4, !tbaa !25
  %678 = getelementptr inbounds i32, i32* %633, i64 80
  %679 = bitcast i32* %678 to <4 x i32>*
  store <4 x i32> %636, <4 x i32>* %679, align 4, !tbaa !25
  %680 = getelementptr inbounds i32, i32* %633, i64 84
  %681 = bitcast i32* %680 to <4 x i32>*
  store <4 x i32> %638, <4 x i32>* %681, align 4, !tbaa !25
  %682 = getelementptr inbounds i32, i32* %633, i64 88
  %683 = bitcast i32* %682 to <4 x i32>*
  store <4 x i32> %636, <4 x i32>* %683, align 4, !tbaa !25
  %684 = getelementptr inbounds i32, i32* %633, i64 92
  %685 = bitcast i32* %684 to <4 x i32>*
  store <4 x i32> %638, <4 x i32>* %685, align 4, !tbaa !25
  %686 = getelementptr inbounds i32, i32* %633, i64 96
  %687 = bitcast i32* %686 to <4 x i32>*
  store <4 x i32> %636, <4 x i32>* %687, align 4, !tbaa !25
  %688 = getelementptr inbounds i32, i32* %633, i64 100
  %689 = bitcast i32* %688 to <4 x i32>*
  store <4 x i32> %638, <4 x i32>* %689, align 4, !tbaa !25
  %690 = getelementptr inbounds i32, i32* %633, i64 104
  %691 = bitcast i32* %690 to <4 x i32>*
  store <4 x i32> %636, <4 x i32>* %691, align 4, !tbaa !25
  %692 = getelementptr inbounds i32, i32* %633, i64 108
  %693 = bitcast i32* %692 to <4 x i32>*
  store <4 x i32> %638, <4 x i32>* %693, align 4, !tbaa !25
  %694 = getelementptr inbounds i32, i32* %633, i64 112
  %695 = bitcast i32* %694 to <4 x i32>*
  store <4 x i32> %636, <4 x i32>* %695, align 4, !tbaa !25
  %696 = getelementptr inbounds i32, i32* %633, i64 116
  %697 = bitcast i32* %696 to <4 x i32>*
  store <4 x i32> %638, <4 x i32>* %697, align 4, !tbaa !25
  %698 = getelementptr inbounds i32, i32* %633, i64 120
  %699 = bitcast i32* %698 to <4 x i32>*
  store <4 x i32> %636, <4 x i32>* %699, align 4, !tbaa !25
  %700 = getelementptr inbounds i32, i32* %633, i64 124
  %701 = bitcast i32* %700 to <4 x i32>*
  store <4 x i32> %638, <4 x i32>* %701, align 4, !tbaa !25
  %702 = getelementptr inbounds i32*, i32** %632, i64 1
  %703 = icmp ult i32** %702, %446
  br i1 %703, label %631, label %539, !llvm.loop !58

704:                                              ; preds = %431
  %705 = getelementptr inbounds i32, i32* %419, i64 %2
  %706 = load i32, i32* %3, align 4, !tbaa !25
  %707 = icmp eq i64 %2, 0
  br i1 %707, label %794, label %708

708:                                              ; preds = %704
  %709 = shl nsw i64 %2, 2
  %710 = add i64 %709, -4
  %711 = lshr exact i64 %710, 2
  %712 = add nuw nsw i64 %711, 1
  %713 = icmp ult i64 %710, 28
  br i1 %713, label %788, label %714

714:                                              ; preds = %708
  %715 = and i64 %712, 9223372036854775800
  %716 = getelementptr i32, i32* %419, i64 %715
  %717 = insertelement <4 x i32> poison, i32 %706, i32 0
  %718 = shufflevector <4 x i32> %717, <4 x i32> poison, <4 x i32> zeroinitializer
  %719 = insertelement <4 x i32> poison, i32 %706, i32 0
  %720 = shufflevector <4 x i32> %719, <4 x i32> poison, <4 x i32> zeroinitializer
  %721 = add nsw i64 %715, -8
  %722 = lshr exact i64 %721, 3
  %723 = add nuw nsw i64 %722, 1
  %724 = and i64 %723, 7
  %725 = icmp ult i64 %721, 56
  br i1 %725, label %773, label %726

726:                                              ; preds = %714
  %727 = and i64 %723, 4611686018427387896
  br label %728

728:                                              ; preds = %728, %726
  %729 = phi i64 [ 0, %726 ], [ %770, %728 ]
  %730 = phi i64 [ %727, %726 ], [ %771, %728 ]
  %731 = getelementptr i32, i32* %419, i64 %729
  %732 = bitcast i32* %731 to <4 x i32>*
  store <4 x i32> %718, <4 x i32>* %732, align 4, !tbaa !25
  %733 = getelementptr i32, i32* %731, i64 4
  %734 = bitcast i32* %733 to <4 x i32>*
  store <4 x i32> %720, <4 x i32>* %734, align 4, !tbaa !25
  %735 = or i64 %729, 8
  %736 = getelementptr i32, i32* %419, i64 %735
  %737 = bitcast i32* %736 to <4 x i32>*
  store <4 x i32> %718, <4 x i32>* %737, align 4, !tbaa !25
  %738 = getelementptr i32, i32* %736, i64 4
  %739 = bitcast i32* %738 to <4 x i32>*
  store <4 x i32> %720, <4 x i32>* %739, align 4, !tbaa !25
  %740 = or i64 %729, 16
  %741 = getelementptr i32, i32* %419, i64 %740
  %742 = bitcast i32* %741 to <4 x i32>*
  store <4 x i32> %718, <4 x i32>* %742, align 4, !tbaa !25
  %743 = getelementptr i32, i32* %741, i64 4
  %744 = bitcast i32* %743 to <4 x i32>*
  store <4 x i32> %720, <4 x i32>* %744, align 4, !tbaa !25
  %745 = or i64 %729, 24
  %746 = getelementptr i32, i32* %419, i64 %745
  %747 = bitcast i32* %746 to <4 x i32>*
  store <4 x i32> %718, <4 x i32>* %747, align 4, !tbaa !25
  %748 = getelementptr i32, i32* %746, i64 4
  %749 = bitcast i32* %748 to <4 x i32>*
  store <4 x i32> %720, <4 x i32>* %749, align 4, !tbaa !25
  %750 = or i64 %729, 32
  %751 = getelementptr i32, i32* %419, i64 %750
  %752 = bitcast i32* %751 to <4 x i32>*
  store <4 x i32> %718, <4 x i32>* %752, align 4, !tbaa !25
  %753 = getelementptr i32, i32* %751, i64 4
  %754 = bitcast i32* %753 to <4 x i32>*
  store <4 x i32> %720, <4 x i32>* %754, align 4, !tbaa !25
  %755 = or i64 %729, 40
  %756 = getelementptr i32, i32* %419, i64 %755
  %757 = bitcast i32* %756 to <4 x i32>*
  store <4 x i32> %718, <4 x i32>* %757, align 4, !tbaa !25
  %758 = getelementptr i32, i32* %756, i64 4
  %759 = bitcast i32* %758 to <4 x i32>*
  store <4 x i32> %720, <4 x i32>* %759, align 4, !tbaa !25
  %760 = or i64 %729, 48
  %761 = getelementptr i32, i32* %419, i64 %760
  %762 = bitcast i32* %761 to <4 x i32>*
  store <4 x i32> %718, <4 x i32>* %762, align 4, !tbaa !25
  %763 = getelementptr i32, i32* %761, i64 4
  %764 = bitcast i32* %763 to <4 x i32>*
  store <4 x i32> %720, <4 x i32>* %764, align 4, !tbaa !25
  %765 = or i64 %729, 56
  %766 = getelementptr i32, i32* %419, i64 %765
  %767 = bitcast i32* %766 to <4 x i32>*
  store <4 x i32> %718, <4 x i32>* %767, align 4, !tbaa !25
  %768 = getelementptr i32, i32* %766, i64 4
  %769 = bitcast i32* %768 to <4 x i32>*
  store <4 x i32> %720, <4 x i32>* %769, align 4, !tbaa !25
  %770 = add nuw i64 %729, 64
  %771 = add i64 %730, -8
  %772 = icmp eq i64 %771, 0
  br i1 %772, label %773, label %728, !llvm.loop !116

773:                                              ; preds = %728, %714
  %774 = phi i64 [ 0, %714 ], [ %770, %728 ]
  %775 = icmp eq i64 %724, 0
  br i1 %775, label %786, label %776

776:                                              ; preds = %773, %776
  %777 = phi i64 [ %783, %776 ], [ %774, %773 ]
  %778 = phi i64 [ %784, %776 ], [ %724, %773 ]
  %779 = getelementptr i32, i32* %419, i64 %777
  %780 = bitcast i32* %779 to <4 x i32>*
  store <4 x i32> %718, <4 x i32>* %780, align 4, !tbaa !25
  %781 = getelementptr i32, i32* %779, i64 4
  %782 = bitcast i32* %781 to <4 x i32>*
  store <4 x i32> %720, <4 x i32>* %782, align 4, !tbaa !25
  %783 = add nuw i64 %777, 8
  %784 = add i64 %778, -1
  %785 = icmp eq i64 %784, 0
  br i1 %785, label %786, label %776, !llvm.loop !117

786:                                              ; preds = %776, %773
  %787 = icmp eq i64 %712, %715
  br i1 %787, label %794, label %788

788:                                              ; preds = %708, %786
  %789 = phi i32* [ %419, %708 ], [ %716, %786 ]
  br label %790

790:                                              ; preds = %788, %790
  %791 = phi i32* [ %792, %790 ], [ %789, %788 ]
  store i32 %706, i32* %791, align 4, !tbaa !25
  %792 = getelementptr inbounds i32, i32* %791, i64 1
  %793 = icmp eq i32* %792, %705
  br i1 %793, label %794, label %790, !llvm.loop !118

794:                                              ; preds = %627, %790, %623, %786, %704, %539
  %795 = phi i32** [ %425, %704 ], [ %446, %539 ], [ %425, %786 ], [ %446, %623 ], [ %425, %790 ], [ %446, %627 ]
  %796 = phi i32* [ %705, %704 ], [ %445, %539 ], [ %705, %786 ], [ %445, %623 ], [ %705, %790 ], [ %445, %627 ]
  %797 = phi i32* [ %418, %704 ], [ %442, %539 ], [ %418, %786 ], [ %442, %623 ], [ %418, %790 ], [ %442, %627 ]
  %798 = phi i32* [ %423, %704 ], [ %441, %539 ], [ %423, %786 ], [ %441, %623 ], [ %423, %790 ], [ %441, %627 ]
  store i32* %796, i32** %399, align 8, !tbaa.struct !74
  store i32* %798, i32** %422, align 8, !tbaa.struct !75
  store i32* %797, i32** %403, align 8, !tbaa.struct !76
  store i32** %795, i32*** %424, align 8, !tbaa.struct !77
  br label %809

799:                                              ; preds = %398
  %800 = getelementptr inbounds %"struct.std::_Deque_iterator", %"struct.std::_Deque_iterator"* %5, i64 0, i32 0
  store i32* %7, i32** %800, align 8, !tbaa !10
  %801 = getelementptr inbounds %"struct.std::_Deque_iterator", %"struct.std::_Deque_iterator"* %5, i64 0, i32 1
  %802 = getelementptr inbounds %"struct.std::_Deque_iterator", %"struct.std::_Deque_iterator"* %1, i64 0, i32 1
  %803 = bitcast i32** %802 to <2 x i32*>*
  %804 = load <2 x i32*>, <2 x i32*>* %803, align 8, !tbaa !24
  %805 = bitcast i32** %801 to <2 x i32*>*
  store <2 x i32*> %804, <2 x i32*>* %805, align 8, !tbaa !24
  %806 = getelementptr inbounds %"struct.std::_Deque_iterator", %"struct.std::_Deque_iterator"* %5, i64 0, i32 3
  %807 = getelementptr inbounds %"struct.std::_Deque_iterator", %"struct.std::_Deque_iterator"* %1, i64 0, i32 3
  %808 = load i32**, i32*** %807, align 8, !tbaa !5
  store i32** %808, i32*** %806, align 8, !tbaa !5
  call void @_ZNSt5dequeIiSaIiEE13_M_insert_auxESt15_Deque_iteratorIiRiPiEmRKi(%"class.std::deque"* nonnull align 8 dereferenceable(80) %0, %"struct.std::_Deque_iterator"* nonnull %5, i64 %2, i32* nonnull align 4 dereferenceable(4) %3)
  br label %809

809:                                              ; preds = %794, %799, %393
  ret void
}

; Function Attrs: sspstrong uwtable
define linkonce_odr dso_local void @_ZNSt5dequeIiSaIiEE13_M_insert_auxESt15_Deque_iteratorIiRiPiEmRKi(%"class.std::deque"* nonnull align 8 dereferenceable(80) %0, %"struct.std::_Deque_iterator"* %1, i64 %2, i32* nonnull align 4 dereferenceable(4) %3) local_unnamed_addr #3 comdat align 2 personality i8* bitcast (i32 (...)* @__gxx_personality_v0 to i8*) {
  %5 = alloca %"struct.std::_Deque_iterator", align 16
  %6 = alloca %"struct.std::_Deque_iterator", align 8
  %7 = alloca %"struct.std::_Deque_iterator", align 8
  %8 = alloca %"struct.std::_Deque_iterator", align 8
  %9 = alloca %"struct.std::_Deque_iterator", align 8
  %10 = alloca %"struct.std::_Deque_iterator", align 8
  %11 = alloca %"struct.std::_Deque_iterator", align 8
  %12 = alloca %"struct.std::_Deque_iterator", align 8
  %13 = alloca %"struct.std::_Deque_iterator", align 8
  %14 = alloca %"struct.std::_Deque_iterator", align 8
  %15 = alloca %"struct.std::_Deque_iterator", align 8
  %16 = alloca %"struct.std::_Deque_iterator", align 8
  %17 = alloca %"struct.std::_Deque_iterator", align 8
  %18 = alloca %"struct.std::_Deque_iterator", align 16
  %19 = alloca %"struct.std::_Deque_iterator", align 8
  %20 = alloca %"struct.std::_Deque_iterator", align 8
  %21 = alloca %"struct.std::_Deque_iterator", align 8
  %22 = alloca %"struct.std::_Deque_iterator", align 8
  %23 = alloca %"struct.std::_Deque_iterator", align 8
  %24 = alloca %"struct.std::_Deque_iterator", align 8
  %25 = alloca i32, align 4
  %26 = alloca %"struct.std::_Deque_iterator", align 8
  %27 = alloca %"struct.std::_Deque_iterator", align 8
  %28 = alloca %"struct.std::_Deque_iterator", align 8
  %29 = alloca %"struct.std::_Deque_iterator", align 8
  %30 = alloca %"struct.std::_Deque_iterator", align 8
  %31 = getelementptr inbounds %"struct.std::_Deque_iterator", %"struct.std::_Deque_iterator"* %1, i64 0, i32 3
  %32 = load i32**, i32*** %31, align 8, !tbaa !5
  %33 = getelementptr inbounds %"class.std::deque", %"class.std::deque"* %0, i64 0, i32 0, i32 0, i32 0, i32 2, i32 3
  %34 = load i32**, i32*** %33, align 8, !tbaa !5
  %35 = ptrtoint i32** %32 to i64
  %36 = ptrtoint i32** %34 to i64
  %37 = sub i64 %35, %36
  %38 = ashr exact i64 %37, 3
  %39 = icmp ne i32** %32, null
  %40 = sext i1 %39 to i64
  %41 = add nsw i64 %38, %40
  %42 = shl nsw i64 %41, 7
  %43 = getelementptr inbounds %"struct.std::_Deque_iterator", %"struct.std::_Deque_iterator"* %1, i64 0, i32 0
  %44 = load i32*, i32** %43, align 8, !tbaa !10
  %45 = getelementptr inbounds %"struct.std::_Deque_iterator", %"struct.std::_Deque_iterator"* %1, i64 0, i32 1
  %46 = load i32*, i32** %45, align 8, !tbaa !11
  %47 = ptrtoint i32* %44 to i64
  %48 = ptrtoint i32* %46 to i64
  %49 = sub i64 %47, %48
  %50 = ashr exact i64 %49, 2
  %51 = add nsw i64 %42, %50
  %52 = getelementptr inbounds %"class.std::deque", %"class.std::deque"* %0, i64 0, i32 0, i32 0, i32 0, i32 2, i32 2
  %53 = load i32*, i32** %52, align 8, !tbaa !12
  %54 = getelementptr inbounds %"class.std::deque", %"class.std::deque"* %0, i64 0, i32 0, i32 0, i32 0, i32 2, i32 0
  %55 = load i32*, i32** %54, align 8, !tbaa !10
  %56 = ptrtoint i32* %53 to i64
  %57 = ptrtoint i32* %55 to i64
  %58 = sub i64 %56, %57
  %59 = ashr exact i64 %58, 2
  %60 = add nsw i64 %51, %59
  %61 = getelementptr inbounds %"class.std::deque", %"class.std::deque"* %0, i64 0, i32 0, i32 0, i32 0, i32 3, i32 3
  %62 = load i32**, i32*** %61, align 8, !tbaa !5
  %63 = ptrtoint i32** %62 to i64
  %64 = sub i64 %63, %36
  %65 = ashr exact i64 %64, 3
  %66 = icmp ne i32** %62, null
  %67 = sext i1 %66 to i64
  %68 = add nsw i64 %65, %67
  %69 = shl nsw i64 %68, 7
  %70 = getelementptr inbounds %"class.std::deque", %"class.std::deque"* %0, i64 0, i32 0, i32 0, i32 0, i32 3, i32 0
  %71 = load i32*, i32** %70, align 8, !tbaa !10
  %72 = getelementptr inbounds %"class.std::deque", %"class.std::deque"* %0, i64 0, i32 0, i32 0, i32 0, i32 3, i32 1
  %73 = load i32*, i32** %72, align 8, !tbaa !11
  %74 = ptrtoint i32* %71 to i64
  %75 = ptrtoint i32* %73 to i64
  %76 = sub i64 %74, %75
  %77 = ashr exact i64 %76, 2
  %78 = add nsw i64 %69, %77
  %79 = add nsw i64 %78, %59
  %80 = bitcast i32* %25 to i8*
  call void @llvm.lifetime.start.p0i8(i64 4, i8* nonnull %80) #18
  %81 = load i32, i32* %3, align 4, !tbaa !25
  store i32 %81, i32* %25, align 4, !tbaa !25
  %82 = lshr i64 %79, 1
  %83 = icmp slt i64 %60, %82
  br i1 %83, label %84, label %1327

84:                                               ; preds = %4
  %85 = getelementptr inbounds %"class.std::deque", %"class.std::deque"* %0, i64 0, i32 0, i32 0, i32 0, i32 2, i32 1
  %86 = load i32*, i32** %85, align 8, !tbaa !87, !noalias !119
  %87 = ptrtoint i32* %86 to i64
  %88 = sub i64 %57, %87
  %89 = ashr exact i64 %88, 2
  %90 = icmp ult i64 %89, %2
  br i1 %90, label %91, label %101

91:                                               ; preds = %84
  %92 = sub i64 %2, %89
  tail call void @_ZNSt5dequeIiSaIiEE24_M_new_elements_at_frontEm(%"class.std::deque"* nonnull align 8 dereferenceable(80) %0, i64 %92), !noalias !119
  %93 = load i32*, i32** %54, align 8, !tbaa !10, !noalias !122
  %94 = load i32*, i32** %85, align 8, !tbaa !11, !noalias !122
  %95 = ptrtoint i32* %93 to i64
  %96 = ptrtoint i32* %94 to i64
  %97 = sub i64 %95, %96
  %98 = ashr exact i64 %97, 2
  %99 = load i32*, i32** %52, align 8, !tbaa !12, !noalias !122
  %100 = load i32**, i32*** %33, align 8, !tbaa !5, !noalias !122
  br label %101

101:                                              ; preds = %91, %84
  %102 = phi i32** [ %100, %91 ], [ %34, %84 ]
  %103 = phi i32* [ %99, %91 ], [ %53, %84 ]
  %104 = phi i64 [ %98, %91 ], [ %89, %84 ]
  %105 = phi i32* [ %94, %91 ], [ %86, %84 ]
  %106 = phi i32* [ %93, %91 ], [ %55, %84 ]
  %107 = ptrtoint i32* %106 to i64
  %108 = ptrtoint i32* %103 to i64
  %109 = ptrtoint i32* %106 to i64
  %110 = sub nsw i64 0, %2
  %111 = sub i64 %104, %2
  %112 = icmp sgt i64 %111, -1
  br i1 %112, label %113, label %119

113:                                              ; preds = %101
  %114 = icmp slt i64 %111, 128
  br i1 %114, label %115, label %117

115:                                              ; preds = %113
  %116 = getelementptr inbounds i32, i32* %106, i64 %110
  br label %130

117:                                              ; preds = %113
  %118 = lshr i64 %111, 7
  br label %122

119:                                              ; preds = %101
  %120 = lshr i64 %111, 7
  %121 = or i64 %120, -144115188075855872
  br label %122

122:                                              ; preds = %119, %117
  %123 = phi i64 [ %118, %117 ], [ %121, %119 ]
  %124 = getelementptr inbounds i32*, i32** %102, i64 %123
  %125 = load i32*, i32** %124, align 8, !tbaa !24, !noalias !122
  %126 = getelementptr inbounds i32, i32* %125, i64 128
  %127 = mul i64 %123, -128
  %128 = add i64 %127, %111
  %129 = getelementptr inbounds i32, i32* %125, i64 %128
  br label %130

130:                                              ; preds = %115, %122
  %131 = phi i32* [ %105, %115 ], [ %125, %122 ]
  %132 = phi i32* [ %103, %115 ], [ %126, %122 ]
  %133 = phi i32** [ %102, %115 ], [ %124, %122 ]
  %134 = phi i32* [ %116, %115 ], [ %129, %122 ]
  %135 = ptrtoint i32* %106 to i64
  %136 = ptrtoint i32* %105 to i64
  %137 = sub i64 %135, %136
  %138 = ashr exact i64 %137, 2
  %139 = add nsw i64 %138, %60
  %140 = icmp sgt i64 %139, -1
  br i1 %140, label %141, label %147

141:                                              ; preds = %130
  %142 = icmp slt i64 %139, 128
  br i1 %142, label %143, label %145

143:                                              ; preds = %141
  %144 = getelementptr inbounds i32, i32* %106, i64 %60
  br label %158

145:                                              ; preds = %141
  %146 = lshr i64 %139, 7
  br label %150

147:                                              ; preds = %130
  %148 = lshr i64 %139, 7
  %149 = or i64 %148, -144115188075855872
  br label %150

150:                                              ; preds = %147, %145
  %151 = phi i64 [ %146, %145 ], [ %149, %147 ]
  %152 = getelementptr inbounds i32*, i32** %102, i64 %151
  %153 = load i32*, i32** %152, align 8, !tbaa !24, !noalias !125
  %154 = getelementptr inbounds i32, i32* %153, i64 128
  %155 = mul i64 %151, -128
  %156 = add i64 %155, %139
  %157 = getelementptr inbounds i32, i32* %153, i64 %156
  br label %158

158:                                              ; preds = %143, %150
  %159 = phi i32* [ %105, %143 ], [ %153, %150 ]
  %160 = phi i32* [ %103, %143 ], [ %154, %150 ]
  %161 = phi i32** [ %102, %143 ], [ %152, %150 ]
  %162 = phi i32* [ %144, %143 ], [ %157, %150 ]
  store i32* %162, i32** %43, align 8, !tbaa.struct !74
  store i32* %159, i32** %45, align 8, !tbaa.struct !75
  %163 = getelementptr inbounds %"struct.std::_Deque_iterator", %"struct.std::_Deque_iterator"* %1, i64 0, i32 2
  store i32* %160, i32** %163, align 8, !tbaa.struct !76
  store i32** %161, i32*** %31, align 8, !tbaa.struct !77
  %164 = icmp slt i64 %60, %2
  %165 = load i32*, i32** %54, align 8, !tbaa !10
  %166 = ptrtoint i32* %165 to i64
  %167 = load i32*, i32** %85, align 8, !tbaa !11
  %168 = ptrtoint i32* %167 to i64
  %169 = load i32*, i32** %52, align 8, !tbaa !12
  %170 = load i32**, i32*** %33, align 8, !tbaa !5
  br i1 %164, label %591, label %171

171:                                              ; preds = %158
  %172 = ptrtoint i32* %165 to i64
  %173 = ptrtoint i32* %167 to i64
  %174 = sub i64 %172, %173
  %175 = ashr exact i64 %174, 2
  %176 = add nsw i64 %175, %2
  %177 = icmp sgt i64 %176, -1
  br i1 %177, label %178, label %184

178:                                              ; preds = %171
  %179 = icmp slt i64 %176, 128
  br i1 %179, label %180, label %182

180:                                              ; preds = %178
  %181 = getelementptr inbounds i32, i32* %165, i64 %2
  br label %195

182:                                              ; preds = %178
  %183 = lshr i64 %176, 7
  br label %187

184:                                              ; preds = %171
  %185 = lshr i64 %176, 7
  %186 = or i64 %185, -144115188075855872
  br label %187

187:                                              ; preds = %184, %182
  %188 = phi i64 [ %183, %182 ], [ %186, %184 ]
  %189 = getelementptr inbounds i32*, i32** %170, i64 %188
  %190 = load i32*, i32** %189, align 8, !tbaa !24, !noalias !128
  %191 = getelementptr inbounds i32, i32* %190, i64 128
  %192 = mul i64 %188, -128
  %193 = add i64 %192, %176
  %194 = getelementptr inbounds i32, i32* %190, i64 %193
  br label %195

195:                                              ; preds = %180, %187
  %196 = phi i32* [ %167, %180 ], [ %190, %187 ]
  %197 = phi i32* [ %169, %180 ], [ %191, %187 ]
  %198 = phi i32** [ %170, %180 ], [ %189, %187 ]
  %199 = phi i32* [ %181, %180 ], [ %194, %187 ]
  %200 = bitcast %"struct.std::_Deque_iterator"* %24 to i8*
  call void @llvm.lifetime.start.p0i8(i64 32, i8* nonnull %200), !noalias !131
  %201 = bitcast %"struct.std::_Deque_iterator"* %21 to i8*
  call void @llvm.lifetime.start.p0i8(i64 32, i8* nonnull %201), !noalias !142
  %202 = bitcast %"struct.std::_Deque_iterator"* %22 to i8*
  call void @llvm.lifetime.start.p0i8(i64 32, i8* nonnull %202), !noalias !142
  %203 = bitcast %"struct.std::_Deque_iterator"* %23 to i8*
  call void @llvm.lifetime.start.p0i8(i64 32, i8* nonnull %203), !noalias !142
  %204 = getelementptr inbounds %"struct.std::_Deque_iterator", %"struct.std::_Deque_iterator"* %21, i64 0, i32 0
  store i32* %165, i32** %204, align 8, !tbaa !10, !noalias !145
  %205 = getelementptr inbounds %"struct.std::_Deque_iterator", %"struct.std::_Deque_iterator"* %21, i64 0, i32 1
  store i32* %167, i32** %205, align 8, !tbaa !11, !noalias !145
  %206 = getelementptr inbounds %"struct.std::_Deque_iterator", %"struct.std::_Deque_iterator"* %21, i64 0, i32 2
  store i32* %169, i32** %206, align 8, !tbaa !12, !noalias !145
  %207 = getelementptr inbounds %"struct.std::_Deque_iterator", %"struct.std::_Deque_iterator"* %21, i64 0, i32 3
  store i32** %170, i32*** %207, align 8, !tbaa !5, !noalias !145
  %208 = getelementptr inbounds %"struct.std::_Deque_iterator", %"struct.std::_Deque_iterator"* %22, i64 0, i32 0
  store i32* %199, i32** %208, align 8, !tbaa !10, !noalias !145
  %209 = getelementptr inbounds %"struct.std::_Deque_iterator", %"struct.std::_Deque_iterator"* %22, i64 0, i32 1
  store i32* %196, i32** %209, align 8, !tbaa !11, !noalias !145
  %210 = getelementptr inbounds %"struct.std::_Deque_iterator", %"struct.std::_Deque_iterator"* %22, i64 0, i32 2
  store i32* %197, i32** %210, align 8, !tbaa !12, !noalias !145
  %211 = getelementptr inbounds %"struct.std::_Deque_iterator", %"struct.std::_Deque_iterator"* %22, i64 0, i32 3
  store i32** %198, i32*** %211, align 8, !tbaa !5, !noalias !145
  %212 = getelementptr inbounds %"struct.std::_Deque_iterator", %"struct.std::_Deque_iterator"* %23, i64 0, i32 0
  store i32* %134, i32** %212, align 8, !tbaa !10, !noalias !145
  %213 = getelementptr inbounds %"struct.std::_Deque_iterator", %"struct.std::_Deque_iterator"* %23, i64 0, i32 1
  store i32* %131, i32** %213, align 8, !tbaa !11, !noalias !145
  %214 = getelementptr inbounds %"struct.std::_Deque_iterator", %"struct.std::_Deque_iterator"* %23, i64 0, i32 2
  store i32* %132, i32** %214, align 8, !tbaa !12, !noalias !145
  %215 = getelementptr inbounds %"struct.std::_Deque_iterator", %"struct.std::_Deque_iterator"* %23, i64 0, i32 3
  store i32** %133, i32*** %215, align 8, !tbaa !5, !noalias !145
  invoke void @_ZSt15__copy_move_ditILb1EiRiPiSt15_Deque_iteratorIiS0_S1_EET3_S2_IT0_T1_T2_ES8_S4_(%"struct.std::_Deque_iterator"* nonnull sret(%"struct.std::_Deque_iterator") align 8 %24, %"struct.std::_Deque_iterator"* nonnull %21, %"struct.std::_Deque_iterator"* nonnull %22, %"struct.std::_Deque_iterator"* nonnull %23)
          to label %216 unwind label %587

216:                                              ; preds = %195
  call void @llvm.lifetime.end.p0i8(i64 32, i8* nonnull %201), !noalias !142
  call void @llvm.lifetime.end.p0i8(i64 32, i8* nonnull %202), !noalias !142
  call void @llvm.lifetime.end.p0i8(i64 32, i8* nonnull %203), !noalias !142
  call void @llvm.lifetime.end.p0i8(i64 32, i8* nonnull %200), !noalias !131
  store i32* %134, i32** %54, align 8, !tbaa.struct !74
  store i32* %131, i32** %85, align 8, !tbaa.struct !75
  store i32* %132, i32** %52, align 8, !tbaa.struct !76
  store i32** %133, i32*** %33, align 8, !tbaa.struct !77
  %217 = bitcast %"struct.std::_Deque_iterator"* %1 to <2 x i32*>*
  %218 = load <2 x i32*>, <2 x i32*>* %217, align 8, !tbaa !24
  %219 = load i32*, i32** %163, align 8, !tbaa !12
  %220 = load i32**, i32*** %31, align 8, !tbaa !5
  %221 = bitcast %"struct.std::_Deque_iterator"* %20 to i8*
  call void @llvm.lifetime.start.p0i8(i64 32, i8* nonnull %221), !noalias !148
  %222 = bitcast %"struct.std::_Deque_iterator"* %17 to i8*
  call void @llvm.lifetime.start.p0i8(i64 32, i8* nonnull %222), !noalias !151
  %223 = bitcast %"struct.std::_Deque_iterator"* %18 to i8*
  call void @llvm.lifetime.start.p0i8(i64 32, i8* nonnull %223), !noalias !151
  %224 = bitcast %"struct.std::_Deque_iterator"* %19 to i8*
  call void @llvm.lifetime.start.p0i8(i64 32, i8* nonnull %224), !noalias !151
  %225 = getelementptr inbounds %"struct.std::_Deque_iterator", %"struct.std::_Deque_iterator"* %17, i64 0, i32 0
  store i32* %199, i32** %225, align 8, !tbaa !10, !noalias !154
  %226 = getelementptr inbounds %"struct.std::_Deque_iterator", %"struct.std::_Deque_iterator"* %17, i64 0, i32 1
  store i32* %196, i32** %226, align 8, !tbaa !11, !noalias !154
  %227 = getelementptr inbounds %"struct.std::_Deque_iterator", %"struct.std::_Deque_iterator"* %17, i64 0, i32 2
  store i32* %197, i32** %227, align 8, !tbaa !12, !noalias !154
  %228 = getelementptr inbounds %"struct.std::_Deque_iterator", %"struct.std::_Deque_iterator"* %17, i64 0, i32 3
  store i32** %198, i32*** %228, align 8, !tbaa !5, !noalias !154
  %229 = bitcast %"struct.std::_Deque_iterator"* %18 to <2 x i32*>*
  store <2 x i32*> %218, <2 x i32*>* %229, align 16, !tbaa !24, !noalias !154
  %230 = getelementptr inbounds %"struct.std::_Deque_iterator", %"struct.std::_Deque_iterator"* %18, i64 0, i32 2
  store i32* %219, i32** %230, align 16, !tbaa !12, !noalias !154
  %231 = getelementptr inbounds %"struct.std::_Deque_iterator", %"struct.std::_Deque_iterator"* %18, i64 0, i32 3
  store i32** %220, i32*** %231, align 8, !tbaa !5, !noalias !154
  %232 = getelementptr inbounds %"struct.std::_Deque_iterator", %"struct.std::_Deque_iterator"* %19, i64 0, i32 0
  store i32* %106, i32** %232, align 8, !tbaa !10, !noalias !154
  %233 = getelementptr inbounds %"struct.std::_Deque_iterator", %"struct.std::_Deque_iterator"* %19, i64 0, i32 1
  store i32* %105, i32** %233, align 8, !tbaa !11, !noalias !154
  %234 = getelementptr inbounds %"struct.std::_Deque_iterator", %"struct.std::_Deque_iterator"* %19, i64 0, i32 2
  store i32* %103, i32** %234, align 8, !tbaa !12, !noalias !154
  %235 = getelementptr inbounds %"struct.std::_Deque_iterator", %"struct.std::_Deque_iterator"* %19, i64 0, i32 3
  store i32** %102, i32*** %235, align 8, !tbaa !5, !noalias !154
  invoke void @_ZSt15__copy_move_ditILb1EiRiPiSt15_Deque_iteratorIiS0_S1_EET3_S2_IT0_T1_T2_ES8_S4_(%"struct.std::_Deque_iterator"* nonnull sret(%"struct.std::_Deque_iterator") align 8 %20, %"struct.std::_Deque_iterator"* nonnull %17, %"struct.std::_Deque_iterator"* nonnull %18, %"struct.std::_Deque_iterator"* nonnull %19)
          to label %236 unwind label %589

236:                                              ; preds = %216
  call void @llvm.lifetime.end.p0i8(i64 32, i8* nonnull %222), !noalias !151
  call void @llvm.lifetime.end.p0i8(i64 32, i8* nonnull %223), !noalias !151
  call void @llvm.lifetime.end.p0i8(i64 32, i8* nonnull %224), !noalias !151
  call void @llvm.lifetime.end.p0i8(i64 32, i8* nonnull %221), !noalias !148
  %237 = load i32*, i32** %43, align 8, !tbaa !10, !noalias !157
  %238 = load i32*, i32** %45, align 8, !tbaa !11, !noalias !157
  %239 = load i32**, i32*** %31, align 8, !tbaa !5, !noalias !157
  %240 = ptrtoint i32* %237 to i64
  %241 = ptrtoint i32* %238 to i64
  %242 = sub i64 %240, %241
  %243 = ashr exact i64 %242, 2
  %244 = sub i64 %243, %2
  %245 = icmp sgt i64 %244, -1
  br i1 %245, label %246, label %250

246:                                              ; preds = %236
  %247 = icmp slt i64 %244, 128
  br i1 %247, label %498, label %248

248:                                              ; preds = %246
  %249 = lshr i64 %244, 7
  br label %253

250:                                              ; preds = %236
  %251 = lshr i64 %244, 7
  %252 = or i64 %251, -144115188075855872
  br label %253

253:                                              ; preds = %250, %248
  %254 = phi i64 [ %249, %248 ], [ %252, %250 ]
  %255 = getelementptr inbounds i32*, i32** %239, i64 %254
  %256 = load i32*, i32** %255, align 8, !tbaa !24, !noalias !157
  %257 = mul i64 %254, -128
  %258 = add i64 %257, %244
  %259 = icmp eq i64 %258, 128
  br i1 %259, label %332, label %260

260:                                              ; preds = %253
  %261 = shl i64 %254, 7
  %262 = add i64 %261, %2
  %263 = add i64 %262, 128
  %264 = sub i64 %263, %243
  %265 = icmp ult i64 %264, 8
  br i1 %265, label %325, label %266

266:                                              ; preds = %260
  %267 = and i64 %264, -8
  %268 = add i64 %258, %267
  %269 = insertelement <4 x i32> poison, i32 %81, i32 0
  %270 = shufflevector <4 x i32> %269, <4 x i32> poison, <4 x i32> zeroinitializer
  %271 = insertelement <4 x i32> poison, i32 %81, i32 0
  %272 = shufflevector <4 x i32> %271, <4 x i32> poison, <4 x i32> zeroinitializer
  %273 = add i64 %267, -8
  %274 = lshr exact i64 %273, 3
  %275 = add nuw nsw i64 %274, 1
  %276 = and i64 %275, 3
  %277 = icmp ult i64 %273, 24
  br i1 %277, label %309, label %278

278:                                              ; preds = %266
  %279 = and i64 %275, 4611686018427387900
  br label %280

280:                                              ; preds = %280, %278
  %281 = phi i64 [ 0, %278 ], [ %306, %280 ]
  %282 = phi i64 [ %279, %278 ], [ %307, %280 ]
  %283 = add i64 %258, %281
  %284 = getelementptr inbounds i32, i32* %256, i64 %283
  %285 = bitcast i32* %284 to <4 x i32>*
  store <4 x i32> %270, <4 x i32>* %285, align 4, !tbaa !25
  %286 = getelementptr inbounds i32, i32* %284, i64 4
  %287 = bitcast i32* %286 to <4 x i32>*
  store <4 x i32> %272, <4 x i32>* %287, align 4, !tbaa !25
  %288 = or i64 %281, 8
  %289 = add i64 %258, %288
  %290 = getelementptr inbounds i32, i32* %256, i64 %289
  %291 = bitcast i32* %290 to <4 x i32>*
  store <4 x i32> %270, <4 x i32>* %291, align 4, !tbaa !25
  %292 = getelementptr inbounds i32, i32* %290, i64 4
  %293 = bitcast i32* %292 to <4 x i32>*
  store <4 x i32> %272, <4 x i32>* %293, align 4, !tbaa !25
  %294 = or i64 %281, 16
  %295 = add i64 %258, %294
  %296 = getelementptr inbounds i32, i32* %256, i64 %295
  %297 = bitcast i32* %296 to <4 x i32>*
  store <4 x i32> %270, <4 x i32>* %297, align 4, !tbaa !25
  %298 = getelementptr inbounds i32, i32* %296, i64 4
  %299 = bitcast i32* %298 to <4 x i32>*
  store <4 x i32> %272, <4 x i32>* %299, align 4, !tbaa !25
  %300 = or i64 %281, 24
  %301 = add i64 %258, %300
  %302 = getelementptr inbounds i32, i32* %256, i64 %301
  %303 = bitcast i32* %302 to <4 x i32>*
  store <4 x i32> %270, <4 x i32>* %303, align 4, !tbaa !25
  %304 = getelementptr inbounds i32, i32* %302, i64 4
  %305 = bitcast i32* %304 to <4 x i32>*
  store <4 x i32> %272, <4 x i32>* %305, align 4, !tbaa !25
  %306 = add nuw i64 %281, 32
  %307 = add i64 %282, -4
  %308 = icmp eq i64 %307, 0
  br i1 %308, label %309, label %280, !llvm.loop !160

309:                                              ; preds = %280, %266
  %310 = phi i64 [ 0, %266 ], [ %306, %280 ]
  %311 = icmp eq i64 %276, 0
  br i1 %311, label %323, label %312

312:                                              ; preds = %309, %312
  %313 = phi i64 [ %320, %312 ], [ %310, %309 ]
  %314 = phi i64 [ %321, %312 ], [ %276, %309 ]
  %315 = add i64 %258, %313
  %316 = getelementptr inbounds i32, i32* %256, i64 %315
  %317 = bitcast i32* %316 to <4 x i32>*
  store <4 x i32> %270, <4 x i32>* %317, align 4, !tbaa !25
  %318 = getelementptr inbounds i32, i32* %316, i64 4
  %319 = bitcast i32* %318 to <4 x i32>*
  store <4 x i32> %272, <4 x i32>* %319, align 4, !tbaa !25
  %320 = add nuw i64 %313, 8
  %321 = add i64 %314, -1
  %322 = icmp eq i64 %321, 0
  br i1 %322, label %323, label %312, !llvm.loop !161

323:                                              ; preds = %312, %309
  %324 = icmp eq i64 %264, %267
  br i1 %324, label %332, label %325

325:                                              ; preds = %260, %323
  %326 = phi i64 [ %258, %260 ], [ %268, %323 ]
  br label %327

327:                                              ; preds = %325, %327
  %328 = phi i64 [ %330, %327 ], [ %326, %325 ]
  %329 = getelementptr inbounds i32, i32* %256, i64 %328
  store i32 %81, i32* %329, align 4, !tbaa !25
  %330 = add nsw i64 %328, 1
  %331 = icmp eq i64 %330, 128
  br i1 %331, label %332, label %327, !llvm.loop !162

332:                                              ; preds = %327, %323, %253
  %333 = getelementptr inbounds i32*, i32** %255, i64 1
  %334 = icmp ult i32** %333, %239
  br i1 %334, label %335, label %341

335:                                              ; preds = %332
  %336 = load i32, i32* %25, align 4, !tbaa !25
  %337 = insertelement <4 x i32> poison, i32 %336, i32 0
  %338 = shufflevector <4 x i32> %337, <4 x i32> poison, <4 x i32> zeroinitializer
  %339 = insertelement <4 x i32> poison, i32 %336, i32 0
  %340 = shufflevector <4 x i32> %339, <4 x i32> poison, <4 x i32> zeroinitializer
  br label %430

341:                                              ; preds = %430, %332
  %342 = load i32, i32* %25, align 4, !tbaa !25
  %343 = icmp eq i32* %238, %237
  br i1 %343, label %2270, label %344

344:                                              ; preds = %341
  %345 = add i64 %240, -4
  %346 = sub i64 %345, %241
  %347 = lshr i64 %346, 2
  %348 = add nuw nsw i64 %347, 1
  %349 = icmp ult i64 %346, 28
  br i1 %349, label %424, label %350

350:                                              ; preds = %344
  %351 = and i64 %348, 9223372036854775800
  %352 = getelementptr i32, i32* %238, i64 %351
  %353 = insertelement <4 x i32> poison, i32 %342, i32 0
  %354 = shufflevector <4 x i32> %353, <4 x i32> poison, <4 x i32> zeroinitializer
  %355 = insertelement <4 x i32> poison, i32 %342, i32 0
  %356 = shufflevector <4 x i32> %355, <4 x i32> poison, <4 x i32> zeroinitializer
  %357 = add nsw i64 %351, -8
  %358 = lshr exact i64 %357, 3
  %359 = add nuw nsw i64 %358, 1
  %360 = and i64 %359, 7
  %361 = icmp ult i64 %357, 56
  br i1 %361, label %409, label %362

362:                                              ; preds = %350
  %363 = and i64 %359, 4611686018427387896
  br label %364

364:                                              ; preds = %364, %362
  %365 = phi i64 [ 0, %362 ], [ %406, %364 ]
  %366 = phi i64 [ %363, %362 ], [ %407, %364 ]
  %367 = getelementptr i32, i32* %238, i64 %365
  %368 = bitcast i32* %367 to <4 x i32>*
  store <4 x i32> %354, <4 x i32>* %368, align 4, !tbaa !25
  %369 = getelementptr i32, i32* %367, i64 4
  %370 = bitcast i32* %369 to <4 x i32>*
  store <4 x i32> %356, <4 x i32>* %370, align 4, !tbaa !25
  %371 = or i64 %365, 8
  %372 = getelementptr i32, i32* %238, i64 %371
  %373 = bitcast i32* %372 to <4 x i32>*
  store <4 x i32> %354, <4 x i32>* %373, align 4, !tbaa !25
  %374 = getelementptr i32, i32* %372, i64 4
  %375 = bitcast i32* %374 to <4 x i32>*
  store <4 x i32> %356, <4 x i32>* %375, align 4, !tbaa !25
  %376 = or i64 %365, 16
  %377 = getelementptr i32, i32* %238, i64 %376
  %378 = bitcast i32* %377 to <4 x i32>*
  store <4 x i32> %354, <4 x i32>* %378, align 4, !tbaa !25
  %379 = getelementptr i32, i32* %377, i64 4
  %380 = bitcast i32* %379 to <4 x i32>*
  store <4 x i32> %356, <4 x i32>* %380, align 4, !tbaa !25
  %381 = or i64 %365, 24
  %382 = getelementptr i32, i32* %238, i64 %381
  %383 = bitcast i32* %382 to <4 x i32>*
  store <4 x i32> %354, <4 x i32>* %383, align 4, !tbaa !25
  %384 = getelementptr i32, i32* %382, i64 4
  %385 = bitcast i32* %384 to <4 x i32>*
  store <4 x i32> %356, <4 x i32>* %385, align 4, !tbaa !25
  %386 = or i64 %365, 32
  %387 = getelementptr i32, i32* %238, i64 %386
  %388 = bitcast i32* %387 to <4 x i32>*
  store <4 x i32> %354, <4 x i32>* %388, align 4, !tbaa !25
  %389 = getelementptr i32, i32* %387, i64 4
  %390 = bitcast i32* %389 to <4 x i32>*
  store <4 x i32> %356, <4 x i32>* %390, align 4, !tbaa !25
  %391 = or i64 %365, 40
  %392 = getelementptr i32, i32* %238, i64 %391
  %393 = bitcast i32* %392 to <4 x i32>*
  store <4 x i32> %354, <4 x i32>* %393, align 4, !tbaa !25
  %394 = getelementptr i32, i32* %392, i64 4
  %395 = bitcast i32* %394 to <4 x i32>*
  store <4 x i32> %356, <4 x i32>* %395, align 4, !tbaa !25
  %396 = or i64 %365, 48
  %397 = getelementptr i32, i32* %238, i64 %396
  %398 = bitcast i32* %397 to <4 x i32>*
  store <4 x i32> %354, <4 x i32>* %398, align 4, !tbaa !25
  %399 = getelementptr i32, i32* %397, i64 4
  %400 = bitcast i32* %399 to <4 x i32>*
  store <4 x i32> %356, <4 x i32>* %400, align 4, !tbaa !25
  %401 = or i64 %365, 56
  %402 = getelementptr i32, i32* %238, i64 %401
  %403 = bitcast i32* %402 to <4 x i32>*
  store <4 x i32> %354, <4 x i32>* %403, align 4, !tbaa !25
  %404 = getelementptr i32, i32* %402, i64 4
  %405 = bitcast i32* %404 to <4 x i32>*
  store <4 x i32> %356, <4 x i32>* %405, align 4, !tbaa !25
  %406 = add nuw i64 %365, 64
  %407 = add i64 %366, -8
  %408 = icmp eq i64 %407, 0
  br i1 %408, label %409, label %364, !llvm.loop !163

409:                                              ; preds = %364, %350
  %410 = phi i64 [ 0, %350 ], [ %406, %364 ]
  %411 = icmp eq i64 %360, 0
  br i1 %411, label %422, label %412

412:                                              ; preds = %409, %412
  %413 = phi i64 [ %419, %412 ], [ %410, %409 ]
  %414 = phi i64 [ %420, %412 ], [ %360, %409 ]
  %415 = getelementptr i32, i32* %238, i64 %413
  %416 = bitcast i32* %415 to <4 x i32>*
  store <4 x i32> %354, <4 x i32>* %416, align 4, !tbaa !25
  %417 = getelementptr i32, i32* %415, i64 4
  %418 = bitcast i32* %417 to <4 x i32>*
  store <4 x i32> %356, <4 x i32>* %418, align 4, !tbaa !25
  %419 = add nuw i64 %413, 8
  %420 = add i64 %414, -1
  %421 = icmp eq i64 %420, 0
  br i1 %421, label %422, label %412, !llvm.loop !164

422:                                              ; preds = %412, %409
  %423 = icmp eq i64 %348, %351
  br i1 %423, label %2270, label %424

424:                                              ; preds = %344, %422
  %425 = phi i32* [ %238, %344 ], [ %352, %422 ]
  br label %426

426:                                              ; preds = %424, %426
  %427 = phi i32* [ %428, %426 ], [ %425, %424 ]
  store i32 %342, i32* %427, align 4, !tbaa !25
  %428 = getelementptr inbounds i32, i32* %427, i64 1
  %429 = icmp eq i32* %428, %237
  br i1 %429, label %2270, label %426, !llvm.loop !165

430:                                              ; preds = %335, %430
  %431 = phi i32** [ %496, %430 ], [ %333, %335 ]
  %432 = load i32*, i32** %431, align 8, !tbaa !24
  %433 = bitcast i32* %432 to <4 x i32>*
  store <4 x i32> %338, <4 x i32>* %433, align 4, !tbaa !25
  %434 = getelementptr inbounds i32, i32* %432, i64 4
  %435 = bitcast i32* %434 to <4 x i32>*
  store <4 x i32> %340, <4 x i32>* %435, align 4, !tbaa !25
  %436 = getelementptr inbounds i32, i32* %432, i64 8
  %437 = bitcast i32* %436 to <4 x i32>*
  store <4 x i32> %338, <4 x i32>* %437, align 4, !tbaa !25
  %438 = getelementptr inbounds i32, i32* %432, i64 12
  %439 = bitcast i32* %438 to <4 x i32>*
  store <4 x i32> %340, <4 x i32>* %439, align 4, !tbaa !25
  %440 = getelementptr inbounds i32, i32* %432, i64 16
  %441 = bitcast i32* %440 to <4 x i32>*
  store <4 x i32> %338, <4 x i32>* %441, align 4, !tbaa !25
  %442 = getelementptr inbounds i32, i32* %432, i64 20
  %443 = bitcast i32* %442 to <4 x i32>*
  store <4 x i32> %340, <4 x i32>* %443, align 4, !tbaa !25
  %444 = getelementptr inbounds i32, i32* %432, i64 24
  %445 = bitcast i32* %444 to <4 x i32>*
  store <4 x i32> %338, <4 x i32>* %445, align 4, !tbaa !25
  %446 = getelementptr inbounds i32, i32* %432, i64 28
  %447 = bitcast i32* %446 to <4 x i32>*
  store <4 x i32> %340, <4 x i32>* %447, align 4, !tbaa !25
  %448 = getelementptr inbounds i32, i32* %432, i64 32
  %449 = bitcast i32* %448 to <4 x i32>*
  store <4 x i32> %338, <4 x i32>* %449, align 4, !tbaa !25
  %450 = getelementptr inbounds i32, i32* %432, i64 36
  %451 = bitcast i32* %450 to <4 x i32>*
  store <4 x i32> %340, <4 x i32>* %451, align 4, !tbaa !25
  %452 = getelementptr inbounds i32, i32* %432, i64 40
  %453 = bitcast i32* %452 to <4 x i32>*
  store <4 x i32> %338, <4 x i32>* %453, align 4, !tbaa !25
  %454 = getelementptr inbounds i32, i32* %432, i64 44
  %455 = bitcast i32* %454 to <4 x i32>*
  store <4 x i32> %340, <4 x i32>* %455, align 4, !tbaa !25
  %456 = getelementptr inbounds i32, i32* %432, i64 48
  %457 = bitcast i32* %456 to <4 x i32>*
  store <4 x i32> %338, <4 x i32>* %457, align 4, !tbaa !25
  %458 = getelementptr inbounds i32, i32* %432, i64 52
  %459 = bitcast i32* %458 to <4 x i32>*
  store <4 x i32> %340, <4 x i32>* %459, align 4, !tbaa !25
  %460 = getelementptr inbounds i32, i32* %432, i64 56
  %461 = bitcast i32* %460 to <4 x i32>*
  store <4 x i32> %338, <4 x i32>* %461, align 4, !tbaa !25
  %462 = getelementptr inbounds i32, i32* %432, i64 60
  %463 = bitcast i32* %462 to <4 x i32>*
  store <4 x i32> %340, <4 x i32>* %463, align 4, !tbaa !25
  %464 = getelementptr inbounds i32, i32* %432, i64 64
  %465 = bitcast i32* %464 to <4 x i32>*
  store <4 x i32> %338, <4 x i32>* %465, align 4, !tbaa !25
  %466 = getelementptr inbounds i32, i32* %432, i64 68
  %467 = bitcast i32* %466 to <4 x i32>*
  store <4 x i32> %340, <4 x i32>* %467, align 4, !tbaa !25
  %468 = getelementptr inbounds i32, i32* %432, i64 72
  %469 = bitcast i32* %468 to <4 x i32>*
  store <4 x i32> %338, <4 x i32>* %469, align 4, !tbaa !25
  %470 = getelementptr inbounds i32, i32* %432, i64 76
  %471 = bitcast i32* %470 to <4 x i32>*
  store <4 x i32> %340, <4 x i32>* %471, align 4, !tbaa !25
  %472 = getelementptr inbounds i32, i32* %432, i64 80
  %473 = bitcast i32* %472 to <4 x i32>*
  store <4 x i32> %338, <4 x i32>* %473, align 4, !tbaa !25
  %474 = getelementptr inbounds i32, i32* %432, i64 84
  %475 = bitcast i32* %474 to <4 x i32>*
  store <4 x i32> %340, <4 x i32>* %475, align 4, !tbaa !25
  %476 = getelementptr inbounds i32, i32* %432, i64 88
  %477 = bitcast i32* %476 to <4 x i32>*
  store <4 x i32> %338, <4 x i32>* %477, align 4, !tbaa !25
  %478 = getelementptr inbounds i32, i32* %432, i64 92
  %479 = bitcast i32* %478 to <4 x i32>*
  store <4 x i32> %340, <4 x i32>* %479, align 4, !tbaa !25
  %480 = getelementptr inbounds i32, i32* %432, i64 96
  %481 = bitcast i32* %480 to <4 x i32>*
  store <4 x i32> %338, <4 x i32>* %481, align 4, !tbaa !25
  %482 = getelementptr inbounds i32, i32* %432, i64 100
  %483 = bitcast i32* %482 to <4 x i32>*
  store <4 x i32> %340, <4 x i32>* %483, align 4, !tbaa !25
  %484 = getelementptr inbounds i32, i32* %432, i64 104
  %485 = bitcast i32* %484 to <4 x i32>*
  store <4 x i32> %338, <4 x i32>* %485, align 4, !tbaa !25
  %486 = getelementptr inbounds i32, i32* %432, i64 108
  %487 = bitcast i32* %486 to <4 x i32>*
  store <4 x i32> %340, <4 x i32>* %487, align 4, !tbaa !25
  %488 = getelementptr inbounds i32, i32* %432, i64 112
  %489 = bitcast i32* %488 to <4 x i32>*
  store <4 x i32> %338, <4 x i32>* %489, align 4, !tbaa !25
  %490 = getelementptr inbounds i32, i32* %432, i64 116
  %491 = bitcast i32* %490 to <4 x i32>*
  store <4 x i32> %340, <4 x i32>* %491, align 4, !tbaa !25
  %492 = getelementptr inbounds i32, i32* %432, i64 120
  %493 = bitcast i32* %492 to <4 x i32>*
  store <4 x i32> %338, <4 x i32>* %493, align 4, !tbaa !25
  %494 = getelementptr inbounds i32, i32* %432, i64 124
  %495 = bitcast i32* %494 to <4 x i32>*
  store <4 x i32> %340, <4 x i32>* %495, align 4, !tbaa !25
  %496 = getelementptr inbounds i32*, i32** %431, i64 1
  %497 = icmp ult i32** %496, %239
  br i1 %497, label %430, label %341, !llvm.loop !58

498:                                              ; preds = %246
  %499 = getelementptr inbounds i32, i32* %237, i64 %110
  %500 = icmp eq i64 %2, 0
  br i1 %500, label %2270, label %501

501:                                              ; preds = %498
  %502 = shl nsw i64 %2, 2
  %503 = add i64 %502, -4
  %504 = lshr exact i64 %503, 2
  %505 = add nuw nsw i64 %504, 1
  %506 = icmp ult i64 %503, 28
  br i1 %506, label %581, label %507

507:                                              ; preds = %501
  %508 = and i64 %505, 9223372036854775800
  %509 = getelementptr i32, i32* %499, i64 %508
  %510 = insertelement <4 x i32> poison, i32 %81, i32 0
  %511 = shufflevector <4 x i32> %510, <4 x i32> poison, <4 x i32> zeroinitializer
  %512 = insertelement <4 x i32> poison, i32 %81, i32 0
  %513 = shufflevector <4 x i32> %512, <4 x i32> poison, <4 x i32> zeroinitializer
  %514 = add nsw i64 %508, -8
  %515 = lshr exact i64 %514, 3
  %516 = add nuw nsw i64 %515, 1
  %517 = and i64 %516, 7
  %518 = icmp ult i64 %514, 56
  br i1 %518, label %566, label %519

519:                                              ; preds = %507
  %520 = and i64 %516, 4611686018427387896
  br label %521

521:                                              ; preds = %521, %519
  %522 = phi i64 [ 0, %519 ], [ %563, %521 ]
  %523 = phi i64 [ %520, %519 ], [ %564, %521 ]
  %524 = getelementptr i32, i32* %499, i64 %522
  %525 = bitcast i32* %524 to <4 x i32>*
  store <4 x i32> %511, <4 x i32>* %525, align 4, !tbaa !25
  %526 = getelementptr i32, i32* %524, i64 4
  %527 = bitcast i32* %526 to <4 x i32>*
  store <4 x i32> %513, <4 x i32>* %527, align 4, !tbaa !25
  %528 = or i64 %522, 8
  %529 = getelementptr i32, i32* %499, i64 %528
  %530 = bitcast i32* %529 to <4 x i32>*
  store <4 x i32> %511, <4 x i32>* %530, align 4, !tbaa !25
  %531 = getelementptr i32, i32* %529, i64 4
  %532 = bitcast i32* %531 to <4 x i32>*
  store <4 x i32> %513, <4 x i32>* %532, align 4, !tbaa !25
  %533 = or i64 %522, 16
  %534 = getelementptr i32, i32* %499, i64 %533
  %535 = bitcast i32* %534 to <4 x i32>*
  store <4 x i32> %511, <4 x i32>* %535, align 4, !tbaa !25
  %536 = getelementptr i32, i32* %534, i64 4
  %537 = bitcast i32* %536 to <4 x i32>*
  store <4 x i32> %513, <4 x i32>* %537, align 4, !tbaa !25
  %538 = or i64 %522, 24
  %539 = getelementptr i32, i32* %499, i64 %538
  %540 = bitcast i32* %539 to <4 x i32>*
  store <4 x i32> %511, <4 x i32>* %540, align 4, !tbaa !25
  %541 = getelementptr i32, i32* %539, i64 4
  %542 = bitcast i32* %541 to <4 x i32>*
  store <4 x i32> %513, <4 x i32>* %542, align 4, !tbaa !25
  %543 = or i64 %522, 32
  %544 = getelementptr i32, i32* %499, i64 %543
  %545 = bitcast i32* %544 to <4 x i32>*
  store <4 x i32> %511, <4 x i32>* %545, align 4, !tbaa !25
  %546 = getelementptr i32, i32* %544, i64 4
  %547 = bitcast i32* %546 to <4 x i32>*
  store <4 x i32> %513, <4 x i32>* %547, align 4, !tbaa !25
  %548 = or i64 %522, 40
  %549 = getelementptr i32, i32* %499, i64 %548
  %550 = bitcast i32* %549 to <4 x i32>*
  store <4 x i32> %511, <4 x i32>* %550, align 4, !tbaa !25
  %551 = getelementptr i32, i32* %549, i64 4
  %552 = bitcast i32* %551 to <4 x i32>*
  store <4 x i32> %513, <4 x i32>* %552, align 4, !tbaa !25
  %553 = or i64 %522, 48
  %554 = getelementptr i32, i32* %499, i64 %553
  %555 = bitcast i32* %554 to <4 x i32>*
  store <4 x i32> %511, <4 x i32>* %555, align 4, !tbaa !25
  %556 = getelementptr i32, i32* %554, i64 4
  %557 = bitcast i32* %556 to <4 x i32>*
  store <4 x i32> %513, <4 x i32>* %557, align 4, !tbaa !25
  %558 = or i64 %522, 56
  %559 = getelementptr i32, i32* %499, i64 %558
  %560 = bitcast i32* %559 to <4 x i32>*
  store <4 x i32> %511, <4 x i32>* %560, align 4, !tbaa !25
  %561 = getelementptr i32, i32* %559, i64 4
  %562 = bitcast i32* %561 to <4 x i32>*
  store <4 x i32> %513, <4 x i32>* %562, align 4, !tbaa !25
  %563 = add nuw i64 %522, 64
  %564 = add i64 %523, -8
  %565 = icmp eq i64 %564, 0
  br i1 %565, label %566, label %521, !llvm.loop !166

566:                                              ; preds = %521, %507
  %567 = phi i64 [ 0, %507 ], [ %563, %521 ]
  %568 = icmp eq i64 %517, 0
  br i1 %568, label %579, label %569

569:                                              ; preds = %566, %569
  %570 = phi i64 [ %576, %569 ], [ %567, %566 ]
  %571 = phi i64 [ %577, %569 ], [ %517, %566 ]
  %572 = getelementptr i32, i32* %499, i64 %570
  %573 = bitcast i32* %572 to <4 x i32>*
  store <4 x i32> %511, <4 x i32>* %573, align 4, !tbaa !25
  %574 = getelementptr i32, i32* %572, i64 4
  %575 = bitcast i32* %574 to <4 x i32>*
  store <4 x i32> %513, <4 x i32>* %575, align 4, !tbaa !25
  %576 = add nuw i64 %570, 8
  %577 = add i64 %571, -1
  %578 = icmp eq i64 %577, 0
  br i1 %578, label %579, label %569, !llvm.loop !167

579:                                              ; preds = %569, %566
  %580 = icmp eq i64 %505, %508
  br i1 %580, label %2270, label %581

581:                                              ; preds = %501, %579
  %582 = phi i32* [ %499, %501 ], [ %509, %579 ]
  br label %583

583:                                              ; preds = %581, %583
  %584 = phi i32* [ %585, %583 ], [ %582, %581 ]
  store i32 %81, i32* %584, align 4, !tbaa !25
  %585 = getelementptr inbounds i32, i32* %584, i64 1
  %586 = icmp eq i32* %585, %237
  br i1 %586, label %2270, label %583, !llvm.loop !168

587:                                              ; preds = %195
  %588 = landingpad { i8*, i32 }
          catch i8* null
  br label %1312

589:                                              ; preds = %216
  %590 = landingpad { i8*, i32 }
          catch i8* null
  br label %1312

591:                                              ; preds = %158
  %592 = bitcast %"struct.std::_Deque_iterator"* %16 to i8*
  call void @llvm.lifetime.start.p0i8(i64 32, i8* nonnull %592), !noalias !169
  %593 = bitcast %"struct.std::_Deque_iterator"* %13 to i8*
  call void @llvm.lifetime.start.p0i8(i64 32, i8* nonnull %593), !noalias !180
  %594 = bitcast %"struct.std::_Deque_iterator"* %14 to i8*
  call void @llvm.lifetime.start.p0i8(i64 32, i8* nonnull %594), !noalias !180
  %595 = bitcast %"struct.std::_Deque_iterator"* %15 to i8*
  call void @llvm.lifetime.start.p0i8(i64 32, i8* nonnull %595), !noalias !180
  %596 = getelementptr inbounds %"struct.std::_Deque_iterator", %"struct.std::_Deque_iterator"* %13, i64 0, i32 0
  store i32* %165, i32** %596, align 8, !tbaa !10, !noalias !183
  %597 = getelementptr inbounds %"struct.std::_Deque_iterator", %"struct.std::_Deque_iterator"* %13, i64 0, i32 1
  store i32* %167, i32** %597, align 8, !tbaa !11, !noalias !183
  %598 = getelementptr inbounds %"struct.std::_Deque_iterator", %"struct.std::_Deque_iterator"* %13, i64 0, i32 2
  store i32* %169, i32** %598, align 8, !tbaa !12, !noalias !183
  %599 = getelementptr inbounds %"struct.std::_Deque_iterator", %"struct.std::_Deque_iterator"* %13, i64 0, i32 3
  store i32** %170, i32*** %599, align 8, !tbaa !5, !noalias !183
  %600 = getelementptr inbounds %"struct.std::_Deque_iterator", %"struct.std::_Deque_iterator"* %14, i64 0, i32 0
  store i32* %162, i32** %600, align 8, !tbaa !10, !noalias !183
  %601 = getelementptr inbounds %"struct.std::_Deque_iterator", %"struct.std::_Deque_iterator"* %14, i64 0, i32 1
  store i32* %159, i32** %601, align 8, !tbaa !11, !noalias !183
  %602 = getelementptr inbounds %"struct.std::_Deque_iterator", %"struct.std::_Deque_iterator"* %14, i64 0, i32 2
  store i32* %160, i32** %602, align 8, !tbaa !12, !noalias !183
  %603 = getelementptr inbounds %"struct.std::_Deque_iterator", %"struct.std::_Deque_iterator"* %14, i64 0, i32 3
  store i32** %161, i32*** %603, align 8, !tbaa !5, !noalias !183
  %604 = getelementptr inbounds %"struct.std::_Deque_iterator", %"struct.std::_Deque_iterator"* %15, i64 0, i32 0
  store i32* %134, i32** %604, align 8, !tbaa !10, !noalias !183
  %605 = getelementptr inbounds %"struct.std::_Deque_iterator", %"struct.std::_Deque_iterator"* %15, i64 0, i32 1
  store i32* %131, i32** %605, align 8, !tbaa !11, !noalias !183
  %606 = getelementptr inbounds %"struct.std::_Deque_iterator", %"struct.std::_Deque_iterator"* %15, i64 0, i32 2
  store i32* %132, i32** %606, align 8, !tbaa !12, !noalias !183
  %607 = getelementptr inbounds %"struct.std::_Deque_iterator", %"struct.std::_Deque_iterator"* %15, i64 0, i32 3
  store i32** %133, i32*** %607, align 8, !tbaa !5, !noalias !183
  invoke void @_ZSt15__copy_move_ditILb1EiRiPiSt15_Deque_iteratorIiS0_S1_EET3_S2_IT0_T1_T2_ES8_S4_(%"struct.std::_Deque_iterator"* nonnull sret(%"struct.std::_Deque_iterator") align 8 %16, %"struct.std::_Deque_iterator"* nonnull %13, %"struct.std::_Deque_iterator"* nonnull %14, %"struct.std::_Deque_iterator"* nonnull %15)
          to label %608 unwind label %1310

608:                                              ; preds = %591
  call void @llvm.lifetime.end.p0i8(i64 32, i8* nonnull %593), !noalias !180
  call void @llvm.lifetime.end.p0i8(i64 32, i8* nonnull %594), !noalias !180
  call void @llvm.lifetime.end.p0i8(i64 32, i8* nonnull %595), !noalias !180
  %609 = getelementptr inbounds %"struct.std::_Deque_iterator", %"struct.std::_Deque_iterator"* %16, i64 0, i32 0
  %610 = load i32*, i32** %609, align 8, !tbaa !10, !noalias !186
  %611 = ptrtoint i32* %610 to i64
  %612 = getelementptr inbounds %"struct.std::_Deque_iterator", %"struct.std::_Deque_iterator"* %16, i64 0, i32 2
  %613 = load i32*, i32** %612, align 8, !tbaa !12, !noalias !186
  %614 = ptrtoint i32* %613 to i64
  %615 = getelementptr inbounds %"struct.std::_Deque_iterator", %"struct.std::_Deque_iterator"* %16, i64 0, i32 3
  %616 = load i32**, i32*** %615, align 8, !tbaa !5, !noalias !186
  call void @llvm.lifetime.end.p0i8(i64 32, i8* nonnull %592), !noalias !169
  %617 = icmp eq i32** %616, %170
  br i1 %617, label %872, label %618

618:                                              ; preds = %608
  %619 = icmp eq i32* %610, %613
  br i1 %619, label %706, label %620

620:                                              ; preds = %618
  %621 = add i64 %614, -4
  %622 = sub i64 %621, %611
  %623 = lshr i64 %622, 2
  %624 = add nuw nsw i64 %623, 1
  %625 = icmp ult i64 %622, 28
  br i1 %625, label %700, label %626

626:                                              ; preds = %620
  %627 = and i64 %624, 9223372036854775800
  %628 = getelementptr i32, i32* %610, i64 %627
  %629 = insertelement <4 x i32> poison, i32 %81, i32 0
  %630 = shufflevector <4 x i32> %629, <4 x i32> poison, <4 x i32> zeroinitializer
  %631 = insertelement <4 x i32> poison, i32 %81, i32 0
  %632 = shufflevector <4 x i32> %631, <4 x i32> poison, <4 x i32> zeroinitializer
  %633 = add nsw i64 %627, -8
  %634 = lshr exact i64 %633, 3
  %635 = add nuw nsw i64 %634, 1
  %636 = and i64 %635, 7
  %637 = icmp ult i64 %633, 56
  br i1 %637, label %685, label %638

638:                                              ; preds = %626
  %639 = and i64 %635, 4611686018427387896
  br label %640

640:                                              ; preds = %640, %638
  %641 = phi i64 [ 0, %638 ], [ %682, %640 ]
  %642 = phi i64 [ %639, %638 ], [ %683, %640 ]
  %643 = getelementptr i32, i32* %610, i64 %641
  %644 = bitcast i32* %643 to <4 x i32>*
  store <4 x i32> %630, <4 x i32>* %644, align 4, !tbaa !25
  %645 = getelementptr i32, i32* %643, i64 4
  %646 = bitcast i32* %645 to <4 x i32>*
  store <4 x i32> %632, <4 x i32>* %646, align 4, !tbaa !25
  %647 = or i64 %641, 8
  %648 = getelementptr i32, i32* %610, i64 %647
  %649 = bitcast i32* %648 to <4 x i32>*
  store <4 x i32> %630, <4 x i32>* %649, align 4, !tbaa !25
  %650 = getelementptr i32, i32* %648, i64 4
  %651 = bitcast i32* %650 to <4 x i32>*
  store <4 x i32> %632, <4 x i32>* %651, align 4, !tbaa !25
  %652 = or i64 %641, 16
  %653 = getelementptr i32, i32* %610, i64 %652
  %654 = bitcast i32* %653 to <4 x i32>*
  store <4 x i32> %630, <4 x i32>* %654, align 4, !tbaa !25
  %655 = getelementptr i32, i32* %653, i64 4
  %656 = bitcast i32* %655 to <4 x i32>*
  store <4 x i32> %632, <4 x i32>* %656, align 4, !tbaa !25
  %657 = or i64 %641, 24
  %658 = getelementptr i32, i32* %610, i64 %657
  %659 = bitcast i32* %658 to <4 x i32>*
  store <4 x i32> %630, <4 x i32>* %659, align 4, !tbaa !25
  %660 = getelementptr i32, i32* %658, i64 4
  %661 = bitcast i32* %660 to <4 x i32>*
  store <4 x i32> %632, <4 x i32>* %661, align 4, !tbaa !25
  %662 = or i64 %641, 32
  %663 = getelementptr i32, i32* %610, i64 %662
  %664 = bitcast i32* %663 to <4 x i32>*
  store <4 x i32> %630, <4 x i32>* %664, align 4, !tbaa !25
  %665 = getelementptr i32, i32* %663, i64 4
  %666 = bitcast i32* %665 to <4 x i32>*
  store <4 x i32> %632, <4 x i32>* %666, align 4, !tbaa !25
  %667 = or i64 %641, 40
  %668 = getelementptr i32, i32* %610, i64 %667
  %669 = bitcast i32* %668 to <4 x i32>*
  store <4 x i32> %630, <4 x i32>* %669, align 4, !tbaa !25
  %670 = getelementptr i32, i32* %668, i64 4
  %671 = bitcast i32* %670 to <4 x i32>*
  store <4 x i32> %632, <4 x i32>* %671, align 4, !tbaa !25
  %672 = or i64 %641, 48
  %673 = getelementptr i32, i32* %610, i64 %672
  %674 = bitcast i32* %673 to <4 x i32>*
  store <4 x i32> %630, <4 x i32>* %674, align 4, !tbaa !25
  %675 = getelementptr i32, i32* %673, i64 4
  %676 = bitcast i32* %675 to <4 x i32>*
  store <4 x i32> %632, <4 x i32>* %676, align 4, !tbaa !25
  %677 = or i64 %641, 56
  %678 = getelementptr i32, i32* %610, i64 %677
  %679 = bitcast i32* %678 to <4 x i32>*
  store <4 x i32> %630, <4 x i32>* %679, align 4, !tbaa !25
  %680 = getelementptr i32, i32* %678, i64 4
  %681 = bitcast i32* %680 to <4 x i32>*
  store <4 x i32> %632, <4 x i32>* %681, align 4, !tbaa !25
  %682 = add nuw i64 %641, 64
  %683 = add i64 %642, -8
  %684 = icmp eq i64 %683, 0
  br i1 %684, label %685, label %640, !llvm.loop !189

685:                                              ; preds = %640, %626
  %686 = phi i64 [ 0, %626 ], [ %682, %640 ]
  %687 = icmp eq i64 %636, 0
  br i1 %687, label %698, label %688

688:                                              ; preds = %685, %688
  %689 = phi i64 [ %695, %688 ], [ %686, %685 ]
  %690 = phi i64 [ %696, %688 ], [ %636, %685 ]
  %691 = getelementptr i32, i32* %610, i64 %689
  %692 = bitcast i32* %691 to <4 x i32>*
  store <4 x i32> %630, <4 x i32>* %692, align 4, !tbaa !25
  %693 = getelementptr i32, i32* %691, i64 4
  %694 = bitcast i32* %693 to <4 x i32>*
  store <4 x i32> %632, <4 x i32>* %694, align 4, !tbaa !25
  %695 = add nuw i64 %689, 8
  %696 = add i64 %690, -1
  %697 = icmp eq i64 %696, 0
  br i1 %697, label %698, label %688, !llvm.loop !190

698:                                              ; preds = %688, %685
  %699 = icmp eq i64 %624, %627
  br i1 %699, label %706, label %700

700:                                              ; preds = %620, %698
  %701 = phi i32* [ %610, %620 ], [ %628, %698 ]
  br label %702

702:                                              ; preds = %700, %702
  %703 = phi i32* [ %704, %702 ], [ %701, %700 ]
  store i32 %81, i32* %703, align 4, !tbaa !25
  %704 = getelementptr inbounds i32, i32* %703, i64 1
  %705 = icmp eq i32* %704, %613
  br i1 %705, label %706, label %702, !llvm.loop !191

706:                                              ; preds = %702, %698, %618
  %707 = getelementptr inbounds i32*, i32** %616, i64 1
  %708 = icmp ult i32** %707, %170
  br i1 %708, label %709, label %715

709:                                              ; preds = %706
  %710 = load i32, i32* %25, align 4, !tbaa !25
  %711 = insertelement <4 x i32> poison, i32 %710, i32 0
  %712 = shufflevector <4 x i32> %711, <4 x i32> poison, <4 x i32> zeroinitializer
  %713 = insertelement <4 x i32> poison, i32 %710, i32 0
  %714 = shufflevector <4 x i32> %713, <4 x i32> poison, <4 x i32> zeroinitializer
  br label %804

715:                                              ; preds = %804, %706
  %716 = load i32, i32* %25, align 4, !tbaa !25
  %717 = icmp eq i32* %167, %165
  br i1 %717, label %960, label %718

718:                                              ; preds = %715
  %719 = add i64 %166, -4
  %720 = sub i64 %719, %168
  %721 = lshr i64 %720, 2
  %722 = add nuw nsw i64 %721, 1
  %723 = icmp ult i64 %720, 28
  br i1 %723, label %798, label %724

724:                                              ; preds = %718
  %725 = and i64 %722, 9223372036854775800
  %726 = getelementptr i32, i32* %167, i64 %725
  %727 = insertelement <4 x i32> poison, i32 %716, i32 0
  %728 = shufflevector <4 x i32> %727, <4 x i32> poison, <4 x i32> zeroinitializer
  %729 = insertelement <4 x i32> poison, i32 %716, i32 0
  %730 = shufflevector <4 x i32> %729, <4 x i32> poison, <4 x i32> zeroinitializer
  %731 = add nsw i64 %725, -8
  %732 = lshr exact i64 %731, 3
  %733 = add nuw nsw i64 %732, 1
  %734 = and i64 %733, 7
  %735 = icmp ult i64 %731, 56
  br i1 %735, label %783, label %736

736:                                              ; preds = %724
  %737 = and i64 %733, 4611686018427387896
  br label %738

738:                                              ; preds = %738, %736
  %739 = phi i64 [ 0, %736 ], [ %780, %738 ]
  %740 = phi i64 [ %737, %736 ], [ %781, %738 ]
  %741 = getelementptr i32, i32* %167, i64 %739
  %742 = bitcast i32* %741 to <4 x i32>*
  store <4 x i32> %728, <4 x i32>* %742, align 4, !tbaa !25
  %743 = getelementptr i32, i32* %741, i64 4
  %744 = bitcast i32* %743 to <4 x i32>*
  store <4 x i32> %730, <4 x i32>* %744, align 4, !tbaa !25
  %745 = or i64 %739, 8
  %746 = getelementptr i32, i32* %167, i64 %745
  %747 = bitcast i32* %746 to <4 x i32>*
  store <4 x i32> %728, <4 x i32>* %747, align 4, !tbaa !25
  %748 = getelementptr i32, i32* %746, i64 4
  %749 = bitcast i32* %748 to <4 x i32>*
  store <4 x i32> %730, <4 x i32>* %749, align 4, !tbaa !25
  %750 = or i64 %739, 16
  %751 = getelementptr i32, i32* %167, i64 %750
  %752 = bitcast i32* %751 to <4 x i32>*
  store <4 x i32> %728, <4 x i32>* %752, align 4, !tbaa !25
  %753 = getelementptr i32, i32* %751, i64 4
  %754 = bitcast i32* %753 to <4 x i32>*
  store <4 x i32> %730, <4 x i32>* %754, align 4, !tbaa !25
  %755 = or i64 %739, 24
  %756 = getelementptr i32, i32* %167, i64 %755
  %757 = bitcast i32* %756 to <4 x i32>*
  store <4 x i32> %728, <4 x i32>* %757, align 4, !tbaa !25
  %758 = getelementptr i32, i32* %756, i64 4
  %759 = bitcast i32* %758 to <4 x i32>*
  store <4 x i32> %730, <4 x i32>* %759, align 4, !tbaa !25
  %760 = or i64 %739, 32
  %761 = getelementptr i32, i32* %167, i64 %760
  %762 = bitcast i32* %761 to <4 x i32>*
  store <4 x i32> %728, <4 x i32>* %762, align 4, !tbaa !25
  %763 = getelementptr i32, i32* %761, i64 4
  %764 = bitcast i32* %763 to <4 x i32>*
  store <4 x i32> %730, <4 x i32>* %764, align 4, !tbaa !25
  %765 = or i64 %739, 40
  %766 = getelementptr i32, i32* %167, i64 %765
  %767 = bitcast i32* %766 to <4 x i32>*
  store <4 x i32> %728, <4 x i32>* %767, align 4, !tbaa !25
  %768 = getelementptr i32, i32* %766, i64 4
  %769 = bitcast i32* %768 to <4 x i32>*
  store <4 x i32> %730, <4 x i32>* %769, align 4, !tbaa !25
  %770 = or i64 %739, 48
  %771 = getelementptr i32, i32* %167, i64 %770
  %772 = bitcast i32* %771 to <4 x i32>*
  store <4 x i32> %728, <4 x i32>* %772, align 4, !tbaa !25
  %773 = getelementptr i32, i32* %771, i64 4
  %774 = bitcast i32* %773 to <4 x i32>*
  store <4 x i32> %730, <4 x i32>* %774, align 4, !tbaa !25
  %775 = or i64 %739, 56
  %776 = getelementptr i32, i32* %167, i64 %775
  %777 = bitcast i32* %776 to <4 x i32>*
  store <4 x i32> %728, <4 x i32>* %777, align 4, !tbaa !25
  %778 = getelementptr i32, i32* %776, i64 4
  %779 = bitcast i32* %778 to <4 x i32>*
  store <4 x i32> %730, <4 x i32>* %779, align 4, !tbaa !25
  %780 = add nuw i64 %739, 64
  %781 = add i64 %740, -8
  %782 = icmp eq i64 %781, 0
  br i1 %782, label %783, label %738, !llvm.loop !192

783:                                              ; preds = %738, %724
  %784 = phi i64 [ 0, %724 ], [ %780, %738 ]
  %785 = icmp eq i64 %734, 0
  br i1 %785, label %796, label %786

786:                                              ; preds = %783, %786
  %787 = phi i64 [ %793, %786 ], [ %784, %783 ]
  %788 = phi i64 [ %794, %786 ], [ %734, %783 ]
  %789 = getelementptr i32, i32* %167, i64 %787
  %790 = bitcast i32* %789 to <4 x i32>*
  store <4 x i32> %728, <4 x i32>* %790, align 4, !tbaa !25
  %791 = getelementptr i32, i32* %789, i64 4
  %792 = bitcast i32* %791 to <4 x i32>*
  store <4 x i32> %730, <4 x i32>* %792, align 4, !tbaa !25
  %793 = add nuw i64 %787, 8
  %794 = add i64 %788, -1
  %795 = icmp eq i64 %794, 0
  br i1 %795, label %796, label %786, !llvm.loop !193

796:                                              ; preds = %786, %783
  %797 = icmp eq i64 %722, %725
  br i1 %797, label %960, label %798

798:                                              ; preds = %718, %796
  %799 = phi i32* [ %167, %718 ], [ %726, %796 ]
  br label %800

800:                                              ; preds = %798, %800
  %801 = phi i32* [ %802, %800 ], [ %799, %798 ]
  store i32 %716, i32* %801, align 4, !tbaa !25
  %802 = getelementptr inbounds i32, i32* %801, i64 1
  %803 = icmp eq i32* %802, %165
  br i1 %803, label %960, label %800, !llvm.loop !194

804:                                              ; preds = %709, %804
  %805 = phi i32** [ %870, %804 ], [ %707, %709 ]
  %806 = load i32*, i32** %805, align 8, !tbaa !24
  %807 = bitcast i32* %806 to <4 x i32>*
  store <4 x i32> %712, <4 x i32>* %807, align 4, !tbaa !25
  %808 = getelementptr inbounds i32, i32* %806, i64 4
  %809 = bitcast i32* %808 to <4 x i32>*
  store <4 x i32> %714, <4 x i32>* %809, align 4, !tbaa !25
  %810 = getelementptr inbounds i32, i32* %806, i64 8
  %811 = bitcast i32* %810 to <4 x i32>*
  store <4 x i32> %712, <4 x i32>* %811, align 4, !tbaa !25
  %812 = getelementptr inbounds i32, i32* %806, i64 12
  %813 = bitcast i32* %812 to <4 x i32>*
  store <4 x i32> %714, <4 x i32>* %813, align 4, !tbaa !25
  %814 = getelementptr inbounds i32, i32* %806, i64 16
  %815 = bitcast i32* %814 to <4 x i32>*
  store <4 x i32> %712, <4 x i32>* %815, align 4, !tbaa !25
  %816 = getelementptr inbounds i32, i32* %806, i64 20
  %817 = bitcast i32* %816 to <4 x i32>*
  store <4 x i32> %714, <4 x i32>* %817, align 4, !tbaa !25
  %818 = getelementptr inbounds i32, i32* %806, i64 24
  %819 = bitcast i32* %818 to <4 x i32>*
  store <4 x i32> %712, <4 x i32>* %819, align 4, !tbaa !25
  %820 = getelementptr inbounds i32, i32* %806, i64 28
  %821 = bitcast i32* %820 to <4 x i32>*
  store <4 x i32> %714, <4 x i32>* %821, align 4, !tbaa !25
  %822 = getelementptr inbounds i32, i32* %806, i64 32
  %823 = bitcast i32* %822 to <4 x i32>*
  store <4 x i32> %712, <4 x i32>* %823, align 4, !tbaa !25
  %824 = getelementptr inbounds i32, i32* %806, i64 36
  %825 = bitcast i32* %824 to <4 x i32>*
  store <4 x i32> %714, <4 x i32>* %825, align 4, !tbaa !25
  %826 = getelementptr inbounds i32, i32* %806, i64 40
  %827 = bitcast i32* %826 to <4 x i32>*
  store <4 x i32> %712, <4 x i32>* %827, align 4, !tbaa !25
  %828 = getelementptr inbounds i32, i32* %806, i64 44
  %829 = bitcast i32* %828 to <4 x i32>*
  store <4 x i32> %714, <4 x i32>* %829, align 4, !tbaa !25
  %830 = getelementptr inbounds i32, i32* %806, i64 48
  %831 = bitcast i32* %830 to <4 x i32>*
  store <4 x i32> %712, <4 x i32>* %831, align 4, !tbaa !25
  %832 = getelementptr inbounds i32, i32* %806, i64 52
  %833 = bitcast i32* %832 to <4 x i32>*
  store <4 x i32> %714, <4 x i32>* %833, align 4, !tbaa !25
  %834 = getelementptr inbounds i32, i32* %806, i64 56
  %835 = bitcast i32* %834 to <4 x i32>*
  store <4 x i32> %712, <4 x i32>* %835, align 4, !tbaa !25
  %836 = getelementptr inbounds i32, i32* %806, i64 60
  %837 = bitcast i32* %836 to <4 x i32>*
  store <4 x i32> %714, <4 x i32>* %837, align 4, !tbaa !25
  %838 = getelementptr inbounds i32, i32* %806, i64 64
  %839 = bitcast i32* %838 to <4 x i32>*
  store <4 x i32> %712, <4 x i32>* %839, align 4, !tbaa !25
  %840 = getelementptr inbounds i32, i32* %806, i64 68
  %841 = bitcast i32* %840 to <4 x i32>*
  store <4 x i32> %714, <4 x i32>* %841, align 4, !tbaa !25
  %842 = getelementptr inbounds i32, i32* %806, i64 72
  %843 = bitcast i32* %842 to <4 x i32>*
  store <4 x i32> %712, <4 x i32>* %843, align 4, !tbaa !25
  %844 = getelementptr inbounds i32, i32* %806, i64 76
  %845 = bitcast i32* %844 to <4 x i32>*
  store <4 x i32> %714, <4 x i32>* %845, align 4, !tbaa !25
  %846 = getelementptr inbounds i32, i32* %806, i64 80
  %847 = bitcast i32* %846 to <4 x i32>*
  store <4 x i32> %712, <4 x i32>* %847, align 4, !tbaa !25
  %848 = getelementptr inbounds i32, i32* %806, i64 84
  %849 = bitcast i32* %848 to <4 x i32>*
  store <4 x i32> %714, <4 x i32>* %849, align 4, !tbaa !25
  %850 = getelementptr inbounds i32, i32* %806, i64 88
  %851 = bitcast i32* %850 to <4 x i32>*
  store <4 x i32> %712, <4 x i32>* %851, align 4, !tbaa !25
  %852 = getelementptr inbounds i32, i32* %806, i64 92
  %853 = bitcast i32* %852 to <4 x i32>*
  store <4 x i32> %714, <4 x i32>* %853, align 4, !tbaa !25
  %854 = getelementptr inbounds i32, i32* %806, i64 96
  %855 = bitcast i32* %854 to <4 x i32>*
  store <4 x i32> %712, <4 x i32>* %855, align 4, !tbaa !25
  %856 = getelementptr inbounds i32, i32* %806, i64 100
  %857 = bitcast i32* %856 to <4 x i32>*
  store <4 x i32> %714, <4 x i32>* %857, align 4, !tbaa !25
  %858 = getelementptr inbounds i32, i32* %806, i64 104
  %859 = bitcast i32* %858 to <4 x i32>*
  store <4 x i32> %712, <4 x i32>* %859, align 4, !tbaa !25
  %860 = getelementptr inbounds i32, i32* %806, i64 108
  %861 = bitcast i32* %860 to <4 x i32>*
  store <4 x i32> %714, <4 x i32>* %861, align 4, !tbaa !25
  %862 = getelementptr inbounds i32, i32* %806, i64 112
  %863 = bitcast i32* %862 to <4 x i32>*
  store <4 x i32> %712, <4 x i32>* %863, align 4, !tbaa !25
  %864 = getelementptr inbounds i32, i32* %806, i64 116
  %865 = bitcast i32* %864 to <4 x i32>*
  store <4 x i32> %714, <4 x i32>* %865, align 4, !tbaa !25
  %866 = getelementptr inbounds i32, i32* %806, i64 120
  %867 = bitcast i32* %866 to <4 x i32>*
  store <4 x i32> %712, <4 x i32>* %867, align 4, !tbaa !25
  %868 = getelementptr inbounds i32, i32* %806, i64 124
  %869 = bitcast i32* %868 to <4 x i32>*
  store <4 x i32> %714, <4 x i32>* %869, align 4, !tbaa !25
  %870 = getelementptr inbounds i32*, i32** %805, i64 1
  %871 = icmp ult i32** %870, %170
  br i1 %871, label %804, label %715, !llvm.loop !58

872:                                              ; preds = %608
  %873 = icmp eq i32* %610, %165
  br i1 %873, label %960, label %874

874:                                              ; preds = %872
  %875 = add i64 %166, -4
  %876 = sub i64 %875, %611
  %877 = lshr i64 %876, 2
  %878 = add nuw nsw i64 %877, 1
  %879 = icmp ult i64 %876, 28
  br i1 %879, label %954, label %880

880:                                              ; preds = %874
  %881 = and i64 %878, 9223372036854775800
  %882 = getelementptr i32, i32* %610, i64 %881
  %883 = insertelement <4 x i32> poison, i32 %81, i32 0
  %884 = shufflevector <4 x i32> %883, <4 x i32> poison, <4 x i32> zeroinitializer
  %885 = insertelement <4 x i32> poison, i32 %81, i32 0
  %886 = shufflevector <4 x i32> %885, <4 x i32> poison, <4 x i32> zeroinitializer
  %887 = add nsw i64 %881, -8
  %888 = lshr exact i64 %887, 3
  %889 = add nuw nsw i64 %888, 1
  %890 = and i64 %889, 7
  %891 = icmp ult i64 %887, 56
  br i1 %891, label %939, label %892

892:                                              ; preds = %880
  %893 = and i64 %889, 4611686018427387896
  br label %894

894:                                              ; preds = %894, %892
  %895 = phi i64 [ 0, %892 ], [ %936, %894 ]
  %896 = phi i64 [ %893, %892 ], [ %937, %894 ]
  %897 = getelementptr i32, i32* %610, i64 %895
  %898 = bitcast i32* %897 to <4 x i32>*
  store <4 x i32> %884, <4 x i32>* %898, align 4, !tbaa !25
  %899 = getelementptr i32, i32* %897, i64 4
  %900 = bitcast i32* %899 to <4 x i32>*
  store <4 x i32> %886, <4 x i32>* %900, align 4, !tbaa !25
  %901 = or i64 %895, 8
  %902 = getelementptr i32, i32* %610, i64 %901
  %903 = bitcast i32* %902 to <4 x i32>*
  store <4 x i32> %884, <4 x i32>* %903, align 4, !tbaa !25
  %904 = getelementptr i32, i32* %902, i64 4
  %905 = bitcast i32* %904 to <4 x i32>*
  store <4 x i32> %886, <4 x i32>* %905, align 4, !tbaa !25
  %906 = or i64 %895, 16
  %907 = getelementptr i32, i32* %610, i64 %906
  %908 = bitcast i32* %907 to <4 x i32>*
  store <4 x i32> %884, <4 x i32>* %908, align 4, !tbaa !25
  %909 = getelementptr i32, i32* %907, i64 4
  %910 = bitcast i32* %909 to <4 x i32>*
  store <4 x i32> %886, <4 x i32>* %910, align 4, !tbaa !25
  %911 = or i64 %895, 24
  %912 = getelementptr i32, i32* %610, i64 %911
  %913 = bitcast i32* %912 to <4 x i32>*
  store <4 x i32> %884, <4 x i32>* %913, align 4, !tbaa !25
  %914 = getelementptr i32, i32* %912, i64 4
  %915 = bitcast i32* %914 to <4 x i32>*
  store <4 x i32> %886, <4 x i32>* %915, align 4, !tbaa !25
  %916 = or i64 %895, 32
  %917 = getelementptr i32, i32* %610, i64 %916
  %918 = bitcast i32* %917 to <4 x i32>*
  store <4 x i32> %884, <4 x i32>* %918, align 4, !tbaa !25
  %919 = getelementptr i32, i32* %917, i64 4
  %920 = bitcast i32* %919 to <4 x i32>*
  store <4 x i32> %886, <4 x i32>* %920, align 4, !tbaa !25
  %921 = or i64 %895, 40
  %922 = getelementptr i32, i32* %610, i64 %921
  %923 = bitcast i32* %922 to <4 x i32>*
  store <4 x i32> %884, <4 x i32>* %923, align 4, !tbaa !25
  %924 = getelementptr i32, i32* %922, i64 4
  %925 = bitcast i32* %924 to <4 x i32>*
  store <4 x i32> %886, <4 x i32>* %925, align 4, !tbaa !25
  %926 = or i64 %895, 48
  %927 = getelementptr i32, i32* %610, i64 %926
  %928 = bitcast i32* %927 to <4 x i32>*
  store <4 x i32> %884, <4 x i32>* %928, align 4, !tbaa !25
  %929 = getelementptr i32, i32* %927, i64 4
  %930 = bitcast i32* %929 to <4 x i32>*
  store <4 x i32> %886, <4 x i32>* %930, align 4, !tbaa !25
  %931 = or i64 %895, 56
  %932 = getelementptr i32, i32* %610, i64 %931
  %933 = bitcast i32* %932 to <4 x i32>*
  store <4 x i32> %884, <4 x i32>* %933, align 4, !tbaa !25
  %934 = getelementptr i32, i32* %932, i64 4
  %935 = bitcast i32* %934 to <4 x i32>*
  store <4 x i32> %886, <4 x i32>* %935, align 4, !tbaa !25
  %936 = add nuw i64 %895, 64
  %937 = add i64 %896, -8
  %938 = icmp eq i64 %937, 0
  br i1 %938, label %939, label %894, !llvm.loop !195

939:                                              ; preds = %894, %880
  %940 = phi i64 [ 0, %880 ], [ %936, %894 ]
  %941 = icmp eq i64 %890, 0
  br i1 %941, label %952, label %942

942:                                              ; preds = %939, %942
  %943 = phi i64 [ %949, %942 ], [ %940, %939 ]
  %944 = phi i64 [ %950, %942 ], [ %890, %939 ]
  %945 = getelementptr i32, i32* %610, i64 %943
  %946 = bitcast i32* %945 to <4 x i32>*
  store <4 x i32> %884, <4 x i32>* %946, align 4, !tbaa !25
  %947 = getelementptr i32, i32* %945, i64 4
  %948 = bitcast i32* %947 to <4 x i32>*
  store <4 x i32> %886, <4 x i32>* %948, align 4, !tbaa !25
  %949 = add nuw i64 %943, 8
  %950 = add i64 %944, -1
  %951 = icmp eq i64 %950, 0
  br i1 %951, label %952, label %942, !llvm.loop !196

952:                                              ; preds = %942, %939
  %953 = icmp eq i64 %878, %881
  br i1 %953, label %960, label %954

954:                                              ; preds = %874, %952
  %955 = phi i32* [ %610, %874 ], [ %882, %952 ]
  br label %956

956:                                              ; preds = %954, %956
  %957 = phi i32* [ %958, %956 ], [ %955, %954 ]
  store i32 %81, i32* %957, align 4, !tbaa !25
  %958 = getelementptr inbounds i32, i32* %957, i64 1
  %959 = icmp eq i32* %958, %165
  br i1 %959, label %960, label %956, !llvm.loop !197

960:                                              ; preds = %800, %956, %796, %952, %872, %715
  store i32* %134, i32** %54, align 8, !tbaa.struct !74
  store i32* %131, i32** %85, align 8, !tbaa.struct !75
  store i32* %132, i32** %52, align 8, !tbaa.struct !76
  store i32** %133, i32*** %33, align 8, !tbaa.struct !77
  %961 = load i32*, i32** %43, align 8, !tbaa !10
  %962 = ptrtoint i32* %961 to i64
  %963 = load i32*, i32** %45, align 8, !tbaa !11
  %964 = ptrtoint i32* %963 to i64
  %965 = load i32**, i32*** %31, align 8, !tbaa !5
  %966 = icmp eq i32** %102, %965
  %967 = load i32, i32* %25, align 4, !tbaa !25
  br i1 %966, label %1222, label %968

968:                                              ; preds = %960
  %969 = icmp eq i32* %106, %103
  br i1 %969, label %1056, label %970

970:                                              ; preds = %968
  %971 = add i64 %108, -4
  %972 = sub i64 %971, %109
  %973 = lshr i64 %972, 2
  %974 = add nuw nsw i64 %973, 1
  %975 = icmp ult i64 %972, 28
  br i1 %975, label %1050, label %976

976:                                              ; preds = %970
  %977 = and i64 %974, 9223372036854775800
  %978 = getelementptr i32, i32* %106, i64 %977
  %979 = insertelement <4 x i32> poison, i32 %967, i32 0
  %980 = shufflevector <4 x i32> %979, <4 x i32> poison, <4 x i32> zeroinitializer
  %981 = insertelement <4 x i32> poison, i32 %967, i32 0
  %982 = shufflevector <4 x i32> %981, <4 x i32> poison, <4 x i32> zeroinitializer
  %983 = add nsw i64 %977, -8
  %984 = lshr exact i64 %983, 3
  %985 = add nuw nsw i64 %984, 1
  %986 = and i64 %985, 7
  %987 = icmp ult i64 %983, 56
  br i1 %987, label %1035, label %988

988:                                              ; preds = %976
  %989 = and i64 %985, 4611686018427387896
  br label %990

990:                                              ; preds = %990, %988
  %991 = phi i64 [ 0, %988 ], [ %1032, %990 ]
  %992 = phi i64 [ %989, %988 ], [ %1033, %990 ]
  %993 = getelementptr i32, i32* %106, i64 %991
  %994 = bitcast i32* %993 to <4 x i32>*
  store <4 x i32> %980, <4 x i32>* %994, align 4, !tbaa !25
  %995 = getelementptr i32, i32* %993, i64 4
  %996 = bitcast i32* %995 to <4 x i32>*
  store <4 x i32> %982, <4 x i32>* %996, align 4, !tbaa !25
  %997 = or i64 %991, 8
  %998 = getelementptr i32, i32* %106, i64 %997
  %999 = bitcast i32* %998 to <4 x i32>*
  store <4 x i32> %980, <4 x i32>* %999, align 4, !tbaa !25
  %1000 = getelementptr i32, i32* %998, i64 4
  %1001 = bitcast i32* %1000 to <4 x i32>*
  store <4 x i32> %982, <4 x i32>* %1001, align 4, !tbaa !25
  %1002 = or i64 %991, 16
  %1003 = getelementptr i32, i32* %106, i64 %1002
  %1004 = bitcast i32* %1003 to <4 x i32>*
  store <4 x i32> %980, <4 x i32>* %1004, align 4, !tbaa !25
  %1005 = getelementptr i32, i32* %1003, i64 4
  %1006 = bitcast i32* %1005 to <4 x i32>*
  store <4 x i32> %982, <4 x i32>* %1006, align 4, !tbaa !25
  %1007 = or i64 %991, 24
  %1008 = getelementptr i32, i32* %106, i64 %1007
  %1009 = bitcast i32* %1008 to <4 x i32>*
  store <4 x i32> %980, <4 x i32>* %1009, align 4, !tbaa !25
  %1010 = getelementptr i32, i32* %1008, i64 4
  %1011 = bitcast i32* %1010 to <4 x i32>*
  store <4 x i32> %982, <4 x i32>* %1011, align 4, !tbaa !25
  %1012 = or i64 %991, 32
  %1013 = getelementptr i32, i32* %106, i64 %1012
  %1014 = bitcast i32* %1013 to <4 x i32>*
  store <4 x i32> %980, <4 x i32>* %1014, align 4, !tbaa !25
  %1015 = getelementptr i32, i32* %1013, i64 4
  %1016 = bitcast i32* %1015 to <4 x i32>*
  store <4 x i32> %982, <4 x i32>* %1016, align 4, !tbaa !25
  %1017 = or i64 %991, 40
  %1018 = getelementptr i32, i32* %106, i64 %1017
  %1019 = bitcast i32* %1018 to <4 x i32>*
  store <4 x i32> %980, <4 x i32>* %1019, align 4, !tbaa !25
  %1020 = getelementptr i32, i32* %1018, i64 4
  %1021 = bitcast i32* %1020 to <4 x i32>*
  store <4 x i32> %982, <4 x i32>* %1021, align 4, !tbaa !25
  %1022 = or i64 %991, 48
  %1023 = getelementptr i32, i32* %106, i64 %1022
  %1024 = bitcast i32* %1023 to <4 x i32>*
  store <4 x i32> %980, <4 x i32>* %1024, align 4, !tbaa !25
  %1025 = getelementptr i32, i32* %1023, i64 4
  %1026 = bitcast i32* %1025 to <4 x i32>*
  store <4 x i32> %982, <4 x i32>* %1026, align 4, !tbaa !25
  %1027 = or i64 %991, 56
  %1028 = getelementptr i32, i32* %106, i64 %1027
  %1029 = bitcast i32* %1028 to <4 x i32>*
  store <4 x i32> %980, <4 x i32>* %1029, align 4, !tbaa !25
  %1030 = getelementptr i32, i32* %1028, i64 4
  %1031 = bitcast i32* %1030 to <4 x i32>*
  store <4 x i32> %982, <4 x i32>* %1031, align 4, !tbaa !25
  %1032 = add nuw i64 %991, 64
  %1033 = add i64 %992, -8
  %1034 = icmp eq i64 %1033, 0
  br i1 %1034, label %1035, label %990, !llvm.loop !198

1035:                                             ; preds = %990, %976
  %1036 = phi i64 [ 0, %976 ], [ %1032, %990 ]
  %1037 = icmp eq i64 %986, 0
  br i1 %1037, label %1048, label %1038

1038:                                             ; preds = %1035, %1038
  %1039 = phi i64 [ %1045, %1038 ], [ %1036, %1035 ]
  %1040 = phi i64 [ %1046, %1038 ], [ %986, %1035 ]
  %1041 = getelementptr i32, i32* %106, i64 %1039
  %1042 = bitcast i32* %1041 to <4 x i32>*
  store <4 x i32> %980, <4 x i32>* %1042, align 4, !tbaa !25
  %1043 = getelementptr i32, i32* %1041, i64 4
  %1044 = bitcast i32* %1043 to <4 x i32>*
  store <4 x i32> %982, <4 x i32>* %1044, align 4, !tbaa !25
  %1045 = add nuw i64 %1039, 8
  %1046 = add i64 %1040, -1
  %1047 = icmp eq i64 %1046, 0
  br i1 %1047, label %1048, label %1038, !llvm.loop !199

1048:                                             ; preds = %1038, %1035
  %1049 = icmp eq i64 %974, %977
  br i1 %1049, label %1056, label %1050

1050:                                             ; preds = %970, %1048
  %1051 = phi i32* [ %106, %970 ], [ %978, %1048 ]
  br label %1052

1052:                                             ; preds = %1050, %1052
  %1053 = phi i32* [ %1054, %1052 ], [ %1051, %1050 ]
  store i32 %967, i32* %1053, align 4, !tbaa !25
  %1054 = getelementptr inbounds i32, i32* %1053, i64 1
  %1055 = icmp eq i32* %1054, %103
  br i1 %1055, label %1056, label %1052, !llvm.loop !200

1056:                                             ; preds = %1052, %1048, %968
  %1057 = getelementptr inbounds i32*, i32** %102, i64 1
  %1058 = icmp ult i32** %1057, %965
  br i1 %1058, label %1059, label %1065

1059:                                             ; preds = %1056
  %1060 = load i32, i32* %25, align 4, !tbaa !25
  %1061 = insertelement <4 x i32> poison, i32 %1060, i32 0
  %1062 = shufflevector <4 x i32> %1061, <4 x i32> poison, <4 x i32> zeroinitializer
  %1063 = insertelement <4 x i32> poison, i32 %1060, i32 0
  %1064 = shufflevector <4 x i32> %1063, <4 x i32> poison, <4 x i32> zeroinitializer
  br label %1154

1065:                                             ; preds = %1154, %1056
  %1066 = load i32, i32* %25, align 4, !tbaa !25
  %1067 = icmp eq i32* %963, %961
  br i1 %1067, label %2270, label %1068

1068:                                             ; preds = %1065
  %1069 = add i64 %962, -4
  %1070 = sub i64 %1069, %964
  %1071 = lshr i64 %1070, 2
  %1072 = add nuw nsw i64 %1071, 1
  %1073 = icmp ult i64 %1070, 28
  br i1 %1073, label %1148, label %1074

1074:                                             ; preds = %1068
  %1075 = and i64 %1072, 9223372036854775800
  %1076 = getelementptr i32, i32* %963, i64 %1075
  %1077 = insertelement <4 x i32> poison, i32 %1066, i32 0
  %1078 = shufflevector <4 x i32> %1077, <4 x i32> poison, <4 x i32> zeroinitializer
  %1079 = insertelement <4 x i32> poison, i32 %1066, i32 0
  %1080 = shufflevector <4 x i32> %1079, <4 x i32> poison, <4 x i32> zeroinitializer
  %1081 = add nsw i64 %1075, -8
  %1082 = lshr exact i64 %1081, 3
  %1083 = add nuw nsw i64 %1082, 1
  %1084 = and i64 %1083, 7
  %1085 = icmp ult i64 %1081, 56
  br i1 %1085, label %1133, label %1086

1086:                                             ; preds = %1074
  %1087 = and i64 %1083, 4611686018427387896
  br label %1088

1088:                                             ; preds = %1088, %1086
  %1089 = phi i64 [ 0, %1086 ], [ %1130, %1088 ]
  %1090 = phi i64 [ %1087, %1086 ], [ %1131, %1088 ]
  %1091 = getelementptr i32, i32* %963, i64 %1089
  %1092 = bitcast i32* %1091 to <4 x i32>*
  store <4 x i32> %1078, <4 x i32>* %1092, align 4, !tbaa !25
  %1093 = getelementptr i32, i32* %1091, i64 4
  %1094 = bitcast i32* %1093 to <4 x i32>*
  store <4 x i32> %1080, <4 x i32>* %1094, align 4, !tbaa !25
  %1095 = or i64 %1089, 8
  %1096 = getelementptr i32, i32* %963, i64 %1095
  %1097 = bitcast i32* %1096 to <4 x i32>*
  store <4 x i32> %1078, <4 x i32>* %1097, align 4, !tbaa !25
  %1098 = getelementptr i32, i32* %1096, i64 4
  %1099 = bitcast i32* %1098 to <4 x i32>*
  store <4 x i32> %1080, <4 x i32>* %1099, align 4, !tbaa !25
  %1100 = or i64 %1089, 16
  %1101 = getelementptr i32, i32* %963, i64 %1100
  %1102 = bitcast i32* %1101 to <4 x i32>*
  store <4 x i32> %1078, <4 x i32>* %1102, align 4, !tbaa !25
  %1103 = getelementptr i32, i32* %1101, i64 4
  %1104 = bitcast i32* %1103 to <4 x i32>*
  store <4 x i32> %1080, <4 x i32>* %1104, align 4, !tbaa !25
  %1105 = or i64 %1089, 24
  %1106 = getelementptr i32, i32* %963, i64 %1105
  %1107 = bitcast i32* %1106 to <4 x i32>*
  store <4 x i32> %1078, <4 x i32>* %1107, align 4, !tbaa !25
  %1108 = getelementptr i32, i32* %1106, i64 4
  %1109 = bitcast i32* %1108 to <4 x i32>*
  store <4 x i32> %1080, <4 x i32>* %1109, align 4, !tbaa !25
  %1110 = or i64 %1089, 32
  %1111 = getelementptr i32, i32* %963, i64 %1110
  %1112 = bitcast i32* %1111 to <4 x i32>*
  store <4 x i32> %1078, <4 x i32>* %1112, align 4, !tbaa !25
  %1113 = getelementptr i32, i32* %1111, i64 4
  %1114 = bitcast i32* %1113 to <4 x i32>*
  store <4 x i32> %1080, <4 x i32>* %1114, align 4, !tbaa !25
  %1115 = or i64 %1089, 40
  %1116 = getelementptr i32, i32* %963, i64 %1115
  %1117 = bitcast i32* %1116 to <4 x i32>*
  store <4 x i32> %1078, <4 x i32>* %1117, align 4, !tbaa !25
  %1118 = getelementptr i32, i32* %1116, i64 4
  %1119 = bitcast i32* %1118 to <4 x i32>*
  store <4 x i32> %1080, <4 x i32>* %1119, align 4, !tbaa !25
  %1120 = or i64 %1089, 48
  %1121 = getelementptr i32, i32* %963, i64 %1120
  %1122 = bitcast i32* %1121 to <4 x i32>*
  store <4 x i32> %1078, <4 x i32>* %1122, align 4, !tbaa !25
  %1123 = getelementptr i32, i32* %1121, i64 4
  %1124 = bitcast i32* %1123 to <4 x i32>*
  store <4 x i32> %1080, <4 x i32>* %1124, align 4, !tbaa !25
  %1125 = or i64 %1089, 56
  %1126 = getelementptr i32, i32* %963, i64 %1125
  %1127 = bitcast i32* %1126 to <4 x i32>*
  store <4 x i32> %1078, <4 x i32>* %1127, align 4, !tbaa !25
  %1128 = getelementptr i32, i32* %1126, i64 4
  %1129 = bitcast i32* %1128 to <4 x i32>*
  store <4 x i32> %1080, <4 x i32>* %1129, align 4, !tbaa !25
  %1130 = add nuw i64 %1089, 64
  %1131 = add i64 %1090, -8
  %1132 = icmp eq i64 %1131, 0
  br i1 %1132, label %1133, label %1088, !llvm.loop !201

1133:                                             ; preds = %1088, %1074
  %1134 = phi i64 [ 0, %1074 ], [ %1130, %1088 ]
  %1135 = icmp eq i64 %1084, 0
  br i1 %1135, label %1146, label %1136

1136:                                             ; preds = %1133, %1136
  %1137 = phi i64 [ %1143, %1136 ], [ %1134, %1133 ]
  %1138 = phi i64 [ %1144, %1136 ], [ %1084, %1133 ]
  %1139 = getelementptr i32, i32* %963, i64 %1137
  %1140 = bitcast i32* %1139 to <4 x i32>*
  store <4 x i32> %1078, <4 x i32>* %1140, align 4, !tbaa !25
  %1141 = getelementptr i32, i32* %1139, i64 4
  %1142 = bitcast i32* %1141 to <4 x i32>*
  store <4 x i32> %1080, <4 x i32>* %1142, align 4, !tbaa !25
  %1143 = add nuw i64 %1137, 8
  %1144 = add i64 %1138, -1
  %1145 = icmp eq i64 %1144, 0
  br i1 %1145, label %1146, label %1136, !llvm.loop !202

1146:                                             ; preds = %1136, %1133
  %1147 = icmp eq i64 %1072, %1075
  br i1 %1147, label %2270, label %1148

1148:                                             ; preds = %1068, %1146
  %1149 = phi i32* [ %963, %1068 ], [ %1076, %1146 ]
  br label %1150

1150:                                             ; preds = %1148, %1150
  %1151 = phi i32* [ %1152, %1150 ], [ %1149, %1148 ]
  store i32 %1066, i32* %1151, align 4, !tbaa !25
  %1152 = getelementptr inbounds i32, i32* %1151, i64 1
  %1153 = icmp eq i32* %1152, %961
  br i1 %1153, label %2270, label %1150, !llvm.loop !203

1154:                                             ; preds = %1059, %1154
  %1155 = phi i32** [ %1220, %1154 ], [ %1057, %1059 ]
  %1156 = load i32*, i32** %1155, align 8, !tbaa !24
  %1157 = bitcast i32* %1156 to <4 x i32>*
  store <4 x i32> %1062, <4 x i32>* %1157, align 4, !tbaa !25
  %1158 = getelementptr inbounds i32, i32* %1156, i64 4
  %1159 = bitcast i32* %1158 to <4 x i32>*
  store <4 x i32> %1064, <4 x i32>* %1159, align 4, !tbaa !25
  %1160 = getelementptr inbounds i32, i32* %1156, i64 8
  %1161 = bitcast i32* %1160 to <4 x i32>*
  store <4 x i32> %1062, <4 x i32>* %1161, align 4, !tbaa !25
  %1162 = getelementptr inbounds i32, i32* %1156, i64 12
  %1163 = bitcast i32* %1162 to <4 x i32>*
  store <4 x i32> %1064, <4 x i32>* %1163, align 4, !tbaa !25
  %1164 = getelementptr inbounds i32, i32* %1156, i64 16
  %1165 = bitcast i32* %1164 to <4 x i32>*
  store <4 x i32> %1062, <4 x i32>* %1165, align 4, !tbaa !25
  %1166 = getelementptr inbounds i32, i32* %1156, i64 20
  %1167 = bitcast i32* %1166 to <4 x i32>*
  store <4 x i32> %1064, <4 x i32>* %1167, align 4, !tbaa !25
  %1168 = getelementptr inbounds i32, i32* %1156, i64 24
  %1169 = bitcast i32* %1168 to <4 x i32>*
  store <4 x i32> %1062, <4 x i32>* %1169, align 4, !tbaa !25
  %1170 = getelementptr inbounds i32, i32* %1156, i64 28
  %1171 = bitcast i32* %1170 to <4 x i32>*
  store <4 x i32> %1064, <4 x i32>* %1171, align 4, !tbaa !25
  %1172 = getelementptr inbounds i32, i32* %1156, i64 32
  %1173 = bitcast i32* %1172 to <4 x i32>*
  store <4 x i32> %1062, <4 x i32>* %1173, align 4, !tbaa !25
  %1174 = getelementptr inbounds i32, i32* %1156, i64 36
  %1175 = bitcast i32* %1174 to <4 x i32>*
  store <4 x i32> %1064, <4 x i32>* %1175, align 4, !tbaa !25
  %1176 = getelementptr inbounds i32, i32* %1156, i64 40
  %1177 = bitcast i32* %1176 to <4 x i32>*
  store <4 x i32> %1062, <4 x i32>* %1177, align 4, !tbaa !25
  %1178 = getelementptr inbounds i32, i32* %1156, i64 44
  %1179 = bitcast i32* %1178 to <4 x i32>*
  store <4 x i32> %1064, <4 x i32>* %1179, align 4, !tbaa !25
  %1180 = getelementptr inbounds i32, i32* %1156, i64 48
  %1181 = bitcast i32* %1180 to <4 x i32>*
  store <4 x i32> %1062, <4 x i32>* %1181, align 4, !tbaa !25
  %1182 = getelementptr inbounds i32, i32* %1156, i64 52
  %1183 = bitcast i32* %1182 to <4 x i32>*
  store <4 x i32> %1064, <4 x i32>* %1183, align 4, !tbaa !25
  %1184 = getelementptr inbounds i32, i32* %1156, i64 56
  %1185 = bitcast i32* %1184 to <4 x i32>*
  store <4 x i32> %1062, <4 x i32>* %1185, align 4, !tbaa !25
  %1186 = getelementptr inbounds i32, i32* %1156, i64 60
  %1187 = bitcast i32* %1186 to <4 x i32>*
  store <4 x i32> %1064, <4 x i32>* %1187, align 4, !tbaa !25
  %1188 = getelementptr inbounds i32, i32* %1156, i64 64
  %1189 = bitcast i32* %1188 to <4 x i32>*
  store <4 x i32> %1062, <4 x i32>* %1189, align 4, !tbaa !25
  %1190 = getelementptr inbounds i32, i32* %1156, i64 68
  %1191 = bitcast i32* %1190 to <4 x i32>*
  store <4 x i32> %1064, <4 x i32>* %1191, align 4, !tbaa !25
  %1192 = getelementptr inbounds i32, i32* %1156, i64 72
  %1193 = bitcast i32* %1192 to <4 x i32>*
  store <4 x i32> %1062, <4 x i32>* %1193, align 4, !tbaa !25
  %1194 = getelementptr inbounds i32, i32* %1156, i64 76
  %1195 = bitcast i32* %1194 to <4 x i32>*
  store <4 x i32> %1064, <4 x i32>* %1195, align 4, !tbaa !25
  %1196 = getelementptr inbounds i32, i32* %1156, i64 80
  %1197 = bitcast i32* %1196 to <4 x i32>*
  store <4 x i32> %1062, <4 x i32>* %1197, align 4, !tbaa !25
  %1198 = getelementptr inbounds i32, i32* %1156, i64 84
  %1199 = bitcast i32* %1198 to <4 x i32>*
  store <4 x i32> %1064, <4 x i32>* %1199, align 4, !tbaa !25
  %1200 = getelementptr inbounds i32, i32* %1156, i64 88
  %1201 = bitcast i32* %1200 to <4 x i32>*
  store <4 x i32> %1062, <4 x i32>* %1201, align 4, !tbaa !25
  %1202 = getelementptr inbounds i32, i32* %1156, i64 92
  %1203 = bitcast i32* %1202 to <4 x i32>*
  store <4 x i32> %1064, <4 x i32>* %1203, align 4, !tbaa !25
  %1204 = getelementptr inbounds i32, i32* %1156, i64 96
  %1205 = bitcast i32* %1204 to <4 x i32>*
  store <4 x i32> %1062, <4 x i32>* %1205, align 4, !tbaa !25
  %1206 = getelementptr inbounds i32, i32* %1156, i64 100
  %1207 = bitcast i32* %1206 to <4 x i32>*
  store <4 x i32> %1064, <4 x i32>* %1207, align 4, !tbaa !25
  %1208 = getelementptr inbounds i32, i32* %1156, i64 104
  %1209 = bitcast i32* %1208 to <4 x i32>*
  store <4 x i32> %1062, <4 x i32>* %1209, align 4, !tbaa !25
  %1210 = getelementptr inbounds i32, i32* %1156, i64 108
  %1211 = bitcast i32* %1210 to <4 x i32>*
  store <4 x i32> %1064, <4 x i32>* %1211, align 4, !tbaa !25
  %1212 = getelementptr inbounds i32, i32* %1156, i64 112
  %1213 = bitcast i32* %1212 to <4 x i32>*
  store <4 x i32> %1062, <4 x i32>* %1213, align 4, !tbaa !25
  %1214 = getelementptr inbounds i32, i32* %1156, i64 116
  %1215 = bitcast i32* %1214 to <4 x i32>*
  store <4 x i32> %1064, <4 x i32>* %1215, align 4, !tbaa !25
  %1216 = getelementptr inbounds i32, i32* %1156, i64 120
  %1217 = bitcast i32* %1216 to <4 x i32>*
  store <4 x i32> %1062, <4 x i32>* %1217, align 4, !tbaa !25
  %1218 = getelementptr inbounds i32, i32* %1156, i64 124
  %1219 = bitcast i32* %1218 to <4 x i32>*
  store <4 x i32> %1064, <4 x i32>* %1219, align 4, !tbaa !25
  %1220 = getelementptr inbounds i32*, i32** %1155, i64 1
  %1221 = icmp ult i32** %1220, %965
  br i1 %1221, label %1154, label %1065, !llvm.loop !58

1222:                                             ; preds = %960
  %1223 = icmp eq i32* %106, %961
  br i1 %1223, label %2270, label %1224

1224:                                             ; preds = %1222
  %1225 = add i64 %962, -4
  %1226 = sub i64 %1225, %107
  %1227 = lshr i64 %1226, 2
  %1228 = add nuw nsw i64 %1227, 1
  %1229 = icmp ult i64 %1226, 28
  br i1 %1229, label %1304, label %1230

1230:                                             ; preds = %1224
  %1231 = and i64 %1228, 9223372036854775800
  %1232 = getelementptr i32, i32* %106, i64 %1231
  %1233 = insertelement <4 x i32> poison, i32 %967, i32 0
  %1234 = shufflevector <4 x i32> %1233, <4 x i32> poison, <4 x i32> zeroinitializer
  %1235 = insertelement <4 x i32> poison, i32 %967, i32 0
  %1236 = shufflevector <4 x i32> %1235, <4 x i32> poison, <4 x i32> zeroinitializer
  %1237 = add nsw i64 %1231, -8
  %1238 = lshr exact i64 %1237, 3
  %1239 = add nuw nsw i64 %1238, 1
  %1240 = and i64 %1239, 7
  %1241 = icmp ult i64 %1237, 56
  br i1 %1241, label %1289, label %1242

1242:                                             ; preds = %1230
  %1243 = and i64 %1239, 4611686018427387896
  br label %1244

1244:                                             ; preds = %1244, %1242
  %1245 = phi i64 [ 0, %1242 ], [ %1286, %1244 ]
  %1246 = phi i64 [ %1243, %1242 ], [ %1287, %1244 ]
  %1247 = getelementptr i32, i32* %106, i64 %1245
  %1248 = bitcast i32* %1247 to <4 x i32>*
  store <4 x i32> %1234, <4 x i32>* %1248, align 4, !tbaa !25
  %1249 = getelementptr i32, i32* %1247, i64 4
  %1250 = bitcast i32* %1249 to <4 x i32>*
  store <4 x i32> %1236, <4 x i32>* %1250, align 4, !tbaa !25
  %1251 = or i64 %1245, 8
  %1252 = getelementptr i32, i32* %106, i64 %1251
  %1253 = bitcast i32* %1252 to <4 x i32>*
  store <4 x i32> %1234, <4 x i32>* %1253, align 4, !tbaa !25
  %1254 = getelementptr i32, i32* %1252, i64 4
  %1255 = bitcast i32* %1254 to <4 x i32>*
  store <4 x i32> %1236, <4 x i32>* %1255, align 4, !tbaa !25
  %1256 = or i64 %1245, 16
  %1257 = getelementptr i32, i32* %106, i64 %1256
  %1258 = bitcast i32* %1257 to <4 x i32>*
  store <4 x i32> %1234, <4 x i32>* %1258, align 4, !tbaa !25
  %1259 = getelementptr i32, i32* %1257, i64 4
  %1260 = bitcast i32* %1259 to <4 x i32>*
  store <4 x i32> %1236, <4 x i32>* %1260, align 4, !tbaa !25
  %1261 = or i64 %1245, 24
  %1262 = getelementptr i32, i32* %106, i64 %1261
  %1263 = bitcast i32* %1262 to <4 x i32>*
  store <4 x i32> %1234, <4 x i32>* %1263, align 4, !tbaa !25
  %1264 = getelementptr i32, i32* %1262, i64 4
  %1265 = bitcast i32* %1264 to <4 x i32>*
  store <4 x i32> %1236, <4 x i32>* %1265, align 4, !tbaa !25
  %1266 = or i64 %1245, 32
  %1267 = getelementptr i32, i32* %106, i64 %1266
  %1268 = bitcast i32* %1267 to <4 x i32>*
  store <4 x i32> %1234, <4 x i32>* %1268, align 4, !tbaa !25
  %1269 = getelementptr i32, i32* %1267, i64 4
  %1270 = bitcast i32* %1269 to <4 x i32>*
  store <4 x i32> %1236, <4 x i32>* %1270, align 4, !tbaa !25
  %1271 = or i64 %1245, 40
  %1272 = getelementptr i32, i32* %106, i64 %1271
  %1273 = bitcast i32* %1272 to <4 x i32>*
  store <4 x i32> %1234, <4 x i32>* %1273, align 4, !tbaa !25
  %1274 = getelementptr i32, i32* %1272, i64 4
  %1275 = bitcast i32* %1274 to <4 x i32>*
  store <4 x i32> %1236, <4 x i32>* %1275, align 4, !tbaa !25
  %1276 = or i64 %1245, 48
  %1277 = getelementptr i32, i32* %106, i64 %1276
  %1278 = bitcast i32* %1277 to <4 x i32>*
  store <4 x i32> %1234, <4 x i32>* %1278, align 4, !tbaa !25
  %1279 = getelementptr i32, i32* %1277, i64 4
  %1280 = bitcast i32* %1279 to <4 x i32>*
  store <4 x i32> %1236, <4 x i32>* %1280, align 4, !tbaa !25
  %1281 = or i64 %1245, 56
  %1282 = getelementptr i32, i32* %106, i64 %1281
  %1283 = bitcast i32* %1282 to <4 x i32>*
  store <4 x i32> %1234, <4 x i32>* %1283, align 4, !tbaa !25
  %1284 = getelementptr i32, i32* %1282, i64 4
  %1285 = bitcast i32* %1284 to <4 x i32>*
  store <4 x i32> %1236, <4 x i32>* %1285, align 4, !tbaa !25
  %1286 = add nuw i64 %1245, 64
  %1287 = add i64 %1246, -8
  %1288 = icmp eq i64 %1287, 0
  br i1 %1288, label %1289, label %1244, !llvm.loop !204

1289:                                             ; preds = %1244, %1230
  %1290 = phi i64 [ 0, %1230 ], [ %1286, %1244 ]
  %1291 = icmp eq i64 %1240, 0
  br i1 %1291, label %1302, label %1292

1292:                                             ; preds = %1289, %1292
  %1293 = phi i64 [ %1299, %1292 ], [ %1290, %1289 ]
  %1294 = phi i64 [ %1300, %1292 ], [ %1240, %1289 ]
  %1295 = getelementptr i32, i32* %106, i64 %1293
  %1296 = bitcast i32* %1295 to <4 x i32>*
  store <4 x i32> %1234, <4 x i32>* %1296, align 4, !tbaa !25
  %1297 = getelementptr i32, i32* %1295, i64 4
  %1298 = bitcast i32* %1297 to <4 x i32>*
  store <4 x i32> %1236, <4 x i32>* %1298, align 4, !tbaa !25
  %1299 = add nuw i64 %1293, 8
  %1300 = add i64 %1294, -1
  %1301 = icmp eq i64 %1300, 0
  br i1 %1301, label %1302, label %1292, !llvm.loop !205

1302:                                             ; preds = %1292, %1289
  %1303 = icmp eq i64 %1228, %1231
  br i1 %1303, label %2270, label %1304

1304:                                             ; preds = %1224, %1302
  %1305 = phi i32* [ %106, %1224 ], [ %1232, %1302 ]
  br label %1306

1306:                                             ; preds = %1304, %1306
  %1307 = phi i32* [ %1308, %1306 ], [ %1305, %1304 ]
  store i32 %967, i32* %1307, align 4, !tbaa !25
  %1308 = getelementptr inbounds i32, i32* %1307, i64 1
  %1309 = icmp eq i32* %1308, %961
  br i1 %1309, label %2270, label %1306, !llvm.loop !206

1310:                                             ; preds = %591
  %1311 = landingpad { i8*, i32 }
          catch i8* null
  br label %1312

1312:                                             ; preds = %587, %589, %1310
  %1313 = phi { i8*, i32 } [ %1311, %1310 ], [ %590, %589 ], [ %588, %587 ]
  %1314 = extractvalue { i8*, i32 } %1313, 0
  %1315 = call i8* @__cxa_begin_catch(i8* %1314) #18
  %1316 = load i32**, i32*** %33, align 8, !tbaa !43
  %1317 = icmp ult i32** %133, %1316
  br i1 %1317, label %1318, label %1324

1318:                                             ; preds = %1312, %1318
  %1319 = phi i32** [ %1322, %1318 ], [ %133, %1312 ]
  %1320 = bitcast i32** %1319 to i8**
  %1321 = load i8*, i8** %1320, align 8, !tbaa !24
  call void @_ZdlPv(i8* %1321) #18
  %1322 = getelementptr inbounds i32*, i32** %1319, i64 1
  %1323 = icmp ult i32** %1322, %1316
  br i1 %1323, label %1318, label %1324, !llvm.loop !44

1324:                                             ; preds = %1318, %1312
  invoke void @__cxa_rethrow() #17
          to label %2276 unwind label %1325

1325:                                             ; preds = %1324
  %1326 = landingpad { i8*, i32 }
          cleanup
  invoke void @__cxa_end_catch()
          to label %2271 unwind label %2273

1327:                                             ; preds = %4
  %1328 = getelementptr inbounds %"class.std::deque", %"class.std::deque"* %0, i64 0, i32 0, i32 0, i32 0, i32 3, i32 2
  %1329 = load i32*, i32** %1328, align 8, !tbaa !103, !noalias !207
  %1330 = ptrtoint i32* %1329 to i64
  %1331 = sub i64 %1330, %74
  %1332 = ashr exact i64 %1331, 2
  %1333 = add nsw i64 %1332, -1
  %1334 = icmp ult i64 %1333, %2
  br i1 %1334, label %1335, label %1345

1335:                                             ; preds = %1327
  %1336 = sub i64 %2, %1333
  tail call void @_ZNSt5dequeIiSaIiEE23_M_new_elements_at_backEm(%"class.std::deque"* nonnull align 8 dereferenceable(80) %0, i64 %1336), !noalias !207
  %1337 = load i32*, i32** %70, align 8, !tbaa !10, !noalias !210
  %1338 = load i32*, i32** %1328, align 8, !tbaa !12, !noalias !210
  %1339 = ptrtoint i32* %1337 to i64
  %1340 = load i32*, i32** %72, align 8, !tbaa !11, !noalias !210
  %1341 = load i32**, i32*** %61, align 8, !tbaa !5, !noalias !210
  %1342 = ptrtoint i32* %1340 to i64
  %1343 = sub i64 %1339, %1342
  %1344 = ashr exact i64 %1343, 2
  br label %1345

1345:                                             ; preds = %1335, %1327
  %1346 = phi i64 [ %1344, %1335 ], [ %77, %1327 ]
  %1347 = phi i64 [ %1342, %1335 ], [ %75, %1327 ]
  %1348 = phi i32** [ %1341, %1335 ], [ %62, %1327 ]
  %1349 = phi i32* [ %1340, %1335 ], [ %73, %1327 ]
  %1350 = phi i32* [ %1338, %1335 ], [ %1329, %1327 ]
  %1351 = phi i32* [ %1337, %1335 ], [ %71, %1327 ]
  %1352 = ptrtoint i32* %1351 to i64
  %1353 = ptrtoint i32* %1349 to i64
  %1354 = add nsw i64 %1346, %2
  %1355 = icmp sgt i64 %1354, -1
  br i1 %1355, label %1356, label %1362

1356:                                             ; preds = %1345
  %1357 = icmp slt i64 %1354, 128
  br i1 %1357, label %1358, label %1360

1358:                                             ; preds = %1356
  %1359 = getelementptr inbounds i32, i32* %1351, i64 %2
  br label %1373

1360:                                             ; preds = %1356
  %1361 = lshr i64 %1354, 7
  br label %1365

1362:                                             ; preds = %1345
  %1363 = lshr i64 %1354, 7
  %1364 = or i64 %1363, -144115188075855872
  br label %1365

1365:                                             ; preds = %1362, %1360
  %1366 = phi i64 [ %1361, %1360 ], [ %1364, %1362 ]
  %1367 = getelementptr inbounds i32*, i32** %1348, i64 %1366
  %1368 = load i32*, i32** %1367, align 8, !tbaa !24, !noalias !210
  %1369 = getelementptr inbounds i32, i32* %1368, i64 128
  %1370 = mul i64 %1366, -128
  %1371 = add i64 %1370, %1354
  %1372 = getelementptr inbounds i32, i32* %1368, i64 %1371
  br label %1373

1373:                                             ; preds = %1358, %1365
  %1374 = phi i32* [ %1349, %1358 ], [ %1368, %1365 ]
  %1375 = phi i32* [ %1350, %1358 ], [ %1369, %1365 ]
  %1376 = phi i32** [ %1348, %1358 ], [ %1367, %1365 ]
  %1377 = phi i32* [ %1359, %1358 ], [ %1372, %1365 ]
  %1378 = sub nsw i64 %79, %60
  %1379 = sub nsw i64 0, %1378
  %1380 = ptrtoint i32* %1351 to i64
  %1381 = sub i64 %1380, %1347
  %1382 = ashr exact i64 %1381, 2
  %1383 = sub i64 %1382, %1378
  %1384 = icmp sgt i64 %1383, -1
  br i1 %1384, label %1385, label %1391

1385:                                             ; preds = %1373
  %1386 = icmp slt i64 %1383, 128
  br i1 %1386, label %1387, label %1389

1387:                                             ; preds = %1385
  %1388 = getelementptr inbounds i32, i32* %1351, i64 %1379
  br label %1402

1389:                                             ; preds = %1385
  %1390 = lshr i64 %1383, 7
  br label %1394

1391:                                             ; preds = %1373
  %1392 = lshr i64 %1383, 7
  %1393 = or i64 %1392, -144115188075855872
  br label %1394

1394:                                             ; preds = %1391, %1389
  %1395 = phi i64 [ %1390, %1389 ], [ %1393, %1391 ]
  %1396 = getelementptr inbounds i32*, i32** %1348, i64 %1395
  %1397 = load i32*, i32** %1396, align 8, !tbaa !24, !noalias !213
  %1398 = getelementptr inbounds i32, i32* %1397, i64 128
  %1399 = mul i64 %1395, -128
  %1400 = add i64 %1399, %1383
  %1401 = getelementptr inbounds i32, i32* %1397, i64 %1400
  br label %1402

1402:                                             ; preds = %1387, %1394
  %1403 = phi i32* [ %1349, %1387 ], [ %1397, %1394 ]
  %1404 = phi i32* [ %1350, %1387 ], [ %1398, %1394 ]
  %1405 = phi i32** [ %1348, %1387 ], [ %1396, %1394 ]
  %1406 = phi i32* [ %1388, %1387 ], [ %1401, %1394 ]
  store i32* %1406, i32** %43, align 8, !tbaa.struct !74
  store i32* %1403, i32** %45, align 8, !tbaa.struct !75
  %1407 = getelementptr inbounds %"struct.std::_Deque_iterator", %"struct.std::_Deque_iterator"* %1, i64 0, i32 2
  store i32* %1404, i32** %1407, align 8, !tbaa.struct !76
  store i32** %1405, i32*** %31, align 8, !tbaa.struct !77
  %1408 = icmp sgt i64 %1378, %2
  br i1 %1408, label %1409, label %1855

1409:                                             ; preds = %1402
  %1410 = load i32*, i32** %70, align 8, !tbaa !10, !noalias !216
  %1411 = load i32*, i32** %72, align 8, !tbaa !11, !noalias !216
  %1412 = load i32*, i32** %1328, align 8, !tbaa !12, !noalias !216
  %1413 = load i32**, i32*** %61, align 8, !tbaa !5, !noalias !216
  %1414 = sub nsw i64 0, %2
  %1415 = ptrtoint i32* %1410 to i64
  %1416 = ptrtoint i32* %1411 to i64
  %1417 = sub i64 %1415, %1416
  %1418 = ashr exact i64 %1417, 2
  %1419 = sub i64 %1418, %2
  %1420 = icmp sgt i64 %1419, -1
  br i1 %1420, label %1421, label %1427

1421:                                             ; preds = %1409
  %1422 = icmp slt i64 %1419, 128
  br i1 %1422, label %1423, label %1425

1423:                                             ; preds = %1421
  %1424 = getelementptr inbounds i32, i32* %1410, i64 %1414
  br label %1438

1425:                                             ; preds = %1421
  %1426 = lshr i64 %1419, 7
  br label %1430

1427:                                             ; preds = %1409
  %1428 = lshr i64 %1419, 7
  %1429 = or i64 %1428, -144115188075855872
  br label %1430

1430:                                             ; preds = %1427, %1425
  %1431 = phi i64 [ %1426, %1425 ], [ %1429, %1427 ]
  %1432 = getelementptr inbounds i32*, i32** %1413, i64 %1431
  %1433 = load i32*, i32** %1432, align 8, !tbaa !24, !noalias !216
  %1434 = getelementptr inbounds i32, i32* %1433, i64 128
  %1435 = mul i64 %1431, -128
  %1436 = add i64 %1435, %1419
  %1437 = getelementptr inbounds i32, i32* %1433, i64 %1436
  br label %1438

1438:                                             ; preds = %1423, %1430
  %1439 = phi i32* [ %1411, %1423 ], [ %1433, %1430 ]
  %1440 = phi i32* [ %1412, %1423 ], [ %1434, %1430 ]
  %1441 = phi i32** [ %1413, %1423 ], [ %1432, %1430 ]
  %1442 = phi i32* [ %1424, %1423 ], [ %1437, %1430 ]
  %1443 = bitcast %"struct.std::_Deque_iterator"* %12 to i8*
  call void @llvm.lifetime.start.p0i8(i64 32, i8* nonnull %1443), !noalias !219
  %1444 = bitcast %"struct.std::_Deque_iterator"* %9 to i8*
  call void @llvm.lifetime.start.p0i8(i64 32, i8* nonnull %1444), !noalias !230
  %1445 = bitcast %"struct.std::_Deque_iterator"* %10 to i8*
  call void @llvm.lifetime.start.p0i8(i64 32, i8* nonnull %1445), !noalias !230
  %1446 = bitcast %"struct.std::_Deque_iterator"* %11 to i8*
  call void @llvm.lifetime.start.p0i8(i64 32, i8* nonnull %1446), !noalias !230
  %1447 = getelementptr inbounds %"struct.std::_Deque_iterator", %"struct.std::_Deque_iterator"* %9, i64 0, i32 0
  store i32* %1442, i32** %1447, align 8, !tbaa !10, !noalias !233
  %1448 = getelementptr inbounds %"struct.std::_Deque_iterator", %"struct.std::_Deque_iterator"* %9, i64 0, i32 1
  store i32* %1439, i32** %1448, align 8, !tbaa !11, !noalias !233
  %1449 = getelementptr inbounds %"struct.std::_Deque_iterator", %"struct.std::_Deque_iterator"* %9, i64 0, i32 2
  store i32* %1440, i32** %1449, align 8, !tbaa !12, !noalias !233
  %1450 = getelementptr inbounds %"struct.std::_Deque_iterator", %"struct.std::_Deque_iterator"* %9, i64 0, i32 3
  store i32** %1441, i32*** %1450, align 8, !tbaa !5, !noalias !233
  %1451 = getelementptr inbounds %"struct.std::_Deque_iterator", %"struct.std::_Deque_iterator"* %10, i64 0, i32 0
  store i32* %1410, i32** %1451, align 8, !tbaa !10, !noalias !233
  %1452 = getelementptr inbounds %"struct.std::_Deque_iterator", %"struct.std::_Deque_iterator"* %10, i64 0, i32 1
  store i32* %1411, i32** %1452, align 8, !tbaa !11, !noalias !233
  %1453 = getelementptr inbounds %"struct.std::_Deque_iterator", %"struct.std::_Deque_iterator"* %10, i64 0, i32 2
  store i32* %1412, i32** %1453, align 8, !tbaa !12, !noalias !233
  %1454 = getelementptr inbounds %"struct.std::_Deque_iterator", %"struct.std::_Deque_iterator"* %10, i64 0, i32 3
  store i32** %1413, i32*** %1454, align 8, !tbaa !5, !noalias !233
  %1455 = getelementptr inbounds %"struct.std::_Deque_iterator", %"struct.std::_Deque_iterator"* %11, i64 0, i32 0
  store i32* %1410, i32** %1455, align 8, !tbaa !10, !noalias !233
  %1456 = getelementptr inbounds %"struct.std::_Deque_iterator", %"struct.std::_Deque_iterator"* %11, i64 0, i32 1
  store i32* %1411, i32** %1456, align 8, !tbaa !11, !noalias !233
  %1457 = getelementptr inbounds %"struct.std::_Deque_iterator", %"struct.std::_Deque_iterator"* %11, i64 0, i32 2
  store i32* %1412, i32** %1457, align 8, !tbaa !12, !noalias !233
  %1458 = getelementptr inbounds %"struct.std::_Deque_iterator", %"struct.std::_Deque_iterator"* %11, i64 0, i32 3
  store i32** %1413, i32*** %1458, align 8, !tbaa !5, !noalias !233
  invoke void @_ZSt15__copy_move_ditILb1EiRiPiSt15_Deque_iteratorIiS0_S1_EET3_S2_IT0_T1_T2_ES8_S4_(%"struct.std::_Deque_iterator"* nonnull sret(%"struct.std::_Deque_iterator") align 8 %12, %"struct.std::_Deque_iterator"* nonnull %9, %"struct.std::_Deque_iterator"* nonnull %10, %"struct.std::_Deque_iterator"* nonnull %11)
          to label %1459 unwind label %1851

1459:                                             ; preds = %1438
  call void @llvm.lifetime.end.p0i8(i64 32, i8* nonnull %1444), !noalias !230
  call void @llvm.lifetime.end.p0i8(i64 32, i8* nonnull %1445), !noalias !230
  call void @llvm.lifetime.end.p0i8(i64 32, i8* nonnull %1446), !noalias !230
  call void @llvm.lifetime.end.p0i8(i64 32, i8* nonnull %1443), !noalias !219
  store i32* %1377, i32** %70, align 8, !tbaa.struct !74
  store i32* %1374, i32** %72, align 8, !tbaa.struct !75
  store i32* %1375, i32** %1328, align 8, !tbaa.struct !76
  store i32** %1376, i32*** %61, align 8, !tbaa.struct !77
  %1460 = bitcast %"struct.std::_Deque_iterator"* %1 to <2 x i32*>*
  %1461 = load <2 x i32*>, <2 x i32*>* %1460, align 8, !tbaa !24
  %1462 = load i32*, i32** %1407, align 8, !tbaa !12
  %1463 = load i32**, i32*** %31, align 8, !tbaa !5
  %1464 = bitcast %"struct.std::_Deque_iterator"* %8 to i8*
  call void @llvm.lifetime.start.p0i8(i64 32, i8* nonnull %1464), !noalias !236
  %1465 = bitcast %"struct.std::_Deque_iterator"* %5 to i8*
  call void @llvm.lifetime.start.p0i8(i64 32, i8* nonnull %1465), !noalias !239
  %1466 = bitcast %"struct.std::_Deque_iterator"* %6 to i8*
  call void @llvm.lifetime.start.p0i8(i64 32, i8* nonnull %1466), !noalias !239
  %1467 = bitcast %"struct.std::_Deque_iterator"* %7 to i8*
  call void @llvm.lifetime.start.p0i8(i64 32, i8* nonnull %1467), !noalias !239
  %1468 = bitcast %"struct.std::_Deque_iterator"* %5 to <2 x i32*>*
  store <2 x i32*> %1461, <2 x i32*>* %1468, align 16, !tbaa !24, !noalias !242
  %1469 = getelementptr inbounds %"struct.std::_Deque_iterator", %"struct.std::_Deque_iterator"* %5, i64 0, i32 2
  store i32* %1462, i32** %1469, align 16, !tbaa !12, !noalias !242
