; ModuleID = 'Project_CodeNet_C++1400/p02851/s884291120.cpp'
source_filename = "Project_CodeNet_C++1400/p02851/s884291120.cpp"
target datalayout = "e-m:e-p270:32:32-p271:32:32-p272:64:64-i64:64-f80:128-n8:16:32:64-S128"
target triple = "x86_64-pc-linux-gnu"

%"class.std::ios_base::Init" = type { i8 }
%"class.std::basic_istream" = type { i32 (...)**, i64, %"class.std::basic_ios" }
%"class.std::basic_ios" = type { %"class.std::ios_base", %"class.std::basic_ostream"*, i8, i8, %"class.std::basic_streambuf"*, %"class.std::ctype"*, %"class.std::num_put"*, %"class.std::num_get"* }
%"class.std::ios_base" = type { i32 (...)**, i64, i64, i32, i32, i32, %"struct.std::ios_base::_Callback_list"*, %"struct.std::ios_base::_Words", [8 x %"struct.std::ios_base::_Words"], i32, %"struct.std::ios_base::_Words"*, %"class.std::locale" }
%"struct.std::ios_base::_Callback_list" = type { %"struct.std::ios_base::_Callback_list"*, void (i32, %"class.std::ios_base"*, i32)*, i32, i32 }
%"struct.std::ios_base::_Words" = type { i8*, i64 }
%"class.std::locale" = type { %"class.std::locale::_Impl"* }
%"class.std::locale::_Impl" = type { i32, %"class.std::locale::facet"**, i64, %"class.std::locale::facet"**, i8** }
%"class.std::locale::facet" = type <{ i32 (...)**, i32, [4 x i8] }>
%"class.std::basic_ostream" = type { i32 (...)**, %"class.std::basic_ios" }
%"class.std::basic_streambuf" = type { i32 (...)**, i8*, i8*, i8*, i8*, i8*, i8*, %"class.std::locale" }
%"class.std::ctype" = type <{ %"class.std::locale::facet.base", [4 x i8], %struct.__locale_struct*, i8, [7 x i8], i32*, i32*, i16*, i8, [256 x i8], [256 x i8], i8, [6 x i8] }>
%"class.std::locale::facet.base" = type <{ i32 (...)**, i32 }>
%struct.__locale_struct = type { [13 x %struct.__locale_data*], i16*, i32*, i32*, [13 x i8*] }
%struct.__locale_data = type opaque
%"class.std::num_put" = type { %"class.std::locale::facet.base", [4 x i8] }
%"class.std::num_get" = type { %"class.std::locale::facet.base", [4 x i8] }
%"struct.std::piecewise_construct_t" = type { i8 }
%"class.std::tuple" = type { %"struct.std::_Tuple_impl" }
%"struct.std::_Tuple_impl" = type { %"struct.std::_Head_base" }
%"struct.std::_Head_base" = type { i32* }
%"class.std::tuple.3" = type { i8 }
%"class.std::map" = type { %"class.std::_Rb_tree" }
%"class.std::_Rb_tree" = type { %"struct.std::_Rb_tree<int, std::pair<const int, int>, std::_Select1st<std::pair<const int, int>>, std::less<int>>::_Rb_tree_impl" }
%"struct.std::_Rb_tree<int, std::pair<const int, int>, std::_Select1st<std::pair<const int, int>>, std::less<int>>::_Rb_tree_impl" = type { %"struct.std::_Rb_tree_key_compare", %"struct.std::_Rb_tree_header" }
%"struct.std::_Rb_tree_key_compare" = type { %"struct.std::less" }
%"struct.std::less" = type { i8 }
%"struct.std::_Rb_tree_header" = type { %"struct.std::_Rb_tree_node_base", i64 }
%"struct.std::_Rb_tree_node_base" = type { i32, %"struct.std::_Rb_tree_node_base"*, %"struct.std::_Rb_tree_node_base"*, %"struct.std::_Rb_tree_node_base"* }
%"struct.std::_Rb_tree_node" = type { %"struct.std::_Rb_tree_node_base", %"struct.__gnu_cxx::__aligned_membuf" }
%"struct.__gnu_cxx::__aligned_membuf" = type { [8 x i8] }
%"struct.std::pair" = type { i32, i32 }

$__clang_call_terminate = comdat any

$_ZNSt8_Rb_treeIiSt4pairIKiiESt10_Select1stIS2_ESt4lessIiESaIS2_EED2Ev = comdat any

$_ZNSt8_Rb_treeIiSt4pairIKiiESt10_Select1stIS2_ESt4lessIiESaIS2_EE8_M_eraseEPSt13_Rb_tree_nodeIS2_E = comdat any

$_ZNSt8_Rb_treeIiSt4pairIKiiESt10_Select1stIS2_ESt4lessIiESaIS2_EE22_M_emplace_hint_uniqueIJRKSt21piecewise_construct_tSt5tupleIJRS1_EESD_IJEEEEESt17_Rb_tree_iteratorIS2_ESt23_Rb_tree_const_iteratorIS2_EDpOT_ = comdat any

$_ZNSt8_Rb_treeIiSt4pairIKiiESt10_Select1stIS2_ESt4lessIiESaIS2_EE29_M_get_insert_hint_unique_posESt23_Rb_tree_const_iteratorIS2_ERS1_ = comdat any

@_ZStL8__ioinit = internal global %"class.std::ios_base::Init" zeroinitializer, align 1
@__dso_handle = external hidden global i8
@_ZSt3cin = external global %"class.std::basic_istream", align 8
@_ZSt4cout = external global %"class.std::basic_ostream", align 8
@.str = private unnamed_addr constant [49 x i8] c"cannot create std::vector larger than max_size()\00", align 1
@_ZStL19piecewise_construct = internal constant %"struct.std::piecewise_construct_t" undef, align 1
@llvm.global_ctors = appending global [1 x { i32, void ()*, i8* }] [{ i32, void ()*, i8* } { i32 65535, void ()* @_GLOBAL__sub_I_s884291120.cpp, i8* null }]

declare void @_ZNSt8ios_base4InitC1Ev(%"class.std::ios_base::Init"* nonnull align 1 dereferenceable(1)) unnamed_addr #0

; Function Attrs: nounwind
declare void @_ZNSt8ios_base4InitD1Ev(%"class.std::ios_base::Init"* nonnull align 1 dereferenceable(1)) unnamed_addr #1

; Function Attrs: nofree nounwind
declare i32 @__cxa_atexit(void (i8*)*, i8*, i8*) local_unnamed_addr #2

; Function Attrs: norecurse sspstrong uwtable
define dso_local i32 @main() local_unnamed_addr #3 personality i8* bitcast (i32 (...)* @__gxx_personality_v0 to i8*) {
  %1 = alloca %"class.std::tuple", align 8
  %2 = alloca %"class.std::tuple.3", align 1
  %3 = alloca %"class.std::tuple", align 8
  %4 = alloca %"class.std::tuple.3", align 1
  %5 = alloca %"class.std::tuple", align 8
  %6 = alloca %"class.std::tuple.3", align 1
  %7 = alloca i32, align 4
  %8 = alloca i32, align 4
  %9 = alloca %"class.std::map", align 8
  %10 = bitcast i32* %7 to i8*
  call void @llvm.lifetime.start.p0i8(i64 4, i8* nonnull %10) #14
  %11 = bitcast i32* %8 to i8*
  call void @llvm.lifetime.start.p0i8(i64 4, i8* nonnull %11) #14
  %12 = call nonnull align 8 dereferenceable(16) %"class.std::basic_istream"* @_ZNSirsERi(%"class.std::basic_istream"* nonnull align 8 dereferenceable(16) @_ZSt3cin, i32* nonnull align 4 dereferenceable(4) %7)
  %13 = call nonnull align 8 dereferenceable(16) %"class.std::basic_istream"* @_ZNSirsERi(%"class.std::basic_istream"* nonnull align 8 dereferenceable(16) %12, i32* nonnull align 4 dereferenceable(4) %8)
  %14 = load i32, i32* %7, align 4, !tbaa !5
  %15 = sext i32 %14 to i64
  %16 = icmp slt i32 %14, 0
  br i1 %16, label %17, label %18

17:                                               ; preds = %0
  call void @_ZSt20__throw_length_errorPKc(i8* getelementptr inbounds ([49 x i8], [49 x i8]* @.str, i64 0, i64 0)) #15
  unreachable

18:                                               ; preds = %0
  %19 = icmp eq i32 %14, 0
  br i1 %19, label %68, label %20

20:                                               ; preds = %18
  %21 = shl nuw nsw i64 %15, 2
  %22 = call noalias nonnull i8* @_Znwm(i64 %21) #16
  %23 = bitcast i8* %22 to i32*
  store i32 0, i32* %23, align 4, !tbaa !5
  %24 = icmp eq i32 %14, 1
  br i1 %24, label %28, label %25

25:                                               ; preds = %20
  %26 = getelementptr inbounds i8, i8* %22, i64 4
  %27 = add nsw i64 %21, -4
  call void @llvm.memset.p0i8.i64(i8* nonnull align 4 %26, i8 0, i64 %27, i1 false)
  br label %28

28:                                               ; preds = %25, %20
  %29 = load i32, i32* %7, align 4, !tbaa !5
  %30 = icmp sgt i32 %29, 0
  br i1 %30, label %40, label %59

31:                                               ; preds = %44
  %32 = load i32, i32* %8, align 4
  %33 = icmp sgt i32 %46, 0
  br i1 %33, label %34, label %59

34:                                               ; preds = %31
  %35 = zext i32 %46 to i64
  %36 = and i64 %35, 1
  %37 = icmp eq i32 %46, 1
  br i1 %37, label %51, label %38

38:                                               ; preds = %34
  %39 = and i64 %35, 4294967294
  br label %73

40:                                               ; preds = %28, %44
  %41 = phi i64 [ %45, %44 ], [ 0, %28 ]
  %42 = getelementptr inbounds i32, i32* %23, i64 %41
  %43 = invoke nonnull align 8 dereferenceable(16) %"class.std::basic_istream"* @_ZNSirsERi(%"class.std::basic_istream"* nonnull align 8 dereferenceable(16) @_ZSt3cin, i32* nonnull align 4 dereferenceable(4) %42)
          to label %44 unwind label %49

44:                                               ; preds = %40
  %45 = add nuw nsw i64 %41, 1
  %46 = load i32, i32* %7, align 4, !tbaa !5
  %47 = sext i32 %46 to i64
  %48 = icmp slt i64 %45, %47
  br i1 %48, label %40, label %31, !llvm.loop !9

49:                                               ; preds = %40
  %50 = landingpad { i8*, i32 }
          cleanup
  br label %356

51:                                               ; preds = %73, %34
  %52 = phi i64 [ 0, %34 ], [ %85, %73 ]
  %53 = icmp eq i64 %36, 0
  br i1 %53, label %59, label %54

54:                                               ; preds = %51
  %55 = getelementptr inbounds i32, i32* %23, i64 %52
  %56 = load i32, i32* %55, align 4, !tbaa !5
  %57 = add nsw i32 %56, -1
  %58 = srem i32 %57, %32
  store i32 %58, i32* %55, align 4, !tbaa !5
  br label %59

59:                                               ; preds = %54, %51, %28, %31
  %60 = phi i32 [ %46, %31 ], [ %29, %28 ], [ %46, %51 ], [ %46, %54 ]
  %61 = add nsw i32 %60, 1
  %62 = icmp slt i32 %60, -1
  br i1 %62, label %63, label %65

63:                                               ; preds = %59
  invoke void @_ZSt20__throw_length_errorPKc(i8* getelementptr inbounds ([49 x i8], [49 x i8]* @.str, i64 0, i64 0)) #15
          to label %64 unwind label %139

64:                                               ; preds = %63
  unreachable

65:                                               ; preds = %59
  %66 = sext i32 %61 to i64
  %67 = icmp eq i32 %61, 0
  br i1 %67, label %111, label %68

68:                                               ; preds = %18, %65
  %69 = phi i32* [ %23, %65 ], [ null, %18 ]
  %70 = phi i64 [ %66, %65 ], [ 1, %18 ]
  %71 = shl nsw i64 %70, 2
  %72 = invoke noalias nonnull i8* @_Znwm(i64 %71) #16
          to label %88 unwind label %139

73:                                               ; preds = %73, %38
  %74 = phi i64 [ 0, %38 ], [ %85, %73 ]
  %75 = phi i64 [ %39, %38 ], [ %86, %73 ]
  %76 = getelementptr inbounds i32, i32* %23, i64 %74
  %77 = load i32, i32* %76, align 4, !tbaa !5
  %78 = add nsw i32 %77, -1
  %79 = srem i32 %78, %32
  store i32 %79, i32* %76, align 4, !tbaa !5
  %80 = or i64 %74, 1
  %81 = getelementptr inbounds i32, i32* %23, i64 %80
  %82 = load i32, i32* %81, align 4, !tbaa !5
  %83 = add nsw i32 %82, -1
  %84 = srem i32 %83, %32
  store i32 %84, i32* %81, align 4, !tbaa !5
  %85 = add nuw nsw i64 %74, 2
  %86 = add i64 %75, -2
  %87 = icmp eq i64 %86, 0
  br i1 %87, label %51, label %73, !llvm.loop !11

88:                                               ; preds = %68
  %89 = bitcast i8* %72 to i32*
  call void @llvm.memset.p0i8.i64(i8* nonnull align 4 %72, i8 0, i64 %71, i1 false)
  %90 = load i32, i32* %7, align 4, !tbaa !5
  %91 = load i32, i32* %8, align 4
  %92 = icmp sgt i32 %90, 0
  br i1 %92, label %93, label %111

93:                                               ; preds = %88
  %94 = zext i32 %90 to i64
  %95 = load i32, i32* %89, align 4, !tbaa !5
  %96 = and i64 %94, 1
  %97 = icmp eq i32 %90, 1
  br i1 %97, label %100, label %98

98:                                               ; preds = %93
  %99 = and i64 %94, 4294967294
  br label %142

100:                                              ; preds = %142, %93
  %101 = phi i32 [ %95, %93 ], [ %155, %142 ]
  %102 = phi i64 [ 0, %93 ], [ %156, %142 ]
  %103 = icmp eq i64 %96, 0
  br i1 %103, label %111, label %104

104:                                              ; preds = %100
  %105 = getelementptr inbounds i32, i32* %69, i64 %102
  %106 = load i32, i32* %105, align 4, !tbaa !5
  %107 = add nsw i32 %106, %101
  %108 = srem i32 %107, %91
  %109 = add nuw nsw i64 %102, 1
  %110 = getelementptr inbounds i32, i32* %89, i64 %109
  store i32 %108, i32* %110, align 4, !tbaa !5
  br label %111

111:                                              ; preds = %104, %100, %65, %88
  %112 = phi i32* [ %89, %88 ], [ null, %65 ], [ %89, %100 ], [ %89, %104 ]
  %113 = phi i32 [ %90, %88 ], [ %60, %65 ], [ %90, %100 ], [ %90, %104 ]
  %114 = phi i32* [ %69, %88 ], [ %23, %65 ], [ %69, %100 ], [ %69, %104 ]
  %115 = getelementptr inbounds %"class.std::map", %"class.std::map"* %9, i64 0, i32 0, i32 0, i32 0, i32 0, i32 0
  call void @llvm.lifetime.start.p0i8(i64 48, i8* nonnull %115) #14
  %116 = getelementptr inbounds i8, i8* %115, i64 8
  %117 = bitcast i8* %116 to i32*
  store i32 0, i32* %117, align 8, !tbaa !12
  %118 = getelementptr inbounds i8, i8* %115, i64 16
  %119 = bitcast i8* %118 to %"struct.std::_Rb_tree_node_base"**
  store %"struct.std::_Rb_tree_node_base"* null, %"struct.std::_Rb_tree_node_base"** %119, align 8, !tbaa !18
  %120 = getelementptr inbounds i8, i8* %115, i64 24
  %121 = bitcast i8* %120 to i8**
  store i8* %116, i8** %121, align 8, !tbaa !19
  %122 = getelementptr inbounds i8, i8* %115, i64 32
  %123 = bitcast i8* %122 to i8**
  store i8* %116, i8** %123, align 8, !tbaa !20
  %124 = getelementptr inbounds i8, i8* %115, i64 40
  %125 = bitcast i8* %124 to i64*
  store i64 0, i64* %125, align 8, !tbaa !21
  %126 = bitcast i8* %118 to %"struct.std::_Rb_tree_node"**
  %127 = bitcast i8* %116 to %"struct.std::_Rb_tree_node_base"*
  %128 = getelementptr inbounds %"class.std::map", %"class.std::map"* %9, i64 0, i32 0
  %129 = bitcast %"class.std::tuple"* %5 to i8*
  %130 = getelementptr inbounds %"class.std::tuple", %"class.std::tuple"* %5, i64 0, i32 0, i32 0, i32 0
  %131 = getelementptr inbounds %"class.std::tuple.3", %"class.std::tuple.3"* %6, i64 0, i32 0
  %132 = bitcast %"class.std::tuple"* %3 to i8*
  %133 = getelementptr inbounds %"class.std::tuple", %"class.std::tuple"* %3, i64 0, i32 0, i32 0, i32 0
  %134 = getelementptr inbounds %"class.std::tuple.3", %"class.std::tuple.3"* %4, i64 0, i32 0
  %135 = bitcast %"class.std::tuple"* %1 to i8*
  %136 = getelementptr inbounds %"class.std::tuple", %"class.std::tuple"* %1, i64 0, i32 0, i32 0, i32 0
  %137 = getelementptr inbounds %"class.std::tuple.3", %"class.std::tuple.3"* %2, i64 0, i32 0
  %138 = icmp slt i32 %113, 0
  br i1 %138, label %160, label %163

139:                                              ; preds = %68, %63
  %140 = phi i32* [ %69, %68 ], [ %23, %63 ]
  %141 = landingpad { i8*, i32 }
          cleanup
  br label %352

142:                                              ; preds = %142, %98
  %143 = phi i32 [ %95, %98 ], [ %155, %142 ]
  %144 = phi i64 [ 0, %98 ], [ %156, %142 ]
  %145 = phi i64 [ %99, %98 ], [ %158, %142 ]
  %146 = getelementptr inbounds i32, i32* %69, i64 %144
  %147 = load i32, i32* %146, align 4, !tbaa !5
  %148 = add nsw i32 %147, %143
  %149 = srem i32 %148, %91
  %150 = or i64 %144, 1
  %151 = getelementptr inbounds i32, i32* %89, i64 %150
  store i32 %149, i32* %151, align 4, !tbaa !5
  %152 = getelementptr inbounds i32, i32* %69, i64 %150
  %153 = load i32, i32* %152, align 4, !tbaa !5
  %154 = add nsw i32 %153, %149
  %155 = srem i32 %154, %91
  %156 = add nuw nsw i64 %144, 2
  %157 = getelementptr inbounds i32, i32* %89, i64 %156
  store i32 %155, i32* %157, align 4, !tbaa !5
  %158 = add i64 %145, -2
  %159 = icmp eq i64 %158, 0
  br i1 %159, label %100, label %142, !llvm.loop !22

160:                                              ; preds = %291, %111
  %161 = phi i64 [ 0, %111 ], [ %208, %291 ]
  %162 = invoke nonnull align 8 dereferenceable(8) %"class.std::basic_ostream"* @_ZNSo9_M_insertIxEERSoT_(%"class.std::basic_ostream"* nonnull align 8 dereferenceable(8) @_ZSt4cout, i64 %161)
          to label %298 unwind label %345

163:                                              ; preds = %111, %295
  %164 = phi %"struct.std::_Rb_tree_node"* [ %297, %295 ], [ null, %111 ]
  %165 = phi i64 [ %296, %295 ], [ 0, %111 ]
  %166 = phi i64 [ %208, %295 ], [ 0, %111 ]
  %167 = getelementptr inbounds i32, i32* %112, i64 %165
  %168 = load i32, i32* %167, align 4
  %169 = icmp eq %"struct.std::_Rb_tree_node"* %164, null
  br i1 %169, label %193, label %170

170:                                              ; preds = %163, %170
  %171 = phi %"struct.std::_Rb_tree_node"* [ %183, %170 ], [ %164, %163 ]
  %172 = phi %"struct.std::_Rb_tree_node_base"* [ %180, %170 ], [ %127, %163 ]
  %173 = getelementptr inbounds %"struct.std::_Rb_tree_node", %"struct.std::_Rb_tree_node"* %171, i64 0, i32 1
  %174 = bitcast %"struct.__gnu_cxx::__aligned_membuf"* %173 to i32*
  %175 = load i32, i32* %174, align 4, !tbaa !5
  %176 = icmp slt i32 %175, %168
  %177 = getelementptr inbounds %"struct.std::_Rb_tree_node", %"struct.std::_Rb_tree_node"* %171, i64 0, i32 0, i32 3
  %178 = getelementptr %"struct.std::_Rb_tree_node", %"struct.std::_Rb_tree_node"* %171, i64 0, i32 0
  %179 = getelementptr inbounds %"struct.std::_Rb_tree_node", %"struct.std::_Rb_tree_node"* %171, i64 0, i32 0, i32 2
  %180 = select i1 %176, %"struct.std::_Rb_tree_node_base"* %172, %"struct.std::_Rb_tree_node_base"* %178
  %181 = select i1 %176, %"struct.std::_Rb_tree_node_base"** %177, %"struct.std::_Rb_tree_node_base"** %179
  %182 = bitcast %"struct.std::_Rb_tree_node_base"** %181 to %"struct.std::_Rb_tree_node"**
  %183 = load %"struct.std::_Rb_tree_node"*, %"struct.std::_Rb_tree_node"** %182, align 8, !tbaa !23
  %184 = icmp eq %"struct.std::_Rb_tree_node"* %183, null
  br i1 %184, label %185, label %170, !llvm.loop !24

185:                                              ; preds = %170
  %186 = icmp eq %"struct.std::_Rb_tree_node_base"* %180, %127
  br i1 %186, label %193, label %187

187:                                              ; preds = %185
  %188 = getelementptr inbounds %"struct.std::_Rb_tree_node_base", %"struct.std::_Rb_tree_node_base"* %172, i64 1, i32 0
  %189 = getelementptr inbounds %"struct.std::_Rb_tree_node_base", %"struct.std::_Rb_tree_node_base"* %178, i64 1, i32 0
  %190 = select i1 %176, i32* %188, i32* %189
  %191 = load i32, i32* %190, align 4, !tbaa !5
  %192 = icmp slt i32 %168, %191
  br i1 %192, label %193, label %199

193:                                              ; preds = %187, %185, %163
  %194 = phi %"struct.std::_Rb_tree_node_base"* [ %180, %187 ], [ %127, %185 ], [ %127, %163 ]
  call void @llvm.lifetime.start.p0i8(i64 8, i8* nonnull %129) #14
  store i32* %167, i32** %130, align 8, !tbaa !23
  call void @llvm.lifetime.start.p0i8(i64 1, i8* nonnull %131) #14
  %195 = invoke %"struct.std::_Rb_tree_node_base"* @_ZNSt8_Rb_treeIiSt4pairIKiiESt10_Select1stIS2_ESt4lessIiESaIS2_EE22_M_emplace_hint_uniqueIJRKSt21piecewise_construct_tSt5tupleIJRS1_EESD_IJEEEEESt17_Rb_tree_iteratorIS2_ESt23_Rb_tree_const_iteratorIS2_EDpOT_(%"class.std::_Rb_tree"* nonnull align 8 dereferenceable(48) %128, %"struct.std::_Rb_tree_node_base"* %194, %"struct.std::piecewise_construct_t"* nonnull align 1 dereferenceable(1) @_ZStL19piecewise_construct, %"class.std::tuple"* nonnull align 8 dereferenceable(8) %5, %"class.std::tuple.3"* nonnull align 1 dereferenceable(1) %6)
          to label %196 unwind label %289

196:                                              ; preds = %193
  call void @llvm.lifetime.end.p0i8(i64 1, i8* nonnull %131) #14
  call void @llvm.lifetime.end.p0i8(i64 8, i8* nonnull %129) #14
  %197 = load %"struct.std::_Rb_tree_node"*, %"struct.std::_Rb_tree_node"** %126, align 8, !tbaa !18
  %198 = load i32, i32* %167, align 4
  br label %199

199:                                              ; preds = %196, %187
  %200 = phi i32 [ %198, %196 ], [ %168, %187 ]
  %201 = phi %"struct.std::_Rb_tree_node"* [ %197, %196 ], [ %164, %187 ]
  %202 = phi %"struct.std::_Rb_tree_node_base"* [ %195, %196 ], [ %180, %187 ]
  %203 = getelementptr inbounds %"struct.std::_Rb_tree_node_base", %"struct.std::_Rb_tree_node_base"* %202, i64 1
  %204 = bitcast %"struct.std::_Rb_tree_node_base"* %203 to %"struct.std::pair"*
  %205 = getelementptr inbounds %"struct.std::pair", %"struct.std::pair"* %204, i64 0, i32 1
  %206 = load i32, i32* %205, align 4, !tbaa !5
  %207 = sext i32 %206 to i64
  %208 = add nsw i64 %166, %207
  %209 = icmp eq %"struct.std::_Rb_tree_node"* %201, null
  br i1 %209, label %233, label %210

210:                                              ; preds = %199, %210
  %211 = phi %"struct.std::_Rb_tree_node"* [ %223, %210 ], [ %201, %199 ]
  %212 = phi %"struct.std::_Rb_tree_node_base"* [ %220, %210 ], [ %127, %199 ]
  %213 = getelementptr inbounds %"struct.std::_Rb_tree_node", %"struct.std::_Rb_tree_node"* %211, i64 0, i32 1
  %214 = bitcast %"struct.__gnu_cxx::__aligned_membuf"* %213 to i32*
  %215 = load i32, i32* %214, align 4, !tbaa !5
  %216 = icmp slt i32 %215, %200
  %217 = getelementptr inbounds %"struct.std::_Rb_tree_node", %"struct.std::_Rb_tree_node"* %211, i64 0, i32 0, i32 3
  %218 = getelementptr %"struct.std::_Rb_tree_node", %"struct.std::_Rb_tree_node"* %211, i64 0, i32 0
  %219 = getelementptr inbounds %"struct.std::_Rb_tree_node", %"struct.std::_Rb_tree_node"* %211, i64 0, i32 0, i32 2
  %220 = select i1 %216, %"struct.std::_Rb_tree_node_base"* %212, %"struct.std::_Rb_tree_node_base"* %218
  %221 = select i1 %216, %"struct.std::_Rb_tree_node_base"** %217, %"struct.std::_Rb_tree_node_base"** %219
  %222 = bitcast %"struct.std::_Rb_tree_node_base"** %221 to %"struct.std::_Rb_tree_node"**
  %223 = load %"struct.std::_Rb_tree_node"*, %"struct.std::_Rb_tree_node"** %222, align 8, !tbaa !23
  %224 = icmp eq %"struct.std::_Rb_tree_node"* %223, null
  br i1 %224, label %225, label %210, !llvm.loop !24

225:                                              ; preds = %210
  %226 = icmp eq %"struct.std::_Rb_tree_node_base"* %220, %127
  br i1 %226, label %233, label %227

227:                                              ; preds = %225
  %228 = getelementptr inbounds %"struct.std::_Rb_tree_node_base", %"struct.std::_Rb_tree_node_base"* %212, i64 1, i32 0
  %229 = getelementptr inbounds %"struct.std::_Rb_tree_node_base", %"struct.std::_Rb_tree_node_base"* %218, i64 1, i32 0
  %230 = select i1 %216, i32* %228, i32* %229
  %231 = load i32, i32* %230, align 4, !tbaa !5
  %232 = icmp slt i32 %200, %231
  br i1 %232, label %233, label %237

233:                                              ; preds = %227, %225, %199
  %234 = phi %"struct.std::_Rb_tree_node_base"* [ %220, %227 ], [ %127, %225 ], [ %127, %199 ]
  call void @llvm.lifetime.start.p0i8(i64 8, i8* nonnull %132) #14
  store i32* %167, i32** %133, align 8, !tbaa !23
  call void @llvm.lifetime.start.p0i8(i64 1, i8* nonnull %134) #14
  %235 = invoke %"struct.std::_Rb_tree_node_base"* @_ZNSt8_Rb_treeIiSt4pairIKiiESt10_Select1stIS2_ESt4lessIiESaIS2_EE22_M_emplace_hint_uniqueIJRKSt21piecewise_construct_tSt5tupleIJRS1_EESD_IJEEEEESt17_Rb_tree_iteratorIS2_ESt23_Rb_tree_const_iteratorIS2_EDpOT_(%"class.std::_Rb_tree"* nonnull align 8 dereferenceable(48) %128, %"struct.std::_Rb_tree_node_base"* %234, %"struct.std::piecewise_construct_t"* nonnull align 1 dereferenceable(1) @_ZStL19piecewise_construct, %"class.std::tuple"* nonnull align 8 dereferenceable(8) %3, %"class.std::tuple.3"* nonnull align 1 dereferenceable(1) %4)
          to label %236 unwind label %289

236:                                              ; preds = %233
  call void @llvm.lifetime.end.p0i8(i64 1, i8* nonnull %134) #14
  call void @llvm.lifetime.end.p0i8(i64 8, i8* nonnull %132) #14
  br label %237

237:                                              ; preds = %236, %227
  %238 = phi %"struct.std::_Rb_tree_node_base"* [ %235, %236 ], [ %220, %227 ]
  %239 = getelementptr inbounds %"struct.std::_Rb_tree_node_base", %"struct.std::_Rb_tree_node_base"* %238, i64 1
  %240 = bitcast %"struct.std::_Rb_tree_node_base"* %239 to %"struct.std::pair"*
  %241 = getelementptr inbounds %"struct.std::pair", %"struct.std::pair"* %240, i64 0, i32 1
  %242 = load i32, i32* %241, align 4, !tbaa !5
  %243 = add nsw i32 %242, 1
  store i32 %243, i32* %241, align 4, !tbaa !5
  %244 = load i32, i32* %8, align 4, !tbaa !5
  %245 = trunc i64 %165 to i32
  %246 = sub nsw i32 %245, %244
  %247 = icmp sgt i32 %246, -2
  br i1 %247, label %248, label %291

248:                                              ; preds = %237
  %249 = add nsw i32 %246, 1
  %250 = zext i32 %249 to i64
  %251 = getelementptr inbounds i32, i32* %112, i64 %250
  %252 = load %"struct.std::_Rb_tree_node"*, %"struct.std::_Rb_tree_node"** %126, align 8, !tbaa !18
  %253 = load i32, i32* %251, align 4
  %254 = icmp eq %"struct.std::_Rb_tree_node"* %252, null
  br i1 %254, label %278, label %255

255:                                              ; preds = %248, %255
  %256 = phi %"struct.std::_Rb_tree_node"* [ %268, %255 ], [ %252, %248 ]
  %257 = phi %"struct.std::_Rb_tree_node_base"* [ %265, %255 ], [ %127, %248 ]
  %258 = getelementptr inbounds %"struct.std::_Rb_tree_node", %"struct.std::_Rb_tree_node"* %256, i64 0, i32 1
  %259 = bitcast %"struct.__gnu_cxx::__aligned_membuf"* %258 to i32*
  %260 = load i32, i32* %259, align 4, !tbaa !5
  %261 = icmp slt i32 %260, %253
  %262 = getelementptr inbounds %"struct.std::_Rb_tree_node", %"struct.std::_Rb_tree_node"* %256, i64 0, i32 0, i32 3
  %263 = getelementptr %"struct.std::_Rb_tree_node", %"struct.std::_Rb_tree_node"* %256, i64 0, i32 0
  %264 = getelementptr inbounds %"struct.std::_Rb_tree_node", %"struct.std::_Rb_tree_node"* %256, i64 0, i32 0, i32 2
  %265 = select i1 %261, %"struct.std::_Rb_tree_node_base"* %257, %"struct.std::_Rb_tree_node_base"* %263
  %266 = select i1 %261, %"struct.std::_Rb_tree_node_base"** %262, %"struct.std::_Rb_tree_node_base"** %264
  %267 = bitcast %"struct.std::_Rb_tree_node_base"** %266 to %"struct.std::_Rb_tree_node"**
  %268 = load %"struct.std::_Rb_tree_node"*, %"struct.std::_Rb_tree_node"** %267, align 8, !tbaa !23
  %269 = icmp eq %"struct.std::_Rb_tree_node"* %268, null
  br i1 %269, label %270, label %255, !llvm.loop !24

270:                                              ; preds = %255
  %271 = icmp eq %"struct.std::_Rb_tree_node_base"* %265, %127
  br i1 %271, label %278, label %272

272:                                              ; preds = %270
  %273 = getelementptr inbounds %"struct.std::_Rb_tree_node_base", %"struct.std::_Rb_tree_node_base"* %257, i64 1, i32 0
  %274 = getelementptr inbounds %"struct.std::_Rb_tree_node_base", %"struct.std::_Rb_tree_node_base"* %263, i64 1, i32 0
  %275 = select i1 %261, i32* %273, i32* %274
  %276 = load i32, i32* %275, align 4, !tbaa !5
  %277 = icmp slt i32 %253, %276
  br i1 %277, label %278, label %282

278:                                              ; preds = %272, %270, %248
  %279 = phi %"struct.std::_Rb_tree_node_base"* [ %265, %272 ], [ %127, %270 ], [ %127, %248 ]
  call void @llvm.lifetime.start.p0i8(i64 8, i8* nonnull %135) #14
  store i32* %251, i32** %136, align 8, !tbaa !23
  call void @llvm.lifetime.start.p0i8(i64 1, i8* nonnull %137) #14
  %280 = invoke %"struct.std::_Rb_tree_node_base"* @_ZNSt8_Rb_treeIiSt4pairIKiiESt10_Select1stIS2_ESt4lessIiESaIS2_EE22_M_emplace_hint_uniqueIJRKSt21piecewise_construct_tSt5tupleIJRS1_EESD_IJEEEEESt17_Rb_tree_iteratorIS2_ESt23_Rb_tree_const_iteratorIS2_EDpOT_(%"class.std::_Rb_tree"* nonnull align 8 dereferenceable(48) %128, %"struct.std::_Rb_tree_node_base"* %279, %"struct.std::piecewise_construct_t"* nonnull align 1 dereferenceable(1) @_ZStL19piecewise_construct, %"class.std::tuple"* nonnull align 8 dereferenceable(8) %1, %"class.std::tuple.3"* nonnull align 1 dereferenceable(1) %2)
          to label %281 unwind label %289

281:                                              ; preds = %278
  call void @llvm.lifetime.end.p0i8(i64 1, i8* nonnull %137) #14
  call void @llvm.lifetime.end.p0i8(i64 8, i8* nonnull %135) #14
  br label %282

282:                                              ; preds = %281, %272
  %283 = phi %"struct.std::_Rb_tree_node_base"* [ %280, %281 ], [ %265, %272 ]
  %284 = getelementptr inbounds %"struct.std::_Rb_tree_node_base", %"struct.std::_Rb_tree_node_base"* %283, i64 1
  %285 = bitcast %"struct.std::_Rb_tree_node_base"* %284 to %"struct.std::pair"*
  %286 = getelementptr inbounds %"struct.std::pair", %"struct.std::pair"* %285, i64 0, i32 1
  %287 = load i32, i32* %286, align 4, !tbaa !5
  %288 = add nsw i32 %287, -1
  store i32 %288, i32* %286, align 4, !tbaa !5
  br label %291

289:                                              ; preds = %278, %233, %193
  %290 = landingpad { i8*, i32 }
          cleanup
  br label %347

291:                                              ; preds = %237, %282
  %292 = load i32, i32* %7, align 4, !tbaa !5
  %293 = sext i32 %292 to i64
  %294 = icmp slt i64 %165, %293
  br i1 %294, label %295, label %160, !llvm.loop !25

295:                                              ; preds = %291
  %296 = add nuw nsw i64 %165, 1
  %297 = load %"struct.std::_Rb_tree_node"*, %"struct.std::_Rb_tree_node"** %126, align 8, !tbaa !18
  br label %163

298:                                              ; preds = %160
  %299 = bitcast %"class.std::basic_ostream"* %162 to i8**
  %300 = load i8*, i8** %299, align 8, !tbaa !26
  %301 = getelementptr i8, i8* %300, i64 -24
  %302 = bitcast i8* %301 to i64*
  %303 = load i64, i64* %302, align 8
  %304 = bitcast %"class.std::basic_ostream"* %162 to i8*
  %305 = add nsw i64 %303, 240
  %306 = getelementptr inbounds i8, i8* %304, i64 %305
  %307 = bitcast i8* %306 to %"class.std::ctype"**
  %308 = load %"class.std::ctype"*, %"class.std::ctype"** %307, align 8, !tbaa !28
  %309 = icmp eq %"class.std::ctype"* %308, null
  br i1 %309, label %310, label %312

310:                                              ; preds = %298
  invoke void @_ZSt16__throw_bad_castv() #15
          to label %311 unwind label %345

311:                                              ; preds = %310
  unreachable

312:                                              ; preds = %298
  %313 = getelementptr inbounds %"class.std::ctype", %"class.std::ctype"* %308, i64 0, i32 8
  %314 = load i8, i8* %313, align 8, !tbaa !31
  %315 = icmp eq i8 %314, 0
  br i1 %315, label %319, label %316

316:                                              ; preds = %312
  %317 = getelementptr inbounds %"class.std::ctype", %"class.std::ctype"* %308, i64 0, i32 9, i64 10
  %318 = load i8, i8* %317, align 1, !tbaa !33
  br label %326

319:                                              ; preds = %312
  invoke void @_ZNKSt5ctypeIcE13_M_widen_initEv(%"class.std::ctype"* nonnull align 8 dereferenceable(570) %308)
          to label %320 unwind label %345

320:                                              ; preds = %319
  %321 = bitcast %"class.std::ctype"* %308 to i8 (%"class.std::ctype"*, i8)***
  %322 = load i8 (%"class.std::ctype"*, i8)**, i8 (%"class.std::ctype"*, i8)*** %321, align 8, !tbaa !26
  %323 = getelementptr inbounds i8 (%"class.std::ctype"*, i8)*, i8 (%"class.std::ctype"*, i8)** %322, i64 6
  %324 = load i8 (%"class.std::ctype"*, i8)*, i8 (%"class.std::ctype"*, i8)** %323, align 8
  %325 = invoke signext i8 %324(%"class.std::ctype"* nonnull align 8 dereferenceable(570) %308, i8 signext 10)
          to label %326 unwind label %345

326:                                              ; preds = %320, %316
  %327 = phi i8 [ %318, %316 ], [ %325, %320 ]
  %328 = invoke nonnull align 8 dereferenceable(8) %"class.std::basic_ostream"* @_ZNSo3putEc(%"class.std::basic_ostream"* nonnull align 8 dereferenceable(8) %162, i8 signext %327)
          to label %329 unwind label %345

329:                                              ; preds = %326
  %330 = invoke nonnull align 8 dereferenceable(8) %"class.std::basic_ostream"* @_ZNSo5flushEv(%"class.std::basic_ostream"* nonnull align 8 dereferenceable(8) %328)
          to label %331 unwind label %345

331:                                              ; preds = %329
  %332 = load %"struct.std::_Rb_tree_node"*, %"struct.std::_Rb_tree_node"** %126, align 8, !tbaa !18
  invoke void @_ZNSt8_Rb_treeIiSt4pairIKiiESt10_Select1stIS2_ESt4lessIiESaIS2_EE8_M_eraseEPSt13_Rb_tree_nodeIS2_E(%"class.std::_Rb_tree"* nonnull align 8 dereferenceable(48) %128, %"struct.std::_Rb_tree_node"* %332)
          to label %336 unwind label %333

333:                                              ; preds = %331
  %334 = landingpad { i8*, i32 }
          catch i8* null
  %335 = extractvalue { i8*, i32 } %334, 0
  call void @__clang_call_terminate(i8* %335) #17
  unreachable

336:                                              ; preds = %331
  call void @llvm.lifetime.end.p0i8(i64 48, i8* nonnull %115) #14
  %337 = icmp eq i32* %112, null
  br i1 %337, label %340, label %338

338:                                              ; preds = %336
  %339 = bitcast i32* %112 to i8*
  call void @_ZdlPv(i8* nonnull %339) #14
  br label %340

340:                                              ; preds = %336, %338
  %341 = icmp eq i32* %114, null
  br i1 %341, label %344, label %342

342:                                              ; preds = %340
  %343 = bitcast i32* %114 to i8*
  call void @_ZdlPv(i8* nonnull %343) #14
  br label %344

344:                                              ; preds = %340, %342
  call void @llvm.lifetime.end.p0i8(i64 4, i8* nonnull %11) #14
  call void @llvm.lifetime.end.p0i8(i64 4, i8* nonnull %10) #14
  ret i32 0

345:                                              ; preds = %329, %326, %320, %319, %310, %160
  %346 = landingpad { i8*, i32 }
          cleanup
  br label %347

347:                                              ; preds = %345, %289
  %348 = phi { i8*, i32 } [ %290, %289 ], [ %346, %345 ]
  call void @_ZNSt8_Rb_treeIiSt4pairIKiiESt10_Select1stIS2_ESt4lessIiESaIS2_EED2Ev(%"class.std::_Rb_tree"* nonnull align 8 dereferenceable(48) %128) #14
  call void @llvm.lifetime.end.p0i8(i64 48, i8* nonnull %115) #14
  %349 = icmp eq i32* %112, null
  br i1 %349, label %352, label %350

350:                                              ; preds = %347
  %351 = bitcast i32* %112 to i8*
  call void @_ZdlPv(i8* nonnull %351) #14
  br label %352

352:                                              ; preds = %139, %347, %350
  %353 = phi i32* [ %140, %139 ], [ %114, %347 ], [ %114, %350 ]
  %354 = phi { i8*, i32 } [ %141, %139 ], [ %348, %347 ], [ %348, %350 ]
  %355 = icmp eq i32* %353, null
  br i1 %355, label %360, label %356

356:                                              ; preds = %49, %352
  %357 = phi { i8*, i32 } [ %50, %49 ], [ %354, %352 ]
  %358 = phi i32* [ %23, %49 ], [ %353, %352 ]
  %359 = bitcast i32* %358 to i8*
  call void @_ZdlPv(i8* nonnull %359) #14
  br label %360

360:                                              ; preds = %356, %352
  %361 = phi { i8*, i32 } [ %357, %356 ], [ %354, %352 ]
  call void @llvm.lifetime.end.p0i8(i64 4, i8* nonnull %11) #14
  call void @llvm.lifetime.end.p0i8(i64 4, i8* nonnull %10) #14
  resume { i8*, i32 } %361
}

; Function Attrs: argmemonly mustprogress nofree nosync nounwind willreturn
declare void @llvm.lifetime.start.p0i8(i64 immarg, i8* nocapture) #4

declare nonnull align 8 dereferenceable(16) %"class.std::basic_istream"* @_ZNSirsERi(%"class.std::basic_istream"* nonnull align 8 dereferenceable(16), i32* nonnull align 4 dereferenceable(4)) local_unnamed_addr #0

declare i32 @__gxx_personality_v0(...)

; Function Attrs: argmemonly mustprogress nofree nosync nounwind willreturn
declare void @llvm.lifetime.end.p0i8(i64 immarg, i8* nocapture) #4

; Function Attrs: noinline noreturn nounwind
define linkonce_odr hidden void @__clang_call_terminate(i8* %0) local_unnamed_addr #5 comdat {
  %2 = tail call i8* @__cxa_begin_catch(i8* %0) #14
  tail call void @_ZSt9terminatev() #17
  unreachable
}

declare i8* @__cxa_begin_catch(i8*) local_unnamed_addr

declare void @_ZSt9terminatev() local_unnamed_addr

; Function Attrs: nounwind sspstrong uwtable
define linkonce_odr dso_local void @_ZNSt8_Rb_treeIiSt4pairIKiiESt10_Select1stIS2_ESt4lessIiESaIS2_EED2Ev(%"class.std::_Rb_tree"* nonnull align 8 dereferenceable(48) %0) unnamed_addr #6 comdat align 2 personality i8* bitcast (i32 (...)* @__gxx_personality_v0 to i8*) {
  %2 = getelementptr inbounds %"class.std::_Rb_tree", %"class.std::_Rb_tree"* %0, i64 0, i32 0, i32 0, i32 0, i32 0
  %3 = getelementptr inbounds i8, i8* %2, i64 16
  %4 = bitcast i8* %3 to %"struct.std::_Rb_tree_node"**
  %5 = load %"struct.std::_Rb_tree_node"*, %"struct.std::_Rb_tree_node"** %4, align 8, !tbaa !18
  invoke void @_ZNSt8_Rb_treeIiSt4pairIKiiESt10_Select1stIS2_ESt4lessIiESaIS2_EE8_M_eraseEPSt13_Rb_tree_nodeIS2_E(%"class.std::_Rb_tree"* nonnull align 8 dereferenceable(48) %0, %"struct.std::_Rb_tree_node"* %5)
          to label %6 unwind label %7

6:                                                ; preds = %1
  ret void

7:                                                ; preds = %1
  %8 = landingpad { i8*, i32 }
          catch i8* null
  %9 = extractvalue { i8*, i32 } %8, 0
  tail call void @__clang_call_terminate(i8* %9) #17
  unreachable
}

; Function Attrs: mustprogress sspstrong uwtable
define linkonce_odr dso_local void @_ZNSt8_Rb_treeIiSt4pairIKiiESt10_Select1stIS2_ESt4lessIiESaIS2_EE8_M_eraseEPSt13_Rb_tree_nodeIS2_E(%"class.std::_Rb_tree"* nonnull align 8 dereferenceable(48) %0, %"struct.std::_Rb_tree_node"* %1) local_unnamed_addr #7 comdat align 2 personality i32 (...)* @__gxx_personality_v0 {
  %3 = icmp eq %"struct.std::_Rb_tree_node"* %1, null
  br i1 %3, label %14, label %4

4:                                                ; preds = %2, %4
  %5 = phi %"struct.std::_Rb_tree_node"* [ %11, %4 ], [ %1, %2 ]
  %6 = getelementptr inbounds %"struct.std::_Rb_tree_node", %"struct.std::_Rb_tree_node"* %5, i64 0, i32 0, i32 3
  %7 = bitcast %"struct.std::_Rb_tree_node_base"** %6 to %"struct.std::_Rb_tree_node"**
  %8 = load %"struct.std::_Rb_tree_node"*, %"struct.std::_Rb_tree_node"** %7, align 8, !tbaa !34
  tail call void @_ZNSt8_Rb_treeIiSt4pairIKiiESt10_Select1stIS2_ESt4lessIiESaIS2_EE8_M_eraseEPSt13_Rb_tree_nodeIS2_E(%"class.std::_Rb_tree"* nonnull align 8 dereferenceable(48) %0, %"struct.std::_Rb_tree_node"* %8)
  %9 = getelementptr inbounds %"struct.std::_Rb_tree_node", %"struct.std::_Rb_tree_node"* %5, i64 0, i32 0, i32 2
  %10 = bitcast %"struct.std::_Rb_tree_node_base"** %9 to %"struct.std::_Rb_tree_node"**
  %11 = load %"struct.std::_Rb_tree_node"*, %"struct.std::_Rb_tree_node"** %10, align 8, !tbaa !35
  %12 = bitcast %"struct.std::_Rb_tree_node"* %5 to i8*
  tail call void @_ZdlPv(i8* nonnull %12) #14
  %13 = icmp eq %"struct.std::_Rb_tree_node"* %11, null
  br i1 %13, label %14, label %4, !llvm.loop !36

14:                                               ; preds = %4, %2
  ret void
}

; Function Attrs: nobuiltin nounwind
declare void @_ZdlPv(i8*) local_unnamed_addr #8

; Function Attrs: noreturn
declare void @_ZSt20__throw_length_errorPKc(i8*) local_unnamed_addr #9

; Function Attrs: nobuiltin allocsize(0)
declare nonnull i8* @_Znwm(i64) local_unnamed_addr #10

; Function Attrs: sspstrong uwtable
define linkonce_odr dso_local %"struct.std::_Rb_tree_node_base"* @_ZNSt8_Rb_treeIiSt4pairIKiiESt10_Select1stIS2_ESt4lessIiESaIS2_EE22_M_emplace_hint_uniqueIJRKSt21piecewise_construct_tSt5tupleIJRS1_EESD_IJEEEEESt17_Rb_tree_iteratorIS2_ESt23_Rb_tree_const_iteratorIS2_EDpOT_(%"class.std::_Rb_tree"* nonnull align 8 dereferenceable(48) %0, %"struct.std::_Rb_tree_node_base"* %1, %"struct.std::piecewise_construct_t"* nonnull align 1 dereferenceable(1) %2, %"class.std::tuple"* nonnull align 8 dereferenceable(8) %3, %"class.std::tuple.3"* nonnull align 1 dereferenceable(1) %4) local_unnamed_addr #11 comdat align 2 personality i8* bitcast (i32 (...)* @__gxx_personality_v0 to i8*) {
  %6 = tail call noalias nonnull i8* @_Znwm(i64 40) #16
  %7 = getelementptr inbounds i8, i8* %6, i64 32
  %8 = getelementptr inbounds %"class.std::tuple", %"class.std::tuple"* %3, i64 0, i32 0, i32 0, i32 0
  %9 = load i32*, i32** %8, align 8, !tbaa !37
  %10 = bitcast i8* %7 to i32*
  %11 = load i32, i32* %9, align 4, !tbaa !5
  store i32 %11, i32* %10, align 4, !tbaa !39
  %12 = getelementptr inbounds i8, i8* %6, i64 36
  %13 = bitcast i8* %12 to i32*
  store i32 0, i32* %13, align 4, !tbaa !41
  %14 = invoke { %"struct.std::_Rb_tree_node_base"*, %"struct.std::_Rb_tree_node_base"* } @_ZNSt8_Rb_treeIiSt4pairIKiiESt10_Select1stIS2_ESt4lessIiESaIS2_EE29_M_get_insert_hint_unique_posESt23_Rb_tree_const_iteratorIS2_ERS1_(%"class.std::_Rb_tree"* nonnull align 8 dereferenceable(48) %0, %"struct.std::_Rb_tree_node_base"* %1, i32* nonnull align 4 dereferenceable(4) %10)
          to label %15 unwind label %41

15:                                               ; preds = %5
  %16 = extractvalue { %"struct.std::_Rb_tree_node_base"*, %"struct.std::_Rb_tree_node_base"* } %14, 0
  %17 = extractvalue { %"struct.std::_Rb_tree_node_base"*, %"struct.std::_Rb_tree_node_base"* } %14, 1
  %18 = icmp eq %"struct.std::_Rb_tree_node_base"* %17, null
  br i1 %18, label %45, label %19

19:                                               ; preds = %15
  %20 = icmp eq %"struct.std::_Rb_tree_node_base"* %16, null
  br i1 %20, label %21, label %31

21:                                               ; preds = %19
  %22 = getelementptr inbounds %"class.std::_Rb_tree", %"class.std::_Rb_tree"* %0, i64 0, i32 0, i32 0, i32 0, i32 0
  %23 = getelementptr inbounds i8, i8* %22, i64 8
  %24 = bitcast i8* %23 to %"struct.std::_Rb_tree_node_base"*
  %25 = icmp eq %"struct.std::_Rb_tree_node_base"* %17, %24
  br i1 %25, label %31, label %26

26:                                               ; preds = %21
  %27 = getelementptr inbounds %"struct.std::_Rb_tree_node_base", %"struct.std::_Rb_tree_node_base"* %17, i64 1, i32 0
  %28 = load i32, i32* %10, align 4, !tbaa !5
  %29 = load i32, i32* %27, align 4, !tbaa !5
  %30 = icmp slt i32 %28, %29
  br label %31

31:                                               ; preds = %19, %26, %21
  %32 = phi i1 [ true, %21 ], [ %30, %26 ], [ true, %19 ]
  %33 = bitcast i8* %6 to %"struct.std::_Rb_tree_node_base"*
  %34 = getelementptr inbounds %"class.std::_Rb_tree", %"class.std::_Rb_tree"* %0, i64 0, i32 0, i32 0, i32 0, i32 0
  %35 = getelementptr inbounds i8, i8* %34, i64 8
  %36 = bitcast i8* %35 to %"struct.std::_Rb_tree_node_base"*
  tail call void @_ZSt29_Rb_tree_insert_and_rebalancebPSt18_Rb_tree_node_baseS0_RS_(i1 zeroext %32, %"struct.std::_Rb_tree_node_base"* nonnull %33, %"struct.std::_Rb_tree_node_base"* nonnull %17, %"struct.std::_Rb_tree_node_base"* nonnull align 8 dereferenceable(32) %36) #14
  %37 = getelementptr inbounds i8, i8* %34, i64 40
  %38 = bitcast i8* %37 to i64*
  %39 = load i64, i64* %38, align 8, !tbaa !21
  %40 = add i64 %39, 1
  store i64 %40, i64* %38, align 8, !tbaa !21
  br label %46

41:                                               ; preds = %5
  %42 = landingpad { i8*, i32 }
          catch i8* null
  %43 = extractvalue { i8*, i32 } %42, 0
  %44 = tail call i8* @__cxa_begin_catch(i8* %43) #14
  tail call void @_ZdlPv(i8* nonnull %6) #14
  invoke void @__cxa_rethrow() #15
          to label %54 unwind label %48

45:                                               ; preds = %15
  tail call void @_ZdlPv(i8* nonnull %6) #14
  br label %46

46:                                               ; preds = %45, %31
  %47 = phi %"struct.std::_Rb_tree_node_base"* [ %16, %45 ], [ %33, %31 ]
  ret %"struct.std::_Rb_tree_node_base"* %47

48:                                               ; preds = %41
  %49 = landingpad { i8*, i32 }
          cleanup
  invoke void @__cxa_end_catch()
          to label %50 unwind label %51

50:                                               ; preds = %48
  resume { i8*, i32 } %49

51:                                               ; preds = %48
  %52 = landingpad { i8*, i32 }
          catch i8* null
  %53 = extractvalue { i8*, i32 } %52, 0
  tail call void @__clang_call_terminate(i8* %53) #17
  unreachable

54:                                               ; preds = %41
  unreachable
}

; Function Attrs: sspstrong uwtable
define linkonce_odr dso_local { %"struct.std::_Rb_tree_node_base"*, %"struct.std::_Rb_tree_node_base"* } @_ZNSt8_Rb_treeIiSt4pairIKiiESt10_Select1stIS2_ESt4lessIiESaIS2_EE29_M_get_insert_hint_unique_posESt23_Rb_tree_const_iteratorIS2_ERS1_(%"class.std::_Rb_tree"* nonnull align 8 dereferenceable(48) %0, %"struct.std::_Rb_tree_node_base"* %1, i32* nonnull align 4 dereferenceable(4) %2) local_unnamed_addr #11 comdat align 2 {
  %4 = getelementptr inbounds %"class.std::_Rb_tree", %"class.std::_Rb_tree"* %0, i64 0, i32 0, i32 0, i32 0, i32 0
  %5 = getelementptr inbounds i8, i8* %4, i64 8
  %6 = bitcast i8* %5 to %"struct.std::_Rb_tree_node_base"*
  %7 = icmp eq %"struct.std::_Rb_tree_node_base"* %6, %1
  br i1 %7, label %8, label %59

8:                                                ; preds = %3
  %9 = getelementptr inbounds i8, i8* %4, i64 40
  %10 = bitcast i8* %9 to i64*
  %11 = load i64, i64* %10, align 8, !tbaa !21
  %12 = icmp eq i64 %11, 0
  br i1 %12, label %13, label %15

13:                                               ; preds = %8
  %14 = load i32, i32* %2, align 4
  br label %23

15:                                               ; preds = %8
  %16 = getelementptr inbounds i8, i8* %4, i64 32
  %17 = bitcast i8* %16 to %"struct.std::_Rb_tree_node_base"**
  %18 = load %"struct.std::_Rb_tree_node_base"*, %"struct.std::_Rb_tree_node_base"** %17, align 8, !tbaa !23
  %19 = getelementptr inbounds %"struct.std::_Rb_tree_node_base", %"struct.std::_Rb_tree_node_base"* %18, i64 1, i32 0
  %20 = load i32, i32* %19, align 4, !tbaa !5
  %21 = load i32, i32* %2, align 4, !tbaa !5
  %22 = icmp slt i32 %20, %21
  br i1 %22, label %167, label %23

23:                                               ; preds = %13, %15
  %24 = phi i32 [ %14, %13 ], [ %21, %15 ]
  %25 = getelementptr inbounds i8, i8* %4, i64 16
  %26 = bitcast i8* %25 to %"struct.std::_Rb_tree_node"**
  %27 = load %"struct.std::_Rb_tree_node"*, %"struct.std::_Rb_tree_node"** %26, align 8, !tbaa !23
  %28 = icmp eq %"struct.std::_Rb_tree_node"* %27, null
  br i1 %28, label %43, label %29

29:                                               ; preds = %23, %29
  %30 = phi %"struct.std::_Rb_tree_node"* [ %39, %29 ], [ %27, %23 ]
  %31 = getelementptr inbounds %"struct.std::_Rb_tree_node", %"struct.std::_Rb_tree_node"* %30, i64 0, i32 1
  %32 = bitcast %"struct.__gnu_cxx::__aligned_membuf"* %31 to i32*
  %33 = load i32, i32* %32, align 4, !tbaa !5
  %34 = icmp slt i32 %24, %33
  %35 = getelementptr inbounds %"struct.std::_Rb_tree_node", %"struct.std::_Rb_tree_node"* %30, i64 0, i32 0, i32 2
  %36 = getelementptr inbounds %"struct.std::_Rb_tree_node", %"struct.std::_Rb_tree_node"* %30, i64 0, i32 0, i32 3
  %37 = select i1 %34, %"struct.std::_Rb_tree_node_base"** %35, %"struct.std::_Rb_tree_node_base"** %36
  %38 = bitcast %"struct.std::_Rb_tree_node_base"** %37 to %"struct.std::_Rb_tree_node"**
  %39 = load %"struct.std::_Rb_tree_node"*, %"struct.std::_Rb_tree_node"** %38, align 8, !tbaa !23
  %40 = icmp eq %"struct.std::_Rb_tree_node"* %39, null
  br i1 %40, label %41, label %29, !llvm.loop !42

41:                                               ; preds = %29
  %42 = getelementptr %"struct.std::_Rb_tree_node", %"struct.std::_Rb_tree_node"* %30, i64 0, i32 0
  br i1 %34, label %43, label %51

43:                                               ; preds = %41, %23
  %44 = phi %"struct.std::_Rb_tree_node_base"* [ %42, %41 ], [ %1, %23 ]
  %45 = getelementptr inbounds i8, i8* %4, i64 24
  %46 = bitcast i8* %45 to %"struct.std::_Rb_tree_node_base"**
  %47 = load %"struct.std::_Rb_tree_node_base"*, %"struct.std::_Rb_tree_node_base"** %46, align 8, !tbaa !19
  %48 = icmp eq %"struct.std::_Rb_tree_node_base"* %44, %47
  br i1 %48, label %167, label %49

49:                                               ; preds = %43
  %50 = tail call %"struct.std::_Rb_tree_node_base"* @_ZSt18_Rb_tree_decrementPSt18_Rb_tree_node_base(%"struct.std::_Rb_tree_node_base"* %44) #18
  br label %51

51:                                               ; preds = %49, %41
  %52 = phi %"struct.std::_Rb_tree_node_base"* [ %44, %49 ], [ %42, %41 ]
  %53 = phi %"struct.std::_Rb_tree_node_base"* [ %50, %49 ], [ %42, %41 ]
  %54 = getelementptr inbounds %"struct.std::_Rb_tree_node_base", %"struct.std::_Rb_tree_node_base"* %53, i64 1, i32 0
  %55 = load i32, i32* %54, align 4, !tbaa !5
  %56 = icmp slt i32 %55, %24
  %57 = select i1 %56, %"struct.std::_Rb_tree_node_base"* null, %"struct.std::_Rb_tree_node_base"* %53
  %58 = select i1 %56, %"struct.std::_Rb_tree_node_base"* %52, %"struct.std::_Rb_tree_node_base"* null
  br label %167

59:                                               ; preds = %3
  %60 = getelementptr inbounds %"struct.std::_Rb_tree_node_base", %"struct.std::_Rb_tree_node_base"* %1, i64 1, i32 0
  %61 = load i32, i32* %2, align 4, !tbaa !5
  %62 = load i32, i32* %60, align 4, !tbaa !5
  %63 = icmp slt i32 %61, %62
  br i1 %63, label %64, label %113

64:                                               ; preds = %59
  %65 = getelementptr inbounds i8, i8* %4, i64 24
  %66 = bitcast i8* %65 to %"struct.std::_Rb_tree_node_base"**
  %67 = load %"struct.std::_Rb_tree_node_base"*, %"struct.std::_Rb_tree_node_base"** %66, align 8, !tbaa !23
  %68 = icmp eq %"struct.std::_Rb_tree_node_base"* %67, %1
  br i1 %68, label %167, label %69

69:                                               ; preds = %64
  %70 = tail call %"struct.std::_Rb_tree_node_base"* @_ZSt18_Rb_tree_decrementPSt18_Rb_tree_node_base(%"struct.std::_Rb_tree_node_base"* nonnull %1) #18
  %71 = getelementptr inbounds %"struct.std::_Rb_tree_node_base", %"struct.std::_Rb_tree_node_base"* %70, i64 1, i32 0
  %72 = load i32, i32* %71, align 4, !tbaa !5
  %73 = icmp slt i32 %72, %61
  br i1 %73, label %74, label %81

74:                                               ; preds = %69
  %75 = getelementptr inbounds %"struct.std::_Rb_tree_node_base", %"struct.std::_Rb_tree_node_base"* %70, i64 0, i32 3
  %76 = bitcast %"struct.std::_Rb_tree_node_base"** %75 to %"struct.std::_Rb_tree_node"**
  %77 = load %"struct.std::_Rb_tree_node"*, %"struct.std::_Rb_tree_node"** %76, align 8, !tbaa !34
  %78 = icmp eq %"struct.std::_Rb_tree_node"* %77, null
  %79 = select i1 %78, %"struct.std::_Rb_tree_node_base"* null, %"struct.std::_Rb_tree_node_base"* %1
  %80 = select i1 %78, %"struct.std::_Rb_tree_node_base"* %70, %"struct.std::_Rb_tree_node_base"* %1
  br label %167

81:                                               ; preds = %69
  %82 = getelementptr inbounds i8, i8* %4, i64 16
  %83 = bitcast i8* %82 to %"struct.std::_Rb_tree_node"**
  %84 = load %"struct.std::_Rb_tree_node"*, %"struct.std::_Rb_tree_node"** %83, align 8, !tbaa !23
  %85 = icmp eq %"struct.std::_Rb_tree_node"* %84, null
  br i1 %85, label %100, label %86

86:                                               ; preds = %81, %86
  %87 = phi %"struct.std::_Rb_tree_node"* [ %96, %86 ], [ %84, %81 ]
  %88 = getelementptr inbounds %"struct.std::_Rb_tree_node", %"struct.std::_Rb_tree_node"* %87, i64 0, i32 1
  %89 = bitcast %"struct.__gnu_cxx::__aligned_membuf"* %88 to i32*
  %90 = load i32, i32* %89, align 4, !tbaa !5
  %91 = icmp slt i32 %61, %90
  %92 = getelementptr inbounds %"struct.std::_Rb_tree_node", %"struct.std::_Rb_tree_node"* %87, i64 0, i32 0, i32 2
  %93 = getelementptr inbounds %"struct.std::_Rb_tree_node", %"struct.std::_Rb_tree_node"* %87, i64 0, i32 0, i32 3
  %94 = select i1 %91, %"struct.std::_Rb_tree_node_base"** %92, %"struct.std::_Rb_tree_node_base"** %93
  %95 = bitcast %"struct.std::_Rb_tree_node_base"** %94 to %"struct.std::_Rb_tree_node"**
  %96 = load %"struct.std::_Rb_tree_node"*, %"struct.std::_Rb_tree_node"** %95, align 8, !tbaa !23
  %97 = icmp eq %"struct.std::_Rb_tree_node"* %96, null
  br i1 %97, label %98, label %86, !llvm.loop !42

98:                                               ; preds = %86
  %99 = getelementptr %"struct.std::_Rb_tree_node", %"struct.std::_Rb_tree_node"* %87, i64 0, i32 0
  br i1 %91, label %100, label %105

100:                                              ; preds = %98, %81
  %101 = phi %"struct.std::_Rb_tree_node_base"* [ %99, %98 ], [ %6, %81 ]
  %102 = icmp eq %"struct.std::_Rb_tree_node_base"* %101, %67
  br i1 %102, label %167, label %103

103:                                              ; preds = %100
  %104 = tail call %"struct.std::_Rb_tree_node_base"* @_ZSt18_Rb_tree_decrementPSt18_Rb_tree_node_base(%"struct.std::_Rb_tree_node_base"* %101) #18
  br label %105

105:                                              ; preds = %103, %98
  %106 = phi %"struct.std::_Rb_tree_node_base"* [ %101, %103 ], [ %99, %98 ]
  %107 = phi %"struct.std::_Rb_tree_node_base"* [ %104, %103 ], [ %99, %98 ]
  %108 = getelementptr inbounds %"struct.std::_Rb_tree_node_base", %"struct.std::_Rb_tree_node_base"* %107, i64 1, i32 0
  %109 = load i32, i32* %108, align 4, !tbaa !5
  %110 = icmp slt i32 %109, %61
  %111 = select i1 %110, %"struct.std::_Rb_tree_node_base"* null, %"struct.std::_Rb_tree_node_base"* %107
  %112 = select i1 %110, %"struct.std::_Rb_tree_node_base"* %106, %"struct.std::_Rb_tree_node_base"* null
  br label %167

113:                                              ; preds = %59
  %114 = icmp slt i32 %62, %61
  br i1 %114, label %115, label %167

115:                                              ; preds = %113
  %116 = getelementptr inbounds i8, i8* %4, i64 32
  %117 = bitcast i8* %116 to %"struct.std::_Rb_tree_node_base"**
  %118 = load %"struct.std::_Rb_tree_node_base"*, %"struct.std::_Rb_tree_node_base"** %117, align 8, !tbaa !23
  %119 = icmp eq %"struct.std::_Rb_tree_node_base"* %118, %1
  br i1 %119, label %167, label %120

120:                                              ; preds = %115
  %121 = tail call %"struct.std::_Rb_tree_node_base"* @_ZSt18_Rb_tree_incrementPSt18_Rb_tree_node_base(%"struct.std::_Rb_tree_node_base"* nonnull %1) #18
  %122 = getelementptr inbounds %"struct.std::_Rb_tree_node_base", %"struct.std::_Rb_tree_node_base"* %121, i64 1, i32 0
  %123 = load i32, i32* %122, align 4, !tbaa !5
  %124 = icmp slt i32 %61, %123
  br i1 %124, label %125, label %132

125:                                              ; preds = %120
  %126 = getelementptr inbounds %"struct.std::_Rb_tree_node_base", %"struct.std::_Rb_tree_node_base"* %1, i64 0, i32 3
  %127 = bitcast %"struct.std::_Rb_tree_node_base"** %126 to %"struct.std::_Rb_tree_node"**
  %128 = load %"struct.std::_Rb_tree_node"*, %"struct.std::_Rb_tree_node"** %127, align 8, !tbaa !34
  %129 = icmp eq %"struct.std::_Rb_tree_node"* %128, null
  %130 = select i1 %129, %"struct.std::_Rb_tree_node_base"* null, %"struct.std::_Rb_tree_node_base"* %121
  %131 = select i1 %129, %"struct.std::_Rb_tree_node_base"* %1, %"struct.std::_Rb_tree_node_base"* %121
  br label %167

132:                                              ; preds = %120
  %133 = getelementptr inbounds i8, i8* %4, i64 16
  %134 = bitcast i8* %133 to %"struct.std::_Rb_tree_node"**
  %135 = load %"struct.std::_Rb_tree_node"*, %"struct.std::_Rb_tree_node"** %134, align 8, !tbaa !23
  %136 = icmp eq %"struct.std::_Rb_tree_node"* %135, null
  br i1 %136, label %151, label %137

137:                                              ; preds = %132, %137
  %138 = phi %"struct.std::_Rb_tree_node"* [ %147, %137 ], [ %135, %132 ]
  %139 = getelementptr inbounds %"struct.std::_Rb_tree_node", %"struct.std::_Rb_tree_node"* %138, i64 0, i32 1
  %140 = bitcast %"struct.__gnu_cxx::__aligned_membuf"* %139 to i32*
  %141 = load i32, i32* %140, align 4, !tbaa !5
  %142 = icmp slt i32 %61, %141
  %143 = getelementptr inbounds %"struct.std::_Rb_tree_node", %"struct.std::_Rb_tree_node"* %138, i64 0, i32 0, i32 2
  %144 = getelementptr inbounds %"struct.std::_Rb_tree_node", %"struct.std::_Rb_tree_node"* %138, i64 0, i32 0, i32 3
  %145 = select i1 %142, %"struct.std::_Rb_tree_node_base"** %143, %"struct.std::_Rb_tree_node_base"** %144
  %146 = bitcast %"struct.std::_Rb_tree_node_base"** %145 to %"struct.std::_Rb_tree_node"**
  %147 = load %"struct.std::_Rb_tree_node"*, %"struct.std::_Rb_tree_node"** %146, align 8, !tbaa !23
  %148 = icmp eq %"struct.std::_Rb_tree_node"* %147, null
  br i1 %148, label %149, label %137, !llvm.loop !42

149:                                              ; preds = %137
  %150 = getelementptr %"struct.std::_Rb_tree_node", %"struct.std::_Rb_tree_node"* %138, i64 0, i32 0
  br i1 %142, label %151, label %159

151:                                              ; preds = %149, %132
  %152 = phi %"struct.std::_Rb_tree_node_base"* [ %150, %149 ], [ %6, %132 ]
  %153 = getelementptr inbounds i8, i8* %4, i64 24
  %154 = bitcast i8* %153 to %"struct.std::_Rb_tree_node_base"**
  %155 = load %"struct.std::_Rb_tree_node_base"*, %"struct.std::_Rb_tree_node_base"** %154, align 8, !tbaa !19
  %156 = icmp eq %"struct.std::_Rb_tree_node_base"* %152, %155
  br i1 %156, label %167, label %157

157:                                              ; preds = %151
  %158 = tail call %"struct.std::_Rb_tree_node_base"* @_ZSt18_Rb_tree_decrementPSt18_Rb_tree_node_base(%"struct.std::_Rb_tree_node_base"* %152) #18
  br label %159

159:                                              ; preds = %157, %149
  %160 = phi %"struct.std::_Rb_tree_node_base"* [ %152, %157 ], [ %150, %149 ]
  %161 = phi %"struct.std::_Rb_tree_node_base"* [ %158, %157 ], [ %150, %149 ]
  %162 = getelementptr inbounds %"struct.std::_Rb_tree_node_base", %"struct.std::_Rb_tree_node_base"* %161, i64 1, i32 0
  %163 = load i32, i32* %162, align 4, !tbaa !5
  %164 = icmp slt i32 %163, %61
  %165 = select i1 %164, %"struct.std::_Rb_tree_node_base"* null, %"struct.std::_Rb_tree_node_base"* %161
  %166 = select i1 %164, %"struct.std::_Rb_tree_node_base"* %160, %"struct.std::_Rb_tree_node_base"* null
  br label %167

167:                                              ; preds = %159, %151, %105, %100, %51, %43, %125, %74, %113, %115, %64, %15
  %168 = phi %"struct.std::_Rb_tree_node_base"* [ null, %15 ], [ %1, %64 ], [ null, %115 ], [ %1, %113 ], [ %79, %74 ], [ %130, %125 ], [ %57, %51 ], [ null, %43 ], [ %111, %105 ], [ null, %100 ], [ %165, %159 ], [ null, %151 ]
  %169 = phi %"struct.std::_Rb_tree_node_base"* [ %18, %15 ], [ %1, %64 ], [ %1, %115 ], [ null, %113 ], [ %80, %74 ], [ %131, %125 ], [ %58, %51 ], [ %44, %43 ], [ %112, %105 ], [ %67, %100 ], [ %166, %159 ], [ %152, %151 ]
  %170 = insertvalue { %"struct.std::_Rb_tree_node_base"*, %"struct.std::_Rb_tree_node_base"* } undef, %"struct.std::_Rb_tree_node_base"* %168, 0
  %171 = insertvalue { %"struct.std::_Rb_tree_node_base"*, %"struct.std::_Rb_tree_node_base"* } %170, %"struct.std::_Rb_tree_node_base"* %169, 1
  ret { %"struct.std::_Rb_tree_node_base"*, %"struct.std::_Rb_tree_node_base"* } %171
}

declare void @__cxa_rethrow() local_unnamed_addr

declare void @__cxa_end_catch() local_unnamed_addr

; Function Attrs: mustprogress nofree nounwind readonly willreturn
declare %"struct.std::_Rb_tree_node_base"* @_ZSt18_Rb_tree_decrementPSt18_Rb_tree_node_base(%"struct.std::_Rb_tree_node_base"*) local_unnamed_addr #12

; Function Attrs: mustprogress nofree nounwind readonly willreturn
declare %"struct.std::_Rb_tree_node_base"* @_ZSt18_Rb_tree_incrementPSt18_Rb_tree_node_base(%"struct.std::_Rb_tree_node_base"*) local_unnamed_addr #12

; Function Attrs: nounwind
declare void @_ZSt29_Rb_tree_insert_and_rebalancebPSt18_Rb_tree_node_baseS0_RS_(i1 zeroext, %"struct.std::_Rb_tree_node_base"*, %"struct.std::_Rb_tree_node_base"*, %"struct.std::_Rb_tree_node_base"* nonnull align 8 dereferenceable(32)) local_unnamed_addr #1

declare nonnull align 8 dereferenceable(8) %"class.std::basic_ostream"* @_ZNSo9_M_insertIxEERSoT_(%"class.std::basic_ostream"* nonnull align 8 dereferenceable(8), i64) local_unnamed_addr #0

declare nonnull align 8 dereferenceable(8) %"class.std::basic_ostream"* @_ZNSo3putEc(%"class.std::basic_ostream"* nonnull align 8 dereferenceable(8), i8 signext) local_unnamed_addr #0

declare nonnull align 8 dereferenceable(8) %"class.std::basic_ostream"* @_ZNSo5flushEv(%"class.std::basic_ostream"* nonnull align 8 dereferenceable(8)) local_unnamed_addr #0

; Function Attrs: noreturn
declare void @_ZSt16__throw_bad_castv() local_unnamed_addr #9

declare void @_ZNKSt5ctypeIcE13_M_widen_initEv(%"class.std::ctype"* nonnull align 8 dereferenceable(570)) local_unnamed_addr #0

; Function Attrs: sspstrong uwtable
define internal void @_GLOBAL__sub_I_s884291120.cpp() #11 section ".text.startup" {
  tail call void @_ZNSt8ios_base4InitC1Ev(%"class.std::ios_base::Init"* nonnull align 1 dereferenceable(1) @_ZStL8__ioinit)
  %1 = tail call i32 @__cxa_atexit(void (i8*)* bitcast (void (%"class.std::ios_base::Init"*)* @_ZNSt8ios_base4InitD1Ev to void (i8*)*), i8* getelementptr inbounds (%"class.std::ios_base::Init", %"class.std::ios_base::Init"* @_ZStL8__ioinit, i64 0, i32 0), i8* nonnull @__dso_handle) #14
  ret void
}

; Function Attrs: argmemonly nofree nounwind willreturn writeonly
declare void @llvm.memset.p0i8.i64(i8* nocapture writeonly, i8, i64, i1 immarg) #13

attributes #0 = { "frame-pointer"="none" "no-trapping-math"="true" "stack-protector-buffer-size"="8" "target-cpu"="x86-64" "target-features"="+cx8,+fxsr,+mmx,+sse,+sse2,+x87" "tune-cpu"="generic" }
attributes #1 = { nounwind "frame-pointer"="none" "no-trapping-math"="true" "stack-protector-buffer-size"="8" "target-cpu"="x86-64" "target-features"="+cx8,+fxsr,+mmx,+sse,+sse2,+x87" "tune-cpu"="generic" }
attributes #2 = { nofree nounwind }
attributes #3 = { norecurse sspstrong uwtable "frame-pointer"="none" "min-legal-vector-width"="0" "no-trapping-math"="true" "stack-protector-buffer-size"="8" "target-cpu"="x86-64" "target-features"="+cx8,+fxsr,+mmx,+sse,+sse2,+x87" "tune-cpu"="generic" }
attributes #4 = { argmemonly mustprogress nofree nosync nounwind willreturn }
attributes #5 = { noinline noreturn nounwind }
attributes #6 = { nounwind sspstrong uwtable "frame-pointer"="none" "min-legal-vector-width"="0" "no-trapping-math"="true" "stack-protector-buffer-size"="8" "target-cpu"="x86-64" "target-features"="+cx8,+fxsr,+mmx,+sse,+sse2,+x87" "tune-cpu"="generic" }
attributes #7 = { mustprogress sspstrong uwtable "frame-pointer"="none" "min-legal-vector-width"="0" "no-trapping-math"="true" "stack-protector-buffer-size"="8" "target-cpu"="x86-64" "target-features"="+cx8,+fxsr,+mmx,+sse,+sse2,+x87" "tune-cpu"="generic" }
attributes #8 = { nobuiltin nounwind "frame-pointer"="none" "no-trapping-math"="true" "stack-protector-buffer-size"="8" "target-cpu"="x86-64" "target-features"="+cx8,+fxsr,+mmx,+sse,+sse2,+x87" "tune-cpu"="generic" }
attributes #9 = { noreturn "frame-pointer"="none" "no-trapping-math"="true" "stack-protector-buffer-size"="8" "target-cpu"="x86-64" "target-features"="+cx8,+fxsr,+mmx,+sse,+sse2,+x87" "tune-cpu"="generic" }
attributes #10 = { nobuiltin allocsize(0) "frame-pointer"="none" "no-trapping-math"="true" "stack-protector-buffer-size"="8" "target-cpu"="x86-64" "target-features"="+cx8,+fxsr,+mmx,+sse,+sse2,+x87" "tune-cpu"="generic" }
attributes #11 = { sspstrong uwtable "frame-pointer"="none" "min-legal-vector-width"="0" "no-trapping-math"="true" "stack-protector-buffer-size"="8" "target-cpu"="x86-64" "target-features"="+cx8,+fxsr,+mmx,+sse,+sse2,+x87" "tune-cpu"="generic" }
attributes #12 = { mustprogress nofree nounwind readonly willreturn "frame-pointer"="none" "no-trapping-math"="true" "stack-protector-buffer-size"="8" "target-cpu"="x86-64" "target-features"="+cx8,+fxsr,+mmx,+sse,+sse2,+x87" "tune-cpu"="generic" }
attributes #13 = { argmemonly nofree nounwind willreturn writeonly }
attributes #14 = { nounwind }
attributes #15 = { noreturn }
attributes #16 = { allocsize(0) }
attributes #17 = { noreturn nounwind }
attributes #18 = { nounwind readonly willreturn }

!llvm.module.flags = !{!0, !1, !2, !3}
!llvm.ident = !{!4}

!0 = !{i32 1, !"wchar_size", i32 4}
!1 = !{i32 7, !"PIC Level", i32 2}
!2 = !{i32 7, !"PIE Level", i32 2}
!3 = !{i32 7, !"uwtable", i32 1}
!4 = !{!"clang version 13.0.0"}
!5 = !{!6, !6, i64 0}
!6 = !{!"int", !7, i64 0}
!7 = !{!"omnipotent char", !8, i64 0}
!8 = !{!"Simple C++ TBAA"}
!9 = distinct !{!9, !10}
!10 = !{!"llvm.loop.mustprogress"}
!11 = distinct !{!11, !10}
!12 = !{!13, !15, i64 0}
!13 = !{!"_ZTSSt15_Rb_tree_header", !14, i64 0, !17, i64 32}
!14 = !{!"_ZTSSt18_Rb_tree_node_base", !15, i64 0, !16, i64 8, !16, i64 16, !16, i64 24}
!15 = !{!"_ZTSSt14_Rb_tree_color", !7, i64 0}
!16 = !{!"any pointer", !7, i64 0}
!17 = !{!"long", !7, i64 0}
!18 = !{!13, !16, i64 8}
!19 = !{!13, !16, i64 16}
!20 = !{!13, !16, i64 24}
!21 = !{!13, !17, i64 32}
!22 = distinct !{!22, !10}
!23 = !{!16, !16, i64 0}
!24 = distinct !{!24, !10}
!25 = distinct !{!25, !10}
!26 = !{!27, !27, i64 0}
!27 = !{!"vtable pointer", !8, i64 0}
!28 = !{!29, !16, i64 240}
!29 = !{!"_ZTSSt9basic_iosIcSt11char_traitsIcEE", !16, i64 216, !7, i64 224, !30, i64 225, !16, i64 232, !16, i64 240, !16, i64 248, !16, i64 256}
!30 = !{!"bool", !7, i64 0}
!31 = !{!32, !7, i64 56}
!32 = !{!"_ZTSSt5ctypeIcE", !16, i64 16, !30, i64 24, !16, i64 32, !16, i64 40, !16, i64 48, !7, i64 56, !7, i64 57, !7, i64 313, !7, i64 569}
!33 = !{!7, !7, i64 0}
!34 = !{!14, !16, i64 24}
!35 = !{!14, !16, i64 16}
!36 = distinct !{!36, !10}
!37 = !{!38, !16, i64 0}
!38 = !{!"_ZTSSt10_Head_baseILm0ERKiLb0EE", !16, i64 0}
!39 = !{!40, !6, i64 0}
!40 = !{!"_ZTSSt4pairIKiiE", !6, i64 0, !6, i64 4}
!41 = !{!40, !6, i64 4}
!42 = distinct !{!42, !10}
