; ModuleID = 'Project_CodeNet_C++1400/p03251/s648659072.cpp'
source_filename = "Project_CodeNet_C++1400/p03251/s648659072.cpp"
target datalayout = "e-m:e-p270:32:32-p271:32:32-p272:64:64-i64:64-f80:128-n8:16:32:64-S128"
target triple = "x86_64-pc-linux-gnu"

%"class.std::ios_base::Init" = type { i8 }
%"class.std::basic_istream" = type { i32 (...)**, i64, %"class.std::basic_ios" }
%"class.std::basic_ios" = type { %"class.std::ios_base", %"class.std::basic_ostream"*, i8, i8, %"class.std::basic_streambuf"*, %"class.std::ctype"*, %"class.std::num_put"*, %"class.std::num_get"* }
%"class.std::ios_base" = type { i32 (...)**, i64, i64, i32, i32, i32, %"struct.std::ios_base::_Callback_list"*, %"struct.std::ios_base::_Words", [8 x %"struct.std::ios_base::_Words"], i32, %"struct.std::ios_base::_Words"*, %"class.std::locale" }
%"struct.std::ios_base::_Callback_list" = type { %"struct.std::ios_base::_Callback_list"*, void (i32, %"class.std::ios_base"*, i32)*, i32, i32 }
%"struct.std::ios_base::_Words" = type { i8*, i64 }
%"class.std::locale" = type { %"class.std::locale::_Impl"* }
%"class.std::locale::_Impl" = type { i32, %"class.std::locale::facet"**, i64, %"class.std::locale::facet"**, i8** }
%"class.std::locale::facet" = type <{ i32 (...)**, i32, [4 x i8] }>
%"class.std::basic_ostream" = type { i32 (...)**, %"class.std::basic_ios" }
%"class.std::basic_streambuf" = type { i32 (...)**, i8*, i8*, i8*, i8*, i8*, i8*, %"class.std::locale" }
%"class.std::ctype" = type <{ %"class.std::locale::facet.base", [4 x i8], %struct.__locale_struct*, i8, [7 x i8], i32*, i32*, i16*, i8, [256 x i8], [256 x i8], i8, [6 x i8] }>
%"class.std::locale::facet.base" = type <{ i32 (...)**, i32 }>
%struct.__locale_struct = type { [13 x %struct.__locale_data*], i16*, i32*, i32*, [13 x i8*] }
%struct.__locale_data = type opaque
%"class.std::num_put" = type { %"class.std::locale::facet.base", [4 x i8] }
%"class.std::num_get" = type { %"class.std::locale::facet.base", [4 x i8] }

@_ZStL8__ioinit = internal global %"class.std::ios_base::Init" zeroinitializer, align 1
@__dso_handle = external hidden global i8
@_ZSt3cin = external global %"class.std::basic_istream", align 8
@_ZSt4cout = external global %"class.std::basic_ostream", align 8
@.str = private unnamed_addr constant [7 x i8] c"No War\00", align 1
@.str.1 = private unnamed_addr constant [4 x i8] c"War\00", align 1
@llvm.global_ctors = appending global [1 x { i32, void ()*, i8* }] [{ i32, void ()*, i8* } { i32 65535, void ()* @_GLOBAL__sub_I_s648659072.cpp, i8* null }]

declare void @_ZNSt8ios_base4InitC1Ev(%"class.std::ios_base::Init"* nonnull align 1 dereferenceable(1)) unnamed_addr #0

; Function Attrs: nounwind
declare void @_ZNSt8ios_base4InitD1Ev(%"class.std::ios_base::Init"* nonnull align 1 dereferenceable(1)) unnamed_addr #1

; Function Attrs: nofree nounwind
declare i32 @__cxa_atexit(void (i8*)*, i8*, i8*) local_unnamed_addr #2

; Function Attrs: mustprogress norecurse sspstrong uwtable
define dso_local i32 @main() local_unnamed_addr #3 {
  %1 = alloca i32, align 4
  %2 = alloca i32, align 4
  %3 = alloca i32, align 4
  %4 = alloca i32, align 4
  %5 = bitcast i32* %1 to i8*
  call void @llvm.lifetime.start.p0i8(i64 4, i8* nonnull %5) #9
  %6 = bitcast i32* %2 to i8*
  call void @llvm.lifetime.start.p0i8(i64 4, i8* nonnull %6) #9
  %7 = bitcast i32* %3 to i8*
  call void @llvm.lifetime.start.p0i8(i64 4, i8* nonnull %7) #9
  %8 = bitcast i32* %4 to i8*
  call void @llvm.lifetime.start.p0i8(i64 4, i8* nonnull %8) #9
  %9 = call nonnull align 8 dereferenceable(16) %"class.std::basic_istream"* @_ZNSirsERi(%"class.std::basic_istream"* nonnull align 8 dereferenceable(16) @_ZSt3cin, i32* nonnull align 4 dereferenceable(4) %1)
  %10 = call nonnull align 8 dereferenceable(16) %"class.std::basic_istream"* @_ZNSirsERi(%"class.std::basic_istream"* nonnull align 8 dereferenceable(16) %9, i32* nonnull align 4 dereferenceable(4) %2)
  %11 = call nonnull align 8 dereferenceable(16) %"class.std::basic_istream"* @_ZNSirsERi(%"class.std::basic_istream"* nonnull align 8 dereferenceable(16) %10, i32* nonnull align 4 dereferenceable(4) %3)
  %12 = call nonnull align 8 dereferenceable(16) %"class.std::basic_istream"* @_ZNSirsERi(%"class.std::basic_istream"* nonnull align 8 dereferenceable(16) %11, i32* nonnull align 4 dereferenceable(4) %4)
  %13 = load i32, i32* %1, align 4, !tbaa !5
  %14 = zext i32 %13 to i64
  %15 = call i8* @llvm.stacksave()
  %16 = alloca i32, i64 %14, align 16
  %17 = load i32, i32* %2, align 4, !tbaa !5
  %18 = zext i32 %17 to i64
  %19 = alloca i32, i64 %18, align 16
  %20 = load i32, i32* %1, align 4, !tbaa !5
  %21 = icmp sgt i32 %20, 0
  br i1 %21, label %32, label %24

22:                                               ; preds = %32
  %23 = load i32, i32* %2, align 4, !tbaa !5
  br label %24

24:                                               ; preds = %22, %0
  %25 = phi i32 [ %37, %22 ], [ %20, %0 ]
  %26 = phi i32 [ %23, %22 ], [ %17, %0 ]
  %27 = icmp sgt i32 %26, 0
  br i1 %27, label %113, label %28

28:                                               ; preds = %24
  %29 = load i32, i32* %3, align 4, !tbaa !5
  %30 = load i32, i32* %4, align 4, !tbaa !5
  %31 = icmp sgt i32 %25, 0
  br i1 %31, label %93, label %121

32:                                               ; preds = %0, %32
  %33 = phi i64 [ %36, %32 ], [ 0, %0 ]
  %34 = getelementptr inbounds i32, i32* %16, i64 %33
  %35 = call nonnull align 8 dereferenceable(16) %"class.std::basic_istream"* @_ZNSirsERi(%"class.std::basic_istream"* nonnull align 8 dereferenceable(16) @_ZSt3cin, i32* nonnull align 4 dereferenceable(4) %34)
  %36 = add nuw nsw i64 %33, 1
  %37 = load i32, i32* %1, align 4, !tbaa !5
  %38 = sext i32 %37 to i64
  %39 = icmp slt i64 %36, %38
  br i1 %39, label %32, label %22, !llvm.loop !9

40:                                               ; preds = %113
  %41 = load i32, i32* %1, align 4
  %42 = load i32, i32* %3, align 4, !tbaa !5
  %43 = load i32, i32* %4, align 4, !tbaa !5
  %44 = icmp sgt i32 %41, 0
  %45 = icmp sgt i32 %118, 0
  br i1 %45, label %46, label %92

46:                                               ; preds = %40
  br i1 %44, label %50, label %47

47:                                               ; preds = %46
  %48 = zext i32 %118 to i64
  %49 = call i32 @llvm.smax.i32(i32 %42, i32 %43)
  br label %79

50:                                               ; preds = %46
  %51 = call i32 @llvm.smax.i32(i32 %42, i32 %43)
  %52 = zext i32 %41 to i64
  %53 = zext i32 %118 to i64
  br label %54

54:                                               ; preds = %50, %76
  %55 = phi i32 [ %56, %76 ], [ %42, %50 ]
  %56 = add i32 %55, 1
  %57 = icmp eq i32 %55, %51
  br i1 %57, label %161, label %60

58:                                               ; preds = %60
  %59 = icmp eq i64 %65, %52
  br i1 %59, label %66, label %60, !llvm.loop !11

60:                                               ; preds = %54, %58
  %61 = phi i64 [ %65, %58 ], [ 0, %54 ]
  %62 = getelementptr inbounds i32, i32* %16, i64 %61
  %63 = load i32, i32* %62, align 4, !tbaa !5
  %64 = icmp slt i32 %55, %63
  %65 = add nuw nsw i64 %61, 1
  br i1 %64, label %66, label %58

66:                                               ; preds = %58, %60
  %67 = phi i32 [ 1, %60 ], [ 0, %58 ]
  br label %70

68:                                               ; preds = %70
  %69 = icmp eq i64 %75, %53
  br i1 %69, label %76, label %70, !llvm.loop !12

70:                                               ; preds = %68, %66
  %71 = phi i64 [ %75, %68 ], [ 0, %66 ]
  %72 = getelementptr inbounds i32, i32* %19, i64 %71
  %73 = load i32, i32* %72, align 4, !tbaa !5
  %74 = icmp slt i32 %55, %73
  %75 = add nuw nsw i64 %71, 1
  br i1 %74, label %68, label %76

76:                                               ; preds = %68, %70
  %77 = phi i32 [ 1, %70 ], [ %67, %68 ]
  %78 = icmp eq i32 %77, 0
  br i1 %78, label %125, label %54, !llvm.loop !13

79:                                               ; preds = %47, %91
  %80 = phi i32 [ %81, %91 ], [ %42, %47 ]
  %81 = add i32 %80, 1
  %82 = icmp eq i32 %80, %49
  br i1 %82, label %161, label %83

83:                                               ; preds = %79, %83
  %84 = phi i64 [ %88, %83 ], [ 0, %79 ]
  %85 = getelementptr inbounds i32, i32* %19, i64 %84
  %86 = load i32, i32* %85, align 4, !tbaa !5
  %87 = icmp slt i32 %80, %86
  %88 = add nuw nsw i64 %84, 1
  %89 = icmp ult i64 %88, %48
  %90 = select i1 %87, i1 %89, i1 false
  br i1 %90, label %83, label %91, !llvm.loop !12

91:                                               ; preds = %83
  br i1 %87, label %127, label %79, !llvm.loop !13

92:                                               ; preds = %40
  br i1 %44, label %93, label %121

93:                                               ; preds = %28, %92
  %94 = phi i32 [ %25, %28 ], [ %41, %92 ]
  %95 = phi i32 [ %29, %28 ], [ %42, %92 ]
  %96 = phi i32 [ %30, %28 ], [ %43, %92 ]
  %97 = zext i32 %94 to i64
  %98 = call i32 @llvm.smax.i32(i32 %95, i32 %96)
  br label %99

99:                                               ; preds = %93, %112
  %100 = phi i32 [ %101, %112 ], [ %95, %93 ]
  %101 = add i32 %100, 1
  %102 = icmp eq i32 %100, %98
  br i1 %102, label %161, label %103

103:                                              ; preds = %99, %103
  %104 = phi i64 [ %108, %103 ], [ 0, %99 ]
  %105 = getelementptr inbounds i32, i32* %16, i64 %104
  %106 = load i32, i32* %105, align 4, !tbaa !5
  %107 = icmp slt i32 %100, %106
  %108 = add nuw nsw i64 %104, 1
  %109 = xor i1 %107, true
  %110 = icmp ult i64 %108, %97
  %111 = select i1 %109, i1 %110, i1 false
  br i1 %111, label %103, label %112, !llvm.loop !11

112:                                              ; preds = %103
  br i1 %107, label %99, label %129, !llvm.loop !13

113:                                              ; preds = %24, %113
  %114 = phi i64 [ %117, %113 ], [ 0, %24 ]
  %115 = getelementptr inbounds i32, i32* %19, i64 %114
  %116 = call nonnull align 8 dereferenceable(16) %"class.std::basic_istream"* @_ZNSirsERi(%"class.std::basic_istream"* nonnull align 8 dereferenceable(16) @_ZSt3cin, i32* nonnull align 4 dereferenceable(4) %115)
  %117 = add nuw nsw i64 %114, 1
  %118 = load i32, i32* %2, align 4, !tbaa !5
  %119 = sext i32 %118 to i64
  %120 = icmp slt i64 %117, %119
  br i1 %120, label %113, label %40, !llvm.loop !14

121:                                              ; preds = %28, %92
  %122 = phi i32 [ %29, %28 ], [ %42, %92 ]
  %123 = phi i32 [ %30, %28 ], [ %43, %92 ]
  %124 = icmp slt i32 %122, %123
  br i1 %124, label %131, label %161

125:                                              ; preds = %76
  %126 = icmp slt i32 %55, %43
  br label %131

127:                                              ; preds = %91
  %128 = icmp slt i32 %80, %43
  br label %131

129:                                              ; preds = %112
  %130 = icmp slt i32 %100, %96
  br label %131

131:                                              ; preds = %129, %127, %125, %121
  %132 = phi i1 [ true, %121 ], [ %126, %125 ], [ %128, %127 ], [ %130, %129 ]
  %133 = call nonnull align 8 dereferenceable(8) %"class.std::basic_ostream"* @_ZSt16__ostream_insertIcSt11char_traitsIcEERSt13basic_ostreamIT_T0_ES6_PKS3_l(%"class.std::basic_ostream"* nonnull align 8 dereferenceable(8) @_ZSt4cout, i8* nonnull getelementptr inbounds ([7 x i8], [7 x i8]* @.str, i64 0, i64 0), i64 6)
  %134 = load i8*, i8** bitcast (%"class.std::basic_ostream"* @_ZSt4cout to i8**), align 8, !tbaa !15
  %135 = getelementptr i8, i8* %134, i64 -24
  %136 = bitcast i8* %135 to i64*
  %137 = load i64, i64* %136, align 8
  %138 = add nsw i64 %137, 240
  %139 = getelementptr inbounds i8, i8* bitcast (%"class.std::basic_ostream"* @_ZSt4cout to i8*), i64 %138
  %140 = bitcast i8* %139 to %"class.std::ctype"**
  %141 = load %"class.std::ctype"*, %"class.std::ctype"** %140, align 8, !tbaa !17
  %142 = icmp eq %"class.std::ctype"* %141, null
  br i1 %142, label %143, label %144

143:                                              ; preds = %131
  call void @_ZSt16__throw_bad_castv() #10
  unreachable

144:                                              ; preds = %131
  %145 = getelementptr inbounds %"class.std::ctype", %"class.std::ctype"* %141, i64 0, i32 8
  %146 = load i8, i8* %145, align 8, !tbaa !21
  %147 = icmp eq i8 %146, 0
  br i1 %147, label %151, label %148

148:                                              ; preds = %144
  %149 = getelementptr inbounds %"class.std::ctype", %"class.std::ctype"* %141, i64 0, i32 9, i64 10
  %150 = load i8, i8* %149, align 1, !tbaa !23
  br label %157

151:                                              ; preds = %144
  call void @_ZNKSt5ctypeIcE13_M_widen_initEv(%"class.std::ctype"* nonnull align 8 dereferenceable(570) %141)
  %152 = bitcast %"class.std::ctype"* %141 to i8 (%"class.std::ctype"*, i8)***
  %153 = load i8 (%"class.std::ctype"*, i8)**, i8 (%"class.std::ctype"*, i8)*** %152, align 8, !tbaa !15
  %154 = getelementptr inbounds i8 (%"class.std::ctype"*, i8)*, i8 (%"class.std::ctype"*, i8)** %153, i64 6
  %155 = load i8 (%"class.std::ctype"*, i8)*, i8 (%"class.std::ctype"*, i8)** %154, align 8
  %156 = call signext i8 %155(%"class.std::ctype"* nonnull align 8 dereferenceable(570) %141, i8 signext 10)
  br label %157

157:                                              ; preds = %148, %151
  %158 = phi i8 [ %150, %148 ], [ %156, %151 ]
  %159 = call nonnull align 8 dereferenceable(8) %"class.std::basic_ostream"* @_ZNSo3putEc(%"class.std::basic_ostream"* nonnull align 8 dereferenceable(8) @_ZSt4cout, i8 signext %158)
  %160 = call nonnull align 8 dereferenceable(8) %"class.std::basic_ostream"* @_ZNSo5flushEv(%"class.std::basic_ostream"* nonnull align 8 dereferenceable(8) %159)
  br i1 %132, label %190, label %161

161:                                              ; preds = %99, %79, %54, %121, %157
  %162 = call nonnull align 8 dereferenceable(8) %"class.std::basic_ostream"* @_ZSt16__ostream_insertIcSt11char_traitsIcEERSt13basic_ostreamIT_T0_ES6_PKS3_l(%"class.std::basic_ostream"* nonnull align 8 dereferenceable(8) @_ZSt4cout, i8* nonnull getelementptr inbounds ([4 x i8], [4 x i8]* @.str.1, i64 0, i64 0), i64 3)
  %163 = load i8*, i8** bitcast (%"class.std::basic_ostream"* @_ZSt4cout to i8**), align 8, !tbaa !15
  %164 = getelementptr i8, i8* %163, i64 -24
  %165 = bitcast i8* %164 to i64*
  %166 = load i64, i64* %165, align 8
  %167 = add nsw i64 %166, 240
  %168 = getelementptr inbounds i8, i8* bitcast (%"class.std::basic_ostream"* @_ZSt4cout to i8*), i64 %167
  %169 = bitcast i8* %168 to %"class.std::ctype"**
  %170 = load %"class.std::ctype"*, %"class.std::ctype"** %169, align 8, !tbaa !17
  %171 = icmp eq %"class.std::ctype"* %170, null
  br i1 %171, label %172, label %173

172:                                              ; preds = %161
  call void @_ZSt16__throw_bad_castv() #10
  unreachable

173:                                              ; preds = %161
  %174 = getelementptr inbounds %"class.std::ctype", %"class.std::ctype"* %170, i64 0, i32 8
  %175 = load i8, i8* %174, align 8, !tbaa !21
  %176 = icmp eq i8 %175, 0
  br i1 %176, label %180, label %177

177:                                              ; preds = %173
  %178 = getelementptr inbounds %"class.std::ctype", %"class.std::ctype"* %170, i64 0, i32 9, i64 10
  %179 = load i8, i8* %178, align 1, !tbaa !23
  br label %186

180:                                              ; preds = %173
  call void @_ZNKSt5ctypeIcE13_M_widen_initEv(%"class.std::ctype"* nonnull align 8 dereferenceable(570) %170)
  %181 = bitcast %"class.std::ctype"* %170 to i8 (%"class.std::ctype"*, i8)***
  %182 = load i8 (%"class.std::ctype"*, i8)**, i8 (%"class.std::ctype"*, i8)*** %181, align 8, !tbaa !15
  %183 = getelementptr inbounds i8 (%"class.std::ctype"*, i8)*, i8 (%"class.std::ctype"*, i8)** %182, i64 6
  %184 = load i8 (%"class.std::ctype"*, i8)*, i8 (%"class.std::ctype"*, i8)** %183, align 8
  %185 = call signext i8 %184(%"class.std::ctype"* nonnull align 8 dereferenceable(570) %170, i8 signext 10)
  br label %186

186:                                              ; preds = %177, %180
  %187 = phi i8 [ %179, %177 ], [ %185, %180 ]
  %188 = call nonnull align 8 dereferenceable(8) %"class.std::basic_ostream"* @_ZNSo3putEc(%"class.std::basic_ostream"* nonnull align 8 dereferenceable(8) @_ZSt4cout, i8 signext %187)
  %189 = call nonnull align 8 dereferenceable(8) %"class.std::basic_ostream"* @_ZNSo5flushEv(%"class.std::basic_ostream"* nonnull align 8 dereferenceable(8) %188)
  br label %190

190:                                              ; preds = %157, %186
  call void @llvm.stackrestore(i8* %15)
  call void @llvm.lifetime.end.p0i8(i64 4, i8* nonnull %8) #9
  call void @llvm.lifetime.end.p0i8(i64 4, i8* nonnull %7) #9
  call void @llvm.lifetime.end.p0i8(i64 4, i8* nonnull %6) #9
  call void @llvm.lifetime.end.p0i8(i64 4, i8* nonnull %5) #9
  ret i32 0
}

; Function Attrs: argmemonly mustprogress nofree nosync nounwind willreturn
declare void @llvm.lifetime.start.p0i8(i64 immarg, i8* nocapture) #4

declare nonnull align 8 dereferenceable(16) %"class.std::basic_istream"* @_ZNSirsERi(%"class.std::basic_istream"* nonnull align 8 dereferenceable(16), i32* nonnull align 4 dereferenceable(4)) local_unnamed_addr #0

; Function Attrs: mustprogress nofree nosync nounwind willreturn
declare i8* @llvm.stacksave() #5

; Function Attrs: argmemonly mustprogress nofree nosync nounwind willreturn
declare void @llvm.lifetime.end.p0i8(i64 immarg, i8* nocapture) #4

; Function Attrs: mustprogress nofree nosync nounwind willreturn
declare void @llvm.stackrestore(i8*) #5

declare nonnull align 8 dereferenceable(8) %"class.std::basic_ostream"* @_ZSt16__ostream_insertIcSt11char_traitsIcEERSt13basic_ostreamIT_T0_ES6_PKS3_l(%"class.std::basic_ostream"* nonnull align 8 dereferenceable(8), i8*, i64) local_unnamed_addr #0

declare nonnull align 8 dereferenceable(8) %"class.std::basic_ostream"* @_ZNSo3putEc(%"class.std::basic_ostream"* nonnull align 8 dereferenceable(8), i8 signext) local_unnamed_addr #0

declare nonnull align 8 dereferenceable(8) %"class.std::basic_ostream"* @_ZNSo5flushEv(%"class.std::basic_ostream"* nonnull align 8 dereferenceable(8)) local_unnamed_addr #0

; Function Attrs: noreturn
declare void @_ZSt16__throw_bad_castv() local_unnamed_addr #6

declare void @_ZNKSt5ctypeIcE13_M_widen_initEv(%"class.std::ctype"* nonnull align 8 dereferenceable(570)) local_unnamed_addr #0

; Function Attrs: sspstrong uwtable
define internal void @_GLOBAL__sub_I_s648659072.cpp() #7 section ".text.startup" {
  tail call void @_ZNSt8ios_base4InitC1Ev(%"class.std::ios_base::Init"* nonnull align 1 dereferenceable(1) @_ZStL8__ioinit)
  %1 = tail call i32 @__cxa_atexit(void (i8*)* bitcast (void (%"class.std::ios_base::Init"*)* @_ZNSt8ios_base4InitD1Ev to void (i8*)*), i8* getelementptr inbounds (%"class.std::ios_base::Init", %"class.std::ios_base::Init"* @_ZStL8__ioinit, i64 0, i32 0), i8* nonnull @__dso_handle) #9
  ret void
}

; Function Attrs: nofree nosync nounwind readnone speculatable willreturn
declare i32 @llvm.smax.i32(i32, i32) #8

attributes #0 = { "frame-pointer"="none" "no-trapping-math"="true" "stack-protector-buffer-size"="8" "target-cpu"="x86-64" "target-features"="+cx8,+fxsr,+mmx,+sse,+sse2,+x87" "tune-cpu"="generic" }
attributes #1 = { nounwind "frame-pointer"="none" "no-trapping-math"="true" "stack-protector-buffer-size"="8" "target-cpu"="x86-64" "target-features"="+cx8,+fxsr,+mmx,+sse,+sse2,+x87" "tune-cpu"="generic" }
attributes #2 = { nofree nounwind }
attributes #3 = { mustprogress norecurse sspstrong uwtable "frame-pointer"="none" "min-legal-vector-width"="0" "no-trapping-math"="true" "stack-protector-buffer-size"="8" "target-cpu"="x86-64" "target-features"="+cx8,+fxsr,+mmx,+sse,+sse2,+x87" "tune-cpu"="generic" }
attributes #4 = { argmemonly mustprogress nofree nosync nounwind willreturn }
attributes #5 = { mustprogress nofree nosync nounwind willreturn }
attributes #6 = { noreturn "frame-pointer"="none" "no-trapping-math"="true" "stack-protector-buffer-size"="8" "target-cpu"="x86-64" "target-features"="+cx8,+fxsr,+mmx,+sse,+sse2,+x87" "tune-cpu"="generic" }
attributes #7 = { sspstrong uwtable "frame-pointer"="none" "min-legal-vector-width"="0" "no-trapping-math"="true" "stack-protector-buffer-size"="8" "target-cpu"="x86-64" "target-features"="+cx8,+fxsr,+mmx,+sse,+sse2,+x87" "tune-cpu"="generic" }
attributes #8 = { nofree nosync nounwind readnone speculatable willreturn }
attributes #9 = { nounwind }
attributes #10 = { noreturn }

!llvm.module.flags = !{!0, !1, !2, !3}
!llvm.ident = !{!4}

!0 = !{i32 1, !"wchar_size", i32 4}
!1 = !{i32 7, !"PIC Level", i32 2}
!2 = !{i32 7, !"PIE Level", i32 2}
!3 = !{i32 7, !"uwtable", i32 1}
!4 = !{!"clang version 13.0.0"}
!5 = !{!6, !6, i64 0}
!6 = !{!"int", !7, i64 0}
!7 = !{!"omnipotent char", !8, i64 0}
!8 = !{!"Simple C++ TBAA"}
!9 = distinct !{!9, !10}
!10 = !{!"llvm.loop.mustprogress"}
!11 = distinct !{!11, !10}
!12 = distinct !{!12, !10}
!13 = distinct !{!13, !10}
!14 = distinct !{!14, !10}
!15 = !{!16, !16, i64 0}
!16 = !{!"vtable pointer", !8, i64 0}
!17 = !{!18, !19, i64 240}
!18 = !{!"_ZTSSt9basic_iosIcSt11char_traitsIcEE", !19, i64 216, !7, i64 224, !20, i64 225, !19, i64 232, !19, i64 240, !19, i64 248, !19, i64 256}
!19 = !{!"any pointer", !7, i64 0}
!20 = !{!"bool", !7, i64 0}
!21 = !{!22, !7, i64 56}
!22 = !{!"_ZTSSt5ctypeIcE", !19, i64 16, !20, i64 24, !19, i64 32, !19, i64 40, !19, i64 48, !7, i64 56, !7, i64 57, !7, i64 313, !7, i64 569}
!23 = !{!7, !7, i64 0}
