; ModuleID = 'Project_CodeNet_C++1400/p02974/s808052443.cpp'
source_filename = "Project_CodeNet_C++1400/p02974/s808052443.cpp"
target datalayout = "e-m:e-p270:32:32-p271:32:32-p272:64:64-i64:64-f80:128-n8:16:32:64-S128"
target triple = "x86_64-pc-linux-gnu"

%"class.std::ios_base::Init" = type { i8 }
%"class.std::__cxx11::basic_string" = type { %"struct.std::__cxx11::basic_string<char>::_Alloc_hider", i64, %union.anon }
%"struct.std::__cxx11::basic_string<char>::_Alloc_hider" = type { i8* }
%union.anon = type { i64, [8 x i8] }
%"class.std::basic_istream" = type { i32 (...)**, i64, %"class.std::basic_ios" }
%"class.std::basic_ios" = type { %"class.std::ios_base", %"class.std::basic_ostream"*, i8, i8, %"class.std::basic_streambuf"*, %"class.std::ctype"*, %"class.std::num_put"*, %"class.std::num_get"* }
%"class.std::ios_base" = type { i32 (...)**, i64, i64, i32, i32, i32, %"struct.std::ios_base::_Callback_list"*, %"struct.std::ios_base::_Words", [8 x %"struct.std::ios_base::_Words"], i32, %"struct.std::ios_base::_Words"*, %"class.std::locale" }
%"struct.std::ios_base::_Callback_list" = type { %"struct.std::ios_base::_Callback_list"*, void (i32, %"class.std::ios_base"*, i32)*, i32, i32 }
%"struct.std::ios_base::_Words" = type { i8*, i64 }
%"class.std::locale" = type { %"class.std::locale::_Impl"* }
%"class.std::locale::_Impl" = type { i32, %"class.std::locale::facet"**, i64, %"class.std::locale::facet"**, i8** }
%"class.std::locale::facet" = type <{ i32 (...)**, i32, [4 x i8] }>
%"class.std::basic_ostream" = type { i32 (...)**, %"class.std::basic_ios" }
%"class.std::basic_streambuf" = type { i32 (...)**, i8*, i8*, i8*, i8*, i8*, i8*, %"class.std::locale" }
%"class.std::ctype" = type <{ %"class.std::locale::facet.base", [4 x i8], %struct.__locale_struct*, i8, [7 x i8], i32*, i32*, i16*, i8, [256 x i8], [256 x i8], i8, [6 x i8] }>
%"class.std::locale::facet.base" = type <{ i32 (...)**, i32 }>
%struct.__locale_struct = type { [13 x %struct.__locale_data*], i16*, i32*, i32*, [13 x i8*] }
%struct.__locale_data = type opaque
%"class.std::num_put" = type { %"class.std::locale::facet.base", [4 x i8] }
%"class.std::num_get" = type { %"class.std::locale::facet.base", [4 x i8] }

@_ZStL8__ioinit = internal global %"class.std::ios_base::Init" zeroinitializer, align 1
@__dso_handle = external hidden global i8
@n = dso_local global i64 0, align 8
@m = dso_local global i64 0, align 8
@ans = dso_local local_unnamed_addr global i64 0, align 8
@tmp = dso_local local_unnamed_addr global i64 0, align 8
@ma = dso_local local_unnamed_addr global i64 -2305843009213693952, align 8
@mi = dso_local local_unnamed_addr global i64 2305843009213693952, align 8
@_Z1sB5cxx11 = dso_local global %"class.std::__cxx11::basic_string" zeroinitializer, align 8
@dx = dso_local local_unnamed_addr global [9 x i64] [i64 0, i64 1, i64 0, i64 -1, i64 0, i64 1, i64 1, i64 -1, i64 -1], align 16
@dy = dso_local local_unnamed_addr global [9 x i64] [i64 0, i64 0, i64 1, i64 0, i64 -1, i64 1, i64 -1, i64 1, i64 -1], align 16
@dp = dso_local local_unnamed_addr global [55 x [3333 x [55 x i64]]] zeroinitializer, align 16
@_ZSt3cin = external global %"class.std::basic_istream", align 8
@_ZSt4cout = external global %"class.std::basic_ostream", align 8
@llvm.global_ctors = appending global [1 x { i32, void ()*, i8* }] [{ i32, void ()*, i8* } { i32 65535, void ()* @_GLOBAL__sub_I_s808052443.cpp, i8* null }]

declare void @_ZNSt8ios_base4InitC1Ev(%"class.std::ios_base::Init"* nonnull align 1 dereferenceable(1)) unnamed_addr #0

; Function Attrs: nounwind
declare void @_ZNSt8ios_base4InitD1Ev(%"class.std::ios_base::Init"* nonnull align 1 dereferenceable(1)) unnamed_addr #1

; Function Attrs: nofree nounwind
declare i32 @__cxa_atexit(void (i8*)*, i8*, i8*) local_unnamed_addr #2

; Function Attrs: nounwind sspstrong uwtable
declare void @_ZNSt7__cxx1112basic_stringIcSt11char_traitsIcESaIcEED2Ev(%"class.std::__cxx11::basic_string"* nonnull align 8 dereferenceable(32)) unnamed_addr #3 align 2

; Function Attrs: mustprogress norecurse sspstrong uwtable
define dso_local i32 @main() local_unnamed_addr #4 {
  %1 = alloca i8, align 1
  %2 = tail call zeroext i1 @_ZNSt8ios_base15sync_with_stdioEb(i1 zeroext false)
  %3 = load i8*, i8** bitcast (%"class.std::basic_istream"* @_ZSt3cin to i8**), align 8, !tbaa !5
  %4 = getelementptr i8, i8* %3, i64 -24
  %5 = bitcast i8* %4 to i64*
  %6 = load i64, i64* %5, align 8
  %7 = add nsw i64 %6, 216
  %8 = getelementptr inbounds i8, i8* bitcast (%"class.std::basic_istream"* @_ZSt3cin to i8*), i64 %7
  %9 = bitcast i8* %8 to %"class.std::basic_ostream"**
  store %"class.std::basic_ostream"* null, %"class.std::basic_ostream"** %9, align 8, !tbaa !8
  %10 = tail call nonnull align 8 dereferenceable(16) %"class.std::basic_istream"* @_ZNSi10_M_extractIxEERSiRT_(%"class.std::basic_istream"* nonnull align 8 dereferenceable(16) @_ZSt3cin, i64* nonnull align 8 dereferenceable(8) @n)
  %11 = tail call nonnull align 8 dereferenceable(16) %"class.std::basic_istream"* @_ZNSi10_M_extractIxEERSiRT_(%"class.std::basic_istream"* nonnull align 8 dereferenceable(16) %10, i64* nonnull align 8 dereferenceable(8) @m)
  %12 = load i64, i64* getelementptr inbounds ([55 x [3333 x [55 x i64]]], [55 x [3333 x [55 x i64]]]* @dp, i64 0, i64 0, i64 0, i64 0), align 16, !tbaa !13
  %13 = add nsw i64 %12, 1
  store i64 %13, i64* getelementptr inbounds ([55 x [3333 x [55 x i64]]], [55 x [3333 x [55 x i64]]]* @dp, i64 0, i64 0, i64 0, i64 0), align 16, !tbaa !13
  %14 = load i64, i64* @n, align 8, !tbaa !13
  %15 = icmp sgt i64 %14, 0
  br i1 %15, label %16, label %23

16:                                               ; preds = %0
  %17 = mul i64 %14, %14
  br label %18

18:                                               ; preds = %16, %42
  %19 = phi i64 [ 1, %16 ], [ %43, %42 ]
  %20 = phi i64 [ 0, %16 ], [ %21, %42 ]
  %21 = add nuw nsw i64 %20, 1
  %22 = icmp eq i64 %19, 1
  br label %29

23:                                               ; preds = %42, %0
  %24 = load i64, i64* @m, align 8, !tbaa !13
  %25 = getelementptr inbounds [55 x [3333 x [55 x i64]]], [55 x [3333 x [55 x i64]]]* @dp, i64 0, i64 %14, i64 %24, i64 0
  %26 = load i64, i64* %25, align 8, !tbaa !13
  %27 = tail call nonnull align 8 dereferenceable(8) %"class.std::basic_ostream"* @_ZNSo9_M_insertIxEERSoT_(%"class.std::basic_ostream"* nonnull align 8 dereferenceable(8) @_ZSt4cout, i64 %26)
  call void @llvm.lifetime.start.p0i8(i64 1, i8* nonnull %1)
  store i8 10, i8* %1, align 1, !tbaa !15
  %28 = call nonnull align 8 dereferenceable(8) %"class.std::basic_ostream"* @_ZSt16__ostream_insertIcSt11char_traitsIcEERSt13basic_ostreamIT_T0_ES6_PKS3_l(%"class.std::basic_ostream"* nonnull align 8 dereferenceable(8) %27, i8* nonnull %1, i64 1)
  call void @llvm.lifetime.end.p0i8(i64 1, i8* nonnull %1)
  ret i32 0

29:                                               ; preds = %45, %18
  %30 = phi i64 [ 0, %18 ], [ %46, %45 ]
  %31 = getelementptr inbounds [55 x [3333 x [55 x i64]]], [55 x [3333 x [55 x i64]]]* @dp, i64 0, i64 %20, i64 %30, i64 0
  %32 = load i64, i64* %31, align 8, !tbaa !13
  %33 = add nuw nsw i64 %30, 2
  %34 = getelementptr inbounds [55 x [3333 x [55 x i64]]], [55 x [3333 x [55 x i64]]]* @dp, i64 0, i64 %21, i64 %33, i64 1
  %35 = load i64, i64* %34, align 8, !tbaa !13
  %36 = add nsw i64 %35, %32
  %37 = srem i64 %36, 1000000007
  store i64 %37, i64* %34, align 8, !tbaa !13
  %38 = getelementptr inbounds [55 x [3333 x [55 x i64]]], [55 x [3333 x [55 x i64]]]* @dp, i64 0, i64 %21, i64 %30, i64 0
  %39 = load i64, i64* %38, align 8, !tbaa !13
  %40 = add nsw i64 %39, %32
  %41 = srem i64 %40, 1000000007
  store i64 %41, i64* %38, align 8, !tbaa !13
  br i1 %22, label %45, label %48

42:                                               ; preds = %45
  %43 = add nuw i64 %19, 1
  %44 = icmp eq i64 %21, %14
  br i1 %44, label %23, label %18, !llvm.loop !16

45:                                               ; preds = %48, %29
  %46 = add nuw i64 %30, 1
  %47 = icmp eq i64 %30, %17
  br i1 %47, label %42, label %29, !llvm.loop !18

48:                                               ; preds = %29, %48
  %49 = phi i64 [ %52, %48 ], [ 1, %29 ]
  %50 = getelementptr inbounds [55 x [3333 x [55 x i64]]], [55 x [3333 x [55 x i64]]]* @dp, i64 0, i64 %20, i64 %30, i64 %49
  %51 = load i64, i64* %50, align 8, !tbaa !13
  %52 = add nuw nsw i64 %49, 1
  %53 = shl nuw nsw i64 %52, 1
  %54 = add nuw nsw i64 %53, %30
  %55 = getelementptr inbounds [55 x [3333 x [55 x i64]]], [55 x [3333 x [55 x i64]]]* @dp, i64 0, i64 %21, i64 %54, i64 %52
  %56 = load i64, i64* %55, align 8, !tbaa !13
  %57 = add nsw i64 %56, %51
  %58 = srem i64 %57, 1000000007
  store i64 %58, i64* %55, align 8, !tbaa !13
  %59 = shl nuw i64 %49, 1
  %60 = add nuw nsw i64 %59, %30
  %61 = getelementptr inbounds [55 x [3333 x [55 x i64]]], [55 x [3333 x [55 x i64]]]* @dp, i64 0, i64 %21, i64 %60, i64 %49
  %62 = load i64, i64* %61, align 8, !tbaa !13
  %63 = add nsw i64 %62, %51
  %64 = srem i64 %63, 1000000007
  store i64 %64, i64* %61, align 8, !tbaa !13
  %65 = load i64, i64* %50, align 8, !tbaa !13
  %66 = mul i64 %59, %65
  %67 = add nsw i64 %66, %64
  %68 = srem i64 %67, 1000000007
  store i64 %68, i64* %61, align 8, !tbaa !13
  %69 = load i64, i64* %50, align 8, !tbaa !13
  %70 = mul i64 %49, %49
  %71 = mul i64 %70, %69
  %72 = add nsw i64 %49, -1
  %73 = shl nsw i64 %72, 1
  %74 = add nuw nsw i64 %73, %30
  %75 = getelementptr inbounds [55 x [3333 x [55 x i64]]], [55 x [3333 x [55 x i64]]]* @dp, i64 0, i64 %21, i64 %74, i64 %72
  %76 = load i64, i64* %75, align 8, !tbaa !13
  %77 = add nsw i64 %71, %76
  %78 = srem i64 %77, 1000000007
  store i64 %78, i64* %75, align 8, !tbaa !13
  %79 = icmp eq i64 %52, %19
  br i1 %79, label %45, label %48, !llvm.loop !19
}

declare zeroext i1 @_ZNSt8ios_base15sync_with_stdioEb(i1 zeroext) local_unnamed_addr #0

; Function Attrs: argmemonly mustprogress nofree nosync nounwind willreturn
declare void @llvm.lifetime.start.p0i8(i64 immarg, i8* nocapture) #5

; Function Attrs: argmemonly mustprogress nofree nosync nounwind willreturn
declare void @llvm.lifetime.end.p0i8(i64 immarg, i8* nocapture) #5

declare i32 @__gxx_personality_v0(...)

declare nonnull align 8 dereferenceable(16) %"class.std::basic_istream"* @_ZNSi10_M_extractIxEERSiRT_(%"class.std::basic_istream"* nonnull align 8 dereferenceable(16), i64* nonnull align 8 dereferenceable(8)) local_unnamed_addr #0

declare nonnull align 8 dereferenceable(8) %"class.std::basic_ostream"* @_ZNSo9_M_insertIxEERSoT_(%"class.std::basic_ostream"* nonnull align 8 dereferenceable(8), i64) local_unnamed_addr #0

declare nonnull align 8 dereferenceable(8) %"class.std::basic_ostream"* @_ZSt16__ostream_insertIcSt11char_traitsIcEERSt13basic_ostreamIT_T0_ES6_PKS3_l(%"class.std::basic_ostream"* nonnull align 8 dereferenceable(8), i8*, i64) local_unnamed_addr #0

; Function Attrs: sspstrong uwtable
define internal void @_GLOBAL__sub_I_s808052443.cpp() #6 section ".text.startup" personality i32 (...)* @__gxx_personality_v0 {
  tail call void @_ZNSt8ios_base4InitC1Ev(%"class.std::ios_base::Init"* nonnull align 1 dereferenceable(1) @_ZStL8__ioinit)
  %1 = tail call i32 @__cxa_atexit(void (i8*)* bitcast (void (%"class.std::ios_base::Init"*)* @_ZNSt8ios_base4InitD1Ev to void (i8*)*), i8* getelementptr inbounds (%"class.std::ios_base::Init", %"class.std::ios_base::Init"* @_ZStL8__ioinit, i64 0, i32 0), i8* nonnull @__dso_handle) #7
  store %union.anon* getelementptr inbounds (%"class.std::__cxx11::basic_string", %"class.std::__cxx11::basic_string"* @_Z1sB5cxx11, i64 0, i32 2), %union.anon** bitcast (%"class.std::__cxx11::basic_string"* @_Z1sB5cxx11 to %union.anon**), align 8, !tbaa !21
  store i64 0, i64* getelementptr inbounds (%"class.std::__cxx11::basic_string", %"class.std::__cxx11::basic_string"* @_Z1sB5cxx11, i64 0, i32 1), align 8, !tbaa !23
  store i8 0, i8* bitcast (%union.anon* getelementptr inbounds (%"class.std::__cxx11::basic_string", %"class.std::__cxx11::basic_string"* @_Z1sB5cxx11, i64 0, i32 2) to i8*), align 8, !tbaa !15
  %2 = tail call i32 @__cxa_atexit(void (i8*)* bitcast (void (%"class.std::__cxx11::basic_string"*)* @_ZNSt7__cxx1112basic_stringIcSt11char_traitsIcESaIcEED2Ev to void (i8*)*), i8* bitcast (%"class.std::__cxx11::basic_string"* @_Z1sB5cxx11 to i8*), i8* nonnull @__dso_handle) #7
  ret void
}

attributes #0 = { "frame-pointer"="none" "no-trapping-math"="true" "stack-protector-buffer-size"="8" "target-cpu"="x86-64" "target-features"="+cx8,+fxsr,+mmx,+sse,+sse2,+x87" "tune-cpu"="generic" }
attributes #1 = { nounwind "frame-pointer"="none" "no-trapping-math"="true" "stack-protector-buffer-size"="8" "target-cpu"="x86-64" "target-features"="+cx8,+fxsr,+mmx,+sse,+sse2,+x87" "tune-cpu"="generic" }
attributes #2 = { nofree nounwind }
attributes #3 = { nounwind sspstrong uwtable "frame-pointer"="none" "min-legal-vector-width"="0" "no-trapping-math"="true" "stack-protector-buffer-size"="8" "target-cpu"="x86-64" "target-features"="+cx8,+fxsr,+mmx,+sse,+sse2,+x87" "tune-cpu"="generic" }
attributes #4 = { mustprogress norecurse sspstrong uwtable "frame-pointer"="none" "min-legal-vector-width"="0" "no-trapping-math"="true" "stack-protector-buffer-size"="8" "target-cpu"="x86-64" "target-features"="+cx8,+fxsr,+mmx,+sse,+sse2,+x87" "tune-cpu"="generic" }
attributes #5 = { argmemonly mustprogress nofree nosync nounwind willreturn }
attributes #6 = { sspstrong uwtable "frame-pointer"="none" "min-legal-vector-width"="0" "no-trapping-math"="true" "stack-protector-buffer-size"="8" "target-cpu"="x86-64" "target-features"="+cx8,+fxsr,+mmx,+sse,+sse2,+x87" "tune-cpu"="generic" }
attributes #7 = { nounwind }

!llvm.module.flags = !{!0, !1, !2, !3}
!llvm.ident = !{!4}

!0 = !{i32 1, !"wchar_size", i32 4}
!1 = !{i32 7, !"PIC Level", i32 2}
!2 = !{i32 7, !"PIE Level", i32 2}
!3 = !{i32 7, !"uwtable", i32 1}
!4 = !{!"clang version 13.0.0"}
!5 = !{!6, !6, i64 0}
!6 = !{!"vtable pointer", !7, i64 0}
!7 = !{!"Simple C++ TBAA"}
!8 = !{!9, !10, i64 216}
!9 = !{!"_ZTSSt9basic_iosIcSt11char_traitsIcEE", !10, i64 216, !11, i64 224, !12, i64 225, !10, i64 232, !10, i64 240, !10, i64 248, !10, i64 256}
!10 = !{!"any pointer", !11, i64 0}
!11 = !{!"omnipotent char", !7, i64 0}
!12 = !{!"bool", !11, i64 0}
!13 = !{!14, !14, i64 0}
!14 = !{!"long long", !11, i64 0}
!15 = !{!11, !11, i64 0}
!16 = distinct !{!16, !17}
!17 = !{!"llvm.loop.mustprogress"}
!18 = distinct !{!18, !17}
!19 = distinct !{!19, !17, !20}
!20 = !{!"llvm.loop.peeled.count", i32 1}
!21 = !{!22, !10, i64 0}
!22 = !{!"_ZTSNSt7__cxx1112basic_stringIcSt11char_traitsIcESaIcEE12_Alloc_hiderE", !10, i64 0}
!23 = !{!24, !25, i64 8}
!24 = !{!"_ZTSNSt7__cxx1112basic_stringIcSt11char_traitsIcESaIcEEE", !22, i64 0, !25, i64 8, !11, i64 16}
!25 = !{!"long", !11, i64 0}
