; ModuleID = 'Project_CodeNet_C++1400/p03175/s537365422.cpp'
source_filename = "Project_CodeNet_C++1400/p03175/s537365422.cpp"
target datalayout = "e-m:e-p270:32:32-p271:32:32-p272:64:64-i64:64-f80:128-n8:16:32:64-S128"
target triple = "x86_64-pc-linux-gnu"

%"class.std::ios_base::Init" = type { i8 }
%"class.std::vector" = type { %"struct.std::_Vector_base" }
%"struct.std::_Vector_base" = type { %"struct.std::_Vector_base<int, std::allocator<int>>::_Vector_impl" }
%"struct.std::_Vector_base<int, std::allocator<int>>::_Vector_impl" = type { %"struct.std::_Vector_base<int, std::allocator<int>>::_Vector_impl_data" }
%"struct.std::_Vector_base<int, std::allocator<int>>::_Vector_impl_data" = type { i32*, i32*, i32* }
%"class.std::vector.0" = type { %"struct.std::_Vector_base.1" }
%"struct.std::_Vector_base.1" = type { %"struct.std::_Vector_base<std::vector<long double>, std::allocator<std::vector<long double>>>::_Vector_impl" }
%"struct.std::_Vector_base<std::vector<long double>, std::allocator<std::vector<long double>>>::_Vector_impl" = type { %"struct.std::_Vector_base<std::vector<long double>, std::allocator<std::vector<long double>>>::_Vector_impl_data" }
%"struct.std::_Vector_base<std::vector<long double>, std::allocator<std::vector<long double>>>::_Vector_impl_data" = type { %"class.std::vector.5"*, %"class.std::vector.5"*, %"class.std::vector.5"* }
%"class.std::vector.5" = type { %"struct.std::_Vector_base.6" }
%"struct.std::_Vector_base.6" = type { %"struct.std::_Vector_base<long double, std::allocator<long double>>::_Vector_impl" }
%"struct.std::_Vector_base<long double, std::allocator<long double>>::_Vector_impl" = type { %"struct.std::_Vector_base<long double, std::allocator<long double>>::_Vector_impl_data" }
%"struct.std::_Vector_base<long double, std::allocator<long double>>::_Vector_impl_data" = type { x86_fp80*, x86_fp80*, x86_fp80* }
%"class.std::basic_istream" = type { i32 (...)**, i64, %"class.std::basic_ios" }
%"class.std::basic_ios" = type { %"class.std::ios_base", %"class.std::basic_ostream"*, i8, i8, %"class.std::basic_streambuf"*, %"class.std::ctype"*, %"class.std::num_put"*, %"class.std::num_get"* }
%"class.std::ios_base" = type { i32 (...)**, i64, i64, i32, i32, i32, %"struct.std::ios_base::_Callback_list"*, %"struct.std::ios_base::_Words", [8 x %"struct.std::ios_base::_Words"], i32, %"struct.std::ios_base::_Words"*, %"class.std::locale" }
%"struct.std::ios_base::_Callback_list" = type { %"struct.std::ios_base::_Callback_list"*, void (i32, %"class.std::ios_base"*, i32)*, i32, i32 }
%"struct.std::ios_base::_Words" = type { i8*, i64 }
%"class.std::locale" = type { %"class.std::locale::_Impl"* }
%"class.std::locale::_Impl" = type { i32, %"class.std::locale::facet"**, i64, %"class.std::locale::facet"**, i8** }
%"class.std::locale::facet" = type <{ i32 (...)**, i32, [4 x i8] }>
%"class.std::basic_ostream" = type { i32 (...)**, %"class.std::basic_ios" }
%"class.std::basic_streambuf" = type { i32 (...)**, i8*, i8*, i8*, i8*, i8*, i8*, %"class.std::locale" }
%"class.std::ctype" = type <{ %"class.std::locale::facet.base", [4 x i8], %struct.__locale_struct*, i8, [7 x i8], i32*, i32*, i16*, i8, [256 x i8], [256 x i8], i8, [6 x i8] }>
%"class.std::locale::facet.base" = type <{ i32 (...)**, i32 }>
%struct.__locale_struct = type { [13 x %struct.__locale_data*], i16*, i32*, i32*, [13 x i8*] }
%struct.__locale_data = type opaque
%"class.std::num_put" = type { %"class.std::locale::facet.base", [4 x i8] }
%"class.std::num_get" = type { %"class.std::locale::facet.base", [4 x i8] }
%"class.std::allocator" = type { i8 }
%"class.std::allocator.7" = type { i8 }
%"class.std::allocator.2" = type { i8 }
%"class.std::vector.10" = type { %"struct.std::_Vector_base.11" }
%"struct.std::_Vector_base.11" = type { %"struct.std::_Vector_base<std::vector<int>, std::allocator<std::vector<int>>>::_Vector_impl" }
%"struct.std::_Vector_base<std::vector<int>, std::allocator<std::vector<int>>>::_Vector_impl" = type { %"struct.std::_Vector_base<std::vector<int>, std::allocator<std::vector<int>>>::_Vector_impl_data" }
%"struct.std::_Vector_base<std::vector<int>, std::allocator<std::vector<int>>>::_Vector_impl_data" = type { %"class.std::vector"*, %"class.std::vector"*, %"class.std::vector"* }
%"class.std::allocator.12" = type { i8 }
%"class.std::vector.15" = type { %"struct.std::_Vector_base.16" }
%"struct.std::_Vector_base.16" = type { %"struct.std::_Vector_base<std::vector<long long>, std::allocator<std::vector<long long>>>::_Vector_impl" }
%"struct.std::_Vector_base<std::vector<long long>, std::allocator<std::vector<long long>>>::_Vector_impl" = type { %"struct.std::_Vector_base<std::vector<long long>, std::allocator<std::vector<long long>>>::_Vector_impl_data" }
%"struct.std::_Vector_base<std::vector<long long>, std::allocator<std::vector<long long>>>::_Vector_impl_data" = type { %"class.std::vector.20"*, %"class.std::vector.20"*, %"class.std::vector.20"* }
%"class.std::vector.20" = type { %"struct.std::_Vector_base.21" }
%"struct.std::_Vector_base.21" = type { %"struct.std::_Vector_base<long long, std::allocator<long long>>::_Vector_impl" }
%"struct.std::_Vector_base<long long, std::allocator<long long>>::_Vector_impl" = type { %"struct.std::_Vector_base<long long, std::allocator<long long>>::_Vector_impl_data" }
%"struct.std::_Vector_base<long long, std::allocator<long long>>::_Vector_impl_data" = type { i64*, i64*, i64* }
%"class.std::allocator.22" = type { i8 }
%"class.std::allocator.17" = type { i8 }
%class.anon = type { %"class.std::vector.10"*, %"class.std::vector.15"* }
%"class.__gnu_cxx::new_allocator" = type { i8 }
%"class.__gnu_cxx::new_allocator.8" = type { i8 }
%"class.__gnu_cxx::new_allocator.3" = type { i8 }
%"class.__gnu_cxx::new_allocator.13" = type { i8 }
%"class.__gnu_cxx::new_allocator.23" = type { i8 }
%"class.__gnu_cxx::new_allocator.18" = type { i8 }

$_ZNSt6vectorIiSaIiEED2Ev = comdat any

$_ZNSt6vectorIiSaIiEEC2EmRKiRKS0_ = comdat any

$_ZNSt6vectorIS_IeSaIeEESaIS1_EED2Ev = comdat any

$_ZNSt6vectorIiSaIiEE9push_backERKi = comdat any

$_ZNSt6vectorIeSaIeEEC2EmRKeRKS0_ = comdat any

$_ZNSt6vectorIS_IeSaIeEESaIS1_EEC2EmRKS1_RKS2_ = comdat any

$_ZNSt6vectorIS_IiSaIiEESaIS1_EEC2EmRKS2_ = comdat any

$_ZNSt6vectorIxSaIxEEC2EmRKxRKS0_ = comdat any

$_ZNSt6vectorIS_IxSaIxEESaIS1_EEC2EmRKS1_RKS2_ = comdat any

$_ZNSt6vectorIS_IxSaIxEESaIS1_EED2Ev = comdat any

$_ZNSt6vectorIS_IiSaIiEESaIS1_EED2Ev = comdat any

$_ZNSt12_Vector_baseIiSaIiEED2Ev = comdat any

$__clang_call_terminate = comdat any

$_ZNSt6vectorIiSaIiEE17_S_check_init_lenEmRKS0_ = comdat any

$_ZNSt6vectorIiSaIiEE18_M_fill_initializeEmRKi = comdat any

$_ZNSt12_Vector_baseIiSaIiEE17_M_create_storageEm = comdat any

$_ZNSt12_Vector_baseIiSaIiEE11_M_allocateEm = comdat any

$_ZNSt16allocator_traitsISaIiEE8allocateERS0_m = comdat any

$_ZN9__gnu_cxx13new_allocatorIiE8allocateEmPKv = comdat any

$_ZSt10__fill_n_aIPimiET_S1_T0_RKT1_St26random_access_iterator_tag = comdat any

$_ZNSt12_Vector_baseISt6vectorIeSaIeEESaIS2_EED2Ev = comdat any

$_ZNSt12_Destroy_auxILb0EE9__destroyIPSt6vectorIeSaIeEEEEvT_S6_ = comdat any

$_ZNSt6vectorIiSaIiEE14_M_move_assignEOS1_St17integral_constantIbLb1EE = comdat any

$_ZNSt12_Vector_baseIiSaIiEE17_Vector_impl_data12_M_swap_dataERS2_ = comdat any

$_ZNSt6vectorIiSaIiEE17_M_realloc_insertIJRKiEEEvN9__gnu_cxx17__normal_iteratorIPiS1_EEDpOT_ = comdat any

$_ZNKSt6vectorIiSaIiEE12_M_check_lenEmPKc = comdat any

$_ZNSt6vectorIeSaIeEE17_S_check_init_lenEmRKS0_ = comdat any

$_ZNSt6vectorIeSaIeEE18_M_fill_initializeEmRKe = comdat any

$_ZNSt12_Vector_baseIeSaIeEED2Ev = comdat any

$_ZNSt12_Vector_baseIeSaIeEE17_M_create_storageEm = comdat any

$_ZNSt12_Vector_baseIeSaIeEE11_M_allocateEm = comdat any

$_ZNSt16allocator_traitsISaIeEE8allocateERS0_m = comdat any

$_ZN9__gnu_cxx13new_allocatorIeE8allocateEmPKv = comdat any

$_ZSt10__fill_n_aIPemeET_S1_T0_RKT1_St26random_access_iterator_tag = comdat any

$_ZNSt6vectorIS_IeSaIeEESaIS1_EE17_S_check_init_lenEmRKS2_ = comdat any

$_ZNSt6vectorIS_IeSaIeEESaIS1_EE18_M_fill_initializeEmRKS1_ = comdat any

$_ZNSt12_Vector_baseISt6vectorIeSaIeEESaIS2_EE17_M_create_storageEm = comdat any

$_ZNSt12_Vector_baseISt6vectorIeSaIeEESaIS2_EE11_M_allocateEm = comdat any

$_ZNSt16allocator_traitsISaISt6vectorIeSaIeEEEE8allocateERS3_m = comdat any

$_ZN9__gnu_cxx13new_allocatorISt6vectorIeSaIeEEE8allocateEmPKv = comdat any

$_ZNSt22__uninitialized_fill_nILb0EE15__uninit_fill_nIPSt6vectorIeSaIeEEmS4_EET_S6_T0_RKT1_ = comdat any

$_ZNSt6vectorIeSaIeEEC2ERKS1_ = comdat any

$_ZNSt6vectorIS_IeSaIeEESaIS1_EE14_M_move_assignEOS3_St17integral_constantIbLb1EE = comdat any

$_ZNSt12_Vector_baseISt6vectorIeSaIeEESaIS2_EE17_Vector_impl_data12_M_swap_dataERS5_ = comdat any

$_ZNSt6vectorIS_IiSaIiEESaIS1_EE17_S_check_init_lenEmRKS2_ = comdat any

$_ZNSt6vectorIS_IiSaIiEESaIS1_EE21_M_default_initializeEm = comdat any

$_ZNSt12_Vector_baseISt6vectorIiSaIiEESaIS2_EED2Ev = comdat any

$_ZNSt12_Vector_baseISt6vectorIiSaIiEESaIS2_EE17_M_create_storageEm = comdat any

$_ZNSt12_Vector_baseISt6vectorIiSaIiEESaIS2_EE11_M_allocateEm = comdat any

$_ZNSt16allocator_traitsISaISt6vectorIiSaIiEEEE8allocateERS3_m = comdat any

$_ZN9__gnu_cxx13new_allocatorISt6vectorIiSaIiEEE8allocateEmPKv = comdat any

$_ZNSt27__uninitialized_default_n_1ILb0EE18__uninit_default_nIPSt6vectorIiSaIiEEmEET_S6_T0_ = comdat any

$_ZNSt12_Destroy_auxILb0EE9__destroyIPSt6vectorIiSaIiEEEEvT_S6_ = comdat any

$_ZNSt6vectorIxSaIxEE17_S_check_init_lenEmRKS0_ = comdat any

$_ZNSt6vectorIxSaIxEE18_M_fill_initializeEmRKx = comdat any

$_ZNSt12_Vector_baseIxSaIxEED2Ev = comdat any

$_ZNSt12_Vector_baseIxSaIxEE17_M_create_storageEm = comdat any

$_ZNSt12_Vector_baseIxSaIxEE11_M_allocateEm = comdat any

$_ZNSt16allocator_traitsISaIxEE8allocateERS0_m = comdat any

$_ZN9__gnu_cxx13new_allocatorIxE8allocateEmPKv = comdat any

$_ZSt10__fill_n_aIPxmxET_S1_T0_RKT1_St26random_access_iterator_tag = comdat any

$_ZNSt6vectorIS_IxSaIxEESaIS1_EE17_S_check_init_lenEmRKS2_ = comdat any

$_ZNSt6vectorIS_IxSaIxEESaIS1_EE18_M_fill_initializeEmRKS1_ = comdat any

$_ZNSt12_Vector_baseISt6vectorIxSaIxEESaIS2_EED2Ev = comdat any

$_ZNSt12_Vector_baseISt6vectorIxSaIxEESaIS2_EE17_M_create_storageEm = comdat any

$_ZNSt12_Vector_baseISt6vectorIxSaIxEESaIS2_EE11_M_allocateEm = comdat any

$_ZNSt16allocator_traitsISaISt6vectorIxSaIxEEEE8allocateERS3_m = comdat any

$_ZN9__gnu_cxx13new_allocatorISt6vectorIxSaIxEEE8allocateEmPKv = comdat any

$_ZNSt22__uninitialized_fill_nILb0EE15__uninit_fill_nIPSt6vectorIxSaIxEEmS4_EET_S6_T0_RKT1_ = comdat any

$_ZNSt6vectorIxSaIxEEC2ERKS1_ = comdat any

$_ZNSt12_Destroy_auxILb0EE9__destroyIPSt6vectorIxSaIxEEEEvT_S6_ = comdat any

@_ZStL8__ioinit = internal global %"class.std::ios_base::Init" zeroinitializer, align 1
@__dso_handle = external hidden global i8
@m = dso_local global %"class.std::vector" zeroinitializer, align 8
@primes = dso_local global %"class.std::vector" zeroinitializer, align 8
@nk = dso_local global %"class.std::vector.0" zeroinitializer, align 8
@dx = dso_local local_unnamed_addr global [4 x i32] [i32 -1, i32 0, i32 0, i32 1], align 16
@dy = dso_local local_unnamed_addr global [4 x i32] [i32 0, i32 1, i32 -1, i32 0], align 16
@_ZSt3cin = external global %"class.std::basic_istream", align 8
@_ZSt4cout = external global %"class.std::basic_ostream", align 8
@.str = private unnamed_addr constant [49 x i8] c"cannot create std::vector larger than max_size()\00", align 1
@.str.4 = private unnamed_addr constant [26 x i8] c"vector::_M_realloc_insert\00", align 1
@llvm.global_ctors = appending global [1 x { i32, void ()*, i8* }] [{ i32, void ()*, i8* } { i32 65535, void ()* @_GLOBAL__sub_I_s537365422.cpp, i8* null }]

; Function Attrs: minsize optsize
declare void @_ZNSt8ios_base4InitC1Ev(%"class.std::ios_base::Init"* nonnull align 1 dereferenceable(1)) unnamed_addr #0

; Function Attrs: minsize nounwind optsize
declare void @_ZNSt8ios_base4InitD1Ev(%"class.std::ios_base::Init"* nonnull align 1 dereferenceable(1)) unnamed_addr #1

; Function Attrs: nofree nounwind
declare i32 @__cxa_atexit(void (i8*)*, i8*, i8*) local_unnamed_addr #2

; Function Attrs: minsize nounwind optsize sspstrong uwtable
define linkonce_odr dso_local void @_ZNSt6vectorIiSaIiEED2Ev(%"class.std::vector"* nonnull align 8 dereferenceable(24) %0) unnamed_addr #3 comdat align 2 personality i8* bitcast (i32 (...)* @__gxx_personality_v0 to i8*) {
  %2 = getelementptr inbounds %"class.std::vector", %"class.std::vector"* %0, i64 0, i32 0
  tail call void @_ZNSt12_Vector_baseIiSaIiEED2Ev(%"struct.std::_Vector_base"* nonnull align 8 dereferenceable(24) %2) #21
  ret void
}

; Function Attrs: argmemonly mustprogress nofree nosync nounwind willreturn
declare void @llvm.lifetime.start.p0i8(i64 immarg, i8* nocapture) #4

; Function Attrs: minsize optsize sspstrong uwtable
define linkonce_odr dso_local void @_ZNSt6vectorIiSaIiEEC2EmRKiRKS0_(%"class.std::vector"* nonnull align 8 dereferenceable(24) %0, i64 %1, i32* nonnull align 4 dereferenceable(4) %2, %"class.std::allocator"* nonnull align 1 dereferenceable(1) %3) unnamed_addr #5 comdat align 2 personality i8* bitcast (i32 (...)* @__gxx_personality_v0 to i8*) {
  %5 = getelementptr inbounds %"class.std::vector", %"class.std::vector"* %0, i64 0, i32 0
  %6 = tail call i64 @_ZNSt6vectorIiSaIiEE17_S_check_init_lenEmRKS0_(i64 %1, %"class.std::allocator"* nonnull align 1 dereferenceable(1) %3) #22
  %7 = bitcast %"class.std::vector"* %0 to i8*
  tail call void @llvm.memset.p0i8.i64(i8* noundef nonnull align 8 dereferenceable(24) %7, i8 0, i64 24, i1 false) #23
  tail call void @_ZNSt12_Vector_baseIiSaIiEE17_M_create_storageEm(%"struct.std::_Vector_base"* nonnull align 8 dereferenceable(24) %5, i64 %6) #22
  invoke void @_ZNSt6vectorIiSaIiEE18_M_fill_initializeEmRKi(%"class.std::vector"* nonnull align 8 dereferenceable(24) %0, i64 %1, i32* nonnull align 4 dereferenceable(4) %2) #22
          to label %8 unwind label %9

8:                                                ; preds = %4
  ret void

9:                                                ; preds = %4
  %10 = landingpad { i8*, i32 }
          cleanup
  tail call void @_ZNSt12_Vector_baseIiSaIiEED2Ev(%"struct.std::_Vector_base"* nonnull align 8 dereferenceable(24) %5) #21
  resume { i8*, i32 } %10
}

declare i32 @__gxx_personality_v0(...)

; Function Attrs: argmemonly mustprogress nofree nosync nounwind willreturn
declare void @llvm.lifetime.end.p0i8(i64 immarg, i8* nocapture) #4

; Function Attrs: minsize nounwind optsize sspstrong uwtable
define linkonce_odr dso_local void @_ZNSt6vectorIS_IeSaIeEESaIS1_EED2Ev(%"class.std::vector.0"* nonnull align 8 dereferenceable(24) %0) unnamed_addr #3 comdat align 2 personality i8* bitcast (i32 (...)* @__gxx_personality_v0 to i8*) {
  %2 = getelementptr inbounds %"class.std::vector.0", %"class.std::vector.0"* %0, i64 0, i32 0
  %3 = getelementptr inbounds %"class.std::vector.0", %"class.std::vector.0"* %0, i64 0, i32 0, i32 0, i32 0, i32 0
  %4 = load %"class.std::vector.5"*, %"class.std::vector.5"** %3, align 8, !tbaa !5
  %5 = getelementptr inbounds %"class.std::vector.0", %"class.std::vector.0"* %0, i64 0, i32 0, i32 0, i32 0, i32 1
  %6 = load %"class.std::vector.5"*, %"class.std::vector.5"** %5, align 8, !tbaa !10
  invoke void @_ZNSt12_Destroy_auxILb0EE9__destroyIPSt6vectorIeSaIeEEEEvT_S6_(%"class.std::vector.5"* %4, %"class.std::vector.5"* %6) #22
          to label %7 unwind label %8

7:                                                ; preds = %1
  tail call void @_ZNSt12_Vector_baseISt6vectorIeSaIeEESaIS2_EED2Ev(%"struct.std::_Vector_base.1"* nonnull align 8 dereferenceable(24) %2) #21
  ret void

8:                                                ; preds = %1
  %9 = landingpad { i8*, i32 }
          catch i8* null
  %10 = extractvalue { i8*, i32 } %9, 0
  tail call void @_ZNSt12_Vector_baseISt6vectorIeSaIeEESaIS2_EED2Ev(%"struct.std::_Vector_base.1"* nonnull align 8 dereferenceable(24) %2) #21
  tail call void @__clang_call_terminate(i8* %10) #24
  unreachable
}

; Function Attrs: minsize optsize sspstrong uwtable
define dso_local void @_Z5sievev() local_unnamed_addr #5 personality i8* bitcast (i32 (...)* @__gxx_personality_v0 to i8*) {
  %1 = alloca %"class.std::vector", align 8
  %2 = alloca i32, align 4
  %3 = alloca %"class.std::allocator", align 1
  %4 = alloca i32, align 4
  %5 = bitcast %"class.std::vector"* %1 to i8*
  call void @llvm.lifetime.start.p0i8(i64 24, i8* nonnull %5) #23
  %6 = bitcast i32* %2 to i8*
  call void @llvm.lifetime.start.p0i8(i64 4, i8* nonnull %6) #23
  store i32 0, i32* %2, align 4, !tbaa !11
  %7 = getelementptr inbounds %"class.std::allocator", %"class.std::allocator"* %3, i64 0, i32 0
  call void @llvm.lifetime.start.p0i8(i64 1, i8* nonnull %7) #23
  call void @_ZNSt6vectorIiSaIiEEC2EmRKiRKS0_(%"class.std::vector"* nonnull align 8 dereferenceable(24) %1, i64 3006, i32* nonnull align 4 dereferenceable(4) %2, %"class.std::allocator"* nonnull align 1 dereferenceable(1) %3) #22
  call void @_ZNSt6vectorIiSaIiEE14_M_move_assignEOS1_St17integral_constantIbLb1EE(%"class.std::vector"* nonnull align 8 dereferenceable(24) @m, %"class.std::vector"* nonnull align 8 dereferenceable(24) %1) #21
  %8 = getelementptr inbounds %"class.std::vector", %"class.std::vector"* %1, i64 0, i32 0
  call void @_ZNSt12_Vector_baseIiSaIiEED2Ev(%"struct.std::_Vector_base"* nonnull align 8 dereferenceable(24) %8) #21
  call void @llvm.lifetime.end.p0i8(i64 1, i8* nonnull %7) #23
  call void @llvm.lifetime.end.p0i8(i64 4, i8* nonnull %6) #23
  call void @llvm.lifetime.end.p0i8(i64 24, i8* nonnull %5) #23
  %9 = load i32*, i32** getelementptr inbounds (%"class.std::vector", %"class.std::vector"* @m, i64 0, i32 0, i32 0, i32 0, i32 0), align 8, !tbaa !13
  br label %10

10:                                               ; preds = %15, %0
  %11 = phi i64 [ %17, %15 ], [ 4, %0 ]
  %12 = icmp ult i64 %11, 3005
  br i1 %12, label %15, label %13

13:                                               ; preds = %10
  %14 = load i32*, i32** getelementptr inbounds (%"class.std::vector", %"class.std::vector"* @m, i64 0, i32 0, i32 0, i32 0, i32 0), align 8
  br label %18

15:                                               ; preds = %10
  %16 = getelementptr inbounds i32, i32* %9, i64 %11
  store i32 1, i32* %16, align 4, !tbaa !11
  %17 = add nuw nsw i64 %11, 2
  br label %10, !llvm.loop !15

18:                                               ; preds = %13, %39
  %19 = phi i64 [ 16, %13 ], [ %42, %39 ]
  %20 = phi i64 [ 3, %13 ], [ %40, %39 ]
  %21 = phi i32 [ 9, %13 ], [ %44, %39 ]
  %22 = phi i32 [ 3, %13 ], [ %41, %39 ]
  %23 = mul nsw i32 %22, %22
  %24 = icmp ult i32 %23, 3006
  br i1 %24, label %27, label %25

25:                                               ; preds = %18
  %26 = bitcast i32* %4 to i8*
  call void @llvm.lifetime.start.p0i8(i64 4, i8* nonnull %26) #23
  br label %45

27:                                               ; preds = %18
  %28 = getelementptr inbounds i32, i32* %14, i64 %20
  %29 = load i32, i32* %28, align 4, !tbaa !11
  %30 = icmp eq i32 %29, 0
  br i1 %30, label %31, label %39

31:                                               ; preds = %27
  %32 = zext i32 %21 to i64
  br label %33

33:                                               ; preds = %31, %36
  %34 = phi i64 [ %38, %36 ], [ %32, %31 ]
  %35 = icmp ult i64 %34, 3005
  br i1 %35, label %36, label %39

36:                                               ; preds = %33
  %37 = getelementptr inbounds i32, i32* %14, i64 %34
  store i32 1, i32* %37, align 4, !tbaa !11
  %38 = add nuw nsw i64 %34, %20
  br label %33, !llvm.loop !17

39:                                               ; preds = %33, %27
  %40 = add nuw nsw i64 %20, 2
  %41 = add nuw nsw i32 %22, 2
  %42 = add nuw nsw i64 %19, 8
  %43 = trunc i64 %19 to i32
  %44 = add i32 %21, %43
  br label %18, !llvm.loop !18

45:                                               ; preds = %57, %25
  %46 = phi i32 [ 3, %25 ], [ %59, %57 ]
  store i32 %46, i32* %4, align 4, !tbaa !11
  %47 = icmp slt i32 %46, 3005
  br i1 %47, label %49, label %48

48:                                               ; preds = %45
  call void @llvm.lifetime.end.p0i8(i64 4, i8* nonnull %26) #23
  ret void

49:                                               ; preds = %45
  %50 = sext i32 %46 to i64
  %51 = load i32*, i32** getelementptr inbounds (%"class.std::vector", %"class.std::vector"* @m, i64 0, i32 0, i32 0, i32 0, i32 0), align 8, !tbaa !13
  %52 = getelementptr inbounds i32, i32* %51, i64 %50
  %53 = load i32, i32* %52, align 4, !tbaa !11
  %54 = icmp eq i32 %53, 0
  br i1 %54, label %55, label %57

55:                                               ; preds = %49
  call void @_ZNSt6vectorIiSaIiEE9push_backERKi(%"class.std::vector"* nonnull align 8 dereferenceable(24) @primes, i32* nonnull align 4 dereferenceable(4) %4) #22
  %56 = load i32, i32* %4, align 4, !tbaa !11
  br label %57

57:                                               ; preds = %49, %55
  %58 = phi i32 [ %46, %49 ], [ %56, %55 ]
  %59 = add nsw i32 %58, 2
  br label %45, !llvm.loop !19
}

; Function Attrs: minsize optsize sspstrong uwtable
define linkonce_odr dso_local void @_ZNSt6vectorIiSaIiEE9push_backERKi(%"class.std::vector"* nonnull align 8 dereferenceable(24) %0, i32* nonnull align 4 dereferenceable(4) %1) local_unnamed_addr #5 comdat align 2 {
  %3 = getelementptr inbounds %"class.std::vector", %"class.std::vector"* %0, i64 0, i32 0, i32 0, i32 0, i32 1
  %4 = load i32*, i32** %3, align 8, !tbaa !20
  %5 = getelementptr inbounds %"class.std::vector", %"class.std::vector"* %0, i64 0, i32 0, i32 0, i32 0, i32 2
  %6 = load i32*, i32** %5, align 8, !tbaa !21
  %7 = icmp eq i32* %4, %6
  br i1 %7, label %11, label %8

8:                                                ; preds = %2
  %9 = load i32, i32* %1, align 4, !tbaa !11
  store i32 %9, i32* %4, align 4, !tbaa !11
  %10 = getelementptr inbounds i32, i32* %4, i64 1
  store i32* %10, i32** %3, align 8, !tbaa !20
  br label %12

11:                                               ; preds = %2
  tail call void @_ZNSt6vectorIiSaIiEE17_M_realloc_insertIJRKiEEEvN9__gnu_cxx17__normal_iteratorIPiS1_EEDpOT_(%"class.std::vector"* nonnull align 8 dereferenceable(24) %0, i32* %4, i32* nonnull align 4 dereferenceable(4) %1) #22
  br label %12

12:                                               ; preds = %11, %8
  ret void
}

; Function Attrs: minsize optsize sspstrong uwtable
define dso_local void @_Z6pascalv() local_unnamed_addr #5 personality i8* bitcast (i32 (...)* @__gxx_personality_v0 to i8*) {
  %1 = alloca %"class.std::vector.0", align 8
  %2 = alloca %"class.std::vector.5", align 8
  %3 = alloca x86_fp80, align 16
  %4 = alloca %"class.std::allocator.7", align 1
  %5 = alloca %"class.std::allocator.2", align 1
  %6 = bitcast %"class.std::vector.0"* %1 to i8*
  call void @llvm.lifetime.start.p0i8(i64 24, i8* nonnull %6) #23
  %7 = bitcast %"class.std::vector.5"* %2 to i8*
  call void @llvm.lifetime.start.p0i8(i64 24, i8* nonnull %7) #23
  %8 = bitcast x86_fp80* %3 to i8*
  call void @llvm.lifetime.start.p0i8(i64 16, i8* nonnull %8) #23
  store x86_fp80 0xK00000000000000000000, x86_fp80* %3, align 16, !tbaa !22
  %9 = getelementptr inbounds %"class.std::allocator.7", %"class.std::allocator.7"* %4, i64 0, i32 0
  call void @llvm.lifetime.start.p0i8(i64 1, i8* nonnull %9) #23
  call void @_ZNSt6vectorIeSaIeEEC2EmRKeRKS0_(%"class.std::vector.5"* nonnull align 8 dereferenceable(24) %2, i64 3005, x86_fp80* nonnull align 16 dereferenceable(16) %3, %"class.std::allocator.7"* nonnull align 1 dereferenceable(1) %4) #22
  %10 = getelementptr inbounds %"class.std::allocator.2", %"class.std::allocator.2"* %5, i64 0, i32 0
  call void @llvm.lifetime.start.p0i8(i64 1, i8* nonnull %10) #23
  invoke void @_ZNSt6vectorIS_IeSaIeEESaIS1_EEC2EmRKS1_RKS2_(%"class.std::vector.0"* nonnull align 8 dereferenceable(24) %1, i64 3005, %"class.std::vector.5"* nonnull align 8 dereferenceable(24) %2, %"class.std::allocator.2"* nonnull align 1 dereferenceable(1) %5) #22
          to label %11 unwind label %17

11:                                               ; preds = %0
  call void @_ZNSt6vectorIS_IeSaIeEESaIS1_EE14_M_move_assignEOS3_St17integral_constantIbLb1EE(%"class.std::vector.0"* nonnull align 8 dereferenceable(24) @nk, %"class.std::vector.0"* nonnull align 8 dereferenceable(24) %1) #21
  call void @_ZNSt6vectorIS_IeSaIeEESaIS1_EED2Ev(%"class.std::vector.0"* nonnull align 8 dereferenceable(24) %1) #21
  call void @llvm.lifetime.end.p0i8(i64 1, i8* nonnull %10) #23
  %12 = getelementptr inbounds %"class.std::vector.5", %"class.std::vector.5"* %2, i64 0, i32 0
  call void @_ZNSt12_Vector_baseIeSaIeEED2Ev(%"struct.std::_Vector_base.6"* nonnull align 8 dereferenceable(24) %12) #21
  call void @llvm.lifetime.end.p0i8(i64 1, i8* nonnull %9) #23
  call void @llvm.lifetime.end.p0i8(i64 16, i8* nonnull %8) #23
  call void @llvm.lifetime.end.p0i8(i64 24, i8* nonnull %7) #23
  call void @llvm.lifetime.end.p0i8(i64 24, i8* nonnull %6) #23
  %13 = load %"class.std::vector.5"*, %"class.std::vector.5"** getelementptr inbounds (%"class.std::vector.0", %"class.std::vector.0"* @nk, i64 0, i32 0, i32 0, i32 0, i32 0), align 8, !tbaa !5
  br label %14

14:                                               ; preds = %20, %11
  %15 = phi i64 [ %24, %20 ], [ 0, %11 ]
  %16 = icmp eq i64 %15, 3005
  br i1 %16, label %25, label %20

17:                                               ; preds = %0
  %18 = landingpad { i8*, i32 }
          cleanup
  call void @llvm.lifetime.end.p0i8(i64 1, i8* nonnull %10) #23
  %19 = getelementptr inbounds %"class.std::vector.5", %"class.std::vector.5"* %2, i64 0, i32 0
  call void @_ZNSt12_Vector_baseIeSaIeEED2Ev(%"struct.std::_Vector_base.6"* nonnull align 8 dereferenceable(24) %19) #21
  call void @llvm.lifetime.end.p0i8(i64 1, i8* nonnull %9) #23
  call void @llvm.lifetime.end.p0i8(i64 16, i8* nonnull %8) #23
  call void @llvm.lifetime.end.p0i8(i64 24, i8* nonnull %7) #23
  call void @llvm.lifetime.end.p0i8(i64 24, i8* nonnull %6) #23
  resume { i8*, i32 } %18

20:                                               ; preds = %14
  %21 = getelementptr inbounds %"class.std::vector.5", %"class.std::vector.5"* %13, i64 %15, i32 0, i32 0, i32 0, i32 0
  %22 = load x86_fp80*, x86_fp80** %21, align 8, !tbaa !24
  %23 = getelementptr inbounds x86_fp80, x86_fp80* %22, i64 %15
  store x86_fp80 0xK3FFF8000000000000000, x86_fp80* %23, align 16, !tbaa !22
  store x86_fp80 0xK3FFF8000000000000000, x86_fp80* %22, align 16, !tbaa !22
  %24 = add nuw nsw i64 %15, 1
  br label %14, !llvm.loop !26

25:                                               ; preds = %14, %37
  %26 = phi i64 [ %38, %37 ], [ 1, %14 ]
  %27 = icmp eq i64 %26, 3005
  br i1 %27, label %33, label %28

28:                                               ; preds = %25
  %29 = add nsw i64 %26, -1
  %30 = load %"class.std::vector.5"*, %"class.std::vector.5"** getelementptr inbounds (%"class.std::vector.0", %"class.std::vector.0"* @nk, i64 0, i32 0, i32 0, i32 0, i32 0), align 8
  %31 = getelementptr inbounds %"class.std::vector.5", %"class.std::vector.5"* %30, i64 %29, i32 0, i32 0, i32 0, i32 0
  %32 = getelementptr inbounds %"class.std::vector.5", %"class.std::vector.5"* %30, i64 %26, i32 0, i32 0, i32 0, i32 0
  br label %34

33:                                               ; preds = %25
  ret void

34:                                               ; preds = %28, %39
  %35 = phi i64 [ 1, %28 ], [ %49, %39 ]
  %36 = icmp eq i64 %35, %26
  br i1 %36, label %37, label %39

37:                                               ; preds = %34
  %38 = add nuw nsw i64 %26, 1
  br label %25, !llvm.loop !27

39:                                               ; preds = %34
  %40 = add nsw i64 %35, -1
  %41 = load x86_fp80*, x86_fp80** %31, align 8, !tbaa !24
  %42 = getelementptr inbounds x86_fp80, x86_fp80* %41, i64 %40
  %43 = load x86_fp80, x86_fp80* %42, align 16, !tbaa !22
  %44 = getelementptr inbounds x86_fp80, x86_fp80* %41, i64 %35
  %45 = load x86_fp80, x86_fp80* %44, align 16, !tbaa !22
  %46 = fadd x86_fp80 %43, %45
  %47 = load x86_fp80*, x86_fp80** %32, align 8, !tbaa !24
  %48 = getelementptr inbounds x86_fp80, x86_fp80* %47, i64 %35
  store x86_fp80 %46, x86_fp80* %48, align 16, !tbaa !22
  %49 = add nuw nsw i64 %35, 1
  br label %34, !llvm.loop !28
}

; Function Attrs: minsize optsize sspstrong uwtable
define linkonce_odr dso_local void @_ZNSt6vectorIeSaIeEEC2EmRKeRKS0_(%"class.std::vector.5"* nonnull align 8 dereferenceable(24) %0, i64 %1, x86_fp80* nonnull align 16 dereferenceable(16) %2, %"class.std::allocator.7"* nonnull align 1 dereferenceable(1) %3) unnamed_addr #5 comdat align 2 personality i8* bitcast (i32 (...)* @__gxx_personality_v0 to i8*) {
  %5 = getelementptr inbounds %"class.std::vector.5", %"class.std::vector.5"* %0, i64 0, i32 0
  %6 = tail call i64 @_ZNSt6vectorIeSaIeEE17_S_check_init_lenEmRKS0_(i64 %1, %"class.std::allocator.7"* nonnull align 1 dereferenceable(1) %3) #22
  %7 = bitcast %"class.std::vector.5"* %0 to i8*
  tail call void @llvm.memset.p0i8.i64(i8* noundef nonnull align 8 dereferenceable(24) %7, i8 0, i64 24, i1 false) #23
  tail call void @_ZNSt12_Vector_baseIeSaIeEE17_M_create_storageEm(%"struct.std::_Vector_base.6"* nonnull align 8 dereferenceable(24) %5, i64 %6) #22
  invoke void @_ZNSt6vectorIeSaIeEE18_M_fill_initializeEmRKe(%"class.std::vector.5"* nonnull align 8 dereferenceable(24) %0, i64 %1, x86_fp80* nonnull align 16 dereferenceable(16) %2) #22
          to label %8 unwind label %9

8:                                                ; preds = %4
  ret void

9:                                                ; preds = %4
  %10 = landingpad { i8*, i32 }
          cleanup
  tail call void @_ZNSt12_Vector_baseIeSaIeEED2Ev(%"struct.std::_Vector_base.6"* nonnull align 8 dereferenceable(24) %5) #21
  resume { i8*, i32 } %10
}

; Function Attrs: minsize optsize sspstrong uwtable
define linkonce_odr dso_local void @_ZNSt6vectorIS_IeSaIeEESaIS1_EEC2EmRKS1_RKS2_(%"class.std::vector.0"* nonnull align 8 dereferenceable(24) %0, i64 %1, %"class.std::vector.5"* nonnull align 8 dereferenceable(24) %2, %"class.std::allocator.2"* nonnull align 1 dereferenceable(1) %3) unnamed_addr #5 comdat align 2 personality i8* bitcast (i32 (...)* @__gxx_personality_v0 to i8*) {
  %5 = getelementptr inbounds %"class.std::vector.0", %"class.std::vector.0"* %0, i64 0, i32 0
  %6 = tail call i64 @_ZNSt6vectorIS_IeSaIeEESaIS1_EE17_S_check_init_lenEmRKS2_(i64 %1, %"class.std::allocator.2"* nonnull align 1 dereferenceable(1) %3) #22
  %7 = bitcast %"class.std::vector.0"* %0 to i8*
  tail call void @llvm.memset.p0i8.i64(i8* noundef nonnull align 8 dereferenceable(24) %7, i8 0, i64 24, i1 false) #23
  tail call void @_ZNSt12_Vector_baseISt6vectorIeSaIeEESaIS2_EE17_M_create_storageEm(%"struct.std::_Vector_base.1"* nonnull align 8 dereferenceable(24) %5, i64 %6) #22
  invoke void @_ZNSt6vectorIS_IeSaIeEESaIS1_EE18_M_fill_initializeEmRKS1_(%"class.std::vector.0"* nonnull align 8 dereferenceable(24) %0, i64 %1, %"class.std::vector.5"* nonnull align 8 dereferenceable(24) %2) #22
          to label %8 unwind label %9

8:                                                ; preds = %4
  ret void

9:                                                ; preds = %4
  %10 = landingpad { i8*, i32 }
          cleanup
  tail call void @_ZNSt12_Vector_baseISt6vectorIeSaIeEESaIS2_EED2Ev(%"struct.std::_Vector_base.1"* nonnull align 8 dereferenceable(24) %5) #21
  resume { i8*, i32 } %10
}

; Function Attrs: minsize mustprogress nofree nosync nounwind optsize readnone sspstrong uwtable willreturn
define dso_local i64 @_Z3gcdxx(i64 %0, i64 %1) local_unnamed_addr #6 {
  br label %3

3:                                                ; preds = %7, %2
  %4 = phi i64 [ %0, %2 ], [ %5, %7 ]
  %5 = phi i64 [ %1, %2 ], [ %8, %7 ]
  %6 = icmp eq i64 %5, 0
  br i1 %6, label %9, label %7

7:                                                ; preds = %3
  %8 = srem i64 %4, %5
  br label %3

9:                                                ; preds = %3
  ret i64 %4
}

; Function Attrs: minsize mustprogress nofree norecurse nosync nounwind optsize readnone sspstrong uwtable willreturn
define dso_local i64 @_Z3lcmxx(i64 %0, i64 %1) local_unnamed_addr #7 {
  %3 = icmp slt i64 %0, %1
  %4 = select i1 %3, i64 %1, i64 %0
  %5 = select i1 %3, i64 %0, i64 %1
  br label %6

6:                                                ; preds = %10, %2
  %7 = phi i64 [ %4, %2 ], [ %8, %10 ]
  %8 = phi i64 [ %5, %2 ], [ %11, %10 ]
  %9 = icmp eq i64 %8, 0
  br i1 %9, label %12, label %10

10:                                               ; preds = %6
  %11 = srem i64 %7, %8
  br label %6

12:                                               ; preds = %6
  %13 = sdiv i64 %4, %7
  %14 = mul nsw i64 %13, %5
  ret i64 %14
}

; Function Attrs: minsize mustprogress nofree nosync nounwind optsize readnone sspstrong uwtable willreturn
define dso_local i32 @_Z8popcountx(i64 %0) local_unnamed_addr #6 {
  %2 = tail call i64 @llvm.ctpop.i64(i64 %0), !range !29
  %3 = trunc i64 %2 to i32
  ret i32 %3
}

; Function Attrs: mustprogress nofree nosync nounwind readnone speculatable willreturn
declare i64 @llvm.ctpop.i64(i64) #8

; Function Attrs: minsize mustprogress nofree norecurse nosync nounwind optsize readnone sspstrong uwtable willreturn
define dso_local i64 @_Z4powwxx(i64 %0, i64 %1) local_unnamed_addr #7 {
  br label %3

3:                                                ; preds = %8, %2
  %4 = phi i64 [ %0, %2 ], [ %13, %8 ]
  %5 = phi i64 [ %1, %2 ], [ %14, %8 ]
  %6 = phi i64 [ 1, %2 ], [ %12, %8 ]
  %7 = icmp eq i64 %5, 0
  br i1 %7, label %15, label %8

8:                                                ; preds = %3
  %9 = and i64 %5, 1
  %10 = icmp eq i64 %9, 0
  %11 = select i1 %10, i64 1, i64 %4
  %12 = mul nsw i64 %11, %6
  %13 = mul nsw i64 %4, %4
  %14 = sdiv i64 %5, 2
  br label %3, !llvm.loop !30

15:                                               ; preds = %3
  ret i64 %6
}

; Function Attrs: minsize mustprogress nofree norecurse nosync nounwind optsize readnone sspstrong uwtable willreturn
define dso_local i64 @_Z4powmxx(i64 %0, i64 %1) local_unnamed_addr #7 {
  br label %3

3:                                                ; preds = %14, %2
  %4 = phi i64 [ %0, %2 ], [ %17, %14 ]
  %5 = phi i64 [ %1, %2 ], [ %18, %14 ]
  %6 = phi i64 [ 1, %2 ], [ %15, %14 ]
  %7 = icmp eq i64 %5, 0
  br i1 %7, label %19, label %8

8:                                                ; preds = %3
  %9 = and i64 %5, 1
  %10 = icmp eq i64 %9, 0
  br i1 %10, label %14, label %11

11:                                               ; preds = %8
  %12 = mul nsw i64 %6, %4
  %13 = srem i64 %12, 1000000007
  br label %14

14:                                               ; preds = %11, %8
  %15 = phi i64 [ %13, %11 ], [ %6, %8 ]
  %16 = mul nsw i64 %4, %4
  %17 = urem i64 %16, 1000000007
  %18 = sdiv i64 %5, 2
  br label %3, !llvm.loop !31

19:                                               ; preds = %3
  ret i64 %6
}

; Function Attrs: minsize nofree nosync nounwind optsize readonly sspstrong uwtable
define dso_local zeroext i1 @_Z7isPrimex(i64 %0) local_unnamed_addr #9 {
  %2 = icmp eq i64 %0, 1
  br i1 %2, label %19, label %3

3:                                                ; preds = %1
  %4 = load i32*, i32** getelementptr inbounds (%"class.std::vector", %"class.std::vector"* @primes, i64 0, i32 0, i32 0, i32 0, i32 0), align 8, !tbaa !32
  %5 = load i32*, i32** getelementptr inbounds (%"class.std::vector", %"class.std::vector"* @primes, i64 0, i32 0, i32 0, i32 0, i32 1), align 8, !tbaa !32
  br label %6

6:                                                ; preds = %14, %3
  %7 = phi i32* [ %4, %3 ], [ %18, %14 ]
  %8 = icmp eq i32* %7, %5
  br i1 %8, label %19, label %9

9:                                                ; preds = %6
  %10 = load i32, i32* %7, align 4, !tbaa !11
  %11 = mul nsw i32 %10, %10
  %12 = zext i32 %11 to i64
  %13 = icmp sgt i64 %12, %0
  br i1 %13, label %19, label %14

14:                                               ; preds = %9
  %15 = sext i32 %10 to i64
  %16 = srem i64 %0, %15
  %17 = icmp eq i64 %16, 0
  %18 = getelementptr inbounds i32, i32* %7, i64 1
  br i1 %17, label %19, label %6

19:                                               ; preds = %14, %6, %9, %1
  %20 = phi i1 [ false, %1 ], [ false, %14 ], [ true, %6 ], [ true, %9 ]
  ret i1 %20
}

; Function Attrs: minsize mustprogress nofree norecurse nosync nounwind optsize readnone sspstrong uwtable willreturn
define dso_local i64 @_Z3SUMxxx(i64 %0, i64 %1, i64 %2) local_unnamed_addr #7 {
  %4 = add nsw i64 %1, %0
  %5 = add nsw i64 %4, %2
  %6 = srem i64 %5, %2
  ret i64 %6
}

; Function Attrs: minsize mustprogress nofree norecurse nosync nounwind optsize readnone sspstrong uwtable willreturn
define dso_local i64 @_Z4PRODxxx(i64 %0, i64 %1, i64 %2) local_unnamed_addr #7 {
  %4 = srem i64 %0, %2
  %5 = srem i64 %1, %2
  %6 = mul nsw i64 %5, %4
  %7 = srem i64 %6, %2
  ret i64 %7
}

; Function Attrs: minsize optsize sspstrong uwtable
define dso_local void @_Z5solvev() local_unnamed_addr #5 personality i8* bitcast (i32 (...)* @__gxx_personality_v0 to i8*) {
  %1 = alloca i32, align 4
  %2 = alloca %"class.std::vector.10", align 8
  %3 = alloca %"class.std::allocator.12", align 1
  %4 = alloca i32, align 4
  %5 = alloca i32, align 4
  %6 = alloca %"class.std::vector.15", align 8
  %7 = alloca %"class.std::vector.20", align 8
  %8 = alloca i64, align 8
  %9 = alloca %"class.std::allocator.22", align 1
  %10 = alloca %"class.std::allocator.17", align 1
  %11 = alloca %class.anon, align 8
  %12 = bitcast i32* %1 to i8*
  call void @llvm.lifetime.start.p0i8(i64 4, i8* nonnull %12) #23
  %13 = call nonnull align 8 dereferenceable(16) %"class.std::basic_istream"* @_ZNSirsERi(%"class.std::basic_istream"* nonnull align 8 dereferenceable(16) @_ZSt3cin, i32* nonnull align 4 dereferenceable(4) %1) #22
  %14 = bitcast %"class.std::vector.10"* %2 to i8*
  call void @llvm.lifetime.start.p0i8(i64 24, i8* nonnull %14) #23
  %15 = load i32, i32* %1, align 4, !tbaa !11
  %16 = add nsw i32 %15, 1
  %17 = sext i32 %16 to i64
  %18 = getelementptr inbounds %"class.std::allocator.12", %"class.std::allocator.12"* %3, i64 0, i32 0
  call void @llvm.lifetime.start.p0i8(i64 1, i8* nonnull %18) #23
  call void @_ZNSt6vectorIS_IiSaIiEESaIS1_EEC2EmRKS2_(%"class.std::vector.10"* nonnull align 8 dereferenceable(24) %2, i64 %17, %"class.std::allocator.12"* nonnull align 1 dereferenceable(1) %3) #22
  call void @llvm.lifetime.end.p0i8(i64 1, i8* nonnull %18) #23
  %19 = load i32, i32* %1, align 4, !tbaa !11
  %20 = bitcast i32* %4 to i8*
  %21 = bitcast i32* %5 to i8*
  %22 = getelementptr inbounds %"class.std::vector.10", %"class.std::vector.10"* %2, i64 0, i32 0, i32 0, i32 0, i32 0
  %23 = add i32 %19, -1
  %24 = call i32 @llvm.smax.i32(i32 %23, i32 0)
  br label %25

25:                                               ; preds = %45, %0
  %26 = phi i32 [ 0, %0 ], [ %46, %45 ]
  %27 = icmp eq i32 %26, %24
  br i1 %27, label %28, label %31

28:                                               ; preds = %25
  %29 = load i32, i32* %1, align 4, !tbaa !11
  %30 = icmp eq i32 %29, 1
  br i1 %30, label %49, label %55

31:                                               ; preds = %25
  call void @llvm.lifetime.start.p0i8(i64 4, i8* nonnull %20) #23
  call void @llvm.lifetime.start.p0i8(i64 4, i8* nonnull %21) #23
  %32 = invoke nonnull align 8 dereferenceable(16) %"class.std::basic_istream"* @_ZNSirsERi(%"class.std::basic_istream"* nonnull align 8 dereferenceable(16) @_ZSt3cin, i32* nonnull align 4 dereferenceable(4) %4) #22
          to label %33 unwind label %47

33:                                               ; preds = %31
  %34 = invoke nonnull align 8 dereferenceable(16) %"class.std::basic_istream"* @_ZNSirsERi(%"class.std::basic_istream"* nonnull align 8 dereferenceable(16) %32, i32* nonnull align 4 dereferenceable(4) %5) #22
          to label %35 unwind label %47

35:                                               ; preds = %33
  %36 = load i32, i32* %4, align 4, !tbaa !11
  %37 = sext i32 %36 to i64
  %38 = load %"class.std::vector"*, %"class.std::vector"** %22, align 8, !tbaa !33
  %39 = getelementptr inbounds %"class.std::vector", %"class.std::vector"* %38, i64 %37
  invoke void @_ZNSt6vectorIiSaIiEE9push_backERKi(%"class.std::vector"* nonnull align 8 dereferenceable(24) %39, i32* nonnull align 4 dereferenceable(4) %5) #22
          to label %40 unwind label %47

40:                                               ; preds = %35
  %41 = load i32, i32* %5, align 4, !tbaa !11
  %42 = sext i32 %41 to i64
  %43 = load %"class.std::vector"*, %"class.std::vector"** %22, align 8, !tbaa !33
  %44 = getelementptr inbounds %"class.std::vector", %"class.std::vector"* %43, i64 %42
  invoke void @_ZNSt6vectorIiSaIiEE9push_backERKi(%"class.std::vector"* nonnull align 8 dereferenceable(24) %44, i32* nonnull align 4 dereferenceable(4) %4) #22
          to label %45 unwind label %47

45:                                               ; preds = %40
  call void @llvm.lifetime.end.p0i8(i64 4, i8* nonnull %21) #23
  call void @llvm.lifetime.end.p0i8(i64 4, i8* nonnull %20) #23
  %46 = add nuw i32 %26, 1
  br label %25, !llvm.loop !35

47:                                               ; preds = %40, %35, %33, %31
  %48 = landingpad { i8*, i32 }
          cleanup
  call void @llvm.lifetime.end.p0i8(i64 4, i8* nonnull %21) #23
  call void @llvm.lifetime.end.p0i8(i64 4, i8* nonnull %20) #23
  br label %95

49:                                               ; preds = %28
  %50 = invoke nonnull align 8 dereferenceable(8) %"class.std::basic_ostream"* @_ZNSolsEi(%"class.std::basic_ostream"* nonnull align 8 dereferenceable(8) @_ZSt4cout, i32 2) #22
          to label %51 unwind label %53

51:                                               ; preds = %49
  %52 = invoke nonnull align 8 dereferenceable(8) %"class.std::basic_ostream"* @_ZStlsISt11char_traitsIcEERSt13basic_ostreamIcT_ES5_c(%"class.std::basic_ostream"* nonnull align 8 dereferenceable(8) %50, i8 signext 10) #22
          to label %83 unwind label %53

53:                                               ; preds = %51, %49
  %54 = landingpad { i8*, i32 }
          cleanup
  br label %95

55:                                               ; preds = %28
  %56 = bitcast %"class.std::vector.15"* %6 to i8*
  call void @llvm.lifetime.start.p0i8(i64 24, i8* nonnull %56) #23
  %57 = bitcast %"class.std::vector.20"* %7 to i8*
  call void @llvm.lifetime.start.p0i8(i64 24, i8* nonnull %57) #23
  %58 = bitcast i64* %8 to i8*
  call void @llvm.lifetime.start.p0i8(i64 8, i8* nonnull %58) #23
  store i64 1, i64* %8, align 8, !tbaa !36
  %59 = getelementptr inbounds %"class.std::allocator.22", %"class.std::allocator.22"* %9, i64 0, i32 0
  call void @llvm.lifetime.start.p0i8(i64 1, i8* nonnull %59) #23
  invoke void @_ZNSt6vectorIxSaIxEEC2EmRKxRKS0_(%"class.std::vector.20"* nonnull align 8 dereferenceable(24) %7, i64 2, i64* nonnull align 8 dereferenceable(8) %8, %"class.std::allocator.22"* nonnull align 1 dereferenceable(1) %9) #22
          to label %60 unwind label %84

60:                                               ; preds = %55
  %61 = add nsw i32 %29, 1
  %62 = sext i32 %61 to i64
  %63 = getelementptr inbounds %"class.std::allocator.17", %"class.std::allocator.17"* %10, i64 0, i32 0
  call void @llvm.lifetime.start.p0i8(i64 1, i8* nonnull %63) #23
  invoke void @_ZNSt6vectorIS_IxSaIxEESaIS1_EEC2EmRKS1_RKS2_(%"class.std::vector.15"* nonnull align 8 dereferenceable(24) %6, i64 %62, %"class.std::vector.20"* nonnull align 8 dereferenceable(24) %7, %"class.std::allocator.17"* nonnull align 1 dereferenceable(1) %10) #22
          to label %64 unwind label %86

64:                                               ; preds = %60
  call void @llvm.lifetime.end.p0i8(i64 1, i8* nonnull %63) #23
  %65 = getelementptr inbounds %"class.std::vector.20", %"class.std::vector.20"* %7, i64 0, i32 0
  call void @_ZNSt12_Vector_baseIxSaIxEED2Ev(%"struct.std::_Vector_base.21"* nonnull align 8 dereferenceable(24) %65) #21
  call void @llvm.lifetime.end.p0i8(i64 1, i8* nonnull %59) #23
  call void @llvm.lifetime.end.p0i8(i64 8, i8* nonnull %58) #23
  call void @llvm.lifetime.end.p0i8(i64 24, i8* nonnull %57) #23
  %66 = bitcast %class.anon* %11 to i8*
  call void @llvm.lifetime.start.p0i8(i64 16, i8* nonnull %66) #23
  %67 = getelementptr inbounds %class.anon, %class.anon* %11, i64 0, i32 0
  store %"class.std::vector.10"* %2, %"class.std::vector.10"** %67, align 8, !tbaa !32
  %68 = getelementptr inbounds %class.anon, %class.anon* %11, i64 0, i32 1
  store %"class.std::vector.15"* %6, %"class.std::vector.15"** %68, align 8, !tbaa !32
  call fastcc void @"_ZZ5solvevENK3$_0clIS_EEvT_ii"(%class.anon* nonnull align 8 dereferenceable(16) %11, %"class.std::vector.10"* nonnull %2, %"class.std::vector.15"* nonnull %6, i32 1, i32 1) #22
  %69 = getelementptr inbounds %"class.std::vector.15", %"class.std::vector.15"* %6, i64 0, i32 0, i32 0, i32 0, i32 0
  %70 = load %"class.std::vector.20"*, %"class.std::vector.20"** %69, align 8, !tbaa !38
  %71 = getelementptr inbounds %"class.std::vector.20", %"class.std::vector.20"* %70, i64 1, i32 0, i32 0, i32 0, i32 0
  %72 = load i64*, i64** %71, align 8, !tbaa !40
  %73 = load i64, i64* %72, align 8, !tbaa !36
  %74 = getelementptr inbounds i64, i64* %72, i64 1
  %75 = load i64, i64* %74, align 8, !tbaa !36
  %76 = add i64 %73, 1000000007
  %77 = add i64 %76, %75
  %78 = srem i64 %77, 1000000007
  %79 = invoke nonnull align 8 dereferenceable(8) %"class.std::basic_ostream"* @_ZNSo9_M_insertIxEERSoT_(%"class.std::basic_ostream"* nonnull align 8 dereferenceable(8) @_ZSt4cout, i64 %78) #22
          to label %80 unwind label %91

80:                                               ; preds = %64
  %81 = invoke nonnull align 8 dereferenceable(8) %"class.std::basic_ostream"* @_ZStlsISt11char_traitsIcEERSt13basic_ostreamIcT_ES5_c(%"class.std::basic_ostream"* nonnull align 8 dereferenceable(8) %79, i8 signext 10) #22
          to label %82 unwind label %91

82:                                               ; preds = %80
  call void @llvm.lifetime.end.p0i8(i64 16, i8* nonnull %66) #23
  call void @_ZNSt6vectorIS_IxSaIxEESaIS1_EED2Ev(%"class.std::vector.15"* nonnull align 8 dereferenceable(24) %6) #21
  call void @llvm.lifetime.end.p0i8(i64 24, i8* nonnull %56) #23
  br label %83

83:                                               ; preds = %51, %82
  call void @_ZNSt6vectorIS_IiSaIiEESaIS1_EED2Ev(%"class.std::vector.10"* nonnull align 8 dereferenceable(24) %2) #21
  call void @llvm.lifetime.end.p0i8(i64 24, i8* nonnull %14) #23
  call void @llvm.lifetime.end.p0i8(i64 4, i8* nonnull %12) #23
  ret void

84:                                               ; preds = %55
  %85 = landingpad { i8*, i32 }
          cleanup
  br label %89

86:                                               ; preds = %60
  %87 = landingpad { i8*, i32 }
          cleanup
  call void @llvm.lifetime.end.p0i8(i64 1, i8* nonnull %63) #23
  %88 = getelementptr inbounds %"class.std::vector.20", %"class.std::vector.20"* %7, i64 0, i32 0
  call void @_ZNSt12_Vector_baseIxSaIxEED2Ev(%"struct.std::_Vector_base.21"* nonnull align 8 dereferenceable(24) %88) #21
  br label %89

89:                                               ; preds = %86, %84
  %90 = phi { i8*, i32 } [ %87, %86 ], [ %85, %84 ]
  call void @llvm.lifetime.end.p0i8(i64 1, i8* nonnull %59) #23
  call void @llvm.lifetime.end.p0i8(i64 8, i8* nonnull %58) #23
  call void @llvm.lifetime.end.p0i8(i64 24, i8* nonnull %57) #23
  br label %93

91:                                               ; preds = %64, %80
  %92 = landingpad { i8*, i32 }
          cleanup
  call void @llvm.lifetime.end.p0i8(i64 16, i8* nonnull %66) #23
  call void @_ZNSt6vectorIS_IxSaIxEESaIS1_EED2Ev(%"class.std::vector.15"* nonnull align 8 dereferenceable(24) %6) #21
  br label %93

93:                                               ; preds = %91, %89
  %94 = phi { i8*, i32 } [ %92, %91 ], [ %90, %89 ]
  call void @llvm.lifetime.end.p0i8(i64 24, i8* nonnull %56) #23
  br label %95

95:                                               ; preds = %93, %53, %47
  %96 = phi { i8*, i32 } [ %48, %47 ], [ %54, %53 ], [ %94, %93 ]
  call void @_ZNSt6vectorIS_IiSaIiEESaIS1_EED2Ev(%"class.std::vector.10"* nonnull align 8 dereferenceable(24) %2) #21
  call void @llvm.lifetime.end.p0i8(i64 24, i8* nonnull %14) #23
  call void @llvm.lifetime.end.p0i8(i64 4, i8* nonnull %12) #23
  resume { i8*, i32 } %96
}

; Function Attrs: minsize optsize
declare nonnull align 8 dereferenceable(16) %"class.std::basic_istream"* @_ZNSirsERi(%"class.std::basic_istream"* nonnull align 8 dereferenceable(16), i32* nonnull align 4 dereferenceable(4)) local_unnamed_addr #0

; Function Attrs: minsize optsize sspstrong uwtable
define linkonce_odr dso_local void @_ZNSt6vectorIS_IiSaIiEESaIS1_EEC2EmRKS2_(%"class.std::vector.10"* nonnull align 8 dereferenceable(24) %0, i64 %1, %"class.std::allocator.12"* nonnull align 1 dereferenceable(1) %2) unnamed_addr #5 comdat align 2 personality i8* bitcast (i32 (...)* @__gxx_personality_v0 to i8*) {
  %4 = getelementptr inbounds %"class.std::vector.10", %"class.std::vector.10"* %0, i64 0, i32 0
  %5 = tail call i64 @_ZNSt6vectorIS_IiSaIiEESaIS1_EE17_S_check_init_lenEmRKS2_(i64 %1, %"class.std::allocator.12"* nonnull align 1 dereferenceable(1) %2) #22
  %6 = bitcast %"class.std::vector.10"* %0 to i8*
  tail call void @llvm.memset.p0i8.i64(i8* noundef nonnull align 8 dereferenceable(24) %6, i8 0, i64 24, i1 false) #23
  tail call void @_ZNSt12_Vector_baseISt6vectorIiSaIiEESaIS2_EE17_M_create_storageEm(%"struct.std::_Vector_base.11"* nonnull align 8 dereferenceable(24) %4, i64 %5) #22
  invoke void @_ZNSt6vectorIS_IiSaIiEESaIS1_EE21_M_default_initializeEm(%"class.std::vector.10"* nonnull align 8 dereferenceable(24) %0, i64 %1) #22
          to label %7 unwind label %8

7:                                                ; preds = %3
  ret void

8:                                                ; preds = %3
  %9 = landingpad { i8*, i32 }
          cleanup
  tail call void @_ZNSt12_Vector_baseISt6vectorIiSaIiEESaIS2_EED2Ev(%"struct.std::_Vector_base.11"* nonnull align 8 dereferenceable(24) %4) #21
  resume { i8*, i32 } %9
}

; Function Attrs: inlinehint minsize mustprogress optsize sspstrong uwtable
declare nonnull align 8 dereferenceable(8) %"class.std::basic_ostream"* @_ZStlsISt11char_traitsIcEERSt13basic_ostreamIcT_ES5_c(%"class.std::basic_ostream"* nonnull align 8 dereferenceable(8), i8 signext) local_unnamed_addr #10

; Function Attrs: minsize optsize
declare nonnull align 8 dereferenceable(8) %"class.std::basic_ostream"* @_ZNSolsEi(%"class.std::basic_ostream"* nonnull align 8 dereferenceable(8), i32) local_unnamed_addr #0

; Function Attrs: minsize optsize sspstrong uwtable
define linkonce_odr dso_local void @_ZNSt6vectorIxSaIxEEC2EmRKxRKS0_(%"class.std::vector.20"* nonnull align 8 dereferenceable(24) %0, i64 %1, i64* nonnull align 8 dereferenceable(8) %2, %"class.std::allocator.22"* nonnull align 1 dereferenceable(1) %3) unnamed_addr #5 comdat align 2 personality i8* bitcast (i32 (...)* @__gxx_personality_v0 to i8*) {
  %5 = getelementptr inbounds %"class.std::vector.20", %"class.std::vector.20"* %0, i64 0, i32 0
  %6 = tail call i64 @_ZNSt6vectorIxSaIxEE17_S_check_init_lenEmRKS0_(i64 %1, %"class.std::allocator.22"* nonnull align 1 dereferenceable(1) %3) #22
  %7 = bitcast %"class.std::vector.20"* %0 to i8*
  tail call void @llvm.memset.p0i8.i64(i8* noundef nonnull align 8 dereferenceable(24) %7, i8 0, i64 24, i1 false) #23
  tail call void @_ZNSt12_Vector_baseIxSaIxEE17_M_create_storageEm(%"struct.std::_Vector_base.21"* nonnull align 8 dereferenceable(24) %5, i64 %6) #22
  invoke void @_ZNSt6vectorIxSaIxEE18_M_fill_initializeEmRKx(%"class.std::vector.20"* nonnull align 8 dereferenceable(24) %0, i64 %1, i64* nonnull align 8 dereferenceable(8) %2) #22
          to label %8 unwind label %9

8:                                                ; preds = %4
  ret void

9:                                                ; preds = %4
  %10 = landingpad { i8*, i32 }
          cleanup
  tail call void @_ZNSt12_Vector_baseIxSaIxEED2Ev(%"struct.std::_Vector_base.21"* nonnull align 8 dereferenceable(24) %5) #21
  resume { i8*, i32 } %10
}

; Function Attrs: minsize optsize sspstrong uwtable
define linkonce_odr dso_local void @_ZNSt6vectorIS_IxSaIxEESaIS1_EEC2EmRKS1_RKS2_(%"class.std::vector.15"* nonnull align 8 dereferenceable(24) %0, i64 %1, %"class.std::vector.20"* nonnull align 8 dereferenceable(24) %2, %"class.std::allocator.17"* nonnull align 1 dereferenceable(1) %3) unnamed_addr #5 comdat align 2 personality i8* bitcast (i32 (...)* @__gxx_personality_v0 to i8*) {
  %5 = getelementptr inbounds %"class.std::vector.15", %"class.std::vector.15"* %0, i64 0, i32 0
  %6 = tail call i64 @_ZNSt6vectorIS_IxSaIxEESaIS1_EE17_S_check_init_lenEmRKS2_(i64 %1, %"class.std::allocator.17"* nonnull align 1 dereferenceable(1) %3) #22
  %7 = bitcast %"class.std::vector.15"* %0 to i8*
  tail call void @llvm.memset.p0i8.i64(i8* noundef nonnull align 8 dereferenceable(24) %7, i8 0, i64 24, i1 false) #23
  tail call void @_ZNSt12_Vector_baseISt6vectorIxSaIxEESaIS2_EE17_M_create_storageEm(%"struct.std::_Vector_base.16"* nonnull align 8 dereferenceable(24) %5, i64 %6) #22
  invoke void @_ZNSt6vectorIS_IxSaIxEESaIS1_EE18_M_fill_initializeEmRKS1_(%"class.std::vector.15"* nonnull align 8 dereferenceable(24) %0, i64 %1, %"class.std::vector.20"* nonnull align 8 dereferenceable(24) %2) #22
          to label %8 unwind label %9

8:                                                ; preds = %4
  ret void

9:                                                ; preds = %4
  %10 = landingpad { i8*, i32 }
          cleanup
  tail call void @_ZNSt12_Vector_baseISt6vectorIxSaIxEESaIS2_EED2Ev(%"struct.std::_Vector_base.16"* nonnull align 8 dereferenceable(24) %5) #21
  resume { i8*, i32 } %10
}

; Function Attrs: inlinehint minsize nofree nosync nounwind optsize sspstrong uwtable
define internal fastcc void @"_ZZ5solvevENK3$_0clIS_EEvT_ii"(%class.anon* nocapture nonnull readonly align 8 dereferenceable(16) %0, %"class.std::vector.10"* %1, %"class.std::vector.15"* %2, i32 %3, i32 %4) unnamed_addr #11 align 2 {
  %6 = alloca %class.anon, align 8
  %7 = getelementptr inbounds %class.anon, %class.anon* %6, i64 0, i32 0
  store %"class.std::vector.10"* %1, %"class.std::vector.10"** %7, align 8
  %8 = getelementptr inbounds %class.anon, %class.anon* %6, i64 0, i32 1
  store %"class.std::vector.15"* %2, %"class.std::vector.15"** %8, align 8
  %9 = getelementptr inbounds %class.anon, %class.anon* %0, i64 0, i32 0
  %10 = load %"class.std::vector.10"*, %"class.std::vector.10"** %9, align 8, !tbaa !42
  %11 = sext i32 %3 to i64
  %12 = getelementptr inbounds %"class.std::vector.10", %"class.std::vector.10"* %10, i64 0, i32 0, i32 0, i32 0, i32 0
  %13 = load %"class.std::vector"*, %"class.std::vector"** %12, align 8, !tbaa !33
  %14 = getelementptr inbounds %"class.std::vector", %"class.std::vector"* %13, i64 %11, i32 0, i32 0, i32 0, i32 0
  %15 = load i32*, i32** %14, align 8, !tbaa !32
  %16 = getelementptr inbounds %"class.std::vector", %"class.std::vector"* %13, i64 %11, i32 0, i32 0, i32 0, i32 1
  %17 = load i32*, i32** %16, align 8, !tbaa !32
  br label %18

18:                                               ; preds = %36, %5
  %19 = phi i32* [ %15, %5 ], [ %37, %36 ]
  %20 = icmp eq i32* %19, %17
  br i1 %20, label %21, label %32

21:                                               ; preds = %18
  %22 = load %"class.std::vector.10"*, %"class.std::vector.10"** %9, align 8, !tbaa !42
  %23 = getelementptr inbounds %"class.std::vector.10", %"class.std::vector.10"* %22, i64 0, i32 0, i32 0, i32 0, i32 0
  %24 = load %"class.std::vector"*, %"class.std::vector"** %23, align 8, !tbaa !33
  %25 = getelementptr inbounds %"class.std::vector", %"class.std::vector"* %24, i64 %11, i32 0, i32 0, i32 0, i32 0
  %26 = load i32*, i32** %25, align 8, !tbaa !32
  %27 = getelementptr inbounds %"class.std::vector", %"class.std::vector"* %24, i64 %11, i32 0, i32 0, i32 0, i32 1
  %28 = load i32*, i32** %27, align 8, !tbaa !32
  %29 = getelementptr inbounds %class.anon, %class.anon* %0, i64 0, i32 1
  %30 = load %"class.std::vector.15"*, %"class.std::vector.15"** %29, align 8
  %31 = getelementptr inbounds %"class.std::vector.15", %"class.std::vector.15"* %30, i64 0, i32 0, i32 0, i32 0, i32 0
  br label %38

32:                                               ; preds = %18
  %33 = load i32, i32* %19, align 4, !tbaa !11
  %34 = icmp eq i32 %33, %4
  br i1 %34, label %36, label %35

35:                                               ; preds = %32
  call fastcc void @"_ZZ5solvevENK3$_0clIS_EEvT_ii"(%class.anon* nonnull align 8 dereferenceable(16) %6, %"class.std::vector.10"* %1, %"class.std::vector.15"* %2, i32 %33, i32 %3) #22
  br label %36

36:                                               ; preds = %35, %32
  %37 = getelementptr inbounds i32, i32* %19, i64 1
  br label %18

38:                                               ; preds = %65, %21
  %39 = phi i32* [ %26, %21 ], [ %66, %65 ]
  %40 = icmp eq i32* %39, %28
  br i1 %40, label %41, label %44

41:                                               ; preds = %38
  %42 = load %"class.std::vector.15"*, %"class.std::vector.15"** %29, align 8
  %43 = getelementptr inbounds %"class.std::vector.15", %"class.std::vector.15"* %42, i64 0, i32 0, i32 0, i32 0, i32 0
  br label %67

44:                                               ; preds = %38
  %45 = load i32, i32* %39, align 4, !tbaa !11
  %46 = icmp eq i32 %45, %4
  br i1 %46, label %65, label %47

47:                                               ; preds = %44
  %48 = load %"class.std::vector.20"*, %"class.std::vector.20"** %31, align 8, !tbaa !38
  %49 = getelementptr inbounds %"class.std::vector.20", %"class.std::vector.20"* %48, i64 %11, i32 0, i32 0, i32 0, i32 0
  %50 = load i64*, i64** %49, align 8, !tbaa !40
  %51 = getelementptr inbounds i64, i64* %50, i64 1
  %52 = load i64, i64* %51, align 8, !tbaa !36
  %53 = sext i32 %45 to i64
  %54 = getelementptr inbounds %"class.std::vector.20", %"class.std::vector.20"* %48, i64 %53, i32 0, i32 0, i32 0, i32 0
  %55 = load i64*, i64** %54, align 8, !tbaa !40
  %56 = load i64, i64* %55, align 8, !tbaa !36
  %57 = getelementptr inbounds i64, i64* %55, i64 1
  %58 = load i64, i64* %57, align 8, !tbaa !36
  %59 = add i64 %56, 1000000007
  %60 = add i64 %59, %58
  %61 = srem i64 %60, 1000000007
  %62 = srem i64 %52, 1000000007
  %63 = mul nsw i64 %61, %62
  %64 = srem i64 %63, 1000000007
  store i64 %64, i64* %51, align 8, !tbaa !36
  br label %65

65:                                               ; preds = %47, %44
  %66 = getelementptr inbounds i32, i32* %39, i64 1
  br label %38

67:                                               ; preds = %41, %88
  %68 = phi i32* [ %89, %88 ], [ %26, %41 ]
  %69 = icmp eq i32* %68, %28
  br i1 %69, label %70, label %71

70:                                               ; preds = %67
  ret void

71:                                               ; preds = %67
  %72 = load i32, i32* %68, align 4, !tbaa !11
  %73 = icmp eq i32 %72, %4
  br i1 %73, label %88, label %74

74:                                               ; preds = %71
  %75 = load %"class.std::vector.20"*, %"class.std::vector.20"** %43, align 8, !tbaa !38
  %76 = getelementptr inbounds %"class.std::vector.20", %"class.std::vector.20"* %75, i64 %11, i32 0, i32 0, i32 0, i32 0
  %77 = load i64*, i64** %76, align 8, !tbaa !40
  %78 = load i64, i64* %77, align 8, !tbaa !36
  %79 = sext i32 %72 to i64
  %80 = getelementptr inbounds %"class.std::vector.20", %"class.std::vector.20"* %75, i64 %79, i32 0, i32 0, i32 0, i32 0
  %81 = load i64*, i64** %80, align 8, !tbaa !40
  %82 = getelementptr inbounds i64, i64* %81, i64 1
  %83 = load i64, i64* %82, align 8, !tbaa !36
  %84 = srem i64 %78, 1000000007
  %85 = srem i64 %83, 1000000007
  %86 = mul nsw i64 %85, %84
  %87 = srem i64 %86, 1000000007
  store i64 %87, i64* %77, align 8, !tbaa !36
  br label %88

88:                                               ; preds = %74, %71
  %89 = getelementptr inbounds i32, i32* %68, i64 1
  br label %67
}

; Function Attrs: minsize nounwind optsize sspstrong uwtable
define linkonce_odr dso_local void @_ZNSt6vectorIS_IxSaIxEESaIS1_EED2Ev(%"class.std::vector.15"* nonnull align 8 dereferenceable(24) %0) unnamed_addr #3 comdat align 2 personality i8* bitcast (i32 (...)* @__gxx_personality_v0 to i8*) {
  %2 = getelementptr inbounds %"class.std::vector.15", %"class.std::vector.15"* %0, i64 0, i32 0
  %3 = getelementptr inbounds %"class.std::vector.15", %"class.std::vector.15"* %0, i64 0, i32 0, i32 0, i32 0, i32 0
  %4 = load %"class.std::vector.20"*, %"class.std::vector.20"** %3, align 8, !tbaa !38
  %5 = getelementptr inbounds %"class.std::vector.15", %"class.std::vector.15"* %0, i64 0, i32 0, i32 0, i32 0, i32 1
  %6 = load %"class.std::vector.20"*, %"class.std::vector.20"** %5, align 8, !tbaa !44
  invoke void @_ZNSt12_Destroy_auxILb0EE9__destroyIPSt6vectorIxSaIxEEEEvT_S6_(%"class.std::vector.20"* %4, %"class.std::vector.20"* %6) #22
          to label %7 unwind label %8

7:                                                ; preds = %1
  tail call void @_ZNSt12_Vector_baseISt6vectorIxSaIxEESaIS2_EED2Ev(%"struct.std::_Vector_base.16"* nonnull align 8 dereferenceable(24) %2) #21
  ret void

8:                                                ; preds = %1
  %9 = landingpad { i8*, i32 }
          catch i8* null
  %10 = extractvalue { i8*, i32 } %9, 0
  tail call void @_ZNSt12_Vector_baseISt6vectorIxSaIxEESaIS2_EED2Ev(%"struct.std::_Vector_base.16"* nonnull align 8 dereferenceable(24) %2) #21
  tail call void @__clang_call_terminate(i8* %10) #24
  unreachable
}

; Function Attrs: minsize nounwind optsize sspstrong uwtable
define linkonce_odr dso_local void @_ZNSt6vectorIS_IiSaIiEESaIS1_EED2Ev(%"class.std::vector.10"* nonnull align 8 dereferenceable(24) %0) unnamed_addr #3 comdat align 2 personality i8* bitcast (i32 (...)* @__gxx_personality_v0 to i8*) {
  %2 = getelementptr inbounds %"class.std::vector.10", %"class.std::vector.10"* %0, i64 0, i32 0
  %3 = getelementptr inbounds %"class.std::vector.10", %"class.std::vector.10"* %0, i64 0, i32 0, i32 0, i32 0, i32 0
  %4 = load %"class.std::vector"*, %"class.std::vector"** %3, align 8, !tbaa !33
  %5 = getelementptr inbounds %"class.std::vector.10", %"class.std::vector.10"* %0, i64 0, i32 0, i32 0, i32 0, i32 1
  %6 = load %"class.std::vector"*, %"class.std::vector"** %5, align 8, !tbaa !45
  invoke void @_ZNSt12_Destroy_auxILb0EE9__destroyIPSt6vectorIiSaIiEEEEvT_S6_(%"class.std::vector"* %4, %"class.std::vector"* %6) #22
          to label %7 unwind label %8

7:                                                ; preds = %1
  tail call void @_ZNSt12_Vector_baseISt6vectorIiSaIiEESaIS2_EED2Ev(%"struct.std::_Vector_base.11"* nonnull align 8 dereferenceable(24) %2) #21
  ret void

8:                                                ; preds = %1
  %9 = landingpad { i8*, i32 }
          catch i8* null
  %10 = extractvalue { i8*, i32 } %9, 0
  tail call void @_ZNSt12_Vector_baseISt6vectorIiSaIiEESaIS2_EED2Ev(%"struct.std::_Vector_base.11"* nonnull align 8 dereferenceable(24) %2) #21
  tail call void @__clang_call_terminate(i8* %10) #24
  unreachable
}

; Function Attrs: minsize mustprogress norecurse optsize sspstrong uwtable
define dso_local i32 @main() local_unnamed_addr #12 {
  %1 = tail call zeroext i1 @_ZNSt8ios_base15sync_with_stdioEb(i1 zeroext false) #22
  %2 = load i8*, i8** bitcast (%"class.std::basic_istream"* @_ZSt3cin to i8**), align 8, !tbaa !46
  %3 = getelementptr i8, i8* %2, i64 -24
  %4 = bitcast i8* %3 to i64*
  %5 = load i64, i64* %4, align 8
  %6 = add nsw i64 %5, 216
  %7 = getelementptr inbounds i8, i8* bitcast (%"class.std::basic_istream"* @_ZSt3cin to i8*), i64 %6
  %8 = bitcast i8* %7 to %"class.std::basic_ostream"**
  store %"class.std::basic_ostream"* null, %"class.std::basic_ostream"** %8, align 8, !tbaa !48
  %9 = load i8*, i8** bitcast (%"class.std::basic_ostream"* @_ZSt4cout to i8**), align 8, !tbaa !46
  %10 = getelementptr i8, i8* %9, i64 -24
  %11 = bitcast i8* %10 to i64*
  %12 = load i64, i64* %11, align 8
  %13 = add nsw i64 %12, 216
  %14 = getelementptr inbounds i8, i8* bitcast (%"class.std::basic_ostream"* @_ZSt4cout to i8*), i64 %13
  %15 = bitcast i8* %14 to %"class.std::basic_ostream"**
  store %"class.std::basic_ostream"* null, %"class.std::basic_ostream"** %15, align 8, !tbaa !48
  tail call void @_Z5solvev() #22
  ret i32 0
}

; Function Attrs: minsize optsize
declare zeroext i1 @_ZNSt8ios_base15sync_with_stdioEb(i1 zeroext) local_unnamed_addr #0

; Function Attrs: minsize nounwind optsize sspstrong uwtable
define linkonce_odr dso_local void @_ZNSt12_Vector_baseIiSaIiEED2Ev(%"struct.std::_Vector_base"* nonnull align 8 dereferenceable(24) %0) unnamed_addr #3 comdat align 2 personality i8* bitcast (i32 (...)* @__gxx_personality_v0 to i8*) {
  %2 = getelementptr inbounds %"struct.std::_Vector_base", %"struct.std::_Vector_base"* %0, i64 0, i32 0, i32 0, i32 0
  %3 = load i32*, i32** %2, align 8, !tbaa !13
  %4 = icmp eq i32* %3, null
  br i1 %4, label %7, label %5

5:                                                ; preds = %1
  %6 = bitcast i32* %3 to i8*
  tail call void @_ZdlPv(i8* nonnull %6) #21
  br label %7

7:                                                ; preds = %5, %1
  ret void
}

; Function Attrs: noinline noreturn nounwind
define linkonce_odr hidden void @__clang_call_terminate(i8* %0) local_unnamed_addr #13 comdat {
  %2 = tail call i8* @__cxa_begin_catch(i8* %0) #23
  tail call void @_ZSt9terminatev() #24
  unreachable
}

declare i8* @__cxa_begin_catch(i8*) local_unnamed_addr

declare void @_ZSt9terminatev() local_unnamed_addr

; Function Attrs: minsize nobuiltin nounwind optsize
declare void @_ZdlPv(i8*) local_unnamed_addr #14

; Function Attrs: minsize optsize sspstrong uwtable
define linkonce_odr dso_local i64 @_ZNSt6vectorIiSaIiEE17_S_check_init_lenEmRKS0_(i64 %0, %"class.std::allocator"* nonnull align 1 dereferenceable(1) %1) local_unnamed_addr #5 comdat align 2 personality i32 (...)* @__gxx_personality_v0 {
  %3 = icmp ugt i64 %0, 2305843009213693951
  br i1 %3, label %4, label %5

4:                                                ; preds = %2
  tail call void @_ZSt20__throw_length_errorPKc(i8* getelementptr inbounds ([49 x i8], [49 x i8]* @.str, i64 0, i64 0)) #25
  unreachable

5:                                                ; preds = %2
  ret i64 %0
}

; Function Attrs: minsize mustprogress optsize sspstrong uwtable
define linkonce_odr dso_local void @_ZNSt6vectorIiSaIiEE18_M_fill_initializeEmRKi(%"class.std::vector"* nonnull align 8 dereferenceable(24) %0, i64 %1, i32* nonnull align 4 dereferenceable(4) %2) local_unnamed_addr #15 comdat align 2 {
  %4 = getelementptr inbounds %"class.std::vector", %"class.std::vector"* %0, i64 0, i32 0, i32 0, i32 0, i32 0
  %5 = load i32*, i32** %4, align 8, !tbaa !13
  %6 = tail call i32* @_ZSt10__fill_n_aIPimiET_S1_T0_RKT1_St26random_access_iterator_tag(i32* %5, i64 %1, i32* nonnull align 4 dereferenceable(4) %2) #22
  %7 = getelementptr inbounds %"class.std::vector", %"class.std::vector"* %0, i64 0, i32 0, i32 0, i32 0, i32 1
  store i32* %6, i32** %7, align 8, !tbaa !20
  ret void
}

; Function Attrs: minsize noreturn optsize
declare void @_ZSt20__throw_length_errorPKc(i8*) local_unnamed_addr #16

; Function Attrs: minsize mustprogress optsize sspstrong uwtable
define linkonce_odr dso_local void @_ZNSt12_Vector_baseIiSaIiEE17_M_create_storageEm(%"struct.std::_Vector_base"* nonnull align 8 dereferenceable(24) %0, i64 %1) local_unnamed_addr #15 comdat align 2 {
  %3 = tail call i32* @_ZNSt12_Vector_baseIiSaIiEE11_M_allocateEm(%"struct.std::_Vector_base"* nonnull align 8 dereferenceable(24) %0, i64 %1) #22
  %4 = getelementptr inbounds %"struct.std::_Vector_base", %"struct.std::_Vector_base"* %0, i64 0, i32 0, i32 0, i32 0
  store i32* %3, i32** %4, align 8, !tbaa !13
  %5 = getelementptr inbounds %"struct.std::_Vector_base", %"struct.std::_Vector_base"* %0, i64 0, i32 0, i32 0, i32 1
  store i32* %3, i32** %5, align 8, !tbaa !20
  %6 = getelementptr inbounds i32, i32* %3, i64 %1
  %7 = getelementptr inbounds %"struct.std::_Vector_base", %"struct.std::_Vector_base"* %0, i64 0, i32 0, i32 0, i32 2
  store i32* %6, i32** %7, align 8, !tbaa !21
  ret void
}

; Function Attrs: minsize mustprogress optsize sspstrong uwtable
define linkonce_odr dso_local i32* @_ZNSt12_Vector_baseIiSaIiEE11_M_allocateEm(%"struct.std::_Vector_base"* nonnull align 8 dereferenceable(24) %0, i64 %1) local_unnamed_addr #15 comdat align 2 {
  %3 = icmp eq i64 %1, 0
  br i1 %3, label %7, label %4

4:                                                ; preds = %2
  %5 = bitcast %"struct.std::_Vector_base"* %0 to %"class.std::allocator"*
  %6 = tail call i32* @_ZNSt16allocator_traitsISaIiEE8allocateERS0_m(%"class.std::allocator"* nonnull align 1 dereferenceable(1) %5, i64 %1) #22
  br label %7

7:                                                ; preds = %2, %4
  %8 = phi i32* [ %6, %4 ], [ null, %2 ]
  ret i32* %8
}

; Function Attrs: minsize mustprogress optsize sspstrong uwtable
define linkonce_odr dso_local i32* @_ZNSt16allocator_traitsISaIiEE8allocateERS0_m(%"class.std::allocator"* nonnull align 1 dereferenceable(1) %0, i64 %1) local_unnamed_addr #15 comdat align 2 {
  %3 = bitcast %"class.std::allocator"* %0 to %"class.__gnu_cxx::new_allocator"*
  %4 = tail call i32* @_ZN9__gnu_cxx13new_allocatorIiE8allocateEmPKv(%"class.__gnu_cxx::new_allocator"* nonnull align 1 dereferenceable(1) %3, i64 %1, i8* null) #22
  ret i32* %4
}

; Function Attrs: minsize mustprogress optsize sspstrong uwtable
define linkonce_odr dso_local i32* @_ZN9__gnu_cxx13new_allocatorIiE8allocateEmPKv(%"class.__gnu_cxx::new_allocator"* nonnull align 1 dereferenceable(1) %0, i64 %1, i8* %2) local_unnamed_addr #15 comdat align 2 {
  %4 = icmp ugt i64 %1, 2305843009213693951
  br i1 %4, label %5, label %9, !prof !51

5:                                                ; preds = %3
  %6 = icmp ugt i64 %1, 4611686018427387903
  br i1 %6, label %7, label %8

7:                                                ; preds = %5
  tail call void @_ZSt28__throw_bad_array_new_lengthv() #25
  unreachable

8:                                                ; preds = %5
  tail call void @_ZSt17__throw_bad_allocv() #25
  unreachable

9:                                                ; preds = %3
  %10 = shl nuw nsw i64 %1, 2
  %11 = tail call noalias nonnull i8* @_Znwm(i64 %10) #26
  %12 = bitcast i8* %11 to i32*
  ret i32* %12
}

; Function Attrs: minsize noreturn optsize
declare void @_ZSt28__throw_bad_array_new_lengthv() local_unnamed_addr #16

; Function Attrs: minsize noreturn optsize
declare void @_ZSt17__throw_bad_allocv() local_unnamed_addr #16

; Function Attrs: minsize nobuiltin optsize allocsize(0)
declare nonnull i8* @_Znwm(i64) local_unnamed_addr #17

; Function Attrs: inlinehint minsize mustprogress optsize sspstrong uwtable
define linkonce_odr dso_local i32* @_ZSt10__fill_n_aIPimiET_S1_T0_RKT1_St26random_access_iterator_tag(i32* %0, i64 %1, i32* nonnull align 4 dereferenceable(4) %2) local_unnamed_addr #10 comdat {
  %4 = icmp eq i64 %1, 0
  br i1 %4, label %13, label %5

5:                                                ; preds = %3
  %6 = getelementptr inbounds i32, i32* %0, i64 %1
  %7 = load i32, i32* %2, align 4, !tbaa !11
  br label %8

8:                                                ; preds = %11, %5
  %9 = phi i32* [ %0, %5 ], [ %12, %11 ]
  %10 = icmp eq i32* %9, %6
  br i1 %10, label %13, label %11

11:                                               ; preds = %8
  store i32 %7, i32* %9, align 4, !tbaa !11
  %12 = getelementptr inbounds i32, i32* %9, i64 1
  br label %8, !llvm.loop !52

13:                                               ; preds = %8, %3
  %14 = phi i32* [ %0, %3 ], [ %6, %8 ]
  ret i32* %14
}

; Function Attrs: minsize nounwind optsize sspstrong uwtable
define linkonce_odr dso_local void @_ZNSt12_Vector_baseISt6vectorIeSaIeEESaIS2_EED2Ev(%"struct.std::_Vector_base.1"* nonnull align 8 dereferenceable(24) %0) unnamed_addr #3 comdat align 2 personality i8* bitcast (i32 (...)* @__gxx_personality_v0 to i8*) {
  %2 = getelementptr inbounds %"struct.std::_Vector_base.1", %"struct.std::_Vector_base.1"* %0, i64 0, i32 0, i32 0, i32 0
  %3 = load %"class.std::vector.5"*, %"class.std::vector.5"** %2, align 8, !tbaa !5
  %4 = icmp eq %"class.std::vector.5"* %3, null
  br i1 %4, label %7, label %5

5:                                                ; preds = %1
  %6 = bitcast %"class.std::vector.5"* %3 to i8*
  tail call void @_ZdlPv(i8* nonnull %6) #21
  br label %7

7:                                                ; preds = %5, %1
  ret void
}

; Function Attrs: minsize optsize sspstrong uwtable
define linkonce_odr dso_local void @_ZNSt12_Destroy_auxILb0EE9__destroyIPSt6vectorIeSaIeEEEEvT_S6_(%"class.std::vector.5"* %0, %"class.std::vector.5"* %1) local_unnamed_addr #5 comdat align 2 personality i32 (...)* @__gxx_personality_v0 {
  br label %3

3:                                                ; preds = %6, %2
  %4 = phi %"class.std::vector.5"* [ %0, %2 ], [ %8, %6 ]
  %5 = icmp eq %"class.std::vector.5"* %4, %1
  br i1 %5, label %9, label %6

6:                                                ; preds = %3
  %7 = getelementptr inbounds %"class.std::vector.5", %"class.std::vector.5"* %4, i64 0, i32 0
  tail call void @_ZNSt12_Vector_baseIeSaIeEED2Ev(%"struct.std::_Vector_base.6"* nonnull align 8 dereferenceable(24) %7) #21
  %8 = getelementptr inbounds %"class.std::vector.5", %"class.std::vector.5"* %4, i64 1
  br label %3, !llvm.loop !53

9:                                                ; preds = %3
  ret void
}

; Function Attrs: minsize nounwind optsize sspstrong uwtable
define linkonce_odr dso_local void @_ZNSt6vectorIiSaIiEE14_M_move_assignEOS1_St17integral_constantIbLb1EE(%"class.std::vector"* nonnull align 8 dereferenceable(24) %0, %"class.std::vector"* nonnull align 8 dereferenceable(24) %1) local_unnamed_addr #3 comdat align 2 personality i8* bitcast (i32 (...)* @__gxx_personality_v0 to i8*) {
  %3 = alloca %"class.std::vector", align 16
  %4 = bitcast %"class.std::vector"* %3 to i8*
  call void @llvm.lifetime.start.p0i8(i64 24, i8* nonnull %4) #23
  %5 = getelementptr inbounds %"class.std::vector", %"class.std::vector"* %0, i64 0, i32 0, i32 0, i32 0
  %6 = getelementptr inbounds %"class.std::vector", %"class.std::vector"* %1, i64 0, i32 0, i32 0, i32 0
  tail call void @_ZNSt12_Vector_baseIiSaIiEE17_Vector_impl_data12_M_swap_dataERS2_(%"struct.std::_Vector_base<int, std::allocator<int>>::_Vector_impl_data"* nonnull align 8 dereferenceable(24) %5, %"struct.std::_Vector_base<int, std::allocator<int>>::_Vector_impl_data"* nonnull align 8 dereferenceable(24) %6) #21
  %7 = getelementptr inbounds %"class.std::vector", %"class.std::vector"* %3, i64 0, i32 0, i32 0, i32 0, i32 2
  %8 = bitcast %"class.std::vector"* %1 to <2 x i32*>*
  %9 = load <2 x i32*>, <2 x i32*>* %8, align 8, !tbaa !32
  %10 = bitcast %"class.std::vector"* %3 to <2 x i32*>*
  store <2 x i32*> %9, <2 x i32*>* %10, align 16, !tbaa !32
  %11 = getelementptr inbounds %"class.std::vector", %"class.std::vector"* %1, i64 0, i32 0, i32 0, i32 0, i32 2
  %12 = load i32*, i32** %11, align 8, !tbaa !21
  store i32* %12, i32** %7, align 16, !tbaa !21
  %13 = getelementptr inbounds %"class.std::vector", %"class.std::vector"* %3, i64 0, i32 0
  %14 = bitcast %"class.std::vector"* %1 to i8*
  call void @llvm.memset.p0i8.i64(i8* noundef nonnull align 8 dereferenceable(24) %14, i8 0, i64 24, i1 false)
  call void @_ZNSt12_Vector_baseIiSaIiEED2Ev(%"struct.std::_Vector_base"* nonnull align 8 dereferenceable(24) %13) #21
  call void @llvm.lifetime.end.p0i8(i64 24, i8* nonnull %4) #23
  ret void
}

; Function Attrs: minsize nounwind optsize sspstrong uwtable
define linkonce_odr dso_local void @_ZNSt12_Vector_baseIiSaIiEE17_Vector_impl_data12_M_swap_dataERS2_(%"struct.std::_Vector_base<int, std::allocator<int>>::_Vector_impl_data"* nonnull align 8 dereferenceable(24) %0, %"struct.std::_Vector_base<int, std::allocator<int>>::_Vector_impl_data"* nonnull align 8 dereferenceable(24) %1) local_unnamed_addr #3 comdat align 2 {
  %3 = bitcast %"struct.std::_Vector_base<int, std::allocator<int>>::_Vector_impl_data"* %0 to <2 x i32*>*
  %4 = load <2 x i32*>, <2 x i32*>* %3, align 8, !tbaa !32
  %5 = getelementptr inbounds %"struct.std::_Vector_base<int, std::allocator<int>>::_Vector_impl_data", %"struct.std::_Vector_base<int, std::allocator<int>>::_Vector_impl_data"* %0, i64 0, i32 2
  %6 = load i32*, i32** %5, align 8, !tbaa !21
  %7 = bitcast %"struct.std::_Vector_base<int, std::allocator<int>>::_Vector_impl_data"* %1 to <2 x i32*>*
  %8 = load <2 x i32*>, <2 x i32*>* %7, align 8, !tbaa !32
  %9 = bitcast %"struct.std::_Vector_base<int, std::allocator<int>>::_Vector_impl_data"* %0 to <2 x i32*>*
  store <2 x i32*> %8, <2 x i32*>* %9, align 8, !tbaa !32
  %10 = getelementptr inbounds %"struct.std::_Vector_base<int, std::allocator<int>>::_Vector_impl_data", %"struct.std::_Vector_base<int, std::allocator<int>>::_Vector_impl_data"* %1, i64 0, i32 2
  %11 = load i32*, i32** %10, align 8, !tbaa !21
  store i32* %11, i32** %5, align 8, !tbaa !21
  %12 = bitcast %"struct.std::_Vector_base<int, std::allocator<int>>::_Vector_impl_data"* %1 to <2 x i32*>*
  store <2 x i32*> %4, <2 x i32*>* %12, align 8, !tbaa !32
  store i32* %6, i32** %10, align 8, !tbaa !21
  ret void
}

; Function Attrs: minsize optsize sspstrong uwtable
define linkonce_odr dso_local void @_ZNSt6vectorIiSaIiEE17_M_realloc_insertIJRKiEEEvN9__gnu_cxx17__normal_iteratorIPiS1_EEDpOT_(%"class.std::vector"* nonnull align 8 dereferenceable(24) %0, i32* %1, i32* nonnull align 4 dereferenceable(4) %2) local_unnamed_addr #5 comdat align 2 {
  %4 = tail call i64 @_ZNKSt6vectorIiSaIiEE12_M_check_lenEmPKc(%"class.std::vector"* nonnull align 8 dereferenceable(24) %0, i64 1, i8* getelementptr inbounds ([26 x i8], [26 x i8]* @.str.4, i64 0, i64 0)) #22
  %5 = getelementptr inbounds %"class.std::vector", %"class.std::vector"* %0, i64 0, i32 0
  %6 = getelementptr inbounds %"class.std::vector", %"class.std::vector"* %0, i64 0, i32 0, i32 0, i32 0, i32 0
  %7 = load i32*, i32** %6, align 8, !tbaa !13
  %8 = getelementptr inbounds %"class.std::vector", %"class.std::vector"* %0, i64 0, i32 0, i32 0, i32 0, i32 1
  %9 = load i32*, i32** %8, align 8, !tbaa !20
  %10 = ptrtoint i32* %1 to i64
  %11 = ptrtoint i32* %7 to i64
  %12 = sub i64 %10, %11
  %13 = ashr exact i64 %12, 2
  %14 = tail call i32* @_ZNSt12_Vector_baseIiSaIiEE11_M_allocateEm(%"struct.std::_Vector_base"* nonnull align 8 dereferenceable(24) %5, i64 %4) #22
  %15 = getelementptr inbounds i32, i32* %14, i64 %13
  %16 = load i32, i32* %2, align 4, !tbaa !11
  store i32 %16, i32* %15, align 4, !tbaa !11
  %17 = icmp sgt i64 %12, 0
  br i1 %17, label %18, label %21

18:                                               ; preds = %3
  %19 = bitcast i32* %14 to i8*
  %20 = bitcast i32* %7 to i8*
  tail call void @llvm.memmove.p0i8.p0i8.i64(i8* align 4 %19, i8* align 4 %20, i64 %12, i1 false) #23
  br label %21

21:                                               ; preds = %3, %18
  %22 = getelementptr inbounds i32, i32* %15, i64 1
  %23 = ptrtoint i32* %9 to i64
  %24 = sub i64 %23, %10
  %25 = icmp sgt i64 %24, 0
  br i1 %25, label %26, label %29

26:                                               ; preds = %21
  %27 = bitcast i32* %22 to i8*
  %28 = bitcast i32* %1 to i8*
  tail call void @llvm.memmove.p0i8.p0i8.i64(i8* nonnull align 4 %27, i8* align 4 %28, i64 %24, i1 false) #23
  br label %29

29:                                               ; preds = %21, %26
  %30 = icmp eq i32* %7, null
  br i1 %30, label %33, label %31

31:                                               ; preds = %29
  %32 = bitcast i32* %7 to i8*
  tail call void @_ZdlPv(i8* nonnull %32) #21
  br label %33

33:                                               ; preds = %29, %31
  %34 = getelementptr inbounds %"class.std::vector", %"class.std::vector"* %0, i64 0, i32 0, i32 0, i32 0, i32 2
  %35 = ashr exact i64 %24, 2
  %36 = getelementptr inbounds i32, i32* %22, i64 %35
  store i32* %14, i32** %6, align 8, !tbaa !13
  store i32* %36, i32** %8, align 8, !tbaa !20
  %37 = getelementptr inbounds i32, i32* %14, i64 %4
  store i32* %37, i32** %34, align 8, !tbaa !21
  ret void
}

; Function Attrs: minsize mustprogress optsize sspstrong uwtable
define linkonce_odr dso_local i64 @_ZNKSt6vectorIiSaIiEE12_M_check_lenEmPKc(%"class.std::vector"* nonnull align 8 dereferenceable(24) %0, i64 %1, i8* %2) local_unnamed_addr #15 comdat align 2 personality i32 (...)* @__gxx_personality_v0 {
  %4 = getelementptr inbounds %"class.std::vector", %"class.std::vector"* %0, i64 0, i32 0, i32 0, i32 0, i32 1
  %5 = load i32*, i32** %4, align 8, !tbaa !20
  %6 = getelementptr inbounds %"class.std::vector", %"class.std::vector"* %0, i64 0, i32 0, i32 0, i32 0, i32 0
  %7 = load i32*, i32** %6, align 8, !tbaa !13
  %8 = ptrtoint i32* %5 to i64
  %9 = ptrtoint i32* %7 to i64
  %10 = sub i64 %8, %9
  %11 = ashr exact i64 %10, 2
  %12 = sub nsw i64 2305843009213693951, %11
  %13 = icmp ult i64 %12, %1
  br i1 %13, label %14, label %15

14:                                               ; preds = %3
  tail call void @_ZSt20__throw_length_errorPKc(i8* %2) #25
  unreachable

15:                                               ; preds = %3
  %16 = icmp ult i64 %11, %1
  %17 = select i1 %16, i64 %1, i64 %11
  %18 = add i64 %17, %11
  %19 = icmp ult i64 %18, %11
  %20 = icmp ugt i64 %18, 2305843009213693951
  %21 = or i1 %19, %20
  %22 = select i1 %21, i64 2305843009213693951, i64 %18
  ret i64 %22
}

; Function Attrs: argmemonly mustprogress nofree nounwind willreturn
declare void @llvm.memmove.p0i8.p0i8.i64(i8* nocapture writeonly, i8* nocapture readonly, i64, i1 immarg) #18

; Function Attrs: minsize optsize sspstrong uwtable
define linkonce_odr dso_local i64 @_ZNSt6vectorIeSaIeEE17_S_check_init_lenEmRKS0_(i64 %0, %"class.std::allocator.7"* nonnull align 1 dereferenceable(1) %1) local_unnamed_addr #5 comdat align 2 {
  %3 = icmp ugt i64 %0, 576460752303423487
  br i1 %3, label %4, label %5

4:                                                ; preds = %2
  tail call void @_ZSt20__throw_length_errorPKc(i8* getelementptr inbounds ([49 x i8], [49 x i8]* @.str, i64 0, i64 0)) #25
  unreachable

5:                                                ; preds = %2
  ret i64 %0
}

; Function Attrs: minsize mustprogress optsize sspstrong uwtable
define linkonce_odr dso_local void @_ZNSt6vectorIeSaIeEE18_M_fill_initializeEmRKe(%"class.std::vector.5"* nonnull align 8 dereferenceable(24) %0, i64 %1, x86_fp80* nonnull align 16 dereferenceable(16) %2) local_unnamed_addr #15 comdat align 2 {
  %4 = getelementptr inbounds %"class.std::vector.5", %"class.std::vector.5"* %0, i64 0, i32 0, i32 0, i32 0, i32 0
  %5 = load x86_fp80*, x86_fp80** %4, align 8, !tbaa !24
  %6 = tail call x86_fp80* @_ZSt10__fill_n_aIPemeET_S1_T0_RKT1_St26random_access_iterator_tag(x86_fp80* %5, i64 %1, x86_fp80* nonnull align 16 dereferenceable(16) %2) #22
  %7 = getelementptr inbounds %"class.std::vector.5", %"class.std::vector.5"* %0, i64 0, i32 0, i32 0, i32 0, i32 1
  store x86_fp80* %6, x86_fp80** %7, align 8, !tbaa !54
  ret void
}

; Function Attrs: minsize nounwind optsize sspstrong uwtable
define linkonce_odr dso_local void @_ZNSt12_Vector_baseIeSaIeEED2Ev(%"struct.std::_Vector_base.6"* nonnull align 8 dereferenceable(24) %0) unnamed_addr #3 comdat align 2 personality i8* bitcast (i32 (...)* @__gxx_personality_v0 to i8*) {
  %2 = getelementptr inbounds %"struct.std::_Vector_base.6", %"struct.std::_Vector_base.6"* %0, i64 0, i32 0, i32 0, i32 0
  %3 = load x86_fp80*, x86_fp80** %2, align 8, !tbaa !24
  %4 = icmp eq x86_fp80* %3, null
  br i1 %4, label %7, label %5

5:                                                ; preds = %1
  %6 = bitcast x86_fp80* %3 to i8*
  tail call void @_ZdlPv(i8* nonnull %6) #21
  br label %7

7:                                                ; preds = %5, %1
  ret void
}

; Function Attrs: minsize mustprogress optsize sspstrong uwtable
define linkonce_odr dso_local void @_ZNSt12_Vector_baseIeSaIeEE17_M_create_storageEm(%"struct.std::_Vector_base.6"* nonnull align 8 dereferenceable(24) %0, i64 %1) local_unnamed_addr #15 comdat align 2 {
  %3 = tail call x86_fp80* @_ZNSt12_Vector_baseIeSaIeEE11_M_allocateEm(%"struct.std::_Vector_base.6"* nonnull align 8 dereferenceable(24) %0, i64 %1) #22
  %4 = getelementptr inbounds %"struct.std::_Vector_base.6", %"struct.std::_Vector_base.6"* %0, i64 0, i32 0, i32 0, i32 0
  store x86_fp80* %3, x86_fp80** %4, align 8, !tbaa !24
  %5 = getelementptr inbounds %"struct.std::_Vector_base.6", %"struct.std::_Vector_base.6"* %0, i64 0, i32 0, i32 0, i32 1
  store x86_fp80* %3, x86_fp80** %5, align 8, !tbaa !54
  %6 = getelementptr inbounds x86_fp80, x86_fp80* %3, i64 %1
  %7 = getelementptr inbounds %"struct.std::_Vector_base.6", %"struct.std::_Vector_base.6"* %0, i64 0, i32 0, i32 0, i32 2
  store x86_fp80* %6, x86_fp80** %7, align 8, !tbaa !55
  ret void
}

; Function Attrs: minsize mustprogress optsize sspstrong uwtable
define linkonce_odr dso_local x86_fp80* @_ZNSt12_Vector_baseIeSaIeEE11_M_allocateEm(%"struct.std::_Vector_base.6"* nonnull align 8 dereferenceable(24) %0, i64 %1) local_unnamed_addr #15 comdat align 2 {
  %3 = icmp eq i64 %1, 0
  br i1 %3, label %7, label %4

4:                                                ; preds = %2
  %5 = bitcast %"struct.std::_Vector_base.6"* %0 to %"class.std::allocator.7"*
  %6 = tail call x86_fp80* @_ZNSt16allocator_traitsISaIeEE8allocateERS0_m(%"class.std::allocator.7"* nonnull align 1 dereferenceable(1) %5, i64 %1) #22
  br label %7

7:                                                ; preds = %2, %4
  %8 = phi x86_fp80* [ %6, %4 ], [ null, %2 ]
  ret x86_fp80* %8
}

; Function Attrs: minsize mustprogress optsize sspstrong uwtable
define linkonce_odr dso_local x86_fp80* @_ZNSt16allocator_traitsISaIeEE8allocateERS0_m(%"class.std::allocator.7"* nonnull align 1 dereferenceable(1) %0, i64 %1) local_unnamed_addr #15 comdat align 2 {
  %3 = bitcast %"class.std::allocator.7"* %0 to %"class.__gnu_cxx::new_allocator.8"*
  %4 = tail call x86_fp80* @_ZN9__gnu_cxx13new_allocatorIeE8allocateEmPKv(%"class.__gnu_cxx::new_allocator.8"* nonnull align 1 dereferenceable(1) %3, i64 %1, i8* null) #22
  ret x86_fp80* %4
}

; Function Attrs: minsize mustprogress optsize sspstrong uwtable
define linkonce_odr dso_local x86_fp80* @_ZN9__gnu_cxx13new_allocatorIeE8allocateEmPKv(%"class.__gnu_cxx::new_allocator.8"* nonnull align 1 dereferenceable(1) %0, i64 %1, i8* %2) local_unnamed_addr #15 comdat align 2 {
  %4 = icmp ugt i64 %1, 576460752303423487
  br i1 %4, label %5, label %9, !prof !51

5:                                                ; preds = %3
  %6 = icmp ugt i64 %1, 1152921504606846975
  br i1 %6, label %7, label %8

7:                                                ; preds = %5
  tail call void @_ZSt28__throw_bad_array_new_lengthv() #25
  unreachable

8:                                                ; preds = %5
  tail call void @_ZSt17__throw_bad_allocv() #25
  unreachable

9:                                                ; preds = %3
  %10 = shl nuw nsw i64 %1, 4
  %11 = tail call noalias nonnull i8* @_Znwm(i64 %10) #26
  %12 = bitcast i8* %11 to x86_fp80*
  ret x86_fp80* %12
}

; Function Attrs: inlinehint minsize mustprogress optsize sspstrong uwtable
define linkonce_odr dso_local x86_fp80* @_ZSt10__fill_n_aIPemeET_S1_T0_RKT1_St26random_access_iterator_tag(x86_fp80* %0, i64 %1, x86_fp80* nonnull align 16 dereferenceable(16) %2) local_unnamed_addr #10 comdat {
  %4 = icmp eq i64 %1, 0
  br i1 %4, label %13, label %5

5:                                                ; preds = %3
  %6 = getelementptr inbounds x86_fp80, x86_fp80* %0, i64 %1
  %7 = load x86_fp80, x86_fp80* %2, align 16, !tbaa !22
  br label %8

8:                                                ; preds = %11, %5
  %9 = phi x86_fp80* [ %0, %5 ], [ %12, %11 ]
  %10 = icmp eq x86_fp80* %9, %6
  br i1 %10, label %13, label %11

11:                                               ; preds = %8
  store x86_fp80 %7, x86_fp80* %9, align 16, !tbaa !22
  %12 = getelementptr inbounds x86_fp80, x86_fp80* %9, i64 1
  br label %8, !llvm.loop !56

13:                                               ; preds = %8, %3
  %14 = phi x86_fp80* [ %0, %3 ], [ %6, %8 ]
  ret x86_fp80* %14
}

; Function Attrs: minsize optsize sspstrong uwtable
define linkonce_odr dso_local i64 @_ZNSt6vectorIS_IeSaIeEESaIS1_EE17_S_check_init_lenEmRKS2_(i64 %0, %"class.std::allocator.2"* nonnull align 1 dereferenceable(1) %1) local_unnamed_addr #5 comdat align 2 {
  %3 = icmp ugt i64 %0, 384307168202282325
  br i1 %3, label %4, label %5

4:                                                ; preds = %2
  tail call void @_ZSt20__throw_length_errorPKc(i8* getelementptr inbounds ([49 x i8], [49 x i8]* @.str, i64 0, i64 0)) #25
  unreachable

5:                                                ; preds = %2
  ret i64 %0
}

; Function Attrs: minsize mustprogress optsize sspstrong uwtable
define linkonce_odr dso_local void @_ZNSt6vectorIS_IeSaIeEESaIS1_EE18_M_fill_initializeEmRKS1_(%"class.std::vector.0"* nonnull align 8 dereferenceable(24) %0, i64 %1, %"class.std::vector.5"* nonnull align 8 dereferenceable(24) %2) local_unnamed_addr #15 comdat align 2 {
  %4 = getelementptr inbounds %"class.std::vector.0", %"class.std::vector.0"* %0, i64 0, i32 0, i32 0, i32 0, i32 0
  %5 = load %"class.std::vector.5"*, %"class.std::vector.5"** %4, align 8, !tbaa !5
  %6 = tail call %"class.std::vector.5"* @_ZNSt22__uninitialized_fill_nILb0EE15__uninit_fill_nIPSt6vectorIeSaIeEEmS4_EET_S6_T0_RKT1_(%"class.std::vector.5"* %5, i64 %1, %"class.std::vector.5"* nonnull align 8 dereferenceable(24) %2) #22
  %7 = getelementptr inbounds %"class.std::vector.0", %"class.std::vector.0"* %0, i64 0, i32 0, i32 0, i32 0, i32 1
  store %"class.std::vector.5"* %6, %"class.std::vector.5"** %7, align 8, !tbaa !10
  ret void
}

; Function Attrs: minsize mustprogress optsize sspstrong uwtable
define linkonce_odr dso_local void @_ZNSt12_Vector_baseISt6vectorIeSaIeEESaIS2_EE17_M_create_storageEm(%"struct.std::_Vector_base.1"* nonnull align 8 dereferenceable(24) %0, i64 %1) local_unnamed_addr #15 comdat align 2 {
  %3 = tail call %"class.std::vector.5"* @_ZNSt12_Vector_baseISt6vectorIeSaIeEESaIS2_EE11_M_allocateEm(%"struct.std::_Vector_base.1"* nonnull align 8 dereferenceable(24) %0, i64 %1) #22
  %4 = getelementptr inbounds %"struct.std::_Vector_base.1", %"struct.std::_Vector_base.1"* %0, i64 0, i32 0, i32 0, i32 0
  store %"class.std::vector.5"* %3, %"class.std::vector.5"** %4, align 8, !tbaa !5
  %5 = getelementptr inbounds %"struct.std::_Vector_base.1", %"struct.std::_Vector_base.1"* %0, i64 0, i32 0, i32 0, i32 1
  store %"class.std::vector.5"* %3, %"class.std::vector.5"** %5, align 8, !tbaa !10
  %6 = getelementptr inbounds %"class.std::vector.5", %"class.std::vector.5"* %3, i64 %1
  %7 = getelementptr inbounds %"struct.std::_Vector_base.1", %"struct.std::_Vector_base.1"* %0, i64 0, i32 0, i32 0, i32 2
  store %"class.std::vector.5"* %6, %"class.std::vector.5"** %7, align 8, !tbaa !57
  ret void
}

; Function Attrs: minsize mustprogress optsize sspstrong uwtable
define linkonce_odr dso_local %"class.std::vector.5"* @_ZNSt12_Vector_baseISt6vectorIeSaIeEESaIS2_EE11_M_allocateEm(%"struct.std::_Vector_base.1"* nonnull align 8 dereferenceable(24) %0, i64 %1) local_unnamed_addr #15 comdat align 2 {
  %3 = icmp eq i64 %1, 0
  br i1 %3, label %7, label %4

4:                                                ; preds = %2
  %5 = bitcast %"struct.std::_Vector_base.1"* %0 to %"class.std::allocator.2"*
  %6 = tail call %"class.std::vector.5"* @_ZNSt16allocator_traitsISaISt6vectorIeSaIeEEEE8allocateERS3_m(%"class.std::allocator.2"* nonnull align 1 dereferenceable(1) %5, i64 %1) #22
  br label %7

7:                                                ; preds = %2, %4
  %8 = phi %"class.std::vector.5"* [ %6, %4 ], [ null, %2 ]
  ret %"class.std::vector.5"* %8
}

; Function Attrs: minsize mustprogress optsize sspstrong uwtable
define linkonce_odr dso_local %"class.std::vector.5"* @_ZNSt16allocator_traitsISaISt6vectorIeSaIeEEEE8allocateERS3_m(%"class.std::allocator.2"* nonnull align 1 dereferenceable(1) %0, i64 %1) local_unnamed_addr #15 comdat align 2 {
  %3 = bitcast %"class.std::allocator.2"* %0 to %"class.__gnu_cxx::new_allocator.3"*
  %4 = tail call %"class.std::vector.5"* @_ZN9__gnu_cxx13new_allocatorISt6vectorIeSaIeEEE8allocateEmPKv(%"class.__gnu_cxx::new_allocator.3"* nonnull align 1 dereferenceable(1) %3, i64 %1, i8* null) #22
  ret %"class.std::vector.5"* %4
}

; Function Attrs: minsize mustprogress optsize sspstrong uwtable
define linkonce_odr dso_local %"class.std::vector.5"* @_ZN9__gnu_cxx13new_allocatorISt6vectorIeSaIeEEE8allocateEmPKv(%"class.__gnu_cxx::new_allocator.3"* nonnull align 1 dereferenceable(1) %0, i64 %1, i8* %2) local_unnamed_addr #15 comdat align 2 {
  %4 = icmp ugt i64 %1, 384307168202282325
  br i1 %4, label %5, label %9, !prof !51

5:                                                ; preds = %3
  %6 = icmp ugt i64 %1, 768614336404564650
  br i1 %6, label %7, label %8

7:                                                ; preds = %5
  tail call void @_ZSt28__throw_bad_array_new_lengthv() #25
  unreachable

8:                                                ; preds = %5
  tail call void @_ZSt17__throw_bad_allocv() #25
  unreachable

9:                                                ; preds = %3
  %10 = mul nuw nsw i64 %1, 24
  %11 = tail call noalias nonnull i8* @_Znwm(i64 %10) #26
  %12 = bitcast i8* %11 to %"class.std::vector.5"*
  ret %"class.std::vector.5"* %12
}

; Function Attrs: minsize mustprogress optsize sspstrong uwtable
define linkonce_odr dso_local %"class.std::vector.5"* @_ZNSt22__uninitialized_fill_nILb0EE15__uninit_fill_nIPSt6vectorIeSaIeEEmS4_EET_S6_T0_RKT1_(%"class.std::vector.5"* %0, i64 %1, %"class.std::vector.5"* nonnull align 8 dereferenceable(24) %2) local_unnamed_addr #15 comdat align 2 personality i8* bitcast (i32 (...)* @__gxx_personality_v0 to i8*) {
  br label %4

4:                                                ; preds = %9, %3
  %5 = phi i64 [ %1, %3 ], [ %10, %9 ]
  %6 = phi %"class.std::vector.5"* [ %0, %3 ], [ %11, %9 ]
  %7 = icmp eq i64 %5, 0
  br i1 %7, label %17, label %8

8:                                                ; preds = %4
  invoke void @_ZNSt6vectorIeSaIeEEC2ERKS1_(%"class.std::vector.5"* nonnull align 8 dereferenceable(24) %6, %"class.std::vector.5"* nonnull align 8 dereferenceable(24) %2) #22
          to label %9 unwind label %12

9:                                                ; preds = %8
  %10 = add i64 %5, -1
  %11 = getelementptr inbounds %"class.std::vector.5", %"class.std::vector.5"* %6, i64 1
  br label %4, !llvm.loop !58

12:                                               ; preds = %8
  %13 = landingpad { i8*, i32 }
          catch i8* null
  %14 = extractvalue { i8*, i32 } %13, 0
  %15 = tail call i8* @__cxa_begin_catch(i8* %14) #23
  invoke void @_ZNSt12_Destroy_auxILb0EE9__destroyIPSt6vectorIeSaIeEEEEvT_S6_(%"class.std::vector.5"* %0, %"class.std::vector.5"* %6) #22
          to label %16 unwind label %18

16:                                               ; preds = %12
  invoke void @__cxa_rethrow() #27
          to label %24 unwind label %18

17:                                               ; preds = %4
  ret %"class.std::vector.5"* %6

18:                                               ; preds = %12, %16
  %19 = landingpad { i8*, i32 }
          cleanup
  invoke void @__cxa_end_catch()
          to label %20 unwind label %21

20:                                               ; preds = %18
  resume { i8*, i32 } %19

21:                                               ; preds = %18
  %22 = landingpad { i8*, i32 }
          catch i8* null
  %23 = extractvalue { i8*, i32 } %22, 0
  tail call void @__clang_call_terminate(i8* %23) #24
  unreachable

24:                                               ; preds = %16
  unreachable
}

declare void @__cxa_rethrow() local_unnamed_addr

declare void @__cxa_end_catch() local_unnamed_addr

; Function Attrs: minsize optsize sspstrong uwtable
define linkonce_odr dso_local void @_ZNSt6vectorIeSaIeEEC2ERKS1_(%"class.std::vector.5"* nonnull align 8 dereferenceable(24) %0, %"class.std::vector.5"* nonnull align 8 dereferenceable(24) %1) unnamed_addr #5 comdat align 2 personality i8* bitcast (i32 (...)* @__gxx_personality_v0 to i8*) {
  %3 = getelementptr inbounds %"class.std::vector.5", %"class.std::vector.5"* %0, i64 0, i32 0
  %4 = getelementptr inbounds %"class.std::vector.5", %"class.std::vector.5"* %1, i64 0, i32 0, i32 0, i32 0, i32 1
  %5 = load x86_fp80*, x86_fp80** %4, align 8, !tbaa !54
  %6 = getelementptr inbounds %"class.std::vector.5", %"class.std::vector.5"* %1, i64 0, i32 0, i32 0, i32 0, i32 0
  %7 = load x86_fp80*, x86_fp80** %6, align 8, !tbaa !24
  %8 = ptrtoint x86_fp80* %5 to i64
  %9 = ptrtoint x86_fp80* %7 to i64
  %10 = sub i64 %8, %9
  %11 = ashr exact i64 %10, 4
  %12 = bitcast %"class.std::vector.5"* %0 to i8*
  tail call void @llvm.memset.p0i8.i64(i8* noundef nonnull align 8 dereferenceable(24) %12, i8 0, i64 24, i1 false) #23
  tail call void @_ZNSt12_Vector_baseIeSaIeEE17_M_create_storageEm(%"struct.std::_Vector_base.6"* nonnull align 8 dereferenceable(24) %3, i64 %11) #22
  %13 = load x86_fp80*, x86_fp80** %6, align 8, !tbaa !32
  %14 = load x86_fp80*, x86_fp80** %4, align 8, !tbaa !32
  %15 = getelementptr inbounds %"class.std::vector.5", %"class.std::vector.5"* %0, i64 0, i32 0, i32 0, i32 0, i32 0
  %16 = load x86_fp80*, x86_fp80** %15, align 8, !tbaa !24
  %17 = ptrtoint x86_fp80* %14 to i64
  %18 = ptrtoint x86_fp80* %13 to i64
  %19 = sub i64 %17, %18
  %20 = icmp eq i64 %19, 0
  br i1 %20, label %24, label %21

21:                                               ; preds = %2
  %22 = bitcast x86_fp80* %16 to i8*
  %23 = bitcast x86_fp80* %13 to i8*
  tail call void @llvm.memmove.p0i8.p0i8.i64(i8* align 16 %22, i8* align 16 %23, i64 %19, i1 false) #23
  br label %24

24:                                               ; preds = %21, %2
  %25 = ashr exact i64 %19, 4
  %26 = getelementptr inbounds x86_fp80, x86_fp80* %16, i64 %25
  %27 = getelementptr inbounds %"class.std::vector.5", %"class.std::vector.5"* %0, i64 0, i32 0, i32 0, i32 0, i32 1
  store x86_fp80* %26, x86_fp80** %27, align 8, !tbaa !54
  ret void
}

; Function Attrs: minsize nounwind optsize sspstrong uwtable
define linkonce_odr dso_local void @_ZNSt6vectorIS_IeSaIeEESaIS1_EE14_M_move_assignEOS3_St17integral_constantIbLb1EE(%"class.std::vector.0"* nonnull align 8 dereferenceable(24) %0, %"class.std::vector.0"* nonnull align 8 dereferenceable(24) %1) local_unnamed_addr #3 comdat align 2 personality i8* bitcast (i32 (...)* @__gxx_personality_v0 to i8*) {
  %3 = alloca %"class.std::vector.0", align 16
  %4 = bitcast %"class.std::vector.0"* %3 to i8*
  call void @llvm.lifetime.start.p0i8(i64 24, i8* nonnull %4) #23
  %5 = getelementptr inbounds %"class.std::vector.0", %"class.std::vector.0"* %0, i64 0, i32 0, i32 0, i32 0
  %6 = getelementptr inbounds %"class.std::vector.0", %"class.std::vector.0"* %1, i64 0, i32 0, i32 0, i32 0
  tail call void @_ZNSt12_Vector_baseISt6vectorIeSaIeEESaIS2_EE17_Vector_impl_data12_M_swap_dataERS5_(%"struct.std::_Vector_base<std::vector<long double>, std::allocator<std::vector<long double>>>::_Vector_impl_data"* nonnull align 8 dereferenceable(24) %5, %"struct.std::_Vector_base<std::vector<long double>, std::allocator<std::vector<long double>>>::_Vector_impl_data"* nonnull align 8 dereferenceable(24) %6) #21
  %7 = getelementptr inbounds %"class.std::vector.0", %"class.std::vector.0"* %3, i64 0, i32 0, i32 0, i32 0, i32 2
  %8 = bitcast %"class.std::vector.0"* %1 to <2 x %"class.std::vector.5"*>*
  %9 = load <2 x %"class.std::vector.5"*>, <2 x %"class.std::vector.5"*>* %8, align 8, !tbaa !32
  %10 = bitcast %"class.std::vector.0"* %3 to <2 x %"class.std::vector.5"*>*
  store <2 x %"class.std::vector.5"*> %9, <2 x %"class.std::vector.5"*>* %10, align 16, !tbaa !32
  %11 = getelementptr inbounds %"class.std::vector.0", %"class.std::vector.0"* %1, i64 0, i32 0, i32 0, i32 0, i32 2
  %12 = load %"class.std::vector.5"*, %"class.std::vector.5"** %11, align 8, !tbaa !57
  store %"class.std::vector.5"* %12, %"class.std::vector.5"** %7, align 16, !tbaa !57
  %13 = bitcast %"class.std::vector.0"* %1 to i8*
  call void @llvm.memset.p0i8.i64(i8* noundef nonnull align 8 dereferenceable(24) %13, i8 0, i64 24, i1 false)
  call void @_ZNSt6vectorIS_IeSaIeEESaIS1_EED2Ev(%"class.std::vector.0"* nonnull align 8 dereferenceable(24) %3) #21
  call void @llvm.lifetime.end.p0i8(i64 24, i8* nonnull %4) #23
  ret void
}

; Function Attrs: minsize nounwind optsize sspstrong uwtable
define linkonce_odr dso_local void @_ZNSt12_Vector_baseISt6vectorIeSaIeEESaIS2_EE17_Vector_impl_data12_M_swap_dataERS5_(%"struct.std::_Vector_base<std::vector<long double>, std::allocator<std::vector<long double>>>::_Vector_impl_data"* nonnull align 8 dereferenceable(24) %0, %"struct.std::_Vector_base<std::vector<long double>, std::allocator<std::vector<long double>>>::_Vector_impl_data"* nonnull align 8 dereferenceable(24) %1) local_unnamed_addr #3 comdat align 2 {
  %3 = bitcast %"struct.std::_Vector_base<std::vector<long double>, std::allocator<std::vector<long double>>>::_Vector_impl_data"* %0 to <2 x %"class.std::vector.5"*>*
  %4 = load <2 x %"class.std::vector.5"*>, <2 x %"class.std::vector.5"*>* %3, align 8, !tbaa !32
  %5 = getelementptr inbounds %"struct.std::_Vector_base<std::vector<long double>, std::allocator<std::vector<long double>>>::_Vector_impl_data", %"struct.std::_Vector_base<std::vector<long double>, std::allocator<std::vector<long double>>>::_Vector_impl_data"* %0, i64 0, i32 2
  %6 = load %"class.std::vector.5"*, %"class.std::vector.5"** %5, align 8, !tbaa !57
  %7 = bitcast %"struct.std::_Vector_base<std::vector<long double>, std::allocator<std::vector<long double>>>::_Vector_impl_data"* %1 to <2 x %"class.std::vector.5"*>*
  %8 = load <2 x %"class.std::vector.5"*>, <2 x %"class.std::vector.5"*>* %7, align 8, !tbaa !32
  %9 = bitcast %"struct.std::_Vector_base<std::vector<long double>, std::allocator<std::vector<long double>>>::_Vector_impl_data"* %0 to <2 x %"class.std::vector.5"*>*
  store <2 x %"class.std::vector.5"*> %8, <2 x %"class.std::vector.5"*>* %9, align 8, !tbaa !32
  %10 = getelementptr inbounds %"struct.std::_Vector_base<std::vector<long double>, std::allocator<std::vector<long double>>>::_Vector_impl_data", %"struct.std::_Vector_base<std::vector<long double>, std::allocator<std::vector<long double>>>::_Vector_impl_data"* %1, i64 0, i32 2
  %11 = load %"class.std::vector.5"*, %"class.std::vector.5"** %10, align 8, !tbaa !57
  store %"class.std::vector.5"* %11, %"class.std::vector.5"** %5, align 8, !tbaa !57
  %12 = bitcast %"struct.std::_Vector_base<std::vector<long double>, std::allocator<std::vector<long double>>>::_Vector_impl_data"* %1 to <2 x %"class.std::vector.5"*>*
  store <2 x %"class.std::vector.5"*> %4, <2 x %"class.std::vector.5"*>* %12, align 8, !tbaa !32
  store %"class.std::vector.5"* %6, %"class.std::vector.5"** %10, align 8, !tbaa !57
  ret void
}

; Function Attrs: minsize optsize sspstrong uwtable
define linkonce_odr dso_local i64 @_ZNSt6vectorIS_IiSaIiEESaIS1_EE17_S_check_init_lenEmRKS2_(i64 %0, %"class.std::allocator.12"* nonnull align 1 dereferenceable(1) %1) local_unnamed_addr #5 comdat align 2 {
  %3 = icmp ugt i64 %0, 384307168202282325
  br i1 %3, label %4, label %5

4:                                                ; preds = %2
  tail call void @_ZSt20__throw_length_errorPKc(i8* getelementptr inbounds ([49 x i8], [49 x i8]* @.str, i64 0, i64 0)) #25
  unreachable

5:                                                ; preds = %2
  ret i64 %0
}

; Function Attrs: minsize mustprogress optsize sspstrong uwtable
define linkonce_odr dso_local void @_ZNSt6vectorIS_IiSaIiEESaIS1_EE21_M_default_initializeEm(%"class.std::vector.10"* nonnull align 8 dereferenceable(24) %0, i64 %1) local_unnamed_addr #15 comdat align 2 {
  %3 = getelementptr inbounds %"class.std::vector.10", %"class.std::vector.10"* %0, i64 0, i32 0, i32 0, i32 0, i32 0
  %4 = load %"class.std::vector"*, %"class.std::vector"** %3, align 8, !tbaa !33
  %5 = tail call %"class.std::vector"* @_ZNSt27__uninitialized_default_n_1ILb0EE18__uninit_default_nIPSt6vectorIiSaIiEEmEET_S6_T0_(%"class.std::vector"* %4, i64 %1) #22
  %6 = getelementptr inbounds %"class.std::vector.10", %"class.std::vector.10"* %0, i64 0, i32 0, i32 0, i32 0, i32 1
  store %"class.std::vector"* %5, %"class.std::vector"** %6, align 8, !tbaa !45
  ret void
}

; Function Attrs: minsize nounwind optsize sspstrong uwtable
define linkonce_odr dso_local void @_ZNSt12_Vector_baseISt6vectorIiSaIiEESaIS2_EED2Ev(%"struct.std::_Vector_base.11"* nonnull align 8 dereferenceable(24) %0) unnamed_addr #3 comdat align 2 personality i8* bitcast (i32 (...)* @__gxx_personality_v0 to i8*) {
  %2 = getelementptr inbounds %"struct.std::_Vector_base.11", %"struct.std::_Vector_base.11"* %0, i64 0, i32 0, i32 0, i32 0
  %3 = load %"class.std::vector"*, %"class.std::vector"** %2, align 8, !tbaa !33
  %4 = icmp eq %"class.std::vector"* %3, null
  br i1 %4, label %7, label %5

5:                                                ; preds = %1
  %6 = bitcast %"class.std::vector"* %3 to i8*
  tail call void @_ZdlPv(i8* nonnull %6) #21
  br label %7

7:                                                ; preds = %5, %1
  ret void
}

; Function Attrs: minsize mustprogress optsize sspstrong uwtable
define linkonce_odr dso_local void @_ZNSt12_Vector_baseISt6vectorIiSaIiEESaIS2_EE17_M_create_storageEm(%"struct.std::_Vector_base.11"* nonnull align 8 dereferenceable(24) %0, i64 %1) local_unnamed_addr #15 comdat align 2 {
  %3 = tail call %"class.std::vector"* @_ZNSt12_Vector_baseISt6vectorIiSaIiEESaIS2_EE11_M_allocateEm(%"struct.std::_Vector_base.11"* nonnull align 8 dereferenceable(24) %0, i64 %1) #22
  %4 = getelementptr inbounds %"struct.std::_Vector_base.11", %"struct.std::_Vector_base.11"* %0, i64 0, i32 0, i32 0, i32 0
  store %"class.std::vector"* %3, %"class.std::vector"** %4, align 8, !tbaa !33
  %5 = getelementptr inbounds %"struct.std::_Vector_base.11", %"struct.std::_Vector_base.11"* %0, i64 0, i32 0, i32 0, i32 1
  store %"class.std::vector"* %3, %"class.std::vector"** %5, align 8, !tbaa !45
  %6 = getelementptr inbounds %"class.std::vector", %"class.std::vector"* %3, i64 %1
  %7 = getelementptr inbounds %"struct.std::_Vector_base.11", %"struct.std::_Vector_base.11"* %0, i64 0, i32 0, i32 0, i32 2
  store %"class.std::vector"* %6, %"class.std::vector"** %7, align 8, !tbaa !59
  ret void
}

; Function Attrs: minsize mustprogress optsize sspstrong uwtable
define linkonce_odr dso_local %"class.std::vector"* @_ZNSt12_Vector_baseISt6vectorIiSaIiEESaIS2_EE11_M_allocateEm(%"struct.std::_Vector_base.11"* nonnull align 8 dereferenceable(24) %0, i64 %1) local_unnamed_addr #15 comdat align 2 {
  %3 = icmp eq i64 %1, 0
  br i1 %3, label %7, label %4

4:                                                ; preds = %2
  %5 = bitcast %"struct.std::_Vector_base.11"* %0 to %"class.std::allocator.12"*
  %6 = tail call %"class.std::vector"* @_ZNSt16allocator_traitsISaISt6vectorIiSaIiEEEE8allocateERS3_m(%"class.std::allocator.12"* nonnull align 1 dereferenceable(1) %5, i64 %1) #22
  br label %7

7:                                                ; preds = %2, %4
  %8 = phi %"class.std::vector"* [ %6, %4 ], [ null, %2 ]
  ret %"class.std::vector"* %8
}

; Function Attrs: minsize mustprogress optsize sspstrong uwtable
define linkonce_odr dso_local %"class.std::vector"* @_ZNSt16allocator_traitsISaISt6vectorIiSaIiEEEE8allocateERS3_m(%"class.std::allocator.12"* nonnull align 1 dereferenceable(1) %0, i64 %1) local_unnamed_addr #15 comdat align 2 {
  %3 = bitcast %"class.std::allocator.12"* %0 to %"class.__gnu_cxx::new_allocator.13"*
  %4 = tail call %"class.std::vector"* @_ZN9__gnu_cxx13new_allocatorISt6vectorIiSaIiEEE8allocateEmPKv(%"class.__gnu_cxx::new_allocator.13"* nonnull align 1 dereferenceable(1) %3, i64 %1, i8* null) #22
  ret %"class.std::vector"* %4
}

; Function Attrs: minsize mustprogress optsize sspstrong uwtable
define linkonce_odr dso_local %"class.std::vector"* @_ZN9__gnu_cxx13new_allocatorISt6vectorIiSaIiEEE8allocateEmPKv(%"class.__gnu_cxx::new_allocator.13"* nonnull align 1 dereferenceable(1) %0, i64 %1, i8* %2) local_unnamed_addr #15 comdat align 2 {
  %4 = icmp ugt i64 %1, 384307168202282325
  br i1 %4, label %5, label %9, !prof !51

5:                                                ; preds = %3
  %6 = icmp ugt i64 %1, 768614336404564650
  br i1 %6, label %7, label %8

7:                                                ; preds = %5
  tail call void @_ZSt28__throw_bad_array_new_lengthv() #25
  unreachable

8:                                                ; preds = %5
  tail call void @_ZSt17__throw_bad_allocv() #25
  unreachable

9:                                                ; preds = %3
  %10 = mul nuw nsw i64 %1, 24
  %11 = tail call noalias nonnull i8* @_Znwm(i64 %10) #26
  %12 = bitcast i8* %11 to %"class.std::vector"*
  ret %"class.std::vector"* %12
}

; Function Attrs: minsize optsize sspstrong uwtable
define linkonce_odr dso_local %"class.std::vector"* @_ZNSt27__uninitialized_default_n_1ILb0EE18__uninit_default_nIPSt6vectorIiSaIiEEmEET_S6_T0_(%"class.std::vector"* %0, i64 %1) local_unnamed_addr #5 comdat align 2 personality i8* bitcast (i32 (...)* @__gxx_personality_v0 to i8*) {
  br label %3

3:                                                ; preds = %7, %2
  %4 = phi i64 [ %1, %2 ], [ %9, %7 ]
  %5 = phi %"class.std::vector"* [ %0, %2 ], [ %10, %7 ]
  %6 = icmp eq i64 %4, 0
  br i1 %6, label %11, label %7

7:                                                ; preds = %3
  %8 = bitcast %"class.std::vector"* %5 to i8*
  tail call void @llvm.memset.p0i8.i64(i8* noundef nonnull align 8 dereferenceable(24) %8, i8 0, i64 24, i1 false) #23
  %9 = add i64 %4, -1
  %10 = getelementptr inbounds %"class.std::vector", %"class.std::vector"* %5, i64 1
  br label %3, !llvm.loop !60

11:                                               ; preds = %3
  ret %"class.std::vector"* %5
}

; Function Attrs: argmemonly mustprogress nofree nounwind willreturn writeonly
declare void @llvm.memset.p0i8.i64(i8* nocapture writeonly, i8, i64, i1 immarg) #19

; Function Attrs: minsize optsize sspstrong uwtable
define linkonce_odr dso_local void @_ZNSt12_Destroy_auxILb0EE9__destroyIPSt6vectorIiSaIiEEEEvT_S6_(%"class.std::vector"* %0, %"class.std::vector"* %1) local_unnamed_addr #5 comdat align 2 personality i32 (...)* @__gxx_personality_v0 {
  br label %3

3:                                                ; preds = %6, %2
  %4 = phi %"class.std::vector"* [ %0, %2 ], [ %8, %6 ]
  %5 = icmp eq %"class.std::vector"* %4, %1
  br i1 %5, label %9, label %6

6:                                                ; preds = %3
  %7 = getelementptr inbounds %"class.std::vector", %"class.std::vector"* %4, i64 0, i32 0
  tail call void @_ZNSt12_Vector_baseIiSaIiEED2Ev(%"struct.std::_Vector_base"* nonnull align 8 dereferenceable(24) %7) #21
  %8 = getelementptr inbounds %"class.std::vector", %"class.std::vector"* %4, i64 1
  br label %3, !llvm.loop !61

9:                                                ; preds = %3
  ret void
}

; Function Attrs: minsize optsize sspstrong uwtable
define linkonce_odr dso_local i64 @_ZNSt6vectorIxSaIxEE17_S_check_init_lenEmRKS0_(i64 %0, %"class.std::allocator.22"* nonnull align 1 dereferenceable(1) %1) local_unnamed_addr #5 comdat align 2 {
  %3 = icmp ugt i64 %0, 1152921504606846975
  br i1 %3, label %4, label %5

4:                                                ; preds = %2
  tail call void @_ZSt20__throw_length_errorPKc(i8* getelementptr inbounds ([49 x i8], [49 x i8]* @.str, i64 0, i64 0)) #25
  unreachable

5:                                                ; preds = %2
  ret i64 %0
}

; Function Attrs: minsize mustprogress optsize sspstrong uwtable
define linkonce_odr dso_local void @_ZNSt6vectorIxSaIxEE18_M_fill_initializeEmRKx(%"class.std::vector.20"* nonnull align 8 dereferenceable(24) %0, i64 %1, i64* nonnull align 8 dereferenceable(8) %2) local_unnamed_addr #15 comdat align 2 {
  %4 = getelementptr inbounds %"class.std::vector.20", %"class.std::vector.20"* %0, i64 0, i32 0, i32 0, i32 0, i32 0
  %5 = load i64*, i64** %4, align 8, !tbaa !40
  %6 = tail call i64* @_ZSt10__fill_n_aIPxmxET_S1_T0_RKT1_St26random_access_iterator_tag(i64* %5, i64 %1, i64* nonnull align 8 dereferenceable(8) %2) #22
  %7 = getelementptr inbounds %"class.std::vector.20", %"class.std::vector.20"* %0, i64 0, i32 0, i32 0, i32 0, i32 1
  store i64* %6, i64** %7, align 8, !tbaa !62
  ret void
}

; Function Attrs: minsize nounwind optsize sspstrong uwtable
define linkonce_odr dso_local void @_ZNSt12_Vector_baseIxSaIxEED2Ev(%"struct.std::_Vector_base.21"* nonnull align 8 dereferenceable(24) %0) unnamed_addr #3 comdat align 2 personality i8* bitcast (i32 (...)* @__gxx_personality_v0 to i8*) {
  %2 = getelementptr inbounds %"struct.std::_Vector_base.21", %"struct.std::_Vector_base.21"* %0, i64 0, i32 0, i32 0, i32 0
  %3 = load i64*, i64** %2, align 8, !tbaa !40
  %4 = icmp eq i64* %3, null
  br i1 %4, label %7, label %5

5:                                                ; preds = %1
  %6 = bitcast i64* %3 to i8*
  tail call void @_ZdlPv(i8* nonnull %6) #21
  br label %7

7:                                                ; preds = %5, %1
  ret void
}

; Function Attrs: minsize mustprogress optsize sspstrong uwtable
define linkonce_odr dso_local void @_ZNSt12_Vector_baseIxSaIxEE17_M_create_storageEm(%"struct.std::_Vector_base.21"* nonnull align 8 dereferenceable(24) %0, i64 %1) local_unnamed_addr #15 comdat align 2 {
  %3 = tail call i64* @_ZNSt12_Vector_baseIxSaIxEE11_M_allocateEm(%"struct.std::_Vector_base.21"* nonnull align 8 dereferenceable(24) %0, i64 %1) #22
  %4 = getelementptr inbounds %"struct.std::_Vector_base.21", %"struct.std::_Vector_base.21"* %0, i64 0, i32 0, i32 0, i32 0
  store i64* %3, i64** %4, align 8, !tbaa !40
  %5 = getelementptr inbounds %"struct.std::_Vector_base.21", %"struct.std::_Vector_base.21"* %0, i64 0, i32 0, i32 0, i32 1
  store i64* %3, i64** %5, align 8, !tbaa !62
  %6 = getelementptr inbounds i64, i64* %3, i64 %1
  %7 = getelementptr inbounds %"struct.std::_Vector_base.21", %"struct.std::_Vector_base.21"* %0, i64 0, i32 0, i32 0, i32 2
  store i64* %6, i64** %7, align 8, !tbaa !63
  ret void
}

; Function Attrs: minsize mustprogress optsize sspstrong uwtable
define linkonce_odr dso_local i64* @_ZNSt12_Vector_baseIxSaIxEE11_M_allocateEm(%"struct.std::_Vector_base.21"* nonnull align 8 dereferenceable(24) %0, i64 %1) local_unnamed_addr #15 comdat align 2 {
  %3 = icmp eq i64 %1, 0
  br i1 %3, label %7, label %4

4:                                                ; preds = %2
  %5 = bitcast %"struct.std::_Vector_base.21"* %0 to %"class.std::allocator.22"*
  %6 = tail call i64* @_ZNSt16allocator_traitsISaIxEE8allocateERS0_m(%"class.std::allocator.22"* nonnull align 1 dereferenceable(1) %5, i64 %1) #22
  br label %7

7:                                                ; preds = %2, %4
  %8 = phi i64* [ %6, %4 ], [ null, %2 ]
  ret i64* %8
}

; Function Attrs: minsize mustprogress optsize sspstrong uwtable
define linkonce_odr dso_local i64* @_ZNSt16allocator_traitsISaIxEE8allocateERS0_m(%"class.std::allocator.22"* nonnull align 1 dereferenceable(1) %0, i64 %1) local_unnamed_addr #15 comdat align 2 {
  %3 = bitcast %"class.std::allocator.22"* %0 to %"class.__gnu_cxx::new_allocator.23"*
  %4 = tail call i64* @_ZN9__gnu_cxx13new_allocatorIxE8allocateEmPKv(%"class.__gnu_cxx::new_allocator.23"* nonnull align 1 dereferenceable(1) %3, i64 %1, i8* null) #22
  ret i64* %4
}

; Function Attrs: minsize mustprogress optsize sspstrong uwtable
define linkonce_odr dso_local i64* @_ZN9__gnu_cxx13new_allocatorIxE8allocateEmPKv(%"class.__gnu_cxx::new_allocator.23"* nonnull align 1 dereferenceable(1) %0, i64 %1, i8* %2) local_unnamed_addr #15 comdat align 2 {
  %4 = icmp ugt i64 %1, 1152921504606846975
  br i1 %4, label %5, label %9, !prof !51

5:                                                ; preds = %3
  %6 = icmp ugt i64 %1, 2305843009213693951
  br i1 %6, label %7, label %8

7:                                                ; preds = %5
  tail call void @_ZSt28__throw_bad_array_new_lengthv() #25
  unreachable

8:                                                ; preds = %5
  tail call void @_ZSt17__throw_bad_allocv() #25
  unreachable

9:                                                ; preds = %3
  %10 = shl nuw nsw i64 %1, 3
  %11 = tail call noalias nonnull i8* @_Znwm(i64 %10) #26
  %12 = bitcast i8* %11 to i64*
  ret i64* %12
}

; Function Attrs: inlinehint minsize mustprogress optsize sspstrong uwtable
define linkonce_odr dso_local i64* @_ZSt10__fill_n_aIPxmxET_S1_T0_RKT1_St26random_access_iterator_tag(i64* %0, i64 %1, i64* nonnull align 8 dereferenceable(8) %2) local_unnamed_addr #10 comdat {
  %4 = icmp eq i64 %1, 0
  br i1 %4, label %13, label %5

5:                                                ; preds = %3
  %6 = getelementptr inbounds i64, i64* %0, i64 %1
  %7 = load i64, i64* %2, align 8, !tbaa !36
  br label %8

8:                                                ; preds = %11, %5
  %9 = phi i64* [ %0, %5 ], [ %12, %11 ]
  %10 = icmp eq i64* %9, %6
  br i1 %10, label %13, label %11

11:                                               ; preds = %8
  store i64 %7, i64* %9, align 8, !tbaa !36
  %12 = getelementptr inbounds i64, i64* %9, i64 1
  br label %8, !llvm.loop !64

13:                                               ; preds = %8, %3
  %14 = phi i64* [ %0, %3 ], [ %6, %8 ]
  ret i64* %14
}

; Function Attrs: minsize optsize sspstrong uwtable
define linkonce_odr dso_local i64 @_ZNSt6vectorIS_IxSaIxEESaIS1_EE17_S_check_init_lenEmRKS2_(i64 %0, %"class.std::allocator.17"* nonnull align 1 dereferenceable(1) %1) local_unnamed_addr #5 comdat align 2 {
  %3 = icmp ugt i64 %0, 384307168202282325
  br i1 %3, label %4, label %5

4:                                                ; preds = %2
  tail call void @_ZSt20__throw_length_errorPKc(i8* getelementptr inbounds ([49 x i8], [49 x i8]* @.str, i64 0, i64 0)) #25
  unreachable

5:                                                ; preds = %2
  ret i64 %0
}

; Function Attrs: minsize mustprogress optsize sspstrong uwtable
define linkonce_odr dso_local void @_ZNSt6vectorIS_IxSaIxEESaIS1_EE18_M_fill_initializeEmRKS1_(%"class.std::vector.15"* nonnull align 8 dereferenceable(24) %0, i64 %1, %"class.std::vector.20"* nonnull align 8 dereferenceable(24) %2) local_unnamed_addr #15 comdat align 2 {
  %4 = getelementptr inbounds %"class.std::vector.15", %"class.std::vector.15"* %0, i64 0, i32 0, i32 0, i32 0, i32 0
  %5 = load %"class.std::vector.20"*, %"class.std::vector.20"** %4, align 8, !tbaa !38
  %6 = tail call %"class.std::vector.20"* @_ZNSt22__uninitialized_fill_nILb0EE15__uninit_fill_nIPSt6vectorIxSaIxEEmS4_EET_S6_T0_RKT1_(%"class.std::vector.20"* %5, i64 %1, %"class.std::vector.20"* nonnull align 8 dereferenceable(24) %2) #22
  %7 = getelementptr inbounds %"class.std::vector.15", %"class.std::vector.15"* %0, i64 0, i32 0, i32 0, i32 0, i32 1
  store %"class.std::vector.20"* %6, %"class.std::vector.20"** %7, align 8, !tbaa !44
  ret void
}

; Function Attrs: minsize nounwind optsize sspstrong uwtable
define linkonce_odr dso_local void @_ZNSt12_Vector_baseISt6vectorIxSaIxEESaIS2_EED2Ev(%"struct.std::_Vector_base.16"* nonnull align 8 dereferenceable(24) %0) unnamed_addr #3 comdat align 2 personality i8* bitcast (i32 (...)* @__gxx_personality_v0 to i8*) {
  %2 = getelementptr inbounds %"struct.std::_Vector_base.16", %"struct.std::_Vector_base.16"* %0, i64 0, i32 0, i32 0, i32 0
  %3 = load %"class.std::vector.20"*, %"class.std::vector.20"** %2, align 8, !tbaa !38
  %4 = icmp eq %"class.std::vector.20"* %3, null
  br i1 %4, label %7, label %5

5:                                                ; preds = %1
  %6 = bitcast %"class.std::vector.20"* %3 to i8*
  tail call void @_ZdlPv(i8* nonnull %6) #21
  br label %7

7:                                                ; preds = %5, %1
  ret void
}

; Function Attrs: minsize mustprogress optsize sspstrong uwtable
define linkonce_odr dso_local void @_ZNSt12_Vector_baseISt6vectorIxSaIxEESaIS2_EE17_M_create_storageEm(%"struct.std::_Vector_base.16"* nonnull align 8 dereferenceable(24) %0, i64 %1) local_unnamed_addr #15 comdat align 2 {
  %3 = tail call %"class.std::vector.20"* @_ZNSt12_Vector_baseISt6vectorIxSaIxEESaIS2_EE11_M_allocateEm(%"struct.std::_Vector_base.16"* nonnull align 8 dereferenceable(24) %0, i64 %1) #22
  %4 = getelementptr inbounds %"struct.std::_Vector_base.16", %"struct.std::_Vector_base.16"* %0, i64 0, i32 0, i32 0, i32 0
  store %"class.std::vector.20"* %3, %"class.std::vector.20"** %4, align 8, !tbaa !38
  %5 = getelementptr inbounds %"struct.std::_Vector_base.16", %"struct.std::_Vector_base.16"* %0, i64 0, i32 0, i32 0, i32 1
  store %"class.std::vector.20"* %3, %"class.std::vector.20"** %5, align 8, !tbaa !44
  %6 = getelementptr inbounds %"class.std::vector.20", %"class.std::vector.20"* %3, i64 %1
  %7 = getelementptr inbounds %"struct.std::_Vector_base.16", %"struct.std::_Vector_base.16"* %0, i64 0, i32 0, i32 0, i32 2
  store %"class.std::vector.20"* %6, %"class.std::vector.20"** %7, align 8, !tbaa !65
  ret void
}

; Function Attrs: minsize mustprogress optsize sspstrong uwtable
define linkonce_odr dso_local %"class.std::vector.20"* @_ZNSt12_Vector_baseISt6vectorIxSaIxEESaIS2_EE11_M_allocateEm(%"struct.std::_Vector_base.16"* nonnull align 8 dereferenceable(24) %0, i64 %1) local_unnamed_addr #15 comdat align 2 {
  %3 = icmp eq i64 %1, 0
  br i1 %3, label %7, label %4

4:                                                ; preds = %2
  %5 = bitcast %"struct.std::_Vector_base.16"* %0 to %"class.std::allocator.17"*
  %6 = tail call %"class.std::vector.20"* @_ZNSt16allocator_traitsISaISt6vectorIxSaIxEEEE8allocateERS3_m(%"class.std::allocator.17"* nonnull align 1 dereferenceable(1) %5, i64 %1) #22
  br label %7

7:                                                ; preds = %2, %4
  %8 = phi %"class.std::vector.20"* [ %6, %4 ], [ null, %2 ]
  ret %"class.std::vector.20"* %8
}

; Function Attrs: minsize mustprogress optsize sspstrong uwtable
define linkonce_odr dso_local %"class.std::vector.20"* @_ZNSt16allocator_traitsISaISt6vectorIxSaIxEEEE8allocateERS3_m(%"class.std::allocator.17"* nonnull align 1 dereferenceable(1) %0, i64 %1) local_unnamed_addr #15 comdat align 2 {
  %3 = bitcast %"class.std::allocator.17"* %0 to %"class.__gnu_cxx::new_allocator.18"*
  %4 = tail call %"class.std::vector.20"* @_ZN9__gnu_cxx13new_allocatorISt6vectorIxSaIxEEE8allocateEmPKv(%"class.__gnu_cxx::new_allocator.18"* nonnull align 1 dereferenceable(1) %3, i64 %1, i8* null) #22
  ret %"class.std::vector.20"* %4
}

; Function Attrs: minsize mustprogress optsize sspstrong uwtable
define linkonce_odr dso_local %"class.std::vector.20"* @_ZN9__gnu_cxx13new_allocatorISt6vectorIxSaIxEEE8allocateEmPKv(%"class.__gnu_cxx::new_allocator.18"* nonnull align 1 dereferenceable(1) %0, i64 %1, i8* %2) local_unnamed_addr #15 comdat align 2 {
  %4 = icmp ugt i64 %1, 384307168202282325
  br i1 %4, label %5, label %9, !prof !51

5:                                                ; preds = %3
  %6 = icmp ugt i64 %1, 768614336404564650
  br i1 %6, label %7, label %8

7:                                                ; preds = %5
  tail call void @_ZSt28__throw_bad_array_new_lengthv() #25
  unreachable

8:                                                ; preds = %5
  tail call void @_ZSt17__throw_bad_allocv() #25
  unreachable

9:                                                ; preds = %3
  %10 = mul nuw nsw i64 %1, 24
  %11 = tail call noalias nonnull i8* @_Znwm(i64 %10) #26
  %12 = bitcast i8* %11 to %"class.std::vector.20"*
  ret %"class.std::vector.20"* %12
}

; Function Attrs: minsize mustprogress optsize sspstrong uwtable
define linkonce_odr dso_local %"class.std::vector.20"* @_ZNSt22__uninitialized_fill_nILb0EE15__uninit_fill_nIPSt6vectorIxSaIxEEmS4_EET_S6_T0_RKT1_(%"class.std::vector.20"* %0, i64 %1, %"class.std::vector.20"* nonnull align 8 dereferenceable(24) %2) local_unnamed_addr #15 comdat align 2 personality i8* bitcast (i32 (...)* @__gxx_personality_v0 to i8*) {
  br label %4

4:                                                ; preds = %9, %3
  %5 = phi i64 [ %1, %3 ], [ %10, %9 ]
  %6 = phi %"class.std::vector.20"* [ %0, %3 ], [ %11, %9 ]
  %7 = icmp eq i64 %5, 0
  br i1 %7, label %17, label %8

8:                                                ; preds = %4
  invoke void @_ZNSt6vectorIxSaIxEEC2ERKS1_(%"class.std::vector.20"* nonnull align 8 dereferenceable(24) %6, %"class.std::vector.20"* nonnull align 8 dereferenceable(24) %2) #22
          to label %9 unwind label %12

9:                                                ; preds = %8
  %10 = add i64 %5, -1
  %11 = getelementptr inbounds %"class.std::vector.20", %"class.std::vector.20"* %6, i64 1
  br label %4, !llvm.loop !66

12:                                               ; preds = %8
  %13 = landingpad { i8*, i32 }
          catch i8* null
  %14 = extractvalue { i8*, i32 } %13, 0
  %15 = tail call i8* @__cxa_begin_catch(i8* %14) #23
  invoke void @_ZNSt12_Destroy_auxILb0EE9__destroyIPSt6vectorIxSaIxEEEEvT_S6_(%"class.std::vector.20"* %0, %"class.std::vector.20"* %6) #22
          to label %16 unwind label %18

16:                                               ; preds = %12
  invoke void @__cxa_rethrow() #27
          to label %24 unwind label %18

17:                                               ; preds = %4
  ret %"class.std::vector.20"* %6

18:                                               ; preds = %12, %16
  %19 = landingpad { i8*, i32 }
          cleanup
  invoke void @__cxa_end_catch()
          to label %20 unwind label %21

20:                                               ; preds = %18
  resume { i8*, i32 } %19

21:                                               ; preds = %18
  %22 = landingpad { i8*, i32 }
          catch i8* null
  %23 = extractvalue { i8*, i32 } %22, 0
  tail call void @__clang_call_terminate(i8* %23) #24
  unreachable

24:                                               ; preds = %16
  unreachable
}

; Function Attrs: minsize optsize sspstrong uwtable
define linkonce_odr dso_local void @_ZNSt6vectorIxSaIxEEC2ERKS1_(%"class.std::vector.20"* nonnull align 8 dereferenceable(24) %0, %"class.std::vector.20"* nonnull align 8 dereferenceable(24) %1) unnamed_addr #5 comdat align 2 personality i8* bitcast (i32 (...)* @__gxx_personality_v0 to i8*) {
  %3 = getelementptr inbounds %"class.std::vector.20", %"class.std::vector.20"* %0, i64 0, i32 0
  %4 = getelementptr inbounds %"class.std::vector.20", %"class.std::vector.20"* %1, i64 0, i32 0, i32 0, i32 0, i32 1
  %5 = load i64*, i64** %4, align 8, !tbaa !62
  %6 = getelementptr inbounds %"class.std::vector.20", %"class.std::vector.20"* %1, i64 0, i32 0, i32 0, i32 0, i32 0
  %7 = load i64*, i64** %6, align 8, !tbaa !40
  %8 = ptrtoint i64* %5 to i64
  %9 = ptrtoint i64* %7 to i64
  %10 = sub i64 %8, %9
  %11 = ashr exact i64 %10, 3
  %12 = bitcast %"class.std::vector.20"* %0 to i8*
  tail call void @llvm.memset.p0i8.i64(i8* noundef nonnull align 8 dereferenceable(24) %12, i8 0, i64 24, i1 false) #23
  tail call void @_ZNSt12_Vector_baseIxSaIxEE17_M_create_storageEm(%"struct.std::_Vector_base.21"* nonnull align 8 dereferenceable(24) %3, i64 %11) #22
  %13 = load i64*, i64** %6, align 8, !tbaa !32
  %14 = load i64*, i64** %4, align 8, !tbaa !32
  %15 = getelementptr inbounds %"class.std::vector.20", %"class.std::vector.20"* %0, i64 0, i32 0, i32 0, i32 0, i32 0
  %16 = load i64*, i64** %15, align 8, !tbaa !40
  %17 = ptrtoint i64* %14 to i64
  %18 = ptrtoint i64* %13 to i64
  %19 = sub i64 %17, %18
  %20 = icmp eq i64 %19, 0
  br i1 %20, label %24, label %21

21:                                               ; preds = %2
  %22 = bitcast i64* %16 to i8*
  %23 = bitcast i64* %13 to i8*
  tail call void @llvm.memmove.p0i8.p0i8.i64(i8* align 8 %22, i8* align 8 %23, i64 %19, i1 false) #23
  br label %24

24:                                               ; preds = %21, %2
  %25 = ashr exact i64 %19, 3
  %26 = getelementptr inbounds i64, i64* %16, i64 %25
  %27 = getelementptr inbounds %"class.std::vector.20", %"class.std::vector.20"* %0, i64 0, i32 0, i32 0, i32 0, i32 1
  store i64* %26, i64** %27, align 8, !tbaa !62
  ret void
}

; Function Attrs: minsize optsize sspstrong uwtable
define linkonce_odr dso_local void @_ZNSt12_Destroy_auxILb0EE9__destroyIPSt6vectorIxSaIxEEEEvT_S6_(%"class.std::vector.20"* %0, %"class.std::vector.20"* %1) local_unnamed_addr #5 comdat align 2 personality i32 (...)* @__gxx_personality_v0 {
  br label %3

3:                                                ; preds = %6, %2
  %4 = phi %"class.std::vector.20"* [ %0, %2 ], [ %8, %6 ]
  %5 = icmp eq %"class.std::vector.20"* %4, %1
  br i1 %5, label %9, label %6

6:                                                ; preds = %3
  %7 = getelementptr inbounds %"class.std::vector.20", %"class.std::vector.20"* %4, i64 0, i32 0
  tail call void @_ZNSt12_Vector_baseIxSaIxEED2Ev(%"struct.std::_Vector_base.21"* nonnull align 8 dereferenceable(24) %7) #21
  %8 = getelementptr inbounds %"class.std::vector.20", %"class.std::vector.20"* %4, i64 1
  br label %3, !llvm.loop !67

9:                                                ; preds = %3
  ret void
}

; Function Attrs: minsize optsize
declare nonnull align 8 dereferenceable(8) %"class.std::basic_ostream"* @_ZNSo9_M_insertIxEERSoT_(%"class.std::basic_ostream"* nonnull align 8 dereferenceable(8), i64) local_unnamed_addr #0

; Function Attrs: minsize optsize sspstrong uwtable
define internal void @_GLOBAL__sub_I_s537365422.cpp() #5 section ".text.startup" personality i32 (...)* @__gxx_personality_v0 {
  %1 = alloca i32, align 4
  %2 = alloca %"class.std::allocator", align 1
  tail call void @_ZNSt8ios_base4InitC1Ev(%"class.std::ios_base::Init"* nonnull align 1 dereferenceable(1) @_ZStL8__ioinit) #22
  %3 = tail call i32 @__cxa_atexit(void (i8*)* bitcast (void (%"class.std::ios_base::Init"*)* @_ZNSt8ios_base4InitD1Ev to void (i8*)*), i8* getelementptr inbounds (%"class.std::ios_base::Init", %"class.std::ios_base::Init"* @_ZStL8__ioinit, i64 0, i32 0), i8* nonnull @__dso_handle) #23
  tail call void @llvm.memset.p0i8.i64(i8* noundef nonnull align 8 dereferenceable(24) bitcast (%"class.std::vector"* @m to i8*), i8 0, i64 24, i1 false) #23
  %4 = tail call i32 @__cxa_atexit(void (i8*)* bitcast (void (%"class.std::vector"*)* @_ZNSt6vectorIiSaIiEED2Ev to void (i8*)*), i8* bitcast (%"class.std::vector"* @m to i8*), i8* nonnull @__dso_handle) #23
  %5 = bitcast i32* %1 to i8*
  call void @llvm.lifetime.start.p0i8(i64 4, i8* nonnull %5) #23
  store i32 2, i32* %1, align 4, !tbaa !11
  %6 = getelementptr inbounds %"class.std::allocator", %"class.std::allocator"* %2, i64 0, i32 0
  call void @llvm.lifetime.start.p0i8(i64 1, i8* nonnull %6) #23
  call void @_ZNSt6vectorIiSaIiEEC2EmRKiRKS0_(%"class.std::vector"* nonnull align 8 dereferenceable(24) @primes, i64 1, i32* nonnull align 4 dereferenceable(4) %1, %"class.std::allocator"* nonnull align 1 dereferenceable(1) %2) #22
  call void @llvm.lifetime.end.p0i8(i64 1, i8* nonnull %6) #23
  call void @llvm.lifetime.end.p0i8(i64 4, i8* nonnull %5) #23
  %7 = call i32 @__cxa_atexit(void (i8*)* bitcast (void (%"class.std::vector"*)* @_ZNSt6vectorIiSaIiEED2Ev to void (i8*)*), i8* bitcast (%"class.std::vector"* @primes to i8*), i8* nonnull @__dso_handle) #23
  call void @llvm.memset.p0i8.i64(i8* noundef nonnull align 8 dereferenceable(24) bitcast (%"class.std::vector.0"* @nk to i8*), i8 0, i64 24, i1 false) #23
  %8 = call i32 @__cxa_atexit(void (i8*)* bitcast (void (%"class.std::vector.0"*)* @_ZNSt6vectorIS_IeSaIeEESaIS1_EED2Ev to void (i8*)*), i8* bitcast (%"class.std::vector.0"* @nk to i8*), i8* nonnull @__dso_handle) #23
  ret void
}

; Function Attrs: nofree nosync nounwind readnone speculatable willreturn
declare i32 @llvm.smax.i32(i32, i32) #20

attributes #0 = { minsize optsize "frame-pointer"="none" "no-trapping-math"="true" "stack-protector-buffer-size"="8" "target-cpu"="x86-64" "target-features"="+cx8,+fxsr,+mmx,+sse,+sse2,+x87" "tune-cpu"="generic" }
attributes #1 = { minsize nounwind optsize "frame-pointer"="none" "no-trapping-math"="true" "stack-protector-buffer-size"="8" "target-cpu"="x86-64" "target-features"="+cx8,+fxsr,+mmx,+sse,+sse2,+x87" "tune-cpu"="generic" }
attributes #2 = { nofree nounwind }
attributes #3 = { minsize nounwind optsize sspstrong uwtable "frame-pointer"="none" "min-legal-vector-width"="0" "no-trapping-math"="true" "stack-protector-buffer-size"="8" "target-cpu"="x86-64" "target-features"="+cx8,+fxsr,+mmx,+sse,+sse2,+x87" "tune-cpu"="generic" }
attributes #4 = { argmemonly mustprogress nofree nosync nounwind willreturn }
attributes #5 = { minsize optsize sspstrong uwtable "frame-pointer"="none" "min-legal-vector-width"="0" "no-trapping-math"="true" "stack-protector-buffer-size"="8" "target-cpu"="x86-64" "target-features"="+cx8,+fxsr,+mmx,+sse,+sse2,+x87" "tune-cpu"="generic" }
attributes #6 = { minsize mustprogress nofree nosync nounwind optsize readnone sspstrong uwtable willreturn "frame-pointer"="none" "min-legal-vector-width"="0" "no-trapping-math"="true" "stack-protector-buffer-size"="8" "target-cpu"="x86-64" "target-features"="+cx8,+fxsr,+mmx,+sse,+sse2,+x87" "tune-cpu"="generic" }
attributes #7 = { minsize mustprogress nofree norecurse nosync nounwind optsize readnone sspstrong uwtable willreturn "frame-pointer"="none" "min-legal-vector-width"="0" "no-trapping-math"="true" "stack-protector-buffer-size"="8" "target-cpu"="x86-64" "target-features"="+cx8,+fxsr,+mmx,+sse,+sse2,+x87" "tune-cpu"="generic" }
attributes #8 = { mustprogress nofree nosync nounwind readnone speculatable willreturn }
attributes #9 = { minsize nofree nosync nounwind optsize readonly sspstrong uwtable "frame-pointer"="none" "min-legal-vector-width"="0" "no-trapping-math"="true" "stack-protector-buffer-size"="8" "target-cpu"="x86-64" "target-features"="+cx8,+fxsr,+mmx,+sse,+sse2,+x87" "tune-cpu"="generic" }
attributes #10 = { inlinehint minsize mustprogress optsize sspstrong uwtable "frame-pointer"="none" "min-legal-vector-width"="0" "no-trapping-math"="true" "stack-protector-buffer-size"="8" "target-cpu"="x86-64" "target-features"="+cx8,+fxsr,+mmx,+sse,+sse2,+x87" "tune-cpu"="generic" }
attributes #11 = { inlinehint minsize nofree nosync nounwind optsize sspstrong uwtable "frame-pointer"="none" "min-legal-vector-width"="0" "no-trapping-math"="true" "stack-protector-buffer-size"="8" "target-cpu"="x86-64" "target-features"="+cx8,+fxsr,+mmx,+sse,+sse2,+x87" "tune-cpu"="generic" }
attributes #12 = { minsize mustprogress norecurse optsize sspstrong uwtable "frame-pointer"="none" "min-legal-vector-width"="0" "no-trapping-math"="true" "stack-protector-buffer-size"="8" "target-cpu"="x86-64" "target-features"="+cx8,+fxsr,+mmx,+sse,+sse2,+x87" "tune-cpu"="generic" }
attributes #13 = { noinline noreturn nounwind }
attributes #14 = { minsize nobuiltin nounwind optsize "frame-pointer"="none" "no-trapping-math"="true" "stack-protector-buffer-size"="8" "target-cpu"="x86-64" "target-features"="+cx8,+fxsr,+mmx,+sse,+sse2,+x87" "tune-cpu"="generic" }
attributes #15 = { minsize mustprogress optsize sspstrong uwtable "frame-pointer"="none" "min-legal-vector-width"="0" "no-trapping-math"="true" "stack-protector-buffer-size"="8" "target-cpu"="x86-64" "target-features"="+cx8,+fxsr,+mmx,+sse,+sse2,+x87" "tune-cpu"="generic" }
attributes #16 = { minsize noreturn optsize "frame-pointer"="none" "no-trapping-math"="true" "stack-protector-buffer-size"="8" "target-cpu"="x86-64" "target-features"="+cx8,+fxsr,+mmx,+sse,+sse2,+x87" "tune-cpu"="generic" }
attributes #17 = { minsize nobuiltin optsize allocsize(0) "frame-pointer"="none" "no-trapping-math"="true" "stack-protector-buffer-size"="8" "target-cpu"="x86-64" "target-features"="+cx8,+fxsr,+mmx,+sse,+sse2,+x87" "tune-cpu"="generic" }
attributes #18 = { argmemonly mustprogress nofree nounwind willreturn }
attributes #19 = { argmemonly mustprogress nofree nounwind willreturn writeonly }
attributes #20 = { nofree nosync nounwind readnone speculatable willreturn }
attributes #21 = { minsize nounwind optsize }
attributes #22 = { minsize optsize }
attributes #23 = { nounwind }
attributes #24 = { noreturn nounwind }
attributes #25 = { minsize noreturn optsize }
attributes #26 = { minsize optsize allocsize(0) }
attributes #27 = { noreturn }

!llvm.module.flags = !{!0, !1, !2, !3}
!llvm.ident = !{!4}

!0 = !{i32 1, !"wchar_size", i32 4}
!1 = !{i32 7, !"PIC Level", i32 2}
!2 = !{i32 7, !"PIE Level", i32 2}
!3 = !{i32 7, !"uwtable", i32 1}
!4 = !{!"clang version 13.0.0"}
!5 = !{!6, !7, i64 0}
!6 = !{!"_ZTSNSt12_Vector_baseISt6vectorIeSaIeEESaIS2_EE17_Vector_impl_dataE", !7, i64 0, !7, i64 8, !7, i64 16}
!7 = !{!"any pointer", !8, i64 0}
!8 = !{!"omnipotent char", !9, i64 0}
!9 = !{!"Simple C++ TBAA"}
!10 = !{!6, !7, i64 8}
!11 = !{!12, !12, i64 0}
!12 = !{!"int", !8, i64 0}
!13 = !{!14, !7, i64 0}
!14 = !{!"_ZTSNSt12_Vector_baseIiSaIiEE17_Vector_impl_dataE", !7, i64 0, !7, i64 8, !7, i64 16}
!15 = distinct !{!15, !16}
!16 = !{!"llvm.loop.mustprogress"}
!17 = distinct !{!17, !16}
!18 = distinct !{!18, !16}
!19 = distinct !{!19, !16}
!20 = !{!14, !7, i64 8}
!21 = !{!14, !7, i64 16}
!22 = !{!23, !23, i64 0}
!23 = !{!"long double", !8, i64 0}
!24 = !{!25, !7, i64 0}
!25 = !{!"_ZTSNSt12_Vector_baseIeSaIeEE17_Vector_impl_dataE", !7, i64 0, !7, i64 8, !7, i64 16}
!26 = distinct !{!26, !16}
!27 = distinct !{!27, !16}
!28 = distinct !{!28, !16}
!29 = !{i64 0, i64 65}
!30 = distinct !{!30, !16}
!31 = distinct !{!31, !16}
!32 = !{!7, !7, i64 0}
!33 = !{!34, !7, i64 0}
!34 = !{!"_ZTSNSt12_Vector_baseISt6vectorIiSaIiEESaIS2_EE17_Vector_impl_dataE", !7, i64 0, !7, i64 8, !7, i64 16}
!35 = distinct !{!35, !16}
!36 = !{!37, !37, i64 0}
!37 = !{!"long long", !8, i64 0}
!38 = !{!39, !7, i64 0}
!39 = !{!"_ZTSNSt12_Vector_baseISt6vectorIxSaIxEESaIS2_EE17_Vector_impl_dataE", !7, i64 0, !7, i64 8, !7, i64 16}
!40 = !{!41, !7, i64 0}
!41 = !{!"_ZTSNSt12_Vector_baseIxSaIxEE17_Vector_impl_dataE", !7, i64 0, !7, i64 8, !7, i64 16}
!42 = !{!43, !7, i64 0}
!43 = !{!"_ZTSZ5solvevE3$_0", !7, i64 0, !7, i64 8}
!44 = !{!39, !7, i64 8}
!45 = !{!34, !7, i64 8}
!46 = !{!47, !47, i64 0}
!47 = !{!"vtable pointer", !9, i64 0}
!48 = !{!49, !7, i64 216}
!49 = !{!"_ZTSSt9basic_iosIcSt11char_traitsIcEE", !7, i64 216, !8, i64 224, !50, i64 225, !7, i64 232, !7, i64 240, !7, i64 248, !7, i64 256}
!50 = !{!"bool", !8, i64 0}
!51 = !{!"branch_weights", i32 1, i32 2000}
!52 = distinct !{!52, !16}
!53 = distinct !{!53, !16}
!54 = !{!25, !7, i64 8}
!55 = !{!25, !7, i64 16}
!56 = distinct !{!56, !16}
!57 = !{!6, !7, i64 16}
!58 = distinct !{!58, !16}
!59 = !{!34, !7, i64 16}
!60 = distinct !{!60, !16}
!61 = distinct !{!61, !16}
!62 = !{!41, !7, i64 8}
!63 = !{!41, !7, i64 16}
!64 = distinct !{!64, !16}
!65 = !{!39, !7, i64 16}
!66 = distinct !{!66, !16}
!67 = distinct !{!67, !16}
