; ModuleID = '/home/ml4code/host/experimento_malware/spec_cpu_2006_range/bytecodes_llvm_4/dealII_fe_nedelec.ll'
source_filename = "fe_nedelec.cc"
target datalayout = "e-m:e-i64:64-f80:128-n8:16:32:64-S128"
target triple = "x86_64-unknown-linux-gnu"

%class.FE_Nedelec = type { %class.FiniteElement.base, i32 }
%class.FiniteElement.base = type { %class.FiniteElementBase.base }
%class.FiniteElementBase.base = type <{ %class.Subscriptor, %class.FiniteElementData, [4 x i8], [8 x %class.FullMatrix], [8 x %class.FullMatrix], %class.FullMatrix, %"class.std::vector", %"class.std::vector", %"class.std::vector.0", %"class.std::vector.0", %"class.std::vector", %"class.std::vector.7", %"class.std::vector.11", %"class.std::vector.16", %"class.std::vector.23", %"class.std::vector.28", i8 }>
%class.Subscriptor = type { i32 (...)**, i32, %"class.std::type_info"* }
%"class.std::type_info" = type { i32 (...)**, i8* }
%class.FiniteElementData = type { i32, i32, i32, i32, i32, i32, i32, i32, i32, i32, i32, i32, i32 }
%class.FullMatrix = type { %class.Table.base, [4 x i8] }
%class.Table.base = type { %class.TableBase.base }
%class.TableBase.base = type <{ %class.Subscriptor, double*, i32, %class.TableIndices }>
%class.TableIndices = type { %class.TableIndicesBase }
%class.TableIndicesBase = type { [2 x i32] }
%"class.std::vector.0" = type { %"struct.std::_Vector_base.1" }
%"struct.std::_Vector_base.1" = type { %"struct.std::_Vector_base<std::pair<std::pair<unsigned int, unsigned int>, unsigned int>, std::allocator<std::pair<std::pair<unsigned int, unsigned int>, unsigned int> > >::_Vector_impl" }
%"struct.std::_Vector_base<std::pair<std::pair<unsigned int, unsigned int>, unsigned int>, std::allocator<std::pair<std::pair<unsigned int, unsigned int>, unsigned int> > >::_Vector_impl" = type { %"struct.std::_Vector_base<std::pair<std::pair<unsigned int, unsigned int>, unsigned int>, std::allocator<std::pair<std::pair<unsigned int, unsigned int>, unsigned int> > >::_Vector_impl_data" }
%"struct.std::_Vector_base<std::pair<std::pair<unsigned int, unsigned int>, unsigned int>, std::allocator<std::pair<std::pair<unsigned int, unsigned int>, unsigned int> > >::_Vector_impl_data" = type { %"struct.std::pair.5"*, %"struct.std::pair.5"*, %"struct.std::pair.5"* }
%"struct.std::pair.5" = type { %"struct.std::pair", i32 }
%"struct.std::pair" = type { i32, i32 }
%"class.std::vector" = type { %"struct.std::_Vector_base" }
%"struct.std::_Vector_base" = type { %"struct.std::_Vector_base<std::pair<unsigned int, unsigned int>, std::allocator<std::pair<unsigned int, unsigned int> > >::_Vector_impl" }
%"struct.std::_Vector_base<std::pair<unsigned int, unsigned int>, std::allocator<std::pair<unsigned int, unsigned int> > >::_Vector_impl" = type { %"struct.std::_Vector_base<std::pair<unsigned int, unsigned int>, std::allocator<std::pair<unsigned int, unsigned int> > >::_Vector_impl_data" }
%"struct.std::_Vector_base<std::pair<unsigned int, unsigned int>, std::allocator<std::pair<unsigned int, unsigned int> > >::_Vector_impl_data" = type { %"struct.std::pair"*, %"struct.std::pair"*, %"struct.std::pair"* }
%"class.std::vector.7" = type { %"struct.std::_Bvector_base" }
%"struct.std::_Bvector_base" = type { %"struct.std::_Bvector_base<std::allocator<bool> >::_Bvector_impl" }
%"struct.std::_Bvector_base<std::allocator<bool> >::_Bvector_impl" = type { %"struct.std::_Bvector_base<std::allocator<bool> >::_Bvector_impl_data" }
%"struct.std::_Bvector_base<std::allocator<bool> >::_Bvector_impl_data" = type { %"struct.std::_Bit_iterator", %"struct.std::_Bit_iterator", i64* }
%"struct.std::_Bit_iterator" = type { %"struct.std::_Bit_iterator_base.base", [4 x i8] }
%"struct.std::_Bit_iterator_base.base" = type <{ i64*, i32 }>
%"class.std::vector.11" = type { %"struct.std::_Vector_base.12" }
%"struct.std::_Vector_base.12" = type { %"struct.std::_Vector_base<Point<3>, std::allocator<Point<3> > >::_Vector_impl" }
%"struct.std::_Vector_base<Point<3>, std::allocator<Point<3> > >::_Vector_impl" = type { %"struct.std::_Vector_base<Point<3>, std::allocator<Point<3> > >::_Vector_impl_data" }
%"struct.std::_Vector_base<Point<3>, std::allocator<Point<3> > >::_Vector_impl_data" = type { %class.Point*, %class.Point*, %class.Point* }
%class.Point = type { %class.Tensor }
%class.Tensor = type { [3 x double] }
%"class.std::vector.16" = type { %"struct.std::_Vector_base.17" }
%"struct.std::_Vector_base.17" = type { %"struct.std::_Vector_base<Point<2>, std::allocator<Point<2> > >::_Vector_impl" }
%"struct.std::_Vector_base<Point<2>, std::allocator<Point<2> > >::_Vector_impl" = type { %"struct.std::_Vector_base<Point<2>, std::allocator<Point<2> > >::_Vector_impl_data" }
%"struct.std::_Vector_base<Point<2>, std::allocator<Point<2> > >::_Vector_impl_data" = type { %class.Point.21*, %class.Point.21*, %class.Point.21* }
%class.Point.21 = type { %class.Tensor.22 }
%class.Tensor.22 = type { [2 x double] }
%"class.std::vector.23" = type { %"struct.std::_Vector_base.24" }
%"struct.std::_Vector_base.24" = type { %"struct.std::_Vector_base<std::vector<bool, std::allocator<bool> >, std::allocator<std::vector<bool, std::allocator<bool> > > >::_Vector_impl" }
%"struct.std::_Vector_base<std::vector<bool, std::allocator<bool> >, std::allocator<std::vector<bool, std::allocator<bool> > > >::_Vector_impl" = type { %"struct.std::_Vector_base<std::vector<bool, std::allocator<bool> >, std::allocator<std::vector<bool, std::allocator<bool> > > >::_Vector_impl_data" }
%"struct.std::_Vector_base<std::vector<bool, std::allocator<bool> >, std::allocator<std::vector<bool, std::allocator<bool> > > >::_Vector_impl_data" = type { %"class.std::vector.7"*, %"class.std::vector.7"*, %"class.std::vector.7"* }
%"class.std::vector.28" = type { %"struct.std::_Vector_base.29" }
%"struct.std::_Vector_base.29" = type { %"struct.std::_Vector_base<unsigned int, std::allocator<unsigned int> >::_Vector_impl" }
%"struct.std::_Vector_base<unsigned int, std::allocator<unsigned int> >::_Vector_impl" = type { %"struct.std::_Vector_base<unsigned int, std::allocator<unsigned int> >::_Vector_impl_data" }
%"struct.std::_Vector_base<unsigned int, std::allocator<unsigned int> >::_Vector_impl_data" = type { i32*, i32*, i32* }
%class.Tensor.33 = type { [3 x %class.Tensor] }
%"class.std::allocator.34" = type { i8 }
%"class.std::allocator.25" = type { i8 }
%class.FiniteElement = type { %class.FiniteElementBase.base, [7 x i8] }
%class.FiniteElementBase = type <{ %class.Subscriptor, %class.FiniteElementData, [4 x i8], [8 x %class.FullMatrix], [8 x %class.FullMatrix], %class.FullMatrix, %"class.std::vector", %"class.std::vector", %"class.std::vector.0", %"class.std::vector.0", %"class.std::vector", %"class.std::vector.7", %"class.std::vector.11", %"class.std::vector.16", %"class.std::vector.23", %"class.std::vector.28", i8, [7 x i8] }>
%"class.std::allocator.30" = type { i8 }
%"class.__gnu_cxx::new_allocator.35" = type { i8 }
%"class.__gnu_cxx::new_allocator.26" = type { i8 }
%class.TableBase = type <{ %class.Subscriptor, double*, i32, %class.TableIndices, [4 x i8] }>
%class.Table = type { %class.TableBase.base, [4 x i8] }
%"class.std::allocator" = type { i8 }
%"class.std::__cxx11::basic_string" = type { %"struct.std::__cxx11::basic_string<char, std::char_traits<char>, std::allocator<char> >::_Alloc_hider", i64, %union.anon }
%"struct.std::__cxx11::basic_string<char, std::char_traits<char>, std::allocator<char> >::_Alloc_hider" = type { i8* }
%union.anon = type { i64, [8 x i8] }
%"class.std::__cxx11::basic_ostringstream" = type { %"class.std::basic_ostream.base", %"class.std::__cxx11::basic_stringbuf", %"class.std::basic_ios" }
%"class.std::basic_ostream.base" = type { i32 (...)** }
%"class.std::__cxx11::basic_stringbuf" = type { %"class.std::basic_streambuf", i32, %"class.std::__cxx11::basic_string" }
%"class.std::basic_streambuf" = type { i32 (...)**, i8*, i8*, i8*, i8*, i8*, i8*, %"class.std::locale" }
%"class.std::locale" = type { %"class.std::locale::_Impl"* }
%"class.std::locale::_Impl" = type { i32, %"class.std::locale::facet"**, i64, %"class.std::locale::facet"**, i8** }
%"class.std::locale::facet" = type <{ i32 (...)**, i32, [4 x i8] }>
%"class.std::basic_ios" = type { %"class.std::ios_base", %"class.std::basic_ostream"*, i8, i8, %"class.std::basic_streambuf"*, %"class.std::ctype"*, %"class.std::num_put"*, %"class.std::num_get"* }
%"class.std::ios_base" = type { i32 (...)**, i64, i64, i32, i32, i32, %"struct.std::ios_base::_Callback_list"*, %"struct.std::ios_base::_Words", [8 x %"struct.std::ios_base::_Words"], i32, %"struct.std::ios_base::_Words"*, %"class.std::locale" }
%"struct.std::ios_base::_Callback_list" = type { %"struct.std::ios_base::_Callback_list"*, void (i32, %"class.std::ios_base"*, i32)*, i32, i32 }
%"struct.std::ios_base::_Words" = type { i8*, i64 }
%"class.std::basic_ostream" = type { i32 (...)**, %"class.std::basic_ios" }
%"class.std::ctype" = type <{ %"class.std::locale::facet.base", [4 x i8], %struct.__locale_struct*, i8, [7 x i8], i32*, i32*, i16*, i8, [256 x i8], [256 x i8], i8, [6 x i8] }>
%"class.std::locale::facet.base" = type <{ i32 (...)**, i32 }>
%struct.__locale_struct = type { [13 x %struct.__locale_data*], i16*, i32*, i32*, [13 x i8*] }
%struct.__locale_data = type opaque
%"class.std::num_put" = type { %"class.std::locale::facet.base", [4 x i8] }
%"class.std::num_get" = type { %"class.std::locale::facet.base", [4 x i8] }
%"class.Mapping<3>::InternalDataBase" = type <{ %class.Subscriptor, i32, i32, i32, i8, [3 x i8] }>
%class.Mapping = type { %class.Subscriptor }
%class.Quadrature = type { %class.Subscriptor, i32, %"class.std::vector.11", %"class.std::vector.40" }
%"class.std::vector.40" = type { %"struct.std::_Vector_base.41" }
%"struct.std::_Vector_base.41" = type { %"struct.std::_Vector_base<double, std::allocator<double> >::_Vector_impl" }
%"struct.std::_Vector_base<double, std::allocator<double> >::_Vector_impl" = type { %"struct.std::_Vector_base<double, std::allocator<double> >::_Vector_impl_data" }
%"struct.std::_Vector_base<double, std::allocator<double> >::_Vector_impl_data" = type { double*, double*, double* }
%"class.FE_Nedelec<3>::InternalData" = type { %"class.FiniteElementBase<3>::InternalDataBase", %class.Table.50, %class.Table.54 }
%"class.FiniteElementBase<3>::InternalDataBase" = type { %"class.Mapping<3>::InternalDataBase.base", %"class.std::vector.45" }
%"class.Mapping<3>::InternalDataBase.base" = type <{ %class.Subscriptor, i32, i32, i32, i8 }>
%"class.std::vector.45" = type { %"struct.std::_Vector_base.46" }
%"struct.std::_Vector_base.46" = type { %"struct.std::_Vector_base<FEValues<3> *, std::allocator<FEValues<3> *> >::_Vector_impl" }
%"struct.std::_Vector_base<FEValues<3> *, std::allocator<FEValues<3> *> >::_Vector_impl" = type { %"struct.std::_Vector_base<FEValues<3> *, std::allocator<FEValues<3> *> >::_Vector_impl_data" }
%"struct.std::_Vector_base<FEValues<3> *, std::allocator<FEValues<3> *> >::_Vector_impl_data" = type { %class.FEValues**, %class.FEValues**, %class.FEValues** }
%class.FEValues = type { %class.FEValuesBase, %class.Quadrature }
%class.FEValuesBase = type { %class.FEValuesData.base, i32, i32, %class.TriaIterator, %class.SmartPointer.127, %class.SmartPointer.118, %class.SmartPointer.128, %class.SmartPointer.128 }
%class.FEValuesData.base = type <{ %class.Table, %class.Table.50, %class.Table.54, %"class.std::vector.40", %"class.std::vector.11", %"class.std::vector.11", %"class.std::vector.59", %"class.std::vector.28", i32 }>
%"class.std::vector.59" = type { %"struct.std::_Vector_base.60" }
%"struct.std::_Vector_base.60" = type { %"struct.std::_Vector_base<Tensor<1, 3>, std::allocator<Tensor<1, 3> > >::_Vector_impl" }
%"struct.std::_Vector_base<Tensor<1, 3>, std::allocator<Tensor<1, 3> > >::_Vector_impl" = type { %"struct.std::_Vector_base<Tensor<1, 3>, std::allocator<Tensor<1, 3> > >::_Vector_impl_data" }
%"struct.std::_Vector_base<Tensor<1, 3>, std::allocator<Tensor<1, 3> > >::_Vector_impl_data" = type { %class.Tensor*, %class.Tensor*, %class.Tensor* }
%class.TriaIterator = type { %class.TriaRawIterator }
%class.TriaRawIterator = type { %class.DoFCellAccessor }
%class.DoFCellAccessor = type { %class.DoFObjectAccessor }
%class.DoFObjectAccessor = type { %class.DoFAccessor, %class.CellAccessor }
%class.DoFAccessor = type { %class.DoFHandler* }
%class.DoFHandler = type { %class.Subscriptor, %class.SmartPointer, %class.SmartPointer.118, %"class.std::vector.119", i32, %"class.std::vector.28" }
%class.SmartPointer = type { %class.Triangulation* }
%class.Triangulation = type { %class.Subscriptor, %"class.std::vector.72", %"class.std::vector.11", %"class.std::vector.7", [255 x %class.Boundary*], i32, %struct.TriaNumberCache }
%"class.std::vector.72" = type { %"struct.std::_Vector_base.73" }
%"struct.std::_Vector_base.73" = type { %"struct.std::_Vector_base<TriangulationLevel<3> *, std::allocator<TriangulationLevel<3> *> >::_Vector_impl" }
%"struct.std::_Vector_base<TriangulationLevel<3> *, std::allocator<TriangulationLevel<3> *> >::_Vector_impl" = type { %"struct.std::_Vector_base<TriangulationLevel<3> *, std::allocator<TriangulationLevel<3> *> >::_Vector_impl_data" }
%"struct.std::_Vector_base<TriangulationLevel<3> *, std::allocator<TriangulationLevel<3> *> >::_Vector_impl_data" = type { %class.TriangulationLevel**, %class.TriangulationLevel**, %class.TriangulationLevel** }
%class.TriangulationLevel = type { %class.TriangulationLevel.77, %"struct.TriangulationLevel<3>::HexesData" }
%class.TriangulationLevel.77 = type { %class.TriangulationLevel.78, %"struct.TriangulationLevel<2>::QuadsData" }
%class.TriangulationLevel.78 = type { %class.TriangulationLevel.79, %"struct.TriangulationLevel<1>::LinesData" }
%class.TriangulationLevel.79 = type { %"class.std::vector.7", %"class.std::vector.7", %"class.std::vector.80", %"class.std::vector.28" }
%"class.std::vector.80" = type { %"struct.std::_Vector_base.81" }
%"struct.std::_Vector_base.81" = type { %"struct.std::_Vector_base<std::pair<int, int>, std::allocator<std::pair<int, int> > >::_Vector_impl" }
%"struct.std::_Vector_base<std::pair<int, int>, std::allocator<std::pair<int, int> > >::_Vector_impl" = type { %"struct.std::_Vector_base<std::pair<int, int>, std::allocator<std::pair<int, int> > >::_Vector_impl_data" }
%"struct.std::_Vector_base<std::pair<int, int>, std::allocator<std::pair<int, int> > >::_Vector_impl_data" = type { %"struct.std::pair.85"*, %"struct.std::pair.85"*, %"struct.std::pair.85"* }
%"struct.std::pair.85" = type opaque
%"struct.TriangulationLevel<1>::LinesData" = type { %"class.std::vector.86", %"class.std::vector.91", %"class.std::vector.7", %"class.std::vector.7", %"class.std::vector.96", %"class.std::vector.101" }
%"class.std::vector.86" = type { %"struct.std::_Vector_base.87" }
%"struct.std::_Vector_base.87" = type { %"struct.std::_Vector_base<Line, std::allocator<Line> >::_Vector_impl" }
%"struct.std::_Vector_base<Line, std::allocator<Line> >::_Vector_impl" = type { %"struct.std::_Vector_base<Line, std::allocator<Line> >::_Vector_impl_data" }
%"struct.std::_Vector_base<Line, std::allocator<Line> >::_Vector_impl_data" = type { %class.Line*, %class.Line*, %class.Line* }
%class.Line = type { [2 x i32] }
%"class.std::vector.91" = type { %"struct.std::_Vector_base.92" }
%"struct.std::_Vector_base.92" = type { %"struct.std::_Vector_base<int, std::allocator<int> >::_Vector_impl" }
%"struct.std::_Vector_base<int, std::allocator<int> >::_Vector_impl" = type { %"struct.std::_Vector_base<int, std::allocator<int> >::_Vector_impl_data" }
%"struct.std::_Vector_base<int, std::allocator<int> >::_Vector_impl_data" = type { i32*, i32*, i32* }
%"class.std::vector.96" = type { %"struct.std::_Vector_base.97" }
%"struct.std::_Vector_base.97" = type { %"struct.std::_Vector_base<unsigned char, std::allocator<unsigned char> >::_Vector_impl" }
%"struct.std::_Vector_base<unsigned char, std::allocator<unsigned char> >::_Vector_impl" = type { %"struct.std::_Vector_base<unsigned char, std::allocator<unsigned char> >::_Vector_impl_data" }
%"struct.std::_Vector_base<unsigned char, std::allocator<unsigned char> >::_Vector_impl_data" = type { i8*, i8*, i8* }
%"class.std::vector.101" = type { %"struct.std::_Vector_base.102" }
%"struct.std::_Vector_base.102" = type { %"struct.std::_Vector_base<void *, std::allocator<void *> >::_Vector_impl" }
%"struct.std::_Vector_base<void *, std::allocator<void *> >::_Vector_impl" = type { %"struct.std::_Vector_base<void *, std::allocator<void *> >::_Vector_impl_data" }
%"struct.std::_Vector_base<void *, std::allocator<void *> >::_Vector_impl_data" = type { i8**, i8**, i8** }
%"struct.TriangulationLevel<2>::QuadsData" = type { %"class.std::vector.106", %"class.std::vector.91", %"class.std::vector.7", %"class.std::vector.7", %"class.std::vector.96", %"class.std::vector.101" }
%"class.std::vector.106" = type { %"struct.std::_Vector_base.107" }
%"struct.std::_Vector_base.107" = type { %"struct.std::_Vector_base<Quad, std::allocator<Quad> >::_Vector_impl" }
%"struct.std::_Vector_base<Quad, std::allocator<Quad> >::_Vector_impl" = type { %"struct.std::_Vector_base<Quad, std::allocator<Quad> >::_Vector_impl_data" }
%"struct.std::_Vector_base<Quad, std::allocator<Quad> >::_Vector_impl_data" = type { %class.Quad*, %class.Quad*, %class.Quad* }
%class.Quad = type { [4 x i32] }
%"struct.TriangulationLevel<3>::HexesData" = type { %"class.std::vector.111", %"class.std::vector.91", %"class.std::vector.7", %"class.std::vector.7", %"class.std::vector.96", %"class.std::vector.101", %"class.std::vector.7" }
%"class.std::vector.111" = type { %"struct.std::_Vector_base.112" }
%"struct.std::_Vector_base.112" = type { %"struct.std::_Vector_base<Hexahedron, std::allocator<Hexahedron> >::_Vector_impl" }
%"struct.std::_Vector_base<Hexahedron, std::allocator<Hexahedron> >::_Vector_impl" = type { %"struct.std::_Vector_base<Hexahedron, std::allocator<Hexahedron> >::_Vector_impl_data" }
%"struct.std::_Vector_base<Hexahedron, std::allocator<Hexahedron> >::_Vector_impl_data" = type { %class.Hexahedron*, %class.Hexahedron*, %class.Hexahedron* }
%class.Hexahedron = type { [6 x i32] }
%class.Boundary = type opaque
%struct.TriaNumberCache = type { %struct.TriaNumberCache.116, i32, %"class.std::vector.28", i32, %"class.std::vector.28" }
%struct.TriaNumberCache.116 = type { %struct.TriaNumberCache.117, i32, %"class.std::vector.28", i32, %"class.std::vector.28" }
%struct.TriaNumberCache.117 = type { i32, %"class.std::vector.28", i32, %"class.std::vector.28" }
%"class.std::vector.119" = type { %"struct.std::_Vector_base.120" }
%"struct.std::_Vector_base.120" = type { %"struct.std::_Vector_base<DoFLevel<3> *, std::allocator<DoFLevel<3> *> >::_Vector_impl" }
%"struct.std::_Vector_base<DoFLevel<3> *, std::allocator<DoFLevel<3> *> >::_Vector_impl" = type { %"struct.std::_Vector_base<DoFLevel<3> *, std::allocator<DoFLevel<3> *> >::_Vector_impl_data" }
%"struct.std::_Vector_base<DoFLevel<3> *, std::allocator<DoFLevel<3> *> >::_Vector_impl_data" = type { %class.DoFLevel**, %class.DoFLevel**, %class.DoFLevel** }
%class.DoFLevel = type { %class.DoFLevel.124, %"class.std::vector.28" }
%class.DoFLevel.124 = type { %class.DoFLevel.125, %"class.std::vector.28" }
%class.DoFLevel.125 = type { %"class.std::vector.28" }
%class.CellAccessor = type { %class.TriaObjectAccessor }
%class.TriaObjectAccessor = type { %class.TriaAccessor }
%class.TriaAccessor = type { i32, i32, %class.Triangulation* }
%class.SmartPointer.127 = type { %class.Mapping* }
%class.SmartPointer.118 = type { %class.FiniteElement* }
%class.SmartPointer.128 = type { %"class.Mapping<3>::InternalDataBase"* }
%class.Table.50 = type { %class.TableBase.base.52, [4 x i8] }
%class.TableBase.base.52 = type <{ %class.Subscriptor, %class.Tensor*, i32, %class.TableIndices }>
%class.Table.54 = type { %class.TableBase.base.56, [4 x i8] }
%class.TableBase.base.56 = type <{ %class.Subscriptor, %class.Tensor.33*, i32, %class.TableIndices }>
%"class.internal::TableBaseAccessors::Accessor" = type { %class.TableBase.51*, %class.Tensor* }
%class.TableBase.51 = type <{ %class.Subscriptor, %class.Tensor*, i32, %class.TableIndices, [4 x i8] }>
%"class.internal::TableBaseAccessors::Accessor.58" = type { %class.TableBase.55*, %class.Tensor.33* }
%class.TableBase.55 = type <{ %class.Subscriptor, %class.Tensor.33*, i32, %class.TableIndices, [4 x i8] }>
%class.FEValuesData = type <{ %class.Table, %class.Table.50, %class.Table.54, %"class.std::vector.40", %"class.std::vector.11", %"class.std::vector.11", %"class.std::vector.59", %"class.std::vector.28", i32, [4 x i8] }>
%"class.std::allocator.61" = type { i8 }
%"class.__gnu_cxx::__normal_iterator" = type { %class.Tensor* }
%"class.internal::TableBaseAccessors::Accessor.64" = type { %class.TableBase*, double* }
%"class.std::vector.65" = type { %"struct.std::_Vector_base.66" }
%"struct.std::_Vector_base.66" = type { %"struct.std::_Vector_base<Tensor<2, 3>, std::allocator<Tensor<2, 3> > >::_Vector_impl" }
%"struct.std::_Vector_base<Tensor<2, 3>, std::allocator<Tensor<2, 3> > >::_Vector_impl" = type { %"struct.std::_Vector_base<Tensor<2, 3>, std::allocator<Tensor<2, 3> > >::_Vector_impl_data" }
%"struct.std::_Vector_base<Tensor<2, 3>, std::allocator<Tensor<2, 3> > >::_Vector_impl_data" = type { %class.Tensor.33*, %class.Tensor.33*, %class.Tensor.33* }
%"class.std::allocator.67" = type { i8 }
%"class.__gnu_cxx::__normal_iterator.70" = type { %class.Tensor.33* }
%"class.QProjector<3>::DataSetDescriptor" = type { i32 }
%"class.__gnu_cxx::new_allocator.62" = type { i8 }
%"class.__gnu_cxx::new_allocator.68" = type { i8 }
%class.Quadrature.126 = type { %class.Subscriptor, i32, %"class.std::vector.16", %"class.std::vector.40" }
%"struct.std::_Bit_reference" = type { i64*, i64 }
%"class.__gnu_cxx::new_allocator.31" = type { i8 }
%"class.__gnu_cxx::__normal_iterator.129" = type { %class.Point* }
%"class.__gnu_cxx::__normal_iterator.130" = type { %class.Point.21* }
%"class.FE_Nedelec<3>::ExcNotUsefulInThisDimension" = type { %class.ExceptionBase }
%class.ExceptionBase = type { %"class.std::exception", i8*, i32, i8*, i8*, i8* }
%"class.std::exception" = type { i32 (...)** }
%"class.std::allocator.47" = type { i8 }
%"class.__gnu_cxx::new_allocator.48" = type { i8 }
%"class.std::allocator.8" = type { i8 }
%"struct.std::_Bit_iterator_base" = type <{ i64*, i32, [4 x i8] }>
%"class.__gnu_cxx::new_allocator.9" = type { i8 }
%"struct.std::iterator" = type { i8 }
%"struct.std::_Bit_const_iterator" = type { %"struct.std::_Bit_iterator_base.base", [4 x i8] }
%"class.__gnu_cxx::new_allocator" = type { i8 }
%"class.std::allocator.13" = type { i8 }
%"class.__gnu_cxx::new_allocator.14" = type { i8 }
%"class.std::allocator.18" = type { i8 }
%"class.__gnu_cxx::new_allocator.19" = type { i8 }

$_ZNK5PointILi3EEclEj = comdat any

$_ZN6TensorILi1ELi3EEC2ERA3_Kd = comdat any

$_ZN6TensorILi1ELi3EEC2Eb = comdat any

$_ZN6TensorILi2ELi3EEC2ERA3_A3_Kd = comdat any

$_ZN6TensorILi2ELi3EEC2Ev = comdat any

$_ZN10FE_NedelecILi3EEC5Ej = comdat any

$_ZN10FE_NedelecILi3EE14get_dpo_vectorEj = comdat any

$_ZNSaIbEC2Ev = comdat any

$_ZNSt6vectorIbSaIbEEC2EmRKbRKS0_ = comdat any

$_ZNSaISt6vectorIbSaIbEEEC2Ev = comdat any

$_ZNSt6vectorIS_IbSaIbEESaIS1_EEC2EmRKS1_RKS2_ = comdat any

$_ZNSt6vectorIS_IbSaIbEESaIS1_EED2Ev = comdat any

$__clang_call_terminate = comdat any

$_ZNSaISt6vectorIbSaIbEEED2Ev = comdat any

$_ZNSt6vectorIbSaIbEED2Ev = comdat any

$_ZNSaIbED2Ev = comdat any

$_ZNSt6vectorIjSaIjEED2Ev = comdat any

$_ZN10FE_NedelecILi3EE22initialize_constraintsEv = comdat any

$_ZN10FE_NedelecILi3EE20initialize_embeddingEv = comdat any

$_ZN10FE_NedelecILi3EE22initialize_restrictionEv = comdat any

$_ZN10FE_NedelecILi3EE30initialize_unit_support_pointsEv = comdat any

$_ZN10FE_NedelecILi3EE35initialize_unit_face_support_pointsEv = comdat any

$_ZNSt6vectorISt4pairIjjESaIS1_EEC2Ev = comdat any

$_ZNSt6vectorISt4pairIjjESaIS1_EE4swapERS3_ = comdat any

$_ZNSt6vectorISt4pairIjjESaIS1_EED2Ev = comdat any

$_ZNK10FE_NedelecILi3EE8get_nameB5cxx11Ev = comdat any

$_ZNK10FE_NedelecILi3EE10get_degreeEv = comdat any

$_ZNK10FE_NedelecILi3EE15n_base_elementsEv = comdat any

$_ZNK10FE_NedelecILi3EE12base_elementEj = comdat any

$_ZNK10FE_NedelecILi3EE20element_multiplicityEj = comdat any

$_ZNK10FE_NedelecILi3EE19has_support_on_faceEjj = comdat any

$_ZNK10FE_NedelecILi3EE18memory_consumptionEv = comdat any

$_ZNK10FE_NedelecILi3EE5cloneEv = comdat any

$_ZNK10FE_NedelecILi3EE8get_dataE11UpdateFlagsRK7MappingILi3EERK10QuadratureILi3EE = comdat any

$_ZN10FE_NedelecILi3EE12InternalDataC2Ev = comdat any

$_Zor11UpdateFlagsS_ = comdat any

$_Zan11UpdateFlagsS_ = comdat any

$_ZN5TableILi2E6TensorILi1ELi3EEE6reinitEjj = comdat any

$_ZN5TableILi2E6TensorILi2ELi3EEE6reinitEjj = comdat any

$_ZN5TableILi2E6TensorILi1ELi3EEEixEj = comdat any

$_ZNK8internal18TableBaseAccessors8AccessorILi2E6TensorILi1ELi3EELb0ELj1EEixEj = comdat any

$_ZN6TensorILi1ELi3EEixEj = comdat any

$_ZN5TableILi2E6TensorILi2ELi3EEEixEj = comdat any

$_ZNK8internal18TableBaseAccessors8AccessorILi2E6TensorILi2ELi3EELb0ELj1EEixEj = comdat any

$_ZN6TensorILi2ELi3EEixEj = comdat any

$_ZN6TensorILi1ELi3EEaSERKS0_ = comdat any

$_ZNK10FE_NedelecILi3EE14fill_fe_valuesERK7MappingILi3EERK12TriaIteratorILi3E15DoFCellAccessorILi3EEERK10QuadratureILi3EERNS2_16InternalDataBaseESG_R12FEValuesDataILi3EE = comdat any

$_ZNK7MappingILi3EE16InternalDataBase20current_update_flagsEv = comdat any

$_ZNSaI6TensorILi1ELi3EEEC2Ev = comdat any

$_ZNSt6vectorI6TensorILi1ELi3EESaIS1_EEC2EmRKS1_RKS2_ = comdat any

$_ZNSaI6TensorILi1ELi3EEED2Ev = comdat any

$_ZNSt6vectorI6TensorILi1ELi3EESaIS1_EE5beginEv = comdat any

$_ZNK9__gnu_cxx17__normal_iteratorIP6TensorILi1ELi3EESt6vectorIS2_SaIS2_EEEdeEv = comdat any

$_ZNKSt6vectorI6TensorILi1ELi3EESaIS1_EE4sizeEv = comdat any

$_ZNK8internal18TableBaseAccessors8AccessorILi2E6TensorILi1ELi3EELb0ELj1EE5beginEv = comdat any

$_ZNSt6vectorI6TensorILi1ELi3EESaIS1_EEixEm = comdat any

$_ZN5TableILi2EdEixEj = comdat any

$_ZNK8internal18TableBaseAccessors8AccessorILi2EdLb0ELj1EEixEj = comdat any

$_ZNSt6vectorI6TensorILi1ELi3EESaIS1_EED2Ev = comdat any

$_ZNSaI6TensorILi2ELi3EEEC2Ev = comdat any

$_ZNSt6vectorI6TensorILi2ELi3EESaIS1_EEC2EmRKS1_RKS2_ = comdat any

$_ZNSaI6TensorILi2ELi3EEED2Ev = comdat any

$_ZNSt6vectorI6TensorILi2ELi3EESaIS1_EE5beginEv = comdat any

$_ZNK9__gnu_cxx17__normal_iteratorIP6TensorILi2ELi3EESt6vectorIS2_SaIS2_EEEdeEv = comdat any

$_ZNKSt6vectorI6TensorILi2ELi3EESaIS1_EE4sizeEv = comdat any

$_ZNK8internal18TableBaseAccessors8AccessorILi2E6TensorILi2ELi3EELb0ELj1EE5beginEv = comdat any

$_Z9transposeRK6TensorILi2ELi3EE = comdat any

$_ZNSt6vectorI6TensorILi2ELi3EESaIS1_EEixEm = comdat any

$_ZN6TensorILi2ELi3EEaSERKS0_ = comdat any

$_ZNSt6vectorI6TensorILi2ELi3EESaIS1_EED2Ev = comdat any

$_ZNK10FE_NedelecILi3EE19fill_fe_face_valuesERK7MappingILi3EERK12TriaIteratorILi3E15DoFCellAccessorILi3EEEjRK10QuadratureILi2EERNS2_16InternalDataBaseESG_R12FEValuesDataILi3EE = comdat any

$_ZNK15TriaRawIteratorILi3E15DoFCellAccessorILi3EEEptEv = comdat any

$_ZNK18TriaObjectAccessorILi3ELi3EE16face_orientationEj = comdat any

$_ZNK10FE_NedelecILi3EE22fill_fe_subface_valuesERK7MappingILi3EERK12TriaIteratorILi3E15DoFCellAccessorILi3EEEjjRK10QuadratureILi2EERNS2_16InternalDataBaseESG_R12FEValuesDataILi3EE = comdat any

$_ZNSaIjEC2Ev = comdat any

$_ZNSt6vectorIjSaIjEEC2EmRKjRKS0_ = comdat any

$_ZNSaIjED2Ev = comdat any

$_ZNSt6vectorIjSaIjEEixEm = comdat any

$_ZN9TableBaseILi2EdE6reinitERK12TableIndicesILi2EE = comdat any

$_ZN10FullMatrixIdE4fillIdEEvPKT_ = comdat any

$_ZN5TableILi2EdE6reinitEjj = comdat any

$_ZN5TableILi2EdEclEjj = comdat any

$_ZNSt6vectorI5PointILi3EESaIS1_EE6resizeEmS1_ = comdat any

$_ZN5PointILi3EEC2Ev = comdat any

$_ZN12GeometryInfoILi3EE25vertices_adjacent_to_lineEjj = comdat any

$_ZN12GeometryInfoILi3EE16unit_cell_vertexEj = comdat any

$_ZNK5PointILi3EEplERK6TensorILi1ELi3EE = comdat any

$_ZNK5PointILi3EEdvEd = comdat any

$_ZNSt6vectorI5PointILi3EESaIS1_EEixEm = comdat any

$_ZN5PointILi3EEaSERKS0_ = comdat any

$_ZNSt6vectorI5PointILi2EESaIS1_EE6resizeEmS1_ = comdat any

$_ZN5PointILi2EEC2Ev = comdat any

$_ZN12GeometryInfoILi2EE25vertices_adjacent_to_lineEjj = comdat any

$_ZN12GeometryInfoILi2EE16unit_cell_vertexEj = comdat any

$_ZNK5PointILi2EEplERK6TensorILi1ELi2EE = comdat any

$_ZNK5PointILi2EEdvEd = comdat any

$_ZNSt6vectorI5PointILi2EESaIS1_EEixEm = comdat any

$_ZN5PointILi2EEaSERKS0_ = comdat any

$_ZNK10FE_NedelecILi3EE11update_onceE11UpdateFlags = comdat any

$_ZNK10FE_NedelecILi3EE11update_eachE11UpdateFlags = comdat any

$_ZoRR11UpdateFlagsS_ = comdat any

$_ZN10FE_NedelecILi3EED2Ev = comdat any

$_ZN10FE_NedelecILi3EED0Ev = comdat any

$_ZN10FE_NedelecILi3EE27ExcNotUsefulInThisDimensionD2Ev = comdat any

$_ZN10FE_NedelecILi3EE27ExcNotUsefulInThisDimensionD0Ev = comdat any

$_ZN17FiniteElementBaseILi3EE16InternalDataBaseC2Ev = comdat any

$_ZN5TableILi2E6TensorILi1ELi3EEEC2Ev = comdat any

$_ZN5TableILi2E6TensorILi2ELi3EEEC2Ev = comdat any

$_ZN5TableILi2E6TensorILi1ELi3EEED2Ev = comdat any

$_ZN10FE_NedelecILi3EE12InternalDataD2Ev = comdat any

$_ZN10FE_NedelecILi3EE12InternalDataD0Ev = comdat any

$_ZN7MappingILi3EE16InternalDataBase16clear_first_cellEv = comdat any

$_ZNSt6vectorIP8FEValuesILi3EESaIS2_EEC2Ev = comdat any

$_ZNSt12_Vector_baseIP8FEValuesILi3EESaIS2_EEC2Ev = comdat any

$_ZNSt12_Vector_baseIP8FEValuesILi3EESaIS2_EE12_Vector_implC2Ev = comdat any

$_ZNSaIP8FEValuesILi3EEEC2Ev = comdat any

$_ZNSt12_Vector_baseIP8FEValuesILi3EESaIS2_EE17_Vector_impl_dataC2Ev = comdat any

$_ZNSaIP8FEValuesILi3EEED2Ev = comdat any

$_ZN9__gnu_cxx13new_allocatorIP8FEValuesILi3EEEC2Ev = comdat any

$_ZN9__gnu_cxx13new_allocatorIP8FEValuesILi3EEED2Ev = comdat any

$_ZN9TableBaseILi2E6TensorILi1ELi3EEEC2Ev = comdat any

$_ZN5TableILi2E6TensorILi1ELi3EEED0Ev = comdat any

$_ZN12TableIndicesILi2EEC2Ev = comdat any

$_ZN9TableBaseILi2E6TensorILi1ELi3EEED2Ev = comdat any

$_ZN9TableBaseILi2E6TensorILi1ELi3EEED0Ev = comdat any

$_ZN9TableBaseILi2E6TensorILi2ELi3EEEC2Ev = comdat any

$_ZN5TableILi2E6TensorILi2ELi3EEED2Ev = comdat any

$_ZN5TableILi2E6TensorILi2ELi3EEED0Ev = comdat any

$_ZN9TableBaseILi2E6TensorILi2ELi3EEED2Ev = comdat any

$_ZN9TableBaseILi2E6TensorILi2ELi3EEED0Ev = comdat any

$_ZNK6TensorILi2ELi3EEixEj = comdat any

$_ZNK6TensorILi1ELi3EEixEj = comdat any

$_ZN5PointILi3EEC2Eddd = comdat any

$_ZN5PointILi3EEC2ERKS0_ = comdat any

$_ZN5PointILi2EEC2Edd = comdat any

$_ZN5PointILi2EEC2ERKS0_ = comdat any

$_ZN6TensorILi1ELi2EEC2Eb = comdat any

$_ZN6TensorILi1ELi2EEC2ERKS0_ = comdat any

$_ZN6TensorILi1ELi2EEaSERKS0_ = comdat any

$_ZN9__gnu_cxx13new_allocatorIjEC2Ev = comdat any

$_ZN9__gnu_cxx13new_allocatorIjED2Ev = comdat any

$_ZN9__gnu_cxx13new_allocatorIbEC2Ev = comdat any

$_ZN9__gnu_cxx13new_allocatorIbED2Ev = comdat any

$_ZSt8_DestroyIPjjEvT_S1_RSaIT0_E = comdat any

$_ZNSt12_Vector_baseIjSaIjEE19_M_get_Tp_allocatorEv = comdat any

$_ZNSt12_Vector_baseIjSaIjEED2Ev = comdat any

$_ZSt8_DestroyIPjEvT_S1_ = comdat any

$_ZNSt12_Destroy_auxILb1EE9__destroyIPjEEvT_S3_ = comdat any

$_ZNSt12_Vector_baseIjSaIjEE13_M_deallocateEPjm = comdat any

$_ZNSt12_Vector_baseIjSaIjEE12_Vector_implD2Ev = comdat any

$_ZN9__gnu_cxx14__alloc_traitsISaIjEjE10deallocateERS1_Pjm = comdat any

$_ZN9__gnu_cxx13new_allocatorIjE10deallocateEPjm = comdat any

$_ZNSt13_Bvector_baseISaIbEEC2ERKS0_ = comdat any

$_ZNSt6vectorIbSaIbEE13_M_initializeEm = comdat any

$_ZNSt6vectorIbSaIbEE19_M_initialize_valueEb = comdat any

$_ZNSt13_Bvector_baseISaIbEED2Ev = comdat any

$_ZNSaImEC2IbEERKSaIT_E = comdat any

$_ZNSt13_Bvector_baseISaIbEE13_Bvector_implC2ERKSaImE = comdat any

$_ZNSaImED2Ev = comdat any

$_ZN9__gnu_cxx13new_allocatorImEC2Ev = comdat any

$_ZNSaImEC2ERKS_ = comdat any

$_ZNSt13_Bvector_baseISaIbEE18_Bvector_impl_dataC2Ev = comdat any

$_ZN9__gnu_cxx13new_allocatorImEC2ERKS1_ = comdat any

$_ZNSt13_Bit_iteratorC2Ev = comdat any

$_ZNSt18_Bit_iterator_baseC2EPmj = comdat any

$_ZN9__gnu_cxx13new_allocatorImED2Ev = comdat any

$_ZNSt13_Bvector_baseISaIbEE11_M_allocateEm = comdat any

$_ZNSt13_Bvector_baseISaIbEE8_S_nwordEm = comdat any

$_ZSt11__addressofImEPT_RS0_ = comdat any

$_ZNSt13_Bit_iteratorC2EPmj = comdat any

$_ZNKSt13_Bit_iteratorplEl = comdat any

$_ZN9__gnu_cxx14__alloc_traitsISaImEmE8allocateERS1_m = comdat any

$_ZN9__gnu_cxx13new_allocatorImE8allocateEmPKv = comdat any

$_ZNK9__gnu_cxx13new_allocatorImE8max_sizeEv = comdat any

$_ZNSt13_Bit_iteratorpLEl = comdat any

$_ZNSt18_Bit_iterator_base7_M_incrEl = comdat any

$_ZNKSt13_Bvector_baseISaIbEE13_Bvector_impl11_M_end_addrEv = comdat any

$_ZNSt13_Bvector_baseISaIbEE13_M_deallocateEv = comdat any

$_ZNSt13_Bvector_baseISaIbEE13_Bvector_implD2Ev = comdat any

$_ZN9__gnu_cxx14__alloc_traitsISaImEmE10deallocateERS1_Pmm = comdat any

$_ZNSt13_Bvector_baseISaIbEE18_Bvector_impl_data8_M_resetEv = comdat any

$_ZN9__gnu_cxx13new_allocatorImE10deallocateEPmm = comdat any

$_ZN9__gnu_cxx13new_allocatorISt6vectorIbSaIbEEEC2Ev = comdat any

$_ZN9__gnu_cxx13new_allocatorISt6vectorIbSaIbEEED2Ev = comdat any

$_ZNSt6vectorIS_IbSaIbEESaIS1_EE17_S_check_init_lenEmRKS2_ = comdat any

$_ZNSt12_Vector_baseISt6vectorIbSaIbEESaIS2_EEC2EmRKS3_ = comdat any

$_ZNSt6vectorIS_IbSaIbEESaIS1_EE18_M_fill_initializeEmRKS1_ = comdat any

$_ZNSt12_Vector_baseISt6vectorIbSaIbEESaIS2_EED2Ev = comdat any

$_ZNSt6vectorIS_IbSaIbEESaIS1_EE11_S_max_sizeERKS2_ = comdat any

$_ZNSaISt6vectorIbSaIbEEEC2ERKS2_ = comdat any

$_ZN9__gnu_cxx14__alloc_traitsISaISt6vectorIbSaIbEEES3_E8max_sizeERKS4_ = comdat any

$_ZSt3minImERKT_S2_S2_ = comdat any

$_ZNK9__gnu_cxx13new_allocatorISt6vectorIbSaIbEEE8max_sizeEv = comdat any

$_ZN9__gnu_cxx13new_allocatorISt6vectorIbSaIbEEEC2ERKS4_ = comdat any

$_ZNSt12_Vector_baseISt6vectorIbSaIbEESaIS2_EE12_Vector_implC2ERKS3_ = comdat any

$_ZNSt12_Vector_baseISt6vectorIbSaIbEESaIS2_EE17_M_create_storageEm = comdat any

$_ZNSt12_Vector_baseISt6vectorIbSaIbEESaIS2_EE12_Vector_implD2Ev = comdat any

$_ZNSt12_Vector_baseISt6vectorIbSaIbEESaIS2_EE17_Vector_impl_dataC2Ev = comdat any

$_ZNSt12_Vector_baseISt6vectorIbSaIbEESaIS2_EE11_M_allocateEm = comdat any

$_ZN9__gnu_cxx14__alloc_traitsISaISt6vectorIbSaIbEEES3_E8allocateERS4_m = comdat any

$_ZN9__gnu_cxx13new_allocatorISt6vectorIbSaIbEEE8allocateEmPKv = comdat any

$_ZSt24__uninitialized_fill_n_aIPSt6vectorIbSaIbEEmS2_S2_ET_S4_T0_RKT1_RSaIT2_E = comdat any

$_ZNSt12_Vector_baseISt6vectorIbSaIbEESaIS2_EE19_M_get_Tp_allocatorEv = comdat any

$_ZSt20uninitialized_fill_nIPSt6vectorIbSaIbEEmS2_ET_S4_T0_RKT1_ = comdat any

$_ZNSt22__uninitialized_fill_nILb0EE15__uninit_fill_nIPSt6vectorIbSaIbEEmS4_EET_S6_T0_RKT1_ = comdat any

$_ZSt10_ConstructISt6vectorIbSaIbEES2_EvPT_RKT0_ = comdat any

$_ZSt11__addressofISt6vectorIbSaIbEEEPT_RS3_ = comdat any

$_ZSt8_DestroyIPSt6vectorIbSaIbEEEvT_S4_ = comdat any

$_ZNSt6vectorIbSaIbEEC2ERKS1_ = comdat any

$_ZN9__gnu_cxx14__alloc_traitsISaImEmE17_S_select_on_copyERKS1_ = comdat any

$_ZNKSt13_Bvector_baseISaIbEE20_M_get_Bit_allocatorEv = comdat any

$_ZNSaIbEC2ImEERKSaIT_E = comdat any

$_ZNKSt6vectorIbSaIbEE4sizeEv = comdat any

$_ZNSt6vectorIbSaIbEE15_M_copy_alignedESt19_Bit_const_iteratorS2_St13_Bit_iterator = comdat any

$_ZNKSt6vectorIbSaIbEE5beginEv = comdat any

$_ZNKSt6vectorIbSaIbEE3endEv = comdat any

$_ZStmiRKSt18_Bit_iterator_baseS1_ = comdat any

$_ZSt4copyIPmS0_ET0_T_S2_S1_ = comdat any

$_ZSt4copyISt19_Bit_const_iteratorSt13_Bit_iteratorET0_T_S3_S2_ = comdat any

$_ZNSt19_Bit_const_iteratorC2EPmj = comdat any

$_ZSt14__copy_move_a2ILb0EPmS0_ET1_T0_S2_S1_ = comdat any

$_ZSt12__miter_baseIPmET_S1_ = comdat any

$_ZSt12__niter_wrapIPmET_RKS1_S1_ = comdat any

$_ZSt13__copy_move_aILb0EPmS0_ET1_T0_S2_S1_ = comdat any

$_ZSt12__niter_baseIPmET_S1_ = comdat any

$_ZNSt11__copy_moveILb0ELb1ESt26random_access_iterator_tagE8__copy_mImEEPT_PKS3_S6_S4_ = comdat any

$_ZSt14__copy_move_a2ILb0ESt19_Bit_const_iteratorSt13_Bit_iteratorET1_T0_S3_S2_ = comdat any

$_ZSt12__miter_baseISt19_Bit_const_iteratorET_S1_ = comdat any

$_ZSt12__niter_wrapISt13_Bit_iteratorET_RKS1_S1_ = comdat any

$_ZSt13__copy_move_aILb0ESt19_Bit_const_iteratorSt13_Bit_iteratorET1_T0_S3_S2_ = comdat any

$_ZSt12__niter_baseISt19_Bit_const_iteratorET_S1_ = comdat any

$_ZSt12__niter_baseISt13_Bit_iteratorET_S1_ = comdat any

$_ZNSt11__copy_moveILb0ELb0ESt26random_access_iterator_tagE8__copy_mISt19_Bit_const_iteratorSt13_Bit_iteratorEET0_T_S6_S5_ = comdat any

$_ZNKSt19_Bit_const_iteratordeEv = comdat any

$_ZNKSt13_Bit_iteratordeEv = comdat any

$_ZNSt14_Bit_referenceaSEb = comdat any

$_ZNSt19_Bit_const_iteratorppEv = comdat any

$_ZNSt13_Bit_iteratorppEv = comdat any

$_ZNSt14_Bit_referenceC2EPmm = comdat any

$_ZNKSt14_Bit_referencecvbEv = comdat any

$_ZNSt18_Bit_iterator_base10_M_bump_upEv = comdat any

$_ZNSt19_Bit_const_iteratorC2ERKSt13_Bit_iterator = comdat any

$_ZNSt12_Destroy_auxILb0EE9__destroyIPSt6vectorIbSaIbEEEEvT_S6_ = comdat any

$_ZSt8_DestroyISt6vectorIbSaIbEEEvPT_ = comdat any

$_ZNSt12_Vector_baseISt6vectorIbSaIbEESaIS2_EE13_M_deallocateEPS2_m = comdat any

$_ZN9__gnu_cxx14__alloc_traitsISaISt6vectorIbSaIbEEES3_E10deallocateERS4_PS3_m = comdat any

$_ZN9__gnu_cxx13new_allocatorISt6vectorIbSaIbEEE10deallocateEPS3_m = comdat any

$_ZSt8_DestroyIPSt6vectorIbSaIbEES2_EvT_S4_RSaIT0_E = comdat any

$_ZNSt12_Vector_baseISt4pairIjjESaIS1_EEC2Ev = comdat any

$_ZNSt12_Vector_baseISt4pairIjjESaIS1_EE12_Vector_implC2Ev = comdat any

$_ZNSaISt4pairIjjEEC2Ev = comdat any

$_ZNSaISt4pairIjjEED2Ev = comdat any

$_ZN9__gnu_cxx13new_allocatorISt4pairIjjEEC2Ev = comdat any

$_ZN9__gnu_cxx13new_allocatorISt4pairIjjEED2Ev = comdat any

$_ZSt8_DestroyIPSt4pairIjjES1_EvT_S3_RSaIT0_E = comdat any

$_ZNSt12_Vector_baseISt4pairIjjESaIS1_EE19_M_get_Tp_allocatorEv = comdat any

$_ZNSt12_Vector_baseISt4pairIjjESaIS1_EED2Ev = comdat any

$_ZSt8_DestroyIPSt4pairIjjEEvT_S3_ = comdat any

$_ZNSt12_Destroy_auxILb1EE9__destroyIPSt4pairIjjEEEvT_S5_ = comdat any

$_ZNSt12_Vector_baseISt4pairIjjESaIS1_EE13_M_deallocateEPS1_m = comdat any

$_ZNSt12_Vector_baseISt4pairIjjESaIS1_EE12_Vector_implD2Ev = comdat any

$_ZN9__gnu_cxx14__alloc_traitsISaISt4pairIjjEES2_E10deallocateERS3_PS2_m = comdat any

$_ZN9__gnu_cxx13new_allocatorISt4pairIjjEE10deallocateEPS2_m = comdat any

$_ZNSt12_Vector_baseISt4pairIjjESaIS1_EE17_Vector_impl_data12_M_swap_dataERS4_ = comdat any

$_ZN9__gnu_cxx14__alloc_traitsISaISt4pairIjjEES2_E10_S_on_swapERS3_S5_ = comdat any

$_ZNSt12_Vector_baseISt4pairIjjESaIS1_EE17_Vector_impl_dataC2Ev = comdat any

$_ZNSt12_Vector_baseISt4pairIjjESaIS1_EE17_Vector_impl_data12_M_copy_dataERKS4_ = comdat any

$_ZNSt12__alloc_swapISaISt4pairIjjEELb1EE8_S_do_itERS2_S4_ = comdat any

$_ZN9TableBaseILi2E6TensorILi1ELi3EEE6reinitERK12TableIndicesILi2EE = comdat any

$_ZN12TableIndicesILi2EEC2Ejj = comdat any

$_ZNK9TableBaseILi2E6TensorILi1ELi3EEE10n_elementsEv = comdat any

$_ZN9TableBaseILi2E6TensorILi1ELi3EEE12reset_valuesEv = comdat any

$_ZNK16TableIndicesBaseILi2EEixEj = comdat any

$_ZSt6fill_nIP6TensorILi1ELi3EEjS1_ET_S3_T0_RKT1_ = comdat any

$_ZSt12__niter_wrapIP6TensorILi1ELi3EEET_RKS3_S3_ = comdat any

$_ZSt10__fill_n_aIP6TensorILi1ELi3EEjS1_EN9__gnu_cxx11__enable_ifIXntsr11__is_scalarIT1_EE7__valueET_E6__typeES6_T0_RKS5_ = comdat any

$_ZSt12__niter_baseIP6TensorILi1ELi3EEET_S3_ = comdat any

$_ZN9TableBaseILi2E6TensorILi2ELi3EEE6reinitERK12TableIndicesILi2EE = comdat any

$_ZNK9TableBaseILi2E6TensorILi2ELi3EEE10n_elementsEv = comdat any

$_ZN9TableBaseILi2E6TensorILi2ELi3EEE12reset_valuesEv = comdat any

$_ZSt6fill_nIP6TensorILi2ELi3EEjS1_ET_S3_T0_RKT1_ = comdat any

$_ZSt12__niter_wrapIP6TensorILi2ELi3EEET_RKS3_S3_ = comdat any

$_ZSt10__fill_n_aIP6TensorILi2ELi3EEjS1_EN9__gnu_cxx11__enable_ifIXntsr11__is_scalarIT1_EE7__valueET_E6__typeES6_T0_RKS5_ = comdat any

$_ZSt12__niter_baseIP6TensorILi2ELi3EEET_S3_ = comdat any

$_ZNK5TableILi2E6TensorILi1ELi3EEE6n_colsEv = comdat any

$_ZN8internal18TableBaseAccessors8AccessorILi2E6TensorILi1ELi3EELb0ELj1EEC2ERK9TableBaseILi2ES3_EPS3_ = comdat any

$_ZNK5TableILi2E6TensorILi2ELi3EEE6n_colsEv = comdat any

$_ZN8internal18TableBaseAccessors8AccessorILi2E6TensorILi2ELi3EELb0ELj1EEC2ERK9TableBaseILi2ES3_EPS3_ = comdat any

$_ZN9__gnu_cxx13new_allocatorI6TensorILi1ELi3EEEC2Ev = comdat any

$_ZN9__gnu_cxx13new_allocatorI6TensorILi1ELi3EEED2Ev = comdat any

$_ZNSt6vectorI6TensorILi1ELi3EESaIS1_EE17_S_check_init_lenEmRKS2_ = comdat any

$_ZNSt12_Vector_baseI6TensorILi1ELi3EESaIS1_EEC2EmRKS2_ = comdat any

$_ZNSt6vectorI6TensorILi1ELi3EESaIS1_EE18_M_fill_initializeEmRKS1_ = comdat any

$_ZNSt12_Vector_baseI6TensorILi1ELi3EESaIS1_EED2Ev = comdat any

$_ZNSt6vectorI6TensorILi1ELi3EESaIS1_EE11_S_max_sizeERKS2_ = comdat any

$_ZNSaI6TensorILi1ELi3EEEC2ERKS1_ = comdat any

$_ZN9__gnu_cxx14__alloc_traitsISaI6TensorILi1ELi3EEES2_E8max_sizeERKS3_ = comdat any

$_ZNK9__gnu_cxx13new_allocatorI6TensorILi1ELi3EEE8max_sizeEv = comdat any

$_ZN9__gnu_cxx13new_allocatorI6TensorILi1ELi3EEEC2ERKS3_ = comdat any

$_ZNSt12_Vector_baseI6TensorILi1ELi3EESaIS1_EE12_Vector_implC2ERKS2_ = comdat any

$_ZNSt12_Vector_baseI6TensorILi1ELi3EESaIS1_EE17_M_create_storageEm = comdat any

$_ZNSt12_Vector_baseI6TensorILi1ELi3EESaIS1_EE12_Vector_implD2Ev = comdat any

$_ZNSt12_Vector_baseI6TensorILi1ELi3EESaIS1_EE17_Vector_impl_dataC2Ev = comdat any

$_ZNSt12_Vector_baseI6TensorILi1ELi3EESaIS1_EE11_M_allocateEm = comdat any

$_ZN9__gnu_cxx14__alloc_traitsISaI6TensorILi1ELi3EEES2_E8allocateERS3_m = comdat any

$_ZN9__gnu_cxx13new_allocatorI6TensorILi1ELi3EEE8allocateEmPKv = comdat any

$_ZSt24__uninitialized_fill_n_aIP6TensorILi1ELi3EEmS1_S1_ET_S3_T0_RKT1_RSaIT2_E = comdat any

$_ZNSt12_Vector_baseI6TensorILi1ELi3EESaIS1_EE19_M_get_Tp_allocatorEv = comdat any

$_ZSt20uninitialized_fill_nIP6TensorILi1ELi3EEmS1_ET_S3_T0_RKT1_ = comdat any

$_ZNSt22__uninitialized_fill_nILb0EE15__uninit_fill_nIP6TensorILi1ELi3EEmS3_EET_S5_T0_RKT1_ = comdat any

$_ZSt10_ConstructI6TensorILi1ELi3EES1_EvPT_RKT0_ = comdat any

$_ZSt11__addressofI6TensorILi1ELi3EEEPT_RS2_ = comdat any

$_ZSt8_DestroyIP6TensorILi1ELi3EEEvT_S3_ = comdat any

$_ZN6TensorILi1ELi3EEC2ERKS0_ = comdat any

$_ZNSt12_Destroy_auxILb1EE9__destroyIP6TensorILi1ELi3EEEEvT_S5_ = comdat any

$_ZNSt12_Vector_baseI6TensorILi1ELi3EESaIS1_EE13_M_deallocateEPS1_m = comdat any

$_ZN9__gnu_cxx14__alloc_traitsISaI6TensorILi1ELi3EEES2_E10deallocateERS3_PS2_m = comdat any

$_ZN9__gnu_cxx13new_allocatorI6TensorILi1ELi3EEE10deallocateEPS2_m = comdat any

$_ZSt8_DestroyIP6TensorILi1ELi3EES1_EvT_S3_RSaIT0_E = comdat any

$_ZN9__gnu_cxx17__normal_iteratorIP6TensorILi1ELi3EESt6vectorIS2_SaIS2_EEEC2ERKS3_ = comdat any

$_ZNK5TableILi2EdE6n_colsEv = comdat any

$_ZN8internal18TableBaseAccessors8AccessorILi2EdLb0ELj1EEC2ERK9TableBaseILi2EdEPd = comdat any

$_ZN9__gnu_cxx13new_allocatorI6TensorILi2ELi3EEEC2Ev = comdat any

$_ZN9__gnu_cxx13new_allocatorI6TensorILi2ELi3EEED2Ev = comdat any

$_ZNSt6vectorI6TensorILi2ELi3EESaIS1_EE17_S_check_init_lenEmRKS2_ = comdat any

$_ZNSt12_Vector_baseI6TensorILi2ELi3EESaIS1_EEC2EmRKS2_ = comdat any

$_ZNSt6vectorI6TensorILi2ELi3EESaIS1_EE18_M_fill_initializeEmRKS1_ = comdat any

$_ZNSt12_Vector_baseI6TensorILi2ELi3EESaIS1_EED2Ev = comdat any

$_ZNSt6vectorI6TensorILi2ELi3EESaIS1_EE11_S_max_sizeERKS2_ = comdat any

$_ZNSaI6TensorILi2ELi3EEEC2ERKS1_ = comdat any

$_ZN9__gnu_cxx14__alloc_traitsISaI6TensorILi2ELi3EEES2_E8max_sizeERKS3_ = comdat any

$_ZNK9__gnu_cxx13new_allocatorI6TensorILi2ELi3EEE8max_sizeEv = comdat any

$_ZN9__gnu_cxx13new_allocatorI6TensorILi2ELi3EEEC2ERKS3_ = comdat any

$_ZNSt12_Vector_baseI6TensorILi2ELi3EESaIS1_EE12_Vector_implC2ERKS2_ = comdat any

$_ZNSt12_Vector_baseI6TensorILi2ELi3EESaIS1_EE17_M_create_storageEm = comdat any

$_ZNSt12_Vector_baseI6TensorILi2ELi3EESaIS1_EE12_Vector_implD2Ev = comdat any

$_ZNSt12_Vector_baseI6TensorILi2ELi3EESaIS1_EE17_Vector_impl_dataC2Ev = comdat any

$_ZNSt12_Vector_baseI6TensorILi2ELi3EESaIS1_EE11_M_allocateEm = comdat any

$_ZN9__gnu_cxx14__alloc_traitsISaI6TensorILi2ELi3EEES2_E8allocateERS3_m = comdat any

$_ZN9__gnu_cxx13new_allocatorI6TensorILi2ELi3EEE8allocateEmPKv = comdat any

$_ZSt24__uninitialized_fill_n_aIP6TensorILi2ELi3EEmS1_S1_ET_S3_T0_RKT1_RSaIT2_E = comdat any

$_ZNSt12_Vector_baseI6TensorILi2ELi3EESaIS1_EE19_M_get_Tp_allocatorEv = comdat any

$_ZSt20uninitialized_fill_nIP6TensorILi2ELi3EEmS1_ET_S3_T0_RKT1_ = comdat any

$_ZNSt22__uninitialized_fill_nILb0EE15__uninit_fill_nIP6TensorILi2ELi3EEmS3_EET_S5_T0_RKT1_ = comdat any

$_ZSt10_ConstructI6TensorILi2ELi3EES1_EvPT_RKT0_ = comdat any

$_ZSt11__addressofI6TensorILi2ELi3EEEPT_RS2_ = comdat any

$_ZSt8_DestroyIP6TensorILi2ELi3EEEvT_S3_ = comdat any

$_ZN6TensorILi2ELi3EEC2ERKS0_ = comdat any

$_ZNSt12_Destroy_auxILb1EE9__destroyIP6TensorILi2ELi3EEEEvT_S5_ = comdat any

$_ZNSt12_Vector_baseI6TensorILi2ELi3EESaIS1_EE13_M_deallocateEPS1_m = comdat any

$_ZN9__gnu_cxx14__alloc_traitsISaI6TensorILi2ELi3EEES2_E10deallocateERS3_PS2_m = comdat any

$_ZN9__gnu_cxx13new_allocatorI6TensorILi2ELi3EEE10deallocateEPS2_m = comdat any

$_ZSt8_DestroyIP6TensorILi2ELi3EES1_EvT_S3_RSaIT0_E = comdat any

$_ZN9__gnu_cxx17__normal_iteratorIP6TensorILi2ELi3EESt6vectorIS2_SaIS2_EEEC2ERKS3_ = comdat any

$_ZNK15TriaRawIteratorILi3E15DoFCellAccessorILi3EEEdeEv = comdat any

$_ZNKSt6vectorIP18TriangulationLevelILi3EESaIS2_EEixEm = comdat any

$_ZNSt6vectorIbSaIbEEixEm = comdat any

$_ZNSt6vectorIjSaIjEE17_S_check_init_lenEmRKS0_ = comdat any

$_ZNSt12_Vector_baseIjSaIjEEC2EmRKS0_ = comdat any

$_ZNSt6vectorIjSaIjEE18_M_fill_initializeEmRKj = comdat any

$_ZNSt6vectorIjSaIjEE11_S_max_sizeERKS0_ = comdat any

$_ZNSaIjEC2ERKS_ = comdat any

$_ZN9__gnu_cxx14__alloc_traitsISaIjEjE8max_sizeERKS1_ = comdat any

$_ZNK9__gnu_cxx13new_allocatorIjE8max_sizeEv = comdat any

$_ZN9__gnu_cxx13new_allocatorIjEC2ERKS1_ = comdat any

$_ZNSt12_Vector_baseIjSaIjEE12_Vector_implC2ERKS0_ = comdat any

$_ZNSt12_Vector_baseIjSaIjEE17_M_create_storageEm = comdat any

$_ZNSt12_Vector_baseIjSaIjEE17_Vector_impl_dataC2Ev = comdat any

$_ZNSt12_Vector_baseIjSaIjEE11_M_allocateEm = comdat any

$_ZN9__gnu_cxx14__alloc_traitsISaIjEjE8allocateERS1_m = comdat any

$_ZN9__gnu_cxx13new_allocatorIjE8allocateEmPKv = comdat any

$_ZSt24__uninitialized_fill_n_aIPjmjjET_S1_T0_RKT1_RSaIT2_E = comdat any

$_ZSt20uninitialized_fill_nIPjmjET_S1_T0_RKT1_ = comdat any

$_ZNSt22__uninitialized_fill_nILb1EE15__uninit_fill_nIPjmjEET_S3_T0_RKT1_ = comdat any

$_ZSt6fill_nIPjmjET_S1_T0_RKT1_ = comdat any

$_ZSt12__niter_wrapIPjET_RKS1_S1_ = comdat any

$_ZSt10__fill_n_aIPjmjEN9__gnu_cxx11__enable_ifIXsr11__is_scalarIT1_EE7__valueET_E6__typeES4_T0_RKS3_ = comdat any

$_ZSt12__niter_baseIPjET_S1_ = comdat any

$_ZNK9TableBaseILi2EdE10n_elementsEv = comdat any

$_ZN9TableBaseILi2EdE12reset_valuesEv = comdat any

$_ZSt6fill_nIPdjdET_S1_T0_RKT1_ = comdat any

$_ZSt12__niter_wrapIPdET_RKS1_S1_ = comdat any

$_ZSt10__fill_n_aIPdjdEN9__gnu_cxx11__enable_ifIXsr11__is_scalarIT1_EE7__valueET_E6__typeES4_T0_RKS3_ = comdat any

$_ZSt12__niter_baseIPdET_S1_ = comdat any

$_ZN9TableBaseILi2EdE4fillIdEEvPKT_ = comdat any

$_ZSt4copyIPKdPdET0_T_S4_S3_ = comdat any

$_ZSt14__copy_move_a2ILb0EPKdPdET1_T0_S4_S3_ = comdat any

$_ZSt12__miter_baseIPKdET_S2_ = comdat any

$_ZSt13__copy_move_aILb0EPKdPdET1_T0_S4_S3_ = comdat any

$_ZSt12__niter_baseIPKdET_S2_ = comdat any

$_ZNSt11__copy_moveILb0ELb1ESt26random_access_iterator_tagE8__copy_mIdEEPT_PKS3_S6_S4_ = comdat any

$_ZNKSt6vectorI5PointILi3EESaIS1_EE4sizeEv = comdat any

$_ZNSt6vectorI5PointILi3EESaIS1_EE14_M_fill_insertEN9__gnu_cxx17__normal_iteratorIPS1_S3_EEmRKS1_ = comdat any

$_ZNSt6vectorI5PointILi3EESaIS1_EE3endEv = comdat any

$_ZNSt6vectorI5PointILi3EESaIS1_EE15_M_erase_at_endEPS1_ = comdat any

$_ZN9__gnu_cxxmiIP5PointILi3EESt6vectorIS2_SaIS2_EEEENS_17__normal_iteratorIT_T0_E15difference_typeERKSA_SD_ = comdat any

$_ZSt22__uninitialized_move_aIP5PointILi3EES2_SaIS1_EET0_T_S5_S4_RT1_ = comdat any

$_ZNSt12_Vector_baseI5PointILi3EESaIS1_EE19_M_get_Tp_allocatorEv = comdat any

$_ZSt13copy_backwardIP5PointILi3EES2_ET0_T_S4_S3_ = comdat any

$_ZNK9__gnu_cxx17__normal_iteratorIP5PointILi3EESt6vectorIS2_SaIS2_EEE4baseEv = comdat any

$_ZSt4fillIP5PointILi3EES1_EvT_S3_RKT0_ = comdat any

$_ZSt24__uninitialized_fill_n_aIP5PointILi3EEmS1_S1_ET_S3_T0_RKT1_RSaIT2_E = comdat any

$_ZNKSt6vectorI5PointILi3EESaIS1_EE12_M_check_lenEmPKc = comdat any

$_ZNSt6vectorI5PointILi3EESaIS1_EE5beginEv = comdat any

$_ZNSt12_Vector_baseI5PointILi3EESaIS1_EE11_M_allocateEm = comdat any

$_ZSt34__uninitialized_move_if_noexcept_aIP5PointILi3EES2_SaIS1_EET0_T_S5_S4_RT1_ = comdat any

$_ZSt8_DestroyIP5PointILi3EES1_EvT_S3_RSaIT0_E = comdat any

$_ZNSt12_Vector_baseI5PointILi3EESaIS1_EE13_M_deallocateEPS1_m = comdat any

$_ZSt22__uninitialized_copy_aIP5PointILi3EES2_S1_ET0_T_S4_S3_RSaIT1_E = comdat any

$_ZSt18uninitialized_copyIP5PointILi3EES2_ET0_T_S4_S3_ = comdat any

$_ZNSt20__uninitialized_copyILb0EE13__uninit_copyIP5PointILi3EES4_EET0_T_S6_S5_ = comdat any

$_ZSt10_ConstructI5PointILi3EES1_EvPT_RKT0_ = comdat any

$_ZSt11__addressofI5PointILi3EEEPT_RS2_ = comdat any

$_ZSt8_DestroyIP5PointILi3EEEvT_S3_ = comdat any

$_ZNSt12_Destroy_auxILb1EE9__destroyIP5PointILi3EEEEvT_S5_ = comdat any

$_ZSt23__copy_move_backward_a2ILb0EP5PointILi3EES2_ET1_T0_S4_S3_ = comdat any

$_ZSt12__miter_baseIP5PointILi3EEET_S3_ = comdat any

$_ZSt12__niter_wrapIP5PointILi3EEET_RKS3_S3_ = comdat any

$_ZSt22__copy_move_backward_aILb0EP5PointILi3EES2_ET1_T0_S4_S3_ = comdat any

$_ZSt12__niter_baseIP5PointILi3EEET_S3_ = comdat any

$_ZNSt20__copy_move_backwardILb0ELb0ESt26random_access_iterator_tagE13__copy_move_bIP5PointILi3EES5_EET0_T_S7_S6_ = comdat any

$_ZSt8__fill_aIP5PointILi3EES1_EN9__gnu_cxx11__enable_ifIXntsr11__is_scalarIT0_EE7__valueEvE6__typeET_S8_RKS5_ = comdat any

$_ZSt20uninitialized_fill_nIP5PointILi3EEmS1_ET_S3_T0_RKT1_ = comdat any

$_ZNSt22__uninitialized_fill_nILb0EE15__uninit_fill_nIP5PointILi3EEmS3_EET_S5_T0_RKT1_ = comdat any

$_ZNKSt6vectorI5PointILi3EESaIS1_EE8max_sizeEv = comdat any

$_ZSt3maxImERKT_S2_S2_ = comdat any

$_ZNSt6vectorI5PointILi3EESaIS1_EE11_S_max_sizeERKS2_ = comdat any

$_ZNKSt12_Vector_baseI5PointILi3EESaIS1_EE19_M_get_Tp_allocatorEv = comdat any

$_ZN9__gnu_cxx14__alloc_traitsISaI5PointILi3EEES2_E8max_sizeERKS3_ = comdat any

$_ZNK9__gnu_cxx13new_allocatorI5PointILi3EEE8max_sizeEv = comdat any

$_ZN9__gnu_cxx17__normal_iteratorIP5PointILi3EESt6vectorIS2_SaIS2_EEEC2ERKS3_ = comdat any

$_ZN9__gnu_cxx14__alloc_traitsISaI5PointILi3EEES2_E8allocateERS3_m = comdat any

$_ZN9__gnu_cxx13new_allocatorI5PointILi3EEE8allocateEmPKv = comdat any

$_ZN9__gnu_cxx14__alloc_traitsISaI5PointILi3EEES2_E10deallocateERS3_PS2_m = comdat any

$_ZN9__gnu_cxx13new_allocatorI5PointILi3EEE10deallocateEPS2_m = comdat any

$_ZN6TensorILi1ELi3EEpLERKS0_ = comdat any

$_ZN5PointILi3EEC2ERK6TensorILi1ELi3EE = comdat any

$_ZN6TensorILi1ELi3EEdVERKd = comdat any

$_ZNKSt6vectorI5PointILi2EESaIS1_EE4sizeEv = comdat any

$_ZNSt6vectorI5PointILi2EESaIS1_EE14_M_fill_insertEN9__gnu_cxx17__normal_iteratorIPS1_S3_EEmRKS1_ = comdat any

$_ZNSt6vectorI5PointILi2EESaIS1_EE3endEv = comdat any

$_ZNSt6vectorI5PointILi2EESaIS1_EE15_M_erase_at_endEPS1_ = comdat any

$_ZN9__gnu_cxxmiIP5PointILi2EESt6vectorIS2_SaIS2_EEEENS_17__normal_iteratorIT_T0_E15difference_typeERKSA_SD_ = comdat any

$_ZSt22__uninitialized_move_aIP5PointILi2EES2_SaIS1_EET0_T_S5_S4_RT1_ = comdat any

$_ZNSt12_Vector_baseI5PointILi2EESaIS1_EE19_M_get_Tp_allocatorEv = comdat any

$_ZSt13copy_backwardIP5PointILi2EES2_ET0_T_S4_S3_ = comdat any

$_ZNK9__gnu_cxx17__normal_iteratorIP5PointILi2EESt6vectorIS2_SaIS2_EEE4baseEv = comdat any

$_ZSt4fillIP5PointILi2EES1_EvT_S3_RKT0_ = comdat any

$_ZSt24__uninitialized_fill_n_aIP5PointILi2EEmS1_S1_ET_S3_T0_RKT1_RSaIT2_E = comdat any

$_ZNKSt6vectorI5PointILi2EESaIS1_EE12_M_check_lenEmPKc = comdat any

$_ZNSt6vectorI5PointILi2EESaIS1_EE5beginEv = comdat any

$_ZNSt12_Vector_baseI5PointILi2EESaIS1_EE11_M_allocateEm = comdat any

$_ZSt34__uninitialized_move_if_noexcept_aIP5PointILi2EES2_SaIS1_EET0_T_S5_S4_RT1_ = comdat any

$_ZSt8_DestroyIP5PointILi2EES1_EvT_S3_RSaIT0_E = comdat any

$_ZNSt12_Vector_baseI5PointILi2EESaIS1_EE13_M_deallocateEPS1_m = comdat any

$_ZSt22__uninitialized_copy_aIP5PointILi2EES2_S1_ET0_T_S4_S3_RSaIT1_E = comdat any

$_ZSt18uninitialized_copyIP5PointILi2EES2_ET0_T_S4_S3_ = comdat any

$_ZNSt20__uninitialized_copyILb0EE13__uninit_copyIP5PointILi2EES4_EET0_T_S6_S5_ = comdat any

$_ZSt10_ConstructI5PointILi2EES1_EvPT_RKT0_ = comdat any

$_ZSt11__addressofI5PointILi2EEEPT_RS2_ = comdat any

$_ZSt8_DestroyIP5PointILi2EEEvT_S3_ = comdat any

$_ZNSt12_Destroy_auxILb1EE9__destroyIP5PointILi2EEEEvT_S5_ = comdat any

$_ZSt23__copy_move_backward_a2ILb0EP5PointILi2EES2_ET1_T0_S4_S3_ = comdat any

$_ZSt12__miter_baseIP5PointILi2EEET_S3_ = comdat any

$_ZSt12__niter_wrapIP5PointILi2EEET_RKS3_S3_ = comdat any

$_ZSt22__copy_move_backward_aILb0EP5PointILi2EES2_ET1_T0_S4_S3_ = comdat any

$_ZSt12__niter_baseIP5PointILi2EEET_S3_ = comdat any

$_ZNSt20__copy_move_backwardILb0ELb0ESt26random_access_iterator_tagE13__copy_move_bIP5PointILi2EES5_EET0_T_S7_S6_ = comdat any

$_ZSt8__fill_aIP5PointILi2EES1_EN9__gnu_cxx11__enable_ifIXntsr11__is_scalarIT0_EE7__valueEvE6__typeET_S8_RKS5_ = comdat any

$_ZSt20uninitialized_fill_nIP5PointILi2EEmS1_ET_S3_T0_RKT1_ = comdat any

$_ZNSt22__uninitialized_fill_nILb0EE15__uninit_fill_nIP5PointILi2EEmS3_EET_S5_T0_RKT1_ = comdat any

$_ZNKSt6vectorI5PointILi2EESaIS1_EE8max_sizeEv = comdat any

$_ZNSt6vectorI5PointILi2EESaIS1_EE11_S_max_sizeERKS2_ = comdat any

$_ZNKSt12_Vector_baseI5PointILi2EESaIS1_EE19_M_get_Tp_allocatorEv = comdat any

$_ZN9__gnu_cxx14__alloc_traitsISaI5PointILi2EEES2_E8max_sizeERKS3_ = comdat any

$_ZNK9__gnu_cxx13new_allocatorI5PointILi2EEE8max_sizeEv = comdat any

$_ZN9__gnu_cxx17__normal_iteratorIP5PointILi2EESt6vectorIS2_SaIS2_EEEC2ERKS3_ = comdat any

$_ZN9__gnu_cxx14__alloc_traitsISaI5PointILi2EEES2_E8allocateERS3_m = comdat any

$_ZN9__gnu_cxx13new_allocatorI5PointILi2EEE8allocateEmPKv = comdat any

$_ZN9__gnu_cxx14__alloc_traitsISaI5PointILi2EEES2_E10deallocateERS3_PS2_m = comdat any

$_ZN9__gnu_cxx13new_allocatorI5PointILi2EEE10deallocateEPS2_m = comdat any

$_ZN6TensorILi1ELi2EEpLERKS0_ = comdat any

$_ZN5PointILi2EEC2ERK6TensorILi1ELi2EE = comdat any

$_ZN6TensorILi1ELi2EEdVERKd = comdat any

$_ZTV10FE_NedelecILi3EE = comdat any

$_ZTSN7MappingILi3EE16InternalDataBaseE = comdat any

$_ZTIN7MappingILi3EE16InternalDataBaseE = comdat any

$_ZTSN10FE_NedelecILi3EE12InternalDataE = comdat any

$_ZTSN17FiniteElementBaseILi3EE16InternalDataBaseE = comdat any

$_ZTIN17FiniteElementBaseILi3EE16InternalDataBaseE = comdat any

$_ZTIN10FE_NedelecILi3EE12InternalDataE = comdat any

$_ZTS10FE_NedelecILi3EE = comdat any

$_ZTS13FiniteElementILi3EE = comdat any

$_ZTS17FiniteElementBaseILi3EE = comdat any

$_ZTS17FiniteElementDataILi3EE = comdat any

$_ZTI17FiniteElementDataILi3EE = comdat any

$_ZTI17FiniteElementBaseILi3EE = comdat any

$_ZTI13FiniteElementILi3EE = comdat any

$_ZTI10FE_NedelecILi3EE = comdat any

$_ZTVN10FE_NedelecILi3EE27ExcNotUsefulInThisDimensionE = comdat any

$_ZTSN10FE_NedelecILi3EE27ExcNotUsefulInThisDimensionE = comdat any

$_ZTIN10FE_NedelecILi3EE27ExcNotUsefulInThisDimensionE = comdat any

$_ZTVN10FE_NedelecILi3EE12InternalDataE = comdat any

$_ZTVN17FiniteElementBaseILi3EE16InternalDataBaseE = comdat any

$_ZTV5TableILi2E6TensorILi1ELi3EEE = comdat any

$_ZTS5TableILi2E6TensorILi1ELi3EEE = comdat any

$_ZTS9TableBaseILi2E6TensorILi1ELi3EEE = comdat any

$_ZTI9TableBaseILi2E6TensorILi1ELi3EEE = comdat any

$_ZTI5TableILi2E6TensorILi1ELi3EEE = comdat any

$_ZTV9TableBaseILi2E6TensorILi1ELi3EEE = comdat any

$_ZTV5TableILi2E6TensorILi2ELi3EEE = comdat any

$_ZTS5TableILi2E6TensorILi2ELi3EEE = comdat any

$_ZTS9TableBaseILi2E6TensorILi2ELi3EEE = comdat any

$_ZTI9TableBaseILi2E6TensorILi2ELi3EEE = comdat any

$_ZTI5TableILi2E6TensorILi2ELi3EEE = comdat any

$_ZTV9TableBaseILi2E6TensorILi2ELi3EEE = comdat any

$_ZZN12GeometryInfoILi3EE25vertices_adjacent_to_lineEjjE14vertex_indices = comdat any

$_ZZN12GeometryInfoILi2EE25vertices_adjacent_to_lineEjjE14vertex_indices = comdat any

@_ZZNK10FE_NedelecILi3EE25shape_grad_grad_componentEjRK5PointILi3EEjE15unit_grad_grads = internal constant [12 x [3 x [3 x [3 x double]]]] [[3 x [3 x [3 x double]]] [[3 x [3 x double]] [[3 x double] zeroinitializer, [3 x double] [double 0.000000e+00, double 0.000000e+00, double 1.000000e+00], [3 x double] [double 0.000000e+00, double 1.000000e+00, double 0.000000e+00]], [3 x [3 x double]] zeroinitializer, [3 x [3 x double]] zeroinitializer], [3 x [3 x [3 x double]]] [[3 x [3 x double]] zeroinitializer, [3 x [3 x double]] zeroinitializer, [3 x [3 x double]] [[3 x double] [double 0.000000e+00, double -1.000000e+00, double 0.000000e+00], [3 x double] [double -1.000000e+00, double 0.000000e+00, double 0.000000e+00], [3 x double] zeroinitializer]], [3 x [3 x [3 x double]]] [[3 x [3 x double]] [[3 x double] zeroinitializer, [3 x double] [double 0.000000e+00, double 0.000000e+00, double -1.000000e+00], [3 x double] [double 0.000000e+00, double -1.000000e+00, double 0.000000e+00]], [3 x [3 x double]] zeroinitializer, [3 x [3 x double]] zeroinitializer], [3 x [3 x [3 x double]]] [[3 x [3 x double]] zeroinitializer, [3 x [3 x double]] zeroinitializer, [3 x [3 x double]] [[3 x double] [double 0.000000e+00, double 1.000000e+00, double 0.000000e+00], [3 x double] [double 1.000000e+00, double 0.000000e+00, double 0.000000e+00], [3 x double] zeroinitializer]], [3 x [3 x [3 x double]]] [[3 x [3 x double]] [[3 x double] zeroinitializer, [3 x double] [double 0.000000e+00, double 0.000000e+00, double -1.000000e+00], [3 x double] [double 0.000000e+00, double -1.000000e+00, double 0.000000e+00]], [3 x [3 x double]] zeroinitializer, [3 x [3 x double]] zeroinitializer], [3 x [3 x [3 x double]]] [[3 x [3 x double]] zeroinitializer, [3 x [3 x double]] zeroinitializer, [3 x [3 x double]] [[3 x double] [double 0.000000e+00, double 1.000000e+00, double 0.000000e+00], [3 x double] [double 1.000000e+00, double 0.000000e+00, double 0.000000e+00], [3 x double] zeroinitializer]], [3 x [3 x [3 x double]]] [[3 x [3 x double]] [[3 x double] zeroinitializer, [3 x double] [double 0.000000e+00, double 0.000000e+00, double 1.000000e+00], [3 x double] [double 0.000000e+00, double 1.000000e+00, double 0.000000e+00]], [3 x [3 x double]] zeroinitializer, [3 x [3 x double]] zeroinitializer], [3 x [3 x [3 x double]]] [[3 x [3 x double]] zeroinitializer, [3 x [3 x double]] zeroinitializer, [3 x [3 x double]] [[3 x double] [double 0.000000e+00, double -1.000000e+00, double 0.000000e+00], [3 x double] [double -1.000000e+00, double 0.000000e+00, double 0.000000e+00], [3 x double] zeroinitializer]], [3 x [3 x [3 x double]]] [[3 x [3 x double]] zeroinitializer, [3 x [3 x double]] [[3 x double] [double 0.000000e+00, double 0.000000e+00, double 1.000000e+00], [3 x double] zeroinitializer, [3 x double] [double 1.000000e+00, double 0.000000e+00, double 0.000000e+00]], [3 x [3 x double]] zeroinitializer], [3 x [3 x [3 x double]]] [[3 x [3 x double]] zeroinitializer, [3 x [3 x double]] [[3 x double] [double 0.000000e+00, double 0.000000e+00, double -1.000000e+00], [3 x double] zeroinitializer, [3 x double] [double -1.000000e+00, double 0.000000e+00, double 0.000000e+00]], [3 x [3 x double]] zeroinitializer], [3 x [3 x [3 x double]]] [[3 x [3 x double]] zeroinitializer, [3 x [3 x double]] [[3 x double] [double 0.000000e+00, double 0.000000e+00, double 1.000000e+00], [3 x double] zeroinitializer, [3 x double] [double 1.000000e+00, double 0.000000e+00, double 0.000000e+00]], [3 x [3 x double]] zeroinitializer], [3 x [3 x [3 x double]]] [[3 x [3 x double]] zeroinitializer, [3 x [3 x double]] [[3 x double] [double 0.000000e+00, double 0.000000e+00, double -1.000000e+00], [3 x double] zeroinitializer, [3 x double] [double -1.000000e+00, double 0.000000e+00, double 0.000000e+00]], [3 x [3 x double]] zeroinitializer]], align 16
@_ZTV10FE_NedelecILi3EE = weak_odr unnamed_addr constant { [28 x i8*] } { [28 x i8*] [i8* null, i8* bitcast ({ i8*, i8*, i8* }* @_ZTI10FE_NedelecILi3EE to i8*), i8* bitcast (void (%class.FE_Nedelec*)* @_ZN10FE_NedelecILi3EED2Ev to i8*), i8* bitcast (void (%class.FE_Nedelec*)* @_ZN10FE_NedelecILi3EED0Ev to i8*), i8* bitcast (void (%"class.std::__cxx11::basic_string"*, %class.FE_Nedelec*)* @_ZNK10FE_NedelecILi3EE8get_nameB5cxx11Ev to i8*), i8* bitcast (double (%class.FiniteElementBase*, i32, %class.Point*)* @_ZNK17FiniteElementBaseILi3EE11shape_valueEjRK5PointILi3EE to i8*), i8* bitcast (double (%class.FE_Nedelec*, i32, %class.Point*, i32)* @_ZNK10FE_NedelecILi3EE21shape_value_componentEjRK5PointILi3EEj to i8*), i8* bitcast (void (%class.Tensor*, %class.FiniteElementBase*, i32, %class.Point*)* @_ZNK17FiniteElementBaseILi3EE10shape_gradEjRK5PointILi3EE to i8*), i8* bitcast (void (%class.Tensor*, %class.FE_Nedelec*, i32, %class.Point*, i32)* @_ZNK10FE_NedelecILi3EE20shape_grad_componentEjRK5PointILi3EEj to i8*), i8* bitcast (void (%class.Tensor.33*, %class.FiniteElementBase*, i32, %class.Point*)* @_ZNK17FiniteElementBaseILi3EE15shape_grad_gradEjRK5PointILi3EE to i8*), i8* bitcast (void (%class.Tensor.33*, %class.FE_Nedelec*, i32, %class.Point*, i32)* @_ZNK10FE_NedelecILi3EE25shape_grad_grad_componentEjRK5PointILi3EEj to i8*), i8* bitcast (void (%class.FiniteElementBase*, %class.FiniteElementBase*, %class.FullMatrix*)* @_ZNK17FiniteElementBaseILi3EE24get_interpolation_matrixERKS0_R10FullMatrixIdE to i8*), i8* bitcast (void (%class.Point*, %class.FiniteElementBase*, i32)* @_ZNK17FiniteElementBaseILi3EE18unit_support_pointEj to i8*), i8* bitcast (void (%class.Point.21*, %class.FiniteElementBase*, i32)* @_ZNK17FiniteElementBaseILi3EE23unit_face_support_pointEj to i8*), i8* bitcast (i32 (%class.FE_Nedelec*)* @_ZNK10FE_NedelecILi3EE15n_base_elementsEv to i8*), i8* bitcast (%class.FiniteElement* (%class.FE_Nedelec*, i32)* @_ZNK10FE_NedelecILi3EE12base_elementEj to i8*), i8* bitcast (i32 (%class.FE_Nedelec*, i32)* @_ZNK10FE_NedelecILi3EE20element_multiplicityEj to i8*), i8* bitcast (i1 (%class.FE_Nedelec*, i32, i32)* @_ZNK10FE_NedelecILi3EE19has_support_on_faceEjj to i8*), i8* bitcast (i32 (%class.FE_Nedelec*)* @_ZNK10FE_NedelecILi3EE18memory_consumptionEv to i8*), i8* bitcast (i32 (%class.FE_Nedelec*, i32)* @_ZNK10FE_NedelecILi3EE11update_onceE11UpdateFlags to i8*), i8* bitcast (i32 (%class.FE_Nedelec*, i32)* @_ZNK10FE_NedelecILi3EE11update_eachE11UpdateFlags to i8*), i8* bitcast (%class.FiniteElement* (%class.FE_Nedelec*)* @_ZNK10FE_NedelecILi3EE5cloneEv to i8*), i8* bitcast (%"class.Mapping<3>::InternalDataBase"* (%class.FE_Nedelec*, i32, %class.Mapping*, %class.Quadrature*)* @_ZNK10FE_NedelecILi3EE8get_dataE11UpdateFlagsRK7MappingILi3EERK10QuadratureILi3EE to i8*), i8* bitcast (%"class.Mapping<3>::InternalDataBase"* (%class.FiniteElement*, i32, %class.Mapping*, %class.Quadrature.126*)* @_ZNK13FiniteElementILi3EE13get_face_dataE11UpdateFlagsRK7MappingILi3EERK10QuadratureILi2EE to i8*), i8* bitcast (%"class.Mapping<3>::InternalDataBase"* (%class.FiniteElement*, i32, %class.Mapping*, %class.Quadrature.126*)* @_ZNK13FiniteElementILi3EE16get_subface_dataE11UpdateFlagsRK7MappingILi3EERK10QuadratureILi2EE to i8*), i8* bitcast (void (%class.FE_Nedelec*, %class.Mapping*, %class.TriaIterator*, %class.Quadrature*, %"class.Mapping<3>::InternalDataBase"*, %"class.Mapping<3>::InternalDataBase"*, %class.FEValuesData*)* @_ZNK10FE_NedelecILi3EE14fill_fe_valuesERK7MappingILi3EERK12TriaIteratorILi3E15DoFCellAccessorILi3EEERK10QuadratureILi3EERNS2_16InternalDataBaseESG_R12FEValuesDataILi3EE to i8*), i8* bitcast (void (%class.FE_Nedelec*, %class.Mapping*, %class.TriaIterator*, i32, %class.Quadrature.126*, %"class.Mapping<3>::InternalDataBase"*, %"class.Mapping<3>::InternalDataBase"*, %class.FEValuesData*)* @_ZNK10FE_NedelecILi3EE19fill_fe_face_valuesERK7MappingILi3EERK12TriaIteratorILi3E15DoFCellAccessorILi3EEEjRK10QuadratureILi2EERNS2_16InternalDataBaseESG_R12FEValuesDataILi3EE to i8*), i8* bitcast (void (%class.FE_Nedelec*, %class.Mapping*, %class.TriaIterator*, i32, i32, %class.Quadrature.126*, %"class.Mapping<3>::InternalDataBase"*, %"class.Mapping<3>::InternalDataBase"*, %class.FEValuesData*)* @_ZNK10FE_NedelecILi3EE22fill_fe_subface_valuesERK7MappingILi3EERK12TriaIteratorILi3E15DoFCellAccessorILi3EEEjjRK10QuadratureILi2EERNS2_16InternalDataBaseESG_R12FEValuesDataILi3EE to i8*)] }, comdat, align 8
@.str = private unnamed_addr constant [12 x i8] c"FE_Nedelec<\00", align 1
@.str.1 = private unnamed_addr constant [3 x i8] c">(\00", align 1
@.str.2 = private unnamed_addr constant [2 x i8] c")\00", align 1
@_ZZNK10FE_NedelecILi3EE19has_support_on_faceEjjE14opposite_faces = internal constant [12 x [2 x i32]] [[2 x i32] [i32 1, i32 4], [2 x i32] [i32 1, i32 5], [2 x i32] [i32 1, i32 2], [2 x i32] [i32 1, i32 3], [2 x i32] [i32 0, i32 4], [2 x i32] [i32 0, i32 5], [2 x i32] [i32 0, i32 2], [2 x i32] [i32 0, i32 3], [2 x i32] [i32 3, i32 4], [2 x i32] [i32 4, i32 5], [2 x i32] [i32 2, i32 5], [2 x i32] [i32 2, i32 3]], align 16
@_ZTVN10__cxxabiv120__si_class_type_infoE = external global i8*
@_ZTSN7MappingILi3EE16InternalDataBaseE = linkonce_odr constant [35 x i8] c"N7MappingILi3EE16InternalDataBaseE\00", comdat
@_ZTI11Subscriptor = external constant i8*
@_ZTIN7MappingILi3EE16InternalDataBaseE = linkonce_odr constant { i8*, i8*, i8* } { i8* bitcast (i8** getelementptr inbounds (i8*, i8** @_ZTVN10__cxxabiv120__si_class_type_infoE, i64 2) to i8*), i8* getelementptr inbounds ([35 x i8], [35 x i8]* @_ZTSN7MappingILi3EE16InternalDataBaseE, i32 0, i32 0), i8* bitcast (i8** @_ZTI11Subscriptor to i8*) }, comdat
@_ZTSN10FE_NedelecILi3EE12InternalDataE = linkonce_odr constant [35 x i8] c"N10FE_NedelecILi3EE12InternalDataE\00", comdat
@_ZTSN17FiniteElementBaseILi3EE16InternalDataBaseE = linkonce_odr constant [46 x i8] c"N17FiniteElementBaseILi3EE16InternalDataBaseE\00", comdat
@_ZTIN17FiniteElementBaseILi3EE16InternalDataBaseE = linkonce_odr constant { i8*, i8*, i8* } { i8* bitcast (i8** getelementptr inbounds (i8*, i8** @_ZTVN10__cxxabiv120__si_class_type_infoE, i64 2) to i8*), i8* getelementptr inbounds ([46 x i8], [46 x i8]* @_ZTSN17FiniteElementBaseILi3EE16InternalDataBaseE, i32 0, i32 0), i8* bitcast ({ i8*, i8*, i8* }* @_ZTIN7MappingILi3EE16InternalDataBaseE to i8*) }, comdat
@_ZTIN10FE_NedelecILi3EE12InternalDataE = linkonce_odr constant { i8*, i8*, i8* } { i8* bitcast (i8** getelementptr inbounds (i8*, i8** @_ZTVN10__cxxabiv120__si_class_type_infoE, i64 2) to i8*), i8* getelementptr inbounds ([35 x i8], [35 x i8]* @_ZTSN10FE_NedelecILi3EE12InternalDataE, i32 0, i32 0), i8* bitcast ({ i8*, i8*, i8* }* @_ZTIN17FiniteElementBaseILi3EE16InternalDataBaseE to i8*) }, comdat
@_ZN10FE_NedelecILi3EE8Matrices21n_constraint_matricesE = external constant i32, align 4
@_ZN10FE_NedelecILi3EE8Matrices19constraint_matricesE = external constant [0 x double*], align 8
@_ZN10FE_NedelecILi3EE8Matrices20n_embedding_matricesE = external constant i32, align 4
@_ZN10FE_NedelecILi3EE8Matrices9embeddingE = external constant [0 x [8 x double*]], align 8
@_ZTS10FE_NedelecILi3EE = weak_odr constant [19 x i8] c"10FE_NedelecILi3EE\00", comdat
@_ZTS13FiniteElementILi3EE = linkonce_odr constant [22 x i8] c"13FiniteElementILi3EE\00", comdat
@_ZTVN10__cxxabiv121__vmi_class_type_infoE = external global i8*
@_ZTS17FiniteElementBaseILi3EE = linkonce_odr constant [26 x i8] c"17FiniteElementBaseILi3EE\00", comdat
@_ZTVN10__cxxabiv117__class_type_infoE = external global i8*
@_ZTS17FiniteElementDataILi3EE = linkonce_odr constant [26 x i8] c"17FiniteElementDataILi3EE\00", comdat
@_ZTI17FiniteElementDataILi3EE = linkonce_odr constant { i8*, i8* } { i8* bitcast (i8** getelementptr inbounds (i8*, i8** @_ZTVN10__cxxabiv117__class_type_infoE, i64 2) to i8*), i8* getelementptr inbounds ([26 x i8], [26 x i8]* @_ZTS17FiniteElementDataILi3EE, i32 0, i32 0) }, comdat
@_ZTI17FiniteElementBaseILi3EE = linkonce_odr constant { i8*, i8*, i32, i32, i8*, i64, i8*, i64 } { i8* bitcast (i8** getelementptr inbounds (i8*, i8** @_ZTVN10__cxxabiv121__vmi_class_type_infoE, i64 2) to i8*), i8* getelementptr inbounds ([26 x i8], [26 x i8]* @_ZTS17FiniteElementBaseILi3EE, i32 0, i32 0), i32 0, i32 2, i8* bitcast (i8** @_ZTI11Subscriptor to i8*), i64 2, i8* bitcast ({ i8*, i8* }* @_ZTI17FiniteElementDataILi3EE to i8*), i64 6146 }, comdat
@_ZTI13FiniteElementILi3EE = linkonce_odr constant { i8*, i8*, i8* } { i8* bitcast (i8** getelementptr inbounds (i8*, i8** @_ZTVN10__cxxabiv120__si_class_type_infoE, i64 2) to i8*), i8* getelementptr inbounds ([22 x i8], [22 x i8]* @_ZTS13FiniteElementILi3EE, i32 0, i32 0), i8* bitcast ({ i8*, i8*, i32, i32, i8*, i64, i8*, i64 }* @_ZTI17FiniteElementBaseILi3EE to i8*) }, comdat
@_ZTI10FE_NedelecILi3EE = weak_odr constant { i8*, i8*, i8* } { i8* bitcast (i8** getelementptr inbounds (i8*, i8** @_ZTVN10__cxxabiv120__si_class_type_infoE, i64 2) to i8*), i8* getelementptr inbounds ([19 x i8], [19 x i8]* @_ZTS10FE_NedelecILi3EE, i32 0, i32 0), i8* bitcast ({ i8*, i8*, i8* }* @_ZTI13FiniteElementILi3EE to i8*) }, comdat
@_ZTVN10FE_NedelecILi3EE27ExcNotUsefulInThisDimensionE = weak_odr unnamed_addr constant { [6 x i8*] } { [6 x i8*] [i8* null, i8* bitcast ({ i8*, i8*, i8* }* @_ZTIN10FE_NedelecILi3EE27ExcNotUsefulInThisDimensionE to i8*), i8* bitcast (void (%"class.FE_Nedelec<3>::ExcNotUsefulInThisDimension"*)* @_ZN10FE_NedelecILi3EE27ExcNotUsefulInThisDimensionD2Ev to i8*), i8* bitcast (void (%"class.FE_Nedelec<3>::ExcNotUsefulInThisDimension"*)* @_ZN10FE_NedelecILi3EE27ExcNotUsefulInThisDimensionD0Ev to i8*), i8* bitcast (i8* (%class.ExceptionBase*)* @_ZNK13ExceptionBase4whatEv to i8*), i8* bitcast (void (%class.ExceptionBase*, %"class.std::basic_ostream"*)* @_ZNK13ExceptionBase9PrintInfoERSo to i8*)] }, comdat, align 8
@_ZTSN10FE_NedelecILi3EE27ExcNotUsefulInThisDimensionE = weak_odr constant [50 x i8] c"N10FE_NedelecILi3EE27ExcNotUsefulInThisDimensionE\00", comdat
@_ZTI13ExceptionBase = external constant i8*
@_ZTIN10FE_NedelecILi3EE27ExcNotUsefulInThisDimensionE = weak_odr constant { i8*, i8*, i8* } { i8* bitcast (i8** getelementptr inbounds (i8*, i8** @_ZTVN10__cxxabiv120__si_class_type_infoE, i64 2) to i8*), i8* getelementptr inbounds ([50 x i8], [50 x i8]* @_ZTSN10FE_NedelecILi3EE27ExcNotUsefulInThisDimensionE, i32 0, i32 0), i8* bitcast (i8** @_ZTI13ExceptionBase to i8*) }, comdat
@_ZTVN10FE_NedelecILi3EE12InternalDataE = linkonce_odr unnamed_addr constant { [6 x i8*] } { [6 x i8*] [i8* null, i8* bitcast ({ i8*, i8*, i8* }* @_ZTIN10FE_NedelecILi3EE12InternalDataE to i8*), i8* bitcast (void (%"class.FE_Nedelec<3>::InternalData"*)* @_ZN10FE_NedelecILi3EE12InternalDataD2Ev to i8*), i8* bitcast (void (%"class.FE_Nedelec<3>::InternalData"*)* @_ZN10FE_NedelecILi3EE12InternalDataD0Ev to i8*), i8* bitcast (void (%"class.Mapping<3>::InternalDataBase"*)* @_ZN7MappingILi3EE16InternalDataBase16clear_first_cellEv to i8*), i8* bitcast (i32 (%"class.Mapping<3>::InternalDataBase"*)* @_ZNK7MappingILi3EE16InternalDataBase18memory_consumptionEv to i8*)] }, comdat, align 8
@_ZTVN17FiniteElementBaseILi3EE16InternalDataBaseE = linkonce_odr unnamed_addr constant { [6 x i8*] } { [6 x i8*] [i8* null, i8* bitcast ({ i8*, i8*, i8* }* @_ZTIN17FiniteElementBaseILi3EE16InternalDataBaseE to i8*), i8* bitcast (void (%"class.FiniteElementBase<3>::InternalDataBase"*)* @_ZN17FiniteElementBaseILi3EE16InternalDataBaseD1Ev to i8*), i8* bitcast (void (%"class.FiniteElementBase<3>::InternalDataBase"*)* @_ZN17FiniteElementBaseILi3EE16InternalDataBaseD0Ev to i8*), i8* bitcast (void (%"class.Mapping<3>::InternalDataBase"*)* @_ZN7MappingILi3EE16InternalDataBase16clear_first_cellEv to i8*), i8* bitcast (i32 (%"class.Mapping<3>::InternalDataBase"*)* @_ZNK7MappingILi3EE16InternalDataBase18memory_consumptionEv to i8*)] }, comdat, align 8
@_ZTV5TableILi2E6TensorILi1ELi3EEE = linkonce_odr unnamed_addr constant { [4 x i8*] } { [4 x i8*] [i8* null, i8* bitcast ({ i8*, i8*, i8* }* @_ZTI5TableILi2E6TensorILi1ELi3EEE to i8*), i8* bitcast (void (%class.Table.50*)* @_ZN5TableILi2E6TensorILi1ELi3EEED2Ev to i8*), i8* bitcast (void (%class.Table.50*)* @_ZN5TableILi2E6TensorILi1ELi3EEED0Ev to i8*)] }, comdat, align 8
@_ZTS5TableILi2E6TensorILi1ELi3EEE = linkonce_odr constant [30 x i8] c"5TableILi2E6TensorILi1ELi3EEE\00", comdat
@_ZTS9TableBaseILi2E6TensorILi1ELi3EEE = linkonce_odr constant [34 x i8] c"9TableBaseILi2E6TensorILi1ELi3EEE\00", comdat
@_ZTI9TableBaseILi2E6TensorILi1ELi3EEE = linkonce_odr constant { i8*, i8*, i8* } { i8* bitcast (i8** getelementptr inbounds (i8*, i8** @_ZTVN10__cxxabiv120__si_class_type_infoE, i64 2) to i8*), i8* getelementptr inbounds ([34 x i8], [34 x i8]* @_ZTS9TableBaseILi2E6TensorILi1ELi3EEE, i32 0, i32 0), i8* bitcast (i8** @_ZTI11Subscriptor to i8*) }, comdat
@_ZTI5TableILi2E6TensorILi1ELi3EEE = linkonce_odr constant { i8*, i8*, i8* } { i8* bitcast (i8** getelementptr inbounds (i8*, i8** @_ZTVN10__cxxabiv120__si_class_type_infoE, i64 2) to i8*), i8* getelementptr inbounds ([30 x i8], [30 x i8]* @_ZTS5TableILi2E6TensorILi1ELi3EEE, i32 0, i32 0), i8* bitcast ({ i8*, i8*, i8* }* @_ZTI9TableBaseILi2E6TensorILi1ELi3EEE to i8*) }, comdat
@_ZTV9TableBaseILi2E6TensorILi1ELi3EEE = linkonce_odr unnamed_addr constant { [4 x i8*] } { [4 x i8*] [i8* null, i8* bitcast ({ i8*, i8*, i8* }* @_ZTI9TableBaseILi2E6TensorILi1ELi3EEE to i8*), i8* bitcast (void (%class.TableBase.51*)* @_ZN9TableBaseILi2E6TensorILi1ELi3EEED2Ev to i8*), i8* bitcast (void (%class.TableBase.51*)* @_ZN9TableBaseILi2E6TensorILi1ELi3EEED0Ev to i8*)] }, comdat, align 8
@_ZTV5TableILi2E6TensorILi2ELi3EEE = linkonce_odr unnamed_addr constant { [4 x i8*] } { [4 x i8*] [i8* null, i8* bitcast ({ i8*, i8*, i8* }* @_ZTI5TableILi2E6TensorILi2ELi3EEE to i8*), i8* bitcast (void (%class.Table.54*)* @_ZN5TableILi2E6TensorILi2ELi3EEED2Ev to i8*), i8* bitcast (void (%class.Table.54*)* @_ZN5TableILi2E6TensorILi2ELi3EEED0Ev to i8*)] }, comdat, align 8
@_ZTS5TableILi2E6TensorILi2ELi3EEE = linkonce_odr constant [30 x i8] c"5TableILi2E6TensorILi2ELi3EEE\00", comdat
@_ZTS9TableBaseILi2E6TensorILi2ELi3EEE = linkonce_odr constant [34 x i8] c"9TableBaseILi2E6TensorILi2ELi3EEE\00", comdat
@_ZTI9TableBaseILi2E6TensorILi2ELi3EEE = linkonce_odr constant { i8*, i8*, i8* } { i8* bitcast (i8** getelementptr inbounds (i8*, i8** @_ZTVN10__cxxabiv120__si_class_type_infoE, i64 2) to i8*), i8* getelementptr inbounds ([34 x i8], [34 x i8]* @_ZTS9TableBaseILi2E6TensorILi2ELi3EEE, i32 0, i32 0), i8* bitcast (i8** @_ZTI11Subscriptor to i8*) }, comdat
@_ZTI5TableILi2E6TensorILi2ELi3EEE = linkonce_odr constant { i8*, i8*, i8* } { i8* bitcast (i8** getelementptr inbounds (i8*, i8** @_ZTVN10__cxxabiv120__si_class_type_infoE, i64 2) to i8*), i8* getelementptr inbounds ([30 x i8], [30 x i8]* @_ZTS5TableILi2E6TensorILi2ELi3EEE, i32 0, i32 0), i8* bitcast ({ i8*, i8*, i8* }* @_ZTI9TableBaseILi2E6TensorILi2ELi3EEE to i8*) }, comdat
@_ZTV9TableBaseILi2E6TensorILi2ELi3EEE = linkonce_odr unnamed_addr constant { [4 x i8*] } { [4 x i8*] [i8* null, i8* bitcast ({ i8*, i8*, i8* }* @_ZTI9TableBaseILi2E6TensorILi2ELi3EEE to i8*), i8* bitcast (void (%class.TableBase.55*)* @_ZN9TableBaseILi2E6TensorILi2ELi3EEED2Ev to i8*), i8* bitcast (void (%class.TableBase.55*)* @_ZN9TableBaseILi2E6TensorILi2ELi3EEED0Ev to i8*)] }, comdat, align 8
@_ZZN12GeometryInfoILi3EE25vertices_adjacent_to_lineEjjE14vertex_indices = linkonce_odr constant [12 x [2 x i32]] [[2 x i32] [i32 0, i32 1], [2 x i32] [i32 1, i32 2], [2 x i32] [i32 3, i32 2], [2 x i32] [i32 0, i32 3], [2 x i32] [i32 4, i32 5], [2 x i32] [i32 5, i32 6], [2 x i32] [i32 7, i32 6], [2 x i32] [i32 4, i32 7], [2 x i32] [i32 0, i32 4], [2 x i32] [i32 1, i32 5], [2 x i32] [i32 2, i32 6], [2 x i32] [i32 3, i32 7]], comdat, align 16
@_ZZN12GeometryInfoILi2EE25vertices_adjacent_to_lineEjjE14vertex_indices = linkonce_odr constant [4 x [2 x i32]] [[2 x i32] [i32 0, i32 1], [2 x i32] [i32 1, i32 2], [2 x i32] [i32 3, i32 2], [2 x i32] [i32 0, i32 3]], comdat, align 16
@.str.3 = private unnamed_addr constant [49 x i8] c"cannot create std::vector larger than max_size()\00", align 1
@.str.4 = private unnamed_addr constant [23 x i8] c"vector::_M_fill_insert\00", align 1
@x = common global i32 0
@y = common global i32 0
@x.1 = common global i32 0
@y.2 = common global i32 0
@x.3 = common global i32 0
@y.4 = common global i32 0
@x.5 = common global i32 0
@y.6 = common global i32 0
@x.7 = common global i32 0
@y.8 = common global i32 0
@x.9 = common global i32 0
@y.10 = common global i32 0
@x.11 = common global i32 0
@y.12 = common global i32 0
@x.13 = common global i32 0
@y.14 = common global i32 0
@x.15 = common global i32 0
@y.16 = common global i32 0
@x.17 = common global i32 0
@y.18 = common global i32 0
@x.19 = common global i32 0
@y.20 = common global i32 0
@x.21 = common global i32 0
@y.22 = common global i32 0
@x.23 = common global i32 0
@y.24 = common global i32 0
@x.25 = common global i32 0
@y.26 = common global i32 0
@x.27 = common global i32 0
@y.28 = common global i32 0
@x.29 = common global i32 0
@y.30 = common global i32 0
@x.31 = common global i32 0
@y.32 = common global i32 0
@x.33 = common global i32 0
@y.34 = common global i32 0
@x.35 = common global i32 0
@y.36 = common global i32 0
@x.37 = common global i32 0
@y.38 = common global i32 0
@x.39 = common global i32 0
@y.40 = common global i32 0
@x.41 = common global i32 0
@y.42 = common global i32 0
@x.43 = common global i32 0
@y.44 = common global i32 0
@x.45 = common global i32 0
@y.46 = common global i32 0
@x.47 = common global i32 0
@y.48 = common global i32 0
@x.49 = common global i32 0
@y.50 = common global i32 0
@x.51 = common global i32 0
@y.52 = common global i32 0
@x.53 = common global i32 0
@y.54 = common global i32 0
@x.55 = common global i32 0
@y.56 = common global i32 0
@x.57 = common global i32 0
@y.58 = common global i32 0
@x.59 = common global i32 0
@y.60 = common global i32 0
@x.61 = common global i32 0
@y.62 = common global i32 0
@x.63 = common global i32 0
@y.64 = common global i32 0
@x.65 = common global i32 0
@y.66 = common global i32 0
@x.67 = common global i32 0
@y.68 = common global i32 0
@x.69 = common global i32 0
@y.70 = common global i32 0
@x.71 = common global i32 0
@y.72 = common global i32 0
@x.73 = common global i32 0
@y.74 = common global i32 0
@x.75 = common global i32 0
@y.76 = common global i32 0
@x.77 = common global i32 0
@y.78 = common global i32 0
@x.79 = common global i32 0
@y.80 = common global i32 0
@x.81 = common global i32 0
@y.82 = common global i32 0
@x.83 = common global i32 0
@y.84 = common global i32 0
@x.85 = common global i32 0
@y.86 = common global i32 0
@x.87 = common global i32 0
@y.88 = common global i32 0
@x.89 = common global i32 0
@y.90 = common global i32 0
@x.91 = common global i32 0
@y.92 = common global i32 0
@x.93 = common global i32 0
@y.94 = common global i32 0
@x.95 = common global i32 0
@y.96 = common global i32 0
@x.97 = common global i32 0
@y.98 = common global i32 0
@x.99 = common global i32 0
@y.100 = common global i32 0
@x.101 = common global i32 0
@y.102 = common global i32 0
@x.103 = common global i32 0
@y.104 = common global i32 0
@x.105 = common global i32 0
@y.106 = common global i32 0
@x.107 = common global i32 0
@y.108 = common global i32 0
@x.109 = common global i32 0
@y.110 = common global i32 0
@x.111 = common global i32 0
@y.112 = common global i32 0
@x.113 = common global i32 0
@y.114 = common global i32 0
@x.115 = common global i32 0
@y.116 = common global i32 0
@x.117 = common global i32 0
@y.118 = common global i32 0
@x.119 = common global i32 0
@y.120 = common global i32 0
@x.121 = common global i32 0
@y.122 = common global i32 0
@x.123 = common global i32 0
@y.124 = common global i32 0
@x.125 = common global i32 0
@y.126 = common global i32 0
@x.127 = common global i32 0
@y.128 = common global i32 0
@x.129 = common global i32 0
@y.130 = common global i32 0
@x.131 = common global i32 0
@y.132 = common global i32 0
@x.133 = common global i32 0
@y.134 = common global i32 0
@x.135 = common global i32 0
@y.136 = common global i32 0
@x.137 = common global i32 0
@y.138 = common global i32 0
@x.139 = common global i32 0
@y.140 = common global i32 0
@x.141 = common global i32 0
@y.142 = common global i32 0
@x.143 = common global i32 0
@y.144 = common global i32 0
@x.145 = common global i32 0
@y.146 = common global i32 0
@x.147 = common global i32 0
@y.148 = common global i32 0
@x.149 = common global i32 0
@y.150 = common global i32 0
@x.151 = common global i32 0
@y.152 = common global i32 0
@x.153 = common global i32 0
@y.154 = common global i32 0
@x.155 = common global i32 0
@y.156 = common global i32 0
@x.157 = common global i32 0
@y.158 = common global i32 0
@x.159 = common global i32 0
@y.160 = common global i32 0
@x.161 = common global i32 0
@y.162 = common global i32 0
@x.163 = common global i32 0
@y.164 = common global i32 0
@x.165 = common global i32 0
@y.166 = common global i32 0
@x.167 = common global i32 0
@y.168 = common global i32 0
@x.169 = common global i32 0
@y.170 = common global i32 0
@x.171 = common global i32 0
@y.172 = common global i32 0
@x.173 = common global i32 0
@y.174 = common global i32 0
@x.175 = common global i32 0
@y.176 = common global i32 0
@x.177 = common global i32 0
@y.178 = common global i32 0
@x.179 = common global i32 0
@y.180 = common global i32 0
@x.181 = common global i32 0
@y.182 = common global i32 0
@x.183 = common global i32 0
@y.184 = common global i32 0
@x.185 = common global i32 0
@y.186 = common global i32 0
@x.187 = common global i32 0
@y.188 = common global i32 0
@x.189 = common global i32 0
@y.190 = common global i32 0
@x.191 = common global i32 0
@y.192 = common global i32 0
@x.193 = common global i32 0
@y.194 = common global i32 0
@x.195 = common global i32 0
@y.196 = common global i32 0
@x.197 = common global i32 0
@y.198 = common global i32 0
@x.199 = common global i32 0
@y.200 = common global i32 0
@x.201 = common global i32 0
@y.202 = common global i32 0
@x.203 = common global i32 0
@y.204 = common global i32 0
@x.205 = common global i32 0
@y.206 = common global i32 0
@x.207 = common global i32 0
@y.208 = common global i32 0
@x.209 = common global i32 0
@y.210 = common global i32 0
@x.211 = common global i32 0
@y.212 = common global i32 0
@x.213 = common global i32 0
@y.214 = common global i32 0
@x.215 = common global i32 0
@y.216 = common global i32 0
@x.217 = common global i32 0
@y.218 = common global i32 0
@x.219 = common global i32 0
@y.220 = common global i32 0
@x.221 = common global i32 0
@y.222 = common global i32 0
@x.223 = common global i32 0
@y.224 = common global i32 0
@x.225 = common global i32 0
@y.226 = common global i32 0
@x.227 = common global i32 0
@y.228 = common global i32 0
@x.229 = common global i32 0
@y.230 = common global i32 0
@x.231 = common global i32 0
@y.232 = common global i32 0
@x.233 = common global i32 0
@y.234 = common global i32 0
@x.235 = common global i32 0
@y.236 = common global i32 0
@x.237 = common global i32 0
@y.238 = common global i32 0
@x.239 = common global i32 0
@y.240 = common global i32 0
@x.241 = common global i32 0
@y.242 = common global i32 0
@x.243 = common global i32 0
@y.244 = common global i32 0
@x.245 = common global i32 0
@y.246 = common global i32 0
@x.247 = common global i32 0
@y.248 = common global i32 0
@x.249 = common global i32 0
@y.250 = common global i32 0
@x.251 = common global i32 0
@y.252 = common global i32 0
@x.253 = common global i32 0
@y.254 = common global i32 0
@x.255 = common global i32 0
@y.256 = common global i32 0
@x.257 = common global i32 0
@y.258 = common global i32 0
@x.259 = common global i32 0
@y.260 = common global i32 0
@x.261 = common global i32 0
@y.262 = common global i32 0
@x.263 = common global i32 0
@y.264 = common global i32 0
@x.265 = common global i32 0
@y.266 = common global i32 0
@x.267 = common global i32 0
@y.268 = common global i32 0
@x.269 = common global i32 0
@y.270 = common global i32 0
@x.271 = common global i32 0
@y.272 = common global i32 0
@x.273 = common global i32 0
@y.274 = common global i32 0
@x.275 = common global i32 0
@y.276 = common global i32 0
@x.277 = common global i32 0
@y.278 = common global i32 0
@x.279 = common global i32 0
@y.280 = common global i32 0
@x.281 = common global i32 0
@y.282 = common global i32 0
@x.283 = common global i32 0
@y.284 = common global i32 0
@x.285 = common global i32 0
@y.286 = common global i32 0
@x.287 = common global i32 0
@y.288 = common global i32 0
@x.289 = common global i32 0
@y.290 = common global i32 0
@x.291 = common global i32 0
@y.292 = common global i32 0
@x.293 = common global i32 0
@y.294 = common global i32 0
@x.295 = common global i32 0
@y.296 = common global i32 0
@x.297 = common global i32 0
@y.298 = common global i32 0
@x.299 = common global i32 0
@y.300 = common global i32 0
@x.301 = common global i32 0
@y.302 = common global i32 0
@x.303 = common global i32 0
@y.304 = common global i32 0
@x.305 = common global i32 0
@y.306 = common global i32 0
@x.307 = common global i32 0
@y.308 = common global i32 0
@x.309 = common global i32 0
@y.310 = common global i32 0
@x.311 = common global i32 0
@y.312 = common global i32 0
@x.313 = common global i32 0
@y.314 = common global i32 0
@x.315 = common global i32 0
@y.316 = common global i32 0
@x.317 = common global i32 0
@y.318 = common global i32 0
@x.319 = common global i32 0
@y.320 = common global i32 0
@x.321 = common global i32 0
@y.322 = common global i32 0
@x.323 = common global i32 0
@y.324 = common global i32 0
@x.325 = common global i32 0
@y.326 = common global i32 0
@x.327 = common global i32 0
@y.328 = common global i32 0
@x.329 = common global i32 0
@y.330 = common global i32 0
@x.331 = common global i32 0
@y.332 = common global i32 0
@x.333 = common global i32 0
@y.334 = common global i32 0
@x.335 = common global i32 0
@y.336 = common global i32 0
@x.337 = common global i32 0
@y.338 = common global i32 0
@x.339 = common global i32 0
@y.340 = common global i32 0
@x.341 = common global i32 0
@y.342 = common global i32 0
@x.343 = common global i32 0
@y.344 = common global i32 0
@x.345 = common global i32 0
@y.346 = common global i32 0
@x.347 = common global i32 0
@y.348 = common global i32 0
@x.349 = common global i32 0
@y.350 = common global i32 0
@x.351 = common global i32 0
@y.352 = common global i32 0
@x.353 = common global i32 0
@y.354 = common global i32 0
@x.355 = common global i32 0
@y.356 = common global i32 0
@x.357 = common global i32 0
@y.358 = common global i32 0
@x.359 = common global i32 0
@y.360 = common global i32 0
@x.361 = common global i32 0
@y.362 = common global i32 0
@x.363 = common global i32 0
@y.364 = common global i32 0
@x.365 = common global i32 0
@y.366 = common global i32 0
@x.367 = common global i32 0
@y.368 = common global i32 0
@x.369 = common global i32 0
@y.370 = common global i32 0
@x.371 = common global i32 0
@y.372 = common global i32 0
@x.373 = common global i32 0
@y.374 = common global i32 0
@x.375 = common global i32 0
@y.376 = common global i32 0
@x.377 = common global i32 0
@y.378 = common global i32 0
@x.379 = common global i32 0
@y.380 = common global i32 0
@x.381 = common global i32 0
@y.382 = common global i32 0
@x.383 = common global i32 0
@y.384 = common global i32 0
@x.385 = common global i32 0
@y.386 = common global i32 0
@x.387 = common global i32 0
@y.388 = common global i32 0
@x.389 = common global i32 0
@y.390 = common global i32 0
@x.391 = common global i32 0
@y.392 = common global i32 0
@x.393 = common global i32 0
@y.394 = common global i32 0
@x.395 = common global i32 0
@y.396 = common global i32 0
@x.397 = common global i32 0
@y.398 = common global i32 0
@x.399 = common global i32 0
@y.400 = common global i32 0
@x.401 = common global i32 0
@y.402 = common global i32 0
@x.403 = common global i32 0
@y.404 = common global i32 0
@x.405 = common global i32 0
@y.406 = common global i32 0
@x.407 = common global i32 0
@y.408 = common global i32 0
@x.409 = common global i32 0
@y.410 = common global i32 0
@x.411 = common global i32 0
@y.412 = common global i32 0
@x.413 = common global i32 0
@y.414 = common global i32 0
@x.415 = common global i32 0
@y.416 = common global i32 0
@x.417 = common global i32 0
@y.418 = common global i32 0
@x.419 = common global i32 0
@y.420 = common global i32 0
@x.421 = common global i32 0
@y.422 = common global i32 0
@x.423 = common global i32 0
@y.424 = common global i32 0
@x.425 = common global i32 0
@y.426 = common global i32 0
@x.427 = common global i32 0
@y.428 = common global i32 0
@x.429 = common global i32 0
@y.430 = common global i32 0
@x.431 = common global i32 0
@y.432 = common global i32 0
@x.433 = common global i32 0
@y.434 = common global i32 0
@x.435 = common global i32 0
@y.436 = common global i32 0
@x.437 = common global i32 0
@y.438 = common global i32 0
@x.439 = common global i32 0
@y.440 = common global i32 0
@x.441 = common global i32 0
@y.442 = common global i32 0
@x.443 = common global i32 0
@y.444 = common global i32 0
@x.445 = common global i32 0
@y.446 = common global i32 0
@x.447 = common global i32 0
@y.448 = common global i32 0
@x.449 = common global i32 0
@y.450 = common global i32 0
@x.451 = common global i32 0
@y.452 = common global i32 0
@x.453 = common global i32 0
@y.454 = common global i32 0
@x.455 = common global i32 0
@y.456 = common global i32 0
@x.457 = common global i32 0
@y.458 = common global i32 0
@x.459 = common global i32 0
@y.460 = common global i32 0
@x.461 = common global i32 0
@y.462 = common global i32 0
@x.463 = common global i32 0
@y.464 = common global i32 0
@x.465 = common global i32 0
@y.466 = common global i32 0
@x.467 = common global i32 0
@y.468 = common global i32 0
@x.469 = common global i32 0
@y.470 = common global i32 0
@x.471 = common global i32 0
@y.472 = common global i32 0
@x.473 = common global i32 0
@y.474 = common global i32 0
@x.475 = common global i32 0
@y.476 = common global i32 0
@x.477 = common global i32 0
@y.478 = common global i32 0
@x.479 = common global i32 0
@y.480 = common global i32 0
@x.481 = common global i32 0
@y.482 = common global i32 0
@x.483 = common global i32 0
@y.484 = common global i32 0
@x.485 = common global i32 0
@y.486 = common global i32 0
@x.487 = common global i32 0
@y.488 = common global i32 0
@x.489 = common global i32 0
@y.490 = common global i32 0
@x.491 = common global i32 0
@y.492 = common global i32 0
@x.493 = common global i32 0
@y.494 = common global i32 0
@x.495 = common global i32 0
@y.496 = common global i32 0
@x.497 = common global i32 0
@y.498 = common global i32 0
@x.499 = common global i32 0
@y.500 = common global i32 0
@x.501 = common global i32 0
@y.502 = common global i32 0
@x.503 = common global i32 0
@y.504 = common global i32 0
@x.505 = common global i32 0
@y.506 = common global i32 0
@x.507 = common global i32 0
@y.508 = common global i32 0
@x.509 = common global i32 0
@y.510 = common global i32 0
@x.511 = common global i32 0
@y.512 = common global i32 0
@x.513 = common global i32 0
@y.514 = common global i32 0
@x.515 = common global i32 0
@y.516 = common global i32 0
@x.517 = common global i32 0
@y.518 = common global i32 0
@x.519 = common global i32 0
@y.520 = common global i32 0
@x.521 = common global i32 0
@y.522 = common global i32 0
@x.523 = common global i32 0
@y.524 = common global i32 0
@x.525 = common global i32 0
@y.526 = common global i32 0
@x.527 = common global i32 0
@y.528 = common global i32 0
@x.529 = common global i32 0
@y.530 = common global i32 0
@x.531 = common global i32 0
@y.532 = common global i32 0
@x.533 = common global i32 0
@y.534 = common global i32 0
@x.535 = common global i32 0
@y.536 = common global i32 0
@x.537 = common global i32 0
@y.538 = common global i32 0
@x.539 = common global i32 0
@y.540 = common global i32 0
@x.541 = common global i32 0
@y.542 = common global i32 0
@x.543 = common global i32 0
@y.544 = common global i32 0
@x.545 = common global i32 0
@y.546 = common global i32 0
@x.547 = common global i32 0
@y.548 = common global i32 0
@x.549 = common global i32 0
@y.550 = common global i32 0
@x.551 = common global i32 0
@y.552 = common global i32 0
@x.553 = common global i32 0
@y.554 = common global i32 0
@x.555 = common global i32 0
@y.556 = common global i32 0
@x.557 = common global i32 0
@y.558 = common global i32 0
@x.559 = common global i32 0
@y.560 = common global i32 0
@x.561 = common global i32 0
@y.562 = common global i32 0
@x.563 = common global i32 0
@y.564 = common global i32 0
@x.565 = common global i32 0
@y.566 = common global i32 0
@x.567 = common global i32 0
@y.568 = common global i32 0
@x.569 = common global i32 0
@y.570 = common global i32 0
@x.571 = common global i32 0
@y.572 = common global i32 0
@x.573 = common global i32 0
@y.574 = common global i32 0
@x.575 = common global i32 0
@y.576 = common global i32 0
@x.577 = common global i32 0
@y.578 = common global i32 0
@x.579 = common global i32 0
@y.580 = common global i32 0
@x.581 = common global i32 0
@y.582 = common global i32 0
@x.583 = common global i32 0
@y.584 = common global i32 0
@x.585 = common global i32 0
@y.586 = common global i32 0
@x.587 = common global i32 0
@y.588 = common global i32 0
@x.589 = common global i32 0
@y.590 = common global i32 0
@x.591 = common global i32 0
@y.592 = common global i32 0
@x.593 = common global i32 0
@y.594 = common global i32 0
@x.595 = common global i32 0
@y.596 = common global i32 0
@x.597 = common global i32 0
@y.598 = common global i32 0
@x.599 = common global i32 0
@y.600 = common global i32 0
@x.601 = common global i32 0
@y.602 = common global i32 0
@x.603 = common global i32 0
@y.604 = common global i32 0
@x.605 = common global i32 0
@y.606 = common global i32 0
@x.607 = common global i32 0
@y.608 = common global i32 0
@x.609 = common global i32 0
@y.610 = common global i32 0
@x.611 = common global i32 0
@y.612 = common global i32 0
@x.613 = common global i32 0
@y.614 = common global i32 0
@x.615 = common global i32 0
@y.616 = common global i32 0
@x.617 = common global i32 0
@y.618 = common global i32 0
@x.619 = common global i32 0
@y.620 = common global i32 0
@x.621 = common global i32 0
@y.622 = common global i32 0
@x.623 = common global i32 0
@y.624 = common global i32 0
@x.625 = common global i32 0
@y.626 = common global i32 0
@x.627 = common global i32 0
@y.628 = common global i32 0
@x.629 = common global i32 0
@y.630 = common global i32 0
@x.631 = common global i32 0
@y.632 = common global i32 0
@x.633 = common global i32 0
@y.634 = common global i32 0
@x.635 = common global i32 0
@y.636 = common global i32 0
@x.637 = common global i32 0
@y.638 = common global i32 0
@x.639 = common global i32 0
@y.640 = common global i32 0
@x.641 = common global i32 0
@y.642 = common global i32 0
@x.643 = common global i32 0
@y.644 = common global i32 0
@x.645 = common global i32 0
@y.646 = common global i32 0
@x.647 = common global i32 0
@y.648 = common global i32 0
@x.649 = common global i32 0
@y.650 = common global i32 0
@x.651 = common global i32 0
@y.652 = common global i32 0
@x.653 = common global i32 0
@y.654 = common global i32 0
@x.655 = common global i32 0
@y.656 = common global i32 0
@x.657 = common global i32 0
@y.658 = common global i32 0
@x.659 = common global i32 0
@y.660 = common global i32 0
@x.661 = common global i32 0
@y.662 = common global i32 0
@x.663 = common global i32 0
@y.664 = common global i32 0
@x.665 = common global i32 0
@y.666 = common global i32 0
@x.667 = common global i32 0
@y.668 = common global i32 0
@x.669 = common global i32 0
@y.670 = common global i32 0
@x.671 = common global i32 0
@y.672 = common global i32 0
@x.673 = common global i32 0
@y.674 = common global i32 0
@x.675 = common global i32 0
@y.676 = common global i32 0
@x.677 = common global i32 0
@y.678 = common global i32 0
@x.679 = common global i32 0
@y.680 = common global i32 0
@x.681 = common global i32 0
@y.682 = common global i32 0
@x.683 = common global i32 0
@y.684 = common global i32 0
@x.685 = common global i32 0
@y.686 = common global i32 0
@x.687 = common global i32 0
@y.688 = common global i32 0
@x.689 = common global i32 0
@y.690 = common global i32 0
@x.691 = common global i32 0
@y.692 = common global i32 0
@x.693 = common global i32 0
@y.694 = common global i32 0
@x.695 = common global i32 0
@y.696 = common global i32 0
@x.697 = common global i32 0
@y.698 = common global i32 0
@x.699 = common global i32 0
@y.700 = common global i32 0
@x.701 = common global i32 0
@y.702 = common global i32 0
@x.703 = common global i32 0
@y.704 = common global i32 0
@x.705 = common global i32 0
@y.706 = common global i32 0
@x.707 = common global i32 0
@y.708 = common global i32 0
@x.709 = common global i32 0
@y.710 = common global i32 0
@x.711 = common global i32 0
@y.712 = common global i32 0
@x.713 = common global i32 0
@y.714 = common global i32 0
@x.715 = common global i32 0
@y.716 = common global i32 0
@x.717 = common global i32 0
@y.718 = common global i32 0
@x.719 = common global i32 0
@y.720 = common global i32 0
@x.721 = common global i32 0
@y.722 = common global i32 0
@x.723 = common global i32 0
@y.724 = common global i32 0
@x.725 = common global i32 0
@y.726 = common global i32 0
@x.727 = common global i32 0
@y.728 = common global i32 0
@x.729 = common global i32 0
@y.730 = common global i32 0
@x.731 = common global i32 0
@y.732 = common global i32 0
@x.733 = common global i32 0
@y.734 = common global i32 0
@x.735 = common global i32 0
@y.736 = common global i32 0
@x.737 = common global i32 0
@y.738 = common global i32 0
@x.739 = common global i32 0
@y.740 = common global i32 0
@x.741 = common global i32 0
@y.742 = common global i32 0
@x.743 = common global i32 0
@y.744 = common global i32 0
@x.745 = common global i32 0
@y.746 = common global i32 0
@x.747 = common global i32 0
@y.748 = common global i32 0
@x.749 = common global i32 0
@y.750 = common global i32 0
@x.751 = common global i32 0
@y.752 = common global i32 0
@x.753 = common global i32 0
@y.754 = common global i32 0
@x.755 = common global i32 0
@y.756 = common global i32 0
@x.757 = common global i32 0
@y.758 = common global i32 0
@x.759 = common global i32 0
@y.760 = common global i32 0
@x.761 = common global i32 0
@y.762 = common global i32 0
@x.763 = common global i32 0
@y.764 = common global i32 0
@x.765 = common global i32 0
@y.766 = common global i32 0
@x.767 = common global i32 0
@y.768 = common global i32 0
@x.769 = common global i32 0
@y.770 = common global i32 0
@x.771 = common global i32 0
@y.772 = common global i32 0
@x.773 = common global i32 0
@y.774 = common global i32 0
@x.775 = common global i32 0
@y.776 = common global i32 0
@x.777 = common global i32 0
@y.778 = common global i32 0
@x.779 = common global i32 0
@y.780 = common global i32 0
@x.781 = common global i32 0
@y.782 = common global i32 0
@x.783 = common global i32 0
@y.784 = common global i32 0
@x.785 = common global i32 0
@y.786 = common global i32 0
@x.787 = common global i32 0
@y.788 = common global i32 0
@x.789 = common global i32 0
@y.790 = common global i32 0
@x.791 = common global i32 0
@y.792 = common global i32 0
@x.793 = common global i32 0
@y.794 = common global i32 0
@x.795 = common global i32 0
@y.796 = common global i32 0
@x.797 = common global i32 0
@y.798 = common global i32 0
@x.799 = common global i32 0
@y.800 = common global i32 0
@x.801 = common global i32 0
@y.802 = common global i32 0
@x.803 = common global i32 0
@y.804 = common global i32 0
@x.805 = common global i32 0
@y.806 = common global i32 0
@x.807 = common global i32 0
@y.808 = common global i32 0
@x.809 = common global i32 0
@y.810 = common global i32 0
@x.811 = common global i32 0
@y.812 = common global i32 0
@x.813 = common global i32 0
@y.814 = common global i32 0
@x.815 = common global i32 0
@y.816 = common global i32 0
@x.817 = common global i32 0
@y.818 = common global i32 0
@x.819 = common global i32 0
@y.820 = common global i32 0
@x.821 = common global i32 0
@y.822 = common global i32 0
@x.823 = common global i32 0
@y.824 = common global i32 0
@x.825 = common global i32 0
@y.826 = common global i32 0
@x.827 = common global i32 0
@y.828 = common global i32 0
@x.829 = common global i32 0
@y.830 = common global i32 0
@x.831 = common global i32 0
@y.832 = common global i32 0
@x.833 = common global i32 0
@y.834 = common global i32 0
@x.835 = common global i32 0
@y.836 = common global i32 0
@x.837 = common global i32 0
@y.838 = common global i32 0
@x.839 = common global i32 0
@y.840 = common global i32 0
@x.841 = common global i32 0
@y.842 = common global i32 0
@x.843 = common global i32 0
@y.844 = common global i32 0
@x.845 = common global i32 0
@y.846 = common global i32 0
@x.847 = common global i32 0
@y.848 = common global i32 0
@x.849 = common global i32 0
@y.850 = common global i32 0
@x.851 = common global i32 0
@y.852 = common global i32 0
@x.853 = common global i32 0
@y.854 = common global i32 0
@x.855 = common global i32 0
@y.856 = common global i32 0
@x.857 = common global i32 0
@y.858 = common global i32 0
@x.859 = common global i32 0
@y.860 = common global i32 0
@x.861 = common global i32 0
@y.862 = common global i32 0
@x.863 = common global i32 0
@y.864 = common global i32 0
@x.865 = common global i32 0
@y.866 = common global i32 0
@x.867 = common global i32 0
@y.868 = common global i32 0
@x.869 = common global i32 0
@y.870 = common global i32 0
@x.871 = common global i32 0
@y.872 = common global i32 0
@x.873 = common global i32 0
@y.874 = common global i32 0
@x.875 = common global i32 0
@y.876 = common global i32 0
@x.877 = common global i32 0
@y.878 = common global i32 0
@x.879 = common global i32 0
@y.880 = common global i32 0
@x.881 = common global i32 0
@y.882 = common global i32 0
@x.883 = common global i32 0
@y.884 = common global i32 0
@x.885 = common global i32 0
@y.886 = common global i32 0
@x.887 = common global i32 0
@y.888 = common global i32 0
@x.889 = common global i32 0
@y.890 = common global i32 0
@x.891 = common global i32 0
@y.892 = common global i32 0
@x.893 = common global i32 0
@y.894 = common global i32 0
@x.895 = common global i32 0
@y.896 = common global i32 0
@x.897 = common global i32 0
@y.898 = common global i32 0
@x.899 = common global i32 0
@y.900 = common global i32 0
@x.901 = common global i32 0
@y.902 = common global i32 0
@x.903 = common global i32 0
@y.904 = common global i32 0
@x.905 = common global i32 0
@y.906 = common global i32 0
@x.907 = common global i32 0
@y.908 = common global i32 0
@x.909 = common global i32 0
@y.910 = common global i32 0
@x.911 = common global i32 0
@y.912 = common global i32 0
@x.913 = common global i32 0
@y.914 = common global i32 0
@x.915 = common global i32 0
@y.916 = common global i32 0
@x.917 = common global i32 0
@y.918 = common global i32 0
@x.919 = common global i32 0
@y.920 = common global i32 0
@x.921 = common global i32 0
@y.922 = common global i32 0
@x.923 = common global i32 0
@y.924 = common global i32 0
@x.925 = common global i32 0
@y.926 = common global i32 0
@x.927 = common global i32 0
@y.928 = common global i32 0
@x.929 = common global i32 0
@y.930 = common global i32 0
@x.931 = common global i32 0
@y.932 = common global i32 0
@x.933 = common global i32 0
@y.934 = common global i32 0
@x.935 = common global i32 0
@y.936 = common global i32 0
@x.937 = common global i32 0
@y.938 = common global i32 0
@x.939 = common global i32 0
@y.940 = common global i32 0
@x.941 = common global i32 0
@y.942 = common global i32 0
@x.943 = common global i32 0
@y.944 = common global i32 0
@x.945 = common global i32 0
@y.946 = common global i32 0
@x.947 = common global i32 0
@y.948 = common global i32 0
@x.949 = common global i32 0
@y.950 = common global i32 0
@x.951 = common global i32 0
@y.952 = common global i32 0
@x.953 = common global i32 0
@y.954 = common global i32 0
@x.955 = common global i32 0
@y.956 = common global i32 0
@x.957 = common global i32 0
@y.958 = common global i32 0
@x.959 = common global i32 0
@y.960 = common global i32 0
@x.961 = common global i32 0
@y.962 = common global i32 0
@x.963 = common global i32 0
@y.964 = common global i32 0
@x.965 = common global i32 0
@y.966 = common global i32 0
@x.967 = common global i32 0
@y.968 = common global i32 0
@x.969 = common global i32 0
@y.970 = common global i32 0
@x.971 = common global i32 0
@y.972 = common global i32 0

@_ZN10FE_NedelecILi3EEC1Ej = weak_odr alias void (%class.FE_Nedelec*, i32), void (%class.FE_Nedelec*, i32)* @_ZN10FE_NedelecILi3EEC2Ej

; Function Attrs: noinline uwtable
define double @_ZNK10FE_NedelecILi3EE21shape_value_componentEjRK5PointILi3EEj(%class.FE_Nedelec*, i32, %class.Point* dereferenceable(24), i32) unnamed_addr #0 align 2 {
  %5 = alloca double, align 8
  %6 = alloca %class.FE_Nedelec*, align 8
  %7 = alloca i32, align 4
  %8 = alloca %class.Point*, align 8
  %9 = alloca i32, align 4
  %10 = alloca i32, align 4
  %11 = alloca double, align 8
  %12 = alloca double, align 8
  %13 = alloca double, align 8
  store %class.FE_Nedelec* %0, %class.FE_Nedelec** %6, align 8
  store i32 %1, i32* %7, align 4
  store %class.Point* %2, %class.Point** %8, align 8
  store i32 %3, i32* %9, align 4
  %14 = load %class.FE_Nedelec*, %class.FE_Nedelec** %6, align 8
  store i32 3, i32* %10, align 4
  %15 = getelementptr inbounds %class.FE_Nedelec, %class.FE_Nedelec* %14, i32 0, i32 1
  %16 = load i32, i32* %15, align 4
  switch i32 %16, label %206 [
    i32 1, label %17
  ]

; <label>:17:                                     ; preds = %4
  %18 = load i32, i32* %7, align 4
  %19 = icmp ult i32 %18, 8
  br i1 %19, label %20, label %50

; <label>:20:                                     ; preds = %17
  %21 = load i32, i32* %7, align 4
  %22 = urem i32 %21, 2
  %23 = icmp eq i32 %22, 0
  br i1 %23, label %24, label %27

; <label>:24:                                     ; preds = %20
  %25 = load i32, i32* %9, align 4
  %26 = icmp ne i32 %25, 0
  br i1 %26, label %72, label %27

; <label>:27:                                     ; preds = %24, %20
  %28 = load i32, i32* %7, align 4
  %29 = urem i32 %28, 2
  %30 = icmp eq i32 %29, 1
  br i1 %30, label %31, label %50

; <label>:31:                                     ; preds = %27
  %32 = load i32, i32* @x
  %33 = load i32, i32* @y
  %34 = sub i32 %32, 1
  %35 = mul i32 %32, %34
  %36 = urem i32 %35, 2
  %37 = icmp eq i32 %36, 0
  %38 = icmp slt i32 %33, 10
  %39 = or i1 %37, %38
  br i1 %39, label %originalBB, label %originalBBalteredBB

originalBB:                                       ; preds = %31, %originalBBalteredBB
  %40 = load i32, i32* %9, align 4
  %41 = icmp ne i32 %40, 2
  %42 = load i32, i32* @x
  %43 = load i32, i32* @y
  %44 = sub i32 %42, 1
  %45 = mul i32 %42, %44
  %46 = urem i32 %45, 2
  %47 = icmp eq i32 %46, 0
  %48 = icmp slt i32 %43, 10
  %49 = or i1 %47, %48
  br i1 %49, label %originalBBpart2, label %originalBBalteredBB

originalBBpart2:                                  ; preds = %originalBB
  br i1 %41, label %72, label %50

; <label>:50:                                     ; preds = %originalBBpart2, %27, %17
  %51 = load i32, i32* %7, align 4
  %52 = icmp uge i32 %51, 8
  br i1 %52, label %53, label %89

; <label>:53:                                     ; preds = %50
  %54 = load i32, i32* @x
  %55 = load i32, i32* @y
  %56 = sub i32 %54, 1
  %57 = mul i32 %54, %56
  %58 = urem i32 %57, 2
  %59 = icmp eq i32 %58, 0
  %60 = icmp slt i32 %55, 10
  %61 = or i1 %59, %60
  br i1 %61, label %originalBB1, label %originalBB1alteredBB

originalBB1:                                      ; preds = %53, %originalBB1alteredBB
  %62 = load i32, i32* %9, align 4
  %63 = icmp ne i32 %62, 1
  %64 = load i32, i32* @x
  %65 = load i32, i32* @y
  %66 = sub i32 %64, 1
  %67 = mul i32 %64, %66
  %68 = urem i32 %67, 2
  %69 = icmp eq i32 %68, 0
  %70 = icmp slt i32 %65, 10
  %71 = or i1 %69, %70
  br i1 %71, label %originalBBpart24, label %originalBB1alteredBB

originalBBpart24:                                 ; preds = %originalBB1
  br i1 %63, label %72, label %89

; <label>:72:                                     ; preds = %originalBBpart24, %originalBBpart2, %24
  %73 = load i32, i32* @x
  %74 = load i32, i32* @y
  %75 = sub i32 %73, 1
  %76 = mul i32 %73, %75
  %77 = urem i32 %76, 2
  %78 = icmp eq i32 %77, 0
  %79 = icmp slt i32 %74, 10
  %80 = or i1 %78, %79
  br i1 %80, label %originalBB6, label %originalBB6alteredBB

originalBB6:                                      ; preds = %72, %originalBB6alteredBB
  store double 0.000000e+00, double* %5, align 8
  %81 = load i32, i32* @x
  %82 = load i32, i32* @y
  %83 = sub i32 %81, 1
  %84 = mul i32 %81, %83
  %85 = urem i32 %84, 2
  %86 = icmp eq i32 %85, 0
  %87 = icmp slt i32 %82, 10
  %88 = or i1 %86, %87
  br i1 %88, label %originalBBpart28, label %originalBB6alteredBB

originalBBpart28:                                 ; preds = %originalBB6
  br label %208

; <label>:89:                                     ; preds = %originalBBpart24, %50
  %90 = load %class.Point*, %class.Point** %8, align 8
  %91 = call double @_ZNK5PointILi3EEclEj(%class.Point* %90, i32 0)
  store double %91, double* %11, align 8
  %92 = load %class.Point*, %class.Point** %8, align 8
  %93 = call double @_ZNK5PointILi3EEclEj(%class.Point* %92, i32 1)
  store double %93, double* %12, align 8
  %94 = load %class.Point*, %class.Point** %8, align 8
  %95 = call double @_ZNK5PointILi3EEclEj(%class.Point* %94, i32 2)
  store double %95, double* %13, align 8
  %96 = load i32, i32* %7, align 4
  switch i32 %96, label %205 [
    i32 0, label %97
    i32 2, label %119
    i32 1, label %124
    i32 3, label %129
    i32 4, label %135
    i32 6, label %140
    i32 5, label %160
    i32 7, label %164
    i32 8, label %169
    i32 9, label %191
    i32 10, label %196
    i32 11, label %200
  ]

; <label>:97:                                     ; preds = %89
  %98 = load i32, i32* @x
  %99 = load i32, i32* @y
  %100 = sub i32 %98, 1
  %101 = mul i32 %98, %100
  %102 = urem i32 %101, 2
  %103 = icmp eq i32 %102, 0
  %104 = icmp slt i32 %99, 10
  %105 = or i1 %103, %104
  br i1 %105, label %originalBB10, label %originalBB10alteredBB

originalBB10:                                     ; preds = %97, %originalBB10alteredBB
  %106 = load double, double* %12, align 8
  %107 = fsub double 1.000000e+00, %106
  %108 = load double, double* %13, align 8
  %109 = fsub double 1.000000e+00, %108
  %110 = fmul double %107, %109
  store double %110, double* %5, align 8
  %111 = load i32, i32* @x
  %112 = load i32, i32* @y
  %113 = sub i32 %111, 1
  %114 = mul i32 %111, %113
  %115 = urem i32 %114, 2
  %116 = icmp eq i32 %115, 0
  %117 = icmp slt i32 %112, 10
  %118 = or i1 %116, %117
  br i1 %118, label %originalBBpart236, label %originalBB10alteredBB

originalBBpart236:                                ; preds = %originalBB10
  br label %208

; <label>:119:                                    ; preds = %89
  %120 = load double, double* %12, align 8
  %121 = fsub double 1.000000e+00, %120
  %122 = load double, double* %13, align 8
  %123 = fmul double %121, %122
  store double %123, double* %5, align 8
  br label %208

; <label>:124:                                    ; preds = %89
  %125 = load double, double* %11, align 8
  %126 = load double, double* %12, align 8
  %127 = fsub double 1.000000e+00, %126
  %128 = fmul double %125, %127
  store double %128, double* %5, align 8
  br label %208

; <label>:129:                                    ; preds = %89
  %130 = load double, double* %11, align 8
  %131 = fsub double 1.000000e+00, %130
  %132 = load double, double* %12, align 8
  %133 = fsub double 1.000000e+00, %132
  %134 = fmul double %131, %133
  store double %134, double* %5, align 8
  br label %208

; <label>:135:                                    ; preds = %89
  %136 = load double, double* %12, align 8
  %137 = load double, double* %13, align 8
  %138 = fsub double 1.000000e+00, %137
  %139 = fmul double %136, %138
  store double %139, double* %5, align 8
  br label %208

; <label>:140:                                    ; preds = %89
  %141 = load i32, i32* @x
  %142 = load i32, i32* @y
  %143 = sub i32 %141, 1
  %144 = mul i32 %141, %143
  %145 = urem i32 %144, 2
  %146 = icmp eq i32 %145, 0
  %147 = icmp slt i32 %142, 10
  %148 = or i1 %146, %147
  br i1 %148, label %originalBB38, label %originalBB38alteredBB

originalBB38:                                     ; preds = %140, %originalBB38alteredBB
  %149 = load double, double* %12, align 8
  %150 = load double, double* %13, align 8
  %151 = fmul double %149, %150
  store double %151, double* %5, align 8
  %152 = load i32, i32* @x
  %153 = load i32, i32* @y
  %154 = sub i32 %152, 1
  %155 = mul i32 %152, %154
  %156 = urem i32 %155, 2
  %157 = icmp eq i32 %156, 0
  %158 = icmp slt i32 %153, 10
  %159 = or i1 %157, %158
  br i1 %159, label %originalBBpart246, label %originalBB38alteredBB

originalBBpart246:                                ; preds = %originalBB38
  br label %208

; <label>:160:                                    ; preds = %89
  %161 = load double, double* %11, align 8
  %162 = load double, double* %12, align 8
  %163 = fmul double %161, %162
  store double %163, double* %5, align 8
  br label %208

; <label>:164:                                    ; preds = %89
  %165 = load double, double* %11, align 8
  %166 = fsub double 1.000000e+00, %165
  %167 = load double, double* %12, align 8
  %168 = fmul double %166, %167
  store double %168, double* %5, align 8
  br label %208

; <label>:169:                                    ; preds = %89
  %170 = load i32, i32* @x
  %171 = load i32, i32* @y
  %172 = sub i32 %170, 1
  %173 = mul i32 %170, %172
  %174 = urem i32 %173, 2
  %175 = icmp eq i32 %174, 0
  %176 = icmp slt i32 %171, 10
  %177 = or i1 %175, %176
  br i1 %177, label %originalBB48, label %originalBB48alteredBB

originalBB48:                                     ; preds = %169, %originalBB48alteredBB
  %178 = load double, double* %11, align 8
  %179 = fsub double 1.000000e+00, %178
  %180 = load double, double* %13, align 8
  %181 = fsub double 1.000000e+00, %180
  %182 = fmul double %179, %181
  store double %182, double* %5, align 8
  %183 = load i32, i32* @x
  %184 = load i32, i32* @y
  %185 = sub i32 %183, 1
  %186 = mul i32 %183, %185
  %187 = urem i32 %186, 2
  %188 = icmp eq i32 %187, 0
  %189 = icmp slt i32 %184, 10
  %190 = or i1 %188, %189
  br i1 %190, label %originalBBpart270, label %originalBB48alteredBB

originalBBpart270:                                ; preds = %originalBB48
  br label %208

; <label>:191:                                    ; preds = %89
  %192 = load double, double* %11, align 8
  %193 = load double, double* %13, align 8
  %194 = fsub double 1.000000e+00, %193
  %195 = fmul double %192, %194
  store double %195, double* %5, align 8
  br label %208

; <label>:196:                                    ; preds = %89
  %197 = load double, double* %11, align 8
  %198 = load double, double* %13, align 8
  %199 = fmul double %197, %198
  store double %199, double* %5, align 8
  br label %208

; <label>:200:                                    ; preds = %89
  %201 = load double, double* %11, align 8
  %202 = fsub double 1.000000e+00, %201
  %203 = load double, double* %13, align 8
  %204 = fmul double %202, %203
  store double %204, double* %5, align 8
  br label %208

; <label>:205:                                    ; preds = %89
  store double 0.000000e+00, double* %5, align 8
  br label %208

; <label>:206:                                    ; preds = %4
  br label %207

; <label>:207:                                    ; preds = %206
  store double 0.000000e+00, double* %5, align 8
  br label %208

; <label>:208:                                    ; preds = %207, %205, %200, %196, %191, %originalBBpart270, %164, %160, %originalBBpart246, %135, %129, %124, %119, %originalBBpart236, %originalBBpart28
  %209 = load i32, i32* @x
  %210 = load i32, i32* @y
  %211 = sub i32 %209, 1
  %212 = mul i32 %209, %211
  %213 = urem i32 %212, 2
  %214 = icmp eq i32 %213, 0
  %215 = icmp slt i32 %210, 10
  %216 = or i1 %214, %215
  br i1 %216, label %originalBB72, label %originalBB72alteredBB

originalBB72:                                     ; preds = %208, %originalBB72alteredBB
  %217 = load double, double* %5, align 8
  %218 = load i32, i32* @x
  %219 = load i32, i32* @y
  %220 = sub i32 %218, 1
  %221 = mul i32 %218, %220
  %222 = urem i32 %221, 2
  %223 = icmp eq i32 %222, 0
  %224 = icmp slt i32 %219, 10
  %225 = or i1 %223, %224
  br i1 %225, label %originalBBpart274, label %originalBB72alteredBB

originalBBpart274:                                ; preds = %originalBB72
  ret double %217

originalBBalteredBB:                              ; preds = %originalBB, %31
  %226 = load i32, i32* %9, align 4
  %227 = icmp ne i32 %226, 2
  br label %originalBB

originalBB1alteredBB:                             ; preds = %originalBB1, %53
  %228 = load i32, i32* %9, align 4
  %229 = icmp ne i32 %228, 1
  br label %originalBB1

originalBB6alteredBB:                             ; preds = %originalBB6, %72
  store double 0.000000e+00, double* %5, align 8
  br label %originalBB6

originalBB10alteredBB:                            ; preds = %originalBB10, %97
  %230 = load double, double* %12, align 8
  %_ = fsub double -0.000000e+00, 1.000000e+00
  %gen = fadd double %_, %230
  %_11 = fsub double -0.000000e+00, 1.000000e+00
  %gen12 = fadd double %_11, %230
  %_13 = fsub double -0.000000e+00, 1.000000e+00
  %gen14 = fadd double %_13, %230
  %_15 = fsub double -0.000000e+00, 1.000000e+00
  %gen16 = fadd double %_15, %230
  %_17 = fsub double 1.000000e+00, %230
  %gen18 = fmul double %_17, %230
  %_19 = fsub double -0.000000e+00, 1.000000e+00
  %gen20 = fadd double %_19, %230
  %_21 = fsub double -0.000000e+00, 1.000000e+00
  %gen22 = fadd double %_21, %230
  %_23 = fsub double -0.000000e+00, 1.000000e+00
  %gen24 = fadd double %_23, %230
  %231 = fsub double 1.000000e+00, %230
  %232 = load double, double* %13, align 8
  %_25 = fsub double -0.000000e+00, 1.000000e+00
  %gen26 = fadd double %_25, %232
  %_27 = fsub double -0.000000e+00, 1.000000e+00
  %gen28 = fadd double %_27, %232
  %_29 = fsub double 1.000000e+00, %232
  %gen30 = fmul double %_29, %232
  %_31 = fsub double -0.000000e+00, 1.000000e+00
  %gen32 = fadd double %_31, %232
  %233 = fsub double 1.000000e+00, %232
  %_33 = fsub double %231, %233
  %gen34 = fmul double %_33, %233
  %234 = fmul double %231, %233
  store double %234, double* %5, align 8
  br label %originalBB10

originalBB38alteredBB:                            ; preds = %originalBB38, %140
  %235 = load double, double* %12, align 8
  %236 = load double, double* %13, align 8
  %_39 = fsub double %235, %236
  %gen40 = fmul double %_39, %236
  %_41 = fsub double -0.000000e+00, %235
  %gen42 = fadd double %_41, %236
  %_43 = fsub double -0.000000e+00, %235
  %gen44 = fadd double %_43, %236
  %237 = fmul double %235, %236
  store double %237, double* %5, align 8
  br label %originalBB38

originalBB48alteredBB:                            ; preds = %originalBB48, %169
  %238 = load double, double* %11, align 8
  %_49 = fsub double 1.000000e+00, %238
  %gen50 = fmul double %_49, %238
  %_51 = fsub double 1.000000e+00, %238
  %gen52 = fmul double %_51, %238
  %_53 = fsub double 1.000000e+00, %238
  %gen54 = fmul double %_53, %238
  %239 = fsub double 1.000000e+00, %238
  %240 = load double, double* %13, align 8
  %_55 = fsub double 1.000000e+00, %240
  %gen56 = fmul double %_55, %240
  %_57 = fsub double 1.000000e+00, %240
  %gen58 = fmul double %_57, %240
  %241 = fsub double 1.000000e+00, %240
  %_59 = fsub double -0.000000e+00, %239
  %gen60 = fadd double %_59, %241
  %_61 = fsub double %239, %241
  %gen62 = fmul double %_61, %241
  %_63 = fsub double -0.000000e+00, %239
  %gen64 = fadd double %_63, %241
  %_65 = fsub double %239, %241
  %gen66 = fmul double %_65, %241
  %_67 = fsub double -0.000000e+00, %239
  %gen68 = fadd double %_67, %241
  %242 = fmul double %239, %241
  store double %242, double* %5, align 8
  br label %originalBB48

originalBB72alteredBB:                            ; preds = %originalBB72, %208
  %243 = load double, double* %5, align 8
  br label %originalBB72
}

; Function Attrs: noinline nounwind uwtable
define linkonce_odr double @_ZNK5PointILi3EEclEj(%class.Point*, i32) #1 comdat align 2 {
  %3 = alloca %class.Point*, align 8
  %4 = alloca i32, align 4
  store %class.Point* %0, %class.Point** %3, align 8
  store i32 %1, i32* %4, align 4
  %5 = load %class.Point*, %class.Point** %3, align 8
  %6 = bitcast %class.Point* %5 to %class.Tensor*
  %7 = getelementptr inbounds %class.Tensor, %class.Tensor* %6, i32 0, i32 0
  %8 = load i32, i32* %4, align 4
  %9 = zext i32 %8 to i64
  %10 = getelementptr inbounds [3 x double], [3 x double]* %7, i64 0, i64 %9
  %11 = load double, double* %10, align 8
  ret double %11
}

; Function Attrs: noinline uwtable
define void @_ZNK10FE_NedelecILi3EE20shape_grad_componentEjRK5PointILi3EEj(%class.Tensor* noalias sret, %class.FE_Nedelec*, i32, %class.Point* dereferenceable(24), i32) unnamed_addr #0 align 2 {
  %6 = load i32, i32* @x.3
  %7 = load i32, i32* @y.4
  %8 = sub i32 %6, 1
  %9 = mul i32 %6, %8
  %10 = urem i32 %9, 2
  %11 = icmp eq i32 %10, 0
  %12 = icmp slt i32 %7, 10
  %13 = or i1 %11, %12
  br i1 %13, label %originalBB, label %originalBBalteredBB

originalBB:                                       ; preds = %5, %originalBBalteredBB
  %14 = alloca %class.FE_Nedelec*, align 8
  %15 = alloca i32, align 4
  %16 = alloca %class.Point*, align 8
  %17 = alloca i32, align 4
  %18 = alloca i32, align 4
  %19 = alloca double, align 8
  %20 = alloca double, align 8
  %21 = alloca double, align 8
  %22 = alloca [12 x [3 x [3 x double]]], align 16
  store %class.FE_Nedelec* %1, %class.FE_Nedelec** %14, align 8
  store i32 %2, i32* %15, align 4
  store %class.Point* %3, %class.Point** %16, align 8
  store i32 %4, i32* %17, align 4
  %23 = load %class.FE_Nedelec*, %class.FE_Nedelec** %14, align 8
  store i32 3, i32* %18, align 4
  %24 = getelementptr inbounds %class.FE_Nedelec, %class.FE_Nedelec* %23, i32 0, i32 1
  %25 = load i32, i32* %24, align 4
  %26 = load i32, i32* @x.3
  %27 = load i32, i32* @y.4
  %28 = sub i32 %26, 1
  %29 = mul i32 %26, %28
  %30 = urem i32 %29, 2
  %31 = icmp eq i32 %30, 0
  %32 = icmp slt i32 %27, 10
  %33 = or i1 %31, %32
  br i1 %33, label %originalBBpart2, label %originalBBalteredBB

originalBBpart2:                                  ; preds = %originalBB
  switch i32 %25, label %267 [
    i32 1, label %34
  ]

; <label>:34:                                     ; preds = %originalBBpart2
  %35 = load i32, i32* @x.3
  %36 = load i32, i32* @y.4
  %37 = sub i32 %35, 1
  %38 = mul i32 %35, %37
  %39 = urem i32 %38, 2
  %40 = icmp eq i32 %39, 0
  %41 = icmp slt i32 %36, 10
  %42 = or i1 %40, %41
  br i1 %42, label %originalBB1, label %originalBB1alteredBB

originalBB1:                                      ; preds = %34, %originalBB1alteredBB
  %43 = load %class.Point*, %class.Point** %16, align 8
  %44 = call double @_ZNK5PointILi3EEclEj(%class.Point* %43, i32 0)
  store double %44, double* %19, align 8
  %45 = load %class.Point*, %class.Point** %16, align 8
  %46 = call double @_ZNK5PointILi3EEclEj(%class.Point* %45, i32 1)
  store double %46, double* %20, align 8
  %47 = load %class.Point*, %class.Point** %16, align 8
  %48 = call double @_ZNK5PointILi3EEclEj(%class.Point* %47, i32 2)
  store double %48, double* %21, align 8
  %49 = getelementptr inbounds [12 x [3 x [3 x double]]], [12 x [3 x [3 x double]]]* %22, i64 0, i64 0
  %50 = getelementptr inbounds [3 x [3 x double]], [3 x [3 x double]]* %49, i64 0, i64 0
  %51 = getelementptr inbounds [3 x double], [3 x double]* %50, i64 0, i64 0
  store double 0.000000e+00, double* %51, align 8
  %52 = getelementptr inbounds double, double* %51, i64 1
  %53 = load double, double* %21, align 8
  %54 = fsub double 1.000000e+00, %53
  %55 = fsub double -0.000000e+00, %54
  store double %55, double* %52, align 8
  %56 = getelementptr inbounds double, double* %52, i64 1
  %57 = load double, double* %20, align 8
  %58 = fsub double 1.000000e+00, %57
  %59 = fsub double -0.000000e+00, %58
  store double %59, double* %56, align 8
  %60 = getelementptr inbounds [3 x double], [3 x double]* %50, i64 1
  %61 = getelementptr inbounds [3 x double], [3 x double]* %60, i64 0, i64 0
  store double 0.000000e+00, double* %61, align 8
  %62 = getelementptr inbounds double, double* %61, i64 1
  store double 0.000000e+00, double* %62, align 8
  %63 = getelementptr inbounds double, double* %62, i64 1
  store double 0.000000e+00, double* %63, align 8
  %64 = getelementptr inbounds [3 x double], [3 x double]* %60, i64 1
  %65 = getelementptr inbounds [3 x double], [3 x double]* %64, i64 0, i64 0
  store double 0.000000e+00, double* %65, align 8
  %66 = getelementptr inbounds double, double* %65, i64 1
  store double 0.000000e+00, double* %66, align 8
  %67 = getelementptr inbounds double, double* %66, i64 1
  store double 0.000000e+00, double* %67, align 8
  %68 = getelementptr inbounds [3 x [3 x double]], [3 x [3 x double]]* %49, i64 1
  %69 = getelementptr inbounds [3 x [3 x double]], [3 x [3 x double]]* %68, i64 0, i64 0
  %70 = getelementptr inbounds [3 x double], [3 x double]* %69, i64 0, i64 0
  store double 0.000000e+00, double* %70, align 8
  %71 = getelementptr inbounds double, double* %70, i64 1
  store double 0.000000e+00, double* %71, align 8
  %72 = getelementptr inbounds double, double* %71, i64 1
  store double 0.000000e+00, double* %72, align 8
  %73 = getelementptr inbounds [3 x double], [3 x double]* %69, i64 1
  %74 = getelementptr inbounds [3 x double], [3 x double]* %73, i64 0, i64 0
  store double 0.000000e+00, double* %74, align 8
  %75 = getelementptr inbounds double, double* %74, i64 1
  store double 0.000000e+00, double* %75, align 8
  %76 = getelementptr inbounds double, double* %75, i64 1
  store double 0.000000e+00, double* %76, align 8
  %77 = getelementptr inbounds [3 x double], [3 x double]* %73, i64 1
  %78 = getelementptr inbounds [3 x double], [3 x double]* %77, i64 0, i64 0
  %79 = load double, double* %20, align 8
  %80 = fsub double 1.000000e+00, %79
  store double %80, double* %78, align 8
  %81 = getelementptr inbounds double, double* %78, i64 1
  %82 = load double, double* %19, align 8
  %83 = fsub double -0.000000e+00, %82
  store double %83, double* %81, align 8
  %84 = getelementptr inbounds double, double* %81, i64 1
  store double 0.000000e+00, double* %84, align 8
  %85 = getelementptr inbounds [3 x [3 x double]], [3 x [3 x double]]* %68, i64 1
  %86 = getelementptr inbounds [3 x [3 x double]], [3 x [3 x double]]* %85, i64 0, i64 0
  %87 = getelementptr inbounds [3 x double], [3 x double]* %86, i64 0, i64 0
  store double 0.000000e+00, double* %87, align 8
  %88 = getelementptr inbounds double, double* %87, i64 1
  %89 = load double, double* %21, align 8
  %90 = fsub double -0.000000e+00, %89
  store double %90, double* %88, align 8
  %91 = getelementptr inbounds double, double* %88, i64 1
  %92 = load double, double* %20, align 8
  %93 = fsub double 1.000000e+00, %92
  store double %93, double* %91, align 8
  %94 = getelementptr inbounds [3 x double], [3 x double]* %86, i64 1
  %95 = getelementptr inbounds [3 x double], [3 x double]* %94, i64 0, i64 0
  store double 0.000000e+00, double* %95, align 8
  %96 = getelementptr inbounds double, double* %95, i64 1
  store double 0.000000e+00, double* %96, align 8
  %97 = getelementptr inbounds double, double* %96, i64 1
  store double 0.000000e+00, double* %97, align 8
  %98 = getelementptr inbounds [3 x double], [3 x double]* %94, i64 1
  %99 = getelementptr inbounds [3 x double], [3 x double]* %98, i64 0, i64 0
  store double 0.000000e+00, double* %99, align 8
  %100 = getelementptr inbounds double, double* %99, i64 1
  store double 0.000000e+00, double* %100, align 8
  %101 = getelementptr inbounds double, double* %100, i64 1
  store double 0.000000e+00, double* %101, align 8
  %102 = getelementptr inbounds [3 x [3 x double]], [3 x [3 x double]]* %85, i64 1
  %103 = getelementptr inbounds [3 x [3 x double]], [3 x [3 x double]]* %102, i64 0, i64 0
  %104 = getelementptr inbounds [3 x double], [3 x double]* %103, i64 0, i64 0
  store double 0.000000e+00, double* %104, align 8
  %105 = getelementptr inbounds double, double* %104, i64 1
  store double 0.000000e+00, double* %105, align 8
  %106 = getelementptr inbounds double, double* %105, i64 1
  store double 0.000000e+00, double* %106, align 8
  %107 = getelementptr inbounds [3 x double], [3 x double]* %103, i64 1
  %108 = getelementptr inbounds [3 x double], [3 x double]* %107, i64 0, i64 0
  store double 0.000000e+00, double* %108, align 8
  %109 = getelementptr inbounds double, double* %108, i64 1
  store double 0.000000e+00, double* %109, align 8
  %110 = getelementptr inbounds double, double* %109, i64 1
  store double 0.000000e+00, double* %110, align 8
  %111 = getelementptr inbounds [3 x double], [3 x double]* %107, i64 1
  %112 = getelementptr inbounds [3 x double], [3 x double]* %111, i64 0, i64 0
  %113 = load double, double* %20, align 8
  %114 = fsub double 1.000000e+00, %113
  %115 = fsub double -0.000000e+00, %114
  store double %115, double* %112, align 8
  %116 = getelementptr inbounds double, double* %112, i64 1
  %117 = load double, double* %19, align 8
  %118 = fsub double 1.000000e+00, %117
  %119 = fsub double -0.000000e+00, %118
  store double %119, double* %116, align 8
  %120 = getelementptr inbounds double, double* %116, i64 1
  store double 0.000000e+00, double* %120, align 8
  %121 = getelementptr inbounds [3 x [3 x double]], [3 x [3 x double]]* %102, i64 1
  %122 = getelementptr inbounds [3 x [3 x double]], [3 x [3 x double]]* %121, i64 0, i64 0
  %123 = getelementptr inbounds [3 x double], [3 x double]* %122, i64 0, i64 0
  store double 0.000000e+00, double* %123, align 8
  %124 = getelementptr inbounds double, double* %123, i64 1
  %125 = load double, double* %21, align 8
  %126 = fsub double 1.000000e+00, %125
  store double %126, double* %124, align 8
  %127 = getelementptr inbounds double, double* %124, i64 1
  %128 = load double, double* %20, align 8
  %129 = fsub double -0.000000e+00, %128
  store double %129, double* %127, align 8
  %130 = getelementptr inbounds [3 x double], [3 x double]* %122, i64 1
  %131 = getelementptr inbounds [3 x double], [3 x double]* %130, i64 0, i64 0
  store double 0.000000e+00, double* %131, align 8
  %132 = getelementptr inbounds double, double* %131, i64 1
  store double 0.000000e+00, double* %132, align 8
  %133 = getelementptr inbounds double, double* %132, i64 1
  store double 0.000000e+00, double* %133, align 8
  %134 = getelementptr inbounds [3 x double], [3 x double]* %130, i64 1
  %135 = getelementptr inbounds [3 x double], [3 x double]* %134, i64 0, i64 0
  store double 0.000000e+00, double* %135, align 8
  %136 = getelementptr inbounds double, double* %135, i64 1
  store double 0.000000e+00, double* %136, align 8
  %137 = getelementptr inbounds double, double* %136, i64 1
  store double 0.000000e+00, double* %137, align 8
  %138 = getelementptr inbounds [3 x [3 x double]], [3 x [3 x double]]* %121, i64 1
  %139 = getelementptr inbounds [3 x [3 x double]], [3 x [3 x double]]* %138, i64 0, i64 0
  %140 = getelementptr inbounds [3 x double], [3 x double]* %139, i64 0, i64 0
  store double 0.000000e+00, double* %140, align 8
  %141 = getelementptr inbounds double, double* %140, i64 1
  store double 0.000000e+00, double* %141, align 8
  %142 = getelementptr inbounds double, double* %141, i64 1
  store double 0.000000e+00, double* %142, align 8
  %143 = getelementptr inbounds [3 x double], [3 x double]* %139, i64 1
  %144 = getelementptr inbounds [3 x double], [3 x double]* %143, i64 0, i64 0
  store double 0.000000e+00, double* %144, align 8
  %145 = getelementptr inbounds double, double* %144, i64 1
  store double 0.000000e+00, double* %145, align 8
  %146 = getelementptr inbounds double, double* %145, i64 1
  store double 0.000000e+00, double* %146, align 8
  %147 = getelementptr inbounds [3 x double], [3 x double]* %143, i64 1
  %148 = getelementptr inbounds [3 x double], [3 x double]* %147, i64 0, i64 0
  %149 = load double, double* %20, align 8
  store double %149, double* %148, align 8
  %150 = getelementptr inbounds double, double* %148, i64 1
  %151 = load double, double* %19, align 8
  store double %151, double* %150, align 8
  %152 = getelementptr inbounds double, double* %150, i64 1
  store double 0.000000e+00, double* %152, align 8
  %153 = getelementptr inbounds [3 x [3 x double]], [3 x [3 x double]]* %138, i64 1
  %154 = getelementptr inbounds [3 x [3 x double]], [3 x [3 x double]]* %153, i64 0, i64 0
  %155 = getelementptr inbounds [3 x double], [3 x double]* %154, i64 0, i64 0
  store double 0.000000e+00, double* %155, align 8
  %156 = getelementptr inbounds double, double* %155, i64 1
  %157 = load double, double* %21, align 8
  store double %157, double* %156, align 8
  %158 = getelementptr inbounds double, double* %156, i64 1
  %159 = load double, double* %20, align 8
  store double %159, double* %158, align 8
  %160 = getelementptr inbounds [3 x double], [3 x double]* %154, i64 1
  %161 = getelementptr inbounds [3 x double], [3 x double]* %160, i64 0, i64 0
  store double 0.000000e+00, double* %161, align 8
  %162 = getelementptr inbounds double, double* %161, i64 1
  store double 0.000000e+00, double* %162, align 8
  %163 = getelementptr inbounds double, double* %162, i64 1
  store double 0.000000e+00, double* %163, align 8
  %164 = getelementptr inbounds [3 x double], [3 x double]* %160, i64 1
  %165 = getelementptr inbounds [3 x double], [3 x double]* %164, i64 0, i64 0
  store double 0.000000e+00, double* %165, align 8
  %166 = getelementptr inbounds double, double* %165, i64 1
  store double 0.000000e+00, double* %166, align 8
  %167 = getelementptr inbounds double, double* %166, i64 1
  store double 0.000000e+00, double* %167, align 8
  %168 = getelementptr inbounds [3 x [3 x double]], [3 x [3 x double]]* %153, i64 1
  %169 = getelementptr inbounds [3 x [3 x double]], [3 x [3 x double]]* %168, i64 0, i64 0
  %170 = getelementptr inbounds [3 x double], [3 x double]* %169, i64 0, i64 0
  store double 0.000000e+00, double* %170, align 8
  %171 = getelementptr inbounds double, double* %170, i64 1
  store double 0.000000e+00, double* %171, align 8
  %172 = getelementptr inbounds double, double* %171, i64 1
  store double 0.000000e+00, double* %172, align 8
  %173 = getelementptr inbounds [3 x double], [3 x double]* %169, i64 1
  %174 = getelementptr inbounds [3 x double], [3 x double]* %173, i64 0, i64 0
  store double 0.000000e+00, double* %174, align 8
  %175 = getelementptr inbounds double, double* %174, i64 1
  store double 0.000000e+00, double* %175, align 8
  %176 = getelementptr inbounds double, double* %175, i64 1
  store double 0.000000e+00, double* %176, align 8
  %177 = getelementptr inbounds [3 x double], [3 x double]* %173, i64 1
  %178 = getelementptr inbounds [3 x double], [3 x double]* %177, i64 0, i64 0
  %179 = load double, double* %20, align 8
  %180 = fsub double -0.000000e+00, %179
  store double %180, double* %178, align 8
  %181 = getelementptr inbounds double, double* %178, i64 1
  %182 = load double, double* %19, align 8
  %183 = fsub double 1.000000e+00, %182
  store double %183, double* %181, align 8
  %184 = getelementptr inbounds double, double* %181, i64 1
  store double 0.000000e+00, double* %184, align 8
  %185 = getelementptr inbounds [3 x [3 x double]], [3 x [3 x double]]* %168, i64 1
  %186 = getelementptr inbounds [3 x [3 x double]], [3 x [3 x double]]* %185, i64 0, i64 0
  %187 = getelementptr inbounds [3 x double], [3 x double]* %186, i64 0, i64 0
  store double 0.000000e+00, double* %187, align 8
  %188 = getelementptr inbounds double, double* %187, i64 1
  store double 0.000000e+00, double* %188, align 8
  %189 = getelementptr inbounds double, double* %188, i64 1
  store double 0.000000e+00, double* %189, align 8
  %190 = getelementptr inbounds [3 x double], [3 x double]* %186, i64 1
  %191 = getelementptr inbounds [3 x double], [3 x double]* %190, i64 0, i64 0
  %192 = load double, double* %21, align 8
  %193 = fsub double 1.000000e+00, %192
  %194 = fsub double -0.000000e+00, %193
  store double %194, double* %191, align 8
  %195 = getelementptr inbounds double, double* %191, i64 1
  store double 0.000000e+00, double* %195, align 8
  %196 = getelementptr inbounds double, double* %195, i64 1
  %197 = load double, double* %19, align 8
  %198 = fsub double 1.000000e+00, %197
  %199 = fsub double -0.000000e+00, %198
  store double %199, double* %196, align 8
  %200 = getelementptr inbounds [3 x double], [3 x double]* %190, i64 1
  %201 = getelementptr inbounds [3 x double], [3 x double]* %200, i64 0, i64 0
  store double 0.000000e+00, double* %201, align 8
  %202 = getelementptr inbounds double, double* %201, i64 1
  store double 0.000000e+00, double* %202, align 8
  %203 = getelementptr inbounds double, double* %202, i64 1
  store double 0.000000e+00, double* %203, align 8
  %204 = getelementptr inbounds [3 x [3 x double]], [3 x [3 x double]]* %185, i64 1
  %205 = getelementptr inbounds [3 x [3 x double]], [3 x [3 x double]]* %204, i64 0, i64 0
  %206 = getelementptr inbounds [3 x double], [3 x double]* %205, i64 0, i64 0
  store double 0.000000e+00, double* %206, align 8
  %207 = getelementptr inbounds double, double* %206, i64 1
  store double 0.000000e+00, double* %207, align 8
  %208 = getelementptr inbounds double, double* %207, i64 1
  store double 0.000000e+00, double* %208, align 8
  %209 = getelementptr inbounds [3 x double], [3 x double]* %205, i64 1
  %210 = getelementptr inbounds [3 x double], [3 x double]* %209, i64 0, i64 0
  %211 = load double, double* %21, align 8
  %212 = fsub double 1.000000e+00, %211
  store double %212, double* %210, align 8
  %213 = getelementptr inbounds double, double* %210, i64 1
  store double 0.000000e+00, double* %213, align 8
  %214 = getelementptr inbounds double, double* %213, i64 1
  %215 = load double, double* %19, align 8
  %216 = fsub double -0.000000e+00, %215
  store double %216, double* %214, align 8
  %217 = getelementptr inbounds [3 x double], [3 x double]* %209, i64 1
  %218 = getelementptr inbounds [3 x double], [3 x double]* %217, i64 0, i64 0
  store double 0.000000e+00, double* %218, align 8
  %219 = getelementptr inbounds double, double* %218, i64 1
  store double 0.000000e+00, double* %219, align 8
  %220 = getelementptr inbounds double, double* %219, i64 1
  store double 0.000000e+00, double* %220, align 8
  %221 = getelementptr inbounds [3 x [3 x double]], [3 x [3 x double]]* %204, i64 1
  %222 = getelementptr inbounds [3 x [3 x double]], [3 x [3 x double]]* %221, i64 0, i64 0
  %223 = getelementptr inbounds [3 x double], [3 x double]* %222, i64 0, i64 0
  store double 0.000000e+00, double* %223, align 8
  %224 = getelementptr inbounds double, double* %223, i64 1
  store double 0.000000e+00, double* %224, align 8
  %225 = getelementptr inbounds double, double* %224, i64 1
  store double 0.000000e+00, double* %225, align 8
  %226 = getelementptr inbounds [3 x double], [3 x double]* %222, i64 1
  %227 = getelementptr inbounds [3 x double], [3 x double]* %226, i64 0, i64 0
  %228 = load double, double* %21, align 8
  store double %228, double* %227, align 8
  %229 = getelementptr inbounds double, double* %227, i64 1
  store double 0.000000e+00, double* %229, align 8
  %230 = getelementptr inbounds double, double* %229, i64 1
  %231 = load double, double* %19, align 8
  store double %231, double* %230, align 8
  %232 = getelementptr inbounds [3 x double], [3 x double]* %226, i64 1
  %233 = getelementptr inbounds [3 x double], [3 x double]* %232, i64 0, i64 0
  store double 0.000000e+00, double* %233, align 8
  %234 = getelementptr inbounds double, double* %233, i64 1
  store double 0.000000e+00, double* %234, align 8
  %235 = getelementptr inbounds double, double* %234, i64 1
  store double 0.000000e+00, double* %235, align 8
  %236 = getelementptr inbounds [3 x [3 x double]], [3 x [3 x double]]* %221, i64 1
  %237 = getelementptr inbounds [3 x [3 x double]], [3 x [3 x double]]* %236, i64 0, i64 0
  %238 = getelementptr inbounds [3 x double], [3 x double]* %237, i64 0, i64 0
  store double 0.000000e+00, double* %238, align 8
  %239 = getelementptr inbounds double, double* %238, i64 1
  store double 0.000000e+00, double* %239, align 8
  %240 = getelementptr inbounds double, double* %239, i64 1
  store double 0.000000e+00, double* %240, align 8
  %241 = getelementptr inbounds [3 x double], [3 x double]* %237, i64 1
  %242 = getelementptr inbounds [3 x double], [3 x double]* %241, i64 0, i64 0
  %243 = load double, double* %21, align 8
  %244 = fsub double -0.000000e+00, %243
  store double %244, double* %242, align 8
  %245 = getelementptr inbounds double, double* %242, i64 1
  store double 0.000000e+00, double* %245, align 8
  %246 = getelementptr inbounds double, double* %245, i64 1
  %247 = load double, double* %19, align 8
  %248 = fsub double 1.000000e+00, %247
  store double %248, double* %246, align 8
  %249 = getelementptr inbounds [3 x double], [3 x double]* %241, i64 1
  %250 = getelementptr inbounds [3 x double], [3 x double]* %249, i64 0, i64 0
  store double 0.000000e+00, double* %250, align 8
  %251 = getelementptr inbounds double, double* %250, i64 1
  store double 0.000000e+00, double* %251, align 8
  %252 = getelementptr inbounds double, double* %251, i64 1
  store double 0.000000e+00, double* %252, align 8
  %253 = load i32, i32* %15, align 4
  %254 = zext i32 %253 to i64
  %255 = getelementptr inbounds [12 x [3 x [3 x double]]], [12 x [3 x [3 x double]]]* %22, i64 0, i64 %254
  %256 = load i32, i32* %17, align 4
  %257 = zext i32 %256 to i64
  %258 = getelementptr inbounds [3 x [3 x double]], [3 x [3 x double]]* %255, i64 0, i64 %257
  call void @_ZN6TensorILi1ELi3EEC2ERA3_Kd(%class.Tensor* %0, [3 x double]* dereferenceable(24) %258)
  %259 = load i32, i32* @x.3
  %260 = load i32, i32* @y.4
  %261 = sub i32 %259, 1
  %262 = mul i32 %259, %261
  %263 = urem i32 %262, 2
  %264 = icmp eq i32 %263, 0
  %265 = icmp slt i32 %260, 10
  %266 = or i1 %264, %265
  br i1 %266, label %originalBBpart2145, label %originalBB1alteredBB

originalBBpart2145:                               ; preds = %originalBB1
  br label %285

; <label>:267:                                    ; preds = %originalBBpart2
  %268 = load i32, i32* @x.3
  %269 = load i32, i32* @y.4
  %270 = sub i32 %268, 1
  %271 = mul i32 %268, %270
  %272 = urem i32 %271, 2
  %273 = icmp eq i32 %272, 0
  %274 = icmp slt i32 %269, 10
  %275 = or i1 %273, %274
  br i1 %275, label %originalBB147, label %originalBB147alteredBB

originalBB147:                                    ; preds = %267, %originalBB147alteredBB
  %276 = load i32, i32* @x.3
  %277 = load i32, i32* @y.4
  %278 = sub i32 %276, 1
  %279 = mul i32 %276, %278
  %280 = urem i32 %279, 2
  %281 = icmp eq i32 %280, 0
  %282 = icmp slt i32 %277, 10
  %283 = or i1 %281, %282
  br i1 %283, label %originalBBpart2149, label %originalBB147alteredBB

originalBBpart2149:                               ; preds = %originalBB147
  br label %284

; <label>:284:                                    ; preds = %originalBBpart2149
  call void @_ZN6TensorILi1ELi3EEC2Eb(%class.Tensor* %0, i1 zeroext true)
  br label %285

; <label>:285:                                    ; preds = %284, %originalBBpart2145
  %286 = load i32, i32* @x.3
  %287 = load i32, i32* @y.4
  %288 = sub i32 %286, 1
  %289 = mul i32 %286, %288
  %290 = urem i32 %289, 2
  %291 = icmp eq i32 %290, 0
  %292 = icmp slt i32 %287, 10
  %293 = or i1 %291, %292
  br i1 %293, label %originalBB151, label %originalBB151alteredBB

originalBB151:                                    ; preds = %285, %originalBB151alteredBB
  %294 = load i32, i32* @x.3
  %295 = load i32, i32* @y.4
  %296 = sub i32 %294, 1
  %297 = mul i32 %294, %296
  %298 = urem i32 %297, 2
  %299 = icmp eq i32 %298, 0
  %300 = icmp slt i32 %295, 10
  %301 = or i1 %299, %300
  br i1 %301, label %originalBBpart2153, label %originalBB151alteredBB

originalBBpart2153:                               ; preds = %originalBB151
  ret void

originalBBalteredBB:                              ; preds = %originalBB, %5
  %302 = alloca %class.FE_Nedelec*, align 8
  %303 = alloca i32, align 4
  %304 = alloca %class.Point*, align 8
  %305 = alloca i32, align 4
  %306 = alloca i32, align 4
  %307 = alloca double, align 8
  %308 = alloca double, align 8
  %309 = alloca double, align 8
  %310 = alloca [12 x [3 x [3 x double]]], align 16
  store %class.FE_Nedelec* %1, %class.FE_Nedelec** %302, align 8
  store i32 %2, i32* %303, align 4
  store %class.Point* %3, %class.Point** %304, align 8
  store i32 %4, i32* %305, align 4
  %311 = load %class.FE_Nedelec*, %class.FE_Nedelec** %302, align 8
  store i32 3, i32* %306, align 4
  %312 = getelementptr inbounds %class.FE_Nedelec, %class.FE_Nedelec* %311, i32 0, i32 1
  %313 = load i32, i32* %312, align 4
  br label %originalBB

originalBB1alteredBB:                             ; preds = %originalBB1, %34
  %314 = load %class.Point*, %class.Point** %16, align 8
  %315 = call double @_ZNK5PointILi3EEclEj(%class.Point* %314, i32 0)
  store double %315, double* %19, align 8
  %316 = load %class.Point*, %class.Point** %16, align 8
  %317 = call double @_ZNK5PointILi3EEclEj(%class.Point* %316, i32 1)
  store double %317, double* %20, align 8
  %318 = load %class.Point*, %class.Point** %16, align 8
  %319 = call double @_ZNK5PointILi3EEclEj(%class.Point* %318, i32 2)
  store double %319, double* %21, align 8
  %320 = getelementptr inbounds [12 x [3 x [3 x double]]], [12 x [3 x [3 x double]]]* %22, i64 0, i64 0
  %321 = getelementptr inbounds [3 x [3 x double]], [3 x [3 x double]]* %320, i64 0, i64 0
  %322 = getelementptr inbounds [3 x double], [3 x double]* %321, i64 0, i64 0
  store double 0.000000e+00, double* %322, align 8
  %323 = getelementptr inbounds double, double* %322, i64 1
  %324 = load double, double* %21, align 8
  %_ = fsub double 1.000000e+00, %324
  %gen = fmul double %_, %324
  %325 = fsub double 1.000000e+00, %324
  %_2 = fsub double -0.000000e+00, -0.000000e+00
  %gen3 = fadd double %_2, %325
  %_4 = fsub double -0.000000e+00, %325
  %gen5 = fmul double %_4, %325
  %_6 = fsub double -0.000000e+00, -0.000000e+00
  %gen7 = fadd double %_6, %325
  %326 = fsub double -0.000000e+00, %325
  store double %326, double* %323, align 8
  %327 = getelementptr inbounds double, double* %323, i64 1
  %328 = load double, double* %20, align 8
  %_8 = fsub double -0.000000e+00, 1.000000e+00
  %gen9 = fadd double %_8, %328
  %_10 = fsub double 1.000000e+00, %328
  %gen11 = fmul double %_10, %328
  %_12 = fsub double 1.000000e+00, %328
  %gen13 = fmul double %_12, %328
  %_14 = fsub double 1.000000e+00, %328
  %gen15 = fmul double %_14, %328
  %329 = fsub double 1.000000e+00, %328
  %_16 = fsub double -0.000000e+00, -0.000000e+00
  %gen17 = fadd double %_16, %329
  %_18 = fsub double -0.000000e+00, -0.000000e+00
  %gen19 = fadd double %_18, %329
  %_20 = fsub double -0.000000e+00, -0.000000e+00
  %gen21 = fadd double %_20, %329
  %_22 = fsub double -0.000000e+00, %329
  %gen23 = fmul double %_22, %329
  %_24 = fsub double -0.000000e+00, -0.000000e+00
  %gen25 = fadd double %_24, %329
  %_26 = fsub double -0.000000e+00, %329
  %gen27 = fmul double %_26, %329
  %330 = fsub double -0.000000e+00, %329
  store double %330, double* %327, align 8
  %331 = getelementptr inbounds [3 x double], [3 x double]* %321, i64 1
  %332 = getelementptr inbounds [3 x double], [3 x double]* %331, i64 0, i64 0
  store double 0.000000e+00, double* %332, align 8
  %333 = getelementptr inbounds double, double* %332, i64 1
  store double 0.000000e+00, double* %333, align 8
  %334 = getelementptr inbounds double, double* %333, i64 1
  store double 0.000000e+00, double* %334, align 8
  %335 = getelementptr inbounds [3 x double], [3 x double]* %331, i64 1
  %336 = getelementptr inbounds [3 x double], [3 x double]* %335, i64 0, i64 0
  store double 0.000000e+00, double* %336, align 8
  %337 = getelementptr inbounds double, double* %336, i64 1
  store double 0.000000e+00, double* %337, align 8
  %338 = getelementptr inbounds double, double* %337, i64 1
  store double 0.000000e+00, double* %338, align 8
  %339 = getelementptr inbounds [3 x [3 x double]], [3 x [3 x double]]* %320, i64 1
  %340 = getelementptr inbounds [3 x [3 x double]], [3 x [3 x double]]* %339, i64 0, i64 0
  %341 = getelementptr inbounds [3 x double], [3 x double]* %340, i64 0, i64 0
  store double 0.000000e+00, double* %341, align 8
  %342 = getelementptr inbounds double, double* %341, i64 1
  store double 0.000000e+00, double* %342, align 8
  %343 = getelementptr inbounds double, double* %342, i64 1
  store double 0.000000e+00, double* %343, align 8
  %344 = getelementptr inbounds [3 x double], [3 x double]* %340, i64 1
  %345 = getelementptr inbounds [3 x double], [3 x double]* %344, i64 0, i64 0
  store double 0.000000e+00, double* %345, align 8
  %346 = getelementptr inbounds double, double* %345, i64 1
  store double 0.000000e+00, double* %346, align 8
  %347 = getelementptr inbounds double, double* %346, i64 1
  store double 0.000000e+00, double* %347, align 8
  %348 = getelementptr inbounds [3 x double], [3 x double]* %344, i64 1
  %349 = getelementptr inbounds [3 x double], [3 x double]* %348, i64 0, i64 0
  %350 = load double, double* %20, align 8
  %351 = fsub double 1.000000e+00, %350
  store double %351, double* %349, align 8
  %352 = getelementptr inbounds double, double* %349, i64 1
  %353 = load double, double* %19, align 8
  %_28 = fsub double -0.000000e+00, -0.000000e+00
  %gen29 = fadd double %_28, %353
  %354 = fsub double -0.000000e+00, %353
  store double %354, double* %352, align 8
  %355 = getelementptr inbounds double, double* %352, i64 1
  store double 0.000000e+00, double* %355, align 8
  %356 = getelementptr inbounds [3 x [3 x double]], [3 x [3 x double]]* %339, i64 1
  %357 = getelementptr inbounds [3 x [3 x double]], [3 x [3 x double]]* %356, i64 0, i64 0
  %358 = getelementptr inbounds [3 x double], [3 x double]* %357, i64 0, i64 0
  store double 0.000000e+00, double* %358, align 8
  %359 = getelementptr inbounds double, double* %358, i64 1
  %360 = load double, double* %21, align 8
  %_30 = fsub double -0.000000e+00, -0.000000e+00
  %gen31 = fadd double %_30, %360
  %_32 = fsub double -0.000000e+00, %360
  %gen33 = fmul double %_32, %360
  %361 = fsub double -0.000000e+00, %360
  store double %361, double* %359, align 8
  %362 = getelementptr inbounds double, double* %359, i64 1
  %363 = load double, double* %20, align 8
  %_34 = fsub double -0.000000e+00, 1.000000e+00
  %gen35 = fadd double %_34, %363
  %364 = fsub double 1.000000e+00, %363
  store double %364, double* %362, align 8
  %365 = getelementptr inbounds [3 x double], [3 x double]* %357, i64 1
  %366 = getelementptr inbounds [3 x double], [3 x double]* %365, i64 0, i64 0
  store double 0.000000e+00, double* %366, align 8
  %367 = getelementptr inbounds double, double* %366, i64 1
  store double 0.000000e+00, double* %367, align 8
  %368 = getelementptr inbounds double, double* %367, i64 1
  store double 0.000000e+00, double* %368, align 8
  %369 = getelementptr inbounds [3 x double], [3 x double]* %365, i64 1
  %370 = getelementptr inbounds [3 x double], [3 x double]* %369, i64 0, i64 0
  store double 0.000000e+00, double* %370, align 8
  %371 = getelementptr inbounds double, double* %370, i64 1
  store double 0.000000e+00, double* %371, align 8
  %372 = getelementptr inbounds double, double* %371, i64 1
  store double 0.000000e+00, double* %372, align 8
  %373 = getelementptr inbounds [3 x [3 x double]], [3 x [3 x double]]* %356, i64 1
  %374 = getelementptr inbounds [3 x [3 x double]], [3 x [3 x double]]* %373, i64 0, i64 0
  %375 = getelementptr inbounds [3 x double], [3 x double]* %374, i64 0, i64 0
  store double 0.000000e+00, double* %375, align 8
  %376 = getelementptr inbounds double, double* %375, i64 1
  store double 0.000000e+00, double* %376, align 8
  %377 = getelementptr inbounds double, double* %376, i64 1
  store double 0.000000e+00, double* %377, align 8
  %378 = getelementptr inbounds [3 x double], [3 x double]* %374, i64 1
  %379 = getelementptr inbounds [3 x double], [3 x double]* %378, i64 0, i64 0
  store double 0.000000e+00, double* %379, align 8
  %380 = getelementptr inbounds double, double* %379, i64 1
  store double 0.000000e+00, double* %380, align 8
  %381 = getelementptr inbounds double, double* %380, i64 1
  store double 0.000000e+00, double* %381, align 8
  %382 = getelementptr inbounds [3 x double], [3 x double]* %378, i64 1
  %383 = getelementptr inbounds [3 x double], [3 x double]* %382, i64 0, i64 0
  %384 = load double, double* %20, align 8
  %_36 = fsub double -0.000000e+00, 1.000000e+00
  %gen37 = fadd double %_36, %384
  %_38 = fsub double 1.000000e+00, %384
  %gen39 = fmul double %_38, %384
  %_40 = fsub double 1.000000e+00, %384
  %gen41 = fmul double %_40, %384
  %385 = fsub double 1.000000e+00, %384
  %_42 = fsub double -0.000000e+00, %385
  %gen43 = fmul double %_42, %385
  %_44 = fsub double -0.000000e+00, -0.000000e+00
  %gen45 = fadd double %_44, %385
  %386 = fsub double -0.000000e+00, %385
  store double %386, double* %383, align 8
  %387 = getelementptr inbounds double, double* %383, i64 1
  %388 = load double, double* %19, align 8
  %_46 = fsub double 1.000000e+00, %388
  %gen47 = fmul double %_46, %388
  %_48 = fsub double -0.000000e+00, 1.000000e+00
  %gen49 = fadd double %_48, %388
  %_50 = fsub double -0.000000e+00, 1.000000e+00
  %gen51 = fadd double %_50, %388
  %_52 = fsub double -0.000000e+00, 1.000000e+00
  %gen53 = fadd double %_52, %388
  %_54 = fsub double -0.000000e+00, 1.000000e+00
  %gen55 = fadd double %_54, %388
  %389 = fsub double 1.000000e+00, %388
  %_56 = fsub double -0.000000e+00, -0.000000e+00
  %gen57 = fadd double %_56, %389
  %_58 = fsub double -0.000000e+00, %389
  %gen59 = fmul double %_58, %389
  %390 = fsub double -0.000000e+00, %389
  store double %390, double* %387, align 8
  %391 = getelementptr inbounds double, double* %387, i64 1
  store double 0.000000e+00, double* %391, align 8
  %392 = getelementptr inbounds [3 x [3 x double]], [3 x [3 x double]]* %373, i64 1
  %393 = getelementptr inbounds [3 x [3 x double]], [3 x [3 x double]]* %392, i64 0, i64 0
  %394 = getelementptr inbounds [3 x double], [3 x double]* %393, i64 0, i64 0
  store double 0.000000e+00, double* %394, align 8
  %395 = getelementptr inbounds double, double* %394, i64 1
  %396 = load double, double* %21, align 8
  %_60 = fsub double -0.000000e+00, 1.000000e+00
  %gen61 = fadd double %_60, %396
  %_62 = fsub double -0.000000e+00, 1.000000e+00
  %gen63 = fadd double %_62, %396
  %_64 = fsub double -0.000000e+00, 1.000000e+00
  %gen65 = fadd double %_64, %396
  %_66 = fsub double 1.000000e+00, %396
  %gen67 = fmul double %_66, %396
  %_68 = fsub double 1.000000e+00, %396
  %gen69 = fmul double %_68, %396
  %397 = fsub double 1.000000e+00, %396
  store double %397, double* %395, align 8
  %398 = getelementptr inbounds double, double* %395, i64 1
  %399 = load double, double* %20, align 8
  %_70 = fsub double -0.000000e+00, -0.000000e+00
  %gen71 = fadd double %_70, %399
  %_72 = fsub double -0.000000e+00, -0.000000e+00
  %gen73 = fadd double %_72, %399
  %400 = fsub double -0.000000e+00, %399
  store double %400, double* %398, align 8
  %401 = getelementptr inbounds [3 x double], [3 x double]* %393, i64 1
  %402 = getelementptr inbounds [3 x double], [3 x double]* %401, i64 0, i64 0
  store double 0.000000e+00, double* %402, align 8
  %403 = getelementptr inbounds double, double* %402, i64 1
  store double 0.000000e+00, double* %403, align 8
  %404 = getelementptr inbounds double, double* %403, i64 1
  store double 0.000000e+00, double* %404, align 8
  %405 = getelementptr inbounds [3 x double], [3 x double]* %401, i64 1
  %406 = getelementptr inbounds [3 x double], [3 x double]* %405, i64 0, i64 0
  store double 0.000000e+00, double* %406, align 8
  %407 = getelementptr inbounds double, double* %406, i64 1
  store double 0.000000e+00, double* %407, align 8
  %408 = getelementptr inbounds double, double* %407, i64 1
  store double 0.000000e+00, double* %408, align 8
  %409 = getelementptr inbounds [3 x [3 x double]], [3 x [3 x double]]* %392, i64 1
  %410 = getelementptr inbounds [3 x [3 x double]], [3 x [3 x double]]* %409, i64 0, i64 0
  %411 = getelementptr inbounds [3 x double], [3 x double]* %410, i64 0, i64 0
  store double 0.000000e+00, double* %411, align 8
  %412 = getelementptr inbounds double, double* %411, i64 1
  store double 0.000000e+00, double* %412, align 8
  %413 = getelementptr inbounds double, double* %412, i64 1
  store double 0.000000e+00, double* %413, align 8
  %414 = getelementptr inbounds [3 x double], [3 x double]* %410, i64 1
  %415 = getelementptr inbounds [3 x double], [3 x double]* %414, i64 0, i64 0
  store double 0.000000e+00, double* %415, align 8
  %416 = getelementptr inbounds double, double* %415, i64 1
  store double 0.000000e+00, double* %416, align 8
  %417 = getelementptr inbounds double, double* %416, i64 1
  store double 0.000000e+00, double* %417, align 8
  %418 = getelementptr inbounds [3 x double], [3 x double]* %414, i64 1
  %419 = getelementptr inbounds [3 x double], [3 x double]* %418, i64 0, i64 0
  %420 = load double, double* %20, align 8
  store double %420, double* %419, align 8
  %421 = getelementptr inbounds double, double* %419, i64 1
  %422 = load double, double* %19, align 8
  store double %422, double* %421, align 8
  %423 = getelementptr inbounds double, double* %421, i64 1
  store double 0.000000e+00, double* %423, align 8
  %424 = getelementptr inbounds [3 x [3 x double]], [3 x [3 x double]]* %409, i64 1
  %425 = getelementptr inbounds [3 x [3 x double]], [3 x [3 x double]]* %424, i64 0, i64 0
  %426 = getelementptr inbounds [3 x double], [3 x double]* %425, i64 0, i64 0
  store double 0.000000e+00, double* %426, align 8
  %427 = getelementptr inbounds double, double* %426, i64 1
  %428 = load double, double* %21, align 8
  store double %428, double* %427, align 8
  %429 = getelementptr inbounds double, double* %427, i64 1
  %430 = load double, double* %20, align 8
  store double %430, double* %429, align 8
  %431 = getelementptr inbounds [3 x double], [3 x double]* %425, i64 1
  %432 = getelementptr inbounds [3 x double], [3 x double]* %431, i64 0, i64 0
  store double 0.000000e+00, double* %432, align 8
  %433 = getelementptr inbounds double, double* %432, i64 1
  store double 0.000000e+00, double* %433, align 8
  %434 = getelementptr inbounds double, double* %433, i64 1
  store double 0.000000e+00, double* %434, align 8
  %435 = getelementptr inbounds [3 x double], [3 x double]* %431, i64 1
  %436 = getelementptr inbounds [3 x double], [3 x double]* %435, i64 0, i64 0
  store double 0.000000e+00, double* %436, align 8
  %437 = getelementptr inbounds double, double* %436, i64 1
  store double 0.000000e+00, double* %437, align 8
  %438 = getelementptr inbounds double, double* %437, i64 1
  store double 0.000000e+00, double* %438, align 8
  %439 = getelementptr inbounds [3 x [3 x double]], [3 x [3 x double]]* %424, i64 1
  %440 = getelementptr inbounds [3 x [3 x double]], [3 x [3 x double]]* %439, i64 0, i64 0
  %441 = getelementptr inbounds [3 x double], [3 x double]* %440, i64 0, i64 0
  store double 0.000000e+00, double* %441, align 8
  %442 = getelementptr inbounds double, double* %441, i64 1
  store double 0.000000e+00, double* %442, align 8
  %443 = getelementptr inbounds double, double* %442, i64 1
  store double 0.000000e+00, double* %443, align 8
  %444 = getelementptr inbounds [3 x double], [3 x double]* %440, i64 1
  %445 = getelementptr inbounds [3 x double], [3 x double]* %444, i64 0, i64 0
  store double 0.000000e+00, double* %445, align 8
  %446 = getelementptr inbounds double, double* %445, i64 1
  store double 0.000000e+00, double* %446, align 8
  %447 = getelementptr inbounds double, double* %446, i64 1
  store double 0.000000e+00, double* %447, align 8
  %448 = getelementptr inbounds [3 x double], [3 x double]* %444, i64 1
  %449 = getelementptr inbounds [3 x double], [3 x double]* %448, i64 0, i64 0
  %450 = load double, double* %20, align 8
  %_74 = fsub double -0.000000e+00, %450
  %gen75 = fmul double %_74, %450
  %_76 = fsub double -0.000000e+00, -0.000000e+00
  %gen77 = fadd double %_76, %450
  %_78 = fsub double -0.000000e+00, -0.000000e+00
  %gen79 = fadd double %_78, %450
  %_80 = fsub double -0.000000e+00, %450
  %gen81 = fmul double %_80, %450
  %_82 = fsub double -0.000000e+00, %450
  %gen83 = fmul double %_82, %450
  %_84 = fsub double -0.000000e+00, %450
  %gen85 = fmul double %_84, %450
  %451 = fsub double -0.000000e+00, %450
  store double %451, double* %449, align 8
  %452 = getelementptr inbounds double, double* %449, i64 1
  %453 = load double, double* %19, align 8
  %_86 = fsub double -0.000000e+00, 1.000000e+00
  %gen87 = fadd double %_86, %453
  %454 = fsub double 1.000000e+00, %453
  store double %454, double* %452, align 8
  %455 = getelementptr inbounds double, double* %452, i64 1
  store double 0.000000e+00, double* %455, align 8
  %456 = getelementptr inbounds [3 x [3 x double]], [3 x [3 x double]]* %439, i64 1
  %457 = getelementptr inbounds [3 x [3 x double]], [3 x [3 x double]]* %456, i64 0, i64 0
  %458 = getelementptr inbounds [3 x double], [3 x double]* %457, i64 0, i64 0
  store double 0.000000e+00, double* %458, align 8
  %459 = getelementptr inbounds double, double* %458, i64 1
  store double 0.000000e+00, double* %459, align 8
  %460 = getelementptr inbounds double, double* %459, i64 1
  store double 0.000000e+00, double* %460, align 8
  %461 = getelementptr inbounds [3 x double], [3 x double]* %457, i64 1
  %462 = getelementptr inbounds [3 x double], [3 x double]* %461, i64 0, i64 0
  %463 = load double, double* %21, align 8
  %_88 = fsub double -0.000000e+00, 1.000000e+00
  %gen89 = fadd double %_88, %463
  %_90 = fsub double 1.000000e+00, %463
  %gen91 = fmul double %_90, %463
  %_92 = fsub double 1.000000e+00, %463
  %gen93 = fmul double %_92, %463
  %_94 = fsub double 1.000000e+00, %463
  %gen95 = fmul double %_94, %463
  %_96 = fsub double -0.000000e+00, 1.000000e+00
  %gen97 = fadd double %_96, %463
  %_98 = fsub double 1.000000e+00, %463
  %gen99 = fmul double %_98, %463
  %464 = fsub double 1.000000e+00, %463
  %_100 = fsub double -0.000000e+00, -0.000000e+00
  %gen101 = fadd double %_100, %464
  %_102 = fsub double -0.000000e+00, %464
  %gen103 = fmul double %_102, %464
  %_104 = fsub double -0.000000e+00, %464
  %gen105 = fmul double %_104, %464
  %_106 = fsub double -0.000000e+00, -0.000000e+00
  %gen107 = fadd double %_106, %464
  %_108 = fsub double -0.000000e+00, %464
  %gen109 = fmul double %_108, %464
  %465 = fsub double -0.000000e+00, %464
  store double %465, double* %462, align 8
  %466 = getelementptr inbounds double, double* %462, i64 1
  store double 0.000000e+00, double* %466, align 8
  %467 = getelementptr inbounds double, double* %466, i64 1
  %468 = load double, double* %19, align 8
  %_110 = fsub double -0.000000e+00, 1.000000e+00
  %gen111 = fadd double %_110, %468
  %_112 = fsub double 1.000000e+00, %468
  %gen113 = fmul double %_112, %468
  %469 = fsub double 1.000000e+00, %468
  %_114 = fsub double -0.000000e+00, %469
  %gen115 = fmul double %_114, %469
  %_116 = fsub double -0.000000e+00, %469
  %gen117 = fmul double %_116, %469
  %470 = fsub double -0.000000e+00, %469
  store double %470, double* %467, align 8
  %471 = getelementptr inbounds [3 x double], [3 x double]* %461, i64 1
  %472 = getelementptr inbounds [3 x double], [3 x double]* %471, i64 0, i64 0
  store double 0.000000e+00, double* %472, align 8
  %473 = getelementptr inbounds double, double* %472, i64 1
  store double 0.000000e+00, double* %473, align 8
  %474 = getelementptr inbounds double, double* %473, i64 1
  store double 0.000000e+00, double* %474, align 8
  %475 = getelementptr inbounds [3 x [3 x double]], [3 x [3 x double]]* %456, i64 1
  %476 = getelementptr inbounds [3 x [3 x double]], [3 x [3 x double]]* %475, i64 0, i64 0
  %477 = getelementptr inbounds [3 x double], [3 x double]* %476, i64 0, i64 0
  store double 0.000000e+00, double* %477, align 8
  %478 = getelementptr inbounds double, double* %477, i64 1
  store double 0.000000e+00, double* %478, align 8
  %479 = getelementptr inbounds double, double* %478, i64 1
  store double 0.000000e+00, double* %479, align 8
  %480 = getelementptr inbounds [3 x double], [3 x double]* %476, i64 1
  %481 = getelementptr inbounds [3 x double], [3 x double]* %480, i64 0, i64 0
  %482 = load double, double* %21, align 8
  %_118 = fsub double -0.000000e+00, 1.000000e+00
  %gen119 = fadd double %_118, %482
  %_120 = fsub double -0.000000e+00, 1.000000e+00
  %gen121 = fadd double %_120, %482
  %483 = fsub double 1.000000e+00, %482
  store double %483, double* %481, align 8
  %484 = getelementptr inbounds double, double* %481, i64 1
  store double 0.000000e+00, double* %484, align 8
  %485 = getelementptr inbounds double, double* %484, i64 1
  %486 = load double, double* %19, align 8
  %_122 = fsub double -0.000000e+00, -0.000000e+00
  %gen123 = fadd double %_122, %486
  %_124 = fsub double -0.000000e+00, -0.000000e+00
  %gen125 = fadd double %_124, %486
  %_126 = fsub double -0.000000e+00, %486
  %gen127 = fmul double %_126, %486
  %_128 = fsub double -0.000000e+00, %486
  %gen129 = fmul double %_128, %486
  %487 = fsub double -0.000000e+00, %486
  store double %487, double* %485, align 8
  %488 = getelementptr inbounds [3 x double], [3 x double]* %480, i64 1
  %489 = getelementptr inbounds [3 x double], [3 x double]* %488, i64 0, i64 0
  store double 0.000000e+00, double* %489, align 8
  %490 = getelementptr inbounds double, double* %489, i64 1
  store double 0.000000e+00, double* %490, align 8
  %491 = getelementptr inbounds double, double* %490, i64 1
  store double 0.000000e+00, double* %491, align 8
  %492 = getelementptr inbounds [3 x [3 x double]], [3 x [3 x double]]* %475, i64 1
  %493 = getelementptr inbounds [3 x [3 x double]], [3 x [3 x double]]* %492, i64 0, i64 0
  %494 = getelementptr inbounds [3 x double], [3 x double]* %493, i64 0, i64 0
  store double 0.000000e+00, double* %494, align 8
  %495 = getelementptr inbounds double, double* %494, i64 1
  store double 0.000000e+00, double* %495, align 8
  %496 = getelementptr inbounds double, double* %495, i64 1
  store double 0.000000e+00, double* %496, align 8
  %497 = getelementptr inbounds [3 x double], [3 x double]* %493, i64 1
  %498 = getelementptr inbounds [3 x double], [3 x double]* %497, i64 0, i64 0
  %499 = load double, double* %21, align 8
  store double %499, double* %498, align 8
  %500 = getelementptr inbounds double, double* %498, i64 1
  store double 0.000000e+00, double* %500, align 8
  %501 = getelementptr inbounds double, double* %500, i64 1
  %502 = load double, double* %19, align 8
  store double %502, double* %501, align 8
  %503 = getelementptr inbounds [3 x double], [3 x double]* %497, i64 1
  %504 = getelementptr inbounds [3 x double], [3 x double]* %503, i64 0, i64 0
  store double 0.000000e+00, double* %504, align 8
  %505 = getelementptr inbounds double, double* %504, i64 1
  store double 0.000000e+00, double* %505, align 8
  %506 = getelementptr inbounds double, double* %505, i64 1
  store double 0.000000e+00, double* %506, align 8
  %507 = getelementptr inbounds [3 x [3 x double]], [3 x [3 x double]]* %492, i64 1
  %508 = getelementptr inbounds [3 x [3 x double]], [3 x [3 x double]]* %507, i64 0, i64 0
  %509 = getelementptr inbounds [3 x double], [3 x double]* %508, i64 0, i64 0
  store double 0.000000e+00, double* %509, align 8
  %510 = getelementptr inbounds double, double* %509, i64 1
  store double 0.000000e+00, double* %510, align 8
  %511 = getelementptr inbounds double, double* %510, i64 1
  store double 0.000000e+00, double* %511, align 8
  %512 = getelementptr inbounds [3 x double], [3 x double]* %508, i64 1
  %513 = getelementptr inbounds [3 x double], [3 x double]* %512, i64 0, i64 0
  %514 = load double, double* %21, align 8
  %_130 = fsub double -0.000000e+00, -0.000000e+00
  %gen131 = fadd double %_130, %514
  %_132 = fsub double -0.000000e+00, -0.000000e+00
  %gen133 = fadd double %_132, %514
  %_134 = fsub double -0.000000e+00, -0.000000e+00
  %gen135 = fadd double %_134, %514
  %_136 = fsub double -0.000000e+00, %514
  %gen137 = fmul double %_136, %514
  %_138 = fsub double -0.000000e+00, %514
  %gen139 = fmul double %_138, %514
  %_140 = fsub double -0.000000e+00, %514
  %gen141 = fmul double %_140, %514
  %515 = fsub double -0.000000e+00, %514
  store double %515, double* %513, align 8
  %516 = getelementptr inbounds double, double* %513, i64 1
  store double 0.000000e+00, double* %516, align 8
  %517 = getelementptr inbounds double, double* %516, i64 1
  %518 = load double, double* %19, align 8
  %_142 = fsub double -0.000000e+00, 1.000000e+00
  %gen143 = fadd double %_142, %518
  %519 = fsub double 1.000000e+00, %518
  store double %519, double* %517, align 8
  %520 = getelementptr inbounds [3 x double], [3 x double]* %512, i64 1
  %521 = getelementptr inbounds [3 x double], [3 x double]* %520, i64 0, i64 0
  store double 0.000000e+00, double* %521, align 8
  %522 = getelementptr inbounds double, double* %521, i64 1
  store double 0.000000e+00, double* %522, align 8
  %523 = getelementptr inbounds double, double* %522, i64 1
  store double 0.000000e+00, double* %523, align 8
  %524 = load i32, i32* %15, align 4
  %525 = zext i32 %524 to i64
  %526 = getelementptr inbounds [12 x [3 x [3 x double]]], [12 x [3 x [3 x double]]]* %22, i64 0, i64 %525
  %527 = load i32, i32* %17, align 4
  %528 = zext i32 %527 to i64
  %529 = getelementptr inbounds [3 x [3 x double]], [3 x [3 x double]]* %526, i64 0, i64 %528
  call void @_ZN6TensorILi1ELi3EEC2ERA3_Kd(%class.Tensor* %0, [3 x double]* dereferenceable(24) %529)
  br label %originalBB1

originalBB147alteredBB:                           ; preds = %originalBB147, %267
  br label %originalBB147

originalBB151alteredBB:                           ; preds = %originalBB151, %285
  br label %originalBB151
}

; Function Attrs: noinline nounwind uwtable
define linkonce_odr void @_ZN6TensorILi1ELi3EEC2ERA3_Kd(%class.Tensor*, [3 x double]* dereferenceable(24)) unnamed_addr #1 comdat align 2 {
  %3 = load i32, i32* @x.5
  %4 = load i32, i32* @y.6
  %5 = sub i32 %3, 1
  %6 = mul i32 %3, %5
  %7 = urem i32 %6, 2
  %8 = icmp eq i32 %7, 0
  %9 = icmp slt i32 %4, 10
  %10 = or i1 %8, %9
  br i1 %10, label %originalBB, label %originalBBalteredBB

originalBB:                                       ; preds = %2, %originalBBalteredBB
  %11 = alloca %class.Tensor*, align 8
  %12 = alloca [3 x double]*, align 8
  %13 = alloca i32, align 4
  store %class.Tensor* %0, %class.Tensor** %11, align 8
  store [3 x double]* %1, [3 x double]** %12, align 8
  %14 = load %class.Tensor*, %class.Tensor** %11, align 8
  store i32 0, i32* %13, align 4
  %15 = load i32, i32* @x.5
  %16 = load i32, i32* @y.6
  %17 = sub i32 %15, 1
  %18 = mul i32 %15, %17
  %19 = urem i32 %18, 2
  %20 = icmp eq i32 %19, 0
  %21 = icmp slt i32 %16, 10
  %22 = or i1 %20, %21
  br i1 %22, label %originalBBpart2, label %originalBBalteredBB

originalBBpart2:                                  ; preds = %originalBB
  br label %23

; <label>:23:                                     ; preds = %originalBBpart211, %originalBBpart2
  %24 = load i32, i32* %13, align 4
  %25 = icmp ult i32 %24, 3
  br i1 %25, label %26, label %71

; <label>:26:                                     ; preds = %23
  %27 = load i32, i32* @x.5
  %28 = load i32, i32* @y.6
  %29 = sub i32 %27, 1
  %30 = mul i32 %27, %29
  %31 = urem i32 %30, 2
  %32 = icmp eq i32 %31, 0
  %33 = icmp slt i32 %28, 10
  %34 = or i1 %32, %33
  br i1 %34, label %originalBB1, label %originalBB1alteredBB

originalBB1:                                      ; preds = %26, %originalBB1alteredBB
  %35 = load [3 x double]*, [3 x double]** %12, align 8
  %36 = load i32, i32* %13, align 4
  %37 = zext i32 %36 to i64
  %38 = getelementptr inbounds [3 x double], [3 x double]* %35, i64 0, i64 %37
  %39 = load double, double* %38, align 8
  %40 = getelementptr inbounds %class.Tensor, %class.Tensor* %14, i32 0, i32 0
  %41 = load i32, i32* %13, align 4
  %42 = zext i32 %41 to i64
  %43 = getelementptr inbounds [3 x double], [3 x double]* %40, i64 0, i64 %42
  store double %39, double* %43, align 8
  %44 = load i32, i32* @x.5
  %45 = load i32, i32* @y.6
  %46 = sub i32 %44, 1
  %47 = mul i32 %44, %46
  %48 = urem i32 %47, 2
  %49 = icmp eq i32 %48, 0
  %50 = icmp slt i32 %45, 10
  %51 = or i1 %49, %50
  br i1 %51, label %originalBBpart24, label %originalBB1alteredBB

originalBBpart24:                                 ; preds = %originalBB1
  br label %52

; <label>:52:                                     ; preds = %originalBBpart24
  %53 = load i32, i32* @x.5
  %54 = load i32, i32* @y.6
  %55 = sub i32 %53, 1
  %56 = mul i32 %53, %55
  %57 = urem i32 %56, 2
  %58 = icmp eq i32 %57, 0
  %59 = icmp slt i32 %54, 10
  %60 = or i1 %58, %59
  br i1 %60, label %originalBB6, label %originalBB6alteredBB

originalBB6:                                      ; preds = %52, %originalBB6alteredBB
  %61 = load i32, i32* %13, align 4
  %62 = add i32 %61, 1
  store i32 %62, i32* %13, align 4
  %63 = load i32, i32* @x.5
  %64 = load i32, i32* @y.6
  %65 = sub i32 %63, 1
  %66 = mul i32 %63, %65
  %67 = urem i32 %66, 2
  %68 = icmp eq i32 %67, 0
  %69 = icmp slt i32 %64, 10
  %70 = or i1 %68, %69
  br i1 %70, label %originalBBpart211, label %originalBB6alteredBB

originalBBpart211:                                ; preds = %originalBB6
  br label %23

; <label>:71:                                     ; preds = %23
  ret void

originalBBalteredBB:                              ; preds = %originalBB, %2
  %72 = alloca %class.Tensor*, align 8
  %73 = alloca [3 x double]*, align 8
  %74 = alloca i32, align 4
  store %class.Tensor* %0, %class.Tensor** %72, align 8
  store [3 x double]* %1, [3 x double]** %73, align 8
  %75 = load %class.Tensor*, %class.Tensor** %72, align 8
  store i32 0, i32* %74, align 4
  br label %originalBB

originalBB1alteredBB:                             ; preds = %originalBB1, %26
  %76 = load [3 x double]*, [3 x double]** %12, align 8
  %77 = load i32, i32* %13, align 4
  %78 = zext i32 %77 to i64
  %79 = getelementptr inbounds [3 x double], [3 x double]* %76, i64 0, i64 %78
  %80 = load double, double* %79, align 8
  %81 = getelementptr inbounds %class.Tensor, %class.Tensor* %14, i32 0, i32 0
  %82 = load i32, i32* %13, align 4
  %83 = zext i32 %82 to i64
  %84 = getelementptr inbounds [3 x double], [3 x double]* %81, i64 0, i64 %83
  store double %80, double* %84, align 8
  br label %originalBB1

originalBB6alteredBB:                             ; preds = %originalBB6, %52
  %85 = load i32, i32* %13, align 4
  %_ = sub i32 %85, 1
  %gen = mul i32 %_, 1
  %_7 = shl i32 %85, 1
  %_8 = sub i32 %85, 1
  %gen9 = mul i32 %_8, 1
  %86 = add i32 %85, 1
  store i32 %86, i32* %13, align 4
  br label %originalBB6
}

; Function Attrs: noinline nounwind uwtable
define linkonce_odr void @_ZN6TensorILi1ELi3EEC2Eb(%class.Tensor*, i1 zeroext) unnamed_addr #1 comdat align 2 {
  %3 = alloca %class.Tensor*, align 8
  %4 = alloca i8, align 1
  %5 = alloca i32, align 4
  store %class.Tensor* %0, %class.Tensor** %3, align 8
  %6 = zext i1 %1 to i8
  store i8 %6, i8* %4, align 1
  %7 = load %class.Tensor*, %class.Tensor** %3, align 8
  %8 = load i8, i8* %4, align 1
  %9 = trunc i8 %8 to i1
  br i1 %9, label %10, label %71

; <label>:10:                                     ; preds = %2
  store i32 0, i32* %5, align 4
  br label %11

; <label>:11:                                     ; preds = %originalBBpart215, %10
  %12 = load i32, i32* @x.7
  %13 = load i32, i32* @y.8
  %14 = sub i32 %12, 1
  %15 = mul i32 %12, %14
  %16 = urem i32 %15, 2
  %17 = icmp eq i32 %16, 0
  %18 = icmp slt i32 %13, 10
  %19 = or i1 %17, %18
  br i1 %19, label %originalBB, label %originalBBalteredBB

originalBB:                                       ; preds = %11, %originalBBalteredBB
  %20 = load i32, i32* %5, align 4
  %21 = icmp ne i32 %20, 3
  %22 = load i32, i32* @x.7
  %23 = load i32, i32* @y.8
  %24 = sub i32 %22, 1
  %25 = mul i32 %22, %24
  %26 = urem i32 %25, 2
  %27 = icmp eq i32 %26, 0
  %28 = icmp slt i32 %23, 10
  %29 = or i1 %27, %28
  br i1 %29, label %originalBBpart2, label %originalBBalteredBB

originalBBpart2:                                  ; preds = %originalBB
  br i1 %21, label %30, label %70

; <label>:30:                                     ; preds = %originalBBpart2
  %31 = load i32, i32* @x.7
  %32 = load i32, i32* @y.8
  %33 = sub i32 %31, 1
  %34 = mul i32 %31, %33
  %35 = urem i32 %34, 2
  %36 = icmp eq i32 %35, 0
  %37 = icmp slt i32 %32, 10
  %38 = or i1 %36, %37
  br i1 %38, label %originalBB1, label %originalBB1alteredBB

originalBB1:                                      ; preds = %30, %originalBB1alteredBB
  %39 = getelementptr inbounds %class.Tensor, %class.Tensor* %7, i32 0, i32 0
  %40 = load i32, i32* %5, align 4
  %41 = zext i32 %40 to i64
  %42 = getelementptr inbounds [3 x double], [3 x double]* %39, i64 0, i64 %41
  store double 0.000000e+00, double* %42, align 8
  %43 = load i32, i32* @x.7
  %44 = load i32, i32* @y.8
  %45 = sub i32 %43, 1
  %46 = mul i32 %43, %45
  %47 = urem i32 %46, 2
  %48 = icmp eq i32 %47, 0
  %49 = icmp slt i32 %44, 10
  %50 = or i1 %48, %49
  br i1 %50, label %originalBBpart24, label %originalBB1alteredBB

originalBBpart24:                                 ; preds = %originalBB1
  br label %51

; <label>:51:                                     ; preds = %originalBBpart24
  %52 = load i32, i32* @x.7
  %53 = load i32, i32* @y.8
  %54 = sub i32 %52, 1
  %55 = mul i32 %52, %54
  %56 = urem i32 %55, 2
  %57 = icmp eq i32 %56, 0
  %58 = icmp slt i32 %53, 10
  %59 = or i1 %57, %58
  br i1 %59, label %originalBB6, label %originalBB6alteredBB

originalBB6:                                      ; preds = %51, %originalBB6alteredBB
  %60 = load i32, i32* %5, align 4
  %61 = add i32 %60, 1
  store i32 %61, i32* %5, align 4
  %62 = load i32, i32* @x.7
  %63 = load i32, i32* @y.8
  %64 = sub i32 %62, 1
  %65 = mul i32 %62, %64
  %66 = urem i32 %65, 2
  %67 = icmp eq i32 %66, 0
  %68 = icmp slt i32 %63, 10
  %69 = or i1 %67, %68
  br i1 %69, label %originalBBpart215, label %originalBB6alteredBB

originalBBpart215:                                ; preds = %originalBB6
  br label %11

; <label>:70:                                     ; preds = %originalBBpart2
  br label %71

; <label>:71:                                     ; preds = %70, %2
  %72 = load i32, i32* @x.7
  %73 = load i32, i32* @y.8
  %74 = sub i32 %72, 1
  %75 = mul i32 %72, %74
  %76 = urem i32 %75, 2
  %77 = icmp eq i32 %76, 0
  %78 = icmp slt i32 %73, 10
  %79 = or i1 %77, %78
  br i1 %79, label %originalBB17, label %originalBB17alteredBB

originalBB17:                                     ; preds = %71, %originalBB17alteredBB
  %80 = load i32, i32* @x.7
  %81 = load i32, i32* @y.8
  %82 = sub i32 %80, 1
  %83 = mul i32 %80, %82
  %84 = urem i32 %83, 2
  %85 = icmp eq i32 %84, 0
  %86 = icmp slt i32 %81, 10
  %87 = or i1 %85, %86
  br i1 %87, label %originalBBpart219, label %originalBB17alteredBB

originalBBpart219:                                ; preds = %originalBB17
  ret void

originalBBalteredBB:                              ; preds = %originalBB, %11
  %88 = load i32, i32* %5, align 4
  %89 = icmp ne i32 %88, 3
  br label %originalBB

originalBB1alteredBB:                             ; preds = %originalBB1, %30
  %90 = getelementptr inbounds %class.Tensor, %class.Tensor* %7, i32 0, i32 0
  %91 = load i32, i32* %5, align 4
  %92 = zext i32 %91 to i64
  %93 = getelementptr inbounds [3 x double], [3 x double]* %90, i64 0, i64 %92
  store double 0.000000e+00, double* %93, align 8
  br label %originalBB1

originalBB6alteredBB:                             ; preds = %originalBB6, %51
  %94 = load i32, i32* %5, align 4
  %_ = shl i32 %94, 1
  %_7 = sub i32 %94, 1
  %gen = mul i32 %_7, 1
  %_8 = shl i32 %94, 1
  %_9 = shl i32 %94, 1
  %_10 = shl i32 %94, 1
  %_11 = sub i32 %94, 1
  %gen12 = mul i32 %_11, 1
  %_13 = shl i32 %94, 1
  %95 = add i32 %94, 1
  store i32 %95, i32* %5, align 4
  br label %originalBB6

originalBB17alteredBB:                            ; preds = %originalBB17, %71
  br label %originalBB17
}

; Function Attrs: noinline uwtable
define void @_ZNK10FE_NedelecILi3EE25shape_grad_grad_componentEjRK5PointILi3EEj(%class.Tensor.33* noalias sret, %class.FE_Nedelec*, i32, %class.Point* dereferenceable(24), i32) unnamed_addr #0 align 2 {
  %6 = load i32, i32* @x.9
  %7 = load i32, i32* @y.10
  %8 = sub i32 %6, 1
  %9 = mul i32 %6, %8
  %10 = urem i32 %9, 2
  %11 = icmp eq i32 %10, 0
  %12 = icmp slt i32 %7, 10
  %13 = or i1 %11, %12
  br i1 %13, label %originalBB, label %originalBBalteredBB

originalBB:                                       ; preds = %5, %originalBBalteredBB
  %14 = alloca %class.FE_Nedelec*, align 8
  %15 = alloca i32, align 4
  %16 = alloca %class.Point*, align 8
  %17 = alloca i32, align 4
  %18 = alloca i32, align 4
  store %class.FE_Nedelec* %1, %class.FE_Nedelec** %14, align 8
  store i32 %2, i32* %15, align 4
  store %class.Point* %3, %class.Point** %16, align 8
  store i32 %4, i32* %17, align 4
  %19 = load %class.FE_Nedelec*, %class.FE_Nedelec** %14, align 8
  store i32 3, i32* %18, align 4
  %20 = getelementptr inbounds %class.FE_Nedelec, %class.FE_Nedelec* %19, i32 0, i32 1
  %21 = load i32, i32* %20, align 4
  %22 = load i32, i32* @x.9
  %23 = load i32, i32* @y.10
  %24 = sub i32 %22, 1
  %25 = mul i32 %22, %24
  %26 = urem i32 %25, 2
  %27 = icmp eq i32 %26, 0
  %28 = icmp slt i32 %23, 10
  %29 = or i1 %27, %28
  br i1 %29, label %originalBBpart2, label %originalBBalteredBB

originalBBpart2:                                  ; preds = %originalBB
  switch i32 %21, label %37 [
    i32 1, label %30
  ]

; <label>:30:                                     ; preds = %originalBBpart2
  %31 = load i32, i32* %15, align 4
  %32 = zext i32 %31 to i64
  %33 = getelementptr inbounds [12 x [3 x [3 x [3 x double]]]], [12 x [3 x [3 x [3 x double]]]]* @_ZZNK10FE_NedelecILi3EE25shape_grad_grad_componentEjRK5PointILi3EEjE15unit_grad_grads, i64 0, i64 %32
  %34 = load i32, i32* %17, align 4
  %35 = zext i32 %34 to i64
  %36 = getelementptr inbounds [3 x [3 x [3 x double]]], [3 x [3 x [3 x double]]]* %33, i64 0, i64 %35
  call void @_ZN6TensorILi2ELi3EEC2ERA3_A3_Kd(%class.Tensor.33* %0, [3 x [3 x double]]* dereferenceable(72) %36)
  br label %55

; <label>:37:                                     ; preds = %originalBBpart2
  %38 = load i32, i32* @x.9
  %39 = load i32, i32* @y.10
  %40 = sub i32 %38, 1
  %41 = mul i32 %38, %40
  %42 = urem i32 %41, 2
  %43 = icmp eq i32 %42, 0
  %44 = icmp slt i32 %39, 10
  %45 = or i1 %43, %44
  br i1 %45, label %originalBB1, label %originalBB1alteredBB

originalBB1:                                      ; preds = %37, %originalBB1alteredBB
  %46 = load i32, i32* @x.9
  %47 = load i32, i32* @y.10
  %48 = sub i32 %46, 1
  %49 = mul i32 %46, %48
  %50 = urem i32 %49, 2
  %51 = icmp eq i32 %50, 0
  %52 = icmp slt i32 %47, 10
  %53 = or i1 %51, %52
  br i1 %53, label %originalBBpart24, label %originalBB1alteredBB

originalBBpart24:                                 ; preds = %originalBB1
  br label %54

; <label>:54:                                     ; preds = %originalBBpart24
  call void @_ZN6TensorILi2ELi3EEC2Ev(%class.Tensor.33* %0)
  br label %55

; <label>:55:                                     ; preds = %54, %30
  ret void

originalBBalteredBB:                              ; preds = %originalBB, %5
  %56 = alloca %class.FE_Nedelec*, align 8
  %57 = alloca i32, align 4
  %58 = alloca %class.Point*, align 8
  %59 = alloca i32, align 4
  %60 = alloca i32, align 4
  store %class.FE_Nedelec* %1, %class.FE_Nedelec** %56, align 8
  store i32 %2, i32* %57, align 4
  store %class.Point* %3, %class.Point** %58, align 8
  store i32 %4, i32* %59, align 4
  %61 = load %class.FE_Nedelec*, %class.FE_Nedelec** %56, align 8
  store i32 3, i32* %60, align 4
  %62 = getelementptr inbounds %class.FE_Nedelec, %class.FE_Nedelec* %61, i32 0, i32 1
  %63 = load i32, i32* %62, align 4
  br label %originalBB

originalBB1alteredBB:                             ; preds = %originalBB1, %37
  br label %originalBB1
}

; Function Attrs: noinline uwtable
define linkonce_odr void @_ZN6TensorILi2ELi3EEC2ERA3_A3_Kd(%class.Tensor.33*, [3 x [3 x double]]* dereferenceable(72)) unnamed_addr #0 comdat align 2 {
  %3 = alloca %class.Tensor.33*, align 8
  %4 = alloca [3 x [3 x double]]*, align 8
  %5 = alloca i32, align 4
  %6 = alloca %class.Tensor, align 8
  store %class.Tensor.33* %0, %class.Tensor.33** %3, align 8
  store [3 x [3 x double]]* %1, [3 x [3 x double]]** %4, align 8
  %7 = load %class.Tensor.33*, %class.Tensor.33** %3, align 8
  %8 = getelementptr inbounds %class.Tensor.33, %class.Tensor.33* %7, i32 0, i32 0
  %9 = getelementptr inbounds [3 x %class.Tensor], [3 x %class.Tensor]* %8, i32 0, i32 0
  %10 = getelementptr inbounds %class.Tensor, %class.Tensor* %9, i64 3
  br label %11

; <label>:11:                                     ; preds = %11, %2
  %12 = phi %class.Tensor* [ %9, %2 ], [ %13, %11 ]
  call void @_ZN6TensorILi1ELi3EEC2Eb(%class.Tensor* %12, i1 zeroext true)
  %13 = getelementptr inbounds %class.Tensor, %class.Tensor* %12, i64 1
  %14 = icmp eq %class.Tensor* %13, %10
  br i1 %14, label %15, label %11

; <label>:15:                                     ; preds = %11
  store i32 0, i32* %5, align 4
  br label %16

; <label>:16:                                     ; preds = %29, %15
  %17 = load i32, i32* %5, align 4
  %18 = icmp ult i32 %17, 3
  br i1 %18, label %19, label %32

; <label>:19:                                     ; preds = %16
  %20 = load [3 x [3 x double]]*, [3 x [3 x double]]** %4, align 8
  %21 = load i32, i32* %5, align 4
  %22 = zext i32 %21 to i64
  %23 = getelementptr inbounds [3 x [3 x double]], [3 x [3 x double]]* %20, i64 0, i64 %22
  call void @_ZN6TensorILi1ELi3EEC2ERA3_Kd(%class.Tensor* %6, [3 x double]* dereferenceable(24) %23)
  %24 = getelementptr inbounds %class.Tensor.33, %class.Tensor.33* %7, i32 0, i32 0
  %25 = load i32, i32* %5, align 4
  %26 = zext i32 %25 to i64
  %27 = getelementptr inbounds [3 x %class.Tensor], [3 x %class.Tensor]* %24, i64 0, i64 %26
  %28 = call dereferenceable(24) %class.Tensor* @_ZN6TensorILi1ELi3EEaSERKS0_(%class.Tensor* %27, %class.Tensor* dereferenceable(24) %6)
  br label %29

; <label>:29:                                     ; preds = %19
  %30 = load i32, i32* %5, align 4
  %31 = add i32 %30, 1
  store i32 %31, i32* %5, align 4
  br label %16

; <label>:32:                                     ; preds = %16
  ret void
}

; Function Attrs: noinline uwtable
define linkonce_odr void @_ZN6TensorILi2ELi3EEC2Ev(%class.Tensor.33*) unnamed_addr #0 comdat align 2 {
  %2 = load i32, i32* @x.13
  %3 = load i32, i32* @y.14
  %4 = sub i32 %2, 1
  %5 = mul i32 %2, %4
  %6 = urem i32 %5, 2
  %7 = icmp eq i32 %6, 0
  %8 = icmp slt i32 %3, 10
  %9 = or i1 %7, %8
  br i1 %9, label %originalBB, label %originalBBalteredBB

originalBB:                                       ; preds = %1, %originalBBalteredBB
  %10 = alloca %class.Tensor.33*, align 8
  store %class.Tensor.33* %0, %class.Tensor.33** %10, align 8
  %11 = load %class.Tensor.33*, %class.Tensor.33** %10, align 8
  %12 = getelementptr inbounds %class.Tensor.33, %class.Tensor.33* %11, i32 0, i32 0
  %13 = getelementptr inbounds [3 x %class.Tensor], [3 x %class.Tensor]* %12, i32 0, i32 0
  %14 = getelementptr inbounds %class.Tensor, %class.Tensor* %13, i64 3
  %15 = load i32, i32* @x.13
  %16 = load i32, i32* @y.14
  %17 = sub i32 %15, 1
  %18 = mul i32 %15, %17
  %19 = urem i32 %18, 2
  %20 = icmp eq i32 %19, 0
  %21 = icmp slt i32 %16, 10
  %22 = or i1 %20, %21
  br i1 %22, label %originalBBpart2, label %originalBBalteredBB

originalBBpart2:                                  ; preds = %originalBB
  br label %23

; <label>:23:                                     ; preds = %23, %originalBBpart2
  %24 = phi %class.Tensor* [ %13, %originalBBpart2 ], [ %25, %23 ]
  call void @_ZN6TensorILi1ELi3EEC2Eb(%class.Tensor* %24, i1 zeroext true)
  %25 = getelementptr inbounds %class.Tensor, %class.Tensor* %24, i64 1
  %26 = icmp eq %class.Tensor* %25, %14
  br i1 %26, label %27, label %23

; <label>:27:                                     ; preds = %23
  ret void

originalBBalteredBB:                              ; preds = %originalBB, %1
  %28 = alloca %class.Tensor.33*, align 8
  store %class.Tensor.33* %0, %class.Tensor.33** %28, align 8
  %29 = load %class.Tensor.33*, %class.Tensor.33** %28, align 8
  %30 = getelementptr inbounds %class.Tensor.33, %class.Tensor.33* %29, i32 0, i32 0
  %31 = getelementptr inbounds [3 x %class.Tensor], [3 x %class.Tensor]* %30, i32 0, i32 0
  %32 = getelementptr inbounds %class.Tensor, %class.Tensor* %31, i64 3
  br label %originalBB
}

; Function Attrs: noinline uwtable
define weak_odr void @_ZN10FE_NedelecILi3EEC2Ej(%class.FE_Nedelec*, i32) unnamed_addr #0 comdat($_ZN10FE_NedelecILi3EEC5Ej) align 2 personality i8* bitcast (i32 (...)* @__gxx_personality_v0 to i8*) {
  %3 = load i32, i32* @x.15
  %4 = load i32, i32* @y.16
  %5 = sub i32 %3, 1
  %6 = mul i32 %3, %5
  %7 = urem i32 %6, 2
  %8 = icmp eq i32 %7, 0
  %9 = icmp slt i32 %4, 10
  %10 = or i1 %8, %9
  br i1 %10, label %originalBB, label %originalBBalteredBB

originalBB:                                       ; preds = %2, %originalBBalteredBB
  %11 = alloca %class.FE_Nedelec*, align 8
  %12 = alloca i32, align 4
  %13 = alloca %class.FiniteElementData, align 4
  %14 = alloca %"class.std::vector.28", align 8
  %15 = alloca i8*
  %16 = alloca i32
  %17 = alloca %"class.std::vector.7", align 8
  %18 = alloca %class.FiniteElementData, align 4
  %19 = alloca %"class.std::vector.28", align 8
  %20 = alloca i8, align 1
  %21 = alloca %"class.std::allocator.34", align 1
  %22 = alloca %"class.std::vector.23", align 8
  %23 = alloca %class.FiniteElementData, align 4
  %24 = alloca %"class.std::vector.28", align 8
  %25 = alloca %"class.std::vector.7", align 8
  %26 = alloca i8, align 1
  %27 = alloca %"class.std::allocator.34", align 1
  %28 = alloca %"class.std::allocator.25", align 1
  %29 = alloca %"class.std::vector", align 8
  %30 = alloca %"class.std::vector", align 8
  store %class.FE_Nedelec* %0, %class.FE_Nedelec** %11, align 8
  store i32 %1, i32* %12, align 4
  %31 = load %class.FE_Nedelec*, %class.FE_Nedelec** %11, align 8
  %32 = bitcast %class.FE_Nedelec* %31 to %class.FiniteElement*
  %33 = load i32, i32* %12, align 4
  call void @_ZN10FE_NedelecILi3EE14get_dpo_vectorEj(%"class.std::vector.28"* sret %14, i32 %33)
  %34 = load i32, i32* @x.15
  %35 = load i32, i32* @y.16
  %36 = sub i32 %34, 1
  %37 = mul i32 %34, %36
  %38 = urem i32 %37, 2
  %39 = icmp eq i32 %38, 0
  %40 = icmp slt i32 %35, 10
  %41 = or i1 %39, %40
  br i1 %41, label %originalBBpart2, label %originalBBalteredBB

originalBBpart2:                                  ; preds = %originalBB
  invoke void @_ZN17FiniteElementDataILi3EEC1ERKSt6vectorIjSaIjEEjj(%class.FiniteElementData* %13, %"class.std::vector.28"* dereferenceable(24) %14, i32 3, i32 -1)
          to label %42 unwind label %194

; <label>:42:                                     ; preds = %originalBBpart2
  %43 = load i32, i32* @x.15
  %44 = load i32, i32* @y.16
  %45 = sub i32 %43, 1
  %46 = mul i32 %43, %45
  %47 = urem i32 %46, 2
  %48 = icmp eq i32 %47, 0
  %49 = icmp slt i32 %44, 10
  %50 = or i1 %48, %49
  br i1 %50, label %originalBB1, label %originalBB1alteredBB

originalBB1:                                      ; preds = %42, %originalBB1alteredBB
  %51 = load i32, i32* %12, align 4
  %52 = load i32, i32* @x.15
  %53 = load i32, i32* @y.16
  %54 = sub i32 %52, 1
  %55 = mul i32 %52, %54
  %56 = urem i32 %55, 2
  %57 = icmp eq i32 %56, 0
  %58 = icmp slt i32 %53, 10
  %59 = or i1 %57, %58
  br i1 %59, label %originalBBpart24, label %originalBB1alteredBB

originalBBpart24:                                 ; preds = %originalBB1
  invoke void @_ZN10FE_NedelecILi3EE14get_dpo_vectorEj(%"class.std::vector.28"* sret %19, i32 %51)
          to label %60 unwind label %194

; <label>:60:                                     ; preds = %originalBBpart24
  invoke void @_ZN17FiniteElementDataILi3EEC1ERKSt6vectorIjSaIjEEjj(%class.FiniteElementData* %18, %"class.std::vector.28"* dereferenceable(24) %19, i32 3, i32 -1)
          to label %61 unwind label %198

; <label>:61:                                     ; preds = %60
  %62 = getelementptr inbounds %class.FiniteElementData, %class.FiniteElementData* %18, i32 0, i32 10
  %63 = load i32, i32* %62, align 4
  %64 = zext i32 %63 to i64
  store i8 0, i8* %20, align 1
  call void @_ZNSaIbEC2Ev(%"class.std::allocator.34"* %21) #12
  invoke void @_ZNSt6vectorIbSaIbEEC2EmRKbRKS0_(%"class.std::vector.7"* %17, i64 %64, i8* dereferenceable(1) %20, %"class.std::allocator.34"* dereferenceable(1) %21)
          to label %65 unwind label %218

; <label>:65:                                     ; preds = %61
  %66 = load i32, i32* %12, align 4
  invoke void @_ZN10FE_NedelecILi3EE14get_dpo_vectorEj(%"class.std::vector.28"* sret %24, i32 %66)
          to label %67 unwind label %222

; <label>:67:                                     ; preds = %65
  invoke void @_ZN17FiniteElementDataILi3EEC1ERKSt6vectorIjSaIjEEjj(%class.FiniteElementData* %23, %"class.std::vector.28"* dereferenceable(24) %24, i32 3, i32 -1)
          to label %68 unwind label %242

; <label>:68:                                     ; preds = %67
  %69 = getelementptr inbounds %class.FiniteElementData, %class.FiniteElementData* %23, i32 0, i32 10
  %70 = load i32, i32* %69, align 4
  %71 = zext i32 %70 to i64
  store i8 1, i8* %26, align 1
  call void @_ZNSaIbEC2Ev(%"class.std::allocator.34"* %27) #12
  invoke void @_ZNSt6vectorIbSaIbEEC2EmRKbRKS0_(%"class.std::vector.7"* %25, i64 3, i8* dereferenceable(1) %26, %"class.std::allocator.34"* dereferenceable(1) %27)
          to label %72 unwind label %246

; <label>:72:                                     ; preds = %68
  call void @_ZNSaISt6vectorIbSaIbEEEC2Ev(%"class.std::allocator.25"* %28) #12
  invoke void @_ZNSt6vectorIS_IbSaIbEESaIS1_EEC2EmRKS1_RKS2_(%"class.std::vector.23"* %22, i64 %71, %"class.std::vector.7"* dereferenceable(40) %25, %"class.std::allocator.25"* dereferenceable(1) %28)
          to label %73 unwind label %250

; <label>:73:                                     ; preds = %72
  invoke void @_ZN13FiniteElementILi3EEC2ERK17FiniteElementDataILi3EERKSt6vectorIbSaIbEERKS5_IS7_SaIS7_EE(%class.FiniteElement* %32, %class.FiniteElementData* dereferenceable(52) %13, %"class.std::vector.7"* dereferenceable(40) %17, %"class.std::vector.23"* dereferenceable(24) %22)
          to label %74 unwind label %270

; <label>:74:                                     ; preds = %73
  %75 = load i32, i32* @x.15
  %76 = load i32, i32* @y.16
  %77 = sub i32 %75, 1
  %78 = mul i32 %75, %77
  %79 = urem i32 %78, 2
  %80 = icmp eq i32 %79, 0
  %81 = icmp slt i32 %76, 10
  %82 = or i1 %80, %81
  br i1 %82, label %originalBB6, label %originalBB6alteredBB

originalBB6:                                      ; preds = %74, %originalBB6alteredBB
  %83 = load i32, i32* @x.15
  %84 = load i32, i32* @y.16
  %85 = sub i32 %83, 1
  %86 = mul i32 %83, %85
  %87 = urem i32 %86, 2
  %88 = icmp eq i32 %87, 0
  %89 = icmp slt i32 %84, 10
  %90 = or i1 %88, %89
  br i1 %90, label %originalBBpart28, label %originalBB6alteredBB

originalBBpart28:                                 ; preds = %originalBB6
  invoke void @_ZNSt6vectorIS_IbSaIbEESaIS1_EED2Ev(%"class.std::vector.23"* %22)
          to label %91 unwind label %250

; <label>:91:                                     ; preds = %originalBBpart28
  call void @_ZNSaISt6vectorIbSaIbEEED2Ev(%"class.std::allocator.25"* %28) #12
  invoke void @_ZNSt6vectorIbSaIbEED2Ev(%"class.std::vector.7"* %25)
          to label %92 unwind label %246

; <label>:92:                                     ; preds = %91
  call void @_ZNSaIbED2Ev(%"class.std::allocator.34"* %27) #12
  invoke void @_ZNSt6vectorIjSaIjEED2Ev(%"class.std::vector.28"* %24)
          to label %93 unwind label %222

; <label>:93:                                     ; preds = %92
  invoke void @_ZNSt6vectorIbSaIbEED2Ev(%"class.std::vector.7"* %17)
          to label %94 unwind label %218

; <label>:94:                                     ; preds = %93
  %95 = load i32, i32* @x.15
  %96 = load i32, i32* @y.16
  %97 = sub i32 %95, 1
  %98 = mul i32 %95, %97
  %99 = urem i32 %98, 2
  %100 = icmp eq i32 %99, 0
  %101 = icmp slt i32 %96, 10
  %102 = or i1 %100, %101
  br i1 %102, label %originalBB10, label %originalBB10alteredBB

originalBB10:                                     ; preds = %94, %originalBB10alteredBB
  call void @_ZNSaIbED2Ev(%"class.std::allocator.34"* %21) #12
  %103 = load i32, i32* @x.15
  %104 = load i32, i32* @y.16
  %105 = sub i32 %103, 1
  %106 = mul i32 %103, %105
  %107 = urem i32 %106, 2
  %108 = icmp eq i32 %107, 0
  %109 = icmp slt i32 %104, 10
  %110 = or i1 %108, %109
  br i1 %110, label %originalBBpart212, label %originalBB10alteredBB

originalBBpart212:                                ; preds = %originalBB10
  invoke void @_ZNSt6vectorIjSaIjEED2Ev(%"class.std::vector.28"* %19)
          to label %111 unwind label %194

; <label>:111:                                    ; preds = %originalBBpart212
  call void @_ZNSt6vectorIjSaIjEED2Ev(%"class.std::vector.28"* %14)
  %112 = bitcast %class.FE_Nedelec* %31 to i32 (...)***
  store i32 (...)** bitcast (i8** getelementptr inbounds ({ [28 x i8*] }, { [28 x i8*] }* @_ZTV10FE_NedelecILi3EE, i32 0, inrange i32 0, i32 2) to i32 (...)**), i32 (...)*** %112, align 8
  %113 = getelementptr inbounds %class.FE_Nedelec, %class.FE_Nedelec* %31, i32 0, i32 1
  %114 = load i32, i32* %12, align 4
  store i32 %114, i32* %113, align 4
  invoke void @_ZN10FE_NedelecILi3EE22initialize_constraintsEv(%class.FE_Nedelec* %31)
          to label %115 unwind label %367

; <label>:115:                                    ; preds = %111
  invoke void @_ZN10FE_NedelecILi3EE20initialize_embeddingEv(%class.FE_Nedelec* %31)
          to label %116 unwind label %367

; <label>:116:                                    ; preds = %115
  invoke void @_ZN10FE_NedelecILi3EE22initialize_restrictionEv(%class.FE_Nedelec* %31)
          to label %117 unwind label %367

; <label>:117:                                    ; preds = %116
  invoke void @_ZN10FE_NedelecILi3EE30initialize_unit_support_pointsEv(%class.FE_Nedelec* %31)
          to label %118 unwind label %367

; <label>:118:                                    ; preds = %117
  %119 = load i32, i32* @x.15
  %120 = load i32, i32* @y.16
  %121 = sub i32 %119, 1
  %122 = mul i32 %119, %121
  %123 = urem i32 %122, 2
  %124 = icmp eq i32 %123, 0
  %125 = icmp slt i32 %120, 10
  %126 = or i1 %124, %125
  br i1 %126, label %originalBB14, label %originalBB14alteredBB

originalBB14:                                     ; preds = %118, %originalBB14alteredBB
  %127 = load i32, i32* @x.15
  %128 = load i32, i32* @y.16
  %129 = sub i32 %127, 1
  %130 = mul i32 %127, %129
  %131 = urem i32 %130, 2
  %132 = icmp eq i32 %131, 0
  %133 = icmp slt i32 %128, 10
  %134 = or i1 %132, %133
  br i1 %134, label %originalBBpart216, label %originalBB14alteredBB

originalBBpart216:                                ; preds = %originalBB14
  invoke void @_ZN10FE_NedelecILi3EE35initialize_unit_face_support_pointsEv(%class.FE_Nedelec* %31)
          to label %135 unwind label %367

; <label>:135:                                    ; preds = %originalBBpart216
  invoke void @_ZNSt6vectorISt4pairIjjESaIS1_EEC2Ev(%"class.std::vector"* %29)
          to label %136 unwind label %367

; <label>:136:                                    ; preds = %135
  invoke void @_ZNSt6vectorISt4pairIjjESaIS1_EEC2Ev(%"class.std::vector"* %30)
          to label %137 unwind label %371

; <label>:137:                                    ; preds = %136
  %138 = load i32, i32* @x.15
  %139 = load i32, i32* @y.16
  %140 = sub i32 %138, 1
  %141 = mul i32 %138, %140
  %142 = urem i32 %141, 2
  %143 = icmp eq i32 %142, 0
  %144 = icmp slt i32 %139, 10
  %145 = or i1 %143, %144
  br i1 %145, label %originalBB18, label %originalBB18alteredBB

originalBB18:                                     ; preds = %137, %originalBB18alteredBB
  %146 = bitcast %class.FE_Nedelec* %31 to %class.FiniteElementBase*
  %147 = getelementptr inbounds %class.FiniteElementBase, %class.FiniteElementBase* %146, i32 0, i32 6
  %148 = load i32, i32* @x.15
  %149 = load i32, i32* @y.16
  %150 = sub i32 %148, 1
  %151 = mul i32 %148, %150
  %152 = urem i32 %151, 2
  %153 = icmp eq i32 %152, 0
  %154 = icmp slt i32 %149, 10
  %155 = or i1 %153, %154
  br i1 %155, label %originalBBpart220, label %originalBB18alteredBB

originalBBpart220:                                ; preds = %originalBB18
  invoke void @_ZNSt6vectorISt4pairIjjESaIS1_EE4swapERS3_(%"class.std::vector"* %147, %"class.std::vector"* dereferenceable(24) %29)
          to label %156 unwind label %375

; <label>:156:                                    ; preds = %originalBBpart220
  %157 = bitcast %class.FE_Nedelec* %31 to %class.FiniteElementBase*
  %158 = getelementptr inbounds %class.FiniteElementBase, %class.FiniteElementBase* %157, i32 0, i32 7
  invoke void @_ZNSt6vectorISt4pairIjjESaIS1_EE4swapERS3_(%"class.std::vector"* %158, %"class.std::vector"* dereferenceable(24) %30)
          to label %159 unwind label %375

; <label>:159:                                    ; preds = %156
  invoke void @_ZNSt6vectorISt4pairIjjESaIS1_EED2Ev(%"class.std::vector"* %30)
          to label %160 unwind label %371

; <label>:160:                                    ; preds = %159
  %161 = load i32, i32* @x.15
  %162 = load i32, i32* @y.16
  %163 = sub i32 %161, 1
  %164 = mul i32 %161, %163
  %165 = urem i32 %164, 2
  %166 = icmp eq i32 %165, 0
  %167 = icmp slt i32 %162, 10
  %168 = or i1 %166, %167
  br i1 %168, label %originalBB22, label %originalBB22alteredBB

originalBB22:                                     ; preds = %160, %originalBB22alteredBB
  %169 = load i32, i32* @x.15
  %170 = load i32, i32* @y.16
  %171 = sub i32 %169, 1
  %172 = mul i32 %169, %171
  %173 = urem i32 %172, 2
  %174 = icmp eq i32 %173, 0
  %175 = icmp slt i32 %170, 10
  %176 = or i1 %174, %175
  br i1 %176, label %originalBBpart224, label %originalBB22alteredBB

originalBBpart224:                                ; preds = %originalBB22
  invoke void @_ZNSt6vectorISt4pairIjjESaIS1_EED2Ev(%"class.std::vector"* %29)
          to label %177 unwind label %367

; <label>:177:                                    ; preds = %originalBBpart224
  %178 = load i32, i32* @x.15
  %179 = load i32, i32* @y.16
  %180 = sub i32 %178, 1
  %181 = mul i32 %178, %180
  %182 = urem i32 %181, 2
  %183 = icmp eq i32 %182, 0
  %184 = icmp slt i32 %179, 10
  %185 = or i1 %183, %184
  br i1 %185, label %originalBB26, label %originalBB26alteredBB

originalBB26:                                     ; preds = %177, %originalBB26alteredBB
  %186 = load i32, i32* @x.15
  %187 = load i32, i32* @y.16
  %188 = sub i32 %186, 1
  %189 = mul i32 %186, %188
  %190 = urem i32 %189, 2
  %191 = icmp eq i32 %190, 0
  %192 = icmp slt i32 %187, 10
  %193 = or i1 %191, %192
  br i1 %193, label %originalBBpart228, label %originalBB26alteredBB

originalBBpart228:                                ; preds = %originalBB26
  ret void

; <label>:194:                                    ; preds = %originalBBpart212, %originalBBpart24, %originalBBpart2
  %195 = landingpad { i8*, i32 }
          cleanup
  %196 = extractvalue { i8*, i32 } %195, 0
  store i8* %196, i8** %15, align 8
  %197 = extractvalue { i8*, i32 } %195, 1
  store i32 %197, i32* %16, align 4
  br label %365

; <label>:198:                                    ; preds = %60
  %199 = load i32, i32* @x.15
  %200 = load i32, i32* @y.16
  %201 = sub i32 %199, 1
  %202 = mul i32 %199, %201
  %203 = urem i32 %202, 2
  %204 = icmp eq i32 %203, 0
  %205 = icmp slt i32 %200, 10
  %206 = or i1 %204, %205
  br i1 %206, label %originalBB30, label %originalBB30alteredBB

originalBB30:                                     ; preds = %198, %originalBB30alteredBB
  %207 = landingpad { i8*, i32 }
          cleanup
  %208 = extractvalue { i8*, i32 } %207, 0
  store i8* %208, i8** %15, align 8
  %209 = extractvalue { i8*, i32 } %207, 1
  store i32 %209, i32* %16, align 4
  %210 = load i32, i32* @x.15
  %211 = load i32, i32* @y.16
  %212 = sub i32 %210, 1
  %213 = mul i32 %210, %212
  %214 = urem i32 %213, 2
  %215 = icmp eq i32 %214, 0
  %216 = icmp slt i32 %211, 10
  %217 = or i1 %215, %216
  br i1 %217, label %originalBBpart232, label %originalBB30alteredBB

originalBBpart232:                                ; preds = %originalBB30
  br label %331

; <label>:218:                                    ; preds = %93, %61
  %219 = landingpad { i8*, i32 }
          cleanup
  %220 = extractvalue { i8*, i32 } %219, 0
  store i8* %220, i8** %15, align 8
  %221 = extractvalue { i8*, i32 } %219, 1
  store i32 %221, i32* %16, align 4
  br label %314

; <label>:222:                                    ; preds = %92, %65
  %223 = load i32, i32* @x.15
  %224 = load i32, i32* @y.16
  %225 = sub i32 %223, 1
  %226 = mul i32 %223, %225
  %227 = urem i32 %226, 2
  %228 = icmp eq i32 %227, 0
  %229 = icmp slt i32 %224, 10
  %230 = or i1 %228, %229
  br i1 %230, label %originalBB34, label %originalBB34alteredBB

originalBB34:                                     ; preds = %222, %originalBB34alteredBB
  %231 = landingpad { i8*, i32 }
          cleanup
  %232 = extractvalue { i8*, i32 } %231, 0
  store i8* %232, i8** %15, align 8
  %233 = extractvalue { i8*, i32 } %231, 1
  store i32 %233, i32* %16, align 4
  %234 = load i32, i32* @x.15
  %235 = load i32, i32* @y.16
  %236 = sub i32 %234, 1
  %237 = mul i32 %234, %236
  %238 = urem i32 %237, 2
  %239 = icmp eq i32 %238, 0
  %240 = icmp slt i32 %235, 10
  %241 = or i1 %239, %240
  br i1 %241, label %originalBBpart236, label %originalBB34alteredBB

originalBBpart236:                                ; preds = %originalBB34
  br label %296

; <label>:242:                                    ; preds = %67
  %243 = landingpad { i8*, i32 }
          cleanup
  %244 = extractvalue { i8*, i32 } %243, 0
  store i8* %244, i8** %15, align 8
  %245 = extractvalue { i8*, i32 } %243, 1
  store i32 %245, i32* %16, align 4
  br label %294

; <label>:246:                                    ; preds = %91, %68
  %247 = landingpad { i8*, i32 }
          cleanup
  %248 = extractvalue { i8*, i32 } %247, 0
  store i8* %248, i8** %15, align 8
  %249 = extractvalue { i8*, i32 } %247, 1
  store i32 %249, i32* %16, align 4
  br label %293

; <label>:250:                                    ; preds = %originalBBpart28, %72
  %251 = load i32, i32* @x.15
  %252 = load i32, i32* @y.16
  %253 = sub i32 %251, 1
  %254 = mul i32 %251, %253
  %255 = urem i32 %254, 2
  %256 = icmp eq i32 %255, 0
  %257 = icmp slt i32 %252, 10
  %258 = or i1 %256, %257
  br i1 %258, label %originalBB38, label %originalBB38alteredBB

originalBB38:                                     ; preds = %250, %originalBB38alteredBB
  %259 = landingpad { i8*, i32 }
          cleanup
  %260 = extractvalue { i8*, i32 } %259, 0
  store i8* %260, i8** %15, align 8
  %261 = extractvalue { i8*, i32 } %259, 1
  store i32 %261, i32* %16, align 4
  %262 = load i32, i32* @x.15
  %263 = load i32, i32* @y.16
  %264 = sub i32 %262, 1
  %265 = mul i32 %262, %264
  %266 = urem i32 %265, 2
  %267 = icmp eq i32 %266, 0
  %268 = icmp slt i32 %263, 10
  %269 = or i1 %267, %268
  br i1 %269, label %originalBBpart240, label %originalBB38alteredBB

originalBBpart240:                                ; preds = %originalBB38
  br label %275

; <label>:270:                                    ; preds = %73
  %271 = landingpad { i8*, i32 }
          cleanup
  %272 = extractvalue { i8*, i32 } %271, 0
  store i8* %272, i8** %15, align 8
  %273 = extractvalue { i8*, i32 } %271, 1
  store i32 %273, i32* %16, align 4
  invoke void @_ZNSt6vectorIS_IbSaIbEESaIS1_EED2Ev(%"class.std::vector.23"* %22)
          to label %274 unwind label %438

; <label>:274:                                    ; preds = %270
  br label %275

; <label>:275:                                    ; preds = %274, %originalBBpart240
  %276 = load i32, i32* @x.15
  %277 = load i32, i32* @y.16
  %278 = sub i32 %276, 1
  %279 = mul i32 %276, %278
  %280 = urem i32 %279, 2
  %281 = icmp eq i32 %280, 0
  %282 = icmp slt i32 %277, 10
  %283 = or i1 %281, %282
  br i1 %283, label %originalBB42, label %originalBB42alteredBB

originalBB42:                                     ; preds = %275, %originalBB42alteredBB
  call void @_ZNSaISt6vectorIbSaIbEEED2Ev(%"class.std::allocator.25"* %28) #12
  %284 = load i32, i32* @x.15
  %285 = load i32, i32* @y.16
  %286 = sub i32 %284, 1
  %287 = mul i32 %284, %286
  %288 = urem i32 %287, 2
  %289 = icmp eq i32 %288, 0
  %290 = icmp slt i32 %285, 10
  %291 = or i1 %289, %290
  br i1 %291, label %originalBBpart244, label %originalBB42alteredBB

originalBBpart244:                                ; preds = %originalBB42
  invoke void @_ZNSt6vectorIbSaIbEED2Ev(%"class.std::vector.7"* %25)
          to label %292 unwind label %438

; <label>:292:                                    ; preds = %originalBBpart244
  br label %293

; <label>:293:                                    ; preds = %292, %246
  call void @_ZNSaIbED2Ev(%"class.std::allocator.34"* %27) #12
  br label %294

; <label>:294:                                    ; preds = %293, %242
  invoke void @_ZNSt6vectorIjSaIjEED2Ev(%"class.std::vector.28"* %24)
          to label %295 unwind label %438

; <label>:295:                                    ; preds = %294
  br label %296

; <label>:296:                                    ; preds = %295, %originalBBpart236
  %297 = load i32, i32* @x.15
  %298 = load i32, i32* @y.16
  %299 = sub i32 %297, 1
  %300 = mul i32 %297, %299
  %301 = urem i32 %300, 2
  %302 = icmp eq i32 %301, 0
  %303 = icmp slt i32 %298, 10
  %304 = or i1 %302, %303
  br i1 %304, label %originalBB46, label %originalBB46alteredBB

originalBB46:                                     ; preds = %296, %originalBB46alteredBB
  %305 = load i32, i32* @x.15
  %306 = load i32, i32* @y.16
  %307 = sub i32 %305, 1
  %308 = mul i32 %305, %307
  %309 = urem i32 %308, 2
  %310 = icmp eq i32 %309, 0
  %311 = icmp slt i32 %306, 10
  %312 = or i1 %310, %311
  br i1 %312, label %originalBBpart248, label %originalBB46alteredBB

originalBBpart248:                                ; preds = %originalBB46
  invoke void @_ZNSt6vectorIbSaIbEED2Ev(%"class.std::vector.7"* %17)
          to label %313 unwind label %438

; <label>:313:                                    ; preds = %originalBBpart248
  br label %314

; <label>:314:                                    ; preds = %313, %218
  %315 = load i32, i32* @x.15
  %316 = load i32, i32* @y.16
  %317 = sub i32 %315, 1
  %318 = mul i32 %315, %317
  %319 = urem i32 %318, 2
  %320 = icmp eq i32 %319, 0
  %321 = icmp slt i32 %316, 10
  %322 = or i1 %320, %321
  br i1 %322, label %originalBB50, label %originalBB50alteredBB

originalBB50:                                     ; preds = %314, %originalBB50alteredBB
  call void @_ZNSaIbED2Ev(%"class.std::allocator.34"* %21) #12
  %323 = load i32, i32* @x.15
  %324 = load i32, i32* @y.16
  %325 = sub i32 %323, 1
  %326 = mul i32 %323, %325
  %327 = urem i32 %326, 2
  %328 = icmp eq i32 %327, 0
  %329 = icmp slt i32 %324, 10
  %330 = or i1 %328, %329
  br i1 %330, label %originalBBpart252, label %originalBB50alteredBB

originalBBpart252:                                ; preds = %originalBB50
  br label %331

; <label>:331:                                    ; preds = %originalBBpart252, %originalBBpart232
  %332 = load i32, i32* @x.15
  %333 = load i32, i32* @y.16
  %334 = sub i32 %332, 1
  %335 = mul i32 %332, %334
  %336 = urem i32 %335, 2
  %337 = icmp eq i32 %336, 0
  %338 = icmp slt i32 %333, 10
  %339 = or i1 %337, %338
  br i1 %339, label %originalBB54, label %originalBB54alteredBB

originalBB54:                                     ; preds = %331, %originalBB54alteredBB
  %340 = load i32, i32* @x.15
  %341 = load i32, i32* @y.16
  %342 = sub i32 %340, 1
  %343 = mul i32 %340, %342
  %344 = urem i32 %343, 2
  %345 = icmp eq i32 %344, 0
  %346 = icmp slt i32 %341, 10
  %347 = or i1 %345, %346
  br i1 %347, label %originalBBpart256, label %originalBB54alteredBB

originalBBpart256:                                ; preds = %originalBB54
  invoke void @_ZNSt6vectorIjSaIjEED2Ev(%"class.std::vector.28"* %19)
          to label %348 unwind label %438

; <label>:348:                                    ; preds = %originalBBpart256
  %349 = load i32, i32* @x.15
  %350 = load i32, i32* @y.16
  %351 = sub i32 %349, 1
  %352 = mul i32 %349, %351
  %353 = urem i32 %352, 2
  %354 = icmp eq i32 %353, 0
  %355 = icmp slt i32 %350, 10
  %356 = or i1 %354, %355
  br i1 %356, label %originalBB58, label %originalBB58alteredBB

originalBB58:                                     ; preds = %348, %originalBB58alteredBB
  %357 = load i32, i32* @x.15
  %358 = load i32, i32* @y.16
  %359 = sub i32 %357, 1
  %360 = mul i32 %357, %359
  %361 = urem i32 %360, 2
  %362 = icmp eq i32 %361, 0
  %363 = icmp slt i32 %358, 10
  %364 = or i1 %362, %363
  br i1 %364, label %originalBBpart260, label %originalBB58alteredBB

originalBBpart260:                                ; preds = %originalBB58
  br label %365

; <label>:365:                                    ; preds = %originalBBpart260, %194
  invoke void @_ZNSt6vectorIjSaIjEED2Ev(%"class.std::vector.28"* %14)
          to label %366 unwind label %438

; <label>:366:                                    ; preds = %365
  br label %433

; <label>:367:                                    ; preds = %originalBBpart224, %135, %originalBBpart216, %117, %116, %115, %111
  %368 = landingpad { i8*, i32 }
          cleanup
  %369 = extractvalue { i8*, i32 } %368, 0
  store i8* %369, i8** %15, align 8
  %370 = extractvalue { i8*, i32 } %368, 1
  store i32 %370, i32* %16, align 4
  br label %430

; <label>:371:                                    ; preds = %159, %136
  %372 = landingpad { i8*, i32 }
          cleanup
  %373 = extractvalue { i8*, i32 } %372, 0
  store i8* %373, i8** %15, align 8
  %374 = extractvalue { i8*, i32 } %372, 1
  store i32 %374, i32* %16, align 4
  br label %396

; <label>:375:                                    ; preds = %156, %originalBBpart220
  %376 = landingpad { i8*, i32 }
          cleanup
  %377 = extractvalue { i8*, i32 } %376, 0
  store i8* %377, i8** %15, align 8
  %378 = extractvalue { i8*, i32 } %376, 1
  store i32 %378, i32* %16, align 4
  invoke void @_ZNSt6vectorISt4pairIjjESaIS1_EED2Ev(%"class.std::vector"* %30)
          to label %379 unwind label %438

; <label>:379:                                    ; preds = %375
  %380 = load i32, i32* @x.15
  %381 = load i32, i32* @y.16
  %382 = sub i32 %380, 1
  %383 = mul i32 %380, %382
  %384 = urem i32 %383, 2
  %385 = icmp eq i32 %384, 0
  %386 = icmp slt i32 %381, 10
  %387 = or i1 %385, %386
  br i1 %387, label %originalBB62, label %originalBB62alteredBB

originalBB62:                                     ; preds = %379, %originalBB62alteredBB
  %388 = load i32, i32* @x.15
  %389 = load i32, i32* @y.16
  %390 = sub i32 %388, 1
  %391 = mul i32 %388, %390
  %392 = urem i32 %391, 2
  %393 = icmp eq i32 %392, 0
  %394 = icmp slt i32 %389, 10
  %395 = or i1 %393, %394
  br i1 %395, label %originalBBpart264, label %originalBB62alteredBB

originalBBpart264:                                ; preds = %originalBB62
  br label %396

; <label>:396:                                    ; preds = %originalBBpart264, %371
  %397 = load i32, i32* @x.15
  %398 = load i32, i32* @y.16
  %399 = sub i32 %397, 1
  %400 = mul i32 %397, %399
  %401 = urem i32 %400, 2
  %402 = icmp eq i32 %401, 0
  %403 = icmp slt i32 %398, 10
  %404 = or i1 %402, %403
  br i1 %404, label %originalBB66, label %originalBB66alteredBB

originalBB66:                                     ; preds = %396, %originalBB66alteredBB
  %405 = load i32, i32* @x.15
  %406 = load i32, i32* @y.16
  %407 = sub i32 %405, 1
  %408 = mul i32 %405, %407
  %409 = urem i32 %408, 2
  %410 = icmp eq i32 %409, 0
  %411 = icmp slt i32 %406, 10
  %412 = or i1 %410, %411
  br i1 %412, label %originalBBpart268, label %originalBB66alteredBB

originalBBpart268:                                ; preds = %originalBB66
  invoke void @_ZNSt6vectorISt4pairIjjESaIS1_EED2Ev(%"class.std::vector"* %29)
          to label %413 unwind label %438

; <label>:413:                                    ; preds = %originalBBpart268
  %414 = load i32, i32* @x.15
  %415 = load i32, i32* @y.16
  %416 = sub i32 %414, 1
  %417 = mul i32 %414, %416
  %418 = urem i32 %417, 2
  %419 = icmp eq i32 %418, 0
  %420 = icmp slt i32 %415, 10
  %421 = or i1 %419, %420
  br i1 %421, label %originalBB70, label %originalBB70alteredBB

originalBB70:                                     ; preds = %413, %originalBB70alteredBB
  %422 = load i32, i32* @x.15
  %423 = load i32, i32* @y.16
  %424 = sub i32 %422, 1
  %425 = mul i32 %422, %424
  %426 = urem i32 %425, 2
  %427 = icmp eq i32 %426, 0
  %428 = icmp slt i32 %423, 10
  %429 = or i1 %427, %428
  br i1 %429, label %originalBBpart272, label %originalBB70alteredBB

originalBBpart272:                                ; preds = %originalBB70
  br label %430

; <label>:430:                                    ; preds = %originalBBpart272, %367
  %431 = bitcast %class.FE_Nedelec* %31 to %class.FiniteElement*
  invoke void @_ZN13FiniteElementILi3EED2Ev(%class.FiniteElement* %431)
          to label %432 unwind label %438

; <label>:432:                                    ; preds = %430
  br label %433

; <label>:433:                                    ; preds = %432, %366
  %434 = load i8*, i8** %15, align 8
  %435 = load i32, i32* %16, align 4
  %436 = insertvalue { i8*, i32 } undef, i8* %434, 0
  %437 = insertvalue { i8*, i32 } %436, i32 %435, 1
  resume { i8*, i32 } %437

; <label>:438:                                    ; preds = %430, %originalBBpart268, %375, %365, %originalBBpart256, %originalBBpart248, %294, %originalBBpart244, %270
  %439 = landingpad { i8*, i32 }
          catch i8* null
  %440 = extractvalue { i8*, i32 } %439, 0
  call void @__clang_call_terminate(i8* %440) #10
  unreachable

originalBBalteredBB:                              ; preds = %originalBB, %2
  %441 = alloca %class.FE_Nedelec*, align 8
  %442 = alloca i32, align 4
  %443 = alloca %class.FiniteElementData, align 4
  %444 = alloca %"class.std::vector.28", align 8
  %445 = alloca i8*
  %446 = alloca i32
  %447 = alloca %"class.std::vector.7", align 8
  %448 = alloca %class.FiniteElementData, align 4
  %449 = alloca %"class.std::vector.28", align 8
  %450 = alloca i8, align 1
  %451 = alloca %"class.std::allocator.34", align 1
  %452 = alloca %"class.std::vector.23", align 8
  %453 = alloca %class.FiniteElementData, align 4
  %454 = alloca %"class.std::vector.28", align 8
  %455 = alloca %"class.std::vector.7", align 8
  %456 = alloca i8, align 1
  %457 = alloca %"class.std::allocator.34", align 1
  %458 = alloca %"class.std::allocator.25", align 1
  %459 = alloca %"class.std::vector", align 8
  %460 = alloca %"class.std::vector", align 8
  store %class.FE_Nedelec* %0, %class.FE_Nedelec** %441, align 8
  store i32 %1, i32* %442, align 4
  %461 = load %class.FE_Nedelec*, %class.FE_Nedelec** %441, align 8
  %462 = bitcast %class.FE_Nedelec* %461 to %class.FiniteElement*
  %463 = load i32, i32* %442, align 4
  call void @_ZN10FE_NedelecILi3EE14get_dpo_vectorEj(%"class.std::vector.28"* sret %444, i32 %463)
  br label %originalBB

originalBB1alteredBB:                             ; preds = %originalBB1, %42
  %464 = load i32, i32* %12, align 4
  br label %originalBB1

originalBB6alteredBB:                             ; preds = %originalBB6, %74
  br label %originalBB6

originalBB10alteredBB:                            ; preds = %originalBB10, %94
  call void @_ZNSaIbED2Ev(%"class.std::allocator.34"* %21) #12
  br label %originalBB10

originalBB14alteredBB:                            ; preds = %originalBB14, %118
  br label %originalBB14

originalBB18alteredBB:                            ; preds = %originalBB18, %137
  %465 = bitcast %class.FE_Nedelec* %31 to %class.FiniteElementBase*
  %466 = getelementptr inbounds %class.FiniteElementBase, %class.FiniteElementBase* %465, i32 0, i32 6
  br label %originalBB18

originalBB22alteredBB:                            ; preds = %originalBB22, %160
  br label %originalBB22

originalBB26alteredBB:                            ; preds = %originalBB26, %177
  br label %originalBB26

originalBB30alteredBB:                            ; preds = %originalBB30, %198
  %467 = landingpad { i8*, i32 }
          cleanup
  %468 = extractvalue { i8*, i32 } %467, 0
  store i8* %468, i8** %15, align 8
  %469 = extractvalue { i8*, i32 } %467, 1
  store i32 %469, i32* %16, align 4
  br label %originalBB30

originalBB34alteredBB:                            ; preds = %originalBB34, %222
  %470 = landingpad { i8*, i32 }
          cleanup
  %471 = extractvalue { i8*, i32 } %470, 0
  store i8* %471, i8** %15, align 8
  %472 = extractvalue { i8*, i32 } %470, 1
  store i32 %472, i32* %16, align 4
  br label %originalBB34

originalBB38alteredBB:                            ; preds = %originalBB38, %250
  %473 = landingpad { i8*, i32 }
          cleanup
  %474 = extractvalue { i8*, i32 } %473, 0
  store i8* %474, i8** %15, align 8
  %475 = extractvalue { i8*, i32 } %473, 1
  store i32 %475, i32* %16, align 4
  br label %originalBB38

originalBB42alteredBB:                            ; preds = %originalBB42, %275
  call void @_ZNSaISt6vectorIbSaIbEEED2Ev(%"class.std::allocator.25"* %28) #12
  br label %originalBB42

originalBB46alteredBB:                            ; preds = %originalBB46, %296
  br label %originalBB46

originalBB50alteredBB:                            ; preds = %originalBB50, %314
  call void @_ZNSaIbED2Ev(%"class.std::allocator.34"* %21) #12
  br label %originalBB50

originalBB54alteredBB:                            ; preds = %originalBB54, %331
  br label %originalBB54

originalBB58alteredBB:                            ; preds = %originalBB58, %348
  br label %originalBB58

originalBB62alteredBB:                            ; preds = %originalBB62, %379
  br label %originalBB62

originalBB66alteredBB:                            ; preds = %originalBB66, %396
  br label %originalBB66

originalBB70alteredBB:                            ; preds = %originalBB70, %413
  br label %originalBB70
}

; Function Attrs: noinline uwtable
define weak_odr void @_ZN10FE_NedelecILi3EE14get_dpo_vectorEj(%"class.std::vector.28"* noalias sret, i32) #0 comdat align 2 personality i8* bitcast (i32 (...)* @__gxx_personality_v0 to i8*) {
  %3 = alloca i32, align 4
  %4 = alloca i1, align 1
  %5 = alloca i32, align 4
  %6 = alloca %"class.std::allocator.30", align 1
  %7 = alloca i8*
  %8 = alloca i32
  store i32 %1, i32* %3, align 4
  store i1 false, i1* %4, align 1
  store i32 0, i32* %5, align 4
  call void @_ZNSaIjEC2Ev(%"class.std::allocator.30"* %6) #12
  invoke void @_ZNSt6vectorIjSaIjEEC2EmRKjRKS0_(%"class.std::vector.28"* %0, i64 4, i32* dereferenceable(4) %5, %"class.std::allocator.30"* dereferenceable(1) %6)
          to label %9 unwind label %30

; <label>:9:                                      ; preds = %2
  %10 = load i32, i32* @x.17
  %11 = load i32, i32* @y.18
  %12 = sub i32 %10, 1
  %13 = mul i32 %10, %12
  %14 = urem i32 %13, 2
  %15 = icmp eq i32 %14, 0
  %16 = icmp slt i32 %11, 10
  %17 = or i1 %15, %16
  br i1 %17, label %originalBB, label %originalBBalteredBB

originalBB:                                       ; preds = %9, %originalBBalteredBB
  call void @_ZNSaIjED2Ev(%"class.std::allocator.30"* %6) #12
  %18 = load i32, i32* %3, align 4
  %19 = load i32, i32* @x.17
  %20 = load i32, i32* @y.18
  %21 = sub i32 %19, 1
  %22 = mul i32 %19, %21
  %23 = urem i32 %22, 2
  %24 = icmp eq i32 %23, 0
  %25 = icmp slt i32 %20, 10
  %26 = or i1 %24, %25
  br i1 %26, label %originalBBpart2, label %originalBBalteredBB

originalBBpart2:                                  ; preds = %originalBB
  %27 = invoke dereferenceable(4) i32* @_ZNSt6vectorIjSaIjEEixEm(%"class.std::vector.28"* %0, i64 1)
          to label %28 unwind label %34

; <label>:28:                                     ; preds = %originalBBpart2
  store i32 %18, i32* %27, align 4
  store i1 true, i1* %4, align 1
  %29 = load i1, i1* %4, align 1
  br i1 %29, label %39, label %38

; <label>:30:                                     ; preds = %2
  %31 = landingpad { i8*, i32 }
          cleanup
  %32 = extractvalue { i8*, i32 } %31, 0
  store i8* %32, i8** %7, align 8
  %33 = extractvalue { i8*, i32 } %31, 1
  store i32 %33, i32* %8, align 4
  call void @_ZNSaIjED2Ev(%"class.std::allocator.30"* %6) #12
  br label %41

; <label>:34:                                     ; preds = %originalBBpart2
  %35 = landingpad { i8*, i32 }
          cleanup
  %36 = extractvalue { i8*, i32 } %35, 0
  store i8* %36, i8** %7, align 8
  %37 = extractvalue { i8*, i32 } %35, 1
  store i32 %37, i32* %8, align 4
  invoke void @_ZNSt6vectorIjSaIjEED2Ev(%"class.std::vector.28"* %0)
          to label %40 unwind label %46

; <label>:38:                                     ; preds = %28
  call void @_ZNSt6vectorIjSaIjEED2Ev(%"class.std::vector.28"* %0)
  br label %39

; <label>:39:                                     ; preds = %38, %28
  ret void

; <label>:40:                                     ; preds = %34
  br label %41

; <label>:41:                                     ; preds = %40, %30
  %42 = load i8*, i8** %7, align 8
  %43 = load i32, i32* %8, align 4
  %44 = insertvalue { i8*, i32 } undef, i8* %42, 0
  %45 = insertvalue { i8*, i32 } %44, i32 %43, 1
  resume { i8*, i32 } %45

; <label>:46:                                     ; preds = %34
  %47 = landingpad { i8*, i32 }
          catch i8* null
  %48 = extractvalue { i8*, i32 } %47, 0
  call void @__clang_call_terminate(i8* %48) #10
  unreachable

originalBBalteredBB:                              ; preds = %originalBB, %9
  call void @_ZNSaIjED2Ev(%"class.std::allocator.30"* %6) #12
  %49 = load i32, i32* %3, align 4
  br label %originalBB
}

declare void @_ZN17FiniteElementDataILi3EEC1ERKSt6vectorIjSaIjEEjj(%class.FiniteElementData*, %"class.std::vector.28"* dereferenceable(24), i32, i32) unnamed_addr #2

declare i32 @__gxx_personality_v0(...)

; Function Attrs: noinline nounwind uwtable
define linkonce_odr void @_ZNSaIbEC2Ev(%"class.std::allocator.34"*) unnamed_addr #1 comdat align 2 {
  %2 = alloca %"class.std::allocator.34"*, align 8
  store %"class.std::allocator.34"* %0, %"class.std::allocator.34"** %2, align 8
  %3 = load %"class.std::allocator.34"*, %"class.std::allocator.34"** %2, align 8
  %4 = bitcast %"class.std::allocator.34"* %3 to %"class.__gnu_cxx::new_allocator.35"*
  call void @_ZN9__gnu_cxx13new_allocatorIbEC2Ev(%"class.__gnu_cxx::new_allocator.35"* %4) #12
  ret void
}

; Function Attrs: noinline uwtable
define linkonce_odr void @_ZNSt6vectorIbSaIbEEC2EmRKbRKS0_(%"class.std::vector.7"*, i64, i8* dereferenceable(1), %"class.std::allocator.34"* dereferenceable(1)) unnamed_addr #0 comdat align 2 personality i8* bitcast (i32 (...)* @__gxx_personality_v0 to i8*) {
  %5 = alloca %"class.std::vector.7"*, align 8
  %6 = alloca i64, align 8
  %7 = alloca i8*, align 8
  %8 = alloca %"class.std::allocator.34"*, align 8
  %9 = alloca i8*
  %10 = alloca i32
  store %"class.std::vector.7"* %0, %"class.std::vector.7"** %5, align 8
  store i64 %1, i64* %6, align 8
  store i8* %2, i8** %7, align 8
  store %"class.std::allocator.34"* %3, %"class.std::allocator.34"** %8, align 8
  %11 = load %"class.std::vector.7"*, %"class.std::vector.7"** %5, align 8
  %12 = bitcast %"class.std::vector.7"* %11 to %"struct.std::_Bvector_base"*
  %13 = load %"class.std::allocator.34"*, %"class.std::allocator.34"** %8, align 8
  call void @_ZNSt13_Bvector_baseISaIbEEC2ERKS0_(%"struct.std::_Bvector_base"* %12, %"class.std::allocator.34"* dereferenceable(1) %13)
  %14 = load i64, i64* %6, align 8
  invoke void @_ZNSt6vectorIbSaIbEE13_M_initializeEm(%"class.std::vector.7"* %11, i64 %14)
          to label %15 unwind label %36

; <label>:15:                                     ; preds = %4
  %16 = load i32, i32* @x.21
  %17 = load i32, i32* @y.22
  %18 = sub i32 %16, 1
  %19 = mul i32 %16, %18
  %20 = urem i32 %19, 2
  %21 = icmp eq i32 %20, 0
  %22 = icmp slt i32 %17, 10
  %23 = or i1 %21, %22
  br i1 %23, label %originalBB, label %originalBBalteredBB

originalBB:                                       ; preds = %15, %originalBBalteredBB
  %24 = load i8*, i8** %7, align 8
  %25 = load i8, i8* %24, align 1
  %26 = trunc i8 %25 to i1
  %27 = load i32, i32* @x.21
  %28 = load i32, i32* @y.22
  %29 = sub i32 %27, 1
  %30 = mul i32 %27, %29
  %31 = urem i32 %30, 2
  %32 = icmp eq i32 %31, 0
  %33 = icmp slt i32 %28, 10
  %34 = or i1 %32, %33
  br i1 %34, label %originalBBpart2, label %originalBBalteredBB

originalBBpart2:                                  ; preds = %originalBB
  invoke void @_ZNSt6vectorIbSaIbEE19_M_initialize_valueEb(%"class.std::vector.7"* %11, i1 zeroext %26)
          to label %35 unwind label %36

; <label>:35:                                     ; preds = %originalBBpart2
  ret void

; <label>:36:                                     ; preds = %originalBBpart2, %4
  %37 = landingpad { i8*, i32 }
          cleanup
  %38 = extractvalue { i8*, i32 } %37, 0
  store i8* %38, i8** %9, align 8
  %39 = extractvalue { i8*, i32 } %37, 1
  store i32 %39, i32* %10, align 4
  %40 = bitcast %"class.std::vector.7"* %11 to %"struct.std::_Bvector_base"*
  invoke void @_ZNSt13_Bvector_baseISaIbEED2Ev(%"struct.std::_Bvector_base"* %40)
          to label %41 unwind label %47

; <label>:41:                                     ; preds = %36
  br label %42

; <label>:42:                                     ; preds = %41
  %43 = load i8*, i8** %9, align 8
  %44 = load i32, i32* %10, align 4
  %45 = insertvalue { i8*, i32 } undef, i8* %43, 0
  %46 = insertvalue { i8*, i32 } %45, i32 %44, 1
  resume { i8*, i32 } %46

; <label>:47:                                     ; preds = %36
  %48 = landingpad { i8*, i32 }
          catch i8* null
  %49 = extractvalue { i8*, i32 } %48, 0
  call void @__clang_call_terminate(i8* %49) #10
  unreachable

originalBBalteredBB:                              ; preds = %originalBB, %15
  %50 = load i8*, i8** %7, align 8
  %51 = load i8, i8* %50, align 1
  %52 = trunc i8 %51 to i1
  br label %originalBB
}

; Function Attrs: noinline nounwind uwtable
define linkonce_odr void @_ZNSaISt6vectorIbSaIbEEEC2Ev(%"class.std::allocator.25"*) unnamed_addr #1 comdat align 2 {
  %2 = alloca %"class.std::allocator.25"*, align 8
  store %"class.std::allocator.25"* %0, %"class.std::allocator.25"** %2, align 8
  %3 = load %"class.std::allocator.25"*, %"class.std::allocator.25"** %2, align 8
  %4 = bitcast %"class.std::allocator.25"* %3 to %"class.__gnu_cxx::new_allocator.26"*
  call void @_ZN9__gnu_cxx13new_allocatorISt6vectorIbSaIbEEEC2Ev(%"class.__gnu_cxx::new_allocator.26"* %4) #12
  ret void
}

; Function Attrs: noinline uwtable
define linkonce_odr void @_ZNSt6vectorIS_IbSaIbEESaIS1_EEC2EmRKS1_RKS2_(%"class.std::vector.23"*, i64, %"class.std::vector.7"* dereferenceable(40), %"class.std::allocator.25"* dereferenceable(1)) unnamed_addr #0 comdat align 2 personality i8* bitcast (i32 (...)* @__gxx_personality_v0 to i8*) {
  %5 = load i32, i32* @x.25
  %6 = load i32, i32* @y.26
  %7 = sub i32 %5, 1
  %8 = mul i32 %5, %7
  %9 = urem i32 %8, 2
  %10 = icmp eq i32 %9, 0
  %11 = icmp slt i32 %6, 10
  %12 = or i1 %10, %11
  br i1 %12, label %originalBB, label %originalBBalteredBB

originalBB:                                       ; preds = %4, %originalBBalteredBB
  %13 = alloca %"class.std::vector.23"*, align 8
  %14 = alloca i64, align 8
  %15 = alloca %"class.std::vector.7"*, align 8
  %16 = alloca %"class.std::allocator.25"*, align 8
  %17 = alloca i8*
  %18 = alloca i32
  store %"class.std::vector.23"* %0, %"class.std::vector.23"** %13, align 8
  store i64 %1, i64* %14, align 8
  store %"class.std::vector.7"* %2, %"class.std::vector.7"** %15, align 8
  store %"class.std::allocator.25"* %3, %"class.std::allocator.25"** %16, align 8
  %19 = load %"class.std::vector.23"*, %"class.std::vector.23"** %13, align 8
  %20 = bitcast %"class.std::vector.23"* %19 to %"struct.std::_Vector_base.24"*
  %21 = load i64, i64* %14, align 8
  %22 = load %"class.std::allocator.25"*, %"class.std::allocator.25"** %16, align 8
  %23 = call i64 @_ZNSt6vectorIS_IbSaIbEESaIS1_EE17_S_check_init_lenEmRKS2_(i64 %21, %"class.std::allocator.25"* dereferenceable(1) %22)
  %24 = load %"class.std::allocator.25"*, %"class.std::allocator.25"** %16, align 8
  call void @_ZNSt12_Vector_baseISt6vectorIbSaIbEESaIS2_EEC2EmRKS3_(%"struct.std::_Vector_base.24"* %20, i64 %23, %"class.std::allocator.25"* dereferenceable(1) %24)
  %25 = load i64, i64* %14, align 8
  %26 = load %"class.std::vector.7"*, %"class.std::vector.7"** %15, align 8
  %27 = load i32, i32* @x.25
  %28 = load i32, i32* @y.26
  %29 = sub i32 %27, 1
  %30 = mul i32 %27, %29
  %31 = urem i32 %30, 2
  %32 = icmp eq i32 %31, 0
  %33 = icmp slt i32 %28, 10
  %34 = or i1 %32, %33
  br i1 %34, label %originalBBpart2, label %originalBBalteredBB

originalBBpart2:                                  ; preds = %originalBB
  invoke void @_ZNSt6vectorIS_IbSaIbEESaIS1_EE18_M_fill_initializeEmRKS1_(%"class.std::vector.23"* %19, i64 %25, %"class.std::vector.7"* dereferenceable(40) %26)
          to label %35 unwind label %52

; <label>:35:                                     ; preds = %originalBBpart2
  %36 = load i32, i32* @x.25
  %37 = load i32, i32* @y.26
  %38 = sub i32 %36, 1
  %39 = mul i32 %36, %38
  %40 = urem i32 %39, 2
  %41 = icmp eq i32 %40, 0
  %42 = icmp slt i32 %37, 10
  %43 = or i1 %41, %42
  br i1 %43, label %originalBB1, label %originalBB1alteredBB

originalBB1:                                      ; preds = %35, %originalBB1alteredBB
  %44 = load i32, i32* @x.25
  %45 = load i32, i32* @y.26
  %46 = sub i32 %44, 1
  %47 = mul i32 %44, %46
  %48 = urem i32 %47, 2
  %49 = icmp eq i32 %48, 0
  %50 = icmp slt i32 %45, 10
  %51 = or i1 %49, %50
  br i1 %51, label %originalBBpart24, label %originalBB1alteredBB

originalBBpart24:                                 ; preds = %originalBB1
  ret void

; <label>:52:                                     ; preds = %originalBBpart2
  %53 = landingpad { i8*, i32 }
          cleanup
  %54 = extractvalue { i8*, i32 } %53, 0
  store i8* %54, i8** %17, align 8
  %55 = extractvalue { i8*, i32 } %53, 1
  store i32 %55, i32* %18, align 4
  %56 = bitcast %"class.std::vector.23"* %19 to %"struct.std::_Vector_base.24"*
  invoke void @_ZNSt12_Vector_baseISt6vectorIbSaIbEESaIS2_EED2Ev(%"struct.std::_Vector_base.24"* %56)
          to label %57 unwind label %79

; <label>:57:                                     ; preds = %52
  %58 = load i32, i32* @x.25
  %59 = load i32, i32* @y.26
  %60 = sub i32 %58, 1
  %61 = mul i32 %58, %60
  %62 = urem i32 %61, 2
  %63 = icmp eq i32 %62, 0
  %64 = icmp slt i32 %59, 10
  %65 = or i1 %63, %64
  br i1 %65, label %originalBB6, label %originalBB6alteredBB

originalBB6:                                      ; preds = %57, %originalBB6alteredBB
  %66 = load i32, i32* @x.25
  %67 = load i32, i32* @y.26
  %68 = sub i32 %66, 1
  %69 = mul i32 %66, %68
  %70 = urem i32 %69, 2
  %71 = icmp eq i32 %70, 0
  %72 = icmp slt i32 %67, 10
  %73 = or i1 %71, %72
  br i1 %73, label %originalBBpart28, label %originalBB6alteredBB

originalBBpart28:                                 ; preds = %originalBB6
  br label %74

; <label>:74:                                     ; preds = %originalBBpart28
  %75 = load i8*, i8** %17, align 8
  %76 = load i32, i32* %18, align 4
  %77 = insertvalue { i8*, i32 } undef, i8* %75, 0
  %78 = insertvalue { i8*, i32 } %77, i32 %76, 1
  resume { i8*, i32 } %78

; <label>:79:                                     ; preds = %52
  %80 = landingpad { i8*, i32 }
          catch i8* null
  %81 = extractvalue { i8*, i32 } %80, 0
  call void @__clang_call_terminate(i8* %81) #10
  unreachable

originalBBalteredBB:                              ; preds = %originalBB, %4
  %82 = alloca %"class.std::vector.23"*, align 8
  %83 = alloca i64, align 8
  %84 = alloca %"class.std::vector.7"*, align 8
  %85 = alloca %"class.std::allocator.25"*, align 8
  %86 = alloca i8*
  %87 = alloca i32
  store %"class.std::vector.23"* %0, %"class.std::vector.23"** %82, align 8
  store i64 %1, i64* %83, align 8
  store %"class.std::vector.7"* %2, %"class.std::vector.7"** %84, align 8
  store %"class.std::allocator.25"* %3, %"class.std::allocator.25"** %85, align 8
  %88 = load %"class.std::vector.23"*, %"class.std::vector.23"** %82, align 8
  %89 = bitcast %"class.std::vector.23"* %88 to %"struct.std::_Vector_base.24"*
  %90 = load i64, i64* %83, align 8
  %91 = load %"class.std::allocator.25"*, %"class.std::allocator.25"** %85, align 8
  %92 = call i64 @_ZNSt6vectorIS_IbSaIbEESaIS1_EE17_S_check_init_lenEmRKS2_(i64 %90, %"class.std::allocator.25"* dereferenceable(1) %91)
  %93 = load %"class.std::allocator.25"*, %"class.std::allocator.25"** %85, align 8
  call void @_ZNSt12_Vector_baseISt6vectorIbSaIbEESaIS2_EEC2EmRKS3_(%"struct.std::_Vector_base.24"* %89, i64 %92, %"class.std::allocator.25"* dereferenceable(1) %93)
  %94 = load i64, i64* %83, align 8
  %95 = load %"class.std::vector.7"*, %"class.std::vector.7"** %84, align 8
  br label %originalBB

originalBB1alteredBB:                             ; preds = %originalBB1, %35
  br label %originalBB1

originalBB6alteredBB:                             ; preds = %originalBB6, %57
  br label %originalBB6
}

declare void @_ZN13FiniteElementILi3EEC2ERK17FiniteElementDataILi3EERKSt6vectorIbSaIbEERKS5_IS7_SaIS7_EE(%class.FiniteElement*, %class.FiniteElementData* dereferenceable(52), %"class.std::vector.7"* dereferenceable(40), %"class.std::vector.23"* dereferenceable(24)) unnamed_addr #2

; Function Attrs: noinline uwtable
define linkonce_odr void @_ZNSt6vectorIS_IbSaIbEESaIS1_EED2Ev(%"class.std::vector.23"*) unnamed_addr #0 comdat align 2 personality i8* bitcast (i32 (...)* @__gxx_personality_v0 to i8*) {
  %2 = alloca %"class.std::vector.23"*, align 8
  %3 = alloca i8*
  %4 = alloca i32
  store %"class.std::vector.23"* %0, %"class.std::vector.23"** %2, align 8
  %5 = load %"class.std::vector.23"*, %"class.std::vector.23"** %2, align 8
  %6 = bitcast %"class.std::vector.23"* %5 to %"struct.std::_Vector_base.24"*
  %7 = getelementptr inbounds %"struct.std::_Vector_base.24", %"struct.std::_Vector_base.24"* %6, i32 0, i32 0
  %8 = bitcast %"struct.std::_Vector_base<std::vector<bool, std::allocator<bool> >, std::allocator<std::vector<bool, std::allocator<bool> > > >::_Vector_impl"* %7 to %"struct.std::_Vector_base<std::vector<bool, std::allocator<bool> >, std::allocator<std::vector<bool, std::allocator<bool> > > >::_Vector_impl_data"*
  %9 = getelementptr inbounds %"struct.std::_Vector_base<std::vector<bool, std::allocator<bool> >, std::allocator<std::vector<bool, std::allocator<bool> > > >::_Vector_impl_data", %"struct.std::_Vector_base<std::vector<bool, std::allocator<bool> >, std::allocator<std::vector<bool, std::allocator<bool> > > >::_Vector_impl_data"* %8, i32 0, i32 0
  %10 = load %"class.std::vector.7"*, %"class.std::vector.7"** %9, align 8
  %11 = bitcast %"class.std::vector.23"* %5 to %"struct.std::_Vector_base.24"*
  %12 = getelementptr inbounds %"struct.std::_Vector_base.24", %"struct.std::_Vector_base.24"* %11, i32 0, i32 0
  %13 = bitcast %"struct.std::_Vector_base<std::vector<bool, std::allocator<bool> >, std::allocator<std::vector<bool, std::allocator<bool> > > >::_Vector_impl"* %12 to %"struct.std::_Vector_base<std::vector<bool, std::allocator<bool> >, std::allocator<std::vector<bool, std::allocator<bool> > > >::_Vector_impl_data"*
  %14 = getelementptr inbounds %"struct.std::_Vector_base<std::vector<bool, std::allocator<bool> >, std::allocator<std::vector<bool, std::allocator<bool> > > >::_Vector_impl_data", %"struct.std::_Vector_base<std::vector<bool, std::allocator<bool> >, std::allocator<std::vector<bool, std::allocator<bool> > > >::_Vector_impl_data"* %13, i32 0, i32 1
  %15 = load %"class.std::vector.7"*, %"class.std::vector.7"** %14, align 8
  %16 = bitcast %"class.std::vector.23"* %5 to %"struct.std::_Vector_base.24"*
  %17 = invoke dereferenceable(1) %"class.std::allocator.25"* @_ZNSt12_Vector_baseISt6vectorIbSaIbEESaIS2_EE19_M_get_Tp_allocatorEv(%"struct.std::_Vector_base.24"* %16)
          to label %18 unwind label %37

; <label>:18:                                     ; preds = %1
  invoke void @_ZSt8_DestroyIPSt6vectorIbSaIbEES2_EvT_S4_RSaIT0_E(%"class.std::vector.7"* %10, %"class.std::vector.7"* %15, %"class.std::allocator.25"* dereferenceable(1) %17)
          to label %19 unwind label %37

; <label>:19:                                     ; preds = %18
  %20 = load i32, i32* @x.27
  %21 = load i32, i32* @y.28
  %22 = sub i32 %20, 1
  %23 = mul i32 %20, %22
  %24 = urem i32 %23, 2
  %25 = icmp eq i32 %24, 0
  %26 = icmp slt i32 %21, 10
  %27 = or i1 %25, %26
  br i1 %27, label %originalBB, label %originalBBalteredBB

originalBB:                                       ; preds = %19, %originalBBalteredBB
  %28 = bitcast %"class.std::vector.23"* %5 to %"struct.std::_Vector_base.24"*
  call void @_ZNSt12_Vector_baseISt6vectorIbSaIbEESaIS2_EED2Ev(%"struct.std::_Vector_base.24"* %28)
  %29 = load i32, i32* @x.27
  %30 = load i32, i32* @y.28
  %31 = sub i32 %29, 1
  %32 = mul i32 %29, %31
  %33 = urem i32 %32, 2
  %34 = icmp eq i32 %33, 0
  %35 = icmp slt i32 %30, 10
  %36 = or i1 %34, %35
  br i1 %36, label %originalBBpart2, label %originalBBalteredBB

originalBBpart2:                                  ; preds = %originalBB
  ret void

; <label>:37:                                     ; preds = %18, %1
  %38 = load i32, i32* @x.27
  %39 = load i32, i32* @y.28
  %40 = sub i32 %38, 1
  %41 = mul i32 %38, %40
  %42 = urem i32 %41, 2
  %43 = icmp eq i32 %42, 0
  %44 = icmp slt i32 %39, 10
  %45 = or i1 %43, %44
  br i1 %45, label %originalBB1, label %originalBB1alteredBB

originalBB1:                                      ; preds = %37, %originalBB1alteredBB
  %46 = landingpad { i8*, i32 }
          cleanup
  %47 = extractvalue { i8*, i32 } %46, 0
  store i8* %47, i8** %3, align 8
  %48 = extractvalue { i8*, i32 } %46, 1
  store i32 %48, i32* %4, align 4
  %49 = bitcast %"class.std::vector.23"* %5 to %"struct.std::_Vector_base.24"*
  %50 = load i32, i32* @x.27
  %51 = load i32, i32* @y.28
  %52 = sub i32 %50, 1
  %53 = mul i32 %50, %52
  %54 = urem i32 %53, 2
  %55 = icmp eq i32 %54, 0
  %56 = icmp slt i32 %51, 10
  %57 = or i1 %55, %56
  br i1 %57, label %originalBBpart24, label %originalBB1alteredBB

originalBBpart24:                                 ; preds = %originalBB1
  invoke void @_ZNSt12_Vector_baseISt6vectorIbSaIbEESaIS2_EED2Ev(%"struct.std::_Vector_base.24"* %49)
          to label %58 unwind label %64

; <label>:58:                                     ; preds = %originalBBpart24
  br label %59

; <label>:59:                                     ; preds = %58
  %60 = load i8*, i8** %3, align 8
  %61 = load i32, i32* %4, align 4
  %62 = insertvalue { i8*, i32 } undef, i8* %60, 0
  %63 = insertvalue { i8*, i32 } %62, i32 %61, 1
  resume { i8*, i32 } %63

; <label>:64:                                     ; preds = %originalBBpart24
  %65 = load i32, i32* @x.27
  %66 = load i32, i32* @y.28
  %67 = sub i32 %65, 1
  %68 = mul i32 %65, %67
  %69 = urem i32 %68, 2
  %70 = icmp eq i32 %69, 0
  %71 = icmp slt i32 %66, 10
  %72 = or i1 %70, %71
  br i1 %72, label %originalBB6, label %originalBB6alteredBB

originalBB6:                                      ; preds = %64, %originalBB6alteredBB
  %73 = landingpad { i8*, i32 }
          catch i8* null
  %74 = extractvalue { i8*, i32 } %73, 0
  call void @__clang_call_terminate(i8* %74) #10
  %75 = load i32, i32* @x.27
  %76 = load i32, i32* @y.28
  %77 = sub i32 %75, 1
  %78 = mul i32 %75, %77
  %79 = urem i32 %78, 2
  %80 = icmp eq i32 %79, 0
  %81 = icmp slt i32 %76, 10
  %82 = or i1 %80, %81
  br i1 %82, label %originalBBpart28, label %originalBB6alteredBB

originalBBpart28:                                 ; preds = %originalBB6
  unreachable

originalBBalteredBB:                              ; preds = %originalBB, %19
  %83 = bitcast %"class.std::vector.23"* %5 to %"struct.std::_Vector_base.24"*
  call void @_ZNSt12_Vector_baseISt6vectorIbSaIbEESaIS2_EED2Ev(%"struct.std::_Vector_base.24"* %83)
  br label %originalBB

originalBB1alteredBB:                             ; preds = %originalBB1, %37
  %84 = landingpad { i8*, i32 }
          cleanup
  %85 = extractvalue { i8*, i32 } %84, 0
  store i8* %85, i8** %3, align 8
  %86 = extractvalue { i8*, i32 } %84, 1
  store i32 %86, i32* %4, align 4
  %87 = bitcast %"class.std::vector.23"* %5 to %"struct.std::_Vector_base.24"*
  br label %originalBB1

originalBB6alteredBB:                             ; preds = %originalBB6, %64
  %88 = landingpad { i8*, i32 }
          catch i8* null
  %89 = extractvalue { i8*, i32 } %88, 0
  call void @__clang_call_terminate(i8* %89) #10
  br label %originalBB6
}

; Function Attrs: noinline noreturn nounwind
define linkonce_odr hidden void @__clang_call_terminate(i8*) #3 comdat {
  %2 = call i8* @__cxa_begin_catch(i8* %0) #12
  call void @_ZSt9terminatev() #10
  unreachable
}

declare i8* @__cxa_begin_catch(i8*)

declare void @_ZSt9terminatev()

; Function Attrs: noinline nounwind uwtable
define linkonce_odr void @_ZNSaISt6vectorIbSaIbEEED2Ev(%"class.std::allocator.25"*) unnamed_addr #1 comdat align 2 {
  %2 = alloca %"class.std::allocator.25"*, align 8
  store %"class.std::allocator.25"* %0, %"class.std::allocator.25"** %2, align 8
  %3 = load %"class.std::allocator.25"*, %"class.std::allocator.25"** %2, align 8
  %4 = bitcast %"class.std::allocator.25"* %3 to %"class.__gnu_cxx::new_allocator.26"*
  call void @_ZN9__gnu_cxx13new_allocatorISt6vectorIbSaIbEEED2Ev(%"class.__gnu_cxx::new_allocator.26"* %4) #12
  ret void
}

; Function Attrs: noinline uwtable
define linkonce_odr void @_ZNSt6vectorIbSaIbEED2Ev(%"class.std::vector.7"*) unnamed_addr #0 comdat align 2 {
  %2 = alloca %"class.std::vector.7"*, align 8
  store %"class.std::vector.7"* %0, %"class.std::vector.7"** %2, align 8
  %3 = load %"class.std::vector.7"*, %"class.std::vector.7"** %2, align 8
  %4 = bitcast %"class.std::vector.7"* %3 to %"struct.std::_Bvector_base"*
  call void @_ZNSt13_Bvector_baseISaIbEED2Ev(%"struct.std::_Bvector_base"* %4)
  ret void
}

; Function Attrs: noinline nounwind uwtable
define linkonce_odr void @_ZNSaIbED2Ev(%"class.std::allocator.34"*) unnamed_addr #1 comdat align 2 {
  %2 = alloca %"class.std::allocator.34"*, align 8
  store %"class.std::allocator.34"* %0, %"class.std::allocator.34"** %2, align 8
  %3 = load %"class.std::allocator.34"*, %"class.std::allocator.34"** %2, align 8
  %4 = bitcast %"class.std::allocator.34"* %3 to %"class.__gnu_cxx::new_allocator.35"*
  call void @_ZN9__gnu_cxx13new_allocatorIbED2Ev(%"class.__gnu_cxx::new_allocator.35"* %4) #12
  ret void
}

; Function Attrs: noinline uwtable
define linkonce_odr void @_ZNSt6vectorIjSaIjEED2Ev(%"class.std::vector.28"*) unnamed_addr #0 comdat align 2 personality i8* bitcast (i32 (...)* @__gxx_personality_v0 to i8*) {
  %2 = alloca %"class.std::vector.28"*, align 8
  %3 = alloca i8*
  %4 = alloca i32
  store %"class.std::vector.28"* %0, %"class.std::vector.28"** %2, align 8
  %5 = load %"class.std::vector.28"*, %"class.std::vector.28"** %2, align 8
  %6 = bitcast %"class.std::vector.28"* %5 to %"struct.std::_Vector_base.29"*
  %7 = getelementptr inbounds %"struct.std::_Vector_base.29", %"struct.std::_Vector_base.29"* %6, i32 0, i32 0
  %8 = bitcast %"struct.std::_Vector_base<unsigned int, std::allocator<unsigned int> >::_Vector_impl"* %7 to %"struct.std::_Vector_base<unsigned int, std::allocator<unsigned int> >::_Vector_impl_data"*
  %9 = getelementptr inbounds %"struct.std::_Vector_base<unsigned int, std::allocator<unsigned int> >::_Vector_impl_data", %"struct.std::_Vector_base<unsigned int, std::allocator<unsigned int> >::_Vector_impl_data"* %8, i32 0, i32 0
  %10 = load i32*, i32** %9, align 8
  %11 = bitcast %"class.std::vector.28"* %5 to %"struct.std::_Vector_base.29"*
  %12 = getelementptr inbounds %"struct.std::_Vector_base.29", %"struct.std::_Vector_base.29"* %11, i32 0, i32 0
  %13 = bitcast %"struct.std::_Vector_base<unsigned int, std::allocator<unsigned int> >::_Vector_impl"* %12 to %"struct.std::_Vector_base<unsigned int, std::allocator<unsigned int> >::_Vector_impl_data"*
  %14 = getelementptr inbounds %"struct.std::_Vector_base<unsigned int, std::allocator<unsigned int> >::_Vector_impl_data", %"struct.std::_Vector_base<unsigned int, std::allocator<unsigned int> >::_Vector_impl_data"* %13, i32 0, i32 1
  %15 = load i32*, i32** %14, align 8
  %16 = bitcast %"class.std::vector.28"* %5 to %"struct.std::_Vector_base.29"*
  %17 = invoke dereferenceable(1) %"class.std::allocator.30"* @_ZNSt12_Vector_baseIjSaIjEE19_M_get_Tp_allocatorEv(%"struct.std::_Vector_base.29"* %16)
          to label %18 unwind label %21

; <label>:18:                                     ; preds = %1
  invoke void @_ZSt8_DestroyIPjjEvT_S1_RSaIT0_E(i32* %10, i32* %15, %"class.std::allocator.30"* dereferenceable(1) %17)
          to label %19 unwind label %21

; <label>:19:                                     ; preds = %18
  %20 = bitcast %"class.std::vector.28"* %5 to %"struct.std::_Vector_base.29"*
  call void @_ZNSt12_Vector_baseIjSaIjEED2Ev(%"struct.std::_Vector_base.29"* %20)
  ret void

; <label>:21:                                     ; preds = %18, %1
  %22 = load i32, i32* @x.37
  %23 = load i32, i32* @y.38
  %24 = sub i32 %22, 1
  %25 = mul i32 %22, %24
  %26 = urem i32 %25, 2
  %27 = icmp eq i32 %26, 0
  %28 = icmp slt i32 %23, 10
  %29 = or i1 %27, %28
  br i1 %29, label %originalBB, label %originalBBalteredBB

originalBB:                                       ; preds = %21, %originalBBalteredBB
  %30 = landingpad { i8*, i32 }
          cleanup
  %31 = extractvalue { i8*, i32 } %30, 0
  store i8* %31, i8** %3, align 8
  %32 = extractvalue { i8*, i32 } %30, 1
  store i32 %32, i32* %4, align 4
  %33 = bitcast %"class.std::vector.28"* %5 to %"struct.std::_Vector_base.29"*
  %34 = load i32, i32* @x.37
  %35 = load i32, i32* @y.38
  %36 = sub i32 %34, 1
  %37 = mul i32 %34, %36
  %38 = urem i32 %37, 2
  %39 = icmp eq i32 %38, 0
  %40 = icmp slt i32 %35, 10
  %41 = or i1 %39, %40
  br i1 %41, label %originalBBpart2, label %originalBBalteredBB

originalBBpart2:                                  ; preds = %originalBB
  invoke void @_ZNSt12_Vector_baseIjSaIjEED2Ev(%"struct.std::_Vector_base.29"* %33)
          to label %42 unwind label %48

; <label>:42:                                     ; preds = %originalBBpart2
  br label %43

; <label>:43:                                     ; preds = %42
  %44 = load i8*, i8** %3, align 8
  %45 = load i32, i32* %4, align 4
  %46 = insertvalue { i8*, i32 } undef, i8* %44, 0
  %47 = insertvalue { i8*, i32 } %46, i32 %45, 1
  resume { i8*, i32 } %47

; <label>:48:                                     ; preds = %originalBBpart2
  %49 = landingpad { i8*, i32 }
          catch i8* null
  %50 = extractvalue { i8*, i32 } %49, 0
  call void @__clang_call_terminate(i8* %50) #10
  unreachable

originalBBalteredBB:                              ; preds = %originalBB, %21
  %51 = landingpad { i8*, i32 }
          cleanup
  %52 = extractvalue { i8*, i32 } %51, 0
  store i8* %52, i8** %3, align 8
  %53 = extractvalue { i8*, i32 } %51, 1
  store i32 %53, i32* %4, align 4
  %54 = bitcast %"class.std::vector.28"* %5 to %"struct.std::_Vector_base.29"*
  br label %originalBB
}

; Function Attrs: noinline uwtable
define weak_odr void @_ZN10FE_NedelecILi3EE22initialize_constraintsEv(%class.FE_Nedelec*) #0 comdat align 2 {
  %2 = alloca %class.FE_Nedelec*, align 8
  %3 = alloca %class.TableIndices, align 4
  store %class.FE_Nedelec* %0, %class.FE_Nedelec** %2, align 8
  %4 = load %class.FE_Nedelec*, %class.FE_Nedelec** %2, align 8
  %5 = getelementptr inbounds %class.FE_Nedelec, %class.FE_Nedelec* %4, i32 0, i32 1
  %6 = load i32, i32* %5, align 4
  %7 = load i32, i32* @_ZN10FE_NedelecILi3EE8Matrices21n_constraint_matricesE, align 4
  %8 = add i32 %7, 1
  %9 = icmp ult i32 %6, %8
  br i1 %9, label %10, label %27

; <label>:10:                                     ; preds = %1
  %11 = bitcast %class.FE_Nedelec* %4 to %class.FiniteElementBase*
  %12 = getelementptr inbounds %class.FiniteElementBase, %class.FiniteElementBase* %11, i32 0, i32 5
  %13 = bitcast %class.FullMatrix* %12 to %class.TableBase*
  %14 = bitcast %class.FE_Nedelec* %4 to %class.FiniteElementBase*
  %15 = call i64 @_ZNK17FiniteElementBaseILi3EE26interface_constraints_sizeEv(%class.FiniteElementBase* %14)
  %16 = getelementptr inbounds %class.TableIndices, %class.TableIndices* %3, i32 0, i32 0
  %17 = getelementptr inbounds %class.TableIndicesBase, %class.TableIndicesBase* %16, i32 0, i32 0
  %18 = bitcast [2 x i32]* %17 to i64*
  store i64 %15, i64* %18, align 4
  call void @_ZN9TableBaseILi2EdE6reinitERK12TableIndicesILi2EE(%class.TableBase* %13, %class.TableIndices* dereferenceable(8) %3)
  %19 = bitcast %class.FE_Nedelec* %4 to %class.FiniteElementBase*
  %20 = getelementptr inbounds %class.FiniteElementBase, %class.FiniteElementBase* %19, i32 0, i32 5
  %21 = getelementptr inbounds %class.FE_Nedelec, %class.FE_Nedelec* %4, i32 0, i32 1
  %22 = load i32, i32* %21, align 4
  %23 = sub i32 %22, 1
  %24 = zext i32 %23 to i64
  %25 = getelementptr inbounds [0 x double*], [0 x double*]* @_ZN10FE_NedelecILi3EE8Matrices19constraint_matricesE, i64 0, i64 %24
  %26 = load double*, double** %25, align 8
  call void @_ZN10FullMatrixIdE4fillIdEEvPKT_(%class.FullMatrix* %20, double* %26)
  br label %27

; <label>:27:                                     ; preds = %10, %1
  ret void
}

; Function Attrs: noinline uwtable
define weak_odr void @_ZN10FE_NedelecILi3EE20initialize_embeddingEv(%class.FE_Nedelec*) #0 comdat align 2 {
  %2 = alloca %class.FE_Nedelec*, align 8
  %3 = alloca i32, align 4
  %4 = alloca i32, align 4
  %5 = alloca double, align 8
  %6 = alloca i32, align 4
  store %class.FE_Nedelec* %0, %class.FE_Nedelec** %2, align 8
  %7 = load %class.FE_Nedelec*, %class.FE_Nedelec** %2, align 8
  %8 = getelementptr inbounds %class.FE_Nedelec, %class.FE_Nedelec* %7, i32 0, i32 1
  %9 = load i32, i32* %8, align 4
  %10 = load i32, i32* @_ZN10FE_NedelecILi3EE8Matrices20n_embedding_matricesE, align 4
  %11 = add i32 %10, 1
  %12 = icmp ult i32 %9, %11
  br i1 %12, label %13, label %163

; <label>:13:                                     ; preds = %1
  %14 = load i32, i32* @x.41
  %15 = load i32, i32* @y.42
  %16 = sub i32 %14, 1
  %17 = mul i32 %14, %16
  %18 = urem i32 %17, 2
  %19 = icmp eq i32 %18, 0
  %20 = icmp slt i32 %15, 10
  %21 = or i1 %19, %20
  br i1 %21, label %originalBB, label %originalBBalteredBB

originalBB:                                       ; preds = %13, %originalBBalteredBB
  %22 = getelementptr inbounds %class.FE_Nedelec, %class.FE_Nedelec* %7, i32 0, i32 1
  %23 = load i32, i32* %22, align 4
  %24 = sub i32 %23, 1
  %25 = zext i32 %24 to i64
  %26 = getelementptr inbounds [0 x [8 x double*]], [0 x [8 x double*]]* @_ZN10FE_NedelecILi3EE8Matrices9embeddingE, i64 0, i64 %25
  %27 = getelementptr inbounds [8 x double*], [8 x double*]* %26, i64 0, i64 0
  %28 = load double*, double** %27, align 8
  %29 = icmp ne double* %28, null
  %30 = load i32, i32* @x.41
  %31 = load i32, i32* @y.42
  %32 = sub i32 %30, 1
  %33 = mul i32 %30, %32
  %34 = urem i32 %33, 2
  %35 = icmp eq i32 %34, 0
  %36 = icmp slt i32 %31, 10
  %37 = or i1 %35, %36
  br i1 %37, label %originalBBpart2, label %originalBBalteredBB

originalBBpart2:                                  ; preds = %originalBB
  br i1 %29, label %38, label %163

; <label>:38:                                     ; preds = %originalBBpart2
  store i32 0, i32* %3, align 4
  br label %39

; <label>:39:                                     ; preds = %originalBBpart213, %38
  %40 = load i32, i32* @x.41
  %41 = load i32, i32* @y.42
  %42 = sub i32 %40, 1
  %43 = mul i32 %40, %42
  %44 = urem i32 %43, 2
  %45 = icmp eq i32 %44, 0
  %46 = icmp slt i32 %41, 10
  %47 = or i1 %45, %46
  br i1 %47, label %originalBB1, label %originalBB1alteredBB

originalBB1:                                      ; preds = %39, %originalBB1alteredBB
  %48 = load i32, i32* %3, align 4
  %49 = icmp ult i32 %48, 8
  %50 = load i32, i32* @x.41
  %51 = load i32, i32* @y.42
  %52 = sub i32 %50, 1
  %53 = mul i32 %50, %52
  %54 = urem i32 %53, 2
  %55 = icmp eq i32 %54, 0
  %56 = icmp slt i32 %51, 10
  %57 = or i1 %55, %56
  br i1 %57, label %originalBBpart24, label %originalBB1alteredBB

originalBBpart24:                                 ; preds = %originalBB1
  br i1 %49, label %58, label %162

; <label>:58:                                     ; preds = %originalBBpart24
  %59 = bitcast %class.FE_Nedelec* %7 to %class.FiniteElementBase*
  %60 = getelementptr inbounds %class.FiniteElementBase, %class.FiniteElementBase* %59, i32 0, i32 4
  %61 = load i32, i32* %3, align 4
  %62 = zext i32 %61 to i64
  %63 = getelementptr inbounds [8 x %class.FullMatrix], [8 x %class.FullMatrix]* %60, i64 0, i64 %62
  %64 = bitcast %class.FullMatrix* %63 to %class.Table*
  %65 = bitcast %class.FE_Nedelec* %7 to i8*
  %66 = getelementptr inbounds i8, i8* %65, i64 24
  %67 = bitcast i8* %66 to %class.FiniteElementData*
  %68 = getelementptr inbounds %class.FiniteElementData, %class.FiniteElementData* %67, i32 0, i32 10
  %69 = load i32, i32* %68, align 8
  %70 = bitcast %class.FE_Nedelec* %7 to i8*
  %71 = getelementptr inbounds i8, i8* %70, i64 24
  %72 = bitcast i8* %71 to %class.FiniteElementData*
  %73 = getelementptr inbounds %class.FiniteElementData, %class.FiniteElementData* %72, i32 0, i32 10
  %74 = load i32, i32* %73, align 8
  call void @_ZN5TableILi2EdE6reinitEjj(%class.Table* %64, i32 %69, i32 %74)
  %75 = bitcast %class.FE_Nedelec* %7 to %class.FiniteElementBase*
  %76 = getelementptr inbounds %class.FiniteElementBase, %class.FiniteElementBase* %75, i32 0, i32 4
  %77 = load i32, i32* %3, align 4
  %78 = zext i32 %77 to i64
  %79 = getelementptr inbounds [8 x %class.FullMatrix], [8 x %class.FullMatrix]* %76, i64 0, i64 %78
  %80 = getelementptr inbounds %class.FE_Nedelec, %class.FE_Nedelec* %7, i32 0, i32 1
  %81 = load i32, i32* %80, align 4
  %82 = sub i32 %81, 1
  %83 = zext i32 %82 to i64
  %84 = getelementptr inbounds [0 x [8 x double*]], [0 x [8 x double*]]* @_ZN10FE_NedelecILi3EE8Matrices9embeddingE, i64 0, i64 %83
  %85 = load i32, i32* %3, align 4
  %86 = zext i32 %85 to i64
  %87 = getelementptr inbounds [8 x double*], [8 x double*]* %84, i64 0, i64 %86
  %88 = load double*, double** %87, align 8
  call void @_ZN10FullMatrixIdE4fillIdEEvPKT_(%class.FullMatrix* %79, double* %88)
  store i32 0, i32* %4, align 4
  br label %89

; <label>:89:                                     ; preds = %139, %58
  %90 = load i32, i32* @x.41
  %91 = load i32, i32* @y.42
  %92 = sub i32 %90, 1
  %93 = mul i32 %90, %92
  %94 = urem i32 %93, 2
  %95 = icmp eq i32 %94, 0
  %96 = icmp slt i32 %91, 10
  %97 = or i1 %95, %96
  br i1 %97, label %originalBB6, label %originalBB6alteredBB

originalBB6:                                      ; preds = %89, %originalBB6alteredBB
  %98 = load i32, i32* %4, align 4
  %99 = bitcast %class.FE_Nedelec* %7 to i8*
  %100 = getelementptr inbounds i8, i8* %99, i64 24
  %101 = bitcast i8* %100 to %class.FiniteElementData*
  %102 = getelementptr inbounds %class.FiniteElementData, %class.FiniteElementData* %101, i32 0, i32 10
  %103 = load i32, i32* %102, align 8
  %104 = icmp ult i32 %98, %103
  %105 = load i32, i32* @x.41
  %106 = load i32, i32* @y.42
  %107 = sub i32 %105, 1
  %108 = mul i32 %105, %107
  %109 = urem i32 %108, 2
  %110 = icmp eq i32 %109, 0
  %111 = icmp slt i32 %106, 10
  %112 = or i1 %110, %111
  br i1 %112, label %originalBBpart28, label %originalBB6alteredBB

originalBBpart28:                                 ; preds = %originalBB6
  br i1 %104, label %113, label %142

; <label>:113:                                    ; preds = %originalBBpart28
  store double 0.000000e+00, double* %5, align 8
  store i32 0, i32* %6, align 4
  br label %114

; <label>:114:                                    ; preds = %135, %113
  %115 = load i32, i32* %6, align 4
  %116 = bitcast %class.FE_Nedelec* %7 to i8*
  %117 = getelementptr inbounds i8, i8* %116, i64 24
  %118 = bitcast i8* %117 to %class.FiniteElementData*
  %119 = getelementptr inbounds %class.FiniteElementData, %class.FiniteElementData* %118, i32 0, i32 10
  %120 = load i32, i32* %119, align 8
  %121 = icmp ult i32 %115, %120
  br i1 %121, label %122, label %138

; <label>:122:                                    ; preds = %114
  %123 = bitcast %class.FE_Nedelec* %7 to %class.FiniteElementBase*
  %124 = getelementptr inbounds %class.FiniteElementBase, %class.FiniteElementBase* %123, i32 0, i32 4
  %125 = load i32, i32* %3, align 4
  %126 = zext i32 %125 to i64
  %127 = getelementptr inbounds [8 x %class.FullMatrix], [8 x %class.FullMatrix]* %124, i64 0, i64 %126
  %128 = bitcast %class.FullMatrix* %127 to %class.Table*
  %129 = load i32, i32* %4, align 4
  %130 = load i32, i32* %6, align 4
  %131 = call dereferenceable(8) double* @_ZN5TableILi2EdEclEjj(%class.Table* %128, i32 %129, i32 %130)
  %132 = load double, double* %131, align 8
  %133 = load double, double* %5, align 8
  %134 = fadd double %133, %132
  store double %134, double* %5, align 8
  br label %135

; <label>:135:                                    ; preds = %122
  %136 = load i32, i32* %6, align 4
  %137 = add i32 %136, 1
  store i32 %137, i32* %6, align 4
  br label %114

; <label>:138:                                    ; preds = %114
  br label %139

; <label>:139:                                    ; preds = %138
  %140 = load i32, i32* %4, align 4
  %141 = add i32 %140, 1
  store i32 %141, i32* %4, align 4
  br label %89

; <label>:142:                                    ; preds = %originalBBpart28
  br label %143

; <label>:143:                                    ; preds = %142
  %144 = load i32, i32* @x.41
  %145 = load i32, i32* @y.42
  %146 = sub i32 %144, 1
  %147 = mul i32 %144, %146
  %148 = urem i32 %147, 2
  %149 = icmp eq i32 %148, 0
  %150 = icmp slt i32 %145, 10
  %151 = or i1 %149, %150
  br i1 %151, label %originalBB10, label %originalBB10alteredBB

originalBB10:                                     ; preds = %143, %originalBB10alteredBB
  %152 = load i32, i32* %3, align 4
  %153 = add i32 %152, 1
  store i32 %153, i32* %3, align 4
  %154 = load i32, i32* @x.41
  %155 = load i32, i32* @y.42
  %156 = sub i32 %154, 1
  %157 = mul i32 %154, %156
  %158 = urem i32 %157, 2
  %159 = icmp eq i32 %158, 0
  %160 = icmp slt i32 %155, 10
  %161 = or i1 %159, %160
  br i1 %161, label %originalBBpart213, label %originalBB10alteredBB

originalBBpart213:                                ; preds = %originalBB10
  br label %39

; <label>:162:                                    ; preds = %originalBBpart24
  br label %163

; <label>:163:                                    ; preds = %162, %originalBBpart2, %1
  ret void

originalBBalteredBB:                              ; preds = %originalBB, %13
  %164 = getelementptr inbounds %class.FE_Nedelec, %class.FE_Nedelec* %7, i32 0, i32 1
  %165 = load i32, i32* %164, align 4
  %_ = shl i32 %165, 1
  %166 = sub i32 %165, 1
  %167 = zext i32 %166 to i64
  %168 = getelementptr inbounds [0 x [8 x double*]], [0 x [8 x double*]]* @_ZN10FE_NedelecILi3EE8Matrices9embeddingE, i64 0, i64 %167
  %169 = getelementptr inbounds [8 x double*], [8 x double*]* %168, i64 0, i64 0
  %170 = load double*, double** %169, align 8
  %171 = icmp ne double* %170, null
  br label %originalBB

originalBB1alteredBB:                             ; preds = %originalBB1, %39
  %172 = load i32, i32* %3, align 4
  %173 = icmp ult i32 %172, 8
  br label %originalBB1

originalBB6alteredBB:                             ; preds = %originalBB6, %89
  %174 = load i32, i32* %4, align 4
  %175 = bitcast %class.FE_Nedelec* %7 to i8*
  %176 = getelementptr inbounds i8, i8* %175, i64 24
  %177 = bitcast i8* %176 to %class.FiniteElementData*
  %178 = getelementptr inbounds %class.FiniteElementData, %class.FiniteElementData* %177, i32 0, i32 10
  %179 = load i32, i32* %178, align 8
  %180 = icmp ult i32 %174, %179
  br label %originalBB6

originalBB10alteredBB:                            ; preds = %originalBB10, %143
  %181 = load i32, i32* %3, align 4
  %_11 = shl i32 %181, 1
  %182 = add i32 %181, 1
  store i32 %182, i32* %3, align 4
  br label %originalBB10
}

; Function Attrs: noinline uwtable
define weak_odr void @_ZN10FE_NedelecILi3EE22initialize_restrictionEv(%class.FE_Nedelec*) #0 comdat align 2 {
  %2 = alloca %class.FE_Nedelec*, align 8
  %3 = alloca i32, align 4
  store %class.FE_Nedelec* %0, %class.FE_Nedelec** %2, align 8
  %4 = load %class.FE_Nedelec*, %class.FE_Nedelec** %2, align 8
  %5 = getelementptr inbounds %class.FE_Nedelec, %class.FE_Nedelec* %4, i32 0, i32 1
  %6 = load i32, i32* %5, align 4
  switch i32 %6, label %124 [
    i32 1, label %7
  ]

; <label>:7:                                      ; preds = %1
  %8 = load i32, i32* @x.43
  %9 = load i32, i32* @y.44
  %10 = sub i32 %8, 1
  %11 = mul i32 %8, %10
  %12 = urem i32 %11, 2
  %13 = icmp eq i32 %12, 0
  %14 = icmp slt i32 %9, 10
  %15 = or i1 %13, %14
  br i1 %15, label %originalBB, label %originalBBalteredBB

originalBB:                                       ; preds = %7, %originalBBalteredBB
  store i32 0, i32* %3, align 4
  %16 = load i32, i32* @x.43
  %17 = load i32, i32* @y.44
  %18 = sub i32 %16, 1
  %19 = mul i32 %16, %18
  %20 = urem i32 %19, 2
  %21 = icmp eq i32 %20, 0
  %22 = icmp slt i32 %17, 10
  %23 = or i1 %21, %22
  br i1 %23, label %originalBBpart2, label %originalBBalteredBB

originalBBpart2:                                  ; preds = %originalBB
  br label %24

; <label>:24:                                     ; preds = %originalBBpart210, %originalBBpart2
  %25 = load i32, i32* %3, align 4
  %26 = icmp ult i32 %25, 8
  br i1 %26, label %27, label %63

; <label>:27:                                     ; preds = %24
  %28 = bitcast %class.FE_Nedelec* %4 to %class.FiniteElementBase*
  %29 = getelementptr inbounds %class.FiniteElementBase, %class.FiniteElementBase* %28, i32 0, i32 3
  %30 = load i32, i32* %3, align 4
  %31 = zext i32 %30 to i64
  %32 = getelementptr inbounds [8 x %class.FullMatrix], [8 x %class.FullMatrix]* %29, i64 0, i64 %31
  %33 = bitcast %class.FullMatrix* %32 to %class.Table*
  %34 = bitcast %class.FE_Nedelec* %4 to i8*
  %35 = getelementptr inbounds i8, i8* %34, i64 24
  %36 = bitcast i8* %35 to %class.FiniteElementData*
  %37 = getelementptr inbounds %class.FiniteElementData, %class.FiniteElementData* %36, i32 0, i32 10
  %38 = load i32, i32* %37, align 8
  %39 = bitcast %class.FE_Nedelec* %4 to i8*
  %40 = getelementptr inbounds i8, i8* %39, i64 24
  %41 = bitcast i8* %40 to %class.FiniteElementData*
  %42 = getelementptr inbounds %class.FiniteElementData, %class.FiniteElementData* %41, i32 0, i32 10
  %43 = load i32, i32* %42, align 8
  call void @_ZN5TableILi2EdE6reinitEjj(%class.Table* %33, i32 %38, i32 %43)
  br label %44

; <label>:44:                                     ; preds = %27
  %45 = load i32, i32* @x.43
  %46 = load i32, i32* @y.44
  %47 = sub i32 %45, 1
  %48 = mul i32 %45, %47
  %49 = urem i32 %48, 2
  %50 = icmp eq i32 %49, 0
  %51 = icmp slt i32 %46, 10
  %52 = or i1 %50, %51
  br i1 %52, label %originalBB1, label %originalBB1alteredBB

originalBB1:                                      ; preds = %44, %originalBB1alteredBB
  %53 = load i32, i32* %3, align 4
  %54 = add i32 %53, 1
  store i32 %54, i32* %3, align 4
  %55 = load i32, i32* @x.43
  %56 = load i32, i32* @y.44
  %57 = sub i32 %55, 1
  %58 = mul i32 %55, %57
  %59 = urem i32 %58, 2
  %60 = icmp eq i32 %59, 0
  %61 = icmp slt i32 %56, 10
  %62 = or i1 %60, %61
  br i1 %62, label %originalBBpart210, label %originalBB1alteredBB

originalBBpart210:                                ; preds = %originalBB1
  br label %24

; <label>:63:                                     ; preds = %24
  %64 = bitcast %class.FE_Nedelec* %4 to %class.FiniteElementBase*
  %65 = getelementptr inbounds %class.FiniteElementBase, %class.FiniteElementBase* %64, i32 0, i32 3
  %66 = getelementptr inbounds [8 x %class.FullMatrix], [8 x %class.FullMatrix]* %65, i64 0, i64 0
  %67 = bitcast %class.FullMatrix* %66 to %class.Table*
  %68 = call dereferenceable(8) double* @_ZN5TableILi2EdEclEjj(%class.Table* %67, i32 0, i32 0)
  store double 2.000000e+00, double* %68, align 8
  %69 = bitcast %class.FE_Nedelec* %4 to %class.FiniteElementBase*
  %70 = getelementptr inbounds %class.FiniteElementBase, %class.FiniteElementBase* %69, i32 0, i32 3
  %71 = getelementptr inbounds [8 x %class.FullMatrix], [8 x %class.FullMatrix]* %70, i64 0, i64 0
  %72 = bitcast %class.FullMatrix* %71 to %class.Table*
  %73 = call dereferenceable(8) double* @_ZN5TableILi2EdEclEjj(%class.Table* %72, i32 3, i32 3)
  store double 2.000000e+00, double* %73, align 8
  %74 = bitcast %class.FE_Nedelec* %4 to %class.FiniteElementBase*
  %75 = getelementptr inbounds %class.FiniteElementBase, %class.FiniteElementBase* %74, i32 0, i32 3
  %76 = getelementptr inbounds [8 x %class.FullMatrix], [8 x %class.FullMatrix]* %75, i64 0, i64 1
  %77 = bitcast %class.FullMatrix* %76 to %class.Table*
  %78 = call dereferenceable(8) double* @_ZN5TableILi2EdEclEjj(%class.Table* %77, i32 1, i32 1)
  store double 2.000000e+00, double* %78, align 8
  %79 = bitcast %class.FE_Nedelec* %4 to %class.FiniteElementBase*
  %80 = getelementptr inbounds %class.FiniteElementBase, %class.FiniteElementBase* %79, i32 0, i32 3
  %81 = getelementptr inbounds [8 x %class.FullMatrix], [8 x %class.FullMatrix]* %80, i64 0, i64 3
  %82 = bitcast %class.FullMatrix* %81 to %class.Table*
  %83 = call dereferenceable(8) double* @_ZN5TableILi2EdEclEjj(%class.Table* %82, i32 2, i32 2)
  store double 2.000000e+00, double* %83, align 8
  %84 = bitcast %class.FE_Nedelec* %4 to %class.FiniteElementBase*
  %85 = getelementptr inbounds %class.FiniteElementBase, %class.FiniteElementBase* %84, i32 0, i32 3
  %86 = getelementptr inbounds [8 x %class.FullMatrix], [8 x %class.FullMatrix]* %85, i64 0, i64 4
  %87 = bitcast %class.FullMatrix* %86 to %class.Table*
  %88 = call dereferenceable(8) double* @_ZN5TableILi2EdEclEjj(%class.Table* %87, i32 4, i32 4)
  store double 2.000000e+00, double* %88, align 8
  %89 = bitcast %class.FE_Nedelec* %4 to %class.FiniteElementBase*
  %90 = getelementptr inbounds %class.FiniteElementBase, %class.FiniteElementBase* %89, i32 0, i32 3
  %91 = getelementptr inbounds [8 x %class.FullMatrix], [8 x %class.FullMatrix]* %90, i64 0, i64 4
  %92 = bitcast %class.FullMatrix* %91 to %class.Table*
  %93 = call dereferenceable(8) double* @_ZN5TableILi2EdEclEjj(%class.Table* %92, i32 7, i32 7)
  store double 2.000000e+00, double* %93, align 8
  %94 = bitcast %class.FE_Nedelec* %4 to %class.FiniteElementBase*
  %95 = getelementptr inbounds %class.FiniteElementBase, %class.FiniteElementBase* %94, i32 0, i32 3
  %96 = getelementptr inbounds [8 x %class.FullMatrix], [8 x %class.FullMatrix]* %95, i64 0, i64 5
  %97 = bitcast %class.FullMatrix* %96 to %class.Table*
  %98 = call dereferenceable(8) double* @_ZN5TableILi2EdEclEjj(%class.Table* %97, i32 5, i32 5)
  store double 2.000000e+00, double* %98, align 8
  %99 = bitcast %class.FE_Nedelec* %4 to %class.FiniteElementBase*
  %100 = getelementptr inbounds %class.FiniteElementBase, %class.FiniteElementBase* %99, i32 0, i32 3
  %101 = getelementptr inbounds [8 x %class.FullMatrix], [8 x %class.FullMatrix]* %100, i64 0, i64 7
  %102 = bitcast %class.FullMatrix* %101 to %class.Table*
  %103 = call dereferenceable(8) double* @_ZN5TableILi2EdEclEjj(%class.Table* %102, i32 6, i32 6)
  store double 2.000000e+00, double* %103, align 8
  %104 = bitcast %class.FE_Nedelec* %4 to %class.FiniteElementBase*
  %105 = getelementptr inbounds %class.FiniteElementBase, %class.FiniteElementBase* %104, i32 0, i32 3
  %106 = getelementptr inbounds [8 x %class.FullMatrix], [8 x %class.FullMatrix]* %105, i64 0, i64 0
  %107 = bitcast %class.FullMatrix* %106 to %class.Table*
  %108 = call dereferenceable(8) double* @_ZN5TableILi2EdEclEjj(%class.Table* %107, i32 8, i32 8)
  store double 2.000000e+00, double* %108, align 8
  %109 = bitcast %class.FE_Nedelec* %4 to %class.FiniteElementBase*
  %110 = getelementptr inbounds %class.FiniteElementBase, %class.FiniteElementBase* %109, i32 0, i32 3
  %111 = getelementptr inbounds [8 x %class.FullMatrix], [8 x %class.FullMatrix]* %110, i64 0, i64 1
  %112 = bitcast %class.FullMatrix* %111 to %class.Table*
  %113 = call dereferenceable(8) double* @_ZN5TableILi2EdEclEjj(%class.Table* %112, i32 9, i32 9)
  store double 2.000000e+00, double* %113, align 8
  %114 = bitcast %class.FE_Nedelec* %4 to %class.FiniteElementBase*
  %115 = getelementptr inbounds %class.FiniteElementBase, %class.FiniteElementBase* %114, i32 0, i32 3
  %116 = getelementptr inbounds [8 x %class.FullMatrix], [8 x %class.FullMatrix]* %115, i64 0, i64 2
  %117 = bitcast %class.FullMatrix* %116 to %class.Table*
  %118 = call dereferenceable(8) double* @_ZN5TableILi2EdEclEjj(%class.Table* %117, i32 10, i32 10)
  store double 2.000000e+00, double* %118, align 8
  %119 = bitcast %class.FE_Nedelec* %4 to %class.FiniteElementBase*
  %120 = getelementptr inbounds %class.FiniteElementBase, %class.FiniteElementBase* %119, i32 0, i32 3
  %121 = getelementptr inbounds [8 x %class.FullMatrix], [8 x %class.FullMatrix]* %120, i64 0, i64 3
  %122 = bitcast %class.FullMatrix* %121 to %class.Table*
  %123 = call dereferenceable(8) double* @_ZN5TableILi2EdEclEjj(%class.Table* %122, i32 11, i32 11)
  store double 2.000000e+00, double* %123, align 8
  br label %125

; <label>:124:                                    ; preds = %1
  br label %125

; <label>:125:                                    ; preds = %124, %63
  ret void

originalBBalteredBB:                              ; preds = %originalBB, %7
  store i32 0, i32* %3, align 4
  br label %originalBB

originalBB1alteredBB:                             ; preds = %originalBB1, %44
  %126 = load i32, i32* %3, align 4
  %_ = sub i32 0, %126
  %gen = add i32 %_, 1
  %_2 = sub i32 %126, 1
  %gen3 = mul i32 %_2, 1
  %_4 = sub i32 0, %126
  %gen5 = add i32 %_4, 1
  %_6 = shl i32 %126, 1
  %_7 = sub i32 %126, 1
  %gen8 = mul i32 %_7, 1
  %127 = add i32 %126, 1
  store i32 %127, i32* %3, align 4
  br label %originalBB1
}

; Function Attrs: noinline uwtable
define weak_odr void @_ZN10FE_NedelecILi3EE30initialize_unit_support_pointsEv(%class.FE_Nedelec*) #0 comdat align 2 {
  %2 = alloca %class.FE_Nedelec*, align 8
  %3 = alloca %class.Point, align 8
  %4 = alloca i32, align 4
  %5 = alloca i32, align 4
  %6 = alloca i32, align 4
  %7 = alloca %class.Point, align 8
  %8 = alloca %class.Point, align 8
  %9 = alloca %class.Point, align 8
  %10 = alloca %class.Point, align 8
  store %class.FE_Nedelec* %0, %class.FE_Nedelec** %2, align 8
  %11 = load %class.FE_Nedelec*, %class.FE_Nedelec** %2, align 8
  %12 = getelementptr inbounds %class.FE_Nedelec, %class.FE_Nedelec* %11, i32 0, i32 1
  %13 = load i32, i32* %12, align 4
  switch i32 %13, label %54 [
    i32 1, label %14
  ]

; <label>:14:                                     ; preds = %1
  %15 = bitcast %class.FE_Nedelec* %11 to %class.FiniteElementBase*
  %16 = getelementptr inbounds %class.FiniteElementBase, %class.FiniteElementBase* %15, i32 0, i32 12
  call void @_ZN5PointILi3EEC2Ev(%class.Point* %3)
  call void @_ZNSt6vectorI5PointILi3EESaIS1_EE6resizeEmS1_(%"class.std::vector.11"* %16, i64 12, %class.Point* %3)
  store i32 0, i32* %4, align 4
  br label %17

; <label>:17:                                     ; preds = %50, %14
  %18 = load i32, i32* @x.45
  %19 = load i32, i32* @y.46
  %20 = sub i32 %18, 1
  %21 = mul i32 %18, %20
  %22 = urem i32 %21, 2
  %23 = icmp eq i32 %22, 0
  %24 = icmp slt i32 %19, 10
  %25 = or i1 %23, %24
  br i1 %25, label %originalBB, label %originalBBalteredBB

originalBB:                                       ; preds = %17, %originalBBalteredBB
  %26 = load i32, i32* %4, align 4
  %27 = icmp ult i32 %26, 12
  %28 = load i32, i32* @x.45
  %29 = load i32, i32* @y.46
  %30 = sub i32 %28, 1
  %31 = mul i32 %28, %30
  %32 = urem i32 %31, 2
  %33 = icmp eq i32 %32, 0
  %34 = icmp slt i32 %29, 10
  %35 = or i1 %33, %34
  br i1 %35, label %originalBBpart2, label %originalBBalteredBB

originalBBpart2:                                  ; preds = %originalBB
  br i1 %27, label %36, label %53

; <label>:36:                                     ; preds = %originalBBpart2
  %37 = load i32, i32* %4, align 4
  %38 = call i32 @_ZN12GeometryInfoILi3EE25vertices_adjacent_to_lineEjj(i32 %37, i32 0)
  store i32 %38, i32* %5, align 4
  %39 = load i32, i32* %4, align 4
  %40 = call i32 @_ZN12GeometryInfoILi3EE25vertices_adjacent_to_lineEjj(i32 %39, i32 1)
  store i32 %40, i32* %6, align 4
  %41 = load i32, i32* %5, align 4
  call void @_ZN12GeometryInfoILi3EE16unit_cell_vertexEj(%class.Point* sret %7, i32 %41)
  %42 = load i32, i32* %6, align 4
  call void @_ZN12GeometryInfoILi3EE16unit_cell_vertexEj(%class.Point* sret %8, i32 %42)
  %43 = bitcast %class.Point* %8 to %class.Tensor*
  call void @_ZNK5PointILi3EEplERK6TensorILi1ELi3EE(%class.Point* sret %10, %class.Point* %7, %class.Tensor* dereferenceable(24) %43)
  call void @_ZNK5PointILi3EEdvEd(%class.Point* sret %9, %class.Point* %10, double 2.000000e+00)
  %44 = bitcast %class.FE_Nedelec* %11 to %class.FiniteElementBase*
  %45 = getelementptr inbounds %class.FiniteElementBase, %class.FiniteElementBase* %44, i32 0, i32 12
  %46 = load i32, i32* %4, align 4
  %47 = zext i32 %46 to i64
  %48 = call dereferenceable(24) %class.Point* @_ZNSt6vectorI5PointILi3EESaIS1_EEixEm(%"class.std::vector.11"* %45, i64 %47)
  %49 = call dereferenceable(24) %class.Point* @_ZN5PointILi3EEaSERKS0_(%class.Point* %48, %class.Point* dereferenceable(24) %9)
  br label %50

; <label>:50:                                     ; preds = %36
  %51 = load i32, i32* %4, align 4
  %52 = add i32 %51, 1
  store i32 %52, i32* %4, align 4
  br label %17

; <label>:53:                                     ; preds = %originalBBpart2
  br label %71

; <label>:54:                                     ; preds = %1
  %55 = load i32, i32* @x.45
  %56 = load i32, i32* @y.46
  %57 = sub i32 %55, 1
  %58 = mul i32 %55, %57
  %59 = urem i32 %58, 2
  %60 = icmp eq i32 %59, 0
  %61 = icmp slt i32 %56, 10
  %62 = or i1 %60, %61
  br i1 %62, label %originalBB1, label %originalBB1alteredBB

originalBB1:                                      ; preds = %54, %originalBB1alteredBB
  %63 = load i32, i32* @x.45
  %64 = load i32, i32* @y.46
  %65 = sub i32 %63, 1
  %66 = mul i32 %63, %65
  %67 = urem i32 %66, 2
  %68 = icmp eq i32 %67, 0
  %69 = icmp slt i32 %64, 10
  %70 = or i1 %68, %69
  br i1 %70, label %originalBBpart24, label %originalBB1alteredBB

originalBBpart24:                                 ; preds = %originalBB1
  br label %71

; <label>:71:                                     ; preds = %originalBBpart24, %53
  ret void

originalBBalteredBB:                              ; preds = %originalBB, %17
  %72 = load i32, i32* %4, align 4
  %73 = icmp ult i32 %72, 12
  br label %originalBB

originalBB1alteredBB:                             ; preds = %originalBB1, %54
  br label %originalBB1
}

; Function Attrs: noinline uwtable
define weak_odr void @_ZN10FE_NedelecILi3EE35initialize_unit_face_support_pointsEv(%class.FE_Nedelec*) #0 comdat align 2 {
  %2 = alloca %class.FE_Nedelec*, align 8
  %3 = alloca %class.Point.21, align 8
  %4 = alloca i32, align 4
  %5 = alloca i32, align 4
  %6 = alloca i32, align 4
  %7 = alloca %class.Point.21, align 8
  %8 = alloca %class.Point.21, align 8
  %9 = alloca %class.Point.21, align 8
  %10 = alloca %class.Point.21, align 8
  store %class.FE_Nedelec* %0, %class.FE_Nedelec** %2, align 8
  %11 = load %class.FE_Nedelec*, %class.FE_Nedelec** %2, align 8
  %12 = getelementptr inbounds %class.FE_Nedelec, %class.FE_Nedelec* %11, i32 0, i32 1
  %13 = load i32, i32* %12, align 4
  switch i32 %13, label %70 [
    i32 1, label %14
  ]

; <label>:14:                                     ; preds = %1
  %15 = bitcast %class.FE_Nedelec* %11 to %class.FiniteElementBase*
  %16 = getelementptr inbounds %class.FiniteElementBase, %class.FiniteElementBase* %15, i32 0, i32 13
  call void @_ZN5PointILi2EEC2Ev(%class.Point.21* %3)
  call void @_ZNSt6vectorI5PointILi2EESaIS1_EE6resizeEmS1_(%"class.std::vector.16"* %16, i64 4, %class.Point.21* %3)
  store i32 0, i32* %4, align 4
  br label %17

; <label>:17:                                     ; preds = %50, %14
  %18 = load i32, i32* @x.47
  %19 = load i32, i32* @y.48
  %20 = sub i32 %18, 1
  %21 = mul i32 %18, %20
  %22 = urem i32 %21, 2
  %23 = icmp eq i32 %22, 0
  %24 = icmp slt i32 %19, 10
  %25 = or i1 %23, %24
  br i1 %25, label %originalBB, label %originalBBalteredBB

originalBB:                                       ; preds = %17, %originalBBalteredBB
  %26 = load i32, i32* %4, align 4
  %27 = icmp ult i32 %26, 4
  %28 = load i32, i32* @x.47
  %29 = load i32, i32* @y.48
  %30 = sub i32 %28, 1
  %31 = mul i32 %28, %30
  %32 = urem i32 %31, 2
  %33 = icmp eq i32 %32, 0
  %34 = icmp slt i32 %29, 10
  %35 = or i1 %33, %34
  br i1 %35, label %originalBBpart2, label %originalBBalteredBB

originalBBpart2:                                  ; preds = %originalBB
  br i1 %27, label %36, label %53

; <label>:36:                                     ; preds = %originalBBpart2
  %37 = load i32, i32* %4, align 4
  %38 = call i32 @_ZN12GeometryInfoILi2EE25vertices_adjacent_to_lineEjj(i32 %37, i32 0)
  store i32 %38, i32* %5, align 4
  %39 = load i32, i32* %4, align 4
  %40 = call i32 @_ZN12GeometryInfoILi2EE25vertices_adjacent_to_lineEjj(i32 %39, i32 1)
  store i32 %40, i32* %6, align 4
  %41 = load i32, i32* %5, align 4
  call void @_ZN12GeometryInfoILi2EE16unit_cell_vertexEj(%class.Point.21* sret %7, i32 %41)
  %42 = load i32, i32* %6, align 4
  call void @_ZN12GeometryInfoILi2EE16unit_cell_vertexEj(%class.Point.21* sret %8, i32 %42)
  %43 = bitcast %class.Point.21* %8 to %class.Tensor.22*
  call void @_ZNK5PointILi2EEplERK6TensorILi1ELi2EE(%class.Point.21* sret %10, %class.Point.21* %7, %class.Tensor.22* dereferenceable(16) %43)
  call void @_ZNK5PointILi2EEdvEd(%class.Point.21* sret %9, %class.Point.21* %10, double 2.000000e+00)
  %44 = bitcast %class.FE_Nedelec* %11 to %class.FiniteElementBase*
  %45 = getelementptr inbounds %class.FiniteElementBase, %class.FiniteElementBase* %44, i32 0, i32 13
  %46 = load i32, i32* %4, align 4
  %47 = zext i32 %46 to i64
  %48 = call dereferenceable(16) %class.Point.21* @_ZNSt6vectorI5PointILi2EESaIS1_EEixEm(%"class.std::vector.16"* %45, i64 %47)
  %49 = call dereferenceable(16) %class.Point.21* @_ZN5PointILi2EEaSERKS0_(%class.Point.21* %48, %class.Point.21* dereferenceable(16) %9)
  br label %50

; <label>:50:                                     ; preds = %36
  %51 = load i32, i32* %4, align 4
  %52 = add i32 %51, 1
  store i32 %52, i32* %4, align 4
  br label %17

; <label>:53:                                     ; preds = %originalBBpart2
  %54 = load i32, i32* @x.47
  %55 = load i32, i32* @y.48
  %56 = sub i32 %54, 1
  %57 = mul i32 %54, %56
  %58 = urem i32 %57, 2
  %59 = icmp eq i32 %58, 0
  %60 = icmp slt i32 %55, 10
  %61 = or i1 %59, %60
  br i1 %61, label %originalBB1, label %originalBB1alteredBB

originalBB1:                                      ; preds = %53, %originalBB1alteredBB
  %62 = load i32, i32* @x.47
  %63 = load i32, i32* @y.48
  %64 = sub i32 %62, 1
  %65 = mul i32 %62, %64
  %66 = urem i32 %65, 2
  %67 = icmp eq i32 %66, 0
  %68 = icmp slt i32 %63, 10
  %69 = or i1 %67, %68
  br i1 %69, label %originalBBpart24, label %originalBB1alteredBB

originalBBpart24:                                 ; preds = %originalBB1
  br label %87

; <label>:70:                                     ; preds = %1
  %71 = load i32, i32* @x.47
  %72 = load i32, i32* @y.48
  %73 = sub i32 %71, 1
  %74 = mul i32 %71, %73
  %75 = urem i32 %74, 2
  %76 = icmp eq i32 %75, 0
  %77 = icmp slt i32 %72, 10
  %78 = or i1 %76, %77
  br i1 %78, label %originalBB6, label %originalBB6alteredBB

originalBB6:                                      ; preds = %70, %originalBB6alteredBB
  %79 = load i32, i32* @x.47
  %80 = load i32, i32* @y.48
  %81 = sub i32 %79, 1
  %82 = mul i32 %79, %81
  %83 = urem i32 %82, 2
  %84 = icmp eq i32 %83, 0
  %85 = icmp slt i32 %80, 10
  %86 = or i1 %84, %85
  br i1 %86, label %originalBBpart28, label %originalBB6alteredBB

originalBBpart28:                                 ; preds = %originalBB6
  br label %87

; <label>:87:                                     ; preds = %originalBBpart28, %originalBBpart24
  %88 = load i32, i32* @x.47
  %89 = load i32, i32* @y.48
  %90 = sub i32 %88, 1
  %91 = mul i32 %88, %90
  %92 = urem i32 %91, 2
  %93 = icmp eq i32 %92, 0
  %94 = icmp slt i32 %89, 10
  %95 = or i1 %93, %94
  br i1 %95, label %originalBB10, label %originalBB10alteredBB

originalBB10:                                     ; preds = %87, %originalBB10alteredBB
  %96 = load i32, i32* @x.47
  %97 = load i32, i32* @y.48
  %98 = sub i32 %96, 1
  %99 = mul i32 %96, %98
  %100 = urem i32 %99, 2
  %101 = icmp eq i32 %100, 0
  %102 = icmp slt i32 %97, 10
  %103 = or i1 %101, %102
  br i1 %103, label %originalBBpart212, label %originalBB10alteredBB

originalBBpart212:                                ; preds = %originalBB10
  ret void

originalBBalteredBB:                              ; preds = %originalBB, %17
  %104 = load i32, i32* %4, align 4
  %105 = icmp ult i32 %104, 4
  br label %originalBB

originalBB1alteredBB:                             ; preds = %originalBB1, %53
  br label %originalBB1

originalBB6alteredBB:                             ; preds = %originalBB6, %70
  br label %originalBB6

originalBB10alteredBB:                            ; preds = %originalBB10, %87
  br label %originalBB10
}

; Function Attrs: noinline uwtable
define linkonce_odr void @_ZNSt6vectorISt4pairIjjESaIS1_EEC2Ev(%"class.std::vector"*) unnamed_addr #0 comdat align 2 {
  %2 = alloca %"class.std::vector"*, align 8
  store %"class.std::vector"* %0, %"class.std::vector"** %2, align 8
  %3 = load %"class.std::vector"*, %"class.std::vector"** %2, align 8
  %4 = bitcast %"class.std::vector"* %3 to %"struct.std::_Vector_base"*
  call void @_ZNSt12_Vector_baseISt4pairIjjESaIS1_EEC2Ev(%"struct.std::_Vector_base"* %4)
  ret void
}

; Function Attrs: noinline uwtable
define linkonce_odr void @_ZNSt6vectorISt4pairIjjESaIS1_EE4swapERS3_(%"class.std::vector"*, %"class.std::vector"* dereferenceable(24)) #0 comdat align 2 {
  %3 = load i32, i32* @x.51
  %4 = load i32, i32* @y.52
  %5 = sub i32 %3, 1
  %6 = mul i32 %3, %5
  %7 = urem i32 %6, 2
  %8 = icmp eq i32 %7, 0
  %9 = icmp slt i32 %4, 10
  %10 = or i1 %8, %9
  br i1 %10, label %originalBB, label %originalBBalteredBB

originalBB:                                       ; preds = %2, %originalBBalteredBB
  %11 = alloca %"class.std::vector"*, align 8
  %12 = alloca %"class.std::vector"*, align 8
  store %"class.std::vector"* %0, %"class.std::vector"** %11, align 8
  store %"class.std::vector"* %1, %"class.std::vector"** %12, align 8
  %13 = load %"class.std::vector"*, %"class.std::vector"** %11, align 8
  %14 = bitcast %"class.std::vector"* %13 to %"struct.std::_Vector_base"*
  %15 = getelementptr inbounds %"struct.std::_Vector_base", %"struct.std::_Vector_base"* %14, i32 0, i32 0
  %16 = bitcast %"struct.std::_Vector_base<std::pair<unsigned int, unsigned int>, std::allocator<std::pair<unsigned int, unsigned int> > >::_Vector_impl"* %15 to %"struct.std::_Vector_base<std::pair<unsigned int, unsigned int>, std::allocator<std::pair<unsigned int, unsigned int> > >::_Vector_impl_data"*
  %17 = load %"class.std::vector"*, %"class.std::vector"** %12, align 8
  %18 = bitcast %"class.std::vector"* %17 to %"struct.std::_Vector_base"*
  %19 = getelementptr inbounds %"struct.std::_Vector_base", %"struct.std::_Vector_base"* %18, i32 0, i32 0
  %20 = bitcast %"struct.std::_Vector_base<std::pair<unsigned int, unsigned int>, std::allocator<std::pair<unsigned int, unsigned int> > >::_Vector_impl"* %19 to %"struct.std::_Vector_base<std::pair<unsigned int, unsigned int>, std::allocator<std::pair<unsigned int, unsigned int> > >::_Vector_impl_data"*
  call void @_ZNSt12_Vector_baseISt4pairIjjESaIS1_EE17_Vector_impl_data12_M_swap_dataERS4_(%"struct.std::_Vector_base<std::pair<unsigned int, unsigned int>, std::allocator<std::pair<unsigned int, unsigned int> > >::_Vector_impl_data"* %16, %"struct.std::_Vector_base<std::pair<unsigned int, unsigned int>, std::allocator<std::pair<unsigned int, unsigned int> > >::_Vector_impl_data"* dereferenceable(24) %20)
  %21 = bitcast %"class.std::vector"* %13 to %"struct.std::_Vector_base"*
  %22 = call dereferenceable(1) %"class.std::allocator"* @_ZNSt12_Vector_baseISt4pairIjjESaIS1_EE19_M_get_Tp_allocatorEv(%"struct.std::_Vector_base"* %21)
  %23 = load %"class.std::vector"*, %"class.std::vector"** %12, align 8
  %24 = bitcast %"class.std::vector"* %23 to %"struct.std::_Vector_base"*
  %25 = call dereferenceable(1) %"class.std::allocator"* @_ZNSt12_Vector_baseISt4pairIjjESaIS1_EE19_M_get_Tp_allocatorEv(%"struct.std::_Vector_base"* %24)
  call void @_ZN9__gnu_cxx14__alloc_traitsISaISt4pairIjjEES2_E10_S_on_swapERS3_S5_(%"class.std::allocator"* dereferenceable(1) %22, %"class.std::allocator"* dereferenceable(1) %25)
  %26 = load i32, i32* @x.51
  %27 = load i32, i32* @y.52
  %28 = sub i32 %26, 1
  %29 = mul i32 %26, %28
  %30 = urem i32 %29, 2
  %31 = icmp eq i32 %30, 0
  %32 = icmp slt i32 %27, 10
  %33 = or i1 %31, %32
  br i1 %33, label %originalBBpart2, label %originalBBalteredBB

originalBBpart2:                                  ; preds = %originalBB
  ret void

originalBBalteredBB:                              ; preds = %originalBB, %2
  %34 = alloca %"class.std::vector"*, align 8
  %35 = alloca %"class.std::vector"*, align 8
  store %"class.std::vector"* %0, %"class.std::vector"** %34, align 8
  store %"class.std::vector"* %1, %"class.std::vector"** %35, align 8
  %36 = load %"class.std::vector"*, %"class.std::vector"** %34, align 8
  %37 = bitcast %"class.std::vector"* %36 to %"struct.std::_Vector_base"*
  %38 = getelementptr inbounds %"struct.std::_Vector_base", %"struct.std::_Vector_base"* %37, i32 0, i32 0
  %39 = bitcast %"struct.std::_Vector_base<std::pair<unsigned int, unsigned int>, std::allocator<std::pair<unsigned int, unsigned int> > >::_Vector_impl"* %38 to %"struct.std::_Vector_base<std::pair<unsigned int, unsigned int>, std::allocator<std::pair<unsigned int, unsigned int> > >::_Vector_impl_data"*
  %40 = load %"class.std::vector"*, %"class.std::vector"** %35, align 8
  %41 = bitcast %"class.std::vector"* %40 to %"struct.std::_Vector_base"*
  %42 = getelementptr inbounds %"struct.std::_Vector_base", %"struct.std::_Vector_base"* %41, i32 0, i32 0
  %43 = bitcast %"struct.std::_Vector_base<std::pair<unsigned int, unsigned int>, std::allocator<std::pair<unsigned int, unsigned int> > >::_Vector_impl"* %42 to %"struct.std::_Vector_base<std::pair<unsigned int, unsigned int>, std::allocator<std::pair<unsigned int, unsigned int> > >::_Vector_impl_data"*
  call void @_ZNSt12_Vector_baseISt4pairIjjESaIS1_EE17_Vector_impl_data12_M_swap_dataERS4_(%"struct.std::_Vector_base<std::pair<unsigned int, unsigned int>, std::allocator<std::pair<unsigned int, unsigned int> > >::_Vector_impl_data"* %39, %"struct.std::_Vector_base<std::pair<unsigned int, unsigned int>, std::allocator<std::pair<unsigned int, unsigned int> > >::_Vector_impl_data"* dereferenceable(24) %43)
  %44 = bitcast %"class.std::vector"* %36 to %"struct.std::_Vector_base"*
  %45 = call dereferenceable(1) %"class.std::allocator"* @_ZNSt12_Vector_baseISt4pairIjjESaIS1_EE19_M_get_Tp_allocatorEv(%"struct.std::_Vector_base"* %44)
  %46 = load %"class.std::vector"*, %"class.std::vector"** %35, align 8
  %47 = bitcast %"class.std::vector"* %46 to %"struct.std::_Vector_base"*
  %48 = call dereferenceable(1) %"class.std::allocator"* @_ZNSt12_Vector_baseISt4pairIjjESaIS1_EE19_M_get_Tp_allocatorEv(%"struct.std::_Vector_base"* %47)
  call void @_ZN9__gnu_cxx14__alloc_traitsISaISt4pairIjjEES2_E10_S_on_swapERS3_S5_(%"class.std::allocator"* dereferenceable(1) %45, %"class.std::allocator"* dereferenceable(1) %48)
  br label %originalBB
}

; Function Attrs: noinline uwtable
define linkonce_odr void @_ZNSt6vectorISt4pairIjjESaIS1_EED2Ev(%"class.std::vector"*) unnamed_addr #0 comdat align 2 personality i8* bitcast (i32 (...)* @__gxx_personality_v0 to i8*) {
  %2 = alloca %"class.std::vector"*, align 8
  %3 = alloca i8*
  %4 = alloca i32
  store %"class.std::vector"* %0, %"class.std::vector"** %2, align 8
  %5 = load %"class.std::vector"*, %"class.std::vector"** %2, align 8
  %6 = bitcast %"class.std::vector"* %5 to %"struct.std::_Vector_base"*
  %7 = getelementptr inbounds %"struct.std::_Vector_base", %"struct.std::_Vector_base"* %6, i32 0, i32 0
  %8 = bitcast %"struct.std::_Vector_base<std::pair<unsigned int, unsigned int>, std::allocator<std::pair<unsigned int, unsigned int> > >::_Vector_impl"* %7 to %"struct.std::_Vector_base<std::pair<unsigned int, unsigned int>, std::allocator<std::pair<unsigned int, unsigned int> > >::_Vector_impl_data"*
  %9 = getelementptr inbounds %"struct.std::_Vector_base<std::pair<unsigned int, unsigned int>, std::allocator<std::pair<unsigned int, unsigned int> > >::_Vector_impl_data", %"struct.std::_Vector_base<std::pair<unsigned int, unsigned int>, std::allocator<std::pair<unsigned int, unsigned int> > >::_Vector_impl_data"* %8, i32 0, i32 0
  %10 = load %"struct.std::pair"*, %"struct.std::pair"** %9, align 8
  %11 = bitcast %"class.std::vector"* %5 to %"struct.std::_Vector_base"*
  %12 = getelementptr inbounds %"struct.std::_Vector_base", %"struct.std::_Vector_base"* %11, i32 0, i32 0
  %13 = bitcast %"struct.std::_Vector_base<std::pair<unsigned int, unsigned int>, std::allocator<std::pair<unsigned int, unsigned int> > >::_Vector_impl"* %12 to %"struct.std::_Vector_base<std::pair<unsigned int, unsigned int>, std::allocator<std::pair<unsigned int, unsigned int> > >::_Vector_impl_data"*
  %14 = getelementptr inbounds %"struct.std::_Vector_base<std::pair<unsigned int, unsigned int>, std::allocator<std::pair<unsigned int, unsigned int> > >::_Vector_impl_data", %"struct.std::_Vector_base<std::pair<unsigned int, unsigned int>, std::allocator<std::pair<unsigned int, unsigned int> > >::_Vector_impl_data"* %13, i32 0, i32 1
  %15 = load %"struct.std::pair"*, %"struct.std::pair"** %14, align 8
  %16 = bitcast %"class.std::vector"* %5 to %"struct.std::_Vector_base"*
  %17 = invoke dereferenceable(1) %"class.std::allocator"* @_ZNSt12_Vector_baseISt4pairIjjESaIS1_EE19_M_get_Tp_allocatorEv(%"struct.std::_Vector_base"* %16)
          to label %18 unwind label %21

; <label>:18:                                     ; preds = %1
  invoke void @_ZSt8_DestroyIPSt4pairIjjES1_EvT_S3_RSaIT0_E(%"struct.std::pair"* %10, %"struct.std::pair"* %15, %"class.std::allocator"* dereferenceable(1) %17)
          to label %19 unwind label %21

; <label>:19:                                     ; preds = %18
  %20 = bitcast %"class.std::vector"* %5 to %"struct.std::_Vector_base"*
  call void @_ZNSt12_Vector_baseISt4pairIjjESaIS1_EED2Ev(%"struct.std::_Vector_base"* %20)
  ret void

; <label>:21:                                     ; preds = %18, %1
  %22 = landingpad { i8*, i32 }
          cleanup
  %23 = extractvalue { i8*, i32 } %22, 0
  store i8* %23, i8** %3, align 8
  %24 = extractvalue { i8*, i32 } %22, 1
  store i32 %24, i32* %4, align 4
  %25 = bitcast %"class.std::vector"* %5 to %"struct.std::_Vector_base"*
  invoke void @_ZNSt12_Vector_baseISt4pairIjjESaIS1_EED2Ev(%"struct.std::_Vector_base"* %25)
          to label %26 unwind label %64

; <label>:26:                                     ; preds = %21
  %27 = load i32, i32* @x.53
  %28 = load i32, i32* @y.54
  %29 = sub i32 %27, 1
  %30 = mul i32 %27, %29
  %31 = urem i32 %30, 2
  %32 = icmp eq i32 %31, 0
  %33 = icmp slt i32 %28, 10
  %34 = or i1 %32, %33
  br i1 %34, label %originalBB, label %originalBBalteredBB

originalBB:                                       ; preds = %26, %originalBBalteredBB
  %35 = load i32, i32* @x.53
  %36 = load i32, i32* @y.54
  %37 = sub i32 %35, 1
  %38 = mul i32 %35, %37
  %39 = urem i32 %38, 2
  %40 = icmp eq i32 %39, 0
  %41 = icmp slt i32 %36, 10
  %42 = or i1 %40, %41
  br i1 %42, label %originalBBpart2, label %originalBBalteredBB

originalBBpart2:                                  ; preds = %originalBB
  br label %43

; <label>:43:                                     ; preds = %originalBBpart2
  %44 = load i32, i32* @x.53
  %45 = load i32, i32* @y.54
  %46 = sub i32 %44, 1
  %47 = mul i32 %44, %46
  %48 = urem i32 %47, 2
  %49 = icmp eq i32 %48, 0
  %50 = icmp slt i32 %45, 10
  %51 = or i1 %49, %50
  br i1 %51, label %originalBB1, label %originalBB1alteredBB

originalBB1:                                      ; preds = %43, %originalBB1alteredBB
  %52 = load i8*, i8** %3, align 8
  %53 = load i32, i32* %4, align 4
  %54 = insertvalue { i8*, i32 } undef, i8* %52, 0
  %55 = insertvalue { i8*, i32 } %54, i32 %53, 1
  %56 = load i32, i32* @x.53
  %57 = load i32, i32* @y.54
  %58 = sub i32 %56, 1
  %59 = mul i32 %56, %58
  %60 = urem i32 %59, 2
  %61 = icmp eq i32 %60, 0
  %62 = icmp slt i32 %57, 10
  %63 = or i1 %61, %62
  br i1 %63, label %originalBBpart24, label %originalBB1alteredBB

originalBBpart24:                                 ; preds = %originalBB1
  resume { i8*, i32 } %55

; <label>:64:                                     ; preds = %21
  %65 = landingpad { i8*, i32 }
          catch i8* null
  %66 = extractvalue { i8*, i32 } %65, 0
  call void @__clang_call_terminate(i8* %66) #10
  unreachable

originalBBalteredBB:                              ; preds = %originalBB, %26
  br label %originalBB

originalBB1alteredBB:                             ; preds = %originalBB1, %43
  %67 = load i8*, i8** %3, align 8
  %68 = load i32, i32* %4, align 4
  %69 = insertvalue { i8*, i32 } undef, i8* %67, 0
  %70 = insertvalue { i8*, i32 } %69, i32 %68, 1
  br label %originalBB1
}

declare void @_ZN13FiniteElementILi3EED2Ev(%class.FiniteElement*) unnamed_addr #2

; Function Attrs: noinline uwtable
define weak_odr void @_ZNK10FE_NedelecILi3EE8get_nameB5cxx11Ev(%"class.std::__cxx11::basic_string"* noalias sret, %class.FE_Nedelec*) unnamed_addr #0 comdat align 2 personality i8* bitcast (i32 (...)* @__gxx_personality_v0 to i8*) {
  %3 = alloca %class.FE_Nedelec*, align 8
  %4 = alloca %"class.std::__cxx11::basic_ostringstream", align 8
  %5 = alloca i8*
  %6 = alloca i32
  store %class.FE_Nedelec* %1, %class.FE_Nedelec** %3, align 8
  %7 = load %class.FE_Nedelec*, %class.FE_Nedelec** %3, align 8
  call void @_ZNSt7__cxx1119basic_ostringstreamIcSt11char_traitsIcESaIcEEC1Ev(%"class.std::__cxx11::basic_ostringstream"* %4)
  %8 = bitcast %"class.std::__cxx11::basic_ostringstream"* %4 to %"class.std::basic_ostream"*
  %9 = invoke dereferenceable(272) %"class.std::basic_ostream"* @_ZStlsISt11char_traitsIcEERSt13basic_ostreamIcT_ES5_PKc(%"class.std::basic_ostream"* dereferenceable(272) %8, i8* getelementptr inbounds ([12 x i8], [12 x i8]* @.str, i32 0, i32 0))
          to label %10 unwind label %54

; <label>:10:                                     ; preds = %2
  %11 = invoke dereferenceable(272) %"class.std::basic_ostream"* @_ZNSolsEi(%"class.std::basic_ostream"* %9, i32 3)
          to label %12 unwind label %54

; <label>:12:                                     ; preds = %10
  %13 = invoke dereferenceable(272) %"class.std::basic_ostream"* @_ZStlsISt11char_traitsIcEERSt13basic_ostreamIcT_ES5_PKc(%"class.std::basic_ostream"* dereferenceable(272) %11, i8* getelementptr inbounds ([3 x i8], [3 x i8]* @.str.1, i32 0, i32 0))
          to label %14 unwind label %54

; <label>:14:                                     ; preds = %12
  %15 = getelementptr inbounds %class.FE_Nedelec, %class.FE_Nedelec* %7, i32 0, i32 1
  %16 = load i32, i32* %15, align 4
  %17 = invoke dereferenceable(272) %"class.std::basic_ostream"* @_ZNSolsEj(%"class.std::basic_ostream"* %13, i32 %16)
          to label %18 unwind label %54

; <label>:18:                                     ; preds = %14
  %19 = invoke dereferenceable(272) %"class.std::basic_ostream"* @_ZStlsISt11char_traitsIcEERSt13basic_ostreamIcT_ES5_PKc(%"class.std::basic_ostream"* dereferenceable(272) %17, i8* getelementptr inbounds ([2 x i8], [2 x i8]* @.str.2, i32 0, i32 0))
          to label %20 unwind label %54

; <label>:20:                                     ; preds = %18
  %21 = load i32, i32* @x.55
  %22 = load i32, i32* @y.56
  %23 = sub i32 %21, 1
  %24 = mul i32 %21, %23
  %25 = urem i32 %24, 2
  %26 = icmp eq i32 %25, 0
  %27 = icmp slt i32 %22, 10
  %28 = or i1 %26, %27
  br i1 %28, label %originalBB, label %originalBBalteredBB

originalBB:                                       ; preds = %20, %originalBBalteredBB
  %29 = load i32, i32* @x.55
  %30 = load i32, i32* @y.56
  %31 = sub i32 %29, 1
  %32 = mul i32 %29, %31
  %33 = urem i32 %32, 2
  %34 = icmp eq i32 %33, 0
  %35 = icmp slt i32 %30, 10
  %36 = or i1 %34, %35
  br i1 %36, label %originalBBpart2, label %originalBBalteredBB

originalBBpart2:                                  ; preds = %originalBB
  invoke void @_ZNKSt7__cxx1119basic_ostringstreamIcSt11char_traitsIcESaIcEE3strEv(%"class.std::__cxx11::basic_string"* sret %0, %"class.std::__cxx11::basic_ostringstream"* %4)
          to label %37 unwind label %54

; <label>:37:                                     ; preds = %originalBBpart2
  %38 = load i32, i32* @x.55
  %39 = load i32, i32* @y.56
  %40 = sub i32 %38, 1
  %41 = mul i32 %38, %40
  %42 = urem i32 %41, 2
  %43 = icmp eq i32 %42, 0
  %44 = icmp slt i32 %39, 10
  %45 = or i1 %43, %44
  br i1 %45, label %originalBB1, label %originalBB1alteredBB

originalBB1:                                      ; preds = %37, %originalBB1alteredBB
  call void @_ZNSt7__cxx1119basic_ostringstreamIcSt11char_traitsIcESaIcEED1Ev(%"class.std::__cxx11::basic_ostringstream"* %4)
  %46 = load i32, i32* @x.55
  %47 = load i32, i32* @y.56
  %48 = sub i32 %46, 1
  %49 = mul i32 %46, %48
  %50 = urem i32 %49, 2
  %51 = icmp eq i32 %50, 0
  %52 = icmp slt i32 %47, 10
  %53 = or i1 %51, %52
  br i1 %53, label %originalBBpart24, label %originalBB1alteredBB

originalBBpart24:                                 ; preds = %originalBB1
  ret void

; <label>:54:                                     ; preds = %originalBBpart2, %18, %14, %12, %10, %2
  %55 = landingpad { i8*, i32 }
          cleanup
  %56 = extractvalue { i8*, i32 } %55, 0
  store i8* %56, i8** %5, align 8
  %57 = extractvalue { i8*, i32 } %55, 1
  store i32 %57, i32* %6, align 4
  invoke void @_ZNSt7__cxx1119basic_ostringstreamIcSt11char_traitsIcESaIcEED1Ev(%"class.std::__cxx11::basic_ostringstream"* %4)
          to label %58 unwind label %80

; <label>:58:                                     ; preds = %54
  br label %59

; <label>:59:                                     ; preds = %58
  %60 = load i32, i32* @x.55
  %61 = load i32, i32* @y.56
  %62 = sub i32 %60, 1
  %63 = mul i32 %60, %62
  %64 = urem i32 %63, 2
  %65 = icmp eq i32 %64, 0
  %66 = icmp slt i32 %61, 10
  %67 = or i1 %65, %66
  br i1 %67, label %originalBB6, label %originalBB6alteredBB

originalBB6:                                      ; preds = %59, %originalBB6alteredBB
  %68 = load i8*, i8** %5, align 8
  %69 = load i32, i32* %6, align 4
  %70 = insertvalue { i8*, i32 } undef, i8* %68, 0
  %71 = insertvalue { i8*, i32 } %70, i32 %69, 1
  %72 = load i32, i32* @x.55
  %73 = load i32, i32* @y.56
  %74 = sub i32 %72, 1
  %75 = mul i32 %72, %74
  %76 = urem i32 %75, 2
  %77 = icmp eq i32 %76, 0
  %78 = icmp slt i32 %73, 10
  %79 = or i1 %77, %78
  br i1 %79, label %originalBBpart28, label %originalBB6alteredBB

originalBBpart28:                                 ; preds = %originalBB6
  resume { i8*, i32 } %71

; <label>:80:                                     ; preds = %54
  %81 = landingpad { i8*, i32 }
          catch i8* null
  %82 = extractvalue { i8*, i32 } %81, 0
  call void @__clang_call_terminate(i8* %82) #10
  unreachable

originalBBalteredBB:                              ; preds = %originalBB, %20
  br label %originalBB

originalBB1alteredBB:                             ; preds = %originalBB1, %37
  call void @_ZNSt7__cxx1119basic_ostringstreamIcSt11char_traitsIcESaIcEED1Ev(%"class.std::__cxx11::basic_ostringstream"* %4)
  br label %originalBB1

originalBB6alteredBB:                             ; preds = %originalBB6, %59
  %83 = load i8*, i8** %5, align 8
  %84 = load i32, i32* %6, align 4
  %85 = insertvalue { i8*, i32 } undef, i8* %83, 0
  %86 = insertvalue { i8*, i32 } %85, i32 %84, 1
  br label %originalBB6
}

declare void @_ZNSt7__cxx1119basic_ostringstreamIcSt11char_traitsIcESaIcEEC1Ev(%"class.std::__cxx11::basic_ostringstream"*) unnamed_addr #2

declare dereferenceable(272) %"class.std::basic_ostream"* @_ZStlsISt11char_traitsIcEERSt13basic_ostreamIcT_ES5_PKc(%"class.std::basic_ostream"* dereferenceable(272), i8*) #2

declare dereferenceable(272) %"class.std::basic_ostream"* @_ZNSolsEi(%"class.std::basic_ostream"*, i32) #2

declare dereferenceable(272) %"class.std::basic_ostream"* @_ZNSolsEj(%"class.std::basic_ostream"*, i32) #2

declare void @_ZNKSt7__cxx1119basic_ostringstreamIcSt11char_traitsIcESaIcEE3strEv(%"class.std::__cxx11::basic_string"* sret, %"class.std::__cxx11::basic_ostringstream"*) #2

declare void @_ZNSt7__cxx1119basic_ostringstreamIcSt11char_traitsIcESaIcEED1Ev(%"class.std::__cxx11::basic_ostringstream"*) unnamed_addr #2

; Function Attrs: noinline nounwind uwtable
define weak_odr i32 @_ZNK10FE_NedelecILi3EE10get_degreeEv(%class.FE_Nedelec*) #1 comdat align 2 {
  %2 = alloca %class.FE_Nedelec*, align 8
  store %class.FE_Nedelec* %0, %class.FE_Nedelec** %2, align 8
  %3 = load %class.FE_Nedelec*, %class.FE_Nedelec** %2, align 8
  %4 = getelementptr inbounds %class.FE_Nedelec, %class.FE_Nedelec* %3, i32 0, i32 1
  %5 = load i32, i32* %4, align 4
  ret i32 %5
}

; Function Attrs: noinline nounwind uwtable
define weak_odr i32 @_ZNK10FE_NedelecILi3EE15n_base_elementsEv(%class.FE_Nedelec*) unnamed_addr #1 comdat align 2 {
  %2 = load i32, i32* @x.59
  %3 = load i32, i32* @y.60
  %4 = sub i32 %2, 1
  %5 = mul i32 %2, %4
  %6 = urem i32 %5, 2
  %7 = icmp eq i32 %6, 0
  %8 = icmp slt i32 %3, 10
  %9 = or i1 %7, %8
  br i1 %9, label %originalBB, label %originalBBalteredBB

originalBB:                                       ; preds = %1, %originalBBalteredBB
  %10 = alloca %class.FE_Nedelec*, align 8
  store %class.FE_Nedelec* %0, %class.FE_Nedelec** %10, align 8
  %11 = load %class.FE_Nedelec*, %class.FE_Nedelec** %10, align 8
  %12 = load i32, i32* @x.59
  %13 = load i32, i32* @y.60
  %14 = sub i32 %12, 1
  %15 = mul i32 %12, %14
  %16 = urem i32 %15, 2
  %17 = icmp eq i32 %16, 0
  %18 = icmp slt i32 %13, 10
  %19 = or i1 %17, %18
  br i1 %19, label %originalBBpart2, label %originalBBalteredBB

originalBBpart2:                                  ; preds = %originalBB
  ret i32 1

originalBBalteredBB:                              ; preds = %originalBB, %1
  %20 = alloca %class.FE_Nedelec*, align 8
  store %class.FE_Nedelec* %0, %class.FE_Nedelec** %20, align 8
  %21 = load %class.FE_Nedelec*, %class.FE_Nedelec** %20, align 8
  br label %originalBB
}

; Function Attrs: noinline nounwind uwtable
define weak_odr dereferenceable(1160) %class.FiniteElement* @_ZNK10FE_NedelecILi3EE12base_elementEj(%class.FE_Nedelec*, i32) unnamed_addr #1 comdat align 2 {
  %3 = load i32, i32* @x.61
  %4 = load i32, i32* @y.62
  %5 = sub i32 %3, 1
  %6 = mul i32 %3, %5
  %7 = urem i32 %6, 2
  %8 = icmp eq i32 %7, 0
  %9 = icmp slt i32 %4, 10
  %10 = or i1 %8, %9
  br i1 %10, label %originalBB, label %originalBBalteredBB

originalBB:                                       ; preds = %2, %originalBBalteredBB
  %11 = alloca %class.FE_Nedelec*, align 8
  %12 = alloca i32, align 4
  store %class.FE_Nedelec* %0, %class.FE_Nedelec** %11, align 8
  store i32 %1, i32* %12, align 4
  %13 = load %class.FE_Nedelec*, %class.FE_Nedelec** %11, align 8
  %14 = bitcast %class.FE_Nedelec* %13 to %class.FiniteElement*
  %15 = load i32, i32* @x.61
  %16 = load i32, i32* @y.62
  %17 = sub i32 %15, 1
  %18 = mul i32 %15, %17
  %19 = urem i32 %18, 2
  %20 = icmp eq i32 %19, 0
  %21 = icmp slt i32 %16, 10
  %22 = or i1 %20, %21
  br i1 %22, label %originalBBpart2, label %originalBBalteredBB

originalBBpart2:                                  ; preds = %originalBB
  ret %class.FiniteElement* %14

originalBBalteredBB:                              ; preds = %originalBB, %2
  %23 = alloca %class.FE_Nedelec*, align 8
  %24 = alloca i32, align 4
  store %class.FE_Nedelec* %0, %class.FE_Nedelec** %23, align 8
  store i32 %1, i32* %24, align 4
  %25 = load %class.FE_Nedelec*, %class.FE_Nedelec** %23, align 8
  %26 = bitcast %class.FE_Nedelec* %25 to %class.FiniteElement*
  br label %originalBB
}

; Function Attrs: noinline nounwind uwtable
define weak_odr i32 @_ZNK10FE_NedelecILi3EE20element_multiplicityEj(%class.FE_Nedelec*, i32) unnamed_addr #1 comdat align 2 {
  %3 = alloca %class.FE_Nedelec*, align 8
  %4 = alloca i32, align 4
  store %class.FE_Nedelec* %0, %class.FE_Nedelec** %3, align 8
  store i32 %1, i32* %4, align 4
  %5 = load %class.FE_Nedelec*, %class.FE_Nedelec** %3, align 8
  ret i32 1
}

; Function Attrs: noinline nounwind uwtable
define weak_odr zeroext i1 @_ZNK10FE_NedelecILi3EE19has_support_on_faceEjj(%class.FE_Nedelec*, i32, i32) unnamed_addr #1 comdat align 2 {
  %4 = load i32, i32* @x.65
  %5 = load i32, i32* @y.66
  %6 = sub i32 %4, 1
  %7 = mul i32 %4, %6
  %8 = urem i32 %7, 2
  %9 = icmp eq i32 %8, 0
  %10 = icmp slt i32 %5, 10
  %11 = or i1 %9, %10
  br i1 %11, label %originalBB, label %originalBBalteredBB

originalBB:                                       ; preds = %3, %originalBBalteredBB
  %12 = alloca i1, align 1
  %13 = alloca %class.FE_Nedelec*, align 8
  %14 = alloca i32, align 4
  %15 = alloca i32, align 4
  store %class.FE_Nedelec* %0, %class.FE_Nedelec** %13, align 8
  store i32 %1, i32* %14, align 4
  store i32 %2, i32* %15, align 4
  %16 = load %class.FE_Nedelec*, %class.FE_Nedelec** %13, align 8
  %17 = getelementptr inbounds %class.FE_Nedelec, %class.FE_Nedelec* %16, i32 0, i32 1
  %18 = load i32, i32* %17, align 4
  %19 = load i32, i32* @x.65
  %20 = load i32, i32* @y.66
  %21 = sub i32 %19, 1
  %22 = mul i32 %19, %21
  %23 = urem i32 %22, 2
  %24 = icmp eq i32 %23, 0
  %25 = icmp slt i32 %20, 10
  %26 = or i1 %24, %25
  br i1 %26, label %originalBBpart2, label %originalBBalteredBB

originalBBpart2:                                  ; preds = %originalBB
  switch i32 %18, label %45 [
    i32 1, label %27
  ]

; <label>:27:                                     ; preds = %originalBBpart2
  %28 = load i32, i32* %15, align 4
  %29 = load i32, i32* %14, align 4
  %30 = zext i32 %29 to i64
  %31 = getelementptr inbounds [12 x [2 x i32]], [12 x [2 x i32]]* @_ZZNK10FE_NedelecILi3EE19has_support_on_faceEjjE14opposite_faces, i64 0, i64 %30
  %32 = getelementptr inbounds [2 x i32], [2 x i32]* %31, i64 0, i64 0
  %33 = load i32, i32* %32, align 8
  %34 = icmp ne i32 %28, %33
  br i1 %34, label %35, label %43

; <label>:35:                                     ; preds = %27
  %36 = load i32, i32* %15, align 4
  %37 = load i32, i32* %14, align 4
  %38 = zext i32 %37 to i64
  %39 = getelementptr inbounds [12 x [2 x i32]], [12 x [2 x i32]]* @_ZZNK10FE_NedelecILi3EE19has_support_on_faceEjjE14opposite_faces, i64 0, i64 %38
  %40 = getelementptr inbounds [2 x i32], [2 x i32]* %39, i64 0, i64 1
  %41 = load i32, i32* %40, align 4
  %42 = icmp ne i32 %36, %41
  br label %43

; <label>:43:                                     ; preds = %35, %27
  %44 = phi i1 [ false, %27 ], [ %42, %35 ]
  store i1 %44, i1* %12, align 1
  br label %63

; <label>:45:                                     ; preds = %originalBBpart2
  %46 = load i32, i32* @x.65
  %47 = load i32, i32* @y.66
  %48 = sub i32 %46, 1
  %49 = mul i32 %46, %48
  %50 = urem i32 %49, 2
  %51 = icmp eq i32 %50, 0
  %52 = icmp slt i32 %47, 10
  %53 = or i1 %51, %52
  br i1 %53, label %originalBB1, label %originalBB1alteredBB

originalBB1:                                      ; preds = %45, %originalBB1alteredBB
  %54 = load i32, i32* @x.65
  %55 = load i32, i32* @y.66
  %56 = sub i32 %54, 1
  %57 = mul i32 %54, %56
  %58 = urem i32 %57, 2
  %59 = icmp eq i32 %58, 0
  %60 = icmp slt i32 %55, 10
  %61 = or i1 %59, %60
  br i1 %61, label %originalBBpart24, label %originalBB1alteredBB

originalBBpart24:                                 ; preds = %originalBB1
  br label %62

; <label>:62:                                     ; preds = %originalBBpart24
  store i1 true, i1* %12, align 1
  br label %63

; <label>:63:                                     ; preds = %62, %43
  %64 = load i1, i1* %12, align 1
  ret i1 %64

originalBBalteredBB:                              ; preds = %originalBB, %3
  %65 = alloca i1, align 1
  %66 = alloca %class.FE_Nedelec*, align 8
  %67 = alloca i32, align 4
  %68 = alloca i32, align 4
  store %class.FE_Nedelec* %0, %class.FE_Nedelec** %66, align 8
  store i32 %1, i32* %67, align 4
  store i32 %2, i32* %68, align 4
  %69 = load %class.FE_Nedelec*, %class.FE_Nedelec** %66, align 8
  %70 = getelementptr inbounds %class.FE_Nedelec, %class.FE_Nedelec* %69, i32 0, i32 1
  %71 = load i32, i32* %70, align 4
  br label %originalBB

originalBB1alteredBB:                             ; preds = %originalBB1, %45
  br label %originalBB1
}

; Function Attrs: noinline nounwind uwtable
define weak_odr i32 @_ZNK10FE_NedelecILi3EE18memory_consumptionEv(%class.FE_Nedelec*) unnamed_addr #1 comdat align 2 {
  %2 = alloca %class.FE_Nedelec*, align 8
  store %class.FE_Nedelec* %0, %class.FE_Nedelec** %2, align 8
  %3 = load %class.FE_Nedelec*, %class.FE_Nedelec** %2, align 8
  ret i32 0
}

; Function Attrs: noinline uwtable
define weak_odr %class.FiniteElement* @_ZNK10FE_NedelecILi3EE5cloneEv(%class.FE_Nedelec*) unnamed_addr #0 comdat align 2 personality i8* bitcast (i32 (...)* @__gxx_personality_v0 to i8*) {
  %2 = alloca %class.FE_Nedelec*, align 8
  %3 = alloca i8*
  %4 = alloca i32
  store %class.FE_Nedelec* %0, %class.FE_Nedelec** %2, align 8
  %5 = load %class.FE_Nedelec*, %class.FE_Nedelec** %2, align 8
  %6 = call i8* @_Znwm(i64 1160) #13
  %7 = bitcast i8* %6 to %class.FE_Nedelec*
  %8 = getelementptr inbounds %class.FE_Nedelec, %class.FE_Nedelec* %5, i32 0, i32 1
  %9 = load i32, i32* %8, align 4
  invoke void @_ZN10FE_NedelecILi3EEC1Ej(%class.FE_Nedelec* %7, i32 %9)
          to label %10 unwind label %12

; <label>:10:                                     ; preds = %1
  %11 = bitcast %class.FE_Nedelec* %7 to %class.FiniteElement*
  ret %class.FiniteElement* %11

; <label>:12:                                     ; preds = %1
  %13 = landingpad { i8*, i32 }
          cleanup
  %14 = extractvalue { i8*, i32 } %13, 0
  store i8* %14, i8** %3, align 8
  %15 = extractvalue { i8*, i32 } %13, 1
  store i32 %15, i32* %4, align 4
  call void @_ZdlPv(i8* %6) #14
  br label %16

; <label>:16:                                     ; preds = %12
  %17 = load i8*, i8** %3, align 8
  %18 = load i32, i32* %4, align 4
  %19 = insertvalue { i8*, i32 } undef, i8* %17, 0
  %20 = insertvalue { i8*, i32 } %19, i32 %18, 1
  resume { i8*, i32 } %20
}

; Function Attrs: nobuiltin
declare noalias i8* @_Znwm(i64) #4

; Function Attrs: nobuiltin nounwind
declare void @_ZdlPv(i8*) #5

; Function Attrs: noinline uwtable
define weak_odr %"class.Mapping<3>::InternalDataBase"* @_ZNK10FE_NedelecILi3EE8get_dataE11UpdateFlagsRK7MappingILi3EERK10QuadratureILi3EE(%class.FE_Nedelec*, i32, %class.Mapping* dereferenceable(24), %class.Quadrature* dereferenceable(80)) unnamed_addr #0 comdat align 2 personality i8* bitcast (i32 (...)* @__gxx_personality_v0 to i8*) {
  %5 = alloca %class.FE_Nedelec*, align 8
  %6 = alloca i32, align 4
  %7 = alloca %class.Mapping*, align 8
  %8 = alloca %class.Quadrature*, align 8
  %9 = alloca %"class.FE_Nedelec<3>::InternalData"*, align 8
  %10 = alloca i8*
  %11 = alloca i32
  %12 = alloca i32, align 4
  %13 = alloca i32, align 4
  %14 = alloca i32, align 4
  %15 = alloca i32, align 4
  %16 = alloca i32, align 4
  %17 = alloca %"class.internal::TableBaseAccessors::Accessor", align 8
  %18 = alloca i32, align 4
  %19 = alloca %class.Tensor, align 8
  %20 = alloca %"class.internal::TableBaseAccessors::Accessor.58", align 8
  store %class.FE_Nedelec* %0, %class.FE_Nedelec** %5, align 8
  store i32 %1, i32* %6, align 4
  store %class.Mapping* %2, %class.Mapping** %7, align 8
  store %class.Quadrature* %3, %class.Quadrature** %8, align 8
  %21 = load %class.FE_Nedelec*, %class.FE_Nedelec** %5, align 8
  %22 = call i8* @_Znwm(i64 160) #13
  %23 = bitcast i8* %22 to %"class.FE_Nedelec<3>::InternalData"*
  invoke void @_ZN10FE_NedelecILi3EE12InternalDataC2Ev(%"class.FE_Nedelec<3>::InternalData"* %23)
          to label %24 unwind label %74

; <label>:24:                                     ; preds = %4
  store %"class.FE_Nedelec<3>::InternalData"* %23, %"class.FE_Nedelec<3>::InternalData"** %9, align 8
  %25 = bitcast %class.FE_Nedelec* %21 to i32 (%class.FE_Nedelec*, i32)***
  %26 = load i32 (%class.FE_Nedelec*, i32)**, i32 (%class.FE_Nedelec*, i32)*** %25, align 8
  %27 = getelementptr inbounds i32 (%class.FE_Nedelec*, i32)*, i32 (%class.FE_Nedelec*, i32)** %26, i64 17
  %28 = load i32 (%class.FE_Nedelec*, i32)*, i32 (%class.FE_Nedelec*, i32)** %27, align 8
  %29 = load i32, i32* %6, align 4
  %30 = call i32 %28(%class.FE_Nedelec* %21, i32 %29)
  %31 = load %"class.FE_Nedelec<3>::InternalData"*, %"class.FE_Nedelec<3>::InternalData"** %9, align 8
  %32 = bitcast %"class.FE_Nedelec<3>::InternalData"* %31 to %"class.Mapping<3>::InternalDataBase"*
  %33 = getelementptr inbounds %"class.Mapping<3>::InternalDataBase", %"class.Mapping<3>::InternalDataBase"* %32, i32 0, i32 2
  store i32 %30, i32* %33, align 4
  %34 = bitcast %class.FE_Nedelec* %21 to i32 (%class.FE_Nedelec*, i32)***
  %35 = load i32 (%class.FE_Nedelec*, i32)**, i32 (%class.FE_Nedelec*, i32)*** %34, align 8
  %36 = getelementptr inbounds i32 (%class.FE_Nedelec*, i32)*, i32 (%class.FE_Nedelec*, i32)** %35, i64 18
  %37 = load i32 (%class.FE_Nedelec*, i32)*, i32 (%class.FE_Nedelec*, i32)** %36, align 8
  %38 = load i32, i32* %6, align 4
  %39 = call i32 %37(%class.FE_Nedelec* %21, i32 %38)
  %40 = load %"class.FE_Nedelec<3>::InternalData"*, %"class.FE_Nedelec<3>::InternalData"** %9, align 8
  %41 = bitcast %"class.FE_Nedelec<3>::InternalData"* %40 to %"class.Mapping<3>::InternalDataBase"*
  %42 = getelementptr inbounds %"class.Mapping<3>::InternalDataBase", %"class.Mapping<3>::InternalDataBase"* %41, i32 0, i32 3
  store i32 %39, i32* %42, align 8
  %43 = load %"class.FE_Nedelec<3>::InternalData"*, %"class.FE_Nedelec<3>::InternalData"** %9, align 8
  %44 = bitcast %"class.FE_Nedelec<3>::InternalData"* %43 to %"class.Mapping<3>::InternalDataBase"*
  %45 = getelementptr inbounds %"class.Mapping<3>::InternalDataBase", %"class.Mapping<3>::InternalDataBase"* %44, i32 0, i32 2
  %46 = load i32, i32* %45, align 4
  %47 = load %"class.FE_Nedelec<3>::InternalData"*, %"class.FE_Nedelec<3>::InternalData"** %9, align 8
  %48 = bitcast %"class.FE_Nedelec<3>::InternalData"* %47 to %"class.Mapping<3>::InternalDataBase"*
  %49 = getelementptr inbounds %"class.Mapping<3>::InternalDataBase", %"class.Mapping<3>::InternalDataBase"* %48, i32 0, i32 3
  %50 = load i32, i32* %49, align 8
  %51 = call i32 @_Zor11UpdateFlagsS_(i32 %46, i32 %50)
  %52 = load %"class.FE_Nedelec<3>::InternalData"*, %"class.FE_Nedelec<3>::InternalData"** %9, align 8
  %53 = bitcast %"class.FE_Nedelec<3>::InternalData"* %52 to %"class.Mapping<3>::InternalDataBase"*
  %54 = getelementptr inbounds %"class.Mapping<3>::InternalDataBase", %"class.Mapping<3>::InternalDataBase"* %53, i32 0, i32 1
  store i32 %51, i32* %54, align 8
  %55 = load %"class.FE_Nedelec<3>::InternalData"*, %"class.FE_Nedelec<3>::InternalData"** %9, align 8
  %56 = bitcast %"class.FE_Nedelec<3>::InternalData"* %55 to %"class.Mapping<3>::InternalDataBase"*
  %57 = getelementptr inbounds %"class.Mapping<3>::InternalDataBase", %"class.Mapping<3>::InternalDataBase"* %56, i32 0, i32 1
  %58 = load i32, i32* %57, align 8
  store i32 %58, i32* %12, align 4
  %59 = load %class.Quadrature*, %class.Quadrature** %8, align 8
  %60 = getelementptr inbounds %class.Quadrature, %class.Quadrature* %59, i32 0, i32 1
  %61 = load i32, i32* %60, align 8
  store i32 %61, i32* %13, align 4
  %62 = load i32, i32* %12, align 4
  %63 = call i32 @_Zan11UpdateFlagsS_(i32 %62, i32 1)
  %64 = icmp ne i32 %63, 0
  br i1 %64, label %65, label %94

; <label>:65:                                     ; preds = %24
  %66 = load %"class.FE_Nedelec<3>::InternalData"*, %"class.FE_Nedelec<3>::InternalData"** %9, align 8
  %67 = getelementptr inbounds %"class.FE_Nedelec<3>::InternalData", %"class.FE_Nedelec<3>::InternalData"* %66, i32 0, i32 1
  %68 = bitcast %class.FE_Nedelec* %21 to i8*
  %69 = getelementptr inbounds i8, i8* %68, i64 24
  %70 = bitcast i8* %69 to %class.FiniteElementData*
  %71 = getelementptr inbounds %class.FiniteElementData, %class.FiniteElementData* %70, i32 0, i32 10
  %72 = load i32, i32* %71, align 8
  %73 = load i32, i32* %13, align 4
  call void @_ZN5TableILi2E6TensorILi1ELi3EEE6reinitEjj(%class.Table.50* %67, i32 %72, i32 %73)
  br label %94

; <label>:74:                                     ; preds = %4
  %75 = load i32, i32* @x.71
  %76 = load i32, i32* @y.72
  %77 = sub i32 %75, 1
  %78 = mul i32 %75, %77
  %79 = urem i32 %78, 2
  %80 = icmp eq i32 %79, 0
  %81 = icmp slt i32 %76, 10
  %82 = or i1 %80, %81
  br i1 %82, label %originalBB, label %originalBBalteredBB

originalBB:                                       ; preds = %74, %originalBBalteredBB
  %83 = landingpad { i8*, i32 }
          cleanup
  %84 = extractvalue { i8*, i32 } %83, 0
  store i8* %84, i8** %10, align 8
  %85 = extractvalue { i8*, i32 } %83, 1
  store i32 %85, i32* %11, align 4
  call void @_ZdlPv(i8* %22) #14
  %86 = load i32, i32* @x.71
  %87 = load i32, i32* @y.72
  %88 = sub i32 %86, 1
  %89 = mul i32 %86, %88
  %90 = urem i32 %89, 2
  %91 = icmp eq i32 %90, 0
  %92 = icmp slt i32 %87, 10
  %93 = or i1 %91, %92
  br i1 %93, label %originalBBpart2, label %originalBBalteredBB

originalBBpart2:                                  ; preds = %originalBB
  br label %234

; <label>:94:                                     ; preds = %65, %24
  %95 = load i32, i32* %12, align 4
  %96 = call i32 @_Zan11UpdateFlagsS_(i32 %95, i32 2)
  %97 = icmp ne i32 %96, 0
  br i1 %97, label %98, label %107

; <label>:98:                                     ; preds = %94
  %99 = load %"class.FE_Nedelec<3>::InternalData"*, %"class.FE_Nedelec<3>::InternalData"** %9, align 8
  %100 = getelementptr inbounds %"class.FE_Nedelec<3>::InternalData", %"class.FE_Nedelec<3>::InternalData"* %99, i32 0, i32 2
  %101 = bitcast %class.FE_Nedelec* %21 to i8*
  %102 = getelementptr inbounds i8, i8* %101, i64 24
  %103 = bitcast i8* %102 to %class.FiniteElementData*
  %104 = getelementptr inbounds %class.FiniteElementData, %class.FiniteElementData* %103, i32 0, i32 10
  %105 = load i32, i32* %104, align 8
  %106 = load i32, i32* %13, align 4
  call void @_ZN5TableILi2E6TensorILi2ELi3EEE6reinitEjj(%class.Table.54* %100, i32 %105, i32 %106)
  br label %107

; <label>:107:                                    ; preds = %98, %94
  %108 = load i32, i32* %12, align 4
  %109 = call i32 @_Zan11UpdateFlagsS_(i32 %108, i32 4)
  %110 = icmp ne i32 %109, 0
  br i1 %110, label %111, label %117

; <label>:111:                                    ; preds = %107
  %112 = load %"class.FE_Nedelec<3>::InternalData"*, %"class.FE_Nedelec<3>::InternalData"** %9, align 8
  %113 = bitcast %"class.FE_Nedelec<3>::InternalData"* %112 to %"class.FiniteElementBase<3>::InternalDataBase"*
  %114 = bitcast %class.FE_Nedelec* %21 to %class.FiniteElement*
  %115 = load %class.Mapping*, %class.Mapping** %7, align 8
  %116 = load %class.Quadrature*, %class.Quadrature** %8, align 8
  call void @_ZN17FiniteElementBaseILi3EE16InternalDataBase14initialize_2ndEPK13FiniteElementILi3EERK7MappingILi3EERK10QuadratureILi3EE(%"class.FiniteElementBase<3>::InternalDataBase"* %113, %class.FiniteElement* %114, %class.Mapping* dereferenceable(24) %115, %class.Quadrature* dereferenceable(80) %116)
  br label %117

; <label>:117:                                    ; preds = %111, %107
  %118 = load i32, i32* @x.71
  %119 = load i32, i32* @y.72
  %120 = sub i32 %118, 1
  %121 = mul i32 %118, %120
  %122 = urem i32 %121, 2
  %123 = icmp eq i32 %122, 0
  %124 = icmp slt i32 %119, 10
  %125 = or i1 %123, %124
  br i1 %125, label %originalBB1, label %originalBB1alteredBB

originalBB1:                                      ; preds = %117, %originalBB1alteredBB
  store i32 0, i32* %14, align 4
  %126 = load i32, i32* @x.71
  %127 = load i32, i32* @y.72
  %128 = sub i32 %126, 1
  %129 = mul i32 %126, %128
  %130 = urem i32 %129, 2
  %131 = icmp eq i32 %130, 0
  %132 = icmp slt i32 %127, 10
  %133 = or i1 %131, %132
  br i1 %133, label %originalBBpart24, label %originalBB1alteredBB

originalBBpart24:                                 ; preds = %originalBB1
  br label %134

; <label>:134:                                    ; preds = %228, %originalBBpart24
  %135 = load i32, i32* %14, align 4
  %136 = bitcast %class.FE_Nedelec* %21 to i8*
  %137 = getelementptr inbounds i8, i8* %136, i64 24
  %138 = bitcast i8* %137 to %class.FiniteElementData*
  %139 = getelementptr inbounds %class.FiniteElementData, %class.FiniteElementData* %138, i32 0, i32 10
  %140 = load i32, i32* %139, align 8
  %141 = icmp ult i32 %135, %140
  br i1 %141, label %142, label %231

; <label>:142:                                    ; preds = %134
  store i32 0, i32* %15, align 4
  br label %143

; <label>:143:                                    ; preds = %224, %142
  %144 = load i32, i32* @x.71
  %145 = load i32, i32* @y.72
  %146 = sub i32 %144, 1
  %147 = mul i32 %144, %146
  %148 = urem i32 %147, 2
  %149 = icmp eq i32 %148, 0
  %150 = icmp slt i32 %145, 10
  %151 = or i1 %149, %150
  br i1 %151, label %originalBB6, label %originalBB6alteredBB

originalBB6:                                      ; preds = %143, %originalBB6alteredBB
  %152 = load i32, i32* %15, align 4
  %153 = load i32, i32* %13, align 4
  %154 = icmp ult i32 %152, %153
  %155 = load i32, i32* @x.71
  %156 = load i32, i32* @y.72
  %157 = sub i32 %155, 1
  %158 = mul i32 %155, %157
  %159 = urem i32 %158, 2
  %160 = icmp eq i32 %159, 0
  %161 = icmp slt i32 %156, 10
  %162 = or i1 %160, %161
  br i1 %162, label %originalBBpart28, label %originalBB6alteredBB

originalBBpart28:                                 ; preds = %originalBB6
  br i1 %154, label %163, label %227

; <label>:163:                                    ; preds = %originalBBpart28
  %164 = load i32, i32* %12, align 4
  %165 = call i32 @_Zan11UpdateFlagsS_(i32 %164, i32 1)
  %166 = icmp ne i32 %165, 0
  br i1 %166, label %167, label %193

; <label>:167:                                    ; preds = %163
  store i32 0, i32* %16, align 4
  br label %168

; <label>:168:                                    ; preds = %189, %167
  %169 = load i32, i32* %16, align 4
  %170 = icmp ult i32 %169, 3
  br i1 %170, label %171, label %192

; <label>:171:                                    ; preds = %168
  %172 = bitcast %class.FE_Nedelec* %21 to double (%class.FE_Nedelec*, i32, %class.Point*, i32)***
  %173 = load double (%class.FE_Nedelec*, i32, %class.Point*, i32)**, double (%class.FE_Nedelec*, i32, %class.Point*, i32)*** %172, align 8
  %174 = getelementptr inbounds double (%class.FE_Nedelec*, i32, %class.Point*, i32)*, double (%class.FE_Nedelec*, i32, %class.Point*, i32)** %173, i64 4
  %175 = load double (%class.FE_Nedelec*, i32, %class.Point*, i32)*, double (%class.FE_Nedelec*, i32, %class.Point*, i32)** %174, align 8
  %176 = load i32, i32* %14, align 4
  %177 = load %class.Quadrature*, %class.Quadrature** %8, align 8
  %178 = load i32, i32* %15, align 4
  %179 = call dereferenceable(24) %class.Point* @_ZNK10QuadratureILi3EE5pointEj(%class.Quadrature* %177, i32 %178)
  %180 = load i32, i32* %16, align 4
  %181 = call double %175(%class.FE_Nedelec* %21, i32 %176, %class.Point* dereferenceable(24) %179, i32 %180)
  %182 = load %"class.FE_Nedelec<3>::InternalData"*, %"class.FE_Nedelec<3>::InternalData"** %9, align 8
  %183 = getelementptr inbounds %"class.FE_Nedelec<3>::InternalData", %"class.FE_Nedelec<3>::InternalData"* %182, i32 0, i32 1
  %184 = load i32, i32* %14, align 4
  call void @_ZN5TableILi2E6TensorILi1ELi3EEEixEj(%"class.internal::TableBaseAccessors::Accessor"* sret %17, %class.Table.50* %183, i32 %184)
  %185 = load i32, i32* %15, align 4
  %186 = call dereferenceable(24) %class.Tensor* @_ZNK8internal18TableBaseAccessors8AccessorILi2E6TensorILi1ELi3EELb0ELj1EEixEj(%"class.internal::TableBaseAccessors::Accessor"* %17, i32 %185)
  %187 = load i32, i32* %16, align 4
  %188 = call dereferenceable(8) double* @_ZN6TensorILi1ELi3EEixEj(%class.Tensor* %186, i32 %187)
  store double %181, double* %188, align 8
  br label %189

; <label>:189:                                    ; preds = %171
  %190 = load i32, i32* %16, align 4
  %191 = add i32 %190, 1
  store i32 %191, i32* %16, align 4
  br label %168

; <label>:192:                                    ; preds = %168
  br label %193

; <label>:193:                                    ; preds = %192, %163
  %194 = load i32, i32* %12, align 4
  %195 = call i32 @_Zan11UpdateFlagsS_(i32 %194, i32 2)
  %196 = icmp ne i32 %195, 0
  br i1 %196, label %197, label %223

; <label>:197:                                    ; preds = %193
  store i32 0, i32* %18, align 4
  br label %198

; <label>:198:                                    ; preds = %219, %197
  %199 = load i32, i32* %18, align 4
  %200 = icmp ult i32 %199, 3
  br i1 %200, label %201, label %222

; <label>:201:                                    ; preds = %198
  %202 = bitcast %class.FE_Nedelec* %21 to void (%class.Tensor*, %class.FE_Nedelec*, i32, %class.Point*, i32)***
  %203 = load void (%class.Tensor*, %class.FE_Nedelec*, i32, %class.Point*, i32)**, void (%class.Tensor*, %class.FE_Nedelec*, i32, %class.Point*, i32)*** %202, align 8
  %204 = getelementptr inbounds void (%class.Tensor*, %class.FE_Nedelec*, i32, %class.Point*, i32)*, void (%class.Tensor*, %class.FE_Nedelec*, i32, %class.Point*, i32)** %203, i64 6
  %205 = load void (%class.Tensor*, %class.FE_Nedelec*, i32, %class.Point*, i32)*, void (%class.Tensor*, %class.FE_Nedelec*, i32, %class.Point*, i32)** %204, align 8
  %206 = load i32, i32* %14, align 4
  %207 = load %class.Quadrature*, %class.Quadrature** %8, align 8
  %208 = load i32, i32* %15, align 4
  %209 = call dereferenceable(24) %class.Point* @_ZNK10QuadratureILi3EE5pointEj(%class.Quadrature* %207, i32 %208)
  %210 = load i32, i32* %18, align 4
  call void %205(%class.Tensor* sret %19, %class.FE_Nedelec* %21, i32 %206, %class.Point* dereferenceable(24) %209, i32 %210)
  %211 = load %"class.FE_Nedelec<3>::InternalData"*, %"class.FE_Nedelec<3>::InternalData"** %9, align 8
  %212 = getelementptr inbounds %"class.FE_Nedelec<3>::InternalData", %"class.FE_Nedelec<3>::InternalData"* %211, i32 0, i32 2
  %213 = load i32, i32* %14, align 4
  call void @_ZN5TableILi2E6TensorILi2ELi3EEEixEj(%"class.internal::TableBaseAccessors::Accessor.58"* sret %20, %class.Table.54* %212, i32 %213)
  %214 = load i32, i32* %15, align 4
  %215 = call dereferenceable(72) %class.Tensor.33* @_ZNK8internal18TableBaseAccessors8AccessorILi2E6TensorILi2ELi3EELb0ELj1EEixEj(%"class.internal::TableBaseAccessors::Accessor.58"* %20, i32 %214)
  %216 = load i32, i32* %18, align 4
  %217 = call dereferenceable(24) %class.Tensor* @_ZN6TensorILi2ELi3EEixEj(%class.Tensor.33* %215, i32 %216)
  %218 = call dereferenceable(24) %class.Tensor* @_ZN6TensorILi1ELi3EEaSERKS0_(%class.Tensor* %217, %class.Tensor* dereferenceable(24) %19)
  br label %219

; <label>:219:                                    ; preds = %201
  %220 = load i32, i32* %18, align 4
  %221 = add i32 %220, 1
  store i32 %221, i32* %18, align 4
  br label %198

; <label>:222:                                    ; preds = %198
  br label %223

; <label>:223:                                    ; preds = %222, %193
  br label %224

; <label>:224:                                    ; preds = %223
  %225 = load i32, i32* %15, align 4
  %226 = add i32 %225, 1
  store i32 %226, i32* %15, align 4
  br label %143

; <label>:227:                                    ; preds = %originalBBpart28
  br label %228

; <label>:228:                                    ; preds = %227
  %229 = load i32, i32* %14, align 4
  %230 = add i32 %229, 1
  store i32 %230, i32* %14, align 4
  br label %134

; <label>:231:                                    ; preds = %134
  %232 = load %"class.FE_Nedelec<3>::InternalData"*, %"class.FE_Nedelec<3>::InternalData"** %9, align 8
  %233 = bitcast %"class.FE_Nedelec<3>::InternalData"* %232 to %"class.Mapping<3>::InternalDataBase"*
  ret %"class.Mapping<3>::InternalDataBase"* %233

; <label>:234:                                    ; preds = %originalBBpart2
  %235 = load i32, i32* @x.71
  %236 = load i32, i32* @y.72
  %237 = sub i32 %235, 1
  %238 = mul i32 %235, %237
  %239 = urem i32 %238, 2
  %240 = icmp eq i32 %239, 0
  %241 = icmp slt i32 %236, 10
  %242 = or i1 %240, %241
  br i1 %242, label %originalBB10, label %originalBB10alteredBB

originalBB10:                                     ; preds = %234, %originalBB10alteredBB
  %243 = load i8*, i8** %10, align 8
  %244 = load i32, i32* %11, align 4
  %245 = insertvalue { i8*, i32 } undef, i8* %243, 0
  %246 = insertvalue { i8*, i32 } %245, i32 %244, 1
  %247 = load i32, i32* @x.71
  %248 = load i32, i32* @y.72
  %249 = sub i32 %247, 1
  %250 = mul i32 %247, %249
  %251 = urem i32 %250, 2
  %252 = icmp eq i32 %251, 0
  %253 = icmp slt i32 %248, 10
  %254 = or i1 %252, %253
  br i1 %254, label %originalBBpart212, label %originalBB10alteredBB

originalBBpart212:                                ; preds = %originalBB10
  resume { i8*, i32 } %246

originalBBalteredBB:                              ; preds = %originalBB, %74
  %255 = landingpad { i8*, i32 }
          cleanup
  %256 = extractvalue { i8*, i32 } %255, 0
  store i8* %256, i8** %10, align 8
  %257 = extractvalue { i8*, i32 } %255, 1
  store i32 %257, i32* %11, align 4
  call void @_ZdlPv(i8* %22) #14
  br label %originalBB

originalBB1alteredBB:                             ; preds = %originalBB1, %117
  store i32 0, i32* %14, align 4
  br label %originalBB1

originalBB6alteredBB:                             ; preds = %originalBB6, %143
  %258 = load i32, i32* %15, align 4
  %259 = load i32, i32* %13, align 4
  %260 = icmp ult i32 %258, %259
  br label %originalBB6

originalBB10alteredBB:                            ; preds = %originalBB10, %234
  %261 = load i8*, i8** %10, align 8
  %262 = load i32, i32* %11, align 4
  %263 = insertvalue { i8*, i32 } undef, i8* %261, 0
  %264 = insertvalue { i8*, i32 } %263, i32 %262, 1
  br label %originalBB10
}

; Function Attrs: noinline uwtable
define linkonce_odr void @_ZN10FE_NedelecILi3EE12InternalDataC2Ev(%"class.FE_Nedelec<3>::InternalData"*) unnamed_addr #0 comdat align 2 personality i8* bitcast (i32 (...)* @__gxx_personality_v0 to i8*) {
  %2 = alloca %"class.FE_Nedelec<3>::InternalData"*, align 8
  %3 = alloca i8*
  %4 = alloca i32
  store %"class.FE_Nedelec<3>::InternalData"* %0, %"class.FE_Nedelec<3>::InternalData"** %2, align 8
  %5 = load %"class.FE_Nedelec<3>::InternalData"*, %"class.FE_Nedelec<3>::InternalData"** %2, align 8
  %6 = bitcast %"class.FE_Nedelec<3>::InternalData"* %5 to %"class.FiniteElementBase<3>::InternalDataBase"*
  call void @_ZN17FiniteElementBaseILi3EE16InternalDataBaseC2Ev(%"class.FiniteElementBase<3>::InternalDataBase"* %6)
  %7 = bitcast %"class.FE_Nedelec<3>::InternalData"* %5 to i32 (...)***
  store i32 (...)** bitcast (i8** getelementptr inbounds ({ [6 x i8*] }, { [6 x i8*] }* @_ZTVN10FE_NedelecILi3EE12InternalDataE, i32 0, inrange i32 0, i32 2) to i32 (...)**), i32 (...)*** %7, align 8
  %8 = getelementptr inbounds %"class.FE_Nedelec<3>::InternalData", %"class.FE_Nedelec<3>::InternalData"* %5, i32 0, i32 1
  invoke void @_ZN5TableILi2E6TensorILi1ELi3EEEC2Ev(%class.Table.50* %8)
          to label %9 unwind label %12

; <label>:9:                                      ; preds = %1
  %10 = getelementptr inbounds %"class.FE_Nedelec<3>::InternalData", %"class.FE_Nedelec<3>::InternalData"* %5, i32 0, i32 2
  invoke void @_ZN5TableILi2E6TensorILi2ELi3EEEC2Ev(%class.Table.54* %10)
          to label %11 unwind label %16

; <label>:11:                                     ; preds = %9
  ret void

; <label>:12:                                     ; preds = %1
  %13 = landingpad { i8*, i32 }
          cleanup
  %14 = extractvalue { i8*, i32 } %13, 0
  store i8* %14, i8** %3, align 8
  %15 = extractvalue { i8*, i32 } %13, 1
  store i32 %15, i32* %4, align 4
  br label %21

; <label>:16:                                     ; preds = %9
  %17 = landingpad { i8*, i32 }
          cleanup
  %18 = extractvalue { i8*, i32 } %17, 0
  store i8* %18, i8** %3, align 8
  %19 = extractvalue { i8*, i32 } %17, 1
  store i32 %19, i32* %4, align 4
  invoke void @_ZN5TableILi2E6TensorILi1ELi3EEED2Ev(%class.Table.50* %8)
          to label %20 unwind label %29

; <label>:20:                                     ; preds = %16
  br label %21

; <label>:21:                                     ; preds = %20, %12
  %22 = bitcast %"class.FE_Nedelec<3>::InternalData"* %5 to %"class.FiniteElementBase<3>::InternalDataBase"*
  invoke void @_ZN17FiniteElementBaseILi3EE16InternalDataBaseD2Ev(%"class.FiniteElementBase<3>::InternalDataBase"* %22)
          to label %23 unwind label %29

; <label>:23:                                     ; preds = %21
  br label %24

; <label>:24:                                     ; preds = %23
  %25 = load i8*, i8** %3, align 8
  %26 = load i32, i32* %4, align 4
  %27 = insertvalue { i8*, i32 } undef, i8* %25, 0
  %28 = insertvalue { i8*, i32 } %27, i32 %26, 1
  resume { i8*, i32 } %28

; <label>:29:                                     ; preds = %21, %16
  %30 = landingpad { i8*, i32 }
          catch i8* null
  %31 = extractvalue { i8*, i32 } %30, 0
  call void @__clang_call_terminate(i8* %31) #10
  unreachable
}

; Function Attrs: noinline nounwind uwtable
define linkonce_odr i32 @_Zor11UpdateFlagsS_(i32, i32) #1 comdat {
  %3 = alloca i32, align 4
  %4 = alloca i32, align 4
  store i32 %0, i32* %3, align 4
  store i32 %1, i32* %4, align 4
  %5 = load i32, i32* %3, align 4
  %6 = load i32, i32* %4, align 4
  %7 = or i32 %5, %6
  ret i32 %7
}

; Function Attrs: noinline nounwind uwtable
define linkonce_odr i32 @_Zan11UpdateFlagsS_(i32, i32) #1 comdat {
  %3 = load i32, i32* @x.77
  %4 = load i32, i32* @y.78
  %5 = sub i32 %3, 1
  %6 = mul i32 %3, %5
  %7 = urem i32 %6, 2
  %8 = icmp eq i32 %7, 0
  %9 = icmp slt i32 %4, 10
  %10 = or i1 %8, %9
  br i1 %10, label %originalBB, label %originalBBalteredBB

originalBB:                                       ; preds = %2, %originalBBalteredBB
  %11 = alloca i32, align 4
  %12 = alloca i32, align 4
  store i32 %0, i32* %11, align 4
  store i32 %1, i32* %12, align 4
  %13 = load i32, i32* %11, align 4
  %14 = load i32, i32* %12, align 4
  %15 = and i32 %13, %14
  %16 = load i32, i32* @x.77
  %17 = load i32, i32* @y.78
  %18 = sub i32 %16, 1
  %19 = mul i32 %16, %18
  %20 = urem i32 %19, 2
  %21 = icmp eq i32 %20, 0
  %22 = icmp slt i32 %17, 10
  %23 = or i1 %21, %22
  br i1 %23, label %originalBBpart2, label %originalBBalteredBB

originalBBpart2:                                  ; preds = %originalBB
  ret i32 %15

originalBBalteredBB:                              ; preds = %originalBB, %2
  %24 = alloca i32, align 4
  %25 = alloca i32, align 4
  store i32 %0, i32* %24, align 4
  store i32 %1, i32* %25, align 4
  %26 = load i32, i32* %24, align 4
  %27 = load i32, i32* %25, align 4
  %_ = shl i32 %26, %27
  %_1 = shl i32 %26, %27
  %_2 = shl i32 %26, %27
  %_3 = sub i32 0, %26
  %gen = add i32 %_3, %27
  %_4 = sub i32 %26, %27
  %gen5 = mul i32 %_4, %27
  %_6 = shl i32 %26, %27
  %_7 = shl i32 %26, %27
  %28 = and i32 %26, %27
  br label %originalBB
}

; Function Attrs: noinline uwtable
define linkonce_odr void @_ZN5TableILi2E6TensorILi1ELi3EEE6reinitEjj(%class.Table.50*, i32, i32) #0 comdat align 2 {
  %4 = alloca %class.Table.50*, align 8
  %5 = alloca i32, align 4
  %6 = alloca i32, align 4
  %7 = alloca %class.TableIndices, align 4
  store %class.Table.50* %0, %class.Table.50** %4, align 8
  store i32 %1, i32* %5, align 4
  store i32 %2, i32* %6, align 4
  %8 = load %class.Table.50*, %class.Table.50** %4, align 8
  %9 = bitcast %class.Table.50* %8 to %class.TableBase.51*
  %10 = load i32, i32* %5, align 4
  %11 = load i32, i32* %6, align 4
  call void @_ZN12TableIndicesILi2EEC2Ejj(%class.TableIndices* %7, i32 %10, i32 %11)
  call void @_ZN9TableBaseILi2E6TensorILi1ELi3EEE6reinitERK12TableIndicesILi2EE(%class.TableBase.51* %9, %class.TableIndices* dereferenceable(8) %7)
  ret void
}

; Function Attrs: noinline uwtable
define linkonce_odr void @_ZN5TableILi2E6TensorILi2ELi3EEE6reinitEjj(%class.Table.54*, i32, i32) #0 comdat align 2 {
  %4 = load i32, i32* @x.81
  %5 = load i32, i32* @y.82
  %6 = sub i32 %4, 1
  %7 = mul i32 %4, %6
  %8 = urem i32 %7, 2
  %9 = icmp eq i32 %8, 0
  %10 = icmp slt i32 %5, 10
  %11 = or i1 %9, %10
  br i1 %11, label %originalBB, label %originalBBalteredBB

originalBB:                                       ; preds = %3, %originalBBalteredBB
  %12 = alloca %class.Table.54*, align 8
  %13 = alloca i32, align 4
  %14 = alloca i32, align 4
  %15 = alloca %class.TableIndices, align 4
  store %class.Table.54* %0, %class.Table.54** %12, align 8
  store i32 %1, i32* %13, align 4
  store i32 %2, i32* %14, align 4
  %16 = load %class.Table.54*, %class.Table.54** %12, align 8
  %17 = bitcast %class.Table.54* %16 to %class.TableBase.55*
  %18 = load i32, i32* %13, align 4
  %19 = load i32, i32* %14, align 4
  call void @_ZN12TableIndicesILi2EEC2Ejj(%class.TableIndices* %15, i32 %18, i32 %19)
  call void @_ZN9TableBaseILi2E6TensorILi2ELi3EEE6reinitERK12TableIndicesILi2EE(%class.TableBase.55* %17, %class.TableIndices* dereferenceable(8) %15)
  %20 = load i32, i32* @x.81
  %21 = load i32, i32* @y.82
  %22 = sub i32 %20, 1
  %23 = mul i32 %20, %22
  %24 = urem i32 %23, 2
  %25 = icmp eq i32 %24, 0
  %26 = icmp slt i32 %21, 10
  %27 = or i1 %25, %26
  br i1 %27, label %originalBBpart2, label %originalBBalteredBB

originalBBpart2:                                  ; preds = %originalBB
  ret void

originalBBalteredBB:                              ; preds = %originalBB, %3
  %28 = alloca %class.Table.54*, align 8
  %29 = alloca i32, align 4
  %30 = alloca i32, align 4
  %31 = alloca %class.TableIndices, align 4
  store %class.Table.54* %0, %class.Table.54** %28, align 8
  store i32 %1, i32* %29, align 4
  store i32 %2, i32* %30, align 4
  %32 = load %class.Table.54*, %class.Table.54** %28, align 8
  %33 = bitcast %class.Table.54* %32 to %class.TableBase.55*
  %34 = load i32, i32* %29, align 4
  %35 = load i32, i32* %30, align 4
  call void @_ZN12TableIndicesILi2EEC2Ejj(%class.TableIndices* %31, i32 %34, i32 %35)
  call void @_ZN9TableBaseILi2E6TensorILi2ELi3EEE6reinitERK12TableIndicesILi2EE(%class.TableBase.55* %33, %class.TableIndices* dereferenceable(8) %31)
  br label %originalBB
}

declare void @_ZN17FiniteElementBaseILi3EE16InternalDataBase14initialize_2ndEPK13FiniteElementILi3EERK7MappingILi3EERK10QuadratureILi3EE(%"class.FiniteElementBase<3>::InternalDataBase"*, %class.FiniteElement*, %class.Mapping* dereferenceable(24), %class.Quadrature* dereferenceable(80)) #2

declare dereferenceable(24) %class.Point* @_ZNK10QuadratureILi3EE5pointEj(%class.Quadrature*, i32) #2

; Function Attrs: noinline uwtable
define linkonce_odr void @_ZN5TableILi2E6TensorILi1ELi3EEEixEj(%"class.internal::TableBaseAccessors::Accessor"* noalias sret, %class.Table.50*, i32) #0 comdat align 2 {
  %4 = alloca %class.Table.50*, align 8
  %5 = alloca i32, align 4
  store %class.Table.50* %1, %class.Table.50** %4, align 8
  store i32 %2, i32* %5, align 4
  %6 = load %class.Table.50*, %class.Table.50** %4, align 8
  %7 = bitcast %class.Table.50* %6 to %class.TableBase.51*
  %8 = bitcast %class.Table.50* %6 to %class.TableBase.51*
  %9 = getelementptr inbounds %class.TableBase.51, %class.TableBase.51* %8, i32 0, i32 1
  %10 = load %class.Tensor*, %class.Tensor** %9, align 8
  %11 = load i32, i32* %5, align 4
  %12 = call i32 @_ZNK5TableILi2E6TensorILi1ELi3EEE6n_colsEv(%class.Table.50* %6)
  %13 = mul i32 %11, %12
  %14 = zext i32 %13 to i64
  %15 = getelementptr inbounds %class.Tensor, %class.Tensor* %10, i64 %14
  call void @_ZN8internal18TableBaseAccessors8AccessorILi2E6TensorILi1ELi3EELb0ELj1EEC2ERK9TableBaseILi2ES3_EPS3_(%"class.internal::TableBaseAccessors::Accessor"* %0, %class.TableBase.51* dereferenceable(48) %7, %class.Tensor* %15)
  ret void
}

; Function Attrs: noinline nounwind uwtable
define linkonce_odr dereferenceable(24) %class.Tensor* @_ZNK8internal18TableBaseAccessors8AccessorILi2E6TensorILi1ELi3EELb0ELj1EEixEj(%"class.internal::TableBaseAccessors::Accessor"*, i32) #1 comdat align 2 {
  %3 = alloca %"class.internal::TableBaseAccessors::Accessor"*, align 8
  %4 = alloca i32, align 4
  store %"class.internal::TableBaseAccessors::Accessor"* %0, %"class.internal::TableBaseAccessors::Accessor"** %3, align 8
  store i32 %1, i32* %4, align 4
  %5 = load %"class.internal::TableBaseAccessors::Accessor"*, %"class.internal::TableBaseAccessors::Accessor"** %3, align 8
  %6 = getelementptr inbounds %"class.internal::TableBaseAccessors::Accessor", %"class.internal::TableBaseAccessors::Accessor"* %5, i32 0, i32 1
  %7 = load %class.Tensor*, %class.Tensor** %6, align 8
  %8 = load i32, i32* %4, align 4
  %9 = zext i32 %8 to i64
  %10 = getelementptr inbounds %class.Tensor, %class.Tensor* %7, i64 %9
  ret %class.Tensor* %10
}

; Function Attrs: noinline nounwind uwtable
define linkonce_odr dereferenceable(8) double* @_ZN6TensorILi1ELi3EEixEj(%class.Tensor*, i32) #1 comdat align 2 {
  %3 = load i32, i32* @x.87
  %4 = load i32, i32* @y.88
  %5 = sub i32 %3, 1
  %6 = mul i32 %3, %5
  %7 = urem i32 %6, 2
  %8 = icmp eq i32 %7, 0
  %9 = icmp slt i32 %4, 10
  %10 = or i1 %8, %9
  br i1 %10, label %originalBB, label %originalBBalteredBB

originalBB:                                       ; preds = %2, %originalBBalteredBB
  %11 = alloca %class.Tensor*, align 8
  %12 = alloca i32, align 4
  store %class.Tensor* %0, %class.Tensor** %11, align 8
  store i32 %1, i32* %12, align 4
  %13 = load %class.Tensor*, %class.Tensor** %11, align 8
  %14 = getelementptr inbounds %class.Tensor, %class.Tensor* %13, i32 0, i32 0
  %15 = load i32, i32* %12, align 4
  %16 = zext i32 %15 to i64
  %17 = getelementptr inbounds [3 x double], [3 x double]* %14, i64 0, i64 %16
  %18 = load i32, i32* @x.87
  %19 = load i32, i32* @y.88
  %20 = sub i32 %18, 1
  %21 = mul i32 %18, %20
  %22 = urem i32 %21, 2
  %23 = icmp eq i32 %22, 0
  %24 = icmp slt i32 %19, 10
  %25 = or i1 %23, %24
  br i1 %25, label %originalBBpart2, label %originalBBalteredBB

originalBBpart2:                                  ; preds = %originalBB
  ret double* %17

originalBBalteredBB:                              ; preds = %originalBB, %2
  %26 = alloca %class.Tensor*, align 8
  %27 = alloca i32, align 4
  store %class.Tensor* %0, %class.Tensor** %26, align 8
  store i32 %1, i32* %27, align 4
  %28 = load %class.Tensor*, %class.Tensor** %26, align 8
  %29 = getelementptr inbounds %class.Tensor, %class.Tensor* %28, i32 0, i32 0
  %30 = load i32, i32* %27, align 4
  %31 = zext i32 %30 to i64
  %32 = getelementptr inbounds [3 x double], [3 x double]* %29, i64 0, i64 %31
  br label %originalBB
}

; Function Attrs: noinline uwtable
define linkonce_odr void @_ZN5TableILi2E6TensorILi2ELi3EEEixEj(%"class.internal::TableBaseAccessors::Accessor.58"* noalias sret, %class.Table.54*, i32) #0 comdat align 2 {
  %4 = alloca %class.Table.54*, align 8
  %5 = alloca i32, align 4
  store %class.Table.54* %1, %class.Table.54** %4, align 8
  store i32 %2, i32* %5, align 4
  %6 = load %class.Table.54*, %class.Table.54** %4, align 8
  %7 = bitcast %class.Table.54* %6 to %class.TableBase.55*
  %8 = bitcast %class.Table.54* %6 to %class.TableBase.55*
  %9 = getelementptr inbounds %class.TableBase.55, %class.TableBase.55* %8, i32 0, i32 1
  %10 = load %class.Tensor.33*, %class.Tensor.33** %9, align 8
  %11 = load i32, i32* %5, align 4
  %12 = call i32 @_ZNK5TableILi2E6TensorILi2ELi3EEE6n_colsEv(%class.Table.54* %6)
  %13 = mul i32 %11, %12
  %14 = zext i32 %13 to i64
  %15 = getelementptr inbounds %class.Tensor.33, %class.Tensor.33* %10, i64 %14
  call void @_ZN8internal18TableBaseAccessors8AccessorILi2E6TensorILi2ELi3EELb0ELj1EEC2ERK9TableBaseILi2ES3_EPS3_(%"class.internal::TableBaseAccessors::Accessor.58"* %0, %class.TableBase.55* dereferenceable(48) %7, %class.Tensor.33* %15)
  ret void
}

; Function Attrs: noinline nounwind uwtable
define linkonce_odr dereferenceable(72) %class.Tensor.33* @_ZNK8internal18TableBaseAccessors8AccessorILi2E6TensorILi2ELi3EELb0ELj1EEixEj(%"class.internal::TableBaseAccessors::Accessor.58"*, i32) #1 comdat align 2 {
  %3 = alloca %"class.internal::TableBaseAccessors::Accessor.58"*, align 8
  %4 = alloca i32, align 4
  store %"class.internal::TableBaseAccessors::Accessor.58"* %0, %"class.internal::TableBaseAccessors::Accessor.58"** %3, align 8
  store i32 %1, i32* %4, align 4
  %5 = load %"class.internal::TableBaseAccessors::Accessor.58"*, %"class.internal::TableBaseAccessors::Accessor.58"** %3, align 8
  %6 = getelementptr inbounds %"class.internal::TableBaseAccessors::Accessor.58", %"class.internal::TableBaseAccessors::Accessor.58"* %5, i32 0, i32 1
  %7 = load %class.Tensor.33*, %class.Tensor.33** %6, align 8
  %8 = load i32, i32* %4, align 4
  %9 = zext i32 %8 to i64
  %10 = getelementptr inbounds %class.Tensor.33, %class.Tensor.33* %7, i64 %9
  ret %class.Tensor.33* %10
}

; Function Attrs: noinline nounwind uwtable
define linkonce_odr dereferenceable(24) %class.Tensor* @_ZN6TensorILi2ELi3EEixEj(%class.Tensor.33*, i32) #1 comdat align 2 {
  %3 = load i32, i32* @x.93
  %4 = load i32, i32* @y.94
  %5 = sub i32 %3, 1
  %6 = mul i32 %3, %5
  %7 = urem i32 %6, 2
  %8 = icmp eq i32 %7, 0
  %9 = icmp slt i32 %4, 10
  %10 = or i1 %8, %9
  br i1 %10, label %originalBB, label %originalBBalteredBB

originalBB:                                       ; preds = %2, %originalBBalteredBB
  %11 = alloca %class.Tensor.33*, align 8
  %12 = alloca i32, align 4
  store %class.Tensor.33* %0, %class.Tensor.33** %11, align 8
  store i32 %1, i32* %12, align 4
  %13 = load %class.Tensor.33*, %class.Tensor.33** %11, align 8
  %14 = getelementptr inbounds %class.Tensor.33, %class.Tensor.33* %13, i32 0, i32 0
  %15 = load i32, i32* %12, align 4
  %16 = zext i32 %15 to i64
  %17 = getelementptr inbounds [3 x %class.Tensor], [3 x %class.Tensor]* %14, i64 0, i64 %16
  %18 = load i32, i32* @x.93
  %19 = load i32, i32* @y.94
  %20 = sub i32 %18, 1
  %21 = mul i32 %18, %20
  %22 = urem i32 %21, 2
  %23 = icmp eq i32 %22, 0
  %24 = icmp slt i32 %19, 10
  %25 = or i1 %23, %24
  br i1 %25, label %originalBBpart2, label %originalBBalteredBB

originalBBpart2:                                  ; preds = %originalBB
  ret %class.Tensor* %17

originalBBalteredBB:                              ; preds = %originalBB, %2
  %26 = alloca %class.Tensor.33*, align 8
  %27 = alloca i32, align 4
  store %class.Tensor.33* %0, %class.Tensor.33** %26, align 8
  store i32 %1, i32* %27, align 4
  %28 = load %class.Tensor.33*, %class.Tensor.33** %26, align 8
  %29 = getelementptr inbounds %class.Tensor.33, %class.Tensor.33* %28, i32 0, i32 0
  %30 = load i32, i32* %27, align 4
  %31 = zext i32 %30 to i64
  %32 = getelementptr inbounds [3 x %class.Tensor], [3 x %class.Tensor]* %29, i64 0, i64 %31
  br label %originalBB
}

; Function Attrs: noinline nounwind uwtable
define linkonce_odr dereferenceable(24) %class.Tensor* @_ZN6TensorILi1ELi3EEaSERKS0_(%class.Tensor*, %class.Tensor* dereferenceable(24)) #1 comdat align 2 {
  %3 = alloca %class.Tensor*, align 8
  %4 = alloca %class.Tensor*, align 8
  %5 = alloca i32, align 4
  store %class.Tensor* %0, %class.Tensor** %3, align 8
  store %class.Tensor* %1, %class.Tensor** %4, align 8
  %6 = load %class.Tensor*, %class.Tensor** %3, align 8
  store i32 0, i32* %5, align 4
  br label %7

; <label>:7:                                      ; preds = %37, %2
  %8 = load i32, i32* %5, align 4
  %9 = icmp ult i32 %8, 3
  br i1 %9, label %10, label %40

; <label>:10:                                     ; preds = %7
  %11 = load i32, i32* @x.95
  %12 = load i32, i32* @y.96
  %13 = sub i32 %11, 1
  %14 = mul i32 %11, %13
  %15 = urem i32 %14, 2
  %16 = icmp eq i32 %15, 0
  %17 = icmp slt i32 %12, 10
  %18 = or i1 %16, %17
  br i1 %18, label %originalBB, label %originalBBalteredBB

originalBB:                                       ; preds = %10, %originalBBalteredBB
  %19 = load %class.Tensor*, %class.Tensor** %4, align 8
  %20 = getelementptr inbounds %class.Tensor, %class.Tensor* %19, i32 0, i32 0
  %21 = load i32, i32* %5, align 4
  %22 = zext i32 %21 to i64
  %23 = getelementptr inbounds [3 x double], [3 x double]* %20, i64 0, i64 %22
  %24 = load double, double* %23, align 8
  %25 = getelementptr inbounds %class.Tensor, %class.Tensor* %6, i32 0, i32 0
  %26 = load i32, i32* %5, align 4
  %27 = zext i32 %26 to i64
  %28 = getelementptr inbounds [3 x double], [3 x double]* %25, i64 0, i64 %27
  store double %24, double* %28, align 8
  %29 = load i32, i32* @x.95
  %30 = load i32, i32* @y.96
  %31 = sub i32 %29, 1
  %32 = mul i32 %29, %31
  %33 = urem i32 %32, 2
  %34 = icmp eq i32 %33, 0
  %35 = icmp slt i32 %30, 10
  %36 = or i1 %34, %35
  br i1 %36, label %originalBBpart2, label %originalBBalteredBB

originalBBpart2:                                  ; preds = %originalBB
  br label %37

; <label>:37:                                     ; preds = %originalBBpart2
  %38 = load i32, i32* %5, align 4
  %39 = add i32 %38, 1
  store i32 %39, i32* %5, align 4
  br label %7

; <label>:40:                                     ; preds = %7
  ret %class.Tensor* %6

originalBBalteredBB:                              ; preds = %originalBB, %10
  %41 = load %class.Tensor*, %class.Tensor** %4, align 8
  %42 = getelementptr inbounds %class.Tensor, %class.Tensor* %41, i32 0, i32 0
  %43 = load i32, i32* %5, align 4
  %44 = zext i32 %43 to i64
  %45 = getelementptr inbounds [3 x double], [3 x double]* %42, i64 0, i64 %44
  %46 = load double, double* %45, align 8
  %47 = getelementptr inbounds %class.Tensor, %class.Tensor* %6, i32 0, i32 0
  %48 = load i32, i32* %5, align 4
  %49 = zext i32 %48 to i64
  %50 = getelementptr inbounds [3 x double], [3 x double]* %47, i64 0, i64 %49
  store double %46, double* %50, align 8
  br label %originalBB
}

; Function Attrs: noinline uwtable
define weak_odr void @_ZNK10FE_NedelecILi3EE14fill_fe_valuesERK7MappingILi3EERK12TriaIteratorILi3E15DoFCellAccessorILi3EEERK10QuadratureILi3EERNS2_16InternalDataBaseESG_R12FEValuesDataILi3EE(%class.FE_Nedelec*, %class.Mapping* dereferenceable(24), %class.TriaIterator* nonnull, %class.Quadrature* dereferenceable(80), %"class.Mapping<3>::InternalDataBase"* dereferenceable(40), %"class.Mapping<3>::InternalDataBase"* dereferenceable(40), %class.FEValuesData* dereferenceable(272)) unnamed_addr #0 comdat align 2 personality i8* bitcast (i32 (...)* @__gxx_personality_v0 to i8*) {
  %8 = load i32, i32* @x.97
  %9 = load i32, i32* @y.98
  %10 = sub i32 %8, 1
  %11 = mul i32 %8, %10
  %12 = urem i32 %11, 2
  %13 = icmp eq i32 %12, 0
  %14 = icmp slt i32 %9, 10
  %15 = or i1 %13, %14
  br i1 %15, label %originalBB, label %originalBBalteredBB

originalBB:                                       ; preds = %7, %originalBBalteredBB
  %16 = alloca %class.FE_Nedelec*, align 8
  %17 = alloca %class.Mapping*, align 8
  %18 = alloca %class.TriaIterator*, align 8
  %19 = alloca %class.Quadrature*, align 8
  %20 = alloca %"class.Mapping<3>::InternalDataBase"*, align 8
  %21 = alloca %"class.Mapping<3>::InternalDataBase"*, align 8
  %22 = alloca %class.FEValuesData*, align 8
  %23 = alloca %"class.FE_Nedelec<3>::InternalData"*, align 8
  %24 = alloca i32, align 4
  %25 = alloca i32, align 4
  %26 = alloca %"class.std::vector.59", align 8
  %27 = alloca %class.Tensor, align 8
  %28 = alloca %"class.std::allocator.61", align 1
  %29 = alloca i8*
  %30 = alloca i32
  %31 = alloca i32, align 4
  %32 = alloca %"class.__gnu_cxx::__normal_iterator", align 8
  %33 = alloca %"class.__gnu_cxx::__normal_iterator", align 8
  %34 = alloca %"class.internal::TableBaseAccessors::Accessor", align 8
  %35 = alloca i32, align 4
  %36 = alloca i32, align 4
  %37 = alloca %"class.internal::TableBaseAccessors::Accessor.64", align 8
  %38 = alloca %"class.std::vector.65", align 8
  %39 = alloca %class.Tensor.33, align 8
  %40 = alloca %"class.std::allocator.67", align 1
  %41 = alloca %"class.std::vector.65", align 8
  %42 = alloca %class.Tensor.33, align 8
  %43 = alloca %"class.std::allocator.67", align 1
  %44 = alloca i32, align 4
  %45 = alloca %"class.__gnu_cxx::__normal_iterator.70", align 8
  %46 = alloca %"class.__gnu_cxx::__normal_iterator.70", align 8
  %47 = alloca %"class.internal::TableBaseAccessors::Accessor.58", align 8
  %48 = alloca i32, align 4
  %49 = alloca %class.Tensor.33, align 8
  %50 = alloca %"class.__gnu_cxx::__normal_iterator.70", align 8
  %51 = alloca %"class.__gnu_cxx::__normal_iterator.70", align 8
  %52 = alloca %"class.__gnu_cxx::__normal_iterator.70", align 8
  %53 = alloca i32, align 4
  %54 = alloca %class.Tensor.33, align 8
  %55 = alloca i32, align 4
  %56 = alloca i32, align 4
  %57 = alloca %"class.internal::TableBaseAccessors::Accessor", align 8
  %58 = alloca %"class.QProjector<3>::DataSetDescriptor", align 4
  store %class.FE_Nedelec* %0, %class.FE_Nedelec** %16, align 8
  store %class.Mapping* %1, %class.Mapping** %17, align 8
  store %class.TriaIterator* %2, %class.TriaIterator** %18, align 8
  store %class.Quadrature* %3, %class.Quadrature** %19, align 8
  store %"class.Mapping<3>::InternalDataBase"* %4, %"class.Mapping<3>::InternalDataBase"** %20, align 8
  store %"class.Mapping<3>::InternalDataBase"* %5, %"class.Mapping<3>::InternalDataBase"** %21, align 8
  store %class.FEValuesData* %6, %class.FEValuesData** %22, align 8
  %59 = load %class.FE_Nedelec*, %class.FE_Nedelec** %16, align 8
  %60 = load %"class.Mapping<3>::InternalDataBase"*, %"class.Mapping<3>::InternalDataBase"** %21, align 8
  %61 = bitcast %"class.Mapping<3>::InternalDataBase"* %60 to i8*
  %62 = call i8* @__dynamic_cast(i8* %61, i8* bitcast ({ i8*, i8*, i8* }* @_ZTIN7MappingILi3EE16InternalDataBaseE to i8*), i8* bitcast ({ i8*, i8*, i8* }* @_ZTIN10FE_NedelecILi3EE12InternalDataE to i8*), i64 0) #12
  %63 = bitcast i8* %62 to %"class.FE_Nedelec<3>::InternalData"*
  %64 = icmp eq %"class.FE_Nedelec<3>::InternalData"* %63, null
  %65 = load i32, i32* @x.97
  %66 = load i32, i32* @y.98
  %67 = sub i32 %65, 1
  %68 = mul i32 %65, %67
  %69 = urem i32 %68, 2
  %70 = icmp eq i32 %69, 0
  %71 = icmp slt i32 %66, 10
  %72 = or i1 %70, %71
  br i1 %72, label %originalBBpart2, label %originalBBalteredBB

originalBBpart2:                                  ; preds = %originalBB
  br i1 %64, label %73, label %74

; <label>:73:                                     ; preds = %originalBBpart2
  call void @__cxa_bad_cast() #15
  unreachable

; <label>:74:                                     ; preds = %originalBBpart2
  store %"class.FE_Nedelec<3>::InternalData"* %63, %"class.FE_Nedelec<3>::InternalData"** %23, align 8
  %75 = load %"class.FE_Nedelec<3>::InternalData"*, %"class.FE_Nedelec<3>::InternalData"** %23, align 8
  %76 = bitcast %"class.FE_Nedelec<3>::InternalData"* %75 to %"class.Mapping<3>::InternalDataBase"*
  %77 = call i32 @_ZNK7MappingILi3EE16InternalDataBase20current_update_flagsEv(%"class.Mapping<3>::InternalDataBase"* %76)
  store i32 %77, i32* %24, align 4
  %78 = load %class.Quadrature*, %class.Quadrature** %19, align 8
  %79 = getelementptr inbounds %class.Quadrature, %class.Quadrature* %78, i32 0, i32 1
  %80 = load i32, i32* %79, align 8
  store i32 %80, i32* %25, align 4
  %81 = load i32, i32* %24, align 4
  %82 = call i32 @_Zan11UpdateFlagsS_(i32 %81, i32 1)
  %83 = icmp ne i32 %82, 0
  br i1 %83, label %84, label %363

; <label>:84:                                     ; preds = %74
  %85 = load i32, i32* %25, align 4
  %86 = zext i32 %85 to i64
  call void @_ZN6TensorILi1ELi3EEC2Eb(%class.Tensor* %27, i1 zeroext true)
  call void @_ZNSaI6TensorILi1ELi3EEEC2Ev(%"class.std::allocator.61"* %28) #12
  invoke void @_ZNSt6vectorI6TensorILi1ELi3EESaIS1_EEC2EmRKS1_RKS2_(%"class.std::vector.59"* %26, i64 %86, %class.Tensor* dereferenceable(24) %27, %"class.std::allocator.61"* dereferenceable(1) %28)
          to label %87 unwind label %265

; <label>:87:                                     ; preds = %84
  %88 = load i32, i32* @x.97
  %89 = load i32, i32* @y.98
  %90 = sub i32 %88, 1
  %91 = mul i32 %88, %90
  %92 = urem i32 %91, 2
  %93 = icmp eq i32 %92, 0
  %94 = icmp slt i32 %89, 10
  %95 = or i1 %93, %94
  br i1 %95, label %originalBB1, label %originalBB1alteredBB

originalBB1:                                      ; preds = %87, %originalBB1alteredBB
  call void @_ZNSaI6TensorILi1ELi3EEED2Ev(%"class.std::allocator.61"* %28) #12
  store i32 0, i32* %31, align 4
  %96 = load i32, i32* @x.97
  %97 = load i32, i32* @y.98
  %98 = sub i32 %96, 1
  %99 = mul i32 %96, %98
  %100 = urem i32 %99, 2
  %101 = icmp eq i32 %100, 0
  %102 = icmp slt i32 %97, 10
  %103 = or i1 %101, %102
  br i1 %103, label %originalBBpart24, label %originalBB1alteredBB

originalBBpart24:                                 ; preds = %originalBB1
  br label %104

; <label>:104:                                    ; preds = %originalBBpart258, %originalBBpart24
  %105 = load i32, i32* %31, align 4
  %106 = bitcast %class.FE_Nedelec* %59 to i8*
  %107 = getelementptr inbounds i8, i8* %106, i64 24
  %108 = bitcast i8* %107 to %class.FiniteElementData*
  %109 = getelementptr inbounds %class.FiniteElementData, %class.FiniteElementData* %108, i32 0, i32 10
  %110 = load i32, i32* %109, align 8
  %111 = icmp ult i32 %105, %110
  br i1 %111, label %112, label %345

; <label>:112:                                    ; preds = %104
  %113 = load %class.Mapping*, %class.Mapping** %17, align 8
  %114 = bitcast %class.Mapping* %113 to void (%class.Mapping*, %class.Tensor*, %class.Tensor*, %class.Tensor*, %"class.Mapping<3>::InternalDataBase"*)***
  %115 = load void (%class.Mapping*, %class.Tensor*, %class.Tensor*, %class.Tensor*, %"class.Mapping<3>::InternalDataBase"*)**, void (%class.Mapping*, %class.Tensor*, %class.Tensor*, %class.Tensor*, %"class.Mapping<3>::InternalDataBase"*)*** %114, align 8
  %116 = getelementptr inbounds void (%class.Mapping*, %class.Tensor*, %class.Tensor*, %class.Tensor*, %"class.Mapping<3>::InternalDataBase"*)*, void (%class.Mapping*, %class.Tensor*, %class.Tensor*, %class.Tensor*, %"class.Mapping<3>::InternalDataBase"*)** %115, i64 4
  %117 = load void (%class.Mapping*, %class.Tensor*, %class.Tensor*, %class.Tensor*, %"class.Mapping<3>::InternalDataBase"*)*, void (%class.Mapping*, %class.Tensor*, %class.Tensor*, %class.Tensor*, %"class.Mapping<3>::InternalDataBase"*)** %116, align 8
  %118 = invoke %class.Tensor* @_ZNSt6vectorI6TensorILi1ELi3EESaIS1_EE5beginEv(%"class.std::vector.59"* %26)
          to label %119 unwind label %285

; <label>:119:                                    ; preds = %112
  %120 = getelementptr inbounds %"class.__gnu_cxx::__normal_iterator", %"class.__gnu_cxx::__normal_iterator"* %32, i32 0, i32 0
  store %class.Tensor* %118, %class.Tensor** %120, align 8
  %121 = invoke dereferenceable(24) %class.Tensor* @_ZNK9__gnu_cxx17__normal_iteratorIP6TensorILi1ELi3EESt6vectorIS2_SaIS2_EEEdeEv(%"class.__gnu_cxx::__normal_iterator"* %32)
          to label %122 unwind label %285

; <label>:122:                                    ; preds = %119
  %123 = invoke %class.Tensor* @_ZNSt6vectorI6TensorILi1ELi3EESaIS1_EE5beginEv(%"class.std::vector.59"* %26)
          to label %124 unwind label %285

; <label>:124:                                    ; preds = %122
  %125 = load i32, i32* @x.97
  %126 = load i32, i32* @y.98
  %127 = sub i32 %125, 1
  %128 = mul i32 %125, %127
  %129 = urem i32 %128, 2
  %130 = icmp eq i32 %129, 0
  %131 = icmp slt i32 %126, 10
  %132 = or i1 %130, %131
  br i1 %132, label %originalBB6, label %originalBB6alteredBB

originalBB6:                                      ; preds = %124, %originalBB6alteredBB
  %133 = getelementptr inbounds %"class.__gnu_cxx::__normal_iterator", %"class.__gnu_cxx::__normal_iterator"* %33, i32 0, i32 0
  store %class.Tensor* %123, %class.Tensor** %133, align 8
  %134 = load i32, i32* @x.97
  %135 = load i32, i32* @y.98
  %136 = sub i32 %134, 1
  %137 = mul i32 %134, %136
  %138 = urem i32 %137, 2
  %139 = icmp eq i32 %138, 0
  %140 = icmp slt i32 %135, 10
  %141 = or i1 %139, %140
  br i1 %141, label %originalBBpart28, label %originalBB6alteredBB

originalBBpart28:                                 ; preds = %originalBB6
  %142 = invoke dereferenceable(24) %class.Tensor* @_ZNK9__gnu_cxx17__normal_iteratorIP6TensorILi1ELi3EESt6vectorIS2_SaIS2_EEEdeEv(%"class.__gnu_cxx::__normal_iterator"* %33)
          to label %143 unwind label %285

; <label>:143:                                    ; preds = %originalBBpart28
  %144 = load i32, i32* @x.97
  %145 = load i32, i32* @y.98
  %146 = sub i32 %144, 1
  %147 = mul i32 %144, %146
  %148 = urem i32 %147, 2
  %149 = icmp eq i32 %148, 0
  %150 = icmp slt i32 %145, 10
  %151 = or i1 %149, %150
  br i1 %151, label %originalBB10, label %originalBB10alteredBB

originalBB10:                                     ; preds = %143, %originalBB10alteredBB
  %152 = load i32, i32* @x.97
  %153 = load i32, i32* @y.98
  %154 = sub i32 %152, 1
  %155 = mul i32 %152, %154
  %156 = urem i32 %155, 2
  %157 = icmp eq i32 %156, 0
  %158 = icmp slt i32 %153, 10
  %159 = or i1 %157, %158
  br i1 %159, label %originalBBpart212, label %originalBB10alteredBB

originalBBpart212:                                ; preds = %originalBB10
  %160 = invoke i64 @_ZNKSt6vectorI6TensorILi1ELi3EESaIS1_EE4sizeEv(%"class.std::vector.59"* %26)
          to label %161 unwind label %285

; <label>:161:                                    ; preds = %originalBBpart212
  %162 = getelementptr inbounds %class.Tensor, %class.Tensor* %142, i64 %160
  %163 = load %"class.FE_Nedelec<3>::InternalData"*, %"class.FE_Nedelec<3>::InternalData"** %23, align 8
  %164 = getelementptr inbounds %"class.FE_Nedelec<3>::InternalData", %"class.FE_Nedelec<3>::InternalData"* %163, i32 0, i32 1
  %165 = load i32, i32* %31, align 4
  invoke void @_ZN5TableILi2E6TensorILi1ELi3EEEixEj(%"class.internal::TableBaseAccessors::Accessor"* sret %34, %class.Table.50* %164, i32 %165)
          to label %166 unwind label %285

; <label>:166:                                    ; preds = %161
  %167 = invoke %class.Tensor* @_ZNK8internal18TableBaseAccessors8AccessorILi2E6TensorILi1ELi3EELb0ELj1EE5beginEv(%"class.internal::TableBaseAccessors::Accessor"* %34)
          to label %168 unwind label %285

; <label>:168:                                    ; preds = %166
  %169 = load i32, i32* @x.97
  %170 = load i32, i32* @y.98
  %171 = sub i32 %169, 1
  %172 = mul i32 %169, %171
  %173 = urem i32 %172, 2
  %174 = icmp eq i32 %173, 0
  %175 = icmp slt i32 %170, 10
  %176 = or i1 %174, %175
  br i1 %176, label %originalBB14, label %originalBB14alteredBB

originalBB14:                                     ; preds = %168, %originalBB14alteredBB
  %177 = load %"class.Mapping<3>::InternalDataBase"*, %"class.Mapping<3>::InternalDataBase"** %20, align 8
  %178 = load i32, i32* @x.97
  %179 = load i32, i32* @y.98
  %180 = sub i32 %178, 1
  %181 = mul i32 %178, %180
  %182 = urem i32 %181, 2
  %183 = icmp eq i32 %182, 0
  %184 = icmp slt i32 %179, 10
  %185 = or i1 %183, %184
  br i1 %185, label %originalBBpart216, label %originalBB14alteredBB

originalBBpart216:                                ; preds = %originalBB14
  invoke void %117(%class.Mapping* %113, %class.Tensor* %121, %class.Tensor* %162, %class.Tensor* %167, %"class.Mapping<3>::InternalDataBase"* dereferenceable(40) %177)
          to label %186 unwind label %285

; <label>:186:                                    ; preds = %originalBBpart216
  store i32 0, i32* %35, align 4
  br label %187

; <label>:187:                                    ; preds = %306, %186
  %188 = load i32, i32* @x.97
  %189 = load i32, i32* @y.98
  %190 = sub i32 %188, 1
  %191 = mul i32 %188, %190
  %192 = urem i32 %191, 2
  %193 = icmp eq i32 %192, 0
  %194 = icmp slt i32 %189, 10
  %195 = or i1 %193, %194
  br i1 %195, label %originalBB18, label %originalBB18alteredBB

originalBB18:                                     ; preds = %187, %originalBB18alteredBB
  %196 = load i32, i32* %35, align 4
  %197 = load i32, i32* %25, align 4
  %198 = icmp ult i32 %196, %197
  %199 = load i32, i32* @x.97
  %200 = load i32, i32* @y.98
  %201 = sub i32 %199, 1
  %202 = mul i32 %199, %201
  %203 = urem i32 %202, 2
  %204 = icmp eq i32 %203, 0
  %205 = icmp slt i32 %200, 10
  %206 = or i1 %204, %205
  br i1 %206, label %originalBBpart220, label %originalBB18alteredBB

originalBBpart220:                                ; preds = %originalBB18
  br i1 %198, label %207, label %309

; <label>:207:                                    ; preds = %originalBBpart220
  store i32 0, i32* %36, align 4
  br label %208

; <label>:208:                                    ; preds = %262, %207
  %209 = load i32, i32* %36, align 4
  %210 = icmp ult i32 %209, 3
  br i1 %210, label %211, label %289

; <label>:211:                                    ; preds = %208
  %212 = load i32, i32* %35, align 4
  %213 = zext i32 %212 to i64
  %214 = invoke dereferenceable(24) %class.Tensor* @_ZNSt6vectorI6TensorILi1ELi3EESaIS1_EEixEm(%"class.std::vector.59"* %26, i64 %213)
          to label %215 unwind label %285

; <label>:215:                                    ; preds = %211
  %216 = load i32, i32* %36, align 4
  %217 = invoke dereferenceable(8) double* @_ZN6TensorILi1ELi3EEixEj(%class.Tensor* %214, i32 %216)
          to label %218 unwind label %285

; <label>:218:                                    ; preds = %215
  %219 = load i32, i32* @x.97
  %220 = load i32, i32* @y.98
  %221 = sub i32 %219, 1
  %222 = mul i32 %219, %221
  %223 = urem i32 %222, 2
  %224 = icmp eq i32 %223, 0
  %225 = icmp slt i32 %220, 10
  %226 = or i1 %224, %225
  br i1 %226, label %originalBB22, label %originalBB22alteredBB

originalBB22:                                     ; preds = %218, %originalBB22alteredBB
  %227 = load double, double* %217, align 8
  %228 = load %class.FEValuesData*, %class.FEValuesData** %22, align 8
  %229 = getelementptr inbounds %class.FEValuesData, %class.FEValuesData* %228, i32 0, i32 0
  %230 = load i32, i32* %31, align 4
  %231 = mul i32 %230, 3
  %232 = load i32, i32* %36, align 4
  %233 = add i32 %231, %232
  %234 = load i32, i32* @x.97
  %235 = load i32, i32* @y.98
  %236 = sub i32 %234, 1
  %237 = mul i32 %234, %236
  %238 = urem i32 %237, 2
  %239 = icmp eq i32 %238, 0
  %240 = icmp slt i32 %235, 10
  %241 = or i1 %239, %240
  br i1 %241, label %originalBBpart232, label %originalBB22alteredBB

originalBBpart232:                                ; preds = %originalBB22
  invoke void @_ZN5TableILi2EdEixEj(%"class.internal::TableBaseAccessors::Accessor.64"* sret %37, %class.Table* %229, i32 %233)
          to label %242 unwind label %285

; <label>:242:                                    ; preds = %originalBBpart232
  %243 = load i32, i32* @x.97
  %244 = load i32, i32* @y.98
  %245 = sub i32 %243, 1
  %246 = mul i32 %243, %245
  %247 = urem i32 %246, 2
  %248 = icmp eq i32 %247, 0
  %249 = icmp slt i32 %244, 10
  %250 = or i1 %248, %249
  br i1 %250, label %originalBB34, label %originalBB34alteredBB

originalBB34:                                     ; preds = %242, %originalBB34alteredBB
  %251 = load i32, i32* %35, align 4
  %252 = load i32, i32* @x.97
  %253 = load i32, i32* @y.98
  %254 = sub i32 %252, 1
  %255 = mul i32 %252, %254
  %256 = urem i32 %255, 2
  %257 = icmp eq i32 %256, 0
  %258 = icmp slt i32 %253, 10
  %259 = or i1 %257, %258
  br i1 %259, label %originalBBpart236, label %originalBB34alteredBB

originalBBpart236:                                ; preds = %originalBB34
  %260 = invoke dereferenceable(8) double* @_ZNK8internal18TableBaseAccessors8AccessorILi2EdLb0ELj1EEixEj(%"class.internal::TableBaseAccessors::Accessor.64"* %37, i32 %251)
          to label %261 unwind label %285

; <label>:261:                                    ; preds = %originalBBpart236
  store double %227, double* %260, align 8
  br label %262

; <label>:262:                                    ; preds = %261
  %263 = load i32, i32* %36, align 4
  %264 = add i32 %263, 1
  store i32 %264, i32* %36, align 4
  br label %208

; <label>:265:                                    ; preds = %84
  %266 = load i32, i32* @x.97
  %267 = load i32, i32* @y.98
  %268 = sub i32 %266, 1
  %269 = mul i32 %266, %268
  %270 = urem i32 %269, 2
  %271 = icmp eq i32 %270, 0
  %272 = icmp slt i32 %267, 10
  %273 = or i1 %271, %272
  br i1 %273, label %originalBB38, label %originalBB38alteredBB

originalBB38:                                     ; preds = %265, %originalBB38alteredBB
  %274 = landingpad { i8*, i32 }
          cleanup
  %275 = extractvalue { i8*, i32 } %274, 0
  store i8* %275, i8** %29, align 8
  %276 = extractvalue { i8*, i32 } %274, 1
  store i32 %276, i32* %30, align 4
  call void @_ZNSaI6TensorILi1ELi3EEED2Ev(%"class.std::allocator.61"* %28) #12
  %277 = load i32, i32* @x.97
  %278 = load i32, i32* @y.98
  %279 = sub i32 %277, 1
  %280 = mul i32 %277, %279
  %281 = urem i32 %280, 2
  %282 = icmp eq i32 %281, 0
  %283 = icmp slt i32 %278, 10
  %284 = or i1 %282, %283
  br i1 %284, label %originalBBpart240, label %originalBB38alteredBB

originalBBpart240:                                ; preds = %originalBB38
  br label %951

; <label>:285:                                    ; preds = %originalBBpart236, %originalBBpart232, %215, %211, %originalBBpart216, %166, %161, %originalBBpart212, %originalBBpart28, %122, %119, %112
  %286 = landingpad { i8*, i32 }
          cleanup
  %287 = extractvalue { i8*, i32 } %286, 0
  store i8* %287, i8** %29, align 8
  %288 = extractvalue { i8*, i32 } %286, 1
  store i32 %288, i32* %30, align 4
  invoke void @_ZNSt6vectorI6TensorILi1ELi3EESaIS1_EED2Ev(%"class.std::vector.59"* %26)
          to label %346 unwind label %956

; <label>:289:                                    ; preds = %208
  %290 = load i32, i32* @x.97
  %291 = load i32, i32* @y.98
  %292 = sub i32 %290, 1
  %293 = mul i32 %290, %292
  %294 = urem i32 %293, 2
  %295 = icmp eq i32 %294, 0
  %296 = icmp slt i32 %291, 10
  %297 = or i1 %295, %296
  br i1 %297, label %originalBB42, label %originalBB42alteredBB

originalBB42:                                     ; preds = %289, %originalBB42alteredBB
  %298 = load i32, i32* @x.97
  %299 = load i32, i32* @y.98
  %300 = sub i32 %298, 1
  %301 = mul i32 %298, %300
  %302 = urem i32 %301, 2
  %303 = icmp eq i32 %302, 0
  %304 = icmp slt i32 %299, 10
  %305 = or i1 %303, %304
  br i1 %305, label %originalBBpart244, label %originalBB42alteredBB

originalBBpart244:                                ; preds = %originalBB42
  br label %306

; <label>:306:                                    ; preds = %originalBBpart244
  %307 = load i32, i32* %35, align 4
  %308 = add i32 %307, 1
  store i32 %308, i32* %35, align 4
  br label %187

; <label>:309:                                    ; preds = %originalBBpart220
  %310 = load i32, i32* @x.97
  %311 = load i32, i32* @y.98
  %312 = sub i32 %310, 1
  %313 = mul i32 %310, %312
  %314 = urem i32 %313, 2
  %315 = icmp eq i32 %314, 0
  %316 = icmp slt i32 %311, 10
  %317 = or i1 %315, %316
  br i1 %317, label %originalBB46, label %originalBB46alteredBB

originalBB46:                                     ; preds = %309, %originalBB46alteredBB
  %318 = load i32, i32* @x.97
  %319 = load i32, i32* @y.98
  %320 = sub i32 %318, 1
  %321 = mul i32 %318, %320
  %322 = urem i32 %321, 2
  %323 = icmp eq i32 %322, 0
  %324 = icmp slt i32 %319, 10
  %325 = or i1 %323, %324
  br i1 %325, label %originalBBpart248, label %originalBB46alteredBB

originalBBpart248:                                ; preds = %originalBB46
  br label %326

; <label>:326:                                    ; preds = %originalBBpart248
  %327 = load i32, i32* @x.97
  %328 = load i32, i32* @y.98
  %329 = sub i32 %327, 1
  %330 = mul i32 %327, %329
  %331 = urem i32 %330, 2
  %332 = icmp eq i32 %331, 0
  %333 = icmp slt i32 %328, 10
  %334 = or i1 %332, %333
  br i1 %334, label %originalBB50, label %originalBB50alteredBB

originalBB50:                                     ; preds = %326, %originalBB50alteredBB
  %335 = load i32, i32* %31, align 4
  %336 = add i32 %335, 1
  store i32 %336, i32* %31, align 4
  %337 = load i32, i32* @x.97
  %338 = load i32, i32* @y.98
  %339 = sub i32 %337, 1
  %340 = mul i32 %337, %339
  %341 = urem i32 %340, 2
  %342 = icmp eq i32 %341, 0
  %343 = icmp slt i32 %338, 10
  %344 = or i1 %342, %343
  br i1 %344, label %originalBBpart258, label %originalBB50alteredBB

originalBBpart258:                                ; preds = %originalBB50
  br label %104

; <label>:345:                                    ; preds = %104
  call void @_ZNSt6vectorI6TensorILi1ELi3EESaIS1_EED2Ev(%"class.std::vector.59"* %26)
  br label %363

; <label>:346:                                    ; preds = %285
  %347 = load i32, i32* @x.97
  %348 = load i32, i32* @y.98
  %349 = sub i32 %347, 1
  %350 = mul i32 %347, %349
  %351 = urem i32 %350, 2
  %352 = icmp eq i32 %351, 0
  %353 = icmp slt i32 %348, 10
  %354 = or i1 %352, %353
  br i1 %354, label %originalBB60, label %originalBB60alteredBB

originalBB60:                                     ; preds = %346, %originalBB60alteredBB
  %355 = load i32, i32* @x.97
  %356 = load i32, i32* @y.98
  %357 = sub i32 %355, 1
  %358 = mul i32 %355, %357
  %359 = urem i32 %358, 2
  %360 = icmp eq i32 %359, 0
  %361 = icmp slt i32 %356, 10
  %362 = or i1 %360, %361
  br i1 %362, label %originalBBpart262, label %originalBB60alteredBB

originalBBpart262:                                ; preds = %originalBB60
  br label %951

; <label>:363:                                    ; preds = %345, %74
  %364 = load i32, i32* %24, align 4
  %365 = call i32 @_Zan11UpdateFlagsS_(i32 %364, i32 2)
  %366 = icmp ne i32 %365, 0
  br i1 %366, label %367, label %903

; <label>:367:                                    ; preds = %363
  %368 = load i32, i32* %25, align 4
  %369 = zext i32 %368 to i64
  call void @_ZN6TensorILi2ELi3EEC2Ev(%class.Tensor.33* %39)
  call void @_ZNSaI6TensorILi2ELi3EEEC2Ev(%"class.std::allocator.67"* %40) #12
  invoke void @_ZNSt6vectorI6TensorILi2ELi3EESaIS1_EEC2EmRKS1_RKS2_(%"class.std::vector.65"* %38, i64 %369, %class.Tensor.33* dereferenceable(72) %39, %"class.std::allocator.67"* dereferenceable(1) %40)
          to label %370 unwind label %589

; <label>:370:                                    ; preds = %367
  %371 = load i32, i32* @x.97
  %372 = load i32, i32* @y.98
  %373 = sub i32 %371, 1
  %374 = mul i32 %371, %373
  %375 = urem i32 %374, 2
  %376 = icmp eq i32 %375, 0
  %377 = icmp slt i32 %372, 10
  %378 = or i1 %376, %377
  br i1 %378, label %originalBB64, label %originalBB64alteredBB

originalBB64:                                     ; preds = %370, %originalBB64alteredBB
  call void @_ZNSaI6TensorILi2ELi3EEED2Ev(%"class.std::allocator.67"* %40) #12
  %379 = load i32, i32* %25, align 4
  %380 = zext i32 %379 to i64
  %381 = load i32, i32* @x.97
  %382 = load i32, i32* @y.98
  %383 = sub i32 %381, 1
  %384 = mul i32 %381, %383
  %385 = urem i32 %384, 2
  %386 = icmp eq i32 %385, 0
  %387 = icmp slt i32 %382, 10
  %388 = or i1 %386, %387
  br i1 %388, label %originalBBpart266, label %originalBB64alteredBB

originalBBpart266:                                ; preds = %originalBB64
  invoke void @_ZN6TensorILi2ELi3EEC2Ev(%class.Tensor.33* %42)
          to label %389 unwind label %609

; <label>:389:                                    ; preds = %originalBBpart266
  %390 = load i32, i32* @x.97
  %391 = load i32, i32* @y.98
  %392 = sub i32 %390, 1
  %393 = mul i32 %390, %392
  %394 = urem i32 %393, 2
  %395 = icmp eq i32 %394, 0
  %396 = icmp slt i32 %391, 10
  %397 = or i1 %395, %396
  br i1 %397, label %originalBB68, label %originalBB68alteredBB

originalBB68:                                     ; preds = %389, %originalBB68alteredBB
  call void @_ZNSaI6TensorILi2ELi3EEEC2Ev(%"class.std::allocator.67"* %43) #12
  %398 = load i32, i32* @x.97
  %399 = load i32, i32* @y.98
  %400 = sub i32 %398, 1
  %401 = mul i32 %398, %400
  %402 = urem i32 %401, 2
  %403 = icmp eq i32 %402, 0
  %404 = icmp slt i32 %399, 10
  %405 = or i1 %403, %404
  br i1 %405, label %originalBBpart270, label %originalBB68alteredBB

originalBBpart270:                                ; preds = %originalBB68
  invoke void @_ZNSt6vectorI6TensorILi2ELi3EESaIS1_EEC2EmRKS1_RKS2_(%"class.std::vector.65"* %41, i64 %380, %class.Tensor.33* dereferenceable(72) %42, %"class.std::allocator.67"* dereferenceable(1) %43)
          to label %406 unwind label %629

; <label>:406:                                    ; preds = %originalBBpart270
  %407 = load i32, i32* @x.97
  %408 = load i32, i32* @y.98
  %409 = sub i32 %407, 1
  %410 = mul i32 %407, %409
  %411 = urem i32 %410, 2
  %412 = icmp eq i32 %411, 0
  %413 = icmp slt i32 %408, 10
  %414 = or i1 %412, %413
  br i1 %414, label %originalBB72, label %originalBB72alteredBB

originalBB72:                                     ; preds = %406, %originalBB72alteredBB
  call void @_ZNSaI6TensorILi2ELi3EEED2Ev(%"class.std::allocator.67"* %43) #12
  store i32 0, i32* %44, align 4
  %415 = load i32, i32* @x.97
  %416 = load i32, i32* @y.98
  %417 = sub i32 %415, 1
  %418 = mul i32 %415, %417
  %419 = urem i32 %418, 2
  %420 = icmp eq i32 %419, 0
  %421 = icmp slt i32 %416, 10
  %422 = or i1 %420, %421
  br i1 %422, label %originalBBpart274, label %originalBB72alteredBB

originalBBpart274:                                ; preds = %originalBB72
  br label %423

; <label>:423:                                    ; preds = %847, %originalBBpart274
  %424 = load i32, i32* %44, align 4
  %425 = bitcast %class.FE_Nedelec* %59 to i8*
  %426 = getelementptr inbounds i8, i8* %425, i64 24
  %427 = bitcast i8* %426 to %class.FiniteElementData*
  %428 = getelementptr inbounds %class.FiniteElementData, %class.FiniteElementData* %427, i32 0, i32 10
  %429 = load i32, i32* %428, align 8
  %430 = icmp ult i32 %424, %429
  br i1 %430, label %431, label %850

; <label>:431:                                    ; preds = %423
  %432 = load %class.Mapping*, %class.Mapping** %17, align 8
  %433 = bitcast %class.Mapping* %432 to void (%class.Mapping*, %class.Tensor.33*, %class.Tensor.33*, %class.Tensor.33*, %"class.Mapping<3>::InternalDataBase"*)***
  %434 = load void (%class.Mapping*, %class.Tensor.33*, %class.Tensor.33*, %class.Tensor.33*, %"class.Mapping<3>::InternalDataBase"*)**, void (%class.Mapping*, %class.Tensor.33*, %class.Tensor.33*, %class.Tensor.33*, %"class.Mapping<3>::InternalDataBase"*)*** %433, align 8
  %435 = getelementptr inbounds void (%class.Mapping*, %class.Tensor.33*, %class.Tensor.33*, %class.Tensor.33*, %"class.Mapping<3>::InternalDataBase"*)*, void (%class.Mapping*, %class.Tensor.33*, %class.Tensor.33*, %class.Tensor.33*, %"class.Mapping<3>::InternalDataBase"*)** %434, i64 5
  %436 = load void (%class.Mapping*, %class.Tensor.33*, %class.Tensor.33*, %class.Tensor.33*, %"class.Mapping<3>::InternalDataBase"*)*, void (%class.Mapping*, %class.Tensor.33*, %class.Tensor.33*, %class.Tensor.33*, %"class.Mapping<3>::InternalDataBase"*)** %435, align 8
  %437 = invoke %class.Tensor.33* @_ZNSt6vectorI6TensorILi2ELi3EESaIS1_EE5beginEv(%"class.std::vector.65"* %38)
          to label %438 unwind label %633

; <label>:438:                                    ; preds = %431
  %439 = load i32, i32* @x.97
  %440 = load i32, i32* @y.98
  %441 = sub i32 %439, 1
  %442 = mul i32 %439, %441
  %443 = urem i32 %442, 2
  %444 = icmp eq i32 %443, 0
  %445 = icmp slt i32 %440, 10
  %446 = or i1 %444, %445
  br i1 %446, label %originalBB76, label %originalBB76alteredBB

originalBB76:                                     ; preds = %438, %originalBB76alteredBB
  %447 = getelementptr inbounds %"class.__gnu_cxx::__normal_iterator.70", %"class.__gnu_cxx::__normal_iterator.70"* %45, i32 0, i32 0
  store %class.Tensor.33* %437, %class.Tensor.33** %447, align 8
  %448 = load i32, i32* @x.97
  %449 = load i32, i32* @y.98
  %450 = sub i32 %448, 1
  %451 = mul i32 %448, %450
  %452 = urem i32 %451, 2
  %453 = icmp eq i32 %452, 0
  %454 = icmp slt i32 %449, 10
  %455 = or i1 %453, %454
  br i1 %455, label %originalBBpart278, label %originalBB76alteredBB

originalBBpart278:                                ; preds = %originalBB76
  %456 = invoke dereferenceable(72) %class.Tensor.33* @_ZNK9__gnu_cxx17__normal_iteratorIP6TensorILi2ELi3EESt6vectorIS2_SaIS2_EEEdeEv(%"class.__gnu_cxx::__normal_iterator.70"* %45)
          to label %457 unwind label %633

; <label>:457:                                    ; preds = %originalBBpart278
  %458 = load i32, i32* @x.97
  %459 = load i32, i32* @y.98
  %460 = sub i32 %458, 1
  %461 = mul i32 %458, %460
  %462 = urem i32 %461, 2
  %463 = icmp eq i32 %462, 0
  %464 = icmp slt i32 %459, 10
  %465 = or i1 %463, %464
  br i1 %465, label %originalBB80, label %originalBB80alteredBB

originalBB80:                                     ; preds = %457, %originalBB80alteredBB
  %466 = load i32, i32* @x.97
  %467 = load i32, i32* @y.98
  %468 = sub i32 %466, 1
  %469 = mul i32 %466, %468
  %470 = urem i32 %469, 2
  %471 = icmp eq i32 %470, 0
  %472 = icmp slt i32 %467, 10
  %473 = or i1 %471, %472
  br i1 %473, label %originalBBpart282, label %originalBB80alteredBB

originalBBpart282:                                ; preds = %originalBB80
  %474 = invoke %class.Tensor.33* @_ZNSt6vectorI6TensorILi2ELi3EESaIS1_EE5beginEv(%"class.std::vector.65"* %38)
          to label %475 unwind label %633

; <label>:475:                                    ; preds = %originalBBpart282
  %476 = load i32, i32* @x.97
  %477 = load i32, i32* @y.98
  %478 = sub i32 %476, 1
  %479 = mul i32 %476, %478
  %480 = urem i32 %479, 2
  %481 = icmp eq i32 %480, 0
  %482 = icmp slt i32 %477, 10
  %483 = or i1 %481, %482
  br i1 %483, label %originalBB84, label %originalBB84alteredBB

originalBB84:                                     ; preds = %475, %originalBB84alteredBB
  %484 = getelementptr inbounds %"class.__gnu_cxx::__normal_iterator.70", %"class.__gnu_cxx::__normal_iterator.70"* %46, i32 0, i32 0
  store %class.Tensor.33* %474, %class.Tensor.33** %484, align 8
  %485 = load i32, i32* @x.97
  %486 = load i32, i32* @y.98
  %487 = sub i32 %485, 1
  %488 = mul i32 %485, %487
  %489 = urem i32 %488, 2
  %490 = icmp eq i32 %489, 0
  %491 = icmp slt i32 %486, 10
  %492 = or i1 %490, %491
  br i1 %492, label %originalBBpart286, label %originalBB84alteredBB

originalBBpart286:                                ; preds = %originalBB84
  %493 = invoke dereferenceable(72) %class.Tensor.33* @_ZNK9__gnu_cxx17__normal_iteratorIP6TensorILi2ELi3EESt6vectorIS2_SaIS2_EEEdeEv(%"class.__gnu_cxx::__normal_iterator.70"* %46)
          to label %494 unwind label %633

; <label>:494:                                    ; preds = %originalBBpart286
  %495 = invoke i64 @_ZNKSt6vectorI6TensorILi2ELi3EESaIS1_EE4sizeEv(%"class.std::vector.65"* %38)
          to label %496 unwind label %633

; <label>:496:                                    ; preds = %494
  %497 = getelementptr inbounds %class.Tensor.33, %class.Tensor.33* %493, i64 %495
  %498 = load %"class.FE_Nedelec<3>::InternalData"*, %"class.FE_Nedelec<3>::InternalData"** %23, align 8
  %499 = getelementptr inbounds %"class.FE_Nedelec<3>::InternalData", %"class.FE_Nedelec<3>::InternalData"* %498, i32 0, i32 2
  %500 = load i32, i32* %44, align 4
  invoke void @_ZN5TableILi2E6TensorILi2ELi3EEEixEj(%"class.internal::TableBaseAccessors::Accessor.58"* sret %47, %class.Table.54* %499, i32 %500)
          to label %501 unwind label %633

; <label>:501:                                    ; preds = %496
  %502 = invoke %class.Tensor.33* @_ZNK8internal18TableBaseAccessors8AccessorILi2E6TensorILi2ELi3EELb0ELj1EE5beginEv(%"class.internal::TableBaseAccessors::Accessor.58"* %47)
          to label %503 unwind label %633

; <label>:503:                                    ; preds = %501
  %504 = load i32, i32* @x.97
  %505 = load i32, i32* @y.98
  %506 = sub i32 %504, 1
  %507 = mul i32 %504, %506
  %508 = urem i32 %507, 2
  %509 = icmp eq i32 %508, 0
  %510 = icmp slt i32 %505, 10
  %511 = or i1 %509, %510
  br i1 %511, label %originalBB88, label %originalBB88alteredBB

originalBB88:                                     ; preds = %503, %originalBB88alteredBB
  %512 = load %"class.Mapping<3>::InternalDataBase"*, %"class.Mapping<3>::InternalDataBase"** %20, align 8
  %513 = load i32, i32* @x.97
  %514 = load i32, i32* @y.98
  %515 = sub i32 %513, 1
  %516 = mul i32 %513, %515
  %517 = urem i32 %516, 2
  %518 = icmp eq i32 %517, 0
  %519 = icmp slt i32 %514, 10
  %520 = or i1 %518, %519
  br i1 %520, label %originalBBpart290, label %originalBB88alteredBB

originalBBpart290:                                ; preds = %originalBB88
  invoke void %436(%class.Mapping* %432, %class.Tensor.33* %456, %class.Tensor.33* %497, %class.Tensor.33* %502, %"class.Mapping<3>::InternalDataBase"* dereferenceable(40) %512)
          to label %521 unwind label %633

; <label>:521:                                    ; preds = %originalBBpart290
  store i32 0, i32* %48, align 4
  br label %522

; <label>:522:                                    ; preds = %586, %521
  %523 = load i32, i32* @x.97
  %524 = load i32, i32* @y.98
  %525 = sub i32 %523, 1
  %526 = mul i32 %523, %525
  %527 = urem i32 %526, 2
  %528 = icmp eq i32 %527, 0
  %529 = icmp slt i32 %524, 10
  %530 = or i1 %528, %529
  br i1 %530, label %originalBB92, label %originalBB92alteredBB

originalBB92:                                     ; preds = %522, %originalBB92alteredBB
  %531 = load i32, i32* %48, align 4
  %532 = load i32, i32* %25, align 4
  %533 = icmp ult i32 %531, %532
  %534 = load i32, i32* @x.97
  %535 = load i32, i32* @y.98
  %536 = sub i32 %534, 1
  %537 = mul i32 %534, %536
  %538 = urem i32 %537, 2
  %539 = icmp eq i32 %538, 0
  %540 = icmp slt i32 %535, 10
  %541 = or i1 %539, %540
  br i1 %541, label %originalBBpart294, label %originalBB92alteredBB

originalBBpart294:                                ; preds = %originalBB92
  br i1 %533, label %542, label %637

; <label>:542:                                    ; preds = %originalBBpart294
  %543 = load i32, i32* @x.97
  %544 = load i32, i32* @y.98
  %545 = sub i32 %543, 1
  %546 = mul i32 %543, %545
  %547 = urem i32 %546, 2
  %548 = icmp eq i32 %547, 0
  %549 = icmp slt i32 %544, 10
  %550 = or i1 %548, %549
  br i1 %550, label %originalBB96, label %originalBB96alteredBB

originalBB96:                                     ; preds = %542, %originalBB96alteredBB
  %551 = load i32, i32* %48, align 4
  %552 = zext i32 %551 to i64
  %553 = load i32, i32* @x.97
  %554 = load i32, i32* @y.98
  %555 = sub i32 %553, 1
  %556 = mul i32 %553, %555
  %557 = urem i32 %556, 2
  %558 = icmp eq i32 %557, 0
  %559 = icmp slt i32 %554, 10
  %560 = or i1 %558, %559
  br i1 %560, label %originalBBpart298, label %originalBB96alteredBB

originalBBpart298:                                ; preds = %originalBB96
  %561 = invoke dereferenceable(72) %class.Tensor.33* @_ZNSt6vectorI6TensorILi2ELi3EESaIS1_EEixEm(%"class.std::vector.65"* %38, i64 %552)
          to label %562 unwind label %633

; <label>:562:                                    ; preds = %originalBBpart298
  invoke void @_Z9transposeRK6TensorILi2ELi3EE(%class.Tensor.33* sret %49, %class.Tensor.33* dereferenceable(72) %561)
          to label %563 unwind label %633

; <label>:563:                                    ; preds = %562
  %564 = load i32, i32* %48, align 4
  %565 = zext i32 %564 to i64
  %566 = invoke dereferenceable(72) %class.Tensor.33* @_ZNSt6vectorI6TensorILi2ELi3EESaIS1_EEixEm(%"class.std::vector.65"* %41, i64 %565)
          to label %567 unwind label %633

; <label>:567:                                    ; preds = %563
  %568 = load i32, i32* @x.97
  %569 = load i32, i32* @y.98
  %570 = sub i32 %568, 1
  %571 = mul i32 %568, %570
  %572 = urem i32 %571, 2
  %573 = icmp eq i32 %572, 0
  %574 = icmp slt i32 %569, 10
  %575 = or i1 %573, %574
  br i1 %575, label %originalBB100, label %originalBB100alteredBB

originalBB100:                                    ; preds = %567, %originalBB100alteredBB
  %576 = load i32, i32* @x.97
  %577 = load i32, i32* @y.98
  %578 = sub i32 %576, 1
  %579 = mul i32 %576, %578
  %580 = urem i32 %579, 2
  %581 = icmp eq i32 %580, 0
  %582 = icmp slt i32 %577, 10
  %583 = or i1 %581, %582
  br i1 %583, label %originalBBpart2102, label %originalBB100alteredBB

originalBBpart2102:                               ; preds = %originalBB100
  %584 = invoke dereferenceable(72) %class.Tensor.33* @_ZN6TensorILi2ELi3EEaSERKS0_(%class.Tensor.33* %566, %class.Tensor.33* dereferenceable(72) %49)
          to label %585 unwind label %633

; <label>:585:                                    ; preds = %originalBBpart2102
  br label %586

; <label>:586:                                    ; preds = %585
  %587 = load i32, i32* %48, align 4
  %588 = add i32 %587, 1
  store i32 %588, i32* %48, align 4
  br label %522

; <label>:589:                                    ; preds = %367
  %590 = load i32, i32* @x.97
  %591 = load i32, i32* @y.98
  %592 = sub i32 %590, 1
  %593 = mul i32 %590, %592
  %594 = urem i32 %593, 2
  %595 = icmp eq i32 %594, 0
  %596 = icmp slt i32 %591, 10
  %597 = or i1 %595, %596
  br i1 %597, label %originalBB104, label %originalBB104alteredBB

originalBB104:                                    ; preds = %589, %originalBB104alteredBB
  %598 = landingpad { i8*, i32 }
          cleanup
  %599 = extractvalue { i8*, i32 } %598, 0
  store i8* %599, i8** %29, align 8
  %600 = extractvalue { i8*, i32 } %598, 1
  store i32 %600, i32* %30, align 4
  call void @_ZNSaI6TensorILi2ELi3EEED2Ev(%"class.std::allocator.67"* %40) #12
  %601 = load i32, i32* @x.97
  %602 = load i32, i32* @y.98
  %603 = sub i32 %601, 1
  %604 = mul i32 %601, %603
  %605 = urem i32 %604, 2
  %606 = icmp eq i32 %605, 0
  %607 = icmp slt i32 %602, 10
  %608 = or i1 %606, %607
  br i1 %608, label %originalBBpart2106, label %originalBB104alteredBB

originalBBpart2106:                               ; preds = %originalBB104
  br label %951

; <label>:609:                                    ; preds = %originalBBpart2152, %originalBBpart266
  %610 = load i32, i32* @x.97
  %611 = load i32, i32* @y.98
  %612 = sub i32 %610, 1
  %613 = mul i32 %610, %612
  %614 = urem i32 %613, 2
  %615 = icmp eq i32 %614, 0
  %616 = icmp slt i32 %611, 10
  %617 = or i1 %615, %616
  br i1 %617, label %originalBB108, label %originalBB108alteredBB

originalBB108:                                    ; preds = %609, %originalBB108alteredBB
  %618 = landingpad { i8*, i32 }
          cleanup
  %619 = extractvalue { i8*, i32 } %618, 0
  store i8* %619, i8** %29, align 8
  %620 = extractvalue { i8*, i32 } %618, 1
  store i32 %620, i32* %30, align 4
  %621 = load i32, i32* @x.97
  %622 = load i32, i32* @y.98
  %623 = sub i32 %621, 1
  %624 = mul i32 %621, %623
  %625 = urem i32 %624, 2
  %626 = icmp eq i32 %625, 0
  %627 = icmp slt i32 %622, 10
  %628 = or i1 %626, %627
  br i1 %628, label %originalBBpart2110, label %originalBB108alteredBB

originalBBpart2110:                               ; preds = %originalBB108
  br label %885

; <label>:629:                                    ; preds = %originalBBpart270
  %630 = landingpad { i8*, i32 }
          cleanup
  %631 = extractvalue { i8*, i32 } %630, 0
  store i8* %631, i8** %29, align 8
  %632 = extractvalue { i8*, i32 } %630, 1
  store i32 %632, i32* %30, align 4
  call void @_ZNSaI6TensorILi2ELi3EEED2Ev(%"class.std::allocator.67"* %43) #12
  br label %885

; <label>:633:                                    ; preds = %originalBBpart2138, %801, %794, %originalBBpart2134, %771, %724, %720, %719, %715, %708, %originalBBpart2122, %686, %684, %681, %originalBBpart2118, %660, %originalBBpart2114, %originalBBpart2102, %563, %562, %originalBBpart298, %originalBBpart290, %501, %496, %494, %originalBBpart286, %originalBBpart282, %originalBBpart278, %431
  %634 = landingpad { i8*, i32 }
          cleanup
  %635 = extractvalue { i8*, i32 } %634, 0
  store i8* %635, i8** %29, align 8
  %636 = extractvalue { i8*, i32 } %634, 1
  store i32 %636, i32* %30, align 4
  invoke void @_ZNSt6vectorI6TensorILi2ELi3EESaIS1_EED2Ev(%"class.std::vector.65"* %41)
          to label %868 unwind label %956

; <label>:637:                                    ; preds = %originalBBpart294
  %638 = load i32, i32* @x.97
  %639 = load i32, i32* @y.98
  %640 = sub i32 %638, 1
  %641 = mul i32 %638, %640
  %642 = urem i32 %641, 2
  %643 = icmp eq i32 %642, 0
  %644 = icmp slt i32 %639, 10
  %645 = or i1 %643, %644
  br i1 %645, label %originalBB112, label %originalBB112alteredBB

originalBB112:                                    ; preds = %637, %originalBB112alteredBB
  %646 = load %class.Mapping*, %class.Mapping** %17, align 8
  %647 = bitcast %class.Mapping* %646 to void (%class.Mapping*, %class.Tensor.33*, %class.Tensor.33*, %class.Tensor.33*, %"class.Mapping<3>::InternalDataBase"*)***
  %648 = load void (%class.Mapping*, %class.Tensor.33*, %class.Tensor.33*, %class.Tensor.33*, %"class.Mapping<3>::InternalDataBase"*)**, void (%class.Mapping*, %class.Tensor.33*, %class.Tensor.33*, %class.Tensor.33*, %"class.Mapping<3>::InternalDataBase"*)*** %647, align 8
  %649 = getelementptr inbounds void (%class.Mapping*, %class.Tensor.33*, %class.Tensor.33*, %class.Tensor.33*, %"class.Mapping<3>::InternalDataBase"*)*, void (%class.Mapping*, %class.Tensor.33*, %class.Tensor.33*, %class.Tensor.33*, %"class.Mapping<3>::InternalDataBase"*)** %648, i64 5
  %650 = load void (%class.Mapping*, %class.Tensor.33*, %class.Tensor.33*, %class.Tensor.33*, %"class.Mapping<3>::InternalDataBase"*)*, void (%class.Mapping*, %class.Tensor.33*, %class.Tensor.33*, %class.Tensor.33*, %"class.Mapping<3>::InternalDataBase"*)** %649, align 8
  %651 = load i32, i32* @x.97
  %652 = load i32, i32* @y.98
  %653 = sub i32 %651, 1
  %654 = mul i32 %651, %653
  %655 = urem i32 %654, 2
  %656 = icmp eq i32 %655, 0
  %657 = icmp slt i32 %652, 10
  %658 = or i1 %656, %657
  br i1 %658, label %originalBBpart2114, label %originalBB112alteredBB

originalBBpart2114:                               ; preds = %originalBB112
  %659 = invoke %class.Tensor.33* @_ZNSt6vectorI6TensorILi2ELi3EESaIS1_EE5beginEv(%"class.std::vector.65"* %38)
          to label %660 unwind label %633

; <label>:660:                                    ; preds = %originalBBpart2114
  %661 = getelementptr inbounds %"class.__gnu_cxx::__normal_iterator.70", %"class.__gnu_cxx::__normal_iterator.70"* %50, i32 0, i32 0
  store %class.Tensor.33* %659, %class.Tensor.33** %661, align 8
  %662 = invoke dereferenceable(72) %class.Tensor.33* @_ZNK9__gnu_cxx17__normal_iteratorIP6TensorILi2ELi3EESt6vectorIS2_SaIS2_EEEdeEv(%"class.__gnu_cxx::__normal_iterator.70"* %50)
          to label %663 unwind label %633

; <label>:663:                                    ; preds = %660
  %664 = load i32, i32* @x.97
  %665 = load i32, i32* @y.98
  %666 = sub i32 %664, 1
  %667 = mul i32 %664, %666
  %668 = urem i32 %667, 2
  %669 = icmp eq i32 %668, 0
  %670 = icmp slt i32 %665, 10
  %671 = or i1 %669, %670
  br i1 %671, label %originalBB116, label %originalBB116alteredBB

originalBB116:                                    ; preds = %663, %originalBB116alteredBB
  %672 = load i32, i32* @x.97
  %673 = load i32, i32* @y.98
  %674 = sub i32 %672, 1
  %675 = mul i32 %672, %674
  %676 = urem i32 %675, 2
  %677 = icmp eq i32 %676, 0
  %678 = icmp slt i32 %673, 10
  %679 = or i1 %677, %678
  br i1 %679, label %originalBBpart2118, label %originalBB116alteredBB

originalBBpart2118:                               ; preds = %originalBB116
  %680 = invoke %class.Tensor.33* @_ZNSt6vectorI6TensorILi2ELi3EESaIS1_EE5beginEv(%"class.std::vector.65"* %38)
          to label %681 unwind label %633

; <label>:681:                                    ; preds = %originalBBpart2118
  %682 = getelementptr inbounds %"class.__gnu_cxx::__normal_iterator.70", %"class.__gnu_cxx::__normal_iterator.70"* %51, i32 0, i32 0
  store %class.Tensor.33* %680, %class.Tensor.33** %682, align 8
  %683 = invoke dereferenceable(72) %class.Tensor.33* @_ZNK9__gnu_cxx17__normal_iteratorIP6TensorILi2ELi3EESt6vectorIS2_SaIS2_EEEdeEv(%"class.__gnu_cxx::__normal_iterator.70"* %51)
          to label %684 unwind label %633

; <label>:684:                                    ; preds = %681
  %685 = invoke i64 @_ZNKSt6vectorI6TensorILi2ELi3EESaIS1_EE4sizeEv(%"class.std::vector.65"* %38)
          to label %686 unwind label %633

; <label>:686:                                    ; preds = %684
  %687 = getelementptr inbounds %class.Tensor.33, %class.Tensor.33* %683, i64 %685
  %688 = invoke %class.Tensor.33* @_ZNSt6vectorI6TensorILi2ELi3EESaIS1_EE5beginEv(%"class.std::vector.65"* %41)
          to label %689 unwind label %633

; <label>:689:                                    ; preds = %686
  %690 = load i32, i32* @x.97
  %691 = load i32, i32* @y.98
  %692 = sub i32 %690, 1
  %693 = mul i32 %690, %692
  %694 = urem i32 %693, 2
  %695 = icmp eq i32 %694, 0
  %696 = icmp slt i32 %691, 10
  %697 = or i1 %695, %696
  br i1 %697, label %originalBB120, label %originalBB120alteredBB

originalBB120:                                    ; preds = %689, %originalBB120alteredBB
  %698 = getelementptr inbounds %"class.__gnu_cxx::__normal_iterator.70", %"class.__gnu_cxx::__normal_iterator.70"* %52, i32 0, i32 0
  store %class.Tensor.33* %688, %class.Tensor.33** %698, align 8
  %699 = load i32, i32* @x.97
  %700 = load i32, i32* @y.98
  %701 = sub i32 %699, 1
  %702 = mul i32 %699, %701
  %703 = urem i32 %702, 2
  %704 = icmp eq i32 %703, 0
  %705 = icmp slt i32 %700, 10
  %706 = or i1 %704, %705
  br i1 %706, label %originalBBpart2122, label %originalBB120alteredBB

originalBBpart2122:                               ; preds = %originalBB120
  %707 = invoke dereferenceable(72) %class.Tensor.33* @_ZNK9__gnu_cxx17__normal_iteratorIP6TensorILi2ELi3EESt6vectorIS2_SaIS2_EEEdeEv(%"class.__gnu_cxx::__normal_iterator.70"* %52)
          to label %708 unwind label %633

; <label>:708:                                    ; preds = %originalBBpart2122
  %709 = load %"class.Mapping<3>::InternalDataBase"*, %"class.Mapping<3>::InternalDataBase"** %20, align 8
  invoke void %650(%class.Mapping* %646, %class.Tensor.33* %662, %class.Tensor.33* %687, %class.Tensor.33* %707, %"class.Mapping<3>::InternalDataBase"* dereferenceable(40) %709)
          to label %710 unwind label %633

; <label>:710:                                    ; preds = %708
  store i32 0, i32* %53, align 4
  br label %711

; <label>:711:                                    ; preds = %727, %710
  %712 = load i32, i32* %53, align 4
  %713 = load i32, i32* %25, align 4
  %714 = icmp ult i32 %712, %713
  br i1 %714, label %715, label %730

; <label>:715:                                    ; preds = %711
  %716 = load i32, i32* %53, align 4
  %717 = zext i32 %716 to i64
  %718 = invoke dereferenceable(72) %class.Tensor.33* @_ZNSt6vectorI6TensorILi2ELi3EESaIS1_EEixEm(%"class.std::vector.65"* %38, i64 %717)
          to label %719 unwind label %633

; <label>:719:                                    ; preds = %715
  invoke void @_Z9transposeRK6TensorILi2ELi3EE(%class.Tensor.33* sret %54, %class.Tensor.33* dereferenceable(72) %718)
          to label %720 unwind label %633

; <label>:720:                                    ; preds = %719
  %721 = load i32, i32* %53, align 4
  %722 = zext i32 %721 to i64
  %723 = invoke dereferenceable(72) %class.Tensor.33* @_ZNSt6vectorI6TensorILi2ELi3EESaIS1_EEixEm(%"class.std::vector.65"* %41, i64 %722)
          to label %724 unwind label %633

; <label>:724:                                    ; preds = %720
  %725 = invoke dereferenceable(72) %class.Tensor.33* @_ZN6TensorILi2ELi3EEaSERKS0_(%class.Tensor.33* %723, %class.Tensor.33* dereferenceable(72) %54)
          to label %726 unwind label %633

; <label>:726:                                    ; preds = %724
  br label %727

; <label>:727:                                    ; preds = %726
  %728 = load i32, i32* %53, align 4
  %729 = add i32 %728, 1
  store i32 %729, i32* %53, align 4
  br label %711

; <label>:730:                                    ; preds = %711
  %731 = load i32, i32* @x.97
  %732 = load i32, i32* @y.98
  %733 = sub i32 %731, 1
  %734 = mul i32 %731, %733
  %735 = urem i32 %734, 2
  %736 = icmp eq i32 %735, 0
  %737 = icmp slt i32 %732, 10
  %738 = or i1 %736, %737
  br i1 %738, label %originalBB124, label %originalBB124alteredBB

originalBB124:                                    ; preds = %730, %originalBB124alteredBB
  store i32 0, i32* %55, align 4
  %739 = load i32, i32* @x.97
  %740 = load i32, i32* @y.98
  %741 = sub i32 %739, 1
  %742 = mul i32 %739, %741
  %743 = urem i32 %742, 2
  %744 = icmp eq i32 %743, 0
  %745 = icmp slt i32 %740, 10
  %746 = or i1 %744, %745
  br i1 %746, label %originalBBpart2126, label %originalBB124alteredBB

originalBBpart2126:                               ; preds = %originalBB124
  br label %747

; <label>:747:                                    ; preds = %originalBBpart2148, %originalBBpart2126
  %748 = load i32, i32* %55, align 4
  %749 = load i32, i32* %25, align 4
  %750 = icmp ult i32 %748, %749
  br i1 %750, label %751, label %846

; <label>:751:                                    ; preds = %747
  %752 = load i32, i32* @x.97
  %753 = load i32, i32* @y.98
  %754 = sub i32 %752, 1
  %755 = mul i32 %752, %754
  %756 = urem i32 %755, 2
  %757 = icmp eq i32 %756, 0
  %758 = icmp slt i32 %753, 10
  %759 = or i1 %757, %758
  br i1 %759, label %originalBB128, label %originalBB128alteredBB

originalBB128:                                    ; preds = %751, %originalBB128alteredBB
  store i32 0, i32* %56, align 4
  %760 = load i32, i32* @x.97
  %761 = load i32, i32* @y.98
  %762 = sub i32 %760, 1
  %763 = mul i32 %760, %762
  %764 = urem i32 %763, 2
  %765 = icmp eq i32 %764, 0
  %766 = icmp slt i32 %761, 10
  %767 = or i1 %765, %766
  br i1 %767, label %originalBBpart2130, label %originalBB128alteredBB

originalBBpart2130:                               ; preds = %originalBB128
  br label %768

; <label>:768:                                    ; preds = %823, %originalBBpart2130
  %769 = load i32, i32* %56, align 4
  %770 = icmp ult i32 %769, 3
  br i1 %770, label %771, label %826

; <label>:771:                                    ; preds = %768
  %772 = load i32, i32* %55, align 4
  %773 = zext i32 %772 to i64
  %774 = invoke dereferenceable(72) %class.Tensor.33* @_ZNSt6vectorI6TensorILi2ELi3EESaIS1_EEixEm(%"class.std::vector.65"* %41, i64 %773)
          to label %775 unwind label %633

; <label>:775:                                    ; preds = %771
  %776 = load i32, i32* @x.97
  %777 = load i32, i32* @y.98
  %778 = sub i32 %776, 1
  %779 = mul i32 %776, %778
  %780 = urem i32 %779, 2
  %781 = icmp eq i32 %780, 0
  %782 = icmp slt i32 %777, 10
  %783 = or i1 %781, %782
  br i1 %783, label %originalBB132, label %originalBB132alteredBB

originalBB132:                                    ; preds = %775, %originalBB132alteredBB
  %784 = load i32, i32* %56, align 4
  %785 = load i32, i32* @x.97
  %786 = load i32, i32* @y.98
  %787 = sub i32 %785, 1
  %788 = mul i32 %785, %787
  %789 = urem i32 %788, 2
  %790 = icmp eq i32 %789, 0
  %791 = icmp slt i32 %786, 10
  %792 = or i1 %790, %791
  br i1 %792, label %originalBBpart2134, label %originalBB132alteredBB

originalBBpart2134:                               ; preds = %originalBB132
  %793 = invoke dereferenceable(24) %class.Tensor* @_ZN6TensorILi2ELi3EEixEj(%class.Tensor.33* %774, i32 %784)
          to label %794 unwind label %633

; <label>:794:                                    ; preds = %originalBBpart2134
  %795 = load %class.FEValuesData*, %class.FEValuesData** %22, align 8
  %796 = getelementptr inbounds %class.FEValuesData, %class.FEValuesData* %795, i32 0, i32 1
  %797 = load i32, i32* %44, align 4
  %798 = mul i32 %797, 3
  %799 = load i32, i32* %56, align 4
  %800 = add i32 %798, %799
  invoke void @_ZN5TableILi2E6TensorILi1ELi3EEEixEj(%"class.internal::TableBaseAccessors::Accessor"* sret %57, %class.Table.50* %796, i32 %800)
          to label %801 unwind label %633

; <label>:801:                                    ; preds = %794
  %802 = load i32, i32* %55, align 4
  %803 = invoke dereferenceable(24) %class.Tensor* @_ZNK8internal18TableBaseAccessors8AccessorILi2E6TensorILi1ELi3EELb0ELj1EEixEj(%"class.internal::TableBaseAccessors::Accessor"* %57, i32 %802)
          to label %804 unwind label %633

; <label>:804:                                    ; preds = %801
  %805 = load i32, i32* @x.97
  %806 = load i32, i32* @y.98
  %807 = sub i32 %805, 1
  %808 = mul i32 %805, %807
  %809 = urem i32 %808, 2
  %810 = icmp eq i32 %809, 0
  %811 = icmp slt i32 %806, 10
  %812 = or i1 %810, %811
  br i1 %812, label %originalBB136, label %originalBB136alteredBB

originalBB136:                                    ; preds = %804, %originalBB136alteredBB
  %813 = load i32, i32* @x.97
  %814 = load i32, i32* @y.98
  %815 = sub i32 %813, 1
  %816 = mul i32 %813, %815
  %817 = urem i32 %816, 2
  %818 = icmp eq i32 %817, 0
  %819 = icmp slt i32 %814, 10
  %820 = or i1 %818, %819
  br i1 %820, label %originalBBpart2138, label %originalBB136alteredBB

originalBBpart2138:                               ; preds = %originalBB136
  %821 = invoke dereferenceable(24) %class.Tensor* @_ZN6TensorILi1ELi3EEaSERKS0_(%class.Tensor* %803, %class.Tensor* dereferenceable(24) %793)
          to label %822 unwind label %633

; <label>:822:                                    ; preds = %originalBBpart2138
  br label %823

; <label>:823:                                    ; preds = %822
  %824 = load i32, i32* %56, align 4
  %825 = add i32 %824, 1
  store i32 %825, i32* %56, align 4
  br label %768

; <label>:826:                                    ; preds = %768
  br label %827

; <label>:827:                                    ; preds = %826
  %828 = load i32, i32* @x.97
  %829 = load i32, i32* @y.98
  %830 = sub i32 %828, 1
  %831 = mul i32 %828, %830
  %832 = urem i32 %831, 2
  %833 = icmp eq i32 %832, 0
  %834 = icmp slt i32 %829, 10
  %835 = or i1 %833, %834
  br i1 %835, label %originalBB140, label %originalBB140alteredBB

originalBB140:                                    ; preds = %827, %originalBB140alteredBB
  %836 = load i32, i32* %55, align 4
  %837 = add i32 %836, 1
  store i32 %837, i32* %55, align 4
  %838 = load i32, i32* @x.97
  %839 = load i32, i32* @y.98
  %840 = sub i32 %838, 1
  %841 = mul i32 %838, %840
  %842 = urem i32 %841, 2
  %843 = icmp eq i32 %842, 0
  %844 = icmp slt i32 %839, 10
  %845 = or i1 %843, %844
  br i1 %845, label %originalBBpart2148, label %originalBB140alteredBB

originalBBpart2148:                               ; preds = %originalBB140
  br label %747

; <label>:846:                                    ; preds = %747
  br label %847

; <label>:847:                                    ; preds = %846
  %848 = load i32, i32* %44, align 4
  %849 = add i32 %848, 1
  store i32 %849, i32* %44, align 4
  br label %423

; <label>:850:                                    ; preds = %423
  %851 = load i32, i32* @x.97
  %852 = load i32, i32* @y.98
  %853 = sub i32 %851, 1
  %854 = mul i32 %851, %853
  %855 = urem i32 %854, 2
  %856 = icmp eq i32 %855, 0
  %857 = icmp slt i32 %852, 10
  %858 = or i1 %856, %857
  br i1 %858, label %originalBB150, label %originalBB150alteredBB

originalBB150:                                    ; preds = %850, %originalBB150alteredBB
  %859 = load i32, i32* @x.97
  %860 = load i32, i32* @y.98
  %861 = sub i32 %859, 1
  %862 = mul i32 %859, %861
  %863 = urem i32 %862, 2
  %864 = icmp eq i32 %863, 0
  %865 = icmp slt i32 %860, 10
  %866 = or i1 %864, %865
  br i1 %866, label %originalBBpart2152, label %originalBB150alteredBB

originalBBpart2152:                               ; preds = %originalBB150
  invoke void @_ZNSt6vectorI6TensorILi2ELi3EESaIS1_EED2Ev(%"class.std::vector.65"* %41)
          to label %867 unwind label %609

; <label>:867:                                    ; preds = %originalBBpart2152
  call void @_ZNSt6vectorI6TensorILi2ELi3EESaIS1_EED2Ev(%"class.std::vector.65"* %38)
  br label %903

; <label>:868:                                    ; preds = %633
  %869 = load i32, i32* @x.97
  %870 = load i32, i32* @y.98
  %871 = sub i32 %869, 1
  %872 = mul i32 %869, %871
  %873 = urem i32 %872, 2
  %874 = icmp eq i32 %873, 0
  %875 = icmp slt i32 %870, 10
  %876 = or i1 %874, %875
  br i1 %876, label %originalBB154, label %originalBB154alteredBB

originalBB154:                                    ; preds = %868, %originalBB154alteredBB
  %877 = load i32, i32* @x.97
  %878 = load i32, i32* @y.98
  %879 = sub i32 %877, 1
  %880 = mul i32 %877, %879
  %881 = urem i32 %880, 2
  %882 = icmp eq i32 %881, 0
  %883 = icmp slt i32 %878, 10
  %884 = or i1 %882, %883
  br i1 %884, label %originalBBpart2156, label %originalBB154alteredBB

originalBBpart2156:                               ; preds = %originalBB154
  br label %885

; <label>:885:                                    ; preds = %originalBBpart2156, %629, %originalBBpart2110
  %886 = load i32, i32* @x.97
  %887 = load i32, i32* @y.98
  %888 = sub i32 %886, 1
  %889 = mul i32 %886, %888
  %890 = urem i32 %889, 2
  %891 = icmp eq i32 %890, 0
  %892 = icmp slt i32 %887, 10
  %893 = or i1 %891, %892
  br i1 %893, label %originalBB158, label %originalBB158alteredBB

originalBB158:                                    ; preds = %885, %originalBB158alteredBB
  %894 = load i32, i32* @x.97
  %895 = load i32, i32* @y.98
  %896 = sub i32 %894, 1
  %897 = mul i32 %894, %896
  %898 = urem i32 %897, 2
  %899 = icmp eq i32 %898, 0
  %900 = icmp slt i32 %895, 10
  %901 = or i1 %899, %900
  br i1 %901, label %originalBBpart2160, label %originalBB158alteredBB

originalBBpart2160:                               ; preds = %originalBB158
  invoke void @_ZNSt6vectorI6TensorILi2ELi3EESaIS1_EED2Ev(%"class.std::vector.65"* %38)
          to label %902 unwind label %956

; <label>:902:                                    ; preds = %originalBBpart2160
  br label %951

; <label>:903:                                    ; preds = %867, %363
  %904 = load i32, i32* %24, align 4
  %905 = call i32 @_Zan11UpdateFlagsS_(i32 %904, i32 4)
  %906 = icmp ne i32 %905, 0
  br i1 %906, label %907, label %934

; <label>:907:                                    ; preds = %903
  %908 = load i32, i32* @x.97
  %909 = load i32, i32* @y.98
  %910 = sub i32 %908, 1
  %911 = mul i32 %908, %910
  %912 = urem i32 %911, 2
  %913 = icmp eq i32 %912, 0
  %914 = icmp slt i32 %909, 10
  %915 = or i1 %913, %914
  br i1 %915, label %originalBB162, label %originalBB162alteredBB

originalBB162:                                    ; preds = %907, %originalBB162alteredBB
  %916 = bitcast %class.FE_Nedelec* %59 to %class.FiniteElementBase*
  %917 = load %class.Mapping*, %class.Mapping** %17, align 8
  %918 = load %class.TriaIterator*, %class.TriaIterator** %18, align 8
  %919 = call i32 @_ZN10QProjectorILi3EE17DataSetDescriptor4cellEv()
  %920 = getelementptr inbounds %"class.QProjector<3>::DataSetDescriptor", %"class.QProjector<3>::DataSetDescriptor"* %58, i32 0, i32 0
  store i32 %919, i32* %920, align 4
  %921 = call i32 @_ZNK10QProjectorILi3EE17DataSetDescriptorcvjEv(%"class.QProjector<3>::DataSetDescriptor"* %58)
  %922 = load %"class.Mapping<3>::InternalDataBase"*, %"class.Mapping<3>::InternalDataBase"** %20, align 8
  %923 = load %"class.FE_Nedelec<3>::InternalData"*, %"class.FE_Nedelec<3>::InternalData"** %23, align 8
  %924 = bitcast %"class.FE_Nedelec<3>::InternalData"* %923 to %"class.FiniteElementBase<3>::InternalDataBase"*
  %925 = load %class.FEValuesData*, %class.FEValuesData** %22, align 8
  call void @_ZNK17FiniteElementBaseILi3EE11compute_2ndERK7MappingILi3EERK12TriaIteratorILi3E15DoFCellAccessorILi3EEEjRNS2_16InternalDataBaseERNS0_16InternalDataBaseER12FEValuesDataILi3EE(%class.FiniteElementBase* %916, %class.Mapping* dereferenceable(24) %917, %class.TriaIterator* nonnull %918, i32 %921, %"class.Mapping<3>::InternalDataBase"* dereferenceable(40) %922, %"class.FiniteElementBase<3>::InternalDataBase"* dereferenceable(64) %924, %class.FEValuesData* dereferenceable(272) %925)
  %926 = load i32, i32* @x.97
  %927 = load i32, i32* @y.98
  %928 = sub i32 %926, 1
  %929 = mul i32 %926, %928
  %930 = urem i32 %929, 2
  %931 = icmp eq i32 %930, 0
  %932 = icmp slt i32 %927, 10
  %933 = or i1 %931, %932
  br i1 %933, label %originalBBpart2164, label %originalBB162alteredBB

originalBBpart2164:                               ; preds = %originalBB162
  br label %934

; <label>:934:                                    ; preds = %originalBBpart2164, %903
  %935 = load i32, i32* @x.97
  %936 = load i32, i32* @y.98
  %937 = sub i32 %935, 1
  %938 = mul i32 %935, %937
  %939 = urem i32 %938, 2
  %940 = icmp eq i32 %939, 0
  %941 = icmp slt i32 %936, 10
  %942 = or i1 %940, %941
  br i1 %942, label %originalBB166, label %originalBB166alteredBB

originalBB166:                                    ; preds = %934, %originalBB166alteredBB
  %943 = load i32, i32* @x.97
  %944 = load i32, i32* @y.98
  %945 = sub i32 %943, 1
  %946 = mul i32 %943, %945
  %947 = urem i32 %946, 2
  %948 = icmp eq i32 %947, 0
  %949 = icmp slt i32 %944, 10
  %950 = or i1 %948, %949
  br i1 %950, label %originalBBpart2168, label %originalBB166alteredBB

originalBBpart2168:                               ; preds = %originalBB166
  ret void

; <label>:951:                                    ; preds = %902, %originalBBpart2106, %originalBBpart262, %originalBBpart240
  %952 = load i8*, i8** %29, align 8
  %953 = load i32, i32* %30, align 4
  %954 = insertvalue { i8*, i32 } undef, i8* %952, 0
  %955 = insertvalue { i8*, i32 } %954, i32 %953, 1
  resume { i8*, i32 } %955

; <label>:956:                                    ; preds = %originalBBpart2160, %633, %285
  %957 = landingpad { i8*, i32 }
          catch i8* null
  %958 = extractvalue { i8*, i32 } %957, 0
  call void @__clang_call_terminate(i8* %958) #10
  unreachable

originalBBalteredBB:                              ; preds = %originalBB, %7
  %959 = alloca %class.FE_Nedelec*, align 8
  %960 = alloca %class.Mapping*, align 8
  %961 = alloca %class.TriaIterator*, align 8
  %962 = alloca %class.Quadrature*, align 8
  %963 = alloca %"class.Mapping<3>::InternalDataBase"*, align 8
  %964 = alloca %"class.Mapping<3>::InternalDataBase"*, align 8
  %965 = alloca %class.FEValuesData*, align 8
  %966 = alloca %"class.FE_Nedelec<3>::InternalData"*, align 8
  %967 = alloca i32, align 4
  %968 = alloca i32, align 4
  %969 = alloca %"class.std::vector.59", align 8
  %970 = alloca %class.Tensor, align 8
  %971 = alloca %"class.std::allocator.61", align 1
  %972 = alloca i8*
  %973 = alloca i32
  %974 = alloca i32, align 4
  %975 = alloca %"class.__gnu_cxx::__normal_iterator", align 8
  %976 = alloca %"class.__gnu_cxx::__normal_iterator", align 8
  %977 = alloca %"class.internal::TableBaseAccessors::Accessor", align 8
  %978 = alloca i32, align 4
  %979 = alloca i32, align 4
  %980 = alloca %"class.internal::TableBaseAccessors::Accessor.64", align 8
  %981 = alloca %"class.std::vector.65", align 8
  %982 = alloca %class.Tensor.33, align 8
  %983 = alloca %"class.std::allocator.67", align 1
  %984 = alloca %"class.std::vector.65", align 8
  %985 = alloca %class.Tensor.33, align 8
  %986 = alloca %"class.std::allocator.67", align 1
  %987 = alloca i32, align 4
  %988 = alloca %"class.__gnu_cxx::__normal_iterator.70", align 8
  %989 = alloca %"class.__gnu_cxx::__normal_iterator.70", align 8
  %990 = alloca %"class.internal::TableBaseAccessors::Accessor.58", align 8
  %991 = alloca i32, align 4
  %992 = alloca %class.Tensor.33, align 8
  %993 = alloca %"class.__gnu_cxx::__normal_iterator.70", align 8
  %994 = alloca %"class.__gnu_cxx::__normal_iterator.70", align 8
  %995 = alloca %"class.__gnu_cxx::__normal_iterator.70", align 8
  %996 = alloca i32, align 4
  %997 = alloca %class.Tensor.33, align 8
  %998 = alloca i32, align 4
  %999 = alloca i32, align 4
  %1000 = alloca %"class.internal::TableBaseAccessors::Accessor", align 8
  %1001 = alloca %"class.QProjector<3>::DataSetDescriptor", align 4
  store %class.FE_Nedelec* %0, %class.FE_Nedelec** %959, align 8
  store %class.Mapping* %1, %class.Mapping** %960, align 8
  store %class.TriaIterator* %2, %class.TriaIterator** %961, align 8
  store %class.Quadrature* %3, %class.Quadrature** %962, align 8
  store %"class.Mapping<3>::InternalDataBase"* %4, %"class.Mapping<3>::InternalDataBase"** %963, align 8
  store %"class.Mapping<3>::InternalDataBase"* %5, %"class.Mapping<3>::InternalDataBase"** %964, align 8
  store %class.FEValuesData* %6, %class.FEValuesData** %965, align 8
  %1002 = load %class.FE_Nedelec*, %class.FE_Nedelec** %959, align 8
  %1003 = load %"class.Mapping<3>::InternalDataBase"*, %"class.Mapping<3>::InternalDataBase"** %964, align 8
  %1004 = bitcast %"class.Mapping<3>::InternalDataBase"* %1003 to i8*
  %1005 = call i8* @__dynamic_cast(i8* %1004, i8* bitcast ({ i8*, i8*, i8* }* @_ZTIN7MappingILi3EE16InternalDataBaseE to i8*), i8* bitcast ({ i8*, i8*, i8* }* @_ZTIN10FE_NedelecILi3EE12InternalDataE to i8*), i64 0) #12
  %1006 = bitcast i8* %1005 to %"class.FE_Nedelec<3>::InternalData"*
  %1007 = icmp eq %"class.FE_Nedelec<3>::InternalData"* %1006, null
  br label %originalBB

originalBB1alteredBB:                             ; preds = %originalBB1, %87
  call void @_ZNSaI6TensorILi1ELi3EEED2Ev(%"class.std::allocator.61"* %28) #12
  store i32 0, i32* %31, align 4
  br label %originalBB1

originalBB6alteredBB:                             ; preds = %originalBB6, %124
  %1008 = getelementptr inbounds %"class.__gnu_cxx::__normal_iterator", %"class.__gnu_cxx::__normal_iterator"* %33, i32 0, i32 0
  store %class.Tensor* %123, %class.Tensor** %1008, align 8
  br label %originalBB6

originalBB10alteredBB:                            ; preds = %originalBB10, %143
  br label %originalBB10

originalBB14alteredBB:                            ; preds = %originalBB14, %168
  %1009 = load %"class.Mapping<3>::InternalDataBase"*, %"class.Mapping<3>::InternalDataBase"** %20, align 8
  br label %originalBB14

originalBB18alteredBB:                            ; preds = %originalBB18, %187
  %1010 = load i32, i32* %35, align 4
  %1011 = load i32, i32* %25, align 4
  %1012 = icmp ult i32 %1010, %1011
  br label %originalBB18

originalBB22alteredBB:                            ; preds = %originalBB22, %218
  %1013 = load double, double* %217, align 8
  %1014 = load %class.FEValuesData*, %class.FEValuesData** %22, align 8
  %1015 = getelementptr inbounds %class.FEValuesData, %class.FEValuesData* %1014, i32 0, i32 0
  %1016 = load i32, i32* %31, align 4
  %_ = sub i32 0, %1016
  %gen = add i32 %_, 3
  %_23 = shl i32 %1016, 3
  %_24 = sub i32 0, %1016
  %gen25 = add i32 %_24, 3
  %1017 = mul i32 %1016, 3
  %1018 = load i32, i32* %36, align 4
  %_26 = sub i32 0, %1017
  %gen27 = add i32 %_26, %1018
  %_28 = sub i32 %1017, %1018
  %gen29 = mul i32 %_28, %1018
  %_30 = shl i32 %1017, %1018
  %1019 = add i32 %1017, %1018
  br label %originalBB22

originalBB34alteredBB:                            ; preds = %originalBB34, %242
  %1020 = load i32, i32* %35, align 4
  br label %originalBB34

originalBB38alteredBB:                            ; preds = %originalBB38, %265
  %1021 = landingpad { i8*, i32 }
          cleanup
  %1022 = extractvalue { i8*, i32 } %1021, 0
  store i8* %1022, i8** %29, align 8
  %1023 = extractvalue { i8*, i32 } %1021, 1
  store i32 %1023, i32* %30, align 4
  call void @_ZNSaI6TensorILi1ELi3EEED2Ev(%"class.std::allocator.61"* %28) #12
  br label %originalBB38

originalBB42alteredBB:                            ; preds = %originalBB42, %289
  br label %originalBB42

originalBB46alteredBB:                            ; preds = %originalBB46, %309
  br label %originalBB46

originalBB50alteredBB:                            ; preds = %originalBB50, %326
  %1024 = load i32, i32* %31, align 4
  %_51 = shl i32 %1024, 1
  %_52 = sub i32 0, %1024
  %gen53 = add i32 %_52, 1
  %_54 = sub i32 %1024, 1
  %gen55 = mul i32 %_54, 1
  %_56 = shl i32 %1024, 1
  %1025 = add i32 %1024, 1
  store i32 %1025, i32* %31, align 4
  br label %originalBB50

originalBB60alteredBB:                            ; preds = %originalBB60, %346
  br label %originalBB60

originalBB64alteredBB:                            ; preds = %originalBB64, %370
  call void @_ZNSaI6TensorILi2ELi3EEED2Ev(%"class.std::allocator.67"* %40) #12
  %1026 = load i32, i32* %25, align 4
  %1027 = zext i32 %1026 to i64
  br label %originalBB64

originalBB68alteredBB:                            ; preds = %originalBB68, %389
  call void @_ZNSaI6TensorILi2ELi3EEEC2Ev(%"class.std::allocator.67"* %43) #12
  br label %originalBB68

originalBB72alteredBB:                            ; preds = %originalBB72, %406
  call void @_ZNSaI6TensorILi2ELi3EEED2Ev(%"class.std::allocator.67"* %43) #12
  store i32 0, i32* %44, align 4
  br label %originalBB72

originalBB76alteredBB:                            ; preds = %originalBB76, %438
  %1028 = getelementptr inbounds %"class.__gnu_cxx::__normal_iterator.70", %"class.__gnu_cxx::__normal_iterator.70"* %45, i32 0, i32 0
  store %class.Tensor.33* %437, %class.Tensor.33** %1028, align 8
  br label %originalBB76

originalBB80alteredBB:                            ; preds = %originalBB80, %457
  br label %originalBB80

originalBB84alteredBB:                            ; preds = %originalBB84, %475
  %1029 = getelementptr inbounds %"class.__gnu_cxx::__normal_iterator.70", %"class.__gnu_cxx::__normal_iterator.70"* %46, i32 0, i32 0
  store %class.Tensor.33* %474, %class.Tensor.33** %1029, align 8
  br label %originalBB84

originalBB88alteredBB:                            ; preds = %originalBB88, %503
  %1030 = load %"class.Mapping<3>::InternalDataBase"*, %"class.Mapping<3>::InternalDataBase"** %20, align 8
  br label %originalBB88

originalBB92alteredBB:                            ; preds = %originalBB92, %522
  %1031 = load i32, i32* %48, align 4
  %1032 = load i32, i32* %25, align 4
  %1033 = icmp ult i32 %1031, %1032
  br label %originalBB92

originalBB96alteredBB:                            ; preds = %originalBB96, %542
  %1034 = load i32, i32* %48, align 4
  %1035 = zext i32 %1034 to i64
  br label %originalBB96

originalBB100alteredBB:                           ; preds = %originalBB100, %567
  br label %originalBB100

originalBB104alteredBB:                           ; preds = %originalBB104, %589
  %1036 = landingpad { i8*, i32 }
          cleanup
  %1037 = extractvalue { i8*, i32 } %1036, 0
  store i8* %1037, i8** %29, align 8
  %1038 = extractvalue { i8*, i32 } %1036, 1
  store i32 %1038, i32* %30, align 4
  call void @_ZNSaI6TensorILi2ELi3EEED2Ev(%"class.std::allocator.67"* %40) #12
  br label %originalBB104

originalBB108alteredBB:                           ; preds = %originalBB108, %609
  %1039 = landingpad { i8*, i32 }
          cleanup
  %1040 = extractvalue { i8*, i32 } %1039, 0
  store i8* %1040, i8** %29, align 8
  %1041 = extractvalue { i8*, i32 } %1039, 1
  store i32 %1041, i32* %30, align 4
  br label %originalBB108

originalBB112alteredBB:                           ; preds = %originalBB112, %637
  %1042 = load %class.Mapping*, %class.Mapping** %17, align 8
  %1043 = bitcast %class.Mapping* %1042 to void (%class.Mapping*, %class.Tensor.33*, %class.Tensor.33*, %class.Tensor.33*, %"class.Mapping<3>::InternalDataBase"*)***
  %1044 = load void (%class.Mapping*, %class.Tensor.33*, %class.Tensor.33*, %class.Tensor.33*, %"class.Mapping<3>::InternalDataBase"*)**, void (%class.Mapping*, %class.Tensor.33*, %class.Tensor.33*, %class.Tensor.33*, %"class.Mapping<3>::InternalDataBase"*)*** %1043, align 8
  %1045 = getelementptr inbounds void (%class.Mapping*, %class.Tensor.33*, %class.Tensor.33*, %class.Tensor.33*, %"class.Mapping<3>::InternalDataBase"*)*, void (%class.Mapping*, %class.Tensor.33*, %class.Tensor.33*, %class.Tensor.33*, %"class.Mapping<3>::InternalDataBase"*)** %1044, i64 5
  %1046 = load void (%class.Mapping*, %class.Tensor.33*, %class.Tensor.33*, %class.Tensor.33*, %"class.Mapping<3>::InternalDataBase"*)*, void (%class.Mapping*, %class.Tensor.33*, %class.Tensor.33*, %class.Tensor.33*, %"class.Mapping<3>::InternalDataBase"*)** %1045, align 8
  br label %originalBB112

originalBB116alteredBB:                           ; preds = %originalBB116, %663
  br label %originalBB116

originalBB120alteredBB:                           ; preds = %originalBB120, %689
  %1047 = getelementptr inbounds %"class.__gnu_cxx::__normal_iterator.70", %"class.__gnu_cxx::__normal_iterator.70"* %52, i32 0, i32 0
  store %class.Tensor.33* %688, %class.Tensor.33** %1047, align 8
  br label %originalBB120

originalBB124alteredBB:                           ; preds = %originalBB124, %730
  store i32 0, i32* %55, align 4
  br label %originalBB124

originalBB128alteredBB:                           ; preds = %originalBB128, %751
  store i32 0, i32* %56, align 4
  br label %originalBB128

originalBB132alteredBB:                           ; preds = %originalBB132, %775
  %1048 = load i32, i32* %56, align 4
  br label %originalBB132

originalBB136alteredBB:                           ; preds = %originalBB136, %804
  br label %originalBB136

originalBB140alteredBB:                           ; preds = %originalBB140, %827
  %1049 = load i32, i32* %55, align 4
  %_141 = sub i32 %1049, 1
  %gen142 = mul i32 %_141, 1
  %_143 = sub i32 0, %1049
  %gen144 = add i32 %_143, 1
  %_145 = sub i32 0, %1049
  %gen146 = add i32 %_145, 1
  %1050 = add i32 %1049, 1
  store i32 %1050, i32* %55, align 4
  br label %originalBB140

originalBB150alteredBB:                           ; preds = %originalBB150, %850
  br label %originalBB150

originalBB154alteredBB:                           ; preds = %originalBB154, %868
  br label %originalBB154

originalBB158alteredBB:                           ; preds = %originalBB158, %885
  br label %originalBB158

originalBB162alteredBB:                           ; preds = %originalBB162, %907
  %1051 = bitcast %class.FE_Nedelec* %59 to %class.FiniteElementBase*
  %1052 = load %class.Mapping*, %class.Mapping** %17, align 8
  %1053 = load %class.TriaIterator*, %class.TriaIterator** %18, align 8
  %1054 = call i32 @_ZN10QProjectorILi3EE17DataSetDescriptor4cellEv()
  %1055 = getelementptr inbounds %"class.QProjector<3>::DataSetDescriptor", %"class.QProjector<3>::DataSetDescriptor"* %58, i32 0, i32 0
  store i32 %1054, i32* %1055, align 4
  %1056 = call i32 @_ZNK10QProjectorILi3EE17DataSetDescriptorcvjEv(%"class.QProjector<3>::DataSetDescriptor"* %58)
  %1057 = load %"class.Mapping<3>::InternalDataBase"*, %"class.Mapping<3>::InternalDataBase"** %20, align 8
  %1058 = load %"class.FE_Nedelec<3>::InternalData"*, %"class.FE_Nedelec<3>::InternalData"** %23, align 8
  %1059 = bitcast %"class.FE_Nedelec<3>::InternalData"* %1058 to %"class.FiniteElementBase<3>::InternalDataBase"*
  %1060 = load %class.FEValuesData*, %class.FEValuesData** %22, align 8
  call void @_ZNK17FiniteElementBaseILi3EE11compute_2ndERK7MappingILi3EERK12TriaIteratorILi3E15DoFCellAccessorILi3EEEjRNS2_16InternalDataBaseERNS0_16InternalDataBaseER12FEValuesDataILi3EE(%class.FiniteElementBase* %1051, %class.Mapping* dereferenceable(24) %1052, %class.TriaIterator* nonnull %1053, i32 %1056, %"class.Mapping<3>::InternalDataBase"* dereferenceable(40) %1057, %"class.FiniteElementBase<3>::InternalDataBase"* dereferenceable(64) %1059, %class.FEValuesData* dereferenceable(272) %1060)
  br label %originalBB162

originalBB166alteredBB:                           ; preds = %originalBB166, %934
  br label %originalBB166
}

; Function Attrs: nounwind readonly
declare i8* @__dynamic_cast(i8*, i8*, i8*, i64) #6

declare void @__cxa_bad_cast()

; Function Attrs: noinline nounwind uwtable
define linkonce_odr i32 @_ZNK7MappingILi3EE16InternalDataBase20current_update_flagsEv(%"class.Mapping<3>::InternalDataBase"*) #1 comdat align 2 {
  %2 = alloca i32, align 4
  %3 = alloca %"class.Mapping<3>::InternalDataBase"*, align 8
  store %"class.Mapping<3>::InternalDataBase"* %0, %"class.Mapping<3>::InternalDataBase"** %3, align 8
  %4 = load %"class.Mapping<3>::InternalDataBase"*, %"class.Mapping<3>::InternalDataBase"** %3, align 8
  %5 = getelementptr inbounds %"class.Mapping<3>::InternalDataBase", %"class.Mapping<3>::InternalDataBase"* %4, i32 0, i32 4
  %6 = load i8, i8* %5, align 4
  %7 = trunc i8 %6 to i1
  br i1 %7, label %8, label %27

; <label>:8:                                      ; preds = %1
  %9 = load i32, i32* @x.99
  %10 = load i32, i32* @y.100
  %11 = sub i32 %9, 1
  %12 = mul i32 %9, %11
  %13 = urem i32 %12, 2
  %14 = icmp eq i32 %13, 0
  %15 = icmp slt i32 %10, 10
  %16 = or i1 %14, %15
  br i1 %16, label %originalBB, label %originalBBalteredBB

originalBB:                                       ; preds = %8, %originalBBalteredBB
  %17 = getelementptr inbounds %"class.Mapping<3>::InternalDataBase", %"class.Mapping<3>::InternalDataBase"* %4, i32 0, i32 1
  %18 = load i32, i32* %17, align 8
  store i32 %18, i32* %2, align 4
  %19 = load i32, i32* @x.99
  %20 = load i32, i32* @y.100
  %21 = sub i32 %19, 1
  %22 = mul i32 %19, %21
  %23 = urem i32 %22, 2
  %24 = icmp eq i32 %23, 0
  %25 = icmp slt i32 %20, 10
  %26 = or i1 %24, %25
  br i1 %26, label %originalBBpart2, label %originalBBalteredBB

originalBBpart2:                                  ; preds = %originalBB
  br label %30

; <label>:27:                                     ; preds = %1
  %28 = getelementptr inbounds %"class.Mapping<3>::InternalDataBase", %"class.Mapping<3>::InternalDataBase"* %4, i32 0, i32 3
  %29 = load i32, i32* %28, align 8
  store i32 %29, i32* %2, align 4
  br label %30

; <label>:30:                                     ; preds = %27, %originalBBpart2
  %31 = load i32, i32* %2, align 4
  ret i32 %31

originalBBalteredBB:                              ; preds = %originalBB, %8
  %32 = getelementptr inbounds %"class.Mapping<3>::InternalDataBase", %"class.Mapping<3>::InternalDataBase"* %4, i32 0, i32 1
  %33 = load i32, i32* %32, align 8
  store i32 %33, i32* %2, align 4
  br label %originalBB
}

; Function Attrs: noinline nounwind uwtable
define linkonce_odr void @_ZNSaI6TensorILi1ELi3EEEC2Ev(%"class.std::allocator.61"*) unnamed_addr #1 comdat align 2 {
  %2 = load i32, i32* @x.101
  %3 = load i32, i32* @y.102
  %4 = sub i32 %2, 1
  %5 = mul i32 %2, %4
  %6 = urem i32 %5, 2
  %7 = icmp eq i32 %6, 0
  %8 = icmp slt i32 %3, 10
  %9 = or i1 %7, %8
  br i1 %9, label %originalBB, label %originalBBalteredBB

originalBB:                                       ; preds = %1, %originalBBalteredBB
  %10 = alloca %"class.std::allocator.61"*, align 8
  store %"class.std::allocator.61"* %0, %"class.std::allocator.61"** %10, align 8
  %11 = load %"class.std::allocator.61"*, %"class.std::allocator.61"** %10, align 8
  %12 = bitcast %"class.std::allocator.61"* %11 to %"class.__gnu_cxx::new_allocator.62"*
  call void @_ZN9__gnu_cxx13new_allocatorI6TensorILi1ELi3EEEC2Ev(%"class.__gnu_cxx::new_allocator.62"* %12) #12
  %13 = load i32, i32* @x.101
  %14 = load i32, i32* @y.102
  %15 = sub i32 %13, 1
  %16 = mul i32 %13, %15
  %17 = urem i32 %16, 2
  %18 = icmp eq i32 %17, 0
  %19 = icmp slt i32 %14, 10
  %20 = or i1 %18, %19
  br i1 %20, label %originalBBpart2, label %originalBBalteredBB

originalBBpart2:                                  ; preds = %originalBB
  ret void

originalBBalteredBB:                              ; preds = %originalBB, %1
  %21 = alloca %"class.std::allocator.61"*, align 8
  store %"class.std::allocator.61"* %0, %"class.std::allocator.61"** %21, align 8
  %22 = load %"class.std::allocator.61"*, %"class.std::allocator.61"** %21, align 8
  %23 = bitcast %"class.std::allocator.61"* %22 to %"class.__gnu_cxx::new_allocator.62"*
  call void @_ZN9__gnu_cxx13new_allocatorI6TensorILi1ELi3EEEC2Ev(%"class.__gnu_cxx::new_allocator.62"* %23) #12
  br label %originalBB
}

; Function Attrs: noinline uwtable
define linkonce_odr void @_ZNSt6vectorI6TensorILi1ELi3EESaIS1_EEC2EmRKS1_RKS2_(%"class.std::vector.59"*, i64, %class.Tensor* dereferenceable(24), %"class.std::allocator.61"* dereferenceable(1)) unnamed_addr #0 comdat align 2 personality i8* bitcast (i32 (...)* @__gxx_personality_v0 to i8*) {
  %5 = load i32, i32* @x.103
  %6 = load i32, i32* @y.104
  %7 = sub i32 %5, 1
  %8 = mul i32 %5, %7
  %9 = urem i32 %8, 2
  %10 = icmp eq i32 %9, 0
  %11 = icmp slt i32 %6, 10
  %12 = or i1 %10, %11
  br i1 %12, label %originalBB, label %originalBBalteredBB

originalBB:                                       ; preds = %4, %originalBBalteredBB
  %13 = alloca %"class.std::vector.59"*, align 8
  %14 = alloca i64, align 8
  %15 = alloca %class.Tensor*, align 8
  %16 = alloca %"class.std::allocator.61"*, align 8
  %17 = alloca i8*
  %18 = alloca i32
  store %"class.std::vector.59"* %0, %"class.std::vector.59"** %13, align 8
  store i64 %1, i64* %14, align 8
  store %class.Tensor* %2, %class.Tensor** %15, align 8
  store %"class.std::allocator.61"* %3, %"class.std::allocator.61"** %16, align 8
  %19 = load %"class.std::vector.59"*, %"class.std::vector.59"** %13, align 8
  %20 = bitcast %"class.std::vector.59"* %19 to %"struct.std::_Vector_base.60"*
  %21 = load i64, i64* %14, align 8
  %22 = load %"class.std::allocator.61"*, %"class.std::allocator.61"** %16, align 8
  %23 = call i64 @_ZNSt6vectorI6TensorILi1ELi3EESaIS1_EE17_S_check_init_lenEmRKS2_(i64 %21, %"class.std::allocator.61"* dereferenceable(1) %22)
  %24 = load %"class.std::allocator.61"*, %"class.std::allocator.61"** %16, align 8
  call void @_ZNSt12_Vector_baseI6TensorILi1ELi3EESaIS1_EEC2EmRKS2_(%"struct.std::_Vector_base.60"* %20, i64 %23, %"class.std::allocator.61"* dereferenceable(1) %24)
  %25 = load i64, i64* %14, align 8
  %26 = load %class.Tensor*, %class.Tensor** %15, align 8
  %27 = load i32, i32* @x.103
  %28 = load i32, i32* @y.104
  %29 = sub i32 %27, 1
  %30 = mul i32 %27, %29
  %31 = urem i32 %30, 2
  %32 = icmp eq i32 %31, 0
  %33 = icmp slt i32 %28, 10
  %34 = or i1 %32, %33
  br i1 %34, label %originalBBpart2, label %originalBBalteredBB

originalBBpart2:                                  ; preds = %originalBB
  invoke void @_ZNSt6vectorI6TensorILi1ELi3EESaIS1_EE18_M_fill_initializeEmRKS1_(%"class.std::vector.59"* %19, i64 %25, %class.Tensor* dereferenceable(24) %26)
          to label %35 unwind label %36

; <label>:35:                                     ; preds = %originalBBpart2
  ret void

; <label>:36:                                     ; preds = %originalBBpart2
  %37 = landingpad { i8*, i32 }
          cleanup
  %38 = extractvalue { i8*, i32 } %37, 0
  store i8* %38, i8** %17, align 8
  %39 = extractvalue { i8*, i32 } %37, 1
  store i32 %39, i32* %18, align 4
  %40 = bitcast %"class.std::vector.59"* %19 to %"struct.std::_Vector_base.60"*
  invoke void @_ZNSt12_Vector_baseI6TensorILi1ELi3EESaIS1_EED2Ev(%"struct.std::_Vector_base.60"* %40)
          to label %41 unwind label %47

; <label>:41:                                     ; preds = %36
  br label %42

; <label>:42:                                     ; preds = %41
  %43 = load i8*, i8** %17, align 8
  %44 = load i32, i32* %18, align 4
  %45 = insertvalue { i8*, i32 } undef, i8* %43, 0
  %46 = insertvalue { i8*, i32 } %45, i32 %44, 1
  resume { i8*, i32 } %46

; <label>:47:                                     ; preds = %36
  %48 = load i32, i32* @x.103
  %49 = load i32, i32* @y.104
  %50 = sub i32 %48, 1
  %51 = mul i32 %48, %50
  %52 = urem i32 %51, 2
  %53 = icmp eq i32 %52, 0
  %54 = icmp slt i32 %49, 10
  %55 = or i1 %53, %54
  br i1 %55, label %originalBB1, label %originalBB1alteredBB

originalBB1:                                      ; preds = %47, %originalBB1alteredBB
  %56 = landingpad { i8*, i32 }
          catch i8* null
  %57 = extractvalue { i8*, i32 } %56, 0
  call void @__clang_call_terminate(i8* %57) #10
  %58 = load i32, i32* @x.103
  %59 = load i32, i32* @y.104
  %60 = sub i32 %58, 1
  %61 = mul i32 %58, %60
  %62 = urem i32 %61, 2
  %63 = icmp eq i32 %62, 0
  %64 = icmp slt i32 %59, 10
  %65 = or i1 %63, %64
  br i1 %65, label %originalBBpart24, label %originalBB1alteredBB

originalBBpart24:                                 ; preds = %originalBB1
  unreachable

originalBBalteredBB:                              ; preds = %originalBB, %4
  %66 = alloca %"class.std::vector.59"*, align 8
  %67 = alloca i64, align 8
  %68 = alloca %class.Tensor*, align 8
  %69 = alloca %"class.std::allocator.61"*, align 8
  %70 = alloca i8*
  %71 = alloca i32
  store %"class.std::vector.59"* %0, %"class.std::vector.59"** %66, align 8
  store i64 %1, i64* %67, align 8
  store %class.Tensor* %2, %class.Tensor** %68, align 8
  store %"class.std::allocator.61"* %3, %"class.std::allocator.61"** %69, align 8
  %72 = load %"class.std::vector.59"*, %"class.std::vector.59"** %66, align 8
  %73 = bitcast %"class.std::vector.59"* %72 to %"struct.std::_Vector_base.60"*
  %74 = load i64, i64* %67, align 8
  %75 = load %"class.std::allocator.61"*, %"class.std::allocator.61"** %69, align 8
  %76 = call i64 @_ZNSt6vectorI6TensorILi1ELi3EESaIS1_EE17_S_check_init_lenEmRKS2_(i64 %74, %"class.std::allocator.61"* dereferenceable(1) %75)
  %77 = load %"class.std::allocator.61"*, %"class.std::allocator.61"** %69, align 8
  call void @_ZNSt12_Vector_baseI6TensorILi1ELi3EESaIS1_EEC2EmRKS2_(%"struct.std::_Vector_base.60"* %73, i64 %76, %"class.std::allocator.61"* dereferenceable(1) %77)
  %78 = load i64, i64* %67, align 8
  %79 = load %class.Tensor*, %class.Tensor** %68, align 8
  br label %originalBB

originalBB1alteredBB:                             ; preds = %originalBB1, %47
  %80 = landingpad { i8*, i32 }
          catch i8* null
  %81 = extractvalue { i8*, i32 } %80, 0
  call void @__clang_call_terminate(i8* %81) #10
  br label %originalBB1
}

; Function Attrs: noinline nounwind uwtable
define linkonce_odr void @_ZNSaI6TensorILi1ELi3EEED2Ev(%"class.std::allocator.61"*) unnamed_addr #1 comdat align 2 {
  %2 = load i32, i32* @x.105
  %3 = load i32, i32* @y.106
  %4 = sub i32 %2, 1
  %5 = mul i32 %2, %4
  %6 = urem i32 %5, 2
  %7 = icmp eq i32 %6, 0
  %8 = icmp slt i32 %3, 10
  %9 = or i1 %7, %8
  br i1 %9, label %originalBB, label %originalBBalteredBB

originalBB:                                       ; preds = %1, %originalBBalteredBB
  %10 = alloca %"class.std::allocator.61"*, align 8
  store %"class.std::allocator.61"* %0, %"class.std::allocator.61"** %10, align 8
  %11 = load %"class.std::allocator.61"*, %"class.std::allocator.61"** %10, align 8
  %12 = bitcast %"class.std::allocator.61"* %11 to %"class.__gnu_cxx::new_allocator.62"*
  call void @_ZN9__gnu_cxx13new_allocatorI6TensorILi1ELi3EEED2Ev(%"class.__gnu_cxx::new_allocator.62"* %12) #12
  %13 = load i32, i32* @x.105
  %14 = load i32, i32* @y.106
  %15 = sub i32 %13, 1
  %16 = mul i32 %13, %15
  %17 = urem i32 %16, 2
  %18 = icmp eq i32 %17, 0
  %19 = icmp slt i32 %14, 10
  %20 = or i1 %18, %19
  br i1 %20, label %originalBBpart2, label %originalBBalteredBB

originalBBpart2:                                  ; preds = %originalBB
  ret void

originalBBalteredBB:                              ; preds = %originalBB, %1
  %21 = alloca %"class.std::allocator.61"*, align 8
  store %"class.std::allocator.61"* %0, %"class.std::allocator.61"** %21, align 8
  %22 = load %"class.std::allocator.61"*, %"class.std::allocator.61"** %21, align 8
  %23 = bitcast %"class.std::allocator.61"* %22 to %"class.__gnu_cxx::new_allocator.62"*
  call void @_ZN9__gnu_cxx13new_allocatorI6TensorILi1ELi3EEED2Ev(%"class.__gnu_cxx::new_allocator.62"* %23) #12
  br label %originalBB
}

; Function Attrs: noinline uwtable
define linkonce_odr %class.Tensor* @_ZNSt6vectorI6TensorILi1ELi3EESaIS1_EE5beginEv(%"class.std::vector.59"*) #0 comdat align 2 {
  %2 = alloca %"class.__gnu_cxx::__normal_iterator", align 8
  %3 = alloca %"class.std::vector.59"*, align 8
  store %"class.std::vector.59"* %0, %"class.std::vector.59"** %3, align 8
  %4 = load %"class.std::vector.59"*, %"class.std::vector.59"** %3, align 8
  %5 = bitcast %"class.std::vector.59"* %4 to %"struct.std::_Vector_base.60"*
  %6 = getelementptr inbounds %"struct.std::_Vector_base.60", %"struct.std::_Vector_base.60"* %5, i32 0, i32 0
  %7 = bitcast %"struct.std::_Vector_base<Tensor<1, 3>, std::allocator<Tensor<1, 3> > >::_Vector_impl"* %6 to %"struct.std::_Vector_base<Tensor<1, 3>, std::allocator<Tensor<1, 3> > >::_Vector_impl_data"*
  %8 = getelementptr inbounds %"struct.std::_Vector_base<Tensor<1, 3>, std::allocator<Tensor<1, 3> > >::_Vector_impl_data", %"struct.std::_Vector_base<Tensor<1, 3>, std::allocator<Tensor<1, 3> > >::_Vector_impl_data"* %7, i32 0, i32 0
  call void @_ZN9__gnu_cxx17__normal_iteratorIP6TensorILi1ELi3EESt6vectorIS2_SaIS2_EEEC2ERKS3_(%"class.__gnu_cxx::__normal_iterator"* %2, %class.Tensor** dereferenceable(8) %8)
  %9 = getelementptr inbounds %"class.__gnu_cxx::__normal_iterator", %"class.__gnu_cxx::__normal_iterator"* %2, i32 0, i32 0
  %10 = load %class.Tensor*, %class.Tensor** %9, align 8
  ret %class.Tensor* %10
}

; Function Attrs: noinline nounwind uwtable
define linkonce_odr dereferenceable(24) %class.Tensor* @_ZNK9__gnu_cxx17__normal_iteratorIP6TensorILi1ELi3EESt6vectorIS2_SaIS2_EEEdeEv(%"class.__gnu_cxx::__normal_iterator"*) #1 comdat align 2 {
  %2 = load i32, i32* @x.109
  %3 = load i32, i32* @y.110
  %4 = sub i32 %2, 1
  %5 = mul i32 %2, %4
  %6 = urem i32 %5, 2
  %7 = icmp eq i32 %6, 0
  %8 = icmp slt i32 %3, 10
  %9 = or i1 %7, %8
  br i1 %9, label %originalBB, label %originalBBalteredBB

originalBB:                                       ; preds = %1, %originalBBalteredBB
  %10 = alloca %"class.__gnu_cxx::__normal_iterator"*, align 8
  store %"class.__gnu_cxx::__normal_iterator"* %0, %"class.__gnu_cxx::__normal_iterator"** %10, align 8
  %11 = load %"class.__gnu_cxx::__normal_iterator"*, %"class.__gnu_cxx::__normal_iterator"** %10, align 8
  %12 = getelementptr inbounds %"class.__gnu_cxx::__normal_iterator", %"class.__gnu_cxx::__normal_iterator"* %11, i32 0, i32 0
  %13 = load %class.Tensor*, %class.Tensor** %12, align 8
  %14 = load i32, i32* @x.109
  %15 = load i32, i32* @y.110
  %16 = sub i32 %14, 1
  %17 = mul i32 %14, %16
  %18 = urem i32 %17, 2
  %19 = icmp eq i32 %18, 0
  %20 = icmp slt i32 %15, 10
  %21 = or i1 %19, %20
  br i1 %21, label %originalBBpart2, label %originalBBalteredBB

originalBBpart2:                                  ; preds = %originalBB
  ret %class.Tensor* %13

originalBBalteredBB:                              ; preds = %originalBB, %1
  %22 = alloca %"class.__gnu_cxx::__normal_iterator"*, align 8
  store %"class.__gnu_cxx::__normal_iterator"* %0, %"class.__gnu_cxx::__normal_iterator"** %22, align 8
  %23 = load %"class.__gnu_cxx::__normal_iterator"*, %"class.__gnu_cxx::__normal_iterator"** %22, align 8
  %24 = getelementptr inbounds %"class.__gnu_cxx::__normal_iterator", %"class.__gnu_cxx::__normal_iterator"* %23, i32 0, i32 0
  %25 = load %class.Tensor*, %class.Tensor** %24, align 8
  br label %originalBB
}

; Function Attrs: noinline nounwind uwtable
define linkonce_odr i64 @_ZNKSt6vectorI6TensorILi1ELi3EESaIS1_EE4sizeEv(%"class.std::vector.59"*) #1 comdat align 2 {
  %2 = load i32, i32* @x.111
  %3 = load i32, i32* @y.112
  %4 = sub i32 %2, 1
  %5 = mul i32 %2, %4
  %6 = urem i32 %5, 2
  %7 = icmp eq i32 %6, 0
  %8 = icmp slt i32 %3, 10
  %9 = or i1 %7, %8
  br i1 %9, label %originalBB, label %originalBBalteredBB

originalBB:                                       ; preds = %1, %originalBBalteredBB
  %10 = alloca %"class.std::vector.59"*, align 8
  store %"class.std::vector.59"* %0, %"class.std::vector.59"** %10, align 8
  %11 = load %"class.std::vector.59"*, %"class.std::vector.59"** %10, align 8
  %12 = bitcast %"class.std::vector.59"* %11 to %"struct.std::_Vector_base.60"*
  %13 = getelementptr inbounds %"struct.std::_Vector_base.60", %"struct.std::_Vector_base.60"* %12, i32 0, i32 0
  %14 = bitcast %"struct.std::_Vector_base<Tensor<1, 3>, std::allocator<Tensor<1, 3> > >::_Vector_impl"* %13 to %"struct.std::_Vector_base<Tensor<1, 3>, std::allocator<Tensor<1, 3> > >::_Vector_impl_data"*
  %15 = getelementptr inbounds %"struct.std::_Vector_base<Tensor<1, 3>, std::allocator<Tensor<1, 3> > >::_Vector_impl_data", %"struct.std::_Vector_base<Tensor<1, 3>, std::allocator<Tensor<1, 3> > >::_Vector_impl_data"* %14, i32 0, i32 1
  %16 = load %class.Tensor*, %class.Tensor** %15, align 8
  %17 = bitcast %"class.std::vector.59"* %11 to %"struct.std::_Vector_base.60"*
  %18 = getelementptr inbounds %"struct.std::_Vector_base.60", %"struct.std::_Vector_base.60"* %17, i32 0, i32 0
  %19 = bitcast %"struct.std::_Vector_base<Tensor<1, 3>, std::allocator<Tensor<1, 3> > >::_Vector_impl"* %18 to %"struct.std::_Vector_base<Tensor<1, 3>, std::allocator<Tensor<1, 3> > >::_Vector_impl_data"*
  %20 = getelementptr inbounds %"struct.std::_Vector_base<Tensor<1, 3>, std::allocator<Tensor<1, 3> > >::_Vector_impl_data", %"struct.std::_Vector_base<Tensor<1, 3>, std::allocator<Tensor<1, 3> > >::_Vector_impl_data"* %19, i32 0, i32 0
  %21 = load %class.Tensor*, %class.Tensor** %20, align 8
  %22 = ptrtoint %class.Tensor* %16 to i64
  %23 = ptrtoint %class.Tensor* %21 to i64
  %24 = sub i64 %22, %23
  %25 = sdiv exact i64 %24, 24
  %26 = load i32, i32* @x.111
  %27 = load i32, i32* @y.112
  %28 = sub i32 %26, 1
  %29 = mul i32 %26, %28
  %30 = urem i32 %29, 2
  %31 = icmp eq i32 %30, 0
  %32 = icmp slt i32 %27, 10
  %33 = or i1 %31, %32
  br i1 %33, label %originalBBpart2, label %originalBBalteredBB

originalBBpart2:                                  ; preds = %originalBB
  ret i64 %25

originalBBalteredBB:                              ; preds = %originalBB, %1
  %34 = alloca %"class.std::vector.59"*, align 8
  store %"class.std::vector.59"* %0, %"class.std::vector.59"** %34, align 8
  %35 = load %"class.std::vector.59"*, %"class.std::vector.59"** %34, align 8
  %36 = bitcast %"class.std::vector.59"* %35 to %"struct.std::_Vector_base.60"*
  %37 = getelementptr inbounds %"struct.std::_Vector_base.60", %"struct.std::_Vector_base.60"* %36, i32 0, i32 0
  %38 = bitcast %"struct.std::_Vector_base<Tensor<1, 3>, std::allocator<Tensor<1, 3> > >::_Vector_impl"* %37 to %"struct.std::_Vector_base<Tensor<1, 3>, std::allocator<Tensor<1, 3> > >::_Vector_impl_data"*
  %39 = getelementptr inbounds %"struct.std::_Vector_base<Tensor<1, 3>, std::allocator<Tensor<1, 3> > >::_Vector_impl_data", %"struct.std::_Vector_base<Tensor<1, 3>, std::allocator<Tensor<1, 3> > >::_Vector_impl_data"* %38, i32 0, i32 1
  %40 = load %class.Tensor*, %class.Tensor** %39, align 8
  %41 = bitcast %"class.std::vector.59"* %35 to %"struct.std::_Vector_base.60"*
  %42 = getelementptr inbounds %"struct.std::_Vector_base.60", %"struct.std::_Vector_base.60"* %41, i32 0, i32 0
  %43 = bitcast %"struct.std::_Vector_base<Tensor<1, 3>, std::allocator<Tensor<1, 3> > >::_Vector_impl"* %42 to %"struct.std::_Vector_base<Tensor<1, 3>, std::allocator<Tensor<1, 3> > >::_Vector_impl_data"*
  %44 = getelementptr inbounds %"struct.std::_Vector_base<Tensor<1, 3>, std::allocator<Tensor<1, 3> > >::_Vector_impl_data", %"struct.std::_Vector_base<Tensor<1, 3>, std::allocator<Tensor<1, 3> > >::_Vector_impl_data"* %43, i32 0, i32 0
  %45 = load %class.Tensor*, %class.Tensor** %44, align 8
  %46 = ptrtoint %class.Tensor* %40 to i64
  %47 = ptrtoint %class.Tensor* %45 to i64
  %_ = sub i64 0, %46
  %gen = add i64 %_, %47
  %_1 = sub i64 0, %46
  %gen2 = add i64 %_1, %47
  %_3 = sub i64 %46, %47
  %gen4 = mul i64 %_3, %47
  %_5 = shl i64 %46, %47
  %48 = sub i64 %46, %47
  %_6 = sub i64 0, %48
  %gen7 = add i64 %_6, 24
  %_8 = shl i64 %48, 24
  %_9 = sub i64 0, %48
  %gen10 = add i64 %_9, 24
  %_11 = shl i64 %48, 24
  %_12 = sub i64 0, %48
  %gen13 = add i64 %_12, 24
  %_14 = sub i64 %48, 24
  %gen15 = mul i64 %_14, 24
  %49 = sdiv exact i64 %48, 24
  br label %originalBB
}

; Function Attrs: noinline nounwind uwtable
define linkonce_odr %class.Tensor* @_ZNK8internal18TableBaseAccessors8AccessorILi2E6TensorILi1ELi3EELb0ELj1EE5beginEv(%"class.internal::TableBaseAccessors::Accessor"*) #1 comdat align 2 {
  %2 = load i32, i32* @x.113
  %3 = load i32, i32* @y.114
  %4 = sub i32 %2, 1
  %5 = mul i32 %2, %4
  %6 = urem i32 %5, 2
  %7 = icmp eq i32 %6, 0
  %8 = icmp slt i32 %3, 10
  %9 = or i1 %7, %8
  br i1 %9, label %originalBB, label %originalBBalteredBB

originalBB:                                       ; preds = %1, %originalBBalteredBB
  %10 = alloca %"class.internal::TableBaseAccessors::Accessor"*, align 8
  store %"class.internal::TableBaseAccessors::Accessor"* %0, %"class.internal::TableBaseAccessors::Accessor"** %10, align 8
  %11 = load %"class.internal::TableBaseAccessors::Accessor"*, %"class.internal::TableBaseAccessors::Accessor"** %10, align 8
  %12 = getelementptr inbounds %"class.internal::TableBaseAccessors::Accessor", %"class.internal::TableBaseAccessors::Accessor"* %11, i32 0, i32 1
  %13 = load %class.Tensor*, %class.Tensor** %12, align 8
  %14 = load i32, i32* @x.113
  %15 = load i32, i32* @y.114
  %16 = sub i32 %14, 1
  %17 = mul i32 %14, %16
  %18 = urem i32 %17, 2
  %19 = icmp eq i32 %18, 0
  %20 = icmp slt i32 %15, 10
  %21 = or i1 %19, %20
  br i1 %21, label %originalBBpart2, label %originalBBalteredBB

originalBBpart2:                                  ; preds = %originalBB
  ret %class.Tensor* %13

originalBBalteredBB:                              ; preds = %originalBB, %1
  %22 = alloca %"class.internal::TableBaseAccessors::Accessor"*, align 8
  store %"class.internal::TableBaseAccessors::Accessor"* %0, %"class.internal::TableBaseAccessors::Accessor"** %22, align 8
  %23 = load %"class.internal::TableBaseAccessors::Accessor"*, %"class.internal::TableBaseAccessors::Accessor"** %22, align 8
  %24 = getelementptr inbounds %"class.internal::TableBaseAccessors::Accessor", %"class.internal::TableBaseAccessors::Accessor"* %23, i32 0, i32 1
  %25 = load %class.Tensor*, %class.Tensor** %24, align 8
  br label %originalBB
}

; Function Attrs: noinline nounwind uwtable
define linkonce_odr dereferenceable(24) %class.Tensor* @_ZNSt6vectorI6TensorILi1ELi3EESaIS1_EEixEm(%"class.std::vector.59"*, i64) #1 comdat align 2 {
  %3 = alloca %"class.std::vector.59"*, align 8
  %4 = alloca i64, align 8
  store %"class.std::vector.59"* %0, %"class.std::vector.59"** %3, align 8
  store i64 %1, i64* %4, align 8
  %5 = load %"class.std::vector.59"*, %"class.std::vector.59"** %3, align 8
  %6 = bitcast %"class.std::vector.59"* %5 to %"struct.std::_Vector_base.60"*
  %7 = getelementptr inbounds %"struct.std::_Vector_base.60", %"struct.std::_Vector_base.60"* %6, i32 0, i32 0
  %8 = bitcast %"struct.std::_Vector_base<Tensor<1, 3>, std::allocator<Tensor<1, 3> > >::_Vector_impl"* %7 to %"struct.std::_Vector_base<Tensor<1, 3>, std::allocator<Tensor<1, 3> > >::_Vector_impl_data"*
  %9 = getelementptr inbounds %"struct.std::_Vector_base<Tensor<1, 3>, std::allocator<Tensor<1, 3> > >::_Vector_impl_data", %"struct.std::_Vector_base<Tensor<1, 3>, std::allocator<Tensor<1, 3> > >::_Vector_impl_data"* %8, i32 0, i32 0
  %10 = load %class.Tensor*, %class.Tensor** %9, align 8
  %11 = load i64, i64* %4, align 8
  %12 = getelementptr inbounds %class.Tensor, %class.Tensor* %10, i64 %11
  ret %class.Tensor* %12
}

; Function Attrs: noinline uwtable
define linkonce_odr void @_ZN5TableILi2EdEixEj(%"class.internal::TableBaseAccessors::Accessor.64"* noalias sret, %class.Table*, i32) #0 comdat align 2 {
  %4 = alloca %class.Table*, align 8
  %5 = alloca i32, align 4
  store %class.Table* %1, %class.Table** %4, align 8
  store i32 %2, i32* %5, align 4
  %6 = load %class.Table*, %class.Table** %4, align 8
  %7 = bitcast %class.Table* %6 to %class.TableBase*
  %8 = bitcast %class.Table* %6 to %class.TableBase*
  %9 = getelementptr inbounds %class.TableBase, %class.TableBase* %8, i32 0, i32 1
  %10 = load double*, double** %9, align 8
  %11 = load i32, i32* %5, align 4
  %12 = call i32 @_ZNK5TableILi2EdE6n_colsEv(%class.Table* %6)
  %13 = mul i32 %11, %12
  %14 = zext i32 %13 to i64
  %15 = getelementptr inbounds double, double* %10, i64 %14
  call void @_ZN8internal18TableBaseAccessors8AccessorILi2EdLb0ELj1EEC2ERK9TableBaseILi2EdEPd(%"class.internal::TableBaseAccessors::Accessor.64"* %0, %class.TableBase* dereferenceable(48) %7, double* %15)
  ret void
}

; Function Attrs: noinline nounwind uwtable
define linkonce_odr dereferenceable(8) double* @_ZNK8internal18TableBaseAccessors8AccessorILi2EdLb0ELj1EEixEj(%"class.internal::TableBaseAccessors::Accessor.64"*, i32) #1 comdat align 2 {
  %3 = alloca %"class.internal::TableBaseAccessors::Accessor.64"*, align 8
  %4 = alloca i32, align 4
  store %"class.internal::TableBaseAccessors::Accessor.64"* %0, %"class.internal::TableBaseAccessors::Accessor.64"** %3, align 8
  store i32 %1, i32* %4, align 4
  %5 = load %"class.internal::TableBaseAccessors::Accessor.64"*, %"class.internal::TableBaseAccessors::Accessor.64"** %3, align 8
  %6 = getelementptr inbounds %"class.internal::TableBaseAccessors::Accessor.64", %"class.internal::TableBaseAccessors::Accessor.64"* %5, i32 0, i32 1
  %7 = load double*, double** %6, align 8
  %8 = load i32, i32* %4, align 4
  %9 = zext i32 %8 to i64
  %10 = getelementptr inbounds double, double* %7, i64 %9
  ret double* %10
}

; Function Attrs: noinline uwtable
define linkonce_odr void @_ZNSt6vectorI6TensorILi1ELi3EESaIS1_EED2Ev(%"class.std::vector.59"*) unnamed_addr #0 comdat align 2 personality i8* bitcast (i32 (...)* @__gxx_personality_v0 to i8*) {
  %2 = alloca %"class.std::vector.59"*, align 8
  %3 = alloca i8*
  %4 = alloca i32
  store %"class.std::vector.59"* %0, %"class.std::vector.59"** %2, align 8
  %5 = load %"class.std::vector.59"*, %"class.std::vector.59"** %2, align 8
  %6 = bitcast %"class.std::vector.59"* %5 to %"struct.std::_Vector_base.60"*
  %7 = getelementptr inbounds %"struct.std::_Vector_base.60", %"struct.std::_Vector_base.60"* %6, i32 0, i32 0
  %8 = bitcast %"struct.std::_Vector_base<Tensor<1, 3>, std::allocator<Tensor<1, 3> > >::_Vector_impl"* %7 to %"struct.std::_Vector_base<Tensor<1, 3>, std::allocator<Tensor<1, 3> > >::_Vector_impl_data"*
  %9 = getelementptr inbounds %"struct.std::_Vector_base<Tensor<1, 3>, std::allocator<Tensor<1, 3> > >::_Vector_impl_data", %"struct.std::_Vector_base<Tensor<1, 3>, std::allocator<Tensor<1, 3> > >::_Vector_impl_data"* %8, i32 0, i32 0
  %10 = load %class.Tensor*, %class.Tensor** %9, align 8
  %11 = bitcast %"class.std::vector.59"* %5 to %"struct.std::_Vector_base.60"*
  %12 = getelementptr inbounds %"struct.std::_Vector_base.60", %"struct.std::_Vector_base.60"* %11, i32 0, i32 0
  %13 = bitcast %"struct.std::_Vector_base<Tensor<1, 3>, std::allocator<Tensor<1, 3> > >::_Vector_impl"* %12 to %"struct.std::_Vector_base<Tensor<1, 3>, std::allocator<Tensor<1, 3> > >::_Vector_impl_data"*
  %14 = getelementptr inbounds %"struct.std::_Vector_base<Tensor<1, 3>, std::allocator<Tensor<1, 3> > >::_Vector_impl_data", %"struct.std::_Vector_base<Tensor<1, 3>, std::allocator<Tensor<1, 3> > >::_Vector_impl_data"* %13, i32 0, i32 1
  %15 = load %class.Tensor*, %class.Tensor** %14, align 8
  %16 = bitcast %"class.std::vector.59"* %5 to %"struct.std::_Vector_base.60"*
  %17 = invoke dereferenceable(1) %"class.std::allocator.61"* @_ZNSt12_Vector_baseI6TensorILi1ELi3EESaIS1_EE19_M_get_Tp_allocatorEv(%"struct.std::_Vector_base.60"* %16)
          to label %18 unwind label %37

; <label>:18:                                     ; preds = %1
  %19 = load i32, i32* @x.121
  %20 = load i32, i32* @y.122
  %21 = sub i32 %19, 1
  %22 = mul i32 %19, %21
  %23 = urem i32 %22, 2
  %24 = icmp eq i32 %23, 0
  %25 = icmp slt i32 %20, 10
  %26 = or i1 %24, %25
  br i1 %26, label %originalBB, label %originalBBalteredBB

originalBB:                                       ; preds = %18, %originalBBalteredBB
  %27 = load i32, i32* @x.121
  %28 = load i32, i32* @y.122
  %29 = sub i32 %27, 1
  %30 = mul i32 %27, %29
  %31 = urem i32 %30, 2
  %32 = icmp eq i32 %31, 0
  %33 = icmp slt i32 %28, 10
  %34 = or i1 %32, %33
  br i1 %34, label %originalBBpart2, label %originalBBalteredBB

originalBBpart2:                                  ; preds = %originalBB
  invoke void @_ZSt8_DestroyIP6TensorILi1ELi3EES1_EvT_S3_RSaIT0_E(%class.Tensor* %10, %class.Tensor* %15, %"class.std::allocator.61"* dereferenceable(1) %17)
          to label %35 unwind label %37

; <label>:35:                                     ; preds = %originalBBpart2
  %36 = bitcast %"class.std::vector.59"* %5 to %"struct.std::_Vector_base.60"*
  call void @_ZNSt12_Vector_baseI6TensorILi1ELi3EESaIS1_EED2Ev(%"struct.std::_Vector_base.60"* %36)
  ret void

; <label>:37:                                     ; preds = %originalBBpart2, %1
  %38 = load i32, i32* @x.121
  %39 = load i32, i32* @y.122
  %40 = sub i32 %38, 1
  %41 = mul i32 %38, %40
  %42 = urem i32 %41, 2
  %43 = icmp eq i32 %42, 0
  %44 = icmp slt i32 %39, 10
  %45 = or i1 %43, %44
  br i1 %45, label %originalBB1, label %originalBB1alteredBB

originalBB1:                                      ; preds = %37, %originalBB1alteredBB
  %46 = landingpad { i8*, i32 }
          cleanup
  %47 = extractvalue { i8*, i32 } %46, 0
  store i8* %47, i8** %3, align 8
  %48 = extractvalue { i8*, i32 } %46, 1
  store i32 %48, i32* %4, align 4
  %49 = bitcast %"class.std::vector.59"* %5 to %"struct.std::_Vector_base.60"*
  %50 = load i32, i32* @x.121
  %51 = load i32, i32* @y.122
  %52 = sub i32 %50, 1
  %53 = mul i32 %50, %52
  %54 = urem i32 %53, 2
  %55 = icmp eq i32 %54, 0
  %56 = icmp slt i32 %51, 10
  %57 = or i1 %55, %56
  br i1 %57, label %originalBBpart24, label %originalBB1alteredBB

originalBBpart24:                                 ; preds = %originalBB1
  invoke void @_ZNSt12_Vector_baseI6TensorILi1ELi3EESaIS1_EED2Ev(%"struct.std::_Vector_base.60"* %49)
          to label %58 unwind label %80

; <label>:58:                                     ; preds = %originalBBpart24
  %59 = load i32, i32* @x.121
  %60 = load i32, i32* @y.122
  %61 = sub i32 %59, 1
  %62 = mul i32 %59, %61
  %63 = urem i32 %62, 2
  %64 = icmp eq i32 %63, 0
  %65 = icmp slt i32 %60, 10
  %66 = or i1 %64, %65
  br i1 %66, label %originalBB6, label %originalBB6alteredBB

originalBB6:                                      ; preds = %58, %originalBB6alteredBB
  %67 = load i32, i32* @x.121
  %68 = load i32, i32* @y.122
  %69 = sub i32 %67, 1
  %70 = mul i32 %67, %69
  %71 = urem i32 %70, 2
  %72 = icmp eq i32 %71, 0
  %73 = icmp slt i32 %68, 10
  %74 = or i1 %72, %73
  br i1 %74, label %originalBBpart28, label %originalBB6alteredBB

originalBBpart28:                                 ; preds = %originalBB6
  br label %75

; <label>:75:                                     ; preds = %originalBBpart28
  %76 = load i8*, i8** %3, align 8
  %77 = load i32, i32* %4, align 4
  %78 = insertvalue { i8*, i32 } undef, i8* %76, 0
  %79 = insertvalue { i8*, i32 } %78, i32 %77, 1
  resume { i8*, i32 } %79

; <label>:80:                                     ; preds = %originalBBpart24
  %81 = landingpad { i8*, i32 }
          catch i8* null
  %82 = extractvalue { i8*, i32 } %81, 0
  call void @__clang_call_terminate(i8* %82) #10
  unreachable

originalBBalteredBB:                              ; preds = %originalBB, %18
  br label %originalBB

originalBB1alteredBB:                             ; preds = %originalBB1, %37
  %83 = landingpad { i8*, i32 }
          cleanup
  %84 = extractvalue { i8*, i32 } %83, 0
  store i8* %84, i8** %3, align 8
  %85 = extractvalue { i8*, i32 } %83, 1
  store i32 %85, i32* %4, align 4
  %86 = bitcast %"class.std::vector.59"* %5 to %"struct.std::_Vector_base.60"*
  br label %originalBB1

originalBB6alteredBB:                             ; preds = %originalBB6, %58
  br label %originalBB6
}

; Function Attrs: noinline nounwind uwtable
define linkonce_odr void @_ZNSaI6TensorILi2ELi3EEEC2Ev(%"class.std::allocator.67"*) unnamed_addr #1 comdat align 2 {
  %2 = load i32, i32* @x.123
  %3 = load i32, i32* @y.124
  %4 = sub i32 %2, 1
  %5 = mul i32 %2, %4
  %6 = urem i32 %5, 2
  %7 = icmp eq i32 %6, 0
  %8 = icmp slt i32 %3, 10
  %9 = or i1 %7, %8
  br i1 %9, label %originalBB, label %originalBBalteredBB

originalBB:                                       ; preds = %1, %originalBBalteredBB
  %10 = alloca %"class.std::allocator.67"*, align 8
  store %"class.std::allocator.67"* %0, %"class.std::allocator.67"** %10, align 8
  %11 = load %"class.std::allocator.67"*, %"class.std::allocator.67"** %10, align 8
  %12 = bitcast %"class.std::allocator.67"* %11 to %"class.__gnu_cxx::new_allocator.68"*
  call void @_ZN9__gnu_cxx13new_allocatorI6TensorILi2ELi3EEEC2Ev(%"class.__gnu_cxx::new_allocator.68"* %12) #12
  %13 = load i32, i32* @x.123
  %14 = load i32, i32* @y.124
  %15 = sub i32 %13, 1
  %16 = mul i32 %13, %15
  %17 = urem i32 %16, 2
  %18 = icmp eq i32 %17, 0
  %19 = icmp slt i32 %14, 10
  %20 = or i1 %18, %19
  br i1 %20, label %originalBBpart2, label %originalBBalteredBB

originalBBpart2:                                  ; preds = %originalBB
  ret void

originalBBalteredBB:                              ; preds = %originalBB, %1
  %21 = alloca %"class.std::allocator.67"*, align 8
  store %"class.std::allocator.67"* %0, %"class.std::allocator.67"** %21, align 8
  %22 = load %"class.std::allocator.67"*, %"class.std::allocator.67"** %21, align 8
  %23 = bitcast %"class.std::allocator.67"* %22 to %"class.__gnu_cxx::new_allocator.68"*
  call void @_ZN9__gnu_cxx13new_allocatorI6TensorILi2ELi3EEEC2Ev(%"class.__gnu_cxx::new_allocator.68"* %23) #12
  br label %originalBB
}

; Function Attrs: noinline uwtable
define linkonce_odr void @_ZNSt6vectorI6TensorILi2ELi3EESaIS1_EEC2EmRKS1_RKS2_(%"class.std::vector.65"*, i64, %class.Tensor.33* dereferenceable(72), %"class.std::allocator.67"* dereferenceable(1)) unnamed_addr #0 comdat align 2 personality i8* bitcast (i32 (...)* @__gxx_personality_v0 to i8*) {
  %5 = alloca %"class.std::vector.65"*, align 8
  %6 = alloca i64, align 8
  %7 = alloca %class.Tensor.33*, align 8
  %8 = alloca %"class.std::allocator.67"*, align 8
  %9 = alloca i8*
  %10 = alloca i32
  store %"class.std::vector.65"* %0, %"class.std::vector.65"** %5, align 8
  store i64 %1, i64* %6, align 8
  store %class.Tensor.33* %2, %class.Tensor.33** %7, align 8
  store %"class.std::allocator.67"* %3, %"class.std::allocator.67"** %8, align 8
  %11 = load %"class.std::vector.65"*, %"class.std::vector.65"** %5, align 8
  %12 = bitcast %"class.std::vector.65"* %11 to %"struct.std::_Vector_base.66"*
  %13 = load i64, i64* %6, align 8
  %14 = load %"class.std::allocator.67"*, %"class.std::allocator.67"** %8, align 8
  %15 = call i64 @_ZNSt6vectorI6TensorILi2ELi3EESaIS1_EE17_S_check_init_lenEmRKS2_(i64 %13, %"class.std::allocator.67"* dereferenceable(1) %14)
  %16 = load %"class.std::allocator.67"*, %"class.std::allocator.67"** %8, align 8
  call void @_ZNSt12_Vector_baseI6TensorILi2ELi3EESaIS1_EEC2EmRKS2_(%"struct.std::_Vector_base.66"* %12, i64 %15, %"class.std::allocator.67"* dereferenceable(1) %16)
  %17 = load i64, i64* %6, align 8
  %18 = load %class.Tensor.33*, %class.Tensor.33** %7, align 8
  invoke void @_ZNSt6vectorI6TensorILi2ELi3EESaIS1_EE18_M_fill_initializeEmRKS1_(%"class.std::vector.65"* %11, i64 %17, %class.Tensor.33* dereferenceable(72) %18)
          to label %19 unwind label %20

; <label>:19:                                     ; preds = %4
  ret void

; <label>:20:                                     ; preds = %4
  %21 = load i32, i32* @x.125
  %22 = load i32, i32* @y.126
  %23 = sub i32 %21, 1
  %24 = mul i32 %21, %23
  %25 = urem i32 %24, 2
  %26 = icmp eq i32 %25, 0
  %27 = icmp slt i32 %22, 10
  %28 = or i1 %26, %27
  br i1 %28, label %originalBB, label %originalBBalteredBB

originalBB:                                       ; preds = %20, %originalBBalteredBB
  %29 = landingpad { i8*, i32 }
          cleanup
  %30 = extractvalue { i8*, i32 } %29, 0
  store i8* %30, i8** %9, align 8
  %31 = extractvalue { i8*, i32 } %29, 1
  store i32 %31, i32* %10, align 4
  %32 = bitcast %"class.std::vector.65"* %11 to %"struct.std::_Vector_base.66"*
  %33 = load i32, i32* @x.125
  %34 = load i32, i32* @y.126
  %35 = sub i32 %33, 1
  %36 = mul i32 %33, %35
  %37 = urem i32 %36, 2
  %38 = icmp eq i32 %37, 0
  %39 = icmp slt i32 %34, 10
  %40 = or i1 %38, %39
  br i1 %40, label %originalBBpart2, label %originalBBalteredBB

originalBBpart2:                                  ; preds = %originalBB
  invoke void @_ZNSt12_Vector_baseI6TensorILi2ELi3EESaIS1_EED2Ev(%"struct.std::_Vector_base.66"* %32)
          to label %41 unwind label %47

; <label>:41:                                     ; preds = %originalBBpart2
  br label %42

; <label>:42:                                     ; preds = %41
  %43 = load i8*, i8** %9, align 8
  %44 = load i32, i32* %10, align 4
  %45 = insertvalue { i8*, i32 } undef, i8* %43, 0
  %46 = insertvalue { i8*, i32 } %45, i32 %44, 1
  resume { i8*, i32 } %46

; <label>:47:                                     ; preds = %originalBBpart2
  %48 = landingpad { i8*, i32 }
          catch i8* null
  %49 = extractvalue { i8*, i32 } %48, 0
  call void @__clang_call_terminate(i8* %49) #10
  unreachable

originalBBalteredBB:                              ; preds = %originalBB, %20
  %50 = landingpad { i8*, i32 }
          cleanup
  %51 = extractvalue { i8*, i32 } %50, 0
  store i8* %51, i8** %9, align 8
  %52 = extractvalue { i8*, i32 } %50, 1
  store i32 %52, i32* %10, align 4
  %53 = bitcast %"class.std::vector.65"* %11 to %"struct.std::_Vector_base.66"*
  br label %originalBB
}

; Function Attrs: noinline nounwind uwtable
define linkonce_odr void @_ZNSaI6TensorILi2ELi3EEED2Ev(%"class.std::allocator.67"*) unnamed_addr #1 comdat align 2 {
  %2 = alloca %"class.std::allocator.67"*, align 8
  store %"class.std::allocator.67"* %0, %"class.std::allocator.67"** %2, align 8
  %3 = load %"class.std::allocator.67"*, %"class.std::allocator.67"** %2, align 8
  %4 = bitcast %"class.std::allocator.67"* %3 to %"class.__gnu_cxx::new_allocator.68"*
  call void @_ZN9__gnu_cxx13new_allocatorI6TensorILi2ELi3EEED2Ev(%"class.__gnu_cxx::new_allocator.68"* %4) #12
  ret void
}

; Function Attrs: noinline uwtable
define linkonce_odr %class.Tensor.33* @_ZNSt6vectorI6TensorILi2ELi3EESaIS1_EE5beginEv(%"class.std::vector.65"*) #0 comdat align 2 {
  %2 = load i32, i32* @x.129
  %3 = load i32, i32* @y.130
  %4 = sub i32 %2, 1
  %5 = mul i32 %2, %4
  %6 = urem i32 %5, 2
  %7 = icmp eq i32 %6, 0
  %8 = icmp slt i32 %3, 10
  %9 = or i1 %7, %8
  br i1 %9, label %originalBB, label %originalBBalteredBB

originalBB:                                       ; preds = %1, %originalBBalteredBB
  %10 = alloca %"class.__gnu_cxx::__normal_iterator.70", align 8
  %11 = alloca %"class.std::vector.65"*, align 8
  store %"class.std::vector.65"* %0, %"class.std::vector.65"** %11, align 8
  %12 = load %"class.std::vector.65"*, %"class.std::vector.65"** %11, align 8
  %13 = bitcast %"class.std::vector.65"* %12 to %"struct.std::_Vector_base.66"*
  %14 = getelementptr inbounds %"struct.std::_Vector_base.66", %"struct.std::_Vector_base.66"* %13, i32 0, i32 0
  %15 = bitcast %"struct.std::_Vector_base<Tensor<2, 3>, std::allocator<Tensor<2, 3> > >::_Vector_impl"* %14 to %"struct.std::_Vector_base<Tensor<2, 3>, std::allocator<Tensor<2, 3> > >::_Vector_impl_data"*
  %16 = getelementptr inbounds %"struct.std::_Vector_base<Tensor<2, 3>, std::allocator<Tensor<2, 3> > >::_Vector_impl_data", %"struct.std::_Vector_base<Tensor<2, 3>, std::allocator<Tensor<2, 3> > >::_Vector_impl_data"* %15, i32 0, i32 0
  call void @_ZN9__gnu_cxx17__normal_iteratorIP6TensorILi2ELi3EESt6vectorIS2_SaIS2_EEEC2ERKS3_(%"class.__gnu_cxx::__normal_iterator.70"* %10, %class.Tensor.33** dereferenceable(8) %16)
  %17 = getelementptr inbounds %"class.__gnu_cxx::__normal_iterator.70", %"class.__gnu_cxx::__normal_iterator.70"* %10, i32 0, i32 0
  %18 = load %class.Tensor.33*, %class.Tensor.33** %17, align 8
  %19 = load i32, i32* @x.129
  %20 = load i32, i32* @y.130
  %21 = sub i32 %19, 1
  %22 = mul i32 %19, %21
  %23 = urem i32 %22, 2
  %24 = icmp eq i32 %23, 0
  %25 = icmp slt i32 %20, 10
  %26 = or i1 %24, %25
  br i1 %26, label %originalBBpart2, label %originalBBalteredBB

originalBBpart2:                                  ; preds = %originalBB
  ret %class.Tensor.33* %18

originalBBalteredBB:                              ; preds = %originalBB, %1
  %27 = alloca %"class.__gnu_cxx::__normal_iterator.70", align 8
  %28 = alloca %"class.std::vector.65"*, align 8
  store %"class.std::vector.65"* %0, %"class.std::vector.65"** %28, align 8
  %29 = load %"class.std::vector.65"*, %"class.std::vector.65"** %28, align 8
  %30 = bitcast %"class.std::vector.65"* %29 to %"struct.std::_Vector_base.66"*
  %31 = getelementptr inbounds %"struct.std::_Vector_base.66", %"struct.std::_Vector_base.66"* %30, i32 0, i32 0
  %32 = bitcast %"struct.std::_Vector_base<Tensor<2, 3>, std::allocator<Tensor<2, 3> > >::_Vector_impl"* %31 to %"struct.std::_Vector_base<Tensor<2, 3>, std::allocator<Tensor<2, 3> > >::_Vector_impl_data"*
  %33 = getelementptr inbounds %"struct.std::_Vector_base<Tensor<2, 3>, std::allocator<Tensor<2, 3> > >::_Vector_impl_data", %"struct.std::_Vector_base<Tensor<2, 3>, std::allocator<Tensor<2, 3> > >::_Vector_impl_data"* %32, i32 0, i32 0
  call void @_ZN9__gnu_cxx17__normal_iteratorIP6TensorILi2ELi3EESt6vectorIS2_SaIS2_EEEC2ERKS3_(%"class.__gnu_cxx::__normal_iterator.70"* %27, %class.Tensor.33** dereferenceable(8) %33)
  %34 = getelementptr inbounds %"class.__gnu_cxx::__normal_iterator.70", %"class.__gnu_cxx::__normal_iterator.70"* %27, i32 0, i32 0
  %35 = load %class.Tensor.33*, %class.Tensor.33** %34, align 8
  br label %originalBB
}

; Function Attrs: noinline nounwind uwtable
define linkonce_odr dereferenceable(72) %class.Tensor.33* @_ZNK9__gnu_cxx17__normal_iteratorIP6TensorILi2ELi3EESt6vectorIS2_SaIS2_EEEdeEv(%"class.__gnu_cxx::__normal_iterator.70"*) #1 comdat align 2 {
  %2 = load i32, i32* @x.131
  %3 = load i32, i32* @y.132
  %4 = sub i32 %2, 1
  %5 = mul i32 %2, %4
  %6 = urem i32 %5, 2
  %7 = icmp eq i32 %6, 0
  %8 = icmp slt i32 %3, 10
  %9 = or i1 %7, %8
  br i1 %9, label %originalBB, label %originalBBalteredBB

originalBB:                                       ; preds = %1, %originalBBalteredBB
  %10 = alloca %"class.__gnu_cxx::__normal_iterator.70"*, align 8
  store %"class.__gnu_cxx::__normal_iterator.70"* %0, %"class.__gnu_cxx::__normal_iterator.70"** %10, align 8
  %11 = load %"class.__gnu_cxx::__normal_iterator.70"*, %"class.__gnu_cxx::__normal_iterator.70"** %10, align 8
  %12 = getelementptr inbounds %"class.__gnu_cxx::__normal_iterator.70", %"class.__gnu_cxx::__normal_iterator.70"* %11, i32 0, i32 0
  %13 = load %class.Tensor.33*, %class.Tensor.33** %12, align 8
  %14 = load i32, i32* @x.131
  %15 = load i32, i32* @y.132
  %16 = sub i32 %14, 1
  %17 = mul i32 %14, %16
  %18 = urem i32 %17, 2
  %19 = icmp eq i32 %18, 0
  %20 = icmp slt i32 %15, 10
  %21 = or i1 %19, %20
  br i1 %21, label %originalBBpart2, label %originalBBalteredBB

originalBBpart2:                                  ; preds = %originalBB
  ret %class.Tensor.33* %13

originalBBalteredBB:                              ; preds = %originalBB, %1
  %22 = alloca %"class.__gnu_cxx::__normal_iterator.70"*, align 8
  store %"class.__gnu_cxx::__normal_iterator.70"* %0, %"class.__gnu_cxx::__normal_iterator.70"** %22, align 8
  %23 = load %"class.__gnu_cxx::__normal_iterator.70"*, %"class.__gnu_cxx::__normal_iterator.70"** %22, align 8
  %24 = getelementptr inbounds %"class.__gnu_cxx::__normal_iterator.70", %"class.__gnu_cxx::__normal_iterator.70"* %23, i32 0, i32 0
  %25 = load %class.Tensor.33*, %class.Tensor.33** %24, align 8
  br label %originalBB
}

; Function Attrs: noinline nounwind uwtable
define linkonce_odr i64 @_ZNKSt6vectorI6TensorILi2ELi3EESaIS1_EE4sizeEv(%"class.std::vector.65"*) #1 comdat align 2 {
  %2 = load i32, i32* @x.133
  %3 = load i32, i32* @y.134
  %4 = sub i32 %2, 1
  %5 = mul i32 %2, %4
  %6 = urem i32 %5, 2
  %7 = icmp eq i32 %6, 0
  %8 = icmp slt i32 %3, 10
  %9 = or i1 %7, %8
  br i1 %9, label %originalBB, label %originalBBalteredBB

originalBB:                                       ; preds = %1, %originalBBalteredBB
  %10 = alloca %"class.std::vector.65"*, align 8
  store %"class.std::vector.65"* %0, %"class.std::vector.65"** %10, align 8
  %11 = load %"class.std::vector.65"*, %"class.std::vector.65"** %10, align 8
  %12 = bitcast %"class.std::vector.65"* %11 to %"struct.std::_Vector_base.66"*
  %13 = getelementptr inbounds %"struct.std::_Vector_base.66", %"struct.std::_Vector_base.66"* %12, i32 0, i32 0
  %14 = bitcast %"struct.std::_Vector_base<Tensor<2, 3>, std::allocator<Tensor<2, 3> > >::_Vector_impl"* %13 to %"struct.std::_Vector_base<Tensor<2, 3>, std::allocator<Tensor<2, 3> > >::_Vector_impl_data"*
  %15 = getelementptr inbounds %"struct.std::_Vector_base<Tensor<2, 3>, std::allocator<Tensor<2, 3> > >::_Vector_impl_data", %"struct.std::_Vector_base<Tensor<2, 3>, std::allocator<Tensor<2, 3> > >::_Vector_impl_data"* %14, i32 0, i32 1
  %16 = load %class.Tensor.33*, %class.Tensor.33** %15, align 8
  %17 = bitcast %"class.std::vector.65"* %11 to %"struct.std::_Vector_base.66"*
  %18 = getelementptr inbounds %"struct.std::_Vector_base.66", %"struct.std::_Vector_base.66"* %17, i32 0, i32 0
  %19 = bitcast %"struct.std::_Vector_base<Tensor<2, 3>, std::allocator<Tensor<2, 3> > >::_Vector_impl"* %18 to %"struct.std::_Vector_base<Tensor<2, 3>, std::allocator<Tensor<2, 3> > >::_Vector_impl_data"*
  %20 = getelementptr inbounds %"struct.std::_Vector_base<Tensor<2, 3>, std::allocator<Tensor<2, 3> > >::_Vector_impl_data", %"struct.std::_Vector_base<Tensor<2, 3>, std::allocator<Tensor<2, 3> > >::_Vector_impl_data"* %19, i32 0, i32 0
  %21 = load %class.Tensor.33*, %class.Tensor.33** %20, align 8
  %22 = ptrtoint %class.Tensor.33* %16 to i64
  %23 = ptrtoint %class.Tensor.33* %21 to i64
  %24 = sub i64 %22, %23
  %25 = sdiv exact i64 %24, 72
  %26 = load i32, i32* @x.133
  %27 = load i32, i32* @y.134
  %28 = sub i32 %26, 1
  %29 = mul i32 %26, %28
  %30 = urem i32 %29, 2
  %31 = icmp eq i32 %30, 0
  %32 = icmp slt i32 %27, 10
  %33 = or i1 %31, %32
  br i1 %33, label %originalBBpart2, label %originalBBalteredBB

originalBBpart2:                                  ; preds = %originalBB
  ret i64 %25

originalBBalteredBB:                              ; preds = %originalBB, %1
  %34 = alloca %"class.std::vector.65"*, align 8
  store %"class.std::vector.65"* %0, %"class.std::vector.65"** %34, align 8
  %35 = load %"class.std::vector.65"*, %"class.std::vector.65"** %34, align 8
  %36 = bitcast %"class.std::vector.65"* %35 to %"struct.std::_Vector_base.66"*
  %37 = getelementptr inbounds %"struct.std::_Vector_base.66", %"struct.std::_Vector_base.66"* %36, i32 0, i32 0
  %38 = bitcast %"struct.std::_Vector_base<Tensor<2, 3>, std::allocator<Tensor<2, 3> > >::_Vector_impl"* %37 to %"struct.std::_Vector_base<Tensor<2, 3>, std::allocator<Tensor<2, 3> > >::_Vector_impl_data"*
  %39 = getelementptr inbounds %"struct.std::_Vector_base<Tensor<2, 3>, std::allocator<Tensor<2, 3> > >::_Vector_impl_data", %"struct.std::_Vector_base<Tensor<2, 3>, std::allocator<Tensor<2, 3> > >::_Vector_impl_data"* %38, i32 0, i32 1
  %40 = load %class.Tensor.33*, %class.Tensor.33** %39, align 8
  %41 = bitcast %"class.std::vector.65"* %35 to %"struct.std::_Vector_base.66"*
  %42 = getelementptr inbounds %"struct.std::_Vector_base.66", %"struct.std::_Vector_base.66"* %41, i32 0, i32 0
  %43 = bitcast %"struct.std::_Vector_base<Tensor<2, 3>, std::allocator<Tensor<2, 3> > >::_Vector_impl"* %42 to %"struct.std::_Vector_base<Tensor<2, 3>, std::allocator<Tensor<2, 3> > >::_Vector_impl_data"*
  %44 = getelementptr inbounds %"struct.std::_Vector_base<Tensor<2, 3>, std::allocator<Tensor<2, 3> > >::_Vector_impl_data", %"struct.std::_Vector_base<Tensor<2, 3>, std::allocator<Tensor<2, 3> > >::_Vector_impl_data"* %43, i32 0, i32 0
  %45 = load %class.Tensor.33*, %class.Tensor.33** %44, align 8
  %46 = ptrtoint %class.Tensor.33* %40 to i64
  %47 = ptrtoint %class.Tensor.33* %45 to i64
  %_ = sub i64 %46, %47
  %gen = mul i64 %_, %47
  %_1 = shl i64 %46, %47
  %_2 = sub i64 %46, %47
  %gen3 = mul i64 %_2, %47
  %_4 = sub i64 %46, %47
  %gen5 = mul i64 %_4, %47
  %_6 = shl i64 %46, %47
  %_7 = shl i64 %46, %47
  %48 = sub i64 %46, %47
  %_8 = sub i64 %48, 72
  %gen9 = mul i64 %_8, 72
  %_10 = sub i64 0, %48
  %gen11 = add i64 %_10, 72
  %_12 = sub i64 0, %48
  %gen13 = add i64 %_12, 72
  %_14 = shl i64 %48, 72
  %_15 = sub i64 0, %48
  %gen16 = add i64 %_15, 72
  %_17 = sub i64 0, %48
  %gen18 = add i64 %_17, 72
  %49 = sdiv exact i64 %48, 72
  br label %originalBB
}

; Function Attrs: noinline nounwind uwtable
define linkonce_odr %class.Tensor.33* @_ZNK8internal18TableBaseAccessors8AccessorILi2E6TensorILi2ELi3EELb0ELj1EE5beginEv(%"class.internal::TableBaseAccessors::Accessor.58"*) #1 comdat align 2 {
  %2 = alloca %"class.internal::TableBaseAccessors::Accessor.58"*, align 8
  store %"class.internal::TableBaseAccessors::Accessor.58"* %0, %"class.internal::TableBaseAccessors::Accessor.58"** %2, align 8
  %3 = load %"class.internal::TableBaseAccessors::Accessor.58"*, %"class.internal::TableBaseAccessors::Accessor.58"** %2, align 8
  %4 = getelementptr inbounds %"class.internal::TableBaseAccessors::Accessor.58", %"class.internal::TableBaseAccessors::Accessor.58"* %3, i32 0, i32 1
  %5 = load %class.Tensor.33*, %class.Tensor.33** %4, align 8
  ret %class.Tensor.33* %5
}

; Function Attrs: noinline uwtable
define linkonce_odr void @_Z9transposeRK6TensorILi2ELi3EE(%class.Tensor.33* noalias sret, %class.Tensor.33* dereferenceable(72)) #0 comdat {
  %3 = load i32, i32* @x.137
  %4 = load i32, i32* @y.138
  %5 = sub i32 %3, 1
  %6 = mul i32 %3, %5
  %7 = urem i32 %6, 2
  %8 = icmp eq i32 %7, 0
  %9 = icmp slt i32 %4, 10
  %10 = or i1 %8, %9
  br i1 %10, label %originalBB, label %originalBBalteredBB

originalBB:                                       ; preds = %2, %originalBBalteredBB
  %11 = alloca %class.Tensor.33*, align 8
  %12 = alloca [3 x [3 x double]], align 16
  store %class.Tensor.33* %1, %class.Tensor.33** %11, align 8
  %13 = getelementptr inbounds [3 x [3 x double]], [3 x [3 x double]]* %12, i64 0, i64 0
  %14 = getelementptr inbounds [3 x double], [3 x double]* %13, i64 0, i64 0
  %15 = load %class.Tensor.33*, %class.Tensor.33** %11, align 8
  %16 = call dereferenceable(24) %class.Tensor* @_ZNK6TensorILi2ELi3EEixEj(%class.Tensor.33* %15, i32 0)
  %17 = call double @_ZNK6TensorILi1ELi3EEixEj(%class.Tensor* %16, i32 0)
  store double %17, double* %14, align 8
  %18 = getelementptr inbounds double, double* %14, i64 1
  %19 = load %class.Tensor.33*, %class.Tensor.33** %11, align 8
  %20 = call dereferenceable(24) %class.Tensor* @_ZNK6TensorILi2ELi3EEixEj(%class.Tensor.33* %19, i32 1)
  %21 = call double @_ZNK6TensorILi1ELi3EEixEj(%class.Tensor* %20, i32 0)
  store double %21, double* %18, align 8
  %22 = getelementptr inbounds double, double* %18, i64 1
  %23 = load %class.Tensor.33*, %class.Tensor.33** %11, align 8
  %24 = call dereferenceable(24) %class.Tensor* @_ZNK6TensorILi2ELi3EEixEj(%class.Tensor.33* %23, i32 2)
  %25 = call double @_ZNK6TensorILi1ELi3EEixEj(%class.Tensor* %24, i32 0)
  store double %25, double* %22, align 8
  %26 = getelementptr inbounds [3 x double], [3 x double]* %13, i64 1
  %27 = getelementptr inbounds [3 x double], [3 x double]* %26, i64 0, i64 0
  %28 = load %class.Tensor.33*, %class.Tensor.33** %11, align 8
  %29 = call dereferenceable(24) %class.Tensor* @_ZNK6TensorILi2ELi3EEixEj(%class.Tensor.33* %28, i32 0)
  %30 = call double @_ZNK6TensorILi1ELi3EEixEj(%class.Tensor* %29, i32 1)
  store double %30, double* %27, align 8
  %31 = getelementptr inbounds double, double* %27, i64 1
  %32 = load %class.Tensor.33*, %class.Tensor.33** %11, align 8
  %33 = call dereferenceable(24) %class.Tensor* @_ZNK6TensorILi2ELi3EEixEj(%class.Tensor.33* %32, i32 1)
  %34 = call double @_ZNK6TensorILi1ELi3EEixEj(%class.Tensor* %33, i32 1)
  store double %34, double* %31, align 8
  %35 = getelementptr inbounds double, double* %31, i64 1
  %36 = load %class.Tensor.33*, %class.Tensor.33** %11, align 8
  %37 = call dereferenceable(24) %class.Tensor* @_ZNK6TensorILi2ELi3EEixEj(%class.Tensor.33* %36, i32 2)
  %38 = call double @_ZNK6TensorILi1ELi3EEixEj(%class.Tensor* %37, i32 1)
  store double %38, double* %35, align 8
  %39 = getelementptr inbounds [3 x double], [3 x double]* %26, i64 1
  %40 = getelementptr inbounds [3 x double], [3 x double]* %39, i64 0, i64 0
  %41 = load %class.Tensor.33*, %class.Tensor.33** %11, align 8
  %42 = call dereferenceable(24) %class.Tensor* @_ZNK6TensorILi2ELi3EEixEj(%class.Tensor.33* %41, i32 0)
  %43 = call double @_ZNK6TensorILi1ELi3EEixEj(%class.Tensor* %42, i32 2)
  store double %43, double* %40, align 8
  %44 = getelementptr inbounds double, double* %40, i64 1
  %45 = load %class.Tensor.33*, %class.Tensor.33** %11, align 8
  %46 = call dereferenceable(24) %class.Tensor* @_ZNK6TensorILi2ELi3EEixEj(%class.Tensor.33* %45, i32 1)
  %47 = call double @_ZNK6TensorILi1ELi3EEixEj(%class.Tensor* %46, i32 2)
  store double %47, double* %44, align 8
  %48 = getelementptr inbounds double, double* %44, i64 1
  %49 = load %class.Tensor.33*, %class.Tensor.33** %11, align 8
  %50 = call dereferenceable(24) %class.Tensor* @_ZNK6TensorILi2ELi3EEixEj(%class.Tensor.33* %49, i32 2)
  %51 = call double @_ZNK6TensorILi1ELi3EEixEj(%class.Tensor* %50, i32 2)
  store double %51, double* %48, align 8
  call void @_ZN6TensorILi2ELi3EEC2ERA3_A3_Kd(%class.Tensor.33* %0, [3 x [3 x double]]* dereferenceable(72) %12)
  %52 = load i32, i32* @x.137
  %53 = load i32, i32* @y.138
  %54 = sub i32 %52, 1
  %55 = mul i32 %52, %54
  %56 = urem i32 %55, 2
  %57 = icmp eq i32 %56, 0
  %58 = icmp slt i32 %53, 10
  %59 = or i1 %57, %58
  br i1 %59, label %originalBBpart2, label %originalBBalteredBB

originalBBpart2:                                  ; preds = %originalBB
  ret void

originalBBalteredBB:                              ; preds = %originalBB, %2
  %60 = alloca %class.Tensor.33*, align 8
  %61 = alloca [3 x [3 x double]], align 16
  store %class.Tensor.33* %1, %class.Tensor.33** %60, align 8
  %62 = getelementptr inbounds [3 x [3 x double]], [3 x [3 x double]]* %61, i64 0, i64 0
  %63 = getelementptr inbounds [3 x double], [3 x double]* %62, i64 0, i64 0
  %64 = load %class.Tensor.33*, %class.Tensor.33** %60, align 8
  %65 = call dereferenceable(24) %class.Tensor* @_ZNK6TensorILi2ELi3EEixEj(%class.Tensor.33* %64, i32 0)
  %66 = call double @_ZNK6TensorILi1ELi3EEixEj(%class.Tensor* %65, i32 0)
  store double %66, double* %63, align 8
  %67 = getelementptr inbounds double, double* %63, i64 1
  %68 = load %class.Tensor.33*, %class.Tensor.33** %60, align 8
  %69 = call dereferenceable(24) %class.Tensor* @_ZNK6TensorILi2ELi3EEixEj(%class.Tensor.33* %68, i32 1)
  %70 = call double @_ZNK6TensorILi1ELi3EEixEj(%class.Tensor* %69, i32 0)
  store double %70, double* %67, align 8
  %71 = getelementptr inbounds double, double* %67, i64 1
  %72 = load %class.Tensor.33*, %class.Tensor.33** %60, align 8
  %73 = call dereferenceable(24) %class.Tensor* @_ZNK6TensorILi2ELi3EEixEj(%class.Tensor.33* %72, i32 2)
  %74 = call double @_ZNK6TensorILi1ELi3EEixEj(%class.Tensor* %73, i32 0)
  store double %74, double* %71, align 8
  %75 = getelementptr inbounds [3 x double], [3 x double]* %62, i64 1
  %76 = getelementptr inbounds [3 x double], [3 x double]* %75, i64 0, i64 0
  %77 = load %class.Tensor.33*, %class.Tensor.33** %60, align 8
  %78 = call dereferenceable(24) %class.Tensor* @_ZNK6TensorILi2ELi3EEixEj(%class.Tensor.33* %77, i32 0)
  %79 = call double @_ZNK6TensorILi1ELi3EEixEj(%class.Tensor* %78, i32 1)
  store double %79, double* %76, align 8
  %80 = getelementptr inbounds double, double* %76, i64 1
  %81 = load %class.Tensor.33*, %class.Tensor.33** %60, align 8
  %82 = call dereferenceable(24) %class.Tensor* @_ZNK6TensorILi2ELi3EEixEj(%class.Tensor.33* %81, i32 1)
  %83 = call double @_ZNK6TensorILi1ELi3EEixEj(%class.Tensor* %82, i32 1)
  store double %83, double* %80, align 8
  %84 = getelementptr inbounds double, double* %80, i64 1
  %85 = load %class.Tensor.33*, %class.Tensor.33** %60, align 8
  %86 = call dereferenceable(24) %class.Tensor* @_ZNK6TensorILi2ELi3EEixEj(%class.Tensor.33* %85, i32 2)
  %87 = call double @_ZNK6TensorILi1ELi3EEixEj(%class.Tensor* %86, i32 1)
  store double %87, double* %84, align 8
  %88 = getelementptr inbounds [3 x double], [3 x double]* %75, i64 1
  %89 = getelementptr inbounds [3 x double], [3 x double]* %88, i64 0, i64 0
  %90 = load %class.Tensor.33*, %class.Tensor.33** %60, align 8
  %91 = call dereferenceable(24) %class.Tensor* @_ZNK6TensorILi2ELi3EEixEj(%class.Tensor.33* %90, i32 0)
  %92 = call double @_ZNK6TensorILi1ELi3EEixEj(%class.Tensor* %91, i32 2)
  store double %92, double* %89, align 8
  %93 = getelementptr inbounds double, double* %89, i64 1
  %94 = load %class.Tensor.33*, %class.Tensor.33** %60, align 8
  %95 = call dereferenceable(24) %class.Tensor* @_ZNK6TensorILi2ELi3EEixEj(%class.Tensor.33* %94, i32 1)
  %96 = call double @_ZNK6TensorILi1ELi3EEixEj(%class.Tensor* %95, i32 2)
  store double %96, double* %93, align 8
  %97 = getelementptr inbounds double, double* %93, i64 1
  %98 = load %class.Tensor.33*, %class.Tensor.33** %60, align 8
  %99 = call dereferenceable(24) %class.Tensor* @_ZNK6TensorILi2ELi3EEixEj(%class.Tensor.33* %98, i32 2)
  %100 = call double @_ZNK6TensorILi1ELi3EEixEj(%class.Tensor* %99, i32 2)
  store double %100, double* %97, align 8
  call void @_ZN6TensorILi2ELi3EEC2ERA3_A3_Kd(%class.Tensor.33* %0, [3 x [3 x double]]* dereferenceable(72) %61)
  br label %originalBB
}

; Function Attrs: noinline nounwind uwtable
define linkonce_odr dereferenceable(72) %class.Tensor.33* @_ZNSt6vectorI6TensorILi2ELi3EESaIS1_EEixEm(%"class.std::vector.65"*, i64) #1 comdat align 2 {
  %3 = alloca %"class.std::vector.65"*, align 8
  %4 = alloca i64, align 8
  store %"class.std::vector.65"* %0, %"class.std::vector.65"** %3, align 8
  store i64 %1, i64* %4, align 8
  %5 = load %"class.std::vector.65"*, %"class.std::vector.65"** %3, align 8
  %6 = bitcast %"class.std::vector.65"* %5 to %"struct.std::_Vector_base.66"*
  %7 = getelementptr inbounds %"struct.std::_Vector_base.66", %"struct.std::_Vector_base.66"* %6, i32 0, i32 0
  %8 = bitcast %"struct.std::_Vector_base<Tensor<2, 3>, std::allocator<Tensor<2, 3> > >::_Vector_impl"* %7 to %"struct.std::_Vector_base<Tensor<2, 3>, std::allocator<Tensor<2, 3> > >::_Vector_impl_data"*
  %9 = getelementptr inbounds %"struct.std::_Vector_base<Tensor<2, 3>, std::allocator<Tensor<2, 3> > >::_Vector_impl_data", %"struct.std::_Vector_base<Tensor<2, 3>, std::allocator<Tensor<2, 3> > >::_Vector_impl_data"* %8, i32 0, i32 0
  %10 = load %class.Tensor.33*, %class.Tensor.33** %9, align 8
  %11 = load i64, i64* %4, align 8
  %12 = getelementptr inbounds %class.Tensor.33, %class.Tensor.33* %10, i64 %11
  ret %class.Tensor.33* %12
}

; Function Attrs: noinline nounwind uwtable
define linkonce_odr dereferenceable(72) %class.Tensor.33* @_ZN6TensorILi2ELi3EEaSERKS0_(%class.Tensor.33*, %class.Tensor.33* dereferenceable(72)) #1 comdat align 2 {
  %3 = alloca %class.Tensor.33*, align 8
  %4 = alloca %class.Tensor.33*, align 8
  %5 = alloca i32, align 4
  store %class.Tensor.33* %0, %class.Tensor.33** %3, align 8
  store %class.Tensor.33* %1, %class.Tensor.33** %4, align 8
  %6 = load %class.Tensor.33*, %class.Tensor.33** %3, align 8
  store i32 0, i32* %5, align 4
  br label %7

; <label>:7:                                      ; preds = %37, %2
  %8 = load i32, i32* @x.141
  %9 = load i32, i32* @y.142
  %10 = sub i32 %8, 1
  %11 = mul i32 %8, %10
  %12 = urem i32 %11, 2
  %13 = icmp eq i32 %12, 0
  %14 = icmp slt i32 %9, 10
  %15 = or i1 %13, %14
  br i1 %15, label %originalBB, label %originalBBalteredBB

originalBB:                                       ; preds = %7, %originalBBalteredBB
  %16 = load i32, i32* %5, align 4
  %17 = icmp ult i32 %16, 3
  %18 = load i32, i32* @x.141
  %19 = load i32, i32* @y.142
  %20 = sub i32 %18, 1
  %21 = mul i32 %18, %20
  %22 = urem i32 %21, 2
  %23 = icmp eq i32 %22, 0
  %24 = icmp slt i32 %19, 10
  %25 = or i1 %23, %24
  br i1 %25, label %originalBBpart2, label %originalBBalteredBB

originalBBpart2:                                  ; preds = %originalBB
  br i1 %17, label %26, label %40

; <label>:26:                                     ; preds = %originalBBpart2
  %27 = load %class.Tensor.33*, %class.Tensor.33** %4, align 8
  %28 = getelementptr inbounds %class.Tensor.33, %class.Tensor.33* %27, i32 0, i32 0
  %29 = load i32, i32* %5, align 4
  %30 = zext i32 %29 to i64
  %31 = getelementptr inbounds [3 x %class.Tensor], [3 x %class.Tensor]* %28, i64 0, i64 %30
  %32 = getelementptr inbounds %class.Tensor.33, %class.Tensor.33* %6, i32 0, i32 0
  %33 = load i32, i32* %5, align 4
  %34 = zext i32 %33 to i64
  %35 = getelementptr inbounds [3 x %class.Tensor], [3 x %class.Tensor]* %32, i64 0, i64 %34
  %36 = call dereferenceable(24) %class.Tensor* @_ZN6TensorILi1ELi3EEaSERKS0_(%class.Tensor* %35, %class.Tensor* dereferenceable(24) %31)
  br label %37

; <label>:37:                                     ; preds = %26
  %38 = load i32, i32* %5, align 4
  %39 = add i32 %38, 1
  store i32 %39, i32* %5, align 4
  br label %7

; <label>:40:                                     ; preds = %originalBBpart2
  %41 = load i32, i32* @x.141
  %42 = load i32, i32* @y.142
  %43 = sub i32 %41, 1
  %44 = mul i32 %41, %43
  %45 = urem i32 %44, 2
  %46 = icmp eq i32 %45, 0
  %47 = icmp slt i32 %42, 10
  %48 = or i1 %46, %47
  br i1 %48, label %originalBB1, label %originalBB1alteredBB

originalBB1:                                      ; preds = %40, %originalBB1alteredBB
  %49 = load i32, i32* @x.141
  %50 = load i32, i32* @y.142
  %51 = sub i32 %49, 1
  %52 = mul i32 %49, %51
  %53 = urem i32 %52, 2
  %54 = icmp eq i32 %53, 0
  %55 = icmp slt i32 %50, 10
  %56 = or i1 %54, %55
  br i1 %56, label %originalBBpart24, label %originalBB1alteredBB

originalBBpart24:                                 ; preds = %originalBB1
  ret %class.Tensor.33* %6

originalBBalteredBB:                              ; preds = %originalBB, %7
  %57 = load i32, i32* %5, align 4
  %58 = icmp ult i32 %57, 3
  br label %originalBB

originalBB1alteredBB:                             ; preds = %originalBB1, %40
  br label %originalBB1
}

; Function Attrs: noinline uwtable
define linkonce_odr void @_ZNSt6vectorI6TensorILi2ELi3EESaIS1_EED2Ev(%"class.std::vector.65"*) unnamed_addr #0 comdat align 2 personality i8* bitcast (i32 (...)* @__gxx_personality_v0 to i8*) {
  %2 = alloca %"class.std::vector.65"*, align 8
  %3 = alloca i8*
  %4 = alloca i32
  store %"class.std::vector.65"* %0, %"class.std::vector.65"** %2, align 8
  %5 = load %"class.std::vector.65"*, %"class.std::vector.65"** %2, align 8
  %6 = bitcast %"class.std::vector.65"* %5 to %"struct.std::_Vector_base.66"*
  %7 = getelementptr inbounds %"struct.std::_Vector_base.66", %"struct.std::_Vector_base.66"* %6, i32 0, i32 0
  %8 = bitcast %"struct.std::_Vector_base<Tensor<2, 3>, std::allocator<Tensor<2, 3> > >::_Vector_impl"* %7 to %"struct.std::_Vector_base<Tensor<2, 3>, std::allocator<Tensor<2, 3> > >::_Vector_impl_data"*
  %9 = getelementptr inbounds %"struct.std::_Vector_base<Tensor<2, 3>, std::allocator<Tensor<2, 3> > >::_Vector_impl_data", %"struct.std::_Vector_base<Tensor<2, 3>, std::allocator<Tensor<2, 3> > >::_Vector_impl_data"* %8, i32 0, i32 0
  %10 = load %class.Tensor.33*, %class.Tensor.33** %9, align 8
  %11 = bitcast %"class.std::vector.65"* %5 to %"struct.std::_Vector_base.66"*
  %12 = getelementptr inbounds %"struct.std::_Vector_base.66", %"struct.std::_Vector_base.66"* %11, i32 0, i32 0
  %13 = bitcast %"struct.std::_Vector_base<Tensor<2, 3>, std::allocator<Tensor<2, 3> > >::_Vector_impl"* %12 to %"struct.std::_Vector_base<Tensor<2, 3>, std::allocator<Tensor<2, 3> > >::_Vector_impl_data"*
  %14 = getelementptr inbounds %"struct.std::_Vector_base<Tensor<2, 3>, std::allocator<Tensor<2, 3> > >::_Vector_impl_data", %"struct.std::_Vector_base<Tensor<2, 3>, std::allocator<Tensor<2, 3> > >::_Vector_impl_data"* %13, i32 0, i32 1
  %15 = load %class.Tensor.33*, %class.Tensor.33** %14, align 8
  %16 = bitcast %"class.std::vector.65"* %5 to %"struct.std::_Vector_base.66"*
