; ModuleID = '/home/ml4code/host/experimento_malware/spec_cpu_2006_range/bytecodes_llvm_4/dealII_mapping_q.ll'
source_filename = "mapping_q.cc"
target datalayout = "e-m:e-i64:64-f80:128-n8:16:32:64-S128"
target triple = "x86_64-unknown-linux-gnu"

%class.StraightBoundary = type { %class.Boundary }
%class.Boundary = type { %class.Subscriptor }
%class.Subscriptor = type { i32 (...)**, i32, %"class.std::type_info"* }
%"class.std::type_info" = type { i32 (...)**, i8* }
%class.MappingQ = type { %class.MappingQ1, %class.Table, %class.Table, i32, i32, i32, %class.TensorProductPolynomials*, i32, %"class.std::vector.5" }
%class.MappingQ1 = type { %class.Mapping }
%class.Mapping = type { %class.Subscriptor }
%class.Table = type { %class.TableBase.base, [4 x i8] }
%class.TableBase.base = type <{ %class.Subscriptor, double*, i32, %class.TableIndices }>
%class.TableIndices = type { %class.TableIndicesBase }
%class.TableIndicesBase = type { [2 x i32] }
%class.TensorProductPolynomials = type { %"class.std::vector", i32, %"class.std::vector.5", %"class.std::vector.5" }
%"class.std::vector" = type { %"struct.std::_Vector_base" }
%"struct.std::_Vector_base" = type { %"struct.std::_Vector_base<Polynomials::Polynomial<double>, std::allocator<Polynomials::Polynomial<double> > >::_Vector_impl" }
%"struct.std::_Vector_base<Polynomials::Polynomial<double>, std::allocator<Polynomials::Polynomial<double> > >::_Vector_impl" = type { %"struct.std::_Vector_base<Polynomials::Polynomial<double>, std::allocator<Polynomials::Polynomial<double> > >::_Vector_impl_data" }
%"struct.std::_Vector_base<Polynomials::Polynomial<double>, std::allocator<Polynomials::Polynomial<double> > >::_Vector_impl_data" = type { %"class.Polynomials::Polynomial"*, %"class.Polynomials::Polynomial"*, %"class.Polynomials::Polynomial"* }
%"class.Polynomials::Polynomial" = type { %class.Subscriptor, %"class.std::vector.0" }
%"class.std::vector.0" = type { %"struct.std::_Vector_base.1" }
%"struct.std::_Vector_base.1" = type { %"struct.std::_Vector_base<double, std::allocator<double> >::_Vector_impl" }
%"struct.std::_Vector_base<double, std::allocator<double> >::_Vector_impl" = type { %"struct.std::_Vector_base<double, std::allocator<double> >::_Vector_impl_data" }
%"struct.std::_Vector_base<double, std::allocator<double> >::_Vector_impl_data" = type { double*, double*, double* }
%"class.std::vector.5" = type { %"struct.std::_Vector_base.6" }
%"struct.std::_Vector_base.6" = type { %"struct.std::_Vector_base<unsigned int, std::allocator<unsigned int> >::_Vector_impl" }
%"struct.std::_Vector_base<unsigned int, std::allocator<unsigned int> >::_Vector_impl" = type { %"struct.std::_Vector_base<unsigned int, std::allocator<unsigned int> >::_Vector_impl_data" }
%"struct.std::_Vector_base<unsigned int, std::allocator<unsigned int> >::_Vector_impl_data" = type { i32*, i32*, i32* }
%"class.MappingQ<3>::InternalData" = type { %"class.MappingQ1<3>::InternalData", %"class.std::vector.129", i8, %"class.MappingQ1<3>::InternalData" }
%"class.std::vector.129" = type { %"struct.std::_Vector_base.130" }
%"struct.std::_Vector_base.130" = type { %"struct.std::_Vector_base<std::vector<Point<3>, std::allocator<Point<3> > >, std::allocator<std::vector<Point<3>, std::allocator<Point<3> > > > >::_Vector_impl" }
%"struct.std::_Vector_base<std::vector<Point<3>, std::allocator<Point<3> > >, std::allocator<std::vector<Point<3>, std::allocator<Point<3> > > > >::_Vector_impl" = type { %"struct.std::_Vector_base<std::vector<Point<3>, std::allocator<Point<3> > >, std::allocator<std::vector<Point<3>, std::allocator<Point<3> > > > >::_Vector_impl_data" }
%"struct.std::_Vector_base<std::vector<Point<3>, std::allocator<Point<3> > >, std::allocator<std::vector<Point<3>, std::allocator<Point<3> > > > >::_Vector_impl_data" = type { %"class.std::vector.58"*, %"class.std::vector.58"*, %"class.std::vector.58"* }
%"class.std::vector.58" = type { %"struct.std::_Vector_base.59" }
%"struct.std::_Vector_base.59" = type { %"struct.std::_Vector_base<Point<3>, std::allocator<Point<3> > >::_Vector_impl" }
%"struct.std::_Vector_base<Point<3>, std::allocator<Point<3> > >::_Vector_impl" = type { %"struct.std::_Vector_base<Point<3>, std::allocator<Point<3> > >::_Vector_impl_data" }
%"struct.std::_Vector_base<Point<3>, std::allocator<Point<3> > >::_Vector_impl_data" = type { %class.Point*, %class.Point*, %class.Point* }
%class.Point = type { %class.Tensor }
%class.Tensor = type { [3 x double] }
%"class.MappingQ1<3>::InternalData" = type { %"class.Mapping<3>::InternalDataBase.base", %"class.std::vector.0", %"class.std::vector.103", %"class.std::vector.108", %"class.std::vector.108", %class.Table.114, %class.Table.114, %"class.std::vector.58", %class.TriaIterator.118, i8, i32 }
%"class.Mapping<3>::InternalDataBase.base" = type <{ %class.Subscriptor, i32, i32, i32, i8 }>
%"class.std::vector.103" = type { %"struct.std::_Vector_base.104" }
%"struct.std::_Vector_base.104" = type { %"struct.std::_Vector_base<Tensor<1, 3>, std::allocator<Tensor<1, 3> > >::_Vector_impl" }
%"struct.std::_Vector_base<Tensor<1, 3>, std::allocator<Tensor<1, 3> > >::_Vector_impl" = type { %"struct.std::_Vector_base<Tensor<1, 3>, std::allocator<Tensor<1, 3> > >::_Vector_impl_data" }
%"struct.std::_Vector_base<Tensor<1, 3>, std::allocator<Tensor<1, 3> > >::_Vector_impl_data" = type { %class.Tensor*, %class.Tensor*, %class.Tensor* }
%"class.std::vector.108" = type { %"struct.std::_Vector_base.109" }
%"struct.std::_Vector_base.109" = type { %"struct.std::_Vector_base<Tensor<2, 3>, std::allocator<Tensor<2, 3> > >::_Vector_impl" }
%"struct.std::_Vector_base<Tensor<2, 3>, std::allocator<Tensor<2, 3> > >::_Vector_impl" = type { %"struct.std::_Vector_base<Tensor<2, 3>, std::allocator<Tensor<2, 3> > >::_Vector_impl_data" }
%"struct.std::_Vector_base<Tensor<2, 3>, std::allocator<Tensor<2, 3> > >::_Vector_impl_data" = type { %class.Tensor.113*, %class.Tensor.113*, %class.Tensor.113* }
%class.Tensor.113 = type { [3 x %class.Tensor] }
%class.Table.114 = type { %class.TableBase.base.116, [4 x i8] }
%class.TableBase.base.116 = type <{ %class.Subscriptor, %class.Tensor*, i32, %class.TableIndices }>
%class.TriaIterator.118 = type { %class.TriaRawIterator.119 }
%class.TriaRawIterator.119 = type { %class.DoFCellAccessor }
%class.DoFCellAccessor = type { %class.DoFObjectAccessor }
%class.DoFObjectAccessor = type { %class.DoFAccessor, %class.CellAccessor }
%class.DoFAccessor = type { %class.DoFHandler* }
%class.DoFHandler = type { %class.Subscriptor, %class.SmartPointer, %class.SmartPointer.121, %"class.std::vector.122", i32, %"class.std::vector.5" }
%class.SmartPointer = type { %class.Triangulation* }
%class.Triangulation = type { %class.Subscriptor, %"class.std::vector.10", %"class.std::vector.58", %"class.std::vector.18", [255 x %class.Boundary*], i32, %struct.TriaNumberCache }
%"class.std::vector.10" = type { %"struct.std::_Vector_base.11" }
%"struct.std::_Vector_base.11" = type { %"struct.std::_Vector_base<TriangulationLevel<3> *, std::allocator<TriangulationLevel<3> *> >::_Vector_impl" }
%"struct.std::_Vector_base<TriangulationLevel<3> *, std::allocator<TriangulationLevel<3> *> >::_Vector_impl" = type { %"struct.std::_Vector_base<TriangulationLevel<3> *, std::allocator<TriangulationLevel<3> *> >::_Vector_impl_data" }
%"struct.std::_Vector_base<TriangulationLevel<3> *, std::allocator<TriangulationLevel<3> *> >::_Vector_impl_data" = type { %class.TriangulationLevel**, %class.TriangulationLevel**, %class.TriangulationLevel** }
%class.TriangulationLevel = type { %class.TriangulationLevel.15, %"struct.TriangulationLevel<3>::HexesData" }
%class.TriangulationLevel.15 = type { %class.TriangulationLevel.16, %"struct.TriangulationLevel<2>::QuadsData" }
%class.TriangulationLevel.16 = type { %class.TriangulationLevel.17, %"struct.TriangulationLevel<1>::LinesData" }
%class.TriangulationLevel.17 = type { %"class.std::vector.18", %"class.std::vector.18", %"class.std::vector.23", %"class.std::vector.5" }
%"class.std::vector.23" = type { %"struct.std::_Vector_base.24" }
%"struct.std::_Vector_base.24" = type { %"struct.std::_Vector_base<std::pair<int, int>, std::allocator<std::pair<int, int> > >::_Vector_impl" }
%"struct.std::_Vector_base<std::pair<int, int>, std::allocator<std::pair<int, int> > >::_Vector_impl" = type { %"struct.std::_Vector_base<std::pair<int, int>, std::allocator<std::pair<int, int> > >::_Vector_impl_data" }
%"struct.std::_Vector_base<std::pair<int, int>, std::allocator<std::pair<int, int> > >::_Vector_impl_data" = type { %"struct.std::pair"*, %"struct.std::pair"*, %"struct.std::pair"* }
%"struct.std::pair" = type opaque
%"struct.TriangulationLevel<1>::LinesData" = type { %"class.std::vector.28", %"class.std::vector.33", %"class.std::vector.18", %"class.std::vector.18", %"class.std::vector.38", %"class.std::vector.43" }
%"class.std::vector.28" = type { %"struct.std::_Vector_base.29" }
%"struct.std::_Vector_base.29" = type { %"struct.std::_Vector_base<Line, std::allocator<Line> >::_Vector_impl" }
%"struct.std::_Vector_base<Line, std::allocator<Line> >::_Vector_impl" = type { %"struct.std::_Vector_base<Line, std::allocator<Line> >::_Vector_impl_data" }
%"struct.std::_Vector_base<Line, std::allocator<Line> >::_Vector_impl_data" = type { %class.Line*, %class.Line*, %class.Line* }
%class.Line = type { [2 x i32] }
%"class.std::vector.33" = type { %"struct.std::_Vector_base.34" }
%"struct.std::_Vector_base.34" = type { %"struct.std::_Vector_base<int, std::allocator<int> >::_Vector_impl" }
%"struct.std::_Vector_base<int, std::allocator<int> >::_Vector_impl" = type { %"struct.std::_Vector_base<int, std::allocator<int> >::_Vector_impl_data" }
%"struct.std::_Vector_base<int, std::allocator<int> >::_Vector_impl_data" = type { i32*, i32*, i32* }
%"class.std::vector.38" = type { %"struct.std::_Vector_base.39" }
%"struct.std::_Vector_base.39" = type { %"struct.std::_Vector_base<unsigned char, std::allocator<unsigned char> >::_Vector_impl" }
%"struct.std::_Vector_base<unsigned char, std::allocator<unsigned char> >::_Vector_impl" = type { %"struct.std::_Vector_base<unsigned char, std::allocator<unsigned char> >::_Vector_impl_data" }
%"struct.std::_Vector_base<unsigned char, std::allocator<unsigned char> >::_Vector_impl_data" = type { i8*, i8*, i8* }
%"class.std::vector.43" = type { %"struct.std::_Vector_base.44" }
%"struct.std::_Vector_base.44" = type { %"struct.std::_Vector_base<void *, std::allocator<void *> >::_Vector_impl" }
%"struct.std::_Vector_base<void *, std::allocator<void *> >::_Vector_impl" = type { %"struct.std::_Vector_base<void *, std::allocator<void *> >::_Vector_impl_data" }
%"struct.std::_Vector_base<void *, std::allocator<void *> >::_Vector_impl_data" = type { i8**, i8**, i8** }
%"struct.TriangulationLevel<2>::QuadsData" = type { %"class.std::vector.48", %"class.std::vector.33", %"class.std::vector.18", %"class.std::vector.18", %"class.std::vector.38", %"class.std::vector.43" }
%"class.std::vector.48" = type { %"struct.std::_Vector_base.49" }
%"struct.std::_Vector_base.49" = type { %"struct.std::_Vector_base<Quad, std::allocator<Quad> >::_Vector_impl" }
%"struct.std::_Vector_base<Quad, std::allocator<Quad> >::_Vector_impl" = type { %"struct.std::_Vector_base<Quad, std::allocator<Quad> >::_Vector_impl_data" }
%"struct.std::_Vector_base<Quad, std::allocator<Quad> >::_Vector_impl_data" = type { %class.Quad*, %class.Quad*, %class.Quad* }
%class.Quad = type { [4 x i32] }
%"struct.TriangulationLevel<3>::HexesData" = type { %"class.std::vector.53", %"class.std::vector.33", %"class.std::vector.18", %"class.std::vector.18", %"class.std::vector.38", %"class.std::vector.43", %"class.std::vector.18" }
%"class.std::vector.53" = type { %"struct.std::_Vector_base.54" }
%"struct.std::_Vector_base.54" = type { %"struct.std::_Vector_base<Hexahedron, std::allocator<Hexahedron> >::_Vector_impl" }
%"struct.std::_Vector_base<Hexahedron, std::allocator<Hexahedron> >::_Vector_impl" = type { %"struct.std::_Vector_base<Hexahedron, std::allocator<Hexahedron> >::_Vector_impl_data" }
%"struct.std::_Vector_base<Hexahedron, std::allocator<Hexahedron> >::_Vector_impl_data" = type { %class.Hexahedron*, %class.Hexahedron*, %class.Hexahedron* }
%class.Hexahedron = type { [6 x i32] }
%"class.std::vector.18" = type { %"struct.std::_Bvector_base" }
%"struct.std::_Bvector_base" = type { %"struct.std::_Bvector_base<std::allocator<bool> >::_Bvector_impl" }
%"struct.std::_Bvector_base<std::allocator<bool> >::_Bvector_impl" = type { %"struct.std::_Bvector_base<std::allocator<bool> >::_Bvector_impl_data" }
%"struct.std::_Bvector_base<std::allocator<bool> >::_Bvector_impl_data" = type { %"struct.std::_Bit_iterator", %"struct.std::_Bit_iterator", i64* }
%"struct.std::_Bit_iterator" = type { %"struct.std::_Bit_iterator_base.base", [4 x i8] }
%"struct.std::_Bit_iterator_base.base" = type <{ i64*, i32 }>
%struct.TriaNumberCache = type { %struct.TriaNumberCache.63, i32, %"class.std::vector.5", i32, %"class.std::vector.5" }
%struct.TriaNumberCache.63 = type { %struct.TriaNumberCache.64, i32, %"class.std::vector.5", i32, %"class.std::vector.5" }
%struct.TriaNumberCache.64 = type { i32, %"class.std::vector.5", i32, %"class.std::vector.5" }
%class.SmartPointer.121 = type { %class.FiniteElement* }
%class.FiniteElement = type { %class.FiniteElementBase.base, [7 x i8] }
%class.FiniteElementBase.base = type <{ %class.Subscriptor, %class.FiniteElementData, [4 x i8], [8 x %class.FullMatrix], [8 x %class.FullMatrix], %class.FullMatrix, %"class.std::vector.78", %"class.std::vector.78", %"class.std::vector.84", %"class.std::vector.84", %"class.std::vector.78", %"class.std::vector.18", %"class.std::vector.58", %"class.std::vector.91", %"class.std::vector.98", %"class.std::vector.5", i8 }>
%class.FiniteElementData = type { i32, i32, i32, i32, i32, i32, i32, i32, i32, i32, i32, i32, i32 }
%class.FullMatrix = type { %class.Table.base, [4 x i8] }
%class.Table.base = type { %class.TableBase.base }
%"class.std::vector.84" = type { %"struct.std::_Vector_base.85" }
%"struct.std::_Vector_base.85" = type { %"struct.std::_Vector_base<std::pair<std::pair<unsigned int, unsigned int>, unsigned int>, std::allocator<std::pair<std::pair<unsigned int, unsigned int>, unsigned int> > >::_Vector_impl" }
%"struct.std::_Vector_base<std::pair<std::pair<unsigned int, unsigned int>, unsigned int>, std::allocator<std::pair<std::pair<unsigned int, unsigned int>, unsigned int> > >::_Vector_impl" = type { %"struct.std::_Vector_base<std::pair<std::pair<unsigned int, unsigned int>, unsigned int>, std::allocator<std::pair<std::pair<unsigned int, unsigned int>, unsigned int> > >::_Vector_impl_data" }
%"struct.std::_Vector_base<std::pair<std::pair<unsigned int, unsigned int>, unsigned int>, std::allocator<std::pair<std::pair<unsigned int, unsigned int>, unsigned int> > >::_Vector_impl_data" = type { %"struct.std::pair.89"*, %"struct.std::pair.89"*, %"struct.std::pair.89"* }
%"struct.std::pair.89" = type { %"struct.std::pair.83", i32 }
%"struct.std::pair.83" = type { i32, i32 }
%"class.std::vector.78" = type { %"struct.std::_Vector_base.79" }
%"struct.std::_Vector_base.79" = type { %"struct.std::_Vector_base<std::pair<unsigned int, unsigned int>, std::allocator<std::pair<unsigned int, unsigned int> > >::_Vector_impl" }
%"struct.std::_Vector_base<std::pair<unsigned int, unsigned int>, std::allocator<std::pair<unsigned int, unsigned int> > >::_Vector_impl" = type { %"struct.std::_Vector_base<std::pair<unsigned int, unsigned int>, std::allocator<std::pair<unsigned int, unsigned int> > >::_Vector_impl_data" }
%"struct.std::_Vector_base<std::pair<unsigned int, unsigned int>, std::allocator<std::pair<unsigned int, unsigned int> > >::_Vector_impl_data" = type { %"struct.std::pair.83"*, %"struct.std::pair.83"*, %"struct.std::pair.83"* }
%"class.std::vector.91" = type { %"struct.std::_Vector_base.92" }
%"struct.std::_Vector_base.92" = type { %"struct.std::_Vector_base<Point<2>, std::allocator<Point<2> > >::_Vector_impl" }
%"struct.std::_Vector_base<Point<2>, std::allocator<Point<2> > >::_Vector_impl" = type { %"struct.std::_Vector_base<Point<2>, std::allocator<Point<2> > >::_Vector_impl_data" }
%"struct.std::_Vector_base<Point<2>, std::allocator<Point<2> > >::_Vector_impl_data" = type { %class.Point.96*, %class.Point.96*, %class.Point.96* }
%class.Point.96 = type { %class.Tensor.97 }
%class.Tensor.97 = type { [2 x double] }
%"class.std::vector.98" = type { %"struct.std::_Vector_base.99" }
%"struct.std::_Vector_base.99" = type { %"struct.std::_Vector_base<std::vector<bool, std::allocator<bool> >, std::allocator<std::vector<bool, std::allocator<bool> > > >::_Vector_impl" }
%"struct.std::_Vector_base<std::vector<bool, std::allocator<bool> >, std::allocator<std::vector<bool, std::allocator<bool> > > >::_Vector_impl" = type { %"struct.std::_Vector_base<std::vector<bool, std::allocator<bool> >, std::allocator<std::vector<bool, std::allocator<bool> > > >::_Vector_impl_data" }
%"struct.std::_Vector_base<std::vector<bool, std::allocator<bool> >, std::allocator<std::vector<bool, std::allocator<bool> > > >::_Vector_impl_data" = type { %"class.std::vector.18"*, %"class.std::vector.18"*, %"class.std::vector.18"* }
%"class.std::vector.122" = type { %"struct.std::_Vector_base.123" }
%"struct.std::_Vector_base.123" = type { %"struct.std::_Vector_base<DoFLevel<3> *, std::allocator<DoFLevel<3> *> >::_Vector_impl" }
%"struct.std::_Vector_base<DoFLevel<3> *, std::allocator<DoFLevel<3> *> >::_Vector_impl" = type { %"struct.std::_Vector_base<DoFLevel<3> *, std::allocator<DoFLevel<3> *> >::_Vector_impl_data" }
%"struct.std::_Vector_base<DoFLevel<3> *, std::allocator<DoFLevel<3> *> >::_Vector_impl_data" = type { %class.DoFLevel**, %class.DoFLevel**, %class.DoFLevel** }
%class.DoFLevel = type { %class.DoFLevel.127, %"class.std::vector.5" }
%class.DoFLevel.127 = type { %class.DoFLevel.128, %"class.std::vector.5" }
%class.DoFLevel.128 = type { %"class.std::vector.5" }
%class.CellAccessor = type { %class.TriaObjectAccessor }
%class.TriaObjectAccessor = type { %class.TriaAccessor }
%class.TriaAccessor = type { i32, i32, %class.Triangulation* }
%"class.MappingQ<3>::ExcLaplaceVectorNotSet" = type <{ %class.ExceptionBase, i32, [4 x i8] }>
%class.ExceptionBase = type { %"class.std::exception", i8*, i32, i8*, i8*, i8* }
%"class.std::exception" = type { i32 (...)** }
%"class.internal::TableBaseAccessors::Accessor" = type { %class.TableBase*, double* }
%class.TableBase = type <{ %class.Subscriptor, double*, i32, %class.TableIndices, [4 x i8] }>
%class.QGauss = type { %class.Quadrature }
%class.Quadrature = type { %class.Subscriptor, i32, %"class.std::vector.58", %"class.std::vector.0" }
%class.TriaIterator = type { %class.TriaRawIterator }
%class.TriaRawIterator = type { %class.CellAccessor }
%"class.std::allocator.60" = type { i8 }
%class.TriaIterator.65 = type { %class.TriaRawIterator.66 }
%class.TriaRawIterator.66 = type { %class.TriaObjectAccessor.68 }
%class.TriaObjectAccessor.68 = type { %class.TriaAccessor }
%"class.__gnu_cxx::__normal_iterator" = type { %class.Point* }
%class.TriaIterator.69 = type { %class.TriaRawIterator.70 }
%class.TriaRawIterator.70 = type { %class.TriaObjectAccessor.72 }
%class.TriaObjectAccessor.72 = type { %class.TriaAccessor }
%"class.__gnu_cxx::new_allocator.61" = type { i8 }
%"struct.std::_Bit_reference" = type { i64*, i64 }
%"struct.std::__false_type" = type { i8 }
%"class.internal::TableBaseAccessors::Accessor.136" = type { %class.TableBase*, double* }
%"class.std::allocator.7" = type { i8 }
%"class.std::vector.73" = type { %"struct.std::_Vector_base.74" }
%"struct.std::_Vector_base.74" = type { %"struct.std::_Vector_base<Polynomials::LagrangeEquidistant, std::allocator<Polynomials::LagrangeEquidistant> >::_Vector_impl" }
%"struct.std::_Vector_base<Polynomials::LagrangeEquidistant, std::allocator<Polynomials::LagrangeEquidistant> >::_Vector_impl" = type { %"struct.std::_Vector_base<Polynomials::LagrangeEquidistant, std::allocator<Polynomials::LagrangeEquidistant> >::_Vector_impl_data" }
%"struct.std::_Vector_base<Polynomials::LagrangeEquidistant, std::allocator<Polynomials::LagrangeEquidistant> >::_Vector_impl_data" = type { %"class.Polynomials::LagrangeEquidistant"*, %"class.Polynomials::LagrangeEquidistant"*, %"class.Polynomials::LagrangeEquidistant"* }
%"class.Polynomials::LagrangeEquidistant" = type { %"class.Polynomials::Polynomial" }
%class.FE_Q = type { %class.FE_Poly, %"class.std::vector.5" }
%class.FE_Poly = type { %class.FiniteElement.base, i32, %class.TensorProductPolynomials }
%class.FiniteElement.base = type { %class.FiniteElementBase.base }
%"class.__gnu_cxx::new_allocator.8" = type { i8 }
%"class.__gnu_cxx::__normal_iterator.140" = type { %"class.Polynomials::LagrangeEquidistant"* }
%"class.std::allocator.75" = type { i8 }
%"class.__gnu_cxx::__normal_iterator.142" = type { %"class.Polynomials::LagrangeEquidistant"* }
%"class.std::allocator" = type { i8 }
%"class.__gnu_cxx::__normal_iterator.143" = type { i32* }
%"class.std::auto_ptr" = type { %"class.MappingQ<3>::InternalData"* }
%"class.Mapping<3>::InternalDataBase" = type <{ %class.Subscriptor, i32, i32, i32, i8, [3 x i8] }>
%"class.__gnu_cxx::__normal_iterator.134" = type { %class.Tensor.113* }
%"class.std::allocator.131" = type { i8 }
%class.Quadrature.135 = type { %class.Subscriptor, i32, %"class.std::vector.91", %"class.std::vector.0" }
%"class.QProjector<3>::DataSetDescriptor" = type { i32 }
%"class.__gnu_cxx::__normal_iterator.144" = type { double* }
%"class.__gnu_cxx::__normal_iterator.145" = type { %class.Tensor* }
%"class.std::allocator.110" = type { i8 }
%"class.std::allocator.105" = type { i8 }
%"class.std::allocator.2" = type { i8 }
%"class.std::basic_ostream" = type { i32 (...)**, %"class.std::basic_ios" }
%"class.std::basic_ios" = type { %"class.std::ios_base", %"class.std::basic_ostream"*, i8, i8, %"class.std::basic_streambuf"*, %"class.std::ctype"*, %"class.std::num_put"*, %"class.std::num_get"* }
%"class.std::ios_base" = type { i32 (...)**, i64, i64, i32, i32, i32, %"struct.std::ios_base::_Callback_list"*, %"struct.std::ios_base::_Words", [8 x %"struct.std::ios_base::_Words"], i32, %"struct.std::ios_base::_Words"*, %"class.std::locale" }
%"struct.std::ios_base::_Callback_list" = type { %"struct.std::ios_base::_Callback_list"*, void (i32, %"class.std::ios_base"*, i32)*, i32, i32 }
%"struct.std::ios_base::_Words" = type { i8*, i64 }
%"class.std::locale" = type { %"class.std::locale::_Impl"* }
%"class.std::locale::_Impl" = type { i32, %"class.std::locale::facet"**, i64, %"class.std::locale::facet"**, i8** }
%"class.std::locale::facet" = type <{ i32 (...)**, i32, [4 x i8] }>
%"class.std::basic_streambuf" = type { i32 (...)**, i8*, i8*, i8*, i8*, i8*, i8*, %"class.std::locale" }
%"class.std::ctype" = type <{ %"class.std::locale::facet.base", [4 x i8], %struct.__locale_struct*, i8, [7 x i8], i32*, i32*, i16*, i8, [256 x i8], [256 x i8], i8, [6 x i8] }>
%"class.std::locale::facet.base" = type <{ i32 (...)**, i32 }>
%struct.__locale_struct = type { [13 x %struct.__locale_data*], i16*, i32*, i32*, [13 x i8*] }
%struct.__locale_data = type opaque
%"class.std::num_put" = type { %"class.std::locale::facet.base", [4 x i8] }
%"class.std::num_get" = type { %"class.std::locale::facet.base", [4 x i8] }
%"struct.std::iterator.67" = type { i8 }
%"class.std::__cxx11::basic_string" = type { %"struct.std::__cxx11::basic_string<char, std::char_traits<char>, std::allocator<char> >::_Alloc_hider", i64, %union.anon }
%"struct.std::__cxx11::basic_string<char, std::char_traits<char>, std::allocator<char> >::_Alloc_hider" = type { i8* }
%union.anon = type { i64, [8 x i8] }
%class.FiniteElementBase = type <{ %class.Subscriptor, %class.FiniteElementData, [4 x i8], [8 x %class.FullMatrix], [8 x %class.FullMatrix], %class.FullMatrix, %"class.std::vector.78", %"class.std::vector.78", %"class.std::vector.84", %"class.std::vector.84", %"class.std::vector.78", %"class.std::vector.18", %"class.std::vector.58", %"class.std::vector.91", %"class.std::vector.98", %"class.std::vector.5", i8, [7 x i8] }>
%class.FEValuesData = type opaque
%"class.__gnu_cxx::new_allocator" = type { i8 }
%class.TableBase.115 = type <{ %class.Subscriptor, %class.Tensor*, i32, %class.TableIndices, [4 x i8] }>
%"struct.std::_Bit_iterator_base" = type <{ i64*, i32, [4 x i8] }>
%"struct.std::iterator.22" = type { i8 }
%"struct.std::forward_iterator_tag" = type { i8 }
%"struct.std::random_access_iterator_tag" = type { i8 }
%"struct.std::iterator.71" = type { i8 }
%"class.__gnu_cxx::new_allocator.76" = type { i8 }
%"class.__gnu_cxx::__normal_iterator.141" = type { double* }
%"class.__gnu_cxx::new_allocator.3" = type { i8 }
%"class.__gnu_cxx::new_allocator.132" = type { i8 }
%"class.__gnu_cxx::new_allocator.106" = type { i8 }
%"class.__gnu_cxx::new_allocator.111" = type { i8 }

$_ZN5TableILi2EdE6reinitEjj = comdat any

$_ZN5TableILi2EdEixEj = comdat any

$_ZNK8internal18TableBaseAccessors8AccessorILi2EdLb0ELj1EEixEj = comdat any

$_ZNK8MappingQILi3EE22compute_laplace_vectorER5TableILi2EdE = comdat any

$_ZN16StraightBoundaryILi3EED2Ev = comdat any

$_ZN5PointILi3EEC2Ev = comdat any

$_ZNSaI5PointILi3EEEC2Ev = comdat any

$_ZNSt6vectorI5PointILi3EESaIS1_EEC2EmRKS1_RKS2_ = comdat any

$_ZNSaI5PointILi3EEED2Ev = comdat any

$_ZNK15TriaRawIteratorILi3E12CellAccessorILi3EEEptEv = comdat any

$_ZNK12CellAccessorILi3EE4faceEj = comdat any

$_ZNK18TriaObjectAccessorILi3ELi3EE16face_orientationEj = comdat any

$_ZNK15TriaRawIteratorILi3E18TriaObjectAccessorILi2ELi3EEEptEv = comdat any

$_ZNK12TriaAccessorILi3EE17get_triangulationEv = comdat any

$_ZNSt6vectorI5PointILi3EESaIS1_EE6insertIN9__gnu_cxx17__normal_iteratorIPS1_S3_EEEEvS8_T_S9_ = comdat any

$_ZNSt6vectorI5PointILi3EESaIS1_EE3endEv = comdat any

$_ZNSt6vectorI5PointILi3EESaIS1_EE5beginEv = comdat any

$_ZNK18TriaObjectAccessorILi2ELi3EE4lineEj = comdat any

$_ZN15TriaRawIteratorILi3E18TriaObjectAccessorILi1ELi3EEEptEv = comdat any

$_ZNSt6vectorI5PointILi3EESaIS1_EE6resizeEmS1_ = comdat any

$_ZNSt6vectorI5PointILi3EESaIS1_EEixEm = comdat any

$_ZN5PointILi3EEaSERKS0_ = comdat any

$_ZNK8MappingQILi3EE20apply_laplace_vectorERK5TableILi2EdERSt6vectorI5PointILi3EESaIS7_EE = comdat any

$_ZNSt6vectorI5PointILi3EESaIS1_EE9push_backERKS1_ = comdat any

$_ZNSt6vectorI5PointILi3EESaIS1_EED2Ev = comdat any

$__clang_call_terminate = comdat any

$_ZN8MappingQILi3EEC5Ej = comdat any

$_ZN5TableILi2EdEC2Ev = comdat any

$_Z5powerIjET_S0_j = comdat any

$_ZNSaIjEC2Ev = comdat any

$_ZNSt6vectorIjSaIjEEC2EmRKjRKS0_ = comdat any

$_ZNSaIjED2Ev = comdat any

$_ZNSt6vectorIN11Polynomials19LagrangeEquidistantESaIS1_EEC2Ev = comdat any

$_ZNSt6vectorIN11Polynomials19LagrangeEquidistantESaIS1_EE9push_backERKS1_ = comdat any

$_ZN11Polynomials19LagrangeEquidistantD2Ev = comdat any

$_ZN24TensorProductPolynomialsILi3EEC2IN11Polynomials19LagrangeEquidistantEEERKSt6vectorIT_SaIS5_EE = comdat any

$_ZNSt6vectorIjSaIjEE6resizeEmj = comdat any

$_ZN4FE_QILi3EED2Ev = comdat any

$_ZNK8MappingQILi3EE26set_laplace_on_quad_vectorER5TableILi2EdE = comdat any

$_ZNSt6vectorIN11Polynomials19LagrangeEquidistantESaIS1_EED2Ev = comdat any

$_ZNSt6vectorIjSaIjEED2Ev = comdat any

$_ZN5TableILi2EdED2Ev = comdat any

$_ZN9MappingQ1ILi3EED2Ev = comdat any

$_ZN8MappingQILi3EED5Ev = comdat any

$_ZN24TensorProductPolynomialsILi3EED2Ev = comdat any

$_ZNK8MappingQILi3EE27transform_unit_to_real_cellERK12TriaIteratorILi3E12CellAccessorILi3EEERK5PointILi3EE = comdat any

$_ZNSt8auto_ptrIN8MappingQILi3EE12InternalDataEEC2EPS2_ = comdat any

$_ZNKSt8auto_ptrIN8MappingQILi3EE12InternalDataEEptEv = comdat any

$_ZNKSt8auto_ptrIN8MappingQILi3EE12InternalDataEEdeEv = comdat any

$_ZNSt8auto_ptrIN8MappingQILi3EE12InternalDataEED2Ev = comdat any

$_ZNK8MappingQILi3EE27transform_real_to_unit_cellERK12TriaIteratorILi3E12CellAccessorILi3EEERK5PointILi3EE = comdat any

$_Zor11UpdateFlagsS_ = comdat any

$_ZNK8MappingQILi3EE19transform_covariantEP6TensorILi1ELi3EES3_PKS2_RKN7MappingILi3EE16InternalDataBaseE = comdat any

$_ZN9__gnu_cxx17__normal_iteratorIPK6TensorILi2ELi3EESt6vectorIS2_SaIS2_EEEC2Ev = comdat any

$_ZNKSt6vectorI6TensorILi2ELi3EESaIS1_EE5beginEv = comdat any

$_Z8contractILi3EEvR6TensorILi1EXT_EERKS1_RKS0_ILi2EXT_EE = comdat any

$_ZN9__gnu_cxx17__normal_iteratorIPK6TensorILi2ELi3EESt6vectorIS2_SaIS2_EEEppEi = comdat any

$_ZNK9__gnu_cxx17__normal_iteratorIPK6TensorILi2ELi3EESt6vectorIS2_SaIS2_EEEdeEv = comdat any

$_ZNK8MappingQILi3EE19transform_covariantEP6TensorILi2ELi3EES3_PKS2_RKN7MappingILi3EE16InternalDataBaseE = comdat any

$_Z8contractILi3EEvR6TensorILi2EXT_EERKS1_S4_ = comdat any

$_ZNK8MappingQILi3EE23transform_contravariantEP6TensorILi1ELi3EES3_PKS2_RKN7MappingILi3EE16InternalDataBaseE = comdat any

$_Z8contractILi3EEvR6TensorILi1EXT_EERKS0_ILi2EXT_EERKS1_ = comdat any

$_ZNK8MappingQILi3EE23transform_contravariantEP6TensorILi2ELi3EES3_PKS2_RKN7MappingILi3EE16InternalDataBaseE = comdat any

$_ZNK8MappingQILi3EE10get_degreeEv = comdat any

$_ZN8MappingQILi3EE12InternalDataC5Ej = comdat any

$_ZNSt6vectorIS_I5PointILi3EESaIS1_EESaIS3_EEC2Ev = comdat any

$_ZNSt6vectorIS_I5PointILi3EESaIS1_EESaIS3_EED2Ev = comdat any

$_ZNK8MappingQILi3EE12InternalData18memory_consumptionEv = comdat any

$_ZN17MemoryConsumption18memory_consumptionISt6vectorI5PointILi3EESaIS3_EEEEjRKS1_IT_SaIS6_EE = comdat any

$_ZN17MemoryConsumption18memory_consumptionEb = comdat any

$_ZN17MemoryConsumption18memory_consumptionIN9MappingQ1ILi3EE12InternalDataEEEjRKT_ = comdat any

$_ZNK8MappingQILi3EE14fill_fe_valuesERK12TriaIteratorILi3E15DoFCellAccessorILi3EEERK10QuadratureILi3EERN7MappingILi3EE16InternalDataBaseERSt6vectorI5PointILi3EESaISH_EERSF_IdSaIdEE = comdat any

$_ZNK15TriaRawIteratorILi3E15DoFCellAccessorILi3EEEptEv = comdat any

$_ZNK8MappingQILi3EE19fill_fe_face_valuesERK12TriaIteratorILi3E15DoFCellAccessorILi3EEEjRK10QuadratureILi2EERN7MappingILi3EE16InternalDataBaseERSt6vectorI5PointILi3EESaISH_EERSF_IdSaIdEERSF_I6TensorILi1ELi3EESaISP_EESK_ = comdat any

$_ZNK8MappingQILi3EE22fill_fe_subface_valuesERK12TriaIteratorILi3E15DoFCellAccessorILi3EEEjjRK10QuadratureILi2EERN7MappingILi3EE16InternalDataBaseERSt6vectorI5PointILi3EESaISH_EERSF_IdSaIdEERSF_I6TensorILi1ELi3EESaISP_EESK_ = comdat any

$_ZNK8MappingQILi3EE23add_line_support_pointsERK12TriaIteratorILi3E12CellAccessorILi3EEERSt6vectorI5PointILi3EESaIS9_EE = comdat any

$_ZNK18TriaObjectAccessorILi3ELi3EE4lineEj = comdat any

$_ZNK15TriaRawIteratorILi3E18TriaObjectAccessorILi1ELi3EEEptEv = comdat any

$_ZNK8MappingQILi3EE8get_dataE11UpdateFlagsRK10QuadratureILi3EE = comdat any

$_ZNK8MappingQILi3EE13get_face_dataE11UpdateFlagsRK10QuadratureILi2EE = comdat any

$_ZNK8MappingQILi3EE16get_subface_dataE11UpdateFlagsRK10QuadratureILi2EE = comdat any

$_ZNK8MappingQILi3EE22compute_shapes_virtualERKSt6vectorI5PointILi3EESaIS3_EERN9MappingQ1ILi3EE12InternalDataE = comdat any

$_ZNKSt6vectorI5PointILi3EESaIS1_EE4sizeEv = comdat any

$_ZNSt6vectorIdSaIdEEC2Ev = comdat any

$_ZNSt6vectorI6TensorILi1ELi3EESaIS1_EEC2Ev = comdat any

$_ZNKSt6vectorIdSaIdEE4sizeEv = comdat any

$_ZNSt6vectorIdSaIdEE6resizeEmd = comdat any

$_ZNKSt6vectorI6TensorILi1ELi3EESaIS1_EE4sizeEv = comdat any

$_ZNSt6vectorI6TensorILi1ELi3EESaIS1_EE6resizeEmS1_ = comdat any

$_ZN6TensorILi1ELi3EEC2Eb = comdat any

$_ZNSt6vectorI6TensorILi2ELi3EESaIS1_EEC2Ev = comdat any

$_ZNKSt6vectorI5PointILi3EESaIS1_EEixEm = comdat any

$_ZNSt6vectorIdSaIdEEixEm = comdat any

$_ZN9MappingQ1ILi3EE12InternalData5shapeEjj = comdat any

$_ZNKSt6vectorIjSaIjEEixEm = comdat any

$_ZNSt6vectorI6TensorILi1ELi3EESaIS1_EEixEm = comdat any

$_ZN9MappingQ1ILi3EE12InternalData10derivativeEjj = comdat any

$_ZN6TensorILi1ELi3EEaSERKS0_ = comdat any

$_ZNSt6vectorI6TensorILi2ELi3EESaIS1_EED2Ev = comdat any

$_ZNSt6vectorI6TensorILi1ELi3EESaIS1_EED2Ev = comdat any

$_ZNSt6vectorIdSaIdEED2Ev = comdat any

$_ZNK5TableILi2EdE6n_rowsEv = comdat any

$_Z8contractILi3EEdRK6TensorILi1EXT_EES3_ = comdat any

$_ZN5TableILi2EdEclEjj = comdat any

$_ZN10FullMatrixIdED2Ev = comdat any

$_ZN8MappingQILi3EE12InternalDataD2Ev = comdat any

$_ZN6QGaussILi3EED2Ev = comdat any

$_ZNK5TableILi2EdE6n_colsEv = comdat any

$_ZmlILi3EE5PointIXT_EEdRKS1_ = comdat any

$_ZNK5TableILi2EdEixEj = comdat any

$_ZNK8internal18TableBaseAccessors8AccessorILi2EdLb1ELj1EEixEj = comdat any

$_ZN6TensorILi1ELi3EEpLERKS0_ = comdat any

$_ZNK8MappingQILi3EE30compute_mapping_support_pointsERK12TriaIteratorILi3E12CellAccessorILi3EEERSt6vectorI5PointILi3EESaIS9_EE = comdat any

$_ZNK8MappingQILi3EE30compute_support_points_laplaceERK12TriaIteratorILi3E12CellAccessorILi3EEERSt6vectorI5PointILi3EESaIS9_EE = comdat any

$_ZN8MappingQILi3EE22ExcLaplaceVectorNotSetC5Ei = comdat any

$_ZN8MappingQILi3EE22ExcLaplaceVectorNotSetD5Ev = comdat any

$_ZNK8MappingQILi3EE22ExcLaplaceVectorNotSet9PrintInfoERSo = comdat any

$_ZN8MappingQILi3EE12InternalDataD0Ev = comdat any

$_ZN7MappingILi3EE16InternalDataBase16clear_first_cellEv = comdat any

$_ZNK18TriaObjectAccessorILi3ELi3EE4quadEj = comdat any

$_ZNK18TriaObjectAccessorILi3ELi3EE10quad_indexEj = comdat any

$_ZN12TriaIteratorILi3E18TriaObjectAccessorILi2ELi3EEEC2EPK13TriangulationILi3EEiiPKv = comdat any

$_ZNKSt6vectorIP18TriangulationLevelILi3EESaIS2_EEixEm = comdat any

$_ZNSt6vectorI10HexahedronSaIS0_EEixEm = comdat any

$_ZNK10Hexahedron4quadEi = comdat any

$_ZN15TriaRawIteratorILi3E18TriaObjectAccessorILi2ELi3EEEC2EPK13TriangulationILi3EEiiPKv = comdat any

$_ZN18TriaObjectAccessorILi2ELi3EEC2EPK13TriangulationILi3EEiiPKv = comdat any

$_ZN12TriaAccessorILi3EEC2EPK13TriangulationILi3EEiiPKv = comdat any

$_ZN11Polynomials10PolynomialIdED2Ev = comdat any

$_ZN11Polynomials10PolynomialIdED0Ev = comdat any

$_ZN4FE_QILi3EED0Ev = comdat any

$_ZN7FE_PolyI24TensorProductPolynomialsILi3EELi3EED2Ev = comdat any

$_ZN7FE_PolyI24TensorProductPolynomialsILi3EELi3EED0Ev = comdat any

$_ZN9TableBaseILi2EdED2Ev = comdat any

$_ZN9TableBaseILi2EdED0Ev = comdat any

$_ZNSt6vectorIN11Polynomials10PolynomialIdEESaIS2_EED2Ev = comdat any

$_ZSt8_DestroyIPN11Polynomials10PolynomialIdEES2_EvT_S4_RSaIT0_E = comdat any

$_ZNSt12_Vector_baseIN11Polynomials10PolynomialIdEESaIS2_EE19_M_get_Tp_allocatorEv = comdat any

$_ZNSt12_Vector_baseIN11Polynomials10PolynomialIdEESaIS2_EED2Ev = comdat any

$_ZSt8_DestroyIPN11Polynomials10PolynomialIdEEEvT_S4_ = comdat any

$_ZNSt12_Destroy_auxILb0EE9__destroyIPN11Polynomials10PolynomialIdEEEEvT_S6_ = comdat any

$_ZSt8_DestroyIN11Polynomials10PolynomialIdEEEvPT_ = comdat any

$_ZSt11__addressofIN11Polynomials10PolynomialIdEEEPT_RS3_ = comdat any

$_ZNSt12_Vector_baseIN11Polynomials10PolynomialIdEESaIS2_EE13_M_deallocateEPS2_m = comdat any

$_ZNSt12_Vector_baseIN11Polynomials10PolynomialIdEESaIS2_EE12_Vector_implD2Ev = comdat any

$_ZN9__gnu_cxx14__alloc_traitsISaIN11Polynomials10PolynomialIdEEES3_E10deallocateERS4_PS3_m = comdat any

$_ZN9__gnu_cxx13new_allocatorIN11Polynomials10PolynomialIdEEE10deallocateEPS3_m = comdat any

$_ZN9__gnu_cxx13new_allocatorIN11Polynomials10PolynomialIdEEED2Ev = comdat any

$_ZN5TableILi2E6TensorILi1ELi3EEED2Ev = comdat any

$_ZN9MappingQ1ILi3EE12InternalDataD2Ev = comdat any

$_ZN9MappingQ1ILi3EE12InternalDataD0Ev = comdat any

$_ZN9TableBaseILi2E6TensorILi1ELi3EEED2Ev = comdat any

$_ZN9TableBaseILi2E6TensorILi1ELi3EEED0Ev = comdat any

$_ZN9__gnu_cxx13new_allocatorIjEC2Ev = comdat any

$_ZN9__gnu_cxx13new_allocatorIjED2Ev = comdat any

$_ZN9TableBaseILi2EdE6reinitERK12TableIndicesILi2EE = comdat any

$_ZN12TableIndicesILi2EEC2Ejj = comdat any

$_ZNK9TableBaseILi2EdE10n_elementsEv = comdat any

$_ZN12TableIndicesILi2EEC2Ev = comdat any

$_ZN9TableBaseILi2EdE12reset_valuesEv = comdat any

$_ZNK16TableIndicesBaseILi2EEixEj = comdat any

$_ZSt6fill_nIPdjdET_S1_T0_RKT1_ = comdat any

$_ZSt12__niter_wrapIPdET_RKS1_S1_ = comdat any

$_ZSt10__fill_n_aIPdjdEN9__gnu_cxx11__enable_ifIXsr11__is_scalarIT1_EE7__valueET_E6__typeES4_T0_RKS3_ = comdat any

$_ZSt12__niter_baseIPdET_S1_ = comdat any

$_ZN8internal18TableBaseAccessors8AccessorILi2EdLb0ELj1EEC2ERK9TableBaseILi2EdEPd = comdat any

$_ZN9__gnu_cxx13new_allocatorI5PointILi3EEEC2Ev = comdat any

$_ZN9__gnu_cxx13new_allocatorI5PointILi3EEED2Ev = comdat any

$_ZNSt6vectorI5PointILi3EESaIS1_EE17_S_check_init_lenEmRKS2_ = comdat any

$_ZNSt12_Vector_baseI5PointILi3EESaIS1_EEC2EmRKS2_ = comdat any

$_ZNSt6vectorI5PointILi3EESaIS1_EE18_M_fill_initializeEmRKS1_ = comdat any

$_ZNSt12_Vector_baseI5PointILi3EESaIS1_EED2Ev = comdat any

$_ZNSt6vectorI5PointILi3EESaIS1_EE11_S_max_sizeERKS2_ = comdat any

$_ZNSaI5PointILi3EEEC2ERKS1_ = comdat any

$_ZN9__gnu_cxx14__alloc_traitsISaI5PointILi3EEES2_E8max_sizeERKS3_ = comdat any

$_ZSt3minImERKT_S2_S2_ = comdat any

$_ZNK9__gnu_cxx13new_allocatorI5PointILi3EEE8max_sizeEv = comdat any

$_ZN9__gnu_cxx13new_allocatorI5PointILi3EEEC2ERKS3_ = comdat any

$_ZNSt12_Vector_baseI5PointILi3EESaIS1_EE12_Vector_implC2ERKS2_ = comdat any

$_ZNSt12_Vector_baseI5PointILi3EESaIS1_EE17_M_create_storageEm = comdat any

$_ZNSt12_Vector_baseI5PointILi3EESaIS1_EE12_Vector_implD2Ev = comdat any

$_ZNSt12_Vector_baseI5PointILi3EESaIS1_EE17_Vector_impl_dataC2Ev = comdat any

$_ZNSt12_Vector_baseI5PointILi3EESaIS1_EE11_M_allocateEm = comdat any

$_ZN9__gnu_cxx14__alloc_traitsISaI5PointILi3EEES2_E8allocateERS3_m = comdat any

$_ZN9__gnu_cxx13new_allocatorI5PointILi3EEE8allocateEmPKv = comdat any

$_ZSt24__uninitialized_fill_n_aIP5PointILi3EEmS1_S1_ET_S3_T0_RKT1_RSaIT2_E = comdat any

$_ZNSt12_Vector_baseI5PointILi3EESaIS1_EE19_M_get_Tp_allocatorEv = comdat any

$_ZSt20uninitialized_fill_nIP5PointILi3EEmS1_ET_S3_T0_RKT1_ = comdat any

$_ZNSt22__uninitialized_fill_nILb0EE15__uninit_fill_nIP5PointILi3EEmS3_EET_S5_T0_RKT1_ = comdat any

$_ZSt10_ConstructI5PointILi3EES1_EvPT_RKT0_ = comdat any

$_ZSt11__addressofI5PointILi3EEEPT_RS2_ = comdat any

$_ZSt8_DestroyIP5PointILi3EEEvT_S3_ = comdat any

$_ZN5PointILi3EEC2ERKS0_ = comdat any

$_ZNSt12_Destroy_auxILb1EE9__destroyIP5PointILi3EEEEvT_S5_ = comdat any

$_ZNSt12_Vector_baseI5PointILi3EESaIS1_EE13_M_deallocateEPS1_m = comdat any

$_ZN9__gnu_cxx14__alloc_traitsISaI5PointILi3EEES2_E10deallocateERS3_PS2_m = comdat any

$_ZN9__gnu_cxx13new_allocatorI5PointILi3EEE10deallocateEPS2_m = comdat any

$_ZSt8_DestroyIP5PointILi3EES1_EvT_S3_RSaIT0_E = comdat any

$_ZNK15TriaRawIteratorILi3E12CellAccessorILi3EEEdeEv = comdat any

$_ZNSt6vectorIbSaIbEEixEm = comdat any

$_ZNKSt14_Bit_referencecvbEv = comdat any

$_ZNSt13_Bit_iteratorC2EPmj = comdat any

$_ZNKSt13_Bit_iteratordeEv = comdat any

$_ZNSt18_Bit_iterator_baseC2EPmj = comdat any

$_ZNSt14_Bit_referenceC2EPmm = comdat any

$_ZNK15TriaRawIteratorILi3E18TriaObjectAccessorILi2ELi3EEEdeEv = comdat any

$_ZN9__gnu_cxx17__normal_iteratorIP5PointILi3EESt6vectorIS2_SaIS2_EEEC2ERKS3_ = comdat any

$_ZNSt6vectorI5PointILi3EESaIS1_EE18_M_insert_dispatchIN9__gnu_cxx17__normal_iteratorIPS1_S3_EEEEvS8_T_S9_St12__false_type = comdat any

$_ZNSt6vectorI5PointILi3EESaIS1_EE15_M_range_insertIN9__gnu_cxx17__normal_iteratorIPS1_S3_EEEEvS8_T_S9_St20forward_iterator_tag = comdat any

$_ZSt19__iterator_categoryIN9__gnu_cxx17__normal_iteratorIP5PointILi3EESt6vectorIS3_SaIS3_EEEEENSt15iterator_traitsIT_E17iterator_categoryERKSA_ = comdat any

$_ZN9__gnu_cxxneIP5PointILi3EESt6vectorIS2_SaIS2_EEEEbRKNS_17__normal_iteratorIT_T0_EESC_ = comdat any

$_ZSt8distanceIN9__gnu_cxx17__normal_iteratorIP5PointILi3EESt6vectorIS3_SaIS3_EEEEENSt15iterator_traitsIT_E15difference_typeESA_SA_ = comdat any

$_ZN9__gnu_cxxmiIP5PointILi3EESt6vectorIS2_SaIS2_EEEENS_17__normal_iteratorIT_T0_E15difference_typeERKSA_SD_ = comdat any

$_ZSt22__uninitialized_move_aIP5PointILi3EES2_SaIS1_EET0_T_S5_S4_RT1_ = comdat any

$_ZSt13copy_backwardIP5PointILi3EES2_ET0_T_S4_S3_ = comdat any

$_ZNK9__gnu_cxx17__normal_iteratorIP5PointILi3EESt6vectorIS2_SaIS2_EEE4baseEv = comdat any

$_ZSt4copyIN9__gnu_cxx17__normal_iteratorIP5PointILi3EESt6vectorIS3_SaIS3_EEEES8_ET0_T_SA_S9_ = comdat any

$_ZSt7advanceIN9__gnu_cxx17__normal_iteratorIP5PointILi3EESt6vectorIS3_SaIS3_EEEEmEvRT_T0_ = comdat any

$_ZSt22__uninitialized_copy_aIN9__gnu_cxx17__normal_iteratorIP5PointILi3EESt6vectorIS3_SaIS3_EEEES4_S3_ET0_T_SA_S9_RSaIT1_E = comdat any

$_ZNKSt6vectorI5PointILi3EESaIS1_EE12_M_check_lenEmPKc = comdat any

$_ZSt34__uninitialized_move_if_noexcept_aIP5PointILi3EES2_SaIS1_EET0_T_S5_S4_RT1_ = comdat any

$_ZSt10__distanceIN9__gnu_cxx17__normal_iteratorIP5PointILi3EESt6vectorIS3_SaIS3_EEEEENSt15iterator_traitsIT_E15difference_typeESA_SA_St26random_access_iterator_tag = comdat any

$_ZSt22__uninitialized_copy_aIP5PointILi3EES2_S1_ET0_T_S4_S3_RSaIT1_E = comdat any

$_ZSt18uninitialized_copyIP5PointILi3EES2_ET0_T_S4_S3_ = comdat any

$_ZNSt20__uninitialized_copyILb0EE13__uninit_copyIP5PointILi3EES4_EET0_T_S6_S5_ = comdat any

$_ZSt23__copy_move_backward_a2ILb0EP5PointILi3EES2_ET1_T0_S4_S3_ = comdat any

$_ZSt12__miter_baseIP5PointILi3EEET_S3_ = comdat any

$_ZSt12__niter_wrapIP5PointILi3EEET_RKS3_S3_ = comdat any

$_ZSt22__copy_move_backward_aILb0EP5PointILi3EES2_ET1_T0_S4_S3_ = comdat any

$_ZSt12__niter_baseIP5PointILi3EEET_S3_ = comdat any

$_ZNSt20__copy_move_backwardILb0ELb0ESt26random_access_iterator_tagE13__copy_move_bIP5PointILi3EES5_EET0_T_S7_S6_ = comdat any

$_ZSt14__copy_move_a2ILb0EN9__gnu_cxx17__normal_iteratorIP5PointILi3EESt6vectorIS3_SaIS3_EEEES8_ET1_T0_SA_S9_ = comdat any

$_ZSt12__miter_baseIN9__gnu_cxx17__normal_iteratorIP5PointILi3EESt6vectorIS3_SaIS3_EEEEET_S9_ = comdat any

$_ZSt12__niter_wrapIN9__gnu_cxx17__normal_iteratorIP5PointILi3EESt6vectorIS3_SaIS3_EEEES4_ET_S9_T0_ = comdat any

$_ZSt13__copy_move_aILb0EP5PointILi3EES2_ET1_T0_S4_S3_ = comdat any

$_ZSt12__niter_baseIP5PointILi3EESt6vectorIS1_SaIS1_EEET_N9__gnu_cxx17__normal_iteratorIS6_T0_EE = comdat any

$_ZNK9__gnu_cxx17__normal_iteratorIP5PointILi3EESt6vectorIS2_SaIS2_EEEplEl = comdat any

$_ZNSt11__copy_moveILb0ELb0ESt26random_access_iterator_tagE8__copy_mIP5PointILi3EES5_EET0_T_S7_S6_ = comdat any

$_ZSt9__advanceIN9__gnu_cxx17__normal_iteratorIP5PointILi3EESt6vectorIS3_SaIS3_EEEElEvRT_T0_St26random_access_iterator_tag = comdat any

$_ZN9__gnu_cxx17__normal_iteratorIP5PointILi3EESt6vectorIS2_SaIS2_EEEpLEl = comdat any

$_ZSt18uninitialized_copyIN9__gnu_cxx17__normal_iteratorIP5PointILi3EESt6vectorIS3_SaIS3_EEEES4_ET0_T_SA_S9_ = comdat any

$_ZNSt20__uninitialized_copyILb0EE13__uninit_copyIN9__gnu_cxx17__normal_iteratorIP5PointILi3EESt6vectorIS5_SaIS5_EEEES6_EET0_T_SC_SB_ = comdat any

$_ZNK9__gnu_cxx17__normal_iteratorIP5PointILi3EESt6vectorIS2_SaIS2_EEEdeEv = comdat any

$_ZN9__gnu_cxx17__normal_iteratorIP5PointILi3EESt6vectorIS2_SaIS2_EEEppEv = comdat any

$_ZNKSt6vectorI5PointILi3EESaIS1_EE8max_sizeEv = comdat any

$_ZSt3maxImERKT_S2_S2_ = comdat any

$_ZNKSt12_Vector_baseI5PointILi3EESaIS1_EE19_M_get_Tp_allocatorEv = comdat any

$_ZNK18TriaObjectAccessorILi2ELi3EE10line_indexEj = comdat any

$_ZN12TriaIteratorILi3E18TriaObjectAccessorILi1ELi3EEEC2EPK13TriangulationILi3EEiiPKv = comdat any

$_ZNSt6vectorI4QuadSaIS0_EEixEm = comdat any

$_ZNK4Quad4lineEi = comdat any

$_ZN15TriaRawIteratorILi3E18TriaObjectAccessorILi1ELi3EEEC2EPK13TriangulationILi3EEiiPKv = comdat any

$_ZN18TriaObjectAccessorILi1ELi3EEC2EPK13TriangulationILi3EEiiPKv = comdat any

$_ZN15TriaRawIteratorILi3E18TriaObjectAccessorILi1ELi3EEEdeEv = comdat any

$_ZNSt6vectorI5PointILi3EESaIS1_EE14_M_fill_insertEN9__gnu_cxx17__normal_iteratorIPS1_S3_EEmRKS1_ = comdat any

$_ZNSt6vectorI5PointILi3EESaIS1_EE15_M_erase_at_endEPS1_ = comdat any

$_ZSt4fillIP5PointILi3EES1_EvT_S3_RKT0_ = comdat any

$_ZSt8__fill_aIP5PointILi3EES1_EN9__gnu_cxx11__enable_ifIXntsr11__is_scalarIT0_EE7__valueEvE6__typeET_S8_RKS5_ = comdat any

$_ZN9__gnu_cxx14__alloc_traitsISaI5PointILi3EEES2_E9constructIS2_EEvRS3_PS2_RKT_ = comdat any

$_ZNSt6vectorI5PointILi3EESaIS1_EE17_M_realloc_insertEN9__gnu_cxx17__normal_iteratorIPS1_S3_EERKS1_ = comdat any

$_ZN9__gnu_cxx13new_allocatorI5PointILi3EEE9constructEPS2_RKS2_ = comdat any

$_ZN9__gnu_cxx14__alloc_traitsISaI5PointILi3EEES2_E7destroyERS3_PS2_ = comdat any

$_ZN9__gnu_cxx13new_allocatorI5PointILi3EEE7destroyEPS2_ = comdat any

$_ZNSt6vectorIjSaIjEE17_S_check_init_lenEmRKS0_ = comdat any

$_ZNSt12_Vector_baseIjSaIjEEC2EmRKS0_ = comdat any

$_ZNSt6vectorIjSaIjEE18_M_fill_initializeEmRKj = comdat any

$_ZNSt12_Vector_baseIjSaIjEED2Ev = comdat any

$_ZNSt6vectorIjSaIjEE11_S_max_sizeERKS0_ = comdat any

$_ZNSaIjEC2ERKS_ = comdat any

$_ZN9__gnu_cxx14__alloc_traitsISaIjEjE8max_sizeERKS1_ = comdat any

$_ZNK9__gnu_cxx13new_allocatorIjE8max_sizeEv = comdat any

$_ZN9__gnu_cxx13new_allocatorIjEC2ERKS1_ = comdat any

$_ZNSt12_Vector_baseIjSaIjEE12_Vector_implC2ERKS0_ = comdat any

$_ZNSt12_Vector_baseIjSaIjEE17_M_create_storageEm = comdat any

$_ZNSt12_Vector_baseIjSaIjEE12_Vector_implD2Ev = comdat any

$_ZNSt12_Vector_baseIjSaIjEE17_Vector_impl_dataC2Ev = comdat any

$_ZNSt12_Vector_baseIjSaIjEE11_M_allocateEm = comdat any

$_ZN9__gnu_cxx14__alloc_traitsISaIjEjE8allocateERS1_m = comdat any

$_ZN9__gnu_cxx13new_allocatorIjE8allocateEmPKv = comdat any

$_ZSt24__uninitialized_fill_n_aIPjmjjET_S1_T0_RKT1_RSaIT2_E = comdat any

$_ZNSt12_Vector_baseIjSaIjEE19_M_get_Tp_allocatorEv = comdat any

$_ZSt20uninitialized_fill_nIPjmjET_S1_T0_RKT1_ = comdat any

$_ZNSt22__uninitialized_fill_nILb1EE15__uninit_fill_nIPjmjEET_S3_T0_RKT1_ = comdat any

$_ZSt6fill_nIPjmjET_S1_T0_RKT1_ = comdat any

$_ZSt12__niter_wrapIPjET_RKS1_S1_ = comdat any

$_ZSt10__fill_n_aIPjmjEN9__gnu_cxx11__enable_ifIXsr11__is_scalarIT1_EE7__valueET_E6__typeES4_T0_RKS3_ = comdat any

$_ZSt12__niter_baseIPjET_S1_ = comdat any

$_ZNSt12_Vector_baseIjSaIjEE13_M_deallocateEPjm = comdat any

$_ZN9__gnu_cxx14__alloc_traitsISaIjEjE10deallocateERS1_Pjm = comdat any

$_ZN9__gnu_cxx13new_allocatorIjE10deallocateEPjm = comdat any

$_ZN9TableBaseILi2EdEC2Ev = comdat any

$_ZN5TableILi2EdED0Ev = comdat any

$_ZSt8_DestroyIPjjEvT_S1_RSaIT0_E = comdat any

$_ZSt8_DestroyIPjEvT_S1_ = comdat any

$_ZNSt12_Destroy_auxILb1EE9__destroyIPjEEvT_S3_ = comdat any

$_ZNSt12_Vector_baseIN11Polynomials19LagrangeEquidistantESaIS1_EEC2Ev = comdat any

$_ZNSt12_Vector_baseIN11Polynomials19LagrangeEquidistantESaIS1_EE12_Vector_implC2Ev = comdat any

$_ZNSaIN11Polynomials19LagrangeEquidistantEEC2Ev = comdat any

$_ZNSt12_Vector_baseIN11Polynomials19LagrangeEquidistantESaIS1_EE17_Vector_impl_dataC2Ev = comdat any

$_ZNSaIN11Polynomials19LagrangeEquidistantEED2Ev = comdat any

$_ZN9__gnu_cxx13new_allocatorIN11Polynomials19LagrangeEquidistantEEC2Ev = comdat any

$_ZN9__gnu_cxx13new_allocatorIN11Polynomials19LagrangeEquidistantEED2Ev = comdat any

$_ZSt8_DestroyIPN11Polynomials19LagrangeEquidistantES1_EvT_S3_RSaIT0_E = comdat any

$_ZNSt12_Vector_baseIN11Polynomials19LagrangeEquidistantESaIS1_EE19_M_get_Tp_allocatorEv = comdat any

$_ZNSt12_Vector_baseIN11Polynomials19LagrangeEquidistantESaIS1_EED2Ev = comdat any

$_ZSt8_DestroyIPN11Polynomials19LagrangeEquidistantEEvT_S3_ = comdat any

$_ZNSt12_Destroy_auxILb0EE9__destroyIPN11Polynomials19LagrangeEquidistantEEEvT_S5_ = comdat any

$_ZSt8_DestroyIN11Polynomials19LagrangeEquidistantEEvPT_ = comdat any

$_ZSt11__addressofIN11Polynomials19LagrangeEquidistantEEPT_RS2_ = comdat any

$_ZNSt12_Vector_baseIN11Polynomials19LagrangeEquidistantESaIS1_EE13_M_deallocateEPS1_m = comdat any

$_ZNSt12_Vector_baseIN11Polynomials19LagrangeEquidistantESaIS1_EE12_Vector_implD2Ev = comdat any

$_ZN9__gnu_cxx14__alloc_traitsISaIN11Polynomials19LagrangeEquidistantEES2_E10deallocateERS3_PS2_m = comdat any

$_ZN9__gnu_cxx13new_allocatorIN11Polynomials19LagrangeEquidistantEE10deallocateEPS2_m = comdat any

$_ZN9__gnu_cxx14__alloc_traitsISaIN11Polynomials19LagrangeEquidistantEES2_E9constructIS2_EEvRS3_PS2_RKT_ = comdat any

$_ZNSt6vectorIN11Polynomials19LagrangeEquidistantESaIS1_EE17_M_realloc_insertEN9__gnu_cxx17__normal_iteratorIPS1_S3_EERKS1_ = comdat any

$_ZNSt6vectorIN11Polynomials19LagrangeEquidistantESaIS1_EE3endEv = comdat any

$_ZN9__gnu_cxx13new_allocatorIN11Polynomials19LagrangeEquidistantEE9constructEPS2_RKS2_ = comdat any

$_ZN11Polynomials19LagrangeEquidistantC2ERKS0_ = comdat any

$_ZN11Polynomials19LagrangeEquidistantD0Ev = comdat any

$_ZNSt6vectorIdSaIdEEC2ERKS1_ = comdat any

$_ZN9__gnu_cxx14__alloc_traitsISaIdEdE17_S_select_on_copyERKS1_ = comdat any

$_ZNKSt12_Vector_baseIdSaIdEE19_M_get_Tp_allocatorEv = comdat any

$_ZNSt12_Vector_baseIdSaIdEEC2EmRKS0_ = comdat any

$_ZSt22__uninitialized_copy_aIN9__gnu_cxx17__normal_iteratorIPKdSt6vectorIdSaIdEEEEPddET0_T_SA_S9_RSaIT1_E = comdat any

$_ZNKSt6vectorIdSaIdEE5beginEv = comdat any

$_ZNKSt6vectorIdSaIdEE3endEv = comdat any

$_ZNSt12_Vector_baseIdSaIdEE19_M_get_Tp_allocatorEv = comdat any

$_ZNSt12_Vector_baseIdSaIdEED2Ev = comdat any

$_ZNSt12_Vector_baseIdSaIdEE12_Vector_implC2ERKS0_ = comdat any

$_ZNSt12_Vector_baseIdSaIdEE17_M_create_storageEm = comdat any

$_ZNSt12_Vector_baseIdSaIdEE12_Vector_implD2Ev = comdat any

$_ZNSaIdEC2ERKS_ = comdat any

$_ZNSt12_Vector_baseIdSaIdEE17_Vector_impl_dataC2Ev = comdat any

$_ZNSaIdED2Ev = comdat any

$_ZN9__gnu_cxx13new_allocatorIdEC2ERKS1_ = comdat any

$_ZN9__gnu_cxx13new_allocatorIdED2Ev = comdat any

$_ZNSt12_Vector_baseIdSaIdEE11_M_allocateEm = comdat any

$_ZN9__gnu_cxx14__alloc_traitsISaIdEdE8allocateERS1_m = comdat any

$_ZN9__gnu_cxx13new_allocatorIdE8allocateEmPKv = comdat any

$_ZNK9__gnu_cxx13new_allocatorIdE8max_sizeEv = comdat any

$_ZSt18uninitialized_copyIN9__gnu_cxx17__normal_iteratorIPKdSt6vectorIdSaIdEEEEPdET0_T_SA_S9_ = comdat any

$_ZNSt20__uninitialized_copyILb1EE13__uninit_copyIN9__gnu_cxx17__normal_iteratorIPKdSt6vectorIdSaIdEEEEPdEET0_T_SC_SB_ = comdat any

$_ZSt4copyIN9__gnu_cxx17__normal_iteratorIPKdSt6vectorIdSaIdEEEEPdET0_T_SA_S9_ = comdat any

$_ZSt14__copy_move_a2ILb0EN9__gnu_cxx17__normal_iteratorIPKdSt6vectorIdSaIdEEEEPdET1_T0_SA_S9_ = comdat any

$_ZSt12__miter_baseIN9__gnu_cxx17__normal_iteratorIPKdSt6vectorIdSaIdEEEEET_S8_ = comdat any

$_ZSt13__copy_move_aILb0EPKdPdET1_T0_S4_S3_ = comdat any

$_ZSt12__niter_baseIPKdSt6vectorIdSaIdEEET_N9__gnu_cxx17__normal_iteratorIS5_T0_EE = comdat any

$_ZNSt11__copy_moveILb0ELb1ESt26random_access_iterator_tagE8__copy_mIdEEPT_PKS3_S6_S4_ = comdat any

$_ZNK9__gnu_cxx17__normal_iteratorIPKdSt6vectorIdSaIdEEE4baseEv = comdat any

$_ZN9__gnu_cxx17__normal_iteratorIPKdSt6vectorIdSaIdEEEC2ERKS2_ = comdat any

$_ZNSt12_Vector_baseIdSaIdEE13_M_deallocateEPdm = comdat any

$_ZN9__gnu_cxx14__alloc_traitsISaIdEdE10deallocateERS1_Pdm = comdat any

$_ZN9__gnu_cxx13new_allocatorIdE10deallocateEPdm = comdat any

$_ZNKSt6vectorIN11Polynomials19LagrangeEquidistantESaIS1_EE12_M_check_lenEmPKc = comdat any

$_ZN9__gnu_cxxmiIPN11Polynomials19LagrangeEquidistantESt6vectorIS2_SaIS2_EEEENS_17__normal_iteratorIT_T0_E15difference_typeERKSA_SD_ = comdat any

$_ZNSt6vectorIN11Polynomials19LagrangeEquidistantESaIS1_EE5beginEv = comdat any

$_ZNSt12_Vector_baseIN11Polynomials19LagrangeEquidistantESaIS1_EE11_M_allocateEm = comdat any

$_ZSt34__uninitialized_move_if_noexcept_aIPN11Polynomials19LagrangeEquidistantES2_SaIS1_EET0_T_S5_S4_RT1_ = comdat any

$_ZNK9__gnu_cxx17__normal_iteratorIPN11Polynomials19LagrangeEquidistantESt6vectorIS2_SaIS2_EEE4baseEv = comdat any

$_ZN9__gnu_cxx14__alloc_traitsISaIN11Polynomials19LagrangeEquidistantEES2_E7destroyERS3_PS2_ = comdat any

$_ZNKSt6vectorIN11Polynomials19LagrangeEquidistantESaIS1_EE8max_sizeEv = comdat any

$_ZNKSt6vectorIN11Polynomials19LagrangeEquidistantESaIS1_EE4sizeEv = comdat any

$_ZNSt6vectorIN11Polynomials19LagrangeEquidistantESaIS1_EE11_S_max_sizeERKS2_ = comdat any

$_ZNKSt12_Vector_baseIN11Polynomials19LagrangeEquidistantESaIS1_EE19_M_get_Tp_allocatorEv = comdat any

$_ZN9__gnu_cxx14__alloc_traitsISaIN11Polynomials19LagrangeEquidistantEES2_E8max_sizeERKS3_ = comdat any

$_ZNK9__gnu_cxx13new_allocatorIN11Polynomials19LagrangeEquidistantEE8max_sizeEv = comdat any

$_ZN9__gnu_cxx17__normal_iteratorIPN11Polynomials19LagrangeEquidistantESt6vectorIS2_SaIS2_EEEC2ERKS3_ = comdat any

$_ZN9__gnu_cxx14__alloc_traitsISaIN11Polynomials19LagrangeEquidistantEES2_E8allocateERS3_m = comdat any

$_ZN9__gnu_cxx13new_allocatorIN11Polynomials19LagrangeEquidistantEE8allocateEmPKv = comdat any

$_ZSt22__uninitialized_copy_aIPN11Polynomials19LagrangeEquidistantES2_S1_ET0_T_S4_S3_RSaIT1_E = comdat any

$_ZSt18uninitialized_copyIPN11Polynomials19LagrangeEquidistantES2_ET0_T_S4_S3_ = comdat any

$_ZNSt20__uninitialized_copyILb0EE13__uninit_copyIPN11Polynomials19LagrangeEquidistantES4_EET0_T_S6_S5_ = comdat any

$_ZSt10_ConstructIN11Polynomials19LagrangeEquidistantES1_EvPT_RKT0_ = comdat any

$_ZN9__gnu_cxx13new_allocatorIN11Polynomials19LagrangeEquidistantEE7destroyEPS2_ = comdat any

$_ZSt8_DestroyIPddEvT_S1_RSaIT0_E = comdat any

$_ZSt8_DestroyIPdEvT_S1_ = comdat any

$_ZNSt12_Destroy_auxILb1EE9__destroyIPdEEvT_S3_ = comdat any

$_ZNKSt6vectorIN11Polynomials19LagrangeEquidistantESaIS1_EE5beginEv = comdat any

$_ZNKSt6vectorIN11Polynomials19LagrangeEquidistantESaIS1_EE3endEv = comdat any

$_ZNSaIN11Polynomials10PolynomialIdEEEC2Ev = comdat any

$_ZNSt6vectorIN11Polynomials10PolynomialIdEESaIS2_EEC2IN9__gnu_cxx17__normal_iteratorIPKNS0_19LagrangeEquidistantES_IS8_SaIS8_EEEEEET_SE_RKS3_ = comdat any

$_ZNSaIN11Polynomials10PolynomialIdEEED2Ev = comdat any

$_ZN24TensorProductPolynomialsILi3EE12x_to_the_dimEj = comdat any

$_ZNSt6vectorIjSaIjEEixEm = comdat any

$_ZN9__gnu_cxx17__normal_iteratorIPKN11Polynomials19LagrangeEquidistantESt6vectorIS2_SaIS2_EEEC2ERKS4_ = comdat any

$_ZN9__gnu_cxx13new_allocatorIN11Polynomials10PolynomialIdEEEC2Ev = comdat any

$_ZNSt12_Vector_baseIN11Polynomials10PolynomialIdEESaIS2_EEC2ERKS3_ = comdat any

$_ZNSt6vectorIN11Polynomials10PolynomialIdEESaIS2_EE22_M_initialize_dispatchIN9__gnu_cxx17__normal_iteratorIPKNS0_19LagrangeEquidistantES_IS8_SaIS8_EEEEEEvT_SE_St12__false_type = comdat any

$_ZNSt12_Vector_baseIN11Polynomials10PolynomialIdEESaIS2_EE12_Vector_implC2ERKS3_ = comdat any

$_ZNSt12_Vector_baseIN11Polynomials10PolynomialIdEESaIS2_EE17_Vector_impl_dataC2Ev = comdat any

$_ZN9__gnu_cxx13new_allocatorIN11Polynomials10PolynomialIdEEEC2ERKS4_ = comdat any

$_ZNSt6vectorIN11Polynomials10PolynomialIdEESaIS2_EE19_M_range_initializeIN9__gnu_cxx17__normal_iteratorIPKNS0_19LagrangeEquidistantES_IS8_SaIS8_EEEEEEvT_SE_St20forward_iterator_tag = comdat any

$_ZSt19__iterator_categoryIN9__gnu_cxx17__normal_iteratorIPKN11Polynomials19LagrangeEquidistantESt6vectorIS3_SaIS3_EEEEENSt15iterator_traitsIT_E17iterator_categoryERKSB_ = comdat any

$_ZSt8distanceIN9__gnu_cxx17__normal_iteratorIPKN11Polynomials19LagrangeEquidistantESt6vectorIS3_SaIS3_EEEEENSt15iterator_traitsIT_E15difference_typeESB_SB_ = comdat any

$_ZNSt12_Vector_baseIN11Polynomials10PolynomialIdEESaIS2_EE11_M_allocateEm = comdat any

$_ZNSt6vectorIN11Polynomials10PolynomialIdEESaIS2_EE17_S_check_init_lenEmRKS3_ = comdat any

$_ZSt22__uninitialized_copy_aIN9__gnu_cxx17__normal_iteratorIPKN11Polynomials19LagrangeEquidistantESt6vectorIS3_SaIS3_EEEEPNS2_10PolynomialIdEESB_ET0_T_SE_SD_RSaIT1_E = comdat any

$_ZSt10__distanceIN9__gnu_cxx17__normal_iteratorIPKN11Polynomials19LagrangeEquidistantESt6vectorIS3_SaIS3_EEEEENSt15iterator_traitsIT_E15difference_typeESB_SB_St26random_access_iterator_tag = comdat any

$_ZN9__gnu_cxxmiIPKN11Polynomials19LagrangeEquidistantESt6vectorIS2_SaIS2_EEEENS_17__normal_iteratorIT_T0_E15difference_typeERKSB_SE_ = comdat any

$_ZNK9__gnu_cxx17__normal_iteratorIPKN11Polynomials19LagrangeEquidistantESt6vectorIS2_SaIS2_EEE4baseEv = comdat any

$_ZN9__gnu_cxx14__alloc_traitsISaIN11Polynomials10PolynomialIdEEES3_E8allocateERS4_m = comdat any

$_ZN9__gnu_cxx13new_allocatorIN11Polynomials10PolynomialIdEEE8allocateEmPKv = comdat any

$_ZNK9__gnu_cxx13new_allocatorIN11Polynomials10PolynomialIdEEE8max_sizeEv = comdat any

$_ZNSt6vectorIN11Polynomials10PolynomialIdEESaIS2_EE11_S_max_sizeERKS3_ = comdat any

$_ZNSaIN11Polynomials10PolynomialIdEEEC2ERKS2_ = comdat any

$_ZN9__gnu_cxx14__alloc_traitsISaIN11Polynomials10PolynomialIdEEES3_E8max_sizeERKS4_ = comdat any

$_ZSt18uninitialized_copyIN9__gnu_cxx17__normal_iteratorIPKN11Polynomials19LagrangeEquidistantESt6vectorIS3_SaIS3_EEEEPNS2_10PolynomialIdEEET0_T_SE_SD_ = comdat any

$_ZNSt20__uninitialized_copyILb0EE13__uninit_copyIN9__gnu_cxx17__normal_iteratorIPKN11Polynomials19LagrangeEquidistantESt6vectorIS5_SaIS5_EEEEPNS4_10PolynomialIdEEEET0_T_SG_SF_ = comdat any

$_ZN9__gnu_cxxneIPKN11Polynomials19LagrangeEquidistantESt6vectorIS2_SaIS2_EEEEbRKNS_17__normal_iteratorIT_T0_EESD_ = comdat any

$_ZSt10_ConstructIN11Polynomials10PolynomialIdEENS0_19LagrangeEquidistantEEvPT_RKT0_ = comdat any

$_ZNK9__gnu_cxx17__normal_iteratorIPKN11Polynomials19LagrangeEquidistantESt6vectorIS2_SaIS2_EEEdeEv = comdat any

$_ZN9__gnu_cxx17__normal_iteratorIPKN11Polynomials19LagrangeEquidistantESt6vectorIS2_SaIS2_EEEppEv = comdat any

$_ZN11Polynomials10PolynomialIdEC2ERKS1_ = comdat any

$_ZNKSt6vectorIjSaIjEE4sizeEv = comdat any

$_ZNSt6vectorIjSaIjEE14_M_fill_insertEN9__gnu_cxx17__normal_iteratorIPjS1_EEmRKj = comdat any

$_ZNSt6vectorIjSaIjEE3endEv = comdat any

$_ZNSt6vectorIjSaIjEE15_M_erase_at_endEPj = comdat any

$_ZN9__gnu_cxxmiIPjSt6vectorIjSaIjEEEENS_17__normal_iteratorIT_T0_E15difference_typeERKS8_SB_ = comdat any

$_ZSt22__uninitialized_move_aIPjS0_SaIjEET0_T_S3_S2_RT1_ = comdat any

$_ZSt13copy_backwardIPjS0_ET0_T_S2_S1_ = comdat any

$_ZNK9__gnu_cxx17__normal_iteratorIPjSt6vectorIjSaIjEEE4baseEv = comdat any

$_ZSt4fillIPjjEvT_S1_RKT0_ = comdat any

$_ZNKSt6vectorIjSaIjEE12_M_check_lenEmPKc = comdat any

$_ZNSt6vectorIjSaIjEE5beginEv = comdat any

$_ZSt34__uninitialized_move_if_noexcept_aIPjS0_SaIjEET0_T_S3_S2_RT1_ = comdat any

$_ZSt22__uninitialized_copy_aIPjS0_jET0_T_S2_S1_RSaIT1_E = comdat any

$_ZSt18uninitialized_copyIPjS0_ET0_T_S2_S1_ = comdat any

$_ZNSt20__uninitialized_copyILb1EE13__uninit_copyIPjS2_EET0_T_S4_S3_ = comdat any

$_ZSt4copyIPjS0_ET0_T_S2_S1_ = comdat any

$_ZSt14__copy_move_a2ILb0EPjS0_ET1_T0_S2_S1_ = comdat any

$_ZSt12__miter_baseIPjET_S1_ = comdat any

$_ZSt13__copy_move_aILb0EPjS0_ET1_T0_S2_S1_ = comdat any

$_ZNSt11__copy_moveILb0ELb1ESt26random_access_iterator_tagE8__copy_mIjEEPT_PKS3_S6_S4_ = comdat any

$_ZSt23__copy_move_backward_a2ILb0EPjS0_ET1_T0_S2_S1_ = comdat any

$_ZSt22__copy_move_backward_aILb0EPjS0_ET1_T0_S2_S1_ = comdat any

$_ZNSt20__copy_move_backwardILb0ELb1ESt26random_access_iterator_tagE13__copy_move_bIjEEPT_PKS3_S6_S4_ = comdat any

$_ZSt8__fill_aIPjjEN9__gnu_cxx11__enable_ifIXsr11__is_scalarIT0_EE7__valueEvE6__typeET_S6_RKS3_ = comdat any

$_ZNKSt6vectorIjSaIjEE8max_sizeEv = comdat any

$_ZNKSt12_Vector_baseIjSaIjEE19_M_get_Tp_allocatorEv = comdat any

$_ZN9__gnu_cxx17__normal_iteratorIPjSt6vectorIjSaIjEEEC2ERKS1_ = comdat any

$_ZN9__gnu_cxx17__normal_iteratorIPK6TensorILi2ELi3EESt6vectorIS2_SaIS2_EEEC2ERKS4_ = comdat any

$_ZN6TensorILi1ELi3EE5clearEv = comdat any

$_ZNK6TensorILi1ELi3EEixEj = comdat any

$_ZNK6TensorILi2ELi3EEixEj = comdat any

$_ZN6TensorILi1ELi3EEixEj = comdat any

$_ZN6TensorILi2ELi3EE5clearEv = comdat any

$_ZN6TensorILi2ELi3EEixEj = comdat any

$_ZNSt12_Vector_baseISt6vectorI5PointILi3EESaIS2_EESaIS4_EEC2Ev = comdat any

$_ZNSt12_Vector_baseISt6vectorI5PointILi3EESaIS2_EESaIS4_EE12_Vector_implC2Ev = comdat any

$_ZNSaISt6vectorI5PointILi3EESaIS1_EEEC2Ev = comdat any

$_ZNSt12_Vector_baseISt6vectorI5PointILi3EESaIS2_EESaIS4_EE17_Vector_impl_dataC2Ev = comdat any

$_ZNSaISt6vectorI5PointILi3EESaIS1_EEED2Ev = comdat any

$_ZN9__gnu_cxx13new_allocatorISt6vectorI5PointILi3EESaIS3_EEEC2Ev = comdat any

$_ZN9__gnu_cxx13new_allocatorISt6vectorI5PointILi3EESaIS3_EEED2Ev = comdat any

$_ZSt8_DestroyIPSt6vectorI5PointILi3EESaIS2_EES4_EvT_S6_RSaIT0_E = comdat any

$_ZNSt12_Vector_baseISt6vectorI5PointILi3EESaIS2_EESaIS4_EE19_M_get_Tp_allocatorEv = comdat any

$_ZNSt12_Vector_baseISt6vectorI5PointILi3EESaIS2_EESaIS4_EED2Ev = comdat any

$_ZSt8_DestroyIPSt6vectorI5PointILi3EESaIS2_EEEvT_S6_ = comdat any

$_ZNSt12_Destroy_auxILb0EE9__destroyIPSt6vectorI5PointILi3EESaIS4_EEEEvT_S8_ = comdat any

$_ZSt8_DestroyISt6vectorI5PointILi3EESaIS2_EEEvPT_ = comdat any

$_ZSt11__addressofISt6vectorI5PointILi3EESaIS2_EEEPT_RS5_ = comdat any

$_ZNSt12_Vector_baseISt6vectorI5PointILi3EESaIS2_EESaIS4_EE13_M_deallocateEPS4_m = comdat any

$_ZNSt12_Vector_baseISt6vectorI5PointILi3EESaIS2_EESaIS4_EE12_Vector_implD2Ev = comdat any

$_ZN9__gnu_cxx14__alloc_traitsISaISt6vectorI5PointILi3EESaIS3_EEES5_E10deallocateERS6_PS5_m = comdat any

$_ZN9__gnu_cxx13new_allocatorISt6vectorI5PointILi3EESaIS3_EEE10deallocateEPS5_m = comdat any

$_ZSt8_DestroyIP6TensorILi1ELi3EES1_EvT_S3_RSaIT0_E = comdat any

$_ZNSt12_Vector_baseI6TensorILi1ELi3EESaIS1_EE19_M_get_Tp_allocatorEv = comdat any

$_ZNSt12_Vector_baseI6TensorILi1ELi3EESaIS1_EED2Ev = comdat any

$_ZSt8_DestroyIP6TensorILi1ELi3EEEvT_S3_ = comdat any

$_ZNSt12_Destroy_auxILb1EE9__destroyIP6TensorILi1ELi3EEEEvT_S5_ = comdat any

$_ZNSt12_Vector_baseI6TensorILi1ELi3EESaIS1_EE13_M_deallocateEPS1_m = comdat any

$_ZNSt12_Vector_baseI6TensorILi1ELi3EESaIS1_EE12_Vector_implD2Ev = comdat any

$_ZN9__gnu_cxx14__alloc_traitsISaI6TensorILi1ELi3EEES2_E10deallocateERS3_PS2_m = comdat any

$_ZN9__gnu_cxx13new_allocatorI6TensorILi1ELi3EEE10deallocateEPS2_m = comdat any

$_ZNSaI6TensorILi1ELi3EEED2Ev = comdat any

$_ZN9__gnu_cxx13new_allocatorI6TensorILi1ELi3EEED2Ev = comdat any

$_ZSt8_DestroyIP6TensorILi2ELi3EES1_EvT_S3_RSaIT0_E = comdat any

$_ZNSt12_Vector_baseI6TensorILi2ELi3EESaIS1_EE19_M_get_Tp_allocatorEv = comdat any

$_ZNSt12_Vector_baseI6TensorILi2ELi3EESaIS1_EED2Ev = comdat any

$_ZSt8_DestroyIP6TensorILi2ELi3EEEvT_S3_ = comdat any

$_ZNSt12_Destroy_auxILb1EE9__destroyIP6TensorILi2ELi3EEEEvT_S5_ = comdat any

$_ZNSt12_Vector_baseI6TensorILi2ELi3EESaIS1_EE13_M_deallocateEPS1_m = comdat any

$_ZNSt12_Vector_baseI6TensorILi2ELi3EESaIS1_EE12_Vector_implD2Ev = comdat any

$_ZN9__gnu_cxx14__alloc_traitsISaI6TensorILi2ELi3EEES2_E10deallocateERS3_PS2_m = comdat any

$_ZN9__gnu_cxx13new_allocatorI6TensorILi2ELi3EEE10deallocateEPS2_m = comdat any

$_ZNSaI6TensorILi2ELi3EEED2Ev = comdat any

$_ZN9__gnu_cxx13new_allocatorI6TensorILi2ELi3EEED2Ev = comdat any

$_ZNKSt6vectorIS_I5PointILi3EESaIS1_EESaIS3_EE4sizeEv = comdat any

$_ZN17MemoryConsumption18memory_consumptionI5PointILi3EEEEjRKSt6vectorIT_SaIS4_EE = comdat any

$_ZNKSt6vectorIS_I5PointILi3EESaIS1_EESaIS3_EEixEm = comdat any

$_ZNKSt6vectorIS_I5PointILi3EESaIS1_EESaIS3_EE8capacityEv = comdat any

$_ZN17MemoryConsumption18memory_consumptionI5PointILi3EEEEjRKT_ = comdat any

$_ZNKSt6vectorI5PointILi3EESaIS1_EE8capacityEv = comdat any

$_ZN6TensorILi1ELi3EE18memory_consumptionEv = comdat any

$_ZNK15TriaRawIteratorILi3E15DoFCellAccessorILi3EEEdeEv = comdat any

$_ZN15TriaRawIteratorILi3E18TriaObjectAccessorILi2ELi3EEEptEv = comdat any

$_ZN15TriaRawIteratorILi3E18TriaObjectAccessorILi2ELi3EEEdeEv = comdat any

$_ZNK15TriaRawIteratorILi3E18TriaObjectAccessorILi1ELi3EEEdeEv = comdat any

$_ZNSt12_Vector_baseIdSaIdEEC2Ev = comdat any

$_ZNSt12_Vector_baseIdSaIdEE12_Vector_implC2Ev = comdat any

$_ZNSaIdEC2Ev = comdat any

$_ZN9__gnu_cxx13new_allocatorIdEC2Ev = comdat any

$_ZNSt12_Vector_baseI6TensorILi1ELi3EESaIS1_EEC2Ev = comdat any

$_ZNSt12_Vector_baseI6TensorILi1ELi3EESaIS1_EE12_Vector_implC2Ev = comdat any

$_ZNSaI6TensorILi1ELi3EEEC2Ev = comdat any

$_ZNSt12_Vector_baseI6TensorILi1ELi3EESaIS1_EE17_Vector_impl_dataC2Ev = comdat any

$_ZN9__gnu_cxx13new_allocatorI6TensorILi1ELi3EEEC2Ev = comdat any

$_ZNSt6vectorIdSaIdEE14_M_fill_insertEN9__gnu_cxx17__normal_iteratorIPdS1_EEmRKd = comdat any

$_ZNSt6vectorIdSaIdEE3endEv = comdat any

$_ZNSt6vectorIdSaIdEE15_M_erase_at_endEPd = comdat any

$_ZN9__gnu_cxxmiIPdSt6vectorIdSaIdEEEENS_17__normal_iteratorIT_T0_E15difference_typeERKS8_SB_ = comdat any

$_ZSt22__uninitialized_move_aIPdS0_SaIdEET0_T_S3_S2_RT1_ = comdat any

$_ZSt13copy_backwardIPdS0_ET0_T_S2_S1_ = comdat any

$_ZNK9__gnu_cxx17__normal_iteratorIPdSt6vectorIdSaIdEEE4baseEv = comdat any

$_ZSt4fillIPddEvT_S1_RKT0_ = comdat any

$_ZSt24__uninitialized_fill_n_aIPdmddET_S1_T0_RKT1_RSaIT2_E = comdat any

$_ZNKSt6vectorIdSaIdEE12_M_check_lenEmPKc = comdat any

$_ZNSt6vectorIdSaIdEE5beginEv = comdat any

$_ZSt34__uninitialized_move_if_noexcept_aIPdS0_SaIdEET0_T_S3_S2_RT1_ = comdat any

$_ZSt22__uninitialized_copy_aIPdS0_dET0_T_S2_S1_RSaIT1_E = comdat any

$_ZSt18uninitialized_copyIPdS0_ET0_T_S2_S1_ = comdat any

$_ZNSt20__uninitialized_copyILb1EE13__uninit_copyIPdS2_EET0_T_S4_S3_ = comdat any

$_ZSt4copyIPdS0_ET0_T_S2_S1_ = comdat any

$_ZSt14__copy_move_a2ILb0EPdS0_ET1_T0_S2_S1_ = comdat any

$_ZSt12__miter_baseIPdET_S1_ = comdat any

$_ZSt13__copy_move_aILb0EPdS0_ET1_T0_S2_S1_ = comdat any

$_ZSt23__copy_move_backward_a2ILb0EPdS0_ET1_T0_S2_S1_ = comdat any

$_ZSt22__copy_move_backward_aILb0EPdS0_ET1_T0_S2_S1_ = comdat any

$_ZNSt20__copy_move_backwardILb0ELb1ESt26random_access_iterator_tagE13__copy_move_bIdEEPT_PKS3_S6_S4_ = comdat any

$_ZSt8__fill_aIPddEN9__gnu_cxx11__enable_ifIXsr11__is_scalarIT0_EE7__valueEvE6__typeET_S6_RKS3_ = comdat any

$_ZSt20uninitialized_fill_nIPdmdET_S1_T0_RKT1_ = comdat any

$_ZNSt22__uninitialized_fill_nILb1EE15__uninit_fill_nIPdmdEET_S3_T0_RKT1_ = comdat any

$_ZSt6fill_nIPdmdET_S1_T0_RKT1_ = comdat any

$_ZSt10__fill_n_aIPdmdEN9__gnu_cxx11__enable_ifIXsr11__is_scalarIT1_EE7__valueET_E6__typeES4_T0_RKS3_ = comdat any

$_ZNKSt6vectorIdSaIdEE8max_sizeEv = comdat any

$_ZNSt6vectorIdSaIdEE11_S_max_sizeERKS0_ = comdat any

$_ZN9__gnu_cxx14__alloc_traitsISaIdEdE8max_sizeERKS1_ = comdat any

$_ZN9__gnu_cxx17__normal_iteratorIPdSt6vectorIdSaIdEEEC2ERKS1_ = comdat any

$_ZNSt6vectorI6TensorILi1ELi3EESaIS1_EE14_M_fill_insertEN9__gnu_cxx17__normal_iteratorIPS1_S3_EEmRKS1_ = comdat any

$_ZNSt6vectorI6TensorILi1ELi3EESaIS1_EE3endEv = comdat any

$_ZNSt6vectorI6TensorILi1ELi3EESaIS1_EE15_M_erase_at_endEPS1_ = comdat any

$_ZN6TensorILi1ELi3EEC2ERKS0_ = comdat any

$_ZN9__gnu_cxxmiIP6TensorILi1ELi3EESt6vectorIS2_SaIS2_EEEENS_17__normal_iteratorIT_T0_E15difference_typeERKSA_SD_ = comdat any

$_ZSt22__uninitialized_move_aIP6TensorILi1ELi3EES2_SaIS1_EET0_T_S5_S4_RT1_ = comdat any

$_ZSt13copy_backwardIP6TensorILi1ELi3EES2_ET0_T_S4_S3_ = comdat any

$_ZNK9__gnu_cxx17__normal_iteratorIP6TensorILi1ELi3EESt6vectorIS2_SaIS2_EEE4baseEv = comdat any

$_ZSt4fillIP6TensorILi1ELi3EES1_EvT_S3_RKT0_ = comdat any

$_ZSt24__uninitialized_fill_n_aIP6TensorILi1ELi3EEmS1_S1_ET_S3_T0_RKT1_RSaIT2_E = comdat any

$_ZNKSt6vectorI6TensorILi1ELi3EESaIS1_EE12_M_check_lenEmPKc = comdat any

$_ZNSt6vectorI6TensorILi1ELi3EESaIS1_EE5beginEv = comdat any

$_ZNSt12_Vector_baseI6TensorILi1ELi3EESaIS1_EE11_M_allocateEm = comdat any

$_ZSt34__uninitialized_move_if_noexcept_aIP6TensorILi1ELi3EES2_SaIS1_EET0_T_S5_S4_RT1_ = comdat any

$_ZSt22__uninitialized_copy_aIP6TensorILi1ELi3EES2_S1_ET0_T_S4_S3_RSaIT1_E = comdat any

$_ZSt18uninitialized_copyIP6TensorILi1ELi3EES2_ET0_T_S4_S3_ = comdat any

$_ZNSt20__uninitialized_copyILb0EE13__uninit_copyIP6TensorILi1ELi3EES4_EET0_T_S6_S5_ = comdat any

$_ZSt10_ConstructI6TensorILi1ELi3EES1_EvPT_RKT0_ = comdat any

$_ZSt11__addressofI6TensorILi1ELi3EEEPT_RS2_ = comdat any

$_ZSt23__copy_move_backward_a2ILb0EP6TensorILi1ELi3EES2_ET1_T0_S4_S3_ = comdat any

$_ZSt12__miter_baseIP6TensorILi1ELi3EEET_S3_ = comdat any

$_ZSt12__niter_wrapIP6TensorILi1ELi3EEET_RKS3_S3_ = comdat any

$_ZSt22__copy_move_backward_aILb0EP6TensorILi1ELi3EES2_ET1_T0_S4_S3_ = comdat any

$_ZSt12__niter_baseIP6TensorILi1ELi3EEET_S3_ = comdat any

$_ZNSt20__copy_move_backwardILb0ELb0ESt26random_access_iterator_tagE13__copy_move_bIP6TensorILi1ELi3EES5_EET0_T_S7_S6_ = comdat any

$_ZSt8__fill_aIP6TensorILi1ELi3EES1_EN9__gnu_cxx11__enable_ifIXntsr11__is_scalarIT0_EE7__valueEvE6__typeET_S8_RKS5_ = comdat any

$_ZSt20uninitialized_fill_nIP6TensorILi1ELi3EEmS1_ET_S3_T0_RKT1_ = comdat any

$_ZNSt22__uninitialized_fill_nILb0EE15__uninit_fill_nIP6TensorILi1ELi3EEmS3_EET_S5_T0_RKT1_ = comdat any

$_ZNKSt6vectorI6TensorILi1ELi3EESaIS1_EE8max_sizeEv = comdat any

$_ZNSt6vectorI6TensorILi1ELi3EESaIS1_EE11_S_max_sizeERKS2_ = comdat any

$_ZNKSt12_Vector_baseI6TensorILi1ELi3EESaIS1_EE19_M_get_Tp_allocatorEv = comdat any

$_ZN9__gnu_cxx14__alloc_traitsISaI6TensorILi1ELi3EEES2_E8max_sizeERKS3_ = comdat any

$_ZNK9__gnu_cxx13new_allocatorI6TensorILi1ELi3EEE8max_sizeEv = comdat any

$_ZN9__gnu_cxx17__normal_iteratorIP6TensorILi1ELi3EESt6vectorIS2_SaIS2_EEEC2ERKS3_ = comdat any

$_ZN9__gnu_cxx14__alloc_traitsISaI6TensorILi1ELi3EEES2_E8allocateERS3_m = comdat any

$_ZN9__gnu_cxx13new_allocatorI6TensorILi1ELi3EEE8allocateEmPKv = comdat any

$_ZNSt12_Vector_baseI6TensorILi2ELi3EESaIS1_EEC2Ev = comdat any

$_ZNSt12_Vector_baseI6TensorILi2ELi3EESaIS1_EE12_Vector_implC2Ev = comdat any

$_ZNSaI6TensorILi2ELi3EEEC2Ev = comdat any

$_ZNSt12_Vector_baseI6TensorILi2ELi3EESaIS1_EE17_Vector_impl_dataC2Ev = comdat any

$_ZN9__gnu_cxx13new_allocatorI6TensorILi2ELi3EEEC2Ev = comdat any

$_ZN8internal18TableBaseAccessors8AccessorILi2EdLb1ELj1EEC2ERK9TableBaseILi2EdEPKd = comdat any

$_ZNK5PointILi3EEmlEd = comdat any

$_ZN6TensorILi1ELi3EEmLERKd = comdat any

$_ZN5PointILi3EEC2ERK6TensorILi1ELi3EE = comdat any

$_ZTV8MappingQILi3EE = comdat any

$_ZTSN7MappingILi3EE16InternalDataBaseE = comdat any

$_ZTIN7MappingILi3EE16InternalDataBaseE = comdat any

$_ZTSN8MappingQILi3EE12InternalDataE = comdat any

$_ZTSN9MappingQ1ILi3EE12InternalDataE = comdat any

$_ZTIN9MappingQ1ILi3EE12InternalDataE = comdat any

$_ZTIN8MappingQILi3EE12InternalDataE = comdat any

$_ZTVN8MappingQILi3EE12InternalDataE = comdat any

$_ZZNK8MappingQILi3EE23add_line_support_pointsERK12TriaIteratorILi3E12CellAccessorILi3EEERSt6vectorI5PointILi3EESaIS9_EEE17straight_boundary = comdat any

$_ZGVZNK8MappingQILi3EE23add_line_support_pointsERK12TriaIteratorILi3E12CellAccessorILi3EEERSt6vectorI5PointILi3EESaIS9_EEE17straight_boundary = comdat any

$_ZZNK8MappingQILi3EE26set_laplace_on_quad_vectorER5TableILi2EdEE5loqv2 = comdat any

$_ZZNK8MappingQILi3EE26set_laplace_on_quad_vectorER5TableILi2EdEE5loqv3 = comdat any

$_ZZNK8MappingQILi3EE26set_laplace_on_quad_vectorER5TableILi2EdEE5loqv4 = comdat any

$_ZTVN8MappingQILi3EE22ExcLaplaceVectorNotSetE = comdat any

$_ZN8MappingQILi3EE26use_mapping_q_on_all_cellsE = comdat any

$_ZTS8MappingQILi3EE = comdat any

$_ZTS9MappingQ1ILi3EE = comdat any

$_ZTS7MappingILi3EE = comdat any

$_ZTI7MappingILi3EE = comdat any

$_ZTI9MappingQ1ILi3EE = comdat any

$_ZTI8MappingQILi3EE = comdat any

$_ZTSN8MappingQILi3EE22ExcLaplaceVectorNotSetE = comdat any

$_ZTIN8MappingQILi3EE22ExcLaplaceVectorNotSetE = comdat any

$_ZTVN11Polynomials10PolynomialIdEE = comdat any

$_ZTSN11Polynomials10PolynomialIdEE = comdat any

$_ZTIN11Polynomials10PolynomialIdEE = comdat any

$_ZTV4FE_QILi3EE = comdat any

$_ZTS4FE_QILi3EE = comdat any

$_ZTS7FE_PolyI24TensorProductPolynomialsILi3EELi3EE = comdat any

$_ZTS13FiniteElementILi3EE = comdat any

$_ZTS17FiniteElementBaseILi3EE = comdat any

$_ZTS17FiniteElementDataILi3EE = comdat any

$_ZTI17FiniteElementDataILi3EE = comdat any

$_ZTI17FiniteElementBaseILi3EE = comdat any

$_ZTI13FiniteElementILi3EE = comdat any

$_ZTI7FE_PolyI24TensorProductPolynomialsILi3EELi3EE = comdat any

$_ZTI4FE_QILi3EE = comdat any

$_ZTV7FE_PolyI24TensorProductPolynomialsILi3EELi3EE = comdat any

$_ZTV9TableBaseILi2EdE = comdat any

$_ZTS9TableBaseILi2EdE = comdat any

$_ZTI9TableBaseILi2EdE = comdat any

$_ZTVN9MappingQ1ILi3EE12InternalDataE = comdat any

$_ZTV9TableBaseILi2E6TensorILi1ELi3EEE = comdat any

$_ZTS9TableBaseILi2E6TensorILi1ELi3EEE = comdat any

$_ZTI9TableBaseILi2E6TensorILi1ELi3EEE = comdat any

$_ZTV5TableILi2EdE = comdat any

$_ZTS5TableILi2EdE = comdat any

$_ZTI5TableILi2EdE = comdat any

$_ZTVN11Polynomials19LagrangeEquidistantE = comdat any

$_ZTSN11Polynomials19LagrangeEquidistantE = comdat any

$_ZTIN11Polynomials19LagrangeEquidistantE = comdat any

$_ZZNK18TriaObjectAccessorILi3ELi3EE4lineEjE12lookup_table = comdat any

@_ZZNK8MappingQILi3EE25set_laplace_on_hex_vectorER5TableILi2EdEE5loqv2 = internal constant [26 x double] [double 7.812500e-03, double 7.812500e-03, double 7.812500e-03, double 7.812500e-03, double 7.812500e-03, double 7.812500e-03, double 7.812500e-03, double 7.812500e-03, double 0x3FA2AAAAAAAAAAAB, double 0x3FA2AAAAAAAAAAAB, double 0x3FA2AAAAAAAAAAAB, double 0x3FA2AAAAAAAAAAAB, double 0x3FA2AAAAAAAAAAAB, double 0x3FA2AAAAAAAAAAAB, double 0x3FA2AAAAAAAAAAAB, double 0x3FA2AAAAAAAAAAAB, double 0x3FA2AAAAAAAAAAAB, double 0x3FA2AAAAAAAAAAAB, double 0x3FA2AAAAAAAAAAAB, double 0x3FA2AAAAAAAAAAAB, double 0x3FB5555555555555, double 0x3FB5555555555555, double 0x3FB5555555555555, double 0x3FB5555555555555, double 0x3FB5555555555555, double 0x3FB5555555555555], align 16
@_ZZNK8MappingQILi3EE23add_quad_support_pointsERK12TriaIteratorILi3E12CellAccessorILi3EEERSt6vectorI5PointILi3EESaIS9_EEE27face_vertex_to_cell_vertex1 = internal constant [6 x [4 x i32]] [[4 x i32] [i32 0, i32 1, i32 2, i32 3], [4 x i32] [i32 4, i32 5, i32 6, i32 7], [4 x i32] [i32 0, i32 1, i32 5, i32 4], [4 x i32] [i32 1, i32 5, i32 6, i32 2], [4 x i32] [i32 3, i32 2, i32 6, i32 7], [4 x i32] [i32 0, i32 4, i32 7, i32 3]], align 16
@_ZZNK8MappingQILi3EE23add_quad_support_pointsERK12TriaIteratorILi3E12CellAccessorILi3EEERSt6vectorI5PointILi3EESaIS9_EEE27face_vertex_to_cell_vertex2 = internal constant [6 x [4 x i32]] [[4 x i32] [i32 0, i32 3, i32 2, i32 1], [4 x i32] [i32 4, i32 7, i32 6, i32 5], [4 x i32] [i32 0, i32 4, i32 5, i32 1], [4 x i32] [i32 1, i32 2, i32 6, i32 5], [4 x i32] [i32 3, i32 7, i32 6, i32 2], [4 x i32] [i32 0, i32 3, i32 7, i32 4]], align 16
@_ZZNK8MappingQILi3EE23add_quad_support_pointsERK12TriaIteratorILi3E12CellAccessorILi3EEERSt6vectorI5PointILi3EESaIS9_EEE23face_line_to_cell_line1 = internal constant [6 x [4 x i32]] [[4 x i32] [i32 0, i32 1, i32 2, i32 3], [4 x i32] [i32 4, i32 5, i32 6, i32 7], [4 x i32] [i32 0, i32 9, i32 4, i32 8], [4 x i32] [i32 9, i32 5, i32 10, i32 1], [4 x i32] [i32 2, i32 10, i32 6, i32 11], [4 x i32] [i32 8, i32 7, i32 11, i32 3]], align 16
@_ZZNK8MappingQILi3EE23add_quad_support_pointsERK12TriaIteratorILi3E12CellAccessorILi3EEERSt6vectorI5PointILi3EESaIS9_EEE23face_line_to_cell_line2 = internal constant [6 x [4 x i32]] [[4 x i32] [i32 3, i32 2, i32 1, i32 0], [4 x i32] [i32 7, i32 6, i32 5, i32 4], [4 x i32] [i32 8, i32 4, i32 9, i32 0], [4 x i32] [i32 1, i32 10, i32 5, i32 9], [4 x i32] [i32 11, i32 6, i32 10, i32 2], [4 x i32] [i32 3, i32 11, i32 7, i32 8]], align 16
@_ZZNK8MappingQILi3EE23add_quad_support_pointsERK12TriaIteratorILi3E12CellAccessorILi3EEERSt6vectorI5PointILi3EESaIS9_EEE17straight_boundary = internal global %class.StraightBoundary zeroinitializer, align 8
@_ZGVZNK8MappingQILi3EE23add_quad_support_pointsERK12TriaIteratorILi3E12CellAccessorILi3EEERSt6vectorI5PointILi3EESaIS9_EEE17straight_boundary = internal global i64 0, align 8
@__dso_handle = external global i8
@_ZTV8MappingQILi3EE = weak_odr unnamed_addr constant { [22 x i8*] } { [22 x i8*] [i8* null, i8* bitcast ({ i8*, i8*, i8* }* @_ZTI8MappingQILi3EE to i8*), i8* bitcast (void (%class.MappingQ*)* @_ZN8MappingQILi3EED1Ev to i8*), i8* bitcast (void (%class.MappingQ*)* @_ZN8MappingQILi3EED0Ev to i8*), i8* bitcast (void (%class.Point*, %class.MappingQ*, %class.TriaIterator*, %class.Point*)* @_ZNK8MappingQILi3EE27transform_unit_to_real_cellERK12TriaIteratorILi3E12CellAccessorILi3EEERK5PointILi3EE to i8*), i8* bitcast (void (%class.Point*, %class.MappingQ*, %class.TriaIterator*, %class.Point*)* @_ZNK8MappingQILi3EE27transform_real_to_unit_cellERK12TriaIteratorILi3E12CellAccessorILi3EEERK5PointILi3EE to i8*), i8* bitcast (void (%class.MappingQ*, %class.Tensor*, %class.Tensor*, %class.Tensor*, %"class.Mapping<3>::InternalDataBase"*)* @_ZNK8MappingQILi3EE19transform_covariantEP6TensorILi1ELi3EES3_PKS2_RKN7MappingILi3EE16InternalDataBaseE to i8*), i8* bitcast (void (%class.MappingQ*, %class.Tensor.113*, %class.Tensor.113*, %class.Tensor.113*, %"class.Mapping<3>::InternalDataBase"*)* @_ZNK8MappingQILi3EE19transform_covariantEP6TensorILi2ELi3EES3_PKS2_RKN7MappingILi3EE16InternalDataBaseE to i8*), i8* bitcast (void (%class.MappingQ*, %class.Tensor*, %class.Tensor*, %class.Tensor*, %"class.Mapping<3>::InternalDataBase"*)* @_ZNK8MappingQILi3EE23transform_contravariantEP6TensorILi1ELi3EES3_PKS2_RKN7MappingILi3EE16InternalDataBaseE to i8*), i8* bitcast (void (%class.MappingQ*, %class.Tensor.113*, %class.Tensor.113*, %class.Tensor.113*, %"class.Mapping<3>::InternalDataBase"*)* @_ZNK8MappingQILi3EE23transform_contravariantEP6TensorILi2ELi3EES3_PKS2_RKN7MappingILi3EE16InternalDataBaseE to i8*), i8* bitcast (i32 (%class.MappingQ1*, i32)* @_ZNK9MappingQ1ILi3EE11update_onceE11UpdateFlags to i8*), i8* bitcast (i32 (%class.MappingQ1*, i32)* @_ZNK9MappingQ1ILi3EE11update_eachE11UpdateFlags to i8*), i8* bitcast (%"class.Mapping<3>::InternalDataBase"* (%class.MappingQ*, i32, %class.Quadrature*)* @_ZNK8MappingQILi3EE8get_dataE11UpdateFlagsRK10QuadratureILi3EE to i8*), i8* bitcast (%"class.Mapping<3>::InternalDataBase"* (%class.MappingQ*, i32, %class.Quadrature.135*)* @_ZNK8MappingQILi3EE13get_face_dataE11UpdateFlagsRK10QuadratureILi2EE to i8*), i8* bitcast (%"class.Mapping<3>::InternalDataBase"* (%class.MappingQ*, i32, %class.Quadrature.135*)* @_ZNK8MappingQILi3EE16get_subface_dataE11UpdateFlagsRK10QuadratureILi2EE to i8*), i8* bitcast (void (%class.MappingQ*, %class.TriaIterator.118*, %class.Quadrature*, %"class.Mapping<3>::InternalDataBase"*, %"class.std::vector.58"*, %"class.std::vector.0"*)* @_ZNK8MappingQILi3EE14fill_fe_valuesERK12TriaIteratorILi3E15DoFCellAccessorILi3EEERK10QuadratureILi3EERN7MappingILi3EE16InternalDataBaseERSt6vectorI5PointILi3EESaISH_EERSF_IdSaIdEE to i8*), i8* bitcast (void (%class.MappingQ*, %class.TriaIterator.118*, i32, %class.Quadrature.135*, %"class.Mapping<3>::InternalDataBase"*, %"class.std::vector.58"*, %"class.std::vector.0"*, %"class.std::vector.103"*, %"class.std::vector.58"*)* @_ZNK8MappingQILi3EE19fill_fe_face_valuesERK12TriaIteratorILi3E15DoFCellAccessorILi3EEEjRK10QuadratureILi2EERN7MappingILi3EE16InternalDataBaseERSt6vectorI5PointILi3EESaISH_EERSF_IdSaIdEERSF_I6TensorILi1ELi3EESaISP_EESK_ to i8*), i8* bitcast (void (%class.MappingQ*, %class.TriaIterator.118*, i32, i32, %class.Quadrature.135*, %"class.Mapping<3>::InternalDataBase"*, %"class.std::vector.58"*, %"class.std::vector.0"*, %"class.std::vector.103"*, %"class.std::vector.58"*)* @_ZNK8MappingQILi3EE22fill_fe_subface_valuesERK12TriaIteratorILi3E15DoFCellAccessorILi3EEEjjRK10QuadratureILi2EERN7MappingILi3EE16InternalDataBaseERSt6vectorI5PointILi3EESaISH_EERSF_IdSaIdEERSF_I6TensorILi1ELi3EESaISP_EESK_ to i8*), i8* bitcast (void (%class.MappingQ*, %"class.std::vector.58"*, %"class.MappingQ1<3>::InternalData"*)* @_ZNK8MappingQILi3EE22compute_shapes_virtualERKSt6vectorI5PointILi3EESaIS3_EERN9MappingQ1ILi3EE12InternalDataE to i8*), i8* bitcast (void (%class.MappingQ*, %class.TriaIterator*, %"class.std::vector.58"*)* @_ZNK8MappingQILi3EE30compute_mapping_support_pointsERK12TriaIteratorILi3E12CellAccessorILi3EEERSt6vectorI5PointILi3EESaIS9_EE to i8*), i8* bitcast (void (%class.MappingQ*, %class.TriaIterator*, %"class.std::vector.58"*)* @_ZNK8MappingQILi3EE23add_line_support_pointsERK12TriaIteratorILi3E12CellAccessorILi3EEERSt6vectorI5PointILi3EESaIS9_EE to i8*), i8* bitcast (void (%class.MappingQ*, %class.TriaIterator*, %"class.std::vector.58"*)* @_ZNK8MappingQILi3EE23add_quad_support_pointsERK12TriaIteratorILi3E12CellAccessorILi3EEERSt6vectorI5PointILi3EESaIS9_EE to i8*)] }, comdat, align 8
@_ZTVN10__cxxabiv120__si_class_type_infoE = external global i8*
@_ZTSN7MappingILi3EE16InternalDataBaseE = linkonce_odr constant [35 x i8] c"N7MappingILi3EE16InternalDataBaseE\00", comdat
@_ZTI11Subscriptor = external constant i8*
@_ZTIN7MappingILi3EE16InternalDataBaseE = linkonce_odr constant { i8*, i8*, i8* } { i8* bitcast (i8** getelementptr inbounds (i8*, i8** @_ZTVN10__cxxabiv120__si_class_type_infoE, i64 2) to i8*), i8* getelementptr inbounds ([35 x i8], [35 x i8]* @_ZTSN7MappingILi3EE16InternalDataBaseE, i32 0, i32 0), i8* bitcast (i8** @_ZTI11Subscriptor to i8*) }, comdat
@_ZTSN8MappingQILi3EE12InternalDataE = linkonce_odr constant [32 x i8] c"N8MappingQILi3EE12InternalDataE\00", comdat
@_ZTSN9MappingQ1ILi3EE12InternalDataE = linkonce_odr constant [33 x i8] c"N9MappingQ1ILi3EE12InternalDataE\00", comdat
@_ZTIN9MappingQ1ILi3EE12InternalDataE = linkonce_odr constant { i8*, i8*, i8* } { i8* bitcast (i8** getelementptr inbounds (i8*, i8** @_ZTVN10__cxxabiv120__si_class_type_infoE, i64 2) to i8*), i8* getelementptr inbounds ([33 x i8], [33 x i8]* @_ZTSN9MappingQ1ILi3EE12InternalDataE, i32 0, i32 0), i8* bitcast ({ i8*, i8*, i8* }* @_ZTIN7MappingILi3EE16InternalDataBaseE to i8*) }, comdat
@_ZTIN8MappingQILi3EE12InternalDataE = linkonce_odr constant { i8*, i8*, i8* } { i8* bitcast (i8** getelementptr inbounds (i8*, i8** @_ZTVN10__cxxabiv120__si_class_type_infoE, i64 2) to i8*), i8* getelementptr inbounds ([32 x i8], [32 x i8]* @_ZTSN8MappingQILi3EE12InternalDataE, i32 0, i32 0), i8* bitcast ({ i8*, i8*, i8* }* @_ZTIN9MappingQ1ILi3EE12InternalDataE to i8*) }, comdat
@_ZTVN8MappingQILi3EE12InternalDataE = linkonce_odr unnamed_addr constant { [6 x i8*] } { [6 x i8*] [i8* null, i8* bitcast ({ i8*, i8*, i8* }* @_ZTIN8MappingQILi3EE12InternalDataE to i8*), i8* bitcast (void (%"class.MappingQ<3>::InternalData"*)* @_ZN8MappingQILi3EE12InternalDataD2Ev to i8*), i8* bitcast (void (%"class.MappingQ<3>::InternalData"*)* @_ZN8MappingQILi3EE12InternalDataD0Ev to i8*), i8* bitcast (void (%"class.Mapping<3>::InternalDataBase"*)* @_ZN7MappingILi3EE16InternalDataBase16clear_first_cellEv to i8*), i8* bitcast (i32 (%"class.MappingQ<3>::InternalData"*)* @_ZNK8MappingQILi3EE12InternalData18memory_consumptionEv to i8*)] }, comdat, align 8
@_ZZNK8MappingQILi3EE23add_line_support_pointsERK12TriaIteratorILi3E12CellAccessorILi3EEERSt6vectorI5PointILi3EESaIS9_EEE17straight_boundary = linkonce_odr global %class.StraightBoundary zeroinitializer, comdat, align 8
@_ZGVZNK8MappingQILi3EE23add_line_support_pointsERK12TriaIteratorILi3E12CellAccessorILi3EEERSt6vectorI5PointILi3EESaIS9_EEE17straight_boundary = linkonce_odr global i64 0, comdat, align 8
@_ZZNK8MappingQILi3EE26set_laplace_on_quad_vectorER5TableILi2EdEE5loqv2 = linkonce_odr constant [8 x double] [double 6.250000e-02, double 6.250000e-02, double 6.250000e-02, double 6.250000e-02, double 1.875000e-01, double 1.875000e-01, double 1.875000e-01, double 1.875000e-01], comdat, align 16
@_ZZNK8MappingQILi3EE26set_laplace_on_quad_vectorER5TableILi2EdEE5loqv3 = linkonce_odr constant [48 x double] [double 0x3FB372FE4C568C85, double 0x3F8948B0FCD6E9E0, double 0x3F8564E4872C00F9, double 0x3F8948B0FCD6E9E0, double 0x3FCB59B59B59B59B, double 0x3FC00BAB656100BB, double 0x3FAEA1EA1EA1EA1F, double 0x3FA756CAC201756D, double 0x3FAEA1EA1EA1EA1F, double 0x3FA756CAC201756D, double 0x3FCB59B59B59B59B, double 0x3FC00BAB656100BB, double 0x3F8948B0FCD6E9E0, double 0x3FB372FE4C568C85, double 0x3F8948B0FCD6E9E0, double 0x3F8564E4872C00F9, double 0x3FC00BAB656100BB, double 0x3FCB59B59B59B59B, double 0x3FCB59B59B59B59B, double 0x3FC00BAB656100BB, double 0x3FA756CAC201756D, double 0x3FAEA1EA1EA1EA1F, double 0x3FAEA1EA1EA1EA1F, double 0x3FA756CAC201756D, double 0x3F8948B0FCD6E9E0, double 0x3F8564E4872C00F9, double 0x3F8948B0FCD6E9E0, double 0x3FB372FE4C568C85, double 0x3FAEA1EA1EA1EA1F, double 0x3FA756CAC201756D, double 0x3FA756CAC201756D, double 0x3FAEA1EA1EA1EA1F, double 0x3FCB59B59B59B59B, double 0x3FC00BAB656100BB, double 0x3FC00BAB656100BB, double 0x3FCB59B59B59B59B, double 0x3F8564E4872C00F9, double 0x3F8948B0FCD6E9E0, double 0x3FB372FE4C568C85, double 0x3F8948B0FCD6E9E0, double 0x3FA756CAC201756D, double 0x3FAEA1EA1EA1EA1F, double 0x3FC00BAB656100BB, double 0x3FCB59B59B59B59B, double 0x3FC00BAB656100BB, double 0x3FCB59B59B59B59B, double 0x3FA756CAC201756D, double 0x3FAEA1EA1EA1EA1F], comdat, align 16
@_ZZNK8MappingQILi3EE26set_laplace_on_quad_vectorER5TableILi2EdEE5loqv4 = linkonce_odr constant [144 x double] [double 0x3FB2F58B81702DE1, double 0xBF519FFFFFFFFB5B, double 0x3F5F5D1FA3F481E3, double 0xBF519FFFFFFFFB9F, double 0x3FCC8F702E05C0D9, double 0x3FC13D5CC3987311, double 0x3FA385A9B536A7AD, double 0x3F9DD4AC9592B05D, double 0x3F968919E33C67A1, double 0x3F90647E8FD1FAC0, double 0x3F9DD4AC9592B060, double 0x3F968919E33C6794, double 0x3F90647E8FD1FABA, double 0x3FCC8F702E05C0DB, double 0x3FC13D5CC3987313, double 0x3FA385A9B536A7AE, double 0x3F7B3AF75EEBDA9E, double 0x3F7B3AF75EEBDD95, double 0x3F678A11422847F0, double 0x3F678A114228466E, double 0x3FC38E05C0B81730, double 0x3FCE0E6D4DA9B542, double 0x3FC38E05C0B81739, double 0x3FB43BAF75EEBD9C, double 0x3FAE8FFFFFFFFFF2, double 0x3FA288A1142284CB, double 0x3F998FD1FA3F4831, double 0x3FA4E64AC9592A2A, double 0x3F998FD1FA3F4851, double 0x3FB43BAF75EEBE26, double 0x3FAE90000000002D, double 0x3FA288A1142284D7, double 0xBF51A00000000C1F, double 0x3FB2F58B81702DEE, double 0xBF519FFFFFFFF969, double 0x3F5F5D1FA3F47FAB, double 0x3FA385A9B536A7B6, double 0x3FC13D5CC3987309, double 0x3FCC8F702E05C0F2, double 0x3FCC8F702E05C0A8, double 0x3FC13D5CC3987305, double 0x3FA385A9B536A7A9, double 0x3F90647E8FD1FAAB, double 0x3F968919E33C679C, double 0x3F9DD4AC9592B07A, double 0x3F9DD4AC9592B344, double 0x3F968919E33C679E, double 0x3F90647E8FD1FACE, double 0x3F7B3AF75EEBDAAD, double 0x3F678A114228468F, double 0x3F678A1142284808, double 0x3F7B3AF75EEBDD9D, double 0x3FB43BAF75EEBE24, double 0x3FAE900000000025, double 0x3FA288A1142284D8, double 0x3F998FD1FA3F4835, double 0x3FA4E64AC9592A2D, double 0x3F998FD1FA3F4855, double 0x3FB43BAF75EEBD9C, double 0x3FAE8FFFFFFFFFE3, double 0x3FA288A1142284C3, double 0x3FC38E05C0B81734, double 0x3FCE0E6D4DA9B544, double 0x3FC38E05C0B81739, double 0x3F86AAAAAAAAA9F5, double 0x3F86AAAAAAAAAAB9, double 0x3F86AAAAAAAAAB93, double 0x3F86AAAAAAAAAAC0, double 0x3FB1555555555595, double 0x3FBA800000000041, double 0x3FB155555555559F, double 0x3FB1555555555574, double 0x3FBA7FFFFFFFFFBA, double 0x3FB1555555555585, double 0x3FB1555555555570, double 0x3FBA7FFFFFFFFFAD, double 0x3FB155555555557E, double 0x3FB1555555555597, double 0x3FBA80000000004E, double 0x3FB15555555555A2, double 0x3F678A11422843F7, double 0x3F7B3AF75EEBDBFA, double 0x3F7B3AF75EEBDF05, double 0x3F678A1142284550, double 0x3FA288A1142284D1, double 0x3FAE900000000028, double 0x3FB43BAF75EEBE3B, double 0x3FC38E05C0B81723, double 0x3FCE0E6D4DA9B513, double 0x3FC38E05C0B8172E, double 0x3FA288A1142284BB, double 0x3FAE8FFFFFFFFFEC, double 0x3FB43BAF75EEBDB4, double 0x3F998FD1FA3F4834, double 0x3FA4E64AC9592BB2, double 0x3F998FD1FA3F484E, double 0xBF51A00000000BF3, double 0x3F5F5D1FA3F47FAE, double 0xBF519FFFFFFFF911, double 0x3FB2F58B81702DF0, double 0x3F9DD4AC9592B342, double 0x3F968919E33C6793, double 0x3F90647E8FD1FACA, double 0x3F90647E8FD1FAAC, double 0x3F968919E33C67A0, double 0x3F9DD4AC9592B081, double 0x3FCC8F702E05C0A8, double 0x3FC13D5CC3987302, double 0x3FA385A9B536A7A6, double 0x3FA385A9B536A7B5, double 0x3FC13D5CC398730B, double 0x3FCC8F702E05C0F6, double 0x3F678A11422843E2, double 0x3F678A1142284531, double 0x3F7B3AF75EEBDF04, double 0x3F7B3AF75EEBDC08, double 0x3F998FD1FA3F482B, double 0x3FA4E64AC9592BA5, double 0x3F998FD1FA3F4845, double 0x3FA288A1142284BC, double 0x3FAE8FFFFFFFFFF5, double 0x3FB43BAF75EEBDB5, double 0x3FC38E05C0B81720, double 0x3FCE0E6D4DA9B50B, double 0x3FC38E05C0B8172A, double 0x3FA288A1142284CD, double 0x3FAE90000000002E, double 0x3FB43BAF75EEBE3C, double 0x3F5F5D1FA3F47DD2, double 0xBF51A000000009F5, double 0x3FB2F58B81702E02, double 0xBF51A00000000985, double 0x3F90647E8FD1FACB, double 0x3F968919E33C67A3, double 0x3F9DD4AC9592B36B, double 0x3FA385A9B536A7B1, double 0x3FC13D5CC3987300, double 0x3FCC8F702E05C0C8, double 0x3FA385A9B536A7B2, double 0x3FC13D5CC39872FD, double 0x3FCC8F702E05C0C6, double 0x3F90647E8FD1FAC9, double 0x3F968919E33C67AF, double 0x3F9DD4AC9592B36F], comdat, align 16
@_ZN9MappingQ1ILi3EE14vertex_mappingE = external constant [8 x i32], align 16
@_ZTVN8MappingQILi3EE22ExcLaplaceVectorNotSetE = weak_odr unnamed_addr constant { [6 x i8*] } { [6 x i8*] [i8* null, i8* bitcast ({ i8*, i8*, i8* }* @_ZTIN8MappingQILi3EE22ExcLaplaceVectorNotSetE to i8*), i8* bitcast (void (%"class.MappingQ<3>::ExcLaplaceVectorNotSet"*)* @_ZN8MappingQILi3EE22ExcLaplaceVectorNotSetD1Ev to i8*), i8* bitcast (void (%"class.MappingQ<3>::ExcLaplaceVectorNotSet"*)* @_ZN8MappingQILi3EE22ExcLaplaceVectorNotSetD0Ev to i8*), i8* bitcast (i8* (%class.ExceptionBase*)* @_ZNK13ExceptionBase4whatEv to i8*), i8* bitcast (void (%"class.MappingQ<3>::ExcLaplaceVectorNotSet"*, %"class.std::basic_ostream"*)* @_ZNK8MappingQILi3EE22ExcLaplaceVectorNotSet9PrintInfoERSo to i8*)] }, comdat, align 8
@.str = private unnamed_addr constant [35 x i8] c"laplace_vector not set for degree=\00", align 1
@.str.1 = private unnamed_addr constant [2 x i8] c".\00", align 1
@_ZN8MappingQILi3EE26use_mapping_q_on_all_cellsE = weak_odr constant i8 0, comdat, align 1
@_ZTS8MappingQILi3EE = weak_odr constant [16 x i8] c"8MappingQILi3EE\00", comdat
@_ZTS9MappingQ1ILi3EE = linkonce_odr constant [17 x i8] c"9MappingQ1ILi3EE\00", comdat
@_ZTS7MappingILi3EE = linkonce_odr constant [15 x i8] c"7MappingILi3EE\00", comdat
@_ZTI7MappingILi3EE = linkonce_odr constant { i8*, i8*, i8* } { i8* bitcast (i8** getelementptr inbounds (i8*, i8** @_ZTVN10__cxxabiv120__si_class_type_infoE, i64 2) to i8*), i8* getelementptr inbounds ([15 x i8], [15 x i8]* @_ZTS7MappingILi3EE, i32 0, i32 0), i8* bitcast (i8** @_ZTI11Subscriptor to i8*) }, comdat
@_ZTI9MappingQ1ILi3EE = linkonce_odr constant { i8*, i8*, i8* } { i8* bitcast (i8** getelementptr inbounds (i8*, i8** @_ZTVN10__cxxabiv120__si_class_type_infoE, i64 2) to i8*), i8* getelementptr inbounds ([17 x i8], [17 x i8]* @_ZTS9MappingQ1ILi3EE, i32 0, i32 0), i8* bitcast ({ i8*, i8*, i8* }* @_ZTI7MappingILi3EE to i8*) }, comdat
@_ZTI8MappingQILi3EE = weak_odr constant { i8*, i8*, i8* } { i8* bitcast (i8** getelementptr inbounds (i8*, i8** @_ZTVN10__cxxabiv120__si_class_type_infoE, i64 2) to i8*), i8* getelementptr inbounds ([16 x i8], [16 x i8]* @_ZTS8MappingQILi3EE, i32 0, i32 0), i8* bitcast ({ i8*, i8*, i8* }* @_ZTI9MappingQ1ILi3EE to i8*) }, comdat
@_ZTSN8MappingQILi3EE22ExcLaplaceVectorNotSetE = weak_odr constant [42 x i8] c"N8MappingQILi3EE22ExcLaplaceVectorNotSetE\00", comdat
@_ZTI13ExceptionBase = external constant i8*
@_ZTIN8MappingQILi3EE22ExcLaplaceVectorNotSetE = weak_odr constant { i8*, i8*, i8* } { i8* bitcast (i8** getelementptr inbounds (i8*, i8** @_ZTVN10__cxxabiv120__si_class_type_infoE, i64 2) to i8*), i8* getelementptr inbounds ([42 x i8], [42 x i8]* @_ZTSN8MappingQILi3EE22ExcLaplaceVectorNotSetE, i32 0, i32 0), i8* bitcast (i8** @_ZTI13ExceptionBase to i8*) }, comdat
@_ZTVN11Polynomials10PolynomialIdEE = linkonce_odr unnamed_addr constant { [4 x i8*] } { [4 x i8*] [i8* null, i8* bitcast ({ i8*, i8*, i8* }* @_ZTIN11Polynomials10PolynomialIdEE to i8*), i8* bitcast (void (%"class.Polynomials::Polynomial"*)* @_ZN11Polynomials10PolynomialIdED2Ev to i8*), i8* bitcast (void (%"class.Polynomials::Polynomial"*)* @_ZN11Polynomials10PolynomialIdED0Ev to i8*)] }, comdat, align 8
@_ZTSN11Polynomials10PolynomialIdEE = linkonce_odr constant [31 x i8] c"N11Polynomials10PolynomialIdEE\00", comdat
@_ZTIN11Polynomials10PolynomialIdEE = linkonce_odr constant { i8*, i8*, i8* } { i8* bitcast (i8** getelementptr inbounds (i8*, i8** @_ZTVN10__cxxabiv120__si_class_type_infoE, i64 2) to i8*), i8* getelementptr inbounds ([31 x i8], [31 x i8]* @_ZTSN11Polynomials10PolynomialIdEE, i32 0, i32 0), i8* bitcast (i8** @_ZTI11Subscriptor to i8*) }, comdat
@_ZTV4FE_QILi3EE = linkonce_odr unnamed_addr constant { [28 x i8*] } { [28 x i8*] [i8* null, i8* bitcast ({ i8*, i8*, i8* }* @_ZTI4FE_QILi3EE to i8*), i8* bitcast (void (%class.FE_Q*)* @_ZN4FE_QILi3EED2Ev to i8*), i8* bitcast (void (%class.FE_Q*)* @_ZN4FE_QILi3EED0Ev to i8*), i8* bitcast (void (%"class.std::__cxx11::basic_string"*, %class.FE_Q*)* @_ZNK4FE_QILi3EE8get_nameB5cxx11Ev to i8*), i8* bitcast (double (%class.FE_Poly*, i32, %class.Point*)* @_ZNK7FE_PolyI24TensorProductPolynomialsILi3EELi3EE11shape_valueEjRK5PointILi3EE to i8*), i8* bitcast (double (%class.FE_Poly*, i32, %class.Point*, i32)* @_ZNK7FE_PolyI24TensorProductPolynomialsILi3EELi3EE21shape_value_componentEjRK5PointILi3EEj to i8*), i8* bitcast (void (%class.Tensor*, %class.FE_Poly*, i32, %class.Point*)* @_ZNK7FE_PolyI24TensorProductPolynomialsILi3EELi3EE10shape_gradEjRK5PointILi3EE to i8*), i8* bitcast (void (%class.Tensor*, %class.FE_Poly*, i32, %class.Point*, i32)* @_ZNK7FE_PolyI24TensorProductPolynomialsILi3EELi3EE20shape_grad_componentEjRK5PointILi3EEj to i8*), i8* bitcast (void (%class.Tensor.113*, %class.FE_Poly*, i32, %class.Point*)* @_ZNK7FE_PolyI24TensorProductPolynomialsILi3EELi3EE15shape_grad_gradEjRK5PointILi3EE to i8*), i8* bitcast (void (%class.Tensor.113*, %class.FE_Poly*, i32, %class.Point*, i32)* @_ZNK7FE_PolyI24TensorProductPolynomialsILi3EELi3EE25shape_grad_grad_componentEjRK5PointILi3EEj to i8*), i8* bitcast (void (%class.FE_Q*, %class.FiniteElementBase*, %class.FullMatrix*)* @_ZNK4FE_QILi3EE24get_interpolation_matrixERK17FiniteElementBaseILi3EER10FullMatrixIdE to i8*), i8* bitcast (void (%class.Point*, %class.FiniteElementBase*, i32)* @_ZNK17FiniteElementBaseILi3EE18unit_support_pointEj to i8*), i8* bitcast (void (%class.Point.96*, %class.FiniteElementBase*, i32)* @_ZNK17FiniteElementBaseILi3EE23unit_face_support_pointEj to i8*), i8* bitcast (i32 (%class.FE_Poly*)* @_ZNK7FE_PolyI24TensorProductPolynomialsILi3EELi3EE15n_base_elementsEv to i8*), i8* bitcast (%class.FiniteElement* (%class.FE_Poly*, i32)* @_ZNK7FE_PolyI24TensorProductPolynomialsILi3EELi3EE12base_elementEj to i8*), i8* bitcast (i32 (%class.FE_Poly*, i32)* @_ZNK7FE_PolyI24TensorProductPolynomialsILi3EELi3EE20element_multiplicityEj to i8*), i8* bitcast (i1 (%class.FE_Q*, i32, i32)* @_ZNK4FE_QILi3EE19has_support_on_faceEjj to i8*), i8* bitcast (i32 (%class.FE_Q*)* @_ZNK4FE_QILi3EE18memory_consumptionEv to i8*), i8* bitcast (i32 (%class.FE_Poly*, i32)* @_ZNK7FE_PolyI24TensorProductPolynomialsILi3EELi3EE11update_onceE11UpdateFlags to i8*), i8* bitcast (i32 (%class.FE_Poly*, i32)* @_ZNK7FE_PolyI24TensorProductPolynomialsILi3EELi3EE11update_eachE11UpdateFlags to i8*), i8* bitcast (%class.FiniteElement* (%class.FE_Q*)* @_ZNK4FE_QILi3EE5cloneEv to i8*), i8* bitcast (%"class.Mapping<3>::InternalDataBase"* (%class.FE_Poly*, i32, %class.Mapping*, %class.Quadrature*)* @_ZNK7FE_PolyI24TensorProductPolynomialsILi3EELi3EE8get_dataE11UpdateFlagsRK7MappingILi3EERK10QuadratureILi3EE to i8*), i8* bitcast (%"class.Mapping<3>::InternalDataBase"* (%class.FiniteElement*, i32, %class.Mapping*, %class.Quadrature.135*)* @_ZNK13FiniteElementILi3EE13get_face_dataE11UpdateFlagsRK7MappingILi3EERK10QuadratureILi2EE to i8*), i8* bitcast (%"class.Mapping<3>::InternalDataBase"* (%class.FiniteElement*, i32, %class.Mapping*, %class.Quadrature.135*)* @_ZNK13FiniteElementILi3EE16get_subface_dataE11UpdateFlagsRK7MappingILi3EERK10QuadratureILi2EE to i8*), i8* bitcast (void (%class.FE_Poly*, %class.Mapping*, %class.TriaIterator.118*, %class.Quadrature*, %"class.Mapping<3>::InternalDataBase"*, %"class.Mapping<3>::InternalDataBase"*, %class.FEValuesData*)* @_ZNK7FE_PolyI24TensorProductPolynomialsILi3EELi3EE14fill_fe_valuesERK7MappingILi3EERK12TriaIteratorILi3E15DoFCellAccessorILi3EEERK10QuadratureILi3EERNS4_16InternalDataBaseESI_R12FEValuesDataILi3EE to i8*), i8* bitcast (void (%class.FE_Poly*, %class.Mapping*, %class.TriaIterator.118*, i32, %class.Quadrature.135*, %"class.Mapping<3>::InternalDataBase"*, %"class.Mapping<3>::InternalDataBase"*, %class.FEValuesData*)* @_ZNK7FE_PolyI24TensorProductPolynomialsILi3EELi3EE19fill_fe_face_valuesERK7MappingILi3EERK12TriaIteratorILi3E15DoFCellAccessorILi3EEEjRK10QuadratureILi2EERNS4_16InternalDataBaseESI_R12FEValuesDataILi3EE to i8*), i8* bitcast (void (%class.FE_Poly*, %class.Mapping*, %class.TriaIterator.118*, i32, i32, %class.Quadrature.135*, %"class.Mapping<3>::InternalDataBase"*, %"class.Mapping<3>::InternalDataBase"*, %class.FEValuesData*)* @_ZNK7FE_PolyI24TensorProductPolynomialsILi3EELi3EE22fill_fe_subface_valuesERK7MappingILi3EERK12TriaIteratorILi3E15DoFCellAccessorILi3EEEjjRK10QuadratureILi2EERNS4_16InternalDataBaseESI_R12FEValuesDataILi3EE to i8*)] }, comdat, align 8
@_ZTS4FE_QILi3EE = linkonce_odr constant [12 x i8] c"4FE_QILi3EE\00", comdat
@_ZTS7FE_PolyI24TensorProductPolynomialsILi3EELi3EE = linkonce_odr constant [47 x i8] c"7FE_PolyI24TensorProductPolynomialsILi3EELi3EE\00", comdat
@_ZTS13FiniteElementILi3EE = linkonce_odr constant [22 x i8] c"13FiniteElementILi3EE\00", comdat
@_ZTVN10__cxxabiv121__vmi_class_type_infoE = external global i8*
@_ZTS17FiniteElementBaseILi3EE = linkonce_odr constant [26 x i8] c"17FiniteElementBaseILi3EE\00", comdat
@_ZTVN10__cxxabiv117__class_type_infoE = external global i8*
@_ZTS17FiniteElementDataILi3EE = linkonce_odr constant [26 x i8] c"17FiniteElementDataILi3EE\00", comdat
@_ZTI17FiniteElementDataILi3EE = linkonce_odr constant { i8*, i8* } { i8* bitcast (i8** getelementptr inbounds (i8*, i8** @_ZTVN10__cxxabiv117__class_type_infoE, i64 2) to i8*), i8* getelementptr inbounds ([26 x i8], [26 x i8]* @_ZTS17FiniteElementDataILi3EE, i32 0, i32 0) }, comdat
@_ZTI17FiniteElementBaseILi3EE = linkonce_odr constant { i8*, i8*, i32, i32, i8*, i64, i8*, i64 } { i8* bitcast (i8** getelementptr inbounds (i8*, i8** @_ZTVN10__cxxabiv121__vmi_class_type_infoE, i64 2) to i8*), i8* getelementptr inbounds ([26 x i8], [26 x i8]* @_ZTS17FiniteElementBaseILi3EE, i32 0, i32 0), i32 0, i32 2, i8* bitcast (i8** @_ZTI11Subscriptor to i8*), i64 2, i8* bitcast ({ i8*, i8* }* @_ZTI17FiniteElementDataILi3EE to i8*), i64 6146 }, comdat
@_ZTI13FiniteElementILi3EE = linkonce_odr constant { i8*, i8*, i8* } { i8* bitcast (i8** getelementptr inbounds (i8*, i8** @_ZTVN10__cxxabiv120__si_class_type_infoE, i64 2) to i8*), i8* getelementptr inbounds ([22 x i8], [22 x i8]* @_ZTS13FiniteElementILi3EE, i32 0, i32 0), i8* bitcast ({ i8*, i8*, i32, i32, i8*, i64, i8*, i64 }* @_ZTI17FiniteElementBaseILi3EE to i8*) }, comdat
@_ZTI7FE_PolyI24TensorProductPolynomialsILi3EELi3EE = linkonce_odr constant { i8*, i8*, i8* } { i8* bitcast (i8** getelementptr inbounds (i8*, i8** @_ZTVN10__cxxabiv120__si_class_type_infoE, i64 2) to i8*), i8* getelementptr inbounds ([47 x i8], [47 x i8]* @_ZTS7FE_PolyI24TensorProductPolynomialsILi3EELi3EE, i32 0, i32 0), i8* bitcast ({ i8*, i8*, i8* }* @_ZTI13FiniteElementILi3EE to i8*) }, comdat
@_ZTI4FE_QILi3EE = linkonce_odr constant { i8*, i8*, i8* } { i8* bitcast (i8** getelementptr inbounds (i8*, i8** @_ZTVN10__cxxabiv120__si_class_type_infoE, i64 2) to i8*), i8* getelementptr inbounds ([12 x i8], [12 x i8]* @_ZTS4FE_QILi3EE, i32 0, i32 0), i8* bitcast ({ i8*, i8*, i8* }* @_ZTI7FE_PolyI24TensorProductPolynomialsILi3EELi3EE to i8*) }, comdat
@_ZTV7FE_PolyI24TensorProductPolynomialsILi3EELi3EE = linkonce_odr unnamed_addr constant { [28 x i8*] } { [28 x i8*] [i8* null, i8* bitcast ({ i8*, i8*, i8* }* @_ZTI7FE_PolyI24TensorProductPolynomialsILi3EELi3EE to i8*), i8* bitcast (void (%class.FE_Poly*)* @_ZN7FE_PolyI24TensorProductPolynomialsILi3EELi3EED2Ev to i8*), i8* bitcast (void (%class.FE_Poly*)* @_ZN7FE_PolyI24TensorProductPolynomialsILi3EELi3EED0Ev to i8*), i8* bitcast (void ()* @__cxa_pure_virtual to i8*), i8* bitcast (double (%class.FE_Poly*, i32, %class.Point*)* @_ZNK7FE_PolyI24TensorProductPolynomialsILi3EELi3EE11shape_valueEjRK5PointILi3EE to i8*), i8* bitcast (double (%class.FE_Poly*, i32, %class.Point*, i32)* @_ZNK7FE_PolyI24TensorProductPolynomialsILi3EELi3EE21shape_value_componentEjRK5PointILi3EEj to i8*), i8* bitcast (void (%class.Tensor*, %class.FE_Poly*, i32, %class.Point*)* @_ZNK7FE_PolyI24TensorProductPolynomialsILi3EELi3EE10shape_gradEjRK5PointILi3EE to i8*), i8* bitcast (void (%class.Tensor*, %class.FE_Poly*, i32, %class.Point*, i32)* @_ZNK7FE_PolyI24TensorProductPolynomialsILi3EELi3EE20shape_grad_componentEjRK5PointILi3EEj to i8*), i8* bitcast (void (%class.Tensor.113*, %class.FE_Poly*, i32, %class.Point*)* @_ZNK7FE_PolyI24TensorProductPolynomialsILi3EELi3EE15shape_grad_gradEjRK5PointILi3EE to i8*), i8* bitcast (void (%class.Tensor.113*, %class.FE_Poly*, i32, %class.Point*, i32)* @_ZNK7FE_PolyI24TensorProductPolynomialsILi3EELi3EE25shape_grad_grad_componentEjRK5PointILi3EEj to i8*), i8* bitcast (void (%class.FiniteElementBase*, %class.FiniteElementBase*, %class.FullMatrix*)* @_ZNK17FiniteElementBaseILi3EE24get_interpolation_matrixERKS0_R10FullMatrixIdE to i8*), i8* bitcast (void (%class.Point*, %class.FiniteElementBase*, i32)* @_ZNK17FiniteElementBaseILi3EE18unit_support_pointEj to i8*), i8* bitcast (void (%class.Point.96*, %class.FiniteElementBase*, i32)* @_ZNK17FiniteElementBaseILi3EE23unit_face_support_pointEj to i8*), i8* bitcast (i32 (%class.FE_Poly*)* @_ZNK7FE_PolyI24TensorProductPolynomialsILi3EELi3EE15n_base_elementsEv to i8*), i8* bitcast (%class.FiniteElement* (%class.FE_Poly*, i32)* @_ZNK7FE_PolyI24TensorProductPolynomialsILi3EELi3EE12base_elementEj to i8*), i8* bitcast (i32 (%class.FE_Poly*, i32)* @_ZNK7FE_PolyI24TensorProductPolynomialsILi3EELi3EE20element_multiplicityEj to i8*), i8* bitcast (void ()* @__cxa_pure_virtual to i8*), i8* bitcast (i32 (%class.FiniteElement*)* @_ZNK13FiniteElementILi3EE18memory_consumptionEv to i8*), i8* bitcast (i32 (%class.FE_Poly*, i32)* @_ZNK7FE_PolyI24TensorProductPolynomialsILi3EELi3EE11update_onceE11UpdateFlags to i8*), i8* bitcast (i32 (%class.FE_Poly*, i32)* @_ZNK7FE_PolyI24TensorProductPolynomialsILi3EELi3EE11update_eachE11UpdateFlags to i8*), i8* bitcast (void ()* @__cxa_pure_virtual to i8*), i8* bitcast (%"class.Mapping<3>::InternalDataBase"* (%class.FE_Poly*, i32, %class.Mapping*, %class.Quadrature*)* @_ZNK7FE_PolyI24TensorProductPolynomialsILi3EELi3EE8get_dataE11UpdateFlagsRK7MappingILi3EERK10QuadratureILi3EE to i8*), i8* bitcast (%"class.Mapping<3>::InternalDataBase"* (%class.FiniteElement*, i32, %class.Mapping*, %class.Quadrature.135*)* @_ZNK13FiniteElementILi3EE13get_face_dataE11UpdateFlagsRK7MappingILi3EERK10QuadratureILi2EE to i8*), i8* bitcast (%"class.Mapping<3>::InternalDataBase"* (%class.FiniteElement*, i32, %class.Mapping*, %class.Quadrature.135*)* @_ZNK13FiniteElementILi3EE16get_subface_dataE11UpdateFlagsRK7MappingILi3EERK10QuadratureILi2EE to i8*), i8* bitcast (void (%class.FE_Poly*, %class.Mapping*, %class.TriaIterator.118*, %class.Quadrature*, %"class.Mapping<3>::InternalDataBase"*, %"class.Mapping<3>::InternalDataBase"*, %class.FEValuesData*)* @_ZNK7FE_PolyI24TensorProductPolynomialsILi3EELi3EE14fill_fe_valuesERK7MappingILi3EERK12TriaIteratorILi3E15DoFCellAccessorILi3EEERK10QuadratureILi3EERNS4_16InternalDataBaseESI_R12FEValuesDataILi3EE to i8*), i8* bitcast (void (%class.FE_Poly*, %class.Mapping*, %class.TriaIterator.118*, i32, %class.Quadrature.135*, %"class.Mapping<3>::InternalDataBase"*, %"class.Mapping<3>::InternalDataBase"*, %class.FEValuesData*)* @_ZNK7FE_PolyI24TensorProductPolynomialsILi3EELi3EE19fill_fe_face_valuesERK7MappingILi3EERK12TriaIteratorILi3E15DoFCellAccessorILi3EEEjRK10QuadratureILi2EERNS4_16InternalDataBaseESI_R12FEValuesDataILi3EE to i8*), i8* bitcast (void (%class.FE_Poly*, %class.Mapping*, %class.TriaIterator.118*, i32, i32, %class.Quadrature.135*, %"class.Mapping<3>::InternalDataBase"*, %"class.Mapping<3>::InternalDataBase"*, %class.FEValuesData*)* @_ZNK7FE_PolyI24TensorProductPolynomialsILi3EELi3EE22fill_fe_subface_valuesERK7MappingILi3EERK12TriaIteratorILi3E15DoFCellAccessorILi3EEEjjRK10QuadratureILi2EERNS4_16InternalDataBaseESI_R12FEValuesDataILi3EE to i8*)] }, comdat, align 8
@_ZTV9TableBaseILi2EdE = linkonce_odr unnamed_addr constant { [4 x i8*] } { [4 x i8*] [i8* null, i8* bitcast ({ i8*, i8*, i8* }* @_ZTI9TableBaseILi2EdE to i8*), i8* bitcast (void (%class.TableBase*)* @_ZN9TableBaseILi2EdED2Ev to i8*), i8* bitcast (void (%class.TableBase*)* @_ZN9TableBaseILi2EdED0Ev to i8*)] }, comdat, align 8
@_ZTS9TableBaseILi2EdE = linkonce_odr constant [18 x i8] c"9TableBaseILi2EdE\00", comdat
@_ZTI9TableBaseILi2EdE = linkonce_odr constant { i8*, i8*, i8* } { i8* bitcast (i8** getelementptr inbounds (i8*, i8** @_ZTVN10__cxxabiv120__si_class_type_infoE, i64 2) to i8*), i8* getelementptr inbounds ([18 x i8], [18 x i8]* @_ZTS9TableBaseILi2EdE, i32 0, i32 0), i8* bitcast (i8** @_ZTI11Subscriptor to i8*) }, comdat
@_ZTVN9MappingQ1ILi3EE12InternalDataE = linkonce_odr unnamed_addr constant { [6 x i8*] } { [6 x i8*] [i8* null, i8* bitcast ({ i8*, i8*, i8* }* @_ZTIN9MappingQ1ILi3EE12InternalDataE to i8*), i8* bitcast (void (%"class.MappingQ1<3>::InternalData"*)* @_ZN9MappingQ1ILi3EE12InternalDataD2Ev to i8*), i8* bitcast (void (%"class.MappingQ1<3>::InternalData"*)* @_ZN9MappingQ1ILi3EE12InternalDataD0Ev to i8*), i8* bitcast (void (%"class.Mapping<3>::InternalDataBase"*)* @_ZN7MappingILi3EE16InternalDataBase16clear_first_cellEv to i8*), i8* bitcast (i32 (%"class.MappingQ1<3>::InternalData"*)* @_ZNK9MappingQ1ILi3EE12InternalData18memory_consumptionEv to i8*)] }, comdat, align 8
@_ZTV9TableBaseILi2E6TensorILi1ELi3EEE = linkonce_odr unnamed_addr constant { [4 x i8*] } { [4 x i8*] [i8* null, i8* bitcast ({ i8*, i8*, i8* }* @_ZTI9TableBaseILi2E6TensorILi1ELi3EEE to i8*), i8* bitcast (void (%class.TableBase.115*)* @_ZN9TableBaseILi2E6TensorILi1ELi3EEED2Ev to i8*), i8* bitcast (void (%class.TableBase.115*)* @_ZN9TableBaseILi2E6TensorILi1ELi3EEED0Ev to i8*)] }, comdat, align 8
@_ZTS9TableBaseILi2E6TensorILi1ELi3EEE = linkonce_odr constant [34 x i8] c"9TableBaseILi2E6TensorILi1ELi3EEE\00", comdat
@_ZTI9TableBaseILi2E6TensorILi1ELi3EEE = linkonce_odr constant { i8*, i8*, i8* } { i8* bitcast (i8** getelementptr inbounds (i8*, i8** @_ZTVN10__cxxabiv120__si_class_type_infoE, i64 2) to i8*), i8* getelementptr inbounds ([34 x i8], [34 x i8]* @_ZTS9TableBaseILi2E6TensorILi1ELi3EEE, i32 0, i32 0), i8* bitcast (i8** @_ZTI11Subscriptor to i8*) }, comdat
@.str.2 = private unnamed_addr constant [49 x i8] c"cannot create std::vector larger than max_size()\00", align 1
@.str.3 = private unnamed_addr constant [24 x i8] c"vector::_M_range_insert\00", align 1
@.str.4 = private unnamed_addr constant [23 x i8] c"vector::_M_fill_insert\00", align 1
@.str.5 = private unnamed_addr constant [26 x i8] c"vector::_M_realloc_insert\00", align 1
@_ZTV5TableILi2EdE = linkonce_odr unnamed_addr constant { [4 x i8*] } { [4 x i8*] [i8* null, i8* bitcast ({ i8*, i8*, i8* }* @_ZTI5TableILi2EdE to i8*), i8* bitcast (void (%class.Table*)* @_ZN5TableILi2EdED2Ev to i8*), i8* bitcast (void (%class.Table*)* @_ZN5TableILi2EdED0Ev to i8*)] }, comdat, align 8
@_ZTS5TableILi2EdE = linkonce_odr constant [14 x i8] c"5TableILi2EdE\00", comdat
@_ZTI5TableILi2EdE = linkonce_odr constant { i8*, i8*, i8* } { i8* bitcast (i8** getelementptr inbounds (i8*, i8** @_ZTVN10__cxxabiv120__si_class_type_infoE, i64 2) to i8*), i8* getelementptr inbounds ([14 x i8], [14 x i8]* @_ZTS5TableILi2EdE, i32 0, i32 0), i8* bitcast ({ i8*, i8*, i8* }* @_ZTI9TableBaseILi2EdE to i8*) }, comdat
@_ZTVN11Polynomials19LagrangeEquidistantE = linkonce_odr unnamed_addr constant { [4 x i8*] } { [4 x i8*] [i8* null, i8* bitcast ({ i8*, i8*, i8* }* @_ZTIN11Polynomials19LagrangeEquidistantE to i8*), i8* bitcast (void (%"class.Polynomials::LagrangeEquidistant"*)* @_ZN11Polynomials19LagrangeEquidistantD2Ev to i8*), i8* bitcast (void (%"class.Polynomials::LagrangeEquidistant"*)* @_ZN11Polynomials19LagrangeEquidistantD0Ev to i8*)] }, comdat, align 8
@_ZTSN11Polynomials19LagrangeEquidistantE = linkonce_odr constant [37 x i8] c"N11Polynomials19LagrangeEquidistantE\00", comdat
@_ZTIN11Polynomials19LagrangeEquidistantE = linkonce_odr constant { i8*, i8*, i8* } { i8* bitcast (i8** getelementptr inbounds (i8*, i8** @_ZTVN10__cxxabiv120__si_class_type_infoE, i64 2) to i8*), i8* getelementptr inbounds ([37 x i8], [37 x i8]* @_ZTSN11Polynomials19LagrangeEquidistantE, i32 0, i32 0), i8* bitcast ({ i8*, i8*, i8* }* @_ZTIN11Polynomials10PolynomialIdEE to i8*) }, comdat
@_ZZNK18TriaObjectAccessorILi3ELi3EE4lineEjE12lookup_table = linkonce_odr constant [12 x [3 x i32]] [[3 x i32] [i32 0, i32 0, i32 3], [3 x i32] [i32 0, i32 1, i32 2], [3 x i32] [i32 0, i32 2, i32 1], [3 x i32] [i32 0, i32 3, i32 0], [3 x i32] [i32 1, i32 0, i32 3], [3 x i32] [i32 1, i32 1, i32 2], [3 x i32] [i32 1, i32 2, i32 1], [3 x i32] [i32 1, i32 3, i32 0], [3 x i32] [i32 2, i32 3, i32 0], [3 x i32] [i32 2, i32 1, i32 2], [3 x i32] [i32 4, i32 1, i32 2], [3 x i32] [i32 4, i32 3, i32 0]], comdat, align 16
@x = common global i32 0
@y = common global i32 0
@x.1 = common global i32 0
@y.2 = common global i32 0
@x.3 = common global i32 0
@y.4 = common global i32 0
@x.5 = common global i32 0
@y.6 = common global i32 0
@x.7 = common global i32 0
@y.8 = common global i32 0
@x.9 = common global i32 0
@y.10 = common global i32 0
@x.11 = common global i32 0
@y.12 = common global i32 0
@x.13 = common global i32 0
@y.14 = common global i32 0
@x.15 = common global i32 0
@y.16 = common global i32 0
@x.17 = common global i32 0
@y.18 = common global i32 0
@x.19 = common global i32 0
@y.20 = common global i32 0
@x.21 = common global i32 0
@y.22 = common global i32 0
@x.23 = common global i32 0
@y.24 = common global i32 0
@x.25 = common global i32 0
@y.26 = common global i32 0
@x.27 = common global i32 0
@y.28 = common global i32 0
@x.29 = common global i32 0
@y.30 = common global i32 0
@x.31 = common global i32 0
@y.32 = common global i32 0
@x.33 = common global i32 0
@y.34 = common global i32 0
@x.35 = common global i32 0
@y.36 = common global i32 0
@x.37 = common global i32 0
@y.38 = common global i32 0
@x.39 = common global i32 0
@y.40 = common global i32 0
@x.41 = common global i32 0
@y.42 = common global i32 0
@x.43 = common global i32 0
@y.44 = common global i32 0
@x.45 = common global i32 0
@y.46 = common global i32 0
@x.47 = common global i32 0
@y.48 = common global i32 0
@x.49 = common global i32 0
@y.50 = common global i32 0
@x.51 = common global i32 0
@y.52 = common global i32 0
@x.53 = common global i32 0
@y.54 = common global i32 0
@x.55 = common global i32 0
@y.56 = common global i32 0
@x.57 = common global i32 0
@y.58 = common global i32 0
@x.59 = common global i32 0
@y.60 = common global i32 0
@x.61 = common global i32 0
@y.62 = common global i32 0
@x.63 = common global i32 0
@y.64 = common global i32 0
@x.65 = common global i32 0
@y.66 = common global i32 0
@x.67 = common global i32 0
@y.68 = common global i32 0
@x.69 = common global i32 0
@y.70 = common global i32 0
@x.71 = common global i32 0
@y.72 = common global i32 0
@x.73 = common global i32 0
@y.74 = common global i32 0
@x.75 = common global i32 0
@y.76 = common global i32 0
@x.77 = common global i32 0
@y.78 = common global i32 0
@x.79 = common global i32 0
@y.80 = common global i32 0
@x.81 = common global i32 0
@y.82 = common global i32 0
@x.83 = common global i32 0
@y.84 = common global i32 0
@x.85 = common global i32 0
@y.86 = common global i32 0
@x.87 = common global i32 0
@y.88 = common global i32 0
@x.89 = common global i32 0
@y.90 = common global i32 0
@x.91 = common global i32 0
@y.92 = common global i32 0
@x.93 = common global i32 0
@y.94 = common global i32 0
@x.95 = common global i32 0
@y.96 = common global i32 0
@x.97 = common global i32 0
@y.98 = common global i32 0
@x.99 = common global i32 0
@y.100 = common global i32 0
@x.101 = common global i32 0
@y.102 = common global i32 0
@x.103 = common global i32 0
@y.104 = common global i32 0
@x.105 = common global i32 0
@y.106 = common global i32 0
@x.107 = common global i32 0
@y.108 = common global i32 0
@x.109 = common global i32 0
@y.110 = common global i32 0
@x.111 = common global i32 0
@y.112 = common global i32 0
@x.113 = common global i32 0
@y.114 = common global i32 0
@x.115 = common global i32 0
@y.116 = common global i32 0
@x.117 = common global i32 0
@y.118 = common global i32 0
@x.119 = common global i32 0
@y.120 = common global i32 0
@x.121 = common global i32 0
@y.122 = common global i32 0
@x.123 = common global i32 0
@y.124 = common global i32 0
@x.125 = common global i32 0
@y.126 = common global i32 0
@x.127 = common global i32 0
@y.128 = common global i32 0
@x.129 = common global i32 0
@y.130 = common global i32 0
@x.131 = common global i32 0
@y.132 = common global i32 0
@x.133 = common global i32 0
@y.134 = common global i32 0
@x.135 = common global i32 0
@y.136 = common global i32 0
@x.137 = common global i32 0
@y.138 = common global i32 0
@x.139 = common global i32 0
@y.140 = common global i32 0
@x.141 = common global i32 0
@y.142 = common global i32 0
@x.143 = common global i32 0
@y.144 = common global i32 0
@x.145 = common global i32 0
@y.146 = common global i32 0
@x.147 = common global i32 0
@y.148 = common global i32 0
@x.149 = common global i32 0
@y.150 = common global i32 0
@x.151 = common global i32 0
@y.152 = common global i32 0
@x.153 = common global i32 0
@y.154 = common global i32 0
@x.155 = common global i32 0
@y.156 = common global i32 0
@x.157 = common global i32 0
@y.158 = common global i32 0
@x.159 = common global i32 0
@y.160 = common global i32 0
@x.161 = common global i32 0
@y.162 = common global i32 0
@x.163 = common global i32 0
@y.164 = common global i32 0
@x.165 = common global i32 0
@y.166 = common global i32 0
@x.167 = common global i32 0
@y.168 = common global i32 0
@x.169 = common global i32 0
@y.170 = common global i32 0
@x.171 = common global i32 0
@y.172 = common global i32 0
@x.173 = common global i32 0
@y.174 = common global i32 0
@x.175 = common global i32 0
@y.176 = common global i32 0
@x.177 = common global i32 0
@y.178 = common global i32 0
@x.179 = common global i32 0
@y.180 = common global i32 0
@x.181 = common global i32 0
@y.182 = common global i32 0
@x.183 = common global i32 0
@y.184 = common global i32 0
@x.185 = common global i32 0
@y.186 = common global i32 0
@x.187 = common global i32 0
@y.188 = common global i32 0
@x.189 = common global i32 0
@y.190 = common global i32 0
@x.191 = common global i32 0
@y.192 = common global i32 0
@x.193 = common global i32 0
@y.194 = common global i32 0
@x.195 = common global i32 0
@y.196 = common global i32 0
@x.197 = common global i32 0
@y.198 = common global i32 0
@x.199 = common global i32 0
@y.200 = common global i32 0
@x.201 = common global i32 0
@y.202 = common global i32 0
@x.203 = common global i32 0
@y.204 = common global i32 0
@x.205 = common global i32 0
@y.206 = common global i32 0
@x.207 = common global i32 0
@y.208 = common global i32 0
@x.209 = common global i32 0
@y.210 = common global i32 0
@x.211 = common global i32 0
@y.212 = common global i32 0
@x.213 = common global i32 0
@y.214 = common global i32 0
@x.215 = common global i32 0
@y.216 = common global i32 0
@x.217 = common global i32 0
@y.218 = common global i32 0
@x.219 = common global i32 0
@y.220 = common global i32 0
@x.221 = common global i32 0
@y.222 = common global i32 0
@x.223 = common global i32 0
@y.224 = common global i32 0
@x.225 = common global i32 0
@y.226 = common global i32 0
@x.227 = common global i32 0
@y.228 = common global i32 0
@x.229 = common global i32 0
@y.230 = common global i32 0
@x.231 = common global i32 0
@y.232 = common global i32 0
@x.233 = common global i32 0
@y.234 = common global i32 0
@x.235 = common global i32 0
@y.236 = common global i32 0
@x.237 = common global i32 0
@y.238 = common global i32 0
@x.239 = common global i32 0
@y.240 = common global i32 0
@x.241 = common global i32 0
@y.242 = common global i32 0
@x.243 = common global i32 0
@y.244 = common global i32 0
@x.245 = common global i32 0
@y.246 = common global i32 0
@x.247 = common global i32 0
@y.248 = common global i32 0
@x.249 = common global i32 0
@y.250 = common global i32 0
@x.251 = common global i32 0
@y.252 = common global i32 0
@x.253 = common global i32 0
@y.254 = common global i32 0
@x.255 = common global i32 0
@y.256 = common global i32 0
@x.257 = common global i32 0
@y.258 = common global i32 0
@x.259 = common global i32 0
@y.260 = common global i32 0
@x.261 = common global i32 0
@y.262 = common global i32 0
@x.263 = common global i32 0
@y.264 = common global i32 0
@x.265 = common global i32 0
@y.266 = common global i32 0
@x.267 = common global i32 0
@y.268 = common global i32 0
@x.269 = common global i32 0
@y.270 = common global i32 0
@x.271 = common global i32 0
@y.272 = common global i32 0
@x.273 = common global i32 0
@y.274 = common global i32 0
@x.275 = common global i32 0
@y.276 = common global i32 0
@x.277 = common global i32 0
@y.278 = common global i32 0
@x.279 = common global i32 0
@y.280 = common global i32 0
@x.281 = common global i32 0
@y.282 = common global i32 0
@x.283 = common global i32 0
@y.284 = common global i32 0
@x.285 = common global i32 0
@y.286 = common global i32 0
@x.287 = common global i32 0
@y.288 = common global i32 0
@x.289 = common global i32 0
@y.290 = common global i32 0
@x.291 = common global i32 0
@y.292 = common global i32 0
@x.293 = common global i32 0
@y.294 = common global i32 0
@x.295 = common global i32 0
@y.296 = common global i32 0
@x.297 = common global i32 0
@y.298 = common global i32 0
@x.299 = common global i32 0
@y.300 = common global i32 0
@x.301 = common global i32 0
@y.302 = common global i32 0
@x.303 = common global i32 0
@y.304 = common global i32 0
@x.305 = common global i32 0
@y.306 = common global i32 0
@x.307 = common global i32 0
@y.308 = common global i32 0
@x.309 = common global i32 0
@y.310 = common global i32 0
@x.311 = common global i32 0
@y.312 = common global i32 0
@x.313 = common global i32 0
@y.314 = common global i32 0
@x.315 = common global i32 0
@y.316 = common global i32 0
@x.317 = common global i32 0
@y.318 = common global i32 0
@x.319 = common global i32 0
@y.320 = common global i32 0
@x.321 = common global i32 0
@y.322 = common global i32 0
@x.323 = common global i32 0
@y.324 = common global i32 0
@x.325 = common global i32 0
@y.326 = common global i32 0
@x.327 = common global i32 0
@y.328 = common global i32 0
@x.329 = common global i32 0
@y.330 = common global i32 0
@x.331 = common global i32 0
@y.332 = common global i32 0
@x.333 = common global i32 0
@y.334 = common global i32 0
@x.335 = common global i32 0
@y.336 = common global i32 0
@x.337 = common global i32 0
@y.338 = common global i32 0
@x.339 = common global i32 0
@y.340 = common global i32 0
@x.341 = common global i32 0
@y.342 = common global i32 0
@x.343 = common global i32 0
@y.344 = common global i32 0
@x.345 = common global i32 0
@y.346 = common global i32 0
@x.347 = common global i32 0
@y.348 = common global i32 0
@x.349 = common global i32 0
@y.350 = common global i32 0
@x.351 = common global i32 0
@y.352 = common global i32 0
@x.353 = common global i32 0
@y.354 = common global i32 0
@x.355 = common global i32 0
@y.356 = common global i32 0
@x.357 = common global i32 0
@y.358 = common global i32 0
@x.359 = common global i32 0
@y.360 = common global i32 0
@x.361 = common global i32 0
@y.362 = common global i32 0
@x.363 = common global i32 0
@y.364 = common global i32 0
@x.365 = common global i32 0
@y.366 = common global i32 0
@x.367 = common global i32 0
@y.368 = common global i32 0
@x.369 = common global i32 0
@y.370 = common global i32 0
@x.371 = common global i32 0
@y.372 = common global i32 0
@x.373 = common global i32 0
@y.374 = common global i32 0
@x.375 = common global i32 0
@y.376 = common global i32 0
@x.377 = common global i32 0
@y.378 = common global i32 0
@x.379 = common global i32 0
@y.380 = common global i32 0
@x.381 = common global i32 0
@y.382 = common global i32 0
@x.383 = common global i32 0
@y.384 = common global i32 0
@x.385 = common global i32 0
@y.386 = common global i32 0
@x.387 = common global i32 0
@y.388 = common global i32 0
@x.389 = common global i32 0
@y.390 = common global i32 0
@x.391 = common global i32 0
@y.392 = common global i32 0
@x.393 = common global i32 0
@y.394 = common global i32 0
@x.395 = common global i32 0
@y.396 = common global i32 0
@x.397 = common global i32 0
@y.398 = common global i32 0
@x.399 = common global i32 0
@y.400 = common global i32 0
@x.401 = common global i32 0
@y.402 = common global i32 0
@x.403 = common global i32 0
@y.404 = common global i32 0
@x.405 = common global i32 0
@y.406 = common global i32 0
@x.407 = common global i32 0
@y.408 = common global i32 0
@x.409 = common global i32 0
@y.410 = common global i32 0
@x.411 = common global i32 0
@y.412 = common global i32 0
@x.413 = common global i32 0
@y.414 = common global i32 0
@x.415 = common global i32 0
@y.416 = common global i32 0
@x.417 = common global i32 0
@y.418 = common global i32 0
@x.419 = common global i32 0
@y.420 = common global i32 0
@x.421 = common global i32 0
@y.422 = common global i32 0
@x.423 = common global i32 0
@y.424 = common global i32 0
@x.425 = common global i32 0
@y.426 = common global i32 0
@x.427 = common global i32 0
@y.428 = common global i32 0
@x.429 = common global i32 0
@y.430 = common global i32 0
@x.431 = common global i32 0
@y.432 = common global i32 0
@x.433 = common global i32 0
@y.434 = common global i32 0
@x.435 = common global i32 0
@y.436 = common global i32 0
@x.437 = common global i32 0
@y.438 = common global i32 0
@x.439 = common global i32 0
@y.440 = common global i32 0
@x.441 = common global i32 0
@y.442 = common global i32 0
@x.443 = common global i32 0
@y.444 = common global i32 0
@x.445 = common global i32 0
@y.446 = common global i32 0
@x.447 = common global i32 0
@y.448 = common global i32 0
@x.449 = common global i32 0
@y.450 = common global i32 0
@x.451 = common global i32 0
@y.452 = common global i32 0
@x.453 = common global i32 0
@y.454 = common global i32 0
@x.455 = common global i32 0
@y.456 = common global i32 0
@x.457 = common global i32 0
@y.458 = common global i32 0
@x.459 = common global i32 0
@y.460 = common global i32 0
@x.461 = common global i32 0
@y.462 = common global i32 0
@x.463 = common global i32 0
@y.464 = common global i32 0
@x.465 = common global i32 0
@y.466 = common global i32 0
@x.467 = common global i32 0
@y.468 = common global i32 0
@x.469 = common global i32 0
@y.470 = common global i32 0
@x.471 = common global i32 0
@y.472 = common global i32 0
@x.473 = common global i32 0
@y.474 = common global i32 0
@x.475 = common global i32 0
@y.476 = common global i32 0
@x.477 = common global i32 0
@y.478 = common global i32 0
@x.479 = common global i32 0
@y.480 = common global i32 0
@x.481 = common global i32 0
@y.482 = common global i32 0
@x.483 = common global i32 0
@y.484 = common global i32 0
@x.485 = common global i32 0
@y.486 = common global i32 0
@x.487 = common global i32 0
@y.488 = common global i32 0
@x.489 = common global i32 0
@y.490 = common global i32 0
@x.491 = common global i32 0
@y.492 = common global i32 0
@x.493 = common global i32 0
@y.494 = common global i32 0
@x.495 = common global i32 0
@y.496 = common global i32 0
@x.497 = common global i32 0
@y.498 = common global i32 0
@x.499 = common global i32 0
@y.500 = common global i32 0
@x.501 = common global i32 0
@y.502 = common global i32 0
@x.503 = common global i32 0
@y.504 = common global i32 0
@x.505 = common global i32 0
@y.506 = common global i32 0
@x.507 = common global i32 0
@y.508 = common global i32 0
@x.509 = common global i32 0
@y.510 = common global i32 0
@x.511 = common global i32 0
@y.512 = common global i32 0
@x.513 = common global i32 0
@y.514 = common global i32 0
@x.515 = common global i32 0
@y.516 = common global i32 0
@x.517 = common global i32 0
@y.518 = common global i32 0
@x.519 = common global i32 0
@y.520 = common global i32 0
@x.521 = common global i32 0
@y.522 = common global i32 0
@x.523 = common global i32 0
@y.524 = common global i32 0
@x.525 = common global i32 0
@y.526 = common global i32 0
@x.527 = common global i32 0
@y.528 = common global i32 0
@x.529 = common global i32 0
@y.530 = common global i32 0
@x.531 = common global i32 0
@y.532 = common global i32 0
@x.533 = common global i32 0
@y.534 = common global i32 0
@x.535 = common global i32 0
@y.536 = common global i32 0
@x.537 = common global i32 0
@y.538 = common global i32 0
@x.539 = common global i32 0
@y.540 = common global i32 0
@x.541 = common global i32 0
@y.542 = common global i32 0
@x.543 = common global i32 0
@y.544 = common global i32 0
@x.545 = common global i32 0
@y.546 = common global i32 0
@x.547 = common global i32 0
@y.548 = common global i32 0
@x.549 = common global i32 0
@y.550 = common global i32 0
@x.551 = common global i32 0
@y.552 = common global i32 0
@x.553 = common global i32 0
@y.554 = common global i32 0
@x.555 = common global i32 0
@y.556 = common global i32 0
@x.557 = common global i32 0
@y.558 = common global i32 0
@x.559 = common global i32 0
@y.560 = common global i32 0
@x.561 = common global i32 0
@y.562 = common global i32 0
@x.563 = common global i32 0
@y.564 = common global i32 0
@x.565 = common global i32 0
@y.566 = common global i32 0
@x.567 = common global i32 0
@y.568 = common global i32 0
@x.569 = common global i32 0
@y.570 = common global i32 0
@x.571 = common global i32 0
@y.572 = common global i32 0
@x.573 = common global i32 0
@y.574 = common global i32 0
@x.575 = common global i32 0
@y.576 = common global i32 0
@x.577 = common global i32 0
@y.578 = common global i32 0
@x.579 = common global i32 0
@y.580 = common global i32 0
@x.581 = common global i32 0
@y.582 = common global i32 0
@x.583 = common global i32 0
@y.584 = common global i32 0
@x.585 = common global i32 0
@y.586 = common global i32 0
@x.587 = common global i32 0
@y.588 = common global i32 0
@x.589 = common global i32 0
@y.590 = common global i32 0
@x.591 = common global i32 0
@y.592 = common global i32 0
@x.593 = common global i32 0
@y.594 = common global i32 0
@x.595 = common global i32 0
@y.596 = common global i32 0
@x.597 = common global i32 0
@y.598 = common global i32 0
@x.599 = common global i32 0
@y.600 = common global i32 0
@x.601 = common global i32 0
@y.602 = common global i32 0
@x.603 = common global i32 0
@y.604 = common global i32 0
@x.605 = common global i32 0
@y.606 = common global i32 0
@x.607 = common global i32 0
@y.608 = common global i32 0
@x.609 = common global i32 0
@y.610 = common global i32 0
@x.611 = common global i32 0
@y.612 = common global i32 0
@x.613 = common global i32 0
@y.614 = common global i32 0
@x.615 = common global i32 0
@y.616 = common global i32 0
@x.617 = common global i32 0
@y.618 = common global i32 0
@x.619 = common global i32 0
@y.620 = common global i32 0
@x.621 = common global i32 0
@y.622 = common global i32 0
@x.623 = common global i32 0
@y.624 = common global i32 0
@x.625 = common global i32 0
@y.626 = common global i32 0
@x.627 = common global i32 0
@y.628 = common global i32 0
@x.629 = common global i32 0
@y.630 = common global i32 0
@x.631 = common global i32 0
@y.632 = common global i32 0
@x.633 = common global i32 0
@y.634 = common global i32 0
@x.635 = common global i32 0
@y.636 = common global i32 0
@x.637 = common global i32 0
@y.638 = common global i32 0
@x.639 = common global i32 0
@y.640 = common global i32 0
@x.641 = common global i32 0
@y.642 = common global i32 0
@x.643 = common global i32 0
@y.644 = common global i32 0
@x.645 = common global i32 0
@y.646 = common global i32 0
@x.647 = common global i32 0
@y.648 = common global i32 0
@x.649 = common global i32 0
@y.650 = common global i32 0
@x.651 = common global i32 0
@y.652 = common global i32 0
@x.653 = common global i32 0
@y.654 = common global i32 0
@x.655 = common global i32 0
@y.656 = common global i32 0
@x.657 = common global i32 0
@y.658 = common global i32 0
@x.659 = common global i32 0
@y.660 = common global i32 0
@x.661 = common global i32 0
@y.662 = common global i32 0
@x.663 = common global i32 0
@y.664 = common global i32 0
@x.665 = common global i32 0
@y.666 = common global i32 0
@x.667 = common global i32 0
@y.668 = common global i32 0
@x.669 = common global i32 0
@y.670 = common global i32 0
@x.671 = common global i32 0
@y.672 = common global i32 0
@x.673 = common global i32 0
@y.674 = common global i32 0
@x.675 = common global i32 0
@y.676 = common global i32 0
@x.677 = common global i32 0
@y.678 = common global i32 0
@x.679 = common global i32 0
@y.680 = common global i32 0
@x.681 = common global i32 0
@y.682 = common global i32 0
@x.683 = common global i32 0
@y.684 = common global i32 0
@x.685 = common global i32 0
@y.686 = common global i32 0
@x.687 = common global i32 0
@y.688 = common global i32 0
@x.689 = common global i32 0
@y.690 = common global i32 0
@x.691 = common global i32 0
@y.692 = common global i32 0
@x.693 = common global i32 0
@y.694 = common global i32 0
@x.695 = common global i32 0
@y.696 = common global i32 0
@x.697 = common global i32 0
@y.698 = common global i32 0
@x.699 = common global i32 0
@y.700 = common global i32 0
@x.701 = common global i32 0
@y.702 = common global i32 0
@x.703 = common global i32 0
@y.704 = common global i32 0
@x.705 = common global i32 0
@y.706 = common global i32 0
@x.707 = common global i32 0
@y.708 = common global i32 0
@x.709 = common global i32 0
@y.710 = common global i32 0
@x.711 = common global i32 0
@y.712 = common global i32 0
@x.713 = common global i32 0
@y.714 = common global i32 0
@x.715 = common global i32 0
@y.716 = common global i32 0
@x.717 = common global i32 0
@y.718 = common global i32 0
@x.719 = common global i32 0
@y.720 = common global i32 0
@x.721 = common global i32 0
@y.722 = common global i32 0
@x.723 = common global i32 0
@y.724 = common global i32 0
@x.725 = common global i32 0
@y.726 = common global i32 0
@x.727 = common global i32 0
@y.728 = common global i32 0
@x.729 = common global i32 0
@y.730 = common global i32 0
@x.731 = common global i32 0
@y.732 = common global i32 0
@x.733 = common global i32 0
@y.734 = common global i32 0
@x.735 = common global i32 0
@y.736 = common global i32 0
@x.737 = common global i32 0
@y.738 = common global i32 0
@x.739 = common global i32 0
@y.740 = common global i32 0
@x.741 = common global i32 0
@y.742 = common global i32 0
@x.743 = common global i32 0
@y.744 = common global i32 0
@x.745 = common global i32 0
@y.746 = common global i32 0
@x.747 = common global i32 0
@y.748 = common global i32 0
@x.749 = common global i32 0
@y.750 = common global i32 0
@x.751 = common global i32 0
@y.752 = common global i32 0
@x.753 = common global i32 0
@y.754 = common global i32 0
@x.755 = common global i32 0
@y.756 = common global i32 0
@x.757 = common global i32 0
@y.758 = common global i32 0
@x.759 = common global i32 0
@y.760 = common global i32 0
@x.761 = common global i32 0
@y.762 = common global i32 0
@x.763 = common global i32 0
@y.764 = common global i32 0
@x.765 = common global i32 0
@y.766 = common global i32 0
@x.767 = common global i32 0
@y.768 = common global i32 0
@x.769 = common global i32 0
@y.770 = common global i32 0
@x.771 = common global i32 0
@y.772 = common global i32 0
@x.773 = common global i32 0
@y.774 = common global i32 0
@x.775 = common global i32 0
@y.776 = common global i32 0
@x.777 = common global i32 0
@y.778 = common global i32 0
@x.779 = common global i32 0
@y.780 = common global i32 0
@x.781 = common global i32 0
@y.782 = common global i32 0
@x.783 = common global i32 0
@y.784 = common global i32 0
@x.785 = common global i32 0
@y.786 = common global i32 0
@x.787 = common global i32 0
@y.788 = common global i32 0
@x.789 = common global i32 0
@y.790 = common global i32 0
@x.791 = common global i32 0
@y.792 = common global i32 0
@x.793 = common global i32 0
@y.794 = common global i32 0
@x.795 = common global i32 0
@y.796 = common global i32 0
@x.797 = common global i32 0
@y.798 = common global i32 0
@x.799 = common global i32 0
@y.800 = common global i32 0
@x.801 = common global i32 0
@y.802 = common global i32 0
@x.803 = common global i32 0
@y.804 = common global i32 0
@x.805 = common global i32 0
@y.806 = common global i32 0
@x.807 = common global i32 0
@y.808 = common global i32 0
@x.809 = common global i32 0
@y.810 = common global i32 0
@x.811 = common global i32 0
@y.812 = common global i32 0
@x.813 = common global i32 0
@y.814 = common global i32 0
@x.815 = common global i32 0
@y.816 = common global i32 0
@x.817 = common global i32 0
@y.818 = common global i32 0
@x.819 = common global i32 0
@y.820 = common global i32 0
@x.821 = common global i32 0
@y.822 = common global i32 0
@x.823 = common global i32 0
@y.824 = common global i32 0
@x.825 = common global i32 0
@y.826 = common global i32 0
@x.827 = common global i32 0
@y.828 = common global i32 0
@x.829 = common global i32 0
@y.830 = common global i32 0
@x.831 = common global i32 0
@y.832 = common global i32 0
@x.833 = common global i32 0
@y.834 = common global i32 0
@x.835 = common global i32 0
@y.836 = common global i32 0
@x.837 = common global i32 0
@y.838 = common global i32 0
@x.839 = common global i32 0
@y.840 = common global i32 0
@x.841 = common global i32 0
@y.842 = common global i32 0
@x.843 = common global i32 0
@y.844 = common global i32 0
@x.845 = common global i32 0
@y.846 = common global i32 0
@x.847 = common global i32 0
@y.848 = common global i32 0
@x.849 = common global i32 0
@y.850 = common global i32 0
@x.851 = common global i32 0
@y.852 = common global i32 0
@x.853 = common global i32 0
@y.854 = common global i32 0
@x.855 = common global i32 0
@y.856 = common global i32 0
@x.857 = common global i32 0
@y.858 = common global i32 0
@x.859 = common global i32 0
@y.860 = common global i32 0
@x.861 = common global i32 0
@y.862 = common global i32 0
@x.863 = common global i32 0
@y.864 = common global i32 0
@x.865 = common global i32 0
@y.866 = common global i32 0
@x.867 = common global i32 0
@y.868 = common global i32 0
@x.869 = common global i32 0
@y.870 = common global i32 0
@x.871 = common global i32 0
@y.872 = common global i32 0
@x.873 = common global i32 0
@y.874 = common global i32 0
@x.875 = common global i32 0
@y.876 = common global i32 0
@x.877 = common global i32 0
@y.878 = common global i32 0
@x.879 = common global i32 0
@y.880 = common global i32 0
@x.881 = common global i32 0
@y.882 = common global i32 0
@x.883 = common global i32 0
@y.884 = common global i32 0
@x.885 = common global i32 0
@y.886 = common global i32 0
@x.887 = common global i32 0
@y.888 = common global i32 0
@x.889 = common global i32 0
@y.890 = common global i32 0
@x.891 = common global i32 0
@y.892 = common global i32 0
@x.893 = common global i32 0
@y.894 = common global i32 0
@x.895 = common global i32 0
@y.896 = common global i32 0
@x.897 = common global i32 0
@y.898 = common global i32 0
@x.899 = common global i32 0
@y.900 = common global i32 0
@x.901 = common global i32 0
@y.902 = common global i32 0
@x.903 = common global i32 0
@y.904 = common global i32 0
@x.905 = common global i32 0
@y.906 = common global i32 0
@x.907 = common global i32 0
@y.908 = common global i32 0
@x.909 = common global i32 0
@y.910 = common global i32 0
@x.911 = common global i32 0
@y.912 = common global i32 0
@x.913 = common global i32 0
@y.914 = common global i32 0
@x.915 = common global i32 0
@y.916 = common global i32 0
@x.917 = common global i32 0
@y.918 = common global i32 0
@x.919 = common global i32 0
@y.920 = common global i32 0
@x.921 = common global i32 0
@y.922 = common global i32 0
@x.923 = common global i32 0
@y.924 = common global i32 0
@x.925 = common global i32 0
@y.926 = common global i32 0
@x.927 = common global i32 0
@y.928 = common global i32 0
@x.929 = common global i32 0
@y.930 = common global i32 0
@x.931 = common global i32 0
@y.932 = common global i32 0
@x.933 = common global i32 0
@y.934 = common global i32 0
@x.935 = common global i32 0
@y.936 = common global i32 0
@x.937 = common global i32 0
@y.938 = common global i32 0
@x.939 = common global i32 0
@y.940 = common global i32 0
@x.941 = common global i32 0
@y.942 = common global i32 0
@x.943 = common global i32 0
@y.944 = common global i32 0
@x.945 = common global i32 0
@y.946 = common global i32 0
@x.947 = common global i32 0
@y.948 = common global i32 0
@x.949 = common global i32 0
@y.950 = common global i32 0
@x.951 = common global i32 0
@y.952 = common global i32 0
@x.953 = common global i32 0
@y.954 = common global i32 0
@x.955 = common global i32 0
@y.956 = common global i32 0
@x.957 = common global i32 0
@y.958 = common global i32 0
@x.959 = common global i32 0
@y.960 = common global i32 0
@x.961 = common global i32 0
@y.962 = common global i32 0
@x.963 = common global i32 0
@y.964 = common global i32 0
@x.965 = common global i32 0
@y.966 = common global i32 0
@x.967 = common global i32 0
@y.968 = common global i32 0
@x.969 = common global i32 0
@y.970 = common global i32 0
@x.971 = common global i32 0
@y.972 = common global i32 0
@x.973 = common global i32 0
@y.974 = common global i32 0
@x.975 = common global i32 0
@y.976 = common global i32 0
@x.977 = common global i32 0
@y.978 = common global i32 0
@x.979 = common global i32 0
@y.980 = common global i32 0
@x.981 = common global i32 0
@y.982 = common global i32 0
@x.983 = common global i32 0
@y.984 = common global i32 0
@x.985 = common global i32 0
@y.986 = common global i32 0
@x.987 = common global i32 0
@y.988 = common global i32 0
@x.989 = common global i32 0
@y.990 = common global i32 0
@x.991 = common global i32 0
@y.992 = common global i32 0
@x.993 = common global i32 0
@y.994 = common global i32 0
@x.995 = common global i32 0
@y.996 = common global i32 0
@x.997 = common global i32 0
@y.998 = common global i32 0
@x.999 = common global i32 0
@y.1000 = common global i32 0
@x.1001 = common global i32 0
@y.1002 = common global i32 0
@x.1003 = common global i32 0
@y.1004 = common global i32 0
@x.1005 = common global i32 0
@y.1006 = common global i32 0
@x.1007 = common global i32 0
@y.1008 = common global i32 0
@x.1009 = common global i32 0
@y.1010 = common global i32 0
@x.1011 = common global i32 0
@y.1012 = common global i32 0
@x.1013 = common global i32 0
@y.1014 = common global i32 0
@x.1015 = common global i32 0
@y.1016 = common global i32 0
@x.1017 = common global i32 0
@y.1018 = common global i32 0
@x.1019 = common global i32 0
@y.1020 = common global i32 0
@x.1021 = common global i32 0
@y.1022 = common global i32 0
@x.1023 = common global i32 0
@y.1024 = common global i32 0
@x.1025 = common global i32 0
@y.1026 = common global i32 0
@x.1027 = common global i32 0
@y.1028 = common global i32 0
@x.1029 = common global i32 0
@y.1030 = common global i32 0
@x.1031 = common global i32 0
@y.1032 = common global i32 0
@x.1033 = common global i32 0
@y.1034 = common global i32 0
@x.1035 = common global i32 0
@y.1036 = common global i32 0
@x.1037 = common global i32 0
@y.1038 = common global i32 0
@x.1039 = common global i32 0
@y.1040 = common global i32 0
@x.1041 = common global i32 0
@y.1042 = common global i32 0
@x.1043 = common global i32 0
@y.1044 = common global i32 0
@x.1045 = common global i32 0
@y.1046 = common global i32 0
@x.1047 = common global i32 0
@y.1048 = common global i32 0
@x.1049 = common global i32 0
@y.1050 = common global i32 0
@x.1051 = common global i32 0
@y.1052 = common global i32 0
@x.1053 = common global i32 0
@y.1054 = common global i32 0
@x.1055 = common global i32 0
@y.1056 = common global i32 0
@x.1057 = common global i32 0
@y.1058 = common global i32 0
@x.1059 = common global i32 0
@y.1060 = common global i32 0
@x.1061 = common global i32 0
@y.1062 = common global i32 0
@x.1063 = common global i32 0
@y.1064 = common global i32 0
@x.1065 = common global i32 0
@y.1066 = common global i32 0
@x.1067 = common global i32 0
@y.1068 = common global i32 0
@x.1069 = common global i32 0
@y.1070 = common global i32 0
@x.1071 = common global i32 0
@y.1072 = common global i32 0
@x.1073 = common global i32 0
@y.1074 = common global i32 0
@x.1075 = common global i32 0
@y.1076 = common global i32 0
@x.1077 = common global i32 0
@y.1078 = common global i32 0
@x.1079 = common global i32 0
@y.1080 = common global i32 0
@x.1081 = common global i32 0
@y.1082 = common global i32 0
@x.1083 = common global i32 0
@y.1084 = common global i32 0
@x.1085 = common global i32 0
@y.1086 = common global i32 0
@x.1087 = common global i32 0
@y.1088 = common global i32 0
@x.1089 = common global i32 0
@y.1090 = common global i32 0
@x.1091 = common global i32 0
@y.1092 = common global i32 0
@x.1093 = common global i32 0
@y.1094 = common global i32 0
@x.1095 = common global i32 0
@y.1096 = common global i32 0
@x.1097 = common global i32 0
@y.1098 = common global i32 0
@x.1099 = common global i32 0
@y.1100 = common global i32 0
@x.1101 = common global i32 0
@y.1102 = common global i32 0
@x.1103 = common global i32 0
@y.1104 = common global i32 0
@x.1105 = common global i32 0
@y.1106 = common global i32 0
@x.1107 = common global i32 0
@y.1108 = common global i32 0
@x.1109 = common global i32 0
@y.1110 = common global i32 0
@x.1111 = common global i32 0
@y.1112 = common global i32 0
@x.1113 = common global i32 0
@y.1114 = common global i32 0
@x.1115 = common global i32 0
@y.1116 = common global i32 0
@x.1117 = common global i32 0
@y.1118 = common global i32 0
@x.1119 = common global i32 0
@y.1120 = common global i32 0
@x.1121 = common global i32 0
@y.1122 = common global i32 0
@x.1123 = common global i32 0
@y.1124 = common global i32 0
@x.1125 = common global i32 0
@y.1126 = common global i32 0
@x.1127 = common global i32 0
@y.1128 = common global i32 0
@x.1129 = common global i32 0
@y.1130 = common global i32 0
@x.1131 = common global i32 0
@y.1132 = common global i32 0
@x.1133 = common global i32 0
@y.1134 = common global i32 0
@x.1135 = common global i32 0
@y.1136 = common global i32 0
@x.1137 = common global i32 0
@y.1138 = common global i32 0
@x.1139 = common global i32 0
@y.1140 = common global i32 0
@x.1141 = common global i32 0
@y.1142 = common global i32 0
@x.1143 = common global i32 0
@y.1144 = common global i32 0
@x.1145 = common global i32 0
@y.1146 = common global i32 0
@x.1147 = common global i32 0
@y.1148 = common global i32 0
@x.1149 = common global i32 0
@y.1150 = common global i32 0
@x.1151 = common global i32 0
@y.1152 = common global i32 0
@x.1153 = common global i32 0
@y.1154 = common global i32 0
@x.1155 = common global i32 0
@y.1156 = common global i32 0
@x.1157 = common global i32 0
@y.1158 = common global i32 0
@x.1159 = common global i32 0
@y.1160 = common global i32 0
@x.1161 = common global i32 0
@y.1162 = common global i32 0
@x.1163 = common global i32 0
@y.1164 = common global i32 0
@x.1165 = common global i32 0
@y.1166 = common global i32 0
@x.1167 = common global i32 0
@y.1168 = common global i32 0
@x.1169 = common global i32 0
@y.1170 = common global i32 0
@x.1171 = common global i32 0
@y.1172 = common global i32 0

@_ZN8MappingQILi3EEC1Ej = weak_odr alias void (%class.MappingQ*, i32), void (%class.MappingQ*, i32)* @_ZN8MappingQILi3EEC2Ej
@_ZN8MappingQILi3EED1Ev = weak_odr alias void (%class.MappingQ*), void (%class.MappingQ*)* @_ZN8MappingQILi3EED2Ev
@_ZN8MappingQILi3EE12InternalDataC1Ej = weak_odr alias void (%"class.MappingQ<3>::InternalData"*, i32), void (%"class.MappingQ<3>::InternalData"*, i32)* @_ZN8MappingQILi3EE12InternalDataC2Ej
@_ZN8MappingQILi3EE22ExcLaplaceVectorNotSetC1Ei = weak_odr alias void (%"class.MappingQ<3>::ExcLaplaceVectorNotSet"*, i32), void (%"class.MappingQ<3>::ExcLaplaceVectorNotSet"*, i32)* @_ZN8MappingQILi3EE22ExcLaplaceVectorNotSetC2Ei
@_ZN8MappingQILi3EE22ExcLaplaceVectorNotSetD1Ev = weak_odr alias void (%"class.MappingQ<3>::ExcLaplaceVectorNotSet"*), void (%"class.MappingQ<3>::ExcLaplaceVectorNotSet"*)* @_ZN8MappingQILi3EE22ExcLaplaceVectorNotSetD2Ev

; Function Attrs: noinline uwtable
define void @_ZNK8MappingQILi3EE25set_laplace_on_hex_vectorER5TableILi2EdE(%class.MappingQ*, %class.Table* dereferenceable(48)) #0 align 2 {
  %3 = load i32, i32* @x
  %4 = load i32, i32* @y
  %5 = sub i32 %3, 1
  %6 = mul i32 %3, %5
  %7 = urem i32 %6, 2
  %8 = icmp eq i32 %7, 0
  %9 = icmp slt i32 %4, 10
  %10 = or i1 %8, %9
  br i1 %10, label %originalBB, label %originalBBalteredBB

originalBB:                                       ; preds = %2, %originalBBalteredBB
  %11 = alloca %class.MappingQ*, align 8
  %12 = alloca %class.Table*, align 8
  %13 = alloca double*, align 8
  %14 = alloca i32, align 4
  %15 = alloca i32, align 4
  %16 = alloca %"class.internal::TableBaseAccessors::Accessor", align 8
  %17 = alloca i32, align 4
  store %class.MappingQ* %0, %class.MappingQ** %11, align 8
  store %class.Table* %1, %class.Table** %12, align 8
  %18 = load %class.MappingQ*, %class.MappingQ** %11, align 8
  store double* null, double** %13, align 8
  %19 = getelementptr inbounds %class.MappingQ, %class.MappingQ* %18, i32 0, i32 3
  %20 = load i32, i32* %19, align 8
  %21 = icmp eq i32 %20, 2
  %22 = load i32, i32* @x
  %23 = load i32, i32* @y
  %24 = sub i32 %22, 1
  %25 = mul i32 %22, %24
  %26 = urem i32 %25, 2
  %27 = icmp eq i32 %26, 0
  %28 = icmp slt i32 %23, 10
  %29 = or i1 %27, %28
  br i1 %29, label %originalBBpart2, label %originalBBalteredBB

originalBBpart2:                                  ; preds = %originalBB
  br i1 %21, label %30, label %47

; <label>:30:                                     ; preds = %originalBBpart2
  %31 = load i32, i32* @x
  %32 = load i32, i32* @y
  %33 = sub i32 %31, 1
  %34 = mul i32 %31, %33
  %35 = urem i32 %34, 2
  %36 = icmp eq i32 %35, 0
  %37 = icmp slt i32 %32, 10
  %38 = or i1 %36, %37
  br i1 %38, label %originalBB1, label %originalBB1alteredBB

originalBB1:                                      ; preds = %30, %originalBB1alteredBB
  store double* getelementptr inbounds ([26 x double], [26 x double]* @_ZZNK8MappingQILi3EE25set_laplace_on_hex_vectorER5TableILi2EdEE5loqv2, i64 0, i64 0), double** %13, align 8
  %39 = load i32, i32* @x
  %40 = load i32, i32* @y
  %41 = sub i32 %39, 1
  %42 = mul i32 %39, %41
  %43 = urem i32 %42, 2
  %44 = icmp eq i32 %43, 0
  %45 = icmp slt i32 %40, 10
  %46 = or i1 %44, %45
  br i1 %46, label %originalBBpart24, label %originalBB1alteredBB

originalBBpart24:                                 ; preds = %originalBB1
  br label %47

; <label>:47:                                     ; preds = %originalBBpart24, %originalBBpart2
  %48 = load double*, double** %13, align 8
  %49 = icmp ne double* %48, null
  br i1 %49, label %50, label %138

; <label>:50:                                     ; preds = %47
  %51 = load %class.Table*, %class.Table** %12, align 8
  %52 = getelementptr inbounds %class.MappingQ, %class.MappingQ* %18, i32 0, i32 4
  %53 = load i32, i32* %52, align 4
  %54 = getelementptr inbounds %class.MappingQ, %class.MappingQ* %18, i32 0, i32 5
  %55 = load i32, i32* %54, align 8
  call void @_ZN5TableILi2EdE6reinitEjj(%class.Table* %51, i32 %53, i32 %55)
  store i32 0, i32* %14, align 4
  br label %56

; <label>:56:                                     ; preds = %118, %50
  %57 = load i32, i32* %14, align 4
  %58 = getelementptr inbounds %class.MappingQ, %class.MappingQ* %18, i32 0, i32 4
  %59 = load i32, i32* %58, align 4
  %60 = icmp ult i32 %57, %59
  br i1 %60, label %61, label %121

; <label>:61:                                     ; preds = %56
  %62 = load i32, i32* @x
  %63 = load i32, i32* @y
  %64 = sub i32 %62, 1
  %65 = mul i32 %62, %64
  %66 = urem i32 %65, 2
  %67 = icmp eq i32 %66, 0
  %68 = icmp slt i32 %63, 10
  %69 = or i1 %67, %68
  br i1 %69, label %originalBB6, label %originalBB6alteredBB

originalBB6:                                      ; preds = %61, %originalBB6alteredBB
  store i32 0, i32* %15, align 4
  %70 = load i32, i32* @x
  %71 = load i32, i32* @y
  %72 = sub i32 %70, 1
  %73 = mul i32 %70, %72
  %74 = urem i32 %73, 2
  %75 = icmp eq i32 %74, 0
  %76 = icmp slt i32 %71, 10
  %77 = or i1 %75, %76
  br i1 %77, label %originalBBpart28, label %originalBB6alteredBB

originalBBpart28:                                 ; preds = %originalBB6
  br label %78

; <label>:78:                                     ; preds = %originalBBpart218, %originalBBpart28
  %79 = load i32, i32* %15, align 4
  %80 = getelementptr inbounds %class.MappingQ, %class.MappingQ* %18, i32 0, i32 5
  %81 = load i32, i32* %80, align 8
  %82 = icmp ult i32 %79, %81
  br i1 %82, label %83, label %117

; <label>:83:                                     ; preds = %78
  %84 = load double*, double** %13, align 8
  %85 = load i32, i32* %14, align 4
  %86 = getelementptr inbounds %class.MappingQ, %class.MappingQ* %18, i32 0, i32 5
  %87 = load i32, i32* %86, align 8
  %88 = mul i32 %85, %87
  %89 = load i32, i32* %15, align 4
  %90 = add i32 %88, %89
  %91 = zext i32 %90 to i64
  %92 = getelementptr inbounds double, double* %84, i64 %91
  %93 = load double, double* %92, align 8
  %94 = load %class.Table*, %class.Table** %12, align 8
  %95 = load i32, i32* %14, align 4
  call void @_ZN5TableILi2EdEixEj(%"class.internal::TableBaseAccessors::Accessor"* sret %16, %class.Table* %94, i32 %95)
  %96 = load i32, i32* %15, align 4
  %97 = call dereferenceable(8) double* @_ZNK8internal18TableBaseAccessors8AccessorILi2EdLb0ELj1EEixEj(%"class.internal::TableBaseAccessors::Accessor"* %16, i32 %96)
  store double %93, double* %97, align 8
  br label %98

; <label>:98:                                     ; preds = %83
  %99 = load i32, i32* @x
  %100 = load i32, i32* @y
  %101 = sub i32 %99, 1
  %102 = mul i32 %99, %101
  %103 = urem i32 %102, 2
  %104 = icmp eq i32 %103, 0
  %105 = icmp slt i32 %100, 10
  %106 = or i1 %104, %105
  br i1 %106, label %originalBB10, label %originalBB10alteredBB

originalBB10:                                     ; preds = %98, %originalBB10alteredBB
  %107 = load i32, i32* %15, align 4
  %108 = add i32 %107, 1
  store i32 %108, i32* %15, align 4
  %109 = load i32, i32* @x
  %110 = load i32, i32* @y
  %111 = sub i32 %109, 1
  %112 = mul i32 %109, %111
  %113 = urem i32 %112, 2
  %114 = icmp eq i32 %113, 0
  %115 = icmp slt i32 %110, 10
  %116 = or i1 %114, %115
  br i1 %116, label %originalBBpart218, label %originalBB10alteredBB

originalBBpart218:                                ; preds = %originalBB10
  br label %78

; <label>:117:                                    ; preds = %78
  br label %118

; <label>:118:                                    ; preds = %117
  %119 = load i32, i32* %14, align 4
  %120 = add i32 %119, 1
  store i32 %120, i32* %14, align 4
  br label %56

; <label>:121:                                    ; preds = %56
  %122 = load i32, i32* @x
  %123 = load i32, i32* @y
  %124 = sub i32 %122, 1
  %125 = mul i32 %122, %124
  %126 = urem i32 %125, 2
  %127 = icmp eq i32 %126, 0
  %128 = icmp slt i32 %123, 10
  %129 = or i1 %127, %128
  br i1 %129, label %originalBB20, label %originalBB20alteredBB

originalBB20:                                     ; preds = %121, %originalBB20alteredBB
  %130 = load i32, i32* @x
  %131 = load i32, i32* @y
  %132 = sub i32 %130, 1
  %133 = mul i32 %130, %132
  %134 = urem i32 %133, 2
  %135 = icmp eq i32 %134, 0
  %136 = icmp slt i32 %131, 10
  %137 = or i1 %135, %136
  br i1 %137, label %originalBBpart222, label %originalBB20alteredBB

originalBBpart222:                                ; preds = %originalBB20
  br label %140

; <label>:138:                                    ; preds = %47
  %139 = load %class.Table*, %class.Table** %12, align 8
  call void @_ZNK8MappingQILi3EE22compute_laplace_vectorER5TableILi2EdE(%class.MappingQ* %18, %class.Table* dereferenceable(48) %139)
  br label %140

; <label>:140:                                    ; preds = %138, %originalBBpart222
  store i32 0, i32* %17, align 4
  br label %141

; <label>:141:                                    ; preds = %originalBBpart243, %140
  %142 = load i32, i32* @x
  %143 = load i32, i32* @y
  %144 = sub i32 %142, 1
  %145 = mul i32 %142, %144
  %146 = urem i32 %145, 2
  %147 = icmp eq i32 %146, 0
  %148 = icmp slt i32 %143, 10
  %149 = or i1 %147, %148
  br i1 %149, label %originalBB24, label %originalBB24alteredBB

originalBB24:                                     ; preds = %141, %originalBB24alteredBB
  %150 = load i32, i32* %17, align 4
  %151 = getelementptr inbounds %class.MappingQ, %class.MappingQ* %18, i32 0, i32 4
  %152 = load i32, i32* %151, align 4
  %153 = icmp ult i32 %150, %152
  %154 = load i32, i32* @x
  %155 = load i32, i32* @y
  %156 = sub i32 %154, 1
  %157 = mul i32 %154, %156
  %158 = urem i32 %157, 2
  %159 = icmp eq i32 %158, 0
  %160 = icmp slt i32 %155, 10
  %161 = or i1 %159, %160
  br i1 %161, label %originalBBpart227, label %originalBB24alteredBB

originalBBpart227:                                ; preds = %originalBB24
  br i1 %153, label %162, label %182

; <label>:162:                                    ; preds = %originalBBpart227
  br label %163

; <label>:163:                                    ; preds = %162
  %164 = load i32, i32* @x
  %165 = load i32, i32* @y
  %166 = sub i32 %164, 1
  %167 = mul i32 %164, %166
  %168 = urem i32 %167, 2
  %169 = icmp eq i32 %168, 0
  %170 = icmp slt i32 %165, 10
  %171 = or i1 %169, %170
  br i1 %171, label %originalBB29, label %originalBB29alteredBB

originalBB29:                                     ; preds = %163, %originalBB29alteredBB
  %172 = load i32, i32* %17, align 4
  %173 = add i32 %172, 1
  store i32 %173, i32* %17, align 4
  %174 = load i32, i32* @x
  %175 = load i32, i32* @y
  %176 = sub i32 %174, 1
  %177 = mul i32 %174, %176
  %178 = urem i32 %177, 2
  %179 = icmp eq i32 %178, 0
  %180 = icmp slt i32 %175, 10
  %181 = or i1 %179, %180
  br i1 %181, label %originalBBpart243, label %originalBB29alteredBB

originalBBpart243:                                ; preds = %originalBB29
  br label %141

; <label>:182:                                    ; preds = %originalBBpart227
  ret void

originalBBalteredBB:                              ; preds = %originalBB, %2
  %183 = alloca %class.MappingQ*, align 8
  %184 = alloca %class.Table*, align 8
  %185 = alloca double*, align 8
  %186 = alloca i32, align 4
  %187 = alloca i32, align 4
  %188 = alloca %"class.internal::TableBaseAccessors::Accessor", align 8
  %189 = alloca i32, align 4
  store %class.MappingQ* %0, %class.MappingQ** %183, align 8
  store %class.Table* %1, %class.Table** %184, align 8
  %190 = load %class.MappingQ*, %class.MappingQ** %183, align 8
  store double* null, double** %185, align 8
  %191 = getelementptr inbounds %class.MappingQ, %class.MappingQ* %190, i32 0, i32 3
  %192 = load i32, i32* %191, align 8
  %193 = icmp eq i32 %192, 2
  br label %originalBB

originalBB1alteredBB:                             ; preds = %originalBB1, %30
  store double* getelementptr inbounds ([26 x double], [26 x double]* @_ZZNK8MappingQILi3EE25set_laplace_on_hex_vectorER5TableILi2EdEE5loqv2, i64 0, i64 0), double** %13, align 8
  br label %originalBB1

originalBB6alteredBB:                             ; preds = %originalBB6, %61
  store i32 0, i32* %15, align 4
  br label %originalBB6

originalBB10alteredBB:                            ; preds = %originalBB10, %98
  %194 = load i32, i32* %15, align 4
  %_ = sub i32 0, %194
  %gen = add i32 %_, 1
  %_11 = sub i32 0, %194
  %gen12 = add i32 %_11, 1
  %_13 = shl i32 %194, 1
  %_14 = sub i32 0, %194
  %gen15 = add i32 %_14, 1
  %_16 = shl i32 %194, 1
  %195 = add i32 %194, 1
  store i32 %195, i32* %15, align 4
  br label %originalBB10

originalBB20alteredBB:                            ; preds = %originalBB20, %121
  br label %originalBB20

originalBB24alteredBB:                            ; preds = %originalBB24, %141
  %196 = load i32, i32* %17, align 4
  %197 = getelementptr inbounds %class.MappingQ, %class.MappingQ* %18, i32 0, i32 4
  %198 = load i32, i32* %197, align 4
  %199 = icmp ult i32 %196, %198
  br label %originalBB24

originalBB29alteredBB:                            ; preds = %originalBB29, %163
  %200 = load i32, i32* %17, align 4
  %_30 = shl i32 %200, 1
  %_31 = shl i32 %200, 1
  %_32 = sub i32 0, %200
  %gen33 = add i32 %_32, 1
  %_34 = sub i32 %200, 1
  %gen35 = mul i32 %_34, 1
  %_36 = sub i32 0, %200
  %gen37 = add i32 %_36, 1
  %_38 = sub i32 0, %200
  %gen39 = add i32 %_38, 1
  %_40 = sub i32 0, %200
  %gen41 = add i32 %_40, 1
  %201 = add i32 %200, 1
  store i32 %201, i32* %17, align 4
  br label %originalBB29
}

; Function Attrs: noinline uwtable
define linkonce_odr void @_ZN5TableILi2EdE6reinitEjj(%class.Table*, i32, i32) #0 comdat align 2 {
  %4 = alloca %class.Table*, align 8
  %5 = alloca i32, align 4
  %6 = alloca i32, align 4
  %7 = alloca %class.TableIndices, align 4
  store %class.Table* %0, %class.Table** %4, align 8
  store i32 %1, i32* %5, align 4
  store i32 %2, i32* %6, align 4
  %8 = load %class.Table*, %class.Table** %4, align 8
  %9 = bitcast %class.Table* %8 to %class.TableBase*
  %10 = load i32, i32* %5, align 4
  %11 = load i32, i32* %6, align 4
  call void @_ZN12TableIndicesILi2EEC2Ejj(%class.TableIndices* %7, i32 %10, i32 %11)
  call void @_ZN9TableBaseILi2EdE6reinitERK12TableIndicesILi2EE(%class.TableBase* %9, %class.TableIndices* dereferenceable(8) %7)
  ret void
}

; Function Attrs: noinline uwtable
define linkonce_odr void @_ZN5TableILi2EdEixEj(%"class.internal::TableBaseAccessors::Accessor"* noalias sret, %class.Table*, i32) #0 comdat align 2 {
  %4 = alloca %class.Table*, align 8
  %5 = alloca i32, align 4
  store %class.Table* %1, %class.Table** %4, align 8
  store i32 %2, i32* %5, align 4
  %6 = load %class.Table*, %class.Table** %4, align 8
  %7 = bitcast %class.Table* %6 to %class.TableBase*
  %8 = bitcast %class.Table* %6 to %class.TableBase*
  %9 = getelementptr inbounds %class.TableBase, %class.TableBase* %8, i32 0, i32 1
  %10 = load double*, double** %9, align 8
  %11 = load i32, i32* %5, align 4
  %12 = call i32 @_ZNK5TableILi2EdE6n_colsEv(%class.Table* %6)
  %13 = mul i32 %11, %12
  %14 = zext i32 %13 to i64
  %15 = getelementptr inbounds double, double* %10, i64 %14
  call void @_ZN8internal18TableBaseAccessors8AccessorILi2EdLb0ELj1EEC2ERK9TableBaseILi2EdEPd(%"class.internal::TableBaseAccessors::Accessor"* %0, %class.TableBase* dereferenceable(48) %7, double* %15)
  ret void
}

; Function Attrs: noinline nounwind uwtable
define linkonce_odr dereferenceable(8) double* @_ZNK8internal18TableBaseAccessors8AccessorILi2EdLb0ELj1EEixEj(%"class.internal::TableBaseAccessors::Accessor"*, i32) #1 comdat align 2 {
  %3 = load i32, i32* @x.5
  %4 = load i32, i32* @y.6
  %5 = sub i32 %3, 1
  %6 = mul i32 %3, %5
  %7 = urem i32 %6, 2
  %8 = icmp eq i32 %7, 0
  %9 = icmp slt i32 %4, 10
  %10 = or i1 %8, %9
  br i1 %10, label %originalBB, label %originalBBalteredBB

originalBB:                                       ; preds = %2, %originalBBalteredBB
  %11 = alloca %"class.internal::TableBaseAccessors::Accessor"*, align 8
  %12 = alloca i32, align 4
  store %"class.internal::TableBaseAccessors::Accessor"* %0, %"class.internal::TableBaseAccessors::Accessor"** %11, align 8
  store i32 %1, i32* %12, align 4
  %13 = load %"class.internal::TableBaseAccessors::Accessor"*, %"class.internal::TableBaseAccessors::Accessor"** %11, align 8
  %14 = getelementptr inbounds %"class.internal::TableBaseAccessors::Accessor", %"class.internal::TableBaseAccessors::Accessor"* %13, i32 0, i32 1
  %15 = load double*, double** %14, align 8
  %16 = load i32, i32* %12, align 4
  %17 = zext i32 %16 to i64
  %18 = getelementptr inbounds double, double* %15, i64 %17
  %19 = load i32, i32* @x.5
  %20 = load i32, i32* @y.6
  %21 = sub i32 %19, 1
  %22 = mul i32 %19, %21
  %23 = urem i32 %22, 2
  %24 = icmp eq i32 %23, 0
  %25 = icmp slt i32 %20, 10
  %26 = or i1 %24, %25
  br i1 %26, label %originalBBpart2, label %originalBBalteredBB

originalBBpart2:                                  ; preds = %originalBB
  ret double* %18

originalBBalteredBB:                              ; preds = %originalBB, %2
  %27 = alloca %"class.internal::TableBaseAccessors::Accessor"*, align 8
  %28 = alloca i32, align 4
  store %"class.internal::TableBaseAccessors::Accessor"* %0, %"class.internal::TableBaseAccessors::Accessor"** %27, align 8
  store i32 %1, i32* %28, align 4
  %29 = load %"class.internal::TableBaseAccessors::Accessor"*, %"class.internal::TableBaseAccessors::Accessor"** %27, align 8
  %30 = getelementptr inbounds %"class.internal::TableBaseAccessors::Accessor", %"class.internal::TableBaseAccessors::Accessor"* %29, i32 0, i32 1
  %31 = load double*, double** %30, align 8
  %32 = load i32, i32* %28, align 4
  %33 = zext i32 %32 to i64
  %34 = getelementptr inbounds double, double* %31, i64 %33
  br label %originalBB
}

; Function Attrs: noinline uwtable
define weak_odr void @_ZNK8MappingQILi3EE22compute_laplace_vectorER5TableILi2EdE(%class.MappingQ*, %class.Table* dereferenceable(48)) #0 comdat align 2 personality i8* bitcast (i32 (...)* @__gxx_personality_v0 to i8*) {
  %3 = load i32, i32* @x.7
  %4 = load i32, i32* @y.8
  %5 = sub i32 %3, 1
  %6 = mul i32 %3, %5
  %7 = urem i32 %6, 2
  %8 = icmp eq i32 %7, 0
  %9 = icmp slt i32 %4, 10
  %10 = or i1 %8, %9
  br i1 %10, label %originalBB, label %originalBBalteredBB

originalBB:                                       ; preds = %2, %originalBBalteredBB
  %11 = alloca %class.MappingQ*, align 8
  %12 = alloca %class.Table*, align 8
  %13 = alloca %class.QGauss, align 8
  %14 = alloca i32, align 4
  %15 = alloca %"class.MappingQ<3>::InternalData", align 8
  %16 = alloca i8*
  %17 = alloca i32
  %18 = alloca %class.Tensor, align 8
  %19 = alloca %class.FullMatrix, align 8
  %20 = alloca i32, align 4
  %21 = alloca i32, align 4
  %22 = alloca i32, align 4
  %23 = alloca %class.FullMatrix, align 8
  %24 = alloca i32, align 4
  %25 = alloca i32, align 4
  %26 = alloca i32, align 4
  %27 = alloca %class.FullMatrix, align 8
  %28 = alloca %class.FullMatrix, align 8
  %29 = alloca i32, align 4
  %30 = alloca i32, align 4
  store %class.MappingQ* %0, %class.MappingQ** %11, align 8
  store %class.Table* %1, %class.Table** %12, align 8
  %31 = load %class.MappingQ*, %class.MappingQ** %11, align 8
  %32 = getelementptr inbounds %class.MappingQ, %class.MappingQ* %31, i32 0, i32 3
  %33 = load i32, i32* %32, align 8
  %34 = add i32 %33, 1
  call void @_ZN6QGaussILi3EEC1Ej(%class.QGauss* %13, i32 %34)
  %35 = bitcast %class.QGauss* %13 to %class.Quadrature*
  %36 = getelementptr inbounds %class.Quadrature, %class.Quadrature* %35, i32 0, i32 1
  %37 = load i32, i32* %36, align 8
  store i32 %37, i32* %14, align 4
  %38 = getelementptr inbounds %class.MappingQ, %class.MappingQ* %31, i32 0, i32 7
  %39 = load i32, i32* %38, align 8
  %40 = load i32, i32* @x.7
  %41 = load i32, i32* @y.8
  %42 = sub i32 %40, 1
  %43 = mul i32 %40, %42
  %44 = urem i32 %43, 2
  %45 = icmp eq i32 %44, 0
  %46 = icmp slt i32 %41, 10
  %47 = or i1 %45, %46
  br i1 %47, label %originalBBpart2, label %originalBBalteredBB

originalBBpart2:                                  ; preds = %originalBB
  invoke void @_ZN8MappingQILi3EE12InternalDataC1Ej(%"class.MappingQ<3>::InternalData"* %15, i32 %39)
          to label %48 unwind label %149

; <label>:48:                                     ; preds = %originalBBpart2
  %49 = bitcast %"class.MappingQ<3>::InternalData"* %15 to %"class.MappingQ1<3>::InternalData"*
  %50 = getelementptr inbounds %"class.MappingQ1<3>::InternalData", %"class.MappingQ1<3>::InternalData"* %49, i32 0, i32 2
  %51 = getelementptr inbounds %class.MappingQ, %class.MappingQ* %31, i32 0, i32 7
  %52 = load i32, i32* %51, align 8
  %53 = load i32, i32* %14, align 4
  %54 = mul i32 %52, %53
  %55 = zext i32 %54 to i64
  invoke void @_ZN6TensorILi1ELi3EEC2Eb(%class.Tensor* %18, i1 zeroext true)
          to label %56 unwind label %153

; <label>:56:                                     ; preds = %48
  invoke void @_ZNSt6vectorI6TensorILi1ELi3EESaIS1_EE6resizeEmS1_(%"class.std::vector.103"* %50, i64 %55, %class.Tensor* %18)
          to label %57 unwind label %153

; <label>:57:                                     ; preds = %56
  %58 = bitcast %class.MappingQ* %31 to %class.MappingQ1*
  %59 = bitcast %class.QGauss* %13 to %class.Quadrature*
  %60 = invoke dereferenceable(24) %"class.std::vector.58"* @_ZNK10QuadratureILi3EE10get_pointsEv(%class.Quadrature* %59)
          to label %61 unwind label %153

; <label>:61:                                     ; preds = %57
  %62 = bitcast %"class.MappingQ<3>::InternalData"* %15 to %"class.MappingQ1<3>::InternalData"*
  invoke void @_ZNK9MappingQ1ILi3EE14compute_shapesERKSt6vectorI5PointILi3EESaIS3_EERNS0_12InternalDataE(%class.MappingQ1* %58, %"class.std::vector.58"* dereferenceable(24) %60, %"class.MappingQ1<3>::InternalData"* dereferenceable(288) %62)
          to label %63 unwind label %153

; <label>:63:                                     ; preds = %61
  %64 = getelementptr inbounds %class.MappingQ, %class.MappingQ* %31, i32 0, i32 4
  %65 = load i32, i32* %64, align 4
  invoke void @_ZN10FullMatrixIdEC1Ej(%class.FullMatrix* %19, i32 %65)
          to label %66 unwind label %153

; <label>:66:                                     ; preds = %63
  store i32 0, i32* %20, align 4
  br label %67

; <label>:67:                                     ; preds = %182, %66
  %68 = load i32, i32* %20, align 4
  %69 = load i32, i32* %14, align 4
  %70 = icmp ult i32 %68, %69
  br i1 %70, label %71, label %185

; <label>:71:                                     ; preds = %67
  store i32 0, i32* %21, align 4
  br label %72

; <label>:72:                                     ; preds = %originalBBpart228, %71
  %73 = load i32, i32* %21, align 4
  %74 = getelementptr inbounds %class.MappingQ, %class.MappingQ* %31, i32 0, i32 4
  %75 = load i32, i32* %74, align 4
  %76 = icmp ult i32 %73, %75
  br i1 %76, label %77, label %181

; <label>:77:                                     ; preds = %72
  %78 = load i32, i32* @x.7
  %79 = load i32, i32* @y.8
  %80 = sub i32 %78, 1
  %81 = mul i32 %78, %80
  %82 = urem i32 %81, 2
  %83 = icmp eq i32 %82, 0
  %84 = icmp slt i32 %79, 10
  %85 = or i1 %83, %84
  br i1 %85, label %originalBB5, label %originalBB5alteredBB

originalBB5:                                      ; preds = %77, %originalBB5alteredBB
  store i32 0, i32* %22, align 4
  %86 = load i32, i32* @x.7
  %87 = load i32, i32* @y.8
  %88 = sub i32 %86, 1
  %89 = mul i32 %86, %88
  %90 = urem i32 %89, 2
  %91 = icmp eq i32 %90, 0
  %92 = icmp slt i32 %87, 10
  %93 = or i1 %91, %92
  br i1 %93, label %originalBBpart27, label %originalBB5alteredBB

originalBBpart27:                                 ; preds = %originalBB5
  br label %94

; <label>:94:                                     ; preds = %146, %originalBBpart27
  %95 = load i32, i32* %22, align 4
  %96 = getelementptr inbounds %class.MappingQ, %class.MappingQ* %31, i32 0, i32 4
  %97 = load i32, i32* %96, align 4
  %98 = icmp ult i32 %95, %97
  br i1 %98, label %99, label %161

; <label>:99:                                     ; preds = %94
  %100 = bitcast %"class.MappingQ<3>::InternalData"* %15 to %"class.MappingQ1<3>::InternalData"*
  %101 = load i32, i32* %20, align 4
  %102 = getelementptr inbounds %class.MappingQ, %class.MappingQ* %31, i32 0, i32 5
  %103 = load i32, i32* %102, align 8
  %104 = load i32, i32* %21, align 4
  %105 = add i32 %103, %104
  %106 = invoke dereferenceable(24) %class.Tensor* @_ZN9MappingQ1ILi3EE12InternalData10derivativeEjj(%"class.MappingQ1<3>::InternalData"* %100, i32 %101, i32 %105)
          to label %107 unwind label %157

; <label>:107:                                    ; preds = %99
  %108 = bitcast %"class.MappingQ<3>::InternalData"* %15 to %"class.MappingQ1<3>::InternalData"*
  %109 = load i32, i32* %20, align 4
  %110 = getelementptr inbounds %class.MappingQ, %class.MappingQ* %31, i32 0, i32 5
  %111 = load i32, i32* %110, align 8
  %112 = load i32, i32* %22, align 4
  %113 = add i32 %111, %112
  %114 = invoke dereferenceable(24) %class.Tensor* @_ZN9MappingQ1ILi3EE12InternalData10derivativeEjj(%"class.MappingQ1<3>::InternalData"* %108, i32 %109, i32 %113)
          to label %115 unwind label %157

; <label>:115:                                    ; preds = %107
  %116 = invoke double @_Z8contractILi3EEdRK6TensorILi1EXT_EES3_(%class.Tensor* dereferenceable(24) %106, %class.Tensor* dereferenceable(24) %114)
          to label %117 unwind label %157

; <label>:117:                                    ; preds = %115
  %118 = bitcast %class.QGauss* %13 to %class.Quadrature*
  %119 = load i32, i32* %20, align 4
  %120 = invoke double @_ZNK10QuadratureILi3EE6weightEj(%class.Quadrature* %118, i32 %119)
          to label %121 unwind label %157

; <label>:121:                                    ; preds = %117
  %122 = fmul double %116, %120
  %123 = bitcast %class.FullMatrix* %19 to %class.Table*
  %124 = load i32, i32* %21, align 4
  %125 = load i32, i32* %22, align 4
  %126 = invoke dereferenceable(8) double* @_ZN5TableILi2EdEclEjj(%class.Table* %123, i32 %124, i32 %125)
          to label %127 unwind label %157

; <label>:127:                                    ; preds = %121
  %128 = load i32, i32* @x.7
  %129 = load i32, i32* @y.8
  %130 = sub i32 %128, 1
  %131 = mul i32 %128, %130
  %132 = urem i32 %131, 2
  %133 = icmp eq i32 %132, 0
  %134 = icmp slt i32 %129, 10
  %135 = or i1 %133, %134
  br i1 %135, label %originalBB9, label %originalBB9alteredBB

originalBB9:                                      ; preds = %127, %originalBB9alteredBB
  %136 = load double, double* %126, align 8
  %137 = fadd double %136, %122
  store double %137, double* %126, align 8
  %138 = load i32, i32* @x.7
  %139 = load i32, i32* @y.8
  %140 = sub i32 %138, 1
  %141 = mul i32 %138, %140
  %142 = urem i32 %141, 2
  %143 = icmp eq i32 %142, 0
  %144 = icmp slt i32 %139, 10
  %145 = or i1 %143, %144
  br i1 %145, label %originalBBpart217, label %originalBB9alteredBB

originalBBpart217:                                ; preds = %originalBB9
  br label %146

; <label>:146:                                    ; preds = %originalBBpart217
  %147 = load i32, i32* %22, align 4
  %148 = add i32 %147, 1
  store i32 %148, i32* %22, align 4
  br label %94

; <label>:149:                                    ; preds = %534, %originalBBpart2
  %150 = landingpad { i8*, i32 }
          cleanup
  %151 = extractvalue { i8*, i32 } %150, 0
  store i8* %151, i8** %16, align 8
  %152 = extractvalue { i8*, i32 } %150, 1
  store i32 %152, i32* %17, align 4
  br label %545

; <label>:153:                                    ; preds = %533, %63, %61, %57, %56, %48
  %154 = landingpad { i8*, i32 }
          cleanup
  %155 = extractvalue { i8*, i32 } %154, 0
  store i8* %155, i8** %16, align 8
  %156 = extractvalue { i8*, i32 } %154, 1
  store i32 %156, i32* %17, align 4
  br label %543

; <label>:157:                                    ; preds = %532, %185, %121, %117, %115, %107, %99
  %158 = landingpad { i8*, i32 }
          cleanup
  %159 = extractvalue { i8*, i32 } %158, 0
  store i8* %159, i8** %16, align 8
  %160 = extractvalue { i8*, i32 } %158, 1
  store i32 %160, i32* %17, align 4
  br label %541

; <label>:161:                                    ; preds = %94
  br label %162

; <label>:162:                                    ; preds = %161
  %163 = load i32, i32* @x.7
  %164 = load i32, i32* @y.8
  %165 = sub i32 %163, 1
  %166 = mul i32 %163, %165
  %167 = urem i32 %166, 2
  %168 = icmp eq i32 %167, 0
  %169 = icmp slt i32 %164, 10
  %170 = or i1 %168, %169
  br i1 %170, label %originalBB19, label %originalBB19alteredBB

originalBB19:                                     ; preds = %162, %originalBB19alteredBB
  %171 = load i32, i32* %21, align 4
  %172 = add i32 %171, 1
  store i32 %172, i32* %21, align 4
  %173 = load i32, i32* @x.7
  %174 = load i32, i32* @y.8
  %175 = sub i32 %173, 1
  %176 = mul i32 %173, %175
  %177 = urem i32 %176, 2
  %178 = icmp eq i32 %177, 0
  %179 = icmp slt i32 %174, 10
  %180 = or i1 %178, %179
  br i1 %180, label %originalBBpart228, label %originalBB19alteredBB

originalBBpart228:                                ; preds = %originalBB19
  br label %72

; <label>:181:                                    ; preds = %72
  br label %182

; <label>:182:                                    ; preds = %181
  %183 = load i32, i32* %20, align 4
  %184 = add i32 %183, 1
  store i32 %184, i32* %20, align 4
  br label %67

; <label>:185:                                    ; preds = %67
  %186 = getelementptr inbounds %class.MappingQ, %class.MappingQ* %31, i32 0, i32 4
  %187 = load i32, i32* %186, align 4
  %188 = getelementptr inbounds %class.MappingQ, %class.MappingQ* %31, i32 0, i32 5
  %189 = load i32, i32* %188, align 8
  invoke void @_ZN10FullMatrixIdEC1Ejj(%class.FullMatrix* %23, i32 %187, i32 %189)
          to label %190 unwind label %157

; <label>:190:                                    ; preds = %185
  %191 = load i32, i32* @x.7
  %192 = load i32, i32* @y.8
  %193 = sub i32 %191, 1
  %194 = mul i32 %191, %193
  %195 = urem i32 %194, 2
  %196 = icmp eq i32 %195, 0
  %197 = icmp slt i32 %192, 10
  %198 = or i1 %196, %197
  br i1 %198, label %originalBB30, label %originalBB30alteredBB

originalBB30:                                     ; preds = %190, %originalBB30alteredBB
  store i32 0, i32* %24, align 4
  %199 = load i32, i32* @x.7
  %200 = load i32, i32* @y.8
  %201 = sub i32 %199, 1
  %202 = mul i32 %199, %201
  %203 = urem i32 %202, 2
  %204 = icmp eq i32 %203, 0
  %205 = icmp slt i32 %200, 10
  %206 = or i1 %204, %205
  br i1 %206, label %originalBBpart232, label %originalBB30alteredBB

originalBBpart232:                                ; preds = %originalBB30
  br label %207

; <label>:207:                                    ; preds = %375, %originalBBpart232
  %208 = load i32, i32* %24, align 4
  %209 = load i32, i32* %14, align 4
  %210 = icmp ult i32 %208, %209
  br i1 %210, label %211, label %378

; <label>:211:                                    ; preds = %207
  %212 = load i32, i32* @x.7
  %213 = load i32, i32* @y.8
  %214 = sub i32 %212, 1
  %215 = mul i32 %212, %214
  %216 = urem i32 %215, 2
  %217 = icmp eq i32 %216, 0
  %218 = icmp slt i32 %213, 10
  %219 = or i1 %217, %218
  br i1 %219, label %originalBB34, label %originalBB34alteredBB

originalBB34:                                     ; preds = %211, %originalBB34alteredBB
  store i32 0, i32* %25, align 4
  %220 = load i32, i32* @x.7
  %221 = load i32, i32* @y.8
  %222 = sub i32 %220, 1
  %223 = mul i32 %220, %222
  %224 = urem i32 %223, 2
  %225 = icmp eq i32 %224, 0
  %226 = icmp slt i32 %221, 10
  %227 = or i1 %225, %226
  br i1 %227, label %originalBBpart236, label %originalBB34alteredBB

originalBBpart236:                                ; preds = %originalBB34
  br label %228

; <label>:228:                                    ; preds = %371, %originalBBpart236
  %229 = load i32, i32* @x.7
  %230 = load i32, i32* @y.8
  %231 = sub i32 %229, 1
  %232 = mul i32 %229, %231
  %233 = urem i32 %232, 2
  %234 = icmp eq i32 %233, 0
  %235 = icmp slt i32 %230, 10
  %236 = or i1 %234, %235
  br i1 %236, label %originalBB38, label %originalBB38alteredBB

originalBB38:                                     ; preds = %228, %originalBB38alteredBB
  %237 = load i32, i32* %25, align 4
  %238 = getelementptr inbounds %class.MappingQ, %class.MappingQ* %31, i32 0, i32 4
  %239 = load i32, i32* %238, align 4
  %240 = icmp ult i32 %237, %239
  %241 = load i32, i32* @x.7
  %242 = load i32, i32* @y.8
  %243 = sub i32 %241, 1
  %244 = mul i32 %241, %243
  %245 = urem i32 %244, 2
  %246 = icmp eq i32 %245, 0
  %247 = icmp slt i32 %242, 10
  %248 = or i1 %246, %247
  br i1 %248, label %originalBBpart240, label %originalBB38alteredBB

originalBBpart240:                                ; preds = %originalBB38
  br i1 %240, label %249, label %374

; <label>:249:                                    ; preds = %originalBBpart240
  store i32 0, i32* %26, align 4
  br label %250

; <label>:250:                                    ; preds = %331, %249
  %251 = load i32, i32* @x.7
  %252 = load i32, i32* @y.8
  %253 = sub i32 %251, 1
  %254 = mul i32 %251, %253
  %255 = urem i32 %254, 2
  %256 = icmp eq i32 %255, 0
  %257 = icmp slt i32 %252, 10
  %258 = or i1 %256, %257
  br i1 %258, label %originalBB42, label %originalBB42alteredBB

originalBB42:                                     ; preds = %250, %originalBB42alteredBB
  %259 = load i32, i32* %26, align 4
  %260 = getelementptr inbounds %class.MappingQ, %class.MappingQ* %31, i32 0, i32 5
  %261 = load i32, i32* %260, align 8
  %262 = icmp ult i32 %259, %261
  %263 = load i32, i32* @x.7
  %264 = load i32, i32* @y.8
  %265 = sub i32 %263, 1
  %266 = mul i32 %263, %265
  %267 = urem i32 %266, 2
  %268 = icmp eq i32 %267, 0
  %269 = icmp slt i32 %264, 10
  %270 = or i1 %268, %269
  br i1 %270, label %originalBBpart244, label %originalBB42alteredBB

originalBBpart244:                                ; preds = %originalBB42
  br i1 %262, label %271, label %354

; <label>:271:                                    ; preds = %originalBBpart244
  %272 = load i32, i32* @x.7
  %273 = load i32, i32* @y.8
  %274 = sub i32 %272, 1
  %275 = mul i32 %272, %274
  %276 = urem i32 %275, 2
  %277 = icmp eq i32 %276, 0
  %278 = icmp slt i32 %273, 10
  %279 = or i1 %277, %278
  br i1 %279, label %originalBB46, label %originalBB46alteredBB

originalBB46:                                     ; preds = %271, %originalBB46alteredBB
  %280 = bitcast %"class.MappingQ<3>::InternalData"* %15 to %"class.MappingQ1<3>::InternalData"*
  %281 = load i32, i32* %24, align 4
  %282 = getelementptr inbounds %class.MappingQ, %class.MappingQ* %31, i32 0, i32 5
  %283 = load i32, i32* %282, align 8
  %284 = load i32, i32* %25, align 4
  %285 = add i32 %283, %284
  %286 = load i32, i32* @x.7
  %287 = load i32, i32* @y.8
  %288 = sub i32 %286, 1
  %289 = mul i32 %286, %288
  %290 = urem i32 %289, 2
  %291 = icmp eq i32 %290, 0
  %292 = icmp slt i32 %287, 10
  %293 = or i1 %291, %292
  br i1 %293, label %originalBBpart250, label %originalBB46alteredBB

originalBBpart250:                                ; preds = %originalBB46
  %294 = invoke dereferenceable(24) %class.Tensor* @_ZN9MappingQ1ILi3EE12InternalData10derivativeEjj(%"class.MappingQ1<3>::InternalData"* %280, i32 %281, i32 %285)
          to label %295 unwind label %334

; <label>:295:                                    ; preds = %originalBBpart250
  %296 = bitcast %"class.MappingQ<3>::InternalData"* %15 to %"class.MappingQ1<3>::InternalData"*
  %297 = load i32, i32* %24, align 4
  %298 = load i32, i32* %26, align 4
  %299 = invoke dereferenceable(24) %class.Tensor* @_ZN9MappingQ1ILi3EE12InternalData10derivativeEjj(%"class.MappingQ1<3>::InternalData"* %296, i32 %297, i32 %298)
          to label %300 unwind label %334

; <label>:300:                                    ; preds = %295
  %301 = invoke double @_Z8contractILi3EEdRK6TensorILi1EXT_EES3_(%class.Tensor* dereferenceable(24) %294, %class.Tensor* dereferenceable(24) %299)
          to label %302 unwind label %334

; <label>:302:                                    ; preds = %300
  %303 = bitcast %class.QGauss* %13 to %class.Quadrature*
  %304 = load i32, i32* %24, align 4
  %305 = invoke double @_ZNK10QuadratureILi3EE6weightEj(%class.Quadrature* %303, i32 %304)
          to label %306 unwind label %334

; <label>:306:                                    ; preds = %302
  %307 = fmul double %301, %305
  %308 = bitcast %class.FullMatrix* %23 to %class.Table*
  %309 = load i32, i32* %25, align 4
  %310 = load i32, i32* %26, align 4
  %311 = invoke dereferenceable(8) double* @_ZN5TableILi2EdEclEjj(%class.Table* %308, i32 %309, i32 %310)
          to label %312 unwind label %334

; <label>:312:                                    ; preds = %306
  %313 = load i32, i32* @x.7
  %314 = load i32, i32* @y.8
  %315 = sub i32 %313, 1
  %316 = mul i32 %313, %315
  %317 = urem i32 %316, 2
  %318 = icmp eq i32 %317, 0
  %319 = icmp slt i32 %314, 10
  %320 = or i1 %318, %319
  br i1 %320, label %originalBB52, label %originalBB52alteredBB

originalBB52:                                     ; preds = %312, %originalBB52alteredBB
  %321 = load double, double* %311, align 8
  %322 = fadd double %321, %307
  store double %322, double* %311, align 8
  %323 = load i32, i32* @x.7
  %324 = load i32, i32* @y.8
  %325 = sub i32 %323, 1
  %326 = mul i32 %323, %325
  %327 = urem i32 %326, 2
  %328 = icmp eq i32 %327, 0
  %329 = icmp slt i32 %324, 10
  %330 = or i1 %328, %329
  br i1 %330, label %originalBBpart254, label %originalBB52alteredBB

originalBBpart254:                                ; preds = %originalBB52
  br label %331

; <label>:331:                                    ; preds = %originalBBpart254
  %332 = load i32, i32* %26, align 4
  %333 = add i32 %332, 1
  store i32 %333, i32* %26, align 4
  br label %250

; <label>:334:                                    ; preds = %531, %378, %306, %302, %300, %295, %originalBBpart250
  %335 = load i32, i32* @x.7
  %336 = load i32, i32* @y.8
  %337 = sub i32 %335, 1
  %338 = mul i32 %335, %337
  %339 = urem i32 %338, 2
  %340 = icmp eq i32 %339, 0
  %341 = icmp slt i32 %336, 10
  %342 = or i1 %340, %341
  br i1 %342, label %originalBB56, label %originalBB56alteredBB

originalBB56:                                     ; preds = %334, %originalBB56alteredBB
  %343 = landingpad { i8*, i32 }
          cleanup
  %344 = extractvalue { i8*, i32 } %343, 0
  store i8* %344, i8** %16, align 8
  %345 = extractvalue { i8*, i32 } %343, 1
  store i32 %345, i32* %17, align 4
  %346 = load i32, i32* @x.7
  %347 = load i32, i32* @y.8
  %348 = sub i32 %346, 1
  %349 = mul i32 %346, %348
  %350 = urem i32 %349, 2
  %351 = icmp eq i32 %350, 0
  %352 = icmp slt i32 %347, 10
  %353 = or i1 %351, %352
  br i1 %353, label %originalBBpart258, label %originalBB56alteredBB

originalBBpart258:                                ; preds = %originalBB56
  br label %539

; <label>:354:                                    ; preds = %originalBBpart244
  %355 = load i32, i32* @x.7
  %356 = load i32, i32* @y.8
  %357 = sub i32 %355, 1
  %358 = mul i32 %355, %357
  %359 = urem i32 %358, 2
  %360 = icmp eq i32 %359, 0
  %361 = icmp slt i32 %356, 10
  %362 = or i1 %360, %361
  br i1 %362, label %originalBB60, label %originalBB60alteredBB

originalBB60:                                     ; preds = %354, %originalBB60alteredBB
  %363 = load i32, i32* @x.7
  %364 = load i32, i32* @y.8
  %365 = sub i32 %363, 1
  %366 = mul i32 %363, %365
  %367 = urem i32 %366, 2
  %368 = icmp eq i32 %367, 0
  %369 = icmp slt i32 %364, 10
  %370 = or i1 %368, %369
  br i1 %370, label %originalBBpart262, label %originalBB60alteredBB

originalBBpart262:                                ; preds = %originalBB60
  br label %371

; <label>:371:                                    ; preds = %originalBBpart262
  %372 = load i32, i32* %25, align 4
  %373 = add i32 %372, 1
  store i32 %373, i32* %25, align 4
  br label %228

; <label>:374:                                    ; preds = %originalBBpart240
  br label %375

; <label>:375:                                    ; preds = %374
  %376 = load i32, i32* %24, align 4
  %377 = add i32 %376, 1
  store i32 %377, i32* %24, align 4
  br label %207

; <label>:378:                                    ; preds = %207
  %379 = getelementptr inbounds %class.MappingQ, %class.MappingQ* %31, i32 0, i32 4
  %380 = load i32, i32* %379, align 4
  invoke void @_ZN10FullMatrixIdEC1Ej(%class.FullMatrix* %27, i32 %380)
          to label %381 unwind label %334

; <label>:381:                                    ; preds = %378
  %382 = load i32, i32* @x.7
  %383 = load i32, i32* @y.8
  %384 = sub i32 %382, 1
  %385 = mul i32 %382, %384
  %386 = urem i32 %385, 2
  %387 = icmp eq i32 %386, 0
  %388 = icmp slt i32 %383, 10
  %389 = or i1 %387, %388
  br i1 %389, label %originalBB64, label %originalBB64alteredBB

originalBB64:                                     ; preds = %381, %originalBB64alteredBB
  %390 = load i32, i32* @x.7
  %391 = load i32, i32* @y.8
  %392 = sub i32 %390, 1
  %393 = mul i32 %390, %392
  %394 = urem i32 %393, 2
  %395 = icmp eq i32 %394, 0
  %396 = icmp slt i32 %391, 10
  %397 = or i1 %395, %396
  br i1 %397, label %originalBBpart266, label %originalBB64alteredBB

originalBBpart266:                                ; preds = %originalBB64
  invoke void @_ZN10FullMatrixIdE6invertIdEEvRKS_IT_E(%class.FullMatrix* %27, %class.FullMatrix* dereferenceable(48) %19)
          to label %398 unwind label %486

; <label>:398:                                    ; preds = %originalBBpart266
  %399 = getelementptr inbounds %class.MappingQ, %class.MappingQ* %31, i32 0, i32 4
  %400 = load i32, i32* %399, align 4
  %401 = getelementptr inbounds %class.MappingQ, %class.MappingQ* %31, i32 0, i32 5
  %402 = load i32, i32* %401, align 8
  invoke void @_ZN10FullMatrixIdEC1Ejj(%class.FullMatrix* %28, i32 %400, i32 %402)
          to label %403 unwind label %486

; <label>:403:                                    ; preds = %398
  %404 = load i32, i32* @x.7
  %405 = load i32, i32* @y.8
  %406 = sub i32 %404, 1
  %407 = mul i32 %404, %406
  %408 = urem i32 %407, 2
  %409 = icmp eq i32 %408, 0
  %410 = icmp slt i32 %405, 10
  %411 = or i1 %409, %410
  br i1 %411, label %originalBB68, label %originalBB68alteredBB

originalBB68:                                     ; preds = %403, %originalBB68alteredBB
  %412 = load i32, i32* @x.7
  %413 = load i32, i32* @y.8
  %414 = sub i32 %412, 1
  %415 = mul i32 %412, %414
  %416 = urem i32 %415, 2
  %417 = icmp eq i32 %416, 0
  %418 = icmp slt i32 %413, 10
  %419 = or i1 %417, %418
  br i1 %419, label %originalBBpart270, label %originalBB68alteredBB

originalBBpart270:                                ; preds = %originalBB68
  invoke void @_ZNK10FullMatrixIdE5mmultIdEEvRS_IT_ERKS3_b(%class.FullMatrix* %27, %class.FullMatrix* dereferenceable(48) %28, %class.FullMatrix* dereferenceable(48) %23, i1 zeroext false)
          to label %420 unwind label %490

; <label>:420:                                    ; preds = %originalBBpart270
  %421 = load %class.Table*, %class.Table** %12, align 8
  %422 = getelementptr inbounds %class.MappingQ, %class.MappingQ* %31, i32 0, i32 4
  %423 = load i32, i32* %422, align 4
  %424 = getelementptr inbounds %class.MappingQ, %class.MappingQ* %31, i32 0, i32 5
  %425 = load i32, i32* %424, align 8
  invoke void @_ZN5TableILi2EdE6reinitEjj(%class.Table* %421, i32 %423, i32 %425)
          to label %426 unwind label %490

; <label>:426:                                    ; preds = %420
  store i32 0, i32* %29, align 4
  br label %427

; <label>:427:                                    ; preds = %originalBBpart2101, %426
  %428 = load i32, i32* %29, align 4
  %429 = getelementptr inbounds %class.MappingQ, %class.MappingQ* %31, i32 0, i32 4
  %430 = load i32, i32* %429, align 4
  %431 = icmp ult i32 %428, %430
  br i1 %431, label %432, label %530

; <label>:432:                                    ; preds = %427
  store i32 0, i32* %30, align 4
  br label %433

; <label>:433:                                    ; preds = %originalBBpart283, %432
  %434 = load i32, i32* @x.7
  %435 = load i32, i32* @y.8
  %436 = sub i32 %434, 1
  %437 = mul i32 %434, %436
  %438 = urem i32 %437, 2
  %439 = icmp eq i32 %438, 0
  %440 = icmp slt i32 %435, 10
  %441 = or i1 %439, %440
  br i1 %441, label %originalBB72, label %originalBB72alteredBB

originalBB72:                                     ; preds = %433, %originalBB72alteredBB
  %442 = load i32, i32* %30, align 4
  %443 = getelementptr inbounds %class.MappingQ, %class.MappingQ* %31, i32 0, i32 5
  %444 = load i32, i32* %443, align 8
  %445 = icmp ult i32 %442, %444
  %446 = load i32, i32* @x.7
  %447 = load i32, i32* @y.8
  %448 = sub i32 %446, 1
  %449 = mul i32 %446, %448
  %450 = urem i32 %449, 2
  %451 = icmp eq i32 %450, 0
  %452 = icmp slt i32 %447, 10
  %453 = or i1 %451, %452
  br i1 %453, label %originalBBpart274, label %originalBB72alteredBB

originalBBpart274:                                ; preds = %originalBB72
  br i1 %445, label %454, label %494

; <label>:454:                                    ; preds = %originalBBpart274
  %455 = bitcast %class.FullMatrix* %28 to %class.Table*
  %456 = load i32, i32* %29, align 4
  %457 = load i32, i32* %30, align 4
  %458 = invoke dereferenceable(8) double* @_ZN5TableILi2EdEclEjj(%class.Table* %455, i32 %456, i32 %457)
          to label %459 unwind label %490

; <label>:459:                                    ; preds = %454
  %460 = load double, double* %458, align 8
  %461 = fsub double -0.000000e+00, %460
  %462 = load %class.Table*, %class.Table** %12, align 8
  %463 = load i32, i32* %29, align 4
  %464 = load i32, i32* %30, align 4
  %465 = invoke dereferenceable(8) double* @_ZN5TableILi2EdEclEjj(%class.Table* %462, i32 %463, i32 %464)
          to label %466 unwind label %490

; <label>:466:                                    ; preds = %459
  store double %461, double* %465, align 8
  br label %467

; <label>:467:                                    ; preds = %466
  %468 = load i32, i32* @x.7
  %469 = load i32, i32* @y.8
  %470 = sub i32 %468, 1
  %471 = mul i32 %468, %470
  %472 = urem i32 %471, 2
  %473 = icmp eq i32 %472, 0
  %474 = icmp slt i32 %469, 10
  %475 = or i1 %473, %474
  br i1 %475, label %originalBB76, label %originalBB76alteredBB

originalBB76:                                     ; preds = %467, %originalBB76alteredBB
  %476 = load i32, i32* %30, align 4
  %477 = add i32 %476, 1
  store i32 %477, i32* %30, align 4
  %478 = load i32, i32* @x.7
  %479 = load i32, i32* @y.8
  %480 = sub i32 %478, 1
  %481 = mul i32 %478, %480
  %482 = urem i32 %481, 2
  %483 = icmp eq i32 %482, 0
  %484 = icmp slt i32 %479, 10
  %485 = or i1 %483, %484
  br i1 %485, label %originalBBpart283, label %originalBB76alteredBB

originalBBpart283:                                ; preds = %originalBB76
  br label %433

; <label>:486:                                    ; preds = %530, %398, %originalBBpart266
  %487 = landingpad { i8*, i32 }
          cleanup
  %488 = extractvalue { i8*, i32 } %487, 0
  store i8* %488, i8** %16, align 8
  %489 = extractvalue { i8*, i32 } %487, 1
  store i32 %489, i32* %17, align 4
  br label %537

; <label>:490:                                    ; preds = %459, %454, %420, %originalBBpart270
  %491 = landingpad { i8*, i32 }
          cleanup
  %492 = extractvalue { i8*, i32 } %491, 0
  store i8* %492, i8** %16, align 8
  %493 = extractvalue { i8*, i32 } %491, 1
  store i32 %493, i32* %17, align 4
  invoke void @_ZN10FullMatrixIdED2Ev(%class.FullMatrix* %28)
          to label %536 unwind label %568

; <label>:494:                                    ; preds = %originalBBpart274
  %495 = load i32, i32* @x.7
  %496 = load i32, i32* @y.8
  %497 = sub i32 %495, 1
  %498 = mul i32 %495, %497
  %499 = urem i32 %498, 2
  %500 = icmp eq i32 %499, 0
  %501 = icmp slt i32 %496, 10
  %502 = or i1 %500, %501
  br i1 %502, label %originalBB85, label %originalBB85alteredBB

originalBB85:                                     ; preds = %494, %originalBB85alteredBB
  %503 = load i32, i32* @x.7
  %504 = load i32, i32* @y.8
  %505 = sub i32 %503, 1
  %506 = mul i32 %503, %505
  %507 = urem i32 %506, 2
  %508 = icmp eq i32 %507, 0
  %509 = icmp slt i32 %504, 10
  %510 = or i1 %508, %509
  br i1 %510, label %originalBBpart287, label %originalBB85alteredBB

originalBBpart287:                                ; preds = %originalBB85
  br label %511

; <label>:511:                                    ; preds = %originalBBpart287
  %512 = load i32, i32* @x.7
  %513 = load i32, i32* @y.8
  %514 = sub i32 %512, 1
  %515 = mul i32 %512, %514
  %516 = urem i32 %515, 2
  %517 = icmp eq i32 %516, 0
  %518 = icmp slt i32 %513, 10
  %519 = or i1 %517, %518
  br i1 %519, label %originalBB89, label %originalBB89alteredBB

originalBB89:                                     ; preds = %511, %originalBB89alteredBB
  %520 = load i32, i32* %29, align 4
  %521 = add i32 %520, 1
  store i32 %521, i32* %29, align 4
  %522 = load i32, i32* @x.7
  %523 = load i32, i32* @y.8
  %524 = sub i32 %522, 1
  %525 = mul i32 %522, %524
  %526 = urem i32 %525, 2
  %527 = icmp eq i32 %526, 0
  %528 = icmp slt i32 %523, 10
  %529 = or i1 %527, %528
  br i1 %529, label %originalBBpart2101, label %originalBB89alteredBB

originalBBpart2101:                               ; preds = %originalBB89
  br label %427

; <label>:530:                                    ; preds = %427
  invoke void @_ZN10FullMatrixIdED2Ev(%class.FullMatrix* %28)
          to label %531 unwind label %486

; <label>:531:                                    ; preds = %530
  invoke void @_ZN10FullMatrixIdED2Ev(%class.FullMatrix* %27)
          to label %532 unwind label %334

; <label>:532:                                    ; preds = %531
  invoke void @_ZN10FullMatrixIdED2Ev(%class.FullMatrix* %23)
          to label %533 unwind label %157

; <label>:533:                                    ; preds = %532
  invoke void @_ZN10FullMatrixIdED2Ev(%class.FullMatrix* %19)
          to label %534 unwind label %153

; <label>:534:                                    ; preds = %533
  invoke void @_ZN8MappingQILi3EE12InternalDataD2Ev(%"class.MappingQ<3>::InternalData"* %15)
          to label %535 unwind label %149

; <label>:535:                                    ; preds = %534
  call void @_ZN6QGaussILi3EED2Ev(%class.QGauss* %13)
  ret void

; <label>:536:                                    ; preds = %490
  br label %537

; <label>:537:                                    ; preds = %536, %486
  invoke void @_ZN10FullMatrixIdED2Ev(%class.FullMatrix* %27)
          to label %538 unwind label %568

; <label>:538:                                    ; preds = %537
  br label %539

; <label>:539:                                    ; preds = %538, %originalBBpart258
  invoke void @_ZN10FullMatrixIdED2Ev(%class.FullMatrix* %23)
          to label %540 unwind label %568

; <label>:540:                                    ; preds = %539
  br label %541

; <label>:541:                                    ; preds = %540, %157
  invoke void @_ZN10FullMatrixIdED2Ev(%class.FullMatrix* %19)
          to label %542 unwind label %568

; <label>:542:                                    ; preds = %541
  br label %543

; <label>:543:                                    ; preds = %542, %153
  invoke void @_ZN8MappingQILi3EE12InternalDataD2Ev(%"class.MappingQ<3>::InternalData"* %15)
          to label %544 unwind label %568

; <label>:544:                                    ; preds = %543
  br label %545

; <label>:545:                                    ; preds = %544, %149
  invoke void @_ZN6QGaussILi3EED2Ev(%class.QGauss* %13)
          to label %546 unwind label %568

; <label>:546:                                    ; preds = %545
  %547 = load i32, i32* @x.7
  %548 = load i32, i32* @y.8
  %549 = sub i32 %547, 1
  %550 = mul i32 %547, %549
  %551 = urem i32 %550, 2
  %552 = icmp eq i32 %551, 0
  %553 = icmp slt i32 %548, 10
  %554 = or i1 %552, %553
  br i1 %554, label %originalBB103, label %originalBB103alteredBB

originalBB103:                                    ; preds = %546, %originalBB103alteredBB
  %555 = load i32, i32* @x.7
  %556 = load i32, i32* @y.8
  %557 = sub i32 %555, 1
  %558 = mul i32 %555, %557
  %559 = urem i32 %558, 2
  %560 = icmp eq i32 %559, 0
  %561 = icmp slt i32 %556, 10
  %562 = or i1 %560, %561
  br i1 %562, label %originalBBpart2105, label %originalBB103alteredBB

originalBBpart2105:                               ; preds = %originalBB103
  br label %563

; <label>:563:                                    ; preds = %originalBBpart2105
  %564 = load i8*, i8** %16, align 8
  %565 = load i32, i32* %17, align 4
  %566 = insertvalue { i8*, i32 } undef, i8* %564, 0
  %567 = insertvalue { i8*, i32 } %566, i32 %565, 1
  resume { i8*, i32 } %567

; <label>:568:                                    ; preds = %545, %543, %541, %539, %537, %490
  %569 = landingpad { i8*, i32 }
          catch i8* null
  %570 = extractvalue { i8*, i32 } %569, 0
  call void @__clang_call_terminate(i8* %570) #12
  unreachable

originalBBalteredBB:                              ; preds = %originalBB, %2
  %571 = alloca %class.MappingQ*, align 8
  %572 = alloca %class.Table*, align 8
  %573 = alloca %class.QGauss, align 8
  %574 = alloca i32, align 4
  %575 = alloca %"class.MappingQ<3>::InternalData", align 8
  %576 = alloca i8*
  %577 = alloca i32
  %578 = alloca %class.Tensor, align 8
  %579 = alloca %class.FullMatrix, align 8
  %580 = alloca i32, align 4
  %581 = alloca i32, align 4
  %582 = alloca i32, align 4
  %583 = alloca %class.FullMatrix, align 8
  %584 = alloca i32, align 4
  %585 = alloca i32, align 4
  %586 = alloca i32, align 4
  %587 = alloca %class.FullMatrix, align 8
  %588 = alloca %class.FullMatrix, align 8
  %589 = alloca i32, align 4
  %590 = alloca i32, align 4
  store %class.MappingQ* %0, %class.MappingQ** %571, align 8
  store %class.Table* %1, %class.Table** %572, align 8
  %591 = load %class.MappingQ*, %class.MappingQ** %571, align 8
  %592 = getelementptr inbounds %class.MappingQ, %class.MappingQ* %591, i32 0, i32 3
  %593 = load i32, i32* %592, align 8
  %_ = sub i32 %593, 1
  %gen = mul i32 %_, 1
  %_1 = shl i32 %593, 1
  %_2 = sub i32 %593, 1
  %gen3 = mul i32 %_2, 1
  %_4 = shl i32 %593, 1
  %594 = add i32 %593, 1
  call void @_ZN6QGaussILi3EEC1Ej(%class.QGauss* %573, i32 %594)
  %595 = bitcast %class.QGauss* %573 to %class.Quadrature*
  %596 = getelementptr inbounds %class.Quadrature, %class.Quadrature* %595, i32 0, i32 1
  %597 = load i32, i32* %596, align 8
  store i32 %597, i32* %574, align 4
  %598 = getelementptr inbounds %class.MappingQ, %class.MappingQ* %591, i32 0, i32 7
  %599 = load i32, i32* %598, align 8
  br label %originalBB

originalBB5alteredBB:                             ; preds = %originalBB5, %77
  store i32 0, i32* %22, align 4
  br label %originalBB5

originalBB9alteredBB:                             ; preds = %originalBB9, %127
  %600 = load double, double* %126, align 8
  %_10 = fsub double %600, %122
  %gen11 = fmul double %_10, %122
  %_12 = fsub double %600, %122
  %gen13 = fmul double %_12, %122
  %_14 = fsub double -0.000000e+00, %600
  %gen15 = fadd double %_14, %122
  %601 = fadd double %600, %122
  store double %601, double* %126, align 8
  br label %originalBB9

originalBB19alteredBB:                            ; preds = %originalBB19, %162
  %602 = load i32, i32* %21, align 4
  %_20 = shl i32 %602, 1
  %_21 = sub i32 0, %602
  %gen22 = add i32 %_21, 1
  %_23 = sub i32 0, %602
  %gen24 = add i32 %_23, 1
  %_25 = sub i32 0, %602
  %gen26 = add i32 %_25, 1
  %603 = add i32 %602, 1
  store i32 %603, i32* %21, align 4
  br label %originalBB19

originalBB30alteredBB:                            ; preds = %originalBB30, %190
  store i32 0, i32* %24, align 4
  br label %originalBB30

originalBB34alteredBB:                            ; preds = %originalBB34, %211
  store i32 0, i32* %25, align 4
  br label %originalBB34

originalBB38alteredBB:                            ; preds = %originalBB38, %228
  %604 = load i32, i32* %25, align 4
  %605 = getelementptr inbounds %class.MappingQ, %class.MappingQ* %31, i32 0, i32 4
  %606 = load i32, i32* %605, align 4
  %607 = icmp ult i32 %604, %606
  br label %originalBB38

originalBB42alteredBB:                            ; preds = %originalBB42, %250
  %608 = load i32, i32* %26, align 4
  %609 = getelementptr inbounds %class.MappingQ, %class.MappingQ* %31, i32 0, i32 5
  %610 = load i32, i32* %609, align 8
  %611 = icmp ult i32 %608, %610
  br label %originalBB42

originalBB46alteredBB:                            ; preds = %originalBB46, %271
  %612 = bitcast %"class.MappingQ<3>::InternalData"* %15 to %"class.MappingQ1<3>::InternalData"*
  %613 = load i32, i32* %24, align 4
  %614 = getelementptr inbounds %class.MappingQ, %class.MappingQ* %31, i32 0, i32 5
  %615 = load i32, i32* %614, align 8
  %616 = load i32, i32* %25, align 4
  %_47 = sub i32 0, %615
  %gen48 = add i32 %_47, %616
  %617 = add i32 %615, %616
  br label %originalBB46

originalBB52alteredBB:                            ; preds = %originalBB52, %312
  %618 = load double, double* %311, align 8
  %619 = fadd double %618, %307
  store double %619, double* %311, align 8
  br label %originalBB52

originalBB56alteredBB:                            ; preds = %originalBB56, %334
  %620 = landingpad { i8*, i32 }
          cleanup
  %621 = extractvalue { i8*, i32 } %620, 0
  store i8* %621, i8** %16, align 8
  %622 = extractvalue { i8*, i32 } %620, 1
  store i32 %622, i32* %17, align 4
  br label %originalBB56

originalBB60alteredBB:                            ; preds = %originalBB60, %354
  br label %originalBB60

originalBB64alteredBB:                            ; preds = %originalBB64, %381
  br label %originalBB64

originalBB68alteredBB:                            ; preds = %originalBB68, %403
  br label %originalBB68

originalBB72alteredBB:                            ; preds = %originalBB72, %433
  %623 = load i32, i32* %30, align 4
  %624 = getelementptr inbounds %class.MappingQ, %class.MappingQ* %31, i32 0, i32 5
  %625 = load i32, i32* %624, align 8
  %626 = icmp ult i32 %623, %625
  br label %originalBB72

originalBB76alteredBB:                            ; preds = %originalBB76, %467
  %627 = load i32, i32* %30, align 4
  %_77 = shl i32 %627, 1
  %_78 = shl i32 %627, 1
  %_79 = shl i32 %627, 1
  %_80 = sub i32 0, %627
  %gen81 = add i32 %_80, 1
  %628 = add i32 %627, 1
  store i32 %628, i32* %30, align 4
  br label %originalBB76

originalBB85alteredBB:                            ; preds = %originalBB85, %494
  br label %originalBB85

originalBB89alteredBB:                            ; preds = %originalBB89, %511
  %629 = load i32, i32* %29, align 4
  %_90 = sub i32 0, %629
  %gen91 = add i32 %_90, 1
  %_92 = sub i32 0, %629
  %gen93 = add i32 %_92, 1
  %_94 = sub i32 0, %629
  %gen95 = add i32 %_94, 1
  %_96 = sub i32 0, %629
  %gen97 = add i32 %_96, 1
  %_98 = sub i32 0, %629
  %gen99 = add i32 %_98, 1
  %630 = add i32 %629, 1
  store i32 %630, i32* %29, align 4
  br label %originalBB89

originalBB103alteredBB:                           ; preds = %originalBB103, %546
  br label %originalBB103
}

; Function Attrs: noinline uwtable
define void @_ZNK8MappingQILi3EE23add_quad_support_pointsERK12TriaIteratorILi3E12CellAccessorILi3EEERSt6vectorI5PointILi3EESaIS9_EE(%class.MappingQ*, %class.TriaIterator* dereferenceable(16), %"class.std::vector.58"* dereferenceable(24)) unnamed_addr #0 align 2 personality i8* bitcast (i32 (...)* @__gxx_personality_v0 to i8*) {
  %4 = alloca %class.MappingQ*, align 8
  %5 = alloca %class.TriaIterator*, align 8
  %6 = alloca %"class.std::vector.58"*, align 8
  %7 = alloca i32, align 4
  %8 = alloca i32, align 4
  %9 = alloca i32, align 4
  %10 = alloca i32, align 4
  %11 = alloca i8*
  %12 = alloca i32
  %13 = alloca %"class.std::vector.58", align 8
  %14 = alloca %class.Point, align 8
  %15 = alloca %"class.std::allocator.60", align 1
  %16 = alloca %"class.std::vector.58", align 8
  %17 = alloca %class.Point, align 8
  %18 = alloca %"class.std::allocator.60", align 1
  %19 = alloca i32, align 4
  %20 = alloca %class.TriaIterator.65, align 8
  %21 = alloca i8, align 1
  %22 = alloca i32*, align 8
  %23 = alloca i32*, align 8
  %24 = alloca i32, align 4
  %25 = alloca i32, align 4
  %26 = alloca %"class.__gnu_cxx::__normal_iterator", align 8
  %27 = alloca %"class.__gnu_cxx::__normal_iterator", align 8
  %28 = alloca %"class.__gnu_cxx::__normal_iterator", align 8
  %29 = alloca i32, align 4
  %30 = alloca i32, align 4
  %31 = alloca %class.TriaIterator.69, align 8
  %32 = alloca %class.Point, align 8
  %33 = alloca i32, align 4
  %34 = alloca i32, align 4
  %35 = alloca i32, align 4
  %36 = alloca i32, align 4
  %37 = alloca %"class.__gnu_cxx::__normal_iterator", align 8
  %38 = alloca %"class.__gnu_cxx::__normal_iterator", align 8
  %39 = alloca %"class.__gnu_cxx::__normal_iterator", align 8
  store %class.MappingQ* %0, %class.MappingQ** %4, align 8
  store %class.TriaIterator* %1, %class.TriaIterator** %5, align 8
  store %"class.std::vector.58"* %2, %"class.std::vector.58"** %6, align 8
  %40 = load %class.MappingQ*, %class.MappingQ** %4, align 8
  store i32 6, i32* %7, align 4
  store i32 4, i32* %8, align 4
  store i32 4, i32* %9, align 4
  store i32 8, i32* %10, align 4
  %41 = load atomic i8, i8* bitcast (i64* @_ZGVZNK8MappingQILi3EE23add_quad_support_pointsERK12TriaIteratorILi3E12CellAccessorILi3EEERSt6vectorI5PointILi3EESaIS9_EEE17straight_boundary to i8*) acquire, align 8
  %42 = icmp eq i8 %41, 0
  br i1 %42, label %43, label %65

; <label>:43:                                     ; preds = %3
  %44 = call i32 @__cxa_guard_acquire(i64* @_ZGVZNK8MappingQILi3EE23add_quad_support_pointsERK12TriaIteratorILi3E12CellAccessorILi3EEERSt6vectorI5PointILi3EESaIS9_EEE17straight_boundary) #2
  %45 = icmp ne i32 %44, 0
  br i1 %45, label %46, label %65

; <label>:46:                                     ; preds = %43
  %47 = load i32, i32* @x.9
  %48 = load i32, i32* @y.10
  %49 = sub i32 %47, 1
  %50 = mul i32 %47, %49
  %51 = urem i32 %50, 2
  %52 = icmp eq i32 %51, 0
  %53 = icmp slt i32 %48, 10
  %54 = or i1 %52, %53
  br i1 %54, label %originalBB, label %originalBBalteredBB

originalBB:                                       ; preds = %46, %originalBBalteredBB
  %55 = load i32, i32* @x.9
  %56 = load i32, i32* @y.10
  %57 = sub i32 %55, 1
  %58 = mul i32 %55, %57
  %59 = urem i32 %58, 2
  %60 = icmp eq i32 %59, 0
  %61 = icmp slt i32 %56, 10
  %62 = or i1 %60, %61
  br i1 %62, label %originalBBpart2, label %originalBBalteredBB

originalBBpart2:                                  ; preds = %originalBB
  invoke void @_ZN16StraightBoundaryILi3EEC1Ev(%class.StraightBoundary* @_ZZNK8MappingQILi3EE23add_quad_support_pointsERK12TriaIteratorILi3E12CellAccessorILi3EEERSt6vectorI5PointILi3EESaIS9_EEE17straight_boundary)
          to label %63 unwind label %229

; <label>:63:                                     ; preds = %originalBBpart2
  %64 = call i32 @__cxa_atexit(void (i8*)* bitcast (void (%class.StraightBoundary*)* @_ZN16StraightBoundaryILi3EED2Ev to void (i8*)*), i8* bitcast (%class.StraightBoundary* @_ZZNK8MappingQILi3EE23add_quad_support_pointsERK12TriaIteratorILi3E12CellAccessorILi3EEERSt6vectorI5PointILi3EESaIS9_EEE17straight_boundary to i8*), i8* @__dso_handle) #2
  call void @__cxa_guard_release(i64* @_ZGVZNK8MappingQILi3EE23add_quad_support_pointsERK12TriaIteratorILi3E12CellAccessorILi3EEERSt6vectorI5PointILi3EESaIS9_EEE17straight_boundary) #2
  br label %65

; <label>:65:                                     ; preds = %63, %43, %3
  %66 = getelementptr inbounds %class.MappingQ, %class.MappingQ* %40, i32 0, i32 3
  %67 = load i32, i32* %66, align 8
  %68 = sub i32 %67, 1
  %69 = getelementptr inbounds %class.MappingQ, %class.MappingQ* %40, i32 0, i32 3
  %70 = load i32, i32* %69, align 8
  %71 = sub i32 %70, 1
  %72 = mul i32 %68, %71
  %73 = zext i32 %72 to i64
  call void @_ZN5PointILi3EEC2Ev(%class.Point* %14)
  call void @_ZNSaI5PointILi3EEEC2Ev(%"class.std::allocator.60"* %15) #2
  invoke void @_ZNSt6vectorI5PointILi3EESaIS1_EEC2EmRKS1_RKS2_(%"class.std::vector.58"* %13, i64 %73, %class.Point* dereferenceable(24) %14, %"class.std::allocator.60"* dereferenceable(1) %15)
          to label %74 unwind label %233

; <label>:74:                                     ; preds = %65
  call void @_ZNSaI5PointILi3EEED2Ev(%"class.std::allocator.60"* %15) #2
  %75 = getelementptr inbounds %class.MappingQ, %class.MappingQ* %40, i32 0, i32 3
  %76 = load i32, i32* %75, align 8
  %77 = mul i32 4, %76
  %78 = zext i32 %77 to i64
  invoke void @_ZN5PointILi3EEC2Ev(%class.Point* %17)
          to label %79 unwind label %253

; <label>:79:                                     ; preds = %74
  %80 = load i32, i32* @x.9
  %81 = load i32, i32* @y.10
  %82 = sub i32 %80, 1
  %83 = mul i32 %80, %82
  %84 = urem i32 %83, 2
  %85 = icmp eq i32 %84, 0
  %86 = icmp slt i32 %81, 10
  %87 = or i1 %85, %86
  br i1 %87, label %originalBB1, label %originalBB1alteredBB

originalBB1:                                      ; preds = %79, %originalBB1alteredBB
  call void @_ZNSaI5PointILi3EEEC2Ev(%"class.std::allocator.60"* %18) #2
  %88 = load i32, i32* @x.9
  %89 = load i32, i32* @y.10
  %90 = sub i32 %88, 1
  %91 = mul i32 %88, %90
  %92 = urem i32 %91, 2
  %93 = icmp eq i32 %92, 0
  %94 = icmp slt i32 %89, 10
  %95 = or i1 %93, %94
  br i1 %95, label %originalBBpart24, label %originalBB1alteredBB

originalBBpart24:                                 ; preds = %originalBB1
  invoke void @_ZNSt6vectorI5PointILi3EESaIS1_EEC2EmRKS1_RKS2_(%"class.std::vector.58"* %16, i64 %78, %class.Point* dereferenceable(24) %17, %"class.std::allocator.60"* dereferenceable(1) %18)
          to label %96 unwind label %257

; <label>:96:                                     ; preds = %originalBBpart24
  call void @_ZNSaI5PointILi3EEED2Ev(%"class.std::allocator.60"* %18) #2
  store i32 0, i32* %19, align 4
  br label %97

; <label>:97:                                     ; preds = %917, %96
  %98 = load i32, i32* @x.9
  %99 = load i32, i32* @y.10
  %100 = sub i32 %98, 1
  %101 = mul i32 %98, %100
  %102 = urem i32 %101, 2
  %103 = icmp eq i32 %102, 0
  %104 = icmp slt i32 %99, 10
  %105 = or i1 %103, %104
  br i1 %105, label %originalBB6, label %originalBB6alteredBB

originalBB6:                                      ; preds = %97, %originalBB6alteredBB
  %106 = load i32, i32* %19, align 4
  %107 = icmp ult i32 %106, 6
  %108 = load i32, i32* @x.9
  %109 = load i32, i32* @y.10
  %110 = sub i32 %108, 1
  %111 = mul i32 %108, %110
  %112 = urem i32 %111, 2
  %113 = icmp eq i32 %112, 0
  %114 = icmp slt i32 %109, 10
  %115 = or i1 %113, %114
  br i1 %115, label %originalBBpart28, label %originalBB6alteredBB

originalBBpart28:                                 ; preds = %originalBB6
  br i1 %107, label %116, label %920

; <label>:116:                                    ; preds = %originalBBpart28
  %117 = load %class.TriaIterator*, %class.TriaIterator** %5, align 8
  %118 = bitcast %class.TriaIterator* %117 to %class.TriaRawIterator*
  %119 = invoke %class.CellAccessor* @_ZNK15TriaRawIteratorILi3E12CellAccessorILi3EEEptEv(%class.TriaRawIterator* %118)
          to label %120 unwind label %277

; <label>:120:                                    ; preds = %116
  %121 = load i32, i32* %19, align 4
  invoke void @_ZNK12CellAccessorILi3EE4faceEj(%class.TriaIterator.65* sret %20, %class.CellAccessor* %119, i32 %121)
          to label %122 unwind label %277

; <label>:122:                                    ; preds = %120
  %123 = load i32, i32* @x.9
  %124 = load i32, i32* @y.10
  %125 = sub i32 %123, 1
  %126 = mul i32 %123, %125
  %127 = urem i32 %126, 2
  %128 = icmp eq i32 %127, 0
  %129 = icmp slt i32 %124, 10
  %130 = or i1 %128, %129
  br i1 %130, label %originalBB10, label %originalBB10alteredBB

originalBB10:                                     ; preds = %122, %originalBB10alteredBB
  %131 = load %class.TriaIterator*, %class.TriaIterator** %5, align 8
  %132 = bitcast %class.TriaIterator* %131 to %class.TriaRawIterator*
  %133 = load i32, i32* @x.9
  %134 = load i32, i32* @y.10
  %135 = sub i32 %133, 1
  %136 = mul i32 %133, %135
  %137 = urem i32 %136, 2
  %138 = icmp eq i32 %137, 0
  %139 = icmp slt i32 %134, 10
  %140 = or i1 %138, %139
  br i1 %140, label %originalBBpart212, label %originalBB10alteredBB

originalBBpart212:                                ; preds = %originalBB10
  %141 = invoke %class.CellAccessor* @_ZNK15TriaRawIteratorILi3E12CellAccessorILi3EEEptEv(%class.TriaRawIterator* %132)
          to label %142 unwind label %277

; <label>:142:                                    ; preds = %originalBBpart212
  %143 = bitcast %class.CellAccessor* %141 to %class.TriaObjectAccessor*
  %144 = load i32, i32* %19, align 4
  %145 = invoke zeroext i1 @_ZNK18TriaObjectAccessorILi3ELi3EE16face_orientationEj(%class.TriaObjectAccessor* %143, i32 %144)
          to label %146 unwind label %277

; <label>:146:                                    ; preds = %142
  %147 = zext i1 %145 to i8
  store i8 %147, i8* %21, align 1
  %148 = load i8, i8* %21, align 1
  %149 = trunc i8 %148 to i1
  br i1 %149, label %150, label %154

; <label>:150:                                    ; preds = %146
  %151 = load i32, i32* %19, align 4
  %152 = zext i32 %151 to i64
  %153 = getelementptr inbounds [6 x [4 x i32]], [6 x [4 x i32]]* @_ZZNK8MappingQILi3EE23add_quad_support_pointsERK12TriaIteratorILi3E12CellAccessorILi3EEERSt6vectorI5PointILi3EESaIS9_EEE27face_vertex_to_cell_vertex1, i64 0, i64 %152
  br label %158

; <label>:154:                                    ; preds = %146
  %155 = load i32, i32* %19, align 4
  %156 = zext i32 %155 to i64
  %157 = getelementptr inbounds [6 x [4 x i32]], [6 x [4 x i32]]* @_ZZNK8MappingQILi3EE23add_quad_support_pointsERK12TriaIteratorILi3E12CellAccessorILi3EEERSt6vectorI5PointILi3EESaIS9_EEE27face_vertex_to_cell_vertex2, i64 0, i64 %156
  br label %158

; <label>:158:                                    ; preds = %154, %150
  %159 = phi [4 x i32]* [ %153, %150 ], [ %157, %154 ]
  %160 = getelementptr inbounds [4 x i32], [4 x i32]* %159, i32 0, i32 0
  store i32* %160, i32** %22, align 8
  %161 = load i8, i8* %21, align 1
  %162 = trunc i8 %161 to i1
  br i1 %162, label %163, label %167

; <label>:163:                                    ; preds = %158
  %164 = load i32, i32* %19, align 4
  %165 = zext i32 %164 to i64
  %166 = getelementptr inbounds [6 x [4 x i32]], [6 x [4 x i32]]* @_ZZNK8MappingQILi3EE23add_quad_support_pointsERK12TriaIteratorILi3E12CellAccessorILi3EEERSt6vectorI5PointILi3EESaIS9_EEE23face_line_to_cell_line1, i64 0, i64 %165
  br label %187

; <label>:167:                                    ; preds = %158
  %168 = load i32, i32* @x.9
  %169 = load i32, i32* @y.10
  %170 = sub i32 %168, 1
  %171 = mul i32 %168, %170
  %172 = urem i32 %171, 2
  %173 = icmp eq i32 %172, 0
  %174 = icmp slt i32 %169, 10
  %175 = or i1 %173, %174
  br i1 %175, label %originalBB14, label %originalBB14alteredBB

originalBB14:                                     ; preds = %167, %originalBB14alteredBB
  %176 = load i32, i32* %19, align 4
  %177 = zext i32 %176 to i64
  %178 = getelementptr inbounds [6 x [4 x i32]], [6 x [4 x i32]]* @_ZZNK8MappingQILi3EE23add_quad_support_pointsERK12TriaIteratorILi3E12CellAccessorILi3EEERSt6vectorI5PointILi3EESaIS9_EEE23face_line_to_cell_line2, i64 0, i64 %177
  %179 = load i32, i32* @x.9
  %180 = load i32, i32* @y.10
  %181 = sub i32 %179, 1
  %182 = mul i32 %179, %181
  %183 = urem i32 %182, 2
  %184 = icmp eq i32 %183, 0
  %185 = icmp slt i32 %180, 10
  %186 = or i1 %184, %185
  br i1 %186, label %originalBBpart216, label %originalBB14alteredBB

originalBBpart216:                                ; preds = %originalBB14
  br label %187

; <label>:187:                                    ; preds = %originalBBpart216, %163
  %188 = phi [4 x i32]* [ %166, %163 ], [ %178, %originalBBpart216 ]
  %189 = load i32, i32* @x.9
  %190 = load i32, i32* @y.10
  %191 = sub i32 %189, 1
  %192 = mul i32 %189, %191
  %193 = urem i32 %192, 2
  %194 = icmp eq i32 %193, 0
  %195 = icmp slt i32 %190, 10
  %196 = or i1 %194, %195
  br i1 %196, label %originalBB18, label %originalBB18alteredBB

originalBB18:                                     ; preds = %187, %originalBB18alteredBB
  %197 = getelementptr inbounds [4 x i32], [4 x i32]* %188, i32 0, i32 0
  store i32* %197, i32** %23, align 8
  store i32 0, i32* %24, align 4
  %198 = load i32, i32* @x.9
  %199 = load i32, i32* @y.10
  %200 = sub i32 %198, 1
  %201 = mul i32 %198, %200
  %202 = urem i32 %201, 2
  %203 = icmp eq i32 %202, 0
  %204 = icmp slt i32 %199, 10
  %205 = or i1 %203, %204
  br i1 %205, label %originalBBpart220, label %originalBB18alteredBB

originalBBpart220:                                ; preds = %originalBB18
  br label %206

; <label>:206:                                    ; preds = %226, %originalBBpart220
  %207 = load i32, i32* %24, align 4
  %208 = icmp ult i32 %207, 4
  br i1 %208, label %209, label %281

; <label>:209:                                    ; preds = %206
  %210 = load i32, i32* @x.9
  %211 = load i32, i32* @y.10
  %212 = sub i32 %210, 1
  %213 = mul i32 %210, %212
  %214 = urem i32 %213, 2
  %215 = icmp eq i32 %214, 0
  %216 = icmp slt i32 %211, 10
  %217 = or i1 %215, %216
  br i1 %217, label %originalBB22, label %originalBB22alteredBB

originalBB22:                                     ; preds = %209, %originalBB22alteredBB
  %218 = load i32, i32* @x.9
  %219 = load i32, i32* @y.10
  %220 = sub i32 %218, 1
  %221 = mul i32 %218, %220
  %222 = urem i32 %221, 2
  %223 = icmp eq i32 %222, 0
  %224 = icmp slt i32 %219, 10
  %225 = or i1 %223, %224
  br i1 %225, label %originalBBpart224, label %originalBB22alteredBB

originalBBpart224:                                ; preds = %originalBB22
  br label %226

; <label>:226:                                    ; preds = %originalBBpart224
  %227 = load i32, i32* %24, align 4
  %228 = add i32 %227, 1
  store i32 %228, i32* %24, align 4
  br label %206

; <label>:229:                                    ; preds = %originalBBpart2
  %230 = landingpad { i8*, i32 }
          cleanup
  %231 = extractvalue { i8*, i32 } %230, 0
  store i8* %231, i8** %11, align 8
  %232 = extractvalue { i8*, i32 } %230, 1
  store i32 %232, i32* %12, align 4
  call void @__cxa_guard_abort(i64* @_ZGVZNK8MappingQILi3EE23add_quad_support_pointsERK12TriaIteratorILi3E12CellAccessorILi3EEERSt6vectorI5PointILi3EESaIS9_EEE17straight_boundary) #2
  br label %941

; <label>:233:                                    ; preds = %65
  %234 = load i32, i32* @x.9
  %235 = load i32, i32* @y.10
  %236 = sub i32 %234, 1
  %237 = mul i32 %234, %236
  %238 = urem i32 %237, 2
  %239 = icmp eq i32 %238, 0
  %240 = icmp slt i32 %235, 10
  %241 = or i1 %239, %240
  br i1 %241, label %originalBB26, label %originalBB26alteredBB

originalBB26:                                     ; preds = %233, %originalBB26alteredBB
  %242 = landingpad { i8*, i32 }
          cleanup
  %243 = extractvalue { i8*, i32 } %242, 0
  store i8* %243, i8** %11, align 8
  %244 = extractvalue { i8*, i32 } %242, 1
  store i32 %244, i32* %12, align 4
  call void @_ZNSaI5PointILi3EEED2Ev(%"class.std::allocator.60"* %15) #2
  %245 = load i32, i32* @x.9
  %246 = load i32, i32* @y.10
  %247 = sub i32 %245, 1
  %248 = mul i32 %245, %247
  %249 = urem i32 %248, 2
  %250 = icmp eq i32 %249, 0
  %251 = icmp slt i32 %246, 10
  %252 = or i1 %250, %251
  br i1 %252, label %originalBBpart228, label %originalBB26alteredBB

originalBBpart228:                                ; preds = %originalBB26
  br label %941

; <label>:253:                                    ; preds = %920, %74
  %254 = landingpad { i8*, i32 }
          cleanup
  %255 = extractvalue { i8*, i32 } %254, 0
  store i8* %255, i8** %11, align 8
  %256 = extractvalue { i8*, i32 } %254, 1
  store i32 %256, i32* %12, align 4
  br label %939

; <label>:257:                                    ; preds = %originalBBpart24
  %258 = load i32, i32* @x.9
  %259 = load i32, i32* @y.10
  %260 = sub i32 %258, 1
  %261 = mul i32 %258, %260
  %262 = urem i32 %261, 2
  %263 = icmp eq i32 %262, 0
  %264 = icmp slt i32 %259, 10
  %265 = or i1 %263, %264
  br i1 %265, label %originalBB30, label %originalBB30alteredBB

originalBB30:                                     ; preds = %257, %originalBB30alteredBB
  %266 = landingpad { i8*, i32 }
          cleanup
  %267 = extractvalue { i8*, i32 } %266, 0
  store i8* %267, i8** %11, align 8
  %268 = extractvalue { i8*, i32 } %266, 1
  store i32 %268, i32* %12, align 4
  call void @_ZNSaI5PointILi3EEED2Ev(%"class.std::allocator.60"* %18) #2
  %269 = load i32, i32* @x.9
  %270 = load i32, i32* @y.10
  %271 = sub i32 %269, 1
  %272 = mul i32 %269, %271
  %273 = urem i32 %272, 2
  %274 = icmp eq i32 %273, 0
  %275 = icmp slt i32 %270, 10
  %276 = or i1 %274, %275
  br i1 %276, label %originalBBpart232, label %originalBB30alteredBB

originalBBpart232:                                ; preds = %originalBB30
  br label %939

; <label>:277:                                    ; preds = %890, %887, %originalBBpart2236, %originalBBpart2232, %847, %originalBBpart2224, %originalBBpart2220, %771, %originalBBpart2171, %originalBBpart2167, %originalBBpart2130, %589, %originalBBpart288, %560, %539, %534, %521, %originalBBpart280, %500, %497, %468, %465, %originalBBpart272, %originalBBpart268, %421, %originalBBpart264, %400, %originalBBpart260, %originalBBpart256, %originalBBpart252, %324, %321, %142, %originalBBpart212, %120, %116
  %278 = landingpad { i8*, i32 }
          cleanup
  %279 = extractvalue { i8*, i32 } %278, 0
  store i8* %279, i8** %11, align 8
  %280 = extractvalue { i8*, i32 } %278, 1
  store i32 %280, i32* %12, align 4
  invoke void @_ZNSt6vectorI5PointILi3EESaIS1_EED2Ev(%"class.std::vector.58"* %16)
          to label %938 unwind label %946

; <label>:281:                                    ; preds = %206
  store i32 0, i32* %25, align 4
  br label %282

; <label>:282:                                    ; preds = %originalBBpart244, %281
  %283 = load i32, i32* @x.9
  %284 = load i32, i32* @y.10
  %285 = sub i32 %283, 1
  %286 = mul i32 %283, %285
  %287 = urem i32 %286, 2
  %288 = icmp eq i32 %287, 0
  %289 = icmp slt i32 %284, 10
  %290 = or i1 %288, %289
  br i1 %290, label %originalBB34, label %originalBB34alteredBB

originalBB34:                                     ; preds = %282, %originalBB34alteredBB
  %291 = load i32, i32* %25, align 4
  %292 = icmp ult i32 %291, 4
  %293 = load i32, i32* @x.9
  %294 = load i32, i32* @y.10
  %295 = sub i32 %293, 1
  %296 = mul i32 %293, %295
  %297 = urem i32 %296, 2
  %298 = icmp eq i32 %297, 0
  %299 = icmp slt i32 %294, 10
  %300 = or i1 %298, %299
  br i1 %300, label %originalBBpart236, label %originalBB34alteredBB

originalBBpart236:                                ; preds = %originalBB34
  br i1 %292, label %301, label %321

; <label>:301:                                    ; preds = %originalBBpart236
  br label %302

; <label>:302:                                    ; preds = %301
  %303 = load i32, i32* @x.9
  %304 = load i32, i32* @y.10
  %305 = sub i32 %303, 1
  %306 = mul i32 %303, %305
  %307 = urem i32 %306, 2
  %308 = icmp eq i32 %307, 0
  %309 = icmp slt i32 %304, 10
  %310 = or i1 %308, %309
  br i1 %310, label %originalBB38, label %originalBB38alteredBB

originalBB38:                                     ; preds = %302, %originalBB38alteredBB
  %311 = load i32, i32* %25, align 4
  %312 = add i32 %311, 1
  store i32 %312, i32* %25, align 4
  %313 = load i32, i32* @x.9
  %314 = load i32, i32* @y.10
  %315 = sub i32 %313, 1
  %316 = mul i32 %313, %315
  %317 = urem i32 %316, 2
  %318 = icmp eq i32 %317, 0
  %319 = icmp slt i32 %314, 10
  %320 = or i1 %318, %319
  br i1 %320, label %originalBBpart244, label %originalBB38alteredBB

originalBBpart244:                                ; preds = %originalBB38
  br label %282

; <label>:321:                                    ; preds = %originalBBpart236
  %322 = bitcast %class.TriaIterator.65* %20 to %class.TriaRawIterator.66*
  %323 = invoke %class.TriaObjectAccessor.68* @_ZNK15TriaRawIteratorILi3E18TriaObjectAccessorILi2ELi3EEEptEv(%class.TriaRawIterator.66* %322)
          to label %324 unwind label %277

; <label>:324:                                    ; preds = %321
  %325 = invoke zeroext i1 @_ZNK18TriaObjectAccessorILi2ELi3EE11at_boundaryEv(%class.TriaObjectAccessor.68* %323)
          to label %326 unwind label %277

; <label>:326:                                    ; preds = %324
  %327 = load i32, i32* @x.9
  %328 = load i32, i32* @y.10
  %329 = sub i32 %327, 1
  %330 = mul i32 %327, %329
  %331 = urem i32 %330, 2
  %332 = icmp eq i32 %331, 0
  %333 = icmp slt i32 %328, 10
  %334 = or i1 %332, %333
  br i1 %334, label %originalBB46, label %originalBB46alteredBB

originalBB46:                                     ; preds = %326, %originalBB46alteredBB
  %335 = load i32, i32* @x.9
  %336 = load i32, i32* @y.10
  %337 = sub i32 %335, 1
  %338 = mul i32 %335, %337
  %339 = urem i32 %338, 2
  %340 = icmp eq i32 %339, 0
  %341 = icmp slt i32 %336, 10
  %342 = or i1 %340, %341
  br i1 %342, label %originalBBpart248, label %originalBB46alteredBB

originalBBpart248:                                ; preds = %originalBB46
  br i1 %325, label %343, label %477

; <label>:343:                                    ; preds = %originalBBpart248
  %344 = load i32, i32* @x.9
  %345 = load i32, i32* @y.10
  %346 = sub i32 %344, 1
  %347 = mul i32 %344, %346
  %348 = urem i32 %347, 2
  %349 = icmp eq i32 %348, 0
  %350 = icmp slt i32 %345, 10
  %351 = or i1 %349, %350
  br i1 %351, label %originalBB50, label %originalBB50alteredBB

originalBB50:                                     ; preds = %343, %originalBB50alteredBB
  %352 = bitcast %class.TriaIterator.65* %20 to %class.TriaRawIterator.66*
  %353 = load i32, i32* @x.9
  %354 = load i32, i32* @y.10
  %355 = sub i32 %353, 1
  %356 = mul i32 %353, %355
  %357 = urem i32 %356, 2
  %358 = icmp eq i32 %357, 0
  %359 = icmp slt i32 %354, 10
  %360 = or i1 %358, %359
  br i1 %360, label %originalBBpart252, label %originalBB50alteredBB

originalBBpart252:                                ; preds = %originalBB50
  %361 = invoke %class.TriaObjectAccessor.68* @_ZNK15TriaRawIteratorILi3E18TriaObjectAccessorILi2ELi3EEEptEv(%class.TriaRawIterator.66* %352)
          to label %362 unwind label %277

; <label>:362:                                    ; preds = %originalBBpart252
  %363 = load i32, i32* @x.9
  %364 = load i32, i32* @y.10
  %365 = sub i32 %363, 1
  %366 = mul i32 %363, %365
  %367 = urem i32 %366, 2
  %368 = icmp eq i32 %367, 0
  %369 = icmp slt i32 %364, 10
  %370 = or i1 %368, %369
  br i1 %370, label %originalBB54, label %originalBB54alteredBB

originalBB54:                                     ; preds = %362, %originalBB54alteredBB
  %371 = bitcast %class.TriaObjectAccessor.68* %361 to %class.TriaAccessor*
  %372 = load i32, i32* @x.9
  %373 = load i32, i32* @y.10
  %374 = sub i32 %372, 1
  %375 = mul i32 %372, %374
  %376 = urem i32 %375, 2
  %377 = icmp eq i32 %376, 0
  %378 = icmp slt i32 %373, 10
  %379 = or i1 %377, %378
  br i1 %379, label %originalBBpart256, label %originalBB54alteredBB

originalBBpart256:                                ; preds = %originalBB54
  %380 = invoke dereferenceable(2352) %class.Triangulation* @_ZNK12TriaAccessorILi3EE17get_triangulationEv(%class.TriaAccessor* %371)
          to label %381 unwind label %277

; <label>:381:                                    ; preds = %originalBBpart256
  %382 = load i32, i32* @x.9
  %383 = load i32, i32* @y.10
  %384 = sub i32 %382, 1
  %385 = mul i32 %382, %384
  %386 = urem i32 %385, 2
  %387 = icmp eq i32 %386, 0
  %388 = icmp slt i32 %383, 10
  %389 = or i1 %387, %388
  br i1 %389, label %originalBB58, label %originalBB58alteredBB

originalBB58:                                     ; preds = %381, %originalBB58alteredBB
  %390 = bitcast %class.TriaIterator.65* %20 to %class.TriaRawIterator.66*
  %391 = load i32, i32* @x.9
  %392 = load i32, i32* @y.10
  %393 = sub i32 %391, 1
  %394 = mul i32 %391, %393
  %395 = urem i32 %394, 2
  %396 = icmp eq i32 %395, 0
  %397 = icmp slt i32 %392, 10
  %398 = or i1 %396, %397
  br i1 %398, label %originalBBpart260, label %originalBB58alteredBB

originalBBpart260:                                ; preds = %originalBB58
  %399 = invoke %class.TriaObjectAccessor.68* @_ZNK15TriaRawIteratorILi3E18TriaObjectAccessorILi2ELi3EEEptEv(%class.TriaRawIterator.66* %390)
          to label %400 unwind label %277

; <label>:400:                                    ; preds = %originalBBpart260
  %401 = invoke zeroext i8 @_ZNK18TriaObjectAccessorILi2ELi3EE18boundary_indicatorEv(%class.TriaObjectAccessor.68* %399)
          to label %402 unwind label %277

; <label>:402:                                    ; preds = %400
  %403 = load i32, i32* @x.9
  %404 = load i32, i32* @y.10
  %405 = sub i32 %403, 1
  %406 = mul i32 %403, %405
  %407 = urem i32 %406, 2
  %408 = icmp eq i32 %407, 0
  %409 = icmp slt i32 %404, 10
  %410 = or i1 %408, %409
  br i1 %410, label %originalBB62, label %originalBB62alteredBB

originalBB62:                                     ; preds = %402, %originalBB62alteredBB
  %411 = zext i8 %401 to i32
  %412 = load i32, i32* @x.9
  %413 = load i32, i32* @y.10
  %414 = sub i32 %412, 1
  %415 = mul i32 %412, %414
  %416 = urem i32 %415, 2
  %417 = icmp eq i32 %416, 0
  %418 = icmp slt i32 %413, 10
  %419 = or i1 %417, %418
  br i1 %419, label %originalBBpart264, label %originalBB62alteredBB

originalBBpart264:                                ; preds = %originalBB62
  %420 = invoke dereferenceable(24) %class.Boundary* @_ZNK13TriangulationILi3EE12get_boundaryEj(%class.Triangulation* %380, i32 %411)
          to label %421 unwind label %277

; <label>:421:                                    ; preds = %originalBBpart264
  %422 = bitcast %class.Boundary* %420 to void (%class.Boundary*, %class.TriaIterator.65*, %"class.std::vector.58"*)***
  %423 = load void (%class.Boundary*, %class.TriaIterator.65*, %"class.std::vector.58"*)**, void (%class.Boundary*, %class.TriaIterator.65*, %"class.std::vector.58"*)*** %422, align 8
  %424 = getelementptr inbounds void (%class.Boundary*, %class.TriaIterator.65*, %"class.std::vector.58"*)*, void (%class.Boundary*, %class.TriaIterator.65*, %"class.std::vector.58"*)** %423, i64 5
  %425 = load void (%class.Boundary*, %class.TriaIterator.65*, %"class.std::vector.58"*)*, void (%class.Boundary*, %class.TriaIterator.65*, %"class.std::vector.58"*)** %424, align 8
  invoke void %425(%class.Boundary* %420, %class.TriaIterator.65* dereferenceable(16) %20, %"class.std::vector.58"* dereferenceable(24) %13)
          to label %426 unwind label %277

; <label>:426:                                    ; preds = %421
  %427 = load i32, i32* @x.9
  %428 = load i32, i32* @y.10
  %429 = sub i32 %427, 1
  %430 = mul i32 %427, %429
  %431 = urem i32 %430, 2
  %432 = icmp eq i32 %431, 0
  %433 = icmp slt i32 %428, 10
  %434 = or i1 %432, %433
  br i1 %434, label %originalBB66, label %originalBB66alteredBB

originalBB66:                                     ; preds = %426, %originalBB66alteredBB
  %435 = load %"class.std::vector.58"*, %"class.std::vector.58"** %6, align 8
  %436 = load %"class.std::vector.58"*, %"class.std::vector.58"** %6, align 8
  %437 = load i32, i32* @x.9
  %438 = load i32, i32* @y.10
  %439 = sub i32 %437, 1
  %440 = mul i32 %437, %439
  %441 = urem i32 %440, 2
  %442 = icmp eq i32 %441, 0
  %443 = icmp slt i32 %438, 10
  %444 = or i1 %442, %443
  br i1 %444, label %originalBBpart268, label %originalBB66alteredBB

originalBBpart268:                                ; preds = %originalBB66
  %445 = invoke %class.Point* @_ZNSt6vectorI5PointILi3EESaIS1_EE3endEv(%"class.std::vector.58"* %436)
          to label %446 unwind label %277

; <label>:446:                                    ; preds = %originalBBpart268
  %447 = load i32, i32* @x.9
  %448 = load i32, i32* @y.10
  %449 = sub i32 %447, 1
  %450 = mul i32 %447, %449
  %451 = urem i32 %450, 2
  %452 = icmp eq i32 %451, 0
  %453 = icmp slt i32 %448, 10
  %454 = or i1 %452, %453
  br i1 %454, label %originalBB70, label %originalBB70alteredBB

originalBB70:                                     ; preds = %446, %originalBB70alteredBB
  %455 = getelementptr inbounds %"class.__gnu_cxx::__normal_iterator", %"class.__gnu_cxx::__normal_iterator"* %26, i32 0, i32 0
  store %class.Point* %445, %class.Point** %455, align 8
  %456 = load i32, i32* @x.9
  %457 = load i32, i32* @y.10
  %458 = sub i32 %456, 1
  %459 = mul i32 %456, %458
  %460 = urem i32 %459, 2
  %461 = icmp eq i32 %460, 0
  %462 = icmp slt i32 %457, 10
  %463 = or i1 %461, %462
  br i1 %463, label %originalBBpart272, label %originalBB70alteredBB

originalBBpart272:                                ; preds = %originalBB70
  %464 = invoke %class.Point* @_ZNSt6vectorI5PointILi3EESaIS1_EE5beginEv(%"class.std::vector.58"* %13)
          to label %465 unwind label %277

; <label>:465:                                    ; preds = %originalBBpart272
  %466 = getelementptr inbounds %"class.__gnu_cxx::__normal_iterator", %"class.__gnu_cxx::__normal_iterator"* %27, i32 0, i32 0
  store %class.Point* %464, %class.Point** %466, align 8
  %467 = invoke %class.Point* @_ZNSt6vectorI5PointILi3EESaIS1_EE3endEv(%"class.std::vector.58"* %13)
          to label %468 unwind label %277

; <label>:468:                                    ; preds = %465
  %469 = getelementptr inbounds %"class.__gnu_cxx::__normal_iterator", %"class.__gnu_cxx::__normal_iterator"* %28, i32 0, i32 0
  store %class.Point* %467, %class.Point** %469, align 8
  %470 = getelementptr inbounds %"class.__gnu_cxx::__normal_iterator", %"class.__gnu_cxx::__normal_iterator"* %26, i32 0, i32 0
  %471 = load %class.Point*, %class.Point** %470, align 8
  %472 = getelementptr inbounds %"class.__gnu_cxx::__normal_iterator", %"class.__gnu_cxx::__normal_iterator"* %27, i32 0, i32 0
  %473 = load %class.Point*, %class.Point** %472, align 8
  %474 = getelementptr inbounds %"class.__gnu_cxx::__normal_iterator", %"class.__gnu_cxx::__normal_iterator"* %28, i32 0, i32 0
  %475 = load %class.Point*, %class.Point** %474, align 8
  invoke void @_ZNSt6vectorI5PointILi3EESaIS1_EE6insertIN9__gnu_cxx17__normal_iteratorIPS1_S3_EEEEvS8_T_S9_(%"class.std::vector.58"* %435, %class.Point* %471, %class.Point* %473, %class.Point* %475)
          to label %476 unwind label %277

; <label>:476:                                    ; preds = %468
  br label %916

; <label>:477:                                    ; preds = %originalBBpart248
  %478 = load i32, i32* @x.9
  %479 = load i32, i32* @y.10
  %480 = sub i32 %478, 1
  %481 = mul i32 %478, %480
  %482 = urem i32 %481, 2
  %483 = icmp eq i32 %482, 0
  %484 = icmp slt i32 %479, 10
  %485 = or i1 %483, %484
  br i1 %485, label %originalBB74, label %originalBB74alteredBB

originalBB74:                                     ; preds = %477, %originalBB74alteredBB
  store i32 0, i32* %29, align 4
  store i32 0, i32* %30, align 4
  %486 = load i32, i32* @x.9
  %487 = load i32, i32* @y.10
  %488 = sub i32 %486, 1
  %489 = mul i32 %486, %488
  %490 = urem i32 %489, 2
  %491 = icmp eq i32 %490, 0
  %492 = icmp slt i32 %487, 10
  %493 = or i1 %491, %492
  br i1 %493, label %originalBBpart276, label %originalBB74alteredBB

originalBBpart276:                                ; preds = %originalBB74
  br label %494

; <label>:494:                                    ; preds = %528, %originalBBpart276
  %495 = load i32, i32* %30, align 4
  %496 = icmp ult i32 %495, 4
  br i1 %496, label %497, label %531

; <label>:497:                                    ; preds = %494
  %498 = bitcast %class.TriaIterator.65* %20 to %class.TriaRawIterator.66*
  %499 = invoke %class.TriaObjectAccessor.68* @_ZNK15TriaRawIteratorILi3E18TriaObjectAccessorILi2ELi3EEEptEv(%class.TriaRawIterator.66* %498)
          to label %500 unwind label %277

; <label>:500:                                    ; preds = %497
  %501 = load i32, i32* %30, align 4
  invoke void @_ZNK18TriaObjectAccessorILi2ELi3EE4lineEj(%class.TriaIterator.69* sret %31, %class.TriaObjectAccessor.68* %499, i32 %501)
          to label %502 unwind label %277

; <label>:502:                                    ; preds = %500
  %503 = load i32, i32* @x.9
  %504 = load i32, i32* @y.10
  %505 = sub i32 %503, 1
  %506 = mul i32 %503, %505
  %507 = urem i32 %506, 2
  %508 = icmp eq i32 %507, 0
  %509 = icmp slt i32 %504, 10
  %510 = or i1 %508, %509
  br i1 %510, label %originalBB78, label %originalBB78alteredBB

originalBB78:                                     ; preds = %502, %originalBB78alteredBB
  %511 = bitcast %class.TriaIterator.69* %31 to %class.TriaRawIterator.70*
  %512 = load i32, i32* @x.9
  %513 = load i32, i32* @y.10
  %514 = sub i32 %512, 1
  %515 = mul i32 %512, %514
  %516 = urem i32 %515, 2
  %517 = icmp eq i32 %516, 0
  %518 = icmp slt i32 %513, 10
  %519 = or i1 %517, %518
  br i1 %519, label %originalBBpart280, label %originalBB78alteredBB

originalBBpart280:                                ; preds = %originalBB78
  %520 = invoke %class.TriaObjectAccessor.72* @_ZN15TriaRawIteratorILi3E18TriaObjectAccessorILi1ELi3EEEptEv(%class.TriaRawIterator.70* %511)
          to label %521 unwind label %277

; <label>:521:                                    ; preds = %originalBBpart280
  %522 = invoke zeroext i1 @_ZNK18TriaObjectAccessorILi1ELi3EE11at_boundaryEv(%class.TriaObjectAccessor.72* %520)
          to label %523 unwind label %277

; <label>:523:                                    ; preds = %521
  br i1 %522, label %524, label %527

; <label>:524:                                    ; preds = %523
  %525 = load i32, i32* %29, align 4
  %526 = add i32 %525, 1
  store i32 %526, i32* %29, align 4
  br label %527

; <label>:527:                                    ; preds = %524, %523
  br label %528

; <label>:528:                                    ; preds = %527
  %529 = load i32, i32* %30, align 4
  %530 = add i32 %529, 1
  store i32 %530, i32* %30, align 4
  br label %494

; <label>:531:                                    ; preds = %494
  %532 = load i32, i32* %29, align 4
  %533 = icmp ugt i32 %532, 0
  br i1 %533, label %534, label %847

; <label>:534:                                    ; preds = %531
  %535 = getelementptr inbounds %class.MappingQ, %class.MappingQ* %40, i32 0, i32 3
  %536 = load i32, i32* %535, align 8
  %537 = mul i32 4, %536
  %538 = zext i32 %537 to i64
  invoke void @_ZN5PointILi3EEC2Ev(%class.Point* %32)
          to label %539 unwind label %277

; <label>:539:                                    ; preds = %534
  invoke void @_ZNSt6vectorI5PointILi3EESaIS1_EE6resizeEmS1_(%"class.std::vector.58"* %16, i64 %538, %class.Point* %32)
          to label %540 unwind label %277

; <label>:540:                                    ; preds = %539
  store i32 0, i32* %33, align 4
  br label %541

; <label>:541:                                    ; preds = %originalBBpart299, %540
  %542 = load i32, i32* @x.9
  %543 = load i32, i32* @y.10
  %544 = sub i32 %542, 1
  %545 = mul i32 %542, %544
  %546 = urem i32 %545, 2
  %547 = icmp eq i32 %546, 0
  %548 = icmp slt i32 %543, 10
  %549 = or i1 %547, %548
  br i1 %549, label %originalBB82, label %originalBB82alteredBB

originalBB82:                                     ; preds = %541, %originalBB82alteredBB
  %550 = load i32, i32* %33, align 4
  %551 = icmp ult i32 %550, 4
  %552 = load i32, i32* @x.9
  %553 = load i32, i32* @y.10
  %554 = sub i32 %552, 1
  %555 = mul i32 %552, %554
  %556 = urem i32 %555, 2
  %557 = icmp eq i32 %556, 0
  %558 = icmp slt i32 %553, 10
  %559 = or i1 %557, %558
  br i1 %559, label %originalBBpart284, label %originalBB82alteredBB

originalBBpart284:                                ; preds = %originalBB82
  br i1 %551, label %560, label %611

; <label>:560:                                    ; preds = %originalBBpart284
  %561 = load %"class.std::vector.58"*, %"class.std::vector.58"** %6, align 8
  %562 = load i32*, i32** %22, align 8
  %563 = load i32, i32* %33, align 4
  %564 = zext i32 %563 to i64
  %565 = getelementptr inbounds i32, i32* %562, i64 %564
  %566 = load i32, i32* %565, align 4
  %567 = zext i32 %566 to i64
  %568 = invoke dereferenceable(24) %class.Point* @_ZNSt6vectorI5PointILi3EESaIS1_EEixEm(%"class.std::vector.58"* %561, i64 %567)
          to label %569 unwind label %277

; <label>:569:                                    ; preds = %560
  %570 = load i32, i32* @x.9
  %571 = load i32, i32* @y.10
  %572 = sub i32 %570, 1
  %573 = mul i32 %570, %572
  %574 = urem i32 %573, 2
  %575 = icmp eq i32 %574, 0
  %576 = icmp slt i32 %571, 10
  %577 = or i1 %575, %576
  br i1 %577, label %originalBB86, label %originalBB86alteredBB

originalBB86:                                     ; preds = %569, %originalBB86alteredBB
  %578 = load i32, i32* %33, align 4
  %579 = zext i32 %578 to i64
  %580 = load i32, i32* @x.9
  %581 = load i32, i32* @y.10
  %582 = sub i32 %580, 1
  %583 = mul i32 %580, %582
  %584 = urem i32 %583, 2
  %585 = icmp eq i32 %584, 0
  %586 = icmp slt i32 %581, 10
  %587 = or i1 %585, %586
  br i1 %587, label %originalBBpart288, label %originalBB86alteredBB

originalBBpart288:                                ; preds = %originalBB86
  %588 = invoke dereferenceable(24) %class.Point* @_ZNSt6vectorI5PointILi3EESaIS1_EEixEm(%"class.std::vector.58"* %16, i64 %579)
          to label %589 unwind label %277

; <label>:589:                                    ; preds = %originalBBpart288
  %590 = invoke dereferenceable(24) %class.Point* @_ZN5PointILi3EEaSERKS0_(%class.Point* %588, %class.Point* dereferenceable(24) %568)
          to label %591 unwind label %277

; <label>:591:                                    ; preds = %589
  br label %592

; <label>:592:                                    ; preds = %591
  %593 = load i32, i32* @x.9
  %594 = load i32, i32* @y.10
  %595 = sub i32 %593, 1
  %596 = mul i32 %593, %595
  %597 = urem i32 %596, 2
  %598 = icmp eq i32 %597, 0
  %599 = icmp slt i32 %594, 10
  %600 = or i1 %598, %599
  br i1 %600, label %originalBB90, label %originalBB90alteredBB

originalBB90:                                     ; preds = %592, %originalBB90alteredBB
  %601 = load i32, i32* %33, align 4
  %602 = add i32 %601, 1
  store i32 %602, i32* %33, align 4
  %603 = load i32, i32* @x.9
  %604 = load i32, i32* @y.10
  %605 = sub i32 %603, 1
  %606 = mul i32 %603, %605
  %607 = urem i32 %606, 2
  %608 = icmp eq i32 %607, 0
  %609 = icmp slt i32 %604, 10
  %610 = or i1 %608, %609
  br i1 %610, label %originalBBpart299, label %originalBB90alteredBB

originalBBpart299:                                ; preds = %originalBB90
  br label %541

; <label>:611:                                    ; preds = %originalBBpart284
  %612 = load i32, i32* @x.9
  %613 = load i32, i32* @y.10
  %614 = sub i32 %612, 1
  %615 = mul i32 %612, %614
  %616 = urem i32 %615, 2
  %617 = icmp eq i32 %616, 0
  %618 = icmp slt i32 %613, 10
  %619 = or i1 %617, %618
  br i1 %619, label %originalBB101, label %originalBB101alteredBB

originalBB101:                                    ; preds = %611, %originalBB101alteredBB
  store i32 0, i32* %34, align 4
  %620 = load i32, i32* @x.9
  %621 = load i32, i32* @y.10
  %622 = sub i32 %620, 1
  %623 = mul i32 %620, %622
  %624 = urem i32 %623, 2
  %625 = icmp eq i32 %624, 0
  %626 = icmp slt i32 %621, 10
  %627 = or i1 %625, %626
  br i1 %627, label %originalBBpart2103, label %originalBB101alteredBB

originalBBpart2103:                               ; preds = %originalBB101
  br label %628

; <label>:628:                                    ; preds = %originalBBpart2183, %originalBBpart2103
  %629 = load i32, i32* @x.9
  %630 = load i32, i32* @y.10
  %631 = sub i32 %629, 1
  %632 = mul i32 %629, %631
  %633 = urem i32 %632, 2
  %634 = icmp eq i32 %633, 0
  %635 = icmp slt i32 %630, 10
  %636 = or i1 %634, %635
  br i1 %636, label %originalBB105, label %originalBB105alteredBB

originalBB105:                                    ; preds = %628, %originalBB105alteredBB
  %637 = load i32, i32* %34, align 4
  %638 = icmp ult i32 %637, 4
  %639 = load i32, i32* @x.9
  %640 = load i32, i32* @y.10
  %641 = sub i32 %639, 1
  %642 = mul i32 %639, %641
  %643 = urem i32 %642, 2
  %644 = icmp eq i32 %643, 0
  %645 = icmp slt i32 %640, 10
  %646 = or i1 %644, %645
  br i1 %646, label %originalBBpart2107, label %originalBB105alteredBB

originalBBpart2107:                               ; preds = %originalBB105
  br i1 %638, label %647, label %771

; <label>:647:                                    ; preds = %originalBBpart2107
  store i32 0, i32* %35, align 4
  br label %648

; <label>:648:                                    ; preds = %748, %647
  %649 = load i32, i32* %35, align 4
  %650 = getelementptr inbounds %class.MappingQ, %class.MappingQ* %40, i32 0, i32 3
  %651 = load i32, i32* %650, align 8
  %652 = sub i32 %651, 1
  %653 = icmp ult i32 %649, %652
  br i1 %653, label %654, label %751

; <label>:654:                                    ; preds = %648
  %655 = load i32, i32* @x.9
  %656 = load i32, i32* @y.10
  %657 = sub i32 %655, 1
  %658 = mul i32 %655, %657
  %659 = urem i32 %658, 2
  %660 = icmp eq i32 %659, 0
  %661 = icmp slt i32 %656, 10
  %662 = or i1 %660, %661
  br i1 %662, label %originalBB109, label %originalBB109alteredBB

originalBB109:                                    ; preds = %654, %originalBB109alteredBB
  %663 = load %"class.std::vector.58"*, %"class.std::vector.58"** %6, align 8
  %664 = load i32*, i32** %23, align 8
  %665 = load i32, i32* %34, align 4
  %666 = zext i32 %665 to i64
  %667 = getelementptr inbounds i32, i32* %664, i64 %666
  %668 = load i32, i32* %667, align 4
  %669 = getelementptr inbounds %class.MappingQ, %class.MappingQ* %40, i32 0, i32 3
  %670 = load i32, i32* %669, align 8
  %671 = sub i32 %670, 1
  %672 = mul i32 %668, %671
  %673 = add i32 8, %672
  %674 = load i32, i32* %35, align 4
  %675 = add i32 %673, %674
  %676 = zext i32 %675 to i64
  %677 = load i32, i32* @x.9
  %678 = load i32, i32* @y.10
  %679 = sub i32 %677, 1
  %680 = mul i32 %677, %679
  %681 = urem i32 %680, 2
  %682 = icmp eq i32 %681, 0
  %683 = icmp slt i32 %678, 10
  %684 = or i1 %682, %683
  br i1 %684, label %originalBBpart2130, label %originalBB109alteredBB

originalBBpart2130:                               ; preds = %originalBB109
  %685 = invoke dereferenceable(24) %class.Point* @_ZNSt6vectorI5PointILi3EESaIS1_EEixEm(%"class.std::vector.58"* %663, i64 %676)
          to label %686 unwind label %277

; <label>:686:                                    ; preds = %originalBBpart2130
  %687 = load i32, i32* @x.9
  %688 = load i32, i32* @y.10
  %689 = sub i32 %687, 1
  %690 = mul i32 %687, %689
  %691 = urem i32 %690, 2
  %692 = icmp eq i32 %691, 0
  %693 = icmp slt i32 %688, 10
  %694 = or i1 %692, %693
  br i1 %694, label %originalBB132, label %originalBB132alteredBB

originalBB132:                                    ; preds = %686, %originalBB132alteredBB
  %695 = load i32, i32* %34, align 4
  %696 = getelementptr inbounds %class.MappingQ, %class.MappingQ* %40, i32 0, i32 3
  %697 = load i32, i32* %696, align 8
  %698 = sub i32 %697, 1
  %699 = mul i32 %695, %698
  %700 = add i32 4, %699
  %701 = load i32, i32* %35, align 4
  %702 = add i32 %700, %701
  %703 = zext i32 %702 to i64
  %704 = load i32, i32* @x.9
  %705 = load i32, i32* @y.10
  %706 = sub i32 %704, 1
  %707 = mul i32 %704, %706
  %708 = urem i32 %707, 2
  %709 = icmp eq i32 %708, 0
  %710 = icmp slt i32 %705, 10
  %711 = or i1 %709, %710
  br i1 %711, label %originalBBpart2167, label %originalBB132alteredBB

originalBBpart2167:                               ; preds = %originalBB132
  %712 = invoke dereferenceable(24) %class.Point* @_ZNSt6vectorI5PointILi3EESaIS1_EEixEm(%"class.std::vector.58"* %16, i64 %703)
          to label %713 unwind label %277

; <label>:713:                                    ; preds = %originalBBpart2167
  %714 = load i32, i32* @x.9
  %715 = load i32, i32* @y.10
  %716 = sub i32 %714, 1
  %717 = mul i32 %714, %716
  %718 = urem i32 %717, 2
  %719 = icmp eq i32 %718, 0
  %720 = icmp slt i32 %715, 10
  %721 = or i1 %719, %720
  br i1 %721, label %originalBB169, label %originalBB169alteredBB

originalBB169:                                    ; preds = %713, %originalBB169alteredBB
  %722 = load i32, i32* @x.9
  %723 = load i32, i32* @y.10
  %724 = sub i32 %722, 1
  %725 = mul i32 %722, %724
  %726 = urem i32 %725, 2
  %727 = icmp eq i32 %726, 0
  %728 = icmp slt i32 %723, 10
  %729 = or i1 %727, %728
  br i1 %729, label %originalBBpart2171, label %originalBB169alteredBB

originalBBpart2171:                               ; preds = %originalBB169
  %730 = invoke dereferenceable(24) %class.Point* @_ZN5PointILi3EEaSERKS0_(%class.Point* %712, %class.Point* dereferenceable(24) %685)
          to label %731 unwind label %277

; <label>:731:                                    ; preds = %originalBBpart2171
  %732 = load i32, i32* @x.9
  %733 = load i32, i32* @y.10
  %734 = sub i32 %732, 1
  %735 = mul i32 %732, %734
  %736 = urem i32 %735, 2
  %737 = icmp eq i32 %736, 0
  %738 = icmp slt i32 %733, 10
  %739 = or i1 %737, %738
  br i1 %739, label %originalBB173, label %originalBB173alteredBB

originalBB173:                                    ; preds = %731, %originalBB173alteredBB
  %740 = load i32, i32* @x.9
  %741 = load i32, i32* @y.10
  %742 = sub i32 %740, 1
  %743 = mul i32 %740, %742
  %744 = urem i32 %743, 2
  %745 = icmp eq i32 %744, 0
  %746 = icmp slt i32 %741, 10
  %747 = or i1 %745, %746
  br i1 %747, label %originalBBpart2175, label %originalBB173alteredBB

originalBBpart2175:                               ; preds = %originalBB173
  br label %748

; <label>:748:                                    ; preds = %originalBBpart2175
  %749 = load i32, i32* %35, align 4
  %750 = add i32 %749, 1
  store i32 %750, i32* %35, align 4
  br label %648

; <label>:751:                                    ; preds = %648
  br label %752

; <label>:752:                                    ; preds = %751
  %753 = load i32, i32* @x.9
  %754 = load i32, i32* @y.10
  %755 = sub i32 %753, 1
  %756 = mul i32 %753, %755
  %757 = urem i32 %756, 2
  %758 = icmp eq i32 %757, 0
  %759 = icmp slt i32 %754, 10
  %760 = or i1 %758, %759
  br i1 %760, label %originalBB177, label %originalBB177alteredBB

originalBB177:                                    ; preds = %752, %originalBB177alteredBB
  %761 = load i32, i32* %34, align 4
  %762 = add i32 %761, 1
  store i32 %762, i32* %34, align 4
  %763 = load i32, i32* @x.9
  %764 = load i32, i32* @y.10
  %765 = sub i32 %763, 1
  %766 = mul i32 %763, %765
  %767 = urem i32 %766, 2
  %768 = icmp eq i32 %767, 0
  %769 = icmp slt i32 %764, 10
  %770 = or i1 %768, %769
  br i1 %770, label %originalBBpart2183, label %originalBB177alteredBB

originalBBpart2183:                               ; preds = %originalBB177
  br label %628

; <label>:771:                                    ; preds = %originalBBpart2107
  %772 = getelementptr inbounds %class.MappingQ, %class.MappingQ* %40, i32 0, i32 1
  invoke void @_ZNK8MappingQILi3EE20apply_laplace_vectorERK5TableILi2EdERSt6vectorI5PointILi3EESaIS7_EE(%class.MappingQ* %40, %class.Table* dereferenceable(48) %772, %"class.std::vector.58"* dereferenceable(24) %16)
          to label %773 unwind label %277

; <label>:773:                                    ; preds = %771
  store i32 0, i32* %36, align 4
  br label %774

; <label>:774:                                    ; preds = %827, %773
  %775 = load i32, i32* %36, align 4
  %776 = getelementptr inbounds %class.MappingQ, %class.MappingQ* %40, i32 0, i32 3
  %777 = load i32, i32* %776, align 8
  %778 = sub i32 %777, 1
  %779 = getelementptr inbounds %class.MappingQ, %class.MappingQ* %40, i32 0, i32 3
  %780 = load i32, i32* %779, align 8
  %781 = sub i32 %780, 1
  %782 = mul i32 %778, %781
  %783 = icmp ult i32 %775, %782
  br i1 %783, label %784, label %830

; <label>:784:                                    ; preds = %774
  %785 = load i32, i32* @x.9
  %786 = load i32, i32* @y.10
  %787 = sub i32 %785, 1
  %788 = mul i32 %785, %787
  %789 = urem i32 %788, 2
  %790 = icmp eq i32 %789, 0
  %791 = icmp slt i32 %786, 10
  %792 = or i1 %790, %791
  br i1 %792, label %originalBB185, label %originalBB185alteredBB

originalBB185:                                    ; preds = %784, %originalBB185alteredBB
  %793 = load %"class.std::vector.58"*, %"class.std::vector.58"** %6, align 8
  %794 = getelementptr inbounds %class.MappingQ, %class.MappingQ* %40, i32 0, i32 3
  %795 = load i32, i32* %794, align 8
  %796 = mul i32 4, %795
  %797 = load i32, i32* %36, align 4
  %798 = add i32 %796, %797
  %799 = zext i32 %798 to i64
  %800 = load i32, i32* @x.9
  %801 = load i32, i32* @y.10
  %802 = sub i32 %800, 1
  %803 = mul i32 %800, %802
  %804 = urem i32 %803, 2
  %805 = icmp eq i32 %804, 0
  %806 = icmp slt i32 %801, 10
  %807 = or i1 %805, %806
  br i1 %807, label %originalBBpart2220, label %originalBB185alteredBB

originalBBpart2220:                               ; preds = %originalBB185
  %808 = invoke dereferenceable(24) %class.Point* @_ZNSt6vectorI5PointILi3EESaIS1_EEixEm(%"class.std::vector.58"* %16, i64 %799)
          to label %809 unwind label %277

; <label>:809:                                    ; preds = %originalBBpart2220
  %810 = load i32, i32* @x.9
  %811 = load i32, i32* @y.10
  %812 = sub i32 %810, 1
  %813 = mul i32 %810, %812
  %814 = urem i32 %813, 2
  %815 = icmp eq i32 %814, 0
  %816 = icmp slt i32 %811, 10
  %817 = or i1 %815, %816
  br i1 %817, label %originalBB222, label %originalBB222alteredBB

originalBB222:                                    ; preds = %809, %originalBB222alteredBB
  %818 = load i32, i32* @x.9
  %819 = load i32, i32* @y.10
  %820 = sub i32 %818, 1
  %821 = mul i32 %818, %820
  %822 = urem i32 %821, 2
  %823 = icmp eq i32 %822, 0
  %824 = icmp slt i32 %819, 10
  %825 = or i1 %823, %824
  br i1 %825, label %originalBBpart2224, label %originalBB222alteredBB

originalBBpart2224:                               ; preds = %originalBB222
  invoke void @_ZNSt6vectorI5PointILi3EESaIS1_EE9push_backERKS1_(%"class.std::vector.58"* %793, %class.Point* dereferenceable(24) %808)
          to label %826 unwind label %277

; <label>:826:                                    ; preds = %originalBBpart2224
  br label %827

; <label>:827:                                    ; preds = %826
  %828 = load i32, i32* %36, align 4
  %829 = add i32 %828, 1
  store i32 %829, i32* %36, align 4
  br label %774

; <label>:830:                                    ; preds = %774
  %831 = load i32, i32* @x.9
  %832 = load i32, i32* @y.10
  %833 = sub i32 %831, 1
  %834 = mul i32 %831, %833
  %835 = urem i32 %834, 2
  %836 = icmp eq i32 %835, 0
  %837 = icmp slt i32 %832, 10
  %838 = or i1 %836, %837
  br i1 %838, label %originalBB226, label %originalBB226alteredBB

originalBB226:                                    ; preds = %830, %originalBB226alteredBB
  %839 = load i32, i32* @x.9
  %840 = load i32, i32* @y.10
  %841 = sub i32 %839, 1
  %842 = mul i32 %839, %841
  %843 = urem i32 %842, 2
  %844 = icmp eq i32 %843, 0
  %845 = icmp slt i32 %840, 10
  %846 = or i1 %844, %845
  br i1 %846, label %originalBBpart2228, label %originalBB226alteredBB

originalBBpart2228:                               ; preds = %originalBB226
  br label %915

; <label>:847:                                    ; preds = %531
  invoke void @_ZNK16StraightBoundaryILi3EE31get_intermediate_points_on_quadERK12TriaIteratorILi3E18TriaObjectAccessorILi2ELi3EEERSt6vectorI5PointILi3EESaIS9_EE(%class.StraightBoundary* @_ZZNK8MappingQILi3EE23add_quad_support_pointsERK12TriaIteratorILi3E12CellAccessorILi3EEERSt6vectorI5PointILi3EESaIS9_EEE17straight_boundary, %class.TriaIterator.65* dereferenceable(16) %20, %"class.std::vector.58"* dereferenceable(24) %13)
          to label %848 unwind label %277

; <label>:848:                                    ; preds = %847
  %849 = load i32, i32* @x.9
  %850 = load i32, i32* @y.10
  %851 = sub i32 %849, 1
  %852 = mul i32 %849, %851
  %853 = urem i32 %852, 2
  %854 = icmp eq i32 %853, 0
  %855 = icmp slt i32 %850, 10
  %856 = or i1 %854, %855
  br i1 %856, label %originalBB230, label %originalBB230alteredBB

originalBB230:                                    ; preds = %848, %originalBB230alteredBB
  %857 = load %"class.std::vector.58"*, %"class.std::vector.58"** %6, align 8
  %858 = load %"class.std::vector.58"*, %"class.std::vector.58"** %6, align 8
  %859 = load i32, i32* @x.9
  %860 = load i32, i32* @y.10
  %861 = sub i32 %859, 1
  %862 = mul i32 %859, %861
  %863 = urem i32 %862, 2
  %864 = icmp eq i32 %863, 0
  %865 = icmp slt i32 %860, 10
  %866 = or i1 %864, %865
  br i1 %866, label %originalBBpart2232, label %originalBB230alteredBB

originalBBpart2232:                               ; preds = %originalBB230
  %867 = invoke %class.Point* @_ZNSt6vectorI5PointILi3EESaIS1_EE3endEv(%"class.std::vector.58"* %858)
          to label %868 unwind label %277

; <label>:868:                                    ; preds = %originalBBpart2232
  %869 = load i32, i32* @x.9
  %870 = load i32, i32* @y.10
  %871 = sub i32 %869, 1
  %872 = mul i32 %869, %871
  %873 = urem i32 %872, 2
  %874 = icmp eq i32 %873, 0
  %875 = icmp slt i32 %870, 10
  %876 = or i1 %874, %875
  br i1 %876, label %originalBB234, label %originalBB234alteredBB

originalBB234:                                    ; preds = %868, %originalBB234alteredBB
  %877 = getelementptr inbounds %"class.__gnu_cxx::__normal_iterator", %"class.__gnu_cxx::__normal_iterator"* %37, i32 0, i32 0
  store %class.Point* %867, %class.Point** %877, align 8
  %878 = load i32, i32* @x.9
  %879 = load i32, i32* @y.10
  %880 = sub i32 %878, 1
  %881 = mul i32 %878, %880
  %882 = urem i32 %881, 2
  %883 = icmp eq i32 %882, 0
  %884 = icmp slt i32 %879, 10
  %885 = or i1 %883, %884
  br i1 %885, label %originalBBpart2236, label %originalBB234alteredBB

originalBBpart2236:                               ; preds = %originalBB234
  %886 = invoke %class.Point* @_ZNSt6vectorI5PointILi3EESaIS1_EE5beginEv(%"class.std::vector.58"* %13)
          to label %887 unwind label %277

; <label>:887:                                    ; preds = %originalBBpart2236
  %888 = getelementptr inbounds %"class.__gnu_cxx::__normal_iterator", %"class.__gnu_cxx::__normal_iterator"* %38, i32 0, i32 0
  store %class.Point* %886, %class.Point** %888, align 8
  %889 = invoke %class.Point* @_ZNSt6vectorI5PointILi3EESaIS1_EE3endEv(%"class.std::vector.58"* %13)
          to label %890 unwind label %277

; <label>:890:                                    ; preds = %887
  %891 = getelementptr inbounds %"class.__gnu_cxx::__normal_iterator", %"class.__gnu_cxx::__normal_iterator"* %39, i32 0, i32 0
  store %class.Point* %889, %class.Point** %891, align 8
  %892 = getelementptr inbounds %"class.__gnu_cxx::__normal_iterator", %"class.__gnu_cxx::__normal_iterator"* %37, i32 0, i32 0
  %893 = load %class.Point*, %class.Point** %892, align 8
  %894 = getelementptr inbounds %"class.__gnu_cxx::__normal_iterator", %"class.__gnu_cxx::__normal_iterator"* %38, i32 0, i32 0
  %895 = load %class.Point*, %class.Point** %894, align 8
  %896 = getelementptr inbounds %"class.__gnu_cxx::__normal_iterator", %"class.__gnu_cxx::__normal_iterator"* %39, i32 0, i32 0
  %897 = load %class.Point*, %class.Point** %896, align 8
  invoke void @_ZNSt6vectorI5PointILi3EESaIS1_EE6insertIN9__gnu_cxx17__normal_iteratorIPS1_S3_EEEEvS8_T_S9_(%"class.std::vector.58"* %857, %class.Point* %893, %class.Point* %895, %class.Point* %897)
          to label %898 unwind label %277

; <label>:898:                                    ; preds = %890
  %899 = load i32, i32* @x.9
  %900 = load i32, i32* @y.10
  %901 = sub i32 %899, 1
  %902 = mul i32 %899, %901
  %903 = urem i32 %902, 2
  %904 = icmp eq i32 %903, 0
  %905 = icmp slt i32 %900, 10
  %906 = or i1 %904, %905
  br i1 %906, label %originalBB238, label %originalBB238alteredBB

originalBB238:                                    ; preds = %898, %originalBB238alteredBB
  %907 = load i32, i32* @x.9
  %908 = load i32, i32* @y.10
  %909 = sub i32 %907, 1
  %910 = mul i32 %907, %909
  %911 = urem i32 %910, 2
  %912 = icmp eq i32 %911, 0
  %913 = icmp slt i32 %908, 10
  %914 = or i1 %912, %913
  br i1 %914, label %originalBBpart2240, label %originalBB238alteredBB

originalBBpart2240:                               ; preds = %originalBB238
  br label %915

; <label>:915:                                    ; preds = %originalBBpart2240, %originalBBpart2228
  br label %916

; <label>:916:                                    ; preds = %915, %476
  br label %917

; <label>:917:                                    ; preds = %916
  %918 = load i32, i32* %19, align 4
  %919 = add i32 %918, 1
  store i32 %919, i32* %19, align 4
  br label %97

; <label>:920:                                    ; preds = %originalBBpart28
  invoke void @_ZNSt6vectorI5PointILi3EESaIS1_EED2Ev(%"class.std::vector.58"* %16)
          to label %921 unwind label %253

; <label>:921:                                    ; preds = %920
  %922 = load i32, i32* @x.9
  %923 = load i32, i32* @y.10
  %924 = sub i32 %922, 1
  %925 = mul i32 %922, %924
  %926 = urem i32 %925, 2
  %927 = icmp eq i32 %926, 0
  %928 = icmp slt i32 %923, 10
  %929 = or i1 %927, %928
  br i1 %929, label %originalBB242, label %originalBB242alteredBB

originalBB242:                                    ; preds = %921, %originalBB242alteredBB
  call void @_ZNSt6vectorI5PointILi3EESaIS1_EED2Ev(%"class.std::vector.58"* %13)
  %930 = load i32, i32* @x.9
  %931 = load i32, i32* @y.10
  %932 = sub i32 %930, 1
  %933 = mul i32 %930, %932
  %934 = urem i32 %933, 2
  %935 = icmp eq i32 %934, 0
  %936 = icmp slt i32 %931, 10
  %937 = or i1 %935, %936
  br i1 %937, label %originalBBpart2244, label %originalBB242alteredBB

originalBBpart2244:                               ; preds = %originalBB242
  ret void

; <label>:938:                                    ; preds = %277
  br label %939

; <label>:939:                                    ; preds = %938, %originalBBpart232, %253
  invoke void @_ZNSt6vectorI5PointILi3EESaIS1_EED2Ev(%"class.std::vector.58"* %13)
          to label %940 unwind label %946

; <label>:940:                                    ; preds = %939
  br label %941

; <label>:941:                                    ; preds = %940, %originalBBpart228, %229
  %942 = load i8*, i8** %11, align 8
  %943 = load i32, i32* %12, align 4
  %944 = insertvalue { i8*, i32 } undef, i8* %942, 0
  %945 = insertvalue { i8*, i32 } %944, i32 %943, 1
  resume { i8*, i32 } %945

; <label>:946:                                    ; preds = %939, %277
  %947 = landingpad { i8*, i32 }
          catch i8* null
  %948 = extractvalue { i8*, i32 } %947, 0
  call void @__clang_call_terminate(i8* %948) #12
  unreachable

originalBBalteredBB:                              ; preds = %originalBB, %46
  br label %originalBB

originalBB1alteredBB:                             ; preds = %originalBB1, %79
  call void @_ZNSaI5PointILi3EEEC2Ev(%"class.std::allocator.60"* %18) #2
  br label %originalBB1

originalBB6alteredBB:                             ; preds = %originalBB6, %97
  %949 = load i32, i32* %19, align 4
  %950 = icmp ult i32 %949, 6
  br label %originalBB6

originalBB10alteredBB:                            ; preds = %originalBB10, %122
  %951 = load %class.TriaIterator*, %class.TriaIterator** %5, align 8
  %952 = bitcast %class.TriaIterator* %951 to %class.TriaRawIterator*
  br label %originalBB10

originalBB14alteredBB:                            ; preds = %originalBB14, %167
  %953 = load i32, i32* %19, align 4
  %954 = zext i32 %953 to i64
  %955 = getelementptr inbounds [6 x [4 x i32]], [6 x [4 x i32]]* @_ZZNK8MappingQILi3EE23add_quad_support_pointsERK12TriaIteratorILi3E12CellAccessorILi3EEERSt6vectorI5PointILi3EESaIS9_EEE23face_line_to_cell_line2, i64 0, i64 %954
  br label %originalBB14

originalBB18alteredBB:                            ; preds = %originalBB18, %187
  %956 = getelementptr inbounds [4 x i32], [4 x i32]* %188, i32 0, i32 0
  store i32* %956, i32** %23, align 8
  store i32 0, i32* %24, align 4
  br label %originalBB18

originalBB22alteredBB:                            ; preds = %originalBB22, %209
  br label %originalBB22

originalBB26alteredBB:                            ; preds = %originalBB26, %233
  %957 = landingpad { i8*, i32 }
          cleanup
  %958 = extractvalue { i8*, i32 } %957, 0
  store i8* %958, i8** %11, align 8
  %959 = extractvalue { i8*, i32 } %957, 1
  store i32 %959, i32* %12, align 4
  call void @_ZNSaI5PointILi3EEED2Ev(%"class.std::allocator.60"* %15) #2
  br label %originalBB26

originalBB30alteredBB:                            ; preds = %originalBB30, %257
  %960 = landingpad { i8*, i32 }
          cleanup
  %961 = extractvalue { i8*, i32 } %960, 0
  store i8* %961, i8** %11, align 8
  %962 = extractvalue { i8*, i32 } %960, 1
  store i32 %962, i32* %12, align 4
  call void @_ZNSaI5PointILi3EEED2Ev(%"class.std::allocator.60"* %18) #2
  br label %originalBB30

originalBB34alteredBB:                            ; preds = %originalBB34, %282
  %963 = load i32, i32* %25, align 4
  %964 = icmp ult i32 %963, 4
  br label %originalBB34

originalBB38alteredBB:                            ; preds = %originalBB38, %302
  %965 = load i32, i32* %25, align 4
  %_ = shl i32 %965, 1
  %_39 = shl i32 %965, 1
  %_40 = shl i32 %965, 1
  %_41 = shl i32 %965, 1
  %_42 = sub i32 %965, 1
  %gen = mul i32 %_42, 1
  %966 = add i32 %965, 1
  store i32 %966, i32* %25, align 4
  br label %originalBB38

originalBB46alteredBB:                            ; preds = %originalBB46, %326
  br label %originalBB46

originalBB50alteredBB:                            ; preds = %originalBB50, %343
  %967 = bitcast %class.TriaIterator.65* %20 to %class.TriaRawIterator.66*
  br label %originalBB50

originalBB54alteredBB:                            ; preds = %originalBB54, %362
  %968 = bitcast %class.TriaObjectAccessor.68* %361 to %class.TriaAccessor*
  br label %originalBB54

originalBB58alteredBB:                            ; preds = %originalBB58, %381
  %969 = bitcast %class.TriaIterator.65* %20 to %class.TriaRawIterator.66*
  br label %originalBB58

originalBB62alteredBB:                            ; preds = %originalBB62, %402
  %970 = zext i8 %401 to i32
  br label %originalBB62

originalBB66alteredBB:                            ; preds = %originalBB66, %426
  %971 = load %"class.std::vector.58"*, %"class.std::vector.58"** %6, align 8
  %972 = load %"class.std::vector.58"*, %"class.std::vector.58"** %6, align 8
  br label %originalBB66

originalBB70alteredBB:                            ; preds = %originalBB70, %446
  %973 = getelementptr inbounds %"class.__gnu_cxx::__normal_iterator", %"class.__gnu_cxx::__normal_iterator"* %26, i32 0, i32 0
  store %class.Point* %445, %class.Point** %973, align 8
  br label %originalBB70

originalBB74alteredBB:                            ; preds = %originalBB74, %477
  store i32 0, i32* %29, align 4
  store i32 0, i32* %30, align 4
  br label %originalBB74

originalBB78alteredBB:                            ; preds = %originalBB78, %502
  %974 = bitcast %class.TriaIterator.69* %31 to %class.TriaRawIterator.70*
  br label %originalBB78

originalBB82alteredBB:                            ; preds = %originalBB82, %541
  %975 = load i32, i32* %33, align 4
  %976 = icmp ult i32 %975, 4
  br label %originalBB82

originalBB86alteredBB:                            ; preds = %originalBB86, %569
  %977 = load i32, i32* %33, align 4
  %978 = zext i32 %977 to i64
  br label %originalBB86

originalBB90alteredBB:                            ; preds = %originalBB90, %592
  %979 = load i32, i32* %33, align 4
  %_91 = shl i32 %979, 1
  %_92 = sub i32 %979, 1
  %gen93 = mul i32 %_92, 1
  %_94 = shl i32 %979, 1
  %_95 = shl i32 %979, 1
  %_96 = sub i32 %979, 1
  %gen97 = mul i32 %_96, 1
  %980 = add i32 %979, 1
  store i32 %980, i32* %33, align 4
  br label %originalBB90

originalBB101alteredBB:                           ; preds = %originalBB101, %611
  store i32 0, i32* %34, align 4
  br label %originalBB101

originalBB105alteredBB:                           ; preds = %originalBB105, %628
  %981 = load i32, i32* %34, align 4
  %982 = icmp ult i32 %981, 4
  br label %originalBB105

originalBB109alteredBB:                           ; preds = %originalBB109, %654
  %983 = load %"class.std::vector.58"*, %"class.std::vector.58"** %6, align 8
  %984 = load i32*, i32** %23, align 8
  %985 = load i32, i32* %34, align 4
  %986 = zext i32 %985 to i64
  %987 = getelementptr inbounds i32, i32* %984, i64 %986
  %988 = load i32, i32* %987, align 4
  %989 = getelementptr inbounds %class.MappingQ, %class.MappingQ* %40, i32 0, i32 3
  %990 = load i32, i32* %989, align 8
  %_110 = sub i32 %990, 1
  %gen111 = mul i32 %_110, 1
  %_112 = sub i32 %990, 1
  %gen113 = mul i32 %_112, 1
  %_114 = sub i32 0, %990
  %gen115 = add i32 %_114, 1
  %_116 = shl i32 %990, 1
  %991 = sub i32 %990, 1
  %_117 = sub i32 0, %988
  %gen118 = add i32 %_117, %991
  %_119 = sub i32 %988, %991
  %gen120 = mul i32 %_119, %991
  %_121 = sub i32 %988, %991
  %gen122 = mul i32 %_121, %991
  %_123 = shl i32 %988, %991
  %_124 = shl i32 %988, %991
  %992 = mul i32 %988, %991
  %_125 = sub i32 8, %992
  %gen126 = mul i32 %_125, %992
  %993 = add i32 8, %992
  %994 = load i32, i32* %35, align 4
  %_127 = sub i32 0, %993
  %gen128 = add i32 %_127, %994
  %995 = add i32 %993, %994
  %996 = zext i32 %995 to i64
  br label %originalBB109

originalBB132alteredBB:                           ; preds = %originalBB132, %686
  %997 = load i32, i32* %34, align 4
  %998 = getelementptr inbounds %class.MappingQ, %class.MappingQ* %40, i32 0, i32 3
  %999 = load i32, i32* %998, align 8
  %_133 = shl i32 %999, 1
  %_134 = sub i32 %999, 1
  %gen135 = mul i32 %_134, 1
  %_136 = sub i32 %999, 1
  %gen137 = mul i32 %_136, 1
  %_138 = sub i32 0, %999
  %gen139 = add i32 %_138, 1
  %1000 = sub i32 %999, 1
  %_140 = sub i32 %997, %1000
  %gen141 = mul i32 %_140, %1000
  %_142 = sub i32 0, %997
  %gen143 = add i32 %_142, %1000
  %_144 = sub i32 %997, %1000
  %gen145 = mul i32 %_144, %1000
  %_146 = shl i32 %997, %1000
  %_147 = shl i32 %997, %1000
  %_148 = sub i32 %997, %1000
  %gen149 = mul i32 %_148, %1000
  %1001 = mul i32 %997, %1000
  %_150 = shl i32 4, %1001
  %_151 = sub i32 4, %1001
  %gen152 = mul i32 %_151, %1001
  %_153 = shl i32 4, %1001
  %_154 = sub i32 0, 4
  %gen155 = add i32 %_154, %1001
  %_156 = shl i32 4, %1001
  %_157 = sub i32 4, %1001
  %gen158 = mul i32 %_157, %1001
  %_159 = shl i32 4, %1001
  %1002 = add i32 4, %1001
  %1003 = load i32, i32* %35, align 4
  %_160 = sub i32 %1002, %1003
  %gen161 = mul i32 %_160, %1003
  %_162 = sub i32 0, %1002
  %gen163 = add i32 %_162, %1003
  %_164 = sub i32 0, %1002
  %gen165 = add i32 %_164, %1003
  %1004 = add i32 %1002, %1003
  %1005 = zext i32 %1004 to i64
  br label %originalBB132

originalBB169alteredBB:                           ; preds = %originalBB169, %713
  br label %originalBB169

originalBB173alteredBB:                           ; preds = %originalBB173, %731
  br label %originalBB173

originalBB177alteredBB:                           ; preds = %originalBB177, %752
  %1006 = load i32, i32* %34, align 4
  %_178 = sub i32 %1006, 1
  %gen179 = mul i32 %_178, 1
  %_180 = sub i32 %1006, 1
  %gen181 = mul i32 %_180, 1
  %1007 = add i32 %1006, 1
  store i32 %1007, i32* %34, align 4
  br label %originalBB177

originalBB185alteredBB:                           ; preds = %originalBB185, %784
  %1008 = load %"class.std::vector.58"*, %"class.std::vector.58"** %6, align 8
  %1009 = getelementptr inbounds %class.MappingQ, %class.MappingQ* %40, i32 0, i32 3
  %1010 = load i32, i32* %1009, align 8
  %_186 = sub i32 4, %1010
  %gen187 = mul i32 %_186, %1010
  %_188 = shl i32 4, %1010
  %_189 = sub i32 0, 4
  %gen190 = add i32 %_189, %1010
  %_191 = shl i32 4, %1010
  %_192 = sub i32 4, %1010
  %gen193 = mul i32 %_192, %1010
  %_194 = sub i32 4, %1010
  %gen195 = mul i32 %_194, %1010
  %_196 = sub i32 4, %1010
  %gen197 = mul i32 %_196, %1010
  %_198 = shl i32 4, %1010
  %_199 = sub i32 0, 4
  %gen200 = add i32 %_199, %1010
  %_201 = sub i32 4, %1010
  %gen202 = mul i32 %_201, %1010
  %1011 = mul i32 4, %1010
  %1012 = load i32, i32* %36, align 4
  %_203 = sub i32 0, %1011
  %gen204 = add i32 %_203, %1012
  %_205 = sub i32 %1011, %1012
  %gen206 = mul i32 %_205, %1012
  %_207 = sub i32 %1011, %1012
  %gen208 = mul i32 %_207, %1012
  %_209 = sub i32 0, %1011
  %gen210 = add i32 %_209, %1012
  %_211 = shl i32 %1011, %1012
  %_212 = sub i32 %1011, %1012
  %gen213 = mul i32 %_212, %1012
  %_214 = sub i32 0, %1011
  %gen215 = add i32 %_214, %1012
  %_216 = shl i32 %1011, %1012
  %_217 = sub i32 %1011, %1012
  %gen218 = mul i32 %_217, %1012
  %1013 = add i32 %1011, %1012
  %1014 = zext i32 %1013 to i64
  br label %originalBB185

originalBB222alteredBB:                           ; preds = %originalBB222, %809
  br label %originalBB222

originalBB226alteredBB:                           ; preds = %originalBB226, %830
  br label %originalBB226

originalBB230alteredBB:                           ; preds = %originalBB230, %848
  %1015 = load %"class.std::vector.58"*, %"class.std::vector.58"** %6, align 8
  %1016 = load %"class.std::vector.58"*, %"class.std::vector.58"** %6, align 8
  br label %originalBB230

originalBB234alteredBB:                           ; preds = %originalBB234, %868
  %1017 = getelementptr inbounds %"class.__gnu_cxx::__normal_iterator", %"class.__gnu_cxx::__normal_iterator"* %37, i32 0, i32 0
  store %class.Point* %867, %class.Point** %1017, align 8
  br label %originalBB234

originalBB238alteredBB:                           ; preds = %originalBB238, %898
  br label %originalBB238

originalBB242alteredBB:                           ; preds = %originalBB242, %921
  call void @_ZNSt6vectorI5PointILi3EESaIS1_EED2Ev(%"class.std::vector.58"* %13)
  br label %originalBB242
}

; Function Attrs: nounwind
declare i32 @__cxa_guard_acquire(i64*) #2

declare void @_ZN16StraightBoundaryILi3EEC1Ev(%class.StraightBoundary*) unnamed_addr #3

declare i32 @__gxx_personality_v0(...)

; Function Attrs: noinline uwtable
define linkonce_odr void @_ZN16StraightBoundaryILi3EED2Ev(%class.StraightBoundary*) unnamed_addr #0 comdat align 2 {
  %2 = load i32, i32* @x.11
  %3 = load i32, i32* @y.12
  %4 = sub i32 %2, 1
  %5 = mul i32 %2, %4
  %6 = urem i32 %5, 2
  %7 = icmp eq i32 %6, 0
  %8 = icmp slt i32 %3, 10
  %9 = or i1 %7, %8
  br i1 %9, label %originalBB, label %originalBBalteredBB

originalBB:                                       ; preds = %1, %originalBBalteredBB
  %10 = alloca %class.StraightBoundary*, align 8
  store %class.StraightBoundary* %0, %class.StraightBoundary** %10, align 8
  %11 = load %class.StraightBoundary*, %class.StraightBoundary** %10, align 8
  %12 = bitcast %class.StraightBoundary* %11 to %class.Boundary*
  call void @_ZN8BoundaryILi3EED2Ev(%class.Boundary* %12)
  %13 = load i32, i32* @x.11
  %14 = load i32, i32* @y.12
  %15 = sub i32 %13, 1
  %16 = mul i32 %13, %15
  %17 = urem i32 %16, 2
  %18 = icmp eq i32 %17, 0
  %19 = icmp slt i32 %14, 10
  %20 = or i1 %18, %19
  br i1 %20, label %originalBBpart2, label %originalBBalteredBB

originalBBpart2:                                  ; preds = %originalBB
  ret void

originalBBalteredBB:                              ; preds = %originalBB, %1
  %21 = alloca %class.StraightBoundary*, align 8
  store %class.StraightBoundary* %0, %class.StraightBoundary** %21, align 8
  %22 = load %class.StraightBoundary*, %class.StraightBoundary** %21, align 8
  %23 = bitcast %class.StraightBoundary* %22 to %class.Boundary*
  call void @_ZN8BoundaryILi3EED2Ev(%class.Boundary* %23)
  br label %originalBB
}

; Function Attrs: nounwind
declare i32 @__cxa_atexit(void (i8*)*, i8*, i8*) #2

; Function Attrs: nounwind
declare void @__cxa_guard_abort(i64*) #2

; Function Attrs: nounwind
declare void @__cxa_guard_release(i64*) #2

; Function Attrs: noinline uwtable
define linkonce_odr void @_ZN5PointILi3EEC2Ev(%class.Point*) unnamed_addr #0 comdat align 2 {
  %2 = alloca %class.Point*, align 8
  store %class.Point* %0, %class.Point** %2, align 8
  %3 = load %class.Point*, %class.Point** %2, align 8
  %4 = bitcast %class.Point* %3 to %class.Tensor*
  call void @_ZN6TensorILi1ELi3EEC2Eb(%class.Tensor* %4, i1 zeroext true)
  ret void
}

; Function Attrs: noinline nounwind uwtable
define linkonce_odr void @_ZNSaI5PointILi3EEEC2Ev(%"class.std::allocator.60"*) unnamed_addr #1 comdat align 2 {
  %2 = load i32, i32* @x.15
  %3 = load i32, i32* @y.16
  %4 = sub i32 %2, 1
  %5 = mul i32 %2, %4
  %6 = urem i32 %5, 2
  %7 = icmp eq i32 %6, 0
  %8 = icmp slt i32 %3, 10
  %9 = or i1 %7, %8
  br i1 %9, label %originalBB, label %originalBBalteredBB

originalBB:                                       ; preds = %1, %originalBBalteredBB
  %10 = alloca %"class.std::allocator.60"*, align 8
  store %"class.std::allocator.60"* %0, %"class.std::allocator.60"** %10, align 8
  %11 = load %"class.std::allocator.60"*, %"class.std::allocator.60"** %10, align 8
  %12 = bitcast %"class.std::allocator.60"* %11 to %"class.__gnu_cxx::new_allocator.61"*
  call void @_ZN9__gnu_cxx13new_allocatorI5PointILi3EEEC2Ev(%"class.__gnu_cxx::new_allocator.61"* %12) #2
  %13 = load i32, i32* @x.15
  %14 = load i32, i32* @y.16
  %15 = sub i32 %13, 1
  %16 = mul i32 %13, %15
  %17 = urem i32 %16, 2
  %18 = icmp eq i32 %17, 0
  %19 = icmp slt i32 %14, 10
  %20 = or i1 %18, %19
  br i1 %20, label %originalBBpart2, label %originalBBalteredBB

originalBBpart2:                                  ; preds = %originalBB
  ret void

originalBBalteredBB:                              ; preds = %originalBB, %1
  %21 = alloca %"class.std::allocator.60"*, align 8
  store %"class.std::allocator.60"* %0, %"class.std::allocator.60"** %21, align 8
  %22 = load %"class.std::allocator.60"*, %"class.std::allocator.60"** %21, align 8
  %23 = bitcast %"class.std::allocator.60"* %22 to %"class.__gnu_cxx::new_allocator.61"*
  call void @_ZN9__gnu_cxx13new_allocatorI5PointILi3EEEC2Ev(%"class.__gnu_cxx::new_allocator.61"* %23) #2
  br label %originalBB
}

; Function Attrs: noinline uwtable
define linkonce_odr void @_ZNSt6vectorI5PointILi3EESaIS1_EEC2EmRKS1_RKS2_(%"class.std::vector.58"*, i64, %class.Point* dereferenceable(24), %"class.std::allocator.60"* dereferenceable(1)) unnamed_addr #0 comdat align 2 personality i8* bitcast (i32 (...)* @__gxx_personality_v0 to i8*) {
  %5 = alloca %"class.std::vector.58"*, align 8
  %6 = alloca i64, align 8
  %7 = alloca %class.Point*, align 8
  %8 = alloca %"class.std::allocator.60"*, align 8
  %9 = alloca i8*
  %10 = alloca i32
  store %"class.std::vector.58"* %0, %"class.std::vector.58"** %5, align 8
  store i64 %1, i64* %6, align 8
  store %class.Point* %2, %class.Point** %7, align 8
  store %"class.std::allocator.60"* %3, %"class.std::allocator.60"** %8, align 8
  %11 = load %"class.std::vector.58"*, %"class.std::vector.58"** %5, align 8
  %12 = bitcast %"class.std::vector.58"* %11 to %"struct.std::_Vector_base.59"*
  %13 = load i64, i64* %6, align 8
  %14 = load %"class.std::allocator.60"*, %"class.std::allocator.60"** %8, align 8
  %15 = call i64 @_ZNSt6vectorI5PointILi3EESaIS1_EE17_S_check_init_lenEmRKS2_(i64 %13, %"class.std::allocator.60"* dereferenceable(1) %14)
  %16 = load %"class.std::allocator.60"*, %"class.std::allocator.60"** %8, align 8
  call void @_ZNSt12_Vector_baseI5PointILi3EESaIS1_EEC2EmRKS2_(%"struct.std::_Vector_base.59"* %12, i64 %15, %"class.std::allocator.60"* dereferenceable(1) %16)
  %17 = load i64, i64* %6, align 8
  %18 = load %class.Point*, %class.Point** %7, align 8
  invoke void @_ZNSt6vectorI5PointILi3EESaIS1_EE18_M_fill_initializeEmRKS1_(%"class.std::vector.58"* %11, i64 %17, %class.Point* dereferenceable(24) %18)
          to label %19 unwind label %20

; <label>:19:                                     ; preds = %4
  ret void

; <label>:20:                                     ; preds = %4
  %21 = load i32, i32* @x.17
  %22 = load i32, i32* @y.18
  %23 = sub i32 %21, 1
  %24 = mul i32 %21, %23
  %25 = urem i32 %24, 2
  %26 = icmp eq i32 %25, 0
  %27 = icmp slt i32 %22, 10
  %28 = or i1 %26, %27
  br i1 %28, label %originalBB, label %originalBBalteredBB

originalBB:                                       ; preds = %20, %originalBBalteredBB
  %29 = landingpad { i8*, i32 }
          cleanup
  %30 = extractvalue { i8*, i32 } %29, 0
  store i8* %30, i8** %9, align 8
  %31 = extractvalue { i8*, i32 } %29, 1
  store i32 %31, i32* %10, align 4
  %32 = bitcast %"class.std::vector.58"* %11 to %"struct.std::_Vector_base.59"*
  %33 = load i32, i32* @x.17
  %34 = load i32, i32* @y.18
  %35 = sub i32 %33, 1
  %36 = mul i32 %33, %35
  %37 = urem i32 %36, 2
  %38 = icmp eq i32 %37, 0
  %39 = icmp slt i32 %34, 10
  %40 = or i1 %38, %39
  br i1 %40, label %originalBBpart2, label %originalBBalteredBB

originalBBpart2:                                  ; preds = %originalBB
  invoke void @_ZNSt12_Vector_baseI5PointILi3EESaIS1_EED2Ev(%"struct.std::_Vector_base.59"* %32)
          to label %41 unwind label %63

; <label>:41:                                     ; preds = %originalBBpart2
  %42 = load i32, i32* @x.17
  %43 = load i32, i32* @y.18
  %44 = sub i32 %42, 1
  %45 = mul i32 %42, %44
  %46 = urem i32 %45, 2
  %47 = icmp eq i32 %46, 0
  %48 = icmp slt i32 %43, 10
  %49 = or i1 %47, %48
  br i1 %49, label %originalBB1, label %originalBB1alteredBB

originalBB1:                                      ; preds = %41, %originalBB1alteredBB
  %50 = load i32, i32* @x.17
  %51 = load i32, i32* @y.18
  %52 = sub i32 %50, 1
  %53 = mul i32 %50, %52
  %54 = urem i32 %53, 2
  %55 = icmp eq i32 %54, 0
  %56 = icmp slt i32 %51, 10
  %57 = or i1 %55, %56
  br i1 %57, label %originalBBpart24, label %originalBB1alteredBB

originalBBpart24:                                 ; preds = %originalBB1
  br label %58

; <label>:58:                                     ; preds = %originalBBpart24
  %59 = load i8*, i8** %9, align 8
  %60 = load i32, i32* %10, align 4
  %61 = insertvalue { i8*, i32 } undef, i8* %59, 0
  %62 = insertvalue { i8*, i32 } %61, i32 %60, 1
  resume { i8*, i32 } %62

; <label>:63:                                     ; preds = %originalBBpart2
  %64 = landingpad { i8*, i32 }
          catch i8* null
  %65 = extractvalue { i8*, i32 } %64, 0
  call void @__clang_call_terminate(i8* %65) #12
  unreachable

originalBBalteredBB:                              ; preds = %originalBB, %20
  %66 = landingpad { i8*, i32 }
          cleanup
  %67 = extractvalue { i8*, i32 } %66, 0
  store i8* %67, i8** %9, align 8
  %68 = extractvalue { i8*, i32 } %66, 1
  store i32 %68, i32* %10, align 4
  %69 = bitcast %"class.std::vector.58"* %11 to %"struct.std::_Vector_base.59"*
  br label %originalBB

originalBB1alteredBB:                             ; preds = %originalBB1, %41
  br label %originalBB1
}

; Function Attrs: noinline nounwind uwtable
define linkonce_odr void @_ZNSaI5PointILi3EEED2Ev(%"class.std::allocator.60"*) unnamed_addr #1 comdat align 2 {
  %2 = alloca %"class.std::allocator.60"*, align 8
  store %"class.std::allocator.60"* %0, %"class.std::allocator.60"** %2, align 8
  %3 = load %"class.std::allocator.60"*, %"class.std::allocator.60"** %2, align 8
  %4 = bitcast %"class.std::allocator.60"* %3 to %"class.__gnu_cxx::new_allocator.61"*
  call void @_ZN9__gnu_cxx13new_allocatorI5PointILi3EEED2Ev(%"class.__gnu_cxx::new_allocator.61"* %4) #2
  ret void
}

; Function Attrs: noinline uwtable
define linkonce_odr %class.CellAccessor* @_ZNK15TriaRawIteratorILi3E12CellAccessorILi3EEEptEv(%class.TriaRawIterator*) #0 comdat align 2 {
  %2 = load i32, i32* @x.21
  %3 = load i32, i32* @y.22
  %4 = sub i32 %2, 1
  %5 = mul i32 %2, %4
  %6 = urem i32 %5, 2
  %7 = icmp eq i32 %6, 0
  %8 = icmp slt i32 %3, 10
  %9 = or i1 %7, %8
  br i1 %9, label %originalBB, label %originalBBalteredBB

originalBB:                                       ; preds = %1, %originalBBalteredBB
  %10 = alloca %class.TriaRawIterator*, align 8
  store %class.TriaRawIterator* %0, %class.TriaRawIterator** %10, align 8
  %11 = load %class.TriaRawIterator*, %class.TriaRawIterator** %10, align 8
  %12 = call dereferenceable(16) %class.CellAccessor* @_ZNK15TriaRawIteratorILi3E12CellAccessorILi3EEEdeEv(%class.TriaRawIterator* %11)
  %13 = load i32, i32* @x.21
  %14 = load i32, i32* @y.22
  %15 = sub i32 %13, 1
  %16 = mul i32 %13, %15
  %17 = urem i32 %16, 2
  %18 = icmp eq i32 %17, 0
  %19 = icmp slt i32 %14, 10
  %20 = or i1 %18, %19
  br i1 %20, label %originalBBpart2, label %originalBBalteredBB

originalBBpart2:                                  ; preds = %originalBB
  ret %class.CellAccessor* %12

originalBBalteredBB:                              ; preds = %originalBB, %1
  %21 = alloca %class.TriaRawIterator*, align 8
  store %class.TriaRawIterator* %0, %class.TriaRawIterator** %21, align 8
  %22 = load %class.TriaRawIterator*, %class.TriaRawIterator** %21, align 8
  %23 = call dereferenceable(16) %class.CellAccessor* @_ZNK15TriaRawIteratorILi3E12CellAccessorILi3EEEdeEv(%class.TriaRawIterator* %22)
  br label %originalBB
}

; Function Attrs: noinline uwtable
define linkonce_odr void @_ZNK12CellAccessorILi3EE4faceEj(%class.TriaIterator.65* noalias sret, %class.CellAccessor*, i32) #0 comdat align 2 {
  %4 = alloca %class.CellAccessor*, align 8
  %5 = alloca i32, align 4
  store %class.CellAccessor* %1, %class.CellAccessor** %4, align 8
  store i32 %2, i32* %5, align 4
  %6 = load %class.CellAccessor*, %class.CellAccessor** %4, align 8
  %7 = bitcast %class.CellAccessor* %6 to %class.TriaObjectAccessor*
  %8 = load i32, i32* %5, align 4
  call void @_ZNK18TriaObjectAccessorILi3ELi3EE4quadEj(%class.TriaIterator.65* sret %0, %class.TriaObjectAccessor* %7, i32 %8)
  ret void
}

; Function Attrs: noinline uwtable
define linkonce_odr zeroext i1 @_ZNK18TriaObjectAccessorILi3ELi3EE16face_orientationEj(%class.TriaObjectAccessor*, i32) #0 comdat align 2 {
  %3 = alloca %class.TriaObjectAccessor*, align 8
  %4 = alloca i32, align 4
  %5 = alloca %"struct.std::_Bit_reference", align 8
  store %class.TriaObjectAccessor* %0, %class.TriaObjectAccessor** %3, align 8
  store i32 %1, i32* %4, align 4
  %6 = load %class.TriaObjectAccessor*, %class.TriaObjectAccessor** %3, align 8
  %7 = bitcast %class.TriaObjectAccessor* %6 to %class.TriaAccessor*
  %8 = getelementptr inbounds %class.TriaAccessor, %class.TriaAccessor* %7, i32 0, i32 2
  %9 = load %class.Triangulation*, %class.Triangulation** %8, align 8
  %10 = getelementptr inbounds %class.Triangulation, %class.Triangulation* %9, i32 0, i32 1
  %11 = bitcast %class.TriaObjectAccessor* %6 to %class.TriaAccessor*
  %12 = getelementptr inbounds %class.TriaAccessor, %class.TriaAccessor* %11, i32 0, i32 0
  %13 = load i32, i32* %12, align 8
  %14 = sext i32 %13 to i64
  %15 = call dereferenceable(8) %class.TriangulationLevel** @_ZNKSt6vectorIP18TriangulationLevelILi3EESaIS2_EEixEm(%"class.std::vector.10"* %10, i64 %14)
  %16 = load %class.TriangulationLevel*, %class.TriangulationLevel** %15, align 8
  %17 = getelementptr inbounds %class.TriangulationLevel, %class.TriangulationLevel* %16, i32 0, i32 1
  %18 = getelementptr inbounds %"struct.TriangulationLevel<3>::HexesData", %"struct.TriangulationLevel<3>::HexesData"* %17, i32 0, i32 6
  %19 = bitcast %class.TriaObjectAccessor* %6 to %class.TriaAccessor*
  %20 = getelementptr inbounds %class.TriaAccessor, %class.TriaAccessor* %19, i32 0, i32 1
  %21 = load i32, i32* %20, align 4
  %22 = mul i32 %21, 6
  %23 = load i32, i32* %4, align 4
  %24 = add i32 %22, %23
  %25 = zext i32 %24 to i64
  %26 = call { i64*, i64 } @_ZNSt6vectorIbSaIbEEixEm(%"class.std::vector.18"* %18, i64 %25)
  %27 = bitcast %"struct.std::_Bit_reference"* %5 to { i64*, i64 }*
  %28 = getelementptr inbounds { i64*, i64 }, { i64*, i64 }* %27, i32 0, i32 0
  %29 = extractvalue { i64*, i64 } %26, 0
  store i64* %29, i64** %28, align 8
  %30 = getelementptr inbounds { i64*, i64 }, { i64*, i64 }* %27, i32 0, i32 1
  %31 = extractvalue { i64*, i64 } %26, 1
  store i64 %31, i64* %30, align 8
  %32 = call zeroext i1 @_ZNKSt14_Bit_referencecvbEv(%"struct.std::_Bit_reference"* %5)
  ret i1 %32
}

; Function Attrs: noinline uwtable
define linkonce_odr %class.TriaObjectAccessor.68* @_ZNK15TriaRawIteratorILi3E18TriaObjectAccessorILi2ELi3EEEptEv(%class.TriaRawIterator.66*) #0 comdat align 2 {
  %2 = load i32, i32* @x.27
  %3 = load i32, i32* @y.28
  %4 = sub i32 %2, 1
  %5 = mul i32 %2, %4
  %6 = urem i32 %5, 2
  %7 = icmp eq i32 %6, 0
  %8 = icmp slt i32 %3, 10
  %9 = or i1 %7, %8
  br i1 %9, label %originalBB, label %originalBBalteredBB

originalBB:                                       ; preds = %1, %originalBBalteredBB
  %10 = alloca %class.TriaRawIterator.66*, align 8
  store %class.TriaRawIterator.66* %0, %class.TriaRawIterator.66** %10, align 8
  %11 = load %class.TriaRawIterator.66*, %class.TriaRawIterator.66** %10, align 8
  %12 = call dereferenceable(16) %class.TriaObjectAccessor.68* @_ZNK15TriaRawIteratorILi3E18TriaObjectAccessorILi2ELi3EEEdeEv(%class.TriaRawIterator.66* %11)
  %13 = load i32, i32* @x.27
  %14 = load i32, i32* @y.28
  %15 = sub i32 %13, 1
  %16 = mul i32 %13, %15
  %17 = urem i32 %16, 2
  %18 = icmp eq i32 %17, 0
  %19 = icmp slt i32 %14, 10
  %20 = or i1 %18, %19
  br i1 %20, label %originalBBpart2, label %originalBBalteredBB

originalBBpart2:                                  ; preds = %originalBB
  ret %class.TriaObjectAccessor.68* %12

originalBBalteredBB:                              ; preds = %originalBB, %1
  %21 = alloca %class.TriaRawIterator.66*, align 8
  store %class.TriaRawIterator.66* %0, %class.TriaRawIterator.66** %21, align 8
  %22 = load %class.TriaRawIterator.66*, %class.TriaRawIterator.66** %21, align 8
  %23 = call dereferenceable(16) %class.TriaObjectAccessor.68* @_ZNK15TriaRawIteratorILi3E18TriaObjectAccessorILi2ELi3EEEdeEv(%class.TriaRawIterator.66* %22)
  br label %originalBB
}

declare zeroext i1 @_ZNK18TriaObjectAccessorILi2ELi3EE11at_boundaryEv(%class.TriaObjectAccessor.68*) #3

; Function Attrs: noinline nounwind uwtable
define linkonce_odr dereferenceable(2352) %class.Triangulation* @_ZNK12TriaAccessorILi3EE17get_triangulationEv(%class.TriaAccessor*) #1 comdat align 2 {
  %2 = alloca %class.TriaAccessor*, align 8
  store %class.TriaAccessor* %0, %class.TriaAccessor** %2, align 8
  %3 = load %class.TriaAccessor*, %class.TriaAccessor** %2, align 8
  %4 = getelementptr inbounds %class.TriaAccessor, %class.TriaAccessor* %3, i32 0, i32 2
  %5 = load %class.Triangulation*, %class.Triangulation** %4, align 8
  ret %class.Triangulation* %5
}

declare dereferenceable(24) %class.Boundary* @_ZNK13TriangulationILi3EE12get_boundaryEj(%class.Triangulation*, i32) #3

declare zeroext i8 @_ZNK18TriaObjectAccessorILi2ELi3EE18boundary_indicatorEv(%class.TriaObjectAccessor.68*) #3

; Function Attrs: noinline uwtable
define linkonce_odr void @_ZNSt6vectorI5PointILi3EESaIS1_EE6insertIN9__gnu_cxx17__normal_iteratorIPS1_S3_EEEEvS8_T_S9_(%"class.std::vector.58"*, %class.Point*, %class.Point*, %class.Point*) #0 comdat align 2 {
  %5 = alloca %"class.__gnu_cxx::__normal_iterator", align 8
  %6 = alloca %"class.__gnu_cxx::__normal_iterator", align 8
  %7 = alloca %"class.__gnu_cxx::__normal_iterator", align 8
  %8 = alloca %"class.std::vector.58"*, align 8
  %9 = alloca %"class.__gnu_cxx::__normal_iterator", align 8
  %10 = alloca %"class.__gnu_cxx::__normal_iterator", align 8
  %11 = alloca %"class.__gnu_cxx::__normal_iterator", align 8
  %12 = alloca %"struct.std::__false_type", align 1
  %13 = getelementptr inbounds %"class.__gnu_cxx::__normal_iterator", %"class.__gnu_cxx::__normal_iterator"* %5, i32 0, i32 0
  store %class.Point* %1, %class.Point** %13, align 8
  %14 = getelementptr inbounds %"class.__gnu_cxx::__normal_iterator", %"class.__gnu_cxx::__normal_iterator"* %6, i32 0, i32 0
  store %class.Point* %2, %class.Point** %14, align 8
  %15 = getelementptr inbounds %"class.__gnu_cxx::__normal_iterator", %"class.__gnu_cxx::__normal_iterator"* %7, i32 0, i32 0
  store %class.Point* %3, %class.Point** %15, align 8
  store %"class.std::vector.58"* %0, %"class.std::vector.58"** %8, align 8
  %16 = load %"class.std::vector.58"*, %"class.std::vector.58"** %8, align 8
  %17 = bitcast %"class.__gnu_cxx::__normal_iterator"* %9 to i8*
  %18 = bitcast %"class.__gnu_cxx::__normal_iterator"* %5 to i8*
  call void @llvm.memcpy.p0i8.p0i8.i64(i8* %17, i8* %18, i64 8, i32 8, i1 false)
  %19 = bitcast %"class.__gnu_cxx::__normal_iterator"* %10 to i8*
  %20 = bitcast %"class.__gnu_cxx::__normal_iterator"* %6 to i8*
  call void @llvm.memcpy.p0i8.p0i8.i64(i8* %19, i8* %20, i64 8, i32 8, i1 false)
  %21 = bitcast %"class.__gnu_cxx::__normal_iterator"* %11 to i8*
  %22 = bitcast %"class.__gnu_cxx::__normal_iterator"* %7 to i8*
  call void @llvm.memcpy.p0i8.p0i8.i64(i8* %21, i8* %22, i64 8, i32 8, i1 false)
  %23 = getelementptr inbounds %"class.__gnu_cxx::__normal_iterator", %"class.__gnu_cxx::__normal_iterator"* %9, i32 0, i32 0
  %24 = load %class.Point*, %class.Point** %23, align 8
  %25 = getelementptr inbounds %"class.__gnu_cxx::__normal_iterator", %"class.__gnu_cxx::__normal_iterator"* %10, i32 0, i32 0
  %26 = load %class.Point*, %class.Point** %25, align 8
  %27 = getelementptr inbounds %"class.__gnu_cxx::__normal_iterator", %"class.__gnu_cxx::__normal_iterator"* %11, i32 0, i32 0
  %28 = load %class.Point*, %class.Point** %27, align 8
  call void @_ZNSt6vectorI5PointILi3EESaIS1_EE18_M_insert_dispatchIN9__gnu_cxx17__normal_iteratorIPS1_S3_EEEEvS8_T_S9_St12__false_type(%"class.std::vector.58"* %16, %class.Point* %24, %class.Point* %26, %class.Point* %28)
  ret void
}

; Function Attrs: noinline uwtable
define linkonce_odr %class.Point* @_ZNSt6vectorI5PointILi3EESaIS1_EE3endEv(%"class.std::vector.58"*) #0 comdat align 2 {
  %2 = load i32, i32* @x.33
  %3 = load i32, i32* @y.34
  %4 = sub i32 %2, 1
  %5 = mul i32 %2, %4
  %6 = urem i32 %5, 2
  %7 = icmp eq i32 %6, 0
  %8 = icmp slt i32 %3, 10
  %9 = or i1 %7, %8
  br i1 %9, label %originalBB, label %originalBBalteredBB

originalBB:                                       ; preds = %1, %originalBBalteredBB
  %10 = alloca %"class.__gnu_cxx::__normal_iterator", align 8
  %11 = alloca %"class.std::vector.58"*, align 8
  store %"class.std::vector.58"* %0, %"class.std::vector.58"** %11, align 8
  %12 = load %"class.std::vector.58"*, %"class.std::vector.58"** %11, align 8
  %13 = bitcast %"class.std::vector.58"* %12 to %"struct.std::_Vector_base.59"*
  %14 = getelementptr inbounds %"struct.std::_Vector_base.59", %"struct.std::_Vector_base.59"* %13, i32 0, i32 0
  %15 = bitcast %"struct.std::_Vector_base<Point<3>, std::allocator<Point<3> > >::_Vector_impl"* %14 to %"struct.std::_Vector_base<Point<3>, std::allocator<Point<3> > >::_Vector_impl_data"*
  %16 = getelementptr inbounds %"struct.std::_Vector_base<Point<3>, std::allocator<Point<3> > >::_Vector_impl_data", %"struct.std::_Vector_base<Point<3>, std::allocator<Point<3> > >::_Vector_impl_data"* %15, i32 0, i32 1
  call void @_ZN9__gnu_cxx17__normal_iteratorIP5PointILi3EESt6vectorIS2_SaIS2_EEEC2ERKS3_(%"class.__gnu_cxx::__normal_iterator"* %10, %class.Point** dereferenceable(8) %16)
  %17 = getelementptr inbounds %"class.__gnu_cxx::__normal_iterator", %"class.__gnu_cxx::__normal_iterator"* %10, i32 0, i32 0
  %18 = load %class.Point*, %class.Point** %17, align 8
  %19 = load i32, i32* @x.33
  %20 = load i32, i32* @y.34
  %21 = sub i32 %19, 1
  %22 = mul i32 %19, %21
  %23 = urem i32 %22, 2
  %24 = icmp eq i32 %23, 0
  %25 = icmp slt i32 %20, 10
  %26 = or i1 %24, %25
  br i1 %26, label %originalBBpart2, label %originalBBalteredBB

originalBBpart2:                                  ; preds = %originalBB
  ret %class.Point* %18

originalBBalteredBB:                              ; preds = %originalBB, %1
  %27 = alloca %"class.__gnu_cxx::__normal_iterator", align 8
  %28 = alloca %"class.std::vector.58"*, align 8
  store %"class.std::vector.58"* %0, %"class.std::vector.58"** %28, align 8
  %29 = load %"class.std::vector.58"*, %"class.std::vector.58"** %28, align 8
  %30 = bitcast %"class.std::vector.58"* %29 to %"struct.std::_Vector_base.59"*
  %31 = getelementptr inbounds %"struct.std::_Vector_base.59", %"struct.std::_Vector_base.59"* %30, i32 0, i32 0
  %32 = bitcast %"struct.std::_Vector_base<Point<3>, std::allocator<Point<3> > >::_Vector_impl"* %31 to %"struct.std::_Vector_base<Point<3>, std::allocator<Point<3> > >::_Vector_impl_data"*
  %33 = getelementptr inbounds %"struct.std::_Vector_base<Point<3>, std::allocator<Point<3> > >::_Vector_impl_data", %"struct.std::_Vector_base<Point<3>, std::allocator<Point<3> > >::_Vector_impl_data"* %32, i32 0, i32 1
  call void @_ZN9__gnu_cxx17__normal_iteratorIP5PointILi3EESt6vectorIS2_SaIS2_EEEC2ERKS3_(%"class.__gnu_cxx::__normal_iterator"* %27, %class.Point** dereferenceable(8) %33)
  %34 = getelementptr inbounds %"class.__gnu_cxx::__normal_iterator", %"class.__gnu_cxx::__normal_iterator"* %27, i32 0, i32 0
  %35 = load %class.Point*, %class.Point** %34, align 8
  br label %originalBB
}

; Function Attrs: noinline uwtable
define linkonce_odr %class.Point* @_ZNSt6vectorI5PointILi3EESaIS1_EE5beginEv(%"class.std::vector.58"*) #0 comdat align 2 {
  %2 = alloca %"class.__gnu_cxx::__normal_iterator", align 8
  %3 = alloca %"class.std::vector.58"*, align 8
  store %"class.std::vector.58"* %0, %"class.std::vector.58"** %3, align 8
  %4 = load %"class.std::vector.58"*, %"class.std::vector.58"** %3, align 8
  %5 = bitcast %"class.std::vector.58"* %4 to %"struct.std::_Vector_base.59"*
  %6 = getelementptr inbounds %"struct.std::_Vector_base.59", %"struct.std::_Vector_base.59"* %5, i32 0, i32 0
  %7 = bitcast %"struct.std::_Vector_base<Point<3>, std::allocator<Point<3> > >::_Vector_impl"* %6 to %"struct.std::_Vector_base<Point<3>, std::allocator<Point<3> > >::_Vector_impl_data"*
  %8 = getelementptr inbounds %"struct.std::_Vector_base<Point<3>, std::allocator<Point<3> > >::_Vector_impl_data", %"struct.std::_Vector_base<Point<3>, std::allocator<Point<3> > >::_Vector_impl_data"* %7, i32 0, i32 0
  call void @_ZN9__gnu_cxx17__normal_iteratorIP5PointILi3EESt6vectorIS2_SaIS2_EEEC2ERKS3_(%"class.__gnu_cxx::__normal_iterator"* %2, %class.Point** dereferenceable(8) %8)
  %9 = getelementptr inbounds %"class.__gnu_cxx::__normal_iterator", %"class.__gnu_cxx::__normal_iterator"* %2, i32 0, i32 0
  %10 = load %class.Point*, %class.Point** %9, align 8
  ret %class.Point* %10
}

; Function Attrs: noinline uwtable
define linkonce_odr void @_ZNK18TriaObjectAccessorILi2ELi3EE4lineEj(%class.TriaIterator.69* noalias sret, %class.TriaObjectAccessor.68*, i32) #0 comdat align 2 {
  %4 = alloca %class.TriaObjectAccessor.68*, align 8
  %5 = alloca i32, align 4
  store %class.TriaObjectAccessor.68* %1, %class.TriaObjectAccessor.68** %4, align 8
  store i32 %2, i32* %5, align 4
  %6 = load %class.TriaObjectAccessor.68*, %class.TriaObjectAccessor.68** %4, align 8
  %7 = bitcast %class.TriaObjectAccessor.68* %6 to %class.TriaAccessor*
  %8 = getelementptr inbounds %class.TriaAccessor, %class.TriaAccessor* %7, i32 0, i32 2
  %9 = load %class.Triangulation*, %class.Triangulation** %8, align 8
  %10 = bitcast %class.TriaObjectAccessor.68* %6 to %class.TriaAccessor*
  %11 = getelementptr inbounds %class.TriaAccessor, %class.TriaAccessor* %10, i32 0, i32 0
  %12 = load i32, i32* %11, align 8
  %13 = load i32, i32* %5, align 4
  %14 = call i32 @_ZNK18TriaObjectAccessorILi2ELi3EE10line_indexEj(%class.TriaObjectAccessor.68* %6, i32 %13)
  call void @_ZN12TriaIteratorILi3E18TriaObjectAccessorILi1ELi3EEEC2EPK13TriangulationILi3EEiiPKv(%class.TriaIterator.69* %0, %class.Triangulation* %9, i32 %12, i32 %14, i8* null)
  ret void
}

; Function Attrs: noinline uwtable
define linkonce_odr %class.TriaObjectAccessor.72* @_ZN15TriaRawIteratorILi3E18TriaObjectAccessorILi1ELi3EEEptEv(%class.TriaRawIterator.70*) #0 comdat align 2 {
  %2 = alloca %class.TriaRawIterator.70*, align 8
  store %class.TriaRawIterator.70* %0, %class.TriaRawIterator.70** %2, align 8
  %3 = load %class.TriaRawIterator.70*, %class.TriaRawIterator.70** %2, align 8
  %4 = call dereferenceable(16) %class.TriaObjectAccessor.72* @_ZN15TriaRawIteratorILi3E18TriaObjectAccessorILi1ELi3EEEdeEv(%class.TriaRawIterator.70* %3)
  ret %class.TriaObjectAccessor.72* %4
}

declare zeroext i1 @_ZNK18TriaObjectAccessorILi1ELi3EE11at_boundaryEv(%class.TriaObjectAccessor.72*) #3

; Function Attrs: noinline uwtable
define linkonce_odr void @_ZNSt6vectorI5PointILi3EESaIS1_EE6resizeEmS1_(%"class.std::vector.58"*, i64, %class.Point*) #0 comdat align 2 {
  %4 = alloca %"class.std::vector.58"*, align 8
  %5 = alloca i64, align 8
  %6 = alloca %"class.__gnu_cxx::__normal_iterator", align 8
  store %"class.std::vector.58"* %0, %"class.std::vector.58"** %4, align 8
  store i64 %1, i64* %5, align 8
  %7 = load %"class.std::vector.58"*, %"class.std::vector.58"** %4, align 8
  %8 = load i64, i64* %5, align 8
  %9 = call i64 @_ZNKSt6vectorI5PointILi3EESaIS1_EE4sizeEv(%"class.std::vector.58"* %7)
  %10 = icmp ugt i64 %8, %9
  br i1 %10, label %11, label %19

; <label>:11:                                     ; preds = %3
  %12 = call %class.Point* @_ZNSt6vectorI5PointILi3EESaIS1_EE3endEv(%"class.std::vector.58"* %7)
  %13 = getelementptr inbounds %"class.__gnu_cxx::__normal_iterator", %"class.__gnu_cxx::__normal_iterator"* %6, i32 0, i32 0
  store %class.Point* %12, %class.Point** %13, align 8
  %14 = load i64, i64* %5, align 8
  %15 = call i64 @_ZNKSt6vectorI5PointILi3EESaIS1_EE4sizeEv(%"class.std::vector.58"* %7)
  %16 = sub i64 %14, %15
  %17 = getelementptr inbounds %"class.__gnu_cxx::__normal_iterator", %"class.__gnu_cxx::__normal_iterator"* %6, i32 0, i32 0
  %18 = load %class.Point*, %class.Point** %17, align 8
  call void @_ZNSt6vectorI5PointILi3EESaIS1_EE14_M_fill_insertEN9__gnu_cxx17__normal_iteratorIPS1_S3_EEmRKS1_(%"class.std::vector.58"* %7, %class.Point* %18, i64 %16, %class.Point* dereferenceable(24) %2)
  br label %32

; <label>:19:                                     ; preds = %3
  %20 = load i64, i64* %5, align 8
  %21 = call i64 @_ZNKSt6vectorI5PointILi3EESaIS1_EE4sizeEv(%"class.std::vector.58"* %7)
  %22 = icmp ult i64 %20, %21
  br i1 %22, label %23, label %31

; <label>:23:                                     ; preds = %19
  %24 = bitcast %"class.std::vector.58"* %7 to %"struct.std::_Vector_base.59"*
  %25 = getelementptr inbounds %"struct.std::_Vector_base.59", %"struct.std::_Vector_base.59"* %24, i32 0, i32 0
  %26 = bitcast %"struct.std::_Vector_base<Point<3>, std::allocator<Point<3> > >::_Vector_impl"* %25 to %"struct.std::_Vector_base<Point<3>, std::allocator<Point<3> > >::_Vector_impl_data"*
  %27 = getelementptr inbounds %"struct.std::_Vector_base<Point<3>, std::allocator<Point<3> > >::_Vector_impl_data", %"struct.std::_Vector_base<Point<3>, std::allocator<Point<3> > >::_Vector_impl_data"* %26, i32 0, i32 0
  %28 = load %class.Point*, %class.Point** %27, align 8
  %29 = load i64, i64* %5, align 8
  %30 = getelementptr inbounds %class.Point, %class.Point* %28, i64 %29
  call void @_ZNSt6vectorI5PointILi3EESaIS1_EE15_M_erase_at_endEPS1_(%"class.std::vector.58"* %7, %class.Point* %30)
  br label %31

; <label>:31:                                     ; preds = %23, %19
  br label %32

; <label>:32:                                     ; preds = %31, %11
  ret void
}

; Function Attrs: noinline nounwind uwtable
define linkonce_odr dereferenceable(24) %class.Point* @_ZNSt6vectorI5PointILi3EESaIS1_EEixEm(%"class.std::vector.58"*, i64) #1 comdat align 2 {
  %3 = alloca %"class.std::vector.58"*, align 8
  %4 = alloca i64, align 8
  store %"class.std::vector.58"* %0, %"class.std::vector.58"** %3, align 8
  store i64 %1, i64* %4, align 8
  %5 = load %"class.std::vector.58"*, %"class.std::vector.58"** %3, align 8
  %6 = bitcast %"class.std::vector.58"* %5 to %"struct.std::_Vector_base.59"*
  %7 = getelementptr inbounds %"struct.std::_Vector_base.59", %"struct.std::_Vector_base.59"* %6, i32 0, i32 0
  %8 = bitcast %"struct.std::_Vector_base<Point<3>, std::allocator<Point<3> > >::_Vector_impl"* %7 to %"struct.std::_Vector_base<Point<3>, std::allocator<Point<3> > >::_Vector_impl_data"*
  %9 = getelementptr inbounds %"struct.std::_Vector_base<Point<3>, std::allocator<Point<3> > >::_Vector_impl_data", %"struct.std::_Vector_base<Point<3>, std::allocator<Point<3> > >::_Vector_impl_data"* %8, i32 0, i32 0
  %10 = load %class.Point*, %class.Point** %9, align 8
  %11 = load i64, i64* %4, align 8
  %12 = getelementptr inbounds %class.Point, %class.Point* %10, i64 %11
  ret %class.Point* %12
}

; Function Attrs: noinline uwtable
define linkonce_odr dereferenceable(24) %class.Point* @_ZN5PointILi3EEaSERKS0_(%class.Point*, %class.Point* dereferenceable(24)) #0 comdat align 2 {
  %3 = load i32, i32* @x.45
  %4 = load i32, i32* @y.46
  %5 = sub i32 %3, 1
  %6 = mul i32 %3, %5
  %7 = urem i32 %6, 2
  %8 = icmp eq i32 %7, 0
  %9 = icmp slt i32 %4, 10
  %10 = or i1 %8, %9
  br i1 %10, label %originalBB, label %originalBBalteredBB

originalBB:                                       ; preds = %2, %originalBBalteredBB
  %11 = alloca %class.Point*, align 8
  %12 = alloca %class.Point*, align 8
  store %class.Point* %0, %class.Point** %11, align 8
  store %class.Point* %1, %class.Point** %12, align 8
  %13 = load %class.Point*, %class.Point** %11, align 8
  %14 = bitcast %class.Point* %13 to %class.Tensor*
  %15 = load %class.Point*, %class.Point** %12, align 8
  %16 = bitcast %class.Point* %15 to %class.Tensor*
  %17 = call dereferenceable(24) %class.Tensor* @_ZN6TensorILi1ELi3EEaSERKS0_(%class.Tensor* %14, %class.Tensor* dereferenceable(24) %16)
  %18 = load i32, i32* @x.45
  %19 = load i32, i32* @y.46
  %20 = sub i32 %18, 1
  %21 = mul i32 %18, %20
  %22 = urem i32 %21, 2
  %23 = icmp eq i32 %22, 0
  %24 = icmp slt i32 %19, 10
  %25 = or i1 %23, %24
  br i1 %25, label %originalBBpart2, label %originalBBalteredBB

originalBBpart2:                                  ; preds = %originalBB
  ret %class.Point* %13

originalBBalteredBB:                              ; preds = %originalBB, %2
  %26 = alloca %class.Point*, align 8
  %27 = alloca %class.Point*, align 8
  store %class.Point* %0, %class.Point** %26, align 8
  store %class.Point* %1, %class.Point** %27, align 8
  %28 = load %class.Point*, %class.Point** %26, align 8
  %29 = bitcast %class.Point* %28 to %class.Tensor*
  %30 = load %class.Point*, %class.Point** %27, align 8
  %31 = bitcast %class.Point* %30 to %class.Tensor*
  %32 = call dereferenceable(24) %class.Tensor* @_ZN6TensorILi1ELi3EEaSERKS0_(%class.Tensor* %29, %class.Tensor* dereferenceable(24) %31)
  br label %originalBB
}

; Function Attrs: noinline uwtable
define weak_odr void @_ZNK8MappingQILi3EE20apply_laplace_vectorERK5TableILi2EdERSt6vectorI5PointILi3EESaIS7_EE(%class.MappingQ*, %class.Table* dereferenceable(48), %"class.std::vector.58"* dereferenceable(24)) #0 comdat align 2 {
  %4 = alloca %class.MappingQ*, align 8
  %5 = alloca %class.Table*, align 8
  %6 = alloca %"class.std::vector.58"*, align 8
  %7 = alloca i32, align 4
  %8 = alloca i32, align 4
  %9 = alloca i32, align 4
  %10 = alloca %class.Point, align 8
  %11 = alloca i32, align 4
  %12 = alloca %class.Point, align 8
  %13 = alloca %"class.internal::TableBaseAccessors::Accessor.136", align 8
  store %class.MappingQ* %0, %class.MappingQ** %4, align 8
  store %class.Table* %1, %class.Table** %5, align 8
  store %"class.std::vector.58"* %2, %"class.std::vector.58"** %6, align 8
  %14 = load %class.MappingQ*, %class.MappingQ** %4, align 8
  %15 = load %class.Table*, %class.Table** %5, align 8
  %16 = call i32 @_ZNK5TableILi2EdE6n_rowsEv(%class.Table* %15)
  store i32 %16, i32* %7, align 4
  %17 = load %class.Table*, %class.Table** %5, align 8
  %18 = call i32 @_ZNK5TableILi2EdE6n_colsEv(%class.Table* %17)
  store i32 %18, i32* %8, align 4
  store i32 0, i32* %9, align 4
  br label %19

; <label>:19:                                     ; preds = %110, %3
  %20 = load i32, i32* %9, align 4
  %21 = load i32, i32* %7, align 4
  %22 = icmp ult i32 %20, %21
  br i1 %22, label %23, label %113

; <label>:23:                                     ; preds = %19
  call void @_ZN5PointILi3EEC2Ev(%class.Point* %10)
  store i32 0, i32* %11, align 4
  br label %24

; <label>:24:                                     ; preds = %originalBBpart28, %23
  %25 = load i32, i32* @x.47
  %26 = load i32, i32* @y.48
  %27 = sub i32 %25, 1
  %28 = mul i32 %25, %27
  %29 = urem i32 %28, 2
  %30 = icmp eq i32 %29, 0
  %31 = icmp slt i32 %26, 10
  %32 = or i1 %30, %31
  br i1 %32, label %originalBB, label %originalBBalteredBB

originalBB:                                       ; preds = %24, %originalBBalteredBB
  %33 = load i32, i32* %11, align 4
  %34 = load i32, i32* %8, align 4
  %35 = icmp ult i32 %33, %34
  %36 = load i32, i32* @x.47
  %37 = load i32, i32* @y.48
  %38 = sub i32 %36, 1
  %39 = mul i32 %36, %38
  %40 = urem i32 %39, 2
  %41 = icmp eq i32 %40, 0
  %42 = icmp slt i32 %37, 10
  %43 = or i1 %41, %42
  br i1 %43, label %originalBBpart2, label %originalBBalteredBB

originalBBpart2:                                  ; preds = %originalBB
  br i1 %35, label %44, label %92

; <label>:44:                                     ; preds = %originalBBpart2
  %45 = load i32, i32* @x.47
  %46 = load i32, i32* @y.48
  %47 = sub i32 %45, 1
  %48 = mul i32 %45, %47
  %49 = urem i32 %48, 2
  %50 = icmp eq i32 %49, 0
  %51 = icmp slt i32 %46, 10
  %52 = or i1 %50, %51
  br i1 %52, label %originalBB1, label %originalBB1alteredBB

originalBB1:                                      ; preds = %44, %originalBB1alteredBB
  %53 = load %class.Table*, %class.Table** %5, align 8
  %54 = load i32, i32* %9, align 4
  call void @_ZNK5TableILi2EdEixEj(%"class.internal::TableBaseAccessors::Accessor.136"* sret %13, %class.Table* %53, i32 %54)
  %55 = load i32, i32* %11, align 4
  %56 = call dereferenceable(8) double* @_ZNK8internal18TableBaseAccessors8AccessorILi2EdLb1ELj1EEixEj(%"class.internal::TableBaseAccessors::Accessor.136"* %13, i32 %55)
  %57 = load double, double* %56, align 8
  %58 = load %"class.std::vector.58"*, %"class.std::vector.58"** %6, align 8
  %59 = load i32, i32* %11, align 4
  %60 = zext i32 %59 to i64
  %61 = call dereferenceable(24) %class.Point* @_ZNSt6vectorI5PointILi3EESaIS1_EEixEm(%"class.std::vector.58"* %58, i64 %60)
  call void @_ZmlILi3EE5PointIXT_EEdRKS1_(%class.Point* sret %12, double %57, %class.Point* dereferenceable(24) %61)
  %62 = bitcast %class.Point* %12 to %class.Tensor*
  %63 = bitcast %class.Point* %10 to %class.Tensor*
  %64 = call dereferenceable(24) %class.Tensor* @_ZN6TensorILi1ELi3EEpLERKS0_(%class.Tensor* %63, %class.Tensor* dereferenceable(24) %62)
  %65 = load i32, i32* @x.47
  %66 = load i32, i32* @y.48
  %67 = sub i32 %65, 1
  %68 = mul i32 %65, %67
  %69 = urem i32 %68, 2
  %70 = icmp eq i32 %69, 0
  %71 = icmp slt i32 %66, 10
  %72 = or i1 %70, %71
  br i1 %72, label %originalBBpart24, label %originalBB1alteredBB

originalBBpart24:                                 ; preds = %originalBB1
  br label %73

; <label>:73:                                     ; preds = %originalBBpart24
  %74 = load i32, i32* @x.47
  %75 = load i32, i32* @y.48
  %76 = sub i32 %74, 1
  %77 = mul i32 %74, %76
  %78 = urem i32 %77, 2
  %79 = icmp eq i32 %78, 0
  %80 = icmp slt i32 %75, 10
  %81 = or i1 %79, %80
  br i1 %81, label %originalBB6, label %originalBB6alteredBB

originalBB6:                                      ; preds = %73, %originalBB6alteredBB
  %82 = load i32, i32* %11, align 4
  %83 = add i32 %82, 1
  store i32 %83, i32* %11, align 4
  %84 = load i32, i32* @x.47
  %85 = load i32, i32* @y.48
  %86 = sub i32 %84, 1
  %87 = mul i32 %84, %86
  %88 = urem i32 %87, 2
  %89 = icmp eq i32 %88, 0
  %90 = icmp slt i32 %85, 10
  %91 = or i1 %89, %90
  br i1 %91, label %originalBBpart28, label %originalBB6alteredBB

originalBBpart28:                                 ; preds = %originalBB6
  br label %24

; <label>:92:                                     ; preds = %originalBBpart2
  %93 = load i32, i32* @x.47
  %94 = load i32, i32* @y.48
  %95 = sub i32 %93, 1
  %96 = mul i32 %93, %95
  %97 = urem i32 %96, 2
  %98 = icmp eq i32 %97, 0
  %99 = icmp slt i32 %94, 10
  %100 = or i1 %98, %99
  br i1 %100, label %originalBB10, label %originalBB10alteredBB

originalBB10:                                     ; preds = %92, %originalBB10alteredBB
  %101 = load %"class.std::vector.58"*, %"class.std::vector.58"** %6, align 8
  call void @_ZNSt6vectorI5PointILi3EESaIS1_EE9push_backERKS1_(%"class.std::vector.58"* %101, %class.Point* dereferenceable(24) %10)
  %102 = load i32, i32* @x.47
  %103 = load i32, i32* @y.48
  %104 = sub i32 %102, 1
  %105 = mul i32 %102, %104
  %106 = urem i32 %105, 2
  %107 = icmp eq i32 %106, 0
  %108 = icmp slt i32 %103, 10
  %109 = or i1 %107, %108
  br i1 %109, label %originalBBpart212, label %originalBB10alteredBB

originalBBpart212:                                ; preds = %originalBB10
  br label %110

; <label>:110:                                    ; preds = %originalBBpart212
  %111 = load i32, i32* %9, align 4
  %112 = add i32 %111, 1
  store i32 %112, i32* %9, align 4
  br label %19

; <label>:113:                                    ; preds = %19
  ret void

originalBBalteredBB:                              ; preds = %originalBB, %24
  %114 = load i32, i32* %11, align 4
  %115 = load i32, i32* %8, align 4
  %116 = icmp ult i32 %114, %115
  br label %originalBB

originalBB1alteredBB:                             ; preds = %originalBB1, %44
  %117 = load %class.Table*, %class.Table** %5, align 8
  %118 = load i32, i32* %9, align 4
  call void @_ZNK5TableILi2EdEixEj(%"class.internal::TableBaseAccessors::Accessor.136"* sret %13, %class.Table* %117, i32 %118)
  %119 = load i32, i32* %11, align 4
  %120 = call dereferenceable(8) double* @_ZNK8internal18TableBaseAccessors8AccessorILi2EdLb1ELj1EEixEj(%"class.internal::TableBaseAccessors::Accessor.136"* %13, i32 %119)
  %121 = load double, double* %120, align 8
  %122 = load %"class.std::vector.58"*, %"class.std::vector.58"** %6, align 8
  %123 = load i32, i32* %11, align 4
  %124 = zext i32 %123 to i64
  %125 = call dereferenceable(24) %class.Point* @_ZNSt6vectorI5PointILi3EESaIS1_EEixEm(%"class.std::vector.58"* %122, i64 %124)
  call void @_ZmlILi3EE5PointIXT_EEdRKS1_(%class.Point* sret %12, double %121, %class.Point* dereferenceable(24) %125)
  %126 = bitcast %class.Point* %12 to %class.Tensor*
  %127 = bitcast %class.Point* %10 to %class.Tensor*
  %128 = call dereferenceable(24) %class.Tensor* @_ZN6TensorILi1ELi3EEpLERKS0_(%class.Tensor* %127, %class.Tensor* dereferenceable(24) %126)
  br label %originalBB1

originalBB6alteredBB:                             ; preds = %originalBB6, %73
  %129 = load i32, i32* %11, align 4
  %130 = add i32 %129, 1
  store i32 %130, i32* %11, align 4
  br label %originalBB6

originalBB10alteredBB:                            ; preds = %originalBB10, %92
  %131 = load %"class.std::vector.58"*, %"class.std::vector.58"** %6, align 8
  call void @_ZNSt6vectorI5PointILi3EESaIS1_EE9push_backERKS1_(%"class.std::vector.58"* %131, %class.Point* dereferenceable(24) %10)
  br label %originalBB10
}

; Function Attrs: noinline uwtable
define linkonce_odr void @_ZNSt6vectorI5PointILi3EESaIS1_EE9push_backERKS1_(%"class.std::vector.58"*, %class.Point* dereferenceable(24)) #0 comdat align 2 {
  %3 = load i32, i32* @x.49
  %4 = load i32, i32* @y.50
  %5 = sub i32 %3, 1
  %6 = mul i32 %3, %5
  %7 = urem i32 %6, 2
  %8 = icmp eq i32 %7, 0
  %9 = icmp slt i32 %4, 10
  %10 = or i1 %8, %9
  br i1 %10, label %originalBB, label %originalBBalteredBB

originalBB:                                       ; preds = %2, %originalBBalteredBB
  %11 = alloca %"class.std::vector.58"*, align 8
  %12 = alloca %class.Point*, align 8
  %13 = alloca %"class.__gnu_cxx::__normal_iterator", align 8
  store %"class.std::vector.58"* %0, %"class.std::vector.58"** %11, align 8
  store %class.Point* %1, %class.Point** %12, align 8
  %14 = load %"class.std::vector.58"*, %"class.std::vector.58"** %11, align 8
  %15 = bitcast %"class.std::vector.58"* %14 to %"struct.std::_Vector_base.59"*
  %16 = getelementptr inbounds %"struct.std::_Vector_base.59", %"struct.std::_Vector_base.59"* %15, i32 0, i32 0
  %17 = bitcast %"struct.std::_Vector_base<Point<3>, std::allocator<Point<3> > >::_Vector_impl"* %16 to %"struct.std::_Vector_base<Point<3>, std::allocator<Point<3> > >::_Vector_impl_data"*
  %18 = getelementptr inbounds %"struct.std::_Vector_base<Point<3>, std::allocator<Point<3> > >::_Vector_impl_data", %"struct.std::_Vector_base<Point<3>, std::allocator<Point<3> > >::_Vector_impl_data"* %17, i32 0, i32 1
  %19 = load %class.Point*, %class.Point** %18, align 8
  %20 = bitcast %"class.std::vector.58"* %14 to %"struct.std::_Vector_base.59"*
  %21 = getelementptr inbounds %"struct.std::_Vector_base.59", %"struct.std::_Vector_base.59"* %20, i32 0, i32 0
  %22 = bitcast %"struct.std::_Vector_base<Point<3>, std::allocator<Point<3> > >::_Vector_impl"* %21 to %"struct.std::_Vector_base<Point<3>, std::allocator<Point<3> > >::_Vector_impl_data"*
  %23 = getelementptr inbounds %"struct.std::_Vector_base<Point<3>, std::allocator<Point<3> > >::_Vector_impl_data", %"struct.std::_Vector_base<Point<3>, std::allocator<Point<3> > >::_Vector_impl_data"* %22, i32 0, i32 2
  %24 = load %class.Point*, %class.Point** %23, align 8
  %25 = icmp ne %class.Point* %19, %24
  %26 = load i32, i32* @x.49
  %27 = load i32, i32* @y.50
  %28 = sub i32 %26, 1
  %29 = mul i32 %26, %28
  %30 = urem i32 %29, 2
  %31 = icmp eq i32 %30, 0
  %32 = icmp slt i32 %27, 10
  %33 = or i1 %31, %32
  br i1 %33, label %originalBBpart2, label %originalBBalteredBB

originalBBpart2:                                  ; preds = %originalBB
  br i1 %25, label %34, label %50

; <label>:34:                                     ; preds = %originalBBpart2
  %35 = bitcast %"class.std::vector.58"* %14 to %"struct.std::_Vector_base.59"*
  %36 = getelementptr inbounds %"struct.std::_Vector_base.59", %"struct.std::_Vector_base.59"* %35, i32 0, i32 0
  %37 = bitcast %"struct.std::_Vector_base<Point<3>, std::allocator<Point<3> > >::_Vector_impl"* %36 to %"class.std::allocator.60"*
  %38 = bitcast %"class.std::vector.58"* %14 to %"struct.std::_Vector_base.59"*
  %39 = getelementptr inbounds %"struct.std::_Vector_base.59", %"struct.std::_Vector_base.59"* %38, i32 0, i32 0
  %40 = bitcast %"struct.std::_Vector_base<Point<3>, std::allocator<Point<3> > >::_Vector_impl"* %39 to %"struct.std::_Vector_base<Point<3>, std::allocator<Point<3> > >::_Vector_impl_data"*
  %41 = getelementptr inbounds %"struct.std::_Vector_base<Point<3>, std::allocator<Point<3> > >::_Vector_impl_data", %"struct.std::_Vector_base<Point<3>, std::allocator<Point<3> > >::_Vector_impl_data"* %40, i32 0, i32 1
  %42 = load %class.Point*, %class.Point** %41, align 8
  %43 = load %class.Point*, %class.Point** %12, align 8
  call void @_ZN9__gnu_cxx14__alloc_traitsISaI5PointILi3EEES2_E9constructIS2_EEvRS3_PS2_RKT_(%"class.std::allocator.60"* dereferenceable(1) %37, %class.Point* %42, %class.Point* dereferenceable(24) %43)
  %44 = bitcast %"class.std::vector.58"* %14 to %"struct.std::_Vector_base.59"*
  %45 = getelementptr inbounds %"struct.std::_Vector_base.59", %"struct.std::_Vector_base.59"* %44, i32 0, i32 0
  %46 = bitcast %"struct.std::_Vector_base<Point<3>, std::allocator<Point<3> > >::_Vector_impl"* %45 to %"struct.std::_Vector_base<Point<3>, std::allocator<Point<3> > >::_Vector_impl_data"*
  %47 = getelementptr inbounds %"struct.std::_Vector_base<Point<3>, std::allocator<Point<3> > >::_Vector_impl_data", %"struct.std::_Vector_base<Point<3>, std::allocator<Point<3> > >::_Vector_impl_data"* %46, i32 0, i32 1
  %48 = load %class.Point*, %class.Point** %47, align 8
  %49 = getelementptr inbounds %class.Point, %class.Point* %48, i32 1
  store %class.Point* %49, %class.Point** %47, align 8
  br label %56

; <label>:50:                                     ; preds = %originalBBpart2
  %51 = call %class.Point* @_ZNSt6vectorI5PointILi3EESaIS1_EE3endEv(%"class.std::vector.58"* %14)
  %52 = getelementptr inbounds %"class.__gnu_cxx::__normal_iterator", %"class.__gnu_cxx::__normal_iterator"* %13, i32 0, i32 0
  store %class.Point* %51, %class.Point** %52, align 8
  %53 = load %class.Point*, %class.Point** %12, align 8
  %54 = getelementptr inbounds %"class.__gnu_cxx::__normal_iterator", %"class.__gnu_cxx::__normal_iterator"* %13, i32 0, i32 0
  %55 = load %class.Point*, %class.Point** %54, align 8
  call void @_ZNSt6vectorI5PointILi3EESaIS1_EE17_M_realloc_insertEN9__gnu_cxx17__normal_iteratorIPS1_S3_EERKS1_(%"class.std::vector.58"* %14, %class.Point* %55, %class.Point* dereferenceable(24) %53)
  br label %56

; <label>:56:                                     ; preds = %50, %34
  ret void

originalBBalteredBB:                              ; preds = %originalBB, %2
  %57 = alloca %"class.std::vector.58"*, align 8
  %58 = alloca %class.Point*, align 8
  %59 = alloca %"class.__gnu_cxx::__normal_iterator", align 8
  store %"class.std::vector.58"* %0, %"class.std::vector.58"** %57, align 8
  store %class.Point* %1, %class.Point** %58, align 8
  %60 = load %"class.std::vector.58"*, %"class.std::vector.58"** %57, align 8
  %61 = bitcast %"class.std::vector.58"* %60 to %"struct.std::_Vector_base.59"*
  %62 = getelementptr inbounds %"struct.std::_Vector_base.59", %"struct.std::_Vector_base.59"* %61, i32 0, i32 0
  %63 = bitcast %"struct.std::_Vector_base<Point<3>, std::allocator<Point<3> > >::_Vector_impl"* %62 to %"struct.std::_Vector_base<Point<3>, std::allocator<Point<3> > >::_Vector_impl_data"*
  %64 = getelementptr inbounds %"struct.std::_Vector_base<Point<3>, std::allocator<Point<3> > >::_Vector_impl_data", %"struct.std::_Vector_base<Point<3>, std::allocator<Point<3> > >::_Vector_impl_data"* %63, i32 0, i32 1
  %65 = load %class.Point*, %class.Point** %64, align 8
  %66 = bitcast %"class.std::vector.58"* %60 to %"struct.std::_Vector_base.59"*
  %67 = getelementptr inbounds %"struct.std::_Vector_base.59", %"struct.std::_Vector_base.59"* %66, i32 0, i32 0
  %68 = bitcast %"struct.std::_Vector_base<Point<3>, std::allocator<Point<3> > >::_Vector_impl"* %67 to %"struct.std::_Vector_base<Point<3>, std::allocator<Point<3> > >::_Vector_impl_data"*
  %69 = getelementptr inbounds %"struct.std::_Vector_base<Point<3>, std::allocator<Point<3> > >::_Vector_impl_data", %"struct.std::_Vector_base<Point<3>, std::allocator<Point<3> > >::_Vector_impl_data"* %68, i32 0, i32 2
  %70 = load %class.Point*, %class.Point** %69, align 8
  %71 = icmp ne %class.Point* %65, %70
  br label %originalBB
}

declare void @_ZNK16StraightBoundaryILi3EE31get_intermediate_points_on_quadERK12TriaIteratorILi3E18TriaObjectAccessorILi2ELi3EEERSt6vectorI5PointILi3EESaIS9_EE(%class.StraightBoundary*, %class.TriaIterator.65* dereferenceable(16), %"class.std::vector.58"* dereferenceable(24)) unnamed_addr #3

; Function Attrs: noinline uwtable
define linkonce_odr void @_ZNSt6vectorI5PointILi3EESaIS1_EED2Ev(%"class.std::vector.58"*) unnamed_addr #0 comdat align 2 personality i8* bitcast (i32 (...)* @__gxx_personality_v0 to i8*) {
  %2 = alloca %"class.std::vector.58"*, align 8
  %3 = alloca i8*
  %4 = alloca i32
  store %"class.std::vector.58"* %0, %"class.std::vector.58"** %2, align 8
  %5 = load %"class.std::vector.58"*, %"class.std::vector.58"** %2, align 8
  %6 = bitcast %"class.std::vector.58"* %5 to %"struct.std::_Vector_base.59"*
  %7 = getelementptr inbounds %"struct.std::_Vector_base.59", %"struct.std::_Vector_base.59"* %6, i32 0, i32 0
  %8 = bitcast %"struct.std::_Vector_base<Point<3>, std::allocator<Point<3> > >::_Vector_impl"* %7 to %"struct.std::_Vector_base<Point<3>, std::allocator<Point<3> > >::_Vector_impl_data"*
  %9 = getelementptr inbounds %"struct.std::_Vector_base<Point<3>, std::allocator<Point<3> > >::_Vector_impl_data", %"struct.std::_Vector_base<Point<3>, std::allocator<Point<3> > >::_Vector_impl_data"* %8, i32 0, i32 0
  %10 = load %class.Point*, %class.Point** %9, align 8
  %11 = bitcast %"class.std::vector.58"* %5 to %"struct.std::_Vector_base.59"*
  %12 = getelementptr inbounds %"struct.std::_Vector_base.59", %"struct.std::_Vector_base.59"* %11, i32 0, i32 0
  %13 = bitcast %"struct.std::_Vector_base<Point<3>, std::allocator<Point<3> > >::_Vector_impl"* %12 to %"struct.std::_Vector_base<Point<3>, std::allocator<Point<3> > >::_Vector_impl_data"*
  %14 = getelementptr inbounds %"struct.std::_Vector_base<Point<3>, std::allocator<Point<3> > >::_Vector_impl_data", %"struct.std::_Vector_base<Point<3>, std::allocator<Point<3> > >::_Vector_impl_data"* %13, i32 0, i32 1
  %15 = load %class.Point*, %class.Point** %14, align 8
  %16 = bitcast %"class.std::vector.58"* %5 to %"struct.std::_Vector_base.59"*
  %17 = invoke dereferenceable(1) %"class.std::allocator.60"* @_ZNSt12_Vector_baseI5PointILi3EESaIS1_EE19_M_get_Tp_allocatorEv(%"struct.std::_Vector_base.59"* %16)
          to label %18 unwind label %21

; <label>:18:                                     ; preds = %1
  invoke void @_ZSt8_DestroyIP5PointILi3EES1_EvT_S3_RSaIT0_E(%class.Point* %10, %class.Point* %15, %"class.std::allocator.60"* dereferenceable(1) %17)
          to label %19 unwind label %21

; <label>:19:                                     ; preds = %18
  %20 = bitcast %"class.std::vector.58"* %5 to %"struct.std::_Vector_base.59"*
  call void @_ZNSt12_Vector_baseI5PointILi3EESaIS1_EED2Ev(%"struct.std::_Vector_base.59"* %20)
  ret void

; <label>:21:                                     ; preds = %18, %1
  %22 = load i32, i32* @x.51
  %23 = load i32, i32* @y.52
  %24 = sub i32 %22, 1
  %25 = mul i32 %22, %24
  %26 = urem i32 %25, 2
  %27 = icmp eq i32 %26, 0
  %28 = icmp slt i32 %23, 10
  %29 = or i1 %27, %28
  br i1 %29, label %originalBB, label %originalBBalteredBB

originalBB:                                       ; preds = %21, %originalBBalteredBB
  %30 = landingpad { i8*, i32 }
          cleanup
  %31 = extractvalue { i8*, i32 } %30, 0
  store i8* %31, i8** %3, align 8
  %32 = extractvalue { i8*, i32 } %30, 1
  store i32 %32, i32* %4, align 4
  %33 = bitcast %"class.std::vector.58"* %5 to %"struct.std::_Vector_base.59"*
  %34 = load i32, i32* @x.51
  %35 = load i32, i32* @y.52
  %36 = sub i32 %34, 1
  %37 = mul i32 %34, %36
  %38 = urem i32 %37, 2
  %39 = icmp eq i32 %38, 0
  %40 = icmp slt i32 %35, 10
  %41 = or i1 %39, %40
  br i1 %41, label %originalBBpart2, label %originalBBalteredBB

originalBBpart2:                                  ; preds = %originalBB
  invoke void @_ZNSt12_Vector_baseI5PointILi3EESaIS1_EED2Ev(%"struct.std::_Vector_base.59"* %33)
          to label %42 unwind label %48

; <label>:42:                                     ; preds = %originalBBpart2
  br label %43

; <label>:43:                                     ; preds = %42
  %44 = load i8*, i8** %3, align 8
  %45 = load i32, i32* %4, align 4
  %46 = insertvalue { i8*, i32 } undef, i8* %44, 0
  %47 = insertvalue { i8*, i32 } %46, i32 %45, 1
  resume { i8*, i32 } %47

; <label>:48:                                     ; preds = %originalBBpart2
  %49 = landingpad { i8*, i32 }
          catch i8* null
  %50 = extractvalue { i8*, i32 } %49, 0
  call void @__clang_call_terminate(i8* %50) #12
  unreachable

originalBBalteredBB:                              ; preds = %originalBB, %21
  %51 = landingpad { i8*, i32 }
          cleanup
  %52 = extractvalue { i8*, i32 } %51, 0
  store i8* %52, i8** %3, align 8
  %53 = extractvalue { i8*, i32 } %51, 1
  store i32 %53, i32* %4, align 4
  %54 = bitcast %"class.std::vector.58"* %5 to %"struct.std::_Vector_base.59"*
  br label %originalBB
}

; Function Attrs: noinline noreturn nounwind
define linkonce_odr hidden void @__clang_call_terminate(i8*) #4 comdat {
  %2 = call i8* @__cxa_begin_catch(i8* %0) #2
  call void @_ZSt9terminatev() #12
  unreachable
}

declare i8* @__cxa_begin_catch(i8*)

declare void @_ZSt9terminatev()

; Function Attrs: noinline uwtable
define weak_odr void @_ZN8MappingQILi3EEC2Ej(%class.MappingQ*, i32) unnamed_addr #0 comdat($_ZN8MappingQILi3EEC5Ej) align 2 personality i8* bitcast (i32 (...)* @__gxx_personality_v0 to i8*) {
  %3 = alloca %class.MappingQ*, align 8
  %4 = alloca i32, align 4
  %5 = alloca i8*
  %6 = alloca i32
  %7 = alloca i32, align 4
  %8 = alloca %"class.std::allocator.7", align 1
  %9 = alloca %"class.std::vector.73", align 8
  %10 = alloca i32, align 4
  %11 = alloca %"class.Polynomials::LagrangeEquidistant", align 8
  %12 = alloca %class.FE_Q, align 8
  store %class.MappingQ* %0, %class.MappingQ** %3, align 8
  store i32 %1, i32* %4, align 4
  %13 = load %class.MappingQ*, %class.MappingQ** %3, align 8
  %14 = bitcast %class.MappingQ* %13 to %class.MappingQ1*
  call void @_ZN9MappingQ1ILi3EEC2Ev(%class.MappingQ1* %14)
  %15 = bitcast %class.MappingQ* %13 to i32 (...)***
  store i32 (...)** bitcast (i8** getelementptr inbounds ({ [22 x i8*] }, { [22 x i8*] }* @_ZTV8MappingQILi3EE, i32 0, inrange i32 0, i32 2) to i32 (...)**), i32 (...)*** %15, align 8
  %16 = getelementptr inbounds %class.MappingQ, %class.MappingQ* %13, i32 0, i32 1
  invoke void @_ZN5TableILi2EdEC2Ev(%class.Table* %16)
          to label %17 unwind label %148

; <label>:17:                                     ; preds = %2
  %18 = getelementptr inbounds %class.MappingQ, %class.MappingQ* %13, i32 0, i32 2
  invoke void @_ZN5TableILi2EdEC2Ev(%class.Table* %18)
          to label %19 unwind label %152

; <label>:19:                                     ; preds = %17
  %20 = load i32, i32* @x.55
  %21 = load i32, i32* @y.56
  %22 = sub i32 %20, 1
  %23 = mul i32 %20, %22
  %24 = urem i32 %23, 2
  %25 = icmp eq i32 %24, 0
  %26 = icmp slt i32 %21, 10
  %27 = or i1 %25, %26
  br i1 %27, label %originalBB, label %originalBBalteredBB

originalBB:                                       ; preds = %19, %originalBBalteredBB
  %28 = getelementptr inbounds %class.MappingQ, %class.MappingQ* %13, i32 0, i32 3
  %29 = load i32, i32* %4, align 4
  store i32 %29, i32* %28, align 8
  %30 = getelementptr inbounds %class.MappingQ, %class.MappingQ* %13, i32 0, i32 4
  %31 = getelementptr inbounds %class.MappingQ, %class.MappingQ* %13, i32 0, i32 3
  %32 = load i32, i32* %31, align 8
  %33 = sub i32 %32, 1
  %34 = load i32, i32* @x.55
  %35 = load i32, i32* @y.56
  %36 = sub i32 %34, 1
  %37 = mul i32 %34, %36
  %38 = urem i32 %37, 2
  %39 = icmp eq i32 %38, 0
  %40 = icmp slt i32 %35, 10
  %41 = or i1 %39, %40
  br i1 %41, label %originalBBpart2, label %originalBBalteredBB

originalBBpart2:                                  ; preds = %originalBB
  %42 = invoke i32 @_Z5powerIjET_S0_j(i32 %33, i32 3)
          to label %43 unwind label %156

; <label>:43:                                     ; preds = %originalBBpart2
  store i32 %42, i32* %30, align 4
  %44 = getelementptr inbounds %class.MappingQ, %class.MappingQ* %13, i32 0, i32 5
  %45 = getelementptr inbounds %class.MappingQ, %class.MappingQ* %13, i32 0, i32 3
  %46 = load i32, i32* %45, align 8
  %47 = sub i32 %46, 1
  %48 = mul i32 12, %47
  %49 = add i32 8, %48
  %50 = getelementptr inbounds %class.MappingQ, %class.MappingQ* %13, i32 0, i32 3
  %51 = load i32, i32* %50, align 8
  %52 = sub i32 %51, 1
  %53 = mul i32 6, %52
  %54 = getelementptr inbounds %class.MappingQ, %class.MappingQ* %13, i32 0, i32 3
  %55 = load i32, i32* %54, align 8
  %56 = sub i32 %55, 1
  %57 = mul i32 %53, %56
  %58 = add i32 %49, %57
  store i32 %58, i32* %44, align 8
  %59 = getelementptr inbounds %class.MappingQ, %class.MappingQ* %13, i32 0, i32 6
  store %class.TensorProductPolynomials* null, %class.TensorProductPolynomials** %59, align 8
  %60 = getelementptr inbounds %class.MappingQ, %class.MappingQ* %13, i32 0, i32 7
  %61 = getelementptr inbounds %class.MappingQ, %class.MappingQ* %13, i32 0, i32 3
  %62 = load i32, i32* %61, align 8
  %63 = add i32 %62, 1
  %64 = invoke i32 @_Z5powerIjET_S0_j(i32 %63, i32 3)
          to label %65 unwind label %156

; <label>:65:                                     ; preds = %43
  store i32 %64, i32* %60, align 8
  %66 = getelementptr inbounds %class.MappingQ, %class.MappingQ* %13, i32 0, i32 8
  store i32 0, i32* %7, align 4
  call void @_ZNSaIjEC2Ev(%"class.std::allocator.7"* %8) #2
  invoke void @_ZNSt6vectorIjSaIjEEC2EmRKjRKS0_(%"class.std::vector.5"* %66, i64 0, i32* dereferenceable(4) %7, %"class.std::allocator.7"* dereferenceable(1) %8)
          to label %67 unwind label %160

; <label>:67:                                     ; preds = %65
  call void @_ZNSaIjED2Ev(%"class.std::allocator.7"* %8) #2
  invoke void @_ZNSt6vectorIN11Polynomials19LagrangeEquidistantESaIS1_EEC2Ev(%"class.std::vector.73"* %9)
          to label %68 unwind label %164

; <label>:68:                                     ; preds = %67
  store i32 0, i32* %10, align 4
  br label %69

; <label>:69:                                     ; preds = %originalBBpart228, %68
  %70 = load i32, i32* @x.55
  %71 = load i32, i32* @y.56
  %72 = sub i32 %70, 1
  %73 = mul i32 %70, %72
  %74 = urem i32 %73, 2
  %75 = icmp eq i32 %74, 0
  %76 = icmp slt i32 %71, 10
  %77 = or i1 %75, %76
  br i1 %77, label %originalBB6, label %originalBB6alteredBB

originalBB6:                                      ; preds = %69, %originalBB6alteredBB
  %78 = load i32, i32* %10, align 4
  %79 = getelementptr inbounds %class.MappingQ, %class.MappingQ* %13, i32 0, i32 3
  %80 = load i32, i32* %79, align 8
  %81 = icmp ule i32 %78, %80
  %82 = load i32, i32* @x.55
  %83 = load i32, i32* @y.56
  %84 = sub i32 %82, 1
  %85 = mul i32 %82, %84
  %86 = urem i32 %85, 2
  %87 = icmp eq i32 %86, 0
  %88 = icmp slt i32 %83, 10
  %89 = or i1 %87, %88
  br i1 %89, label %originalBBpart28, label %originalBB6alteredBB

originalBBpart28:                                 ; preds = %originalBB6
  br i1 %81, label %90, label %209

; <label>:90:                                     ; preds = %originalBBpart28
  %91 = getelementptr inbounds %class.MappingQ, %class.MappingQ* %13, i32 0, i32 3
  %92 = load i32, i32* %91, align 8
  %93 = load i32, i32* %10, align 4
  invoke void @_ZN11Polynomials19LagrangeEquidistantC1Ejj(%"class.Polynomials::LagrangeEquidistant"* %11, i32 %92, i32 %93)
          to label %94 unwind label %168

; <label>:94:                                     ; preds = %90
  invoke void @_ZNSt6vectorIN11Polynomials19LagrangeEquidistantESaIS1_EE9push_backERKS1_(%"class.std::vector.73"* %9, %"class.Polynomials::LagrangeEquidistant"* dereferenceable(48) %11)
          to label %95 unwind label %188

; <label>:95:                                     ; preds = %94
  %96 = load i32, i32* @x.55
  %97 = load i32, i32* @y.56
  %98 = sub i32 %96, 1
  %99 = mul i32 %96, %98
  %100 = urem i32 %99, 2
  %101 = icmp eq i32 %100, 0
  %102 = icmp slt i32 %97, 10
  %103 = or i1 %101, %102
  br i1 %103, label %originalBB10, label %originalBB10alteredBB

originalBB10:                                     ; preds = %95, %originalBB10alteredBB
  %104 = load i32, i32* @x.55
  %105 = load i32, i32* @y.56
  %106 = sub i32 %104, 1
  %107 = mul i32 %104, %106
  %108 = urem i32 %107, 2
  %109 = icmp eq i32 %108, 0
  %110 = icmp slt i32 %105, 10
  %111 = or i1 %109, %110
  br i1 %111, label %originalBBpart212, label %originalBB10alteredBB

originalBBpart212:                                ; preds = %originalBB10
  invoke void @_ZN11Polynomials19LagrangeEquidistantD2Ev(%"class.Polynomials::LagrangeEquidistant"* %11)
          to label %112 unwind label %168

; <label>:112:                                    ; preds = %originalBBpart212
  %113 = load i32, i32* @x.55
  %114 = load i32, i32* @y.56
  %115 = sub i32 %113, 1
  %116 = mul i32 %113, %115
  %117 = urem i32 %116, 2
  %118 = icmp eq i32 %117, 0
  %119 = icmp slt i32 %114, 10
  %120 = or i1 %118, %119
  br i1 %120, label %originalBB14, label %originalBB14alteredBB

originalBB14:                                     ; preds = %112, %originalBB14alteredBB
  %121 = load i32, i32* @x.55
  %122 = load i32, i32* @y.56
  %123 = sub i32 %121, 1
  %124 = mul i32 %121, %123
  %125 = urem i32 %124, 2
  %126 = icmp eq i32 %125, 0
  %127 = icmp slt i32 %122, 10
  %128 = or i1 %126, %127
  br i1 %128, label %originalBBpart216, label %originalBB14alteredBB

originalBBpart216:                                ; preds = %originalBB14
  br label %129

; <label>:129:                                    ; preds = %originalBBpart216
  %130 = load i32, i32* @x.55
  %131 = load i32, i32* @y.56
  %132 = sub i32 %130, 1
  %133 = mul i32 %130, %132
  %134 = urem i32 %133, 2
  %135 = icmp eq i32 %134, 0
  %136 = icmp slt i32 %131, 10
  %137 = or i1 %135, %136
  br i1 %137, label %originalBB18, label %originalBB18alteredBB

originalBB18:                                     ; preds = %129, %originalBB18alteredBB
  %138 = load i32, i32* %10, align 4
  %139 = add i32 %138, 1
  store i32 %139, i32* %10, align 4
  %140 = load i32, i32* @x.55
  %141 = load i32, i32* @y.56
  %142 = sub i32 %140, 1
  %143 = mul i32 %140, %142
  %144 = urem i32 %143, 2
  %145 = icmp eq i32 %144, 0
  %146 = icmp slt i32 %141, 10
  %147 = or i1 %145, %146
  br i1 %147, label %originalBBpart228, label %originalBB18alteredBB

originalBBpart228:                                ; preds = %originalBB18
  br label %69

; <label>:148:                                    ; preds = %2
  %149 = landingpad { i8*, i32 }
          cleanup
  %150 = extractvalue { i8*, i32 } %149, 0
  store i8* %150, i8** %5, align 8
  %151 = extractvalue { i8*, i32 } %149, 1
  store i32 %151, i32* %6, align 4
  br label %397

; <label>:152:                                    ; preds = %17
  %153 = landingpad { i8*, i32 }
          cleanup
  %154 = extractvalue { i8*, i32 } %153, 0
  store i8* %154, i8** %5, align 8
  %155 = extractvalue { i8*, i32 } %153, 1
  store i32 %155, i32* %6, align 4
  br label %363

; <label>:156:                                    ; preds = %43, %originalBBpart2
  %157 = landingpad { i8*, i32 }
          cleanup
  %158 = extractvalue { i8*, i32 } %157, 0
  store i8* %158, i8** %5, align 8
  %159 = extractvalue { i8*, i32 } %157, 1
  store i32 %159, i32* %6, align 4
  br label %345

; <label>:160:                                    ; preds = %65
  %161 = landingpad { i8*, i32 }
          cleanup
  %162 = extractvalue { i8*, i32 } %161, 0
  store i8* %162, i8** %5, align 8
  %163 = extractvalue { i8*, i32 } %161, 1
  store i32 %163, i32* %6, align 4
  call void @_ZNSaIjED2Ev(%"class.std::allocator.7"* %8) #2
  br label %345

; <label>:164:                                    ; preds = %307, %67
  %165 = landingpad { i8*, i32 }
          cleanup
  %166 = extractvalue { i8*, i32 } %165, 0
  store i8* %166, i8** %5, align 8
  %167 = extractvalue { i8*, i32 } %165, 1
  store i32 %167, i32* %6, align 4
  br label %327

; <label>:168:                                    ; preds = %originalBBpart244, %245, %224, %219, %213, %209, %originalBBpart212, %90
  %169 = load i32, i32* @x.55
  %170 = load i32, i32* @y.56
  %171 = sub i32 %169, 1
  %172 = mul i32 %169, %171
  %173 = urem i32 %172, 2
  %174 = icmp eq i32 %173, 0
  %175 = icmp slt i32 %170, 10
  %176 = or i1 %174, %175
  br i1 %176, label %originalBB30, label %originalBB30alteredBB

originalBB30:                                     ; preds = %168, %originalBB30alteredBB
  %177 = landingpad { i8*, i32 }
          cleanup
  %178 = extractvalue { i8*, i32 } %177, 0
  store i8* %178, i8** %5, align 8
  %179 = extractvalue { i8*, i32 } %177, 1
  store i32 %179, i32* %6, align 4
  %180 = load i32, i32* @x.55
  %181 = load i32, i32* @y.56
  %182 = sub i32 %180, 1
  %183 = mul i32 %180, %182
  %184 = urem i32 %183, 2
  %185 = icmp eq i32 %184, 0
  %186 = icmp slt i32 %181, 10
  %187 = or i1 %185, %186
  br i1 %187, label %originalBBpart232, label %originalBB30alteredBB

originalBBpart232:                                ; preds = %originalBB30
  br label %309

; <label>:188:                                    ; preds = %94
  %189 = landingpad { i8*, i32 }
          cleanup
  %190 = extractvalue { i8*, i32 } %189, 0
  store i8* %190, i8** %5, align 8
  %191 = extractvalue { i8*, i32 } %189, 1
  store i32 %191, i32* %6, align 4
  invoke void @_ZN11Polynomials19LagrangeEquidistantD2Ev(%"class.Polynomials::LagrangeEquidistant"* %11)
          to label %192 unwind label %421

; <label>:192:                                    ; preds = %188
  %193 = load i32, i32* @x.55
  %194 = load i32, i32* @y.56
  %195 = sub i32 %193, 1
  %196 = mul i32 %193, %195
  %197 = urem i32 %196, 2
  %198 = icmp eq i32 %197, 0
  %199 = icmp slt i32 %194, 10
  %200 = or i1 %198, %199
  br i1 %200, label %originalBB34, label %originalBB34alteredBB

originalBB34:                                     ; preds = %192, %originalBB34alteredBB
  %201 = load i32, i32* @x.55
  %202 = load i32, i32* @y.56
  %203 = sub i32 %201, 1
  %204 = mul i32 %201, %203
  %205 = urem i32 %204, 2
  %206 = icmp eq i32 %205, 0
  %207 = icmp slt i32 %202, 10
  %208 = or i1 %206, %207
  br i1 %208, label %originalBBpart236, label %originalBB34alteredBB

originalBBpart236:                                ; preds = %originalBB34
  br label %309

; <label>:209:                                    ; preds = %originalBBpart28
  %210 = invoke i8* @_Znwm(i64 80) #13
          to label %211 unwind label %168

; <label>:211:                                    ; preds = %209
  %212 = bitcast i8* %210 to %class.TensorProductPolynomials*
  invoke void @_ZN24TensorProductPolynomialsILi3EEC2IN11Polynomials19LagrangeEquidistantEEERKSt6vectorIT_SaIS5_EE(%class.TensorProductPolynomials* %212, %"class.std::vector.73"* dereferenceable(24) %9)
          to label %213 unwind label %266

; <label>:213:                                    ; preds = %211
  %214 = getelementptr inbounds %class.MappingQ, %class.MappingQ* %13, i32 0, i32 6
  store %class.TensorProductPolynomials* %212, %class.TensorProductPolynomials** %214, align 8
  %215 = getelementptr inbounds %class.MappingQ, %class.MappingQ* %13, i32 0, i32 8
  %216 = getelementptr inbounds %class.MappingQ, %class.MappingQ* %13, i32 0, i32 7
  %217 = load i32, i32* %216, align 8
  %218 = zext i32 %217 to i64
  invoke void @_ZNSt6vectorIjSaIjEE6resizeEmj(%"class.std::vector.5"* %215, i64 %218, i32 0)
          to label %219 unwind label %168

; <label>:219:                                    ; preds = %213
  %220 = getelementptr inbounds %class.MappingQ, %class.MappingQ* %13, i32 0, i32 3
  %221 = load i32, i32* %220, align 8
  invoke void @_ZN4FE_QILi3EEC1Ej(%class.FE_Q* %12, i32 %221)
          to label %222 unwind label %168

; <label>:222:                                    ; preds = %219
  %223 = getelementptr inbounds %class.MappingQ, %class.MappingQ* %13, i32 0, i32 8
  invoke void @_ZN7FETools37lexicographic_to_hierarchic_numberingILi3EEEvRK4FE_QIXT_EERSt6vectorIjSaIjEE(%class.FE_Q* dereferenceable(1264) %12, %"class.std::vector.5"* dereferenceable(24) %223)
          to label %224 unwind label %286

; <label>:224:                                    ; preds = %222
  invoke void @_ZN4FE_QILi3EED2Ev(%class.FE_Q* %12)
          to label %225 unwind label %168

; <label>:225:                                    ; preds = %224
  %226 = load i32, i32* @x.55
  %227 = load i32, i32* @y.56
  %228 = sub i32 %226, 1
  %229 = mul i32 %226, %228
  %230 = urem i32 %229, 2
  %231 = icmp eq i32 %230, 0
  %232 = icmp slt i32 %227, 10
  %233 = or i1 %231, %232
  br i1 %233, label %originalBB38, label %originalBB38alteredBB

originalBB38:                                     ; preds = %225, %originalBB38alteredBB
  %234 = getelementptr inbounds %class.MappingQ, %class.MappingQ* %13, i32 0, i32 3
  %235 = load i32, i32* %234, align 8
  %236 = icmp ugt i32 %235, 1
  %237 = load i32, i32* @x.55
  %238 = load i32, i32* @y.56
  %239 = sub i32 %237, 1
  %240 = mul i32 %237, %239
  %241 = urem i32 %240, 2
  %242 = icmp eq i32 %241, 0
  %243 = icmp slt i32 %238, 10
  %244 = or i1 %242, %243
  br i1 %244, label %originalBBpart240, label %originalBB38alteredBB

originalBBpart240:                                ; preds = %originalBB38
  br i1 %236, label %245, label %307

; <label>:245:                                    ; preds = %originalBBpart240
  %246 = getelementptr inbounds %class.MappingQ, %class.MappingQ* %13, i32 0, i32 1
  invoke void @_ZNK8MappingQILi3EE26set_laplace_on_quad_vectorER5TableILi2EdE(%class.MappingQ* %13, %class.Table* dereferenceable(48) %246)
          to label %247 unwind label %168

; <label>:247:                                    ; preds = %245
  %248 = load i32, i32* @x.55
  %249 = load i32, i32* @y.56
  %250 = sub i32 %248, 1
  %251 = mul i32 %248, %250
  %252 = urem i32 %251, 2
  %253 = icmp eq i32 %252, 0
  %254 = icmp slt i32 %249, 10
  %255 = or i1 %253, %254
  br i1 %255, label %originalBB42, label %originalBB42alteredBB

originalBB42:                                     ; preds = %247, %originalBB42alteredBB
  %256 = getelementptr inbounds %class.MappingQ, %class.MappingQ* %13, i32 0, i32 2
  %257 = load i32, i32* @x.55
  %258 = load i32, i32* @y.56
  %259 = sub i32 %257, 1
  %260 = mul i32 %257, %259
  %261 = urem i32 %260, 2
  %262 = icmp eq i32 %261, 0
  %263 = icmp slt i32 %258, 10
  %264 = or i1 %262, %263
  br i1 %264, label %originalBBpart244, label %originalBB42alteredBB

originalBBpart244:                                ; preds = %originalBB42
  invoke void @_ZNK8MappingQILi3EE25set_laplace_on_hex_vectorER5TableILi2EdE(%class.MappingQ* %13, %class.Table* dereferenceable(48) %256)
          to label %265 unwind label %168

; <label>:265:                                    ; preds = %originalBBpart244
  br label %307

; <label>:266:                                    ; preds = %211
  %267 = load i32, i32* @x.55
  %268 = load i32, i32* @y.56
  %269 = sub i32 %267, 1
  %270 = mul i32 %267, %269
  %271 = urem i32 %270, 2
  %272 = icmp eq i32 %271, 0
  %273 = icmp slt i32 %268, 10
  %274 = or i1 %272, %273
  br i1 %274, label %originalBB46, label %originalBB46alteredBB

originalBB46:                                     ; preds = %266, %originalBB46alteredBB
  %275 = landingpad { i8*, i32 }
          cleanup
  %276 = extractvalue { i8*, i32 } %275, 0
  store i8* %276, i8** %5, align 8
  %277 = extractvalue { i8*, i32 } %275, 1
  store i32 %277, i32* %6, align 4
  call void @_ZdlPv(i8* %210) #14
  %278 = load i32, i32* @x.55
  %279 = load i32, i32* @y.56
  %280 = sub i32 %278, 1
  %281 = mul i32 %278, %280
  %282 = urem i32 %281, 2
  %283 = icmp eq i32 %282, 0
  %284 = icmp slt i32 %279, 10
  %285 = or i1 %283, %284
  br i1 %285, label %originalBBpart248, label %originalBB46alteredBB

originalBBpart248:                                ; preds = %originalBB46
  br label %309

; <label>:286:                                    ; preds = %222
  %287 = landingpad { i8*, i32 }
          cleanup
  %288 = extractvalue { i8*, i32 } %287, 0
  store i8* %288, i8** %5, align 8
  %289 = extractvalue { i8*, i32 } %287, 1
  store i32 %289, i32* %6, align 4
  invoke void @_ZN4FE_QILi3EED2Ev(%class.FE_Q* %12)
          to label %290 unwind label %421

; <label>:290:                                    ; preds = %286
  %291 = load i32, i32* @x.55
  %292 = load i32, i32* @y.56
  %293 = sub i32 %291, 1
  %294 = mul i32 %291, %293
  %295 = urem i32 %294, 2
  %296 = icmp eq i32 %295, 0
  %297 = icmp slt i32 %292, 10
  %298 = or i1 %296, %297
  br i1 %298, label %originalBB50, label %originalBB50alteredBB

originalBB50:                                     ; preds = %290, %originalBB50alteredBB
  %299 = load i32, i32* @x.55
  %300 = load i32, i32* @y.56
  %301 = sub i32 %299, 1
  %302 = mul i32 %299, %301
  %303 = urem i32 %302, 2
  %304 = icmp eq i32 %303, 0
  %305 = icmp slt i32 %300, 10
  %306 = or i1 %304, %305
  br i1 %306, label %originalBBpart252, label %originalBB50alteredBB

originalBBpart252:                                ; preds = %originalBB50
  br label %309

; <label>:307:                                    ; preds = %265, %originalBBpart240
  invoke void @_ZNSt6vectorIN11Polynomials19LagrangeEquidistantESaIS1_EED2Ev(%"class.std::vector.73"* %9)
          to label %308 unwind label %164

; <label>:308:                                    ; preds = %307
  ret void

; <label>:309:                                    ; preds = %originalBBpart252, %originalBBpart248, %originalBBpart236, %originalBBpart232
  %310 = load i32, i32* @x.55
  %311 = load i32, i32* @y.56
  %312 = sub i32 %310, 1
  %313 = mul i32 %310, %312
  %314 = urem i32 %313, 2
  %315 = icmp eq i32 %314, 0
  %316 = icmp slt i32 %311, 10
  %317 = or i1 %315, %316
  br i1 %317, label %originalBB54, label %originalBB54alteredBB

originalBB54:                                     ; preds = %309, %originalBB54alteredBB
  %318 = load i32, i32* @x.55
  %319 = load i32, i32* @y.56
  %320 = sub i32 %318, 1
  %321 = mul i32 %318, %320
  %322 = urem i32 %321, 2
  %323 = icmp eq i32 %322, 0
  %324 = icmp slt i32 %319, 10
  %325 = or i1 %323, %324
  br i1 %325, label %originalBBpart256, label %originalBB54alteredBB

originalBBpart256:                                ; preds = %originalBB54
  invoke void @_ZNSt6vectorIN11Polynomials19LagrangeEquidistantESaIS1_EED2Ev(%"class.std::vector.73"* %9)
          to label %326 unwind label %421

; <label>:326:                                    ; preds = %originalBBpart256
  br label %327

; <label>:327:                                    ; preds = %326, %164
  invoke void @_ZNSt6vectorIjSaIjEED2Ev(%"class.std::vector.5"* %66)
          to label %328 unwind label %421

; <label>:328:                                    ; preds = %327
  %329 = load i32, i32* @x.55
  %330 = load i32, i32* @y.56
  %331 = sub i32 %329, 1
  %332 = mul i32 %329, %331
  %333 = urem i32 %332, 2
  %334 = icmp eq i32 %333, 0
  %335 = icmp slt i32 %330, 10
  %336 = or i1 %334, %335
  br i1 %336, label %originalBB58, label %originalBB58alteredBB

originalBB58:                                     ; preds = %328, %originalBB58alteredBB
  %337 = load i32, i32* @x.55
  %338 = load i32, i32* @y.56
  %339 = sub i32 %337, 1
  %340 = mul i32 %337, %339
  %341 = urem i32 %340, 2
  %342 = icmp eq i32 %341, 0
  %343 = icmp slt i32 %338, 10
  %344 = or i1 %342, %343
  br i1 %344, label %originalBBpart260, label %originalBB58alteredBB

originalBBpart260:                                ; preds = %originalBB58
  br label %345

; <label>:345:                                    ; preds = %originalBBpart260, %160, %156
  %346 = load i32, i32* @x.55
  %347 = load i32, i32* @y.56
  %348 = sub i32 %346, 1
  %349 = mul i32 %346, %348
  %350 = urem i32 %349, 2
  %351 = icmp eq i32 %350, 0
  %352 = icmp slt i32 %347, 10
  %353 = or i1 %351, %352
  br i1 %353, label %originalBB62, label %originalBB62alteredBB

originalBB62:                                     ; preds = %345, %originalBB62alteredBB
  %354 = load i32, i32* @x.55
  %355 = load i32, i32* @y.56
  %356 = sub i32 %354, 1
  %357 = mul i32 %354, %356
  %358 = urem i32 %357, 2
  %359 = icmp eq i32 %358, 0
  %360 = icmp slt i32 %355, 10
  %361 = or i1 %359, %360
  br i1 %361, label %originalBBpart264, label %originalBB62alteredBB

originalBBpart264:                                ; preds = %originalBB62
  invoke void @_ZN5TableILi2EdED2Ev(%class.Table* %18)
          to label %362 unwind label %421

; <label>:362:                                    ; preds = %originalBBpart264
  br label %363

; <label>:363:                                    ; preds = %362, %152
  %364 = load i32, i32* @x.55
  %365 = load i32, i32* @y.56
  %366 = sub i32 %364, 1
  %367 = mul i32 %364, %366
  %368 = urem i32 %367, 2
  %369 = icmp eq i32 %368, 0
  %370 = icmp slt i32 %365, 10
  %371 = or i1 %369, %370
  br i1 %371, label %originalBB66, label %originalBB66alteredBB

originalBB66:                                     ; preds = %363, %originalBB66alteredBB
  %372 = load i32, i32* @x.55
  %373 = load i32, i32* @y.56
  %374 = sub i32 %372, 1
  %375 = mul i32 %372, %374
  %376 = urem i32 %375, 2
  %377 = icmp eq i32 %376, 0
  %378 = icmp slt i32 %373, 10
  %379 = or i1 %377, %378
  br i1 %379, label %originalBBpart268, label %originalBB66alteredBB

originalBBpart268:                                ; preds = %originalBB66
  invoke void @_ZN5TableILi2EdED2Ev(%class.Table* %16)
          to label %380 unwind label %421

; <label>:380:                                    ; preds = %originalBBpart268
  %381 = load i32, i32* @x.55
  %382 = load i32, i32* @y.56
  %383 = sub i32 %381, 1
  %384 = mul i32 %381, %383
  %385 = urem i32 %384, 2
  %386 = icmp eq i32 %385, 0
  %387 = icmp slt i32 %382, 10
  %388 = or i1 %386, %387
  br i1 %388, label %originalBB70, label %originalBB70alteredBB

originalBB70:                                     ; preds = %380, %originalBB70alteredBB
  %389 = load i32, i32* @x.55
  %390 = load i32, i32* @y.56
  %391 = sub i32 %389, 1
  %392 = mul i32 %389, %391
  %393 = urem i32 %392, 2
  %394 = icmp eq i32 %393, 0
  %395 = icmp slt i32 %390, 10
  %396 = or i1 %394, %395
  br i1 %396, label %originalBBpart272, label %originalBB70alteredBB

originalBBpart272:                                ; preds = %originalBB70
  br label %397

; <label>:397:                                    ; preds = %originalBBpart272, %148
  %398 = bitcast %class.MappingQ* %13 to %class.MappingQ1*
  invoke void @_ZN9MappingQ1ILi3EED2Ev(%class.MappingQ1* %398)
          to label %399 unwind label %421

; <label>:399:                                    ; preds = %397
  br label %400

; <label>:400:                                    ; preds = %399
  %401 = load i32, i32* @x.55
  %402 = load i32, i32* @y.56
  %403 = sub i32 %401, 1
  %404 = mul i32 %401, %403
  %405 = urem i32 %404, 2
  %406 = icmp eq i32 %405, 0
  %407 = icmp slt i32 %402, 10
  %408 = or i1 %406, %407
  br i1 %408, label %originalBB74, label %originalBB74alteredBB

originalBB74:                                     ; preds = %400, %originalBB74alteredBB
  %409 = load i8*, i8** %5, align 8
  %410 = load i32, i32* %6, align 4
  %411 = insertvalue { i8*, i32 } undef, i8* %409, 0
  %412 = insertvalue { i8*, i32 } %411, i32 %410, 1
  %413 = load i32, i32* @x.55
  %414 = load i32, i32* @y.56
  %415 = sub i32 %413, 1
  %416 = mul i32 %413, %415
  %417 = urem i32 %416, 2
  %418 = icmp eq i32 %417, 0
  %419 = icmp slt i32 %414, 10
  %420 = or i1 %418, %419
  br i1 %420, label %originalBBpart276, label %originalBB74alteredBB

originalBBpart276:                                ; preds = %originalBB74
  resume { i8*, i32 } %412

; <label>:421:                                    ; preds = %397, %originalBBpart268, %originalBBpart264, %327, %originalBBpart256, %286, %188
  %422 = landingpad { i8*, i32 }
          catch i8* null
  %423 = extractvalue { i8*, i32 } %422, 0
  call void @__clang_call_terminate(i8* %423) #12
  unreachable

originalBBalteredBB:                              ; preds = %originalBB, %19
  %424 = getelementptr inbounds %class.MappingQ, %class.MappingQ* %13, i32 0, i32 3
  %425 = load i32, i32* %4, align 4
  store i32 %425, i32* %424, align 8
  %426 = getelementptr inbounds %class.MappingQ, %class.MappingQ* %13, i32 0, i32 4
  %427 = getelementptr inbounds %class.MappingQ, %class.MappingQ* %13, i32 0, i32 3
  %428 = load i32, i32* %427, align 8
  %_ = shl i32 %428, 1
  %_1 = sub i32 0, %428
  %gen = add i32 %_1, 1
  %_2 = sub i32 0, %428
  %gen3 = add i32 %_2, 1
  %_4 = shl i32 %428, 1
  %_5 = shl i32 %428, 1
  %429 = sub i32 %428, 1
  br label %originalBB

originalBB6alteredBB:                             ; preds = %originalBB6, %69
  %430 = load i32, i32* %10, align 4
  %431 = getelementptr inbounds %class.MappingQ, %class.MappingQ* %13, i32 0, i32 3
  %432 = load i32, i32* %431, align 8
  %433 = icmp ule i32 %430, %432
  br label %originalBB6

originalBB10alteredBB:                            ; preds = %originalBB10, %95
  br label %originalBB10

originalBB14alteredBB:                            ; preds = %originalBB14, %112
  br label %originalBB14

originalBB18alteredBB:                            ; preds = %originalBB18, %129
  %434 = load i32, i32* %10, align 4
  %_19 = sub i32 0, %434
  %gen20 = add i32 %_19, 1
  %_21 = sub i32 %434, 1
  %gen22 = mul i32 %_21, 1
  %_23 = shl i32 %434, 1
  %_24 = sub i32 %434, 1
  %gen25 = mul i32 %_24, 1
  %_26 = shl i32 %434, 1
  %435 = add i32 %434, 1
  store i32 %435, i32* %10, align 4
  br label %originalBB18

originalBB30alteredBB:                            ; preds = %originalBB30, %168
  %436 = landingpad { i8*, i32 }
          cleanup
  %437 = extractvalue { i8*, i32 } %436, 0
  store i8* %437, i8** %5, align 8
  %438 = extractvalue { i8*, i32 } %436, 1
  store i32 %438, i32* %6, align 4
  br label %originalBB30

originalBB34alteredBB:                            ; preds = %originalBB34, %192
  br label %originalBB34

originalBB38alteredBB:                            ; preds = %originalBB38, %225
  %439 = getelementptr inbounds %class.MappingQ, %class.MappingQ* %13, i32 0, i32 3
  %440 = load i32, i32* %439, align 8
  %441 = icmp ugt i32 %440, 1
  br label %originalBB38

originalBB42alteredBB:                            ; preds = %originalBB42, %247
  %442 = getelementptr inbounds %class.MappingQ, %class.MappingQ* %13, i32 0, i32 2
  br label %originalBB42

originalBB46alteredBB:                            ; preds = %originalBB46, %266
  %443 = landingpad { i8*, i32 }
          cleanup
  %444 = extractvalue { i8*, i32 } %443, 0
  store i8* %444, i8** %5, align 8
  %445 = extractvalue { i8*, i32 } %443, 1
  store i32 %445, i32* %6, align 4
  call void @_ZdlPv(i8* %210) #14
  br label %originalBB46

originalBB50alteredBB:                            ; preds = %originalBB50, %290
  br label %originalBB50

originalBB54alteredBB:                            ; preds = %originalBB54, %309
  br label %originalBB54

originalBB58alteredBB:                            ; preds = %originalBB58, %328
  br label %originalBB58

originalBB62alteredBB:                            ; preds = %originalBB62, %345
  br label %originalBB62

originalBB66alteredBB:                            ; preds = %originalBB66, %363
  br label %originalBB66

originalBB70alteredBB:                            ; preds = %originalBB70, %380
  br label %originalBB70

originalBB74alteredBB:                            ; preds = %originalBB74, %400
  %446 = load i8*, i8** %5, align 8
  %447 = load i32, i32* %6, align 4
  %448 = insertvalue { i8*, i32 } undef, i8* %446, 0
  %449 = insertvalue { i8*, i32 } %448, i32 %447, 1
  br label %originalBB74
}

declare void @_ZN9MappingQ1ILi3EEC2Ev(%class.MappingQ1*) unnamed_addr #3

; Function Attrs: noinline uwtable
define linkonce_odr void @_ZN5TableILi2EdEC2Ev(%class.Table*) unnamed_addr #0 comdat align 2 {
  %2 = alloca %class.Table*, align 8
  store %class.Table* %0, %class.Table** %2, align 8
  %3 = load %class.Table*, %class.Table** %2, align 8
  %4 = bitcast %class.Table* %3 to %class.TableBase*
  call void @_ZN9TableBaseILi2EdEC2Ev(%class.TableBase* %4)
  %5 = bitcast %class.Table* %3 to i32 (...)***
  store i32 (...)** bitcast (i8** getelementptr inbounds ({ [4 x i8*] }, { [4 x i8*] }* @_ZTV5TableILi2EdE, i32 0, inrange i32 0, i32 2) to i32 (...)**), i32 (...)*** %5, align 8
  ret void
}

; Function Attrs: noinline nounwind uwtable
define linkonce_odr i32 @_Z5powerIjET_S0_j(i32, i32) #1 comdat {
  %3 = alloca i32, align 4
  %4 = alloca i32, align 4
  %5 = alloca i32, align 4
  %6 = alloca i32, align 4
  store i32 %0, i32* %3, align 4
  store i32 %1, i32* %4, align 4
  store i32 1, i32* %5, align 4
  store i32 0, i32* %6, align 4
  br label %7

; <label>:7:                                      ; preds = %15, %2
  %8 = load i32, i32* %6, align 4
  %9 = load i32, i32* %4, align 4
  %10 = icmp ult i32 %8, %9
  br i1 %10, label %11, label %18

; <label>:11:                                     ; preds = %7
  %12 = load i32, i32* %3, align 4
  %13 = load i32, i32* %5, align 4
  %14 = mul i32 %13, %12
  store i32 %14, i32* %5, align 4
  br label %15

; <label>:15:                                     ; preds = %11
  %16 = load i32, i32* %6, align 4
  %17 = add i32 %16, 1
  store i32 %17, i32* %6, align 4
  br label %7

; <label>:18:                                     ; preds = %7
  %19 = load i32, i32* %5, align 4
  ret i32 %19
}

; Function Attrs: noinline nounwind uwtable
define linkonce_odr void @_ZNSaIjEC2Ev(%"class.std::allocator.7"*) unnamed_addr #1 comdat align 2 {
  %2 = alloca %"class.std::allocator.7"*, align 8
  store %"class.std::allocator.7"* %0, %"class.std::allocator.7"** %2, align 8
  %3 = load %"class.std::allocator.7"*, %"class.std::allocator.7"** %2, align 8
  %4 = bitcast %"class.std::allocator.7"* %3 to %"class.__gnu_cxx::new_allocator.8"*
  call void @_ZN9__gnu_cxx13new_allocatorIjEC2Ev(%"class.__gnu_cxx::new_allocator.8"* %4) #2
  ret void
}

; Function Attrs: noinline uwtable
define linkonce_odr void @_ZNSt6vectorIjSaIjEEC2EmRKjRKS0_(%"class.std::vector.5"*, i64, i32* dereferenceable(4), %"class.std::allocator.7"* dereferenceable(1)) unnamed_addr #0 comdat align 2 personality i8* bitcast (i32 (...)* @__gxx_personality_v0 to i8*) {
  %5 = alloca %"class.std::vector.5"*, align 8
  %6 = alloca i64, align 8
  %7 = alloca i32*, align 8
  %8 = alloca %"class.std::allocator.7"*, align 8
  %9 = alloca i8*
  %10 = alloca i32
  store %"class.std::vector.5"* %0, %"class.std::vector.5"** %5, align 8
  store i64 %1, i64* %6, align 8
  store i32* %2, i32** %7, align 8
  store %"class.std::allocator.7"* %3, %"class.std::allocator.7"** %8, align 8
  %11 = load %"class.std::vector.5"*, %"class.std::vector.5"** %5, align 8
  %12 = bitcast %"class.std::vector.5"* %11 to %"struct.std::_Vector_base.6"*
  %13 = load i64, i64* %6, align 8
  %14 = load %"class.std::allocator.7"*, %"class.std::allocator.7"** %8, align 8
  %15 = call i64 @_ZNSt6vectorIjSaIjEE17_S_check_init_lenEmRKS0_(i64 %13, %"class.std::allocator.7"* dereferenceable(1) %14)
  %16 = load %"class.std::allocator.7"*, %"class.std::allocator.7"** %8, align 8
  call void @_ZNSt12_Vector_baseIjSaIjEEC2EmRKS0_(%"struct.std::_Vector_base.6"* %12, i64 %15, %"class.std::allocator.7"* dereferenceable(1) %16)
  %17 = load i64, i64* %6, align 8
  %18 = load i32*, i32** %7, align 8
  invoke void @_ZNSt6vectorIjSaIjEE18_M_fill_initializeEmRKj(%"class.std::vector.5"* %11, i64 %17, i32* dereferenceable(4) %18)
          to label %19 unwind label %36

; <label>:19:                                     ; preds = %4
  %20 = load i32, i32* @x.63
  %21 = load i32, i32* @y.64
  %22 = sub i32 %20, 1
  %23 = mul i32 %20, %22
  %24 = urem i32 %23, 2
  %25 = icmp eq i32 %24, 0
  %26 = icmp slt i32 %21, 10
  %27 = or i1 %25, %26
  br i1 %27, label %originalBB, label %originalBBalteredBB

originalBB:                                       ; preds = %19, %originalBBalteredBB
  %28 = load i32, i32* @x.63
  %29 = load i32, i32* @y.64
  %30 = sub i32 %28, 1
  %31 = mul i32 %28, %30
  %32 = urem i32 %31, 2
  %33 = icmp eq i32 %32, 0
  %34 = icmp slt i32 %29, 10
  %35 = or i1 %33, %34
  br i1 %35, label %originalBBpart2, label %originalBBalteredBB

originalBBpart2:                                  ; preds = %originalBB
  ret void

; <label>:36:                                     ; preds = %4
  %37 = load i32, i32* @x.63
  %38 = load i32, i32* @y.64
  %39 = sub i32 %37, 1
  %40 = mul i32 %37, %39
  %41 = urem i32 %40, 2
  %42 = icmp eq i32 %41, 0
  %43 = icmp slt i32 %38, 10
  %44 = or i1 %42, %43
  br i1 %44, label %originalBB1, label %originalBB1alteredBB

originalBB1:                                      ; preds = %36, %originalBB1alteredBB
  %45 = landingpad { i8*, i32 }
          cleanup
  %46 = extractvalue { i8*, i32 } %45, 0
  store i8* %46, i8** %9, align 8
  %47 = extractvalue { i8*, i32 } %45, 1
  store i32 %47, i32* %10, align 4
  %48 = bitcast %"class.std::vector.5"* %11 to %"struct.std::_Vector_base.6"*
  %49 = load i32, i32* @x.63
  %50 = load i32, i32* @y.64
  %51 = sub i32 %49, 1
  %52 = mul i32 %49, %51
  %53 = urem i32 %52, 2
  %54 = icmp eq i32 %53, 0
  %55 = icmp slt i32 %50, 10
  %56 = or i1 %54, %55
  br i1 %56, label %originalBBpart24, label %originalBB1alteredBB

originalBBpart24:                                 ; preds = %originalBB1
  invoke void @_ZNSt12_Vector_baseIjSaIjEED2Ev(%"struct.std::_Vector_base.6"* %48)
          to label %57 unwind label %63

; <label>:57:                                     ; preds = %originalBBpart24
  br label %58

; <label>:58:                                     ; preds = %57
  %59 = load i8*, i8** %9, align 8
  %60 = load i32, i32* %10, align 4
  %61 = insertvalue { i8*, i32 } undef, i8* %59, 0
  %62 = insertvalue { i8*, i32 } %61, i32 %60, 1
  resume { i8*, i32 } %62

; <label>:63:                                     ; preds = %originalBBpart24
  %64 = load i32, i32* @x.63
  %65 = load i32, i32* @y.64
  %66 = sub i32 %64, 1
  %67 = mul i32 %64, %66
  %68 = urem i32 %67, 2
  %69 = icmp eq i32 %68, 0
  %70 = icmp slt i32 %65, 10
  %71 = or i1 %69, %70
  br i1 %71, label %originalBB6, label %originalBB6alteredBB

originalBB6:                                      ; preds = %63, %originalBB6alteredBB
  %72 = landingpad { i8*, i32 }
          catch i8* null
  %73 = extractvalue { i8*, i32 } %72, 0
  call void @__clang_call_terminate(i8* %73) #12
  %74 = load i32, i32* @x.63
  %75 = load i32, i32* @y.64
  %76 = sub i32 %74, 1
  %77 = mul i32 %74, %76
  %78 = urem i32 %77, 2
  %79 = icmp eq i32 %78, 0
  %80 = icmp slt i32 %75, 10
  %81 = or i1 %79, %80
  br i1 %81, label %originalBBpart28, label %originalBB6alteredBB

originalBBpart28:                                 ; preds = %originalBB6
  unreachable

originalBBalteredBB:                              ; preds = %originalBB, %19
  br label %originalBB

originalBB1alteredBB:                             ; preds = %originalBB1, %36
  %82 = landingpad { i8*, i32 }
          cleanup
  %83 = extractvalue { i8*, i32 } %82, 0
  store i8* %83, i8** %9, align 8
  %84 = extractvalue { i8*, i32 } %82, 1
  store i32 %84, i32* %10, align 4
  %85 = bitcast %"class.std::vector.5"* %11 to %"struct.std::_Vector_base.6"*
  br label %originalBB1

originalBB6alteredBB:                             ; preds = %originalBB6, %63
  %86 = landingpad { i8*, i32 }
          catch i8* null
  %87 = extractvalue { i8*, i32 } %86, 0
  call void @__clang_call_terminate(i8* %87) #12
  br label %originalBB6
}

; Function Attrs: noinline nounwind uwtable
define linkonce_odr void @_ZNSaIjED2Ev(%"class.std::allocator.7"*) unnamed_addr #1 comdat align 2 {
  %2 = alloca %"class.std::allocator.7"*, align 8
  store %"class.std::allocator.7"* %0, %"class.std::allocator.7"** %2, align 8
  %3 = load %"class.std::allocator.7"*, %"class.std::allocator.7"** %2, align 8
  %4 = bitcast %"class.std::allocator.7"* %3 to %"class.__gnu_cxx::new_allocator.8"*
  call void @_ZN9__gnu_cxx13new_allocatorIjED2Ev(%"class.__gnu_cxx::new_allocator.8"* %4) #2
  ret void
}

; Function Attrs: noinline uwtable
define linkonce_odr void @_ZNSt6vectorIN11Polynomials19LagrangeEquidistantESaIS1_EEC2Ev(%"class.std::vector.73"*) unnamed_addr #0 comdat align 2 {
  %2 = alloca %"class.std::vector.73"*, align 8
  store %"class.std::vector.73"* %0, %"class.std::vector.73"** %2, align 8
  %3 = load %"class.std::vector.73"*, %"class.std::vector.73"** %2, align 8
  %4 = bitcast %"class.std::vector.73"* %3 to %"struct.std::_Vector_base.74"*
  call void @_ZNSt12_Vector_baseIN11Polynomials19LagrangeEquidistantESaIS1_EEC2Ev(%"struct.std::_Vector_base.74"* %4)
  ret void
}

; Function Attrs: noinline uwtable
define linkonce_odr void @_ZNSt6vectorIN11Polynomials19LagrangeEquidistantESaIS1_EE9push_backERKS1_(%"class.std::vector.73"*, %"class.Polynomials::LagrangeEquidistant"* dereferenceable(48)) #0 comdat align 2 {
  %3 = alloca %"class.std::vector.73"*, align 8
  %4 = alloca %"class.Polynomials::LagrangeEquidistant"*, align 8
  %5 = alloca %"class.__gnu_cxx::__normal_iterator.140", align 8
  store %"class.std::vector.73"* %0, %"class.std::vector.73"** %3, align 8
  store %"class.Polynomials::LagrangeEquidistant"* %1, %"class.Polynomials::LagrangeEquidistant"** %4, align 8
  %6 = load %"class.std::vector.73"*, %"class.std::vector.73"** %3, align 8
  %7 = bitcast %"class.std::vector.73"* %6 to %"struct.std::_Vector_base.74"*
  %8 = getelementptr inbounds %"struct.std::_Vector_base.74", %"struct.std::_Vector_base.74"* %7, i32 0, i32 0
  %9 = bitcast %"struct.std::_Vector_base<Polynomials::LagrangeEquidistant, std::allocator<Polynomials::LagrangeEquidistant> >::_Vector_impl"* %8 to %"struct.std::_Vector_base<Polynomials::LagrangeEquidistant, std::allocator<Polynomials::LagrangeEquidistant> >::_Vector_impl_data"*
  %10 = getelementptr inbounds %"struct.std::_Vector_base<Polynomials::LagrangeEquidistant, std::allocator<Polynomials::LagrangeEquidistant> >::_Vector_impl_data", %"struct.std::_Vector_base<Polynomials::LagrangeEquidistant, std::allocator<Polynomials::LagrangeEquidistant> >::_Vector_impl_data"* %9, i32 0, i32 1
  %11 = load %"class.Polynomials::LagrangeEquidistant"*, %"class.Polynomials::LagrangeEquidistant"** %10, align 8
  %12 = bitcast %"class.std::vector.73"* %6 to %"struct.std::_Vector_base.74"*
  %13 = getelementptr inbounds %"struct.std::_Vector_base.74", %"struct.std::_Vector_base.74"* %12, i32 0, i32 0
  %14 = bitcast %"struct.std::_Vector_base<Polynomials::LagrangeEquidistant, std::allocator<Polynomials::LagrangeEquidistant> >::_Vector_impl"* %13 to %"struct.std::_Vector_base<Polynomials::LagrangeEquidistant, std::allocator<Polynomials::LagrangeEquidistant> >::_Vector_impl_data"*
  %15 = getelementptr inbounds %"struct.std::_Vector_base<Polynomials::LagrangeEquidistant, std::allocator<Polynomials::LagrangeEquidistant> >::_Vector_impl_data", %"struct.std::_Vector_base<Polynomials::LagrangeEquidistant, std::allocator<Polynomials::LagrangeEquidistant> >::_Vector_impl_data"* %14, i32 0, i32 2
  %16 = load %"class.Polynomials::LagrangeEquidistant"*, %"class.Polynomials::LagrangeEquidistant"** %15, align 8
  %17 = icmp ne %"class.Polynomials::LagrangeEquidistant"* %11, %16
  br i1 %17, label %18, label %50

; <label>:18:                                     ; preds = %2
  %19 = load i32, i32* @x.69
  %20 = load i32, i32* @y.70
  %21 = sub i32 %19, 1
  %22 = mul i32 %19, %21
  %23 = urem i32 %22, 2
  %24 = icmp eq i32 %23, 0
  %25 = icmp slt i32 %20, 10
  %26 = or i1 %24, %25
  br i1 %26, label %originalBB, label %originalBBalteredBB

originalBB:                                       ; preds = %18, %originalBBalteredBB
  %27 = bitcast %"class.std::vector.73"* %6 to %"struct.std::_Vector_base.74"*
  %28 = getelementptr inbounds %"struct.std::_Vector_base.74", %"struct.std::_Vector_base.74"* %27, i32 0, i32 0
  %29 = bitcast %"struct.std::_Vector_base<Polynomials::LagrangeEquidistant, std::allocator<Polynomials::LagrangeEquidistant> >::_Vector_impl"* %28 to %"class.std::allocator.75"*
  %30 = bitcast %"class.std::vector.73"* %6 to %"struct.std::_Vector_base.74"*
  %31 = getelementptr inbounds %"struct.std::_Vector_base.74", %"struct.std::_Vector_base.74"* %30, i32 0, i32 0
  %32 = bitcast %"struct.std::_Vector_base<Polynomials::LagrangeEquidistant, std::allocator<Polynomials::LagrangeEquidistant> >::_Vector_impl"* %31 to %"struct.std::_Vector_base<Polynomials::LagrangeEquidistant, std::allocator<Polynomials::LagrangeEquidistant> >::_Vector_impl_data"*
  %33 = getelementptr inbounds %"struct.std::_Vector_base<Polynomials::LagrangeEquidistant, std::allocator<Polynomials::LagrangeEquidistant> >::_Vector_impl_data", %"struct.std::_Vector_base<Polynomials::LagrangeEquidistant, std::allocator<Polynomials::LagrangeEquidistant> >::_Vector_impl_data"* %32, i32 0, i32 1
  %34 = load %"class.Polynomials::LagrangeEquidistant"*, %"class.Polynomials::LagrangeEquidistant"** %33, align 8
  %35 = load %"class.Polynomials::LagrangeEquidistant"*, %"class.Polynomials::LagrangeEquidistant"** %4, align 8
  call void @_ZN9__gnu_cxx14__alloc_traitsISaIN11Polynomials19LagrangeEquidistantEES2_E9constructIS2_EEvRS3_PS2_RKT_(%"class.std::allocator.75"* dereferenceable(1) %29, %"class.Polynomials::LagrangeEquidistant"* %34, %"class.Polynomials::LagrangeEquidistant"* dereferenceable(48) %35)
  %36 = bitcast %"class.std::vector.73"* %6 to %"struct.std::_Vector_base.74"*
  %37 = getelementptr inbounds %"struct.std::_Vector_base.74", %"struct.std::_Vector_base.74"* %36, i32 0, i32 0
  %38 = bitcast %"struct.std::_Vector_base<Polynomials::LagrangeEquidistant, std::allocator<Polynomials::LagrangeEquidistant> >::_Vector_impl"* %37 to %"struct.std::_Vector_base<Polynomials::LagrangeEquidistant, std::allocator<Polynomials::LagrangeEquidistant> >::_Vector_impl_data"*
  %39 = getelementptr inbounds %"struct.std::_Vector_base<Polynomials::LagrangeEquidistant, std::allocator<Polynomials::LagrangeEquidistant> >::_Vector_impl_data", %"struct.std::_Vector_base<Polynomials::LagrangeEquidistant, std::allocator<Polynomials::LagrangeEquidistant> >::_Vector_impl_data"* %38, i32 0, i32 1
  %40 = load %"class.Polynomials::LagrangeEquidistant"*, %"class.Polynomials::LagrangeEquidistant"** %39, align 8
  %41 = getelementptr inbounds %"class.Polynomials::LagrangeEquidistant", %"class.Polynomials::LagrangeEquidistant"* %40, i32 1
  store %"class.Polynomials::LagrangeEquidistant"* %41, %"class.Polynomials::LagrangeEquidistant"** %39, align 8
  %42 = load i32, i32* @x.69
  %43 = load i32, i32* @y.70
  %44 = sub i32 %42, 1
  %45 = mul i32 %42, %44
  %46 = urem i32 %45, 2
  %47 = icmp eq i32 %46, 0
  %48 = icmp slt i32 %43, 10
  %49 = or i1 %47, %48
  br i1 %49, label %originalBBpart2, label %originalBBalteredBB

originalBBpart2:                                  ; preds = %originalBB
  br label %56

; <label>:50:                                     ; preds = %2
  %51 = call %"class.Polynomials::LagrangeEquidistant"* @_ZNSt6vectorIN11Polynomials19LagrangeEquidistantESaIS1_EE3endEv(%"class.std::vector.73"* %6)
  %52 = getelementptr inbounds %"class.__gnu_cxx::__normal_iterator.140", %"class.__gnu_cxx::__normal_iterator.140"* %5, i32 0, i32 0
  store %"class.Polynomials::LagrangeEquidistant"* %51, %"class.Polynomials::LagrangeEquidistant"** %52, align 8
  %53 = load %"class.Polynomials::LagrangeEquidistant"*, %"class.Polynomials::LagrangeEquidistant"** %4, align 8
  %54 = getelementptr inbounds %"class.__gnu_cxx::__normal_iterator.140", %"class.__gnu_cxx::__normal_iterator.140"* %5, i32 0, i32 0
  %55 = load %"class.Polynomials::LagrangeEquidistant"*, %"class.Polynomials::LagrangeEquidistant"** %54, align 8
  call void @_ZNSt6vectorIN11Polynomials19LagrangeEquidistantESaIS1_EE17_M_realloc_insertEN9__gnu_cxx17__normal_iteratorIPS1_S3_EERKS1_(%"class.std::vector.73"* %6, %"class.Polynomials::LagrangeEquidistant"* %55, %"class.Polynomials::LagrangeEquidistant"* dereferenceable(48) %53)
  br label %56

; <label>:56:                                     ; preds = %50, %originalBBpart2
  ret void

originalBBalteredBB:                              ; preds = %originalBB, %18
  %57 = bitcast %"class.std::vector.73"* %6 to %"struct.std::_Vector_base.74"*
  %58 = getelementptr inbounds %"struct.std::_Vector_base.74", %"struct.std::_Vector_base.74"* %57, i32 0, i32 0
  %59 = bitcast %"struct.std::_Vector_base<Polynomials::LagrangeEquidistant, std::allocator<Polynomials::LagrangeEquidistant> >::_Vector_impl"* %58 to %"class.std::allocator.75"*
  %60 = bitcast %"class.std::vector.73"* %6 to %"struct.std::_Vector_base.74"*
  %61 = getelementptr inbounds %"struct.std::_Vector_base.74", %"struct.std::_Vector_base.74"* %60, i32 0, i32 0
  %62 = bitcast %"struct.std::_Vector_base<Polynomials::LagrangeEquidistant, std::allocator<Polynomials::LagrangeEquidistant> >::_Vector_impl"* %61 to %"struct.std::_Vector_base<Polynomials::LagrangeEquidistant, std::allocator<Polynomials::LagrangeEquidistant> >::_Vector_impl_data"*
  %63 = getelementptr inbounds %"struct.std::_Vector_base<Polynomials::LagrangeEquidistant, std::allocator<Polynomials::LagrangeEquidistant> >::_Vector_impl_data", %"struct.std::_Vector_base<Polynomials::LagrangeEquidistant, std::allocator<Polynomials::LagrangeEquidistant> >::_Vector_impl_data"* %62, i32 0, i32 1
  %64 = load %"class.Polynomials::LagrangeEquidistant"*, %"class.Polynomials::LagrangeEquidistant"** %63, align 8
  %65 = load %"class.Polynomials::LagrangeEquidistant"*, %"class.Polynomials::LagrangeEquidistant"** %4, align 8
  call void @_ZN9__gnu_cxx14__alloc_traitsISaIN11Polynomials19LagrangeEquidistantEES2_E9constructIS2_EEvRS3_PS2_RKT_(%"class.std::allocator.75"* dereferenceable(1) %59, %"class.Polynomials::LagrangeEquidistant"* %64, %"class.Polynomials::LagrangeEquidistant"* dereferenceable(48) %65)
  %66 = bitcast %"class.std::vector.73"* %6 to %"struct.std::_Vector_base.74"*
  %67 = getelementptr inbounds %"struct.std::_Vector_base.74", %"struct.std::_Vector_base.74"* %66, i32 0, i32 0
  %68 = bitcast %"struct.std::_Vector_base<Polynomials::LagrangeEquidistant, std::allocator<Polynomials::LagrangeEquidistant> >::_Vector_impl"* %67 to %"struct.std::_Vector_base<Polynomials::LagrangeEquidistant, std::allocator<Polynomials::LagrangeEquidistant> >::_Vector_impl_data"*
  %69 = getelementptr inbounds %"struct.std::_Vector_base<Polynomials::LagrangeEquidistant, std::allocator<Polynomials::LagrangeEquidistant> >::_Vector_impl_data", %"struct.std::_Vector_base<Polynomials::LagrangeEquidistant, std::allocator<Polynomials::LagrangeEquidistant> >::_Vector_impl_data"* %68, i32 0, i32 1
  %70 = load %"class.Polynomials::LagrangeEquidistant"*, %"class.Polynomials::LagrangeEquidistant"** %69, align 8
  %71 = getelementptr inbounds %"class.Polynomials::LagrangeEquidistant", %"class.Polynomials::LagrangeEquidistant"* %70, i32 1
  store %"class.Polynomials::LagrangeEquidistant"* %71, %"class.Polynomials::LagrangeEquidistant"** %69, align 8
  br label %originalBB
}

declare void @_ZN11Polynomials19LagrangeEquidistantC1Ejj(%"class.Polynomials::LagrangeEquidistant"*, i32, i32) unnamed_addr #3

; Function Attrs: noinline uwtable
define linkonce_odr void @_ZN11Polynomials19LagrangeEquidistantD2Ev(%"class.Polynomials::LagrangeEquidistant"*) unnamed_addr #0 comdat align 2 {
  %2 = alloca %"class.Polynomials::LagrangeEquidistant"*, align 8
  store %"class.Polynomials::LagrangeEquidistant"* %0, %"class.Polynomials::LagrangeEquidistant"** %2, align 8
  %3 = load %"class.Polynomials::LagrangeEquidistant"*, %"class.Polynomials::LagrangeEquidistant"** %2, align 8
  %4 = bitcast %"class.Polynomials::LagrangeEquidistant"* %3 to %"class.Polynomials::Polynomial"*
  call void @_ZN11Polynomials10PolynomialIdED2Ev(%"class.Polynomials::Polynomial"* %4)
  ret void
}

; Function Attrs: nobuiltin
declare noalias i8* @_Znwm(i64) #5

; Function Attrs: noinline uwtable
define linkonce_odr void @_ZN24TensorProductPolynomialsILi3EEC2IN11Polynomials19LagrangeEquidistantEEERKSt6vectorIT_SaIS5_EE(%class.TensorProductPolynomials*, %"class.std::vector.73"* dereferenceable(24)) unnamed_addr #0 comdat align 2 personality i8* bitcast (i32 (...)* @__gxx_personality_v0 to i8*) {
  %3 = alloca %class.TensorProductPolynomials*, align 8
  %4 = alloca %"class.std::vector.73"*, align 8
  %5 = alloca %"class.__gnu_cxx::__normal_iterator.142", align 8
  %6 = alloca %"class.__gnu_cxx::__normal_iterator.142", align 8
  %7 = alloca %"class.std::allocator", align 1
  %8 = alloca i8*
  %9 = alloca i32
  %10 = alloca i32, align 4
  %11 = alloca %"class.std::allocator.7", align 1
  %12 = alloca i32, align 4
  %13 = alloca %"class.std::allocator.7", align 1
  %14 = alloca i32, align 4
  store %class.TensorProductPolynomials* %0, %class.TensorProductPolynomials** %3, align 8
  store %"class.std::vector.73"* %1, %"class.std::vector.73"** %4, align 8
  %15 = load %class.TensorProductPolynomials*, %class.TensorProductPolynomials** %3, align 8
  %16 = getelementptr inbounds %class.TensorProductPolynomials, %class.TensorProductPolynomials* %15, i32 0, i32 0
  %17 = load %"class.std::vector.73"*, %"class.std::vector.73"** %4, align 8
  %18 = call %"class.Polynomials::LagrangeEquidistant"* @_ZNKSt6vectorIN11Polynomials19LagrangeEquidistantESaIS1_EE5beginEv(%"class.std::vector.73"* %17)
  %19 = getelementptr inbounds %"class.__gnu_cxx::__normal_iterator.142", %"class.__gnu_cxx::__normal_iterator.142"* %5, i32 0, i32 0
  store %"class.Polynomials::LagrangeEquidistant"* %18, %"class.Polynomials::LagrangeEquidistant"** %19, align 8
  %20 = load %"class.std::vector.73"*, %"class.std::vector.73"** %4, align 8
  %21 = call %"class.Polynomials::LagrangeEquidistant"* @_ZNKSt6vectorIN11Polynomials19LagrangeEquidistantESaIS1_EE3endEv(%"class.std::vector.73"* %20)
  %22 = getelementptr inbounds %"class.__gnu_cxx::__normal_iterator.142", %"class.__gnu_cxx::__normal_iterator.142"* %6, i32 0, i32 0
  store %"class.Polynomials::LagrangeEquidistant"* %21, %"class.Polynomials::LagrangeEquidistant"** %22, align 8
  call void @_ZNSaIN11Polynomials10PolynomialIdEEEC2Ev(%"class.std::allocator"* %7) #2
  %23 = getelementptr inbounds %"class.__gnu_cxx::__normal_iterator.142", %"class.__gnu_cxx::__normal_iterator.142"* %5, i32 0, i32 0
  %24 = load %"class.Polynomials::LagrangeEquidistant"*, %"class.Polynomials::LagrangeEquidistant"** %23, align 8
  %25 = getelementptr inbounds %"class.__gnu_cxx::__normal_iterator.142", %"class.__gnu_cxx::__normal_iterator.142"* %6, i32 0, i32 0
  %26 = load %"class.Polynomials::LagrangeEquidistant"*, %"class.Polynomials::LagrangeEquidistant"** %25, align 8
  invoke void @_ZNSt6vectorIN11Polynomials10PolynomialIdEESaIS2_EEC2IN9__gnu_cxx17__normal_iteratorIPKNS0_19LagrangeEquidistantES_IS8_SaIS8_EEEEEET_SE_RKS3_(%"class.std::vector"* %16, %"class.Polynomials::LagrangeEquidistant"* %24, %"class.Polynomials::LagrangeEquidistant"* %26, %"class.std::allocator"* dereferenceable(1) %7)
          to label %27 unwind label %114

; <label>:27:                                     ; preds = %2
  %28 = load i32, i32* @x.73
  %29 = load i32, i32* @y.74
  %30 = sub i32 %28, 1
  %31 = mul i32 %28, %30
  %32 = urem i32 %31, 2
  %33 = icmp eq i32 %32, 0
  %34 = icmp slt i32 %29, 10
  %35 = or i1 %33, %34
  br i1 %35, label %originalBB, label %originalBBalteredBB

originalBB:                                       ; preds = %27, %originalBBalteredBB
  call void @_ZNSaIN11Polynomials10PolynomialIdEEED2Ev(%"class.std::allocator"* %7) #2
  %36 = getelementptr inbounds %class.TensorProductPolynomials, %class.TensorProductPolynomials* %15, i32 0, i32 1
  %37 = load %"class.std::vector.73"*, %"class.std::vector.73"** %4, align 8
  %38 = load i32, i32* @x.73
  %39 = load i32, i32* @y.74
  %40 = sub i32 %38, 1
  %41 = mul i32 %38, %40
  %42 = urem i32 %41, 2
  %43 = icmp eq i32 %42, 0
  %44 = icmp slt i32 %39, 10
  %45 = or i1 %43, %44
  br i1 %45, label %originalBBpart2, label %originalBBalteredBB

originalBBpart2:                                  ; preds = %originalBB
  %46 = invoke i64 @_ZNKSt6vectorIN11Polynomials19LagrangeEquidistantESaIS1_EE4sizeEv(%"class.std::vector.73"* %37)
          to label %47 unwind label %118

; <label>:47:                                     ; preds = %originalBBpart2
  %48 = trunc i64 %46 to i32
  %49 = invoke i32 @_ZN24TensorProductPolynomialsILi3EE12x_to_the_dimEj(i32 %48)
          to label %50 unwind label %118

; <label>:50:                                     ; preds = %47
  store i32 %49, i32* %36, align 8
  %51 = getelementptr inbounds %class.TensorProductPolynomials, %class.TensorProductPolynomials* %15, i32 0, i32 2
  %52 = getelementptr inbounds %class.TensorProductPolynomials, %class.TensorProductPolynomials* %15, i32 0, i32 1
  %53 = load i32, i32* %52, align 8
  %54 = zext i32 %53 to i64
  store i32 0, i32* %10, align 4
  call void @_ZNSaIjEC2Ev(%"class.std::allocator.7"* %11) #2
  invoke void @_ZNSt6vectorIjSaIjEEC2EmRKjRKS0_(%"class.std::vector.5"* %51, i64 %54, i32* dereferenceable(4) %10, %"class.std::allocator.7"* dereferenceable(1) %11)
          to label %55 unwind label %122

; <label>:55:                                     ; preds = %50
  call void @_ZNSaIjED2Ev(%"class.std::allocator.7"* %11) #2
  %56 = getelementptr inbounds %class.TensorProductPolynomials, %class.TensorProductPolynomials* %15, i32 0, i32 3
  %57 = getelementptr inbounds %class.TensorProductPolynomials, %class.TensorProductPolynomials* %15, i32 0, i32 1
  %58 = load i32, i32* %57, align 8
  %59 = zext i32 %58 to i64
  store i32 0, i32* %12, align 4
  call void @_ZNSaIjEC2Ev(%"class.std::allocator.7"* %13) #2
  invoke void @_ZNSt6vectorIjSaIjEEC2EmRKjRKS0_(%"class.std::vector.5"* %56, i64 %59, i32* dereferenceable(4) %12, %"class.std::allocator.7"* dereferenceable(1) %13)
          to label %60 unwind label %126

; <label>:60:                                     ; preds = %55
  %61 = load i32, i32* @x.73
  %62 = load i32, i32* @y.74
  %63 = sub i32 %61, 1
  %64 = mul i32 %61, %63
  %65 = urem i32 %64, 2
  %66 = icmp eq i32 %65, 0
  %67 = icmp slt i32 %62, 10
  %68 = or i1 %66, %67
  br i1 %68, label %originalBB1, label %originalBB1alteredBB

originalBB1:                                      ; preds = %60, %originalBB1alteredBB
  call void @_ZNSaIjED2Ev(%"class.std::allocator.7"* %13) #2
  store i32 0, i32* %14, align 4
  %69 = load i32, i32* @x.73
  %70 = load i32, i32* @y.74
  %71 = sub i32 %69, 1
  %72 = mul i32 %69, %71
  %73 = urem i32 %72, 2
  %74 = icmp eq i32 %73, 0
  %75 = icmp slt i32 %70, 10
  %76 = or i1 %74, %75
  br i1 %76, label %originalBBpart24, label %originalBB1alteredBB

originalBBpart24:                                 ; preds = %originalBB1
  br label %77

; <label>:77:                                     ; preds = %111, %originalBBpart24
  %78 = load i32, i32* %14, align 4
  %79 = getelementptr inbounds %class.TensorProductPolynomials, %class.TensorProductPolynomials* %15, i32 0, i32 1
  %80 = load i32, i32* %79, align 8
  %81 = icmp ult i32 %78, %80
  br i1 %81, label %82, label %150

; <label>:82:                                     ; preds = %77
  %83 = load i32, i32* %14, align 4
  %84 = getelementptr inbounds %class.TensorProductPolynomials, %class.TensorProductPolynomials* %15, i32 0, i32 2
  %85 = load i32, i32* %14, align 4
  %86 = zext i32 %85 to i64
  %87 = invoke dereferenceable(4) i32* @_ZNSt6vectorIjSaIjEEixEm(%"class.std::vector.5"* %84, i64 %86)
          to label %88 unwind label %146

; <label>:88:                                     ; preds = %82
  %89 = load i32, i32* @x.73
  %90 = load i32, i32* @y.74
  %91 = sub i32 %89, 1
  %92 = mul i32 %89, %91
  %93 = urem i32 %92, 2
  %94 = icmp eq i32 %93, 0
  %95 = icmp slt i32 %90, 10
  %96 = or i1 %94, %95
  br i1 %96, label %originalBB6, label %originalBB6alteredBB

originalBB6:                                      ; preds = %88, %originalBB6alteredBB
  store i32 %83, i32* %87, align 4
  %97 = load i32, i32* %14, align 4
  %98 = getelementptr inbounds %class.TensorProductPolynomials, %class.TensorProductPolynomials* %15, i32 0, i32 3
  %99 = load i32, i32* %14, align 4
  %100 = zext i32 %99 to i64
  %101 = load i32, i32* @x.73
  %102 = load i32, i32* @y.74
  %103 = sub i32 %101, 1
  %104 = mul i32 %101, %103
  %105 = urem i32 %104, 2
  %106 = icmp eq i32 %105, 0
  %107 = icmp slt i32 %102, 10
  %108 = or i1 %106, %107
  br i1 %108, label %originalBBpart28, label %originalBB6alteredBB

originalBBpart28:                                 ; preds = %originalBB6
  %109 = invoke dereferenceable(4) i32* @_ZNSt6vectorIjSaIjEEixEm(%"class.std::vector.5"* %98, i64 %100)
          to label %110 unwind label %146

; <label>:110:                                    ; preds = %originalBBpart28
  store i32 %97, i32* %109, align 4
  br label %111

; <label>:111:                                    ; preds = %110
  %112 = load i32, i32* %14, align 4
  %113 = add i32 %112, 1
  store i32 %113, i32* %14, align 4
  br label %77

; <label>:114:                                    ; preds = %2
  %115 = landingpad { i8*, i32 }
          cleanup
  %116 = extractvalue { i8*, i32 } %115, 0
  store i8* %116, i8** %8, align 8
  %117 = extractvalue { i8*, i32 } %115, 1
  store i32 %117, i32* %9, align 4
  call void @_ZNSaIN11Polynomials10PolynomialIdEEED2Ev(%"class.std::allocator"* %7) #2
  br label %204

; <label>:118:                                    ; preds = %47, %originalBBpart2
  %119 = landingpad { i8*, i32 }
          cleanup
  %120 = extractvalue { i8*, i32 } %119, 0
  store i8* %120, i8** %8, align 8
  %121 = extractvalue { i8*, i32 } %119, 1
  store i32 %121, i32* %9, align 4
  br label %186

; <label>:122:                                    ; preds = %50
  %123 = landingpad { i8*, i32 }
          cleanup
  %124 = extractvalue { i8*, i32 } %123, 0
  store i8* %124, i8** %8, align 8
  %125 = extractvalue { i8*, i32 } %123, 1
  store i32 %125, i32* %9, align 4
  call void @_ZNSaIjED2Ev(%"class.std::allocator.7"* %11) #2
  br label %186

; <label>:126:                                    ; preds = %55
  %127 = load i32, i32* @x.73
  %128 = load i32, i32* @y.74
  %129 = sub i32 %127, 1
  %130 = mul i32 %127, %129
  %131 = urem i32 %130, 2
  %132 = icmp eq i32 %131, 0
  %133 = icmp slt i32 %128, 10
  %134 = or i1 %132, %133
  br i1 %134, label %originalBB10, label %originalBB10alteredBB

originalBB10:                                     ; preds = %126, %originalBB10alteredBB
  %135 = landingpad { i8*, i32 }
          cleanup
  %136 = extractvalue { i8*, i32 } %135, 0
  store i8* %136, i8** %8, align 8
  %137 = extractvalue { i8*, i32 } %135, 1
  store i32 %137, i32* %9, align 4
  call void @_ZNSaIjED2Ev(%"class.std::allocator.7"* %13) #2
  %138 = load i32, i32* @x.73
  %139 = load i32, i32* @y.74
  %140 = sub i32 %138, 1
  %141 = mul i32 %138, %140
  %142 = urem i32 %141, 2
  %143 = icmp eq i32 %142, 0
  %144 = icmp slt i32 %139, 10
  %145 = or i1 %143, %144
  br i1 %145, label %originalBBpart212, label %originalBB10alteredBB

originalBBpart212:                                ; preds = %originalBB10
  br label %168

; <label>:146:                                    ; preds = %originalBBpart28, %82
  %147 = landingpad { i8*, i32 }
          cleanup
  %148 = extractvalue { i8*, i32 } %147, 0
  store i8* %148, i8** %8, align 8
  %149 = extractvalue { i8*, i32 } %147, 1
  store i32 %149, i32* %9, align 4
  invoke void @_ZNSt6vectorIjSaIjEED2Ev(%"class.std::vector.5"* %56)
          to label %151 unwind label %225

; <label>:150:                                    ; preds = %77
  ret void

; <label>:151:                                    ; preds = %146
  %152 = load i32, i32* @x.73
  %153 = load i32, i32* @y.74
  %154 = sub i32 %152, 1
  %155 = mul i32 %152, %154
  %156 = urem i32 %155, 2
  %157 = icmp eq i32 %156, 0
  %158 = icmp slt i32 %153, 10
  %159 = or i1 %157, %158
  br i1 %159, label %originalBB14, label %originalBB14alteredBB

originalBB14:                                     ; preds = %151, %originalBB14alteredBB
  %160 = load i32, i32* @x.73
  %161 = load i32, i32* @y.74
  %162 = sub i32 %160, 1
  %163 = mul i32 %160, %162
  %164 = urem i32 %163, 2
  %165 = icmp eq i32 %164, 0
  %166 = icmp slt i32 %161, 10
  %167 = or i1 %165, %166
  br i1 %167, label %originalBBpart216, label %originalBB14alteredBB

originalBBpart216:                                ; preds = %originalBB14
  br label %168

; <label>:168:                                    ; preds = %originalBBpart216, %originalBBpart212
  %169 = load i32, i32* @x.73
  %170 = load i32, i32* @y.74
  %171 = sub i32 %169, 1
  %172 = mul i32 %169, %171
  %173 = urem i32 %172, 2
  %174 = icmp eq i32 %173, 0
  %175 = icmp slt i32 %170, 10
  %176 = or i1 %174, %175
  br i1 %176, label %originalBB18, label %originalBB18alteredBB

originalBB18:                                     ; preds = %168, %originalBB18alteredBB
  %177 = load i32, i32* @x.73
  %178 = load i32, i32* @y.74
  %179 = sub i32 %177, 1
  %180 = mul i32 %177, %179
  %181 = urem i32 %180, 2
  %182 = icmp eq i32 %181, 0
  %183 = icmp slt i32 %178, 10
  %184 = or i1 %182, %183
  br i1 %184, label %originalBBpart220, label %originalBB18alteredBB

originalBBpart220:                                ; preds = %originalBB18
  invoke void @_ZNSt6vectorIjSaIjEED2Ev(%"class.std::vector.5"* %51)
          to label %185 unwind label %225

; <label>:185:                                    ; preds = %originalBBpart220
  br label %186

; <label>:186:                                    ; preds = %185, %122, %118
  %187 = load i32, i32* @x.73
  %188 = load i32, i32* @y.74
  %189 = sub i32 %187, 1
  %190 = mul i32 %187, %189
  %191 = urem i32 %190, 2
  %192 = icmp eq i32 %191, 0
  %193 = icmp slt i32 %188, 10
  %194 = or i1 %192, %193
  br i1 %194, label %originalBB22, label %originalBB22alteredBB

originalBB22:                                     ; preds = %186, %originalBB22alteredBB
  %195 = load i32, i32* @x.73
  %196 = load i32, i32* @y.74
  %197 = sub i32 %195, 1
  %198 = mul i32 %195, %197
  %199 = urem i32 %198, 2
  %200 = icmp eq i32 %199, 0
  %201 = icmp slt i32 %196, 10
  %202 = or i1 %200, %201
  br i1 %202, label %originalBBpart224, label %originalBB22alteredBB

originalBBpart224:                                ; preds = %originalBB22
  invoke void @_ZNSt6vectorIN11Polynomials10PolynomialIdEESaIS2_EED2Ev(%"class.std::vector"* %16)
          to label %203 unwind label %225

; <label>:203:                                    ; preds = %originalBBpart224
  br label %204

; <label>:204:                                    ; preds = %203, %114
  %205 = load i32, i32* @x.73
  %206 = load i32, i32* @y.74
  %207 = sub i32 %205, 1
  %208 = mul i32 %205, %207
  %209 = urem i32 %208, 2
  %210 = icmp eq i32 %209, 0
  %211 = icmp slt i32 %206, 10
  %212 = or i1 %210, %211
  br i1 %212, label %originalBB26, label %originalBB26alteredBB

originalBB26:                                     ; preds = %204, %originalBB26alteredBB
  %213 = load i8*, i8** %8, align 8
  %214 = load i32, i32* %9, align 4
  %215 = insertvalue { i8*, i32 } undef, i8* %213, 0
  %216 = insertvalue { i8*, i32 } %215, i32 %214, 1
  %217 = load i32, i32* @x.73
  %218 = load i32, i32* @y.74
  %219 = sub i32 %217, 1
  %220 = mul i32 %217, %219
  %221 = urem i32 %220, 2
  %222 = icmp eq i32 %221, 0
  %223 = icmp slt i32 %218, 10
  %224 = or i1 %222, %223
  br i1 %224, label %originalBBpart228, label %originalBB26alteredBB

originalBBpart228:                                ; preds = %originalBB26
  resume { i8*, i32 } %216

; <label>:225:                                    ; preds = %originalBBpart224, %originalBBpart220, %146
  %226 = landingpad { i8*, i32 }
          catch i8* null
  %227 = extractvalue { i8*, i32 } %226, 0
  call void @__clang_call_terminate(i8* %227) #12
  unreachable

originalBBalteredBB:                              ; preds = %originalBB, %27
  call void @_ZNSaIN11Polynomials10PolynomialIdEEED2Ev(%"class.std::allocator"* %7) #2
  %228 = getelementptr inbounds %class.TensorProductPolynomials, %class.TensorProductPolynomials* %15, i32 0, i32 1
  %229 = load %"class.std::vector.73"*, %"class.std::vector.73"** %4, align 8
  br label %originalBB

originalBB1alteredBB:                             ; preds = %originalBB1, %60
  call void @_ZNSaIjED2Ev(%"class.std::allocator.7"* %13) #2
  store i32 0, i32* %14, align 4
  br label %originalBB1

originalBB6alteredBB:                             ; preds = %originalBB6, %88
  store i32 %83, i32* %87, align 4
  %230 = load i32, i32* %14, align 4
  %231 = getelementptr inbounds %class.TensorProductPolynomials, %class.TensorProductPolynomials* %15, i32 0, i32 3
  %232 = load i32, i32* %14, align 4
  %233 = zext i32 %232 to i64
  br label %originalBB6

originalBB10alteredBB:                            ; preds = %originalBB10, %126
  %234 = landingpad { i8*, i32 }
          cleanup
  %235 = extractvalue { i8*, i32 } %234, 0
  store i8* %235, i8** %8, align 8
  %236 = extractvalue { i8*, i32 } %234, 1
  store i32 %236, i32* %9, align 4
  call void @_ZNSaIjED2Ev(%"class.std::allocator.7"* %13) #2
  br label %originalBB10

originalBB14alteredBB:                            ; preds = %originalBB14, %151
  br label %originalBB14

originalBB18alteredBB:                            ; preds = %originalBB18, %168
  br label %originalBB18

originalBB22alteredBB:                            ; preds = %originalBB22, %186
  br label %originalBB22

originalBB26alteredBB:                            ; preds = %originalBB26, %204
  %237 = load i8*, i8** %8, align 8
  %238 = load i32, i32* %9, align 4
  %239 = insertvalue { i8*, i32 } undef, i8* %237, 0
  %240 = insertvalue { i8*, i32 } %239, i32 %238, 1
  br label %originalBB26
}

; Function Attrs: nobuiltin nounwind
declare void @_ZdlPv(i8*) #6

; Function Attrs: noinline uwtable
define linkonce_odr void @_ZNSt6vectorIjSaIjEE6resizeEmj(%"class.std::vector.5"*, i64, i32) #0 comdat align 2 {
  %4 = load i32, i32* @x.75
  %5 = load i32, i32* @y.76
  %6 = sub i32 %4, 1
  %7 = mul i32 %4, %6
  %8 = urem i32 %7, 2
  %9 = icmp eq i32 %8, 0
  %10 = icmp slt i32 %5, 10
  %11 = or i1 %9, %10
  br i1 %11, label %originalBB, label %originalBBalteredBB

originalBB:                                       ; preds = %3, %originalBBalteredBB
  %12 = alloca %"class.std::vector.5"*, align 8
  %13 = alloca i64, align 8
  %14 = alloca i32, align 4
  %15 = alloca %"class.__gnu_cxx::__normal_iterator.143", align 8
  store %"class.std::vector.5"* %0, %"class.std::vector.5"** %12, align 8
  store i64 %1, i64* %13, align 8
  store i32 %2, i32* %14, align 4
  %16 = load %"class.std::vector.5"*, %"class.std::vector.5"** %12, align 8
  %17 = load i64, i64* %13, align 8
  %18 = call i64 @_ZNKSt6vectorIjSaIjEE4sizeEv(%"class.std::vector.5"* %16)
  %19 = icmp ugt i64 %17, %18
  %20 = load i32, i32* @x.75
  %21 = load i32, i32* @y.76
  %22 = sub i32 %20, 1
  %23 = mul i32 %20, %22
  %24 = urem i32 %23, 2
  %25 = icmp eq i32 %24, 0
  %26 = icmp slt i32 %21, 10
  %27 = or i1 %25, %26
  br i1 %27, label %originalBBpart2, label %originalBBalteredBB

originalBBpart2:                                  ; preds = %originalBB
  br i1 %19, label %28, label %52

; <label>:28:                                     ; preds = %originalBBpart2
  %29 = load i32, i32* @x.75
  %30 = load i32, i32* @y.76
  %31 = sub i32 %29, 1
  %32 = mul i32 %29, %31
  %33 = urem i32 %32, 2
  %34 = icmp eq i32 %33, 0
  %35 = icmp slt i32 %30, 10
  %36 = or i1 %34, %35
  br i1 %36, label %originalBB1, label %originalBB1alteredBB

originalBB1:                                      ; preds = %28, %originalBB1alteredBB
  %37 = call i32* @_ZNSt6vectorIjSaIjEE3endEv(%"class.std::vector.5"* %16)
  %38 = getelementptr inbounds %"class.__gnu_cxx::__normal_iterator.143", %"class.__gnu_cxx::__normal_iterator.143"* %15, i32 0, i32 0
  store i32* %37, i32** %38, align 8
  %39 = load i64, i64* %13, align 8
  %40 = call i64 @_ZNKSt6vectorIjSaIjEE4sizeEv(%"class.std::vector.5"* %16)
  %41 = sub i64 %39, %40
  %42 = getelementptr inbounds %"class.__gnu_cxx::__normal_iterator.143", %"class.__gnu_cxx::__normal_iterator.143"* %15, i32 0, i32 0
  %43 = load i32*, i32** %42, align 8
  call void @_ZNSt6vectorIjSaIjEE14_M_fill_insertEN9__gnu_cxx17__normal_iteratorIPjS1_EEmRKj(%"class.std::vector.5"* %16, i32* %43, i64 %41, i32* dereferenceable(4) %14)
  %44 = load i32, i32* @x.75
  %45 = load i32, i32* @y.76
  %46 = sub i32 %44, 1
  %47 = mul i32 %44, %46
  %48 = urem i32 %47, 2
  %49 = icmp eq i32 %48, 0
  %50 = icmp slt i32 %45, 10
  %51 = or i1 %49, %50
  br i1 %51, label %originalBBpart211, label %originalBB1alteredBB

originalBBpart211:                                ; preds = %originalBB1
  br label %97

; <label>:52:                                     ; preds = %originalBBpart2
  %53 = load i64, i64* %13, align 8
  %54 = call i64 @_ZNKSt6vectorIjSaIjEE4sizeEv(%"class.std::vector.5"* %16)
  %55 = icmp ult i64 %53, %54
  br i1 %55, label %56, label %80

; <label>:56:                                     ; preds = %52
  %57 = load i32, i32* @x.75
  %58 = load i32, i32* @y.76
  %59 = sub i32 %57, 1
  %60 = mul i32 %57, %59
  %61 = urem i32 %60, 2
  %62 = icmp eq i32 %61, 0
  %63 = icmp slt i32 %58, 10
  %64 = or i1 %62, %63
  br i1 %64, label %originalBB13, label %originalBB13alteredBB

originalBB13:                                     ; preds = %56, %originalBB13alteredBB
  %65 = bitcast %"class.std::vector.5"* %16 to %"struct.std::_Vector_base.6"*
  %66 = getelementptr inbounds %"struct.std::_Vector_base.6", %"struct.std::_Vector_base.6"* %65, i32 0, i32 0
  %67 = bitcast %"struct.std::_Vector_base<unsigned int, std::allocator<unsigned int> >::_Vector_impl"* %66 to %"struct.std::_Vector_base<unsigned int, std::allocator<unsigned int> >::_Vector_impl_data"*
  %68 = getelementptr inbounds %"struct.std::_Vector_base<unsigned int, std::allocator<unsigned int> >::_Vector_impl_data", %"struct.std::_Vector_base<unsigned int, std::allocator<unsigned int> >::_Vector_impl_data"* %67, i32 0, i32 0
  %69 = load i32*, i32** %68, align 8
  %70 = load i64, i64* %13, align 8
  %71 = getelementptr inbounds i32, i32* %69, i64 %70
  call void @_ZNSt6vectorIjSaIjEE15_M_erase_at_endEPj(%"class.std::vector.5"* %16, i32* %71)
  %72 = load i32, i32* @x.75
  %73 = load i32, i32* @y.76
  %74 = sub i32 %72, 1
  %75 = mul i32 %72, %74
  %76 = urem i32 %75, 2
  %77 = icmp eq i32 %76, 0
  %78 = icmp slt i32 %73, 10
  %79 = or i1 %77, %78
  br i1 %79, label %originalBBpart215, label %originalBB13alteredBB

originalBBpart215:                                ; preds = %originalBB13
  br label %80

; <label>:80:                                     ; preds = %originalBBpart215, %52
  %81 = load i32, i32* @x.75
  %82 = load i32, i32* @y.76
  %83 = sub i32 %81, 1
  %84 = mul i32 %81, %83
  %85 = urem i32 %84, 2
  %86 = icmp eq i32 %85, 0
  %87 = icmp slt i32 %82, 10
  %88 = or i1 %86, %87
  br i1 %88, label %originalBB17, label %originalBB17alteredBB

originalBB17:                                     ; preds = %80, %originalBB17alteredBB
  %89 = load i32, i32* @x.75
  %90 = load i32, i32* @y.76
  %91 = sub i32 %89, 1
  %92 = mul i32 %89, %91
  %93 = urem i32 %92, 2
  %94 = icmp eq i32 %93, 0
  %95 = icmp slt i32 %90, 10
  %96 = or i1 %94, %95
  br i1 %96, label %originalBBpart219, label %originalBB17alteredBB

originalBBpart219:                                ; preds = %originalBB17
  br label %97

; <label>:97:                                     ; preds = %originalBBpart219, %originalBBpart211
  %98 = load i32, i32* @x.75
  %99 = load i32, i32* @y.76
  %100 = sub i32 %98, 1
  %101 = mul i32 %98, %100
  %102 = urem i32 %101, 2
  %103 = icmp eq i32 %102, 0
  %104 = icmp slt i32 %99, 10
  %105 = or i1 %103, %104
  br i1 %105, label %originalBB21, label %originalBB21alteredBB

originalBB21:                                     ; preds = %97, %originalBB21alteredBB
  %106 = load i32, i32* @x.75
  %107 = load i32, i32* @y.76
  %108 = sub i32 %106, 1
  %109 = mul i32 %106, %108
  %110 = urem i32 %109, 2
  %111 = icmp eq i32 %110, 0
  %112 = icmp slt i32 %107, 10
  %113 = or i1 %111, %112
  br i1 %113, label %originalBBpart223, label %originalBB21alteredBB

originalBBpart223:                                ; preds = %originalBB21
  ret void

originalBBalteredBB:                              ; preds = %originalBB, %3
  %114 = alloca %"class.std::vector.5"*, align 8
  %115 = alloca i64, align 8
  %116 = alloca i32, align 4
  %117 = alloca %"class.__gnu_cxx::__normal_iterator.143", align 8
  store %"class.std::vector.5"* %0, %"class.std::vector.5"** %114, align 8
  store i64 %1, i64* %115, align 8
  store i32 %2, i32* %116, align 4
  %118 = load %"class.std::vector.5"*, %"class.std::vector.5"** %114, align 8
  %119 = load i64, i64* %115, align 8
  %120 = call i64 @_ZNKSt6vectorIjSaIjEE4sizeEv(%"class.std::vector.5"* %118)
  %121 = icmp ugt i64 %119, %120
  br label %originalBB

originalBB1alteredBB:                             ; preds = %originalBB1, %28
  %122 = call i32* @_ZNSt6vectorIjSaIjEE3endEv(%"class.std::vector.5"* %16)
  %123 = getelementptr inbounds %"class.__gnu_cxx::__normal_iterator.143", %"class.__gnu_cxx::__normal_iterator.143"* %15, i32 0, i32 0
  store i32* %122, i32** %123, align 8
  %124 = load i64, i64* %13, align 8
  %125 = call i64 @_ZNKSt6vectorIjSaIjEE4sizeEv(%"class.std::vector.5"* %16)
  %_ = sub i64 %124, %125
  %gen = mul i64 %_, %125
  %_2 = sub i64 %124, %125
  %gen3 = mul i64 %_2, %125
  %_4 = shl i64 %124, %125
  %_5 = sub i64 %124, %125
  %gen6 = mul i64 %_5, %125
  %_7 = shl i64 %124, %125
  %_8 = sub i64 %124, %125
  %gen9 = mul i64 %_8, %125
  %126 = sub i64 %124, %125
  %127 = getelementptr inbounds %"class.__gnu_cxx::__normal_iterator.143", %"class.__gnu_cxx::__normal_iterator.143"* %15, i32 0, i32 0
  %128 = load i32*, i32** %127, align 8
  call void @_ZNSt6vectorIjSaIjEE14_M_fill_insertEN9__gnu_cxx17__normal_iteratorIPjS1_EEmRKj(%"class.std::vector.5"* %16, i32* %128, i64 %126, i32* dereferenceable(4) %14)
  br label %originalBB1

originalBB13alteredBB:                            ; preds = %originalBB13, %56
  %129 = bitcast %"class.std::vector.5"* %16 to %"struct.std::_Vector_base.6"*
  %130 = getelementptr inbounds %"struct.std::_Vector_base.6", %"struct.std::_Vector_base.6"* %129, i32 0, i32 0
  %131 = bitcast %"struct.std::_Vector_base<unsigned int, std::allocator<unsigned int> >::_Vector_impl"* %130 to %"struct.std::_Vector_base<unsigned int, std::allocator<unsigned int> >::_Vector_impl_data"*
  %132 = getelementptr inbounds %"struct.std::_Vector_base<unsigned int, std::allocator<unsigned int> >::_Vector_impl_data", %"struct.std::_Vector_base<unsigned int, std::allocator<unsigned int> >::_Vector_impl_data"* %131, i32 0, i32 0
  %133 = load i32*, i32** %132, align 8
  %134 = load i64, i64* %13, align 8
  %135 = getelementptr inbounds i32, i32* %133, i64 %134
  call void @_ZNSt6vectorIjSaIjEE15_M_erase_at_endEPj(%"class.std::vector.5"* %16, i32* %135)
  br label %originalBB13

originalBB17alteredBB:                            ; preds = %originalBB17, %80
  br label %originalBB17

originalBB21alteredBB:                            ; preds = %originalBB21, %97
  br label %originalBB21
}

declare void @_ZN7FETools37lexicographic_to_hierarchic_numberingILi3EEEvRK4FE_QIXT_EERSt6vectorIjSaIjEE(%class.FE_Q* dereferenceable(1264), %"class.std::vector.5"* dereferenceable(24)) #3

declare void @_ZN4FE_QILi3EEC1Ej(%class.FE_Q*, i32) unnamed_addr #3

; Function Attrs: noinline uwtable
define linkonce_odr void @_ZN4FE_QILi3EED2Ev(%class.FE_Q*) unnamed_addr #0 comdat align 2 personality i8* bitcast (i32 (...)* @__gxx_personality_v0 to i8*) {
  %2 = alloca %class.FE_Q*, align 8
  %3 = alloca i8*
  %4 = alloca i32
  store %class.FE_Q* %0, %class.FE_Q** %2, align 8
  %5 = load %class.FE_Q*, %class.FE_Q** %2, align 8
  %6 = bitcast %class.FE_Q* %5 to i32 (...)***
  store i32 (...)** bitcast (i8** getelementptr inbounds ({ [28 x i8*] }, { [28 x i8*] }* @_ZTV4FE_QILi3EE, i32 0, inrange i32 0, i32 2) to i32 (...)**), i32 (...)*** %6, align 8
  %7 = getelementptr inbounds %class.FE_Q, %class.FE_Q* %5, i32 0, i32 1
  invoke void @_ZNSt6vectorIjSaIjEED2Ev(%"class.std::vector.5"* %7)
          to label %8 unwind label %10

; <label>:8:                                      ; preds = %1
  %9 = bitcast %class.FE_Q* %5 to %class.FE_Poly*
  call void @_ZN7FE_PolyI24TensorProductPolynomialsILi3EELi3EED2Ev(%class.FE_Poly* %9)
  ret void

; <label>:10:                                     ; preds = %1
  %11 = landingpad { i8*, i32 }
          cleanup
  %12 = extractvalue { i8*, i32 } %11, 0
  store i8* %12, i8** %3, align 8
  %13 = extractvalue { i8*, i32 } %11, 1
  store i32 %13, i32* %4, align 4
  %14 = bitcast %class.FE_Q* %5 to %class.FE_Poly*
  invoke void @_ZN7FE_PolyI24TensorProductPolynomialsILi3EELi3EED2Ev(%class.FE_Poly* %14)
          to label %15 unwind label %53

; <label>:15:                                     ; preds = %10
  %16 = load i32, i32* @x.77
  %17 = load i32, i32* @y.78
  %18 = sub i32 %16, 1
  %19 = mul i32 %16, %18
  %20 = urem i32 %19, 2
  %21 = icmp eq i32 %20, 0
  %22 = icmp slt i32 %17, 10
  %23 = or i1 %21, %22
  br i1 %23, label %originalBB, label %originalBBalteredBB

originalBB:                                       ; preds = %15, %originalBBalteredBB
  %24 = load i32, i32* @x.77
  %25 = load i32, i32* @y.78
  %26 = sub i32 %24, 1
  %27 = mul i32 %24, %26
  %28 = urem i32 %27, 2
  %29 = icmp eq i32 %28, 0
  %30 = icmp slt i32 %25, 10
  %31 = or i1 %29, %30
  br i1 %31, label %originalBBpart2, label %originalBBalteredBB

originalBBpart2:                                  ; preds = %originalBB
  br label %32

; <label>:32:                                     ; preds = %originalBBpart2
  %33 = load i32, i32* @x.77
  %34 = load i32, i32* @y.78
  %35 = sub i32 %33, 1
  %36 = mul i32 %33, %35
  %37 = urem i32 %36, 2
  %38 = icmp eq i32 %37, 0
  %39 = icmp slt i32 %34, 10
  %40 = or i1 %38, %39
  br i1 %40, label %originalBB1, label %originalBB1alteredBB

originalBB1:                                      ; preds = %32, %originalBB1alteredBB
  %41 = load i8*, i8** %3, align 8
  %42 = load i32, i32* %4, align 4
  %43 = insertvalue { i8*, i32 } undef, i8* %41, 0
  %44 = insertvalue { i8*, i32 } %43, i32 %42, 1
  %45 = load i32, i32* @x.77
  %46 = load i32, i32* @y.78
  %47 = sub i32 %45, 1
  %48 = mul i32 %45, %47
  %49 = urem i32 %48, 2
  %50 = icmp eq i32 %49, 0
  %51 = icmp slt i32 %46, 10
  %52 = or i1 %50, %51
  br i1 %52, label %originalBBpart24, label %originalBB1alteredBB

originalBBpart24:                                 ; preds = %originalBB1
  resume { i8*, i32 } %44

; <label>:53:                                     ; preds = %10
  %54 = load i32, i32* @x.77
  %55 = load i32, i32* @y.78
  %56 = sub i32 %54, 1
  %57 = mul i32 %54, %56
  %58 = urem i32 %57, 2
  %59 = icmp eq i32 %58, 0
  %60 = icmp slt i32 %55, 10
  %61 = or i1 %59, %60
  br i1 %61, label %originalBB6, label %originalBB6alteredBB

originalBB6:                                      ; preds = %53, %originalBB6alteredBB
  %62 = landingpad { i8*, i32 }
          catch i8* null
  %63 = extractvalue { i8*, i32 } %62, 0
  call void @__clang_call_terminate(i8* %63) #12
  %64 = load i32, i32* @x.77
  %65 = load i32, i32* @y.78
  %66 = sub i32 %64, 1
  %67 = mul i32 %64, %66
  %68 = urem i32 %67, 2
  %69 = icmp eq i32 %68, 0
  %70 = icmp slt i32 %65, 10
  %71 = or i1 %69, %70
  br i1 %71, label %originalBBpart28, label %originalBB6alteredBB

originalBBpart28:                                 ; preds = %originalBB6
  unreachable

originalBBalteredBB:                              ; preds = %originalBB, %15
  br label %originalBB

originalBB1alteredBB:                             ; preds = %originalBB1, %32
  %72 = load i8*, i8** %3, align 8
  %73 = load i32, i32* %4, align 4
  %74 = insertvalue { i8*, i32 } undef, i8* %72, 0
  %75 = insertvalue { i8*, i32 } %74, i32 %73, 1
  br label %originalBB1

originalBB6alteredBB:                             ; preds = %originalBB6, %53
  %76 = landingpad { i8*, i32 }
          catch i8* null
  %77 = extractvalue { i8*, i32 } %76, 0
  call void @__clang_call_terminate(i8* %77) #12
  br label %originalBB6
}

; Function Attrs: noinline uwtable
define weak_odr void @_ZNK8MappingQILi3EE26set_laplace_on_quad_vectorER5TableILi2EdE(%class.MappingQ*, %class.Table* dereferenceable(48)) #0 comdat align 2 {
  %3 = alloca %class.MappingQ*, align 8
  %4 = alloca %class.Table*, align 8
  %5 = alloca i32, align 4
  %6 = alloca i32, align 4
  %7 = alloca double*, align 8
  %8 = alloca i32, align 4
  %9 = alloca i32, align 4
  %10 = alloca %"class.internal::TableBaseAccessors::Accessor", align 8
  %11 = alloca i32, align 4
  store %class.MappingQ* %0, %class.MappingQ** %3, align 8
  store %class.Table* %1, %class.Table** %4, align 8
  %12 = load %class.MappingQ*, %class.MappingQ** %3, align 8
  %13 = getelementptr inbounds %class.MappingQ, %class.MappingQ* %12, i32 0, i32 3
  %14 = load i32, i32* %13, align 8
  %15 = sub i32 %14, 1
  %16 = getelementptr inbounds %class.MappingQ, %class.MappingQ* %12, i32 0, i32 3
  %17 = load i32, i32* %16, align 8
  %18 = sub i32 %17, 1
  %19 = mul i32 %15, %18
  store i32 %19, i32* %5, align 4
  %20 = getelementptr inbounds %class.MappingQ, %class.MappingQ* %12, i32 0, i32 3
  %21 = load i32, i32* %20, align 8
  %22 = sub i32 %21, 1
  %23 = mul i32 4, %22
  %24 = add i32 4, %23
  store i32 %24, i32* %6, align 4
  store double* null, double** %7, align 8
  %25 = getelementptr inbounds %class.MappingQ, %class.MappingQ* %12, i32 0, i32 3
  %26 = load i32, i32* %25, align 8
  switch i32 %26, label %62 [
    i32 2, label %27
    i32 3, label %44
    i32 4, label %61
  ]

; <label>:27:                                     ; preds = %2
  %28 = load i32, i32* @x.79
  %29 = load i32, i32* @y.80
  %30 = sub i32 %28, 1
  %31 = mul i32 %28, %30
  %32 = urem i32 %31, 2
  %33 = icmp eq i32 %32, 0
  %34 = icmp slt i32 %29, 10
  %35 = or i1 %33, %34
  br i1 %35, label %originalBB, label %originalBBalteredBB

originalBB:                                       ; preds = %27, %originalBBalteredBB
  store double* getelementptr inbounds ([8 x double], [8 x double]* @_ZZNK8MappingQILi3EE26set_laplace_on_quad_vectorER5TableILi2EdEE5loqv2, i64 0, i64 0), double** %7, align 8
  %36 = load i32, i32* @x.79
  %37 = load i32, i32* @y.80
  %38 = sub i32 %36, 1
  %39 = mul i32 %36, %38
  %40 = urem i32 %39, 2
  %41 = icmp eq i32 %40, 0
  %42 = icmp slt i32 %37, 10
  %43 = or i1 %41, %42
  br i1 %43, label %originalBBpart2, label %originalBBalteredBB

originalBBpart2:                                  ; preds = %originalBB
  br label %79

; <label>:44:                                     ; preds = %2
  %45 = load i32, i32* @x.79
  %46 = load i32, i32* @y.80
  %47 = sub i32 %45, 1
  %48 = mul i32 %45, %47
  %49 = urem i32 %48, 2
  %50 = icmp eq i32 %49, 0
  %51 = icmp slt i32 %46, 10
  %52 = or i1 %50, %51
  br i1 %52, label %originalBB1, label %originalBB1alteredBB

originalBB1:                                      ; preds = %44, %originalBB1alteredBB
  store double* getelementptr inbounds ([48 x double], [48 x double]* @_ZZNK8MappingQILi3EE26set_laplace_on_quad_vectorER5TableILi2EdEE5loqv3, i64 0, i64 0), double** %7, align 8
  %53 = load i32, i32* @x.79
  %54 = load i32, i32* @y.80
  %55 = sub i32 %53, 1
  %56 = mul i32 %53, %55
  %57 = urem i32 %56, 2
  %58 = icmp eq i32 %57, 0
  %59 = icmp slt i32 %54, 10
  %60 = or i1 %58, %59
  br i1 %60, label %originalBBpart24, label %originalBB1alteredBB

originalBBpart24:                                 ; preds = %originalBB1
  br label %79

; <label>:61:                                     ; preds = %2
  store double* getelementptr inbounds ([144 x double], [144 x double]* @_ZZNK8MappingQILi3EE26set_laplace_on_quad_vectorER5TableILi2EdEE5loqv4, i64 0, i64 0), double** %7, align 8
  br label %79

; <label>:62:                                     ; preds = %2
  %63 = load i32, i32* @x.79
  %64 = load i32, i32* @y.80
  %65 = sub i32 %63, 1
  %66 = mul i32 %63, %65
  %67 = urem i32 %66, 2
  %68 = icmp eq i32 %67, 0
  %69 = icmp slt i32 %64, 10
  %70 = or i1 %68, %69
  br i1 %70, label %originalBB6, label %originalBB6alteredBB

originalBB6:                                      ; preds = %62, %originalBB6alteredBB
  %71 = load i32, i32* @x.79
  %72 = load i32, i32* @y.80
  %73 = sub i32 %71, 1
  %74 = mul i32 %71, %73
  %75 = urem i32 %74, 2
  %76 = icmp eq i32 %75, 0
  %77 = icmp slt i32 %72, 10
  %78 = or i1 %76, %77
  br i1 %78, label %originalBBpart28, label %originalBB6alteredBB

originalBBpart28:                                 ; preds = %originalBB6
  br label %79

; <label>:79:                                     ; preds = %originalBBpart28, %61, %originalBBpart24, %originalBBpart2
  %80 = load double*, double** %7, align 8
  %81 = icmp ne double* %80, null
  br i1 %81, label %82, label %197

; <label>:82:                                     ; preds = %79
  %83 = load %class.Table*, %class.Table** %4, align 8
  %84 = load i32, i32* %5, align 4
  %85 = load i32, i32* %6, align 4
  call void @_ZN5TableILi2EdE6reinitEjj(%class.Table* %83, i32 %84, i32 %85)
  store i32 0, i32* %8, align 4
  br label %86

; <label>:86:                                     ; preds = %originalBBpart259, %82
  %87 = load i32, i32* @x.79
  %88 = load i32, i32* @y.80
  %89 = sub i32 %87, 1
  %90 = mul i32 %87, %89
  %91 = urem i32 %90, 2
  %92 = icmp eq i32 %91, 0
  %93 = icmp slt i32 %88, 10
  %94 = or i1 %92, %93
  br i1 %94, label %originalBB10, label %originalBB10alteredBB

originalBB10:                                     ; preds = %86, %originalBB10alteredBB
  %95 = load i32, i32* %8, align 4
  %96 = load i32, i32* %5, align 4
  %97 = icmp ult i32 %95, %96
  %98 = load i32, i32* @x.79
  %99 = load i32, i32* @y.80
  %100 = sub i32 %98, 1
  %101 = mul i32 %98, %100
  %102 = urem i32 %101, 2
  %103 = icmp eq i32 %102, 0
  %104 = icmp slt i32 %99, 10
  %105 = or i1 %103, %104
  br i1 %105, label %originalBBpart212, label %originalBB10alteredBB

originalBBpart212:                                ; preds = %originalBB10
  br i1 %97, label %106, label %196

; <label>:106:                                    ; preds = %originalBBpart212
  store i32 0, i32* %9, align 4
  br label %107

; <label>:107:                                    ; preds = %originalBBpart243, %106
  %108 = load i32, i32* %9, align 4
  %109 = load i32, i32* %6, align 4
  %110 = icmp ult i32 %108, %109
  br i1 %110, label %111, label %160

; <label>:111:                                    ; preds = %107
  %112 = load i32, i32* @x.79
  %113 = load i32, i32* @y.80
  %114 = sub i32 %112, 1
  %115 = mul i32 %112, %114
  %116 = urem i32 %115, 2
  %117 = icmp eq i32 %116, 0
  %118 = icmp slt i32 %113, 10
  %119 = or i1 %117, %118
  br i1 %119, label %originalBB14, label %originalBB14alteredBB

originalBB14:                                     ; preds = %111, %originalBB14alteredBB
  %120 = load double*, double** %7, align 8
  %121 = load i32, i32* %8, align 4
  %122 = load i32, i32* %6, align 4
  %123 = mul i32 %121, %122
  %124 = load i32, i32* %9, align 4
  %125 = add i32 %123, %124
  %126 = zext i32 %125 to i64
  %127 = getelementptr inbounds double, double* %120, i64 %126
  %128 = load double, double* %127, align 8
  %129 = load %class.Table*, %class.Table** %4, align 8
  %130 = load i32, i32* %8, align 4
  call void @_ZN5TableILi2EdEixEj(%"class.internal::TableBaseAccessors::Accessor"* sret %10, %class.Table* %129, i32 %130)
  %131 = load i32, i32* %9, align 4
  %132 = call dereferenceable(8) double* @_ZNK8internal18TableBaseAccessors8AccessorILi2EdLb0ELj1EEixEj(%"class.internal::TableBaseAccessors::Accessor"* %10, i32 %131)
  store double %128, double* %132, align 8
  %133 = load i32, i32* @x.79
  %134 = load i32, i32* @y.80
  %135 = sub i32 %133, 1
  %136 = mul i32 %133, %135
  %137 = urem i32 %136, 2
  %138 = icmp eq i32 %137, 0
  %139 = icmp slt i32 %134, 10
  %140 = or i1 %138, %139
  br i1 %140, label %originalBBpart232, label %originalBB14alteredBB

originalBBpart232:                                ; preds = %originalBB14
  br label %141

; <label>:141:                                    ; preds = %originalBBpart232
  %142 = load i32, i32* @x.79
  %143 = load i32, i32* @y.80
  %144 = sub i32 %142, 1
  %145 = mul i32 %142, %144
  %146 = urem i32 %145, 2
  %147 = icmp eq i32 %146, 0
  %148 = icmp slt i32 %143, 10
  %149 = or i1 %147, %148
  br i1 %149, label %originalBB34, label %originalBB34alteredBB

originalBB34:                                     ; preds = %141, %originalBB34alteredBB
  %150 = load i32, i32* %9, align 4
  %151 = add i32 %150, 1
  store i32 %151, i32* %9, align 4
  %152 = load i32, i32* @x.79
  %153 = load i32, i32* @y.80
  %154 = sub i32 %152, 1
  %155 = mul i32 %152, %154
  %156 = urem i32 %155, 2
  %157 = icmp eq i32 %156, 0
  %158 = icmp slt i32 %153, 10
  %159 = or i1 %157, %158
  br i1 %159, label %originalBBpart243, label %originalBB34alteredBB

originalBBpart243:                                ; preds = %originalBB34
  br label %107

; <label>:160:                                    ; preds = %107
  %161 = load i32, i32* @x.79
  %162 = load i32, i32* @y.80
  %163 = sub i32 %161, 1
  %164 = mul i32 %161, %163
  %165 = urem i32 %164, 2
  %166 = icmp eq i32 %165, 0
  %167 = icmp slt i32 %162, 10
  %168 = or i1 %166, %167
  br i1 %168, label %originalBB45, label %originalBB45alteredBB

originalBB45:                                     ; preds = %160, %originalBB45alteredBB
  %169 = load i32, i32* @x.79
  %170 = load i32, i32* @y.80
  %171 = sub i32 %169, 1
  %172 = mul i32 %169, %171
  %173 = urem i32 %172, 2
  %174 = icmp eq i32 %173, 0
  %175 = icmp slt i32 %170, 10
  %176 = or i1 %174, %175
  br i1 %176, label %originalBBpart247, label %originalBB45alteredBB

originalBBpart247:                                ; preds = %originalBB45
  br label %177

; <label>:177:                                    ; preds = %originalBBpart247
  %178 = load i32, i32* @x.79
  %179 = load i32, i32* @y.80
  %180 = sub i32 %178, 1
  %181 = mul i32 %178, %180
  %182 = urem i32 %181, 2
  %183 = icmp eq i32 %182, 0
  %184 = icmp slt i32 %179, 10
  %185 = or i1 %183, %184
  br i1 %185, label %originalBB49, label %originalBB49alteredBB

originalBB49:                                     ; preds = %177, %originalBB49alteredBB
  %186 = load i32, i32* %8, align 4
  %187 = add i32 %186, 1
  store i32 %187, i32* %8, align 4
  %188 = load i32, i32* @x.79
  %189 = load i32, i32* @y.80
  %190 = sub i32 %188, 1
  %191 = mul i32 %188, %190
  %192 = urem i32 %191, 2
  %193 = icmp eq i32 %192, 0
  %194 = icmp slt i32 %189, 10
  %195 = or i1 %193, %194
  br i1 %195, label %originalBBpart259, label %originalBB49alteredBB

originalBBpart259:                                ; preds = %originalBB49
  br label %86

; <label>:196:                                    ; preds = %originalBBpart212
  br label %214

; <label>:197:                                    ; preds = %79
  %198 = load i32, i32* @x.79
  %199 = load i32, i32* @y.80
  %200 = sub i32 %198, 1
  %201 = mul i32 %198, %200
  %202 = urem i32 %201, 2
  %203 = icmp eq i32 %202, 0
  %204 = icmp slt i32 %199, 10
  %205 = or i1 %203, %204
  br i1 %205, label %originalBB61, label %originalBB61alteredBB

originalBB61:                                     ; preds = %197, %originalBB61alteredBB
  %206 = load i32, i32* @x.79
  %207 = load i32, i32* @y.80
  %208 = sub i32 %206, 1
  %209 = mul i32 %206, %208
  %210 = urem i32 %209, 2
  %211 = icmp eq i32 %210, 0
  %212 = icmp slt i32 %207, 10
  %213 = or i1 %211, %212
  br i1 %213, label %originalBBpart263, label %originalBB61alteredBB

originalBBpart263:                                ; preds = %originalBB61
  br label %214

; <label>:214:                                    ; preds = %originalBBpart263, %196
  %215 = load i32, i32* @x.79
  %216 = load i32, i32* @y.80
  %217 = sub i32 %215, 1
  %218 = mul i32 %215, %217
  %219 = urem i32 %218, 2
  %220 = icmp eq i32 %219, 0
  %221 = icmp slt i32 %216, 10
  %222 = or i1 %220, %221
  br i1 %222, label %originalBB65, label %originalBB65alteredBB

originalBB65:                                     ; preds = %214, %originalBB65alteredBB
  store i32 0, i32* %11, align 4
  %223 = load i32, i32* @x.79
  %224 = load i32, i32* @y.80
  %225 = sub i32 %223, 1
  %226 = mul i32 %223, %225
  %227 = urem i32 %226, 2
  %228 = icmp eq i32 %227, 0
  %229 = icmp slt i32 %224, 10
  %230 = or i1 %228, %229
  br i1 %230, label %originalBBpart267, label %originalBB65alteredBB

originalBBpart267:                                ; preds = %originalBB65
  br label %231

; <label>:231:                                    ; preds = %237, %originalBBpart267
  %232 = load i32, i32* %11, align 4
  %233 = load %class.Table*, %class.Table** %4, align 8
  %234 = call i32 @_ZNK5TableILi2EdE6n_rowsEv(%class.Table* %233)
  %235 = icmp ult i32 %232, %234
  br i1 %235, label %236, label %240

; <label>:236:                                    ; preds = %231
  br label %237

; <label>:237:                                    ; preds = %236
  %238 = load i32, i32* %11, align 4
  %239 = add i32 %238, 1
  store i32 %239, i32* %11, align 4
  br label %231

; <label>:240:                                    ; preds = %231
  ret void

originalBBalteredBB:                              ; preds = %originalBB, %27
  store double* getelementptr inbounds ([8 x double], [8 x double]* @_ZZNK8MappingQILi3EE26set_laplace_on_quad_vectorER5TableILi2EdEE5loqv2, i64 0, i64 0), double** %7, align 8
  br label %originalBB

originalBB1alteredBB:                             ; preds = %originalBB1, %44
  store double* getelementptr inbounds ([48 x double], [48 x double]* @_ZZNK8MappingQILi3EE26set_laplace_on_quad_vectorER5TableILi2EdEE5loqv3, i64 0, i64 0), double** %7, align 8
  br label %originalBB1

originalBB6alteredBB:                             ; preds = %originalBB6, %62
  br label %originalBB6

originalBB10alteredBB:                            ; preds = %originalBB10, %86
  %241 = load i32, i32* %8, align 4
  %242 = load i32, i32* %5, align 4
  %243 = icmp ult i32 %241, %242
  br label %originalBB10

originalBB14alteredBB:                            ; preds = %originalBB14, %111
  %244 = load double*, double** %7, align 8
  %245 = load i32, i32* %8, align 4
  %246 = load i32, i32* %6, align 4
  %_ = sub i32 0, %245
  %gen = add i32 %_, %246
  %_15 = sub i32 0, %245
  %gen16 = add i32 %_15, %246
  %_17 = sub i32 %245, %246
  %gen18 = mul i32 %_17, %246
  %247 = mul i32 %245, %246
  %248 = load i32, i32* %9, align 4
  %_19 = sub i32 %247, %248
  %gen20 = mul i32 %_19, %248
  %_21 = sub i32 %247, %248
  %gen22 = mul i32 %_21, %248
  %_23 = sub i32 0, %247
  %gen24 = add i32 %_23, %248
  %_25 = shl i32 %247, %248
  %_26 = shl i32 %247, %248
  %_27 = sub i32 %247, %248
  %gen28 = mul i32 %_27, %248
  %_29 = sub i32 0, %247
  %gen30 = add i32 %_29, %248
  %249 = add i32 %247, %248
  %250 = zext i32 %249 to i64
  %251 = getelementptr inbounds double, double* %244, i64 %250
  %252 = load double, double* %251, align 8
  %253 = load %class.Table*, %class.Table** %4, align 8
  %254 = load i32, i32* %8, align 4
  call void @_ZN5TableILi2EdEixEj(%"class.internal::TableBaseAccessors::Accessor"* sret %10, %class.Table* %253, i32 %254)
  %255 = load i32, i32* %9, align 4
  %256 = call dereferenceable(8) double* @_ZNK8internal18TableBaseAccessors8AccessorILi2EdLb0ELj1EEixEj(%"class.internal::TableBaseAccessors::Accessor"* %10, i32 %255)
  store double %252, double* %256, align 8
  br label %originalBB14

originalBB34alteredBB:                            ; preds = %originalBB34, %141
  %257 = load i32, i32* %9, align 4
  %_35 = shl i32 %257, 1
  %_36 = sub i32 %257, 1
  %gen37 = mul i32 %_36, 1
  %_38 = sub i32 0, %257
  %gen39 = add i32 %_38, 1
  %_40 = sub i32 0, %257
  %gen41 = add i32 %_40, 1
  %258 = add i32 %257, 1
  store i32 %258, i32* %9, align 4
  br label %originalBB34

originalBB45alteredBB:                            ; preds = %originalBB45, %160
  br label %originalBB45

originalBB49alteredBB:                            ; preds = %originalBB49, %177
  %259 = load i32, i32* %8, align 4
  %_50 = sub i32 %259, 1
  %gen51 = mul i32 %_50, 1
  %_52 = shl i32 %259, 1
  %_53 = sub i32 %259, 1
  %gen54 = mul i32 %_53, 1
  %_55 = shl i32 %259, 1
  %_56 = sub i32 %259, 1
  %gen57 = mul i32 %_56, 1
  %260 = add i32 %259, 1
  store i32 %260, i32* %8, align 4
  br label %originalBB49

originalBB61alteredBB:                            ; preds = %originalBB61, %197
  br label %originalBB61

originalBB65alteredBB:                            ; preds = %originalBB65, %214
  store i32 0, i32* %11, align 4
  br label %originalBB65
}

; Function Attrs: noinline uwtable
define linkonce_odr void @_ZNSt6vectorIN11Polynomials19LagrangeEquidistantESaIS1_EED2Ev(%"class.std::vector.73"*) unnamed_addr #0 comdat align 2 personality i8* bitcast (i32 (...)* @__gxx_personality_v0 to i8*) {
  %2 = alloca %"class.std::vector.73"*, align 8
  %3 = alloca i8*
  %4 = alloca i32
  store %"class.std::vector.73"* %0, %"class.std::vector.73"** %2, align 8
  %5 = load %"class.std::vector.73"*, %"class.std::vector.73"** %2, align 8
  %6 = bitcast %"class.std::vector.73"* %5 to %"struct.std::_Vector_base.74"*
  %7 = getelementptr inbounds %"struct.std::_Vector_base.74", %"struct.std::_Vector_base.74"* %6, i32 0, i32 0
  %8 = bitcast %"struct.std::_Vector_base<Polynomials::LagrangeEquidistant, std::allocator<Polynomials::LagrangeEquidistant> >::_Vector_impl"* %7 to %"struct.std::_Vector_base<Polynomials::LagrangeEquidistant, std::allocator<Polynomials::LagrangeEquidistant> >::_Vector_impl_data"*
  %9 = getelementptr inbounds %"struct.std::_Vector_base<Polynomials::LagrangeEquidistant, std::allocator<Polynomials::LagrangeEquidistant> >::_Vector_impl_data", %"struct.std::_Vector_base<Polynomials::LagrangeEquidistant, std::allocator<Polynomials::LagrangeEquidistant> >::_Vector_impl_data"* %8, i32 0, i32 0
  %10 = load %"class.Polynomials::LagrangeEquidistant"*, %"class.Polynomials::LagrangeEquidistant"** %9, align 8
  %11 = bitcast %"class.std::vector.73"* %5 to %"struct.std::_Vector_base.74"*
  %12 = getelementptr inbounds %"struct.std::_Vector_base.74", %"struct.std::_Vector_base.74"* %11, i32 0, i32 0
  %13 = bitcast %"struct.std::_Vector_base<Polynomials::LagrangeEquidistant, std::allocator<Polynomials::LagrangeEquidistant> >::_Vector_impl"* %12 to %"struct.std::_Vector_base<Polynomials::LagrangeEquidistant, std::allocator<Polynomials::LagrangeEquidistant> >::_Vector_impl_data"*
  %14 = getelementptr inbounds %"struct.std::_Vector_base<Polynomials::LagrangeEquidistant, std::allocator<Polynomials::LagrangeEquidistant> >::_Vector_impl_data", %"struct.std::_Vector_base<Polynomials::LagrangeEquidistant, std::allocator<Polynomials::LagrangeEquidistant> >::_Vector_impl_data"* %13, i32 0, i32 1
  %15 = load %"class.Polynomials::LagrangeEquidistant"*, %"class.Polynomials::LagrangeEquidistant"** %14, align 8
  %16 = bitcast %"class.std::vector.73"* %5 to %"struct.std::_Vector_base.74"*
  %17 = invoke dereferenceable(1) %"class.std::allocator.75"* @_ZNSt12_Vector_baseIN11Polynomials19LagrangeEquidistantESaIS1_EE19_M_get_Tp_allocatorEv(%"struct.std::_Vector_base.74"* %16)
          to label %18 unwind label %53

; <label>:18:                                     ; preds = %1
  %19 = load i32, i32* @x.81
  %20 = load i32, i32* @y.82
  %21 = sub i32 %19, 1
  %22 = mul i32 %19, %21
  %23 = urem i32 %22, 2
  %24 = icmp eq i32 %23, 0
  %25 = icmp slt i32 %20, 10
  %26 = or i1 %24, %25
  br i1 %26, label %originalBB, label %originalBBalteredBB

originalBB:                                       ; preds = %18, %originalBBalteredBB
  %27 = load i32, i32* @x.81
  %28 = load i32, i32* @y.82
  %29 = sub i32 %27, 1
  %30 = mul i32 %27, %29
  %31 = urem i32 %30, 2
  %32 = icmp eq i32 %31, 0
  %33 = icmp slt i32 %28, 10
  %34 = or i1 %32, %33
  br i1 %34, label %originalBBpart2, label %originalBBalteredBB

originalBBpart2:                                  ; preds = %originalBB
  invoke void @_ZSt8_DestroyIPN11Polynomials19LagrangeEquidistantES1_EvT_S3_RSaIT0_E(%"class.Polynomials::LagrangeEquidistant"* %10, %"class.Polynomials::LagrangeEquidistant"* %15, %"class.std::allocator.75"* dereferenceable(1) %17)
          to label %35 unwind label %53

; <label>:35:                                     ; preds = %originalBBpart2
  %36 = load i32, i32* @x.81
  %37 = load i32, i32* @y.82
  %38 = sub i32 %36, 1
  %39 = mul i32 %36, %38
  %40 = urem i32 %39, 2
  %41 = icmp eq i32 %40, 0
  %42 = icmp slt i32 %37, 10
  %43 = or i1 %41, %42
  br i1 %43, label %originalBB1, label %originalBB1alteredBB

originalBB1:                                      ; preds = %35, %originalBB1alteredBB
  %44 = bitcast %"class.std::vector.73"* %5 to %"struct.std::_Vector_base.74"*
  call void @_ZNSt12_Vector_baseIN11Polynomials19LagrangeEquidistantESaIS1_EED2Ev(%"struct.std::_Vector_base.74"* %44)
  %45 = load i32, i32* @x.81
  %46 = load i32, i32* @y.82
  %47 = sub i32 %45, 1
  %48 = mul i32 %45, %47
  %49 = urem i32 %48, 2
  %50 = icmp eq i32 %49, 0
  %51 = icmp slt i32 %46, 10
  %52 = or i1 %50, %51
  br i1 %52, label %originalBBpart24, label %originalBB1alteredBB

originalBBpart24:                                 ; preds = %originalBB1
  ret void

; <label>:53:                                     ; preds = %originalBBpart2, %1
  %54 = landingpad { i8*, i32 }
          cleanup
  %55 = extractvalue { i8*, i32 } %54, 0
  store i8* %55, i8** %3, align 8
  %56 = extractvalue { i8*, i32 } %54, 1
  store i32 %56, i32* %4, align 4
  %57 = bitcast %"class.std::vector.73"* %5 to %"struct.std::_Vector_base.74"*
  invoke void @_ZNSt12_Vector_baseIN11Polynomials19LagrangeEquidistantESaIS1_EED2Ev(%"struct.std::_Vector_base.74"* %57)
          to label %58 unwind label %64

; <label>:58:                                     ; preds = %53
  br label %59

; <label>:59:                                     ; preds = %58
  %60 = load i8*, i8** %3, align 8
  %61 = load i32, i32* %4, align 4
  %62 = insertvalue { i8*, i32 } undef, i8* %60, 0
  %63 = insertvalue { i8*, i32 } %62, i32 %61, 1
  resume { i8*, i32 } %63

; <label>:64:                                     ; preds = %53
  %65 = landingpad { i8*, i32 }
          catch i8* null
  %66 = extractvalue { i8*, i32 } %65, 0
  call void @__clang_call_terminate(i8* %66) #12
  unreachable

originalBBalteredBB:                              ; preds = %originalBB, %18
  br label %originalBB

originalBB1alteredBB:                             ; preds = %originalBB1, %35
  %67 = bitcast %"class.std::vector.73"* %5 to %"struct.std::_Vector_base.74"*
  call void @_ZNSt12_Vector_baseIN11Polynomials19LagrangeEquidistantESaIS1_EED2Ev(%"struct.std::_Vector_base.74"* %67)
  br label %originalBB1
}

; Function Attrs: noinline uwtable
define linkonce_odr void @_ZNSt6vectorIjSaIjEED2Ev(%"class.std::vector.5"*) unnamed_addr #0 comdat align 2 personality i8* bitcast (i32 (...)* @__gxx_personality_v0 to i8*) {
  %2 = alloca %"class.std::vector.5"*, align 8
  %3 = alloca i8*
  %4 = alloca i32
  store %"class.std::vector.5"* %0, %"class.std::vector.5"** %2, align 8
  %5 = load %"class.std::vector.5"*, %"class.std::vector.5"** %2, align 8
  %6 = bitcast %"class.std::vector.5"* %5 to %"struct.std::_Vector_base.6"*
  %7 = getelementptr inbounds %"struct.std::_Vector_base.6", %"struct.std::_Vector_base.6"* %6, i32 0, i32 0
  %8 = bitcast %"struct.std::_Vector_base<unsigned int, std::allocator<unsigned int> >::_Vector_impl"* %7 to %"struct.std::_Vector_base<unsigned int, std::allocator<unsigned int> >::_Vector_impl_data"*
  %9 = getelementptr inbounds %"struct.std::_Vector_base<unsigned int, std::allocator<unsigned int> >::_Vector_impl_data", %"struct.std::_Vector_base<unsigned int, std::allocator<unsigned int> >::_Vector_impl_data"* %8, i32 0, i32 0
  %10 = load i32*, i32** %9, align 8
  %11 = bitcast %"class.std::vector.5"* %5 to %"struct.std::_Vector_base.6"*
  %12 = getelementptr inbounds %"struct.std::_Vector_base.6", %"struct.std::_Vector_base.6"* %11, i32 0, i32 0
  %13 = bitcast %"struct.std::_Vector_base<unsigned int, std::allocator<unsigned int> >::_Vector_impl"* %12 to %"struct.std::_Vector_base<unsigned int, std::allocator<unsigned int> >::_Vector_impl_data"*
  %14 = getelementptr inbounds %"struct.std::_Vector_base<unsigned int, std::allocator<unsigned int> >::_Vector_impl_data", %"struct.std::_Vector_base<unsigned int, std::allocator<unsigned int> >::_Vector_impl_data"* %13, i32 0, i32 1
  %15 = load i32*, i32** %14, align 8
  %16 = bitcast %"class.std::vector.5"* %5 to %"struct.std::_Vector_base.6"*
  %17 = invoke dereferenceable(1) %"class.std::allocator.7"* @_ZNSt12_Vector_baseIjSaIjEE19_M_get_Tp_allocatorEv(%"struct.std::_Vector_base.6"* %16)
          to label %18 unwind label %21

; <label>:18:                                     ; preds = %1
  invoke void @_ZSt8_DestroyIPjjEvT_S1_RSaIT0_E(i32* %10, i32* %15, %"class.std::allocator.7"* dereferenceable(1) %17)
          to label %19 unwind label %21

; <label>:19:                                     ; preds = %18
  %20 = bitcast %"class.std::vector.5"* %5 to %"struct.std::_Vector_base.6"*
  call void @_ZNSt12_Vector_baseIjSaIjEED2Ev(%"struct.std::_Vector_base.6"* %20)
  ret void

; <label>:21:                                     ; preds = %18, %1
  %22 = landingpad { i8*, i32 }
          cleanup
  %23 = extractvalue { i8*, i32 } %22, 0
  store i8* %23, i8** %3, align 8
  %24 = extractvalue { i8*, i32 } %22, 1
  store i32 %24, i32* %4, align 4
  %25 = bitcast %"class.std::vector.5"* %5 to %"struct.std::_Vector_base.6"*
  invoke void @_ZNSt12_Vector_baseIjSaIjEED2Ev(%"struct.std::_Vector_base.6"* %25)
          to label %26 unwind label %32

; <label>:26:                                     ; preds = %21
  br label %27

; <label>:27:                                     ; preds = %26
  %28 = load i8*, i8** %3, align 8
  %29 = load i32, i32* %4, align 4
  %30 = insertvalue { i8*, i32 } undef, i8* %28, 0
  %31 = insertvalue { i8*, i32 } %30, i32 %29, 1
  resume { i8*, i32 } %31

; <label>:32:                                     ; preds = %21
  %33 = landingpad { i8*, i32 }
          catch i8* null
  %34 = extractvalue { i8*, i32 } %33, 0
  call void @__clang_call_terminate(i8* %34) #12
  unreachable
}

; Function Attrs: noinline uwtable
define linkonce_odr void @_ZN5TableILi2EdED2Ev(%class.Table*) unnamed_addr #0 comdat align 2 {
  %2 = alloca %class.Table*, align 8
  store %class.Table* %0, %class.Table** %2, align 8
  %3 = load %class.Table*, %class.Table** %2, align 8
  %4 = bitcast %class.Table* %3 to %class.TableBase*
  call void @_ZN9TableBaseILi2EdED2Ev(%class.TableBase* %4)
  ret void
}

; Function Attrs: noinline uwtable
define linkonce_odr void @_ZN9MappingQ1ILi3EED2Ev(%class.MappingQ1*) unnamed_addr #0 comdat align 2 {
  %2 = alloca %class.MappingQ1*, align 8
  store %class.MappingQ1* %0, %class.MappingQ1** %2, align 8
  %3 = load %class.MappingQ1*, %class.MappingQ1** %2, align 8
  %4 = bitcast %class.MappingQ1* %3 to %class.Mapping*
  call void @_ZN7MappingILi3EED2Ev(%class.Mapping* %4)
  ret void
}

; Function Attrs: noinline uwtable
define weak_odr void @_ZN8MappingQILi3EED2Ev(%class.MappingQ*) unnamed_addr #0 comdat($_ZN8MappingQILi3EED5Ev) align 2 personality i8* bitcast (i32 (...)* @__gxx_personality_v0 to i8*) {
  %2 = alloca %class.MappingQ*, align 8
  %3 = alloca i8*
  %4 = alloca i32
  store %class.MappingQ* %0, %class.MappingQ** %2, align 8
  %5 = load %class.MappingQ*, %class.MappingQ** %2, align 8
  %6 = bitcast %class.MappingQ* %5 to i32 (...)***
  store i32 (...)** bitcast (i8** getelementptr inbounds ({ [22 x i8*] }, { [22 x i8*] }* @_ZTV8MappingQILi3EE, i32 0, inrange i32 0, i32 2) to i32 (...)**), i32 (...)*** %6, align 8
  %7 = getelementptr inbounds %class.MappingQ, %class.MappingQ* %5, i32 0, i32 6
  %8 = load %class.TensorProductPolynomials*, %class.TensorProductPolynomials** %7, align 8
  %9 = icmp eq %class.TensorProductPolynomials* %8, null
  br i1 %9, label %29, label %10

; <label>:10:                                     ; preds = %1
  %11 = load i32, i32* @x.89
  %12 = load i32, i32* @y.90
  %13 = sub i32 %11, 1
  %14 = mul i32 %11, %13
  %15 = urem i32 %14, 2
  %16 = icmp eq i32 %15, 0
  %17 = icmp slt i32 %12, 10
  %18 = or i1 %16, %17
  br i1 %18, label %originalBB, label %originalBBalteredBB

originalBB:                                       ; preds = %10, %originalBBalteredBB
  %19 = load i32, i32* @x.89
  %20 = load i32, i32* @y.90
  %21 = sub i32 %19, 1
  %22 = mul i32 %19, %21
  %23 = urem i32 %22, 2
  %24 = icmp eq i32 %23, 0
  %25 = icmp slt i32 %20, 10
  %26 = or i1 %24, %25
  br i1 %26, label %originalBBpart2, label %originalBBalteredBB

originalBBpart2:                                  ; preds = %originalBB
  invoke void @_ZN24TensorProductPolynomialsILi3EED2Ev(%class.TensorProductPolynomials* %8)
          to label %27 unwind label %69

; <label>:27:                                     ; preds = %originalBBpart2
  %28 = bitcast %class.TensorProductPolynomials* %8 to i8*
  call void @_ZdlPv(i8* %28) #14
  br label %29

; <label>:29:                                     ; preds = %27, %1
  %30 = getelementptr inbounds %class.MappingQ, %class.MappingQ* %5, i32 0, i32 8
  invoke void @_ZNSt6vectorIjSaIjEED2Ev(%"class.std::vector.5"* %30)
          to label %31 unwind label %75

; <label>:31:                                     ; preds = %29
  %32 = load i32, i32* @x.89
  %33 = load i32, i32* @y.90
  %34 = sub i32 %32, 1
  %35 = mul i32 %32, %34
  %36 = urem i32 %35, 2
  %37 = icmp eq i32 %36, 0
  %38 = icmp slt i32 %33, 10
  %39 = or i1 %37, %38
  br i1 %39, label %originalBB1, label %originalBB1alteredBB

originalBB1:                                      ; preds = %31, %originalBB1alteredBB
  %40 = getelementptr inbounds %class.MappingQ, %class.MappingQ* %5, i32 0, i32 2
  %41 = load i32, i32* @x.89
  %42 = load i32, i32* @y.90
  %43 = sub i32 %41, 1
  %44 = mul i32 %41, %43
  %45 = urem i32 %44, 2
  %46 = icmp eq i32 %45, 0
  %47 = icmp slt i32 %42, 10
  %48 = or i1 %46, %47
  br i1 %48, label %originalBBpart24, label %originalBB1alteredBB

originalBBpart24:                                 ; preds = %originalBB1
  invoke void @_ZN5TableILi2EdED2Ev(%class.Table* %40)
          to label %49 unwind label %80

; <label>:49:                                     ; preds = %originalBBpart24
  %50 = getelementptr inbounds %class.MappingQ, %class.MappingQ* %5, i32 0, i32 1
  invoke void @_ZN5TableILi2EdED2Ev(%class.Table* %50)
          to label %51 unwind label %119

; <label>:51:                                     ; preds = %49
  %52 = load i32, i32* @x.89
  %53 = load i32, i32* @y.90
  %54 = sub i32 %52, 1
  %55 = mul i32 %52, %54
  %56 = urem i32 %55, 2
  %57 = icmp eq i32 %56, 0
  %58 = icmp slt i32 %53, 10
  %59 = or i1 %57, %58
  br i1 %59, label %originalBB6, label %originalBB6alteredBB

originalBB6:                                      ; preds = %51, %originalBB6alteredBB
  %60 = bitcast %class.MappingQ* %5 to %class.MappingQ1*
  call void @_ZN9MappingQ1ILi3EED2Ev(%class.MappingQ1* %60)
  %61 = load i32, i32* @x.89
  %62 = load i32, i32* @y.90
  %63 = sub i32 %61, 1
  %64 = mul i32 %61, %63
  %65 = urem i32 %64, 2
  %66 = icmp eq i32 %65, 0
  %67 = icmp slt i32 %62, 10
  %68 = or i1 %66, %67
  br i1 %68, label %originalBBpart28, label %originalBB6alteredBB

originalBBpart28:                                 ; preds = %originalBB6
  ret void

; <label>:69:                                     ; preds = %originalBBpart2
  %70 = landingpad { i8*, i32 }
          cleanup
  %71 = extractvalue { i8*, i32 } %70, 0
  store i8* %71, i8** %3, align 8
  %72 = extractvalue { i8*, i32 } %70, 1
  store i32 %72, i32* %4, align 4
  %73 = bitcast %class.TensorProductPolynomials* %8 to i8*
  call void @_ZdlPv(i8* %73) #14
  %74 = getelementptr inbounds %class.MappingQ, %class.MappingQ* %5, i32 0, i32 8
  invoke void @_ZNSt6vectorIjSaIjEED2Ev(%"class.std::vector.5"* %74)
          to label %79 unwind label %182

; <label>:75:                                     ; preds = %29
  %76 = landingpad { i8*, i32 }
          cleanup
  %77 = extractvalue { i8*, i32 } %76, 0
  store i8* %77, i8** %3, align 8
  %78 = extractvalue { i8*, i32 } %76, 1
  store i32 %78, i32* %4, align 4
  br label %84

; <label>:79:                                     ; preds = %69
  br label %84

; <label>:80:                                     ; preds = %originalBBpart24
  %81 = landingpad { i8*, i32 }
          cleanup
  %82 = extractvalue { i8*, i32 } %81, 0
  store i8* %82, i8** %3, align 8
  %83 = extractvalue { i8*, i32 } %81, 1
  store i32 %83, i32* %4, align 4
  br label %123

; <label>:84:                                     ; preds = %79, %75
  %85 = load i32, i32* @x.89
  %86 = load i32, i32* @y.90
  %87 = sub i32 %85, 1
  %88 = mul i32 %85, %87
  %89 = urem i32 %88, 2
  %90 = icmp eq i32 %89, 0
  %91 = icmp slt i32 %86, 10
  %92 = or i1 %90, %91
  br i1 %92, label %originalBB10, label %originalBB10alteredBB

originalBB10:                                     ; preds = %84, %originalBB10alteredBB
  %93 = getelementptr inbounds %class.MappingQ, %class.MappingQ* %5, i32 0, i32 2
  %94 = load i32, i32* @x.89
  %95 = load i32, i32* @y.90
  %96 = sub i32 %94, 1
  %97 = mul i32 %94, %96
  %98 = urem i32 %97, 2
  %99 = icmp eq i32 %98, 0
  %100 = icmp slt i32 %95, 10
  %101 = or i1 %99, %100
  br i1 %101, label %originalBBpart212, label %originalBB10alteredBB

originalBBpart212:                                ; preds = %originalBB10
  invoke void @_ZN5TableILi2EdED2Ev(%class.Table* %93)
          to label %102 unwind label %182

; <label>:102:                                    ; preds = %originalBBpart212
  %103 = load i32, i32* @x.89
  %104 = load i32, i32* @y.90
  %105 = sub i32 %103, 1
  %106 = mul i32 %103, %105
  %107 = urem i32 %106, 2
  %108 = icmp eq i32 %107, 0
  %109 = icmp slt i32 %104, 10
  %110 = or i1 %108, %109
  br i1 %110, label %originalBB14, label %originalBB14alteredBB

originalBB14:                                     ; preds = %102, %originalBB14alteredBB
  %111 = load i32, i32* @x.89
  %112 = load i32, i32* @y.90
  %113 = sub i32 %111, 1
  %114 = mul i32 %111, %113
  %115 = urem i32 %114, 2
  %116 = icmp eq i32 %115, 0
  %117 = icmp slt i32 %112, 10
  %118 = or i1 %116, %117
  br i1 %118, label %originalBBpart216, label %originalBB14alteredBB

originalBBpart216:                                ; preds = %originalBB14
  br label %123

; <label>:119:                                    ; preds = %49
  %120 = landingpad { i8*, i32 }
          cleanup
  %121 = extractvalue { i8*, i32 } %120, 0
  store i8* %121, i8** %3, align 8
  %122 = extractvalue { i8*, i32 } %120, 1
  store i32 %122, i32* %4, align 4
  br label %142

; <label>:123:                                    ; preds = %originalBBpart216, %80
  %124 = load i32, i32* @x.89
  %125 = load i32, i32* @y.90
  %126 = sub i32 %124, 1
  %127 = mul i32 %124, %126
  %128 = urem i32 %127, 2
  %129 = icmp eq i32 %128, 0
  %130 = icmp slt i32 %125, 10
  %131 = or i1 %129, %130
  br i1 %131, label %originalBB18, label %originalBB18alteredBB

originalBB18:                                     ; preds = %123, %originalBB18alteredBB
  %132 = getelementptr inbounds %class.MappingQ, %class.MappingQ* %5, i32 0, i32 1
  %133 = load i32, i32* @x.89
  %134 = load i32, i32* @y.90
  %135 = sub i32 %133, 1
  %136 = mul i32 %133, %135
  %137 = urem i32 %136, 2
  %138 = icmp eq i32 %137, 0
  %139 = icmp slt i32 %134, 10
  %140 = or i1 %138, %139
  br i1 %140, label %originalBBpart220, label %originalBB18alteredBB

originalBBpart220:                                ; preds = %originalBB18
  invoke void @_ZN5TableILi2EdED2Ev(%class.Table* %132)
          to label %141 unwind label %182

; <label>:141:                                    ; preds = %originalBBpart220
  br label %142

; <label>:142:                                    ; preds = %141, %119
  %143 = load i32, i32* @x.89
  %144 = load i32, i32* @y.90
  %145 = sub i32 %143, 1
  %146 = mul i32 %143, %145
  %147 = urem i32 %146, 2
  %148 = icmp eq i32 %147, 0
  %149 = icmp slt i32 %144, 10
  %150 = or i1 %148, %149
  br i1 %150, label %originalBB22, label %originalBB22alteredBB

originalBB22:                                     ; preds = %142, %originalBB22alteredBB
  %151 = bitcast %class.MappingQ* %5 to %class.MappingQ1*
  %152 = load i32, i32* @x.89
  %153 = load i32, i32* @y.90
  %154 = sub i32 %152, 1
  %155 = mul i32 %152, %154
  %156 = urem i32 %155, 2
  %157 = icmp eq i32 %156, 0
  %158 = icmp slt i32 %153, 10
  %159 = or i1 %157, %158
  br i1 %159, label %originalBBpart224, label %originalBB22alteredBB

originalBBpart224:                                ; preds = %originalBB22
  invoke void @_ZN9MappingQ1ILi3EED2Ev(%class.MappingQ1* %151)
          to label %160 unwind label %182

; <label>:160:                                    ; preds = %originalBBpart224
  br label %161

; <label>:161:                                    ; preds = %160
  %162 = load i32, i32* @x.89
  %163 = load i32, i32* @y.90
  %164 = sub i32 %162, 1
  %165 = mul i32 %162, %164
  %166 = urem i32 %165, 2
  %167 = icmp eq i32 %166, 0
  %168 = icmp slt i32 %163, 10
  %169 = or i1 %167, %168
  br i1 %169, label %originalBB26, label %originalBB26alteredBB

originalBB26:                                     ; preds = %161, %originalBB26alteredBB
  %170 = load i8*, i8** %3, align 8
  %171 = load i32, i32* %4, align 4
  %172 = insertvalue { i8*, i32 } undef, i8* %170, 0
  %173 = insertvalue { i8*, i32 } %172, i32 %171, 1
  %174 = load i32, i32* @x.89
  %175 = load i32, i32* @y.90
  %176 = sub i32 %174, 1
  %177 = mul i32 %174, %176
  %178 = urem i32 %177, 2
  %179 = icmp eq i32 %178, 0
  %180 = icmp slt i32 %175, 10
  %181 = or i1 %179, %180
  br i1 %181, label %originalBBpart228, label %originalBB26alteredBB

originalBBpart228:                                ; preds = %originalBB26
  resume { i8*, i32 } %173

; <label>:182:                                    ; preds = %originalBBpart224, %originalBBpart220, %originalBBpart212, %69
  %183 = landingpad { i8*, i32 }
          catch i8* null
  %184 = extractvalue { i8*, i32 } %183, 0
  call void @__clang_call_terminate(i8* %184) #12
  unreachable

originalBBalteredBB:                              ; preds = %originalBB, %10
  br label %originalBB

originalBB1alteredBB:                             ; preds = %originalBB1, %31
  %185 = getelementptr inbounds %class.MappingQ, %class.MappingQ* %5, i32 0, i32 2
  br label %originalBB1

originalBB6alteredBB:                             ; preds = %originalBB6, %51
  %186 = bitcast %class.MappingQ* %5 to %class.MappingQ1*
  call void @_ZN9MappingQ1ILi3EED2Ev(%class.MappingQ1* %186)
  br label %originalBB6

originalBB10alteredBB:                            ; preds = %originalBB10, %84
  %187 = getelementptr inbounds %class.MappingQ, %class.MappingQ* %5, i32 0, i32 2
  br label %originalBB10

originalBB14alteredBB:                            ; preds = %originalBB14, %102
  br label %originalBB14

originalBB18alteredBB:                            ; preds = %originalBB18, %123
  %188 = getelementptr inbounds %class.MappingQ, %class.MappingQ* %5, i32 0, i32 1
  br label %originalBB18

originalBB22alteredBB:                            ; preds = %originalBB22, %142
  %189 = bitcast %class.MappingQ* %5 to %class.MappingQ1*
  br label %originalBB22

originalBB26alteredBB:                            ; preds = %originalBB26, %161
  %190 = load i8*, i8** %3, align 8
  %191 = load i32, i32* %4, align 4
  %192 = insertvalue { i8*, i32 } undef, i8* %190, 0
  %193 = insertvalue { i8*, i32 } %192, i32 %191, 1
  br label %originalBB26
}

; Function Attrs: noinline uwtable
define linkonce_odr void @_ZN24TensorProductPolynomialsILi3EED2Ev(%class.TensorProductPolynomials*) unnamed_addr #0 comdat align 2 personality i8* bitcast (i32 (...)* @__gxx_personality_v0 to i8*) {
  %2 = alloca %class.TensorProductPolynomials*, align 8
  %3 = alloca i8*
  %4 = alloca i32
  store %class.TensorProductPolynomials* %0, %class.TensorProductPolynomials** %2, align 8
  %5 = load %class.TensorProductPolynomials*, %class.TensorProductPolynomials** %2, align 8
  %6 = getelementptr inbounds %class.TensorProductPolynomials, %class.TensorProductPolynomials* %5, i32 0, i32 3
  invoke void @_ZNSt6vectorIjSaIjEED2Ev(%"class.std::vector.5"* %6)
          to label %7 unwind label %27

; <label>:7:                                      ; preds = %1
  %8 = load i32, i32* @x.91
  %9 = load i32, i32* @y.92
  %10 = sub i32 %8, 1
  %11 = mul i32 %8, %10
  %12 = urem i32 %11, 2
  %13 = icmp eq i32 %12, 0
  %14 = icmp slt i32 %9, 10
  %15 = or i1 %13, %14
  br i1 %15, label %originalBB, label %originalBBalteredBB

originalBB:                                       ; preds = %7, %originalBBalteredBB
  %16 = getelementptr inbounds %class.TensorProductPolynomials, %class.TensorProductPolynomials* %5, i32 0, i32 2
  %17 = load i32, i32* @x.91
  %18 = load i32, i32* @y.92
  %19 = sub i32 %17, 1
  %20 = mul i32 %17, %19
  %21 = urem i32 %20, 2
  %22 = icmp eq i32 %21, 0
  %23 = icmp slt i32 %18, 10
  %24 = or i1 %22, %23
  br i1 %24, label %originalBBpart2, label %originalBBalteredBB

originalBBpart2:                                  ; preds = %originalBB
  invoke void @_ZNSt6vectorIjSaIjEED2Ev(%"class.std::vector.5"* %16)
          to label %25 unwind label %48

; <label>:25:                                     ; preds = %originalBBpart2
  %26 = getelementptr inbounds %class.TensorProductPolynomials, %class.TensorProductPolynomials* %5, i32 0, i32 0
  call void @_ZNSt6vectorIN11Polynomials10PolynomialIdEESaIS2_EED2Ev(%"class.std::vector"* %26)
  ret void

; <label>:27:                                     ; preds = %1
  %28 = load i32, i32* @x.91
  %29 = load i32, i32* @y.92
  %30 = sub i32 %28, 1
  %31 = mul i32 %28, %30
  %32 = urem i32 %31, 2
  %33 = icmp eq i32 %32, 0
  %34 = icmp slt i32 %29, 10
  %35 = or i1 %33, %34
  br i1 %35, label %originalBB1, label %originalBB1alteredBB

originalBB1:                                      ; preds = %27, %originalBB1alteredBB
  %36 = landingpad { i8*, i32 }
          cleanup
  %37 = extractvalue { i8*, i32 } %36, 0
  store i8* %37, i8** %3, align 8
  %38 = extractvalue { i8*, i32 } %36, 1
  store i32 %38, i32* %4, align 4
  %39 = getelementptr inbounds %class.TensorProductPolynomials, %class.TensorProductPolynomials* %5, i32 0, i32 2
  %40 = load i32, i32* @x.91
  %41 = load i32, i32* @y.92
  %42 = sub i32 %40, 1
  %43 = mul i32 %40, %42
  %44 = urem i32 %43, 2
  %45 = icmp eq i32 %44, 0
  %46 = icmp slt i32 %41, 10
  %47 = or i1 %45, %46
  br i1 %47, label %originalBBpart24, label %originalBB1alteredBB

originalBBpart24:                                 ; preds = %originalBB1
  invoke void @_ZNSt6vectorIjSaIjEED2Ev(%"class.std::vector.5"* %39)
          to label %68 unwind label %93

; <label>:48:                                     ; preds = %originalBBpart2
  %49 = load i32, i32* @x.91
  %50 = load i32, i32* @y.92
  %51 = sub i32 %49, 1
  %52 = mul i32 %49, %51
  %53 = urem i32 %52, 2
  %54 = icmp eq i32 %53, 0
  %55 = icmp slt i32 %50, 10
  %56 = or i1 %54, %55
  br i1 %56, label %originalBB6, label %originalBB6alteredBB

originalBB6:                                      ; preds = %48, %originalBB6alteredBB
  %57 = landingpad { i8*, i32 }
          cleanup
  %58 = extractvalue { i8*, i32 } %57, 0
  store i8* %58, i8** %3, align 8
  %59 = extractvalue { i8*, i32 } %57, 1
  store i32 %59, i32* %4, align 4
  %60 = load i32, i32* @x.91
  %61 = load i32, i32* @y.92
  %62 = sub i32 %60, 1
  %63 = mul i32 %60, %62
  %64 = urem i32 %63, 2
  %65 = icmp eq i32 %64, 0
  %66 = icmp slt i32 %61, 10
  %67 = or i1 %65, %66
  br i1 %67, label %originalBBpart28, label %originalBB6alteredBB

originalBBpart28:                                 ; preds = %originalBB6
  br label %69

; <label>:68:                                     ; preds = %originalBBpart24
  br label %69

; <label>:69:                                     ; preds = %68, %originalBBpart28
  %70 = load i32, i32* @x.91
  %71 = load i32, i32* @y.92
  %72 = sub i32 %70, 1
  %73 = mul i32 %70, %72
  %74 = urem i32 %73, 2
  %75 = icmp eq i32 %74, 0
  %76 = icmp slt i32 %71, 10
  %77 = or i1 %75, %76
  br i1 %77, label %originalBB10, label %originalBB10alteredBB

originalBB10:                                     ; preds = %69, %originalBB10alteredBB
  %78 = getelementptr inbounds %class.TensorProductPolynomials, %class.TensorProductPolynomials* %5, i32 0, i32 0
  %79 = load i32, i32* @x.91
  %80 = load i32, i32* @y.92
  %81 = sub i32 %79, 1
  %82 = mul i32 %79, %81
  %83 = urem i32 %82, 2
  %84 = icmp eq i32 %83, 0
  %85 = icmp slt i32 %80, 10
  %86 = or i1 %84, %85
  br i1 %86, label %originalBBpart212, label %originalBB10alteredBB

originalBBpart212:                                ; preds = %originalBB10
  invoke void @_ZNSt6vectorIN11Polynomials10PolynomialIdEESaIS2_EED2Ev(%"class.std::vector"* %78)
          to label %87 unwind label %93

; <label>:87:                                     ; preds = %originalBBpart212
  br label %88

; <label>:88:                                     ; preds = %87
  %89 = load i8*, i8** %3, align 8
  %90 = load i32, i32* %4, align 4
  %91 = insertvalue { i8*, i32 } undef, i8* %89, 0
  %92 = insertvalue { i8*, i32 } %91, i32 %90, 1
  resume { i8*, i32 } %92

; <label>:93:                                     ; preds = %originalBBpart212, %originalBBpart24
  %94 = landingpad { i8*, i32 }
          catch i8* null
  %95 = extractvalue { i8*, i32 } %94, 0
  call void @__clang_call_terminate(i8* %95) #12
  unreachable

originalBBalteredBB:                              ; preds = %originalBB, %7
  %96 = getelementptr inbounds %class.TensorProductPolynomials, %class.TensorProductPolynomials* %5, i32 0, i32 2
  br label %originalBB

originalBB1alteredBB:                             ; preds = %originalBB1, %27
  %97 = landingpad { i8*, i32 }
          cleanup
  %98 = extractvalue { i8*, i32 } %97, 0
  store i8* %98, i8** %3, align 8
  %99 = extractvalue { i8*, i32 } %97, 1
  store i32 %99, i32* %4, align 4
  %100 = getelementptr inbounds %class.TensorProductPolynomials, %class.TensorProductPolynomials* %5, i32 0, i32 2
  br label %originalBB1

originalBB6alteredBB:                             ; preds = %originalBB6, %48
  %101 = landingpad { i8*, i32 }
          cleanup
  %102 = extractvalue { i8*, i32 } %101, 0
  store i8* %102, i8** %3, align 8
  %103 = extractvalue { i8*, i32 } %101, 1
  store i32 %103, i32* %4, align 4
  br label %originalBB6

originalBB10alteredBB:                            ; preds = %originalBB10, %69
  %104 = getelementptr inbounds %class.TensorProductPolynomials, %class.TensorProductPolynomials* %5, i32 0, i32 0
  br label %originalBB10
}

; Function Attrs: noinline uwtable
define weak_odr void @_ZN8MappingQILi3EED0Ev(%class.MappingQ*) unnamed_addr #0 comdat($_ZN8MappingQILi3EED5Ev) align 2 personality i8* bitcast (i32 (...)* @__gxx_personality_v0 to i8*) {
  %2 = load i32, i32* @x.93
  %3 = load i32, i32* @y.94
  %4 = sub i32 %2, 1
  %5 = mul i32 %2, %4
  %6 = urem i32 %5, 2
  %7 = icmp eq i32 %6, 0
  %8 = icmp slt i32 %3, 10
  %9 = or i1 %7, %8
  br i1 %9, label %originalBB, label %originalBBalteredBB

originalBB:                                       ; preds = %1, %originalBBalteredBB
  %10 = alloca %class.MappingQ*, align 8
  %11 = alloca i8*
  %12 = alloca i32
  store %class.MappingQ* %0, %class.MappingQ** %10, align 8
  %13 = load %class.MappingQ*, %class.MappingQ** %10, align 8
  %14 = load i32, i32* @x.93
  %15 = load i32, i32* @y.94
  %16 = sub i32 %14, 1
  %17 = mul i32 %14, %16
  %18 = urem i32 %17, 2
  %19 = icmp eq i32 %18, 0
  %20 = icmp slt i32 %15, 10
  %21 = or i1 %19, %20
  br i1 %21, label %originalBBpart2, label %originalBBalteredBB

originalBBpart2:                                  ; preds = %originalBB
  invoke void @_ZN8MappingQILi3EED1Ev(%class.MappingQ* %13)
          to label %22 unwind label %24

; <label>:22:                                     ; preds = %originalBBpart2
  %23 = bitcast %class.MappingQ* %13 to i8*
  call void @_ZdlPv(i8* %23) #14
  ret void

; <label>:24:                                     ; preds = %originalBBpart2
  %25 = landingpad { i8*, i32 }
          cleanup
  %26 = extractvalue { i8*, i32 } %25, 0
  store i8* %26, i8** %11, align 8
  %27 = extractvalue { i8*, i32 } %25, 1
  store i32 %27, i32* %12, align 4
  %28 = bitcast %class.MappingQ* %13 to i8*
  call void @_ZdlPv(i8* %28) #14
  br label %29

; <label>:29:                                     ; preds = %24
  %30 = load i8*, i8** %11, align 8
  %31 = load i32, i32* %12, align 4
  %32 = insertvalue { i8*, i32 } undef, i8* %30, 0
  %33 = insertvalue { i8*, i32 } %32, i32 %31, 1
  resume { i8*, i32 } %33

originalBBalteredBB:                              ; preds = %originalBB, %1
  %34 = alloca %class.MappingQ*, align 8
  %35 = alloca i8*
  %36 = alloca i32
  store %class.MappingQ* %0, %class.MappingQ** %34, align 8
  %37 = load %class.MappingQ*, %class.MappingQ** %34, align 8
  br label %originalBB
}

; Function Attrs: noinline uwtable
define weak_odr void @_ZNK8MappingQILi3EE27transform_unit_to_real_cellERK12TriaIteratorILi3E12CellAccessorILi3EEERK5PointILi3EE(%class.Point* noalias sret, %class.MappingQ*, %class.TriaIterator* dereferenceable(16), %class.Point* dereferenceable(24)) unnamed_addr #0 comdat align 2 personality i8* bitcast (i32 (...)* @__gxx_personality_v0 to i8*) {
  %5 = alloca %class.MappingQ*, align 8
  %6 = alloca %class.TriaIterator*, align 8
  %7 = alloca %class.Point*, align 8
  %8 = alloca %class.Quadrature, align 8
  %9 = alloca %"class.std::auto_ptr", align 8
  %10 = alloca i8*
  %11 = alloca i32
  %12 = alloca %"class.MappingQ1<3>::InternalData"*, align 8
  store %class.MappingQ* %1, %class.MappingQ** %5, align 8
  store %class.TriaIterator* %2, %class.TriaIterator** %6, align 8
  store %class.Point* %3, %class.Point** %7, align 8
  %13 = load %class.MappingQ*, %class.MappingQ** %5, align 8
  %14 = load %class.Point*, %class.Point** %7, align 8
  call void @_ZN10QuadratureILi3EEC1ERK5PointILi3EE(%class.Quadrature* %8, %class.Point* dereferenceable(24) %14)
  %15 = bitcast %class.MappingQ* %13 to %"class.Mapping<3>::InternalDataBase"* (%class.MappingQ*, i32, %class.Quadrature*)***
  %16 = load %"class.Mapping<3>::InternalDataBase"* (%class.MappingQ*, i32, %class.Quadrature*)**, %"class.Mapping<3>::InternalDataBase"* (%class.MappingQ*, i32, %class.Quadrature*)*** %15, align 8
  %17 = getelementptr inbounds %"class.Mapping<3>::InternalDataBase"* (%class.MappingQ*, i32, %class.Quadrature*)*, %"class.Mapping<3>::InternalDataBase"* (%class.MappingQ*, i32, %class.Quadrature*)** %16, i64 10
  %18 = load %"class.Mapping<3>::InternalDataBase"* (%class.MappingQ*, i32, %class.Quadrature*)*, %"class.Mapping<3>::InternalDataBase"* (%class.MappingQ*, i32, %class.Quadrature*)** %17, align 8
  %19 = invoke %"class.Mapping<3>::InternalDataBase"* %18(%class.MappingQ* %13, i32 2048, %class.Quadrature* dereferenceable(80) %8)
          to label %20 unwind label %26

; <label>:20:                                     ; preds = %4
  %21 = icmp eq %"class.Mapping<3>::InternalDataBase"* %19, null
  br i1 %21, label %46, label %22

; <label>:22:                                     ; preds = %20
  %23 = bitcast %"class.Mapping<3>::InternalDataBase"* %19 to i8*
  %24 = call i8* @__dynamic_cast(i8* %23, i8* bitcast ({ i8*, i8*, i8* }* @_ZTIN7MappingILi3EE16InternalDataBaseE to i8*), i8* bitcast ({ i8*, i8*, i8* }* @_ZTIN8MappingQILi3EE12InternalDataE to i8*), i64 0) #2
  %25 = bitcast i8* %24 to %"class.MappingQ<3>::InternalData"*
  br label %47

; <label>:26:                                     ; preds = %81, %4
  %27 = load i32, i32* @x.95
  %28 = load i32, i32* @y.96
  %29 = sub i32 %27, 1
  %30 = mul i32 %27, %29
  %31 = urem i32 %30, 2
  %32 = icmp eq i32 %31, 0
  %33 = icmp slt i32 %28, 10
  %34 = or i1 %32, %33
  br i1 %34, label %originalBB, label %originalBBalteredBB

originalBB:                                       ; preds = %26, %originalBBalteredBB
  %35 = landingpad { i8*, i32 }
          cleanup
  %36 = extractvalue { i8*, i32 } %35, 0
  store i8* %36, i8** %10, align 8
  %37 = extractvalue { i8*, i32 } %35, 1
  store i32 %37, i32* %11, align 4
  %38 = load i32, i32* @x.95
  %39 = load i32, i32* @y.96
  %40 = sub i32 %38, 1
  %41 = mul i32 %38, %40
  %42 = urem i32 %41, 2
  %43 = icmp eq i32 %42, 0
  %44 = icmp slt i32 %39, 10
  %45 = or i1 %43, %44
  br i1 %45, label %originalBBpart2, label %originalBBalteredBB

originalBBpart2:                                  ; preds = %originalBB
  br label %104

; <label>:46:                                     ; preds = %20
  br label %47

; <label>:47:                                     ; preds = %46, %22
  %48 = phi %"class.MappingQ<3>::InternalData"* [ %25, %22 ], [ null, %46 ]
  call void @_ZNSt8auto_ptrIN8MappingQILi3EE12InternalDataEEC2EPS2_(%"class.std::auto_ptr"* %9, %"class.MappingQ<3>::InternalData"* %48) #2
  %49 = load %class.TriaIterator*, %class.TriaIterator** %6, align 8
  %50 = bitcast %class.TriaIterator* %49 to %class.TriaRawIterator*
  %51 = invoke %class.CellAccessor* @_ZNK15TriaRawIteratorILi3E12CellAccessorILi3EEEptEv(%class.TriaRawIterator* %50)
          to label %52 unwind label %82

; <label>:52:                                     ; preds = %47
  %53 = invoke zeroext i1 @_ZNK12CellAccessorILi3EE18has_boundary_linesEv(%class.CellAccessor* %51)
          to label %54 unwind label %82

; <label>:54:                                     ; preds = %52
  %55 = xor i1 %53, true
  %56 = call %"class.MappingQ<3>::InternalData"* @_ZNKSt8auto_ptrIN8MappingQILi3EE12InternalDataEEptEv(%"class.std::auto_ptr"* %9) #2
  %57 = getelementptr inbounds %"class.MappingQ<3>::InternalData", %"class.MappingQ<3>::InternalData"* %56, i32 0, i32 2
  %58 = zext i1 %55 to i8
  store i8 %58, i8* %57, align 8
  %59 = call %"class.MappingQ<3>::InternalData"* @_ZNKSt8auto_ptrIN8MappingQILi3EE12InternalDataEEptEv(%"class.std::auto_ptr"* %9) #2
  %60 = getelementptr inbounds %"class.MappingQ<3>::InternalData", %"class.MappingQ<3>::InternalData"* %59, i32 0, i32 2
  %61 = load i8, i8* %60, align 8
  %62 = trunc i8 %61 to i1
  br i1 %62, label %63, label %66

; <label>:63:                                     ; preds = %54
  %64 = call %"class.MappingQ<3>::InternalData"* @_ZNKSt8auto_ptrIN8MappingQILi3EE12InternalDataEEptEv(%"class.std::auto_ptr"* %9) #2
  %65 = getelementptr inbounds %"class.MappingQ<3>::InternalData", %"class.MappingQ<3>::InternalData"* %64, i32 0, i32 3
  br label %69

; <label>:66:                                     ; preds = %54
  %67 = call dereferenceable(608) %"class.MappingQ<3>::InternalData"* @_ZNKSt8auto_ptrIN8MappingQILi3EE12InternalDataEEdeEv(%"class.std::auto_ptr"* %9) #2
  %68 = bitcast %"class.MappingQ<3>::InternalData"* %67 to %"class.MappingQ1<3>::InternalData"*
  br label %69

; <label>:69:                                     ; preds = %66, %63
  %70 = phi %"class.MappingQ1<3>::InternalData"* [ %65, %63 ], [ %68, %66 ]
  store %"class.MappingQ1<3>::InternalData"* %70, %"class.MappingQ1<3>::InternalData"** %12, align 8
  %71 = bitcast %class.MappingQ* %13 to void (%class.MappingQ*, %class.TriaIterator*, %"class.std::vector.58"*)***
  %72 = load void (%class.MappingQ*, %class.TriaIterator*, %"class.std::vector.58"*)**, void (%class.MappingQ*, %class.TriaIterator*, %"class.std::vector.58"*)*** %71, align 8
  %73 = getelementptr inbounds void (%class.MappingQ*, %class.TriaIterator*, %"class.std::vector.58"*)*, void (%class.MappingQ*, %class.TriaIterator*, %"class.std::vector.58"*)** %72, i64 17
  %74 = load void (%class.MappingQ*, %class.TriaIterator*, %"class.std::vector.58"*)*, void (%class.MappingQ*, %class.TriaIterator*, %"class.std::vector.58"*)** %73, align 8
  %75 = load %class.TriaIterator*, %class.TriaIterator** %6, align 8
  %76 = load %"class.MappingQ1<3>::InternalData"*, %"class.MappingQ1<3>::InternalData"** %12, align 8
  %77 = getelementptr inbounds %"class.MappingQ1<3>::InternalData", %"class.MappingQ1<3>::InternalData"* %76, i32 0, i32 7
  invoke void %74(%class.MappingQ* %13, %class.TriaIterator* dereferenceable(16) %75, %"class.std::vector.58"* dereferenceable(24) %77)
          to label %78 unwind label %82

; <label>:78:                                     ; preds = %69
  %79 = bitcast %class.MappingQ* %13 to %class.MappingQ1*
  %80 = load %"class.MappingQ1<3>::InternalData"*, %"class.MappingQ1<3>::InternalData"** %12, align 8
  invoke void @_ZNK9MappingQ1ILi3EE36transform_unit_to_real_cell_internalERKNS0_12InternalDataE(%class.Point* sret %0, %class.MappingQ1* %79, %"class.MappingQ1<3>::InternalData"* dereferenceable(288) %80)
          to label %81 unwind label %82

; <label>:81:                                     ; preds = %78
  invoke void @_ZNSt8auto_ptrIN8MappingQILi3EE12InternalDataEED2Ev(%"class.std::auto_ptr"* %9)
          to label %86 unwind label %26

; <label>:82:                                     ; preds = %78, %69, %52, %47
  %83 = landingpad { i8*, i32 }
          cleanup
  %84 = extractvalue { i8*, i32 } %83, 0
  store i8* %84, i8** %10, align 8
  %85 = extractvalue { i8*, i32 } %83, 1
  store i32 %85, i32* %11, align 4
  invoke void @_ZNSt8auto_ptrIN8MappingQILi3EE12InternalDataEED2Ev(%"class.std::auto_ptr"* %9)
          to label %87 unwind label %127

; <label>:86:                                     ; preds = %81
  call void @_ZN10QuadratureILi3EED1Ev(%class.Quadrature* %8)
  ret void

; <label>:87:                                     ; preds = %82
  %88 = load i32, i32* @x.95
  %89 = load i32, i32* @y.96
  %90 = sub i32 %88, 1
  %91 = mul i32 %88, %90
  %92 = urem i32 %91, 2
  %93 = icmp eq i32 %92, 0
  %94 = icmp slt i32 %89, 10
  %95 = or i1 %93, %94
  br i1 %95, label %originalBB1, label %originalBB1alteredBB

originalBB1:                                      ; preds = %87, %originalBB1alteredBB
  %96 = load i32, i32* @x.95
  %97 = load i32, i32* @y.96
  %98 = sub i32 %96, 1
  %99 = mul i32 %96, %98
  %100 = urem i32 %99, 2
  %101 = icmp eq i32 %100, 0
  %102 = icmp slt i32 %97, 10
  %103 = or i1 %101, %102
  br i1 %103, label %originalBBpart24, label %originalBB1alteredBB

originalBBpart24:                                 ; preds = %originalBB1
  br label %104

; <label>:104:                                    ; preds = %originalBBpart24, %originalBBpart2
  invoke void @_ZN10QuadratureILi3EED1Ev(%class.Quadrature* %8)
          to label %105 unwind label %127

; <label>:105:                                    ; preds = %104
  br label %106

; <label>:106:                                    ; preds = %105
  %107 = load i32, i32* @x.95
  %108 = load i32, i32* @y.96
  %109 = sub i32 %107, 1
  %110 = mul i32 %107, %109
  %111 = urem i32 %110, 2
  %112 = icmp eq i32 %111, 0
  %113 = icmp slt i32 %108, 10
  %114 = or i1 %112, %113
  br i1 %114, label %originalBB6, label %originalBB6alteredBB

originalBB6:                                      ; preds = %106, %originalBB6alteredBB
  %115 = load i8*, i8** %10, align 8
  %116 = load i32, i32* %11, align 4
  %117 = insertvalue { i8*, i32 } undef, i8* %115, 0
  %118 = insertvalue { i8*, i32 } %117, i32 %116, 1
  %119 = load i32, i32* @x.95
  %120 = load i32, i32* @y.96
  %121 = sub i32 %119, 1
  %122 = mul i32 %119, %121
  %123 = urem i32 %122, 2
  %124 = icmp eq i32 %123, 0
  %125 = icmp slt i32 %120, 10
  %126 = or i1 %124, %125
  br i1 %126, label %originalBBpart28, label %originalBB6alteredBB

originalBBpart28:                                 ; preds = %originalBB6
  resume { i8*, i32 } %118

; <label>:127:                                    ; preds = %104, %82
  %128 = landingpad { i8*, i32 }
          catch i8* null
  %129 = extractvalue { i8*, i32 } %128, 0
  call void @__clang_call_terminate(i8* %129) #12
  unreachable

originalBBalteredBB:                              ; preds = %originalBB, %26
  %130 = landingpad { i8*, i32 }
          cleanup
  %131 = extractvalue { i8*, i32 } %130, 0
  store i8* %131, i8** %10, align 8
  %132 = extractvalue { i8*, i32 } %130, 1
  store i32 %132, i32* %11, align 4
  br label %originalBB

originalBB1alteredBB:                             ; preds = %originalBB1, %87
  br label %originalBB1

originalBB6alteredBB:                             ; preds = %originalBB6, %106
  %133 = load i8*, i8** %10, align 8
  %134 = load i32, i32* %11, align 4
  %135 = insertvalue { i8*, i32 } undef, i8* %133, 0
  %136 = insertvalue { i8*, i32 } %135, i32 %134, 1
  br label %originalBB6
}

declare void @_ZN10QuadratureILi3EEC1ERK5PointILi3EE(%class.Quadrature*, %class.Point* dereferenceable(24)) unnamed_addr #3

; Function Attrs: nounwind readonly
declare i8* @__dynamic_cast(i8*, i8*, i8*, i64) #7

; Function Attrs: noinline nounwind uwtable
define linkonce_odr void @_ZNSt8auto_ptrIN8MappingQILi3EE12InternalDataEEC2EPS2_(%"class.std::auto_ptr"*, %"class.MappingQ<3>::InternalData"*) unnamed_addr #1 comdat align 2 {
  %3 = alloca %"class.std::auto_ptr"*, align 8
  %4 = alloca %"class.MappingQ<3>::InternalData"*, align 8
  store %"class.std::auto_ptr"* %0, %"class.std::auto_ptr"** %3, align 8
  store %"class.MappingQ<3>::InternalData"* %1, %"class.MappingQ<3>::InternalData"** %4, align 8
  %5 = load %"class.std::auto_ptr"*, %"class.std::auto_ptr"** %3, align 8
  %6 = getelementptr inbounds %"class.std::auto_ptr", %"class.std::auto_ptr"* %5, i32 0, i32 0
  %7 = load %"class.MappingQ<3>::InternalData"*, %"class.MappingQ<3>::InternalData"** %4, align 8
  store %"class.MappingQ<3>::InternalData"* %7, %"class.MappingQ<3>::InternalData"** %6, align 8
  ret void
}

declare zeroext i1 @_ZNK12CellAccessorILi3EE18has_boundary_linesEv(%class.CellAccessor*) #3

; Function Attrs: noinline nounwind uwtable
define linkonce_odr %"class.MappingQ<3>::InternalData"* @_ZNKSt8auto_ptrIN8MappingQILi3EE12InternalDataEEptEv(%"class.std::auto_ptr"*) #1 comdat align 2 {
  %2 = alloca %"class.std::auto_ptr"*, align 8
  store %"class.std::auto_ptr"* %0, %"class.std::auto_ptr"** %2, align 8
  %3 = load %"class.std::auto_ptr"*, %"class.std::auto_ptr"** %2, align 8
  %4 = getelementptr inbounds %"class.std::auto_ptr", %"class.std::auto_ptr"* %3, i32 0, i32 0
  %5 = load %"class.MappingQ<3>::InternalData"*, %"class.MappingQ<3>::InternalData"** %4, align 8
  ret %"class.MappingQ<3>::InternalData"* %5
}

; Function Attrs: noinline nounwind uwtable
define linkonce_odr dereferenceable(608) %"class.MappingQ<3>::InternalData"* @_ZNKSt8auto_ptrIN8MappingQILi3EE12InternalDataEEdeEv(%"class.std::auto_ptr"*) #1 comdat align 2 {
  %2 = alloca %"class.std::auto_ptr"*, align 8
  store %"class.std::auto_ptr"* %0, %"class.std::auto_ptr"** %2, align 8
  %3 = load %"class.std::auto_ptr"*, %"class.std::auto_ptr"** %2, align 8
  %4 = getelementptr inbounds %"class.std::auto_ptr", %"class.std::auto_ptr"* %3, i32 0, i32 0
  %5 = load %"class.MappingQ<3>::InternalData"*, %"class.MappingQ<3>::InternalData"** %4, align 8
  ret %"class.MappingQ<3>::InternalData"* %5
}

declare void @_ZNK9MappingQ1ILi3EE36transform_unit_to_real_cell_internalERKNS0_12InternalDataE(%class.Point* sret, %class.MappingQ1*, %"class.MappingQ1<3>::InternalData"* dereferenceable(288)) #3

; Function Attrs: noinline uwtable
define linkonce_odr void @_ZNSt8auto_ptrIN8MappingQILi3EE12InternalDataEED2Ev(%"class.std::auto_ptr"*) unnamed_addr #0 comdat align 2 {
  %2 = load i32, i32* @x.103
  %3 = load i32, i32* @y.104
  %4 = sub i32 %2, 1
  %5 = mul i32 %2, %4
  %6 = urem i32 %5, 2
  %7 = icmp eq i32 %6, 0
  %8 = icmp slt i32 %3, 10
  %9 = or i1 %7, %8
  br i1 %9, label %originalBB, label %originalBBalteredBB

originalBB:                                       ; preds = %1, %originalBBalteredBB
  %10 = alloca %"class.std::auto_ptr"*, align 8
  store %"class.std::auto_ptr"* %0, %"class.std::auto_ptr"** %10, align 8
  %11 = load %"class.std::auto_ptr"*, %"class.std::auto_ptr"** %10, align 8
  %12 = getelementptr inbounds %"class.std::auto_ptr", %"class.std::auto_ptr"* %11, i32 0, i32 0
  %13 = load %"class.MappingQ<3>::InternalData"*, %"class.MappingQ<3>::InternalData"** %12, align 8
  %14 = icmp eq %"class.MappingQ<3>::InternalData"* %13, null
  %15 = load i32, i32* @x.103
  %16 = load i32, i32* @y.104
  %17 = sub i32 %15, 1
  %18 = mul i32 %15, %17
  %19 = urem i32 %18, 2
  %20 = icmp eq i32 %19, 0
  %21 = icmp slt i32 %16, 10
  %22 = or i1 %20, %21
  br i1 %22, label %originalBBpart2, label %originalBBalteredBB

originalBBpart2:                                  ; preds = %originalBB
  br i1 %14, label %44, label %23

; <label>:23:                                     ; preds = %originalBBpart2
  %24 = load i32, i32* @x.103
  %25 = load i32, i32* @y.104
  %26 = sub i32 %24, 1
  %27 = mul i32 %24, %26
  %28 = urem i32 %27, 2
  %29 = icmp eq i32 %28, 0
  %30 = icmp slt i32 %25, 10
  %31 = or i1 %29, %30
  br i1 %31, label %originalBB1, label %originalBB1alteredBB

originalBB1:                                      ; preds = %23, %originalBB1alteredBB
  %32 = bitcast %"class.MappingQ<3>::InternalData"* %13 to void (%"class.MappingQ<3>::InternalData"*)***
  %33 = load void (%"class.MappingQ<3>::InternalData"*)**, void (%"class.MappingQ<3>::InternalData"*)*** %32, align 8
  %34 = getelementptr inbounds void (%"class.MappingQ<3>::InternalData"*)*, void (%"class.MappingQ<3>::InternalData"*)** %33, i64 1
  %35 = load void (%"class.MappingQ<3>::InternalData"*)*, void (%"class.MappingQ<3>::InternalData"*)** %34, align 8
  call void %35(%"class.MappingQ<3>::InternalData"* %13)
  %36 = load i32, i32* @x.103
  %37 = load i32, i32* @y.104
  %38 = sub i32 %36, 1
  %39 = mul i32 %36, %38
  %40 = urem i32 %39, 2
  %41 = icmp eq i32 %40, 0
  %42 = icmp slt i32 %37, 10
  %43 = or i1 %41, %42
  br i1 %43, label %originalBBpart24, label %originalBB1alteredBB

originalBBpart24:                                 ; preds = %originalBB1
  br label %44

; <label>:44:                                     ; preds = %originalBBpart24, %originalBBpart2
  %45 = load i32, i32* @x.103
  %46 = load i32, i32* @y.104
  %47 = sub i32 %45, 1
  %48 = mul i32 %45, %47
  %49 = urem i32 %48, 2
  %50 = icmp eq i32 %49, 0
  %51 = icmp slt i32 %46, 10
  %52 = or i1 %50, %51
  br i1 %52, label %originalBB6, label %originalBB6alteredBB

originalBB6:                                      ; preds = %44, %originalBB6alteredBB
  %53 = load i32, i32* @x.103
  %54 = load i32, i32* @y.104
  %55 = sub i32 %53, 1
  %56 = mul i32 %53, %55
  %57 = urem i32 %56, 2
  %58 = icmp eq i32 %57, 0
  %59 = icmp slt i32 %54, 10
  %60 = or i1 %58, %59
  br i1 %60, label %originalBBpart28, label %originalBB6alteredBB

originalBBpart28:                                 ; preds = %originalBB6
  ret void

originalBBalteredBB:                              ; preds = %originalBB, %1
  %61 = alloca %"class.std::auto_ptr"*, align 8
  store %"class.std::auto_ptr"* %0, %"class.std::auto_ptr"** %61, align 8
  %62 = load %"class.std::auto_ptr"*, %"class.std::auto_ptr"** %61, align 8
  %63 = getelementptr inbounds %"class.std::auto_ptr", %"class.std::auto_ptr"* %62, i32 0, i32 0
  %64 = load %"class.MappingQ<3>::InternalData"*, %"class.MappingQ<3>::InternalData"** %63, align 8
  %65 = icmp eq %"class.MappingQ<3>::InternalData"* %64, null
  br label %originalBB

originalBB1alteredBB:                             ; preds = %originalBB1, %23
  %66 = bitcast %"class.MappingQ<3>::InternalData"* %13 to void (%"class.MappingQ<3>::InternalData"*)***
  %67 = load void (%"class.MappingQ<3>::InternalData"*)**, void (%"class.MappingQ<3>::InternalData"*)*** %66, align 8
  %68 = getelementptr inbounds void (%"class.MappingQ<3>::InternalData"*)*, void (%"class.MappingQ<3>::InternalData"*)** %67, i64 1
  %69 = load void (%"class.MappingQ<3>::InternalData"*)*, void (%"class.MappingQ<3>::InternalData"*)** %68, align 8
  call void %69(%"class.MappingQ<3>::InternalData"* %13)
  br label %originalBB1

originalBB6alteredBB:                             ; preds = %originalBB6, %44
  br label %originalBB6
}

declare void @_ZN10QuadratureILi3EED1Ev(%class.Quadrature*) unnamed_addr #3

; Function Attrs: noinline uwtable
define weak_odr void @_ZNK8MappingQILi3EE27transform_real_to_unit_cellERK12TriaIteratorILi3E12CellAccessorILi3EEERK5PointILi3EE(%class.Point* noalias sret, %class.MappingQ*, %class.TriaIterator* dereferenceable(16), %class.Point* dereferenceable(24)) unnamed_addr #0 comdat align 2 personality i8* bitcast (i32 (...)* @__gxx_personality_v0 to i8*) {
  %5 = alloca %class.MappingQ*, align 8
  %6 = alloca %class.TriaIterator*, align 8
  %7 = alloca %class.Point*, align 8
  %8 = alloca %class.Quadrature, align 8
  %9 = alloca %"class.std::auto_ptr", align 8
  %10 = alloca i8*
  %11 = alloca i32
  %12 = alloca %"class.std::vector.58"*, align 8
  store %class.MappingQ* %1, %class.MappingQ** %5, align 8
  store %class.TriaIterator* %2, %class.TriaIterator** %6, align 8
  store %class.Point* %3, %class.Point** %7, align 8
  %13 = load %class.MappingQ*, %class.MappingQ** %5, align 8
  %14 = bitcast %class.MappingQ* %13 to %class.MappingQ1*
  %15 = load %class.TriaIterator*, %class.TriaIterator** %6, align 8
  %16 = load %class.Point*, %class.Point** %7, align 8
  call void @_ZNK9MappingQ1ILi3EE27transform_real_to_unit_cellERK12TriaIteratorILi3E12CellAccessorILi3EEERK5PointILi3EE(%class.Point* sret %0, %class.MappingQ1* %14, %class.TriaIterator* dereferenceable(16) %15, %class.Point* dereferenceable(24) %16)
  %17 = load %class.TriaIterator*, %class.TriaIterator** %6, align 8
  %18 = bitcast %class.TriaIterator* %17 to %class.TriaRawIterator*
  %19 = call %class.CellAccessor* @_ZNK15TriaRawIteratorILi3E12CellAccessorILi3EEEptEv(%class.TriaRawIterator* %18)
  %20 = call zeroext i1 @_ZNK12CellAccessorILi3EE18has_boundary_linesEv(%class.CellAccessor* %19)
  br i1 %20, label %21, label %148

; <label>:21:                                     ; preds = %4
  call void @_ZN10QuadratureILi3EEC1ERK5PointILi3EE(%class.Quadrature* %8, %class.Point* dereferenceable(24) %0)
  %22 = bitcast %class.MappingQ* %13 to %"class.Mapping<3>::InternalDataBase"* (%class.MappingQ*, i32, %class.Quadrature*)***
  %23 = load %"class.Mapping<3>::InternalDataBase"* (%class.MappingQ*, i32, %class.Quadrature*)**, %"class.Mapping<3>::InternalDataBase"* (%class.MappingQ*, i32, %class.Quadrature*)*** %22, align 8
  %24 = getelementptr inbounds %"class.Mapping<3>::InternalDataBase"* (%class.MappingQ*, i32, %class.Quadrature*)*, %"class.Mapping<3>::InternalDataBase"* (%class.MappingQ*, i32, %class.Quadrature*)** %23, i64 10
  %25 = load %"class.Mapping<3>::InternalDataBase"* (%class.MappingQ*, i32, %class.Quadrature*)*, %"class.Mapping<3>::InternalDataBase"* (%class.MappingQ*, i32, %class.Quadrature*)** %24, align 8
  %26 = invoke i32 @_Zor11UpdateFlagsS_(i32 2048, i32 4096)
          to label %27 unwind label %51

; <label>:27:                                     ; preds = %21
  %28 = invoke %"class.Mapping<3>::InternalDataBase"* %25(%class.MappingQ* %13, i32 %26, %class.Quadrature* dereferenceable(80) %8)
          to label %29 unwind label %51

; <label>:29:                                     ; preds = %27
  %30 = icmp eq %"class.Mapping<3>::InternalDataBase"* %28, null
  br i1 %30, label %55, label %31

; <label>:31:                                     ; preds = %29
  %32 = load i32, i32* @x.105
  %33 = load i32, i32* @y.106
  %34 = sub i32 %32, 1
  %35 = mul i32 %32, %34
  %36 = urem i32 %35, 2
  %37 = icmp eq i32 %36, 0
  %38 = icmp slt i32 %33, 10
  %39 = or i1 %37, %38
  br i1 %39, label %originalBB, label %originalBBalteredBB

originalBB:                                       ; preds = %31, %originalBBalteredBB
  %40 = bitcast %"class.Mapping<3>::InternalDataBase"* %28 to i8*
  %41 = call i8* @__dynamic_cast(i8* %40, i8* bitcast ({ i8*, i8*, i8* }* @_ZTIN7MappingILi3EE16InternalDataBaseE to i8*), i8* bitcast ({ i8*, i8*, i8* }* @_ZTIN8MappingQILi3EE12InternalDataE to i8*), i64 0) #2
  %42 = bitcast i8* %41 to %"class.MappingQ<3>::InternalData"*
  %43 = load i32, i32* @x.105
  %44 = load i32, i32* @y.106
  %45 = sub i32 %43, 1
  %46 = mul i32 %43, %45
  %47 = urem i32 %46, 2
  %48 = icmp eq i32 %47, 0
  %49 = icmp slt i32 %44, 10
  %50 = or i1 %48, %49
  br i1 %50, label %originalBBpart2, label %originalBBalteredBB

originalBBpart2:                                  ; preds = %originalBB
  br label %72

; <label>:51:                                     ; preds = %107, %27, %21
  %52 = landingpad { i8*, i32 }
          cleanup
  %53 = extractvalue { i8*, i32 } %52, 0
  store i8* %53, i8** %10, align 8
  %54 = extractvalue { i8*, i32 } %52, 1
  store i32 %54, i32* %11, align 4
  br label %146

; <label>:55:                                     ; preds = %29
  %56 = load i32, i32* @x.105
  %57 = load i32, i32* @y.106
  %58 = sub i32 %56, 1
  %59 = mul i32 %56, %58
  %60 = urem i32 %59, 2
  %61 = icmp eq i32 %60, 0
  %62 = icmp slt i32 %57, 10
  %63 = or i1 %61, %62
  br i1 %63, label %originalBB1, label %originalBB1alteredBB

originalBB1:                                      ; preds = %55, %originalBB1alteredBB
  %64 = load i32, i32* @x.105
  %65 = load i32, i32* @y.106
  %66 = sub i32 %64, 1
  %67 = mul i32 %64, %66
  %68 = urem i32 %67, 2
  %69 = icmp eq i32 %68, 0
  %70 = icmp slt i32 %65, 10
  %71 = or i1 %69, %70
  br i1 %71, label %originalBBpart24, label %originalBB1alteredBB

originalBBpart24:                                 ; preds = %originalBB1
  br label %72

; <label>:72:                                     ; preds = %originalBBpart24, %originalBBpart2
  %73 = phi %"class.MappingQ<3>::InternalData"* [ %42, %originalBBpart2 ], [ null, %originalBBpart24 ]
  %74 = load i32, i32* @x.105
  %75 = load i32, i32* @y.106
  %76 = sub i32 %74, 1
  %77 = mul i32 %74, %76
  %78 = urem i32 %77, 2
  %79 = icmp eq i32 %78, 0
  %80 = icmp slt i32 %75, 10
  %81 = or i1 %79, %80
  br i1 %81, label %originalBB6, label %originalBB6alteredBB

originalBB6:                                      ; preds = %72, %originalBB6alteredBB
  call void @_ZNSt8auto_ptrIN8MappingQILi3EE12InternalDataEEC2EPS2_(%"class.std::auto_ptr"* %9, %"class.MappingQ<3>::InternalData"* %73) #2
  %82 = call %"class.MappingQ<3>::InternalData"* @_ZNKSt8auto_ptrIN8MappingQILi3EE12InternalDataEEptEv(%"class.std::auto_ptr"* %9) #2
  %83 = getelementptr inbounds %"class.MappingQ<3>::InternalData", %"class.MappingQ<3>::InternalData"* %82, i32 0, i32 2
  store i8 0, i8* %83, align 8
  %84 = call %"class.MappingQ<3>::InternalData"* @_ZNKSt8auto_ptrIN8MappingQILi3EE12InternalDataEEptEv(%"class.std::auto_ptr"* %9) #2
  %85 = bitcast %"class.MappingQ<3>::InternalData"* %84 to %"class.MappingQ1<3>::InternalData"*
  %86 = getelementptr inbounds %"class.MappingQ1<3>::InternalData", %"class.MappingQ1<3>::InternalData"* %85, i32 0, i32 7
  store %"class.std::vector.58"* %86, %"class.std::vector.58"** %12, align 8
  %87 = bitcast %class.MappingQ* %13 to void (%class.MappingQ*, %class.TriaIterator*, %"class.std::vector.58"*)***
  %88 = load void (%class.MappingQ*, %class.TriaIterator*, %"class.std::vector.58"*)**, void (%class.MappingQ*, %class.TriaIterator*, %"class.std::vector.58"*)*** %87, align 8
  %89 = getelementptr inbounds void (%class.MappingQ*, %class.TriaIterator*, %"class.std::vector.58"*)*, void (%class.MappingQ*, %class.TriaIterator*, %"class.std::vector.58"*)** %88, i64 17
  %90 = load void (%class.MappingQ*, %class.TriaIterator*, %"class.std::vector.58"*)*, void (%class.MappingQ*, %class.TriaIterator*, %"class.std::vector.58"*)** %89, align 8
  %91 = load %class.TriaIterator*, %class.TriaIterator** %6, align 8
  %92 = load %"class.std::vector.58"*, %"class.std::vector.58"** %12, align 8
  %93 = load i32, i32* @x.105
  %94 = load i32, i32* @y.106
  %95 = sub i32 %93, 1
  %96 = mul i32 %93, %95
  %97 = urem i32 %96, 2
  %98 = icmp eq i32 %97, 0
  %99 = icmp slt i32 %94, 10
  %100 = or i1 %98, %99
  br i1 %100, label %originalBBpart28, label %originalBB6alteredBB

originalBBpart28:                                 ; preds = %originalBB6
  invoke void %90(%class.MappingQ* %13, %class.TriaIterator* dereferenceable(16) %91, %"class.std::vector.58"* dereferenceable(24) %92)
          to label %101 unwind label %109

; <label>:101:                                    ; preds = %originalBBpart28
  %102 = bitcast %class.MappingQ* %13 to %class.MappingQ1*
  %103 = load %class.TriaIterator*, %class.TriaIterator** %6, align 8
  %104 = load %class.Point*, %class.Point** %7, align 8
  %105 = call dereferenceable(608) %"class.MappingQ<3>::InternalData"* @_ZNKSt8auto_ptrIN8MappingQILi3EE12InternalDataEEdeEv(%"class.std::auto_ptr"* %9) #2
  %106 = bitcast %"class.MappingQ<3>::InternalData"* %105 to %"class.MappingQ1<3>::InternalData"*
  invoke void @_ZNK9MappingQ1ILi3EE36transform_real_to_unit_cell_internalERK12TriaIteratorILi3E12CellAccessorILi3EEERK5PointILi3EERNS0_12InternalDataERS8_(%class.MappingQ1* %102, %class.TriaIterator* dereferenceable(16) %103, %class.Point* dereferenceable(24) %104, %"class.MappingQ1<3>::InternalData"* dereferenceable(288) %106, %class.Point* dereferenceable(24) %0)
          to label %107 unwind label %109

; <label>:107:                                    ; preds = %101
  invoke void @_ZNSt8auto_ptrIN8MappingQILi3EE12InternalDataEED2Ev(%"class.std::auto_ptr"* %9)
          to label %108 unwind label %51

; <label>:108:                                    ; preds = %107
  call void @_ZN10QuadratureILi3EED1Ev(%class.Quadrature* %8)
  br label %148

; <label>:109:                                    ; preds = %101, %originalBBpart28
  %110 = load i32, i32* @x.105
  %111 = load i32, i32* @y.106
  %112 = sub i32 %110, 1
  %113 = mul i32 %110, %112
  %114 = urem i32 %113, 2
  %115 = icmp eq i32 %114, 0
  %116 = icmp slt i32 %111, 10
  %117 = or i1 %115, %116
  br i1 %117, label %originalBB10, label %originalBB10alteredBB

originalBB10:                                     ; preds = %109, %originalBB10alteredBB
  %118 = landingpad { i8*, i32 }
          cleanup
  %119 = extractvalue { i8*, i32 } %118, 0
  store i8* %119, i8** %10, align 8
  %120 = extractvalue { i8*, i32 } %118, 1
  store i32 %120, i32* %11, align 4
  %121 = load i32, i32* @x.105
  %122 = load i32, i32* @y.106
  %123 = sub i32 %121, 1
  %124 = mul i32 %121, %123
  %125 = urem i32 %124, 2
  %126 = icmp eq i32 %125, 0
  %127 = icmp slt i32 %122, 10
  %128 = or i1 %126, %127
  br i1 %128, label %originalBBpart212, label %originalBB10alteredBB

originalBBpart212:                                ; preds = %originalBB10
  invoke void @_ZNSt8auto_ptrIN8MappingQILi3EE12InternalDataEED2Ev(%"class.std::auto_ptr"* %9)
          to label %129 unwind label %170

; <label>:129:                                    ; preds = %originalBBpart212
  %130 = load i32, i32* @x.105
  %131 = load i32, i32* @y.106
  %132 = sub i32 %130, 1
  %133 = mul i32 %130, %132
  %134 = urem i32 %133, 2
  %135 = icmp eq i32 %134, 0
  %136 = icmp slt i32 %131, 10
  %137 = or i1 %135, %136
  br i1 %137, label %originalBB14, label %originalBB14alteredBB

originalBB14:                                     ; preds = %129, %originalBB14alteredBB
  %138 = load i32, i32* @x.105
  %139 = load i32, i32* @y.106
  %140 = sub i32 %138, 1
  %141 = mul i32 %138, %140
  %142 = urem i32 %141, 2
  %143 = icmp eq i32 %142, 0
  %144 = icmp slt i32 %139, 10
  %145 = or i1 %143, %144
  br i1 %145, label %originalBBpart216, label %originalBB14alteredBB

originalBBpart216:                                ; preds = %originalBB14
  br label %146

; <label>:146:                                    ; preds = %originalBBpart216, %51
  invoke void @_ZN10QuadratureILi3EED1Ev(%class.Quadrature* %8)
          to label %147 unwind label %170

; <label>:147:                                    ; preds = %146
  br label %149

; <label>:148:                                    ; preds = %108, %4
  ret void

; <label>:149:                                    ; preds = %147
  %150 = load i32, i32* @x.105
  %151 = load i32, i32* @y.106
  %152 = sub i32 %150, 1
  %153 = mul i32 %150, %152
  %154 = urem i32 %153, 2
  %155 = icmp eq i32 %154, 0
  %156 = icmp slt i32 %151, 10
  %157 = or i1 %155, %156
  br i1 %157, label %originalBB18, label %originalBB18alteredBB

originalBB18:                                     ; preds = %149, %originalBB18alteredBB
  %158 = load i8*, i8** %10, align 8
  %159 = load i32, i32* %11, align 4
  %160 = insertvalue { i8*, i32 } undef, i8* %158, 0
  %161 = insertvalue { i8*, i32 } %160, i32 %159, 1
  %162 = load i32, i32* @x.105
  %163 = load i32, i32* @y.106
  %164 = sub i32 %162, 1
  %165 = mul i32 %162, %164
  %166 = urem i32 %165, 2
  %167 = icmp eq i32 %166, 0
  %168 = icmp slt i32 %163, 10
  %169 = or i1 %167, %168
  br i1 %169, label %originalBBpart220, label %originalBB18alteredBB

originalBBpart220:                                ; preds = %originalBB18
  resume { i8*, i32 } %161

; <label>:170:                                    ; preds = %146, %originalBBpart212
  %171 = load i32, i32* @x.105
  %172 = load i32, i32* @y.106
  %173 = sub i32 %171, 1
  %174 = mul i32 %171, %173
  %175 = urem i32 %174, 2
  %176 = icmp eq i32 %175, 0
  %177 = icmp slt i32 %172, 10
  %178 = or i1 %176, %177
  br i1 %178, label %originalBB22, label %originalBB22alteredBB

originalBB22:                                     ; preds = %170, %originalBB22alteredBB
  %179 = landingpad { i8*, i32 }
          catch i8* null
  %180 = extractvalue { i8*, i32 } %179, 0
  call void @__clang_call_terminate(i8* %180) #12
  %181 = load i32, i32* @x.105
  %182 = load i32, i32* @y.106
  %183 = sub i32 %181, 1
  %184 = mul i32 %181, %183
  %185 = urem i32 %184, 2
  %186 = icmp eq i32 %185, 0
  %187 = icmp slt i32 %182, 10
  %188 = or i1 %186, %187
  br i1 %188, label %originalBBpart224, label %originalBB22alteredBB

originalBBpart224:                                ; preds = %originalBB22
  unreachable

originalBBalteredBB:                              ; preds = %originalBB, %31
  %189 = bitcast %"class.Mapping<3>::InternalDataBase"* %28 to i8*
  %190 = call i8* @__dynamic_cast(i8* %189, i8* bitcast ({ i8*, i8*, i8* }* @_ZTIN7MappingILi3EE16InternalDataBaseE to i8*), i8* bitcast ({ i8*, i8*, i8* }* @_ZTIN8MappingQILi3EE12InternalDataE to i8*), i64 0) #2
  %191 = bitcast i8* %190 to %"class.MappingQ<3>::InternalData"*
  br label %originalBB

originalBB1alteredBB:                             ; preds = %originalBB1, %55
  br label %originalBB1

originalBB6alteredBB:                             ; preds = %originalBB6, %72
  call void @_ZNSt8auto_ptrIN8MappingQILi3EE12InternalDataEEC2EPS2_(%"class.std::auto_ptr"* %9, %"class.MappingQ<3>::InternalData"* %73) #2
  %192 = call %"class.MappingQ<3>::InternalData"* @_ZNKSt8auto_ptrIN8MappingQILi3EE12InternalDataEEptEv(%"class.std::auto_ptr"* %9) #2
  %193 = getelementptr inbounds %"class.MappingQ<3>::InternalData", %"class.MappingQ<3>::InternalData"* %192, i32 0, i32 2
  store i8 0, i8* %193, align 8
  %194 = call %"class.MappingQ<3>::InternalData"* @_ZNKSt8auto_ptrIN8MappingQILi3EE12InternalDataEEptEv(%"class.std::auto_ptr"* %9) #2
  %195 = bitcast %"class.MappingQ<3>::InternalData"* %194 to %"class.MappingQ1<3>::InternalData"*
  %196 = getelementptr inbounds %"class.MappingQ1<3>::InternalData", %"class.MappingQ1<3>::InternalData"* %195, i32 0, i32 7
  store %"class.std::vector.58"* %196, %"class.std::vector.58"** %12, align 8
  %197 = bitcast %class.MappingQ* %13 to void (%class.MappingQ*, %class.TriaIterator*, %"class.std::vector.58"*)***
  %198 = load void (%class.MappingQ*, %class.TriaIterator*, %"class.std::vector.58"*)**, void (%class.MappingQ*, %class.TriaIterator*, %"class.std::vector.58"*)*** %197, align 8
  %199 = getelementptr inbounds void (%class.MappingQ*, %class.TriaIterator*, %"class.std::vector.58"*)*, void (%class.MappingQ*, %class.TriaIterator*, %"class.std::vector.58"*)** %198, i64 17
  %200 = load void (%class.MappingQ*, %class.TriaIterator*, %"class.std::vector.58"*)*, void (%class.MappingQ*, %class.TriaIterator*, %"class.std::vector.58"*)** %199, align 8
  %201 = load %class.TriaIterator*, %class.TriaIterator** %6, align 8
  %202 = load %"class.std::vector.58"*, %"class.std::vector.58"** %12, align 8
  br label %originalBB6

originalBB10alteredBB:                            ; preds = %originalBB10, %109
  %203 = landingpad { i8*, i32 }
          cleanup
  %204 = extractvalue { i8*, i32 } %203, 0
  store i8* %204, i8** %10, align 8
  %205 = extractvalue { i8*, i32 } %203, 1
  store i32 %205, i32* %11, align 4
  br label %originalBB10

originalBB14alteredBB:                            ; preds = %originalBB14, %129
  br label %originalBB14

originalBB18alteredBB:                            ; preds = %originalBB18, %149
  %206 = load i8*, i8** %10, align 8
  %207 = load i32, i32* %11, align 4
  %208 = insertvalue { i8*, i32 } undef, i8* %206, 0
  %209 = insertvalue { i8*, i32 } %208, i32 %207, 1
  br label %originalBB18

originalBB22alteredBB:                            ; preds = %originalBB22, %170
  %210 = landingpad { i8*, i32 }
          catch i8* null
  %211 = extractvalue { i8*, i32 } %210, 0
  call void @__clang_call_terminate(i8* %211) #12
  br label %originalBB22
}

declare void @_ZNK9MappingQ1ILi3EE27transform_real_to_unit_cellERK12TriaIteratorILi3E12CellAccessorILi3EEERK5PointILi3EE(%class.Point* sret, %class.MappingQ1*, %class.TriaIterator* dereferenceable(16), %class.Point* dereferenceable(24)) unnamed_addr #3

; Function Attrs: noinline nounwind uwtable
define linkonce_odr i32 @_Zor11UpdateFlagsS_(i32, i32) #1 comdat {
  %3 = alloca i32, align 4
  %4 = alloca i32, align 4
  store i32 %0, i32* %3, align 4
  store i32 %1, i32* %4, align 4
  %5 = load i32, i32* %3, align 4
  %6 = load i32, i32* %4, align 4
  %7 = or i32 %5, %6
  ret i32 %7
}

declare void @_ZNK9MappingQ1ILi3EE36transform_real_to_unit_cell_internalERK12TriaIteratorILi3E12CellAccessorILi3EEERK5PointILi3EERNS0_12InternalDataERS8_(%class.MappingQ1*, %class.TriaIterator* dereferenceable(16), %class.Point* dereferenceable(24), %"class.MappingQ1<3>::InternalData"* dereferenceable(288), %class.Point* dereferenceable(24)) #3

; Function Attrs: noinline uwtable
define weak_odr void @_ZNK8MappingQILi3EE19transform_covariantEP6TensorILi1ELi3EES3_PKS2_RKN7MappingILi3EE16InternalDataBaseE(%class.MappingQ*, %class.Tensor*, %class.Tensor*, %class.Tensor*, %"class.Mapping<3>::InternalDataBase"* dereferenceable(40)) unnamed_addr #0 comdat align 2 {
  %6 = alloca %class.MappingQ*, align 8
  %7 = alloca %class.Tensor*, align 8
  %8 = alloca %class.Tensor*, align 8
  %9 = alloca %class.Tensor*, align 8
  %10 = alloca %"class.Mapping<3>::InternalDataBase"*, align 8
  %11 = alloca %"class.MappingQ1<3>::InternalData"*, align 8
  %12 = alloca %"class.__gnu_cxx::__normal_iterator.134", align 8
  %13 = alloca %"class.__gnu_cxx::__normal_iterator.134", align 8
  %14 = alloca %"class.MappingQ<3>::InternalData"*, align 8
  %15 = alloca %"class.__gnu_cxx::__normal_iterator.134", align 8
  %16 = alloca %"class.__gnu_cxx::__normal_iterator.134", align 8
  %17 = alloca %"class.__gnu_cxx::__normal_iterator.134", align 8
  store %class.MappingQ* %0, %class.MappingQ** %6, align 8
  store %class.Tensor* %1, %class.Tensor** %7, align 8
  store %class.Tensor* %2, %class.Tensor** %8, align 8
  store %class.Tensor* %3, %class.Tensor** %9, align 8
  store %"class.Mapping<3>::InternalDataBase"* %4, %"class.Mapping<3>::InternalDataBase"** %10, align 8
  %18 = load %class.MappingQ*, %class.MappingQ** %6, align 8
  %19 = load %"class.Mapping<3>::InternalDataBase"*, %"class.Mapping<3>::InternalDataBase"** %10, align 8
  %20 = icmp eq %"class.Mapping<3>::InternalDataBase"* %19, null
  br i1 %20, label %25, label %21

; <label>:21:                                     ; preds = %5
  %22 = bitcast %"class.Mapping<3>::InternalDataBase"* %19 to i8*
  %23 = call i8* @__dynamic_cast(i8* %22, i8* bitcast ({ i8*, i8*, i8* }* @_ZTIN7MappingILi3EE16InternalDataBaseE to i8*), i8* bitcast ({ i8*, i8*, i8* }* @_ZTIN9MappingQ1ILi3EE12InternalDataE to i8*), i64 0) #2
  %24 = bitcast i8* %23 to %"class.MappingQ1<3>::InternalData"*
  br label %26

; <label>:25:                                     ; preds = %5
  br label %26

; <label>:26:                                     ; preds = %25, %21
  %27 = phi %"class.MappingQ1<3>::InternalData"* [ %24, %21 ], [ null, %25 ]
  store %"class.MappingQ1<3>::InternalData"* %27, %"class.MappingQ1<3>::InternalData"** %11, align 8
  call void @_ZN9__gnu_cxx17__normal_iteratorIPK6TensorILi2ELi3EESt6vectorIS2_SaIS2_EEEC2Ev(%"class.__gnu_cxx::__normal_iterator.134"* %12)
  %28 = load %"class.MappingQ1<3>::InternalData"*, %"class.MappingQ1<3>::InternalData"** %11, align 8
  %29 = getelementptr inbounds %"class.MappingQ1<3>::InternalData", %"class.MappingQ1<3>::InternalData"* %28, i32 0, i32 9
  %30 = load i8, i8* %29, align 8
  %31 = trunc i8 %30 to i1
  br i1 %31, label %32, label %55

; <label>:32:                                     ; preds = %26
  %33 = load i32, i32* @x.109
  %34 = load i32, i32* @y.110
  %35 = sub i32 %33, 1
  %36 = mul i32 %33, %35
  %37 = urem i32 %36, 2
  %38 = icmp eq i32 %37, 0
  %39 = icmp slt i32 %34, 10
  %40 = or i1 %38, %39
  br i1 %40, label %originalBB, label %originalBBalteredBB

originalBB:                                       ; preds = %32, %originalBBalteredBB
  %41 = load %"class.MappingQ1<3>::InternalData"*, %"class.MappingQ1<3>::InternalData"** %11, align 8
