; ModuleID = 'Project_CodeNet_C++1400/p02368/s341909802.cpp'
source_filename = "Project_CodeNet_C++1400/p02368/s341909802.cpp"
target datalayout = "e-m:e-i64:64-f80:128-n8:16:32:64-S128"
target triple = "x86_64-unknown-linux-gnu"

%"class.std::ios_base::Init" = type { i8 }
%"class.std::basic_istream" = type { i32 (...)**, i64, %"class.std::basic_ios" }
%"class.std::basic_ios" = type { %"class.std::ios_base", %"class.std::basic_ostream"*, i8, i8, %"class.std::basic_streambuf"*, %"class.std::ctype"*, %"class.std::num_put"*, %"class.std::num_get"* }
%"class.std::ios_base" = type { i32 (...)**, i64, i64, i32, i32, i32, %"struct.std::ios_base::_Callback_list"*, %"struct.std::ios_base::_Words", [8 x %"struct.std::ios_base::_Words"], i32, %"struct.std::ios_base::_Words"*, %"class.std::locale" }
%"struct.std::ios_base::_Callback_list" = type { %"struct.std::ios_base::_Callback_list"*, void (i32, %"class.std::ios_base"*, i32)*, i32, i32 }
%"struct.std::ios_base::_Words" = type { i8*, i64 }
%"class.std::locale" = type { %"class.std::locale::_Impl"* }
%"class.std::locale::_Impl" = type { i32, %"class.std::locale::facet"**, i64, %"class.std::locale::facet"**, i8** }
%"class.std::locale::facet" = type <{ i32 (...)**, i32, [4 x i8] }>
%"class.std::basic_ostream" = type { i32 (...)**, %"class.std::basic_ios" }
%"class.std::basic_streambuf" = type { i32 (...)**, i8*, i8*, i8*, i8*, i8*, i8*, %"class.std::locale" }
%"class.std::ctype" = type <{ %"class.std::locale::facet.base", [4 x i8], %struct.__locale_struct*, i8, [7 x i8], i32*, i32*, i16*, i8, [256 x i8], [256 x i8], i8, [6 x i8] }>
%"class.std::locale::facet.base" = type <{ i32 (...)**, i32 }>
%struct.__locale_struct = type { [13 x %struct.__locale_data*], i16*, i32*, i32*, [13 x i8*] }
%struct.__locale_data = type opaque
%"class.std::num_put" = type { %"class.std::locale::facet.base", [4 x i8] }
%"class.std::num_get" = type { %"class.std::locale::facet.base", [4 x i8] }
%class.Graph = type { i32, %"class.std::vector" }
%"class.std::vector" = type { %"struct.std::_Vector_base" }
%"struct.std::_Vector_base" = type { %"struct.std::_Vector_base<std::vector<Edge, std::allocator<Edge> >, std::allocator<std::vector<Edge, std::allocator<Edge> > > >::_Vector_impl" }
%"struct.std::_Vector_base<std::vector<Edge, std::allocator<Edge> >, std::allocator<std::vector<Edge, std::allocator<Edge> > > >::_Vector_impl" = type { %"class.std::vector.0"*, %"class.std::vector.0"*, %"class.std::vector.0"* }
%"class.std::vector.0" = type { %"struct.std::_Vector_base.1" }
%"struct.std::_Vector_base.1" = type { %"struct.std::_Vector_base<Edge, std::allocator<Edge> >::_Vector_impl" }
%"struct.std::_Vector_base<Edge, std::allocator<Edge> >::_Vector_impl" = type { %class.Edge*, %class.Edge*, %class.Edge* }
%class.Edge = type { i32, i32, double }
%"class.std::allocator.2" = type { i8 }
%"class.std::vector.5" = type { %"struct.std::_Vector_base.6" }
%"struct.std::_Vector_base.6" = type { %"struct.std::_Vector_base<int, std::allocator<int> >::_Vector_impl" }
%"struct.std::_Vector_base<int, std::allocator<int> >::_Vector_impl" = type { i32*, i32*, i32* }
%"class.std::allocator.7" = type { i8 }
%"class.std::priority_queue" = type <{ %"class.std::vector.10", %"struct.std::greater", [7 x i8] }>
%"class.std::vector.10" = type { %"struct.std::_Vector_base.11" }
%"struct.std::_Vector_base.11" = type { %"struct.std::_Vector_base<std::tuple<double, int>, std::allocator<std::tuple<double, int> > >::_Vector_impl" }
%"struct.std::_Vector_base<std::tuple<double, int>, std::allocator<std::tuple<double, int> > >::_Vector_impl" = type { %"class.std::tuple"*, %"class.std::tuple"*, %"class.std::tuple"* }
%"class.std::tuple" = type { %"struct.std::_Tuple_impl" }
%"struct.std::_Tuple_impl" = type { %"struct.std::_Tuple_impl.15", %"struct.std::_Head_base.16" }
%"struct.std::_Tuple_impl.15" = type { %"struct.std::_Head_base" }
%"struct.std::_Head_base" = type { i32 }
%"struct.std::_Head_base.16" = type { double }
%"struct.std::greater" = type { i8 }
%"class.__gnu_cxx::__normal_iterator" = type { %class.Edge* }
%"class.__gnu_cxx::new_allocator.8" = type { i8 }
%"class.__gnu_cxx::__normal_iterator.46" = type { %"class.std::tuple"* }
%"class.std::allocator.12" = type { i8 }
%"class.std::vector.17" = type { %"struct.std::_Vector_base.18" }
%"struct.std::_Vector_base.18" = type { %"struct.std::_Vector_base<double, std::allocator<double> >::_Vector_impl" }
%"struct.std::_Vector_base<double, std::allocator<double> >::_Vector_impl" = type { double*, double*, double* }
%"class.std::allocator.19" = type { i8 }
%"class.__gnu_cxx::new_allocator.20" = type { i8 }
%"class.std::set" = type { %"class.std::_Rb_tree" }
%"class.std::_Rb_tree" = type { %"struct.std::_Rb_tree<int, int, std::_Identity<int>, std::less<int>, std::allocator<int> >::_Rb_tree_impl" }
%"struct.std::_Rb_tree<int, int, std::_Identity<int>, std::less<int>, std::allocator<int> >::_Rb_tree_impl" = type { %"struct.std::less", %"struct.std::_Rb_tree_node_base", i64 }
%"struct.std::less" = type { i8 }
%"struct.std::_Rb_tree_node_base" = type { i32, %"struct.std::_Rb_tree_node_base"*, %"struct.std::_Rb_tree_node_base"*, %"struct.std::_Rb_tree_node_base"* }
%"struct.std::_Rb_tree_const_iterator" = type { %"struct.std::_Rb_tree_node_base"* }
%"struct.std::pair" = type <{ %"struct.std::_Rb_tree_const_iterator", i8, [7 x i8] }>
%"struct.std::pair.49" = type <{ %"struct.std::_Rb_tree_iterator", i8, [7 x i8] }>
%"struct.std::_Rb_tree_iterator" = type { %"struct.std::_Rb_tree_node_base"* }
%"class.std::vector.26" = type { %"struct.std::_Vector_base.27" }
%"struct.std::_Vector_base.27" = type { %"struct.std::_Vector_base<std::vector<int, std::allocator<int> >, std::allocator<std::vector<int, std::allocator<int> > > >::_Vector_impl" }
%"struct.std::_Vector_base<std::vector<int, std::allocator<int> >, std::allocator<std::vector<int, std::allocator<int> > > >::_Vector_impl" = type { %"class.std::vector.5"*, %"class.std::vector.5"*, %"class.std::vector.5"* }
%"class.std::vector.31" = type { %"struct.std::_Bvector_base" }
%"struct.std::_Bvector_base" = type { %"struct.std::_Bvector_base<std::allocator<bool> >::_Bvector_impl" }
%"struct.std::_Bvector_base<std::allocator<bool> >::_Bvector_impl" = type { %"struct.std::_Bit_iterator", %"struct.std::_Bit_iterator", i64* }
%"struct.std::_Bit_iterator" = type { %"struct.std::_Bit_iterator_base.base", [4 x i8] }
%"struct.std::_Bit_iterator_base.base" = type <{ i64*, i32 }>
%"class.std::allocator.35" = type { i8 }
%"class.std::stack" = type { %"class.std::deque" }
%"class.std::deque" = type { %"class.std::_Deque_base" }
%"class.std::_Deque_base" = type { %"struct.std::_Deque_base<int, std::allocator<int> >::_Deque_impl" }
%"struct.std::_Deque_base<int, std::allocator<int> >::_Deque_impl" = type { i32**, i64, %"struct.std::_Deque_iterator", %"struct.std::_Deque_iterator" }
%"struct.std::_Deque_iterator" = type { i32*, i32*, i32*, i32** }
%"struct.std::_Bit_reference" = type { i64*, i64 }
%"class.std::allocator" = type { i8 }
%"class.__gnu_cxx::new_allocator.36" = type { i8 }
%"struct.std::_Bit_iterator_base" = type <{ i64*, i32, [4 x i8] }>
%"class.__gnu_cxx::new_allocator" = type { i8 }
%"class.std::allocator.32" = type { i8 }
%"class.__gnu_cxx::__normal_iterator.39" = type { i32* }
%"class.__gnu_cxx::__normal_iterator.38" = type { i32* }
%"class.std::allocator.28" = type { i8 }
%"struct.std::__false_type" = type { i8 }
%"class.std::tuple.40" = type { %"struct.std::_Tuple_impl.41" }
%"struct.std::_Tuple_impl.41" = type { %"struct.std::_Tuple_impl.42", %"struct.std::_Head_base.44" }
%"struct.std::_Tuple_impl.42" = type { %"struct.std::_Head_base.43" }
%"struct.std::_Head_base.43" = type { i32* }
%"struct.std::_Head_base.44" = type { double* }
%"struct.std::_Rb_tree_node" = type <{ %"struct.std::_Rb_tree_node_base", %"struct.__gnu_cxx::__aligned_membuf", [4 x i8] }>
%"struct.__gnu_cxx::__aligned_membuf" = type { [4 x i8] }
%"class.std::allocator.22" = type { i8 }
%"class.__gnu_cxx::new_allocator.23" = type { i8 }
%"class.std::move_iterator" = type { %"class.std::vector.0"* }
%"class.__gnu_cxx::new_allocator.3" = type { i8 }
%"class.std::move_iterator.45" = type { %class.Edge* }
%"class.__gnu_cxx::new_allocator.13" = type { i8 }
%"struct.__gnu_cxx::__ops::_Iter_comp_iter" = type { %"struct.std::greater" }
%"struct.__gnu_cxx::__ops::_Iter_comp_val" = type { %"struct.std::greater" }
%"class.std::move_iterator.47" = type { %"class.std::tuple"* }
%"class.__gnu_cxx::__normal_iterator.48" = type { %"class.std::tuple"* }
%"struct.std::_Rb_tree<int, int, std::_Identity<int>, std::less<int>, std::allocator<int> >::_Alloc_node" = type { %"class.std::_Rb_tree"* }
%"struct.std::_Identity" = type { i8 }
%"struct.std::pair.51" = type { %"struct.std::_Rb_tree_node_base"*, %"struct.std::_Rb_tree_node_base"* }
%"class.__gnu_cxx::new_allocator.29" = type { i8 }
%"class.__gnu_cxx::new_allocator.33" = type { i8 }
%"struct.std::iterator" = type { i8 }
%"class.std::allocator.52" = type { i8 }
%"class.__gnu_cxx::new_allocator.53" = type { i8 }
%"struct.std::integral_constant" = type { i8 }
%"struct.__gnu_cxx::__allocator_always_compares_equal" = type { i8 }
%"class.std::move_iterator.55" = type { %"class.std::vector.5"* }
%"class.std::move_iterator.56" = type { i32* }
%"struct.std::forward_iterator_tag" = type { i8 }
%"struct.std::random_access_iterator_tag" = type { i8 }

$_ZNSt6vectorIS_I4EdgeSaIS0_EESaIS2_EEixEm = comdat any

$_ZNK4Edge4fromEv = comdat any

$_ZNSt6vectorI4EdgeSaIS0_EE9push_backERKS0_ = comdat any

$_ZNSt6vectorI4EdgeSaIS0_EE9push_backEOS0_ = comdat any

$_ZN4EdgeC2Eiid = comdat any

$_ZNK5Graph4sizeEv = comdat any

$_ZNSaIiEC2Ev = comdat any

$_ZNSt6vectorIiSaIiEEC2EmRKiRKS0_ = comdat any

$_ZNSaIiED2Ev = comdat any

$_ZNSt6vectorISt5tupleIJdiEESaIS1_EEC2Ev = comdat any

$_ZNSt14priority_queueISt5tupleIJdiEESt6vectorIS1_SaIS1_EESt7greaterIS1_EEC2ERKS6_OS4_ = comdat any

$_ZNSt6vectorISt5tupleIJdiEESaIS1_EED2Ev = comdat any

$_ZNSt14priority_queueISt5tupleIJdiEESt6vectorIS1_SaIS1_EESt7greaterIS1_EE4pushEOS1_ = comdat any

$_ZNSt5tupleIJdiEEC2IiRKivEEOT_OT0_ = comdat any

$_ZNKSt14priority_queueISt5tupleIJdiEESt6vectorIS1_SaIS1_EESt7greaterIS1_EE5emptyEv = comdat any

$_ZSt3getILm0EJdiEERKNSt13tuple_elementIXT_ESt5tupleIJDpT0_EEE4typeERKS4_ = comdat any

$_ZNKSt14priority_queueISt5tupleIJdiEESt6vectorIS1_SaIS1_EESt7greaterIS1_EE3topEv = comdat any

$_ZSt3getILm1EJdiEERKNSt13tuple_elementIXT_ESt5tupleIJDpT0_EEE4typeERKS4_ = comdat any

$_ZNSt14priority_queueISt5tupleIJdiEESt6vectorIS1_SaIS1_EESt7greaterIS1_EE3popEv = comdat any

$_ZNSt6vectorIiSaIiEEixEm = comdat any

$_ZNK5Graph4edgeEi = comdat any

$_ZNKSt6vectorI4EdgeSaIS0_EE5beginEv = comdat any

$_ZNKSt6vectorI4EdgeSaIS0_EE3endEv = comdat any

$_ZN9__gnu_cxxneIPK4EdgeSt6vectorIS1_SaIS1_EEEEbRKNS_17__normal_iteratorIT_T0_EESC_ = comdat any

$_ZNK9__gnu_cxx17__normal_iteratorIPK4EdgeSt6vectorIS1_SaIS1_EEEdeEv = comdat any

$_ZNK4Edge6weightEv = comdat any

$_ZNK4Edge2toEv = comdat any

$_ZNSt5tupleIJdiEEC2IdivEEOT_OT0_ = comdat any

$_ZN9__gnu_cxx17__normal_iteratorIPK4EdgeSt6vectorIS1_SaIS1_EEEppEv = comdat any

$_ZNSt14priority_queueISt5tupleIJdiEESt6vectorIS1_SaIS1_EESt7greaterIS1_EED2Ev = comdat any

$_ZNSt6vectorIiSaIiEED2Ev = comdat any

$_ZNSaIdEC2Ev = comdat any

$_ZNSt6vectorIdSaIdEEC2EmRKdRKS0_ = comdat any

$_ZNSaIdED2Ev = comdat any

$_ZNSt6vectorIdSaIdEEixEm = comdat any

$_ZNSt6vectorIdSaIdEED2Ev = comdat any

$_ZNSt3setIiSt4lessIiESaIiEEC2ERKS3_ = comdat any

$_ZNKSt3setIiSt4lessIiESaIiEE5countERKi = comdat any

$_ZNKSt3setIiSt4lessIiESaIiEE4sizeEv = comdat any

$_ZNSt3setIiSt4lessIiESaIiEED2Ev = comdat any

$_ZNSt3setIiSt4lessIiESaIiEE6insertERKi = comdat any

$_ZNSt6vectorIS_IiSaIiEESaIS1_EEC2Ev = comdat any

$_ZNSaIbEC2Ev = comdat any

$_ZNSt6vectorIbSaIbEEC2EmRKbRKS0_ = comdat any

$_ZNSaIbED2Ev = comdat any

$_ZNSt5dequeIiSaIiEEC2Ev = comdat any

$_ZNSt5stackIiSt5dequeIiSaIiEEEC2EOS2_ = comdat any

$_ZNSt5dequeIiSaIiEED2Ev = comdat any

$_ZNSt6vectorIbSaIbEEixEm = comdat any

$_ZNKSt14_Bit_referencecvbEv = comdat any

$_ZNSt6vectorI4EdgeSaIS0_EEC2Ev = comdat any

$_ZNSaISt6vectorI4EdgeSaIS0_EEEC2Ev = comdat any

$_ZNSt6vectorIS_I4EdgeSaIS0_EESaIS2_EEC2EmRKS2_RKS3_ = comdat any

$_ZNSaISt6vectorI4EdgeSaIS0_EEED2Ev = comdat any

$_ZNSt6vectorI4EdgeSaIS0_EED2Ev = comdat any

$_ZNSt6vectorIbSaIbEEaSEOS1_ = comdat any

$_ZNSt6vectorIbSaIbEED2Ev = comdat any

$_ZNKSt5stackIiSt5dequeIiSaIiEEE5emptyEv = comdat any

$_ZNSt5stackIiSt5dequeIiSaIiEEE3topEv = comdat any

$_ZNSt5stackIiSt5dequeIiSaIiEEE3popEv = comdat any

$_ZNSt6vectorIS_IiSaIiEESaIS1_EE9push_backEOS1_ = comdat any

$_ZNSt6vectorIS_I4EdgeSaIS0_EESaIS2_EED2Ev = comdat any

$_ZNSt5stackIiSt5dequeIiSaIiEEED2Ev = comdat any

$_ZNSt6vectorIS_IiSaIiEESaIS1_EED2Ev = comdat any

$_ZNSt14_Bit_referenceaSEb = comdat any

$_ZNSt5stackIiSt5dequeIiSaIiEEE4pushERKi = comdat any

$_ZNSt6vectorIiSaIiEEC2Ev = comdat any

$_ZNSt6vectorIiSaIiEE9push_backERKi = comdat any

$_ZNKSt6vectorIS_I4EdgeSaIS0_EESaIS2_EEixEm = comdat any

$_ZNSt6vectorIiSaIiEE6insertIN9__gnu_cxx17__normal_iteratorIPiS1_EEvEES6_NS4_IPKiS1_EET_SA_ = comdat any

$_ZNSt6vectorIiSaIiEE3endEv = comdat any

$_ZN9__gnu_cxx17__normal_iteratorIPKiSt6vectorIiSaIiEEEC2IPiEERKNS0_IT_NS_11__enable_ifIXsr3std10__are_sameIS9_S8_EE7__valueES5_E6__typeEEE = comdat any

$_ZNSt6vectorIiSaIiEE5beginEv = comdat any

$_ZNSt5tupleIJdiEEC2IdRKivEEOT_OT0_ = comdat any

$_ZSt3tieIJdiEESt5tupleIJDpRT_EES3_ = comdat any

$_ZNSt5tupleIJRdRiEEaSIdiEERS2_OS_IJT_T0_EE = comdat any

$_ZSt3getILm0EJdiEERNSt13tuple_elementIXT_ESt5tupleIJDpT0_EEE4typeERS4_ = comdat any

$_ZSt10make_tupleIJRdRiEESt5tupleIJDpNSt17__decay_and_stripIT_E6__typeEEEDpOS4_ = comdat any

$_ZNSt5tupleIJdiEEaSEOS0_ = comdat any

$_ZSt3minIiERKT_S2_S2_ = comdat any

$_ZNSt3setIiSt4lessIiESaIiEEC2Ev = comdat any

$_ZN9__gnu_cxxneIPiSt6vectorIiSaIiEEEEbRKNS_17__normal_iteratorIT_T0_EESA_ = comdat any

$_ZNK9__gnu_cxx17__normal_iteratorIPiSt6vectorIiSaIiEEEdeEv = comdat any

$_ZN9__gnu_cxx17__normal_iteratorIPiSt6vectorIiSaIiEEEppEv = comdat any

$_ZNSt3setIiSt4lessIiESaIiEE6insertEOi = comdat any

$_ZN5GraphC2Ei = comdat any

$_ZNSt6vectorIiSaIiEEC2EmRKS0_ = comdat any

$_ZNKSt6vectorIS_IiSaIiEESaIS1_EE4sizeEv = comdat any

$_ZNSt6vectorIS_IiSaIiEESaIS1_EEixEm = comdat any

$_ZN5GraphD2Ev = comdat any

$_ZSt7forwardIiEOT_RNSt16remove_referenceIS0_E4typeE = comdat any

$_ZSt7forwardIRKiEOT_RNSt16remove_referenceIS2_E4typeE = comdat any

$_ZNSt11_Tuple_implILm0EJdiEEC2IiJRKiEvEEOT_DpOT0_ = comdat any

$_ZNSt11_Tuple_implILm1EJiEEC2ERKi = comdat any

$_ZNSt10_Head_baseILm0EdLb0EEC2IiEEOT_ = comdat any

$_ZNSt10_Head_baseILm1EiLb0EEC2ERKi = comdat any

$_ZSt12__get_helperILm0EdJiEERKT0_RKSt11_Tuple_implIXT_EJS0_DpT1_EE = comdat any

$_ZNSt11_Tuple_implILm0EJdiEE7_M_headERKS0_ = comdat any

$_ZNSt10_Head_baseILm0EdLb0EE7_M_headERKS0_ = comdat any

$_ZSt12__get_helperILm1EiJEERKT0_RKSt11_Tuple_implIXT_EJS0_DpT1_EE = comdat any

$_ZNSt11_Tuple_implILm1EJiEE7_M_headERKS0_ = comdat any

$_ZNSt10_Head_baseILm1EiLb0EE7_M_headERKS0_ = comdat any

$_ZSt7forwardIdEOT_RNSt16remove_referenceIS0_E4typeE = comdat any

$_ZNSt11_Tuple_implILm0EJdiEEC2IdJiEvEEOT_DpOT0_ = comdat any

$_ZNSt11_Tuple_implILm1EJiEEC2IiEEOT_ = comdat any

$_ZNSt10_Head_baseILm0EdLb0EEC2IdEEOT_ = comdat any

$_ZNSt10_Head_baseILm1EiLb0EEC2IiEEOT_ = comdat any

$_ZNSt8_Rb_treeIiiSt9_IdentityIiESt4lessIiESaIiEED2Ev = comdat any

$_ZNSt8_Rb_treeIiiSt9_IdentityIiESt4lessIiESaIiEE8_M_eraseEPSt13_Rb_tree_nodeIiE = comdat any

$_ZNSt8_Rb_treeIiiSt9_IdentityIiESt4lessIiESaIiEE8_M_beginEv = comdat any

$_ZNSt8_Rb_treeIiiSt9_IdentityIiESt4lessIiESaIiEE13_Rb_tree_implIS3_Lb1EED2Ev = comdat any

$__clang_call_terminate = comdat any

$_ZNSt8_Rb_treeIiiSt9_IdentityIiESt4lessIiESaIiEE8_S_rightEPSt18_Rb_tree_node_base = comdat any

$_ZNSt8_Rb_treeIiiSt9_IdentityIiESt4lessIiESaIiEE7_S_leftEPSt18_Rb_tree_node_base = comdat any

$_ZNSt8_Rb_treeIiiSt9_IdentityIiESt4lessIiESaIiEE12_M_drop_nodeEPSt13_Rb_tree_nodeIiE = comdat any

$_ZNSt8_Rb_treeIiiSt9_IdentityIiESt4lessIiESaIiEE15_M_destroy_nodeEPSt13_Rb_tree_nodeIiE = comdat any

$_ZNSt8_Rb_treeIiiSt9_IdentityIiESt4lessIiESaIiEE11_M_put_nodeEPSt13_Rb_tree_nodeIiE = comdat any

$_ZNSt16allocator_traitsISaISt13_Rb_tree_nodeIiEEE7destroyIiEEvRS2_PT_ = comdat any

$_ZNSt8_Rb_treeIiiSt9_IdentityIiESt4lessIiESaIiEE21_M_get_Node_allocatorEv = comdat any

$_ZNSt13_Rb_tree_nodeIiE9_M_valptrEv = comdat any

$_ZN9__gnu_cxx13new_allocatorISt13_Rb_tree_nodeIiEE7destroyIiEEvPT_ = comdat any

$_ZN9__gnu_cxx16__aligned_membufIiE6_M_ptrEv = comdat any

$_ZN9__gnu_cxx16__aligned_membufIiE7_M_addrEv = comdat any

$_ZNSt16allocator_traitsISaISt13_Rb_tree_nodeIiEEE10deallocateERS2_PS1_m = comdat any

$_ZN9__gnu_cxx13new_allocatorISt13_Rb_tree_nodeIiEE10deallocateEPS2_m = comdat any

$_ZN9__gnu_cxx13new_allocatorISt13_Rb_tree_nodeIiEED2Ev = comdat any

$_ZNSt11_Tuple_implILm0EJdiEEC2IdJRKiEvEEOT_DpOT0_ = comdat any

$_ZSt12__get_helperILm0EdJiEERT0_RSt11_Tuple_implIXT_EJS0_DpT1_EE = comdat any

$_ZNSt11_Tuple_implILm0EJdiEE7_M_headERS0_ = comdat any

$_ZNSt10_Head_baseILm0EdLb0EE7_M_headERS0_ = comdat any

$_ZSt7forwardIRdEOT_RNSt16remove_referenceIS1_E4typeE = comdat any

$_ZSt7forwardIRiEOT_RNSt16remove_referenceIS1_E4typeE = comdat any

$_ZNSt5tupleIJdiEEC2IRdRivEEOT_OT0_ = comdat any

$_ZNSt11_Tuple_implILm0EJdiEEC2IRdJRiEvEEOT_DpOT0_ = comdat any

$_ZNSt11_Tuple_implILm1EJiEEC2IRiEEOT_ = comdat any

$_ZNSt10_Head_baseILm0EdLb0EEC2IRdEEOT_ = comdat any

$_ZNSt10_Head_baseILm1EiLb0EEC2IRiEEOT_ = comdat any

$_ZNSt6vectorIS_I4EdgeSaIS0_EESaIS2_EEC2Ev = comdat any

$_ZNSt6vectorIS_I4EdgeSaIS0_EESaIS2_EE6resizeEm = comdat any

$_ZNSt12_Vector_baseISt6vectorI4EdgeSaIS1_EESaIS3_EEC2Ev = comdat any

$_ZNSt12_Vector_baseISt6vectorI4EdgeSaIS1_EESaIS3_EE12_Vector_implC2Ev = comdat any

$_ZN9__gnu_cxx13new_allocatorISt6vectorI4EdgeSaIS2_EEEC2Ev = comdat any

$_ZNKSt6vectorIS_I4EdgeSaIS0_EESaIS2_EE4sizeEv = comdat any

$_ZNSt6vectorIS_I4EdgeSaIS0_EESaIS2_EE17_M_default_appendEm = comdat any

$_ZNSt6vectorIS_I4EdgeSaIS0_EESaIS2_EE15_M_erase_at_endEPS2_ = comdat any

$_ZSt27__uninitialized_default_n_aIPSt6vectorI4EdgeSaIS1_EEmS3_ET_S5_T0_RSaIT1_E = comdat any

$_ZNSt12_Vector_baseISt6vectorI4EdgeSaIS1_EESaIS3_EE19_M_get_Tp_allocatorEv = comdat any

$_ZNKSt6vectorIS_I4EdgeSaIS0_EESaIS2_EE12_M_check_lenEmPKc = comdat any

$_ZNSt12_Vector_baseISt6vectorI4EdgeSaIS1_EESaIS3_EE11_M_allocateEm = comdat any

$_ZSt34__uninitialized_move_if_noexcept_aIPSt6vectorI4EdgeSaIS1_EES4_SaIS3_EET0_T_S7_S6_RT1_ = comdat any

$_ZSt8_DestroyIPSt6vectorI4EdgeSaIS1_EES3_EvT_S5_RSaIT0_E = comdat any

$_ZNSt12_Vector_baseISt6vectorI4EdgeSaIS1_EESaIS3_EE13_M_deallocateEPS3_m = comdat any

$_ZSt25__uninitialized_default_nIPSt6vectorI4EdgeSaIS1_EEmET_S5_T0_ = comdat any

$_ZNSt27__uninitialized_default_n_1ILb0EE18__uninit_default_nIPSt6vectorI4EdgeSaIS3_EEmEET_S7_T0_ = comdat any

$_ZSt10_ConstructISt6vectorI4EdgeSaIS1_EEJEEvPT_DpOT0_ = comdat any

$_ZSt11__addressofISt6vectorI4EdgeSaIS1_EEEPT_RS4_ = comdat any

$_ZSt8_DestroyIPSt6vectorI4EdgeSaIS1_EEEvT_S5_ = comdat any

$_ZNSt12_Destroy_auxILb0EE9__destroyIPSt6vectorI4EdgeSaIS3_EEEEvT_S7_ = comdat any

$_ZSt8_DestroyISt6vectorI4EdgeSaIS1_EEEvPT_ = comdat any

$_ZNKSt6vectorIS_I4EdgeSaIS0_EESaIS2_EE8max_sizeEv = comdat any

$_ZSt3maxImERKT_S2_S2_ = comdat any

$_ZNSt16allocator_traitsISaISt6vectorI4EdgeSaIS1_EEEE8max_sizeERKS4_ = comdat any

$_ZNKSt12_Vector_baseISt6vectorI4EdgeSaIS1_EESaIS3_EE19_M_get_Tp_allocatorEv = comdat any

$_ZNK9__gnu_cxx13new_allocatorISt6vectorI4EdgeSaIS2_EEE8max_sizeEv = comdat any

$_ZNSt16allocator_traitsISaISt6vectorI4EdgeSaIS1_EEEE8allocateERS4_m = comdat any

$_ZN9__gnu_cxx13new_allocatorISt6vectorI4EdgeSaIS2_EEE8allocateEmPKv = comdat any

$_ZSt22__uninitialized_copy_aISt13move_iteratorIPSt6vectorI4EdgeSaIS2_EEES5_S4_ET0_T_S8_S7_RSaIT1_E = comdat any

$_ZSt32__make_move_if_noexcept_iteratorIPSt6vectorI4EdgeSaIS1_EESt13move_iteratorIS4_EET0_T_ = comdat any

$_ZSt18uninitialized_copyISt13move_iteratorIPSt6vectorI4EdgeSaIS2_EEES5_ET0_T_S8_S7_ = comdat any

$_ZNSt20__uninitialized_copyILb0EE13__uninit_copyISt13move_iteratorIPSt6vectorI4EdgeSaIS4_EEES7_EET0_T_SA_S9_ = comdat any

$_ZStneIPSt6vectorI4EdgeSaIS1_EEEbRKSt13move_iteratorIT_ES9_ = comdat any

$_ZSt10_ConstructISt6vectorI4EdgeSaIS1_EEJS3_EEvPT_DpOT0_ = comdat any

$_ZNKSt13move_iteratorIPSt6vectorI4EdgeSaIS1_EEEdeEv = comdat any

$_ZNSt13move_iteratorIPSt6vectorI4EdgeSaIS1_EEEppEv = comdat any

$_ZSteqIPSt6vectorI4EdgeSaIS1_EEEbRKSt13move_iteratorIT_ES9_ = comdat any

$_ZNKSt13move_iteratorIPSt6vectorI4EdgeSaIS1_EEE4baseEv = comdat any

$_ZSt7forwardISt6vectorI4EdgeSaIS1_EEEOT_RNSt16remove_referenceIS4_E4typeE = comdat any

$_ZNSt6vectorI4EdgeSaIS0_EEC2EOS2_ = comdat any

$_ZSt4moveIRSt6vectorI4EdgeSaIS1_EEEONSt16remove_referenceIT_E4typeEOS6_ = comdat any

$_ZNSt12_Vector_baseI4EdgeSaIS0_EEC2EOS2_ = comdat any

$_ZSt4moveIRSaI4EdgeEEONSt16remove_referenceIT_E4typeEOS4_ = comdat any

$_ZNSt12_Vector_baseI4EdgeSaIS0_EE19_M_get_Tp_allocatorEv = comdat any

$_ZNSt12_Vector_baseI4EdgeSaIS0_EE12_Vector_implC2EOS1_ = comdat any

$_ZNSt12_Vector_baseI4EdgeSaIS0_EE12_Vector_impl12_M_swap_dataERS3_ = comdat any

$_ZN9__gnu_cxx13new_allocatorI4EdgeEC2ERKS2_ = comdat any

$_ZSt4swapIP4EdgeEvRT_S3_ = comdat any

$_ZSt4moveIRP4EdgeEONSt16remove_referenceIT_E4typeEOS4_ = comdat any

$_ZNSt13move_iteratorIPSt6vectorI4EdgeSaIS1_EEEC2ES4_ = comdat any

$_ZNSt16allocator_traitsISaISt6vectorI4EdgeSaIS1_EEEE10deallocateERS4_PS3_m = comdat any

$_ZN9__gnu_cxx13new_allocatorISt6vectorI4EdgeSaIS2_EEE10deallocateEPS4_m = comdat any

$_ZNSt12_Vector_baseISt6vectorI4EdgeSaIS1_EESaIS3_EED2Ev = comdat any

$_ZNSt12_Vector_baseISt6vectorI4EdgeSaIS1_EESaIS3_EE12_Vector_implD2Ev = comdat any

$_ZN9__gnu_cxx13new_allocatorISt6vectorI4EdgeSaIS2_EEED2Ev = comdat any

$_ZNSt16allocator_traitsISaI4EdgeEE9constructIS0_JRKS0_EEEvRS1_PT_DpOT0_ = comdat any

$_ZNSt6vectorI4EdgeSaIS0_EE19_M_emplace_back_auxIJRKS0_EEEvDpOT_ = comdat any

$_ZN9__gnu_cxx13new_allocatorI4EdgeE9constructIS1_JRKS1_EEEvPT_DpOT0_ = comdat any

$_ZSt7forwardIRK4EdgeEOT_RNSt16remove_referenceIS3_E4typeE = comdat any

$_ZNKSt6vectorI4EdgeSaIS0_EE12_M_check_lenEmPKc = comdat any

$_ZNSt12_Vector_baseI4EdgeSaIS0_EE11_M_allocateEm = comdat any

$_ZNKSt6vectorI4EdgeSaIS0_EE4sizeEv = comdat any

$_ZSt34__uninitialized_move_if_noexcept_aIP4EdgeS1_SaIS0_EET0_T_S4_S3_RT1_ = comdat any

$_ZNSt16allocator_traitsISaI4EdgeEE7destroyIS0_EEvRS1_PT_ = comdat any

$_ZSt8_DestroyIP4EdgeS0_EvT_S2_RSaIT0_E = comdat any

$_ZNSt12_Vector_baseI4EdgeSaIS0_EE13_M_deallocateEPS0_m = comdat any

$_ZNKSt6vectorI4EdgeSaIS0_EE8max_sizeEv = comdat any

$_ZNSt16allocator_traitsISaI4EdgeEE8max_sizeERKS1_ = comdat any

$_ZNKSt12_Vector_baseI4EdgeSaIS0_EE19_M_get_Tp_allocatorEv = comdat any

$_ZNK9__gnu_cxx13new_allocatorI4EdgeE8max_sizeEv = comdat any

$_ZNSt16allocator_traitsISaI4EdgeEE8allocateERS1_m = comdat any

$_ZN9__gnu_cxx13new_allocatorI4EdgeE8allocateEmPKv = comdat any

$_ZSt22__uninitialized_copy_aISt13move_iteratorIP4EdgeES2_S1_ET0_T_S5_S4_RSaIT1_E = comdat any

$_ZSt32__make_move_if_noexcept_iteratorIP4EdgeSt13move_iteratorIS1_EET0_T_ = comdat any

$_ZSt18uninitialized_copyISt13move_iteratorIP4EdgeES2_ET0_T_S5_S4_ = comdat any

$_ZNSt20__uninitialized_copyILb0EE13__uninit_copyISt13move_iteratorIP4EdgeES4_EET0_T_S7_S6_ = comdat any

$_ZStneIP4EdgeEbRKSt13move_iteratorIT_ES6_ = comdat any

$_ZSt10_ConstructI4EdgeJS0_EEvPT_DpOT0_ = comdat any

$_ZSt11__addressofI4EdgeEPT_RS1_ = comdat any

$_ZNKSt13move_iteratorIP4EdgeEdeEv = comdat any

$_ZNSt13move_iteratorIP4EdgeEppEv = comdat any

$_ZSt8_DestroyIP4EdgeEvT_S2_ = comdat any

$_ZSteqIP4EdgeEbRKSt13move_iteratorIT_ES6_ = comdat any

$_ZNKSt13move_iteratorIP4EdgeE4baseEv = comdat any

$_ZSt7forwardI4EdgeEOT_RNSt16remove_referenceIS1_E4typeE = comdat any

$_ZNSt12_Destroy_auxILb1EE9__destroyIP4EdgeEEvT_S4_ = comdat any

$_ZNSt13move_iteratorIP4EdgeEC2ES1_ = comdat any

$_ZN9__gnu_cxx13new_allocatorI4EdgeE7destroyIS1_EEvPT_ = comdat any

$_ZNSt16allocator_traitsISaI4EdgeEE10deallocateERS1_PS0_m = comdat any

$_ZN9__gnu_cxx13new_allocatorI4EdgeE10deallocateEPS1_m = comdat any

$_ZNSt6vectorI4EdgeSaIS0_EE12emplace_backIJS0_EEEvDpOT_ = comdat any

$_ZSt4moveIR4EdgeEONSt16remove_referenceIT_E4typeEOS3_ = comdat any

$_ZNSt16allocator_traitsISaI4EdgeEE9constructIS0_JS0_EEEvRS1_PT_DpOT0_ = comdat any

$_ZNSt6vectorI4EdgeSaIS0_EE19_M_emplace_back_auxIJS0_EEEvDpOT_ = comdat any

$_ZN9__gnu_cxx13new_allocatorI4EdgeE9constructIS1_JS1_EEEvPT_DpOT0_ = comdat any

$_ZN9__gnu_cxx13new_allocatorIiEC2Ev = comdat any

$_ZN9__gnu_cxx13new_allocatorIiED2Ev = comdat any

$_ZNSt12_Vector_baseIiSaIiEEC2EmRKS0_ = comdat any

$_ZNSt6vectorIiSaIiEE18_M_fill_initializeEmRKi = comdat any

$_ZNSt12_Vector_baseIiSaIiEED2Ev = comdat any

$_ZNSt12_Vector_baseIiSaIiEE12_Vector_implC2ERKS0_ = comdat any

$_ZNSt12_Vector_baseIiSaIiEE17_M_create_storageEm = comdat any

$_ZNSt12_Vector_baseIiSaIiEE12_Vector_implD2Ev = comdat any

$_ZNSaIiEC2ERKS_ = comdat any

$_ZN9__gnu_cxx13new_allocatorIiEC2ERKS1_ = comdat any

$_ZNSt12_Vector_baseIiSaIiEE11_M_allocateEm = comdat any

$_ZNSt16allocator_traitsISaIiEE8allocateERS0_m = comdat any

$_ZN9__gnu_cxx13new_allocatorIiE8allocateEmPKv = comdat any

$_ZNK9__gnu_cxx13new_allocatorIiE8max_sizeEv = comdat any

$_ZSt24__uninitialized_fill_n_aIPimiiET_S1_T0_RKT1_RSaIT2_E = comdat any

$_ZNSt12_Vector_baseIiSaIiEE19_M_get_Tp_allocatorEv = comdat any

$_ZSt20uninitialized_fill_nIPimiET_S1_T0_RKT1_ = comdat any

$_ZNSt22__uninitialized_fill_nILb1EE15__uninit_fill_nIPimiEET_S3_T0_RKT1_ = comdat any

$_ZSt6fill_nIPimiET_S1_T0_RKT1_ = comdat any

$_ZSt10__fill_n_aIPimiEN9__gnu_cxx11__enable_ifIXsr11__is_scalarIT1_EE7__valueET_E6__typeES4_T0_RKS3_ = comdat any

$_ZSt12__niter_baseIPiENSt11_Niter_baseIT_E13iterator_typeES2_ = comdat any

$_ZNSt10_Iter_baseIPiLb0EE7_S_baseES0_ = comdat any

$_ZNSt12_Vector_baseIiSaIiEE13_M_deallocateEPim = comdat any

$_ZNSt16allocator_traitsISaIiEE10deallocateERS0_Pim = comdat any

$_ZN9__gnu_cxx13new_allocatorIiE10deallocateEPim = comdat any

$_ZSt8_DestroyIPiiEvT_S1_RSaIT0_E = comdat any

$_ZSt8_DestroyIPiEvT_S1_ = comdat any

$_ZNSt12_Destroy_auxILb1EE9__destroyIPiEEvT_S3_ = comdat any

$_ZNSt12_Vector_baseISt5tupleIJdiEESaIS1_EEC2Ev = comdat any

$_ZNSt12_Vector_baseISt5tupleIJdiEESaIS1_EE12_Vector_implC2Ev = comdat any

$_ZNSaISt5tupleIJdiEEEC2Ev = comdat any

$_ZN9__gnu_cxx13new_allocatorISt5tupleIJdiEEEC2Ev = comdat any

$_ZSt8_DestroyIPSt5tupleIJdiEES1_EvT_S3_RSaIT0_E = comdat any

$_ZNSt12_Vector_baseISt5tupleIJdiEESaIS1_EE19_M_get_Tp_allocatorEv = comdat any

$_ZNSt12_Vector_baseISt5tupleIJdiEESaIS1_EED2Ev = comdat any

$_ZSt8_DestroyIPSt5tupleIJdiEEEvT_S3_ = comdat any

$_ZNSt12_Destroy_auxILb1EE9__destroyIPSt5tupleIJdiEEEEvT_S5_ = comdat any

$_ZNSt12_Vector_baseISt5tupleIJdiEESaIS1_EE13_M_deallocateEPS1_m = comdat any

$_ZNSt12_Vector_baseISt5tupleIJdiEESaIS1_EE12_Vector_implD2Ev = comdat any

$_ZNSt16allocator_traitsISaISt5tupleIJdiEEEE10deallocateERS2_PS1_m = comdat any

$_ZN9__gnu_cxx13new_allocatorISt5tupleIJdiEEE10deallocateEPS2_m = comdat any

$_ZNSaISt5tupleIJdiEEED2Ev = comdat any

$_ZN9__gnu_cxx13new_allocatorISt5tupleIJdiEEED2Ev = comdat any

$_ZSt4moveIRSt6vectorISt5tupleIJdiEESaIS2_EEEONSt16remove_referenceIT_E4typeEOS7_ = comdat any

$_ZNSt6vectorISt5tupleIJdiEESaIS1_EEC2EOS3_ = comdat any

$_ZSt9make_heapIN9__gnu_cxx17__normal_iteratorIPSt5tupleIJdiEESt6vectorIS3_SaIS3_EEEESt7greaterIS3_EEvT_SB_T0_ = comdat any

$_ZNSt6vectorISt5tupleIJdiEESaIS1_EE5beginEv = comdat any

$_ZNSt6vectorISt5tupleIJdiEESaIS1_EE3endEv = comdat any

$_ZNSt12_Vector_baseISt5tupleIJdiEESaIS1_EEC2EOS3_ = comdat any

$_ZSt4moveIRSaISt5tupleIJdiEEEEONSt16remove_referenceIT_E4typeEOS5_ = comdat any

$_ZNSt12_Vector_baseISt5tupleIJdiEESaIS1_EE12_Vector_implC2EOS2_ = comdat any

$_ZNSt12_Vector_baseISt5tupleIJdiEESaIS1_EE12_Vector_impl12_M_swap_dataERS4_ = comdat any

$_ZNSaISt5tupleIJdiEEEC2ERKS1_ = comdat any

$_ZN9__gnu_cxx13new_allocatorISt5tupleIJdiEEEC2ERKS3_ = comdat any

$_ZSt4swapIPSt5tupleIJdiEEEvRT_S4_ = comdat any

$_ZSt4moveIRPSt5tupleIJdiEEEONSt16remove_referenceIT_E4typeEOS5_ = comdat any

$_ZSt11__make_heapIN9__gnu_cxx17__normal_iteratorIPSt5tupleIJdiEESt6vectorIS3_SaIS3_EEEENS0_5__ops15_Iter_comp_iterISt7greaterIS3_EEEEvT_SE_T0_ = comdat any

$_ZN9__gnu_cxx5__ops16__iter_comp_iterISt7greaterISt5tupleIJdiEEEEENS0_15_Iter_comp_iterIT_EES7_ = comdat any

$_ZN9__gnu_cxxmiIPSt5tupleIJdiEESt6vectorIS2_SaIS2_EEEENS_17__normal_iteratorIT_T0_E15difference_typeERKSA_SD_ = comdat any

$_ZSt4moveIRSt5tupleIJdiEEEONSt16remove_referenceIT_E4typeEOS4_ = comdat any

$_ZNK9__gnu_cxx17__normal_iteratorIPSt5tupleIJdiEESt6vectorIS2_SaIS2_EEEplEl = comdat any

$_ZNK9__gnu_cxx17__normal_iteratorIPSt5tupleIJdiEESt6vectorIS2_SaIS2_EEEdeEv = comdat any

$_ZNSt5tupleIJdiEEC2EOS0_ = comdat any

$_ZSt13__adjust_heapIN9__gnu_cxx17__normal_iteratorIPSt5tupleIJdiEESt6vectorIS3_SaIS3_EEEElS3_NS0_5__ops15_Iter_comp_iterISt7greaterIS3_EEEEvT_T0_SF_T1_T2_ = comdat any

$_ZNK9__gnu_cxx17__normal_iteratorIPSt5tupleIJdiEESt6vectorIS2_SaIS2_EEE4baseEv = comdat any

$_ZN9__gnu_cxx17__normal_iteratorIPSt5tupleIJdiEESt6vectorIS2_SaIS2_EEEC2ERKS3_ = comdat any

$_ZNSt11_Tuple_implILm0EJdiEEC2EOS0_ = comdat any

$_ZSt4moveIRSt11_Tuple_implILm1EJiEEEONSt16remove_referenceIT_E4typeEOS4_ = comdat any

$_ZNSt11_Tuple_implILm0EJdiEE7_M_tailERS0_ = comdat any

$_ZNSt11_Tuple_implILm1EJiEEC2EOS0_ = comdat any

$_ZNSt11_Tuple_implILm1EJiEE7_M_headERS0_ = comdat any

$_ZNSt10_Head_baseILm1EiLb0EE7_M_headERS0_ = comdat any

$_ZN9__gnu_cxx5__ops15_Iter_comp_iterISt7greaterISt5tupleIJdiEEEEclINS_17__normal_iteratorIPS4_St6vectorIS4_SaIS4_EEEESD_EEbT_T0_ = comdat any

$_ZSt11__push_heapIN9__gnu_cxx17__normal_iteratorIPSt5tupleIJdiEESt6vectorIS3_SaIS3_EEEElS3_NS0_5__ops14_Iter_comp_valISt7greaterIS3_EEEEvT_T0_SF_T1_T2_ = comdat any

$_ZN9__gnu_cxx5__ops15__iter_comp_valISt7greaterISt5tupleIJdiEEEEENS0_14_Iter_comp_valIT_EENS0_15_Iter_comp_iterIS7_EE = comdat any

$_ZNKSt7greaterISt5tupleIJdiEEEclERKS1_S4_ = comdat any

$_ZStgtIJdiEJdiEEbRKSt5tupleIJDpT_EERKS0_IJDpT0_EE = comdat any

$_ZStltIJdiEJdiEEbRKSt5tupleIJDpT_EERKS0_IJDpT0_EE = comdat any

$_ZNSt15__tuple_compareISt5tupleIJdiEES1_Lm0ELm2EE6__lessERKS1_S4_ = comdat any

$_ZNSt15__tuple_compareISt5tupleIJdiEES1_Lm1ELm2EE6__lessERKS1_S4_ = comdat any

$_ZNSt15__tuple_compareISt5tupleIJdiEES1_Lm2ELm2EE6__lessERKS1_S4_ = comdat any

$_ZN9__gnu_cxx5__ops14_Iter_comp_valISt7greaterISt5tupleIJdiEEEEclINS_17__normal_iteratorIPS4_St6vectorIS4_SaIS4_EEEES4_EEbT_RT0_ = comdat any

$_ZN9__gnu_cxx5__ops14_Iter_comp_valISt7greaterISt5tupleIJdiEEEEC2ES5_ = comdat any

$_ZN9__gnu_cxx5__ops15_Iter_comp_iterISt7greaterISt5tupleIJdiEEEEC2ES5_ = comdat any

$_ZNSt6vectorISt5tupleIJdiEESaIS1_EE9push_backEOS1_ = comdat any

$_ZSt9push_heapIN9__gnu_cxx17__normal_iteratorIPSt5tupleIJdiEESt6vectorIS3_SaIS3_EEEESt7greaterIS3_EEvT_SB_T0_ = comdat any

$_ZNSt6vectorISt5tupleIJdiEESaIS1_EE12emplace_backIJS1_EEEvDpOT_ = comdat any

$_ZNSt16allocator_traitsISaISt5tupleIJdiEEEE9constructIS1_JS1_EEEvRS2_PT_DpOT0_ = comdat any

$_ZSt7forwardISt5tupleIJdiEEEOT_RNSt16remove_referenceIS2_E4typeE = comdat any

$_ZNSt6vectorISt5tupleIJdiEESaIS1_EE19_M_emplace_back_auxIJS1_EEEvDpOT_ = comdat any

$_ZN9__gnu_cxx13new_allocatorISt5tupleIJdiEEE9constructIS2_JS2_EEEvPT_DpOT0_ = comdat any

$_ZNKSt6vectorISt5tupleIJdiEESaIS1_EE12_M_check_lenEmPKc = comdat any

$_ZNSt12_Vector_baseISt5tupleIJdiEESaIS1_EE11_M_allocateEm = comdat any

$_ZNKSt6vectorISt5tupleIJdiEESaIS1_EE4sizeEv = comdat any

$_ZSt34__uninitialized_move_if_noexcept_aIPSt5tupleIJdiEES2_SaIS1_EET0_T_S5_S4_RT1_ = comdat any

$_ZNSt16allocator_traitsISaISt5tupleIJdiEEEE7destroyIS1_EEvRS2_PT_ = comdat any

$_ZNKSt6vectorISt5tupleIJdiEESaIS1_EE8max_sizeEv = comdat any

$_ZNSt16allocator_traitsISaISt5tupleIJdiEEEE8max_sizeERKS2_ = comdat any

$_ZNKSt12_Vector_baseISt5tupleIJdiEESaIS1_EE19_M_get_Tp_allocatorEv = comdat any

$_ZNK9__gnu_cxx13new_allocatorISt5tupleIJdiEEE8max_sizeEv = comdat any

$_ZNSt16allocator_traitsISaISt5tupleIJdiEEEE8allocateERS2_m = comdat any

$_ZN9__gnu_cxx13new_allocatorISt5tupleIJdiEEE8allocateEmPKv = comdat any

$_ZSt22__uninitialized_copy_aISt13move_iteratorIPSt5tupleIJdiEEES3_S2_ET0_T_S6_S5_RSaIT1_E = comdat any

$_ZSt32__make_move_if_noexcept_iteratorIPSt5tupleIJdiEESt13move_iteratorIS2_EET0_T_ = comdat any

$_ZSt18uninitialized_copyISt13move_iteratorIPSt5tupleIJdiEEES3_ET0_T_S6_S5_ = comdat any

$_ZNSt20__uninitialized_copyILb0EE13__uninit_copyISt13move_iteratorIPSt5tupleIJdiEEES5_EET0_T_S8_S7_ = comdat any

$_ZStneIPSt5tupleIJdiEEEbRKSt13move_iteratorIT_ES7_ = comdat any

$_ZSt10_ConstructISt5tupleIJdiEEJS1_EEvPT_DpOT0_ = comdat any

$_ZSt11__addressofISt5tupleIJdiEEEPT_RS2_ = comdat any

$_ZNKSt13move_iteratorIPSt5tupleIJdiEEEdeEv = comdat any

$_ZNSt13move_iteratorIPSt5tupleIJdiEEEppEv = comdat any

$_ZSteqIPSt5tupleIJdiEEEbRKSt13move_iteratorIT_ES7_ = comdat any

$_ZNKSt13move_iteratorIPSt5tupleIJdiEEE4baseEv = comdat any

$_ZNSt13move_iteratorIPSt5tupleIJdiEEEC2ES2_ = comdat any

$_ZN9__gnu_cxx13new_allocatorISt5tupleIJdiEEE7destroyIS2_EEvPT_ = comdat any

$_ZNK9__gnu_cxx17__normal_iteratorIPSt5tupleIJdiEESt6vectorIS2_SaIS2_EEEmiEl = comdat any

$_ZN9__gnu_cxx5__ops15__iter_comp_valISt7greaterISt5tupleIJdiEEEEENS0_14_Iter_comp_valIT_EES7_ = comdat any

$_ZNKSt6vectorISt5tupleIJdiEESaIS1_EE5emptyEv = comdat any

$_ZN9__gnu_cxxeqIPKSt5tupleIJdiEESt6vectorIS2_SaIS2_EEEEbRKNS_17__normal_iteratorIT_T0_EESD_ = comdat any

$_ZNKSt6vectorISt5tupleIJdiEESaIS1_EE5beginEv = comdat any

$_ZNKSt6vectorISt5tupleIJdiEESaIS1_EE3endEv = comdat any

$_ZNK9__gnu_cxx17__normal_iteratorIPKSt5tupleIJdiEESt6vectorIS2_SaIS2_EEE4baseEv = comdat any

$_ZN9__gnu_cxx17__normal_iteratorIPKSt5tupleIJdiEESt6vectorIS2_SaIS2_EEEC2ERKS4_ = comdat any

$_ZNKSt6vectorISt5tupleIJdiEESaIS1_EE5frontEv = comdat any

$_ZNK9__gnu_cxx17__normal_iteratorIPKSt5tupleIJdiEESt6vectorIS2_SaIS2_EEEdeEv = comdat any

$_ZSt8pop_heapIN9__gnu_cxx17__normal_iteratorIPSt5tupleIJdiEESt6vectorIS3_SaIS3_EEEESt7greaterIS3_EEvT_SB_T0_ = comdat any

$_ZNSt6vectorISt5tupleIJdiEESaIS1_EE8pop_backEv = comdat any

$_ZN9__gnu_cxx17__normal_iteratorIPSt5tupleIJdiEESt6vectorIS2_SaIS2_EEEmmEv = comdat any

$_ZSt10__pop_heapIN9__gnu_cxx17__normal_iteratorIPSt5tupleIJdiEESt6vectorIS3_SaIS3_EEEENS0_5__ops15_Iter_comp_iterISt7greaterIS3_EEEEvT_SE_SE_T0_ = comdat any

$_ZN9__gnu_cxx17__normal_iteratorIPK4EdgeSt6vectorIS1_SaIS1_EEEC2ERKS3_ = comdat any

$_ZNK9__gnu_cxx17__normal_iteratorIPK4EdgeSt6vectorIS1_SaIS1_EEE4baseEv = comdat any

$_ZN9__gnu_cxx13new_allocatorIdEC2Ev = comdat any

$_ZN9__gnu_cxx13new_allocatorIdED2Ev = comdat any

$_ZNSt12_Vector_baseIdSaIdEEC2EmRKS0_ = comdat any

$_ZNSt6vectorIdSaIdEE18_M_fill_initializeEmRKd = comdat any

$_ZNSt12_Vector_baseIdSaIdEED2Ev = comdat any

$_ZNSt12_Vector_baseIdSaIdEE12_Vector_implC2ERKS0_ = comdat any

$_ZNSt12_Vector_baseIdSaIdEE17_M_create_storageEm = comdat any

$_ZNSt12_Vector_baseIdSaIdEE12_Vector_implD2Ev = comdat any

$_ZNSaIdEC2ERKS_ = comdat any

$_ZN9__gnu_cxx13new_allocatorIdEC2ERKS1_ = comdat any

$_ZNSt12_Vector_baseIdSaIdEE11_M_allocateEm = comdat any

$_ZNSt16allocator_traitsISaIdEE8allocateERS0_m = comdat any

$_ZN9__gnu_cxx13new_allocatorIdE8allocateEmPKv = comdat any

$_ZNK9__gnu_cxx13new_allocatorIdE8max_sizeEv = comdat any

$_ZSt24__uninitialized_fill_n_aIPdmddET_S1_T0_RKT1_RSaIT2_E = comdat any

$_ZNSt12_Vector_baseIdSaIdEE19_M_get_Tp_allocatorEv = comdat any

$_ZSt20uninitialized_fill_nIPdmdET_S1_T0_RKT1_ = comdat any

$_ZNSt22__uninitialized_fill_nILb1EE15__uninit_fill_nIPdmdEET_S3_T0_RKT1_ = comdat any

$_ZSt6fill_nIPdmdET_S1_T0_RKT1_ = comdat any

$_ZSt10__fill_n_aIPdmdEN9__gnu_cxx11__enable_ifIXsr11__is_scalarIT1_EE7__valueET_E6__typeES4_T0_RKS3_ = comdat any

$_ZSt12__niter_baseIPdENSt11_Niter_baseIT_E13iterator_typeES2_ = comdat any

$_ZNSt10_Iter_baseIPdLb0EE7_S_baseES0_ = comdat any

$_ZNSt12_Vector_baseIdSaIdEE13_M_deallocateEPdm = comdat any

$_ZNSt16allocator_traitsISaIdEE10deallocateERS0_Pdm = comdat any

$_ZN9__gnu_cxx13new_allocatorIdE10deallocateEPdm = comdat any

$_ZSt8_DestroyIPddEvT_S1_RSaIT0_E = comdat any

$_ZSt8_DestroyIPdEvT_S1_ = comdat any

$_ZNSt12_Destroy_auxILb1EE9__destroyIPdEEvT_S3_ = comdat any

$_ZNSt8_Rb_treeIiiSt9_IdentityIiESt4lessIiESaIiEEC2ERKS5_ = comdat any

$_ZN9__gnu_cxx14__alloc_traitsISaISt13_Rb_tree_nodeIiEEE17_S_select_on_copyERKS3_ = comdat any

$_ZNKSt8_Rb_treeIiiSt9_IdentityIiESt4lessIiESaIiEE21_M_get_Node_allocatorEv = comdat any

$_ZNSt8_Rb_treeIiiSt9_IdentityIiESt4lessIiESaIiEE13_Rb_tree_implIS3_Lb1EEC2ERKS3_OSaISt13_Rb_tree_nodeIiEE = comdat any

$_ZNSaISt13_Rb_tree_nodeIiEED2Ev = comdat any

$_ZNKSt8_Rb_treeIiiSt9_IdentityIiESt4lessIiESaIiEE7_M_rootEv = comdat any

$_ZNSt8_Rb_treeIiiSt9_IdentityIiESt4lessIiESaIiEE7_M_copyEPKSt13_Rb_tree_nodeIiEPS7_ = comdat any

$_ZNKSt8_Rb_treeIiiSt9_IdentityIiESt4lessIiESaIiEE8_M_beginEv = comdat any

$_ZNSt8_Rb_treeIiiSt9_IdentityIiESt4lessIiESaIiEE6_M_endEv = comdat any

$_ZNSt8_Rb_treeIiiSt9_IdentityIiESt4lessIiESaIiEE7_M_rootEv = comdat any

$_ZNSt8_Rb_treeIiiSt9_IdentityIiESt4lessIiESaIiEE10_S_minimumEPSt18_Rb_tree_node_base = comdat any

$_ZNSt8_Rb_treeIiiSt9_IdentityIiESt4lessIiESaIiEE11_M_leftmostEv = comdat any

$_ZNSt8_Rb_treeIiiSt9_IdentityIiESt4lessIiESaIiEE10_S_maximumEPSt18_Rb_tree_node_base = comdat any

$_ZNSt8_Rb_treeIiiSt9_IdentityIiESt4lessIiESaIiEE12_M_rightmostEv = comdat any

$_ZNSt16allocator_traitsISaISt13_Rb_tree_nodeIiEEE37select_on_container_copy_constructionERKS2_ = comdat any

$_ZNSaISt13_Rb_tree_nodeIiEEC2ERKS1_ = comdat any

$_ZN9__gnu_cxx13new_allocatorISt13_Rb_tree_nodeIiEEC2ERKS3_ = comdat any

$_ZSt4moveIRSaISt13_Rb_tree_nodeIiEEEONSt16remove_referenceIT_E4typeEOS5_ = comdat any

$_ZNSt8_Rb_treeIiiSt9_IdentityIiESt4lessIiESaIiEE13_Rb_tree_implIS3_Lb1EE13_M_initializeEv = comdat any

$_ZNSt8_Rb_treeIiiSt9_IdentityIiESt4lessIiESaIiEE11_Alloc_nodeC2ERS5_ = comdat any

$_ZNSt8_Rb_treeIiiSt9_IdentityIiESt4lessIiESaIiEE7_M_copyINS5_11_Alloc_nodeEEEPSt13_Rb_tree_nodeIiEPKS9_SA_RT_ = comdat any

$_ZNSt8_Rb_treeIiiSt9_IdentityIiESt4lessIiESaIiEE13_M_clone_nodeINS5_11_Alloc_nodeEEEPSt13_Rb_tree_nodeIiEPKS9_RT_ = comdat any

$_ZNSt8_Rb_treeIiiSt9_IdentityIiESt4lessIiESaIiEE8_S_rightEPKSt18_Rb_tree_node_base = comdat any

$_ZNSt8_Rb_treeIiiSt9_IdentityIiESt4lessIiESaIiEE7_S_leftEPKSt18_Rb_tree_node_base = comdat any

$_ZNKSt8_Rb_treeIiiSt9_IdentityIiESt4lessIiESaIiEE11_Alloc_nodeclIRKiEEPSt13_Rb_tree_nodeIiEOT_ = comdat any

$_ZNKSt13_Rb_tree_nodeIiE9_M_valptrEv = comdat any

$_ZNSt8_Rb_treeIiiSt9_IdentityIiESt4lessIiESaIiEE14_M_create_nodeIJRKiEEEPSt13_Rb_tree_nodeIiEDpOT_ = comdat any

$_ZNSt8_Rb_treeIiiSt9_IdentityIiESt4lessIiESaIiEE11_M_get_nodeEv = comdat any

$_ZNSt8_Rb_treeIiiSt9_IdentityIiESt4lessIiESaIiEE17_M_construct_nodeIJRKiEEEvPSt13_Rb_tree_nodeIiEDpOT_ = comdat any

$_ZNSt16allocator_traitsISaISt13_Rb_tree_nodeIiEEE8allocateERS2_m = comdat any

$_ZN9__gnu_cxx13new_allocatorISt13_Rb_tree_nodeIiEE8allocateEmPKv = comdat any

$_ZNK9__gnu_cxx13new_allocatorISt13_Rb_tree_nodeIiEE8max_sizeEv = comdat any

$_ZNSt16allocator_traitsISaISt13_Rb_tree_nodeIiEEE9constructIiJRKiEEEvRS2_PT_DpOT0_ = comdat any

$_ZN9__gnu_cxx13new_allocatorISt13_Rb_tree_nodeIiEE9constructIiJRKiEEEvPT_DpOT0_ = comdat any

$_ZNK9__gnu_cxx16__aligned_membufIiE6_M_ptrEv = comdat any

$_ZNK9__gnu_cxx16__aligned_membufIiE7_M_addrEv = comdat any

$_ZNSt18_Rb_tree_node_base10_S_minimumEPS_ = comdat any

$_ZNSt18_Rb_tree_node_base10_S_maximumEPS_ = comdat any

$_ZNKSt8_Rb_treeIiiSt9_IdentityIiESt4lessIiESaIiEE4findERKi = comdat any

$_ZNKSt23_Rb_tree_const_iteratorIiEeqERKS0_ = comdat any

$_ZNKSt8_Rb_treeIiiSt9_IdentityIiESt4lessIiESaIiEE3endEv = comdat any

$_ZNKSt8_Rb_treeIiiSt9_IdentityIiESt4lessIiESaIiEE14_M_lower_boundEPKSt13_Rb_tree_nodeIiES9_RKi = comdat any

$_ZNKSt8_Rb_treeIiiSt9_IdentityIiESt4lessIiESaIiEE6_M_endEv = comdat any

$_ZNKSt4lessIiEclERKiS2_ = comdat any

$_ZNSt8_Rb_treeIiiSt9_IdentityIiESt4lessIiESaIiEE6_S_keyEPKSt18_Rb_tree_node_base = comdat any

$_ZNSt8_Rb_treeIiiSt9_IdentityIiESt4lessIiESaIiEE6_S_keyEPKSt13_Rb_tree_nodeIiE = comdat any

$_ZNSt23_Rb_tree_const_iteratorIiEC2EPKSt18_Rb_tree_node_base = comdat any

$_ZNKSt9_IdentityIiEclERKi = comdat any

$_ZNSt8_Rb_treeIiiSt9_IdentityIiESt4lessIiESaIiEE8_S_valueEPKSt13_Rb_tree_nodeIiE = comdat any

$_ZNSt8_Rb_treeIiiSt9_IdentityIiESt4lessIiESaIiEE8_S_valueEPKSt18_Rb_tree_node_base = comdat any

$_ZNKSt8_Rb_treeIiiSt9_IdentityIiESt4lessIiESaIiEE4sizeEv = comdat any

$_ZNSt8_Rb_treeIiiSt9_IdentityIiESt4lessIiESaIiEE16_M_insert_uniqueIRKiEESt4pairISt17_Rb_tree_iteratorIiEbEOT_ = comdat any

$_ZNSt4pairISt23_Rb_tree_const_iteratorIiEbEC2IRSt17_Rb_tree_iteratorIiERbvEEOT_OT0_ = comdat any

$_ZNSt8_Rb_treeIiiSt9_IdentityIiESt4lessIiESaIiEE24_M_get_insert_unique_posERKi = comdat any

$_ZNSt8_Rb_treeIiiSt9_IdentityIiESt4lessIiESaIiEE10_M_insert_IRKiNS5_11_Alloc_nodeEEESt17_Rb_tree_iteratorIiEPSt18_Rb_tree_node_baseSD_OT_RT0_ = comdat any

$_ZNSt4pairISt17_Rb_tree_iteratorIiEbEC2IS1_bvEEOT_OT0_ = comdat any

$_ZNSt17_Rb_tree_iteratorIiEC2EPSt18_Rb_tree_node_base = comdat any

$_ZNKSt17_Rb_tree_iteratorIiEeqERKS0_ = comdat any

$_ZNSt8_Rb_treeIiiSt9_IdentityIiESt4lessIiESaIiEE5beginEv = comdat any

$_ZNSt4pairIPSt18_Rb_tree_node_baseS1_EC2IRPSt13_Rb_tree_nodeIiES7_vEEOT_OT0_ = comdat any

$_ZNSt17_Rb_tree_iteratorIiEmmEv = comdat any

$_ZNSt4pairIPSt18_Rb_tree_node_baseS1_EC2IRS1_vEEOT_RKS1_ = comdat any

$_ZSt7forwardIRPSt13_Rb_tree_nodeIiEEOT_RNSt16remove_referenceIS4_E4typeE = comdat any

$_ZSt7forwardIRPSt18_Rb_tree_node_baseEOT_RNSt16remove_referenceIS3_E4typeE = comdat any

$_ZSt7forwardISt17_Rb_tree_iteratorIiEEOT_RNSt16remove_referenceIS2_E4typeE = comdat any

$_ZSt7forwardIbEOT_RNSt16remove_referenceIS0_E4typeE = comdat any

$_ZSt7forwardIRSt17_Rb_tree_iteratorIiEEOT_RNSt16remove_referenceIS3_E4typeE = comdat any

$_ZNSt23_Rb_tree_const_iteratorIiEC2ERKSt17_Rb_tree_iteratorIiE = comdat any

$_ZSt7forwardIRbEOT_RNSt16remove_referenceIS1_E4typeE = comdat any

$_ZNSt12_Vector_baseISt6vectorIiSaIiEESaIS2_EEC2Ev = comdat any

$_ZNSt12_Vector_baseISt6vectorIiSaIiEESaIS2_EE12_Vector_implC2Ev = comdat any

$_ZNSaISt6vectorIiSaIiEEEC2Ev = comdat any

$_ZN9__gnu_cxx13new_allocatorISt6vectorIiSaIiEEEC2Ev = comdat any

$_ZSt8_DestroyIPSt6vectorIiSaIiEES2_EvT_S4_RSaIT0_E = comdat any

$_ZNSt12_Vector_baseISt6vectorIiSaIiEESaIS2_EE19_M_get_Tp_allocatorEv = comdat any

$_ZNSt12_Vector_baseISt6vectorIiSaIiEESaIS2_EED2Ev = comdat any

$_ZSt8_DestroyIPSt6vectorIiSaIiEEEvT_S4_ = comdat any

$_ZNSt12_Destroy_auxILb0EE9__destroyIPSt6vectorIiSaIiEEEEvT_S6_ = comdat any

$_ZSt8_DestroyISt6vectorIiSaIiEEEvPT_ = comdat any

$_ZSt11__addressofISt6vectorIiSaIiEEEPT_RS3_ = comdat any

$_ZNSt12_Vector_baseISt6vectorIiSaIiEESaIS2_EE13_M_deallocateEPS2_m = comdat any

$_ZNSt12_Vector_baseISt6vectorIiSaIiEESaIS2_EE12_Vector_implD2Ev = comdat any

$_ZNSt16allocator_traitsISaISt6vectorIiSaIiEEEE10deallocateERS3_PS2_m = comdat any

$_ZN9__gnu_cxx13new_allocatorISt6vectorIiSaIiEEE10deallocateEPS3_m = comdat any

$_ZNSaISt6vectorIiSaIiEEED2Ev = comdat any

$_ZN9__gnu_cxx13new_allocatorISt6vectorIiSaIiEEED2Ev = comdat any

$_ZN9__gnu_cxx13new_allocatorIbEC2Ev = comdat any

$_ZN9__gnu_cxx13new_allocatorIbED2Ev = comdat any

$_ZNSt13_Bvector_baseISaIbEEC2ERKS0_ = comdat any

$_ZNSt6vectorIbSaIbEE13_M_initializeEm = comdat any

$_ZSt4fillIPmiEvT_S1_RKT0_ = comdat any

$_ZNKSt13_Bvector_baseISaIbEE13_Bvector_impl11_M_end_addrEv = comdat any

$_ZNSt13_Bvector_baseISaIbEED2Ev = comdat any

$_ZNSaImEC2IbEERKSaIT_E = comdat any

$_ZNSt13_Bvector_baseISaIbEE13_Bvector_implC2EOSaImE = comdat any

$_ZNSaImED2Ev = comdat any

$_ZN9__gnu_cxx13new_allocatorImEC2Ev = comdat any

$_ZSt4moveIRSaImEEONSt16remove_referenceIT_E4typeEOS3_ = comdat any

$_ZNSaImEC2ERKS_ = comdat any

$_ZNSt13_Bit_iteratorC2Ev = comdat any

$_ZN9__gnu_cxx13new_allocatorImEC2ERKS1_ = comdat any

$_ZNSt18_Bit_iterator_baseC2EPmj = comdat any

$_ZN9__gnu_cxx13new_allocatorImED2Ev = comdat any

$_ZNSt13_Bvector_baseISaIbEE11_M_allocateEm = comdat any

$_ZNSt13_Bvector_baseISaIbEE8_S_nwordEm = comdat any

$_ZSt11__addressofImEPT_RS0_ = comdat any

$_ZNSt13_Bit_iteratorC2EPmj = comdat any

$_ZNKSt13_Bit_iteratorplEl = comdat any

$_ZNSt16allocator_traitsISaImEE8allocateERS0_m = comdat any

$_ZN9__gnu_cxx13new_allocatorImE8allocateEmPKv = comdat any

$_ZNK9__gnu_cxx13new_allocatorImE8max_sizeEv = comdat any

$_ZNSt13_Bit_iteratorpLEl = comdat any

$_ZNSt18_Bit_iterator_base7_M_incrEl = comdat any

$_ZSt8__fill_aIPmiEN9__gnu_cxx11__enable_ifIXsr11__is_scalarIT0_EE7__valueEvE6__typeET_S6_RKS3_ = comdat any

$_ZSt12__niter_baseIPmENSt11_Niter_baseIT_E13iterator_typeES2_ = comdat any

$_ZNSt10_Iter_baseIPmLb0EE7_S_baseES0_ = comdat any

$_ZNSt13_Bvector_baseISaIbEE13_M_deallocateEv = comdat any

$_ZNSt13_Bvector_baseISaIbEE13_Bvector_implD2Ev = comdat any

$_ZNSt16allocator_traitsISaImEE10deallocateERS0_Pmm = comdat any

$_ZN9__gnu_cxx13new_allocatorImE10deallocateEPmm = comdat any

$_ZNSt11_Deque_baseIiSaIiEEC2Ev = comdat any

$_ZNSt11_Deque_baseIiSaIiEE11_Deque_implC2Ev = comdat any

$_ZNSt11_Deque_baseIiSaIiEE17_M_initialize_mapEm = comdat any

$_ZNSt11_Deque_baseIiSaIiEE11_Deque_implD2Ev = comdat any

$_ZNSt15_Deque_iteratorIiRiPiEC2Ev = comdat any

$_ZSt16__deque_buf_sizem = comdat any

$_ZNSt11_Deque_baseIiSaIiEE15_M_allocate_mapEm = comdat any

$_ZNSt11_Deque_baseIiSaIiEE15_M_create_nodesEPPiS3_ = comdat any

$_ZNSt11_Deque_baseIiSaIiEE17_M_deallocate_mapEPPim = comdat any

$_ZNSt15_Deque_iteratorIiRiPiE11_M_set_nodeEPS1_ = comdat any

$_ZNKSt11_Deque_baseIiSaIiEE20_M_get_map_allocatorEv = comdat any

$_ZNSt16allocator_traitsISaIPiEE8allocateERS1_m = comdat any

$_ZNSaIPiED2Ev = comdat any

$_ZNKSt11_Deque_baseIiSaIiEE19_M_get_Tp_allocatorEv = comdat any

$_ZNSaIPiEC2IiEERKSaIT_E = comdat any

$_ZN9__gnu_cxx13new_allocatorIPiEC2Ev = comdat any

$_ZN9__gnu_cxx13new_allocatorIPiE8allocateEmPKv = comdat any

$_ZNK9__gnu_cxx13new_allocatorIPiE8max_sizeEv = comdat any

$_ZN9__gnu_cxx13new_allocatorIPiED2Ev = comdat any

$_ZNSt11_Deque_baseIiSaIiEE16_M_allocate_nodeEv = comdat any

$_ZNSt11_Deque_baseIiSaIiEE16_M_destroy_nodesEPPiS3_ = comdat any

$_ZNSt11_Deque_baseIiSaIiEE18_M_deallocate_nodeEPi = comdat any

$_ZNSt16allocator_traitsISaIPiEE10deallocateERS1_PS0_m = comdat any

$_ZN9__gnu_cxx13new_allocatorIPiE10deallocateEPS1_m = comdat any

$_ZNSt15_Deque_iteratorIiRiPiE14_S_buffer_sizeEv = comdat any

$_ZNSt5dequeIiSaIiEE15_M_destroy_dataESt15_Deque_iteratorIiRiPiES5_RKS0_ = comdat any

$_ZNSt5dequeIiSaIiEE5beginEv = comdat any

$_ZNSt5dequeIiSaIiEE3endEv = comdat any

$_ZNSt11_Deque_baseIiSaIiEE19_M_get_Tp_allocatorEv = comdat any

$_ZNSt11_Deque_baseIiSaIiEED2Ev = comdat any

$_ZNSt15_Deque_iteratorIiRiPiEC2ERKS2_ = comdat any

$_ZSt4moveIRSt5dequeIiSaIiEEEONSt16remove_referenceIT_E4typeEOS5_ = comdat any

$_ZNSt5dequeIiSaIiEEC2EOS1_ = comdat any

$_ZNSt11_Deque_baseIiSaIiEEC2EOS1_ = comdat any

$_ZSt4moveIRSt11_Deque_baseIiSaIiEEEONSt16remove_referenceIT_E4typeEOS5_ = comdat any

$_ZNSt11_Deque_baseIiSaIiEEC2EOS1_St17integral_constantIbLb1EE = comdat any

$_ZSt4moveIRSaIiEEONSt16remove_referenceIT_E4typeEOS3_ = comdat any

$_ZNSt11_Deque_baseIiSaIiEE11_Deque_implC2EOS0_ = comdat any

$_ZNSt11_Deque_baseIiSaIiEE11_Deque_impl12_M_swap_dataERS2_ = comdat any

$_ZSt4swapISt15_Deque_iteratorIiRiPiEEvRT_S5_ = comdat any

$_ZSt4swapIPPiEvRT_S3_ = comdat any

$_ZSt4swapImEvRT_S1_ = comdat any

$_ZSt4moveIRSt15_Deque_iteratorIiRiPiEEONSt16remove_referenceIT_E4typeEOS6_ = comdat any

$_ZSt4moveIRPPiEONSt16remove_referenceIT_E4typeEOS4_ = comdat any

$_ZSt4moveIRmEONSt16remove_referenceIT_E4typeEOS2_ = comdat any

$_ZNKSt13_Bit_iteratordeEv = comdat any

$_ZNSt14_Bit_referenceC2EPmm = comdat any

$_ZNSt12_Vector_baseI4EdgeSaIS0_EEC2Ev = comdat any

$_ZNSt12_Vector_baseI4EdgeSaIS0_EE12_Vector_implC2Ev = comdat any

$_ZNSaI4EdgeEC2Ev = comdat any

$_ZN9__gnu_cxx13new_allocatorI4EdgeEC2Ev = comdat any

$_ZNSt12_Vector_baseI4EdgeSaIS0_EED2Ev = comdat any

$_ZNSt12_Vector_baseI4EdgeSaIS0_EE12_Vector_implD2Ev = comdat any

$_ZN9__gnu_cxx13new_allocatorI4EdgeED2Ev = comdat any

$_ZNSt12_Vector_baseISt6vectorI4EdgeSaIS1_EESaIS3_EEC2EmRKS4_ = comdat any

$_ZNSt6vectorIS_I4EdgeSaIS0_EESaIS2_EE18_M_fill_initializeEmRKS2_ = comdat any

$_ZNSt12_Vector_baseISt6vectorI4EdgeSaIS1_EESaIS3_EE12_Vector_implC2ERKS4_ = comdat any

$_ZNSt12_Vector_baseISt6vectorI4EdgeSaIS1_EESaIS3_EE17_M_create_storageEm = comdat any

$_ZNSaISt6vectorI4EdgeSaIS0_EEEC2ERKS3_ = comdat any

$_ZN9__gnu_cxx13new_allocatorISt6vectorI4EdgeSaIS2_EEEC2ERKS5_ = comdat any

$_ZSt24__uninitialized_fill_n_aIPSt6vectorI4EdgeSaIS1_EEmS3_S3_ET_S5_T0_RKT1_RSaIT2_E = comdat any

$_ZSt20uninitialized_fill_nIPSt6vectorI4EdgeSaIS1_EEmS3_ET_S5_T0_RKT1_ = comdat any

$_ZNSt22__uninitialized_fill_nILb0EE15__uninit_fill_nIPSt6vectorI4EdgeSaIS3_EEmS5_EET_S7_T0_RKT1_ = comdat any

$_ZSt10_ConstructISt6vectorI4EdgeSaIS1_EEJRKS3_EEvPT_DpOT0_ = comdat any

$_ZSt7forwardIRKSt6vectorI4EdgeSaIS1_EEEOT_RNSt16remove_referenceIS6_E4typeE = comdat any

$_ZNSt6vectorI4EdgeSaIS0_EEC2ERKS2_ = comdat any

$_ZN9__gnu_cxx14__alloc_traitsISaI4EdgeEE17_S_select_on_copyERKS2_ = comdat any

$_ZNSt12_Vector_baseI4EdgeSaIS0_EEC2EmRKS1_ = comdat any

$_ZNSaI4EdgeED2Ev = comdat any

$_ZSt22__uninitialized_copy_aIN9__gnu_cxx17__normal_iteratorIPK4EdgeSt6vectorIS2_SaIS2_EEEEPS2_S2_ET0_T_SB_SA_RSaIT1_E = comdat any

$_ZNSt16allocator_traitsISaI4EdgeEE37select_on_container_copy_constructionERKS1_ = comdat any

$_ZNSaI4EdgeEC2ERKS0_ = comdat any

$_ZNSt12_Vector_baseI4EdgeSaIS0_EE12_Vector_implC2ERKS1_ = comdat any

$_ZNSt12_Vector_baseI4EdgeSaIS0_EE17_M_create_storageEm = comdat any

$_ZSt18uninitialized_copyIN9__gnu_cxx17__normal_iteratorIPK4EdgeSt6vectorIS2_SaIS2_EEEEPS2_ET0_T_SB_SA_ = comdat any

$_ZNSt20__uninitialized_copyILb0EE13__uninit_copyIN9__gnu_cxx17__normal_iteratorIPK4EdgeSt6vectorIS4_SaIS4_EEEEPS4_EET0_T_SD_SC_ = comdat any

$_ZSt10_ConstructI4EdgeJRKS0_EEvPT_DpOT0_ = comdat any

$_ZSt15__alloc_on_moveISaImEEvRT_S2_ = comdat any

$_ZNSt13_Bvector_baseISaIbEE20_M_get_Bit_allocatorEv = comdat any

$_ZSt18__do_alloc_on_moveISaImEEvRT_S2_St17integral_constantIbLb1EE = comdat any

$_ZNKSt5dequeIiSaIiEE5emptyEv = comdat any

$_ZSteqIiRiPiEbRKSt15_Deque_iteratorIT_T0_T1_ES8_ = comdat any

$_ZNSt5dequeIiSaIiEE4backEv = comdat any

$_ZNSt15_Deque_iteratorIiRiPiEmmEv = comdat any

$_ZNKSt15_Deque_iteratorIiRiPiEdeEv = comdat any

$_ZNSt5dequeIiSaIiEE8pop_backEv = comdat any

$_ZNSt16allocator_traitsISaIiEE7destroyIiEEvRS0_PT_ = comdat any

$_ZNSt5dequeIiSaIiEE15_M_pop_back_auxEv = comdat any

$_ZN9__gnu_cxx13new_allocatorIiE7destroyIiEEvPT_ = comdat any

$_ZNSt6vectorIS_IiSaIiEESaIS1_EE12emplace_backIJS1_EEEvDpOT_ = comdat any

$_ZSt4moveIRSt6vectorIiSaIiEEEONSt16remove_referenceIT_E4typeEOS5_ = comdat any

$_ZNSt16allocator_traitsISaISt6vectorIiSaIiEEEE9constructIS2_JS2_EEEvRS3_PT_DpOT0_ = comdat any

$_ZSt7forwardISt6vectorIiSaIiEEEOT_RNSt16remove_referenceIS3_E4typeE = comdat any

$_ZNSt6vectorIS_IiSaIiEESaIS1_EE19_M_emplace_back_auxIJS1_EEEvDpOT_ = comdat any

$_ZN9__gnu_cxx13new_allocatorISt6vectorIiSaIiEEE9constructIS3_JS3_EEEvPT_DpOT0_ = comdat any

$_ZNSt6vectorIiSaIiEEC2EOS1_ = comdat any

$_ZNSt12_Vector_baseIiSaIiEEC2EOS1_ = comdat any

$_ZNSt12_Vector_baseIiSaIiEE12_Vector_implC2EOS0_ = comdat any

$_ZNSt12_Vector_baseIiSaIiEE12_Vector_impl12_M_swap_dataERS2_ = comdat any

$_ZSt4swapIPiEvRT_S2_ = comdat any

$_ZSt4moveIRPiEONSt16remove_referenceIT_E4typeEOS3_ = comdat any

$_ZNKSt6vectorIS_IiSaIiEESaIS1_EE12_M_check_lenEmPKc = comdat any

$_ZNSt12_Vector_baseISt6vectorIiSaIiEESaIS2_EE11_M_allocateEm = comdat any

$_ZSt34__uninitialized_move_if_noexcept_aIPSt6vectorIiSaIiEES3_SaIS2_EET0_T_S6_S5_RT1_ = comdat any

$_ZNSt16allocator_traitsISaISt6vectorIiSaIiEEEE7destroyIS2_EEvRS3_PT_ = comdat any

$_ZNKSt6vectorIS_IiSaIiEESaIS1_EE8max_sizeEv = comdat any

$_ZNSt16allocator_traitsISaISt6vectorIiSaIiEEEE8max_sizeERKS3_ = comdat any

$_ZNKSt12_Vector_baseISt6vectorIiSaIiEESaIS2_EE19_M_get_Tp_allocatorEv = comdat any

$_ZNK9__gnu_cxx13new_allocatorISt6vectorIiSaIiEEE8max_sizeEv = comdat any

$_ZNSt16allocator_traitsISaISt6vectorIiSaIiEEEE8allocateERS3_m = comdat any

$_ZN9__gnu_cxx13new_allocatorISt6vectorIiSaIiEEE8allocateEmPKv = comdat any

$_ZSt22__uninitialized_copy_aISt13move_iteratorIPSt6vectorIiSaIiEEES4_S3_ET0_T_S7_S6_RSaIT1_E = comdat any

$_ZSt32__make_move_if_noexcept_iteratorIPSt6vectorIiSaIiEESt13move_iteratorIS3_EET0_T_ = comdat any

$_ZSt18uninitialized_copyISt13move_iteratorIPSt6vectorIiSaIiEEES4_ET0_T_S7_S6_ = comdat any

$_ZNSt20__uninitialized_copyILb0EE13__uninit_copyISt13move_iteratorIPSt6vectorIiSaIiEEES6_EET0_T_S9_S8_ = comdat any

$_ZStneIPSt6vectorIiSaIiEEEbRKSt13move_iteratorIT_ES8_ = comdat any

$_ZSt10_ConstructISt6vectorIiSaIiEEJS2_EEvPT_DpOT0_ = comdat any

$_ZNKSt13move_iteratorIPSt6vectorIiSaIiEEEdeEv = comdat any

$_ZNSt13move_iteratorIPSt6vectorIiSaIiEEEppEv = comdat any

$_ZSteqIPSt6vectorIiSaIiEEEbRKSt13move_iteratorIT_ES8_ = comdat any

$_ZNKSt13move_iteratorIPSt6vectorIiSaIiEEE4baseEv = comdat any

$_ZNSt13move_iteratorIPSt6vectorIiSaIiEEEC2ES3_ = comdat any

$_ZN9__gnu_cxx13new_allocatorISt6vectorIiSaIiEEE7destroyIS3_EEvPT_ = comdat any

$_ZNSt5dequeIiSaIiEE9push_backERKi = comdat any

$_ZNSt16allocator_traitsISaIiEE9constructIiJRKiEEEvRS0_PT_DpOT0_ = comdat any

$_ZNSt5dequeIiSaIiEE16_M_push_back_auxIJRKiEEEvDpOT_ = comdat any

$_ZN9__gnu_cxx13new_allocatorIiE9constructIiJRKiEEEvPT_DpOT0_ = comdat any

$_ZNSt5dequeIiSaIiEE22_M_reserve_map_at_backEm = comdat any

$_ZNSt5dequeIiSaIiEE17_M_reallocate_mapEmb = comdat any

$_ZSt4copyIPPiS1_ET0_T_S3_S2_ = comdat any

$_ZSt13copy_backwardIPPiS1_ET0_T_S3_S2_ = comdat any

$_ZSt14__copy_move_a2ILb0EPPiS1_ET1_T0_S3_S2_ = comdat any

$_ZSt12__miter_baseIPPiENSt11_Miter_baseIT_E13iterator_typeES3_ = comdat any

$_ZSt13__copy_move_aILb0EPPiS1_ET1_T0_S3_S2_ = comdat any

$_ZSt12__niter_baseIPPiENSt11_Niter_baseIT_E13iterator_typeES3_ = comdat any

$_ZNSt11__copy_moveILb0ELb1ESt26random_access_iterator_tagE8__copy_mIPiEEPT_PKS4_S7_S5_ = comdat any

$_ZNSt10_Iter_baseIPPiLb0EE7_S_baseES1_ = comdat any

$_ZSt23__copy_move_backward_a2ILb0EPPiS1_ET1_T0_S3_S2_ = comdat any

$_ZSt22__copy_move_backward_aILb0EPPiS1_ET1_T0_S3_S2_ = comdat any

$_ZNSt20__copy_move_backwardILb0ELb1ESt26random_access_iterator_tagE13__copy_move_bIPiEEPT_PKS4_S7_S5_ = comdat any

$_ZNSt12_Vector_baseIiSaIiEEC2Ev = comdat any

$_ZNSt12_Vector_baseIiSaIiEE12_Vector_implC2Ev = comdat any

$_ZNSt6vectorIiSaIiEE19_M_emplace_back_auxIJRKiEEEvDpOT_ = comdat any

$_ZNKSt6vectorIiSaIiEE12_M_check_lenEmPKc = comdat any

$_ZNKSt6vectorIiSaIiEE4sizeEv = comdat any

$_ZSt34__uninitialized_move_if_noexcept_aIPiS0_SaIiEET0_T_S3_S2_RT1_ = comdat any

$_ZNKSt6vectorIiSaIiEE8max_sizeEv = comdat any

$_ZNSt16allocator_traitsISaIiEE8max_sizeERKS0_ = comdat any

$_ZNKSt12_Vector_baseIiSaIiEE19_M_get_Tp_allocatorEv = comdat any

$_ZSt22__uninitialized_copy_aISt13move_iteratorIPiES1_iET0_T_S4_S3_RSaIT1_E = comdat any

$_ZSt32__make_move_if_noexcept_iteratorIPiSt13move_iteratorIS0_EET0_T_ = comdat any

$_ZSt18uninitialized_copyISt13move_iteratorIPiES1_ET0_T_S4_S3_ = comdat any

$_ZNSt20__uninitialized_copyILb1EE13__uninit_copyISt13move_iteratorIPiES3_EET0_T_S6_S5_ = comdat any

$_ZSt4copyISt13move_iteratorIPiES1_ET0_T_S4_S3_ = comdat any

$_ZSt14__copy_move_a2ILb1EPiS0_ET1_T0_S2_S1_ = comdat any

$_ZSt12__miter_baseISt13move_iteratorIPiEENSt11_Miter_baseIT_E13iterator_typeES4_ = comdat any

$_ZSt13__copy_move_aILb1EPiS0_ET1_T0_S2_S1_ = comdat any

$_ZNSt11__copy_moveILb1ELb1ESt26random_access_iterator_tagE8__copy_mIiEEPT_PKS3_S6_S4_ = comdat any

$_ZNSt10_Iter_baseISt13move_iteratorIPiELb1EE7_S_baseES2_ = comdat any

$_ZNKSt13move_iteratorIPiE4baseEv = comdat any

$_ZNSt13move_iteratorIPiEC2ES0_ = comdat any

$_ZN9__gnu_cxx17__normal_iteratorIPiSt6vectorIiSaIiEEEC2ERKS1_ = comdat any

$_ZN9__gnu_cxxmiIPKiSt6vectorIiSaIiEEEENS_17__normal_iteratorIT_T0_E15difference_typeERKS9_SC_ = comdat any

$_ZNKSt6vectorIiSaIiEE6cbeginEv = comdat any

$_ZNSt6vectorIiSaIiEE18_M_insert_dispatchIN9__gnu_cxx17__normal_iteratorIPiS1_EEEEvS6_T_S7_St12__false_type = comdat any

$_ZNK9__gnu_cxx17__normal_iteratorIPiSt6vectorIiSaIiEEEplEl = comdat any

$_ZNK9__gnu_cxx17__normal_iteratorIPKiSt6vectorIiSaIiEEE4baseEv = comdat any

$_ZN9__gnu_cxx17__normal_iteratorIPKiSt6vectorIiSaIiEEEC2ERKS2_ = comdat any

$_ZNSt6vectorIiSaIiEE15_M_range_insertIN9__gnu_cxx17__normal_iteratorIPiS1_EEEEvS6_T_S7_St20forward_iterator_tag = comdat any

$_ZSt8distanceIN9__gnu_cxx17__normal_iteratorIPiSt6vectorIiSaIiEEEEENSt15iterator_traitsIT_E15difference_typeES8_S8_ = comdat any

$_ZN9__gnu_cxxmiIPiSt6vectorIiSaIiEEEENS_17__normal_iteratorIT_T0_E15difference_typeERKS8_SB_ = comdat any

$_ZSt22__uninitialized_move_aIPiS0_SaIiEET0_T_S3_S2_RT1_ = comdat any

$_ZSt13move_backwardIPiS0_ET0_T_S2_S1_ = comdat any

$_ZNK9__gnu_cxx17__normal_iteratorIPiSt6vectorIiSaIiEEE4baseEv = comdat any

$_ZSt4copyIN9__gnu_cxx17__normal_iteratorIPiSt6vectorIiSaIiEEEES6_ET0_T_S8_S7_ = comdat any

$_ZSt7advanceIN9__gnu_cxx17__normal_iteratorIPiSt6vectorIiSaIiEEEEmEvRT_T0_ = comdat any

$_ZSt22__uninitialized_copy_aIN9__gnu_cxx17__normal_iteratorIPiSt6vectorIiSaIiEEEES2_iET0_T_S8_S7_RSaIT1_E = comdat any

$_ZSt10__distanceIN9__gnu_cxx17__normal_iteratorIPiSt6vectorIiSaIiEEEEENSt15iterator_traitsIT_E15difference_typeES8_S8_St26random_access_iterator_tag = comdat any

$_ZSt19__iterator_categoryIN9__gnu_cxx17__normal_iteratorIPiSt6vectorIiSaIiEEEEENSt15iterator_traitsIT_E17iterator_categoryERKS8_ = comdat any

$_ZSt18make_move_iteratorIPiESt13move_iteratorIT_ES2_ = comdat any

$_ZSt23__copy_move_backward_a2ILb1EPiS0_ET1_T0_S2_S1_ = comdat any

$_ZSt12__miter_baseIPiENSt11_Miter_baseIT_E13iterator_typeES2_ = comdat any

$_ZSt22__copy_move_backward_aILb1EPiS0_ET1_T0_S2_S1_ = comdat any

$_ZNSt20__copy_move_backwardILb1ELb1ESt26random_access_iterator_tagE13__copy_move_bIiEEPT_PKS3_S6_S4_ = comdat any

$_ZSt14__copy_move_a2ILb0EN9__gnu_cxx17__normal_iteratorIPiSt6vectorIiSaIiEEEES6_ET1_T0_S8_S7_ = comdat any

$_ZSt12__miter_baseIN9__gnu_cxx17__normal_iteratorIPiSt6vectorIiSaIiEEEEENSt11_Miter_baseIT_E13iterator_typeES8_ = comdat any

$_ZSt13__copy_move_aILb0EPiS0_ET1_T0_S2_S1_ = comdat any

$_ZSt12__niter_baseIN9__gnu_cxx17__normal_iteratorIPiSt6vectorIiSaIiEEEEENSt11_Niter_baseIT_E13iterator_typeES8_ = comdat any

$_ZNSt11__copy_moveILb0ELb1ESt26random_access_iterator_tagE8__copy_mIiEEPT_PKS3_S6_S4_ = comdat any

$_ZNSt10_Iter_baseIN9__gnu_cxx17__normal_iteratorIPiSt6vectorIiSaIiEEEELb1EE7_S_baseES6_ = comdat any

$_ZNSt10_Iter_baseIN9__gnu_cxx17__normal_iteratorIPiSt6vectorIiSaIiEEEELb0EE7_S_baseES6_ = comdat any

$_ZSt9__advanceIN9__gnu_cxx17__normal_iteratorIPiSt6vectorIiSaIiEEEElEvRT_T0_St26random_access_iterator_tag = comdat any

$_ZN9__gnu_cxx17__normal_iteratorIPiSt6vectorIiSaIiEEEpLEl = comdat any

$_ZSt18uninitialized_copyIN9__gnu_cxx17__normal_iteratorIPiSt6vectorIiSaIiEEEES2_ET0_T_S8_S7_ = comdat any

$_ZNSt20__uninitialized_copyILb1EE13__uninit_copyIN9__gnu_cxx17__normal_iteratorIPiSt6vectorIiSaIiEEEES4_EET0_T_SA_S9_ = comdat any

$_ZSt4copyIN9__gnu_cxx17__normal_iteratorIPiSt6vectorIiSaIiEEEES2_ET0_T_S8_S7_ = comdat any

$_ZSt14__copy_move_a2ILb0EN9__gnu_cxx17__normal_iteratorIPiSt6vectorIiSaIiEEEES2_ET1_T0_S8_S7_ = comdat any

$_ZNSt5tupleIJRdRiEEC2ES0_S1_ = comdat any

$_ZNSt11_Tuple_implILm0EJRdRiEEC2ES0_S1_ = comdat any

$_ZNSt11_Tuple_implILm1EJRiEEC2ES0_ = comdat any

$_ZNSt10_Head_baseILm0ERdLb0EEC2ES0_ = comdat any

$_ZNSt10_Head_baseILm1ERiLb0EEC2ES0_ = comdat any

$_ZNSt11_Tuple_implILm0EJRdRiEEaSIdJiEEERS2_OS_ILm0EJT_DpT0_EE = comdat any

$_ZNSt11_Tuple_implILm0EJRdRiEE7_M_headERS2_ = comdat any

$_ZNSt11_Tuple_implILm0EJRdRiEE7_M_tailERS2_ = comdat any

$_ZNSt11_Tuple_implILm1EJRiEEaSIiEERS1_OS_ILm1EJT_EE = comdat any

$_ZNSt10_Head_baseILm0ERdLb0EE7_M_headERS1_ = comdat any

$_ZNSt11_Tuple_implILm1EJRiEE7_M_headERS1_ = comdat any

$_ZNSt10_Head_baseILm1ERiLb0EE7_M_headERS1_ = comdat any

$_ZNSt11_Tuple_implILm0EJdiEEaSEOS0_ = comdat any

$_ZNSt11_Tuple_implILm1EJiEEaSEOS0_ = comdat any

$_ZNSt8_Rb_treeIiiSt9_IdentityIiESt4lessIiESaIiEEC2Ev = comdat any

$_ZNSt8_Rb_treeIiiSt9_IdentityIiESt4lessIiESaIiEE13_Rb_tree_implIS3_Lb1EEC2Ev = comdat any

$_ZNSaISt13_Rb_tree_nodeIiEEC2Ev = comdat any

$_ZN9__gnu_cxx13new_allocatorISt13_Rb_tree_nodeIiEEC2Ev = comdat any

$_ZNSt8_Rb_treeIiiSt9_IdentityIiESt4lessIiESaIiEE16_M_insert_uniqueIiEESt4pairISt17_Rb_tree_iteratorIiEbEOT_ = comdat any

$_ZSt4moveIRiEONSt16remove_referenceIT_E4typeEOS2_ = comdat any

$_ZNKSt9_IdentityIiEclERi = comdat any

$_ZNSt8_Rb_treeIiiSt9_IdentityIiESt4lessIiESaIiEE10_M_insert_IiNS5_11_Alloc_nodeEEESt17_Rb_tree_iteratorIiEPSt18_Rb_tree_node_baseSB_OT_RT0_ = comdat any

$_ZNKSt8_Rb_treeIiiSt9_IdentityIiESt4lessIiESaIiEE11_Alloc_nodeclIiEEPSt13_Rb_tree_nodeIiEOT_ = comdat any

$_ZNSt8_Rb_treeIiiSt9_IdentityIiESt4lessIiESaIiEE14_M_create_nodeIJiEEEPSt13_Rb_tree_nodeIiEDpOT_ = comdat any

$_ZNSt8_Rb_treeIiiSt9_IdentityIiESt4lessIiESaIiEE17_M_construct_nodeIJiEEEvPSt13_Rb_tree_nodeIiEDpOT_ = comdat any

$_ZNSt16allocator_traitsISaISt13_Rb_tree_nodeIiEEE9constructIiJiEEEvRS2_PT_DpOT0_ = comdat any

$_ZN9__gnu_cxx13new_allocatorISt13_Rb_tree_nodeIiEE9constructIiJiEEEvPT_DpOT0_ = comdat any

$_ZNSt6vectorIiSaIiEE21_M_default_initializeEm = comdat any

$_ZSt27__uninitialized_default_n_aIPimiET_S1_T0_RSaIT1_E = comdat any

$_ZSt25__uninitialized_default_nIPimET_S1_T0_ = comdat any

$_ZNSt27__uninitialized_default_n_1ILb1EE18__uninit_default_nIPimEET_S3_T0_ = comdat any

@_ZL3INF = internal constant double 0x7FD5555555555555, align 8
@_ZStL8__ioinit = internal global %"class.std::ios_base::Init" zeroinitializer, align 1
@__dso_handle = external global i8
@_ZSt3cin = external global %"class.std::basic_istream", align 8
@_ZSt4cout = external global %"class.std::basic_ostream", align 8
@.str = private unnamed_addr constant [26 x i8] c"vector::_M_default_append\00", align 1
@.str.1 = private unnamed_addr constant [28 x i8] c"vector::_M_emplace_back_aux\00", align 1
@.str.2 = private unnamed_addr constant [24 x i8] c"vector::_M_range_insert\00", align 1
@llvm.global_ctors = appending global [1 x { i32, void ()*, i8* }] [{ i32, void ()*, i8* } { i32 65535, void ()* @_GLOBAL__sub_I_s341909802.cpp, i8* null }]
@x = common global i32 0
@y = common global i32 0
@x.3 = common global i32 0
@y.4 = common global i32 0
@x.5 = common global i32 0
@y.6 = common global i32 0
@x.7 = common global i32 0
@y.8 = common global i32 0
@x.9 = common global i32 0
@y.10 = common global i32 0
@x.11 = common global i32 0
@y.12 = common global i32 0
@x.13 = common global i32 0
@y.14 = common global i32 0
@x.15 = common global i32 0
@y.16 = common global i32 0
@x.17 = common global i32 0
@y.18 = common global i32 0
@x.19 = common global i32 0
@y.20 = common global i32 0
@x.21 = common global i32 0
@y.22 = common global i32 0
@x.23 = common global i32 0
@y.24 = common global i32 0
@x.25 = common global i32 0
@y.26 = common global i32 0
@x.27 = common global i32 0
@y.28 = common global i32 0
@x.29 = common global i32 0
@y.30 = common global i32 0
@x.31 = common global i32 0
@y.32 = common global i32 0
@x.33 = common global i32 0
@y.34 = common global i32 0
@x.35 = common global i32 0
@y.36 = common global i32 0
@x.37 = common global i32 0
@y.38 = common global i32 0
@x.39 = common global i32 0
@y.40 = common global i32 0
@x.41 = common global i32 0
@y.42 = common global i32 0
@x.43 = common global i32 0
@y.44 = common global i32 0
@x.45 = common global i32 0
@y.46 = common global i32 0
@x.47 = common global i32 0
@y.48 = common global i32 0
@x.49 = common global i32 0
@y.50 = common global i32 0
@x.51 = common global i32 0
@y.52 = common global i32 0
@x.53 = common global i32 0
@y.54 = common global i32 0
@x.55 = common global i32 0
@y.56 = common global i32 0
@x.57 = common global i32 0
@y.58 = common global i32 0
@x.59 = common global i32 0
@y.60 = common global i32 0
@x.61 = common global i32 0
@y.62 = common global i32 0
@x.63 = common global i32 0
@y.64 = common global i32 0
@x.65 = common global i32 0
@y.66 = common global i32 0
@x.67 = common global i32 0
@y.68 = common global i32 0
@x.69 = common global i32 0
@y.70 = common global i32 0
@x.71 = common global i32 0
@y.72 = common global i32 0
@x.73 = common global i32 0
@y.74 = common global i32 0
@x.75 = common global i32 0
@y.76 = common global i32 0
@x.77 = common global i32 0
@y.78 = common global i32 0
@x.79 = common global i32 0
@y.80 = common global i32 0
@x.81 = common global i32 0
@y.82 = common global i32 0
@x.83 = common global i32 0
@y.84 = common global i32 0
@x.85 = common global i32 0
@y.86 = common global i32 0
@x.87 = common global i32 0
@y.88 = common global i32 0
@x.89 = common global i32 0
@y.90 = common global i32 0
@x.91 = common global i32 0
@y.92 = common global i32 0
@x.93 = common global i32 0
@y.94 = common global i32 0
@x.95 = common global i32 0
@y.96 = common global i32 0
@x.97 = common global i32 0
@y.98 = common global i32 0
@x.99 = common global i32 0
@y.100 = common global i32 0
@x.101 = common global i32 0
@y.102 = common global i32 0
@x.103 = common global i32 0
@y.104 = common global i32 0
@x.105 = common global i32 0
@y.106 = common global i32 0
@x.107 = common global i32 0
@y.108 = common global i32 0
@x.109 = common global i32 0
@y.110 = common global i32 0
@x.111 = common global i32 0
@y.112 = common global i32 0
@x.113 = common global i32 0
@y.114 = common global i32 0
@x.115 = common global i32 0
@y.116 = common global i32 0
@x.117 = common global i32 0
@y.118 = common global i32 0
@x.119 = common global i32 0
@y.120 = common global i32 0
@x.121 = common global i32 0
@y.122 = common global i32 0
@x.123 = common global i32 0
@y.124 = common global i32 0
@x.125 = common global i32 0
@y.126 = common global i32 0
@x.127 = common global i32 0
@y.128 = common global i32 0
@x.129 = common global i32 0
@y.130 = common global i32 0
@x.131 = common global i32 0
@y.132 = common global i32 0
@x.133 = common global i32 0
@y.134 = common global i32 0
@x.135 = common global i32 0
@y.136 = common global i32 0
@x.137 = common global i32 0
@y.138 = common global i32 0
@x.139 = common global i32 0
@y.140 = common global i32 0
@x.141 = common global i32 0
@y.142 = common global i32 0
@x.143 = common global i32 0
@y.144 = common global i32 0
@x.145 = common global i32 0
@y.146 = common global i32 0
@x.147 = common global i32 0
@y.148 = common global i32 0
@x.149 = common global i32 0
@y.150 = common global i32 0
@x.151 = common global i32 0
@y.152 = common global i32 0
@x.153 = common global i32 0
@y.154 = common global i32 0
@x.155 = common global i32 0
@y.156 = common global i32 0
@x.157 = common global i32 0
@y.158 = common global i32 0
@x.159 = common global i32 0
@y.160 = common global i32 0
@x.161 = common global i32 0
@y.162 = common global i32 0
@x.163 = common global i32 0
@y.164 = common global i32 0
@x.165 = common global i32 0
@y.166 = common global i32 0
@x.167 = common global i32 0
@y.168 = common global i32 0
@x.169 = common global i32 0
@y.170 = common global i32 0
@x.171 = common global i32 0
@y.172 = common global i32 0
@x.173 = common global i32 0
@y.174 = common global i32 0
@x.175 = common global i32 0
@y.176 = common global i32 0
@x.177 = common global i32 0
@y.178 = common global i32 0
@x.179 = common global i32 0
@y.180 = common global i32 0
@x.181 = common global i32 0
@y.182 = common global i32 0
@x.183 = common global i32 0
@y.184 = common global i32 0
@x.185 = common global i32 0
@y.186 = common global i32 0
@x.187 = common global i32 0
@y.188 = common global i32 0
@x.189 = common global i32 0
@y.190 = common global i32 0
@x.191 = common global i32 0
@y.192 = common global i32 0
@x.193 = common global i32 0
@y.194 = common global i32 0
@x.195 = common global i32 0
@y.196 = common global i32 0
@x.197 = common global i32 0
@y.198 = common global i32 0
@x.199 = common global i32 0
@y.200 = common global i32 0
@x.201 = common global i32 0
@y.202 = common global i32 0
@x.203 = common global i32 0
@y.204 = common global i32 0
@x.205 = common global i32 0
@y.206 = common global i32 0
@x.207 = common global i32 0
@y.208 = common global i32 0
@x.209 = common global i32 0
@y.210 = common global i32 0
@x.211 = common global i32 0
@y.212 = common global i32 0
@x.213 = common global i32 0
@y.214 = common global i32 0
@x.215 = common global i32 0
@y.216 = common global i32 0
@x.217 = common global i32 0
@y.218 = common global i32 0
@x.219 = common global i32 0
@y.220 = common global i32 0
@x.221 = common global i32 0
@y.222 = common global i32 0
@x.223 = common global i32 0
@y.224 = common global i32 0
@x.225 = common global i32 0
@y.226 = common global i32 0
@x.227 = common global i32 0
@y.228 = common global i32 0
@x.229 = common global i32 0
@y.230 = common global i32 0
@x.231 = common global i32 0
@y.232 = common global i32 0
@x.233 = common global i32 0
@y.234 = common global i32 0
@x.235 = common global i32 0
@y.236 = common global i32 0
@x.237 = common global i32 0
@y.238 = common global i32 0
@x.239 = common global i32 0
@y.240 = common global i32 0
@x.241 = common global i32 0
@y.242 = common global i32 0
@x.243 = common global i32 0
@y.244 = common global i32 0
@x.245 = common global i32 0
@y.246 = common global i32 0
@x.247 = common global i32 0
@y.248 = common global i32 0
@x.249 = common global i32 0
@y.250 = common global i32 0
@x.251 = common global i32 0
@y.252 = common global i32 0
@x.253 = common global i32 0
@y.254 = common global i32 0
@x.255 = common global i32 0
@y.256 = common global i32 0
@x.257 = common global i32 0
@y.258 = common global i32 0
@x.259 = common global i32 0
@y.260 = common global i32 0
@x.261 = common global i32 0
@y.262 = common global i32 0
@x.263 = common global i32 0
@y.264 = common global i32 0
@x.265 = common global i32 0
@y.266 = common global i32 0
@x.267 = common global i32 0
@y.268 = common global i32 0
@x.269 = common global i32 0
@y.270 = common global i32 0
@x.271 = common global i32 0
@y.272 = common global i32 0
@x.273 = common global i32 0
@y.274 = common global i32 0
@x.275 = common global i32 0
@y.276 = common global i32 0
@x.277 = common global i32 0
@y.278 = common global i32 0
@x.279 = common global i32 0
@y.280 = common global i32 0
@x.281 = common global i32 0
@y.282 = common global i32 0
@x.283 = common global i32 0
@y.284 = common global i32 0
@x.285 = common global i32 0
@y.286 = common global i32 0
@x.287 = common global i32 0
@y.288 = common global i32 0
@x.289 = common global i32 0
@y.290 = common global i32 0
@x.291 = common global i32 0
@y.292 = common global i32 0
@x.293 = common global i32 0
@y.294 = common global i32 0
@x.295 = common global i32 0
@y.296 = common global i32 0
@x.297 = common global i32 0
@y.298 = common global i32 0
@x.299 = common global i32 0
@y.300 = common global i32 0
@x.301 = common global i32 0
@y.302 = common global i32 0
@x.303 = common global i32 0
@y.304 = common global i32 0
@x.305 = common global i32 0
@y.306 = common global i32 0
@x.307 = common global i32 0
@y.308 = common global i32 0
@x.309 = common global i32 0
@y.310 = common global i32 0
@x.311 = common global i32 0
@y.312 = common global i32 0
@x.313 = common global i32 0
@y.314 = common global i32 0
@x.315 = common global i32 0
@y.316 = common global i32 0
@x.317 = common global i32 0
@y.318 = common global i32 0
@x.319 = common global i32 0
@y.320 = common global i32 0
@x.321 = common global i32 0
@y.322 = common global i32 0
@x.323 = common global i32 0
@y.324 = common global i32 0
@x.325 = common global i32 0
@y.326 = common global i32 0
@x.327 = common global i32 0
@y.328 = common global i32 0
@x.329 = common global i32 0
@y.330 = common global i32 0
@x.331 = common global i32 0
@y.332 = common global i32 0
@x.333 = common global i32 0
@y.334 = common global i32 0
@x.335 = common global i32 0
@y.336 = common global i32 0
@x.337 = common global i32 0
@y.338 = common global i32 0
@x.339 = common global i32 0
@y.340 = common global i32 0
@x.341 = common global i32 0
@y.342 = common global i32 0
@x.343 = common global i32 0
@y.344 = common global i32 0
@x.345 = common global i32 0
@y.346 = common global i32 0
@x.347 = common global i32 0
@y.348 = common global i32 0
@x.349 = common global i32 0
@y.350 = common global i32 0
@x.351 = common global i32 0
@y.352 = common global i32 0
@x.353 = common global i32 0
@y.354 = common global i32 0
@x.355 = common global i32 0
@y.356 = common global i32 0
@x.357 = common global i32 0
@y.358 = common global i32 0
@x.359 = common global i32 0
@y.360 = common global i32 0
@x.361 = common global i32 0
@y.362 = common global i32 0
@x.363 = common global i32 0
@y.364 = common global i32 0
@x.365 = common global i32 0
@y.366 = common global i32 0
@x.367 = common global i32 0
@y.368 = common global i32 0
@x.369 = common global i32 0
@y.370 = common global i32 0
@x.371 = common global i32 0
@y.372 = common global i32 0
@x.373 = common global i32 0
@y.374 = common global i32 0
@x.375 = common global i32 0
@y.376 = common global i32 0
@x.377 = common global i32 0
@y.378 = common global i32 0
@x.379 = common global i32 0
@y.380 = common global i32 0
@x.381 = common global i32 0
@y.382 = common global i32 0
@x.383 = common global i32 0
@y.384 = common global i32 0
@x.385 = common global i32 0
@y.386 = common global i32 0
@x.387 = common global i32 0
@y.388 = common global i32 0
@x.389 = common global i32 0
@y.390 = common global i32 0
@x.391 = common global i32 0
@y.392 = common global i32 0
@x.393 = common global i32 0
@y.394 = common global i32 0
@x.395 = common global i32 0
@y.396 = common global i32 0
@x.397 = common global i32 0
@y.398 = common global i32 0
@x.399 = common global i32 0
@y.400 = common global i32 0
@x.401 = common global i32 0
@y.402 = common global i32 0
@x.403 = common global i32 0
@y.404 = common global i32 0
@x.405 = common global i32 0
@y.406 = common global i32 0
@x.407 = common global i32 0
@y.408 = common global i32 0
@x.409 = common global i32 0
@y.410 = common global i32 0
@x.411 = common global i32 0
@y.412 = common global i32 0
@x.413 = common global i32 0
@y.414 = common global i32 0
@x.415 = common global i32 0
@y.416 = common global i32 0
@x.417 = common global i32 0
@y.418 = common global i32 0
@x.419 = common global i32 0
@y.420 = common global i32 0
@x.421 = common global i32 0
@y.422 = common global i32 0
@x.423 = common global i32 0
@y.424 = common global i32 0
@x.425 = common global i32 0
@y.426 = common global i32 0
@x.427 = common global i32 0
@y.428 = common global i32 0
@x.429 = common global i32 0
@y.430 = common global i32 0
@x.431 = common global i32 0
@y.432 = common global i32 0
@x.433 = common global i32 0
@y.434 = common global i32 0
@x.435 = common global i32 0
@y.436 = common global i32 0
@x.437 = common global i32 0
@y.438 = common global i32 0
@x.439 = common global i32 0
@y.440 = common global i32 0
@x.441 = common global i32 0
@y.442 = common global i32 0
@x.443 = common global i32 0
@y.444 = common global i32 0
@x.445 = common global i32 0
@y.446 = common global i32 0
@x.447 = common global i32 0
@y.448 = common global i32 0
@x.449 = common global i32 0
@y.450 = common global i32 0
@x.451 = common global i32 0
@y.452 = common global i32 0
@x.453 = common global i32 0
@y.454 = common global i32 0
@x.455 = common global i32 0
@y.456 = common global i32 0
@x.457 = common global i32 0
@y.458 = common global i32 0
@x.459 = common global i32 0
@y.460 = common global i32 0
@x.461 = common global i32 0
@y.462 = common global i32 0
@x.463 = common global i32 0
@y.464 = common global i32 0
@x.465 = common global i32 0
@y.466 = common global i32 0
@x.467 = common global i32 0
@y.468 = common global i32 0
@x.469 = common global i32 0
@y.470 = common global i32 0
@x.471 = common global i32 0
@y.472 = common global i32 0
@x.473 = common global i32 0
@y.474 = common global i32 0
@x.475 = common global i32 0
@y.476 = common global i32 0
@x.477 = common global i32 0
@y.478 = common global i32 0
@x.479 = common global i32 0
@y.480 = common global i32 0
@x.481 = common global i32 0
@y.482 = common global i32 0
@x.483 = common global i32 0
@y.484 = common global i32 0
@x.485 = common global i32 0
@y.486 = common global i32 0
@x.487 = common global i32 0
@y.488 = common global i32 0
@x.489 = common global i32 0
@y.490 = common global i32 0
@x.491 = common global i32 0
@y.492 = common global i32 0
@x.493 = common global i32 0
@y.494 = common global i32 0
@x.495 = common global i32 0
@y.496 = common global i32 0
@x.497 = common global i32 0
@y.498 = common global i32 0
@x.499 = common global i32 0
@y.500 = common global i32 0
@x.501 = common global i32 0
@y.502 = common global i32 0
@x.503 = common global i32 0
@y.504 = common global i32 0
@x.505 = common global i32 0
@y.506 = common global i32 0
@x.507 = common global i32 0
@y.508 = common global i32 0
@x.509 = common global i32 0
@y.510 = common global i32 0
@x.511 = common global i32 0
@y.512 = common global i32 0
@x.513 = common global i32 0
@y.514 = common global i32 0
@x.515 = common global i32 0
@y.516 = common global i32 0
@x.517 = common global i32 0
@y.518 = common global i32 0
@x.519 = common global i32 0
@y.520 = common global i32 0
@x.521 = common global i32 0
@y.522 = common global i32 0
@x.523 = common global i32 0
@y.524 = common global i32 0
@x.525 = common global i32 0
@y.526 = common global i32 0
@x.527 = common global i32 0
@y.528 = common global i32 0
@x.529 = common global i32 0
@y.530 = common global i32 0
@x.531 = common global i32 0
@y.532 = common global i32 0
@x.533 = common global i32 0
@y.534 = common global i32 0
@x.535 = common global i32 0
@y.536 = common global i32 0
@x.537 = common global i32 0
@y.538 = common global i32 0
@x.539 = common global i32 0
@y.540 = common global i32 0
@x.541 = common global i32 0
@y.542 = common global i32 0
@x.543 = common global i32 0
@y.544 = common global i32 0
@x.545 = common global i32 0
@y.546 = common global i32 0
@x.547 = common global i32 0
@y.548 = common global i32 0
@x.549 = common global i32 0
@y.550 = common global i32 0
@x.551 = common global i32 0
@y.552 = common global i32 0
@x.553 = common global i32 0
@y.554 = common global i32 0
@x.555 = common global i32 0
@y.556 = common global i32 0
@x.557 = common global i32 0
@y.558 = common global i32 0
@x.559 = common global i32 0
@y.560 = common global i32 0
@x.561 = common global i32 0
@y.562 = common global i32 0
@x.563 = common global i32 0
@y.564 = common global i32 0
@x.565 = common global i32 0
@y.566 = common global i32 0
@x.567 = common global i32 0
@y.568 = common global i32 0
@x.569 = common global i32 0
@y.570 = common global i32 0
@x.571 = common global i32 0
@y.572 = common global i32 0
@x.573 = common global i32 0
@y.574 = common global i32 0
@x.575 = common global i32 0
@y.576 = common global i32 0
@x.577 = common global i32 0
@y.578 = common global i32 0
@x.579 = common global i32 0
@y.580 = common global i32 0
@x.581 = common global i32 0
@y.582 = common global i32 0
@x.583 = common global i32 0
@y.584 = common global i32 0
@x.585 = common global i32 0
@y.586 = common global i32 0
@x.587 = common global i32 0
@y.588 = common global i32 0
@x.589 = common global i32 0
@y.590 = common global i32 0
@x.591 = common global i32 0
@y.592 = common global i32 0
@x.593 = common global i32 0
@y.594 = common global i32 0
@x.595 = common global i32 0
@y.596 = common global i32 0
@x.597 = common global i32 0
@y.598 = common global i32 0
@x.599 = common global i32 0
@y.600 = common global i32 0
@x.601 = common global i32 0
@y.602 = common global i32 0
@x.603 = common global i32 0
@y.604 = common global i32 0
@x.605 = common global i32 0
@y.606 = common global i32 0
@x.607 = common global i32 0
@y.608 = common global i32 0
@x.609 = common global i32 0
@y.610 = common global i32 0
@x.611 = common global i32 0
@y.612 = common global i32 0
@x.613 = common global i32 0
@y.614 = common global i32 0
@x.615 = common global i32 0
@y.616 = common global i32 0
@x.617 = common global i32 0
@y.618 = common global i32 0
@x.619 = common global i32 0
@y.620 = common global i32 0
@x.621 = common global i32 0
@y.622 = common global i32 0
@x.623 = common global i32 0
@y.624 = common global i32 0
@x.625 = common global i32 0
@y.626 = common global i32 0
@x.627 = common global i32 0
@y.628 = common global i32 0
@x.629 = common global i32 0
@y.630 = common global i32 0
@x.631 = common global i32 0
@y.632 = common global i32 0
@x.633 = common global i32 0
@y.634 = common global i32 0
@x.635 = common global i32 0
@y.636 = common global i32 0
@x.637 = common global i32 0
@y.638 = common global i32 0
@x.639 = common global i32 0
@y.640 = common global i32 0
@x.641 = common global i32 0
@y.642 = common global i32 0
@x.643 = common global i32 0
@y.644 = common global i32 0
@x.645 = common global i32 0
@y.646 = common global i32 0
@x.647 = common global i32 0
@y.648 = common global i32 0
@x.649 = common global i32 0
@y.650 = common global i32 0
@x.651 = common global i32 0
@y.652 = common global i32 0
@x.653 = common global i32 0
@y.654 = common global i32 0
@x.655 = common global i32 0
@y.656 = common global i32 0
@x.657 = common global i32 0
@y.658 = common global i32 0
@x.659 = common global i32 0
@y.660 = common global i32 0
@x.661 = common global i32 0
@y.662 = common global i32 0
@x.663 = common global i32 0
@y.664 = common global i32 0
@x.665 = common global i32 0
@y.666 = common global i32 0
@x.667 = common global i32 0
@y.668 = common global i32 0
@x.669 = common global i32 0
@y.670 = common global i32 0
@x.671 = common global i32 0
@y.672 = common global i32 0
@x.673 = common global i32 0
@y.674 = common global i32 0
@x.675 = common global i32 0
@y.676 = common global i32 0
@x.677 = common global i32 0
@y.678 = common global i32 0
@x.679 = common global i32 0
@y.680 = common global i32 0
@x.681 = common global i32 0
@y.682 = common global i32 0
@x.683 = common global i32 0
@y.684 = common global i32 0
@x.685 = common global i32 0
@y.686 = common global i32 0
@x.687 = common global i32 0
@y.688 = common global i32 0
@x.689 = common global i32 0
@y.690 = common global i32 0
@x.691 = common global i32 0
@y.692 = common global i32 0
@x.693 = common global i32 0
@y.694 = common global i32 0
@x.695 = common global i32 0
@y.696 = common global i32 0
@x.697 = common global i32 0
@y.698 = common global i32 0
@x.699 = common global i32 0
@y.700 = common global i32 0
@x.701 = common global i32 0
@y.702 = common global i32 0
@x.703 = common global i32 0
@y.704 = common global i32 0
@x.705 = common global i32 0
@y.706 = common global i32 0
@x.707 = common global i32 0
@y.708 = common global i32 0
@x.709 = common global i32 0
@y.710 = common global i32 0
@x.711 = common global i32 0
@y.712 = common global i32 0
@x.713 = common global i32 0
@y.714 = common global i32 0
@x.715 = common global i32 0
@y.716 = common global i32 0
@x.717 = common global i32 0
@y.718 = common global i32 0
@x.719 = common global i32 0
@y.720 = common global i32 0
@x.721 = common global i32 0
@y.722 = common global i32 0
@x.723 = common global i32 0
@y.724 = common global i32 0
@x.725 = common global i32 0
@y.726 = common global i32 0
@x.727 = common global i32 0
@y.728 = common global i32 0
@x.729 = common global i32 0
@y.730 = common global i32 0
@x.731 = common global i32 0
@y.732 = common global i32 0
@x.733 = common global i32 0
@y.734 = common global i32 0
@x.735 = common global i32 0
@y.736 = common global i32 0
@x.737 = common global i32 0
@y.738 = common global i32 0
@x.739 = common global i32 0
@y.740 = common global i32 0
@x.741 = common global i32 0
@y.742 = common global i32 0
@x.743 = common global i32 0
@y.744 = common global i32 0
@x.745 = common global i32 0
@y.746 = common global i32 0
@x.747 = common global i32 0
@y.748 = common global i32 0
@x.749 = common global i32 0
@y.750 = common global i32 0
@x.751 = common global i32 0
@y.752 = common global i32 0
@x.753 = common global i32 0
@y.754 = common global i32 0
@x.755 = common global i32 0
@y.756 = common global i32 0
@x.757 = common global i32 0
@y.758 = common global i32 0
@x.759 = common global i32 0
@y.760 = common global i32 0
@x.761 = common global i32 0
@y.762 = common global i32 0
@x.763 = common global i32 0
@y.764 = common global i32 0
@x.765 = common global i32 0
@y.766 = common global i32 0
@x.767 = common global i32 0
@y.768 = common global i32 0
@x.769 = common global i32 0
@y.770 = common global i32 0
@x.771 = common global i32 0
@y.772 = common global i32 0
@x.773 = common global i32 0
@y.774 = common global i32 0
@x.775 = common global i32 0
@y.776 = common global i32 0
@x.777 = common global i32 0
@y.778 = common global i32 0
@x.779 = common global i32 0
@y.780 = common global i32 0
@x.781 = common global i32 0
@y.782 = common global i32 0
@x.783 = common global i32 0
@y.784 = common global i32 0
@x.785 = common global i32 0
@y.786 = common global i32 0
@x.787 = common global i32 0
@y.788 = common global i32 0
@x.789 = common global i32 0
@y.790 = common global i32 0
@x.791 = common global i32 0
@y.792 = common global i32 0
@x.793 = common global i32 0
@y.794 = common global i32 0
@x.795 = common global i32 0
@y.796 = common global i32 0
@x.797 = common global i32 0
@y.798 = common global i32 0
@x.799 = common global i32 0
@y.800 = common global i32 0
@x.801 = common global i32 0
@y.802 = common global i32 0
@x.803 = common global i32 0
@y.804 = common global i32 0
@x.805 = common global i32 0
@y.806 = common global i32 0
@x.807 = common global i32 0
@y.808 = common global i32 0
@x.809 = common global i32 0
@y.810 = common global i32 0
@x.811 = common global i32 0
@y.812 = common global i32 0
@x.813 = common global i32 0
@y.814 = common global i32 0
@x.815 = common global i32 0
@y.816 = common global i32 0
@x.817 = common global i32 0
@y.818 = common global i32 0
@x.819 = common global i32 0
@y.820 = common global i32 0
@x.821 = common global i32 0
@y.822 = common global i32 0
@x.823 = common global i32 0
@y.824 = common global i32 0
@x.825 = common global i32 0
@y.826 = common global i32 0
@x.827 = common global i32 0
@y.828 = common global i32 0
@x.829 = common global i32 0
@y.830 = common global i32 0
@x.831 = common global i32 0
@y.832 = common global i32 0
@x.833 = common global i32 0
@y.834 = common global i32 0
@x.835 = common global i32 0
@y.836 = common global i32 0
@x.837 = common global i32 0
@y.838 = common global i32 0
@x.839 = common global i32 0
@y.840 = common global i32 0
@x.841 = common global i32 0
@y.842 = common global i32 0
@x.843 = common global i32 0
@y.844 = common global i32 0
@x.845 = common global i32 0
@y.846 = common global i32 0
@x.847 = common global i32 0
@y.848 = common global i32 0
@x.849 = common global i32 0
@y.850 = common global i32 0
@x.851 = common global i32 0
@y.852 = common global i32 0
@x.853 = common global i32 0
@y.854 = common global i32 0
@x.855 = common global i32 0
@y.856 = common global i32 0
@x.857 = common global i32 0
@y.858 = common global i32 0
@x.859 = common global i32 0
@y.860 = common global i32 0
@x.861 = common global i32 0
@y.862 = common global i32 0
@x.863 = common global i32 0
@y.864 = common global i32 0
@x.865 = common global i32 0
@y.866 = common global i32 0
@x.867 = common global i32 0
@y.868 = common global i32 0
@x.869 = common global i32 0
@y.870 = common global i32 0
@x.871 = common global i32 0
@y.872 = common global i32 0
@x.873 = common global i32 0
@y.874 = common global i32 0
@x.875 = common global i32 0
@y.876 = common global i32 0
@x.877 = common global i32 0
@y.878 = common global i32 0
@x.879 = common global i32 0
@y.880 = common global i32 0
@x.881 = common global i32 0
@y.882 = common global i32 0
@x.883 = common global i32 0
@y.884 = common global i32 0
@x.885 = common global i32 0
@y.886 = common global i32 0
@x.887 = common global i32 0
@y.888 = common global i32 0
@x.889 = common global i32 0
@y.890 = common global i32 0
@x.891 = common global i32 0
@y.892 = common global i32 0
@x.893 = common global i32 0
@y.894 = common global i32 0
@x.895 = common global i32 0
@y.896 = common global i32 0
@x.897 = common global i32 0
@y.898 = common global i32 0
@x.899 = common global i32 0
@y.900 = common global i32 0
@x.901 = common global i32 0
@y.902 = common global i32 0
@x.903 = common global i32 0
@y.904 = common global i32 0
@x.905 = common global i32 0
@y.906 = common global i32 0
@x.907 = common global i32 0
@y.908 = common global i32 0
@x.909 = common global i32 0
@y.910 = common global i32 0
@x.911 = common global i32 0
@y.912 = common global i32 0
@x.913 = common global i32 0
@y.914 = common global i32 0
@x.915 = common global i32 0
@y.916 = common global i32 0
@x.917 = common global i32 0
@y.918 = common global i32 0
@x.919 = common global i32 0
@y.920 = common global i32 0
@x.921 = common global i32 0
@y.922 = common global i32 0
@x.923 = common global i32 0
@y.924 = common global i32 0
@x.925 = common global i32 0
@y.926 = common global i32 0
@x.927 = common global i32 0
@y.928 = common global i32 0
@x.929 = common global i32 0
@y.930 = common global i32 0
@x.931 = common global i32 0
@y.932 = common global i32 0
@x.933 = common global i32 0
@y.934 = common global i32 0
@x.935 = common global i32 0
@y.936 = common global i32 0
@x.937 = common global i32 0
@y.938 = common global i32 0
@x.939 = common global i32 0
@y.940 = common global i32 0
@x.941 = common global i32 0
@y.942 = common global i32 0
@x.943 = common global i32 0
@y.944 = common global i32 0
@x.945 = common global i32 0
@y.946 = common global i32 0
@x.947 = common global i32 0
@y.948 = common global i32 0
@x.949 = common global i32 0
@y.950 = common global i32 0
@x.951 = common global i32 0
@y.952 = common global i32 0
@x.953 = common global i32 0
@y.954 = common global i32 0
@x.955 = common global i32 0
@y.956 = common global i32 0
@x.957 = common global i32 0
@y.958 = common global i32 0
@x.959 = common global i32 0
@y.960 = common global i32 0
@x.961 = common global i32 0
@y.962 = common global i32 0
@x.963 = common global i32 0
@y.964 = common global i32 0
@x.965 = common global i32 0
@y.966 = common global i32 0
@x.967 = common global i32 0
@y.968 = common global i32 0
@x.969 = common global i32 0
@y.970 = common global i32 0
@x.971 = common global i32 0
@y.972 = common global i32 0
@x.973 = common global i32 0
@y.974 = common global i32 0
@x.975 = common global i32 0
@y.976 = common global i32 0
@x.977 = common global i32 0
@y.978 = common global i32 0
@x.979 = common global i32 0
@y.980 = common global i32 0
@x.981 = common global i32 0
@y.982 = common global i32 0
@x.983 = common global i32 0
@y.984 = common global i32 0
@x.985 = common global i32 0
@y.986 = common global i32 0
@x.987 = common global i32 0
@y.988 = common global i32 0
@x.989 = common global i32 0
@y.990 = common global i32 0
@x.991 = common global i32 0
@y.992 = common global i32 0
@x.993 = common global i32 0
@y.994 = common global i32 0
@x.995 = common global i32 0
@y.996 = common global i32 0
@x.997 = common global i32 0
@y.998 = common global i32 0
@x.999 = common global i32 0
@y.1000 = common global i32 0
@x.1001 = common global i32 0
@y.1002 = common global i32 0
@x.1003 = common global i32 0
@y.1004 = common global i32 0
@x.1005 = common global i32 0
@y.1006 = common global i32 0
@x.1007 = common global i32 0
@y.1008 = common global i32 0
@x.1009 = common global i32 0
@y.1010 = common global i32 0
@x.1011 = common global i32 0
@y.1012 = common global i32 0
@x.1013 = common global i32 0
@y.1014 = common global i32 0
@x.1015 = common global i32 0
@y.1016 = common global i32 0
@x.1017 = common global i32 0
@y.1018 = common global i32 0
@x.1019 = common global i32 0
@y.1020 = common global i32 0
@x.1021 = common global i32 0
@y.1022 = common global i32 0
@x.1023 = common global i32 0
@y.1024 = common global i32 0
@x.1025 = common global i32 0
@y.1026 = common global i32 0
@x.1027 = common global i32 0
@y.1028 = common global i32 0
@x.1029 = common global i32 0
@y.1030 = common global i32 0
@x.1031 = common global i32 0
@y.1032 = common global i32 0
@x.1033 = common global i32 0
@y.1034 = common global i32 0
@x.1035 = common global i32 0
@y.1036 = common global i32 0
@x.1037 = common global i32 0
@y.1038 = common global i32 0
@x.1039 = common global i32 0
@y.1040 = common global i32 0
@x.1041 = common global i32 0
@y.1042 = common global i32 0
@x.1043 = common global i32 0
@y.1044 = common global i32 0
@x.1045 = common global i32 0
@y.1046 = common global i32 0
@x.1047 = common global i32 0
@y.1048 = common global i32 0
@x.1049 = common global i32 0
@y.1050 = common global i32 0
@x.1051 = common global i32 0
@y.1052 = common global i32 0
@x.1053 = common global i32 0
@y.1054 = common global i32 0
@x.1055 = common global i32 0
@y.1056 = common global i32 0
@x.1057 = common global i32 0
@y.1058 = common global i32 0
@x.1059 = common global i32 0
@y.1060 = common global i32 0
@x.1061 = common global i32 0
@y.1062 = common global i32 0
@x.1063 = common global i32 0
@y.1064 = common global i32 0
@x.1065 = common global i32 0
@y.1066 = common global i32 0
@x.1067 = common global i32 0
@y.1068 = common global i32 0
@x.1069 = common global i32 0
@y.1070 = common global i32 0
@x.1071 = common global i32 0
@y.1072 = common global i32 0
@x.1073 = common global i32 0
@y.1074 = common global i32 0
@x.1075 = common global i32 0
@y.1076 = common global i32 0
@x.1077 = common global i32 0
@y.1078 = common global i32 0
@x.1079 = common global i32 0
@y.1080 = common global i32 0
@x.1081 = common global i32 0
@y.1082 = common global i32 0
@x.1083 = common global i32 0
@y.1084 = common global i32 0
@x.1085 = common global i32 0
@y.1086 = common global i32 0
@x.1087 = common global i32 0
@y.1088 = common global i32 0
@x.1089 = common global i32 0
@y.1090 = common global i32 0
@x.1091 = common global i32 0
@y.1092 = common global i32 0
@x.1093 = common global i32 0
@y.1094 = common global i32 0
@x.1095 = common global i32 0
@y.1096 = common global i32 0
@x.1097 = common global i32 0
@y.1098 = common global i32 0
@x.1099 = common global i32 0
@y.1100 = common global i32 0
@x.1101 = common global i32 0
@y.1102 = common global i32 0
@x.1103 = common global i32 0
@y.1104 = common global i32 0
@x.1105 = common global i32 0
@y.1106 = common global i32 0
@x.1107 = common global i32 0
@y.1108 = common global i32 0
@x.1109 = common global i32 0
@y.1110 = common global i32 0
@x.1111 = common global i32 0
@y.1112 = common global i32 0
@x.1113 = common global i32 0
@y.1114 = common global i32 0
@x.1115 = common global i32 0
@y.1116 = common global i32 0
@x.1117 = common global i32 0
@y.1118 = common global i32 0
@x.1119 = common global i32 0
@y.1120 = common global i32 0
@x.1121 = common global i32 0
@y.1122 = common global i32 0
@x.1123 = common global i32 0
@y.1124 = common global i32 0
@x.1125 = common global i32 0
@y.1126 = common global i32 0
@x.1127 = common global i32 0
@y.1128 = common global i32 0
@x.1129 = common global i32 0
@y.1130 = common global i32 0
@x.1131 = common global i32 0
@y.1132 = common global i32 0
@x.1133 = common global i32 0
@y.1134 = common global i32 0
@x.1135 = common global i32 0
@y.1136 = common global i32 0
@x.1137 = common global i32 0
@y.1138 = common global i32 0
@x.1139 = common global i32 0
@y.1140 = common global i32 0
@x.1141 = common global i32 0
@y.1142 = common global i32 0
@x.1143 = common global i32 0
@y.1144 = common global i32 0
@x.1145 = common global i32 0
@y.1146 = common global i32 0
@x.1147 = common global i32 0
@y.1148 = common global i32 0
@x.1149 = common global i32 0
@y.1150 = common global i32 0
@x.1151 = common global i32 0
@y.1152 = common global i32 0
@x.1153 = common global i32 0
@y.1154 = common global i32 0
@x.1155 = common global i32 0
@y.1156 = common global i32 0
@x.1157 = common global i32 0
@y.1158 = common global i32 0
@x.1159 = common global i32 0
@y.1160 = common global i32 0
@x.1161 = common global i32 0
@y.1162 = common global i32 0
@x.1163 = common global i32 0
@y.1164 = common global i32 0
@x.1165 = common global i32 0
@y.1166 = common global i32 0
@x.1167 = common global i32 0
@y.1168 = common global i32 0
@x.1169 = common global i32 0
@y.1170 = common global i32 0
@x.1171 = common global i32 0
@y.1172 = common global i32 0
@x.1173 = common global i32 0
@y.1174 = common global i32 0
@x.1175 = common global i32 0
@y.1176 = common global i32 0
@x.1177 = common global i32 0
@y.1178 = common global i32 0
@x.1179 = common global i32 0
@y.1180 = common global i32 0
@x.1181 = common global i32 0
@y.1182 = common global i32 0
@x.1183 = common global i32 0
@y.1184 = common global i32 0
@x.1185 = common global i32 0
@y.1186 = common global i32 0
@x.1187 = common global i32 0
@y.1188 = common global i32 0
@x.1189 = common global i32 0
@y.1190 = common global i32 0
@x.1191 = common global i32 0
@y.1192 = common global i32 0
@x.1193 = common global i32 0
@y.1194 = common global i32 0
@x.1195 = common global i32 0
@y.1196 = common global i32 0
@x.1197 = common global i32 0
@y.1198 = common global i32 0
@x.1199 = common global i32 0
@y.1200 = common global i32 0
@x.1201 = common global i32 0
@y.1202 = common global i32 0
@x.1203 = common global i32 0
@y.1204 = common global i32 0
@x.1205 = common global i32 0
@y.1206 = common global i32 0
@x.1207 = common global i32 0
@y.1208 = common global i32 0
@x.1209 = common global i32 0
@y.1210 = common global i32 0
@x.1211 = common global i32 0
@y.1212 = common global i32 0
@x.1213 = common global i32 0
@y.1214 = common global i32 0
@x.1215 = common global i32 0
@y.1216 = common global i32 0
@x.1217 = common global i32 0
@y.1218 = common global i32 0
@x.1219 = common global i32 0
@y.1220 = common global i32 0
@x.1221 = common global i32 0
@y.1222 = common global i32 0
@x.1223 = common global i32 0
@y.1224 = common global i32 0
@x.1225 = common global i32 0
@y.1226 = common global i32 0
@x.1227 = common global i32 0
@y.1228 = common global i32 0
@x.1229 = common global i32 0
@y.1230 = common global i32 0
@x.1231 = common global i32 0
@y.1232 = common global i32 0
@x.1233 = common global i32 0
@y.1234 = common global i32 0
@x.1235 = common global i32 0
@y.1236 = common global i32 0
@x.1237 = common global i32 0
@y.1238 = common global i32 0
@x.1239 = common global i32 0
@y.1240 = common global i32 0
@x.1241 = common global i32 0
@y.1242 = common global i32 0
@x.1243 = common global i32 0
@y.1244 = common global i32 0
@x.1245 = common global i32 0
@y.1246 = common global i32 0
@x.1247 = common global i32 0
@y.1248 = common global i32 0
@x.1249 = common global i32 0
@y.1250 = common global i32 0
@x.1251 = common global i32 0
@y.1252 = common global i32 0
@x.1253 = common global i32 0
@y.1254 = common global i32 0
@x.1255 = common global i32 0
@y.1256 = common global i32 0
@x.1257 = common global i32 0
@y.1258 = common global i32 0
@x.1259 = common global i32 0
@y.1260 = common global i32 0
@x.1261 = common global i32 0
@y.1262 = common global i32 0
@x.1263 = common global i32 0
@y.1264 = common global i32 0
@x.1265 = common global i32 0
@y.1266 = common global i32 0
@x.1267 = common global i32 0
@y.1268 = common global i32 0
@x.1269 = common global i32 0
@y.1270 = common global i32 0
@x.1271 = common global i32 0
@y.1272 = common global i32 0
@x.1273 = common global i32 0
@y.1274 = common global i32 0
@x.1275 = common global i32 0
@y.1276 = common global i32 0
@x.1277 = common global i32 0
@y.1278 = common global i32 0
@x.1279 = common global i32 0
@y.1280 = common global i32 0
@x.1281 = common global i32 0
@y.1282 = common global i32 0
@x.1283 = common global i32 0
@y.1284 = common global i32 0
@x.1285 = common global i32 0
@y.1286 = common global i32 0
@x.1287 = common global i32 0
@y.1288 = common global i32 0
@x.1289 = common global i32 0
@y.1290 = common global i32 0
@x.1291 = common global i32 0
@y.1292 = common global i32 0
@x.1293 = common global i32 0
@y.1294 = common global i32 0
@x.1295 = common global i32 0
@y.1296 = common global i32 0
@x.1297 = common global i32 0
@y.1298 = common global i32 0
@x.1299 = common global i32 0
@y.1300 = common global i32 0
@x.1301 = common global i32 0
@y.1302 = common global i32 0
@x.1303 = common global i32 0
@y.1304 = common global i32 0
@x.1305 = common global i32 0
@y.1306 = common global i32 0
@x.1307 = common global i32 0
@y.1308 = common global i32 0
@x.1309 = common global i32 0
@y.1310 = common global i32 0
@x.1311 = common global i32 0
@y.1312 = common global i32 0
@x.1313 = common global i32 0
@y.1314 = common global i32 0
@x.1315 = common global i32 0
@y.1316 = common global i32 0
@x.1317 = common global i32 0
@y.1318 = common global i32 0
@x.1319 = common global i32 0
@y.1320 = common global i32 0
@x.1321 = common global i32 0
@y.1322 = common global i32 0
@x.1323 = common global i32 0
@y.1324 = common global i32 0
@x.1325 = common global i32 0
@y.1326 = common global i32 0
@x.1327 = common global i32 0
@y.1328 = common global i32 0
@x.1329 = common global i32 0
@y.1330 = common global i32 0
@x.1331 = common global i32 0
@y.1332 = common global i32 0
@x.1333 = common global i32 0
@y.1334 = common global i32 0
@x.1335 = common global i32 0
@y.1336 = common global i32 0
@x.1337 = common global i32 0
@y.1338 = common global i32 0
@x.1339 = common global i32 0
@y.1340 = common global i32 0
@x.1341 = common global i32 0
@y.1342 = common global i32 0
@x.1343 = common global i32 0
@y.1344 = common global i32 0
@x.1345 = common global i32 0
@y.1346 = common global i32 0
@x.1347 = common global i32 0
@y.1348 = common global i32 0
@x.1349 = common global i32 0
@y.1350 = common global i32 0
@x.1351 = common global i32 0
@y.1352 = common global i32 0
@x.1353 = common global i32 0
@y.1354 = common global i32 0
@x.1355 = common global i32 0
@y.1356 = common global i32 0
@x.1357 = common global i32 0
@y.1358 = common global i32 0
@x.1359 = common global i32 0
@y.1360 = common global i32 0
@x.1361 = common global i32 0
@y.1362 = common global i32 0
@x.1363 = common global i32 0
@y.1364 = common global i32 0
@x.1365 = common global i32 0
@y.1366 = common global i32 0
@x.1367 = common global i32 0
@y.1368 = common global i32 0
@x.1369 = common global i32 0
@y.1370 = common global i32 0
@x.1371 = common global i32 0
@y.1372 = common global i32 0
@x.1373 = common global i32 0
@y.1374 = common global i32 0
@x.1375 = common global i32 0
@y.1376 = common global i32 0
@x.1377 = common global i32 0
@y.1378 = common global i32 0
@x.1379 = common global i32 0
@y.1380 = common global i32 0
@x.1381 = common global i32 0
@y.1382 = common global i32 0
@x.1383 = common global i32 0
@y.1384 = common global i32 0
@x.1385 = common global i32 0
@y.1386 = common global i32 0
@x.1387 = common global i32 0
@y.1388 = common global i32 0
@x.1389 = common global i32 0
@y.1390 = common global i32 0
@x.1391 = common global i32 0
@y.1392 = common global i32 0
@x.1393 = common global i32 0
@y.1394 = common global i32 0
@x.1395 = common global i32 0
@y.1396 = common global i32 0
@x.1397 = common global i32 0
@y.1398 = common global i32 0
@x.1399 = common global i32 0
@y.1400 = common global i32 0
@x.1401 = common global i32 0
@y.1402 = common global i32 0
@x.1403 = common global i32 0
@y.1404 = common global i32 0
@x.1405 = common global i32 0
@y.1406 = common global i32 0
@x.1407 = common global i32 0
@y.1408 = common global i32 0
@x.1409 = common global i32 0
@y.1410 = common global i32 0
@x.1411 = common global i32 0
@y.1412 = common global i32 0
@x.1413 = common global i32 0
@y.1414 = common global i32 0
@x.1415 = common global i32 0
@y.1416 = common global i32 0
@x.1417 = common global i32 0
@y.1418 = common global i32 0
@x.1419 = common global i32 0
@y.1420 = common global i32 0
@x.1421 = common global i32 0
@y.1422 = common global i32 0
@x.1423 = common global i32 0
@y.1424 = common global i32 0
@x.1425 = common global i32 0
@y.1426 = common global i32 0
@x.1427 = common global i32 0
@y.1428 = common global i32 0
@x.1429 = common global i32 0
@y.1430 = common global i32 0
@x.1431 = common global i32 0
@y.1432 = common global i32 0
@x.1433 = common global i32 0
@y.1434 = common global i32 0
@x.1435 = common global i32 0
@y.1436 = common global i32 0
@x.1437 = common global i32 0
@y.1438 = common global i32 0
@x.1439 = common global i32 0
@y.1440 = common global i32 0
@x.1441 = common global i32 0
@y.1442 = common global i32 0
@x.1443 = common global i32 0
@y.1444 = common global i32 0
@x.1445 = common global i32 0
@y.1446 = common global i32 0
@x.1447 = common global i32 0
@y.1448 = common global i32 0
@x.1449 = common global i32 0
@y.1450 = common global i32 0
@x.1451 = common global i32 0
@y.1452 = common global i32 0
@x.1453 = common global i32 0
@y.1454 = common global i32 0
@x.1455 = common global i32 0
@y.1456 = common global i32 0
@x.1457 = common global i32 0
@y.1458 = common global i32 0
@x.1459 = common global i32 0
@y.1460 = common global i32 0
@x.1461 = common global i32 0
@y.1462 = common global i32 0
@x.1463 = common global i32 0
@y.1464 = common global i32 0
@x.1465 = common global i32 0
@y.1466 = common global i32 0
@x.1467 = common global i32 0
@y.1468 = common global i32 0
@x.1469 = common global i32 0
@y.1470 = common global i32 0
@x.1471 = common global i32 0
@y.1472 = common global i32 0
@x.1473 = common global i32 0
@y.1474 = common global i32 0
@x.1475 = common global i32 0
@y.1476 = common global i32 0
@x.1477 = common global i32 0
@y.1478 = common global i32 0
@x.1479 = common global i32 0
@y.1480 = common global i32 0
@x.1481 = common global i32 0
@y.1482 = common global i32 0
@x.1483 = common global i32 0
@y.1484 = common global i32 0
@x.1485 = common global i32 0
@y.1486 = common global i32 0
@x.1487 = common global i32 0
@y.1488 = common global i32 0
@x.1489 = common global i32 0
@y.1490 = common global i32 0
@x.1491 = common global i32 0
@y.1492 = common global i32 0
@x.1493 = common global i32 0
@y.1494 = common global i32 0
@x.1495 = common global i32 0
@y.1496 = common global i32 0
@x.1497 = common global i32 0
@y.1498 = common global i32 0
@x.1499 = common global i32 0
@y.1500 = common global i32 0
@x.1501 = common global i32 0
@y.1502 = common global i32 0
@x.1503 = common global i32 0
@y.1504 = common global i32 0
@x.1505 = common global i32 0
@y.1506 = common global i32 0
@x.1507 = common global i32 0
@y.1508 = common global i32 0
@x.1509 = common global i32 0
@y.1510 = common global i32 0
@x.1511 = common global i32 0
@y.1512 = common global i32 0

; Function Attrs: noinline uwtable
define void @_ZN5Graph3addERK4Edge(%class.Graph*, %class.Edge* dereferenceable(16)) #0 align 2 {
  %3 = alloca %class.Graph*, align 8
  %4 = alloca %class.Edge*, align 8
  store %class.Graph* %0, %class.Graph** %3, align 8
  store %class.Edge* %1, %class.Edge** %4, align 8
  %5 = load %class.Graph*, %class.Graph** %3, align 8
  %6 = getelementptr inbounds %class.Graph, %class.Graph* %5, i32 0, i32 1
  %7 = load %class.Edge*, %class.Edge** %4, align 8
  %8 = call i32 @_ZNK4Edge4fromEv(%class.Edge* %7)
  %9 = sext i32 %8 to i64
  %10 = call dereferenceable(24) %"class.std::vector.0"* @_ZNSt6vectorIS_I4EdgeSaIS0_EESaIS2_EEixEm(%"class.std::vector"* %6, i64 %9) #4
  %11 = load %class.Edge*, %class.Edge** %4, align 8
  call void @_ZNSt6vectorI4EdgeSaIS0_EE9push_backERKS0_(%"class.std::vector.0"* %10, %class.Edge* dereferenceable(16) %11)
  ret void
}

; Function Attrs: noinline nounwind uwtable
define linkonce_odr dereferenceable(24) %"class.std::vector.0"* @_ZNSt6vectorIS_I4EdgeSaIS0_EESaIS2_EEixEm(%"class.std::vector"*, i64) #1 comdat align 2 {
  %3 = alloca %"class.std::vector"*, align 8
  %4 = alloca i64, align 8
  store %"class.std::vector"* %0, %"class.std::vector"** %3, align 8
  store i64 %1, i64* %4, align 8
  %5 = load %"class.std::vector"*, %"class.std::vector"** %3, align 8
  %6 = bitcast %"class.std::vector"* %5 to %"struct.std::_Vector_base"*
  %7 = getelementptr inbounds %"struct.std::_Vector_base", %"struct.std::_Vector_base"* %6, i32 0, i32 0
  %8 = getelementptr inbounds %"struct.std::_Vector_base<std::vector<Edge, std::allocator<Edge> >, std::allocator<std::vector<Edge, std::allocator<Edge> > > >::_Vector_impl", %"struct.std::_Vector_base<std::vector<Edge, std::allocator<Edge> >, std::allocator<std::vector<Edge, std::allocator<Edge> > > >::_Vector_impl"* %7, i32 0, i32 0
  %9 = load %"class.std::vector.0"*, %"class.std::vector.0"** %8, align 8
  %10 = load i64, i64* %4, align 8
  %11 = getelementptr inbounds %"class.std::vector.0", %"class.std::vector.0"* %9, i64 %10
  ret %"class.std::vector.0"* %11
}

; Function Attrs: noinline nounwind uwtable
define linkonce_odr i32 @_ZNK4Edge4fromEv(%class.Edge*) #1 comdat align 2 {
  %2 = alloca %class.Edge*, align 8
  store %class.Edge* %0, %class.Edge** %2, align 8
  %3 = load %class.Edge*, %class.Edge** %2, align 8
  %4 = getelementptr inbounds %class.Edge, %class.Edge* %3, i32 0, i32 0
  %5 = load i32, i32* %4, align 8
  ret i32 %5
}

; Function Attrs: noinline uwtable
define linkonce_odr void @_ZNSt6vectorI4EdgeSaIS0_EE9push_backERKS0_(%"class.std::vector.0"*, %class.Edge* dereferenceable(16)) #0 comdat align 2 {
  %3 = alloca %class.Edge*
  %4 = alloca %class.Edge*
  %5 = alloca %"class.std::vector.0"*
  %6 = alloca %"class.std::vector.0"*, align 8
  %7 = alloca %class.Edge*, align 8
  store %"class.std::vector.0"* %0, %"class.std::vector.0"** %6, align 8
  store %class.Edge* %1, %class.Edge** %7, align 8
  %8 = load %"class.std::vector.0"*, %"class.std::vector.0"** %6, align 8
  store %"class.std::vector.0"* %8, %"class.std::vector.0"** %5
  %9 = load volatile %"class.std::vector.0"*, %"class.std::vector.0"** %5
  %10 = bitcast %"class.std::vector.0"* %9 to %"struct.std::_Vector_base.1"*
  %11 = getelementptr inbounds %"struct.std::_Vector_base.1", %"struct.std::_Vector_base.1"* %10, i32 0, i32 0
  %12 = getelementptr inbounds %"struct.std::_Vector_base<Edge, std::allocator<Edge> >::_Vector_impl", %"struct.std::_Vector_base<Edge, std::allocator<Edge> >::_Vector_impl"* %11, i32 0, i32 1
  %13 = load %class.Edge*, %class.Edge** %12, align 8
  store %class.Edge* %13, %class.Edge** %4
  %14 = load volatile %"class.std::vector.0"*, %"class.std::vector.0"** %5
  %15 = bitcast %"class.std::vector.0"* %14 to %"struct.std::_Vector_base.1"*
  %16 = getelementptr inbounds %"struct.std::_Vector_base.1", %"struct.std::_Vector_base.1"* %15, i32 0, i32 0
  %17 = getelementptr inbounds %"struct.std::_Vector_base<Edge, std::allocator<Edge> >::_Vector_impl", %"struct.std::_Vector_base<Edge, std::allocator<Edge> >::_Vector_impl"* %16, i32 0, i32 2
  %18 = load %class.Edge*, %class.Edge** %17, align 8
  store %class.Edge* %18, %class.Edge** %3
  %19 = alloca i32
  store i32 -1402107763, i32* %19
  br label %20

; <label>:20:                                     ; preds = %2, %49
  %21 = load i32, i32* %19
  switch i32 %21, label %22 [
    i32 -1402107763, label %23
    i32 419745419, label %28
    i32 -1174506663, label %45
    i32 664391736, label %48
  ]

; <label>:22:                                     ; preds = %20
  br label %49

; <label>:23:                                     ; preds = %20
  %24 = load volatile %class.Edge*, %class.Edge** %4
  %25 = load volatile %class.Edge*, %class.Edge** %3
  %26 = icmp ne %class.Edge* %24, %25
  %27 = select i1 %26, i32 419745419, i32 -1174506663
  store i32 %27, i32* %19
  br label %49

; <label>:28:                                     ; preds = %20
  %29 = load volatile %"class.std::vector.0"*, %"class.std::vector.0"** %5
  %30 = bitcast %"class.std::vector.0"* %29 to %"struct.std::_Vector_base.1"*
  %31 = getelementptr inbounds %"struct.std::_Vector_base.1", %"struct.std::_Vector_base.1"* %30, i32 0, i32 0
  %32 = bitcast %"struct.std::_Vector_base<Edge, std::allocator<Edge> >::_Vector_impl"* %31 to %"class.std::allocator.2"*
  %33 = load volatile %"class.std::vector.0"*, %"class.std::vector.0"** %5
  %34 = bitcast %"class.std::vector.0"* %33 to %"struct.std::_Vector_base.1"*
  %35 = getelementptr inbounds %"struct.std::_Vector_base.1", %"struct.std::_Vector_base.1"* %34, i32 0, i32 0
  %36 = getelementptr inbounds %"struct.std::_Vector_base<Edge, std::allocator<Edge> >::_Vector_impl", %"struct.std::_Vector_base<Edge, std::allocator<Edge> >::_Vector_impl"* %35, i32 0, i32 1
  %37 = load %class.Edge*, %class.Edge** %36, align 8
  %38 = load %class.Edge*, %class.Edge** %7, align 8
  call void @_ZNSt16allocator_traitsISaI4EdgeEE9constructIS0_JRKS0_EEEvRS1_PT_DpOT0_(%"class.std::allocator.2"* dereferenceable(1) %32, %class.Edge* %37, %class.Edge* dereferenceable(16) %38)
  %39 = load volatile %"class.std::vector.0"*, %"class.std::vector.0"** %5
  %40 = bitcast %"class.std::vector.0"* %39 to %"struct.std::_Vector_base.1"*
  %41 = getelementptr inbounds %"struct.std::_Vector_base.1", %"struct.std::_Vector_base.1"* %40, i32 0, i32 0
  %42 = getelementptr inbounds %"struct.std::_Vector_base<Edge, std::allocator<Edge> >::_Vector_impl", %"struct.std::_Vector_base<Edge, std::allocator<Edge> >::_Vector_impl"* %41, i32 0, i32 1
  %43 = load %class.Edge*, %class.Edge** %42, align 8
  %44 = getelementptr inbounds %class.Edge, %class.Edge* %43, i32 1
  store %class.Edge* %44, %class.Edge** %42, align 8
  store i32 664391736, i32* %19
  br label %49

; <label>:45:                                     ; preds = %20
  %46 = load %class.Edge*, %class.Edge** %7, align 8
  %47 = load volatile %"class.std::vector.0"*, %"class.std::vector.0"** %5
  call void @_ZNSt6vectorI4EdgeSaIS0_EE19_M_emplace_back_auxIJRKS0_EEEvDpOT_(%"class.std::vector.0"* %47, %class.Edge* dereferenceable(16) %46)
  store i32 664391736, i32* %19
  br label %49

; <label>:48:                                     ; preds = %20
  ret void

; <label>:49:                                     ; preds = %45, %28, %23, %22
  br label %20
}

; Function Attrs: noinline uwtable
define void @_ZN5Graph3addEiid(%class.Graph*, i32, i32, double) #0 align 2 {
  %5 = alloca i1
  %6 = alloca i1
  %7 = load i32, i32* @x.9
  %8 = load i32, i32* @y.10
  %9 = sub i32 %7, 1063816039
  %10 = sub i32 %9, 1
  %11 = add i32 %10, 1063816039
  %12 = sub i32 %7, 1
  %13 = mul i32 %7, %11
  %14 = urem i32 %13, 2
  %15 = icmp eq i32 %14, 0
  store i1 %15, i1* %6
  %16 = icmp slt i32 %8, 10
  store i1 %16, i1* %5
  %17 = alloca i32
  store i32 -724380238, i32* %17
  br label %18

; <label>:18:                                     ; preds = %4, %73
  %19 = load i32, i32* %17
  switch i32 %19, label %20 [
    i32 -724380238, label %21
    i32 -1149879522, label %29
    i32 -1486870282, label %58
    i32 588510186, label %59
  ]

; <label>:20:                                     ; preds = %18
  br label %73

; <label>:21:                                     ; preds = %18
  %22 = load volatile i1, i1* %6
  %23 = load volatile i1, i1* %5
  %24 = and i1 %22, %23
  %25 = xor i1 %22, %23
  %26 = or i1 %24, %25
  %27 = or i1 %22, %23
  %28 = select i1 %26, i32 -1149879522, i32 588510186
  store i32 %28, i32* %17
  br label %73

; <label>:29:                                     ; preds = %18
  %30 = alloca %class.Graph*, align 8
  %31 = alloca i32, align 4
  %32 = alloca i32, align 4
  %33 = alloca double, align 8
  %34 = alloca %class.Edge, align 8
  store %class.Graph* %0, %class.Graph** %30, align 8
  store i32 %1, i32* %31, align 4
  store i32 %2, i32* %32, align 4
  store double %3, double* %33, align 8
  %35 = load %class.Graph*, %class.Graph** %30, align 8
  %36 = getelementptr inbounds %class.Graph, %class.Graph* %35, i32 0, i32 1
  %37 = load i32, i32* %31, align 4
  %38 = sext i32 %37 to i64
  %39 = call dereferenceable(24) %"class.std::vector.0"* @_ZNSt6vectorIS_I4EdgeSaIS0_EESaIS2_EEixEm(%"class.std::vector"* %36, i64 %38) #4
  %40 = load i32, i32* %31, align 4
  %41 = load i32, i32* %32, align 4
  %42 = load double, double* %33, align 8
  call void @_ZN4EdgeC2Eiid(%class.Edge* %34, i32 %40, i32 %41, double %42)
  call void @_ZNSt6vectorI4EdgeSaIS0_EE9push_backEOS0_(%"class.std::vector.0"* %39, %class.Edge* dereferenceable(16) %34)
  %43 = load i32, i32* @x.9
  %44 = load i32, i32* @y.10
  %45 = sub i32 %43, -521593622
  %46 = sub i32 %45, 1
  %47 = add i32 %46, -521593622
  %48 = sub i32 %43, 1
  %49 = mul i32 %43, %47
  %50 = urem i32 %49, 2
  %51 = icmp eq i32 %50, 0
  %52 = icmp slt i32 %44, 10
  %53 = and i1 %51, %52
  %54 = xor i1 %51, %52
  %55 = or i1 %53, %54
  %56 = or i1 %51, %52
  %57 = select i1 %55, i32 -1486870282, i32 588510186
  store i32 %57, i32* %17
  br label %73

; <label>:58:                                     ; preds = %18
  ret void

; <label>:59:                                     ; preds = %18
  %60 = alloca %class.Graph*, align 8
  %61 = alloca i32, align 4
  %62 = alloca i32, align 4
  %63 = alloca double, align 8
  %64 = alloca %class.Edge, align 8
  store %class.Graph* %0, %class.Graph** %60, align 8
  store i32 %1, i32* %61, align 4
  store i32 %2, i32* %62, align 4
  store double %3, double* %63, align 8
  %65 = load %class.Graph*, %class.Graph** %60, align 8
  %66 = getelementptr inbounds %class.Graph, %class.Graph* %65, i32 0, i32 1
  %67 = load i32, i32* %61, align 4
  %68 = sext i32 %67 to i64
  %69 = call dereferenceable(24) %"class.std::vector.0"* @_ZNSt6vectorIS_I4EdgeSaIS0_EESaIS2_EEixEm(%"class.std::vector"* %66, i64 %68) #4
  %70 = load i32, i32* %61, align 4
  %71 = load i32, i32* %62, align 4
  %72 = load double, double* %63, align 8
  call void @_ZN4EdgeC2Eiid(%class.Edge* %64, i32 %70, i32 %71, double %72)
  call void @_ZNSt6vectorI4EdgeSaIS0_EE9push_backEOS0_(%"class.std::vector.0"* %69, %class.Edge* dereferenceable(16) %64)
  store i32 -1149879522, i32* %17
  br label %73

; <label>:73:                                     ; preds = %59, %29, %21, %20
  br label %18
}

; Function Attrs: noinline uwtable
define linkonce_odr void @_ZNSt6vectorI4EdgeSaIS0_EE9push_backEOS0_(%"class.std::vector.0"*, %class.Edge* dereferenceable(16)) #0 comdat align 2 {
  %3 = alloca i1
  %4 = alloca i1
  %5 = load i32, i32* @x.11
  %6 = load i32, i32* @y.12
  %7 = sub i32 0, 1
  %8 = add i32 %5, %7
  %9 = sub i32 %5, 1
  %10 = mul i32 %5, %8
  %11 = urem i32 %10, 2
  %12 = icmp eq i32 %11, 0
  store i1 %12, i1* %4
  %13 = icmp slt i32 %6, 10
  store i1 %13, i1* %3
  %14 = alloca i32
  store i32 621769821, i32* %14
  br label %15

; <label>:15:                                     ; preds = %2, %54
  %16 = load i32, i32* %14
  switch i32 %16, label %17 [
    i32 621769821, label %18
    i32 1553151279, label %26
    i32 1856814047, label %47
    i32 -650231397, label %48
  ]

; <label>:17:                                     ; preds = %15
  br label %54

; <label>:18:                                     ; preds = %15
  %19 = load volatile i1, i1* %4
  %20 = load volatile i1, i1* %3
  %21 = and i1 %19, %20
  %22 = xor i1 %19, %20
  %23 = or i1 %21, %22
  %24 = or i1 %19, %20
  %25 = select i1 %23, i32 1553151279, i32 -650231397
  store i32 %25, i32* %14
  br label %54

; <label>:26:                                     ; preds = %15
  %27 = alloca %"class.std::vector.0"*, align 8
  %28 = alloca %class.Edge*, align 8
  store %"class.std::vector.0"* %0, %"class.std::vector.0"** %27, align 8
  store %class.Edge* %1, %class.Edge** %28, align 8
  %29 = load %"class.std::vector.0"*, %"class.std::vector.0"** %27, align 8
  %30 = load %class.Edge*, %class.Edge** %28, align 8
  %31 = call dereferenceable(16) %class.Edge* @_ZSt4moveIR4EdgeEONSt16remove_referenceIT_E4typeEOS3_(%class.Edge* dereferenceable(16) %30) #4
  call void @_ZNSt6vectorI4EdgeSaIS0_EE12emplace_backIJS0_EEEvDpOT_(%"class.std::vector.0"* %29, %class.Edge* dereferenceable(16) %31)
  %32 = load i32, i32* @x.11
  %33 = load i32, i32* @y.12
  %34 = sub i32 %32, -775828911
  %35 = sub i32 %34, 1
  %36 = add i32 %35, -775828911
  %37 = sub i32 %32, 1
  %38 = mul i32 %32, %36
  %39 = urem i32 %38, 2
  %40 = icmp eq i32 %39, 0
  %41 = icmp slt i32 %33, 10
  %42 = and i1 %40, %41
  %43 = xor i1 %40, %41
  %44 = or i1 %42, %43
  %45 = or i1 %40, %41
  %46 = select i1 %44, i32 1856814047, i32 -650231397
  store i32 %46, i32* %14
  br label %54

; <label>:47:                                     ; preds = %15
  ret void

; <label>:48:                                     ; preds = %15
  %49 = alloca %"class.std::vector.0"*, align 8
  %50 = alloca %class.Edge*, align 8
  store %"class.std::vector.0"* %0, %"class.std::vector.0"** %49, align 8
  store %class.Edge* %1, %class.Edge** %50, align 8
  %51 = load %"class.std::vector.0"*, %"class.std::vector.0"** %49, align 8
  %52 = load %class.Edge*, %class.Edge** %50, align 8
  %53 = call dereferenceable(16) %class.Edge* @_ZSt4moveIR4EdgeEONSt16remove_referenceIT_E4typeEOS3_(%class.Edge* dereferenceable(16) %52) #4
  call void @_ZNSt6vectorI4EdgeSaIS0_EE12emplace_backIJS0_EEEvDpOT_(%"class.std::vector.0"* %51, %class.Edge* dereferenceable(16) %53)
  store i32 1553151279, i32* %14
  br label %54

; <label>:54:                                     ; preds = %48, %26, %18, %17
  br label %15
}

; Function Attrs: noinline nounwind uwtable
define linkonce_odr void @_ZN4EdgeC2Eiid(%class.Edge*, i32, i32, double) unnamed_addr #1 comdat align 2 {
  %5 = alloca i1
  %6 = alloca i1
  %7 = load i32, i32* @x.13
  %8 = load i32, i32* @y.14
  %9 = sub i32 %7, -1845869938
  %10 = sub i32 %9, 1
  %11 = add i32 %10, -1845869938
  %12 = sub i32 %7, 1
  %13 = mul i32 %7, %11
  %14 = urem i32 %13, 2
  %15 = icmp eq i32 %14, 0
  store i1 %15, i1* %6
  %16 = icmp slt i32 %8, 10
  store i1 %16, i1* %5
  %17 = alloca i32
  store i32 -1426001574, i32* %17
  br label %18

; <label>:18:                                     ; preds = %4, %81
  %19 = load i32, i32* %17
  switch i32 %19, label %20 [
    i32 -1426001574, label %21
    i32 -1259306214, label %29
    i32 1558399657, label %68
    i32 823328523, label %69
  ]

; <label>:20:                                     ; preds = %18
  br label %81

; <label>:21:                                     ; preds = %18
  %22 = load volatile i1, i1* %6
  %23 = load volatile i1, i1* %5
  %24 = and i1 %22, %23
  %25 = xor i1 %22, %23
  %26 = or i1 %24, %25
  %27 = or i1 %22, %23
  %28 = select i1 %26, i32 -1259306214, i32 823328523
  store i32 %28, i32* %17
  br label %81

; <label>:29:                                     ; preds = %18
  %30 = alloca %class.Edge*, align 8
  %31 = alloca i32, align 4
  %32 = alloca i32, align 4
  %33 = alloca double, align 8
  store %class.Edge* %0, %class.Edge** %30, align 8
  store i32 %1, i32* %31, align 4
  store i32 %2, i32* %32, align 4
  store double %3, double* %33, align 8
  %34 = load %class.Edge*, %class.Edge** %30, align 8
  %35 = getelementptr inbounds %class.Edge, %class.Edge* %34, i32 0, i32 0
  %36 = load i32, i32* %31, align 4
  store i32 %36, i32* %35, align 8
  %37 = getelementptr inbounds %class.Edge, %class.Edge* %34, i32 0, i32 1
  %38 = load i32, i32* %32, align 4
  store i32 %38, i32* %37, align 4
  %39 = getelementptr inbounds %class.Edge, %class.Edge* %34, i32 0, i32 2
  %40 = load double, double* %33, align 8
  store double %40, double* %39, align 8
  %41 = load i32, i32* @x.13
  %42 = load i32, i32* @y.14
  %43 = add i32 %41, -210875270
  %44 = sub i32 %43, 1
  %45 = sub i32 %44, -210875270
  %46 = sub i32 %41, 1
  %47 = mul i32 %41, %45
  %48 = urem i32 %47, 2
  %49 = icmp eq i32 %48, 0
  %50 = icmp slt i32 %42, 10
  %51 = xor i1 %49, true
  %52 = xor i1 %50, true
  %53 = xor i1 true, true
  %54 = and i1 %51, true
  %55 = and i1 %49, %53
  %56 = and i1 %52, true
  %57 = and i1 %50, %53
  %58 = or i1 %54, %55
  %59 = or i1 %56, %57
  %60 = xor i1 %58, %59
  %61 = or i1 %51, %52
  %62 = xor i1 %61, true
  %63 = or i1 true, %53
  %64 = and i1 %62, %63
  %65 = or i1 %60, %64
  %66 = or i1 %49, %50
  %67 = select i1 %65, i32 1558399657, i32 823328523
  store i32 %67, i32* %17
  br label %81

; <label>:68:                                     ; preds = %18
  ret void

; <label>:69:                                     ; preds = %18
  %70 = alloca %class.Edge*, align 8
  %71 = alloca i32, align 4
  %72 = alloca i32, align 4
  %73 = alloca double, align 8
  store %class.Edge* %0, %class.Edge** %70, align 8
  store i32 %1, i32* %71, align 4
  store i32 %2, i32* %72, align 4
  store double %3, double* %73, align 8
  %74 = load %class.Edge*, %class.Edge** %70, align 8
  %75 = getelementptr inbounds %class.Edge, %class.Edge* %74, i32 0, i32 0
  %76 = load i32, i32* %71, align 4
  store i32 %76, i32* %75, align 8
  %77 = getelementptr inbounds %class.Edge, %class.Edge* %74, i32 0, i32 1
  %78 = load i32, i32* %72, align 4
  store i32 %78, i32* %77, align 4
  %79 = getelementptr inbounds %class.Edge, %class.Edge* %74, i32 0, i32 2
  %80 = load double, double* %73, align 8
  store double %80, double* %79, align 8
  store i32 -1259306214, i32* %17
  br label %81

; <label>:81:                                     ; preds = %69, %29, %21, %20
  br label %18
}

; Function Attrs: noinline uwtable
define double @_ZNK5Graph8DijkstraEii(%class.Graph*, i32, i32) #0 align 2 personality i8* bitcast (i32 (...)* @__gxx_personality_v0 to i8*) {
  %4 = alloca double, align 8
  %5 = alloca %class.Graph*, align 8
  %6 = alloca i32, align 4
  %7 = alloca i32, align 4
  %8 = alloca %"class.std::vector.5", align 8
  %9 = alloca i32, align 4
  %10 = alloca %"class.std::allocator.7", align 1
  %11 = alloca i8*
  %12 = alloca i32
  %13 = alloca %"class.std::priority_queue", align 8
  %14 = alloca %"struct.std::greater", align 1
  %15 = alloca %"class.std::vector.10", align 8
  %16 = alloca %"class.std::tuple", align 8
  %17 = alloca i32, align 4
  %18 = alloca double, align 8
  %19 = alloca i32, align 4
  %20 = alloca i32
  %21 = alloca %"class.std::vector.0"*, align 8
  %22 = alloca %"class.__gnu_cxx::__normal_iterator", align 8
  %23 = alloca %"class.__gnu_cxx::__normal_iterator", align 8
  %24 = alloca %class.Edge*, align 8
  %25 = alloca %"class.std::tuple", align 8
  %26 = alloca double, align 8
  %27 = alloca i32, align 4
  store %class.Graph* %0, %class.Graph** %5, align 8
  store i32 %1, i32* %6, align 4
  store i32 %2, i32* %7, align 4
  %28 = load %class.Graph*, %class.Graph** %5, align 8
  %29 = call i32 @_ZNK5Graph4sizeEv(%class.Graph* %28)
  %30 = sext i32 %29 to i64
  store i32 0, i32* %9, align 4
  call void @_ZNSaIiEC2Ev(%"class.std::allocator.7"* %10) #4
  invoke void @_ZNSt6vectorIiSaIiEEC2EmRKiRKS0_(%"class.std::vector.5"* %8, i64 %30, i32* dereferenceable(4) %9, %"class.std::allocator.7"* dereferenceable(1) %10)
          to label %31 unwind label %131

; <label>:31:                                     ; preds = %3
  call void @_ZNSaIiED2Ev(%"class.std::allocator.7"* %10) #4
  call void @_ZNSt6vectorISt5tupleIJdiEESaIS1_EEC2Ev(%"class.std::vector.10"* %15) #4
  invoke void @_ZNSt14priority_queueISt5tupleIJdiEESt6vectorIS1_SaIS1_EESt7greaterIS1_EEC2ERKS6_OS4_(%"class.std::priority_queue"* %13, %"struct.std::greater"* dereferenceable(1) %14, %"class.std::vector.10"* dereferenceable(24) %15)
          to label %32 unwind label %165

; <label>:32:                                     ; preds = %31
  call void @_ZNSt6vectorISt5tupleIJdiEESaIS1_EED2Ev(%"class.std::vector.10"* %15) #4
  store i32 0, i32* %17, align 4
  invoke void @_ZNSt5tupleIJdiEEC2IiRKivEEOT_OT0_(%"class.std::tuple"* %16, i32* dereferenceable(4) %17, i32* dereferenceable(4) %6)
          to label %33 unwind label %169

; <label>:33:                                     ; preds = %32
  invoke void @_ZNSt14priority_queueISt5tupleIJdiEESt6vectorIS1_SaIS1_EESt7greaterIS1_EE4pushEOS1_(%"class.std::priority_queue"* %13, %"class.std::tuple"* dereferenceable(16) %16)
          to label %34 unwind label %169

; <label>:34:                                     ; preds = %33
  br label %35

; <label>:35:                                     ; preds = %375, %233, %34
  %36 = invoke zeroext i1 @_ZNKSt14priority_queueISt5tupleIJdiEESt6vectorIS1_SaIS1_EESt7greaterIS1_EE5emptyEv(%"class.std::priority_queue"* %13)
          to label %37 unwind label %169

; <label>:37:                                     ; preds = %35
  %38 = load i32, i32* @x.15
  %39 = load i32, i32* @y.16
  %40 = sub i32 %38, -2090908484
  %41 = sub i32 %40, 1
  %42 = add i32 %41, -2090908484
  %43 = sub i32 %38, 1
  %44 = mul i32 %38, %42
  %45 = urem i32 %44, 2
  %46 = icmp eq i32 %45, 0
  %47 = icmp slt i32 %39, 10
  %48 = and i1 %46, %47
  %49 = xor i1 %46, %47
  %50 = or i1 %48, %49
  %51 = or i1 %46, %47
  br i1 %50, label %52, label %467

; <label>:52:                                     ; preds = %37, %467
  %53 = xor i1 %36, true
  %54 = and i1 true, %53
  %55 = xor i1 true, true
  %56 = and i1 %36, %55
  %57 = or i1 %54, %56
  %58 = xor i1 %36, true
  %59 = load i32, i32* @x.15
  %60 = load i32, i32* @y.16
  %61 = add i32 %59, 1929447520
  %62 = sub i32 %61, 1
  %63 = sub i32 %62, 1929447520
  %64 = sub i32 %59, 1
  %65 = mul i32 %59, %63
  %66 = urem i32 %65, 2
  %67 = icmp eq i32 %66, 0
  %68 = icmp slt i32 %60, 10
  %69 = xor i1 %67, true
  %70 = xor i1 %68, true
  %71 = xor i1 false, true
  %72 = and i1 %69, false
  %73 = and i1 %67, %71
  %74 = and i1 %70, false
  %75 = and i1 %68, %71
  %76 = or i1 %72, %73
  %77 = or i1 %74, %75
  %78 = xor i1 %76, %77
  %79 = or i1 %69, %70
  %80 = xor i1 %79, true
  %81 = or i1 false, %71
  %82 = and i1 %80, %81
  %83 = or i1 %78, %82
  %84 = or i1 %67, %68
  br i1 %83, label %85, label %467

; <label>:85:                                     ; preds = %52
  br i1 %57, label %86, label %376

; <label>:86:                                     ; preds = %85
  %87 = invoke dereferenceable(16) %"class.std::tuple"* @_ZNKSt14priority_queueISt5tupleIJdiEESt6vectorIS1_SaIS1_EESt7greaterIS1_EE3topEv(%"class.std::priority_queue"* %13)
          to label %88 unwind label %169

; <label>:88:                                     ; preds = %86
  %89 = call dereferenceable(8) double* @_ZSt3getILm0EJdiEERKNSt13tuple_elementIXT_ESt5tupleIJDpT0_EEE4typeERKS4_(%"class.std::tuple"* dereferenceable(16) %87) #4
  %90 = load double, double* %89, align 8
  store double %90, double* %18, align 8
  %91 = invoke dereferenceable(16) %"class.std::tuple"* @_ZNKSt14priority_queueISt5tupleIJdiEESt6vectorIS1_SaIS1_EESt7greaterIS1_EE3topEv(%"class.std::priority_queue"* %13)
          to label %92 unwind label %169

; <label>:92:                                     ; preds = %88
  %93 = call dereferenceable(4) i32* @_ZSt3getILm1EJdiEERKNSt13tuple_elementIXT_ESt5tupleIJDpT0_EEE4typeERKS4_(%"class.std::tuple"* dereferenceable(16) %91) #4
  %94 = load i32, i32* %93, align 4
  store i32 %94, i32* %19, align 4
  invoke void @_ZNSt14priority_queueISt5tupleIJdiEESt6vectorIS1_SaIS1_EESt7greaterIS1_EE3popEv(%"class.std::priority_queue"* %13)
          to label %95 unwind label %169

; <label>:95:                                     ; preds = %92
  %96 = load i32, i32* @x.15
  %97 = load i32, i32* @y.16
  %98 = sub i32 %96, 950100174
  %99 = sub i32 %98, 1
  %100 = add i32 %99, 950100174
  %101 = sub i32 %96, 1
  %102 = mul i32 %96, %100
  %103 = urem i32 %102, 2
  %104 = icmp eq i32 %103, 0
  %105 = icmp slt i32 %97, 10
  %106 = and i1 %104, %105
  %107 = xor i1 %104, %105
  %108 = or i1 %106, %107
  %109 = or i1 %104, %105
  br i1 %108, label %110, label %487

; <label>:110:                                    ; preds = %95, %487
  %111 = load i32, i32* %19, align 4
  %112 = load i32, i32* %7, align 4
  %113 = icmp eq i32 %111, %112
  %114 = load i32, i32* @x.15
  %115 = load i32, i32* @y.16
  %116 = add i32 %114, -509801801
  %117 = sub i32 %116, 1
  %118 = sub i32 %117, -509801801
  %119 = sub i32 %114, 1
  %120 = mul i32 %114, %118
  %121 = urem i32 %120, 2
  %122 = icmp eq i32 %121, 0
  %123 = icmp slt i32 %115, 10
  %124 = and i1 %122, %123
  %125 = xor i1 %122, %123
  %126 = or i1 %124, %125
  %127 = or i1 %122, %123
  br i1 %126, label %128, label %487

; <label>:128:                                    ; preds = %110
  br i1 %113, label %129, label %173

; <label>:129:                                    ; preds = %128
  %130 = load double, double* %18, align 8
  store double %130, double* %4, align 8
  store i32 1, i32* %20, align 4
  br label %418

; <label>:131:                                    ; preds = %3
  %132 = load i32, i32* @x.15
  %133 = load i32, i32* @y.16
  %134 = sub i32 %132, -524101307
  %135 = sub i32 %134, 1
  %136 = add i32 %135, -524101307
  %137 = sub i32 %132, 1
  %138 = mul i32 %132, %136
  %139 = urem i32 %138, 2
  %140 = icmp eq i32 %139, 0
  %141 = icmp slt i32 %133, 10
  %142 = and i1 %140, %141
  %143 = xor i1 %140, %141
  %144 = or i1 %142, %143
  %145 = or i1 %140, %141
  br i1 %144, label %146, label %491

; <label>:146:                                    ; preds = %131, %491
  %147 = landingpad { i8*, i32 }
          cleanup
  %148 = extractvalue { i8*, i32 } %147, 0
  store i8* %148, i8** %11, align 8
  %149 = extractvalue { i8*, i32 } %147, 1
  store i32 %149, i32* %12, align 4
  call void @_ZNSaIiED2Ev(%"class.std::allocator.7"* %10) #4
  %150 = load i32, i32* @x.15
  %151 = load i32, i32* @y.16
  %152 = sub i32 %150, -683533342
  %153 = sub i32 %152, 1
  %154 = add i32 %153, -683533342
  %155 = sub i32 %150, 1
  %156 = mul i32 %150, %154
  %157 = urem i32 %156, 2
  %158 = icmp eq i32 %157, 0
  %159 = icmp slt i32 %151, 10
  %160 = and i1 %158, %159
  %161 = xor i1 %158, %159
  %162 = or i1 %160, %161
  %163 = or i1 %158, %159
  br i1 %162, label %164, label %491

; <label>:164:                                    ; preds = %146
  br label %421

; <label>:165:                                    ; preds = %31
  %166 = landingpad { i8*, i32 }
          cleanup
  %167 = extractvalue { i8*, i32 } %166, 0
  store i8* %167, i8** %11, align 8
  %168 = extractvalue { i8*, i32 } %166, 1
  store i32 %168, i32* %12, align 4
  call void @_ZNSt6vectorISt5tupleIJdiEESaIS1_EED2Ev(%"class.std::vector.10"* %15) #4
  br label %420

; <label>:169:                                    ; preds = %300, %258, %254, %249, %234, %92, %88, %86, %35, %33, %32
  %170 = landingpad { i8*, i32 }
          cleanup
  %171 = extractvalue { i8*, i32 } %170, 0
  store i8* %171, i8** %11, align 8
  %172 = extractvalue { i8*, i32 } %170, 1
  store i32 %172, i32* %12, align 4
  call void @_ZNSt14priority_queueISt5tupleIJdiEESt6vectorIS1_SaIS1_EESt7greaterIS1_EED2Ev(%"class.std::priority_queue"* %13) #4
  br label %420

; <label>:173:                                    ; preds = %128
  %174 = load i32, i32* %19, align 4
  %175 = sext i32 %174 to i64
  %176 = call dereferenceable(4) i32* @_ZNSt6vectorIiSaIiEEixEm(%"class.std::vector.5"* %8, i64 %175) #4
  %177 = load i32, i32* %176, align 4
  %178 = icmp ne i32 %177, 0
  br i1 %178, label %179, label %234

; <label>:179:                                    ; preds = %173
  %180 = load i32, i32* @x.15
  %181 = load i32, i32* @y.16
  %182 = add i32 %180, 277798023
  %183 = sub i32 %182, 1
  %184 = sub i32 %183, 277798023
  %185 = sub i32 %180, 1
  %186 = mul i32 %180, %184
  %187 = urem i32 %186, 2
  %188 = icmp eq i32 %187, 0
  %189 = icmp slt i32 %181, 10
  %190 = xor i1 %188, true
  %191 = xor i1 %189, true
  %192 = xor i1 false, true
  %193 = and i1 %190, false
  %194 = and i1 %188, %192
  %195 = and i1 %191, false
  %196 = and i1 %189, %192
  %197 = or i1 %193, %194
  %198 = or i1 %195, %196
  %199 = xor i1 %197, %198
  %200 = or i1 %190, %191
  %201 = xor i1 %200, true
  %202 = or i1 false, %192
  %203 = and i1 %201, %202
  %204 = or i1 %199, %203
  %205 = or i1 %188, %189
  br i1 %204, label %206, label %495

; <label>:206:                                    ; preds = %179, %495
  %207 = load i32, i32* @x.15
  %208 = load i32, i32* @y.16
  %209 = sub i32 %207, 673303477
  %210 = sub i32 %209, 1
  %211 = add i32 %210, 673303477
  %212 = sub i32 %207, 1
  %213 = mul i32 %207, %211
  %214 = urem i32 %213, 2
  %215 = icmp eq i32 %214, 0
  %216 = icmp slt i32 %208, 10
  %217 = xor i1 %215, true
  %218 = xor i1 %216, true
  %219 = xor i1 true, true
  %220 = and i1 %217, true
  %221 = and i1 %215, %219
  %222 = and i1 %218, true
  %223 = and i1 %216, %219
  %224 = or i1 %220, %221
  %225 = or i1 %222, %223
  %226 = xor i1 %224, %225
  %227 = or i1 %217, %218
  %228 = xor i1 %227, true
  %229 = or i1 true, %219
  %230 = and i1 %228, %229
  %231 = or i1 %226, %230
  %232 = or i1 %215, %216
  br i1 %231, label %233, label %495

; <label>:233:                                    ; preds = %206
  br label %35

; <label>:234:                                    ; preds = %173
  %235 = load i32, i32* %19, align 4
  %236 = sext i32 %235 to i64
  %237 = call dereferenceable(4) i32* @_ZNSt6vectorIiSaIiEEixEm(%"class.std::vector.5"* %8, i64 %236) #4
  store i32 1, i32* %237, align 4
  %238 = load i32, i32* %19, align 4
  %239 = invoke dereferenceable(24) %"class.std::vector.0"* @_ZNK5Graph4edgeEi(%class.Graph* %28, i32 %238)
          to label %240 unwind label %169

; <label>:240:                                    ; preds = %234
  store %"class.std::vector.0"* %239, %"class.std::vector.0"** %21, align 8
  %241 = load %"class.std::vector.0"*, %"class.std::vector.0"** %21, align 8
  %242 = call %class.Edge* @_ZNKSt6vectorI4EdgeSaIS0_EE5beginEv(%"class.std::vector.0"* %241) #4
  %243 = getelementptr inbounds %"class.__gnu_cxx::__normal_iterator", %"class.__gnu_cxx::__normal_iterator"* %22, i32 0, i32 0
  store %class.Edge* %242, %class.Edge** %243, align 8
  %244 = load %"class.std::vector.0"*, %"class.std::vector.0"** %21, align 8
  %245 = call %class.Edge* @_ZNKSt6vectorI4EdgeSaIS0_EE3endEv(%"class.std::vector.0"* %244) #4
  %246 = getelementptr inbounds %"class.__gnu_cxx::__normal_iterator", %"class.__gnu_cxx::__normal_iterator"* %23, i32 0, i32 0
  store %class.Edge* %245, %class.Edge** %246, align 8
  br label %247

; <label>:247:                                    ; preds = %331, %240
  %248 = call zeroext i1 @_ZN9__gnu_cxxneIPK4EdgeSt6vectorIS1_SaIS1_EEEEbRKNS_17__normal_iteratorIT_T0_EESC_(%"class.__gnu_cxx::__normal_iterator"* dereferenceable(8) %22, %"class.__gnu_cxx::__normal_iterator"* dereferenceable(8) %23) #4
  br i1 %248, label %249, label %333

; <label>:249:                                    ; preds = %247
  %250 = call dereferenceable(16) %class.Edge* @_ZNK9__gnu_cxx17__normal_iteratorIPK4EdgeSt6vectorIS1_SaIS1_EEEdeEv(%"class.__gnu_cxx::__normal_iterator"* %22) #4
  store %class.Edge* %250, %class.Edge** %24, align 8
  %251 = load double, double* %18, align 8
  %252 = load %class.Edge*, %class.Edge** %24, align 8
  %253 = invoke double @_ZNK4Edge6weightEv(%class.Edge* %252)
          to label %254 unwind label %169

; <label>:254:                                    ; preds = %249
  %255 = fadd double %251, %253
  store double %255, double* %26, align 8
  %256 = load %class.Edge*, %class.Edge** %24, align 8
  %257 = invoke i32 @_ZNK4Edge2toEv(%class.Edge* %256)
          to label %258 unwind label %169

; <label>:258:                                    ; preds = %254
  store i32 %257, i32* %27, align 4
  invoke void @_ZNSt5tupleIJdiEEC2IdivEEOT_OT0_(%"class.std::tuple"* %25, double* dereferenceable(8) %26, i32* dereferenceable(4) %27)
          to label %259 unwind label %169

; <label>:259:                                    ; preds = %258
  %260 = load i32, i32* @x.15
  %261 = load i32, i32* @y.16
  %262 = sub i32 0, 1
  %263 = add i32 %260, %262
  %264 = sub i32 %260, 1
  %265 = mul i32 %260, %263
  %266 = urem i32 %265, 2
  %267 = icmp eq i32 %266, 0
  %268 = icmp slt i32 %261, 10
  %269 = and i1 %267, %268
  %270 = xor i1 %267, %268
  %271 = or i1 %269, %270
  %272 = or i1 %267, %268
  br i1 %271, label %273, label %496

; <label>:273:                                    ; preds = %259, %496
  %274 = load i32, i32* @x.15
  %275 = load i32, i32* @y.16
  %276 = add i32 %274, -1890719750
  %277 = sub i32 %276, 1
  %278 = sub i32 %277, -1890719750
  %279 = sub i32 %274, 1
  %280 = mul i32 %274, %278
  %281 = urem i32 %280, 2
  %282 = icmp eq i32 %281, 0
  %283 = icmp slt i32 %275, 10
  %284 = xor i1 %282, true
  %285 = xor i1 %283, true
  %286 = xor i1 true, true
  %287 = and i1 %284, true
  %288 = and i1 %282, %286
  %289 = and i1 %285, true
  %290 = and i1 %283, %286
  %291 = or i1 %287, %288
  %292 = or i1 %289, %290
  %293 = xor i1 %291, %292
  %294 = or i1 %284, %285
  %295 = xor i1 %294, true
  %296 = or i1 true, %286
  %297 = and i1 %295, %296
  %298 = or i1 %293, %297
  %299 = or i1 %282, %283
  br i1 %298, label %300, label %496

; <label>:300:                                    ; preds = %273
  invoke void @_ZNSt14priority_queueISt5tupleIJdiEESt6vectorIS1_SaIS1_EESt7greaterIS1_EE4pushEOS1_(%"class.std::priority_queue"* %13, %"class.std::tuple"* dereferenceable(16) %25)
          to label %301 unwind label %169

; <label>:301:                                    ; preds = %300
  %302 = load i32, i32* @x.15
  %303 = load i32, i32* @y.16
  %304 = sub i32 0, 1
  %305 = add i32 %302, %304
  %306 = sub i32 %302, 1
  %307 = mul i32 %302, %305
  %308 = urem i32 %307, 2
  %309 = icmp eq i32 %308, 0
  %310 = icmp slt i32 %303, 10
  %311 = and i1 %309, %310
  %312 = xor i1 %309, %310
  %313 = or i1 %311, %312
  %314 = or i1 %309, %310
  br i1 %313, label %315, label %497

; <label>:315:                                    ; preds = %301, %497
  %316 = load i32, i32* @x.15
  %317 = load i32, i32* @y.16
  %318 = sub i32 %316, -94941893
  %319 = sub i32 %318, 1
  %320 = add i32 %319, -94941893
  %321 = sub i32 %316, 1
  %322 = mul i32 %316, %320
  %323 = urem i32 %322, 2
  %324 = icmp eq i32 %323, 0
  %325 = icmp slt i32 %317, 10
  %326 = and i1 %324, %325
  %327 = xor i1 %324, %325
  %328 = or i1 %326, %327
  %329 = or i1 %324, %325
  br i1 %328, label %330, label %497

; <label>:330:                                    ; preds = %315
  br label %331

; <label>:331:                                    ; preds = %330
  %332 = call dereferenceable(8) %"class.__gnu_cxx::__normal_iterator"* @_ZN9__gnu_cxx17__normal_iteratorIPK4EdgeSt6vectorIS1_SaIS1_EEEppEv(%"class.__gnu_cxx::__normal_iterator"* %22) #4
  br label %247

; <label>:333:                                    ; preds = %247
  %334 = load i32, i32* @x.15
  %335 = load i32, i32* @y.16
  %336 = sub i32 %334, 1348097603
  %337 = sub i32 %336, 1
  %338 = add i32 %337, 1348097603
  %339 = sub i32 %334, 1
  %340 = mul i32 %334, %338
  %341 = urem i32 %340, 2
  %342 = icmp eq i32 %341, 0
  %343 = icmp slt i32 %335, 10
  %344 = and i1 %342, %343
  %345 = xor i1 %342, %343
  %346 = or i1 %344, %345
  %347 = or i1 %342, %343
  br i1 %346, label %348, label %498

; <label>:348:                                    ; preds = %333, %498
  %349 = load i32, i32* @x.15
  %350 = load i32, i32* @y.16
  %351 = add i32 %349, -1126303188
  %352 = sub i32 %351, 1
  %353 = sub i32 %352, -1126303188
  %354 = sub i32 %349, 1
  %355 = mul i32 %349, %353
  %356 = urem i32 %355, 2
  %357 = icmp eq i32 %356, 0
  %358 = icmp slt i32 %350, 10
  %359 = xor i1 %357, true
  %360 = xor i1 %358, true
  %361 = xor i1 true, true
  %362 = and i1 %359, true
  %363 = and i1 %357, %361
  %364 = and i1 %360, true
  %365 = and i1 %358, %361
  %366 = or i1 %362, %363
  %367 = or i1 %364, %365
  %368 = xor i1 %366, %367
  %369 = or i1 %359, %360
  %370 = xor i1 %369, true
  %371 = or i1 true, %361
  %372 = and i1 %370, %371
  %373 = or i1 %368, %372
  %374 = or i1 %357, %358
  br i1 %373, label %375, label %498

; <label>:375:                                    ; preds = %348
  br label %35

; <label>:376:                                    ; preds = %85
  %377 = load i32, i32* @x.15
  %378 = load i32, i32* @y.16
  %379 = sub i32 0, 1
  %380 = add i32 %377, %379
  %381 = sub i32 %377, 1
  %382 = mul i32 %377, %380
  %383 = urem i32 %382, 2
  %384 = icmp eq i32 %383, 0
  %385 = icmp slt i32 %378, 10
  %386 = and i1 %384, %385
  %387 = xor i1 %384, %385
  %388 = or i1 %386, %387
  %389 = or i1 %384, %385
  br i1 %388, label %390, label %499

; <label>:390:                                    ; preds = %376, %499
  store double 0x7FD5555555555555, double* %4, align 8
  store i32 1, i32* %20, align 4
  %391 = load i32, i32* @x.15
  %392 = load i32, i32* @y.16
  %393 = add i32 %391, 982531842
  %394 = sub i32 %393, 1
  %395 = sub i32 %394, 982531842
  %396 = sub i32 %391, 1
  %397 = mul i32 %391, %395
  %398 = urem i32 %397, 2
  %399 = icmp eq i32 %398, 0
  %400 = icmp slt i32 %392, 10
  %401 = xor i1 %399, true
  %402 = xor i1 %400, true
  %403 = xor i1 true, true
  %404 = and i1 %401, true
  %405 = and i1 %399, %403
  %406 = and i1 %402, true
  %407 = and i1 %400, %403
  %408 = or i1 %404, %405
  %409 = or i1 %406, %407
  %410 = xor i1 %408, %409
  %411 = or i1 %401, %402
  %412 = xor i1 %411, true
  %413 = or i1 true, %403
  %414 = and i1 %412, %413
  %415 = or i1 %410, %414
  %416 = or i1 %399, %400
  br i1 %415, label %417, label %499

; <label>:417:                                    ; preds = %390
  br label %418

; <label>:418:                                    ; preds = %417, %129
  call void @_ZNSt14priority_queueISt5tupleIJdiEESt6vectorIS1_SaIS1_EESt7greaterIS1_EED2Ev(%"class.std::priority_queue"* %13) #4
  call void @_ZNSt6vectorIiSaIiEED2Ev(%"class.std::vector.5"* %8) #4
  %419 = load double, double* %4, align 8
  ret double %419

; <label>:420:                                    ; preds = %169, %165
  call void @_ZNSt6vectorIiSaIiEED2Ev(%"class.std::vector.5"* %8) #4
  br label %421

; <label>:421:                                    ; preds = %420, %164
  %422 = load i32, i32* @x.15
  %423 = load i32, i32* @y.16
  %424 = sub i32 0, 1
  %425 = add i32 %422, %424
  %426 = sub i32 %422, 1
  %427 = mul i32 %422, %425
  %428 = urem i32 %427, 2
  %429 = icmp eq i32 %428, 0
  %430 = icmp slt i32 %423, 10
  %431 = and i1 %429, %430
  %432 = xor i1 %429, %430
  %433 = or i1 %431, %432
  %434 = or i1 %429, %430
  br i1 %433, label %435, label %500

; <label>:435:                                    ; preds = %421, %500
  %436 = load i8*, i8** %11, align 8
  %437 = load i32, i32* %12, align 4
  %438 = insertvalue { i8*, i32 } undef, i8* %436, 0
  %439 = insertvalue { i8*, i32 } %438, i32 %437, 1
  %440 = load i32, i32* @x.15
  %441 = load i32, i32* @y.16
  %442 = add i32 %440, -763079879
  %443 = sub i32 %442, 1
  %444 = sub i32 %443, -763079879
  %445 = sub i32 %440, 1
  %446 = mul i32 %440, %444
  %447 = urem i32 %446, 2
  %448 = icmp eq i32 %447, 0
  %449 = icmp slt i32 %441, 10
  %450 = xor i1 %448, true
  %451 = xor i1 %449, true
  %452 = xor i1 false, true
  %453 = and i1 %450, false
  %454 = and i1 %448, %452
  %455 = and i1 %451, false
  %456 = and i1 %449, %452
  %457 = or i1 %453, %454
  %458 = or i1 %455, %456
  %459 = xor i1 %457, %458
  %460 = or i1 %450, %451
  %461 = xor i1 %460, true
  %462 = or i1 false, %452
  %463 = and i1 %461, %462
  %464 = or i1 %459, %463
  %465 = or i1 %448, %449
  br i1 %464, label %466, label %500

; <label>:466:                                    ; preds = %435
  resume { i8*, i32 } %439

; <label>:467:                                    ; preds = %52, %37
  %468 = add i1 false, true
  %469 = sub i1 %468, %36
  %470 = sub i1 %469, true
  %471 = sub i1 false, %36
  %472 = add i1 %470, true
  %473 = add i1 %472, true
  %474 = sub i1 %473, true
  %475 = add i1 %470, true
  %476 = xor i1 %36, true
  %477 = and i1 true, %476
  %478 = xor i1 true, true
  %479 = and i1 %36, %478
  %480 = xor i1 true, true
  %481 = and i1 %480, true
  %482 = and i1 true, %478
  %483 = or i1 %477, %479
  %484 = or i1 %481, %482
  %485 = xor i1 %483, %484
  %486 = xor i1 %36, true
  br label %52

; <label>:487:                                    ; preds = %110, %95
  %488 = load i32, i32* %19, align 4
  %489 = load i32, i32* %7, align 4
  %490 = icmp eq i32 %488, %489
  br label %110

; <label>:491:                                    ; preds = %146, %131
  %492 = landingpad { i8*, i32 }
          cleanup
  %493 = extractvalue { i8*, i32 } %492, 0
  store i8* %493, i8** %11, align 8
  %494 = extractvalue { i8*, i32 } %492, 1
  store i32 %494, i32* %12, align 4
  call void @_ZNSaIiED2Ev(%"class.std::allocator.7"* %10) #4
  br label %146

; <label>:495:                                    ; preds = %206, %179
  br label %206

; <label>:496:                                    ; preds = %273, %259
  br label %273

; <label>:497:                                    ; preds = %315, %301
  br label %315

; <label>:498:                                    ; preds = %348, %333
  br label %348

; <label>:499:                                    ; preds = %390, %376
  store double 0x7FD5555555555555, double* %4, align 8
  store i32 1, i32* %20, align 4
  br label %390

; <label>:500:                                    ; preds = %435, %421
  %501 = load i8*, i8** %11, align 8
  %502 = load i32, i32* %12, align 4
  %503 = insertvalue { i8*, i32 } undef, i8* %501, 0
  %504 = insertvalue { i8*, i32 } %503, i32 %502, 1
  br label %435
}

; Function Attrs: noinline nounwind uwtable
define linkonce_odr i32 @_ZNK5Graph4sizeEv(%class.Graph*) #1 comdat align 2 {
  %2 = alloca %class.Graph*, align 8
  store %class.Graph* %0, %class.Graph** %2, align 8
  %3 = load %class.Graph*, %class.Graph** %2, align 8
  %4 = getelementptr inbounds %class.Graph, %class.Graph* %3, i32 0, i32 0
  %5 = load i32, i32* %4, align 8
  ret i32 %5
}

; Function Attrs: noinline nounwind uwtable
define linkonce_odr void @_ZNSaIiEC2Ev(%"class.std::allocator.7"*) unnamed_addr #1 comdat align 2 {
  %2 = alloca i1
  %3 = alloca i1
  %4 = load i32, i32* @x.19
  %5 = load i32, i32* @y.20
  %6 = sub i32 %4, 1872058355
  %7 = sub i32 %6, 1
  %8 = add i32 %7, 1872058355
  %9 = sub i32 %4, 1
  %10 = mul i32 %4, %8
  %11 = urem i32 %10, 2
  %12 = icmp eq i32 %11, 0
  store i1 %12, i1* %3
  %13 = icmp slt i32 %5, 10
  store i1 %13, i1* %2
  %14 = alloca i32
  store i32 1123947473, i32* %14
  br label %15

; <label>:15:                                     ; preds = %1, %61
  %16 = load i32, i32* %14
  switch i32 %16, label %17 [
    i32 1123947473, label %18
    i32 1395580700, label %26
    i32 12088901, label %56
    i32 -1980032916, label %57
  ]

; <label>:17:                                     ; preds = %15
  br label %61

; <label>:18:                                     ; preds = %15
  %19 = load volatile i1, i1* %3
  %20 = load volatile i1, i1* %2
  %21 = and i1 %19, %20
  %22 = xor i1 %19, %20
  %23 = or i1 %21, %22
  %24 = or i1 %19, %20
  %25 = select i1 %23, i32 1395580700, i32 -1980032916
  store i32 %25, i32* %14
  br label %61

; <label>:26:                                     ; preds = %15
  %27 = alloca %"class.std::allocator.7"*, align 8
  store %"class.std::allocator.7"* %0, %"class.std::allocator.7"** %27, align 8
  %28 = load %"class.std::allocator.7"*, %"class.std::allocator.7"** %27, align 8
  %29 = bitcast %"class.std::allocator.7"* %28 to %"class.__gnu_cxx::new_allocator.8"*
  call void @_ZN9__gnu_cxx13new_allocatorIiEC2Ev(%"class.__gnu_cxx::new_allocator.8"* %29) #4
  %30 = load i32, i32* @x.19
  %31 = load i32, i32* @y.20
  %32 = sub i32 0, 1
  %33 = add i32 %30, %32
  %34 = sub i32 %30, 1
  %35 = mul i32 %30, %33
  %36 = urem i32 %35, 2
  %37 = icmp eq i32 %36, 0
  %38 = icmp slt i32 %31, 10
  %39 = xor i1 %37, true
  %40 = xor i1 %38, true
  %41 = xor i1 false, true
  %42 = and i1 %39, false
  %43 = and i1 %37, %41
  %44 = and i1 %40, false
  %45 = and i1 %38, %41
  %46 = or i1 %42, %43
  %47 = or i1 %44, %45
  %48 = xor i1 %46, %47
  %49 = or i1 %39, %40
  %50 = xor i1 %49, true
  %51 = or i1 false, %41
  %52 = and i1 %50, %51
  %53 = or i1 %48, %52
  %54 = or i1 %37, %38
  %55 = select i1 %53, i32 12088901, i32 -1980032916
  store i32 %55, i32* %14
  br label %61

; <label>:56:                                     ; preds = %15
  ret void

; <label>:57:                                     ; preds = %15
  %58 = alloca %"class.std::allocator.7"*, align 8
  store %"class.std::allocator.7"* %0, %"class.std::allocator.7"** %58, align 8
  %59 = load %"class.std::allocator.7"*, %"class.std::allocator.7"** %58, align 8
  %60 = bitcast %"class.std::allocator.7"* %59 to %"class.__gnu_cxx::new_allocator.8"*
  call void @_ZN9__gnu_cxx13new_allocatorIiEC2Ev(%"class.__gnu_cxx::new_allocator.8"* %60) #4
  store i32 1395580700, i32* %14
  br label %61

; <label>:61:                                     ; preds = %57, %26, %18, %17
  br label %15
}

; Function Attrs: noinline uwtable
define linkonce_odr void @_ZNSt6vectorIiSaIiEEC2EmRKiRKS0_(%"class.std::vector.5"*, i64, i32* dereferenceable(4), %"class.std::allocator.7"* dereferenceable(1)) unnamed_addr #0 comdat align 2 personality i8* bitcast (i32 (...)* @__gxx_personality_v0 to i8*) {
  %5 = alloca %"class.std::vector.5"*, align 8
  %6 = alloca i64, align 8
  %7 = alloca i32*, align 8
  %8 = alloca %"class.std::allocator.7"*, align 8
  %9 = alloca i8*
  %10 = alloca i32
  store %"class.std::vector.5"* %0, %"class.std::vector.5"** %5, align 8
  store i64 %1, i64* %6, align 8
  store i32* %2, i32** %7, align 8
  store %"class.std::allocator.7"* %3, %"class.std::allocator.7"** %8, align 8
  %11 = load %"class.std::vector.5"*, %"class.std::vector.5"** %5, align 8
  %12 = bitcast %"class.std::vector.5"* %11 to %"struct.std::_Vector_base.6"*
  %13 = load i64, i64* %6, align 8
  %14 = load %"class.std::allocator.7"*, %"class.std::allocator.7"** %8, align 8
  call void @_ZNSt12_Vector_baseIiSaIiEEC2EmRKS0_(%"struct.std::_Vector_base.6"* %12, i64 %13, %"class.std::allocator.7"* dereferenceable(1) %14)
  %15 = load i64, i64* %6, align 8
  %16 = load i32*, i32** %7, align 8
  invoke void @_ZNSt6vectorIiSaIiEE18_M_fill_initializeEmRKi(%"class.std::vector.5"* %11, i64 %15, i32* dereferenceable(4) %16)
          to label %17 unwind label %18

; <label>:17:                                     ; preds = %4
  ret void

; <label>:18:                                     ; preds = %4
  %19 = load i32, i32* @x.21
  %20 = load i32, i32* @y.22
  %21 = add i32 %19, -763955474
  %22 = sub i32 %21, 1
  %23 = sub i32 %22, -763955474
  %24 = sub i32 %19, 1
  %25 = mul i32 %19, %23
  %26 = urem i32 %25, 2
  %27 = icmp eq i32 %26, 0
  %28 = icmp slt i32 %20, 10
  %29 = xor i1 %27, true
  %30 = xor i1 %28, true
  %31 = xor i1 false, true
  %32 = and i1 %29, false
  %33 = and i1 %27, %31
  %34 = and i1 %30, false
  %35 = and i1 %28, %31
  %36 = or i1 %32, %33
  %37 = or i1 %34, %35
  %38 = xor i1 %36, %37
  %39 = or i1 %29, %30
  %40 = xor i1 %39, true
  %41 = or i1 false, %31
  %42 = and i1 %40, %41
  %43 = or i1 %38, %42
  %44 = or i1 %27, %28
  br i1 %43, label %45, label %82

; <label>:45:                                     ; preds = %18, %82
  %46 = landingpad { i8*, i32 }
          cleanup
  %47 = extractvalue { i8*, i32 } %46, 0
  store i8* %47, i8** %9, align 8
  %48 = extractvalue { i8*, i32 } %46, 1
  store i32 %48, i32* %10, align 4
  %49 = bitcast %"class.std::vector.5"* %11 to %"struct.std::_Vector_base.6"*
  call void @_ZNSt12_Vector_baseIiSaIiEED2Ev(%"struct.std::_Vector_base.6"* %49) #4
  %50 = load i32, i32* @x.21
  %51 = load i32, i32* @y.22
  %52 = sub i32 %50, -745250700
  %53 = sub i32 %52, 1
  %54 = add i32 %53, -745250700
  %55 = sub i32 %50, 1
  %56 = mul i32 %50, %54
  %57 = urem i32 %56, 2
  %58 = icmp eq i32 %57, 0
  %59 = icmp slt i32 %51, 10
  %60 = xor i1 %58, true
  %61 = xor i1 %59, true
  %62 = xor i1 false, true
  %63 = and i1 %60, false
  %64 = and i1 %58, %62
  %65 = and i1 %61, false
  %66 = and i1 %59, %62
  %67 = or i1 %63, %64
  %68 = or i1 %65, %66
  %69 = xor i1 %67, %68
  %70 = or i1 %60, %61
  %71 = xor i1 %70, true
  %72 = or i1 false, %62
  %73 = and i1 %71, %72
  %74 = or i1 %69, %73
  %75 = or i1 %58, %59
  br i1 %74, label %76, label %82

; <label>:76:                                     ; preds = %45
  br label %77

; <label>:77:                                     ; preds = %76
  %78 = load i8*, i8** %9, align 8
  %79 = load i32, i32* %10, align 4
  %80 = insertvalue { i8*, i32 } undef, i8* %78, 0
  %81 = insertvalue { i8*, i32 } %80, i32 %79, 1
  resume { i8*, i32 } %81

; <label>:82:                                     ; preds = %45, %18
  %83 = landingpad { i8*, i32 }
          cleanup
  %84 = extractvalue { i8*, i32 } %83, 0
  store i8* %84, i8** %9, align 8
  %85 = extractvalue { i8*, i32 } %83, 1
  store i32 %85, i32* %10, align 4
  %86 = bitcast %"class.std::vector.5"* %11 to %"struct.std::_Vector_base.6"*
  call void @_ZNSt12_Vector_baseIiSaIiEED2Ev(%"struct.std::_Vector_base.6"* %86) #4
  br label %45
}

declare i32 @__gxx_personality_v0(...)

; Function Attrs: noinline nounwind uwtable
define linkonce_odr void @_ZNSaIiED2Ev(%"class.std::allocator.7"*) unnamed_addr #1 comdat align 2 {
  %2 = alloca %"class.std::allocator.7"*, align 8
  store %"class.std::allocator.7"* %0, %"class.std::allocator.7"** %2, align 8
  %3 = load %"class.std::allocator.7"*, %"class.std::allocator.7"** %2, align 8
  %4 = bitcast %"class.std::allocator.7"* %3 to %"class.__gnu_cxx::new_allocator.8"*
  call void @_ZN9__gnu_cxx13new_allocatorIiED2Ev(%"class.__gnu_cxx::new_allocator.8"* %4) #4
  ret void
}

; Function Attrs: noinline nounwind uwtable
define linkonce_odr void @_ZNSt6vectorISt5tupleIJdiEESaIS1_EEC2Ev(%"class.std::vector.10"*) unnamed_addr #1 comdat align 2 personality i8* bitcast (i32 (...)* @__gxx_personality_v0 to i8*) {
  %2 = alloca %"class.std::vector.10"*, align 8
  store %"class.std::vector.10"* %0, %"class.std::vector.10"** %2, align 8
  %3 = load %"class.std::vector.10"*, %"class.std::vector.10"** %2, align 8
  %4 = bitcast %"class.std::vector.10"* %3 to %"struct.std::_Vector_base.11"*
  invoke void @_ZNSt12_Vector_baseISt5tupleIJdiEESaIS1_EEC2Ev(%"struct.std::_Vector_base.11"* %4)
          to label %5 unwind label %48

; <label>:5:                                      ; preds = %1
  %6 = load i32, i32* @x.25
  %7 = load i32, i32* @y.26
  %8 = add i32 %6, 1622297297
  %9 = sub i32 %8, 1
  %10 = sub i32 %9, 1622297297
  %11 = sub i32 %6, 1
  %12 = mul i32 %6, %10
  %13 = urem i32 %12, 2
  %14 = icmp eq i32 %13, 0
  %15 = icmp slt i32 %7, 10
  %16 = xor i1 %14, true
  %17 = xor i1 %15, true
  %18 = xor i1 false, true
  %19 = and i1 %16, false
  %20 = and i1 %14, %18
  %21 = and i1 %17, false
  %22 = and i1 %15, %18
  %23 = or i1 %19, %20
  %24 = or i1 %21, %22
  %25 = xor i1 %23, %24
  %26 = or i1 %16, %17
  %27 = xor i1 %26, true
  %28 = or i1 false, %18
  %29 = and i1 %27, %28
  %30 = or i1 %25, %29
  %31 = or i1 %14, %15
  br i1 %30, label %32, label %81

; <label>:32:                                     ; preds = %5, %81
  %33 = load i32, i32* @x.25
  %34 = load i32, i32* @y.26
  %35 = add i32 %33, -2124105452
  %36 = sub i32 %35, 1
  %37 = sub i32 %36, -2124105452
  %38 = sub i32 %33, 1
  %39 = mul i32 %33, %37
  %40 = urem i32 %39, 2
  %41 = icmp eq i32 %40, 0
  %42 = icmp slt i32 %34, 10
  %43 = and i1 %41, %42
  %44 = xor i1 %41, %42
  %45 = or i1 %43, %44
  %46 = or i1 %41, %42
  br i1 %45, label %47, label %81

; <label>:47:                                     ; preds = %32
  ret void

; <label>:48:                                     ; preds = %1
  %49 = load i32, i32* @x.25
  %50 = load i32, i32* @y.26
  %51 = add i32 %49, -522644443
  %52 = sub i32 %51, 1
  %53 = sub i32 %52, -522644443
  %54 = sub i32 %49, 1
  %55 = mul i32 %49, %53
  %56 = urem i32 %55, 2
  %57 = icmp eq i32 %56, 0
  %58 = icmp slt i32 %50, 10
  %59 = and i1 %57, %58
  %60 = xor i1 %57, %58
  %61 = or i1 %59, %60
  %62 = or i1 %57, %58
  br i1 %61, label %63, label %82

; <label>:63:                                     ; preds = %48, %82
  %64 = landingpad { i8*, i32 }
          catch i8* null
  %65 = extractvalue { i8*, i32 } %64, 0
  call void @__clang_call_terminate(i8* %65) #8
  %66 = load i32, i32* @x.25
  %67 = load i32, i32* @y.26
  %68 = add i32 %66, -1250327221
  %69 = sub i32 %68, 1
  %70 = sub i32 %69, -1250327221
  %71 = sub i32 %66, 1
  %72 = mul i32 %66, %70
  %73 = urem i32 %72, 2
  %74 = icmp eq i32 %73, 0
  %75 = icmp slt i32 %67, 10
  %76 = and i1 %74, %75
  %77 = xor i1 %74, %75
  %78 = or i1 %76, %77
  %79 = or i1 %74, %75
  br i1 %78, label %80, label %82

; <label>:80:                                     ; preds = %63
  unreachable

; <label>:81:                                     ; preds = %32, %5
  br label %32

; <label>:82:                                     ; preds = %63, %48
  %83 = landingpad { i8*, i32 }
          catch i8* null
  %84 = extractvalue { i8*, i32 } %83, 0
  call void @__clang_call_terminate(i8* %84) #8
  br label %63
}

; Function Attrs: noinline uwtable
define linkonce_odr void @_ZNSt14priority_queueISt5tupleIJdiEESt6vectorIS1_SaIS1_EESt7greaterIS1_EEC2ERKS6_OS4_(%"class.std::priority_queue"*, %"struct.std::greater"* dereferenceable(1), %"class.std::vector.10"* dereferenceable(24)) unnamed_addr #0 comdat align 2 personality i8* bitcast (i32 (...)* @__gxx_personality_v0 to i8*) {
  %4 = alloca %"class.std::priority_queue"*, align 8
  %5 = alloca %"struct.std::greater"*, align 8
  %6 = alloca %"class.std::vector.10"*, align 8
  %7 = alloca %"class.__gnu_cxx::__normal_iterator.46", align 8
  %8 = alloca %"class.__gnu_cxx::__normal_iterator.46", align 8
  %9 = alloca %"struct.std::greater", align 1
  %10 = alloca i8*
  %11 = alloca i32
  store %"class.std::priority_queue"* %0, %"class.std::priority_queue"** %4, align 8
  store %"struct.std::greater"* %1, %"struct.std::greater"** %5, align 8
  store %"class.std::vector.10"* %2, %"class.std::vector.10"** %6, align 8
  %12 = load %"class.std::priority_queue"*, %"class.std::priority_queue"** %4, align 8
  %13 = getelementptr inbounds %"class.std::priority_queue", %"class.std::priority_queue"* %12, i32 0, i32 0
  %14 = load %"class.std::vector.10"*, %"class.std::vector.10"** %6, align 8
  %15 = call dereferenceable(24) %"class.std::vector.10"* @_ZSt4moveIRSt6vectorISt5tupleIJdiEESaIS2_EEEONSt16remove_referenceIT_E4typeEOS7_(%"class.std::vector.10"* dereferenceable(24) %14) #4
  call void @_ZNSt6vectorISt5tupleIJdiEESaIS1_EEC2EOS3_(%"class.std::vector.10"* %13, %"class.std::vector.10"* dereferenceable(24) %15) #4
  %16 = getelementptr inbounds %"class.std::priority_queue", %"class.std::priority_queue"* %12, i32 0, i32 1
  %17 = load %"struct.std::greater"*, %"struct.std::greater"** %5, align 8
  %18 = getelementptr inbounds %"class.std::priority_queue", %"class.std::priority_queue"* %12, i32 0, i32 0
  %19 = call %"class.std::tuple"* @_ZNSt6vectorISt5tupleIJdiEESaIS1_EE5beginEv(%"class.std::vector.10"* %18) #4
  %20 = getelementptr inbounds %"class.__gnu_cxx::__normal_iterator.46", %"class.__gnu_cxx::__normal_iterator.46"* %7, i32 0, i32 0
  store %"class.std::tuple"* %19, %"class.std::tuple"** %20, align 8
  %21 = getelementptr inbounds %"class.std::priority_queue", %"class.std::priority_queue"* %12, i32 0, i32 0
  %22 = call %"class.std::tuple"* @_ZNSt6vectorISt5tupleIJdiEESaIS1_EE3endEv(%"class.std::vector.10"* %21) #4
  %23 = getelementptr inbounds %"class.__gnu_cxx::__normal_iterator.46", %"class.__gnu_cxx::__normal_iterator.46"* %8, i32 0, i32 0
  store %"class.std::tuple"* %22, %"class.std::tuple"** %23, align 8
  %24 = getelementptr inbounds %"class.std::priority_queue", %"class.std::priority_queue"* %12, i32 0, i32 1
  %25 = getelementptr inbounds %"class.__gnu_cxx::__normal_iterator.46", %"class.__gnu_cxx::__normal_iterator.46"* %7, i32 0, i32 0
  %26 = load %"class.std::tuple"*, %"class.std::tuple"** %25, align 8
  %27 = getelementptr inbounds %"class.__gnu_cxx::__normal_iterator.46", %"class.__gnu_cxx::__normal_iterator.46"* %8, i32 0, i32 0
  %28 = load %"class.std::tuple"*, %"class.std::tuple"** %27, align 8
  invoke void @_ZSt9make_heapIN9__gnu_cxx17__normal_iteratorIPSt5tupleIJdiEESt6vectorIS3_SaIS3_EEEESt7greaterIS3_EEvT_SB_T0_(%"class.std::tuple"* %26, %"class.std::tuple"* %28)
          to label %29 unwind label %30

; <label>:29:                                     ; preds = %3
  ret void

; <label>:30:                                     ; preds = %3
  %31 = landingpad { i8*, i32 }
          cleanup
  %32 = extractvalue { i8*, i32 } %31, 0
  store i8* %32, i8** %10, align 8
  %33 = extractvalue { i8*, i32 } %31, 1
  store i32 %33, i32* %11, align 4
  call void @_ZNSt6vectorISt5tupleIJdiEESaIS1_EED2Ev(%"class.std::vector.10"* %13) #4
  br label %34

; <label>:34:                                     ; preds = %30
  %35 = load i8*, i8** %10, align 8
  %36 = load i32, i32* %11, align 4
  %37 = insertvalue { i8*, i32 } undef, i8* %35, 0
  %38 = insertvalue { i8*, i32 } %37, i32 %36, 1
  resume { i8*, i32 } %38
}

; Function Attrs: noinline nounwind uwtable
define linkonce_odr void @_ZNSt6vectorISt5tupleIJdiEESaIS1_EED2Ev(%"class.std::vector.10"*) unnamed_addr #1 comdat align 2 personality i8* bitcast (i32 (...)* @__gxx_personality_v0 to i8*) {
  %2 = alloca %"class.std::vector.10"*, align 8
  %3 = alloca i8*
  %4 = alloca i32
  store %"class.std::vector.10"* %0, %"class.std::vector.10"** %2, align 8
  %5 = load %"class.std::vector.10"*, %"class.std::vector.10"** %2, align 8
  %6 = bitcast %"class.std::vector.10"* %5 to %"struct.std::_Vector_base.11"*
  %7 = getelementptr inbounds %"struct.std::_Vector_base.11", %"struct.std::_Vector_base.11"* %6, i32 0, i32 0
  %8 = getelementptr inbounds %"struct.std::_Vector_base<std::tuple<double, int>, std::allocator<std::tuple<double, int> > >::_Vector_impl", %"struct.std::_Vector_base<std::tuple<double, int>, std::allocator<std::tuple<double, int> > >::_Vector_impl"* %7, i32 0, i32 0
  %9 = load %"class.std::tuple"*, %"class.std::tuple"** %8, align 8
  %10 = bitcast %"class.std::vector.10"* %5 to %"struct.std::_Vector_base.11"*
  %11 = getelementptr inbounds %"struct.std::_Vector_base.11", %"struct.std::_Vector_base.11"* %10, i32 0, i32 0
  %12 = getelementptr inbounds %"struct.std::_Vector_base<std::tuple<double, int>, std::allocator<std::tuple<double, int> > >::_Vector_impl", %"struct.std::_Vector_base<std::tuple<double, int>, std::allocator<std::tuple<double, int> > >::_Vector_impl"* %11, i32 0, i32 1
  %13 = load %"class.std::tuple"*, %"class.std::tuple"** %12, align 8
  %14 = bitcast %"class.std::vector.10"* %5 to %"struct.std::_Vector_base.11"*
  %15 = call dereferenceable(1) %"class.std::allocator.12"* @_ZNSt12_Vector_baseISt5tupleIJdiEESaIS1_EE19_M_get_Tp_allocatorEv(%"struct.std::_Vector_base.11"* %14) #4
  invoke void @_ZSt8_DestroyIPSt5tupleIJdiEES1_EvT_S3_RSaIT0_E(%"class.std::tuple"* %9, %"class.std::tuple"* %13, %"class.std::allocator.12"* dereferenceable(1) %15)
          to label %16 unwind label %18

; <label>:16:                                     ; preds = %1
  %17 = bitcast %"class.std::vector.10"* %5 to %"struct.std::_Vector_base.11"*
  call void @_ZNSt12_Vector_baseISt5tupleIJdiEESaIS1_EED2Ev(%"struct.std::_Vector_base.11"* %17) #4
  ret void

; <label>:18:                                     ; preds = %1
  %19 = landingpad { i8*, i32 }
          catch i8* null
  %20 = extractvalue { i8*, i32 } %19, 0
  store i8* %20, i8** %3, align 8
  %21 = extractvalue { i8*, i32 } %19, 1
  store i32 %21, i32* %4, align 4
  %22 = bitcast %"class.std::vector.10"* %5 to %"struct.std::_Vector_base.11"*
  call void @_ZNSt12_Vector_baseISt5tupleIJdiEESaIS1_EED2Ev(%"struct.std::_Vector_base.11"* %22) #4
  br label %23

; <label>:23:                                     ; preds = %18
  %24 = load i32, i32* @x.29
  %25 = load i32, i32* @y.30
  %26 = sub i32 0, 1
  %27 = add i32 %24, %26
  %28 = sub i32 %24, 1
  %29 = mul i32 %24, %27
  %30 = urem i32 %29, 2
  %31 = icmp eq i32 %30, 0
  %32 = icmp slt i32 %25, 10
  %33 = xor i1 %31, true
  %34 = xor i1 %32, true
  %35 = xor i1 false, true
  %36 = and i1 %33, false
  %37 = and i1 %31, %35
  %38 = and i1 %34, false
  %39 = and i1 %32, %35
  %40 = or i1 %36, %37
  %41 = or i1 %38, %39
  %42 = xor i1 %40, %41
  %43 = or i1 %33, %34
  %44 = xor i1 %43, true
  %45 = or i1 false, %35
  %46 = and i1 %44, %45
  %47 = or i1 %42, %46
  %48 = or i1 %31, %32
  br i1 %47, label %49, label %65

; <label>:49:                                     ; preds = %23, %65
  %50 = load i8*, i8** %3, align 8
  call void @__clang_call_terminate(i8* %50) #8
  %51 = load i32, i32* @x.29
  %52 = load i32, i32* @y.30
  %53 = sub i32 0, 1
  %54 = add i32 %51, %53
  %55 = sub i32 %51, 1
  %56 = mul i32 %51, %54
  %57 = urem i32 %56, 2
  %58 = icmp eq i32 %57, 0
  %59 = icmp slt i32 %52, 10
  %60 = and i1 %58, %59
  %61 = xor i1 %58, %59
  %62 = or i1 %60, %61
  %63 = or i1 %58, %59
  br i1 %62, label %64, label %65

; <label>:64:                                     ; preds = %49
  unreachable

; <label>:65:                                     ; preds = %49, %23
  %66 = load i8*, i8** %3, align 8
  call void @__clang_call_terminate(i8* %66) #8
  br label %49
}

; Function Attrs: noinline uwtable
define linkonce_odr void @_ZNSt14priority_queueISt5tupleIJdiEESt6vectorIS1_SaIS1_EESt7greaterIS1_EE4pushEOS1_(%"class.std::priority_queue"*, %"class.std::tuple"* dereferenceable(16)) #0 comdat align 2 {
  %3 = alloca i1
  %4 = alloca i1
  %5 = load i32, i32* @x.31
  %6 = load i32, i32* @y.32
  %7 = sub i32 0, 1
  %8 = add i32 %5, %7
  %9 = sub i32 %5, 1
  %10 = mul i32 %5, %8
  %11 = urem i32 %10, 2
  %12 = icmp eq i32 %11, 0
  store i1 %12, i1* %4
  %13 = icmp slt i32 %6, 10
  store i1 %13, i1* %3
  %14 = alloca i32
  store i32 659716357, i32* %14
  br label %15

; <label>:15:                                     ; preds = %2, %95
  %16 = load i32, i32* %14
  switch i32 %16, label %17 [
    i32 659716357, label %18
    i32 2104849691, label %26
    i32 1201127021, label %73
    i32 155496230, label %74
  ]

; <label>:17:                                     ; preds = %15
  br label %95

; <label>:18:                                     ; preds = %15
  %19 = load volatile i1, i1* %4
  %20 = load volatile i1, i1* %3
  %21 = and i1 %19, %20
  %22 = xor i1 %19, %20
  %23 = or i1 %21, %22
  %24 = or i1 %19, %20
  %25 = select i1 %23, i32 2104849691, i32 155496230
  store i32 %25, i32* %14
  br label %95

; <label>:26:                                     ; preds = %15
  %27 = alloca %"class.std::priority_queue"*, align 8
  %28 = alloca %"class.std::tuple"*, align 8
  %29 = alloca %"class.__gnu_cxx::__normal_iterator.46", align 8
  %30 = alloca %"class.__gnu_cxx::__normal_iterator.46", align 8
  %31 = alloca %"struct.std::greater", align 1
  store %"class.std::priority_queue"* %0, %"class.std::priority_queue"** %27, align 8
  store %"class.std::tuple"* %1, %"class.std::tuple"** %28, align 8
  %32 = load %"class.std::priority_queue"*, %"class.std::priority_queue"** %27, align 8
  %33 = getelementptr inbounds %"class.std::priority_queue", %"class.std::priority_queue"* %32, i32 0, i32 0
  %34 = load %"class.std::tuple"*, %"class.std::tuple"** %28, align 8
  %35 = call dereferenceable(16) %"class.std::tuple"* @_ZSt4moveIRSt5tupleIJdiEEEONSt16remove_referenceIT_E4typeEOS4_(%"class.std::tuple"* dereferenceable(16) %34) #4
  call void @_ZNSt6vectorISt5tupleIJdiEESaIS1_EE9push_backEOS1_(%"class.std::vector.10"* %33, %"class.std::tuple"* dereferenceable(16) %35)
  %36 = getelementptr inbounds %"class.std::priority_queue", %"class.std::priority_queue"* %32, i32 0, i32 0
  %37 = call %"class.std::tuple"* @_ZNSt6vectorISt5tupleIJdiEESaIS1_EE5beginEv(%"class.std::vector.10"* %36) #4
  %38 = getelementptr inbounds %"class.__gnu_cxx::__normal_iterator.46", %"class.__gnu_cxx::__normal_iterator.46"* %29, i32 0, i32 0
  store %"class.std::tuple"* %37, %"class.std::tuple"** %38, align 8
  %39 = getelementptr inbounds %"class.std::priority_queue", %"class.std::priority_queue"* %32, i32 0, i32 0
  %40 = call %"class.std::tuple"* @_ZNSt6vectorISt5tupleIJdiEESaIS1_EE3endEv(%"class.std::vector.10"* %39) #4
  %41 = getelementptr inbounds %"class.__gnu_cxx::__normal_iterator.46", %"class.__gnu_cxx::__normal_iterator.46"* %30, i32 0, i32 0
  store %"class.std::tuple"* %40, %"class.std::tuple"** %41, align 8
  %42 = getelementptr inbounds %"class.std::priority_queue", %"class.std::priority_queue"* %32, i32 0, i32 1
  %43 = getelementptr inbounds %"class.__gnu_cxx::__normal_iterator.46", %"class.__gnu_cxx::__normal_iterator.46"* %29, i32 0, i32 0
  %44 = load %"class.std::tuple"*, %"class.std::tuple"** %43, align 8
  %45 = getelementptr inbounds %"class.__gnu_cxx::__normal_iterator.46", %"class.__gnu_cxx::__normal_iterator.46"* %30, i32 0, i32 0
  %46 = load %"class.std::tuple"*, %"class.std::tuple"** %45, align 8
  call void @_ZSt9push_heapIN9__gnu_cxx17__normal_iteratorIPSt5tupleIJdiEESt6vectorIS3_SaIS3_EEEESt7greaterIS3_EEvT_SB_T0_(%"class.std::tuple"* %44, %"class.std::tuple"* %46)
  %47 = load i32, i32* @x.31
  %48 = load i32, i32* @y.32
  %49 = sub i32 0, 1
  %50 = add i32 %47, %49
  %51 = sub i32 %47, 1
  %52 = mul i32 %47, %50
  %53 = urem i32 %52, 2
  %54 = icmp eq i32 %53, 0
  %55 = icmp slt i32 %48, 10
  %56 = xor i1 %54, true
  %57 = xor i1 %55, true
  %58 = xor i1 false, true
  %59 = and i1 %56, false
  %60 = and i1 %54, %58
  %61 = and i1 %57, false
  %62 = and i1 %55, %58
  %63 = or i1 %59, %60
  %64 = or i1 %61, %62
  %65 = xor i1 %63, %64
  %66 = or i1 %56, %57
  %67 = xor i1 %66, true
  %68 = or i1 false, %58
  %69 = and i1 %67, %68
  %70 = or i1 %65, %69
  %71 = or i1 %54, %55
  %72 = select i1 %70, i32 1201127021, i32 155496230
  store i32 %72, i32* %14
  br label %95

; <label>:73:                                     ; preds = %15
  ret void

; <label>:74:                                     ; preds = %15
  %75 = alloca %"class.std::priority_queue"*, align 8
  %76 = alloca %"class.std::tuple"*, align 8
  %77 = alloca %"class.__gnu_cxx::__normal_iterator.46", align 8
  %78 = alloca %"class.__gnu_cxx::__normal_iterator.46", align 8
  %79 = alloca %"struct.std::greater", align 1
  store %"class.std::priority_queue"* %0, %"class.std::priority_queue"** %75, align 8
  store %"class.std::tuple"* %1, %"class.std::tuple"** %76, align 8
  %80 = load %"class.std::priority_queue"*, %"class.std::priority_queue"** %75, align 8
  %81 = getelementptr inbounds %"class.std::priority_queue", %"class.std::priority_queue"* %80, i32 0, i32 0
  %82 = load %"class.std::tuple"*, %"class.std::tuple"** %76, align 8
  %83 = call dereferenceable(16) %"class.std::tuple"* @_ZSt4moveIRSt5tupleIJdiEEEONSt16remove_referenceIT_E4typeEOS4_(%"class.std::tuple"* dereferenceable(16) %82) #4
  call void @_ZNSt6vectorISt5tupleIJdiEESaIS1_EE9push_backEOS1_(%"class.std::vector.10"* %81, %"class.std::tuple"* dereferenceable(16) %83)
  %84 = getelementptr inbounds %"class.std::priority_queue", %"class.std::priority_queue"* %80, i32 0, i32 0
  %85 = call %"class.std::tuple"* @_ZNSt6vectorISt5tupleIJdiEESaIS1_EE5beginEv(%"class.std::vector.10"* %84) #4
  %86 = getelementptr inbounds %"class.__gnu_cxx::__normal_iterator.46", %"class.__gnu_cxx::__normal_iterator.46"* %77, i32 0, i32 0
  store %"class.std::tuple"* %85, %"class.std::tuple"** %86, align 8
  %87 = getelementptr inbounds %"class.std::priority_queue", %"class.std::priority_queue"* %80, i32 0, i32 0
  %88 = call %"class.std::tuple"* @_ZNSt6vectorISt5tupleIJdiEESaIS1_EE3endEv(%"class.std::vector.10"* %87) #4
  %89 = getelementptr inbounds %"class.__gnu_cxx::__normal_iterator.46", %"class.__gnu_cxx::__normal_iterator.46"* %78, i32 0, i32 0
  store %"class.std::tuple"* %88, %"class.std::tuple"** %89, align 8
  %90 = getelementptr inbounds %"class.std::priority_queue", %"class.std::priority_queue"* %80, i32 0, i32 1
  %91 = getelementptr inbounds %"class.__gnu_cxx::__normal_iterator.46", %"class.__gnu_cxx::__normal_iterator.46"* %77, i32 0, i32 0
  %92 = load %"class.std::tuple"*, %"class.std::tuple"** %91, align 8
  %93 = getelementptr inbounds %"class.__gnu_cxx::__normal_iterator.46", %"class.__gnu_cxx::__normal_iterator.46"* %78, i32 0, i32 0
  %94 = load %"class.std::tuple"*, %"class.std::tuple"** %93, align 8
  call void @_ZSt9push_heapIN9__gnu_cxx17__normal_iteratorIPSt5tupleIJdiEESt6vectorIS3_SaIS3_EEEESt7greaterIS3_EEvT_SB_T0_(%"class.std::tuple"* %92, %"class.std::tuple"* %94)
  store i32 2104849691, i32* %14
  br label %95

; <label>:95:                                     ; preds = %74, %26, %18, %17
  br label %15
}

; Function Attrs: noinline uwtable
define linkonce_odr void @_ZNSt5tupleIJdiEEC2IiRKivEEOT_OT0_(%"class.std::tuple"*, i32* dereferenceable(4), i32* dereferenceable(4)) unnamed_addr #0 comdat align 2 {
  %4 = alloca %"class.std::tuple"*, align 8
  %5 = alloca i32*, align 8
  %6 = alloca i32*, align 8
  store %"class.std::tuple"* %0, %"class.std::tuple"** %4, align 8
  store i32* %1, i32** %5, align 8
  store i32* %2, i32** %6, align 8
  %7 = load %"class.std::tuple"*, %"class.std::tuple"** %4, align 8
  %8 = bitcast %"class.std::tuple"* %7 to %"struct.std::_Tuple_impl"*
  %9 = load i32*, i32** %5, align 8
  %10 = call dereferenceable(4) i32* @_ZSt7forwardIiEOT_RNSt16remove_referenceIS0_E4typeE(i32* dereferenceable(4) %9) #4
  %11 = load i32*, i32** %6, align 8
  %12 = call dereferenceable(4) i32* @_ZSt7forwardIRKiEOT_RNSt16remove_referenceIS2_E4typeE(i32* dereferenceable(4) %11) #4
  call void @_ZNSt11_Tuple_implILm0EJdiEEC2IiJRKiEvEEOT_DpOT0_(%"struct.std::_Tuple_impl"* %8, i32* dereferenceable(4) %10, i32* dereferenceable(4) %12)
  ret void
}

; Function Attrs: noinline nounwind uwtable
define linkonce_odr zeroext i1 @_ZNKSt14priority_queueISt5tupleIJdiEESt6vectorIS1_SaIS1_EESt7greaterIS1_EE5emptyEv(%"class.std::priority_queue"*) #1 comdat align 2 {
  %2 = alloca i1
  %3 = alloca i1
  %4 = alloca i1
  %5 = load i32, i32* @x.35
  %6 = load i32, i32* @y.36
  %7 = sub i32 0, 1
  %8 = add i32 %5, %7
  %9 = sub i32 %5, 1
  %10 = mul i32 %5, %8
  %11 = urem i32 %10, 2
  %12 = icmp eq i32 %11, 0
  store i1 %12, i1* %4
  %13 = icmp slt i32 %6, 10
  store i1 %13, i1* %3
  %14 = alloca i32
  store i32 -964824540, i32* %14
  br label %15

; <label>:15:                                     ; preds = %1, %65
  %16 = load i32, i32* %14
  switch i32 %16, label %17 [
    i32 -964824540, label %18
    i32 -1227737161, label %38
    i32 825734232, label %58
    i32 -750363112, label %60
  ]

; <label>:17:                                     ; preds = %15
  br label %65

; <label>:18:                                     ; preds = %15
  %19 = load volatile i1, i1* %4
  %20 = load volatile i1, i1* %3
  %21 = xor i1 %19, true
  %22 = xor i1 %20, true
  %23 = xor i1 false, true
  %24 = and i1 %21, false
  %25 = and i1 %19, %23
  %26 = and i1 %22, false
  %27 = and i1 %20, %23
  %28 = or i1 %24, %25
  %29 = or i1 %26, %27
  %30 = xor i1 %28, %29
  %31 = or i1 %21, %22
  %32 = xor i1 %31, true
  %33 = or i1 false, %23
  %34 = and i1 %32, %33
  %35 = or i1 %30, %34
  %36 = or i1 %19, %20
  %37 = select i1 %35, i32 -1227737161, i32 -750363112
  store i32 %37, i32* %14
  br label %65

; <label>:38:                                     ; preds = %15
  %39 = alloca %"class.std::priority_queue"*, align 8
  store %"class.std::priority_queue"* %0, %"class.std::priority_queue"** %39, align 8
  %40 = load %"class.std::priority_queue"*, %"class.std::priority_queue"** %39, align 8
  %41 = getelementptr inbounds %"class.std::priority_queue", %"class.std::priority_queue"* %40, i32 0, i32 0
  %42 = call zeroext i1 @_ZNKSt6vectorISt5tupleIJdiEESaIS1_EE5emptyEv(%"class.std::vector.10"* %41) #4
  store i1 %42, i1* %2
  %43 = load i32, i32* @x.35
  %44 = load i32, i32* @y.36
  %45 = add i32 %43, -1501916452
  %46 = sub i32 %45, 1
  %47 = sub i32 %46, -1501916452
  %48 = sub i32 %43, 1
  %49 = mul i32 %43, %47
  %50 = urem i32 %49, 2
  %51 = icmp eq i32 %50, 0
  %52 = icmp slt i32 %44, 10
  %53 = and i1 %51, %52
  %54 = xor i1 %51, %52
  %55 = or i1 %53, %54
  %56 = or i1 %51, %52
  %57 = select i1 %55, i32 825734232, i32 -750363112
  store i32 %57, i32* %14
  br label %65

; <label>:58:                                     ; preds = %15
  %59 = load volatile i1, i1* %2
  ret i1 %59

; <label>:60:                                     ; preds = %15
  %61 = alloca %"class.std::priority_queue"*, align 8
  store %"class.std::priority_queue"* %0, %"class.std::priority_queue"** %61, align 8
  %62 = load %"class.std::priority_queue"*, %"class.std::priority_queue"** %61, align 8
  %63 = getelementptr inbounds %"class.std::priority_queue", %"class.std::priority_queue"* %62, i32 0, i32 0
  %64 = call zeroext i1 @_ZNKSt6vectorISt5tupleIJdiEESaIS1_EE5emptyEv(%"class.std::vector.10"* %63) #4
  store i32 -1227737161, i32* %14
  br label %65

; <label>:65:                                     ; preds = %60, %38, %18, %17
  br label %15
}

; Function Attrs: noinline nounwind uwtable
define linkonce_odr dereferenceable(8) double* @_ZSt3getILm0EJdiEERKNSt13tuple_elementIXT_ESt5tupleIJDpT0_EEE4typeERKS4_(%"class.std::tuple"* dereferenceable(16)) #1 comdat {
  %2 = alloca %"class.std::tuple"*, align 8
  store %"class.std::tuple"* %0, %"class.std::tuple"** %2, align 8
  %3 = load %"class.std::tuple"*, %"class.std::tuple"** %2, align 8
  %4 = bitcast %"class.std::tuple"* %3 to %"struct.std::_Tuple_impl"*
  %5 = call dereferenceable(8) double* @_ZSt12__get_helperILm0EdJiEERKT0_RKSt11_Tuple_implIXT_EJS0_DpT1_EE(%"struct.std::_Tuple_impl"* dereferenceable(16) %4) #4
  ret double* %5
}

; Function Attrs: noinline nounwind uwtable
define linkonce_odr dereferenceable(16) %"class.std::tuple"* @_ZNKSt14priority_queueISt5tupleIJdiEESt6vectorIS1_SaIS1_EESt7greaterIS1_EE3topEv(%"class.std::priority_queue"*) #1 comdat align 2 {
  %2 = alloca %"class.std::priority_queue"*, align 8
  store %"class.std::priority_queue"* %0, %"class.std::priority_queue"** %2, align 8
  %3 = load %"class.std::priority_queue"*, %"class.std::priority_queue"** %2, align 8
  %4 = getelementptr inbounds %"class.std::priority_queue", %"class.std::priority_queue"* %3, i32 0, i32 0
  %5 = call dereferenceable(16) %"class.std::tuple"* @_ZNKSt6vectorISt5tupleIJdiEESaIS1_EE5frontEv(%"class.std::vector.10"* %4) #4
  ret %"class.std::tuple"* %5
}

; Function Attrs: noinline nounwind uwtable
define linkonce_odr dereferenceable(4) i32* @_ZSt3getILm1EJdiEERKNSt13tuple_elementIXT_ESt5tupleIJDpT0_EEE4typeERKS4_(%"class.std::tuple"* dereferenceable(16)) #1 comdat {
  %2 = alloca i32*
  %3 = alloca i1
  %4 = alloca i1
  %5 = load i32, i32* @x.41
  %6 = load i32, i32* @y.42
  %7 = sub i32 0, 1
  %8 = add i32 %5, %7
  %9 = sub i32 %5, 1
  %10 = mul i32 %5, %8
  %11 = urem i32 %10, 2
  %12 = icmp eq i32 %11, 0
  store i1 %12, i1* %4
  %13 = icmp slt i32 %6, 10
  store i1 %13, i1* %3
  %14 = alloca i32
  store i32 1095881298, i32* %14
  br label %15

; <label>:15:                                     ; preds = %1, %52
  %16 = load i32, i32* %14
  switch i32 %16, label %17 [
    i32 1095881298, label %18
    i32 -1227294365, label %26
    i32 -1228873457, label %45
    i32 1336754033, label %47
  ]

; <label>:17:                                     ; preds = %15
  br label %52

; <label>:18:                                     ; preds = %15
  %19 = load volatile i1, i1* %4
  %20 = load volatile i1, i1* %3
  %21 = and i1 %19, %20
  %22 = xor i1 %19, %20
  %23 = or i1 %21, %22
  %24 = or i1 %19, %20
  %25 = select i1 %23, i32 -1227294365, i32 1336754033
  store i32 %25, i32* %14
  br label %52

; <label>:26:                                     ; preds = %15
  %27 = alloca %"class.std::tuple"*, align 8
  store %"class.std::tuple"* %0, %"class.std::tuple"** %27, align 8
  %28 = load %"class.std::tuple"*, %"class.std::tuple"** %27, align 8
  %29 = bitcast %"class.std::tuple"* %28 to %"struct.std::_Tuple_impl.15"*
  %30 = call dereferenceable(4) i32* @_ZSt12__get_helperILm1EiJEERKT0_RKSt11_Tuple_implIXT_EJS0_DpT1_EE(%"struct.std::_Tuple_impl.15"* dereferenceable(4) %29) #4
  store i32* %30, i32** %2
  %31 = load i32, i32* @x.41
  %32 = load i32, i32* @y.42
  %33 = sub i32 0, 1
  %34 = add i32 %31, %33
  %35 = sub i32 %31, 1
  %36 = mul i32 %31, %34
  %37 = urem i32 %36, 2
  %38 = icmp eq i32 %37, 0
  %39 = icmp slt i32 %32, 10
  %40 = and i1 %38, %39
  %41 = xor i1 %38, %39
  %42 = or i1 %40, %41
  %43 = or i1 %38, %39
  %44 = select i1 %42, i32 -1228873457, i32 1336754033
  store i32 %44, i32* %14
  br label %52

; <label>:45:                                     ; preds = %15
  %46 = load volatile i32*, i32** %2
  ret i32* %46

; <label>:47:                                     ; preds = %15
  %48 = alloca %"class.std::tuple"*, align 8
  store %"class.std::tuple"* %0, %"class.std::tuple"** %48, align 8
  %49 = load %"class.std::tuple"*, %"class.std::tuple"** %48, align 8
  %50 = bitcast %"class.std::tuple"* %49 to %"struct.std::_Tuple_impl.15"*
  %51 = call dereferenceable(4) i32* @_ZSt12__get_helperILm1EiJEERKT0_RKSt11_Tuple_implIXT_EJS0_DpT1_EE(%"struct.std::_Tuple_impl.15"* dereferenceable(4) %50) #4
  store i32 -1227294365, i32* %14
  br label %52

; <label>:52:                                     ; preds = %47, %26, %18, %17
  br label %15
}

; Function Attrs: noinline uwtable
define linkonce_odr void @_ZNSt14priority_queueISt5tupleIJdiEESt6vectorIS1_SaIS1_EESt7greaterIS1_EE3popEv(%"class.std::priority_queue"*) #0 comdat align 2 {
  %2 = alloca i1
  %3 = alloca i1
  %4 = load i32, i32* @x.43
  %5 = load i32, i32* @y.44
  %6 = add i32 %4, -1422692174
  %7 = sub i32 %6, 1
  %8 = sub i32 %7, -1422692174
  %9 = sub i32 %4, 1
  %10 = mul i32 %4, %8
  %11 = urem i32 %10, 2
  %12 = icmp eq i32 %11, 0
  store i1 %12, i1* %3
  %13 = icmp slt i32 %5, 10
  store i1 %13, i1* %2
  %14 = alloca i32
  store i32 241996454, i32* %14
  br label %15

; <label>:15:                                     ; preds = %1, %78
  %16 = load i32, i32* %14
  switch i32 %16, label %17 [
    i32 241996454, label %18
    i32 -9285665, label %26
    i32 -1962670684, label %59
    i32 499219191, label %60
  ]

; <label>:17:                                     ; preds = %15
  br label %78

; <label>:18:                                     ; preds = %15
  %19 = load volatile i1, i1* %3
  %20 = load volatile i1, i1* %2
  %21 = and i1 %19, %20
  %22 = xor i1 %19, %20
  %23 = or i1 %21, %22
  %24 = or i1 %19, %20
  %25 = select i1 %23, i32 -9285665, i32 499219191
  store i32 %25, i32* %14
  br label %78

; <label>:26:                                     ; preds = %15
  %27 = alloca %"class.std::priority_queue"*, align 8
  %28 = alloca %"class.__gnu_cxx::__normal_iterator.46", align 8
  %29 = alloca %"class.__gnu_cxx::__normal_iterator.46", align 8
  %30 = alloca %"struct.std::greater", align 1
  store %"class.std::priority_queue"* %0, %"class.std::priority_queue"** %27, align 8
  %31 = load %"class.std::priority_queue"*, %"class.std::priority_queue"** %27, align 8
  %32 = getelementptr inbounds %"class.std::priority_queue", %"class.std::priority_queue"* %31, i32 0, i32 0
  %33 = call %"class.std::tuple"* @_ZNSt6vectorISt5tupleIJdiEESaIS1_EE5beginEv(%"class.std::vector.10"* %32) #4
  %34 = getelementptr inbounds %"class.__gnu_cxx::__normal_iterator.46", %"class.__gnu_cxx::__normal_iterator.46"* %28, i32 0, i32 0
  store %"class.std::tuple"* %33, %"class.std::tuple"** %34, align 8
  %35 = getelementptr inbounds %"class.std::priority_queue", %"class.std::priority_queue"* %31, i32 0, i32 0
  %36 = call %"class.std::tuple"* @_ZNSt6vectorISt5tupleIJdiEESaIS1_EE3endEv(%"class.std::vector.10"* %35) #4
  %37 = getelementptr inbounds %"class.__gnu_cxx::__normal_iterator.46", %"class.__gnu_cxx::__normal_iterator.46"* %29, i32 0, i32 0
  store %"class.std::tuple"* %36, %"class.std::tuple"** %37, align 8
  %38 = getelementptr inbounds %"class.std::priority_queue", %"class.std::priority_queue"* %31, i32 0, i32 1
  %39 = getelementptr inbounds %"class.__gnu_cxx::__normal_iterator.46", %"class.__gnu_cxx::__normal_iterator.46"* %28, i32 0, i32 0
  %40 = load %"class.std::tuple"*, %"class.std::tuple"** %39, align 8
  %41 = getelementptr inbounds %"class.__gnu_cxx::__normal_iterator.46", %"class.__gnu_cxx::__normal_iterator.46"* %29, i32 0, i32 0
  %42 = load %"class.std::tuple"*, %"class.std::tuple"** %41, align 8
  call void @_ZSt8pop_heapIN9__gnu_cxx17__normal_iteratorIPSt5tupleIJdiEESt6vectorIS3_SaIS3_EEEESt7greaterIS3_EEvT_SB_T0_(%"class.std::tuple"* %40, %"class.std::tuple"* %42)
  %43 = getelementptr inbounds %"class.std::priority_queue", %"class.std::priority_queue"* %31, i32 0, i32 0
  call void @_ZNSt6vectorISt5tupleIJdiEESaIS1_EE8pop_backEv(%"class.std::vector.10"* %43) #4
  %44 = load i32, i32* @x.43
  %45 = load i32, i32* @y.44
  %46 = sub i32 %44, -506013448
  %47 = sub i32 %46, 1
  %48 = add i32 %47, -506013448
  %49 = sub i32 %44, 1
  %50 = mul i32 %44, %48
  %51 = urem i32 %50, 2
  %52 = icmp eq i32 %51, 0
  %53 = icmp slt i32 %45, 10
  %54 = and i1 %52, %53
  %55 = xor i1 %52, %53
  %56 = or i1 %54, %55
  %57 = or i1 %52, %53
  %58 = select i1 %56, i32 -1962670684, i32 499219191
  store i32 %58, i32* %14
  br label %78

; <label>:59:                                     ; preds = %15
  ret void

; <label>:60:                                     ; preds = %15
  %61 = alloca %"class.std::priority_queue"*, align 8
  %62 = alloca %"class.__gnu_cxx::__normal_iterator.46", align 8
  %63 = alloca %"class.__gnu_cxx::__normal_iterator.46", align 8
  %64 = alloca %"struct.std::greater", align 1
  store %"class.std::priority_queue"* %0, %"class.std::priority_queue"** %61, align 8
  %65 = load %"class.std::priority_queue"*, %"class.std::priority_queue"** %61, align 8
  %66 = getelementptr inbounds %"class.std::priority_queue", %"class.std::priority_queue"* %65, i32 0, i32 0
  %67 = call %"class.std::tuple"* @_ZNSt6vectorISt5tupleIJdiEESaIS1_EE5beginEv(%"class.std::vector.10"* %66) #4
  %68 = getelementptr inbounds %"class.__gnu_cxx::__normal_iterator.46", %"class.__gnu_cxx::__normal_iterator.46"* %62, i32 0, i32 0
  store %"class.std::tuple"* %67, %"class.std::tuple"** %68, align 8
  %69 = getelementptr inbounds %"class.std::priority_queue", %"class.std::priority_queue"* %65, i32 0, i32 0
  %70 = call %"class.std::tuple"* @_ZNSt6vectorISt5tupleIJdiEESaIS1_EE3endEv(%"class.std::vector.10"* %69) #4
  %71 = getelementptr inbounds %"class.__gnu_cxx::__normal_iterator.46", %"class.__gnu_cxx::__normal_iterator.46"* %63, i32 0, i32 0
  store %"class.std::tuple"* %70, %"class.std::tuple"** %71, align 8
  %72 = getelementptr inbounds %"class.std::priority_queue", %"class.std::priority_queue"* %65, i32 0, i32 1
  %73 = getelementptr inbounds %"class.__gnu_cxx::__normal_iterator.46", %"class.__gnu_cxx::__normal_iterator.46"* %62, i32 0, i32 0
  %74 = load %"class.std::tuple"*, %"class.std::tuple"** %73, align 8
  %75 = getelementptr inbounds %"class.__gnu_cxx::__normal_iterator.46", %"class.__gnu_cxx::__normal_iterator.46"* %63, i32 0, i32 0
  %76 = load %"class.std::tuple"*, %"class.std::tuple"** %75, align 8
  call void @_ZSt8pop_heapIN9__gnu_cxx17__normal_iteratorIPSt5tupleIJdiEESt6vectorIS3_SaIS3_EEEESt7greaterIS3_EEvT_SB_T0_(%"class.std::tuple"* %74, %"class.std::tuple"* %76)
  %77 = getelementptr inbounds %"class.std::priority_queue", %"class.std::priority_queue"* %65, i32 0, i32 0
  call void @_ZNSt6vectorISt5tupleIJdiEESaIS1_EE8pop_backEv(%"class.std::vector.10"* %77) #4
  store i32 -9285665, i32* %14
  br label %78

; <label>:78:                                     ; preds = %60, %26, %18, %17
  br label %15
}

; Function Attrs: noinline nounwind uwtable
define linkonce_odr dereferenceable(4) i32* @_ZNSt6vectorIiSaIiEEixEm(%"class.std::vector.5"*, i64) #1 comdat align 2 {
  %3 = alloca %"class.std::vector.5"*, align 8
  %4 = alloca i64, align 8
  store %"class.std::vector.5"* %0, %"class.std::vector.5"** %3, align 8
  store i64 %1, i64* %4, align 8
  %5 = load %"class.std::vector.5"*, %"class.std::vector.5"** %3, align 8
  %6 = bitcast %"class.std::vector.5"* %5 to %"struct.std::_Vector_base.6"*
  %7 = getelementptr inbounds %"struct.std::_Vector_base.6", %"struct.std::_Vector_base.6"* %6, i32 0, i32 0
  %8 = getelementptr inbounds %"struct.std::_Vector_base<int, std::allocator<int> >::_Vector_impl", %"struct.std::_Vector_base<int, std::allocator<int> >::_Vector_impl"* %7, i32 0, i32 0
  %9 = load i32*, i32** %8, align 8
  %10 = load i64, i64* %4, align 8
  %11 = getelementptr inbounds i32, i32* %9, i64 %10
  ret i32* %11
}

; Function Attrs: noinline nounwind uwtable
define linkonce_odr dereferenceable(24) %"class.std::vector.0"* @_ZNK5Graph4edgeEi(%class.Graph*, i32) #1 comdat align 2 {
  %3 = alloca %"class.std::vector.0"*
  %4 = alloca i1
  %5 = alloca i1
  %6 = load i32, i32* @x.47
  %7 = load i32, i32* @y.48
  %8 = sub i32 %6, 2090291759
  %9 = sub i32 %8, 1
  %10 = add i32 %9, 2090291759
  %11 = sub i32 %6, 1
  %12 = mul i32 %6, %10
  %13 = urem i32 %12, 2
  %14 = icmp eq i32 %13, 0
  store i1 %14, i1* %5
  %15 = icmp slt i32 %7, 10
  store i1 %15, i1* %4
  %16 = alloca i32
  store i32 64852914, i32* %16
  br label %17

; <label>:17:                                     ; preds = %2, %73
  %18 = load i32, i32* %16
  switch i32 %18, label %19 [
    i32 64852914, label %20
    i32 -2102431516, label %40
    i32 583440243, label %63
    i32 2072858231, label %65
  ]

; <label>:19:                                     ; preds = %17
  br label %73

; <label>:20:                                     ; preds = %17
  %21 = load volatile i1, i1* %5
  %22 = load volatile i1, i1* %4
  %23 = xor i1 %21, true
  %24 = xor i1 %22, true
  %25 = xor i1 true, true
  %26 = and i1 %23, true
  %27 = and i1 %21, %25
  %28 = and i1 %24, true
  %29 = and i1 %22, %25
  %30 = or i1 %26, %27
  %31 = or i1 %28, %29
  %32 = xor i1 %30, %31
  %33 = or i1 %23, %24
  %34 = xor i1 %33, true
  %35 = or i1 true, %25
  %36 = and i1 %34, %35
  %37 = or i1 %32, %36
  %38 = or i1 %21, %22
  %39 = select i1 %37, i32 -2102431516, i32 2072858231
  store i32 %39, i32* %16
  br label %73

; <label>:40:                                     ; preds = %17
  %41 = alloca %class.Graph*, align 8
  %42 = alloca i32, align 4
  store %class.Graph* %0, %class.Graph** %41, align 8
  store i32 %1, i32* %42, align 4
  %43 = load %class.Graph*, %class.Graph** %41, align 8
  %44 = getelementptr inbounds %class.Graph, %class.Graph* %43, i32 0, i32 1
  %45 = load i32, i32* %42, align 4
  %46 = sext i32 %45 to i64
  %47 = call dereferenceable(24) %"class.std::vector.0"* @_ZNKSt6vectorIS_I4EdgeSaIS0_EESaIS2_EEixEm(%"class.std::vector"* %44, i64 %46) #4
  store %"class.std::vector.0"* %47, %"class.std::vector.0"** %3
  %48 = load i32, i32* @x.47
  %49 = load i32, i32* @y.48
  %50 = add i32 %48, 1808917531
  %51 = sub i32 %50, 1
  %52 = sub i32 %51, 1808917531
  %53 = sub i32 %48, 1
  %54 = mul i32 %48, %52
  %55 = urem i32 %54, 2
  %56 = icmp eq i32 %55, 0
  %57 = icmp slt i32 %49, 10
  %58 = and i1 %56, %57
  %59 = xor i1 %56, %57
  %60 = or i1 %58, %59
  %61 = or i1 %56, %57
  %62 = select i1 %60, i32 583440243, i32 2072858231
  store i32 %62, i32* %16
  br label %73

; <label>:63:                                     ; preds = %17
  %64 = load volatile %"class.std::vector.0"*, %"class.std::vector.0"** %3
  ret %"class.std::vector.0"* %64

; <label>:65:                                     ; preds = %17
  %66 = alloca %class.Graph*, align 8
  %67 = alloca i32, align 4
  store %class.Graph* %0, %class.Graph** %66, align 8
  store i32 %1, i32* %67, align 4
  %68 = load %class.Graph*, %class.Graph** %66, align 8
  %69 = getelementptr inbounds %class.Graph, %class.Graph* %68, i32 0, i32 1
  %70 = load i32, i32* %67, align 4
  %71 = sext i32 %70 to i64
  %72 = call dereferenceable(24) %"class.std::vector.0"* @_ZNKSt6vectorIS_I4EdgeSaIS0_EESaIS2_EEixEm(%"class.std::vector"* %69, i64 %71) #4
  store i32 -2102431516, i32* %16
  br label %73

; <label>:73:                                     ; preds = %65, %40, %20, %19
  br label %17
}

; Function Attrs: noinline nounwind uwtable
define linkonce_odr %class.Edge* @_ZNKSt6vectorI4EdgeSaIS0_EE5beginEv(%"class.std::vector.0"*) #1 comdat align 2 {
  %2 = alloca %class.Edge*
  %3 = alloca i1
  %4 = alloca i1
  %5 = load i32, i32* @x.49
  %6 = load i32, i32* @y.50
  %7 = sub i32 %5, 836853539
  %8 = sub i32 %7, 1
  %9 = add i32 %8, 836853539
  %10 = sub i32 %5, 1
  %11 = mul i32 %5, %9
  %12 = urem i32 %11, 2
  %13 = icmp eq i32 %12, 0
  store i1 %13, i1* %4
  %14 = icmp slt i32 %6, 10
  store i1 %14, i1* %3
  %15 = alloca i32
  store i32 1997542489, i32* %15
  br label %16

; <label>:16:                                     ; preds = %1, %90
  %17 = load i32, i32* %15
  switch i32 %17, label %18 [
    i32 1997542489, label %19
    i32 -169142536, label %39
    i32 1451766026, label %77
    i32 577773937, label %79
  ]

; <label>:18:                                     ; preds = %16
  br label %90

; <label>:19:                                     ; preds = %16
  %20 = load volatile i1, i1* %4
  %21 = load volatile i1, i1* %3
  %22 = xor i1 %20, true
  %23 = xor i1 %21, true
  %24 = xor i1 true, true
  %25 = and i1 %22, true
  %26 = and i1 %20, %24
  %27 = and i1 %23, true
  %28 = and i1 %21, %24
  %29 = or i1 %25, %26
  %30 = or i1 %27, %28
  %31 = xor i1 %29, %30
  %32 = or i1 %22, %23
  %33 = xor i1 %32, true
  %34 = or i1 true, %24
  %35 = and i1 %33, %34
  %36 = or i1 %31, %35
  %37 = or i1 %20, %21
  %38 = select i1 %36, i32 -169142536, i32 577773937
  store i32 %38, i32* %15
  br label %90

; <label>:39:                                     ; preds = %16
  %40 = alloca %"class.__gnu_cxx::__normal_iterator", align 8
  %41 = alloca %"class.std::vector.0"*, align 8
  %42 = alloca %class.Edge*, align 8
  store %"class.std::vector.0"* %0, %"class.std::vector.0"** %41, align 8
  %43 = load %"class.std::vector.0"*, %"class.std::vector.0"** %41, align 8
  %44 = bitcast %"class.std::vector.0"* %43 to %"struct.std::_Vector_base.1"*
  %45 = getelementptr inbounds %"struct.std::_Vector_base.1", %"struct.std::_Vector_base.1"* %44, i32 0, i32 0
  %46 = getelementptr inbounds %"struct.std::_Vector_base<Edge, std::allocator<Edge> >::_Vector_impl", %"struct.std::_Vector_base<Edge, std::allocator<Edge> >::_Vector_impl"* %45, i32 0, i32 0
  %47 = load %class.Edge*, %class.Edge** %46, align 8
  store %class.Edge* %47, %class.Edge** %42, align 8
  call void @_ZN9__gnu_cxx17__normal_iteratorIPK4EdgeSt6vectorIS1_SaIS1_EEEC2ERKS3_(%"class.__gnu_cxx::__normal_iterator"* %40, %class.Edge** dereferenceable(8) %42) #4
  %48 = getelementptr inbounds %"class.__gnu_cxx::__normal_iterator", %"class.__gnu_cxx::__normal_iterator"* %40, i32 0, i32 0
  %49 = load %class.Edge*, %class.Edge** %48, align 8
  store %class.Edge* %49, %class.Edge** %2
  %50 = load i32, i32* @x.49
  %51 = load i32, i32* @y.50
  %52 = add i32 %50, -194638012
  %53 = sub i32 %52, 1
  %54 = sub i32 %53, -194638012
  %55 = sub i32 %50, 1
  %56 = mul i32 %50, %54
  %57 = urem i32 %56, 2
  %58 = icmp eq i32 %57, 0
  %59 = icmp slt i32 %51, 10
  %60 = xor i1 %58, true
  %61 = xor i1 %59, true
  %62 = xor i1 false, true
  %63 = and i1 %60, false
  %64 = and i1 %58, %62
  %65 = and i1 %61, false
  %66 = and i1 %59, %62
  %67 = or i1 %63, %64
  %68 = or i1 %65, %66
  %69 = xor i1 %67, %68
  %70 = or i1 %60, %61
  %71 = xor i1 %70, true
  %72 = or i1 false, %62
  %73 = and i1 %71, %72
  %74 = or i1 %69, %73
  %75 = or i1 %58, %59
  %76 = select i1 %74, i32 1451766026, i32 577773937
  store i32 %76, i32* %15
  br label %90

; <label>:77:                                     ; preds = %16
  %78 = load volatile %class.Edge*, %class.Edge** %2
  ret %class.Edge* %78

; <label>:79:                                     ; preds = %16
  %80 = alloca %"class.__gnu_cxx::__normal_iterator", align 8
  %81 = alloca %"class.std::vector.0"*, align 8
  %82 = alloca %class.Edge*, align 8
  store %"class.std::vector.0"* %0, %"class.std::vector.0"** %81, align 8
  %83 = load %"class.std::vector.0"*, %"class.std::vector.0"** %81, align 8
  %84 = bitcast %"class.std::vector.0"* %83 to %"struct.std::_Vector_base.1"*
  %85 = getelementptr inbounds %"struct.std::_Vector_base.1", %"struct.std::_Vector_base.1"* %84, i32 0, i32 0
  %86 = getelementptr inbounds %"struct.std::_Vector_base<Edge, std::allocator<Edge> >::_Vector_impl", %"struct.std::_Vector_base<Edge, std::allocator<Edge> >::_Vector_impl"* %85, i32 0, i32 0
  %87 = load %class.Edge*, %class.Edge** %86, align 8
  store %class.Edge* %87, %class.Edge** %82, align 8
  call void @_ZN9__gnu_cxx17__normal_iteratorIPK4EdgeSt6vectorIS1_SaIS1_EEEC2ERKS3_(%"class.__gnu_cxx::__normal_iterator"* %80, %class.Edge** dereferenceable(8) %82) #4
  %88 = getelementptr inbounds %"class.__gnu_cxx::__normal_iterator", %"class.__gnu_cxx::__normal_iterator"* %80, i32 0, i32 0
  %89 = load %class.Edge*, %class.Edge** %88, align 8
  store i32 -169142536, i32* %15
  br label %90

; <label>:90:                                     ; preds = %79, %39, %19, %18
  br label %16
}

; Function Attrs: noinline nounwind uwtable
define linkonce_odr %class.Edge* @_ZNKSt6vectorI4EdgeSaIS0_EE3endEv(%"class.std::vector.0"*) #1 comdat align 2 {
  %2 = alloca %class.Edge*
  %3 = alloca i1
  %4 = alloca i1
  %5 = load i32, i32* @x.51
  %6 = load i32, i32* @y.52
  %7 = add i32 %5, 1137439876
  %8 = sub i32 %7, 1
  %9 = sub i32 %8, 1137439876
  %10 = sub i32 %5, 1
  %11 = mul i32 %5, %9
  %12 = urem i32 %11, 2
  %13 = icmp eq i32 %12, 0
  store i1 %13, i1* %4
  %14 = icmp slt i32 %6, 10
  store i1 %14, i1* %3
  %15 = alloca i32
  store i32 1611912270, i32* %15
  br label %16

; <label>:16:                                     ; preds = %1, %78
  %17 = load i32, i32* %15
  switch i32 %17, label %18 [
    i32 1611912270, label %19
    i32 676071217, label %27
    i32 -296646708, label %65
    i32 -236279382, label %67
  ]

; <label>:18:                                     ; preds = %16
  br label %78

; <label>:19:                                     ; preds = %16
  %20 = load volatile i1, i1* %4
  %21 = load volatile i1, i1* %3
  %22 = and i1 %20, %21
  %23 = xor i1 %20, %21
  %24 = or i1 %22, %23
  %25 = or i1 %20, %21
  %26 = select i1 %24, i32 676071217, i32 -236279382
  store i32 %26, i32* %15
  br label %78

; <label>:27:                                     ; preds = %16
  %28 = alloca %"class.__gnu_cxx::__normal_iterator", align 8
  %29 = alloca %"class.std::vector.0"*, align 8
  %30 = alloca %class.Edge*, align 8
  store %"class.std::vector.0"* %0, %"class.std::vector.0"** %29, align 8
  %31 = load %"class.std::vector.0"*, %"class.std::vector.0"** %29, align 8
  %32 = bitcast %"class.std::vector.0"* %31 to %"struct.std::_Vector_base.1"*
  %33 = getelementptr inbounds %"struct.std::_Vector_base.1", %"struct.std::_Vector_base.1"* %32, i32 0, i32 0
  %34 = getelementptr inbounds %"struct.std::_Vector_base<Edge, std::allocator<Edge> >::_Vector_impl", %"struct.std::_Vector_base<Edge, std::allocator<Edge> >::_Vector_impl"* %33, i32 0, i32 1
  %35 = load %class.Edge*, %class.Edge** %34, align 8
  store %class.Edge* %35, %class.Edge** %30, align 8
  call void @_ZN9__gnu_cxx17__normal_iteratorIPK4EdgeSt6vectorIS1_SaIS1_EEEC2ERKS3_(%"class.__gnu_cxx::__normal_iterator"* %28, %class.Edge** dereferenceable(8) %30) #4
  %36 = getelementptr inbounds %"class.__gnu_cxx::__normal_iterator", %"class.__gnu_cxx::__normal_iterator"* %28, i32 0, i32 0
  %37 = load %class.Edge*, %class.Edge** %36, align 8
  store %class.Edge* %37, %class.Edge** %2
  %38 = load i32, i32* @x.51
  %39 = load i32, i32* @y.52
  %40 = add i32 %38, -1181920629
  %41 = sub i32 %40, 1
  %42 = sub i32 %41, -1181920629
  %43 = sub i32 %38, 1
  %44 = mul i32 %38, %42
  %45 = urem i32 %44, 2
  %46 = icmp eq i32 %45, 0
  %47 = icmp slt i32 %39, 10
  %48 = xor i1 %46, true
  %49 = xor i1 %47, true
  %50 = xor i1 true, true
  %51 = and i1 %48, true
  %52 = and i1 %46, %50
  %53 = and i1 %49, true
  %54 = and i1 %47, %50
  %55 = or i1 %51, %52
  %56 = or i1 %53, %54
  %57 = xor i1 %55, %56
  %58 = or i1 %48, %49
  %59 = xor i1 %58, true
  %60 = or i1 true, %50
  %61 = and i1 %59, %60
  %62 = or i1 %57, %61
  %63 = or i1 %46, %47
  %64 = select i1 %62, i32 -296646708, i32 -236279382
  store i32 %64, i32* %15
  br label %78

; <label>:65:                                     ; preds = %16
  %66 = load volatile %class.Edge*, %class.Edge** %2
  ret %class.Edge* %66

; <label>:67:                                     ; preds = %16
  %68 = alloca %"class.__gnu_cxx::__normal_iterator", align 8
  %69 = alloca %"class.std::vector.0"*, align 8
  %70 = alloca %class.Edge*, align 8
  store %"class.std::vector.0"* %0, %"class.std::vector.0"** %69, align 8
  %71 = load %"class.std::vector.0"*, %"class.std::vector.0"** %69, align 8
  %72 = bitcast %"class.std::vector.0"* %71 to %"struct.std::_Vector_base.1"*
  %73 = getelementptr inbounds %"struct.std::_Vector_base.1", %"struct.std::_Vector_base.1"* %72, i32 0, i32 0
  %74 = getelementptr inbounds %"struct.std::_Vector_base<Edge, std::allocator<Edge> >::_Vector_impl", %"struct.std::_Vector_base<Edge, std::allocator<Edge> >::_Vector_impl"* %73, i32 0, i32 1
  %75 = load %class.Edge*, %class.Edge** %74, align 8
  store %class.Edge* %75, %class.Edge** %70, align 8
  call void @_ZN9__gnu_cxx17__normal_iteratorIPK4EdgeSt6vectorIS1_SaIS1_EEEC2ERKS3_(%"class.__gnu_cxx::__normal_iterator"* %68, %class.Edge** dereferenceable(8) %70) #4
  %76 = getelementptr inbounds %"class.__gnu_cxx::__normal_iterator", %"class.__gnu_cxx::__normal_iterator"* %68, i32 0, i32 0
  %77 = load %class.Edge*, %class.Edge** %76, align 8
  store i32 676071217, i32* %15
  br label %78

; <label>:78:                                     ; preds = %67, %27, %19, %18
  br label %16
}

; Function Attrs: noinline nounwind uwtable
define linkonce_odr zeroext i1 @_ZN9__gnu_cxxneIPK4EdgeSt6vectorIS1_SaIS1_EEEEbRKNS_17__normal_iteratorIT_T0_EESC_(%"class.__gnu_cxx::__normal_iterator"* dereferenceable(8), %"class.__gnu_cxx::__normal_iterator"* dereferenceable(8)) #1 comdat {
  %3 = alloca %"class.__gnu_cxx::__normal_iterator"*, align 8
  %4 = alloca %"class.__gnu_cxx::__normal_iterator"*, align 8
  store %"class.__gnu_cxx::__normal_iterator"* %0, %"class.__gnu_cxx::__normal_iterator"** %3, align 8
  store %"class.__gnu_cxx::__normal_iterator"* %1, %"class.__gnu_cxx::__normal_iterator"** %4, align 8
  %5 = load %"class.__gnu_cxx::__normal_iterator"*, %"class.__gnu_cxx::__normal_iterator"** %3, align 8
  %6 = call dereferenceable(8) %class.Edge** @_ZNK9__gnu_cxx17__normal_iteratorIPK4EdgeSt6vectorIS1_SaIS1_EEE4baseEv(%"class.__gnu_cxx::__normal_iterator"* %5) #4
  %7 = load %class.Edge*, %class.Edge** %6, align 8
  %8 = load %"class.__gnu_cxx::__normal_iterator"*, %"class.__gnu_cxx::__normal_iterator"** %4, align 8
  %9 = call dereferenceable(8) %class.Edge** @_ZNK9__gnu_cxx17__normal_iteratorIPK4EdgeSt6vectorIS1_SaIS1_EEE4baseEv(%"class.__gnu_cxx::__normal_iterator"* %8) #4
  %10 = load %class.Edge*, %class.Edge** %9, align 8
  %11 = icmp ne %class.Edge* %7, %10
  ret i1 %11
}

; Function Attrs: noinline nounwind uwtable
define linkonce_odr dereferenceable(16) %class.Edge* @_ZNK9__gnu_cxx17__normal_iteratorIPK4EdgeSt6vectorIS1_SaIS1_EEEdeEv(%"class.__gnu_cxx::__normal_iterator"*) #1 comdat align 2 {
  %2 = alloca %class.Edge*
  %3 = alloca i1
  %4 = alloca i1
  %5 = load i32, i32* @x.55
  %6 = load i32, i32* @y.56
  %7 = add i32 %5, 2049268250
  %8 = sub i32 %7, 1
  %9 = sub i32 %8, 2049268250
  %10 = sub i32 %5, 1
  %11 = mul i32 %5, %9
  %12 = urem i32 %11, 2
  %13 = icmp eq i32 %12, 0
  store i1 %13, i1* %4
  %14 = icmp slt i32 %6, 10
  store i1 %14, i1* %3
  %15 = alloca i32
  store i32 -1684261301, i32* %15
  br label %16

; <label>:16:                                     ; preds = %1, %53
  %17 = load i32, i32* %15
  switch i32 %17, label %18 [
    i32 -1684261301, label %19
    i32 1962960993, label %27
    i32 -815826497, label %46
    i32 615688745, label %48
  ]

; <label>:18:                                     ; preds = %16
  br label %53

; <label>:19:                                     ; preds = %16
  %20 = load volatile i1, i1* %4
  %21 = load volatile i1, i1* %3
  %22 = and i1 %20, %21
  %23 = xor i1 %20, %21
  %24 = or i1 %22, %23
  %25 = or i1 %20, %21
  %26 = select i1 %24, i32 1962960993, i32 615688745
  store i32 %26, i32* %15
  br label %53

; <label>:27:                                     ; preds = %16
  %28 = alloca %"class.__gnu_cxx::__normal_iterator"*, align 8
  store %"class.__gnu_cxx::__normal_iterator"* %0, %"class.__gnu_cxx::__normal_iterator"** %28, align 8
  %29 = load %"class.__gnu_cxx::__normal_iterator"*, %"class.__gnu_cxx::__normal_iterator"** %28, align 8
  %30 = getelementptr inbounds %"class.__gnu_cxx::__normal_iterator", %"class.__gnu_cxx::__normal_iterator"* %29, i32 0, i32 0
  %31 = load %class.Edge*, %class.Edge** %30, align 8
  store %class.Edge* %31, %class.Edge** %2
  %32 = load i32, i32* @x.55
  %33 = load i32, i32* @y.56
  %34 = sub i32 0, 1
  %35 = add i32 %32, %34
  %36 = sub i32 %32, 1
  %37 = mul i32 %32, %35
  %38 = urem i32 %37, 2
  %39 = icmp eq i32 %38, 0
  %40 = icmp slt i32 %33, 10
  %41 = and i1 %39, %40
  %42 = xor i1 %39, %40
  %43 = or i1 %41, %42
  %44 = or i1 %39, %40
  %45 = select i1 %43, i32 -815826497, i32 615688745
  store i32 %45, i32* %15
  br label %53

; <label>:46:                                     ; preds = %16
  %47 = load volatile %class.Edge*, %class.Edge** %2
  ret %class.Edge* %47

; <label>:48:                                     ; preds = %16
  %49 = alloca %"class.__gnu_cxx::__normal_iterator"*, align 8
  store %"class.__gnu_cxx::__normal_iterator"* %0, %"class.__gnu_cxx::__normal_iterator"** %49, align 8
  %50 = load %"class.__gnu_cxx::__normal_iterator"*, %"class.__gnu_cxx::__normal_iterator"** %49, align 8
  %51 = getelementptr inbounds %"class.__gnu_cxx::__normal_iterator", %"class.__gnu_cxx::__normal_iterator"* %50, i32 0, i32 0
  %52 = load %class.Edge*, %class.Edge** %51, align 8
  store i32 1962960993, i32* %15
  br label %53

; <label>:53:                                     ; preds = %48, %27, %19, %18
  br label %16
}

; Function Attrs: noinline nounwind uwtable
define linkonce_odr double @_ZNK4Edge6weightEv(%class.Edge*) #1 comdat align 2 {
  %2 = alloca double
  %3 = alloca i1
  %4 = alloca i1
  %5 = load i32, i32* @x.57
  %6 = load i32, i32* @y.58
  %7 = add i32 %5, 203670268
  %8 = sub i32 %7, 1
  %9 = sub i32 %8, 203670268
  %10 = sub i32 %5, 1
  %11 = mul i32 %5, %9
  %12 = urem i32 %11, 2
  %13 = icmp eq i32 %12, 0
  store i1 %13, i1* %4
  %14 = icmp slt i32 %6, 10
  store i1 %14, i1* %3
  %15 = alloca i32
  store i32 1644902672, i32* %15
  br label %16

; <label>:16:                                     ; preds = %1, %78
  %17 = load i32, i32* %15
  switch i32 %17, label %18 [
    i32 1644902672, label %19
    i32 869549312, label %39
    i32 -621025553, label %71
    i32 -1150076893, label %73
  ]

; <label>:18:                                     ; preds = %16
  br label %78

; <label>:19:                                     ; preds = %16
  %20 = load volatile i1, i1* %4
  %21 = load volatile i1, i1* %3
  %22 = xor i1 %20, true
  %23 = xor i1 %21, true
  %24 = xor i1 true, true
  %25 = and i1 %22, true
  %26 = and i1 %20, %24
  %27 = and i1 %23, true
  %28 = and i1 %21, %24
  %29 = or i1 %25, %26
  %30 = or i1 %27, %28
  %31 = xor i1 %29, %30
  %32 = or i1 %22, %23
  %33 = xor i1 %32, true
  %34 = or i1 true, %24
  %35 = and i1 %33, %34
  %36 = or i1 %31, %35
  %37 = or i1 %20, %21
  %38 = select i1 %36, i32 869549312, i32 -1150076893
  store i32 %38, i32* %15
  br label %78

; <label>:39:                                     ; preds = %16
  %40 = alloca %class.Edge*, align 8
  store %class.Edge* %0, %class.Edge** %40, align 8
  %41 = load %class.Edge*, %class.Edge** %40, align 8
  %42 = getelementptr inbounds %class.Edge, %class.Edge* %41, i32 0, i32 2
  %43 = load double, double* %42, align 8
  store double %43, double* %2
  %44 = load i32, i32* @x.57
  %45 = load i32, i32* @y.58
  %46 = sub i32 %44, -244812365
  %47 = sub i32 %46, 1
  %48 = add i32 %47, -244812365
  %49 = sub i32 %44, 1
  %50 = mul i32 %44, %48
  %51 = urem i32 %50, 2
  %52 = icmp eq i32 %51, 0
  %53 = icmp slt i32 %45, 10
  %54 = xor i1 %52, true
  %55 = xor i1 %53, true
  %56 = xor i1 false, true
  %57 = and i1 %54, false
  %58 = and i1 %52, %56
  %59 = and i1 %55, false
  %60 = and i1 %53, %56
  %61 = or i1 %57, %58
  %62 = or i1 %59, %60
  %63 = xor i1 %61, %62
  %64 = or i1 %54, %55
  %65 = xor i1 %64, true
  %66 = or i1 false, %56
  %67 = and i1 %65, %66
  %68 = or i1 %63, %67
  %69 = or i1 %52, %53
  %70 = select i1 %68, i32 -621025553, i32 -1150076893
  store i32 %70, i32* %15
  br label %78

; <label>:71:                                     ; preds = %16
  %72 = load volatile double, double* %2
  ret double %72

; <label>:73:                                     ; preds = %16
  %74 = alloca %class.Edge*, align 8
  store %class.Edge* %0, %class.Edge** %74, align 8
  %75 = load %class.Edge*, %class.Edge** %74, align 8
  %76 = getelementptr inbounds %class.Edge, %class.Edge* %75, i32 0, i32 2
  %77 = load double, double* %76, align 8
  store i32 869549312, i32* %15
  br label %78

; <label>:78:                                     ; preds = %73, %39, %19, %18
  br label %16
}

; Function Attrs: noinline nounwind uwtable
define linkonce_odr i32 @_ZNK4Edge2toEv(%class.Edge*) #1 comdat align 2 {
  %2 = alloca i32
  %3 = alloca i1
  %4 = alloca i1
  %5 = load i32, i32* @x.59
  %6 = load i32, i32* @y.60
  %7 = sub i32 0, 1
  %8 = add i32 %5, %7
  %9 = sub i32 %5, 1
  %10 = mul i32 %5, %8
  %11 = urem i32 %10, 2
  %12 = icmp eq i32 %11, 0
  store i1 %12, i1* %4
  %13 = icmp slt i32 %6, 10
  store i1 %13, i1* %3
  %14 = alloca i32
  store i32 220413279, i32* %14
  br label %15

; <label>:15:                                     ; preds = %1, %64
  %16 = load i32, i32* %14
  switch i32 %16, label %17 [
    i32 220413279, label %18
    i32 -448870658, label %26
    i32 -2030290340, label %57
    i32 -29319489, label %59
  ]

; <label>:17:                                     ; preds = %15
  br label %64

; <label>:18:                                     ; preds = %15
  %19 = load volatile i1, i1* %4
  %20 = load volatile i1, i1* %3
  %21 = and i1 %19, %20
  %22 = xor i1 %19, %20
  %23 = or i1 %21, %22
  %24 = or i1 %19, %20
  %25 = select i1 %23, i32 -448870658, i32 -29319489
  store i32 %25, i32* %14
  br label %64

; <label>:26:                                     ; preds = %15
  %27 = alloca %class.Edge*, align 8
  store %class.Edge* %0, %class.Edge** %27, align 8
  %28 = load %class.Edge*, %class.Edge** %27, align 8
  %29 = getelementptr inbounds %class.Edge, %class.Edge* %28, i32 0, i32 1
  %30 = load i32, i32* %29, align 4
  store i32 %30, i32* %2
  %31 = load i32, i32* @x.59
  %32 = load i32, i32* @y.60
  %33 = sub i32 0, 1
  %34 = add i32 %31, %33
  %35 = sub i32 %31, 1
  %36 = mul i32 %31, %34
  %37 = urem i32 %36, 2
  %38 = icmp eq i32 %37, 0
  %39 = icmp slt i32 %32, 10
  %40 = xor i1 %38, true
  %41 = xor i1 %39, true
  %42 = xor i1 true, true
  %43 = and i1 %40, true
  %44 = and i1 %38, %42
  %45 = and i1 %41, true
  %46 = and i1 %39, %42
  %47 = or i1 %43, %44
  %48 = or i1 %45, %46
  %49 = xor i1 %47, %48
  %50 = or i1 %40, %41
  %51 = xor i1 %50, true
  %52 = or i1 true, %42
  %53 = and i1 %51, %52
  %54 = or i1 %49, %53
  %55 = or i1 %38, %39
  %56 = select i1 %54, i32 -2030290340, i32 -29319489
  store i32 %56, i32* %14
  br label %64

; <label>:57:                                     ; preds = %15
  %58 = load volatile i32, i32* %2
  ret i32 %58

; <label>:59:                                     ; preds = %15
  %60 = alloca %class.Edge*, align 8
  store %class.Edge* %0, %class.Edge** %60, align 8
  %61 = load %class.Edge*, %class.Edge** %60, align 8
  %62 = getelementptr inbounds %class.Edge, %class.Edge* %61, i32 0, i32 1
  %63 = load i32, i32* %62, align 4
  store i32 -448870658, i32* %14
  br label %64

; <label>:64:                                     ; preds = %59, %26, %18, %17
  br label %15
}

; Function Attrs: noinline uwtable
define linkonce_odr void @_ZNSt5tupleIJdiEEC2IdivEEOT_OT0_(%"class.std::tuple"*, double* dereferenceable(8), i32* dereferenceable(4)) unnamed_addr #0 comdat align 2 {
  %4 = alloca %"class.std::tuple"*, align 8
  %5 = alloca double*, align 8
  %6 = alloca i32*, align 8
  store %"class.std::tuple"* %0, %"class.std::tuple"** %4, align 8
  store double* %1, double** %5, align 8
  store i32* %2, i32** %6, align 8
  %7 = load %"class.std::tuple"*, %"class.std::tuple"** %4, align 8
  %8 = bitcast %"class.std::tuple"* %7 to %"struct.std::_Tuple_impl"*
  %9 = load double*, double** %5, align 8
  %10 = call dereferenceable(8) double* @_ZSt7forwardIdEOT_RNSt16remove_referenceIS0_E4typeE(double* dereferenceable(8) %9) #4
  %11 = load i32*, i32** %6, align 8
  %12 = call dereferenceable(4) i32* @_ZSt7forwardIiEOT_RNSt16remove_referenceIS0_E4typeE(i32* dereferenceable(4) %11) #4
  call void @_ZNSt11_Tuple_implILm0EJdiEEC2IdJiEvEEOT_DpOT0_(%"struct.std::_Tuple_impl"* %8, double* dereferenceable(8) %10, i32* dereferenceable(4) %12)
  ret void
}

; Function Attrs: noinline nounwind uwtable
define linkonce_odr dereferenceable(8) %"class.__gnu_cxx::__normal_iterator"* @_ZN9__gnu_cxx17__normal_iteratorIPK4EdgeSt6vectorIS1_SaIS1_EEEppEv(%"class.__gnu_cxx::__normal_iterator"*) #1 comdat align 2 {
  %2 = alloca %"class.__gnu_cxx::__normal_iterator"*, align 8
  store %"class.__gnu_cxx::__normal_iterator"* %0, %"class.__gnu_cxx::__normal_iterator"** %2, align 8
  %3 = load %"class.__gnu_cxx::__normal_iterator"*, %"class.__gnu_cxx::__normal_iterator"** %2, align 8
  %4 = getelementptr inbounds %"class.__gnu_cxx::__normal_iterator", %"class.__gnu_cxx::__normal_iterator"* %3, i32 0, i32 0
  %5 = load %class.Edge*, %class.Edge** %4, align 8
  %6 = getelementptr inbounds %class.Edge, %class.Edge* %5, i32 1
  store %class.Edge* %6, %class.Edge** %4, align 8
  ret %"class.__gnu_cxx::__normal_iterator"* %3
}

; Function Attrs: noinline nounwind uwtable
define linkonce_odr void @_ZNSt14priority_queueISt5tupleIJdiEESt6vectorIS1_SaIS1_EESt7greaterIS1_EED2Ev(%"class.std::priority_queue"*) unnamed_addr #1 comdat align 2 {
  %2 = alloca %"class.std::priority_queue"*, align 8
  store %"class.std::priority_queue"* %0, %"class.std::priority_queue"** %2, align 8
  %3 = load %"class.std::priority_queue"*, %"class.std::priority_queue"** %2, align 8
  %4 = getelementptr inbounds %"class.std::priority_queue", %"class.std::priority_queue"* %3, i32 0, i32 0
  call void @_ZNSt6vectorISt5tupleIJdiEESaIS1_EED2Ev(%"class.std::vector.10"* %4) #4
  ret void
}

; Function Attrs: noinline nounwind uwtable
define linkonce_odr void @_ZNSt6vectorIiSaIiEED2Ev(%"class.std::vector.5"*) unnamed_addr #1 comdat align 2 personality i8* bitcast (i32 (...)* @__gxx_personality_v0 to i8*) {
  %2 = alloca %"class.std::vector.5"*, align 8
  %3 = alloca i8*
  %4 = alloca i32
  store %"class.std::vector.5"* %0, %"class.std::vector.5"** %2, align 8
  %5 = load %"class.std::vector.5"*, %"class.std::vector.5"** %2, align 8
  %6 = bitcast %"class.std::vector.5"* %5 to %"struct.std::_Vector_base.6"*
  %7 = getelementptr inbounds %"struct.std::_Vector_base.6", %"struct.std::_Vector_base.6"* %6, i32 0, i32 0
  %8 = getelementptr inbounds %"struct.std::_Vector_base<int, std::allocator<int> >::_Vector_impl", %"struct.std::_Vector_base<int, std::allocator<int> >::_Vector_impl"* %7, i32 0, i32 0
  %9 = load i32*, i32** %8, align 8
  %10 = bitcast %"class.std::vector.5"* %5 to %"struct.std::_Vector_base.6"*
  %11 = getelementptr inbounds %"struct.std::_Vector_base.6", %"struct.std::_Vector_base.6"* %10, i32 0, i32 0
  %12 = getelementptr inbounds %"struct.std::_Vector_base<int, std::allocator<int> >::_Vector_impl", %"struct.std::_Vector_base<int, std::allocator<int> >::_Vector_impl"* %11, i32 0, i32 1
  %13 = load i32*, i32** %12, align 8
  %14 = bitcast %"class.std::vector.5"* %5 to %"struct.std::_Vector_base.6"*
  %15 = call dereferenceable(1) %"class.std::allocator.7"* @_ZNSt12_Vector_baseIiSaIiEE19_M_get_Tp_allocatorEv(%"struct.std::_Vector_base.6"* %14) #4
  invoke void @_ZSt8_DestroyIPiiEvT_S1_RSaIT0_E(i32* %9, i32* %13, %"class.std::allocator.7"* dereferenceable(1) %15)
          to label %16 unwind label %18

; <label>:16:                                     ; preds = %1
  %17 = bitcast %"class.std::vector.5"* %5 to %"struct.std::_Vector_base.6"*
  call void @_ZNSt12_Vector_baseIiSaIiEED2Ev(%"struct.std::_Vector_base.6"* %17) #4
  ret void

; <label>:18:                                     ; preds = %1
  %19 = load i32, i32* @x.67
  %20 = load i32, i32* @y.68
  %21 = sub i32 %19, -660501720
  %22 = sub i32 %21, 1
  %23 = add i32 %22, -660501720
  %24 = sub i32 %19, 1
  %25 = mul i32 %19, %23
  %26 = urem i32 %25, 2
  %27 = icmp eq i32 %26, 0
  %28 = icmp slt i32 %20, 10
  %29 = xor i1 %27, true
  %30 = xor i1 %28, true
  %31 = xor i1 false, true
  %32 = and i1 %29, false
  %33 = and i1 %27, %31
  %34 = and i1 %30, false
  %35 = and i1 %28, %31
  %36 = or i1 %32, %33
  %37 = or i1 %34, %35
  %38 = xor i1 %36, %37
  %39 = or i1 %29, %30
  %40 = xor i1 %39, true
  %41 = or i1 false, %31
  %42 = and i1 %40, %41
  %43 = or i1 %38, %42
  %44 = or i1 %27, %28
  br i1 %43, label %45, label %66

; <label>:45:                                     ; preds = %18, %66
  %46 = landingpad { i8*, i32 }
          catch i8* null
  %47 = extractvalue { i8*, i32 } %46, 0
  store i8* %47, i8** %3, align 8
  %48 = extractvalue { i8*, i32 } %46, 1
  store i32 %48, i32* %4, align 4
  %49 = bitcast %"class.std::vector.5"* %5 to %"struct.std::_Vector_base.6"*
  call void @_ZNSt12_Vector_baseIiSaIiEED2Ev(%"struct.std::_Vector_base.6"* %49) #4
  %50 = load i32, i32* @x.67
  %51 = load i32, i32* @y.68
  %52 = sub i32 0, 1
  %53 = add i32 %50, %52
  %54 = sub i32 %50, 1
  %55 = mul i32 %50, %53
  %56 = urem i32 %55, 2
  %57 = icmp eq i32 %56, 0
  %58 = icmp slt i32 %51, 10
  %59 = and i1 %57, %58
  %60 = xor i1 %57, %58
  %61 = or i1 %59, %60
  %62 = or i1 %57, %58
  br i1 %61, label %63, label %66

; <label>:63:                                     ; preds = %45
  br label %64

; <label>:64:                                     ; preds = %63
  %65 = load i8*, i8** %3, align 8
  call void @__clang_call_terminate(i8* %65) #8
  unreachable

; <label>:66:                                     ; preds = %45, %18
  %67 = landingpad { i8*, i32 }
          catch i8* null
  %68 = extractvalue { i8*, i32 } %67, 0
  store i8* %68, i8** %3, align 8
  %69 = extractvalue { i8*, i32 } %67, 1
  store i32 %69, i32* %4, align 4
  %70 = bitcast %"class.std::vector.5"* %5 to %"struct.std::_Vector_base.6"*
  call void @_ZNSt12_Vector_baseIiSaIiEED2Ev(%"struct.std::_Vector_base.6"* %70) #4
  br label %45
}

; Function Attrs: noinline uwtable
define double @_ZNK5Graph11BellmanFordEii(%class.Graph*, i32, i32) #0 align 2 personality i8* bitcast (i32 (...)* @__gxx_personality_v0 to i8*) {
  %4 = load i32, i32* @x.69
  %5 = load i32, i32* @y.70
  %6 = sub i32 0, 1
  %7 = add i32 %4, %6
  %8 = sub i32 %4, 1
  %9 = mul i32 %4, %7
  %10 = urem i32 %9, 2
  %11 = icmp eq i32 %10, 0
  %12 = icmp slt i32 %5, 10
  %13 = and i1 %11, %12
  %14 = xor i1 %11, %12
  %15 = or i1 %13, %14
  %16 = or i1 %11, %12
  br i1 %15, label %17, label %356

; <label>:17:                                     ; preds = %3, %356
  %18 = alloca double, align 8
  %19 = alloca %class.Graph*, align 8
  %20 = alloca i32, align 4
  %21 = alloca i32, align 4
  %22 = alloca %"class.std::vector.17", align 8
  %23 = alloca %"class.std::allocator.19", align 1
  %24 = alloca i8*
  %25 = alloca i32
  %26 = alloca i32, align 4
  %27 = alloca i32, align 4
  %28 = alloca %"class.std::vector.0"*, align 8
  %29 = alloca %"class.__gnu_cxx::__normal_iterator", align 8
  %30 = alloca %"class.__gnu_cxx::__normal_iterator", align 8
  %31 = alloca %class.Edge*, align 8
  %32 = alloca i32
  store %class.Graph* %0, %class.Graph** %19, align 8
  store i32 %1, i32* %20, align 4
  store i32 %2, i32* %21, align 4
  %33 = load %class.Graph*, %class.Graph** %19, align 8
  %34 = call i32 @_ZNK5Graph4sizeEv(%class.Graph* %33)
  %35 = sext i32 %34 to i64
  call void @_ZNSaIdEC2Ev(%"class.std::allocator.19"* %23) #4
  %36 = load i32, i32* @x.69
  %37 = load i32, i32* @y.70
  %38 = sub i32 0, 1
  %39 = add i32 %36, %38
  %40 = sub i32 %36, 1
  %41 = mul i32 %36, %39
  %42 = urem i32 %41, 2
  %43 = icmp eq i32 %42, 0
  %44 = icmp slt i32 %37, 10
  %45 = xor i1 %43, true
  %46 = xor i1 %44, true
  %47 = xor i1 true, true
  %48 = and i1 %45, true
  %49 = and i1 %43, %47
  %50 = and i1 %46, true
  %51 = and i1 %44, %47
  %52 = or i1 %48, %49
  %53 = or i1 %50, %51
  %54 = xor i1 %52, %53
  %55 = or i1 %45, %46
  %56 = xor i1 %55, true
  %57 = or i1 true, %47
  %58 = and i1 %56, %57
  %59 = or i1 %54, %58
  %60 = or i1 %43, %44
  br i1 %59, label %61, label %356

; <label>:61:                                     ; preds = %17
  invoke void @_ZNSt6vectorIdSaIdEEC2EmRKdRKS0_(%"class.std::vector.17"* %22, i64 %35, double* dereferenceable(8) @_ZL3INF, %"class.std::allocator.19"* dereferenceable(1) %23)
          to label %62 unwind label %177

; <label>:62:                                     ; preds = %61
  call void @_ZNSaIdED2Ev(%"class.std::allocator.19"* %23) #4
  %63 = load i32, i32* %20, align 4
  %64 = sext i32 %63 to i64
  %65 = call dereferenceable(8) double* @_ZNSt6vectorIdSaIdEEixEm(%"class.std::vector.17"* %22, i64 %64) #4
  store double 0.000000e+00, double* %65, align 8
  store i32 0, i32* %26, align 4
  br label %66

; <label>:66:                                     ; preds = %298, %62
  %67 = load i32, i32* %26, align 4
  %68 = invoke i32 @_ZNK5Graph4sizeEv(%class.Graph* %33)
          to label %69 unwind label %181

; <label>:69:                                     ; preds = %66
  %70 = icmp sle i32 %67, %68
  br i1 %70, label %71, label %304

; <label>:71:                                     ; preds = %69
  %72 = load i32, i32* @x.69
  %73 = load i32, i32* @y.70
  %74 = add i32 %72, 93729798
  %75 = sub i32 %74, 1
  %76 = sub i32 %75, 93729798
  %77 = sub i32 %72, 1
  %78 = mul i32 %72, %76
  %79 = urem i32 %78, 2
  %80 = icmp eq i32 %79, 0
  %81 = icmp slt i32 %73, 10
  %82 = and i1 %80, %81
  %83 = xor i1 %80, %81
  %84 = or i1 %82, %83
  %85 = or i1 %80, %81
  br i1 %84, label %86, label %375

; <label>:86:                                     ; preds = %71, %375
  store i32 0, i32* %27, align 4
  %87 = load i32, i32* @x.69
  %88 = load i32, i32* @y.70
  %89 = sub i32 %87, -1475828047
  %90 = sub i32 %89, 1
  %91 = add i32 %90, -1475828047
  %92 = sub i32 %87, 1
  %93 = mul i32 %87, %91
  %94 = urem i32 %93, 2
  %95 = icmp eq i32 %94, 0
  %96 = icmp slt i32 %88, 10
  %97 = xor i1 %95, true
  %98 = xor i1 %96, true
  %99 = xor i1 false, true
  %100 = and i1 %97, false
  %101 = and i1 %95, %99
  %102 = and i1 %98, false
  %103 = and i1 %96, %99
  %104 = or i1 %100, %101
  %105 = or i1 %102, %103
  %106 = xor i1 %104, %105
  %107 = or i1 %97, %98
  %108 = xor i1 %107, true
  %109 = or i1 false, %99
  %110 = and i1 %108, %109
  %111 = or i1 %106, %110
  %112 = or i1 %95, %96
  br i1 %111, label %113, label %375

; <label>:113:                                    ; preds = %86
  br label %114

; <label>:114:                                    ; preds = %296, %113
  %115 = load i32, i32* %27, align 4
  %116 = invoke i32 @_ZNK5Graph4sizeEv(%class.Graph* %33)
          to label %117 unwind label %181

; <label>:117:                                    ; preds = %114
  %118 = load i32, i32* @x.69
  %119 = load i32, i32* @y.70
  %120 = sub i32 0, 1
  %121 = add i32 %118, %120
  %122 = sub i32 %118, 1
  %123 = mul i32 %118, %121
  %124 = urem i32 %123, 2
  %125 = icmp eq i32 %124, 0
  %126 = icmp slt i32 %119, 10
  %127 = and i1 %125, %126
  %128 = xor i1 %125, %126
  %129 = or i1 %127, %128
  %130 = or i1 %125, %126
  br i1 %129, label %131, label %376

; <label>:131:                                    ; preds = %117, %376
  %132 = icmp slt i32 %115, %116
  %133 = load i32, i32* @x.69
  %134 = load i32, i32* @y.70
  %135 = sub i32 0, 1
  %136 = add i32 %133, %135
  %137 = sub i32 %133, 1
  %138 = mul i32 %133, %136
  %139 = urem i32 %138, 2
  %140 = icmp eq i32 %139, 0
  %141 = icmp slt i32 %134, 10
  %142 = and i1 %140, %141
  %143 = xor i1 %140, %141
  %144 = or i1 %142, %143
  %145 = or i1 %140, %141
  br i1 %144, label %146, label %376

; <label>:146:                                    ; preds = %131
  br i1 %132, label %147, label %297

; <label>:147:                                    ; preds = %146
  %148 = load i32, i32* %27, align 4
  %149 = invoke dereferenceable(24) %"class.std::vector.0"* @_ZNK5Graph4edgeEi(%class.Graph* %33, i32 %148)
          to label %150 unwind label %181

; <label>:150:                                    ; preds = %147
  store %"class.std::vector.0"* %149, %"class.std::vector.0"** %28, align 8
  %151 = load %"class.std::vector.0"*, %"class.std::vector.0"** %28, align 8
  %152 = call %class.Edge* @_ZNKSt6vectorI4EdgeSaIS0_EE5beginEv(%"class.std::vector.0"* %151) #4
  %153 = getelementptr inbounds %"class.__gnu_cxx::__normal_iterator", %"class.__gnu_cxx::__normal_iterator"* %29, i32 0, i32 0
  store %class.Edge* %152, %class.Edge** %153, align 8
  %154 = load %"class.std::vector.0"*, %"class.std::vector.0"** %28, align 8
  %155 = call %class.Edge* @_ZNKSt6vectorI4EdgeSaIS0_EE3endEv(%"class.std::vector.0"* %154) #4
  %156 = getelementptr inbounds %"class.__gnu_cxx::__normal_iterator", %"class.__gnu_cxx::__normal_iterator"* %30, i32 0, i32 0
  store %class.Edge* %155, %class.Edge** %156, align 8
  br label %157

; <label>:157:                                    ; preds = %258, %150
  %158 = call zeroext i1 @_ZN9__gnu_cxxneIPK4EdgeSt6vectorIS1_SaIS1_EEEEbRKNS_17__normal_iteratorIT_T0_EESC_(%"class.__gnu_cxx::__normal_iterator"* dereferenceable(8) %29, %"class.__gnu_cxx::__normal_iterator"* dereferenceable(8) %30) #4
  br i1 %158, label %159, label %260

; <label>:159:                                    ; preds = %157
  %160 = call dereferenceable(16) %class.Edge* @_ZNK9__gnu_cxx17__normal_iteratorIPK4EdgeSt6vectorIS1_SaIS1_EEEdeEv(%"class.__gnu_cxx::__normal_iterator"* %29) #4
  store %class.Edge* %160, %class.Edge** %31, align 8
  %161 = load i32, i32* %27, align 4
  %162 = sext i32 %161 to i64
  %163 = call dereferenceable(8) double* @_ZNSt6vectorIdSaIdEEixEm(%"class.std::vector.17"* %22, i64 %162) #4
  %164 = load double, double* %163, align 8
  %165 = load %class.Edge*, %class.Edge** %31, align 8
  %166 = invoke double @_ZNK4Edge6weightEv(%class.Edge* %165)
          to label %167 unwind label %181

; <label>:167:                                    ; preds = %159
  %168 = fadd double %164, %166
  %169 = load %class.Edge*, %class.Edge** %31, align 8
  %170 = invoke i32 @_ZNK4Edge2toEv(%class.Edge* %169)
          to label %171 unwind label %181

; <label>:171:                                    ; preds = %167
  %172 = sext i32 %170 to i64
  %173 = call dereferenceable(8) double* @_ZNSt6vectorIdSaIdEEixEm(%"class.std::vector.17"* %22, i64 %172) #4
  %174 = load double, double* %173, align 8
  %175 = fcmp oge double %168, %174
  br i1 %175, label %176, label %185

; <label>:176:                                    ; preds = %171
  br label %258

; <label>:177:                                    ; preds = %61
  %178 = landingpad { i8*, i32 }
          cleanup
  %179 = extractvalue { i8*, i32 } %178, 0
  store i8* %179, i8** %24, align 8
  %180 = extractvalue { i8*, i32 } %178, 1
  store i32 %180, i32* %25, align 4
  call void @_ZNSaIdED2Ev(%"class.std::allocator.19"* %23) #4
  br label %311

; <label>:181:                                    ; preds = %253, %191, %185, %167, %159, %147, %114, %66
  %182 = landingpad { i8*, i32 }
          cleanup
  %183 = extractvalue { i8*, i32 } %182, 0
  store i8* %183, i8** %24, align 8
  %184 = extractvalue { i8*, i32 } %182, 1
  store i32 %184, i32* %25, align 4
  call void @_ZNSt6vectorIdSaIdEED2Ev(%"class.std::vector.17"* %22) #4
  br label %311

; <label>:185:                                    ; preds = %171
  %186 = load i32, i32* %26, align 4
  %187 = invoke i32 @_ZNK5Graph4sizeEv(%class.Graph* %33)
          to label %188 unwind label %181

; <label>:188:                                    ; preds = %185
  %189 = icmp eq i32 %186, %187
  br i1 %189, label %190, label %191

; <label>:190:                                    ; preds = %188
  store double 0x7FD5555555555555, double* %18, align 8
  store i32 1, i32* %32, align 4
  br label %309

; <label>:191:                                    ; preds = %188
  %192 = load i32, i32* %27, align 4
  %193 = sext i32 %192 to i64
  %194 = call dereferenceable(8) double* @_ZNSt6vectorIdSaIdEEixEm(%"class.std::vector.17"* %22, i64 %193) #4
  %195 = load double, double* %194, align 8
  %196 = load %class.Edge*, %class.Edge** %31, align 8
  %197 = invoke double @_ZNK4Edge6weightEv(%class.Edge* %196)
          to label %198 unwind label %181

; <label>:198:                                    ; preds = %191
  %199 = load i32, i32* @x.69
  %200 = load i32, i32* @y.70
  %201 = sub i32 %199, -2124373656
  %202 = sub i32 %201, 1
  %203 = add i32 %202, -2124373656
  %204 = sub i32 %199, 1
  %205 = mul i32 %199, %203
  %206 = urem i32 %205, 2
  %207 = icmp eq i32 %206, 0
  %208 = icmp slt i32 %200, 10
  %209 = xor i1 %207, true
  %210 = xor i1 %208, true
  %211 = xor i1 true, true
  %212 = and i1 %209, true
  %213 = and i1 %207, %211
  %214 = and i1 %210, true
  %215 = and i1 %208, %211
  %216 = or i1 %212, %213
  %217 = or i1 %214, %215
  %218 = xor i1 %216, %217
  %219 = or i1 %209, %210
  %220 = xor i1 %219, true
  %221 = or i1 true, %211
  %222 = and i1 %220, %221
  %223 = or i1 %218, %222
  %224 = or i1 %207, %208
  br i1 %223, label %225, label %378

; <label>:225:                                    ; preds = %198, %378
  %226 = fadd double %195, %197
  %227 = load %class.Edge*, %class.Edge** %31, align 8
  %228 = load i32, i32* @x.69
  %229 = load i32, i32* @y.70
  %230 = sub i32 0, 1
  %231 = add i32 %228, %230
  %232 = sub i32 %228, 1
  %233 = mul i32 %228, %231
  %234 = urem i32 %233, 2
  %235 = icmp eq i32 %234, 0
  %236 = icmp slt i32 %229, 10
  %237 = xor i1 %235, true
  %238 = xor i1 %236, true
  %239 = xor i1 false, true
  %240 = and i1 %237, false
  %241 = and i1 %235, %239
  %242 = and i1 %238, false
  %243 = and i1 %236, %239
  %244 = or i1 %240, %241
  %245 = or i1 %242, %243
  %246 = xor i1 %244, %245
  %247 = or i1 %237, %238
  %248 = xor i1 %247, true
  %249 = or i1 false, %239
  %250 = and i1 %248, %249
  %251 = or i1 %246, %250
  %252 = or i1 %235, %236
  br i1 %251, label %253, label %378

; <label>:253:                                    ; preds = %225
  %254 = invoke i32 @_ZNK4Edge2toEv(%class.Edge* %227)
          to label %255 unwind label %181

; <label>:255:                                    ; preds = %253
  %256 = sext i32 %254 to i64
  %257 = call dereferenceable(8) double* @_ZNSt6vectorIdSaIdEEixEm(%"class.std::vector.17"* %22, i64 %256) #4
  store double %226, double* %257, align 8
  br label %258

; <label>:258:                                    ; preds = %255, %176
  %259 = call dereferenceable(8) %"class.__gnu_cxx::__normal_iterator"* @_ZN9__gnu_cxx17__normal_iteratorIPK4EdgeSt6vectorIS1_SaIS1_EEEppEv(%"class.__gnu_cxx::__normal_iterator"* %29) #4
  br label %157

; <label>:260:                                    ; preds = %157
  br label %261

; <label>:261:                                    ; preds = %260
  %262 = load i32, i32* @x.69
  %263 = load i32, i32* @y.70
  %264 = add i32 %262, 654309057
  %265 = sub i32 %264, 1
  %266 = sub i32 %265, 654309057
  %267 = sub i32 %262, 1
  %268 = mul i32 %262, %266
  %269 = urem i32 %268, 2
  %270 = icmp eq i32 %269, 0
  %271 = icmp slt i32 %263, 10
  %272 = and i1 %270, %271
  %273 = xor i1 %270, %271
  %274 = or i1 %272, %273
  %275 = or i1 %270, %271
  br i1 %274, label %276, label %391

; <label>:276:                                    ; preds = %261, %391
  %277 = load i32, i32* %27, align 4
  %278 = add i32 %277, -400056293
  %279 = add i32 %278, 1
  %280 = sub i32 %279, -400056293
  %281 = add nsw i32 %277, 1
  store i32 %280, i32* %27, align 4
  %282 = load i32, i32* @x.69
  %283 = load i32, i32* @y.70
  %284 = sub i32 %282, 1140756597
  %285 = sub i32 %284, 1
  %286 = add i32 %285, 1140756597
  %287 = sub i32 %282, 1
  %288 = mul i32 %282, %286
  %289 = urem i32 %288, 2
  %290 = icmp eq i32 %289, 0
  %291 = icmp slt i32 %283, 10
  %292 = and i1 %290, %291
  %293 = xor i1 %290, %291
  %294 = or i1 %292, %293
  %295 = or i1 %290, %291
  br i1 %294, label %296, label %391

; <label>:296:                                    ; preds = %276
  br label %114

; <label>:297:                                    ; preds = %146
  br label %298

; <label>:298:                                    ; preds = %297
  %299 = load i32, i32* %26, align 4
  %300 = add i32 %299, -2018946415
  %301 = add i32 %300, 1
  %302 = sub i32 %301, -2018946415
  %303 = add nsw i32 %299, 1
  store i32 %302, i32* %26, align 4
  br label %66

; <label>:304:                                    ; preds = %69
  %305 = load i32, i32* %21, align 4
  %306 = sext i32 %305 to i64
  %307 = call dereferenceable(8) double* @_ZNSt6vectorIdSaIdEEixEm(%"class.std::vector.17"* %22, i64 %306) #4
  %308 = load double, double* %307, align 8
  store double %308, double* %18, align 8
  store i32 1, i32* %32, align 4
  br label %309

; <label>:309:                                    ; preds = %304, %190
  call void @_ZNSt6vectorIdSaIdEED2Ev(%"class.std::vector.17"* %22) #4
  %310 = load double, double* %18, align 8
  ret double %310

; <label>:311:                                    ; preds = %181, %177
  %312 = load i32, i32* @x.69
  %313 = load i32, i32* @y.70
  %314 = sub i32 0, 1
  %315 = add i32 %312, %314
  %316 = sub i32 %312, 1
  %317 = mul i32 %312, %315
  %318 = urem i32 %317, 2
  %319 = icmp eq i32 %318, 0
  %320 = icmp slt i32 %313, 10
  %321 = xor i1 %319, true
  %322 = xor i1 %320, true
  %323 = xor i1 false, true
  %324 = and i1 %321, false
  %325 = and i1 %319, %323
  %326 = and i1 %322, false
  %327 = and i1 %320, %323
  %328 = or i1 %324, %325
  %329 = or i1 %326, %327
  %330 = xor i1 %328, %329
  %331 = or i1 %321, %322
  %332 = xor i1 %331, true
  %333 = or i1 false, %323
  %334 = and i1 %332, %333
  %335 = or i1 %330, %334
  %336 = or i1 %319, %320
  br i1 %335, label %337, label %407

; <label>:337:                                    ; preds = %311, %407
  %338 = load i8*, i8** %24, align 8
  %339 = load i32, i32* %25, align 4
  %340 = insertvalue { i8*, i32 } undef, i8* %338, 0
  %341 = insertvalue { i8*, i32 } %340, i32 %339, 1
  %342 = load i32, i32* @x.69
  %343 = load i32, i32* @y.70
  %344 = sub i32 0, 1
  %345 = add i32 %342, %344
  %346 = sub i32 %342, 1
  %347 = mul i32 %342, %345
  %348 = urem i32 %347, 2
  %349 = icmp eq i32 %348, 0
  %350 = icmp slt i32 %343, 10
  %351 = and i1 %349, %350
  %352 = xor i1 %349, %350
  %353 = or i1 %351, %352
  %354 = or i1 %349, %350
  br i1 %353, label %355, label %407

; <label>:355:                                    ; preds = %337
  resume { i8*, i32 } %341

; <label>:356:                                    ; preds = %17, %3
  %357 = alloca double, align 8
  %358 = alloca %class.Graph*, align 8
  %359 = alloca i32, align 4
  %360 = alloca i32, align 4
  %361 = alloca %"class.std::vector.17", align 8
  %362 = alloca %"class.std::allocator.19", align 1
  %363 = alloca i8*
  %364 = alloca i32
  %365 = alloca i32, align 4
  %366 = alloca i32, align 4
  %367 = alloca %"class.std::vector.0"*, align 8
  %368 = alloca %"class.__gnu_cxx::__normal_iterator", align 8
  %369 = alloca %"class.__gnu_cxx::__normal_iterator", align 8
  %370 = alloca %class.Edge*, align 8
  %371 = alloca i32
  store %class.Graph* %0, %class.Graph** %358, align 8
  store i32 %1, i32* %359, align 4
  store i32 %2, i32* %360, align 4
  %372 = load %class.Graph*, %class.Graph** %358, align 8
  %373 = call i32 @_ZNK5Graph4sizeEv(%class.Graph* %372)
  %374 = sext i32 %373 to i64
  call void @_ZNSaIdEC2Ev(%"class.std::allocator.19"* %362) #4
  br label %17

; <label>:375:                                    ; preds = %86, %71
  store i32 0, i32* %27, align 4
  br label %86

; <label>:376:                                    ; preds = %131, %117
  %377 = icmp slt i32 %115, %116
  br label %131

; <label>:378:                                    ; preds = %225, %198
  %379 = fsub double %195, %197
  %380 = fmul double %379, %197
  %381 = fsub double %195, %197
  %382 = fmul double %381, %197
  %383 = fsub double %195, %197
  %384 = fmul double %383, %197
  %385 = fsub double %195, %197
  %386 = fmul double %385, %197
  %387 = fsub double -0.000000e+00, %195
  %388 = fadd double %387, %197
  %389 = fadd double %195, %197
  %390 = load %class.Edge*, %class.Edge** %31, align 8
  br label %225

; <label>:391:                                    ; preds = %276, %261
  %392 = load i32, i32* %27, align 4
  %393 = shl i32 %392, 1
  %394 = sub i32 0, 1
  %395 = add i32 %392, %394
  %396 = sub i32 %392, 1
  %397 = mul i32 %395, 1
  %398 = sub i32 0, 1
  %399 = add i32 %392, %398
  %400 = sub i32 %392, 1
  %401 = mul i32 %399, 1
  %402 = shl i32 %392, 1
  %403 = sub i32 %392, 111557381
  %404 = add i32 %403, 1
  %405 = add i32 %404, 111557381
  %406 = add nsw i32 %392, 1
  store i32 %405, i32* %27, align 4
  br label %276

; <label>:407:                                    ; preds = %337, %311
  %408 = load i8*, i8** %24, align 8
  %409 = load i32, i32* %25, align 4
  %410 = insertvalue { i8*, i32 } undef, i8* %408, 0
  %411 = insertvalue { i8*, i32 } %410, i32 %409, 1
  br label %337
}

; Function Attrs: noinline nounwind uwtable
define linkonce_odr void @_ZNSaIdEC2Ev(%"class.std::allocator.19"*) unnamed_addr #1 comdat align 2 {
  %2 = alloca %"class.std::allocator.19"*, align 8
  store %"class.std::allocator.19"* %0, %"class.std::allocator.19"** %2, align 8
  %3 = load %"class.std::allocator.19"*, %"class.std::allocator.19"** %2, align 8
  %4 = bitcast %"class.std::allocator.19"* %3 to %"class.__gnu_cxx::new_allocator.20"*
  call void @_ZN9__gnu_cxx13new_allocatorIdEC2Ev(%"class.__gnu_cxx::new_allocator.20"* %4) #4
  ret void
}

; Function Attrs: noinline uwtable
define linkonce_odr void @_ZNSt6vectorIdSaIdEEC2EmRKdRKS0_(%"class.std::vector.17"*, i64, double* dereferenceable(8), %"class.std::allocator.19"* dereferenceable(1)) unnamed_addr #0 comdat align 2 personality i8* bitcast (i32 (...)* @__gxx_personality_v0 to i8*) {
  %5 = alloca %"class.std::vector.17"*, align 8
  %6 = alloca i64, align 8
  %7 = alloca double*, align 8
  %8 = alloca %"class.std::allocator.19"*, align 8
  %9 = alloca i8*
  %10 = alloca i32
  store %"class.std::vector.17"* %0, %"class.std::vector.17"** %5, align 8
  store i64 %1, i64* %6, align 8
  store double* %2, double** %7, align 8
  store %"class.std::allocator.19"* %3, %"class.std::allocator.19"** %8, align 8
  %11 = load %"class.std::vector.17"*, %"class.std::vector.17"** %5, align 8
  %12 = bitcast %"class.std::vector.17"* %11 to %"struct.std::_Vector_base.18"*
  %13 = load i64, i64* %6, align 8
  %14 = load %"class.std::allocator.19"*, %"class.std::allocator.19"** %8, align 8
  call void @_ZNSt12_Vector_baseIdSaIdEEC2EmRKS0_(%"struct.std::_Vector_base.18"* %12, i64 %13, %"class.std::allocator.19"* dereferenceable(1) %14)
  %15 = load i64, i64* %6, align 8
  %16 = load double*, double** %7, align 8
  invoke void @_ZNSt6vectorIdSaIdEE18_M_fill_initializeEmRKd(%"class.std::vector.17"* %11, i64 %15, double* dereferenceable(8) %16)
          to label %17 unwind label %18

; <label>:17:                                     ; preds = %4
  ret void

; <label>:18:                                     ; preds = %4
  %19 = load i32, i32* @x.73
  %20 = load i32, i32* @y.74
  %21 = sub i32 %19, -542061510
  %22 = sub i32 %21, 1
  %23 = add i32 %22, -542061510
  %24 = sub i32 %19, 1
  %25 = mul i32 %19, %23
  %26 = urem i32 %25, 2
  %27 = icmp eq i32 %26, 0
  %28 = icmp slt i32 %20, 10
  %29 = and i1 %27, %28
  %30 = xor i1 %27, %28
  %31 = or i1 %29, %30
  %32 = or i1 %27, %28
  br i1 %31, label %33, label %70

; <label>:33:                                     ; preds = %18, %70
  %34 = landingpad { i8*, i32 }
          cleanup
  %35 = extractvalue { i8*, i32 } %34, 0
  store i8* %35, i8** %9, align 8
  %36 = extractvalue { i8*, i32 } %34, 1
  store i32 %36, i32* %10, align 4
  %37 = bitcast %"class.std::vector.17"* %11 to %"struct.std::_Vector_base.18"*
  call void @_ZNSt12_Vector_baseIdSaIdEED2Ev(%"struct.std::_Vector_base.18"* %37) #4
  %38 = load i32, i32* @x.73
  %39 = load i32, i32* @y.74
  %40 = sub i32 %38, -138553553
  %41 = sub i32 %40, 1
  %42 = add i32 %41, -138553553
  %43 = sub i32 %38, 1
  %44 = mul i32 %38, %42
  %45 = urem i32 %44, 2
  %46 = icmp eq i32 %45, 0
  %47 = icmp slt i32 %39, 10
  %48 = xor i1 %46, true
  %49 = xor i1 %47, true
  %50 = xor i1 false, true
  %51 = and i1 %48, false
  %52 = and i1 %46, %50
  %53 = and i1 %49, false
  %54 = and i1 %47, %50
  %55 = or i1 %51, %52
  %56 = or i1 %53, %54
  %57 = xor i1 %55, %56
  %58 = or i1 %48, %49
  %59 = xor i1 %58, true
  %60 = or i1 false, %50
  %61 = and i1 %59, %60
  %62 = or i1 %57, %61
  %63 = or i1 %46, %47
  br i1 %62, label %64, label %70

; <label>:64:                                     ; preds = %33
  br label %65

; <label>:65:                                     ; preds = %64
  %66 = load i8*, i8** %9, align 8
  %67 = load i32, i32* %10, align 4
  %68 = insertvalue { i8*, i32 } undef, i8* %66, 0
  %69 = insertvalue { i8*, i32 } %68, i32 %67, 1
  resume { i8*, i32 } %69

; <label>:70:                                     ; preds = %33, %18
  %71 = landingpad { i8*, i32 }
          cleanup
  %72 = extractvalue { i8*, i32 } %71, 0
  store i8* %72, i8** %9, align 8
  %73 = extractvalue { i8*, i32 } %71, 1
  store i32 %73, i32* %10, align 4
  %74 = bitcast %"class.std::vector.17"* %11 to %"struct.std::_Vector_base.18"*
  call void @_ZNSt12_Vector_baseIdSaIdEED2Ev(%"struct.std::_Vector_base.18"* %74) #4
  br label %33
}

; Function Attrs: noinline nounwind uwtable
define linkonce_odr void @_ZNSaIdED2Ev(%"class.std::allocator.19"*) unnamed_addr #1 comdat align 2 {
  %2 = alloca %"class.std::allocator.19"*, align 8
  store %"class.std::allocator.19"* %0, %"class.std::allocator.19"** %2, align 8
  %3 = load %"class.std::allocator.19"*, %"class.std::allocator.19"** %2, align 8
  %4 = bitcast %"class.std::allocator.19"* %3 to %"class.__gnu_cxx::new_allocator.20"*
  call void @_ZN9__gnu_cxx13new_allocatorIdED2Ev(%"class.__gnu_cxx::new_allocator.20"* %4) #4
  ret void
}

; Function Attrs: noinline nounwind uwtable
define linkonce_odr dereferenceable(8) double* @_ZNSt6vectorIdSaIdEEixEm(%"class.std::vector.17"*, i64) #1 comdat align 2 {
  %3 = alloca %"class.std::vector.17"*, align 8
  %4 = alloca i64, align 8
  store %"class.std::vector.17"* %0, %"class.std::vector.17"** %3, align 8
  store i64 %1, i64* %4, align 8
  %5 = load %"class.std::vector.17"*, %"class.std::vector.17"** %3, align 8
  %6 = bitcast %"class.std::vector.17"* %5 to %"struct.std::_Vector_base.18"*
  %7 = getelementptr inbounds %"struct.std::_Vector_base.18", %"struct.std::_Vector_base.18"* %6, i32 0, i32 0
  %8 = getelementptr inbounds %"struct.std::_Vector_base<double, std::allocator<double> >::_Vector_impl", %"struct.std::_Vector_base<double, std::allocator<double> >::_Vector_impl"* %7, i32 0, i32 0
  %9 = load double*, double** %8, align 8
  %10 = load i64, i64* %4, align 8
  %11 = getelementptr inbounds double, double* %9, i64 %10
  ret double* %11
}

; Function Attrs: noinline nounwind uwtable
define linkonce_odr void @_ZNSt6vectorIdSaIdEED2Ev(%"class.std::vector.17"*) unnamed_addr #1 comdat align 2 personality i8* bitcast (i32 (...)* @__gxx_personality_v0 to i8*) {
  %2 = load i32, i32* @x.79
  %3 = load i32, i32* @y.80
  %4 = sub i32 %2, 1929430013
  %5 = sub i32 %4, 1
  %6 = add i32 %5, 1929430013
  %7 = sub i32 %2, 1
  %8 = mul i32 %2, %6
  %9 = urem i32 %8, 2
  %10 = icmp eq i32 %9, 0
  %11 = icmp slt i32 %3, 10
  %12 = and i1 %10, %11
  %13 = xor i1 %10, %11
  %14 = or i1 %12, %13
  %15 = or i1 %10, %11
  br i1 %14, label %16, label %137

; <label>:16:                                     ; preds = %1, %137
  %17 = alloca %"class.std::vector.17"*, align 8
  %18 = alloca i8*
  %19 = alloca i32
  store %"class.std::vector.17"* %0, %"class.std::vector.17"** %17, align 8
  %20 = load %"class.std::vector.17"*, %"class.std::vector.17"** %17, align 8
  %21 = bitcast %"class.std::vector.17"* %20 to %"struct.std::_Vector_base.18"*
  %22 = getelementptr inbounds %"struct.std::_Vector_base.18", %"struct.std::_Vector_base.18"* %21, i32 0, i32 0
  %23 = getelementptr inbounds %"struct.std::_Vector_base<double, std::allocator<double> >::_Vector_impl", %"struct.std::_Vector_base<double, std::allocator<double> >::_Vector_impl"* %22, i32 0, i32 0
  %24 = load double*, double** %23, align 8
  %25 = bitcast %"class.std::vector.17"* %20 to %"struct.std::_Vector_base.18"*
  %26 = getelementptr inbounds %"struct.std::_Vector_base.18", %"struct.std::_Vector_base.18"* %25, i32 0, i32 0
  %27 = getelementptr inbounds %"struct.std::_Vector_base<double, std::allocator<double> >::_Vector_impl", %"struct.std::_Vector_base<double, std::allocator<double> >::_Vector_impl"* %26, i32 0, i32 1
  %28 = load double*, double** %27, align 8
  %29 = bitcast %"class.std::vector.17"* %20 to %"struct.std::_Vector_base.18"*
  %30 = call dereferenceable(1) %"class.std::allocator.19"* @_ZNSt12_Vector_baseIdSaIdEE19_M_get_Tp_allocatorEv(%"struct.std::_Vector_base.18"* %29) #4
  %31 = load i32, i32* @x.79
  %32 = load i32, i32* @y.80
  %33 = sub i32 %31, 1948803920
  %34 = sub i32 %33, 1
  %35 = add i32 %34, 1948803920
  %36 = sub i32 %31, 1
  %37 = mul i32 %31, %35
  %38 = urem i32 %37, 2
  %39 = icmp eq i32 %38, 0
  %40 = icmp slt i32 %32, 10
  %41 = xor i1 %39, true
  %42 = xor i1 %40, true
  %43 = xor i1 false, true
  %44 = and i1 %41, false
  %45 = and i1 %39, %43
  %46 = and i1 %42, false
  %47 = and i1 %40, %43
  %48 = or i1 %44, %45
  %49 = or i1 %46, %47
  %50 = xor i1 %48, %49
  %51 = or i1 %41, %42
  %52 = xor i1 %51, true
  %53 = or i1 false, %43
  %54 = and i1 %52, %53
  %55 = or i1 %50, %54
  %56 = or i1 %39, %40
  br i1 %55, label %57, label %137

; <label>:57:                                     ; preds = %16
  invoke void @_ZSt8_DestroyIPddEvT_S1_RSaIT0_E(double* %24, double* %28, %"class.std::allocator.19"* dereferenceable(1) %30)
          to label %58 unwind label %101

; <label>:58:                                     ; preds = %57
  %59 = load i32, i32* @x.79
  %60 = load i32, i32* @y.80
  %61 = sub i32 0, 1
  %62 = add i32 %59, %61
  %63 = sub i32 %59, 1
  %64 = mul i32 %59, %62
  %65 = urem i32 %64, 2
  %66 = icmp eq i32 %65, 0
  %67 = icmp slt i32 %60, 10
  %68 = and i1 %66, %67
  %69 = xor i1 %66, %67
  %70 = or i1 %68, %69
  %71 = or i1 %66, %67
  br i1 %70, label %72, label %152

; <label>:72:                                     ; preds = %58, %152
  %73 = bitcast %"class.std::vector.17"* %20 to %"struct.std::_Vector_base.18"*
  call void @_ZNSt12_Vector_baseIdSaIdEED2Ev(%"struct.std::_Vector_base.18"* %73) #4
  %74 = load i32, i32* @x.79
  %75 = load i32, i32* @y.80
  %76 = sub i32 %74, -633225566
  %77 = sub i32 %76, 1
  %78 = add i32 %77, -633225566
  %79 = sub i32 %74, 1
  %80 = mul i32 %74, %78
  %81 = urem i32 %80, 2
  %82 = icmp eq i32 %81, 0
  %83 = icmp slt i32 %75, 10
  %84 = xor i1 %82, true
  %85 = xor i1 %83, true
  %86 = xor i1 false, true
  %87 = and i1 %84, false
  %88 = and i1 %82, %86
  %89 = and i1 %85, false
  %90 = and i1 %83, %86
  %91 = or i1 %87, %88
  %92 = or i1 %89, %90
  %93 = xor i1 %91, %92
  %94 = or i1 %84, %85
  %95 = xor i1 %94, true
  %96 = or i1 false, %86
  %97 = and i1 %95, %96
  %98 = or i1 %93, %97
  %99 = or i1 %82, %83
  br i1 %98, label %100, label %152

; <label>:100:                                    ; preds = %72
  ret void

; <label>:101:                                    ; preds = %57
  %102 = landingpad { i8*, i32 }
          catch i8* null
  %103 = extractvalue { i8*, i32 } %102, 0
  store i8* %103, i8** %18, align 8
  %104 = extractvalue { i8*, i32 } %102, 1
  store i32 %104, i32* %19, align 4
  %105 = bitcast %"class.std::vector.17"* %20 to %"struct.std::_Vector_base.18"*
  call void @_ZNSt12_Vector_baseIdSaIdEED2Ev(%"struct.std::_Vector_base.18"* %105) #4
  br label %106

; <label>:106:                                    ; preds = %101
  %107 = load i32, i32* @x.79
  %108 = load i32, i32* @y.80
  %109 = sub i32 %107, -840920497
  %110 = sub i32 %109, 1
  %111 = add i32 %110, -840920497
  %112 = sub i32 %107, 1
  %113 = mul i32 %107, %111
  %114 = urem i32 %113, 2
  %115 = icmp eq i32 %114, 0
  %116 = icmp slt i32 %108, 10
  %117 = and i1 %115, %116
  %118 = xor i1 %115, %116
  %119 = or i1 %117, %118
  %120 = or i1 %115, %116
  br i1 %119, label %121, label %154

; <label>:121:                                    ; preds = %106, %154
  %122 = load i8*, i8** %18, align 8
  call void @__clang_call_terminate(i8* %122) #8
  %123 = load i32, i32* @x.79
  %124 = load i32, i32* @y.80
  %125 = sub i32 0, 1
  %126 = add i32 %123, %125
  %127 = sub i32 %123, 1
  %128 = mul i32 %123, %126
  %129 = urem i32 %128, 2
  %130 = icmp eq i32 %129, 0
  %131 = icmp slt i32 %124, 10
  %132 = and i1 %130, %131
  %133 = xor i1 %130, %131
  %134 = or i1 %132, %133
  %135 = or i1 %130, %131
  br i1 %134, label %136, label %154

; <label>:136:                                    ; preds = %121
  unreachable

; <label>:137:                                    ; preds = %16, %1
  %138 = alloca %"class.std::vector.17"*, align 8
  %139 = alloca i8*
  %140 = alloca i32
  store %"class.std::vector.17"* %0, %"class.std::vector.17"** %138, align 8
  %141 = load %"class.std::vector.17"*, %"class.std::vector.17"** %138, align 8
  %142 = bitcast %"class.std::vector.17"* %141 to %"struct.std::_Vector_base.18"*
  %143 = getelementptr inbounds %"struct.std::_Vector_base.18", %"struct.std::_Vector_base.18"* %142, i32 0, i32 0
  %144 = getelementptr inbounds %"struct.std::_Vector_base<double, std::allocator<double> >::_Vector_impl", %"struct.std::_Vector_base<double, std::allocator<double> >::_Vector_impl"* %143, i32 0, i32 0
  %145 = load double*, double** %144, align 8
  %146 = bitcast %"class.std::vector.17"* %141 to %"struct.std::_Vector_base.18"*
  %147 = getelementptr inbounds %"struct.std::_Vector_base.18", %"struct.std::_Vector_base.18"* %146, i32 0, i32 0
  %148 = getelementptr inbounds %"struct.std::_Vector_base<double, std::allocator<double> >::_Vector_impl", %"struct.std::_Vector_base<double, std::allocator<double> >::_Vector_impl"* %147, i32 0, i32 1
  %149 = load double*, double** %148, align 8
  %150 = bitcast %"class.std::vector.17"* %141 to %"struct.std::_Vector_base.18"*
  %151 = call dereferenceable(1) %"class.std::allocator.19"* @_ZNSt12_Vector_baseIdSaIdEE19_M_get_Tp_allocatorEv(%"struct.std::_Vector_base.18"* %150) #4
  br label %16

; <label>:152:                                    ; preds = %72, %58
  %153 = bitcast %"class.std::vector.17"* %20 to %"struct.std::_Vector_base.18"*
  call void @_ZNSt12_Vector_baseIdSaIdEED2Ev(%"struct.std::_Vector_base.18"* %153) #4
  br label %72

; <label>:154:                                    ; preds = %121, %106
  %155 = load i8*, i8** %18, align 8
  call void @__clang_call_terminate(i8* %155) #8
  br label %121
}

; Function Attrs: noinline uwtable
define zeroext i1 @_ZNK5Graph10cut_vertexEiRKSt3setIiSt4lessIiESaIiEE(%class.Graph*, i32, %"class.std::set"* dereferenceable(48)) #0 align 2 personality i8* bitcast (i32 (...)* @__gxx_personality_v0 to i8*) {
  %4 = load i32, i32* @x.81
  %5 = load i32, i32* @y.82
  %6 = sub i32 %4, -62809320
  %7 = sub i32 %6, 1
  %8 = add i32 %7, -62809320
  %9 = sub i32 %4, 1
  %10 = mul i32 %4, %8
  %11 = urem i32 %10, 2
  %12 = icmp eq i32 %11, 0
  %13 = icmp slt i32 %5, 10
  %14 = and i1 %12, %13
  %15 = xor i1 %12, %13
  %16 = or i1 %14, %15
  %17 = or i1 %12, %13
  br i1 %16, label %18, label %395

; <label>:18:                                     ; preds = %3, %395
  %19 = alloca i1, align 1
  %20 = alloca %class.Graph*, align 8
  %21 = alloca i32, align 4
  %22 = alloca %"class.std::set"*, align 8
  %23 = alloca %"class.std::set", align 8
  %24 = alloca %"class.std::vector.0"*, align 8
  %25 = alloca i8*
  %26 = alloca i32
  %27 = alloca %"class.__gnu_cxx::__normal_iterator", align 8
  %28 = alloca %"class.__gnu_cxx::__normal_iterator", align 8
  %29 = alloca %class.Edge*, align 8
  %30 = alloca i32, align 4
  %31 = alloca i32
  store %class.Graph* %0, %class.Graph** %20, align 8
  store i32 %1, i32* %21, align 4
  store %"class.std::set"* %2, %"class.std::set"** %22, align 8
  %32 = load %class.Graph*, %class.Graph** %20, align 8
  %33 = load %"class.std::set"*, %"class.std::set"** %22, align 8
  call void @_ZNSt3setIiSt4lessIiESaIiEEC2ERKS3_(%"class.std::set"* %23, %"class.std::set"* dereferenceable(48) %33)
  %34 = load i32, i32* %21, align 4
  %35 = load i32, i32* @x.81
  %36 = load i32, i32* @y.82
  %37 = add i32 %35, 1946316466
  %38 = sub i32 %37, 1
  %39 = sub i32 %38, 1946316466
  %40 = sub i32 %35, 1
  %41 = mul i32 %35, %39
  %42 = urem i32 %41, 2
  %43 = icmp eq i32 %42, 0
  %44 = icmp slt i32 %36, 10
  %45 = xor i1 %43, true
  %46 = xor i1 %44, true
  %47 = xor i1 false, true
  %48 = and i1 %45, false
  %49 = and i1 %43, %47
  %50 = and i1 %46, false
  %51 = and i1 %44, %47
  %52 = or i1 %48, %49
  %53 = or i1 %50, %51
  %54 = xor i1 %52, %53
  %55 = or i1 %45, %46
  %56 = xor i1 %55, true
  %57 = or i1 false, %47
  %58 = and i1 %56, %57
  %59 = or i1 %54, %58
  %60 = or i1 %43, %44
  br i1 %59, label %61, label %395

; <label>:61:                                     ; preds = %18
  %62 = invoke dereferenceable(24) %"class.std::vector.0"* @_ZNK5Graph4edgeEi(%class.Graph* %32, i32 %34)
          to label %63 unwind label %234

; <label>:63:                                     ; preds = %61
  store %"class.std::vector.0"* %62, %"class.std::vector.0"** %24, align 8
  %64 = load %"class.std::vector.0"*, %"class.std::vector.0"** %24, align 8
  %65 = call %class.Edge* @_ZNKSt6vectorI4EdgeSaIS0_EE5beginEv(%"class.std::vector.0"* %64) #4
  %66 = getelementptr inbounds %"class.__gnu_cxx::__normal_iterator", %"class.__gnu_cxx::__normal_iterator"* %27, i32 0, i32 0
  store %class.Edge* %65, %class.Edge** %66, align 8
  %67 = load %"class.std::vector.0"*, %"class.std::vector.0"** %24, align 8
  %68 = call %class.Edge* @_ZNKSt6vectorI4EdgeSaIS0_EE3endEv(%"class.std::vector.0"* %67) #4
  %69 = getelementptr inbounds %"class.__gnu_cxx::__normal_iterator", %"class.__gnu_cxx::__normal_iterator"* %28, i32 0, i32 0
  store %class.Edge* %68, %class.Edge** %69, align 8
  br label %70

; <label>:70:                                     ; preds = %338, %63
  %71 = call zeroext i1 @_ZN9__gnu_cxxneIPK4EdgeSt6vectorIS1_SaIS1_EEEEbRKNS_17__normal_iteratorIT_T0_EESC_(%"class.__gnu_cxx::__normal_iterator"* dereferenceable(8) %27, %"class.__gnu_cxx::__normal_iterator"* dereferenceable(8) %28) #4
  br i1 %71, label %72, label %340

; <label>:72:                                     ; preds = %70
  %73 = load i32, i32* @x.81
  %74 = load i32, i32* @y.82
  %75 = sub i32 %73, 2036315935
  %76 = sub i32 %75, 1
  %77 = add i32 %76, 2036315935
  %78 = sub i32 %73, 1
  %79 = mul i32 %73, %77
  %80 = urem i32 %79, 2
  %81 = icmp eq i32 %80, 0
  %82 = icmp slt i32 %74, 10
  %83 = xor i1 %81, true
  %84 = xor i1 %82, true
  %85 = xor i1 true, true
  %86 = and i1 %83, true
  %87 = and i1 %81, %85
  %88 = and i1 %84, true
  %89 = and i1 %82, %85
  %90 = or i1 %86, %87
  %91 = or i1 %88, %89
  %92 = xor i1 %90, %91
  %93 = or i1 %83, %84
  %94 = xor i1 %93, true
  %95 = or i1 true, %85
  %96 = and i1 %94, %95
  %97 = or i1 %92, %96
  %98 = or i1 %81, %82
  br i1 %97, label %99, label %412

; <label>:99:                                     ; preds = %72, %412
  %100 = call dereferenceable(16) %class.Edge* @_ZNK9__gnu_cxx17__normal_iteratorIPK4EdgeSt6vectorIS1_SaIS1_EEEdeEv(%"class.__gnu_cxx::__normal_iterator"* %27) #4
  store %class.Edge* %100, %class.Edge** %29, align 8
  %101 = load %class.Edge*, %class.Edge** %29, align 8
  %102 = load i32, i32* @x.81
  %103 = load i32, i32* @y.82
  %104 = sub i32 0, 1
  %105 = add i32 %102, %104
  %106 = sub i32 %102, 1
  %107 = mul i32 %102, %105
  %108 = urem i32 %107, 2
  %109 = icmp eq i32 %108, 0
  %110 = icmp slt i32 %103, 10
  %111 = and i1 %109, %110
  %112 = xor i1 %109, %110
  %113 = or i1 %111, %112
  %114 = or i1 %109, %110
  br i1 %113, label %115, label %412

; <label>:115:                                    ; preds = %99
  %116 = invoke i32 @_ZNK4Edge2toEv(%class.Edge* %101)
          to label %117 unwind label %234

; <label>:117:                                    ; preds = %115
  %118 = load i32, i32* @x.81
  %119 = load i32, i32* @y.82
  %120 = sub i32 0, 1
  %121 = add i32 %118, %120
  %122 = sub i32 %118, 1
  %123 = mul i32 %118, %121
  %124 = urem i32 %123, 2
  %125 = icmp eq i32 %124, 0
  %126 = icmp slt i32 %119, 10
  %127 = and i1 %125, %126
  %128 = xor i1 %125, %126
  %129 = or i1 %127, %128
  %130 = or i1 %125, %126
  br i1 %129, label %131, label %415

; <label>:131:                                    ; preds = %117, %415
  store i32 %116, i32* %30, align 4
  %132 = load i32, i32* @x.81
  %133 = load i32, i32* @y.82
  %134 = add i32 %132, -1380962922
  %135 = sub i32 %134, 1
  %136 = sub i32 %135, -1380962922
  %137 = sub i32 %132, 1
  %138 = mul i32 %132, %136
  %139 = urem i32 %138, 2
  %140 = icmp eq i32 %139, 0
  %141 = icmp slt i32 %133, 10
  %142 = xor i1 %140, true
  %143 = xor i1 %141, true
  %144 = xor i1 false, true
  %145 = and i1 %142, false
  %146 = and i1 %140, %144
  %147 = and i1 %143, false
  %148 = and i1 %141, %144
  %149 = or i1 %145, %146
  %150 = or i1 %147, %148
  %151 = xor i1 %149, %150
  %152 = or i1 %142, %143
  %153 = xor i1 %152, true
  %154 = or i1 false, %144
  %155 = and i1 %153, %154
  %156 = or i1 %151, %155
  %157 = or i1 %140, %141
  br i1 %156, label %158, label %415

; <label>:158:                                    ; preds = %131
  %159 = invoke i64 @_ZNKSt3setIiSt4lessIiESaIiEE5countERKi(%"class.std::set"* %23, i32* dereferenceable(4) %30)
          to label %160 unwind label %234

; <label>:160:                                    ; preds = %158
  %161 = load i32, i32* @x.81
  %162 = load i32, i32* @y.82
  %163 = sub i32 %161, 161245364
  %164 = sub i32 %163, 1
  %165 = add i32 %164, 161245364
  %166 = sub i32 %161, 1
  %167 = mul i32 %161, %165
  %168 = urem i32 %167, 2
  %169 = icmp eq i32 %168, 0
  %170 = icmp slt i32 %162, 10
  %171 = xor i1 %169, true
  %172 = xor i1 %170, true
  %173 = xor i1 true, true
  %174 = and i1 %171, true
  %175 = and i1 %169, %173
  %176 = and i1 %172, true
  %177 = and i1 %170, %173
  %178 = or i1 %174, %175
  %179 = or i1 %176, %177
  %180 = xor i1 %178, %179
  %181 = or i1 %171, %172
  %182 = xor i1 %181, true
  %183 = or i1 true, %173
  %184 = and i1 %182, %183
  %185 = or i1 %180, %184
  %186 = or i1 %169, %170
  br i1 %185, label %187, label %416

; <label>:187:                                    ; preds = %160, %416
  %188 = icmp ne i64 %159, 0
  %189 = load i32, i32* @x.81
  %190 = load i32, i32* @y.82
  %191 = sub i32 %189, -1863175081
  %192 = sub i32 %191, 1
  %193 = add i32 %192, -1863175081
  %194 = sub i32 %189, 1
  %195 = mul i32 %189, %193
  %196 = urem i32 %195, 2
  %197 = icmp eq i32 %196, 0
  %198 = icmp slt i32 %190, 10
  %199 = and i1 %197, %198
  %200 = xor i1 %197, %198
  %201 = or i1 %199, %200
  %202 = or i1 %197, %198
  br i1 %201, label %203, label %416

; <label>:203:                                    ; preds = %187
  br i1 %188, label %204, label %238

; <label>:204:                                    ; preds = %203
  %205 = load i32, i32* @x.81
  %206 = load i32, i32* @y.82
  %207 = add i32 %205, -1444878293
  %208 = sub i32 %207, 1
  %209 = sub i32 %208, -1444878293
  %210 = sub i32 %205, 1
  %211 = mul i32 %205, %209
  %212 = urem i32 %211, 2
  %213 = icmp eq i32 %212, 0
  %214 = icmp slt i32 %206, 10
  %215 = and i1 %213, %214
  %216 = xor i1 %213, %214
  %217 = or i1 %215, %216
  %218 = or i1 %213, %214
  br i1 %217, label %219, label %418

; <label>:219:                                    ; preds = %204, %418
  %220 = load i32, i32* @x.81
  %221 = load i32, i32* @y.82
  %222 = sub i32 0, 1
  %223 = add i32 %220, %222
  %224 = sub i32 %220, 1
  %225 = mul i32 %220, %223
  %226 = urem i32 %225, 2
  %227 = icmp eq i32 %226, 0
  %228 = icmp slt i32 %221, 10
  %229 = and i1 %227, %228
  %230 = xor i1 %227, %228
  %231 = or i1 %229, %230
  %232 = or i1 %227, %228
  br i1 %231, label %233, label %418

; <label>:233:                                    ; preds = %219
  br label %338

; <label>:234:                                    ; preds = %340, %303, %271, %269, %158, %115, %61
  %235 = landingpad { i8*, i32 }
          cleanup
  %236 = extractvalue { i8*, i32 } %235, 0
  store i8* %236, i8** %25, align 8
  %237 = extractvalue { i8*, i32 } %235, 1
  store i32 %237, i32* %26, align 4
  call void @_ZNSt3setIiSt4lessIiESaIiEED2Ev(%"class.std::set"* %23) #4
  br label %390

; <label>:238:                                    ; preds = %203
  %239 = load i32, i32* @x.81
  %240 = load i32, i32* @y.82
  %241 = sub i32 %239, 1030074940
  %242 = sub i32 %241, 1
  %243 = add i32 %242, 1030074940
  %244 = sub i32 %239, 1
  %245 = mul i32 %239, %243
  %246 = urem i32 %245, 2
  %247 = icmp eq i32 %246, 0
  %248 = icmp slt i32 %240, 10
  %249 = and i1 %247, %248
  %250 = xor i1 %247, %248
  %251 = or i1 %249, %250
  %252 = or i1 %247, %248
  br i1 %251, label %253, label %419

; <label>:253:                                    ; preds = %238, %419
  %254 = load %class.Edge*, %class.Edge** %29, align 8
  %255 = load i32, i32* @x.81
  %256 = load i32, i32* @y.82
  %257 = add i32 %255, 1246756735
  %258 = sub i32 %257, 1
  %259 = sub i32 %258, 1246756735
  %260 = sub i32 %255, 1
  %261 = mul i32 %255, %259
  %262 = urem i32 %261, 2
  %263 = icmp eq i32 %262, 0
  %264 = icmp slt i32 %256, 10
  %265 = and i1 %263, %264
  %266 = xor i1 %263, %264
  %267 = or i1 %265, %266
  %268 = or i1 %263, %264
  br i1 %267, label %269, label %419

; <label>:269:                                    ; preds = %253
  %270 = invoke i32 @_ZNK4Edge2toEv(%class.Edge* %254)
          to label %271 unwind label %234

; <label>:271:                                    ; preds = %269
  invoke void @_ZNK5Graph23cut_vertex_reachabilityEiRSt3setIiSt4lessIiESaIiEE(%class.Graph* %32, i32 %270, %"class.std::set"* dereferenceable(48) %23)
          to label %272 unwind label %234

; <label>:272:                                    ; preds = %271
  %273 = load i32, i32* @x.81
  %274 = load i32, i32* @y.82
  %275 = add i32 %273, -4727373
  %276 = sub i32 %275, 1
  %277 = sub i32 %276, -4727373
  %278 = sub i32 %273, 1
  %279 = mul i32 %273, %277
  %280 = urem i32 %279, 2
  %281 = icmp eq i32 %280, 0
  %282 = icmp slt i32 %274, 10
  %283 = and i1 %281, %282
  %284 = xor i1 %281, %282
  %285 = or i1 %283, %284
  %286 = or i1 %281, %282
  br i1 %285, label %287, label %421

; <label>:287:                                    ; preds = %272, %421
  %288 = call i64 @_ZNKSt3setIiSt4lessIiESaIiEE4sizeEv(%"class.std::set"* %23) #4
  %289 = load i32, i32* @x.81
  %290 = load i32, i32* @y.82
  %291 = sub i32 %289, 2005615483
  %292 = sub i32 %291, 1
  %293 = add i32 %292, 2005615483
  %294 = sub i32 %289, 1
  %295 = mul i32 %289, %293
  %296 = urem i32 %295, 2
  %297 = icmp eq i32 %296, 0
  %298 = icmp slt i32 %290, 10
  %299 = and i1 %297, %298
  %300 = xor i1 %297, %298
  %301 = or i1 %299, %300
  %302 = or i1 %297, %298
  br i1 %301, label %303, label %421

; <label>:303:                                    ; preds = %287
  %304 = invoke i32 @_ZNK5Graph4sizeEv(%class.Graph* %32)
          to label %305 unwind label %234

; <label>:305:                                    ; preds = %303
  %306 = load i32, i32* @x.81
  %307 = load i32, i32* @y.82
  %308 = sub i32 %306, 733617399
  %309 = sub i32 %308, 1
  %310 = add i32 %309, 733617399
  %311 = sub i32 %306, 1
  %312 = mul i32 %306, %310
  %313 = urem i32 %312, 2
  %314 = icmp eq i32 %313, 0
  %315 = icmp slt i32 %307, 10
  %316 = and i1 %314, %315
  %317 = xor i1 %314, %315
  %318 = or i1 %316, %317
  %319 = or i1 %314, %315
  br i1 %318, label %320, label %423

; <label>:320:                                    ; preds = %305, %423
  %321 = sext i32 %304 to i64
  %322 = icmp ne i64 %288, %321
  store i1 %322, i1* %19, align 1
  store i32 1, i32* %31, align 4
  %323 = load i32, i32* @x.81
  %324 = load i32, i32* @y.82
  %325 = sub i32 %323, 795117474
  %326 = sub i32 %325, 1
  %327 = add i32 %326, 795117474
  %328 = sub i32 %323, 1
  %329 = mul i32 %323, %327
  %330 = urem i32 %329, 2
  %331 = icmp eq i32 %330, 0
  %332 = icmp slt i32 %324, 10
  %333 = and i1 %331, %332
  %334 = xor i1 %331, %332
  %335 = or i1 %333, %334
  %336 = or i1 %331, %332
  br i1 %335, label %337, label %423

; <label>:337:                                    ; preds = %320
  br label %388

; <label>:338:                                    ; preds = %233
  %339 = call dereferenceable(8) %"class.__gnu_cxx::__normal_iterator"* @_ZN9__gnu_cxx17__normal_iteratorIPK4EdgeSt6vectorIS1_SaIS1_EEEppEv(%"class.__gnu_cxx::__normal_iterator"* %27) #4
  br label %70

; <label>:340:                                    ; preds = %70
  %341 = call i64 @_ZNKSt3setIiSt4lessIiESaIiEE4sizeEv(%"class.std::set"* %23) #4
  %342 = invoke i32 @_ZNK5Graph4sizeEv(%class.Graph* %32)
          to label %343 unwind label %234

; <label>:343:                                    ; preds = %340
  %344 = load i32, i32* @x.81
  %345 = load i32, i32* @y.82
  %346 = sub i32 %344, -1225265868
  %347 = sub i32 %346, 1
  %348 = add i32 %347, -1225265868
  %349 = sub i32 %344, 1
  %350 = mul i32 %344, %348
  %351 = urem i32 %350, 2
  %352 = icmp eq i32 %351, 0
  %353 = icmp slt i32 %345, 10
  %354 = xor i1 %352, true
  %355 = xor i1 %353, true
  %356 = xor i1 true, true
  %357 = and i1 %354, true
  %358 = and i1 %352, %356
  %359 = and i1 %355, true
  %360 = and i1 %353, %356
  %361 = or i1 %357, %358
  %362 = or i1 %359, %360
  %363 = xor i1 %361, %362
  %364 = or i1 %354, %355
  %365 = xor i1 %364, true
  %366 = or i1 true, %356
  %367 = and i1 %365, %366
  %368 = or i1 %363, %367
  %369 = or i1 %352, %353
  br i1 %368, label %370, label %426

; <label>:370:                                    ; preds = %343, %426
  %371 = sext i32 %342 to i64
  %372 = icmp ne i64 %341, %371
  store i1 %372, i1* %19, align 1
  store i32 1, i32* %31, align 4
  %373 = load i32, i32* @x.81
  %374 = load i32, i32* @y.82
  %375 = add i32 %373, -1743854968
  %376 = sub i32 %375, 1
  %377 = sub i32 %376, -1743854968
  %378 = sub i32 %373, 1
  %379 = mul i32 %373, %377
  %380 = urem i32 %379, 2
  %381 = icmp eq i32 %380, 0
  %382 = icmp slt i32 %374, 10
  %383 = and i1 %381, %382
  %384 = xor i1 %381, %382
  %385 = or i1 %383, %384
  %386 = or i1 %381, %382
  br i1 %385, label %387, label %426

; <label>:387:                                    ; preds = %370
  br label %388

; <label>:388:                                    ; preds = %387, %337
  call void @_ZNSt3setIiSt4lessIiESaIiEED2Ev(%"class.std::set"* %23) #4
  %389 = load i1, i1* %19, align 1
  ret i1 %389

; <label>:390:                                    ; preds = %234
  %391 = load i8*, i8** %25, align 8
  %392 = load i32, i32* %26, align 4
  %393 = insertvalue { i8*, i32 } undef, i8* %391, 0
  %394 = insertvalue { i8*, i32 } %393, i32 %392, 1
  resume { i8*, i32 } %394

; <label>:395:                                    ; preds = %18, %3
  %396 = alloca i1, align 1
  %397 = alloca %class.Graph*, align 8
  %398 = alloca i32, align 4
  %399 = alloca %"class.std::set"*, align 8
  %400 = alloca %"class.std::set", align 8
  %401 = alloca %"class.std::vector.0"*, align 8
  %402 = alloca i8*
  %403 = alloca i32
  %404 = alloca %"class.__gnu_cxx::__normal_iterator", align 8
  %405 = alloca %"class.__gnu_cxx::__normal_iterator", align 8
  %406 = alloca %class.Edge*, align 8
  %407 = alloca i32, align 4
  %408 = alloca i32
  store %class.Graph* %0, %class.Graph** %397, align 8
  store i32 %1, i32* %398, align 4
  store %"class.std::set"* %2, %"class.std::set"** %399, align 8
  %409 = load %class.Graph*, %class.Graph** %397, align 8
  %410 = load %"class.std::set"*, %"class.std::set"** %399, align 8
  call void @_ZNSt3setIiSt4lessIiESaIiEEC2ERKS3_(%"class.std::set"* %400, %"class.std::set"* dereferenceable(48) %410)
  %411 = load i32, i32* %398, align 4
  br label %18

; <label>:412:                                    ; preds = %99, %72
  %413 = call dereferenceable(16) %class.Edge* @_ZNK9__gnu_cxx17__normal_iteratorIPK4EdgeSt6vectorIS1_SaIS1_EEEdeEv(%"class.__gnu_cxx::__normal_iterator"* %27) #4
  store %class.Edge* %413, %class.Edge** %29, align 8
  %414 = load %class.Edge*, %class.Edge** %29, align 8
  br label %99

; <label>:415:                                    ; preds = %131, %117
  store i32 %116, i32* %30, align 4
  br label %131

; <label>:416:                                    ; preds = %187, %160
  %417 = icmp ne i64 %159, 0
  br label %187

; <label>:418:                                    ; preds = %219, %204
  br label %219

; <label>:419:                                    ; preds = %253, %238
  %420 = load %class.Edge*, %class.Edge** %29, align 8
  br label %253

; <label>:421:                                    ; preds = %287, %272
  %422 = call i64 @_ZNKSt3setIiSt4lessIiESaIiEE4sizeEv(%"class.std::set"* %23) #4
  br label %287

; <label>:423:                                    ; preds = %320, %305
  %424 = sext i32 %304 to i64
  %425 = icmp ne i64 %288, %424
  store i1 %425, i1* %19, align 1
  store i32 1, i32* %31, align 4
  br label %320

; <label>:426:                                    ; preds = %370, %343
  %427 = sext i32 %342 to i64
  %428 = icmp ne i64 %341, %427
  store i1 %428, i1* %19, align 1
  store i32 1, i32* %31, align 4
  br label %370
}

; Function Attrs: noinline uwtable
define linkonce_odr void @_ZNSt3setIiSt4lessIiESaIiEEC2ERKS3_(%"class.std::set"*, %"class.std::set"* dereferenceable(48)) unnamed_addr #0 comdat align 2 {
  %3 = alloca %"class.std::set"*, align 8
  %4 = alloca %"class.std::set"*, align 8
  store %"class.std::set"* %0, %"class.std::set"** %3, align 8
  store %"class.std::set"* %1, %"class.std::set"** %4, align 8
  %5 = load %"class.std::set"*, %"class.std::set"** %3, align 8
  %6 = getelementptr inbounds %"class.std::set", %"class.std::set"* %5, i32 0, i32 0
  %7 = load %"class.std::set"*, %"class.std::set"** %4, align 8
  %8 = getelementptr inbounds %"class.std::set", %"class.std::set"* %7, i32 0, i32 0
  call void @_ZNSt8_Rb_treeIiiSt9_IdentityIiESt4lessIiESaIiEEC2ERKS5_(%"class.std::_Rb_tree"* %6, %"class.std::_Rb_tree"* dereferenceable(48) %8)
  ret void
}

; Function Attrs: noinline uwtable
define linkonce_odr i64 @_ZNKSt3setIiSt4lessIiESaIiEE5countERKi(%"class.std::set"*, i32* dereferenceable(4)) #0 comdat align 2 {
  %3 = alloca %"class.std::set"*, align 8
  %4 = alloca i32*, align 8
  %5 = alloca %"struct.std::_Rb_tree_const_iterator", align 8
  %6 = alloca %"struct.std::_Rb_tree_const_iterator", align 8
  store %"class.std::set"* %0, %"class.std::set"** %3, align 8
  store i32* %1, i32** %4, align 8
  %7 = load %"class.std::set"*, %"class.std::set"** %3, align 8
  %8 = getelementptr inbounds %"class.std::set", %"class.std::set"* %7, i32 0, i32 0
  %9 = load i32*, i32** %4, align 8
  %10 = call %"struct.std::_Rb_tree_node_base"* @_ZNKSt8_Rb_treeIiiSt9_IdentityIiESt4lessIiESaIiEE4findERKi(%"class.std::_Rb_tree"* %8, i32* dereferenceable(4) %9)
  %11 = getelementptr inbounds %"struct.std::_Rb_tree_const_iterator", %"struct.std::_Rb_tree_const_iterator"* %5, i32 0, i32 0
  store %"struct.std::_Rb_tree_node_base"* %10, %"struct.std::_Rb_tree_node_base"** %11, align 8
  %12 = getelementptr inbounds %"class.std::set", %"class.std::set"* %7, i32 0, i32 0
  %13 = call %"struct.std::_Rb_tree_node_base"* @_ZNKSt8_Rb_treeIiiSt9_IdentityIiESt4lessIiESaIiEE3endEv(%"class.std::_Rb_tree"* %12) #4
  %14 = getelementptr inbounds %"struct.std::_Rb_tree_const_iterator", %"struct.std::_Rb_tree_const_iterator"* %6, i32 0, i32 0
  store %"struct.std::_Rb_tree_node_base"* %13, %"struct.std::_Rb_tree_node_base"** %14, align 8
  %15 = call zeroext i1 @_ZNKSt23_Rb_tree_const_iteratorIiEeqERKS0_(%"struct.std::_Rb_tree_const_iterator"* %5, %"struct.std::_Rb_tree_const_iterator"* dereferenceable(8) %6) #4
  %16 = select i1 %15, i32 0, i32 1
  %17 = sext i32 %16 to i64
  ret i64 %17
}

; Function Attrs: noinline uwtable
define void @_ZNK5Graph23cut_vertex_reachabilityEiRSt3setIiSt4lessIiESaIiEE(%class.Graph*, i32, %"class.std::set"* dereferenceable(48)) #0 align 2 {
  %4 = alloca %class.Graph*
  %5 = alloca %class.Graph*, align 8
  %6 = alloca i32, align 4
  %7 = alloca %"class.std::set"*, align 8
  %8 = alloca %"struct.std::pair", align 8
  %9 = alloca %"class.std::vector.0"*, align 8
  %10 = alloca %"class.__gnu_cxx::__normal_iterator", align 8
  %11 = alloca %"class.__gnu_cxx::__normal_iterator", align 8
  %12 = alloca %class.Edge*, align 8
  %13 = alloca i32, align 4
  store %class.Graph* %0, %class.Graph** %5, align 8
  store i32 %1, i32* %6, align 4
  store %"class.std::set"* %2, %"class.std::set"** %7, align 8
  %14 = load %class.Graph*, %class.Graph** %5, align 8
  store %class.Graph* %14, %class.Graph** %4
  %15 = load %"class.std::set"*, %"class.std::set"** %7, align 8
  %16 = call { %"struct.std::_Rb_tree_node_base"*, i8 } @_ZNSt3setIiSt4lessIiESaIiEE6insertERKi(%"class.std::set"* %15, i32* dereferenceable(4) %6)
  %17 = bitcast %"struct.std::pair"* %8 to { %"struct.std::_Rb_tree_node_base"*, i8 }*
  %18 = getelementptr inbounds { %"struct.std::_Rb_tree_node_base"*, i8 }, { %"struct.std::_Rb_tree_node_base"*, i8 }* %17, i32 0, i32 0
  %19 = extractvalue { %"struct.std::_Rb_tree_node_base"*, i8 } %16, 0
  store %"struct.std::_Rb_tree_node_base"* %19, %"struct.std::_Rb_tree_node_base"** %18, align 8
  %20 = getelementptr inbounds { %"struct.std::_Rb_tree_node_base"*, i8 }, { %"struct.std::_Rb_tree_node_base"*, i8 }* %17, i32 0, i32 1
  %21 = extractvalue { %"struct.std::_Rb_tree_node_base"*, i8 } %16, 1
  store i8 %21, i8* %20, align 8
  %22 = load i32, i32* %6, align 4
  %23 = load volatile %class.Graph*, %class.Graph** %4
  %24 = call dereferenceable(24) %"class.std::vector.0"* @_ZNK5Graph4edgeEi(%class.Graph* %23, i32 %22)
  store %"class.std::vector.0"* %24, %"class.std::vector.0"** %9, align 8
  %25 = load %"class.std::vector.0"*, %"class.std::vector.0"** %9, align 8
  %26 = call %class.Edge* @_ZNKSt6vectorI4EdgeSaIS0_EE5beginEv(%"class.std::vector.0"* %25) #4
  %27 = getelementptr inbounds %"class.__gnu_cxx::__normal_iterator", %"class.__gnu_cxx::__normal_iterator"* %10, i32 0, i32 0
  store %class.Edge* %26, %class.Edge** %27, align 8
  %28 = load %"class.std::vector.0"*, %"class.std::vector.0"** %9, align 8
  %29 = call %class.Edge* @_ZNKSt6vectorI4EdgeSaIS0_EE3endEv(%"class.std::vector.0"* %28) #4
  %30 = getelementptr inbounds %"class.__gnu_cxx::__normal_iterator", %"class.__gnu_cxx::__normal_iterator"* %11, i32 0, i32 0
  store %class.Edge* %29, %class.Edge** %30, align 8
  %31 = alloca i32
  store i32 -89718388, i32* %31
  br label %32

; <label>:32:                                     ; preds = %3, %137
  %33 = load i32, i32* %31
  switch i32 %33, label %34 [
    i32 -89718388, label %35
    i32 -2120222327, label %38
    i32 1156067390, label %52
    i32 879404491, label %57
    i32 -639897830, label %84
    i32 -1885574381, label %99
    i32 -500945677, label %100
    i32 708407221, label %116
    i32 2096196554, label %132
    i32 -78547869, label %133
    i32 1556209508, label %134
    i32 -145105884, label %135
  ]

; <label>:34:                                     ; preds = %32
  br label %137

; <label>:35:                                     ; preds = %32
  %36 = call zeroext i1 @_ZN9__gnu_cxxneIPK4EdgeSt6vectorIS1_SaIS1_EEEEbRKNS_17__normal_iteratorIT_T0_EESC_(%"class.__gnu_cxx::__normal_iterator"* dereferenceable(8) %10, %"class.__gnu_cxx::__normal_iterator"* dereferenceable(8) %11) #4
  %37 = select i1 %36, i32 -2120222327, i32 -78547869
  store i32 %37, i32* %31
  br label %137

; <label>:38:                                     ; preds = %32
  %39 = call dereferenceable(16) %class.Edge* @_ZNK9__gnu_cxx17__normal_iteratorIPK4EdgeSt6vectorIS1_SaIS1_EEEdeEv(%"class.__gnu_cxx::__normal_iterator"* %10) #4
  store %class.Edge* %39, %class.Edge** %12, align 8
  %40 = load %"class.std::set"*, %"class.std::set"** %7, align 8
  %41 = load %class.Edge*, %class.Edge** %12, align 8
  %42 = call i32 @_ZNK4Edge2toEv(%class.Edge* %41)
  store i32 %42, i32* %13, align 4
  %43 = call i64 @_ZNKSt3setIiSt4lessIiESaIiEE5countERKi(%"class.std::set"* %40, i32* dereferenceable(4) %13)
  %44 = icmp ne i64 %43, 0
  %45 = xor i1 %44, true
  %46 = and i1 true, %45
  %47 = xor i1 true, true
  %48 = and i1 %44, %47
  %49 = or i1 %46, %48
  %50 = xor i1 %44, true
  %51 = select i1 %49, i32 1156067390, i32 879404491
  store i32 %51, i32* %31
  br label %137

; <label>:52:                                     ; preds = %32
  %53 = load %class.Edge*, %class.Edge** %12, align 8
  %54 = call i32 @_ZNK4Edge2toEv(%class.Edge* %53)
  %55 = load %"class.std::set"*, %"class.std::set"** %7, align 8
  %56 = load volatile %class.Graph*, %class.Graph** %4
  call void @_ZNK5Graph23cut_vertex_reachabilityEiRSt3setIiSt4lessIiESaIiEE(%class.Graph* %56, i32 %54, %"class.std::set"* dereferenceable(48) %55)
  store i32 879404491, i32* %31
  br label %137

; <label>:57:                                     ; preds = %32
  %58 = load i32, i32* @x.87
  %59 = load i32, i32* @y.88
  %60 = sub i32 0, 1
  %61 = add i32 %58, %60
  %62 = sub i32 %58, 1
  %63 = mul i32 %58, %61
  %64 = urem i32 %63, 2
  %65 = icmp eq i32 %64, 0
  %66 = icmp slt i32 %59, 10
  %67 = xor i1 %65, true
  %68 = xor i1 %66, true
  %69 = xor i1 true, true
  %70 = and i1 %67, true
  %71 = and i1 %65, %69
  %72 = and i1 %68, true
  %73 = and i1 %66, %69
  %74 = or i1 %70, %71
  %75 = or i1 %72, %73
  %76 = xor i1 %74, %75
  %77 = or i1 %67, %68
  %78 = xor i1 %77, true
  %79 = or i1 true, %69
  %80 = and i1 %78, %79
  %81 = or i1 %76, %80
  %82 = or i1 %65, %66
  %83 = select i1 %81, i32 -639897830, i32 1556209508
  store i32 %83, i32* %31
  br label %137

; <label>:84:                                     ; preds = %32
  %85 = load i32, i32* @x.87
  %86 = load i32, i32* @y.88
  %87 = sub i32 0, 1
  %88 = add i32 %85, %87
  %89 = sub i32 %85, 1
  %90 = mul i32 %85, %88
  %91 = urem i32 %90, 2
  %92 = icmp eq i32 %91, 0
  %93 = icmp slt i32 %86, 10
  %94 = and i1 %92, %93
  %95 = xor i1 %92, %93
  %96 = or i1 %94, %95
  %97 = or i1 %92, %93
  %98 = select i1 %96, i32 -1885574381, i32 1556209508
  store i32 %98, i32* %31
  br label %137

; <label>:99:                                     ; preds = %32
  store i32 -500945677, i32* %31
  br label %137

; <label>:100:                                    ; preds = %32
  %101 = load i32, i32* @x.87
  %102 = load i32, i32* @y.88
  %103 = sub i32 %101, -461028802
  %104 = sub i32 %103, 1
  %105 = add i32 %104, -461028802
  %106 = sub i32 %101, 1
  %107 = mul i32 %101, %105
  %108 = urem i32 %107, 2
  %109 = icmp eq i32 %108, 0
  %110 = icmp slt i32 %102, 10
  %111 = and i1 %109, %110
  %112 = xor i1 %109, %110
  %113 = or i1 %111, %112
  %114 = or i1 %109, %110
  %115 = select i1 %113, i32 708407221, i32 -145105884
  store i32 %115, i32* %31
  br label %137

; <label>:116:                                    ; preds = %32
  %117 = call dereferenceable(8) %"class.__gnu_cxx::__normal_iterator"* @_ZN9__gnu_cxx17__normal_iteratorIPK4EdgeSt6vectorIS1_SaIS1_EEEppEv(%"class.__gnu_cxx::__normal_iterator"* %10) #4
  %118 = load i32, i32* @x.87
  %119 = load i32, i32* @y.88
  %120 = sub i32 0, 1
  %121 = add i32 %118, %120
  %122 = sub i32 %118, 1
  %123 = mul i32 %118, %121
  %124 = urem i32 %123, 2
  %125 = icmp eq i32 %124, 0
  %126 = icmp slt i32 %119, 10
  %127 = and i1 %125, %126
  %128 = xor i1 %125, %126
  %129 = or i1 %127, %128
  %130 = or i1 %125, %126
  %131 = select i1 %129, i32 2096196554, i32 -145105884
  store i32 %131, i32* %31
  br label %137

; <label>:132:                                    ; preds = %32
  store i32 -89718388, i32* %31
  br label %137

; <label>:133:                                    ; preds = %32
  ret void

; <label>:134:                                    ; preds = %32
  store i32 -639897830, i32* %31
  br label %137

; <label>:135:                                    ; preds = %32
  %136 = call dereferenceable(8) %"class.__gnu_cxx::__normal_iterator"* @_ZN9__gnu_cxx17__normal_iteratorIPK4EdgeSt6vectorIS1_SaIS1_EEEppEv(%"class.__gnu_cxx::__normal_iterator"* %10) #4
  store i32 708407221, i32* %31
  br label %137

; <label>:137:                                    ; preds = %135, %134, %132, %116, %100, %99, %84, %57, %52, %38, %35, %34
  br label %32
}

; Function Attrs: noinline nounwind uwtable
define linkonce_odr i64 @_ZNKSt3setIiSt4lessIiESaIiEE4sizeEv(%"class.std::set"*) #1 comdat align 2 {
  %2 = alloca %"class.std::set"*, align 8
  store %"class.std::set"* %0, %"class.std::set"** %2, align 8
  %3 = load %"class.std::set"*, %"class.std::set"** %2, align 8
  %4 = getelementptr inbounds %"class.std::set", %"class.std::set"* %3, i32 0, i32 0
  %5 = call i64 @_ZNKSt8_Rb_treeIiiSt9_IdentityIiESt4lessIiESaIiEE4sizeEv(%"class.std::_Rb_tree"* %4) #4
  ret i64 %5
}

; Function Attrs: noinline nounwind uwtable
define linkonce_odr void @_ZNSt3setIiSt4lessIiESaIiEED2Ev(%"class.std::set"*) unnamed_addr #1 comdat align 2 {
  %2 = alloca %"class.std::set"*, align 8
  store %"class.std::set"* %0, %"class.std::set"** %2, align 8
  %3 = load %"class.std::set"*, %"class.std::set"** %2, align 8
  %4 = getelementptr inbounds %"class.std::set", %"class.std::set"* %3, i32 0, i32 0
  call void @_ZNSt8_Rb_treeIiiSt9_IdentityIiESt4lessIiESaIiEED2Ev(%"class.std::_Rb_tree"* %4) #4
  ret void
}

; Function Attrs: noinline uwtable
define linkonce_odr { %"struct.std::_Rb_tree_node_base"*, i8 } @_ZNSt3setIiSt4lessIiESaIiEE6insertERKi(%"class.std::set"*, i32* dereferenceable(4)) #0 comdat align 2 {
  %3 = alloca %"struct.std::pair", align 8
  %4 = alloca %"class.std::set"*, align 8
  %5 = alloca i32*, align 8
  %6 = alloca %"struct.std::pair.49", align 8
  store %"class.std::set"* %0, %"class.std::set"** %4, align 8
  store i32* %1, i32** %5, align 8
  %7 = load %"class.std::set"*, %"class.std::set"** %4, align 8
  %8 = getelementptr inbounds %"class.std::set", %"class.std::set"* %7, i32 0, i32 0
  %9 = load i32*, i32** %5, align 8
  %10 = call { %"struct.std::_Rb_tree_node_base"*, i8 } @_ZNSt8_Rb_treeIiiSt9_IdentityIiESt4lessIiESaIiEE16_M_insert_uniqueIRKiEESt4pairISt17_Rb_tree_iteratorIiEbEOT_(%"class.std::_Rb_tree"* %8, i32* dereferenceable(4) %9)
  %11 = bitcast %"struct.std::pair.49"* %6 to { %"struct.std::_Rb_tree_node_base"*, i8 }*
  %12 = getelementptr inbounds { %"struct.std::_Rb_tree_node_base"*, i8 }, { %"struct.std::_Rb_tree_node_base"*, i8 }* %11, i32 0, i32 0
  %13 = extractvalue { %"struct.std::_Rb_tree_node_base"*, i8 } %10, 0
  store %"struct.std::_Rb_tree_node_base"* %13, %"struct.std::_Rb_tree_node_base"** %12, align 8
  %14 = getelementptr inbounds { %"struct.std::_Rb_tree_node_base"*, i8 }, { %"struct.std::_Rb_tree_node_base"*, i8 }* %11, i32 0, i32 1
  %15 = extractvalue { %"struct.std::_Rb_tree_node_base"*, i8 } %10, 1
  store i8 %15, i8* %14, align 8
  %16 = getelementptr inbounds %"struct.std::pair.49", %"struct.std::pair.49"* %6, i32 0, i32 0
  %17 = getelementptr inbounds %"struct.std::pair.49", %"struct.std::pair.49"* %6, i32 0, i32 1
  call void @_ZNSt4pairISt23_Rb_tree_const_iteratorIiEbEC2IRSt17_Rb_tree_iteratorIiERbvEEOT_OT0_(%"struct.std::pair"* %3, %"struct.std::_Rb_tree_iterator"* dereferenceable(8) %16, i8* dereferenceable(1) %17)
  %18 = bitcast %"struct.std::pair"* %3 to { %"struct.std::_Rb_tree_node_base"*, i8 }*
  %19 = load { %"struct.std::_Rb_tree_node_base"*, i8 }, { %"struct.std::_Rb_tree_node_base"*, i8 }* %18, align 8
  ret { %"struct.std::_Rb_tree_node_base"*, i8 } %19
}

; Function Attrs: noinline uwtable
define void @_ZNK5Graph8KosarajuEv(%"class.std::vector.26"* noalias sret, %class.Graph*) #0 align 2 personality i8* bitcast (i32 (...)* @__gxx_personality_v0 to i8*) {
  %3 = load i32, i32* @x.95
  %4 = load i32, i32* @y.96
  %5 = add i32 %3, 395606197
  %6 = sub i32 %5, 1
  %7 = sub i32 %6, 395606197
  %8 = sub i32 %3, 1
  %9 = mul i32 %3, %7
  %10 = urem i32 %9, 2
  %11 = icmp eq i32 %10, 0
  %12 = icmp slt i32 %4, 10
  %13 = xor i1 %11, true
  %14 = xor i1 %12, true
  %15 = xor i1 false, true
  %16 = and i1 %13, false
  %17 = and i1 %11, %15
  %18 = and i1 %14, false
  %19 = and i1 %12, %15
  %20 = or i1 %16, %17
  %21 = or i1 %18, %19
  %22 = xor i1 %20, %21
  %23 = or i1 %13, %14
  %24 = xor i1 %23, true
  %25 = or i1 false, %15
  %26 = and i1 %24, %25
  %27 = or i1 %22, %26
  %28 = or i1 %11, %12
  br i1 %27, label %29, label %1072

; <label>:29:                                     ; preds = %2, %1072
  %30 = alloca %class.Graph*, align 8
  %31 = alloca i1, align 1
  %32 = alloca %"class.std::vector.31", align 8
  %33 = alloca i8*
  %34 = alloca i32
  %35 = alloca i8, align 1
  %36 = alloca %"class.std::allocator.35", align 1
  %37 = alloca %"class.std::stack", align 8
  %38 = alloca %"class.std::deque", align 8
  %39 = alloca i32, align 4
  %40 = alloca %"struct.std::_Bit_reference", align 8
  %41 = alloca %"class.std::vector", align 8
  %42 = alloca %"class.std::vector.0", align 8
  %43 = alloca %"class.std::allocator", align 1
  %44 = alloca i32, align 4
  %45 = alloca %"class.std::vector.0"*, align 8
  %46 = alloca %"class.__gnu_cxx::__normal_iterator", align 8
  %47 = alloca %"class.__gnu_cxx::__normal_iterator", align 8
  %48 = alloca %class.Edge*, align 8
  %49 = alloca %class.Edge, align 8
  %50 = alloca %"class.std::vector.31", align 8
  %51 = alloca i8, align 1
  %52 = alloca %"class.std::allocator.35", align 1
  %53 = alloca i32, align 4
  %54 = alloca %"struct.std::_Bit_reference", align 8
  %55 = alloca %"class.std::vector.5", align 8
  store %class.Graph* %1, %class.Graph** %30, align 8
  %56 = load %class.Graph*, %class.Graph** %30, align 8
  store i1 false, i1* %31, align 1
  call void @_ZNSt6vectorIS_IiSaIiEESaIS1_EEC2Ev(%"class.std::vector.26"* %0) #4
  %57 = load i32, i32* @x.95
  %58 = load i32, i32* @y.96
  %59 = sub i32 %57, -1904008605
  %60 = sub i32 %59, 1
  %61 = add i32 %60, -1904008605
  %62 = sub i32 %57, 1
  %63 = mul i32 %57, %61
  %64 = urem i32 %63, 2
  %65 = icmp eq i32 %64, 0
  %66 = icmp slt i32 %58, 10
  %67 = xor i1 %65, true
  %68 = xor i1 %66, true
  %69 = xor i1 true, true
  %70 = and i1 %67, true
  %71 = and i1 %65, %69
  %72 = and i1 %68, true
  %73 = and i1 %66, %69
  %74 = or i1 %70, %71
  %75 = or i1 %72, %73
  %76 = xor i1 %74, %75
  %77 = or i1 %67, %68
  %78 = xor i1 %77, true
  %79 = or i1 true, %69
  %80 = and i1 %78, %79
  %81 = or i1 %76, %80
  %82 = or i1 %65, %66
  br i1 %81, label %83, label %1072

; <label>:83:                                     ; preds = %29
  %84 = invoke i32 @_ZNK5Graph4sizeEv(%class.Graph* %56)
          to label %85 unwind label %330

; <label>:85:                                     ; preds = %83
  %86 = load i32, i32* @x.95
  %87 = load i32, i32* @y.96
  %88 = add i32 %86, 2089398631
  %89 = sub i32 %88, 1
  %90 = sub i32 %89, 2089398631
  %91 = sub i32 %86, 1
  %92 = mul i32 %86, %90
  %93 = urem i32 %92, 2
  %94 = icmp eq i32 %93, 0
  %95 = icmp slt i32 %87, 10
  %96 = and i1 %94, %95
  %97 = xor i1 %94, %95
  %98 = or i1 %96, %97
  %99 = or i1 %94, %95
  br i1 %98, label %100, label %1100

; <label>:100:                                    ; preds = %85, %1100
  %101 = sext i32 %84 to i64
  store i8 0, i8* %35, align 1
  call void @_ZNSaIbEC2Ev(%"class.std::allocator.35"* %36) #4
  %102 = load i32, i32* @x.95
  %103 = load i32, i32* @y.96
  %104 = sub i32 %102, -367139457
  %105 = sub i32 %104, 1
  %106 = add i32 %105, -367139457
  %107 = sub i32 %102, 1
  %108 = mul i32 %102, %106
  %109 = urem i32 %108, 2
  %110 = icmp eq i32 %109, 0
  %111 = icmp slt i32 %103, 10
  %112 = and i1 %110, %111
  %113 = xor i1 %110, %111
  %114 = or i1 %112, %113
  %115 = or i1 %110, %111
  br i1 %114, label %116, label %1100

; <label>:116:                                    ; preds = %100
  invoke void @_ZNSt6vectorIbSaIbEEC2EmRKbRKS0_(%"class.std::vector.31"* %32, i64 %101, i8* dereferenceable(1) %35, %"class.std::allocator.35"* dereferenceable(1) %36)
          to label %117 unwind label %376

; <label>:117:                                    ; preds = %116
  %118 = load i32, i32* @x.95
  %119 = load i32, i32* @y.96
  %120 = sub i32 0, 1
  %121 = add i32 %118, %120
  %122 = sub i32 %118, 1
  %123 = mul i32 %118, %121
  %124 = urem i32 %123, 2
  %125 = icmp eq i32 %124, 0
  %126 = icmp slt i32 %119, 10
  %127 = and i1 %125, %126
  %128 = xor i1 %125, %126
  %129 = or i1 %127, %128
  %130 = or i1 %125, %126
  br i1 %129, label %131, label %1102

; <label>:131:                                    ; preds = %117, %1102
  call void @_ZNSaIbED2Ev(%"class.std::allocator.35"* %36) #4
  %132 = load i32, i32* @x.95
  %133 = load i32, i32* @y.96
  %134 = sub i32 0, 1
  %135 = add i32 %132, %134
  %136 = sub i32 %132, 1
  %137 = mul i32 %132, %135
  %138 = urem i32 %137, 2
  %139 = icmp eq i32 %138, 0
  %140 = icmp slt i32 %133, 10
  %141 = xor i1 %139, true
  %142 = xor i1 %140, true
  %143 = xor i1 true, true
  %144 = and i1 %141, true
  %145 = and i1 %139, %143
  %146 = and i1 %142, true
  %147 = and i1 %140, %143
  %148 = or i1 %144, %145
  %149 = or i1 %146, %147
  %150 = xor i1 %148, %149
  %151 = or i1 %141, %142
  %152 = xor i1 %151, true
  %153 = or i1 true, %143
  %154 = and i1 %152, %153
  %155 = or i1 %150, %154
  %156 = or i1 %139, %140
  br i1 %155, label %157, label %1102

; <label>:157:                                    ; preds = %131
  invoke void @_ZNSt5dequeIiSaIiEEC2Ev(%"class.std::deque"* %38)
          to label %158 unwind label %380

; <label>:158:                                    ; preds = %157
  invoke void @_ZNSt5stackIiSt5dequeIiSaIiEEEC2EOS2_(%"class.std::stack"* %37, %"class.std::deque"* dereferenceable(80) %38)
          to label %159 unwind label %384

; <label>:159:                                    ; preds = %158
  call void @_ZNSt5dequeIiSaIiEED2Ev(%"class.std::deque"* %38) #4
  store i32 0, i32* %39, align 4
  br label %160

; <label>:160:                                    ; preds = %435, %159
  %161 = load i32, i32* %39, align 4
  %162 = invoke i32 @_ZNK5Graph4sizeEv(%class.Graph* %56)
          to label %163 unwind label %388

; <label>:163:                                    ; preds = %160
  %164 = load i32, i32* @x.95
  %165 = load i32, i32* @y.96
  %166 = sub i32 %164, 867981
  %167 = sub i32 %166, 1
  %168 = add i32 %167, 867981
  %169 = sub i32 %164, 1
  %170 = mul i32 %164, %168
  %171 = urem i32 %170, 2
  %172 = icmp eq i32 %171, 0
  %173 = icmp slt i32 %165, 10
  %174 = and i1 %172, %173
  %175 = xor i1 %172, %173
  %176 = or i1 %174, %175
  %177 = or i1 %172, %173
  br i1 %176, label %178, label %1103

; <label>:178:                                    ; preds = %163, %1103
  %179 = icmp slt i32 %161, %162
  %180 = load i32, i32* @x.95
  %181 = load i32, i32* @y.96
  %182 = sub i32 %180, -2021418880
  %183 = sub i32 %182, 1
  %184 = add i32 %183, -2021418880
  %185 = sub i32 %180, 1
  %186 = mul i32 %180, %184
  %187 = urem i32 %186, 2
  %188 = icmp eq i32 %187, 0
  %189 = icmp slt i32 %181, 10
  %190 = xor i1 %188, true
  %191 = xor i1 %189, true
  %192 = xor i1 true, true
  %193 = and i1 %190, true
  %194 = and i1 %188, %192
  %195 = and i1 %191, true
  %196 = and i1 %189, %192
  %197 = or i1 %193, %194
  %198 = or i1 %195, %196
  %199 = xor i1 %197, %198
  %200 = or i1 %190, %191
  %201 = xor i1 %200, true
  %202 = or i1 true, %192
  %203 = and i1 %201, %202
  %204 = or i1 %199, %203
  %205 = or i1 %188, %189
  br i1 %204, label %206, label %1103

; <label>:206:                                    ; preds = %178
  br i1 %179, label %207, label %441

; <label>:207:                                    ; preds = %206
  %208 = load i32, i32* @x.95
  %209 = load i32, i32* @y.96
  %210 = sub i32 0, 1
  %211 = add i32 %208, %210
  %212 = sub i32 %208, 1
  %213 = mul i32 %208, %211
  %214 = urem i32 %213, 2
  %215 = icmp eq i32 %214, 0
  %216 = icmp slt i32 %209, 10
  %217 = and i1 %215, %216
  %218 = xor i1 %215, %216
  %219 = or i1 %217, %218
  %220 = or i1 %215, %216
  br i1 %219, label %221, label %1105

; <label>:221:                                    ; preds = %207, %1105
  %222 = load i32, i32* %39, align 4
  %223 = sext i32 %222 to i64
  %224 = load i32, i32* @x.95
  %225 = load i32, i32* @y.96
  %226 = sub i32 0, 1
  %227 = add i32 %224, %226
  %228 = sub i32 %224, 1
  %229 = mul i32 %224, %227
  %230 = urem i32 %229, 2
  %231 = icmp eq i32 %230, 0
  %232 = icmp slt i32 %225, 10
  %233 = and i1 %231, %232
  %234 = xor i1 %231, %232
  %235 = or i1 %233, %234
  %236 = or i1 %231, %232
  br i1 %235, label %237, label %1105

; <label>:237:                                    ; preds = %221
  %238 = invoke { i64*, i64 } @_ZNSt6vectorIbSaIbEEixEm(%"class.std::vector.31"* %32, i64 %223)
          to label %239 unwind label %388

; <label>:239:                                    ; preds = %237
  %240 = bitcast %"struct.std::_Bit_reference"* %40 to { i64*, i64 }*
  %241 = getelementptr inbounds { i64*, i64 }, { i64*, i64 }* %240, i32 0, i32 0
  %242 = extractvalue { i64*, i64 } %238, 0
  store i64* %242, i64** %241, align 8
  %243 = getelementptr inbounds { i64*, i64 }, { i64*, i64 }* %240, i32 0, i32 1
  %244 = extractvalue { i64*, i64 } %238, 1
  store i64 %244, i64* %243, align 8
  %245 = call zeroext i1 @_ZNKSt14_Bit_referencecvbEv(%"struct.std::_Bit_reference"* %40) #4
  br i1 %245, label %392, label %246

; <label>:246:                                    ; preds = %239
  %247 = load i32, i32* @x.95
  %248 = load i32, i32* @y.96
  %249 = sub i32 0, 1
  %250 = add i32 %247, %249
  %251 = sub i32 %247, 1
  %252 = mul i32 %247, %250
  %253 = urem i32 %252, 2
  %254 = icmp eq i32 %253, 0
  %255 = icmp slt i32 %248, 10
  %256 = and i1 %254, %255
  %257 = xor i1 %254, %255
  %258 = or i1 %256, %257
  %259 = or i1 %254, %255
  br i1 %258, label %260, label %1108

; <label>:260:                                    ; preds = %246, %1108
  %261 = load i32, i32* %39, align 4
  %262 = load i32, i32* @x.95
  %263 = load i32, i32* @y.96
  %264 = sub i32 %262, 174867291
  %265 = sub i32 %264, 1
  %266 = add i32 %265, 174867291
  %267 = sub i32 %262, 1
  %268 = mul i32 %262, %266
  %269 = urem i32 %268, 2
  %270 = icmp eq i32 %269, 0
  %271 = icmp slt i32 %263, 10
  %272 = xor i1 %270, true
  %273 = xor i1 %271, true
  %274 = xor i1 true, true
  %275 = and i1 %272, true
  %276 = and i1 %270, %274
  %277 = and i1 %273, true
  %278 = and i1 %271, %274
  %279 = or i1 %275, %276
  %280 = or i1 %277, %278
  %281 = xor i1 %279, %280
  %282 = or i1 %272, %273
  %283 = xor i1 %282, true
  %284 = or i1 true, %274
  %285 = and i1 %283, %284
  %286 = or i1 %281, %285
  %287 = or i1 %270, %271
  br i1 %286, label %288, label %1108

; <label>:288:                                    ; preds = %260
  invoke void @_ZNK5Graph22Kosaraju_dfs_postorderEiRSt6vectorIbSaIbEERSt5stackIiSt5dequeIiSaIiEEE(%class.Graph* %56, i32 %261, %"class.std::vector.31"* dereferenceable(40) %32, %"class.std::stack"* dereferenceable(80) %37)
          to label %289 unwind label %388

; <label>:289:                                    ; preds = %288
  %290 = load i32, i32* @x.95
  %291 = load i32, i32* @y.96
  %292 = sub i32 0, 1
  %293 = add i32 %290, %292
  %294 = sub i32 %290, 1
  %295 = mul i32 %290, %293
  %296 = urem i32 %295, 2
  %297 = icmp eq i32 %296, 0
  %298 = icmp slt i32 %291, 10
  %299 = xor i1 %297, true
  %300 = xor i1 %298, true
  %301 = xor i1 true, true
  %302 = and i1 %299, true
  %303 = and i1 %297, %301
  %304 = and i1 %300, true
  %305 = and i1 %298, %301
  %306 = or i1 %302, %303
  %307 = or i1 %304, %305
  %308 = xor i1 %306, %307
  %309 = or i1 %299, %300
  %310 = xor i1 %309, true
  %311 = or i1 true, %301
  %312 = and i1 %310, %311
  %313 = or i1 %308, %312
  %314 = or i1 %297, %298
  br i1 %313, label %315, label %1110

; <label>:315:                                    ; preds = %289, %1110
  %316 = load i32, i32* @x.95
  %317 = load i32, i32* @y.96
  %318 = sub i32 0, 1
  %319 = add i32 %316, %318
  %320 = sub i32 %316, 1
  %321 = mul i32 %316, %319
  %322 = urem i32 %321, 2
  %323 = icmp eq i32 %322, 0
  %324 = icmp slt i32 %317, 10
  %325 = and i1 %323, %324
  %326 = xor i1 %323, %324
  %327 = or i1 %325, %326
  %328 = or i1 %323, %324
  br i1 %327, label %329, label %1110

; <label>:329:                                    ; preds = %315
  br label %392

; <label>:330:                                    ; preds = %83
  %331 = load i32, i32* @x.95
  %332 = load i32, i32* @y.96
  %333 = add i32 %331, -1192168520
  %334 = sub i32 %333, 1
  %335 = sub i32 %334, -1192168520
  %336 = sub i32 %331, 1
  %337 = mul i32 %331, %335
  %338 = urem i32 %337, 2
  %339 = icmp eq i32 %338, 0
  %340 = icmp slt i32 %332, 10
  %341 = xor i1 %339, true
  %342 = xor i1 %340, true
  %343 = xor i1 true, true
  %344 = and i1 %341, true
  %345 = and i1 %339, %343
  %346 = and i1 %342, true
  %347 = and i1 %340, %343
  %348 = or i1 %344, %345
  %349 = or i1 %346, %347
  %350 = xor i1 %348, %349
  %351 = or i1 %341, %342
  %352 = xor i1 %351, true
  %353 = or i1 true, %343
  %354 = and i1 %352, %353
  %355 = or i1 %350, %354
  %356 = or i1 %339, %340
  br i1 %355, label %357, label %1111

; <label>:357:                                    ; preds = %330, %1111
  %358 = landingpad { i8*, i32 }
          cleanup
  %359 = extractvalue { i8*, i32 } %358, 0
  store i8* %359, i8** %33, align 8
  %360 = extractvalue { i8*, i32 } %358, 1
  store i32 %360, i32* %34, align 4
  %361 = load i32, i32* @x.95
  %362 = load i32, i32* @y.96
  %363 = sub i32 %361, 1037879974
  %364 = sub i32 %363, 1
  %365 = add i32 %364, 1037879974
  %366 = sub i32 %361, 1
  %367 = mul i32 %361, %365
  %368 = urem i32 %367, 2
  %369 = icmp eq i32 %368, 0
  %370 = icmp slt i32 %362, 10
  %371 = and i1 %369, %370
  %372 = xor i1 %369, %370
  %373 = or i1 %371, %372
  %374 = or i1 %369, %370
  br i1 %373, label %375, label %1111

; <label>:375:                                    ; preds = %357
  br label %1026

; <label>:376:                                    ; preds = %116
  %377 = landingpad { i8*, i32 }
          cleanup
  %378 = extractvalue { i8*, i32 } %377, 0
  store i8* %378, i8** %33, align 8
  %379 = extractvalue { i8*, i32 } %377, 1
  store i32 %379, i32* %34, align 4
  call void @_ZNSaIbED2Ev(%"class.std::allocator.35"* %36) #4
  br label %1026

; <label>:380:                                    ; preds = %157
  %381 = landingpad { i8*, i32 }
          cleanup
  %382 = extractvalue { i8*, i32 } %381, 0
  store i8* %382, i8** %33, align 8
  %383 = extractvalue { i8*, i32 } %381, 1
  store i32 %383, i32* %34, align 4
  br label %1023

; <label>:384:                                    ; preds = %158
  %385 = landingpad { i8*, i32 }
          cleanup
  %386 = extractvalue { i8*, i32 } %385, 0
  store i8* %386, i8** %33, align 8
  %387 = extractvalue { i8*, i32 } %385, 1
  store i32 %387, i32* %34, align 4
  call void @_ZNSt5dequeIiSaIiEED2Ev(%"class.std::deque"* %38) #4
  br label %1023

; <label>:388:                                    ; preds = %441, %288, %237, %160
  %389 = landingpad { i8*, i32 }
          cleanup
  %390 = extractvalue { i8*, i32 } %389, 0
  store i8* %390, i8** %33, align 8
  %391 = extractvalue { i8*, i32 } %389, 1
  store i32 %391, i32* %34, align 4
  br label %981

; <label>:392:                                    ; preds = %329, %239
  %393 = load i32, i32* @x.95
  %394 = load i32, i32* @y.96
  %395 = sub i32 %393, 1590746320
  %396 = sub i32 %395, 1
  %397 = add i32 %396, 1590746320
  %398 = sub i32 %393, 1
  %399 = mul i32 %393, %397
  %400 = urem i32 %399, 2
  %401 = icmp eq i32 %400, 0
  %402 = icmp slt i32 %394, 10
  %403 = and i1 %401, %402
  %404 = xor i1 %401, %402
  %405 = or i1 %403, %404
  %406 = or i1 %401, %402
  br i1 %405, label %407, label %1115

; <label>:407:                                    ; preds = %392, %1115
  %408 = load i32, i32* @x.95
  %409 = load i32, i32* @y.96
  %410 = sub i32 %408, -1200130893
  %411 = sub i32 %410, 1
  %412 = add i32 %411, -1200130893
  %413 = sub i32 %408, 1
  %414 = mul i32 %408, %412
  %415 = urem i32 %414, 2
  %416 = icmp eq i32 %415, 0
  %417 = icmp slt i32 %409, 10
  %418 = xor i1 %416, true
  %419 = xor i1 %417, true
  %420 = xor i1 true, true
  %421 = and i1 %418, true
  %422 = and i1 %416, %420
  %423 = and i1 %419, true
  %424 = and i1 %417, %420
  %425 = or i1 %421, %422
  %426 = or i1 %423, %424
  %427 = xor i1 %425, %426
  %428 = or i1 %418, %419
  %429 = xor i1 %428, true
  %430 = or i1 true, %420
  %431 = and i1 %429, %430
  %432 = or i1 %427, %431
  %433 = or i1 %416, %417
  br i1 %432, label %434, label %1115

; <label>:434:                                    ; preds = %407
  br label %435

; <label>:435:                                    ; preds = %434
  %436 = load i32, i32* %39, align 4
  %437 = add i32 %436, 1316396219
  %438 = add i32 %437, 1
  %439 = sub i32 %438, 1316396219
  %440 = add nsw i32 %436, 1
  store i32 %439, i32* %39, align 4
  br label %160

; <label>:441:                                    ; preds = %206
  %442 = invoke i32 @_ZNK5Graph4sizeEv(%class.Graph* %56)
          to label %443 unwind label %388

; <label>:443:                                    ; preds = %441
  %444 = sext i32 %442 to i64
  call void @_ZNSt6vectorI4EdgeSaIS0_EEC2Ev(%"class.std::vector.0"* %42) #4
  call void @_ZNSaISt6vectorI4EdgeSaIS0_EEEC2Ev(%"class.std::allocator"* %43) #4
  invoke void @_ZNSt6vectorIS_I4EdgeSaIS0_EESaIS2_EEC2EmRKS2_RKS3_(%"class.std::vector"* %41, i64 %444, %"class.std::vector.0"* dereferenceable(24) %42, %"class.std::allocator"* dereferenceable(1) %43)
          to label %445 unwind label %566

; <label>:445:                                    ; preds = %443
  call void @_ZNSaISt6vectorI4EdgeSaIS0_EEED2Ev(%"class.std::allocator"* %43) #4
  call void @_ZNSt6vectorI4EdgeSaIS0_EED2Ev(%"class.std::vector.0"* %42) #4
  store i32 0, i32* %44, align 4
  br label %446

; <label>:446:                                    ; preds = %575, %445
  %447 = load i32, i32* @x.95
  %448 = load i32, i32* @y.96
  %449 = add i32 %447, 1983664380
  %450 = sub i32 %449, 1
  %451 = sub i32 %450, 1983664380
  %452 = sub i32 %447, 1
  %453 = mul i32 %447, %451
  %454 = urem i32 %453, 2
  %455 = icmp eq i32 %454, 0
  %456 = icmp slt i32 %448, 10
  %457 = and i1 %455, %456
  %458 = xor i1 %455, %456
  %459 = or i1 %457, %458
  %460 = or i1 %455, %456
  br i1 %459, label %461, label %1116

; <label>:461:                                    ; preds = %446, %1116
  %462 = load i32, i32* %44, align 4
  %463 = load i32, i32* @x.95
  %464 = load i32, i32* @y.96
  %465 = sub i32 0, 1
  %466 = add i32 %463, %465
  %467 = sub i32 %463, 1
  %468 = mul i32 %463, %466
  %469 = urem i32 %468, 2
  %470 = icmp eq i32 %469, 0
  %471 = icmp slt i32 %464, 10
  %472 = xor i1 %470, true
  %473 = xor i1 %471, true
  %474 = xor i1 false, true
  %475 = and i1 %472, false
  %476 = and i1 %470, %474
  %477 = and i1 %473, false
  %478 = and i1 %471, %474
  %479 = or i1 %475, %476
  %480 = or i1 %477, %478
  %481 = xor i1 %479, %480
  %482 = or i1 %472, %473
  %483 = xor i1 %482, true
  %484 = or i1 false, %474
  %485 = and i1 %483, %484
  %486 = or i1 %481, %485
  %487 = or i1 %470, %471
  br i1 %486, label %488, label %1116

; <label>:488:                                    ; preds = %461
  %489 = invoke i32 @_ZNK5Graph4sizeEv(%class.Graph* %56)
          to label %490 unwind label %570

; <label>:490:                                    ; preds = %488
  %491 = icmp slt i32 %462, %489
  br i1 %491, label %492, label %582

; <label>:492:                                    ; preds = %490
  %493 = load i32, i32* %44, align 4
  %494 = invoke dereferenceable(24) %"class.std::vector.0"* @_ZNK5Graph4edgeEi(%class.Graph* %56, i32 %493)
          to label %495 unwind label %570

; <label>:495:                                    ; preds = %492
  store %"class.std::vector.0"* %494, %"class.std::vector.0"** %45, align 8
  %496 = load %"class.std::vector.0"*, %"class.std::vector.0"** %45, align 8
  %497 = call %class.Edge* @_ZNKSt6vectorI4EdgeSaIS0_EE5beginEv(%"class.std::vector.0"* %496) #4
  %498 = getelementptr inbounds %"class.__gnu_cxx::__normal_iterator", %"class.__gnu_cxx::__normal_iterator"* %46, i32 0, i32 0
  store %class.Edge* %497, %class.Edge** %498, align 8
  %499 = load %"class.std::vector.0"*, %"class.std::vector.0"** %45, align 8
  %500 = call %class.Edge* @_ZNKSt6vectorI4EdgeSaIS0_EE3endEv(%"class.std::vector.0"* %499) #4
  %501 = getelementptr inbounds %"class.__gnu_cxx::__normal_iterator", %"class.__gnu_cxx::__normal_iterator"* %47, i32 0, i32 0
  store %class.Edge* %500, %class.Edge** %501, align 8
  br label %502

; <label>:502:                                    ; preds = %564, %495
  %503 = call zeroext i1 @_ZN9__gnu_cxxneIPK4EdgeSt6vectorIS1_SaIS1_EEEEbRKNS_17__normal_iteratorIT_T0_EESC_(%"class.__gnu_cxx::__normal_iterator"* dereferenceable(8) %46, %"class.__gnu_cxx::__normal_iterator"* dereferenceable(8) %47) #4
  br i1 %503, label %504, label %574

; <label>:504:                                    ; preds = %502
  %505 = call dereferenceable(16) %class.Edge* @_ZNK9__gnu_cxx17__normal_iteratorIPK4EdgeSt6vectorIS1_SaIS1_EEEdeEv(%"class.__gnu_cxx::__normal_iterator"* %46) #4
  store %class.Edge* %505, %class.Edge** %48, align 8
  %506 = load %class.Edge*, %class.Edge** %48, align 8
  %507 = invoke i32 @_ZNK4Edge2toEv(%class.Edge* %506)
          to label %508 unwind label %570

; <label>:508:                                    ; preds = %504
  %509 = sext i32 %507 to i64
  %510 = call dereferenceable(24) %"class.std::vector.0"* @_ZNSt6vectorIS_I4EdgeSaIS0_EESaIS2_EEixEm(%"class.std::vector"* %41, i64 %509) #4
  %511 = load %class.Edge*, %class.Edge** %48, align 8
  %512 = invoke i32 @_ZNK4Edge2toEv(%class.Edge* %511)
          to label %513 unwind label %570

; <label>:513:                                    ; preds = %508
  %514 = load %class.Edge*, %class.Edge** %48, align 8
  %515 = invoke i32 @_ZNK4Edge4fromEv(%class.Edge* %514)
          to label %516 unwind label %570

; <label>:516:                                    ; preds = %513
  %517 = load i32, i32* @x.95
  %518 = load i32, i32* @y.96
  %519 = sub i32 %517, 1177652401
  %520 = sub i32 %519, 1
  %521 = add i32 %520, 1177652401
  %522 = sub i32 %517, 1
  %523 = mul i32 %517, %521
  %524 = urem i32 %523, 2
  %525 = icmp eq i32 %524, 0
  %526 = icmp slt i32 %518, 10
  %527 = and i1 %525, %526
  %528 = xor i1 %525, %526
  %529 = or i1 %527, %528
  %530 = or i1 %525, %526
  br i1 %529, label %531, label %1118

; <label>:531:                                    ; preds = %516, %1118
  %532 = load %class.Edge*, %class.Edge** %48, align 8
  %533 = load i32, i32* @x.95
  %534 = load i32, i32* @y.96
  %535 = add i32 %533, 175491974
  %536 = sub i32 %535, 1
  %537 = sub i32 %536, 175491974
  %538 = sub i32 %533, 1
  %539 = mul i32 %533, %537
  %540 = urem i32 %539, 2
  %541 = icmp eq i32 %540, 0
  %542 = icmp slt i32 %534, 10
  %543 = xor i1 %541, true
  %544 = xor i1 %542, true
  %545 = xor i1 false, true
  %546 = and i1 %543, false
  %547 = and i1 %541, %545
  %548 = and i1 %544, false
  %549 = and i1 %542, %545
  %550 = or i1 %546, %547
  %551 = or i1 %548, %549
  %552 = xor i1 %550, %551
  %553 = or i1 %543, %544
  %554 = xor i1 %553, true
  %555 = or i1 false, %545
  %556 = and i1 %554, %555
  %557 = or i1 %552, %556
  %558 = or i1 %541, %542
  br i1 %557, label %559, label %1118

; <label>:559:                                    ; preds = %531
  %560 = invoke double @_ZNK4Edge6weightEv(%class.Edge* %532)
          to label %561 unwind label %570

; <label>:561:                                    ; preds = %559
  invoke void @_ZN4EdgeC2Eiid(%class.Edge* %49, i32 %512, i32 %515, double %560)
          to label %562 unwind label %570

; <label>:562:                                    ; preds = %561
  invoke void @_ZNSt6vectorI4EdgeSaIS0_EE9push_backEOS0_(%"class.std::vector.0"* %510, %class.Edge* dereferenceable(16) %49)
          to label %563 unwind label %570

; <label>:563:                                    ; preds = %562
  br label %564

; <label>:564:                                    ; preds = %563
  %565 = call dereferenceable(8) %"class.__gnu_cxx::__normal_iterator"* @_ZN9__gnu_cxx17__normal_iteratorIPK4EdgeSt6vectorIS1_SaIS1_EEEppEv(%"class.__gnu_cxx::__normal_iterator"* %46) #4
  br label %502

; <label>:566:                                    ; preds = %443
  %567 = landingpad { i8*, i32 }
          cleanup
  %568 = extractvalue { i8*, i32 } %567, 0
  store i8* %568, i8** %33, align 8
  %569 = extractvalue { i8*, i32 } %567, 1
  store i32 %569, i32* %34, align 4
  call void @_ZNSaISt6vectorI4EdgeSaIS0_EEED2Ev(%"class.std::allocator"* %43) #4
  call void @_ZNSt6vectorI4EdgeSaIS0_EED2Ev(%"class.std::vector.0"* %42) #4
  br label %981

; <label>:570:                                    ; preds = %902, %847, %802, %746, %684, %624, %562, %561, %559, %513, %508, %504, %492, %488
  %571 = landingpad { i8*, i32 }
          cleanup
  %572 = extractvalue { i8*, i32 } %571, 0
  store i8* %572, i8** %33, align 8
  %573 = extractvalue { i8*, i32 } %571, 1
  store i32 %573, i32* %34, align 4
  br label %952

; <label>:574:                                    ; preds = %502
  br label %575

; <label>:575:                                    ; preds = %574
  %576 = load i32, i32* %44, align 4
  %577 = sub i32 0, %576
  %578 = sub i32 0, 1
  %579 = add i32 %577, %578
  %580 = sub i32 0, %579
  %581 = add nsw i32 %576, 1
  store i32 %580, i32* %44, align 4
  br label %446

; <label>:582:                                    ; preds = %490
  %583 = load i32, i32* @x.95
  %584 = load i32, i32* @y.96
  %585 = sub i32 %583, -779766051
  %586 = sub i32 %585, 1
  %587 = add i32 %586, -779766051
  %588 = sub i32 %583, 1
  %589 = mul i32 %583, %587
  %590 = urem i32 %589, 2
  %591 = icmp eq i32 %590, 0
  %592 = icmp slt i32 %584, 10
  %593 = and i1 %591, %592
  %594 = xor i1 %591, %592
  %595 = or i1 %593, %594
  %596 = or i1 %591, %592
  br i1 %595, label %597, label %1120

; <label>:597:                                    ; preds = %582, %1120
  %598 = load i32, i32* @x.95
  %599 = load i32, i32* @y.96
  %600 = add i32 %598, -477685563
  %601 = sub i32 %600, 1
  %602 = sub i32 %601, -477685563
  %603 = sub i32 %598, 1
  %604 = mul i32 %598, %602
  %605 = urem i32 %604, 2
  %606 = icmp eq i32 %605, 0
  %607 = icmp slt i32 %599, 10
  %608 = xor i1 %606, true
  %609 = xor i1 %607, true
  %610 = xor i1 true, true
  %611 = and i1 %608, true
  %612 = and i1 %606, %610
  %613 = and i1 %609, true
  %614 = and i1 %607, %610
  %615 = or i1 %611, %612
  %616 = or i1 %613, %614
  %617 = xor i1 %615, %616
  %618 = or i1 %608, %609
  %619 = xor i1 %618, true
  %620 = or i1 true, %610
  %621 = and i1 %619, %620
  %622 = or i1 %617, %621
  %623 = or i1 %606, %607
  br i1 %622, label %624, label %1120

; <label>:624:                                    ; preds = %597
  %625 = invoke i32 @_ZNK5Graph4sizeEv(%class.Graph* %56)
          to label %626 unwind label %570

; <label>:626:                                    ; preds = %624
  %627 = sext i32 %625 to i64
  store i8 0, i8* %51, align 1
  call void @_ZNSaIbEC2Ev(%"class.std::allocator.35"* %52) #4
  invoke void @_ZNSt6vectorIbSaIbEEC2EmRKbRKS0_(%"class.std::vector.31"* %50, i64 %627, i8* dereferenceable(1) %51, %"class.std::allocator.35"* dereferenceable(1) %52)
          to label %628 unwind label %857

; <label>:628:                                    ; preds = %626
  %629 = load i32, i32* @x.95
  %630 = load i32, i32* @y.96
  %631 = add i32 %629, -390464535
  %632 = sub i32 %631, 1
  %633 = sub i32 %632, -390464535
  %634 = sub i32 %629, 1
  %635 = mul i32 %629, %633
  %636 = urem i32 %635, 2
  %637 = icmp eq i32 %636, 0
  %638 = icmp slt i32 %630, 10
  %639 = xor i1 %637, true
  %640 = xor i1 %638, true
  %641 = xor i1 true, true
  %642 = and i1 %639, true
  %643 = and i1 %637, %641
  %644 = and i1 %640, true
  %645 = and i1 %638, %641
  %646 = or i1 %642, %643
  %647 = or i1 %644, %645
  %648 = xor i1 %646, %647
  %649 = or i1 %639, %640
  %650 = xor i1 %649, true
  %651 = or i1 true, %641
  %652 = and i1 %650, %651
  %653 = or i1 %648, %652
  %654 = or i1 %637, %638
  br i1 %653, label %655, label %1121

; <label>:655:                                    ; preds = %628, %1121
  %656 = call dereferenceable(40) %"class.std::vector.31"* @_ZNSt6vectorIbSaIbEEaSEOS1_(%"class.std::vector.31"* %32, %"class.std::vector.31"* dereferenceable(40) %50) #4
  call void @_ZNSt6vectorIbSaIbEED2Ev(%"class.std::vector.31"* %50) #4
  call void @_ZNSaIbED2Ev(%"class.std::allocator.35"* %52) #4
  %657 = load i32, i32* @x.95
  %658 = load i32, i32* @y.96
  %659 = add i32 %657, 2066589724
  %660 = sub i32 %659, 1
  %661 = sub i32 %660, 2066589724
  %662 = sub i32 %657, 1
  %663 = mul i32 %657, %661
  %664 = urem i32 %663, 2
  %665 = icmp eq i32 %664, 0
  %666 = icmp slt i32 %658, 10
  %667 = xor i1 %665, true
  %668 = xor i1 %666, true
  %669 = xor i1 true, true
  %670 = and i1 %667, true
  %671 = and i1 %665, %669
  %672 = and i1 %668, true
  %673 = and i1 %666, %669
  %674 = or i1 %670, %671
  %675 = or i1 %672, %673
  %676 = xor i1 %674, %675
  %677 = or i1 %667, %668
  %678 = xor i1 %677, true
  %679 = or i1 true, %669
  %680 = and i1 %678, %679
  %681 = or i1 %676, %680
  %682 = or i1 %665, %666
  br i1 %681, label %683, label %1121

; <label>:683:                                    ; preds = %655
  br label %684

; <label>:684:                                    ; preds = %945, %856, %683
  %685 = invoke zeroext i1 @_ZNKSt5stackIiSt5dequeIiSaIiEEE5emptyEv(%"class.std::stack"* %37)
          to label %686 unwind label %570

; <label>:686:                                    ; preds = %684
  %687 = load i32, i32* @x.95
  %688 = load i32, i32* @y.96
  %689 = sub i32 0, 1
  %690 = add i32 %687, %689
  %691 = sub i32 %687, 1
  %692 = mul i32 %687, %690
  %693 = urem i32 %692, 2
  %694 = icmp eq i32 %693, 0
  %695 = icmp slt i32 %688, 10
  %696 = xor i1 %694, true
  %697 = xor i1 %695, true
  %698 = xor i1 true, true
  %699 = and i1 %696, true
  %700 = and i1 %694, %698
  %701 = and i1 %697, true
  %702 = and i1 %695, %698
  %703 = or i1 %699, %700
  %704 = or i1 %701, %702
  %705 = xor i1 %703, %704
  %706 = or i1 %696, %697
  %707 = xor i1 %706, true
  %708 = or i1 true, %698
  %709 = and i1 %707, %708
  %710 = or i1 %705, %709
  %711 = or i1 %694, %695
  br i1 %710, label %712, label %1123

; <label>:712:                                    ; preds = %686, %1123
  %713 = xor i1 %685, true
  %714 = and i1 true, %713
  %715 = xor i1 true, true
  %716 = and i1 %685, %715
  %717 = or i1 %714, %716
  %718 = xor i1 %685, true
  %719 = load i32, i32* @x.95
  %720 = load i32, i32* @y.96
  %721 = add i32 %719, -873242905
  %722 = sub i32 %721, 1
  %723 = sub i32 %722, -873242905
  %724 = sub i32 %719, 1
  %725 = mul i32 %719, %723
  %726 = urem i32 %725, 2
  %727 = icmp eq i32 %726, 0
  %728 = icmp slt i32 %720, 10
  %729 = xor i1 %727, true
  %730 = xor i1 %728, true
  %731 = xor i1 true, true
  %732 = and i1 %729, true
  %733 = and i1 %727, %731
  %734 = and i1 %730, true
  %735 = and i1 %728, %731
  %736 = or i1 %732, %733
  %737 = or i1 %734, %735
  %738 = xor i1 %736, %737
  %739 = or i1 %729, %730
  %740 = xor i1 %739, true
  %741 = or i1 true, %731
  %742 = and i1 %740, %741
  %743 = or i1 %738, %742
  %744 = or i1 %727, %728
  br i1 %743, label %745, label %1123

; <label>:745:                                    ; preds = %712
  br i1 %717, label %746, label %950

; <label>:746:                                    ; preds = %745
  %747 = invoke dereferenceable(4) i32* @_ZNSt5stackIiSt5dequeIiSaIiEEE3topEv(%"class.std::stack"* %37)
          to label %748 unwind label %570

; <label>:748:                                    ; preds = %746
  %749 = load i32, i32* @x.95
  %750 = load i32, i32* @y.96
  %751 = sub i32 %749, -1988361578
  %752 = sub i32 %751, 1
  %753 = add i32 %752, -1988361578
  %754 = sub i32 %749, 1
  %755 = mul i32 %749, %753
  %756 = urem i32 %755, 2
  %757 = icmp eq i32 %756, 0
  %758 = icmp slt i32 %750, 10
  %759 = xor i1 %757, true
  %760 = xor i1 %758, true
  %761 = xor i1 true, true
  %762 = and i1 %759, true
  %763 = and i1 %757, %761
  %764 = and i1 %760, true
  %765 = and i1 %758, %761
  %766 = or i1 %762, %763
  %767 = or i1 %764, %765
  %768 = xor i1 %766, %767
  %769 = or i1 %759, %760
  %770 = xor i1 %769, true
  %771 = or i1 true, %761
  %772 = and i1 %770, %771
  %773 = or i1 %768, %772
  %774 = or i1 %757, %758
  br i1 %773, label %775, label %1160

; <label>:775:                                    ; preds = %748, %1160
  %776 = load i32, i32* %747, align 4
  store i32 %776, i32* %53, align 4
  %777 = load i32, i32* @x.95
  %778 = load i32, i32* @y.96
  %779 = sub i32 0, 1
  %780 = add i32 %777, %779
  %781 = sub i32 %777, 1
  %782 = mul i32 %777, %780
  %783 = urem i32 %782, 2
  %784 = icmp eq i32 %783, 0
  %785 = icmp slt i32 %778, 10
  %786 = xor i1 %784, true
  %787 = xor i1 %785, true
  %788 = xor i1 true, true
  %789 = and i1 %786, true
  %790 = and i1 %784, %788
  %791 = and i1 %787, true
  %792 = and i1 %785, %788
  %793 = or i1 %789, %790
  %794 = or i1 %791, %792
  %795 = xor i1 %793, %794
  %796 = or i1 %786, %787
  %797 = xor i1 %796, true
  %798 = or i1 true, %788
  %799 = and i1 %797, %798
  %800 = or i1 %795, %799
  %801 = or i1 %784, %785
  br i1 %800, label %802, label %1160

; <label>:802:                                    ; preds = %775
  invoke void @_ZNSt5stackIiSt5dequeIiSaIiEEE3popEv(%"class.std::stack"* %37)
          to label %803 unwind label %570

; <label>:803:                                    ; preds = %802
  %804 = load i32, i32* @x.95
  %805 = load i32, i32* @y.96
  %806 = add i32 %804, -22764446
  %807 = sub i32 %806, 1
  %808 = sub i32 %807, -22764446
  %809 = sub i32 %804, 1
  %810 = mul i32 %804, %808
  %811 = urem i32 %810, 2
  %812 = icmp eq i32 %811, 0
  %813 = icmp slt i32 %805, 10
  %814 = and i1 %812, %813
  %815 = xor i1 %812, %813
  %816 = or i1 %814, %815
  %817 = or i1 %812, %813
  br i1 %816, label %818, label %1162

; <label>:818:                                    ; preds = %803, %1162
  %819 = load i32, i32* %53, align 4
  %820 = sext i32 %819 to i64
  %821 = load i32, i32* @x.95
  %822 = load i32, i32* @y.96
  %823 = sub i32 %821, 1407960551
  %824 = sub i32 %823, 1
  %825 = add i32 %824, 1407960551
  %826 = sub i32 %821, 1
  %827 = mul i32 %821, %825
  %828 = urem i32 %827, 2
  %829 = icmp eq i32 %828, 0
  %830 = icmp slt i32 %822, 10
  %831 = xor i1 %829, true
  %832 = xor i1 %830, true
  %833 = xor i1 false, true
  %834 = and i1 %831, false
  %835 = and i1 %829, %833
  %836 = and i1 %832, false
  %837 = and i1 %830, %833
  %838 = or i1 %834, %835
  %839 = or i1 %836, %837
  %840 = xor i1 %838, %839
  %841 = or i1 %831, %832
  %842 = xor i1 %841, true
  %843 = or i1 false, %833
  %844 = and i1 %842, %843
  %845 = or i1 %840, %844
  %846 = or i1 %829, %830
  br i1 %845, label %847, label %1162

; <label>:847:                                    ; preds = %818
  %848 = invoke { i64*, i64 } @_ZNSt6vectorIbSaIbEEixEm(%"class.std::vector.31"* %32, i64 %820)
          to label %849 unwind label %570

; <label>:849:                                    ; preds = %847
  %850 = bitcast %"struct.std::_Bit_reference"* %54 to { i64*, i64 }*
  %851 = getelementptr inbounds { i64*, i64 }, { i64*, i64 }* %850, i32 0, i32 0
  %852 = extractvalue { i64*, i64 } %848, 0
  store i64* %852, i64** %851, align 8
  %853 = getelementptr inbounds { i64*, i64 }, { i64*, i64 }* %850, i32 0, i32 1
  %854 = extractvalue { i64*, i64 } %848, 1
  store i64 %854, i64* %853, align 8
  %855 = call zeroext i1 @_ZNKSt14_Bit_referencecvbEv(%"struct.std::_Bit_reference"* %54) #4
  br i1 %855, label %856, label %902

; <label>:856:                                    ; preds = %849
  br label %684

; <label>:857:                                    ; preds = %626
  %858 = load i32, i32* @x.95
  %859 = load i32, i32* @y.96
  %860 = sub i32 0, 1
  %861 = add i32 %858, %860
  %862 = sub i32 %858, 1
  %863 = mul i32 %858, %861
  %864 = urem i32 %863, 2
  %865 = icmp eq i32 %864, 0
  %866 = icmp slt i32 %859, 10
  %867 = xor i1 %865, true
  %868 = xor i1 %866, true
  %869 = xor i1 true, true
  %870 = and i1 %867, true
  %871 = and i1 %865, %869
  %872 = and i1 %868, true
  %873 = and i1 %866, %869
  %874 = or i1 %870, %871
  %875 = or i1 %872, %873
  %876 = xor i1 %874, %875
  %877 = or i1 %867, %868
  %878 = xor i1 %877, true
  %879 = or i1 true, %869
  %880 = and i1 %878, %879
  %881 = or i1 %876, %880
  %882 = or i1 %865, %866
  br i1 %881, label %883, label %1165

; <label>:883:                                    ; preds = %857, %1165
  %884 = landingpad { i8*, i32 }
          cleanup
  %885 = extractvalue { i8*, i32 } %884, 0
  store i8* %885, i8** %33, align 8
  %886 = extractvalue { i8*, i32 } %884, 1
  store i32 %886, i32* %34, align 4
  call void @_ZNSaIbED2Ev(%"class.std::allocator.35"* %52) #4
  %887 = load i32, i32* @x.95
  %888 = load i32, i32* @y.96
  %889 = add i32 %887, 1975559527
  %890 = sub i32 %889, 1
  %891 = sub i32 %890, 1975559527
  %892 = sub i32 %887, 1
  %893 = mul i32 %887, %891
  %894 = urem i32 %893, 2
  %895 = icmp eq i32 %894, 0
  %896 = icmp slt i32 %888, 10
  %897 = and i1 %895, %896
  %898 = xor i1 %895, %896
  %899 = or i1 %897, %898
  %900 = or i1 %895, %896
  br i1 %899, label %901, label %1165

; <label>:901:                                    ; preds = %883
  br label %952

; <label>:902:                                    ; preds = %849
  %903 = load i32, i32* %53, align 4
  invoke void @_ZNK5Graph22Kosaraju_dfs_decomposeERKSt6vectorIS0_I4EdgeSaIS1_EESaIS3_EEiRS0_IbSaIbEE(%"class.std::vector.5"* sret %55, %class.Graph* %56, %"class.std::vector"* dereferenceable(24) %41, i32 %903, %"class.std::vector.31"* dereferenceable(40) %32)
          to label %904 unwind label %570

; <label>:904:                                    ; preds = %902
  invoke void @_ZNSt6vectorIS_IiSaIiEESaIS1_EE9push_backEOS1_(%"class.std::vector.26"* %0, %"class.std::vector.5"* dereferenceable(24) %55)
          to label %905 unwind label %946

; <label>:905:                                    ; preds = %904
  %906 = load i32, i32* @x.95
  %907 = load i32, i32* @y.96
  %908 = sub i32 0, 1
  %909 = add i32 %906, %908
  %910 = sub i32 %906, 1
  %911 = mul i32 %906, %909
  %912 = urem i32 %911, 2
  %913 = icmp eq i32 %912, 0
  %914 = icmp slt i32 %907, 10
  %915 = xor i1 %913, true
  %916 = xor i1 %914, true
  %917 = xor i1 true, true
  %918 = and i1 %915, true
  %919 = and i1 %913, %917
  %920 = and i1 %916, true
  %921 = and i1 %914, %917
  %922 = or i1 %918, %919
  %923 = or i1 %920, %921
  %924 = xor i1 %922, %923
  %925 = or i1 %915, %916
  %926 = xor i1 %925, true
  %927 = or i1 true, %917
  %928 = and i1 %926, %927
  %929 = or i1 %924, %928
  %930 = or i1 %913, %914
  br i1 %929, label %931, label %1169

; <label>:931:                                    ; preds = %905, %1169
  call void @_ZNSt6vectorIiSaIiEED2Ev(%"class.std::vector.5"* %55) #4
  %932 = load i32, i32* @x.95
  %933 = load i32, i32* @y.96
  %934 = sub i32 0, 1
  %935 = add i32 %932, %934
  %936 = sub i32 %932, 1
  %937 = mul i32 %932, %935
  %938 = urem i32 %937, 2
  %939 = icmp eq i32 %938, 0
  %940 = icmp slt i32 %933, 10
  %941 = and i1 %939, %940
  %942 = xor i1 %939, %940
  %943 = or i1 %941, %942
  %944 = or i1 %939, %940
  br i1 %943, label %945, label %1169

; <label>:945:                                    ; preds = %931
  br label %684

; <label>:946:                                    ; preds = %904
  %947 = landingpad { i8*, i32 }
          cleanup
  %948 = extractvalue { i8*, i32 } %947, 0
  store i8* %948, i8** %33, align 8
  %949 = extractvalue { i8*, i32 } %947, 1
  store i32 %949, i32* %34, align 4
  call void @_ZNSt6vectorIiSaIiEED2Ev(%"class.std::vector.5"* %55) #4
  br label %952

; <label>:950:                                    ; preds = %745
  store i1 true, i1* %31, align 1
  call void @_ZNSt6vectorIS_I4EdgeSaIS0_EESaIS2_EED2Ev(%"class.std::vector"* %41) #4
  call void @_ZNSt5stackIiSt5dequeIiSaIiEEED2Ev(%"class.std::stack"* %37) #4
  call void @_ZNSt6vectorIbSaIbEED2Ev(%"class.std::vector.31"* %32) #4
  %951 = load i1, i1* %31, align 1
  br i1 %951, label %1025, label %1024

; <label>:952:                                    ; preds = %946, %901, %570
  %953 = load i32, i32* @x.95
  %954 = load i32, i32* @y.96
  %955 = sub i32 0, 1
  %956 = add i32 %953, %955
  %957 = sub i32 %953, 1
  %958 = mul i32 %953, %956
  %959 = urem i32 %958, 2
  %960 = icmp eq i32 %959, 0
  %961 = icmp slt i32 %954, 10
  %962 = and i1 %960, %961
  %963 = xor i1 %960, %961
  %964 = or i1 %962, %963
  %965 = or i1 %960, %961
  br i1 %964, label %966, label %1170

; <label>:966:                                    ; preds = %952, %1170
  call void @_ZNSt6vectorIS_I4EdgeSaIS0_EESaIS2_EED2Ev(%"class.std::vector"* %41) #4
  %967 = load i32, i32* @x.95
  %968 = load i32, i32* @y.96
  %969 = sub i32 0, 1
  %970 = add i32 %967, %969
  %971 = sub i32 %967, 1
  %972 = mul i32 %967, %970
  %973 = urem i32 %972, 2
  %974 = icmp eq i32 %973, 0
  %975 = icmp slt i32 %968, 10
  %976 = and i1 %974, %975
  %977 = xor i1 %974, %975
  %978 = or i1 %976, %977
  %979 = or i1 %974, %975
  br i1 %978, label %980, label %1170

; <label>:980:                                    ; preds = %966
  br label %981

; <label>:981:                                    ; preds = %980, %566, %388
  %982 = load i32, i32* @x.95
  %983 = load i32, i32* @y.96
  %984 = sub i32 0, 1
  %985 = add i32 %982, %984
  %986 = sub i32 %982, 1
  %987 = mul i32 %982, %985
  %988 = urem i32 %987, 2
  %989 = icmp eq i32 %988, 0
  %990 = icmp slt i32 %983, 10
  %991 = and i1 %989, %990
  %992 = xor i1 %989, %990
  %993 = or i1 %991, %992
  %994 = or i1 %989, %990
  br i1 %993, label %995, label %1171

; <label>:995:                                    ; preds = %981, %1171
  call void @_ZNSt5stackIiSt5dequeIiSaIiEEED2Ev(%"class.std::stack"* %37) #4
  %996 = load i32, i32* @x.95
  %997 = load i32, i32* @y.96
  %998 = sub i32 %996, 1281274352
  %999 = sub i32 %998, 1
  %1000 = add i32 %999, 1281274352
  %1001 = sub i32 %996, 1
  %1002 = mul i32 %996, %1000
  %1003 = urem i32 %1002, 2
  %1004 = icmp eq i32 %1003, 0
  %1005 = icmp slt i32 %997, 10
  %1006 = xor i1 %1004, true
  %1007 = xor i1 %1005, true
  %1008 = xor i1 true, true
  %1009 = and i1 %1006, true
  %1010 = and i1 %1004, %1008
  %1011 = and i1 %1007, true
  %1012 = and i1 %1005, %1008
  %1013 = or i1 %1009, %1010
  %1014 = or i1 %1011, %1012
  %1015 = xor i1 %1013, %1014
  %1016 = or i1 %1006, %1007
  %1017 = xor i1 %1016, true
  %1018 = or i1 true, %1008
  %1019 = and i1 %1017, %1018
  %1020 = or i1 %1015, %1019
  %1021 = or i1 %1004, %1005
  br i1 %1020, label %1022, label %1171

; <label>:1022:                                   ; preds = %995
  br label %1023

; <label>:1023:                                   ; preds = %1022, %384, %380
  call void @_ZNSt6vectorIbSaIbEED2Ev(%"class.std::vector.31"* %32) #4
  br label %1026

; <label>:1024:                                   ; preds = %950
  call void @_ZNSt6vectorIS_IiSaIiEESaIS1_EED2Ev(%"class.std::vector.26"* %0) #4
  br label %1025

; <label>:1025:                                   ; preds = %1024, %950
  ret void

; <label>:1026:                                   ; preds = %1023, %376, %375
  call void @_ZNSt6vectorIS_IiSaIiEESaIS1_EED2Ev(%"class.std::vector.26"* %0) #4
  br label %1027

; <label>:1027:                                   ; preds = %1026
  %1028 = load i32, i32* @x.95
  %1029 = load i32, i32* @y.96
  %1030 = sub i32 0, 1
  %1031 = add i32 %1028, %1030
  %1032 = sub i32 %1028, 1
  %1033 = mul i32 %1028, %1031
  %1034 = urem i32 %1033, 2
  %1035 = icmp eq i32 %1034, 0
  %1036 = icmp slt i32 %1029, 10
  %1037 = xor i1 %1035, true
  %1038 = xor i1 %1036, true
  %1039 = xor i1 true, true
  %1040 = and i1 %1037, true
  %1041 = and i1 %1035, %1039
  %1042 = and i1 %1038, true
  %1043 = and i1 %1036, %1039
  %1044 = or i1 %1040, %1041
  %1045 = or i1 %1042, %1043
  %1046 = xor i1 %1044, %1045
  %1047 = or i1 %1037, %1038
  %1048 = xor i1 %1047, true
  %1049 = or i1 true, %1039
  %1050 = and i1 %1048, %1049
  %1051 = or i1 %1046, %1050
  %1052 = or i1 %1035, %1036
  br i1 %1051, label %1053, label %1172

; <label>:1053:                                   ; preds = %1027, %1172
  %1054 = load i8*, i8** %33, align 8
  %1055 = load i32, i32* %34, align 4
  %1056 = insertvalue { i8*, i32 } undef, i8* %1054, 0
  %1057 = insertvalue { i8*, i32 } %1056, i32 %1055, 1
  %1058 = load i32, i32* @x.95
  %1059 = load i32, i32* @y.96
  %1060 = sub i32 0, 1
  %1061 = add i32 %1058, %1060
  %1062 = sub i32 %1058, 1
  %1063 = mul i32 %1058, %1061
  %1064 = urem i32 %1063, 2
  %1065 = icmp eq i32 %1064, 0
  %1066 = icmp slt i32 %1059, 10
  %1067 = and i1 %1065, %1066
  %1068 = xor i1 %1065, %1066
  %1069 = or i1 %1067, %1068
  %1070 = or i1 %1065, %1066
  br i1 %1069, label %1071, label %1172

; <label>:1071:                                   ; preds = %1053
  resume { i8*, i32 } %1057

; <label>:1072:                                   ; preds = %29, %2
  %1073 = alloca %class.Graph*, align 8
  %1074 = alloca i1, align 1
  %1075 = alloca %"class.std::vector.31", align 8
  %1076 = alloca i8*
  %1077 = alloca i32
  %1078 = alloca i8, align 1
  %1079 = alloca %"class.std::allocator.35", align 1
  %1080 = alloca %"class.std::stack", align 8
  %1081 = alloca %"class.std::deque", align 8
  %1082 = alloca i32, align 4
  %1083 = alloca %"struct.std::_Bit_reference", align 8
  %1084 = alloca %"class.std::vector", align 8
  %1085 = alloca %"class.std::vector.0", align 8
  %1086 = alloca %"class.std::allocator", align 1
  %1087 = alloca i32, align 4
  %1088 = alloca %"class.std::vector.0"*, align 8
  %1089 = alloca %"class.__gnu_cxx::__normal_iterator", align 8
  %1090 = alloca %"class.__gnu_cxx::__normal_iterator", align 8
  %1091 = alloca %class.Edge*, align 8
  %1092 = alloca %class.Edge, align 8
  %1093 = alloca %"class.std::vector.31", align 8
  %1094 = alloca i8, align 1
  %1095 = alloca %"class.std::allocator.35", align 1
  %1096 = alloca i32, align 4
  %1097 = alloca %"struct.std::_Bit_reference", align 8
  %1098 = alloca %"class.std::vector.5", align 8
  store %class.Graph* %1, %class.Graph** %1073, align 8
  %1099 = load %class.Graph*, %class.Graph** %1073, align 8
  store i1 false, i1* %1074, align 1
  call void @_ZNSt6vectorIS_IiSaIiEESaIS1_EEC2Ev(%"class.std::vector.26"* %0) #4
  br label %29

; <label>:1100:                                   ; preds = %100, %85
  %1101 = sext i32 %84 to i64
  store i8 0, i8* %35, align 1
  call void @_ZNSaIbEC2Ev(%"class.std::allocator.35"* %36) #4
  br label %100

; <label>:1102:                                   ; preds = %131, %117
  call void @_ZNSaIbED2Ev(%"class.std::allocator.35"* %36) #4
  br label %131

; <label>:1103:                                   ; preds = %178, %163
  %1104 = icmp slt i32 %161, %162
  br label %178

; <label>:1105:                                   ; preds = %221, %207
  %1106 = load i32, i32* %39, align 4
  %1107 = sext i32 %1106 to i64
  br label %221

; <label>:1108:                                   ; preds = %260, %246
  %1109 = load i32, i32* %39, align 4
  br label %260

; <label>:1110:                                   ; preds = %315, %289
  br label %315

; <label>:1111:                                   ; preds = %357, %330
  %1112 = landingpad { i8*, i32 }
          cleanup
  %1113 = extractvalue { i8*, i32 } %1112, 0
  store i8* %1113, i8** %33, align 8
  %1114 = extractvalue { i8*, i32 } %1112, 1
  store i32 %1114, i32* %34, align 4
  br label %357

; <label>:1115:                                   ; preds = %407, %392
  br label %407

; <label>:1116:                                   ; preds = %461, %446
  %1117 = load i32, i32* %44, align 4
  br label %461

; <label>:1118:                                   ; preds = %531, %516
  %1119 = load %class.Edge*, %class.Edge** %48, align 8
  br label %531

; <label>:1120:                                   ; preds = %597, %582
  br label %597

; <label>:1121:                                   ; preds = %655, %628
  %1122 = call dereferenceable(40) %"class.std::vector.31"* @_ZNSt6vectorIbSaIbEEaSEOS1_(%"class.std::vector.31"* %32, %"class.std::vector.31"* dereferenceable(40) %50) #4
  call void @_ZNSt6vectorIbSaIbEED2Ev(%"class.std::vector.31"* %50) #4
  call void @_ZNSaIbED2Ev(%"class.std::allocator.35"* %52) #4
  br label %655

; <label>:1123:                                   ; preds = %712, %686
  %1124 = shl i1 %685, true
  %1125 = shl i1 %685, true
  %1126 = sub i1 false, true
  %1127 = add i1 %685, %1126
  %1128 = sub i1 %685, true
  %1129 = mul i1 %1127, true
  %1130 = sub i1 false, %685
  %1131 = add i1 false, %1130
  %1132 = sub i1 false, %685
  %1133 = sub i1 %1131, false
  %1134 = add i1 %1133, true
  %1135 = add i1 %1134, false
  %1136 = add i1 %1131, true
  %1137 = shl i1 %685, true
  %1138 = sub i1 false, true
  %1139 = sub i1 %1138, %685
  %1140 = add i1 %1139, true
  %1141 = sub i1 false, %685
  %1142 = sub i1 %1140, false
  %1143 = add i1 %1142, true
  %1144 = add i1 %1143, false
  %1145 = add i1 %1140, true
  %1146 = sub i1 false, false
  %1147 = sub i1 %1146, %685
  %1148 = add i1 %1147, false
  %1149 = sub i1 false, %685
  %1150 = add i1 %1148, false
  %1151 = add i1 %1150, true
  %1152 = sub i1 %1151, false
  %1153 = add i1 %1148, true
  %1154 = xor i1 %685, true
  %1155 = and i1 true, %1154
  %1156 = xor i1 true, true
  %1157 = and i1 %685, %1156
  %1158 = or i1 %1155, %1157
  %1159 = xor i1 %685, true
  br label %712

; <label>:1160:                                   ; preds = %775, %748
  %1161 = load i32, i32* %747, align 4
  store i32 %1161, i32* %53, align 4
  br label %775

; <label>:1162:                                   ; preds = %818, %803
  %1163 = load i32, i32* %53, align 4
  %1164 = sext i32 %1163 to i64
  br label %818

; <label>:1165:                                   ; preds = %883, %857
  %1166 = landingpad { i8*, i32 }
          cleanup
  %1167 = extractvalue { i8*, i32 } %1166, 0
  store i8* %1167, i8** %33, align 8
  %1168 = extractvalue { i8*, i32 } %1166, 1
  store i32 %1168, i32* %34, align 4
  call void @_ZNSaIbED2Ev(%"class.std::allocator.35"* %52) #4
  br label %883

; <label>:1169:                                   ; preds = %931, %905
  call void @_ZNSt6vectorIiSaIiEED2Ev(%"class.std::vector.5"* %55) #4
  br label %931

; <label>:1170:                                   ; preds = %966, %952
  call void @_ZNSt6vectorIS_I4EdgeSaIS0_EESaIS2_EED2Ev(%"class.std::vector"* %41) #4
  br label %966

; <label>:1171:                                   ; preds = %995, %981
  call void @_ZNSt5stackIiSt5dequeIiSaIiEEED2Ev(%"class.std::stack"* %37) #4
  br label %995

; <label>:1172:                                   ; preds = %1053, %1027
  %1173 = load i8*, i8** %33, align 8
  %1174 = load i32, i32* %34, align 4
  %1175 = insertvalue { i8*, i32 } undef, i8* %1173, 0
  %1176 = insertvalue { i8*, i32 } %1175, i32 %1174, 1
  br label %1053
}

; Function Attrs: noinline nounwind uwtable
define linkonce_odr void @_ZNSt6vectorIS_IiSaIiEESaIS1_EEC2Ev(%"class.std::vector.26"*) unnamed_addr #1 comdat align 2 personality i8* bitcast (i32 (...)* @__gxx_personality_v0 to i8*) {
  %2 = load i32, i32* @x.97
  %3 = load i32, i32* @y.98
  %4 = add i32 %2, 575692480
  %5 = sub i32 %4, 1
  %6 = sub i32 %5, 575692480
  %7 = sub i32 %2, 1
  %8 = mul i32 %2, %6
  %9 = urem i32 %8, 2
  %10 = icmp eq i32 %9, 0
  %11 = icmp slt i32 %3, 10
  %12 = and i1 %10, %11
  %13 = xor i1 %10, %11
  %14 = or i1 %12, %13
  %15 = or i1 %10, %11
  br i1 %14, label %16, label %68

; <label>:16:                                     ; preds = %1, %68
  %17 = alloca %"class.std::vector.26"*, align 8
  store %"class.std::vector.26"* %0, %"class.std::vector.26"** %17, align 8
  %18 = load %"class.std::vector.26"*, %"class.std::vector.26"** %17, align 8
  %19 = bitcast %"class.std::vector.26"* %18 to %"struct.std::_Vector_base.27"*
  %20 = load i32, i32* @x.97
  %21 = load i32, i32* @y.98
  %22 = sub i32 0, 1
  %23 = add i32 %20, %22
  %24 = sub i32 %20, 1
  %25 = mul i32 %20, %23
  %26 = urem i32 %25, 2
  %27 = icmp eq i32 %26, 0
  %28 = icmp slt i32 %21, 10
  %29 = and i1 %27, %28
  %30 = xor i1 %27, %28
  %31 = or i1 %29, %30
  %32 = or i1 %27, %28
  br i1 %31, label %33, label %68

; <label>:33:                                     ; preds = %16
  invoke void @_ZNSt12_Vector_baseISt6vectorIiSaIiEESaIS2_EEC2Ev(%"struct.std::_Vector_base.27"* %19)
          to label %34 unwind label %65

; <label>:34:                                     ; preds = %33
  %35 = load i32, i32* @x.97
  %36 = load i32, i32* @y.98
  %37 = add i32 %35, -715970028
  %38 = sub i32 %37, 1
  %39 = sub i32 %38, -715970028
  %40 = sub i32 %35, 1
  %41 = mul i32 %35, %39
  %42 = urem i32 %41, 2
  %43 = icmp eq i32 %42, 0
  %44 = icmp slt i32 %36, 10
  %45 = and i1 %43, %44
  %46 = xor i1 %43, %44
  %47 = or i1 %45, %46
  %48 = or i1 %43, %44
  br i1 %47, label %49, label %72

; <label>:49:                                     ; preds = %34, %72
  %50 = load i32, i32* @x.97
  %51 = load i32, i32* @y.98
  %52 = sub i32 %50, -1796408922
  %53 = sub i32 %52, 1
  %54 = add i32 %53, -1796408922
  %55 = sub i32 %50, 1
  %56 = mul i32 %50, %54
  %57 = urem i32 %56, 2
  %58 = icmp eq i32 %57, 0
  %59 = icmp slt i32 %51, 10
  %60 = and i1 %58, %59
  %61 = xor i1 %58, %59
  %62 = or i1 %60, %61
  %63 = or i1 %58, %59
  br i1 %62, label %64, label %72

; <label>:64:                                     ; preds = %49
  ret void

; <label>:65:                                     ; preds = %33
  %66 = landingpad { i8*, i32 }
          catch i8* null
  %67 = extractvalue { i8*, i32 } %66, 0
  call void @__clang_call_terminate(i8* %67) #8
  unreachable

; <label>:68:                                     ; preds = %16, %1
  %69 = alloca %"class.std::vector.26"*, align 8
  store %"class.std::vector.26"* %0, %"class.std::vector.26"** %69, align 8
  %70 = load %"class.std::vector.26"*, %"class.std::vector.26"** %69, align 8
  %71 = bitcast %"class.std::vector.26"* %70 to %"struct.std::_Vector_base.27"*
  br label %16

; <label>:72:                                     ; preds = %49, %34
  br label %49
}

; Function Attrs: noinline nounwind uwtable
define linkonce_odr void @_ZNSaIbEC2Ev(%"class.std::allocator.35"*) unnamed_addr #1 comdat align 2 {
  %2 = alloca i1
  %3 = alloca i1
  %4 = load i32, i32* @x.99
  %5 = load i32, i32* @y.100
  %6 = add i32 %4, -636823760
  %7 = sub i32 %6, 1
  %8 = sub i32 %7, -636823760
  %9 = sub i32 %4, 1
  %10 = mul i32 %4, %8
  %11 = urem i32 %10, 2
  %12 = icmp eq i32 %11, 0
  store i1 %12, i1* %3
  %13 = icmp slt i32 %5, 10
  store i1 %13, i1* %2
  %14 = alloca i32
  store i32 1477088260, i32* %14
  br label %15

; <label>:15:                                     ; preds = %1, %73
  %16 = load i32, i32* %14
  switch i32 %16, label %17 [
    i32 1477088260, label %18
    i32 1058038386, label %38
    i32 -1801422073, label %68
    i32 90340343, label %69
  ]

; <label>:17:                                     ; preds = %15
  br label %73

; <label>:18:                                     ; preds = %15
  %19 = load volatile i1, i1* %3
  %20 = load volatile i1, i1* %2
  %21 = xor i1 %19, true
  %22 = xor i1 %20, true
  %23 = xor i1 false, true
  %24 = and i1 %21, false
  %25 = and i1 %19, %23
  %26 = and i1 %22, false
  %27 = and i1 %20, %23
  %28 = or i1 %24, %25
  %29 = or i1 %26, %27
  %30 = xor i1 %28, %29
  %31 = or i1 %21, %22
  %32 = xor i1 %31, true
  %33 = or i1 false, %23
  %34 = and i1 %32, %33
  %35 = or i1 %30, %34
  %36 = or i1 %19, %20
  %37 = select i1 %35, i32 1058038386, i32 90340343
  store i32 %37, i32* %14
  br label %73

; <label>:38:                                     ; preds = %15
  %39 = alloca %"class.std::allocator.35"*, align 8
  store %"class.std::allocator.35"* %0, %"class.std::allocator.35"** %39, align 8
  %40 = load %"class.std::allocator.35"*, %"class.std::allocator.35"** %39, align 8
  %41 = bitcast %"class.std::allocator.35"* %40 to %"class.__gnu_cxx::new_allocator.36"*
  call void @_ZN9__gnu_cxx13new_allocatorIbEC2Ev(%"class.__gnu_cxx::new_allocator.36"* %41) #4
  %42 = load i32, i32* @x.99
  %43 = load i32, i32* @y.100
  %44 = sub i32 0, 1
  %45 = add i32 %42, %44
  %46 = sub i32 %42, 1
  %47 = mul i32 %42, %45
  %48 = urem i32 %47, 2
  %49 = icmp eq i32 %48, 0
  %50 = icmp slt i32 %43, 10
  %51 = xor i1 %49, true
  %52 = xor i1 %50, true
  %53 = xor i1 false, true
  %54 = and i1 %51, false
  %55 = and i1 %49, %53
  %56 = and i1 %52, false
  %57 = and i1 %50, %53
  %58 = or i1 %54, %55
  %59 = or i1 %56, %57
  %60 = xor i1 %58, %59
  %61 = or i1 %51, %52
  %62 = xor i1 %61, true
  %63 = or i1 false, %53
  %64 = and i1 %62, %63
  %65 = or i1 %60, %64
  %66 = or i1 %49, %50
  %67 = select i1 %65, i32 -1801422073, i32 90340343
  store i32 %67, i32* %14
  br label %73

; <label>:68:                                     ; preds = %15
  ret void

; <label>:69:                                     ; preds = %15
  %70 = alloca %"class.std::allocator.35"*, align 8
  store %"class.std::allocator.35"* %0, %"class.std::allocator.35"** %70, align 8
  %71 = load %"class.std::allocator.35"*, %"class.std::allocator.35"** %70, align 8
  %72 = bitcast %"class.std::allocator.35"* %71 to %"class.__gnu_cxx::new_allocator.36"*
  call void @_ZN9__gnu_cxx13new_allocatorIbEC2Ev(%"class.__gnu_cxx::new_allocator.36"* %72) #4
  store i32 1058038386, i32* %14
  br label %73

; <label>:73:                                     ; preds = %69, %38, %18, %17
  br label %15
}

; Function Attrs: noinline uwtable
define linkonce_odr void @_ZNSt6vectorIbSaIbEEC2EmRKbRKS0_(%"class.std::vector.31"*, i64, i8* dereferenceable(1), %"class.std::allocator.35"* dereferenceable(1)) unnamed_addr #0 comdat align 2 personality i8* bitcast (i32 (...)* @__gxx_personality_v0 to i8*) {
  %5 = alloca %"class.std::vector.31"*, align 8
  %6 = alloca i64, align 8
  %7 = alloca i8*, align 8
  %8 = alloca %"class.std::allocator.35"*, align 8
  %9 = alloca i8*
  %10 = alloca i32
  %11 = alloca i32, align 4
  store %"class.std::vector.31"* %0, %"class.std::vector.31"** %5, align 8
  store i64 %1, i64* %6, align 8
  store i8* %2, i8** %7, align 8
  store %"class.std::allocator.35"* %3, %"class.std::allocator.35"** %8, align 8
  %12 = load %"class.std::vector.31"*, %"class.std::vector.31"** %5, align 8
  %13 = bitcast %"class.std::vector.31"* %12 to %"struct.std::_Bvector_base"*
  %14 = load %"class.std::allocator.35"*, %"class.std::allocator.35"** %8, align 8
  call void @_ZNSt13_Bvector_baseISaIbEEC2ERKS0_(%"struct.std::_Bvector_base"* %13, %"class.std::allocator.35"* dereferenceable(1) %14)
  %15 = load i64, i64* %6, align 8
  invoke void @_ZNSt6vectorIbSaIbEE13_M_initializeEm(%"class.std::vector.31"* %12, i64 %15)
          to label %16 unwind label %85

; <label>:16:                                     ; preds = %4
  %17 = bitcast %"class.std::vector.31"* %12 to %"struct.std::_Bvector_base"*
  %18 = getelementptr inbounds %"struct.std::_Bvector_base", %"struct.std::_Bvector_base"* %17, i32 0, i32 0
  %19 = getelementptr inbounds %"struct.std::_Bvector_base<std::allocator<bool> >::_Bvector_impl", %"struct.std::_Bvector_base<std::allocator<bool> >::_Bvector_impl"* %18, i32 0, i32 0
  %20 = bitcast %"struct.std::_Bit_iterator"* %19 to %"struct.std::_Bit_iterator_base"*
  %21 = getelementptr inbounds %"struct.std::_Bit_iterator_base", %"struct.std::_Bit_iterator_base"* %20, i32 0, i32 0
  %22 = load i64*, i64** %21, align 8
  %23 = bitcast %"class.std::vector.31"* %12 to %"struct.std::_Bvector_base"*
  %24 = getelementptr inbounds %"struct.std::_Bvector_base", %"struct.std::_Bvector_base"* %23, i32 0, i32 0
  %25 = call i64* @_ZNKSt13_Bvector_baseISaIbEE13_Bvector_impl11_M_end_addrEv(%"struct.std::_Bvector_base<std::allocator<bool> >::_Bvector_impl"* %24) #4
  %26 = load i8*, i8** %7, align 8
  %27 = load i8, i8* %26, align 1
  %28 = trunc i8 %27 to i1
  %29 = select i1 %28, i32 -1, i32 0
  store i32 %29, i32* %11, align 4
  invoke void @_ZSt4fillIPmiEvT_S1_RKT0_(i64* %22, i64* %25, i32* dereferenceable(4) %11)
          to label %30 unwind label %85

; <label>:30:                                     ; preds = %16
  %31 = load i32, i32* @x.101
  %32 = load i32, i32* @y.102
  %33 = add i32 %31, -15635328
  %34 = sub i32 %33, 1
  %35 = sub i32 %34, -15635328
  %36 = sub i32 %31, 1
  %37 = mul i32 %31, %35
  %38 = urem i32 %37, 2
  %39 = icmp eq i32 %38, 0
  %40 = icmp slt i32 %32, 10
  %41 = xor i1 %39, true
  %42 = xor i1 %40, true
  %43 = xor i1 false, true
  %44 = and i1 %41, false
  %45 = and i1 %39, %43
  %46 = and i1 %42, false
  %47 = and i1 %40, %43
  %48 = or i1 %44, %45
  %49 = or i1 %46, %47
  %50 = xor i1 %48, %49
  %51 = or i1 %41, %42
  %52 = xor i1 %51, true
  %53 = or i1 false, %43
  %54 = and i1 %52, %53
  %55 = or i1 %50, %54
  %56 = or i1 %39, %40
  br i1 %55, label %57, label %149

; <label>:57:                                     ; preds = %30, %149
  %58 = load i32, i32* @x.101
  %59 = load i32, i32* @y.102
  %60 = add i32 %58, 850453604
  %61 = sub i32 %60, 1
  %62 = sub i32 %61, 850453604
  %63 = sub i32 %58, 1
  %64 = mul i32 %58, %62
  %65 = urem i32 %64, 2
  %66 = icmp eq i32 %65, 0
  %67 = icmp slt i32 %59, 10
  %68 = xor i1 %66, true
  %69 = xor i1 %67, true
  %70 = xor i1 false, true
  %71 = and i1 %68, false
  %72 = and i1 %66, %70
  %73 = and i1 %69, false
  %74 = and i1 %67, %70
  %75 = or i1 %71, %72
  %76 = or i1 %73, %74
  %77 = xor i1 %75, %76
  %78 = or i1 %68, %69
  %79 = xor i1 %78, true
  %80 = or i1 false, %70
  %81 = and i1 %79, %80
  %82 = or i1 %77, %81
  %83 = or i1 %66, %67
  br i1 %82, label %84, label %149

; <label>:84:                                     ; preds = %57
  ret void

; <label>:85:                                     ; preds = %16, %4
  %86 = landingpad { i8*, i32 }
          cleanup
  %87 = extractvalue { i8*, i32 } %86, 0
  store i8* %87, i8** %9, align 8
  %88 = extractvalue { i8*, i32 } %86, 1
  store i32 %88, i32* %10, align 4
  %89 = bitcast %"class.std::vector.31"* %12 to %"struct.std::_Bvector_base"*
  call void @_ZNSt13_Bvector_baseISaIbEED2Ev(%"struct.std::_Bvector_base"* %89) #4
  br label %90

; <label>:90:                                     ; preds = %85
  %91 = load i32, i32* @x.101
  %92 = load i32, i32* @y.102
  %93 = sub i32 %91, -2043923136
  %94 = sub i32 %93, 1
  %95 = add i32 %94, -2043923136
  %96 = sub i32 %91, 1
  %97 = mul i32 %91, %95
  %98 = urem i32 %97, 2
  %99 = icmp eq i32 %98, 0
  %100 = icmp slt i32 %92, 10
  %101 = xor i1 %99, true
  %102 = xor i1 %100, true
  %103 = xor i1 false, true
  %104 = and i1 %101, false
  %105 = and i1 %99, %103
  %106 = and i1 %102, false
  %107 = and i1 %100, %103
  %108 = or i1 %104, %105
  %109 = or i1 %106, %107
  %110 = xor i1 %108, %109
  %111 = or i1 %101, %102
  %112 = xor i1 %111, true
  %113 = or i1 false, %103
  %114 = and i1 %112, %113
  %115 = or i1 %110, %114
  %116 = or i1 %99, %100
  br i1 %115, label %117, label %150

; <label>:117:                                    ; preds = %90, %150
  %118 = load i8*, i8** %9, align 8
  %119 = load i32, i32* %10, align 4
  %120 = insertvalue { i8*, i32 } undef, i8* %118, 0
  %121 = insertvalue { i8*, i32 } %120, i32 %119, 1
  %122 = load i32, i32* @x.101
  %123 = load i32, i32* @y.102
  %124 = sub i32 %122, 272256348
  %125 = sub i32 %124, 1
  %126 = add i32 %125, 272256348
  %127 = sub i32 %122, 1
  %128 = mul i32 %122, %126
  %129 = urem i32 %128, 2
  %130 = icmp eq i32 %129, 0
  %131 = icmp slt i32 %123, 10
  %132 = xor i1 %130, true
  %133 = xor i1 %131, true
  %134 = xor i1 true, true
  %135 = and i1 %132, true
  %136 = and i1 %130, %134
  %137 = and i1 %133, true
  %138 = and i1 %131, %134
  %139 = or i1 %135, %136
  %140 = or i1 %137, %138
  %141 = xor i1 %139, %140
  %142 = or i1 %132, %133
  %143 = xor i1 %142, true
  %144 = or i1 true, %134
  %145 = and i1 %143, %144
  %146 = or i1 %141, %145
  %147 = or i1 %130, %131
  br i1 %146, label %148, label %150

; <label>:148:                                    ; preds = %117
  resume { i8*, i32 } %121

; <label>:149:                                    ; preds = %57, %30
  br label %57

; <label>:150:                                    ; preds = %117, %90
  %151 = load i8*, i8** %9, align 8
  %152 = load i32, i32* %10, align 4
  %153 = insertvalue { i8*, i32 } undef, i8* %151, 0
  %154 = insertvalue { i8*, i32 } %153, i32 %152, 1
  br label %117
}

; Function Attrs: noinline nounwind uwtable
define linkonce_odr void @_ZNSaIbED2Ev(%"class.std::allocator.35"*) unnamed_addr #1 comdat align 2 {
  %2 = alloca %"class.std::allocator.35"*, align 8
  store %"class.std::allocator.35"* %0, %"class.std::allocator.35"** %2, align 8
  %3 = load %"class.std::allocator.35"*, %"class.std::allocator.35"** %2, align 8
  %4 = bitcast %"class.std::allocator.35"* %3 to %"class.__gnu_cxx::new_allocator.36"*
  call void @_ZN9__gnu_cxx13new_allocatorIbED2Ev(%"class.__gnu_cxx::new_allocator.36"* %4) #4
  ret void
}

; Function Attrs: noinline uwtable
define linkonce_odr void @_ZNSt5dequeIiSaIiEEC2Ev(%"class.std::deque"*) unnamed_addr #0 comdat align 2 {
  %2 = alloca %"class.std::deque"*, align 8
  store %"class.std::deque"* %0, %"class.std::deque"** %2, align 8
  %3 = load %"class.std::deque"*, %"class.std::deque"** %2, align 8
  %4 = bitcast %"class.std::deque"* %3 to %"class.std::_Deque_base"*
  call void @_ZNSt11_Deque_baseIiSaIiEEC2Ev(%"class.std::_Deque_base"* %4)
  ret void
}

; Function Attrs: noinline uwtable
define linkonce_odr void @_ZNSt5stackIiSt5dequeIiSaIiEEEC2EOS2_(%"class.std::stack"*, %"class.std::deque"* dereferenceable(80)) unnamed_addr #0 comdat align 2 {
  %3 = alloca i1
  %4 = alloca i1
  %5 = load i32, i32* @x.107
  %6 = load i32, i32* @y.108
  %7 = add i32 %5, 364853504
  %8 = sub i32 %7, 1
  %9 = sub i32 %8, 364853504
  %10 = sub i32 %5, 1
  %11 = mul i32 %5, %9
  %12 = urem i32 %11, 2
  %13 = icmp eq i32 %12, 0
  store i1 %13, i1* %4
  %14 = icmp slt i32 %6, 10
  store i1 %14, i1* %3
  %15 = alloca i32
  store i32 2098691399, i32* %15
  br label %16

; <label>:16:                                     ; preds = %2, %69
  %17 = load i32, i32* %15
  switch i32 %17, label %18 [
    i32 2098691399, label %19
    i32 -1184128512, label %27
    i32 -1203597253, label %61
    i32 -222940248, label %62
  ]

; <label>:18:                                     ; preds = %16
  br label %69

; <label>:19:                                     ; preds = %16
  %20 = load volatile i1, i1* %4
  %21 = load volatile i1, i1* %3
  %22 = and i1 %20, %21
  %23 = xor i1 %20, %21
  %24 = or i1 %22, %23
  %25 = or i1 %20, %21
  %26 = select i1 %24, i32 -1184128512, i32 -222940248
  store i32 %26, i32* %15
  br label %69

; <label>:27:                                     ; preds = %16
  %28 = alloca %"class.std::stack"*, align 8
  %29 = alloca %"class.std::deque"*, align 8
  store %"class.std::stack"* %0, %"class.std::stack"** %28, align 8
  store %"class.std::deque"* %1, %"class.std::deque"** %29, align 8
  %30 = load %"class.std::stack"*, %"class.std::stack"** %28, align 8
  %31 = getelementptr inbounds %"class.std::stack", %"class.std::stack"* %30, i32 0, i32 0
  %32 = load %"class.std::deque"*, %"class.std::deque"** %29, align 8
  %33 = call dereferenceable(80) %"class.std::deque"* @_ZSt4moveIRSt5dequeIiSaIiEEEONSt16remove_referenceIT_E4typeEOS5_(%"class.std::deque"* dereferenceable(80) %32) #4
  call void @_ZNSt5dequeIiSaIiEEC2EOS1_(%"class.std::deque"* %31, %"class.std::deque"* dereferenceable(80) %33)
  %34 = load i32, i32* @x.107
  %35 = load i32, i32* @y.108
  %36 = sub i32 %34, -2097073265
  %37 = sub i32 %36, 1
  %38 = add i32 %37, -2097073265
  %39 = sub i32 %34, 1
  %40 = mul i32 %34, %38
  %41 = urem i32 %40, 2
  %42 = icmp eq i32 %41, 0
  %43 = icmp slt i32 %35, 10
  %44 = xor i1 %42, true
  %45 = xor i1 %43, true
  %46 = xor i1 false, true
  %47 = and i1 %44, false
  %48 = and i1 %42, %46
  %49 = and i1 %45, false
  %50 = and i1 %43, %46
  %51 = or i1 %47, %48
  %52 = or i1 %49, %50
  %53 = xor i1 %51, %52
  %54 = or i1 %44, %45
  %55 = xor i1 %54, true
  %56 = or i1 false, %46
  %57 = and i1 %55, %56
  %58 = or i1 %53, %57
  %59 = or i1 %42, %43
  %60 = select i1 %58, i32 -1203597253, i32 -222940248
  store i32 %60, i32* %15
  br label %69

; <label>:61:                                     ; preds = %16
  ret void

; <label>:62:                                     ; preds = %16
  %63 = alloca %"class.std::stack"*, align 8
  %64 = alloca %"class.std::deque"*, align 8
  store %"class.std::stack"* %0, %"class.std::stack"** %63, align 8
  store %"class.std::deque"* %1, %"class.std::deque"** %64, align 8
  %65 = load %"class.std::stack"*, %"class.std::stack"** %63, align 8
  %66 = getelementptr inbounds %"class.std::stack", %"class.std::stack"* %65, i32 0, i32 0
  %67 = load %"class.std::deque"*, %"class.std::deque"** %64, align 8
  %68 = call dereferenceable(80) %"class.std::deque"* @_ZSt4moveIRSt5dequeIiSaIiEEEONSt16remove_referenceIT_E4typeEOS5_(%"class.std::deque"* dereferenceable(80) %67) #4
  call void @_ZNSt5dequeIiSaIiEEC2EOS1_(%"class.std::deque"* %66, %"class.std::deque"* dereferenceable(80) %68)
  store i32 -1184128512, i32* %15
  br label %69

; <label>:69:                                     ; preds = %62, %27, %19, %18
  br label %16
}

; Function Attrs: noinline nounwind uwtable
define linkonce_odr void @_ZNSt5dequeIiSaIiEED2Ev(%"class.std::deque"*) unnamed_addr #1 comdat align 2 personality i8* bitcast (i32 (...)* @__gxx_personality_v0 to i8*) {
  %2 = alloca %"class.std::deque"*, align 8
  %3 = alloca %"struct.std::_Deque_iterator", align 8
  %4 = alloca %"struct.std::_Deque_iterator", align 8
  %5 = alloca i8*
  %6 = alloca i32
  store %"class.std::deque"* %0, %"class.std::deque"** %2, align 8
  %7 = load %"class.std::deque"*, %"class.std::deque"** %2, align 8
  call void @_ZNSt5dequeIiSaIiEE5beginEv(%"struct.std::_Deque_iterator"* sret %3, %"class.std::deque"* %7) #4
  call void @_ZNSt5dequeIiSaIiEE3endEv(%"struct.std::_Deque_iterator"* sret %4, %"class.std::deque"* %7) #4
  %8 = bitcast %"class.std::deque"* %7 to %"class.std::_Deque_base"*
  %9 = call dereferenceable(1) %"class.std::allocator.7"* @_ZNSt11_Deque_baseIiSaIiEE19_M_get_Tp_allocatorEv(%"class.std::_Deque_base"* %8) #4
  invoke void @_ZNSt5dequeIiSaIiEE15_M_destroy_dataESt15_Deque_iteratorIiRiPiES5_RKS0_(%"class.std::deque"* %7, %"struct.std::_Deque_iterator"* %3, %"struct.std::_Deque_iterator"* %4, %"class.std::allocator.7"* dereferenceable(1) %9)
          to label %10 unwind label %12

; <label>:10:                                     ; preds = %1
  %11 = bitcast %"class.std::deque"* %7 to %"class.std::_Deque_base"*
  call void @_ZNSt11_Deque_baseIiSaIiEED2Ev(%"class.std::_Deque_base"* %11) #4
  ret void

; <label>:12:                                     ; preds = %1
  %13 = load i32, i32* @x.109
  %14 = load i32, i32* @y.110
  %15 = add i32 %13, 130166615
  %16 = sub i32 %15, 1
  %17 = sub i32 %16, 130166615
  %18 = sub i32 %13, 1
  %19 = mul i32 %13, %17
  %20 = urem i32 %19, 2
  %21 = icmp eq i32 %20, 0
  %22 = icmp slt i32 %14, 10
  %23 = xor i1 %21, true
  %24 = xor i1 %22, true
  %25 = xor i1 false, true
  %26 = and i1 %23, false
  %27 = and i1 %21, %25
  %28 = and i1 %24, false
  %29 = and i1 %22, %25
  %30 = or i1 %26, %27
  %31 = or i1 %28, %29
  %32 = xor i1 %30, %31
  %33 = or i1 %23, %24
  %34 = xor i1 %33, true
  %35 = or i1 false, %25
  %36 = and i1 %34, %35
  %37 = or i1 %32, %36
  %38 = or i1 %21, %22
  br i1 %37, label %39, label %113

; <label>:39:                                     ; preds = %12, %113
  %40 = landingpad { i8*, i32 }
          catch i8* null
  %41 = extractvalue { i8*, i32 } %40, 0
  store i8* %41, i8** %5, align 8
  %42 = extractvalue { i8*, i32 } %40, 1
  store i32 %42, i32* %6, align 4
  %43 = bitcast %"class.std::deque"* %7 to %"class.std::_Deque_base"*
  call void @_ZNSt11_Deque_baseIiSaIiEED2Ev(%"class.std::_Deque_base"* %43) #4
  %44 = load i32, i32* @x.109
  %45 = load i32, i32* @y.110
  %46 = add i32 %44, -309639824
  %47 = sub i32 %46, 1
  %48 = sub i32 %47, -309639824
  %49 = sub i32 %44, 1
  %50 = mul i32 %44, %48
  %51 = urem i32 %50, 2
  %52 = icmp eq i32 %51, 0
  %53 = icmp slt i32 %45, 10
  %54 = xor i1 %52, true
  %55 = xor i1 %53, true
  %56 = xor i1 false, true
  %57 = and i1 %54, false
  %58 = and i1 %52, %56
  %59 = and i1 %55, false
  %60 = and i1 %53, %56
  %61 = or i1 %57, %58
  %62 = or i1 %59, %60
  %63 = xor i1 %61, %62
  %64 = or i1 %54, %55
  %65 = xor i1 %64, true
  %66 = or i1 false, %56
  %67 = and i1 %65, %66
  %68 = or i1 %63, %67
  %69 = or i1 %52, %53
  br i1 %68, label %70, label %113

; <label>:70:                                     ; preds = %39
  br label %71

; <label>:71:                                     ; preds = %70
  %72 = load i32, i32* @x.109
  %73 = load i32, i32* @y.110
  %74 = sub i32 0, 1
  %75 = add i32 %72, %74
  %76 = sub i32 %72, 1
  %77 = mul i32 %72, %75
  %78 = urem i32 %77, 2
  %79 = icmp eq i32 %78, 0
  %80 = icmp slt i32 %73, 10
  %81 = and i1 %79, %80
  %82 = xor i1 %79, %80
  %83 = or i1 %81, %82
  %84 = or i1 %79, %80
  br i1 %83, label %85, label %118

; <label>:85:                                     ; preds = %71, %118
  %86 = load i8*, i8** %5, align 8
  call void @__clang_call_terminate(i8* %86) #8
  %87 = load i32, i32* @x.109
  %88 = load i32, i32* @y.110
  %89 = sub i32 0, 1
  %90 = add i32 %87, %89
  %91 = sub i32 %87, 1
  %92 = mul i32 %87, %90
  %93 = urem i32 %92, 2
  %94 = icmp eq i32 %93, 0
  %95 = icmp slt i32 %88, 10
  %96 = xor i1 %94, true
  %97 = xor i1 %95, true
  %98 = xor i1 false, true
  %99 = and i1 %96, false
  %100 = and i1 %94, %98
  %101 = and i1 %97, false
  %102 = and i1 %95, %98
  %103 = or i1 %99, %100
  %104 = or i1 %101, %102
  %105 = xor i1 %103, %104
  %106 = or i1 %96, %97
  %107 = xor i1 %106, true
  %108 = or i1 false, %98
  %109 = and i1 %107, %108
  %110 = or i1 %105, %109
  %111 = or i1 %94, %95
  br i1 %110, label %112, label %118

; <label>:112:                                    ; preds = %85
  unreachable

; <label>:113:                                    ; preds = %39, %12
  %114 = landingpad { i8*, i32 }
          catch i8* null
  %115 = extractvalue { i8*, i32 } %114, 0
  store i8* %115, i8** %5, align 8
  %116 = extractvalue { i8*, i32 } %114, 1
  store i32 %116, i32* %6, align 4
  %117 = bitcast %"class.std::deque"* %7 to %"class.std::_Deque_base"*
  call void @_ZNSt11_Deque_baseIiSaIiEED2Ev(%"class.std::_Deque_base"* %117) #4
  br label %39

; <label>:118:                                    ; preds = %85, %71
  %119 = load i8*, i8** %5, align 8
  call void @__clang_call_terminate(i8* %119) #8
  br label %85
}

; Function Attrs: noinline uwtable
define linkonce_odr { i64*, i64 } @_ZNSt6vectorIbSaIbEEixEm(%"class.std::vector.31"*, i64) #0 comdat align 2 {
  %3 = alloca %"struct.std::_Bit_reference", align 8
  %4 = alloca %"class.std::vector.31"*, align 8
  %5 = alloca i64, align 8
  %6 = alloca %"struct.std::_Bit_iterator", align 8
  store %"class.std::vector.31"* %0, %"class.std::vector.31"** %4, align 8
  store i64 %1, i64* %5, align 8
  %7 = load %"class.std::vector.31"*, %"class.std::vector.31"** %4, align 8
  %8 = bitcast %"class.std::vector.31"* %7 to %"struct.std::_Bvector_base"*
  %9 = getelementptr inbounds %"struct.std::_Bvector_base", %"struct.std::_Bvector_base"* %8, i32 0, i32 0
  %10 = getelementptr inbounds %"struct.std::_Bvector_base<std::allocator<bool> >::_Bvector_impl", %"struct.std::_Bvector_base<std::allocator<bool> >::_Bvector_impl"* %9, i32 0, i32 0
  %11 = bitcast %"struct.std::_Bit_iterator"* %10 to %"struct.std::_Bit_iterator_base"*
  %12 = getelementptr inbounds %"struct.std::_Bit_iterator_base", %"struct.std::_Bit_iterator_base"* %11, i32 0, i32 0
  %13 = load i64*, i64** %12, align 8
  %14 = load i64, i64* %5, align 8
  %15 = udiv i64 %14, 64
  %16 = getelementptr inbounds i64, i64* %13, i64 %15
  %17 = load i64, i64* %5, align 8
  %18 = urem i64 %17, 64
  %19 = trunc i64 %18 to i32
  call void @_ZNSt13_Bit_iteratorC2EPmj(%"struct.std::_Bit_iterator"* %6, i64* %16, i32 %19)
  %20 = call { i64*, i64 } @_ZNKSt13_Bit_iteratordeEv(%"struct.std::_Bit_iterator"* %6)
  %21 = bitcast %"struct.std::_Bit_reference"* %3 to { i64*, i64 }*
  %22 = getelementptr inbounds { i64*, i64 }, { i64*, i64 }* %21, i32 0, i32 0
  %23 = extractvalue { i64*, i64 } %20, 0
  store i64* %23, i64** %22, align 8
  %24 = getelementptr inbounds { i64*, i64 }, { i64*, i64 }* %21, i32 0, i32 1
  %25 = extractvalue { i64*, i64 } %20, 1
  store i64 %25, i64* %24, align 8
  %26 = bitcast %"struct.std::_Bit_reference"* %3 to { i64*, i64 }*
  %27 = load { i64*, i64 }, { i64*, i64 }* %26, align 8
  ret { i64*, i64 } %27
}

; Function Attrs: noinline nounwind uwtable
define linkonce_odr zeroext i1 @_ZNKSt14_Bit_referencecvbEv(%"struct.std::_Bit_reference"*) #1 comdat align 2 {
  %2 = alloca i1
  %3 = alloca i1
  %4 = alloca i1
  %5 = load i32, i32* @x.113
  %6 = load i32, i32* @y.114
  %7 = sub i32 %5, 1746277995
  %8 = sub i32 %7, 1
  %9 = add i32 %8, 1746277995
  %10 = sub i32 %5, 1
  %11 = mul i32 %5, %9
  %12 = urem i32 %11, 2
  %13 = icmp eq i32 %12, 0
  store i1 %13, i1* %4
  %14 = icmp slt i32 %6, 10
  store i1 %14, i1* %3
  %15 = alloca i32
  store i32 917886594, i32* %15
  br label %16

; <label>:16:                                     ; preds = %1, %196
  %17 = load i32, i32* %15
  switch i32 %17, label %18 [
    i32 917886594, label %19
    i32 -1069598170, label %39
    i32 -40080111, label %94
    i32 -1206284750, label %96
  ]

; <label>:18:                                     ; preds = %16
  br label %196

; <label>:19:                                     ; preds = %16
  %20 = load volatile i1, i1* %4
  %21 = load volatile i1, i1* %3
  %22 = xor i1 %20, true
  %23 = xor i1 %21, true
  %24 = xor i1 true, true
  %25 = and i1 %22, true
  %26 = and i1 %20, %24
  %27 = and i1 %23, true
  %28 = and i1 %21, %24
  %29 = or i1 %25, %26
  %30 = or i1 %27, %28
  %31 = xor i1 %29, %30
  %32 = or i1 %22, %23
  %33 = xor i1 %32, true
  %34 = or i1 true, %24
  %35 = and i1 %33, %34
  %36 = or i1 %31, %35
  %37 = or i1 %20, %21
  %38 = select i1 %36, i32 -1069598170, i32 -1206284750
  store i32 %38, i32* %15
  br label %196

; <label>:39:                                     ; preds = %16
  %40 = alloca %"struct.std::_Bit_reference"*, align 8
  store %"struct.std::_Bit_reference"* %0, %"struct.std::_Bit_reference"** %40, align 8
  %41 = load %"struct.std::_Bit_reference"*, %"struct.std::_Bit_reference"** %40, align 8
  %42 = getelementptr inbounds %"struct.std::_Bit_reference", %"struct.std::_Bit_reference"* %41, i32 0, i32 0
  %43 = load i64*, i64** %42, align 8
  %44 = load i64, i64* %43, align 8
  %45 = getelementptr inbounds %"struct.std::_Bit_reference", %"struct.std::_Bit_reference"* %41, i32 0, i32 1
  %46 = load i64, i64* %45, align 8
  %47 = xor i64 %44, -1
  %48 = xor i64 %46, -1
  %49 = xor i64 -163615890500519698, -1
  %50 = or i64 %47, %48
  %51 = or i64 -163615890500519698, %49
  %52 = xor i64 %50, -1
  %53 = and i64 %52, %51
  %54 = and i64 %44, %46
  %55 = icmp ne i64 %53, 0
  %56 = xor i1 %55, true
  %57 = and i1 true, %56
  %58 = xor i1 true, true
  %59 = and i1 %55, %58
  %60 = or i1 %57, %59
  %61 = xor i1 %55, true
  %62 = xor i1 %60, true
  %63 = and i1 true, %62
  %64 = xor i1 true, true
  %65 = and i1 %60, %64
  %66 = or i1 %63, %65
  %67 = xor i1 %60, true
  store i1 %66, i1* %2
  %68 = load i32, i32* @x.113
  %69 = load i32, i32* @y.114
  %70 = sub i32 0, 1
  %71 = add i32 %68, %70
  %72 = sub i32 %68, 1
  %73 = mul i32 %68, %71
  %74 = urem i32 %73, 2
  %75 = icmp eq i32 %74, 0
  %76 = icmp slt i32 %69, 10
  %77 = xor i1 %75, true
  %78 = xor i1 %76, true
  %79 = xor i1 true, true
  %80 = and i1 %77, true
  %81 = and i1 %75, %79
  %82 = and i1 %78, true
  %83 = and i1 %76, %79
  %84 = or i1 %80, %81
  %85 = or i1 %82, %83
  %86 = xor i1 %84, %85
  %87 = or i1 %77, %78
  %88 = xor i1 %87, true
  %89 = or i1 true, %79
  %90 = and i1 %88, %89
  %91 = or i1 %86, %90
  %92 = or i1 %75, %76
  %93 = select i1 %91, i32 -40080111, i32 -1206284750
  store i32 %93, i32* %15
  br label %196

; <label>:94:                                     ; preds = %16
  %95 = load volatile i1, i1* %2
  ret i1 %95

; <label>:96:                                     ; preds = %16
  %97 = alloca %"struct.std::_Bit_reference"*, align 8
  store %"struct.std::_Bit_reference"* %0, %"struct.std::_Bit_reference"** %97, align 8
  %98 = load %"struct.std::_Bit_reference"*, %"struct.std::_Bit_reference"** %97, align 8
  %99 = getelementptr inbounds %"struct.std::_Bit_reference", %"struct.std::_Bit_reference"* %98, i32 0, i32 0
  %100 = load i64*, i64** %99, align 8
  %101 = load i64, i64* %100, align 8
  %102 = getelementptr inbounds %"struct.std::_Bit_reference", %"struct.std::_Bit_reference"* %98, i32 0, i32 1
  %103 = load i64, i64* %102, align 8
  %104 = sub i64 %101, -392396633076407510
  %105 = sub i64 %104, %103
  %106 = add i64 %105, -392396633076407510
  %107 = sub i64 %101, %103
  %108 = mul i64 %106, %103
  %109 = sub i64 0, %101
  %110 = add i64 0, %109
  %111 = sub i64 0, %101
  %112 = sub i64 0, %103
  %113 = sub i64 %110, %112
  %114 = add i64 %110, %103
  %115 = sub i64 0, %101
  %116 = add i64 0, %115
  %117 = sub i64 0, %101
  %118 = sub i64 0, %103
  %119 = sub i64 %116, %118
  %120 = add i64 %116, %103
  %121 = xor i64 %101, -1
  %122 = xor i64 %103, -1
  %123 = xor i64 4526057972580549481, -1
  %124 = or i64 %121, %122
  %125 = or i64 4526057972580549481, %123
  %126 = xor i64 %124, -1
  %127 = and i64 %126, %125
  %128 = and i64 %101, %103
  %129 = icmp ne i64 %127, 0
  %130 = sub i1 false, true
  %131 = sub i1 %130, %129
  %132 = add i1 %131, true
  %133 = sub i1 false, %129
  %134 = sub i1 %132, false
  %135 = add i1 %134, true
  %136 = add i1 %135, false
  %137 = add i1 %132, true
  %138 = add i1 false, true
  %139 = sub i1 %138, %129
  %140 = sub i1 %139, true
  %141 = sub i1 false, %129
  %142 = sub i1 false, true
  %143 = sub i1 %140, %142
  %144 = add i1 %140, true
  %145 = sub i1 false, true
  %146 = sub i1 %145, %129
  %147 = add i1 %146, true
  %148 = sub i1 false, %129
  %149 = sub i1 %147, false
  %150 = add i1 %149, true
  %151 = add i1 %150, false
  %152 = add i1 %147, true
  %153 = shl i1 %129, true
  %154 = sub i1 false, %129
  %155 = add i1 false, %154
  %156 = sub i1 false, %129
  %157 = sub i1 false, %155
  %158 = sub i1 false, true
  %159 = add i1 %157, %158
  %160 = sub i1 false, %159
  %161 = add i1 %155, true
  %162 = shl i1 %129, true
  %163 = xor i1 %129, true
  %164 = and i1 true, %163
  %165 = xor i1 true, true
  %166 = and i1 %129, %165
  %167 = or i1 %164, %166
  %168 = xor i1 %129, true
  %169 = add i1 false, false
  %170 = sub i1 %169, %167
  %171 = sub i1 %170, false
  %172 = sub i1 false, %167
  %173 = sub i1 false, %171
  %174 = sub i1 false, true
  %175 = add i1 %173, %174
  %176 = sub i1 false, %175
  %177 = add i1 %171, true
  %178 = sub i1 false, true
  %179 = add i1 %167, %178
  %180 = sub i1 %167, true
  %181 = mul i1 %179, true
  %182 = add i1 false, true
  %183 = sub i1 %182, %167
  %184 = sub i1 %183, true
  %185 = sub i1 false, %167
  %186 = sub i1 %184, true
  %187 = add i1 %186, true
  %188 = add i1 %187, true
  %189 = add i1 %184, true
  %190 = xor i1 %167, true
  %191 = and i1 true, %190
  %192 = xor i1 true, true
  %193 = and i1 %167, %192
  %194 = or i1 %191, %193
  %195 = xor i1 %167, true
  store i32 -1069598170, i32* %15
  br label %196

; <label>:196:                                    ; preds = %96, %39, %19, %18
  br label %16
}

; Function Attrs: noinline uwtable
define void @_ZNK5Graph22Kosaraju_dfs_postorderEiRSt6vectorIbSaIbEERSt5stackIiSt5dequeIiSaIiEEE(%class.Graph*, i32, %"class.std::vector.31"* dereferenceable(40), %"class.std::stack"* dereferenceable(80)) #0 align 2 {
  %5 = alloca %class.Graph*
  %6 = alloca %"struct.std::_Bit_reference"*
  %7 = alloca %class.Edge**
  %8 = alloca %"class.__gnu_cxx::__normal_iterator"*
  %9 = alloca %"class.__gnu_cxx::__normal_iterator"*
  %10 = alloca %"class.std::stack"**
  %11 = alloca %"class.std::vector.31"**
  %12 = alloca i32*
  %13 = alloca i1
  %14 = alloca i1
  %15 = load i32, i32* @x.115
  %16 = load i32, i32* @y.116
  %17 = add i32 %15, -570068310
  %18 = sub i32 %17, 1
  %19 = sub i32 %18, -570068310
  %20 = sub i32 %15, 1
  %21 = mul i32 %15, %19
  %22 = urem i32 %21, 2
  %23 = icmp eq i32 %22, 0
  store i1 %23, i1* %14
  %24 = icmp slt i32 %16, 10
  store i1 %24, i1* %13
  %25 = alloca i32
  store i32 756369811, i32* %25
  br label %26

; <label>:26:                                     ; preds = %4, %164
  %27 = load i32, i32* %25
  switch i32 %27, label %28 [
    i32 756369811, label %29
    i32 -943835877, label %37
    i32 -2139172592, label %91
    i32 -238813766, label %92
    i32 227523615, label %97
    i32 1292158917, label %117
    i32 1413448265, label %126
    i32 -352204466, label %127
    i32 -259099115, label %130
    i32 594823627, label %134
  ]

; <label>:28:                                     ; preds = %26
  br label %164

; <label>:29:                                     ; preds = %26
  %30 = load volatile i1, i1* %14
  %31 = load volatile i1, i1* %13
  %32 = and i1 %30, %31
  %33 = xor i1 %30, %31
  %34 = or i1 %32, %33
  %35 = or i1 %30, %31
  %36 = select i1 %34, i32 -943835877, i32 594823627
  store i32 %36, i32* %25
  br label %164

; <label>:37:                                     ; preds = %26
  %38 = alloca %class.Graph*, align 8
  %39 = alloca i32, align 4
  store i32* %39, i32** %12
  %40 = alloca %"class.std::vector.31"*, align 8
  store %"class.std::vector.31"** %40, %"class.std::vector.31"*** %11
  %41 = alloca %"class.std::stack"*, align 8
  store %"class.std::stack"** %41, %"class.std::stack"*** %10
  %42 = alloca %"struct.std::_Bit_reference", align 8
  %43 = alloca %"class.std::vector.0"*, align 8
  %44 = alloca %"class.__gnu_cxx::__normal_iterator", align 8
  store %"class.__gnu_cxx::__normal_iterator"* %44, %"class.__gnu_cxx::__normal_iterator"** %9
  %45 = alloca %"class.__gnu_cxx::__normal_iterator", align 8
  store %"class.__gnu_cxx::__normal_iterator"* %45, %"class.__gnu_cxx::__normal_iterator"** %8
  %46 = alloca %class.Edge*, align 8
  store %class.Edge** %46, %class.Edge*** %7
  %47 = alloca %"struct.std::_Bit_reference", align 8
  store %"struct.std::_Bit_reference"* %47, %"struct.std::_Bit_reference"** %6
  store %class.Graph* %0, %class.Graph** %38, align 8
  %48 = load volatile i32*, i32** %12
  store i32 %1, i32* %48, align 4
  %49 = load volatile %"class.std::vector.31"**, %"class.std::vector.31"*** %11
  store %"class.std::vector.31"* %2, %"class.std::vector.31"** %49, align 8
  %50 = load volatile %"class.std::stack"**, %"class.std::stack"*** %10
  store %"class.std::stack"* %3, %"class.std::stack"** %50, align 8
  %51 = load %class.Graph*, %class.Graph** %38, align 8
  store %class.Graph* %51, %class.Graph** %5
  %52 = load volatile %"class.std::vector.31"**, %"class.std::vector.31"*** %11
  %53 = load %"class.std::vector.31"*, %"class.std::vector.31"** %52, align 8
  %54 = load volatile i32*, i32** %12
  %55 = load i32, i32* %54, align 4
  %56 = sext i32 %55 to i64
  %57 = call { i64*, i64 } @_ZNSt6vectorIbSaIbEEixEm(%"class.std::vector.31"* %53, i64 %56)
  %58 = bitcast %"struct.std::_Bit_reference"* %42 to { i64*, i64 }*
  %59 = getelementptr inbounds { i64*, i64 }, { i64*, i64 }* %58, i32 0, i32 0
  %60 = extractvalue { i64*, i64 } %57, 0
  store i64* %60, i64** %59, align 8
  %61 = getelementptr inbounds { i64*, i64 }, { i64*, i64 }* %58, i32 0, i32 1
  %62 = extractvalue { i64*, i64 } %57, 1
  store i64 %62, i64* %61, align 8
  %63 = call dereferenceable(16) %"struct.std::_Bit_reference"* @_ZNSt14_Bit_referenceaSEb(%"struct.std::_Bit_reference"* %42, i1 zeroext true) #4
  %64 = load volatile i32*, i32** %12
  %65 = load i32, i32* %64, align 4
  %66 = load volatile %class.Graph*, %class.Graph** %5
  %67 = call dereferenceable(24) %"class.std::vector.0"* @_ZNK5Graph4edgeEi(%class.Graph* %66, i32 %65)
  store %"class.std::vector.0"* %67, %"class.std::vector.0"** %43, align 8
  %68 = load %"class.std::vector.0"*, %"class.std::vector.0"** %43, align 8
  %69 = call %class.Edge* @_ZNKSt6vectorI4EdgeSaIS0_EE5beginEv(%"class.std::vector.0"* %68) #4
  %70 = load volatile %"class.__gnu_cxx::__normal_iterator"*, %"class.__gnu_cxx::__normal_iterator"** %9
  %71 = getelementptr inbounds %"class.__gnu_cxx::__normal_iterator", %"class.__gnu_cxx::__normal_iterator"* %70, i32 0, i32 0
  store %class.Edge* %69, %class.Edge** %71, align 8
  %72 = load %"class.std::vector.0"*, %"class.std::vector.0"** %43, align 8
  %73 = call %class.Edge* @_ZNKSt6vectorI4EdgeSaIS0_EE3endEv(%"class.std::vector.0"* %72) #4
  %74 = load volatile %"class.__gnu_cxx::__normal_iterator"*, %"class.__gnu_cxx::__normal_iterator"** %8
  %75 = getelementptr inbounds %"class.__gnu_cxx::__normal_iterator", %"class.__gnu_cxx::__normal_iterator"* %74, i32 0, i32 0
  store %class.Edge* %73, %class.Edge** %75, align 8
  %76 = load i32, i32* @x.115
  %77 = load i32, i32* @y.116
  %78 = sub i32 %76, 87275210
  %79 = sub i32 %78, 1
  %80 = add i32 %79, 87275210
  %81 = sub i32 %76, 1
  %82 = mul i32 %76, %80
  %83 = urem i32 %82, 2
  %84 = icmp eq i32 %83, 0
  %85 = icmp slt i32 %77, 10
  %86 = and i1 %84, %85
  %87 = xor i1 %84, %85
  %88 = or i1 %86, %87
  %89 = or i1 %84, %85
  %90 = select i1 %88, i32 -2139172592, i32 594823627
  store i32 %90, i32* %25
  br label %164

; <label>:91:                                     ; preds = %26
  store i32 -238813766, i32* %25
  br label %164

; <label>:92:                                     ; preds = %26
  %93 = load volatile %"class.__gnu_cxx::__normal_iterator"*, %"class.__gnu_cxx::__normal_iterator"** %9
  %94 = load volatile %"class.__gnu_cxx::__normal_iterator"*, %"class.__gnu_cxx::__normal_iterator"** %8
  %95 = call zeroext i1 @_ZN9__gnu_cxxneIPK4EdgeSt6vectorIS1_SaIS1_EEEEbRKNS_17__normal_iteratorIT_T0_EESC_(%"class.__gnu_cxx::__normal_iterator"* dereferenceable(8) %93, %"class.__gnu_cxx::__normal_iterator"* dereferenceable(8) %94) #4
  %96 = select i1 %95, i32 227523615, i32 -259099115
  store i32 %96, i32* %25
  br label %164

; <label>:97:                                     ; preds = %26
  %98 = load volatile %"class.__gnu_cxx::__normal_iterator"*, %"class.__gnu_cxx::__normal_iterator"** %9
  %99 = call dereferenceable(16) %class.Edge* @_ZNK9__gnu_cxx17__normal_iteratorIPK4EdgeSt6vectorIS1_SaIS1_EEEdeEv(%"class.__gnu_cxx::__normal_iterator"* %98) #4
  %100 = load volatile %class.Edge**, %class.Edge*** %7
  store %class.Edge* %99, %class.Edge** %100, align 8
  %101 = load volatile %"class.std::vector.31"**, %"class.std::vector.31"*** %11
  %102 = load %"class.std::vector.31"*, %"class.std::vector.31"** %101, align 8
  %103 = load volatile %class.Edge**, %class.Edge*** %7
  %104 = load %class.Edge*, %class.Edge** %103, align 8
  %105 = call i32 @_ZNK4Edge2toEv(%class.Edge* %104)
  %106 = sext i32 %105 to i64
  %107 = call { i64*, i64 } @_ZNSt6vectorIbSaIbEEixEm(%"class.std::vector.31"* %102, i64 %106)
  %108 = load volatile %"struct.std::_Bit_reference"*, %"struct.std::_Bit_reference"** %6
  %109 = bitcast %"struct.std::_Bit_reference"* %108 to { i64*, i64 }*
  %110 = getelementptr inbounds { i64*, i64 }, { i64*, i64 }* %109, i32 0, i32 0
  %111 = extractvalue { i64*, i64 } %107, 0
  store i64* %111, i64** %110, align 8
  %112 = getelementptr inbounds { i64*, i64 }, { i64*, i64 }* %109, i32 0, i32 1
  %113 = extractvalue { i64*, i64 } %107, 1
  store i64 %113, i64* %112, align 8
  %114 = load volatile %"struct.std::_Bit_reference"*, %"struct.std::_Bit_reference"** %6
  %115 = call zeroext i1 @_ZNKSt14_Bit_referencecvbEv(%"struct.std::_Bit_reference"* %114) #4
  %116 = select i1 %115, i32 1413448265, i32 1292158917
  store i32 %116, i32* %25
  br label %164

; <label>:117:                                    ; preds = %26
  %118 = load volatile %class.Edge**, %class.Edge*** %7
  %119 = load %class.Edge*, %class.Edge** %118, align 8
  %120 = call i32 @_ZNK4Edge2toEv(%class.Edge* %119)
  %121 = load volatile %"class.std::vector.31"**, %"class.std::vector.31"*** %11
  %122 = load %"class.std::vector.31"*, %"class.std::vector.31"** %121, align 8
  %123 = load volatile %"class.std::stack"**, %"class.std::stack"*** %10
  %124 = load %"class.std::stack"*, %"class.std::stack"** %123, align 8
  %125 = load volatile %class.Graph*, %class.Graph** %5
  call void @_ZNK5Graph22Kosaraju_dfs_postorderEiRSt6vectorIbSaIbEERSt5stackIiSt5dequeIiSaIiEEE(%class.Graph* %125, i32 %120, %"class.std::vector.31"* dereferenceable(40) %122, %"class.std::stack"* dereferenceable(80) %124)
  store i32 1413448265, i32* %25
  br label %164

; <label>:126:                                    ; preds = %26
  store i32 -352204466, i32* %25
  br label %164

; <label>:127:                                    ; preds = %26
  %128 = load volatile %"class.__gnu_cxx::__normal_iterator"*, %"class.__gnu_cxx::__normal_iterator"** %9
  %129 = call dereferenceable(8) %"class.__gnu_cxx::__normal_iterator"* @_ZN9__gnu_cxx17__normal_iteratorIPK4EdgeSt6vectorIS1_SaIS1_EEEppEv(%"class.__gnu_cxx::__normal_iterator"* %128) #4
  store i32 -238813766, i32* %25
  br label %164

; <label>:130:                                    ; preds = %26
  %131 = load volatile %"class.std::stack"**, %"class.std::stack"*** %10
  %132 = load %"class.std::stack"*, %"class.std::stack"** %131, align 8
  %133 = load volatile i32*, i32** %12
  call void @_ZNSt5stackIiSt5dequeIiSaIiEEE4pushERKi(%"class.std::stack"* %132, i32* dereferenceable(4) %133)
  ret void

; <label>:134:                                    ; preds = %26
  %135 = alloca %class.Graph*, align 8
  %136 = alloca i32, align 4
  %137 = alloca %"class.std::vector.31"*, align 8
  %138 = alloca %"class.std::stack"*, align 8
  %139 = alloca %"struct.std::_Bit_reference", align 8
  %140 = alloca %"class.std::vector.0"*, align 8
  %141 = alloca %"class.__gnu_cxx::__normal_iterator", align 8
  %142 = alloca %"class.__gnu_cxx::__normal_iterator", align 8
  %143 = alloca %class.Edge*, align 8
  %144 = alloca %"struct.std::_Bit_reference", align 8
  store %class.Graph* %0, %class.Graph** %135, align 8
  store i32 %1, i32* %136, align 4
  store %"class.std::vector.31"* %2, %"class.std::vector.31"** %137, align 8
  store %"class.std::stack"* %3, %"class.std::stack"** %138, align 8
  %145 = load %class.Graph*, %class.Graph** %135, align 8
  %146 = load %"class.std::vector.31"*, %"class.std::vector.31"** %137, align 8
  %147 = load i32, i32* %136, align 4
  %148 = sext i32 %147 to i64
  %149 = call { i64*, i64 } @_ZNSt6vectorIbSaIbEEixEm(%"class.std::vector.31"* %146, i64 %148)
  %150 = bitcast %"struct.std::_Bit_reference"* %139 to { i64*, i64 }*
  %151 = getelementptr inbounds { i64*, i64 }, { i64*, i64 }* %150, i32 0, i32 0
  %152 = extractvalue { i64*, i64 } %149, 0
  store i64* %152, i64** %151, align 8
  %153 = getelementptr inbounds { i64*, i64 }, { i64*, i64 }* %150, i32 0, i32 1
  %154 = extractvalue { i64*, i64 } %149, 1
  store i64 %154, i64* %153, align 8
  %155 = call dereferenceable(16) %"struct.std::_Bit_reference"* @_ZNSt14_Bit_referenceaSEb(%"struct.std::_Bit_reference"* %139, i1 zeroext true) #4
  %156 = load i32, i32* %136, align 4
  %157 = call dereferenceable(24) %"class.std::vector.0"* @_ZNK5Graph4edgeEi(%class.Graph* %145, i32 %156)
  store %"class.std::vector.0"* %157, %"class.std::vector.0"** %140, align 8
  %158 = load %"class.std::vector.0"*, %"class.std::vector.0"** %140, align 8
  %159 = call %class.Edge* @_ZNKSt6vectorI4EdgeSaIS0_EE5beginEv(%"class.std::vector.0"* %158) #4
  %160 = getelementptr inbounds %"class.__gnu_cxx::__normal_iterator", %"class.__gnu_cxx::__normal_iterator"* %141, i32 0, i32 0
  store %class.Edge* %159, %class.Edge** %160, align 8
  %161 = load %"class.std::vector.0"*, %"class.std::vector.0"** %140, align 8
  %162 = call %class.Edge* @_ZNKSt6vectorI4EdgeSaIS0_EE3endEv(%"class.std::vector.0"* %161) #4
  %163 = getelementptr inbounds %"class.__gnu_cxx::__normal_iterator", %"class.__gnu_cxx::__normal_iterator"* %142, i32 0, i32 0
  store %class.Edge* %162, %class.Edge** %163, align 8
  store i32 -943835877, i32* %25
  br label %164

; <label>:164:                                    ; preds = %134, %127, %126, %117, %97, %92, %91, %37, %29, %28
  br label %26
}

; Function Attrs: noinline nounwind uwtable
define linkonce_odr void @_ZNSt6vectorI4EdgeSaIS0_EEC2Ev(%"class.std::vector.0"*) unnamed_addr #1 comdat align 2 personality i8* bitcast (i32 (...)* @__gxx_personality_v0 to i8*) {
  %2 = load i32, i32* @x.117
  %3 = load i32, i32* @y.118
  %4 = sub i32 %2, -1974601894
  %5 = sub i32 %4, 1
  %6 = add i32 %5, -1974601894
  %7 = sub i32 %2, 1
  %8 = mul i32 %2, %6
  %9 = urem i32 %8, 2
  %10 = icmp eq i32 %9, 0
  %11 = icmp slt i32 %3, 10
  %12 = and i1 %10, %11
  %13 = xor i1 %10, %11
  %14 = or i1 %12, %13
  %15 = or i1 %10, %11
  br i1 %14, label %16, label %145

; <label>:16:                                     ; preds = %1, %145
  %17 = alloca %"class.std::vector.0"*, align 8
  store %"class.std::vector.0"* %0, %"class.std::vector.0"** %17, align 8
  %18 = load %"class.std::vector.0"*, %"class.std::vector.0"** %17, align 8
  %19 = bitcast %"class.std::vector.0"* %18 to %"struct.std::_Vector_base.1"*
  %20 = load i32, i32* @x.117
  %21 = load i32, i32* @y.118
  %22 = sub i32 %20, -1685662680
  %23 = sub i32 %22, 1
  %24 = add i32 %23, -1685662680
  %25 = sub i32 %20, 1
  %26 = mul i32 %20, %24
  %27 = urem i32 %26, 2
  %28 = icmp eq i32 %27, 0
  %29 = icmp slt i32 %21, 10
  %30 = xor i1 %28, true
  %31 = xor i1 %29, true
  %32 = xor i1 true, true
  %33 = and i1 %30, true
  %34 = and i1 %28, %32
  %35 = and i1 %31, true
  %36 = and i1 %29, %32
  %37 = or i1 %33, %34
  %38 = or i1 %35, %36
  %39 = xor i1 %37, %38
  %40 = or i1 %30, %31
  %41 = xor i1 %40, true
  %42 = or i1 true, %32
  %43 = and i1 %41, %42
  %44 = or i1 %39, %43
  %45 = or i1 %28, %29
  br i1 %44, label %46, label %145

; <label>:46:                                     ; preds = %16
  invoke void @_ZNSt12_Vector_baseI4EdgeSaIS0_EEC2Ev(%"struct.std::_Vector_base.1"* %19)
          to label %47 unwind label %102

; <label>:47:                                     ; preds = %46
  %48 = load i32, i32* @x.117
  %49 = load i32, i32* @y.118
  %50 = sub i32 %48, -839941240
  %51 = sub i32 %50, 1
  %52 = add i32 %51, -839941240
  %53 = sub i32 %48, 1
  %54 = mul i32 %48, %52
  %55 = urem i32 %54, 2
  %56 = icmp eq i32 %55, 0
  %57 = icmp slt i32 %49, 10
  %58 = xor i1 %56, true
  %59 = xor i1 %57, true
  %60 = xor i1 true, true
  %61 = and i1 %58, true
  %62 = and i1 %56, %60
  %63 = and i1 %59, true
  %64 = and i1 %57, %60
  %65 = or i1 %61, %62
  %66 = or i1 %63, %64
  %67 = xor i1 %65, %66
  %68 = or i1 %58, %59
  %69 = xor i1 %68, true
  %70 = or i1 true, %60
  %71 = and i1 %69, %70
  %72 = or i1 %67, %71
  %73 = or i1 %56, %57
  br i1 %72, label %74, label %149

; <label>:74:                                     ; preds = %47, %149
  %75 = load i32, i32* @x.117
  %76 = load i32, i32* @y.118
  %77 = sub i32 %75, -651686472
  %78 = sub i32 %77, 1
  %79 = add i32 %78, -651686472
  %80 = sub i32 %75, 1
  %81 = mul i32 %75, %79
  %82 = urem i32 %81, 2
  %83 = icmp eq i32 %82, 0
  %84 = icmp slt i32 %76, 10
  %85 = xor i1 %83, true
  %86 = xor i1 %84, true
  %87 = xor i1 true, true
  %88 = and i1 %85, true
  %89 = and i1 %83, %87
  %90 = and i1 %86, true
  %91 = and i1 %84, %87
  %92 = or i1 %88, %89
  %93 = or i1 %90, %91
  %94 = xor i1 %92, %93
  %95 = or i1 %85, %86
  %96 = xor i1 %95, true
  %97 = or i1 true, %87
  %98 = and i1 %96, %97
  %99 = or i1 %94, %98
  %100 = or i1 %83, %84
  br i1 %99, label %101, label %149

; <label>:101:                                    ; preds = %74
  ret void

; <label>:102:                                    ; preds = %46
  %103 = load i32, i32* @x.117
  %104 = load i32, i32* @y.118
  %105 = sub i32 0, 1
  %106 = add i32 %103, %105
  %107 = sub i32 %103, 1
  %108 = mul i32 %103, %106
  %109 = urem i32 %108, 2
  %110 = icmp eq i32 %109, 0
  %111 = icmp slt i32 %104, 10
  %112 = and i1 %110, %111
  %113 = xor i1 %110, %111
  %114 = or i1 %112, %113
  %115 = or i1 %110, %111
  br i1 %114, label %116, label %150

; <label>:116:                                    ; preds = %102, %150
  %117 = landingpad { i8*, i32 }
          catch i8* null
  %118 = extractvalue { i8*, i32 } %117, 0
  call void @__clang_call_terminate(i8* %118) #8
  %119 = load i32, i32* @x.117
  %120 = load i32, i32* @y.118
  %121 = sub i32 0, 1
  %122 = add i32 %119, %121
  %123 = sub i32 %119, 1
  %124 = mul i32 %119, %122
  %125 = urem i32 %124, 2
  %126 = icmp eq i32 %125, 0
  %127 = icmp slt i32 %120, 10
  %128 = xor i1 %126, true
  %129 = xor i1 %127, true
  %130 = xor i1 true, true
  %131 = and i1 %128, true
  %132 = and i1 %126, %130
  %133 = and i1 %129, true
  %134 = and i1 %127, %130
  %135 = or i1 %131, %132
  %136 = or i1 %133, %134
  %137 = xor i1 %135, %136
  %138 = or i1 %128, %129
  %139 = xor i1 %138, true
  %140 = or i1 true, %130
  %141 = and i1 %139, %140
  %142 = or i1 %137, %141
  %143 = or i1 %126, %127
  br i1 %142, label %144, label %150

; <label>:144:                                    ; preds = %116
  unreachable

; <label>:145:                                    ; preds = %16, %1
  %146 = alloca %"class.std::vector.0"*, align 8
  store %"class.std::vector.0"* %0, %"class.std::vector.0"** %146, align 8
  %147 = load %"class.std::vector.0"*, %"class.std::vector.0"** %146, align 8
  %148 = bitcast %"class.std::vector.0"* %147 to %"struct.std::_Vector_base.1"*
  br label %16

; <label>:149:                                    ; preds = %74, %47
  br label %74

; <label>:150:                                    ; preds = %116, %102
  %151 = landingpad { i8*, i32 }
          catch i8* null
  %152 = extractvalue { i8*, i32 } %151, 0
  call void @__clang_call_terminate(i8* %152) #8
  br label %116
}

; Function Attrs: noinline nounwind uwtable
define linkonce_odr void @_ZNSaISt6vectorI4EdgeSaIS0_EEEC2Ev(%"class.std::allocator"*) unnamed_addr #1 comdat align 2 {
  %2 = alloca %"class.std::allocator"*, align 8
  store %"class.std::allocator"* %0, %"class.std::allocator"** %2, align 8
  %3 = load %"class.std::allocator"*, %"class.std::allocator"** %2, align 8
  %4 = bitcast %"class.std::allocator"* %3 to %"class.__gnu_cxx::new_allocator"*
  call void @_ZN9__gnu_cxx13new_allocatorISt6vectorI4EdgeSaIS2_EEEC2Ev(%"class.__gnu_cxx::new_allocator"* %4) #4
  ret void
}

; Function Attrs: noinline uwtable
define linkonce_odr void @_ZNSt6vectorIS_I4EdgeSaIS0_EESaIS2_EEC2EmRKS2_RKS3_(%"class.std::vector"*, i64, %"class.std::vector.0"* dereferenceable(24), %"class.std::allocator"* dereferenceable(1)) unnamed_addr #0 comdat align 2 personality i8* bitcast (i32 (...)* @__gxx_personality_v0 to i8*) {
  %5 = alloca %"class.std::vector"*, align 8
  %6 = alloca i64, align 8
  %7 = alloca %"class.std::vector.0"*, align 8
  %8 = alloca %"class.std::allocator"*, align 8
  %9 = alloca i8*
  %10 = alloca i32
  store %"class.std::vector"* %0, %"class.std::vector"** %5, align 8
  store i64 %1, i64* %6, align 8
  store %"class.std::vector.0"* %2, %"class.std::vector.0"** %7, align 8
  store %"class.std::allocator"* %3, %"class.std::allocator"** %8, align 8
  %11 = load %"class.std::vector"*, %"class.std::vector"** %5, align 8
  %12 = bitcast %"class.std::vector"* %11 to %"struct.std::_Vector_base"*
  %13 = load i64, i64* %6, align 8
  %14 = load %"class.std::allocator"*, %"class.std::allocator"** %8, align 8
  call void @_ZNSt12_Vector_baseISt6vectorI4EdgeSaIS1_EESaIS3_EEC2EmRKS4_(%"struct.std::_Vector_base"* %12, i64 %13, %"class.std::allocator"* dereferenceable(1) %14)
  %15 = load i64, i64* %6, align 8
  %16 = load %"class.std::vector.0"*, %"class.std::vector.0"** %7, align 8
  invoke void @_ZNSt6vectorIS_I4EdgeSaIS0_EESaIS2_EE18_M_fill_initializeEmRKS2_(%"class.std::vector"* %11, i64 %15, %"class.std::vector.0"* dereferenceable(24) %16)
          to label %17 unwind label %18

; <label>:17:                                     ; preds = %4
  ret void

; <label>:18:                                     ; preds = %4
  %19 = load i32, i32* @x.121
  %20 = load i32, i32* @y.122
  %21 = add i32 %19, 988080314
  %22 = sub i32 %21, 1
  %23 = sub i32 %22, 988080314
  %24 = sub i32 %19, 1
  %25 = mul i32 %19, %23
  %26 = urem i32 %25, 2
  %27 = icmp eq i32 %26, 0
  %28 = icmp slt i32 %20, 10
  %29 = and i1 %27, %28
  %30 = xor i1 %27, %28
  %31 = or i1 %29, %30
  %32 = or i1 %27, %28
  br i1 %31, label %33, label %57

; <label>:33:                                     ; preds = %18, %57
  %34 = landingpad { i8*, i32 }
          cleanup
  %35 = extractvalue { i8*, i32 } %34, 0
  store i8* %35, i8** %9, align 8
  %36 = extractvalue { i8*, i32 } %34, 1
  store i32 %36, i32* %10, align 4
  %37 = bitcast %"class.std::vector"* %11 to %"struct.std::_Vector_base"*
  call void @_ZNSt12_Vector_baseISt6vectorI4EdgeSaIS1_EESaIS3_EED2Ev(%"struct.std::_Vector_base"* %37) #4
  %38 = load i32, i32* @x.121
  %39 = load i32, i32* @y.122
  %40 = sub i32 0, 1
  %41 = add i32 %38, %40
  %42 = sub i32 %38, 1
  %43 = mul i32 %38, %41
  %44 = urem i32 %43, 2
  %45 = icmp eq i32 %44, 0
  %46 = icmp slt i32 %39, 10
  %47 = and i1 %45, %46
  %48 = xor i1 %45, %46
  %49 = or i1 %47, %48
  %50 = or i1 %45, %46
  br i1 %49, label %51, label %57

; <label>:51:                                     ; preds = %33
  br label %52

; <label>:52:                                     ; preds = %51
  %53 = load i8*, i8** %9, align 8
  %54 = load i32, i32* %10, align 4
  %55 = insertvalue { i8*, i32 } undef, i8* %53, 0
  %56 = insertvalue { i8*, i32 } %55, i32 %54, 1
  resume { i8*, i32 } %56

; <label>:57:                                     ; preds = %33, %18
  %58 = landingpad { i8*, i32 }
          cleanup
  %59 = extractvalue { i8*, i32 } %58, 0
  store i8* %59, i8** %9, align 8
  %60 = extractvalue { i8*, i32 } %58, 1
  store i32 %60, i32* %10, align 4
  %61 = bitcast %"class.std::vector"* %11 to %"struct.std::_Vector_base"*
  call void @_ZNSt12_Vector_baseISt6vectorI4EdgeSaIS1_EESaIS3_EED2Ev(%"struct.std::_Vector_base"* %61) #4
  br label %33
}

; Function Attrs: noinline nounwind uwtable
define linkonce_odr void @_ZNSaISt6vectorI4EdgeSaIS0_EEED2Ev(%"class.std::allocator"*) unnamed_addr #1 comdat align 2 {
  %2 = alloca %"class.std::allocator"*, align 8
  store %"class.std::allocator"* %0, %"class.std::allocator"** %2, align 8
  %3 = load %"class.std::allocator"*, %"class.std::allocator"** %2, align 8
  %4 = bitcast %"class.std::allocator"* %3 to %"class.__gnu_cxx::new_allocator"*
  call void @_ZN9__gnu_cxx13new_allocatorISt6vectorI4EdgeSaIS2_EEED2Ev(%"class.__gnu_cxx::new_allocator"* %4) #4
  ret void
}

; Function Attrs: noinline nounwind uwtable
define linkonce_odr void @_ZNSt6vectorI4EdgeSaIS0_EED2Ev(%"class.std::vector.0"*) unnamed_addr #1 comdat align 2 personality i8* bitcast (i32 (...)* @__gxx_personality_v0 to i8*) {
  %2 = load i32, i32* @x.125
  %3 = load i32, i32* @y.126
  %4 = sub i32 %2, 1802739782
  %5 = sub i32 %4, 1
  %6 = add i32 %5, 1802739782
  %7 = sub i32 %2, 1
  %8 = mul i32 %2, %6
  %9 = urem i32 %8, 2
  %10 = icmp eq i32 %9, 0
  %11 = icmp slt i32 %3, 10
  %12 = and i1 %10, %11
  %13 = xor i1 %10, %11
  %14 = or i1 %12, %13
  %15 = or i1 %10, %11
  br i1 %14, label %16, label %55

; <label>:16:                                     ; preds = %1, %55
  %17 = alloca %"class.std::vector.0"*, align 8
  %18 = alloca i8*
  %19 = alloca i32
  store %"class.std::vector.0"* %0, %"class.std::vector.0"** %17, align 8
  %20 = load %"class.std::vector.0"*, %"class.std::vector.0"** %17, align 8
  %21 = bitcast %"class.std::vector.0"* %20 to %"struct.std::_Vector_base.1"*
  %22 = getelementptr inbounds %"struct.std::_Vector_base.1", %"struct.std::_Vector_base.1"* %21, i32 0, i32 0
  %23 = getelementptr inbounds %"struct.std::_Vector_base<Edge, std::allocator<Edge> >::_Vector_impl", %"struct.std::_Vector_base<Edge, std::allocator<Edge> >::_Vector_impl"* %22, i32 0, i32 0
  %24 = load %class.Edge*, %class.Edge** %23, align 8
  %25 = bitcast %"class.std::vector.0"* %20 to %"struct.std::_Vector_base.1"*
  %26 = getelementptr inbounds %"struct.std::_Vector_base.1", %"struct.std::_Vector_base.1"* %25, i32 0, i32 0
  %27 = getelementptr inbounds %"struct.std::_Vector_base<Edge, std::allocator<Edge> >::_Vector_impl", %"struct.std::_Vector_base<Edge, std::allocator<Edge> >::_Vector_impl"* %26, i32 0, i32 1
  %28 = load %class.Edge*, %class.Edge** %27, align 8
  %29 = bitcast %"class.std::vector.0"* %20 to %"struct.std::_Vector_base.1"*
  %30 = call dereferenceable(1) %"class.std::allocator.2"* @_ZNSt12_Vector_baseI4EdgeSaIS0_EE19_M_get_Tp_allocatorEv(%"struct.std::_Vector_base.1"* %29) #4
  %31 = load i32, i32* @x.125
  %32 = load i32, i32* @y.126
  %33 = add i32 %31, 378080026
  %34 = sub i32 %33, 1
  %35 = sub i32 %34, 378080026
  %36 = sub i32 %31, 1
  %37 = mul i32 %31, %35
  %38 = urem i32 %37, 2
  %39 = icmp eq i32 %38, 0
  %40 = icmp slt i32 %32, 10
  %41 = and i1 %39, %40
  %42 = xor i1 %39, %40
  %43 = or i1 %41, %42
  %44 = or i1 %39, %40
  br i1 %43, label %45, label %55

; <label>:45:                                     ; preds = %16
  invoke void @_ZSt8_DestroyIP4EdgeS0_EvT_S2_RSaIT0_E(%class.Edge* %24, %class.Edge* %28, %"class.std::allocator.2"* dereferenceable(1) %30)
          to label %46 unwind label %48

; <label>:46:                                     ; preds = %45
  %47 = bitcast %"class.std::vector.0"* %20 to %"struct.std::_Vector_base.1"*
  call void @_ZNSt12_Vector_baseI4EdgeSaIS0_EED2Ev(%"struct.std::_Vector_base.1"* %47) #4
  ret void

; <label>:48:                                     ; preds = %45
  %49 = landingpad { i8*, i32 }
          catch i8* null
  %50 = extractvalue { i8*, i32 } %49, 0
  store i8* %50, i8** %18, align 8
  %51 = extractvalue { i8*, i32 } %49, 1
  store i32 %51, i32* %19, align 4
  %52 = bitcast %"class.std::vector.0"* %20 to %"struct.std::_Vector_base.1"*
  call void @_ZNSt12_Vector_baseI4EdgeSaIS0_EED2Ev(%"struct.std::_Vector_base.1"* %52) #4
  br label %53

; <label>:53:                                     ; preds = %48
  %54 = load i8*, i8** %18, align 8
  call void @__clang_call_terminate(i8* %54) #8
  unreachable

; <label>:55:                                     ; preds = %16, %1
  %56 = alloca %"class.std::vector.0"*, align 8
  %57 = alloca i8*
  %58 = alloca i32
  store %"class.std::vector.0"* %0, %"class.std::vector.0"** %56, align 8
  %59 = load %"class.std::vector.0"*, %"class.std::vector.0"** %56, align 8
  %60 = bitcast %"class.std::vector.0"* %59 to %"struct.std::_Vector_base.1"*
  %61 = getelementptr inbounds %"struct.std::_Vector_base.1", %"struct.std::_Vector_base.1"* %60, i32 0, i32 0
  %62 = getelementptr inbounds %"struct.std::_Vector_base<Edge, std::allocator<Edge> >::_Vector_impl", %"struct.std::_Vector_base<Edge, std::allocator<Edge> >::_Vector_impl"* %61, i32 0, i32 0
  %63 = load %class.Edge*, %class.Edge** %62, align 8
  %64 = bitcast %"class.std::vector.0"* %59 to %"struct.std::_Vector_base.1"*
  %65 = getelementptr inbounds %"struct.std::_Vector_base.1", %"struct.std::_Vector_base.1"* %64, i32 0, i32 0
  %66 = getelementptr inbounds %"struct.std::_Vector_base<Edge, std::allocator<Edge> >::_Vector_impl", %"struct.std::_Vector_base<Edge, std::allocator<Edge> >::_Vector_impl"* %65, i32 0, i32 1
  %67 = load %class.Edge*, %class.Edge** %66, align 8
  %68 = bitcast %"class.std::vector.0"* %59 to %"struct.std::_Vector_base.1"*
  %69 = call dereferenceable(1) %"class.std::allocator.2"* @_ZNSt12_Vector_baseI4EdgeSaIS0_EE19_M_get_Tp_allocatorEv(%"struct.std::_Vector_base.1"* %68) #4
  br label %16
}

; Function Attrs: noinline nounwind uwtable
define linkonce_odr dereferenceable(40) %"class.std::vector.31"* @_ZNSt6vectorIbSaIbEEaSEOS1_(%"class.std::vector.31"*, %"class.std::vector.31"* dereferenceable(40)) #1 comdat align 2 personality i8* bitcast (i32 (...)* @__gxx_personality_v0 to i8*) {
  %3 = alloca %"class.std::vector.31"*, align 8
  %4 = alloca %"class.std::vector.31"*, align 8
  %5 = alloca %"struct.std::_Bit_iterator", align 8
  %6 = alloca %"struct.std::_Bit_iterator", align 8
  store %"class.std::vector.31"* %0, %"class.std::vector.31"** %3, align 8
  store %"class.std::vector.31"* %1, %"class.std::vector.31"** %4, align 8
  %7 = load %"class.std::vector.31"*, %"class.std::vector.31"** %3, align 8
  %8 = bitcast %"class.std::vector.31"* %7 to %"struct.std::_Bvector_base"*
  invoke void @_ZNSt13_Bvector_baseISaIbEE13_M_deallocateEv(%"struct.std::_Bvector_base"* %8)
          to label %9 unwind label %113

; <label>:9:                                      ; preds = %2
  %10 = load %"class.std::vector.31"*, %"class.std::vector.31"** %4, align 8
  %11 = bitcast %"class.std::vector.31"* %10 to %"struct.std::_Bvector_base"*
  %12 = getelementptr inbounds %"struct.std::_Bvector_base", %"struct.std::_Bvector_base"* %11, i32 0, i32 0
  %13 = getelementptr inbounds %"struct.std::_Bvector_base<std::allocator<bool> >::_Bvector_impl", %"struct.std::_Bvector_base<std::allocator<bool> >::_Bvector_impl"* %12, i32 0, i32 0
  %14 = bitcast %"class.std::vector.31"* %7 to %"struct.std::_Bvector_base"*
  %15 = getelementptr inbounds %"struct.std::_Bvector_base", %"struct.std::_Bvector_base"* %14, i32 0, i32 0
  %16 = getelementptr inbounds %"struct.std::_Bvector_base<std::allocator<bool> >::_Bvector_impl", %"struct.std::_Bvector_base<std::allocator<bool> >::_Bvector_impl"* %15, i32 0, i32 0
  %17 = bitcast %"struct.std::_Bit_iterator"* %16 to i8*
  %18 = bitcast %"struct.std::_Bit_iterator"* %13 to i8*
  call void @llvm.memcpy.p0i8.p0i8.i64(i8* %17, i8* %18, i64 12, i32 8, i1 false)
  %19 = load %"class.std::vector.31"*, %"class.std::vector.31"** %4, align 8
  %20 = bitcast %"class.std::vector.31"* %19 to %"struct.std::_Bvector_base"*
  %21 = getelementptr inbounds %"struct.std::_Bvector_base", %"struct.std::_Bvector_base"* %20, i32 0, i32 0
  %22 = getelementptr inbounds %"struct.std::_Bvector_base<std::allocator<bool> >::_Bvector_impl", %"struct.std::_Bvector_base<std::allocator<bool> >::_Bvector_impl"* %21, i32 0, i32 1
  %23 = bitcast %"class.std::vector.31"* %7 to %"struct.std::_Bvector_base"*
  %24 = getelementptr inbounds %"struct.std::_Bvector_base", %"struct.std::_Bvector_base"* %23, i32 0, i32 0
  %25 = getelementptr inbounds %"struct.std::_Bvector_base<std::allocator<bool> >::_Bvector_impl", %"struct.std::_Bvector_base<std::allocator<bool> >::_Bvector_impl"* %24, i32 0, i32 1
  %26 = bitcast %"struct.std::_Bit_iterator"* %25 to i8*
  %27 = bitcast %"struct.std::_Bit_iterator"* %22 to i8*
  call void @llvm.memcpy.p0i8.p0i8.i64(i8* %26, i8* %27, i64 12, i32 8, i1 false)
  %28 = load %"class.std::vector.31"*, %"class.std::vector.31"** %4, align 8
  %29 = bitcast %"class.std::vector.31"* %28 to %"struct.std::_Bvector_base"*
  %30 = getelementptr inbounds %"struct.std::_Bvector_base", %"struct.std::_Bvector_base"* %29, i32 0, i32 0
  %31 = getelementptr inbounds %"struct.std::_Bvector_base<std::allocator<bool> >::_Bvector_impl", %"struct.std::_Bvector_base<std::allocator<bool> >::_Bvector_impl"* %30, i32 0, i32 2
  %32 = load i64*, i64** %31, align 8
  %33 = bitcast %"class.std::vector.31"* %7 to %"struct.std::_Bvector_base"*
  %34 = getelementptr inbounds %"struct.std::_Bvector_base", %"struct.std::_Bvector_base"* %33, i32 0, i32 0
  %35 = getelementptr inbounds %"struct.std::_Bvector_base<std::allocator<bool> >::_Bvector_impl", %"struct.std::_Bvector_base<std::allocator<bool> >::_Bvector_impl"* %34, i32 0, i32 2
  store i64* %32, i64** %35, align 8
  invoke void @_ZNSt13_Bit_iteratorC2Ev(%"struct.std::_Bit_iterator"* %5)
          to label %36 unwind label %113

; <label>:36:                                     ; preds = %9
  %37 = load %"class.std::vector.31"*, %"class.std::vector.31"** %4, align 8
  %38 = bitcast %"class.std::vector.31"* %37 to %"struct.std::_Bvector_base"*
  %39 = getelementptr inbounds %"struct.std::_Bvector_base", %"struct.std::_Bvector_base"* %38, i32 0, i32 0
  %40 = getelementptr inbounds %"struct.std::_Bvector_base<std::allocator<bool> >::_Bvector_impl", %"struct.std::_Bvector_base<std::allocator<bool> >::_Bvector_impl"* %39, i32 0, i32 0
  %41 = bitcast %"struct.std::_Bit_iterator"* %40 to i8*
  %42 = bitcast %"struct.std::_Bit_iterator"* %5 to i8*
  call void @llvm.memcpy.p0i8.p0i8.i64(i8* %41, i8* %42, i64 12, i32 8, i1 false)
  invoke void @_ZNSt13_Bit_iteratorC2Ev(%"struct.std::_Bit_iterator"* %6)
          to label %43 unwind label %113

; <label>:43:                                     ; preds = %36
  %44 = load i32, i32* @x.127
  %45 = load i32, i32* @y.128
  %46 = sub i32 0, 1
  %47 = add i32 %44, %46
  %48 = sub i32 %44, 1
  %49 = mul i32 %44, %47
  %50 = urem i32 %49, 2
  %51 = icmp eq i32 %50, 0
  %52 = icmp slt i32 %45, 10
  %53 = xor i1 %51, true
  %54 = xor i1 %52, true
  %55 = xor i1 false, true
  %56 = and i1 %53, false
  %57 = and i1 %51, %55
  %58 = and i1 %54, false
  %59 = and i1 %52, %55
  %60 = or i1 %56, %57
  %61 = or i1 %58, %59
  %62 = xor i1 %60, %61
  %63 = or i1 %53, %54
  %64 = xor i1 %63, true
  %65 = or i1 false, %55
  %66 = and i1 %64, %65
  %67 = or i1 %62, %66
  %68 = or i1 %51, %52
  br i1 %67, label %69, label %116

; <label>:69:                                     ; preds = %43, %116
  %70 = load %"class.std::vector.31"*, %"class.std::vector.31"** %4, align 8
  %71 = bitcast %"class.std::vector.31"* %70 to %"struct.std::_Bvector_base"*
  %72 = getelementptr inbounds %"struct.std::_Bvector_base", %"struct.std::_Bvector_base"* %71, i32 0, i32 0
  %73 = getelementptr inbounds %"struct.std::_Bvector_base<std::allocator<bool> >::_Bvector_impl", %"struct.std::_Bvector_base<std::allocator<bool> >::_Bvector_impl"* %72, i32 0, i32 1
  %74 = bitcast %"struct.std::_Bit_iterator"* %73 to i8*
  %75 = bitcast %"struct.std::_Bit_iterator"* %6 to i8*
  call void @llvm.memcpy.p0i8.p0i8.i64(i8* %74, i8* %75, i64 12, i32 8, i1 false)
  %76 = load %"class.std::vector.31"*, %"class.std::vector.31"** %4, align 8
  %77 = bitcast %"class.std::vector.31"* %76 to %"struct.std::_Bvector_base"*
  %78 = getelementptr inbounds %"struct.std::_Bvector_base", %"struct.std::_Bvector_base"* %77, i32 0, i32 0
  %79 = getelementptr inbounds %"struct.std::_Bvector_base<std::allocator<bool> >::_Bvector_impl", %"struct.std::_Bvector_base<std::allocator<bool> >::_Bvector_impl"* %78, i32 0, i32 2
  store i64* null, i64** %79, align 8
  %80 = bitcast %"class.std::vector.31"* %7 to %"struct.std::_Bvector_base"*
  %81 = call dereferenceable(1) %"class.std::allocator.32"* @_ZNSt13_Bvector_baseISaIbEE20_M_get_Bit_allocatorEv(%"struct.std::_Bvector_base"* %80) #4
  %82 = load %"class.std::vector.31"*, %"class.std::vector.31"** %4, align 8
  %83 = bitcast %"class.std::vector.31"* %82 to %"struct.std::_Bvector_base"*
  %84 = call dereferenceable(1) %"class.std::allocator.32"* @_ZNSt13_Bvector_baseISaIbEE20_M_get_Bit_allocatorEv(%"struct.std::_Bvector_base"* %83) #4
  %85 = load i32, i32* @x.127
  %86 = load i32, i32* @y.128
  %87 = add i32 %85, 1705038196
  %88 = sub i32 %87, 1
  %89 = sub i32 %88, 1705038196
  %90 = sub i32 %85, 1
  %91 = mul i32 %85, %89
  %92 = urem i32 %91, 2
  %93 = icmp eq i32 %92, 0
  %94 = icmp slt i32 %86, 10
  %95 = xor i1 %93, true
  %96 = xor i1 %94, true
  %97 = xor i1 true, true
  %98 = and i1 %95, true
  %99 = and i1 %93, %97
  %100 = and i1 %96, true
  %101 = and i1 %94, %97
  %102 = or i1 %98, %99
  %103 = or i1 %100, %101
  %104 = xor i1 %102, %103
  %105 = or i1 %95, %96
  %106 = xor i1 %105, true
  %107 = or i1 true, %97
  %108 = and i1 %106, %107
  %109 = or i1 %104, %108
  %110 = or i1 %93, %94
  br i1 %109, label %111, label %116

; <label>:111:                                    ; preds = %69
  invoke void @_ZSt15__alloc_on_moveISaImEEvRT_S2_(%"class.std::allocator.32"* dereferenceable(1) %81, %"class.std::allocator.32"* dereferenceable(1) %84)
          to label %112 unwind label %113

; <label>:112:                                    ; preds = %111
  ret %"class.std::vector.31"* %7

; <label>:113:                                    ; preds = %111, %36, %9, %2
  %114 = landingpad { i8*, i32 }
          catch i8* null
  %115 = extractvalue { i8*, i32 } %114, 0
  call void @__clang_call_terminate(i8* %115) #8
  unreachable

; <label>:116:                                    ; preds = %69, %43
  %117 = load %"class.std::vector.31"*, %"class.std::vector.31"** %4, align 8
  %118 = bitcast %"class.std::vector.31"* %117 to %"struct.std::_Bvector_base"*
  %119 = getelementptr inbounds %"struct.std::_Bvector_base", %"struct.std::_Bvector_base"* %118, i32 0, i32 0
  %120 = getelementptr inbounds %"struct.std::_Bvector_base<std::allocator<bool> >::_Bvector_impl", %"struct.std::_Bvector_base<std::allocator<bool> >::_Bvector_impl"* %119, i32 0, i32 1
  %121 = bitcast %"struct.std::_Bit_iterator"* %120 to i8*
  %122 = bitcast %"struct.std::_Bit_iterator"* %6 to i8*
  call void @llvm.memcpy.p0i8.p0i8.i64(i8* %121, i8* %122, i64 12, i32 8, i1 false)
  %123 = load %"class.std::vector.31"*, %"class.std::vector.31"** %4, align 8
  %124 = bitcast %"class.std::vector.31"* %123 to %"struct.std::_Bvector_base"*
  %125 = getelementptr inbounds %"struct.std::_Bvector_base", %"struct.std::_Bvector_base"* %124, i32 0, i32 0
  %126 = getelementptr inbounds %"struct.std::_Bvector_base<std::allocator<bool> >::_Bvector_impl", %"struct.std::_Bvector_base<std::allocator<bool> >::_Bvector_impl"* %125, i32 0, i32 2
  store i64* null, i64** %126, align 8
  %127 = bitcast %"class.std::vector.31"* %7 to %"struct.std::_Bvector_base"*
  %128 = call dereferenceable(1) %"class.std::allocator.32"* @_ZNSt13_Bvector_baseISaIbEE20_M_get_Bit_allocatorEv(%"struct.std::_Bvector_base"* %127) #4
  %129 = load %"class.std::vector.31"*, %"class.std::vector.31"** %4, align 8
  %130 = bitcast %"class.std::vector.31"* %129 to %"struct.std::_Bvector_base"*
  %131 = call dereferenceable(1) %"class.std::allocator.32"* @_ZNSt13_Bvector_baseISaIbEE20_M_get_Bit_allocatorEv(%"struct.std::_Bvector_base"* %130) #4
  br label %69
}

; Function Attrs: noinline nounwind uwtable
define linkonce_odr void @_ZNSt6vectorIbSaIbEED2Ev(%"class.std::vector.31"*) unnamed_addr #1 comdat align 2 {
  %2 = alloca %"class.std::vector.31"*, align 8
  store %"class.std::vector.31"* %0, %"class.std::vector.31"** %2, align 8
  %3 = load %"class.std::vector.31"*, %"class.std::vector.31"** %2, align 8
  %4 = bitcast %"class.std::vector.31"* %3 to %"struct.std::_Bvector_base"*
  call void @_ZNSt13_Bvector_baseISaIbEED2Ev(%"struct.std::_Bvector_base"* %4) #4
  ret void
}

; Function Attrs: noinline nounwind uwtable
define linkonce_odr zeroext i1 @_ZNKSt5stackIiSt5dequeIiSaIiEEE5emptyEv(%"class.std::stack"*) #1 comdat align 2 {
  %2 = alloca i1
  %3 = alloca i1
  %4 = alloca i1
  %5 = load i32, i32* @x.131
  %6 = load i32, i32* @y.132
  %7 = add i32 %5, -1236537855
  %8 = sub i32 %7, 1
  %9 = sub i32 %8, -1236537855
  %10 = sub i32 %5, 1
  %11 = mul i32 %5, %9
  %12 = urem i32 %11, 2
  %13 = icmp eq i32 %12, 0
  store i1 %13, i1* %4
  %14 = icmp slt i32 %6, 10
  store i1 %14, i1* %3
  %15 = alloca i32
  store i32 -1167410236, i32* %15
  br label %16

; <label>:16:                                     ; preds = %1, %65
  %17 = load i32, i32* %15
  switch i32 %17, label %18 [
    i32 -1167410236, label %19
    i32 809183595, label %39
    i32 640162792, label %58
    i32 -1975345798, label %60
  ]

; <label>:18:                                     ; preds = %16
  br label %65

; <label>:19:                                     ; preds = %16
  %20 = load volatile i1, i1* %4
  %21 = load volatile i1, i1* %3
  %22 = xor i1 %20, true
  %23 = xor i1 %21, true
  %24 = xor i1 true, true
  %25 = and i1 %22, true
  %26 = and i1 %20, %24
  %27 = and i1 %23, true
  %28 = and i1 %21, %24
  %29 = or i1 %25, %26
  %30 = or i1 %27, %28
  %31 = xor i1 %29, %30
  %32 = or i1 %22, %23
  %33 = xor i1 %32, true
  %34 = or i1 true, %24
  %35 = and i1 %33, %34
  %36 = or i1 %31, %35
  %37 = or i1 %20, %21
  %38 = select i1 %36, i32 809183595, i32 -1975345798
  store i32 %38, i32* %15
  br label %65

; <label>:39:                                     ; preds = %16
  %40 = alloca %"class.std::stack"*, align 8
  store %"class.std::stack"* %0, %"class.std::stack"** %40, align 8
  %41 = load %"class.std::stack"*, %"class.std::stack"** %40, align 8
  %42 = getelementptr inbounds %"class.std::stack", %"class.std::stack"* %41, i32 0, i32 0
  %43 = call zeroext i1 @_ZNKSt5dequeIiSaIiEE5emptyEv(%"class.std::deque"* %42) #4
  store i1 %43, i1* %2
  %44 = load i32, i32* @x.131
  %45 = load i32, i32* @y.132
  %46 = sub i32 0, 1
  %47 = add i32 %44, %46
  %48 = sub i32 %44, 1
  %49 = mul i32 %44, %47
  %50 = urem i32 %49, 2
  %51 = icmp eq i32 %50, 0
  %52 = icmp slt i32 %45, 10
  %53 = and i1 %51, %52
  %54 = xor i1 %51, %52
  %55 = or i1 %53, %54
  %56 = or i1 %51, %52
  %57 = select i1 %55, i32 640162792, i32 -1975345798
  store i32 %57, i32* %15
  br label %65

; <label>:58:                                     ; preds = %16
  %59 = load volatile i1, i1* %2
  ret i1 %59

; <label>:60:                                     ; preds = %16
  %61 = alloca %"class.std::stack"*, align 8
  store %"class.std::stack"* %0, %"class.std::stack"** %61, align 8
  %62 = load %"class.std::stack"*, %"class.std::stack"** %61, align 8
  %63 = getelementptr inbounds %"class.std::stack", %"class.std::stack"* %62, i32 0, i32 0
  %64 = call zeroext i1 @_ZNKSt5dequeIiSaIiEE5emptyEv(%"class.std::deque"* %63) #4
  store i32 809183595, i32* %15
  br label %65

; <label>:65:                                     ; preds = %60, %39, %19, %18
  br label %16
}

; Function Attrs: noinline nounwind uwtable
define linkonce_odr dereferenceable(4) i32* @_ZNSt5stackIiSt5dequeIiSaIiEEE3topEv(%"class.std::stack"*) #1 comdat align 2 {
  %2 = alloca i32*
  %3 = alloca i1
  %4 = alloca i1
  %5 = load i32, i32* @x.133
  %6 = load i32, i32* @y.134
  %7 = sub i32 %5, -244039589
  %8 = sub i32 %7, 1
  %9 = add i32 %8, -244039589
  %10 = sub i32 %5, 1
  %11 = mul i32 %5, %9
  %12 = urem i32 %11, 2
  %13 = icmp eq i32 %12, 0
  store i1 %13, i1* %4
  %14 = icmp slt i32 %6, 10
  store i1 %14, i1* %3
  %15 = alloca i32
  store i32 2057906490, i32* %15
  br label %16

; <label>:16:                                     ; preds = %1, %78
  %17 = load i32, i32* %15
  switch i32 %17, label %18 [
    i32 2057906490, label %19
    i32 1336225447, label %39
    i32 -436336869, label %71
    i32 1459518458, label %73
  ]

; <label>:18:                                     ; preds = %16
  br label %78

; <label>:19:                                     ; preds = %16
  %20 = load volatile i1, i1* %4
  %21 = load volatile i1, i1* %3
  %22 = xor i1 %20, true
  %23 = xor i1 %21, true
  %24 = xor i1 false, true
  %25 = and i1 %22, false
  %26 = and i1 %20, %24
  %27 = and i1 %23, false
  %28 = and i1 %21, %24
  %29 = or i1 %25, %26
  %30 = or i1 %27, %28
  %31 = xor i1 %29, %30
  %32 = or i1 %22, %23
  %33 = xor i1 %32, true
  %34 = or i1 false, %24
  %35 = and i1 %33, %34
  %36 = or i1 %31, %35
  %37 = or i1 %20, %21
  %38 = select i1 %36, i32 1336225447, i32 1459518458
  store i32 %38, i32* %15
  br label %78

; <label>:39:                                     ; preds = %16
  %40 = alloca %"class.std::stack"*, align 8
  store %"class.std::stack"* %0, %"class.std::stack"** %40, align 8
  %41 = load %"class.std::stack"*, %"class.std::stack"** %40, align 8
  %42 = getelementptr inbounds %"class.std::stack", %"class.std::stack"* %41, i32 0, i32 0
  %43 = call dereferenceable(4) i32* @_ZNSt5dequeIiSaIiEE4backEv(%"class.std::deque"* %42) #4
  store i32* %43, i32** %2
  %44 = load i32, i32* @x.133
  %45 = load i32, i32* @y.134
  %46 = sub i32 %44, 1126822793
  %47 = sub i32 %46, 1
  %48 = add i32 %47, 1126822793
  %49 = sub i32 %44, 1
  %50 = mul i32 %44, %48
  %51 = urem i32 %50, 2
  %52 = icmp eq i32 %51, 0
  %53 = icmp slt i32 %45, 10
  %54 = xor i1 %52, true
  %55 = xor i1 %53, true
  %56 = xor i1 true, true
  %57 = and i1 %54, true
  %58 = and i1 %52, %56
  %59 = and i1 %55, true
  %60 = and i1 %53, %56
  %61 = or i1 %57, %58
  %62 = or i1 %59, %60
  %63 = xor i1 %61, %62
  %64 = or i1 %54, %55
  %65 = xor i1 %64, true
  %66 = or i1 true, %56
  %67 = and i1 %65, %66
  %68 = or i1 %63, %67
  %69 = or i1 %52, %53
  %70 = select i1 %68, i32 -436336869, i32 1459518458
  store i32 %70, i32* %15
  br label %78

; <label>:71:                                     ; preds = %16
  %72 = load volatile i32*, i32** %2
  ret i32* %72

; <label>:73:                                     ; preds = %16
  %74 = alloca %"class.std::stack"*, align 8
  store %"class.std::stack"* %0, %"class.std::stack"** %74, align 8
  %75 = load %"class.std::stack"*, %"class.std::stack"** %74, align 8
  %76 = getelementptr inbounds %"class.std::stack", %"class.std::stack"* %75, i32 0, i32 0
  %77 = call dereferenceable(4) i32* @_ZNSt5dequeIiSaIiEE4backEv(%"class.std::deque"* %76) #4
  store i32 1336225447, i32* %15
  br label %78

; <label>:78:                                     ; preds = %73, %39, %19, %18
  br label %16
}

; Function Attrs: noinline nounwind uwtable
define linkonce_odr void @_ZNSt5stackIiSt5dequeIiSaIiEEE3popEv(%"class.std::stack"*) #1 comdat align 2 {
  %2 = alloca i1
  %3 = alloca i1
  %4 = load i32, i32* @x.135
  %5 = load i32, i32* @y.136
  %6 = add i32 %4, -278046501
  %7 = sub i32 %6, 1
  %8 = sub i32 %7, -278046501
  %9 = sub i32 %4, 1
  %10 = mul i32 %4, %8
  %11 = urem i32 %10, 2
  %12 = icmp eq i32 %11, 0
  store i1 %12, i1* %3
  %13 = icmp slt i32 %5, 10
  store i1 %13, i1* %2
  %14 = alloca i32
  store i32 368667451, i32* %14
  br label %15

; <label>:15:                                     ; preds = %1, %73
  %16 = load i32, i32* %14
  switch i32 %16, label %17 [
    i32 368667451, label %18
    i32 1608309090, label %38
    i32 805441671, label %68
    i32 432865945, label %69
  ]

; <label>:17:                                     ; preds = %15
  br label %73

; <label>:18:                                     ; preds = %15
  %19 = load volatile i1, i1* %3
  %20 = load volatile i1, i1* %2
  %21 = xor i1 %19, true
  %22 = xor i1 %20, true
  %23 = xor i1 false, true
  %24 = and i1 %21, false
  %25 = and i1 %19, %23
  %26 = and i1 %22, false
  %27 = and i1 %20, %23
  %28 = or i1 %24, %25
  %29 = or i1 %26, %27
  %30 = xor i1 %28, %29
  %31 = or i1 %21, %22
  %32 = xor i1 %31, true
  %33 = or i1 false, %23
  %34 = and i1 %32, %33
  %35 = or i1 %30, %34
  %36 = or i1 %19, %20
  %37 = select i1 %35, i32 1608309090, i32 432865945
  store i32 %37, i32* %14
  br label %73

; <label>:38:                                     ; preds = %15
  %39 = alloca %"class.std::stack"*, align 8
  store %"class.std::stack"* %0, %"class.std::stack"** %39, align 8
  %40 = load %"class.std::stack"*, %"class.std::stack"** %39, align 8
  %41 = getelementptr inbounds %"class.std::stack", %"class.std::stack"* %40, i32 0, i32 0
  call void @_ZNSt5dequeIiSaIiEE8pop_backEv(%"class.std::deque"* %41) #4
  %42 = load i32, i32* @x.135
  %43 = load i32, i32* @y.136
  %44 = sub i32 0, 1
  %45 = add i32 %42, %44
  %46 = sub i32 %42, 1
  %47 = mul i32 %42, %45
  %48 = urem i32 %47, 2
  %49 = icmp eq i32 %48, 0
  %50 = icmp slt i32 %43, 10
  %51 = xor i1 %49, true
  %52 = xor i1 %50, true
  %53 = xor i1 true, true
  %54 = and i1 %51, true
  %55 = and i1 %49, %53
  %56 = and i1 %52, true
  %57 = and i1 %50, %53
  %58 = or i1 %54, %55
  %59 = or i1 %56, %57
  %60 = xor i1 %58, %59
  %61 = or i1 %51, %52
  %62 = xor i1 %61, true
  %63 = or i1 true, %53
  %64 = and i1 %62, %63
  %65 = or i1 %60, %64
  %66 = or i1 %49, %50
  %67 = select i1 %65, i32 805441671, i32 432865945
  store i32 %67, i32* %14
  br label %73

; <label>:68:                                     ; preds = %15
  ret void

; <label>:69:                                     ; preds = %15
  %70 = alloca %"class.std::stack"*, align 8
  store %"class.std::stack"* %0, %"class.std::stack"** %70, align 8
  %71 = load %"class.std::stack"*, %"class.std::stack"** %70, align 8
  %72 = getelementptr inbounds %"class.std::stack", %"class.std::stack"* %71, i32 0, i32 0
  call void @_ZNSt5dequeIiSaIiEE8pop_backEv(%"class.std::deque"* %72) #4
  store i32 1608309090, i32* %14
  br label %73

; <label>:73:                                     ; preds = %69, %38, %18, %17
  br label %15
}

; Function Attrs: noinline uwtable
define linkonce_odr void @_ZNSt6vectorIS_IiSaIiEESaIS1_EE9push_backEOS1_(%"class.std::vector.26"*, %"class.std::vector.5"* dereferenceable(24)) #0 comdat align 2 {
  %3 = alloca %"class.std::vector.26"*, align 8
  %4 = alloca %"class.std::vector.5"*, align 8
  store %"class.std::vector.26"* %0, %"class.std::vector.26"** %3, align 8
  store %"class.std::vector.5"* %1, %"class.std::vector.5"** %4, align 8
  %5 = load %"class.std::vector.26"*, %"class.std::vector.26"** %3, align 8
  %6 = load %"class.std::vector.5"*, %"class.std::vector.5"** %4, align 8
  %7 = call dereferenceable(24) %"class.std::vector.5"* @_ZSt4moveIRSt6vectorIiSaIiEEEONSt16remove_referenceIT_E4typeEOS5_(%"class.std::vector.5"* dereferenceable(24) %6) #4
  call void @_ZNSt6vectorIS_IiSaIiEESaIS1_EE12emplace_backIJS1_EEEvDpOT_(%"class.std::vector.26"* %5, %"class.std::vector.5"* dereferenceable(24) %7)
  ret void
}

; Function Attrs: noinline uwtable
define void @_ZNK5Graph22Kosaraju_dfs_decomposeERKSt6vectorIS0_I4EdgeSaIS1_EESaIS3_EEiRS0_IbSaIbEE(%"class.std::vector.5"* noalias sret, %class.Graph*, %"class.std::vector"* dereferenceable(24), i32, %"class.std::vector.31"* dereferenceable(40)) #0 align 2 personality i8* bitcast (i32 (...)* @__gxx_personality_v0 to i8*) {
  %6 = alloca %class.Graph*, align 8
  %7 = alloca %"class.std::vector"*, align 8
  %8 = alloca i32, align 4
  %9 = alloca %"class.std::vector.31"*, align 8
  %10 = alloca i1, align 1
  %11 = alloca i8*
  %12 = alloca i32
  %13 = alloca %"struct.std::_Bit_reference", align 8
  %14 = alloca %"class.std::vector.0"*, align 8
  %15 = alloca %"class.__gnu_cxx::__normal_iterator", align 8
  %16 = alloca %"class.__gnu_cxx::__normal_iterator", align 8
  %17 = alloca %class.Edge*, align 8
  %18 = alloca %"struct.std::_Bit_reference", align 8
  %19 = alloca %"class.std::vector.5", align 8
  %20 = alloca %"class.__gnu_cxx::__normal_iterator.39", align 8
  %21 = alloca %"class.__gnu_cxx::__normal_iterator.38", align 8
  %22 = alloca %"class.__gnu_cxx::__normal_iterator.38", align 8
  %23 = alloca %"class.__gnu_cxx::__normal_iterator.38", align 8
  %24 = alloca %"class.__gnu_cxx::__normal_iterator.38", align 8
  store %class.Graph* %1, %class.Graph** %6, align 8
  store %"class.std::vector"* %2, %"class.std::vector"** %7, align 8
  store i32 %3, i32* %8, align 4
  store %"class.std::vector.31"* %4, %"class.std::vector.31"** %9, align 8
  %25 = load %class.Graph*, %class.Graph** %6, align 8
  store i1 false, i1* %10, align 1
  call void @_ZNSt6vectorIiSaIiEEC2Ev(%"class.std::vector.5"* %0) #4
  invoke void @_ZNSt6vectorIiSaIiEE9push_backERKi(%"class.std::vector.5"* %0, i32* dereferenceable(4) %8)
          to label %26 unwind label %161

; <label>:26:                                     ; preds = %5
  %27 = load %"class.std::vector.31"*, %"class.std::vector.31"** %9, align 8
  %28 = load i32, i32* %8, align 4
  %29 = sext i32 %28 to i64
  %30 = invoke { i64*, i64 } @_ZNSt6vectorIbSaIbEEixEm(%"class.std::vector.31"* %27, i64 %29)
          to label %31 unwind label %161

; <label>:31:                                     ; preds = %26
  %32 = load i32, i32* @x.139
  %33 = load i32, i32* @y.140
  %34 = sub i32 %32, -1615533044
  %35 = sub i32 %34, 1
  %36 = add i32 %35, -1615533044
  %37 = sub i32 %32, 1
  %38 = mul i32 %32, %36
  %39 = urem i32 %38, 2
  %40 = icmp eq i32 %39, 0
  %41 = icmp slt i32 %33, 10
  %42 = xor i1 %40, true
  %43 = xor i1 %41, true
  %44 = xor i1 true, true
  %45 = and i1 %42, true
  %46 = and i1 %40, %44
  %47 = and i1 %43, true
  %48 = and i1 %41, %44
  %49 = or i1 %45, %46
  %50 = or i1 %47, %48
  %51 = xor i1 %49, %50
  %52 = or i1 %42, %43
  %53 = xor i1 %52, true
  %54 = or i1 true, %44
  %55 = and i1 %53, %54
  %56 = or i1 %51, %55
  %57 = or i1 %40, %41
  br i1 %56, label %58, label %448

; <label>:58:                                     ; preds = %31, %448
  %59 = bitcast %"struct.std::_Bit_reference"* %13 to { i64*, i64 }*
  %60 = getelementptr inbounds { i64*, i64 }, { i64*, i64 }* %59, i32 0, i32 0
  %61 = extractvalue { i64*, i64 } %30, 0
  store i64* %61, i64** %60, align 8
  %62 = getelementptr inbounds { i64*, i64 }, { i64*, i64 }* %59, i32 0, i32 1
  %63 = extractvalue { i64*, i64 } %30, 1
  store i64 %63, i64* %62, align 8
  %64 = call dereferenceable(16) %"struct.std::_Bit_reference"* @_ZNSt14_Bit_referenceaSEb(%"struct.std::_Bit_reference"* %13, i1 zeroext true) #4
  %65 = load %"class.std::vector"*, %"class.std::vector"** %7, align 8
  %66 = load i32, i32* %8, align 4
  %67 = sext i32 %66 to i64
  %68 = call dereferenceable(24) %"class.std::vector.0"* @_ZNKSt6vectorIS_I4EdgeSaIS0_EESaIS2_EEixEm(%"class.std::vector"* %65, i64 %67) #4
  store %"class.std::vector.0"* %68, %"class.std::vector.0"** %14, align 8
  %69 = load %"class.std::vector.0"*, %"class.std::vector.0"** %14, align 8
  %70 = call %class.Edge* @_ZNKSt6vectorI4EdgeSaIS0_EE5beginEv(%"class.std::vector.0"* %69) #4
  %71 = getelementptr inbounds %"class.__gnu_cxx::__normal_iterator", %"class.__gnu_cxx::__normal_iterator"* %15, i32 0, i32 0
  store %class.Edge* %70, %class.Edge** %71, align 8
  %72 = load %"class.std::vector.0"*, %"class.std::vector.0"** %14, align 8
  %73 = call %class.Edge* @_ZNKSt6vectorI4EdgeSaIS0_EE3endEv(%"class.std::vector.0"* %72) #4
  %74 = getelementptr inbounds %"class.__gnu_cxx::__normal_iterator", %"class.__gnu_cxx::__normal_iterator"* %16, i32 0, i32 0
  store %class.Edge* %73, %class.Edge** %74, align 8
  %75 = load i32, i32* @x.139
  %76 = load i32, i32* @y.140
  %77 = sub i32 %75, 1530526393
  %78 = sub i32 %77, 1
  %79 = add i32 %78, 1530526393
  %80 = sub i32 %75, 1
  %81 = mul i32 %75, %79
  %82 = urem i32 %81, 2
  %83 = icmp eq i32 %82, 0
  %84 = icmp slt i32 %76, 10
  %85 = xor i1 %83, true
  %86 = xor i1 %84, true
  %87 = xor i1 true, true
  %88 = and i1 %85, true
  %89 = and i1 %83, %87
  %90 = and i1 %86, true
  %91 = and i1 %84, %87
  %92 = or i1 %88, %89
  %93 = or i1 %90, %91
  %94 = xor i1 %92, %93
  %95 = or i1 %85, %86
  %96 = xor i1 %95, true
  %97 = or i1 true, %87
  %98 = and i1 %96, %97
  %99 = or i1 %94, %98
  %100 = or i1 %83, %84
  br i1 %99, label %101, label %448

; <label>:101:                                    ; preds = %58
  br label %102

; <label>:102:                                    ; preds = %311, %101
  %103 = call zeroext i1 @_ZN9__gnu_cxxneIPK4EdgeSt6vectorIS1_SaIS1_EEEEbRKNS_17__normal_iteratorIT_T0_EESC_(%"class.__gnu_cxx::__normal_iterator"* dereferenceable(8) %15, %"class.__gnu_cxx::__normal_iterator"* dereferenceable(8) %16) #4
  br i1 %103, label %104, label %357

; <label>:104:                                    ; preds = %102
  %105 = call dereferenceable(16) %class.Edge* @_ZNK9__gnu_cxx17__normal_iteratorIPK4EdgeSt6vectorIS1_SaIS1_EEEdeEv(%"class.__gnu_cxx::__normal_iterator"* %15) #4
  store %class.Edge* %105, %class.Edge** %17, align 8
  %106 = load %"class.std::vector.31"*, %"class.std::vector.31"** %9, align 8
  %107 = load %class.Edge*, %class.Edge** %17, align 8
  %108 = invoke i32 @_ZNK4Edge2toEv(%class.Edge* %107)
          to label %109 unwind label %161

; <label>:109:                                    ; preds = %104
  %110 = sext i32 %108 to i64
  %111 = invoke { i64*, i64 } @_ZNSt6vectorIbSaIbEEixEm(%"class.std::vector.31"* %106, i64 %110)
          to label %112 unwind label %161

; <label>:112:                                    ; preds = %109
  %113 = bitcast %"struct.std::_Bit_reference"* %18 to { i64*, i64 }*
  %114 = getelementptr inbounds { i64*, i64 }, { i64*, i64 }* %113, i32 0, i32 0
  %115 = extractvalue { i64*, i64 } %111, 0
  store i64* %115, i64** %114, align 8
  %116 = getelementptr inbounds { i64*, i64 }, { i64*, i64 }* %113, i32 0, i32 1
  %117 = extractvalue { i64*, i64 } %111, 1
  store i64 %117, i64* %116, align 8
  %118 = call zeroext i1 @_ZNKSt14_Bit_referencecvbEv(%"struct.std::_Bit_reference"* %18) #4
  br i1 %118, label %119, label %165

; <label>:119:                                    ; preds = %112
  %120 = load i32, i32* @x.139
  %121 = load i32, i32* @y.140
  %122 = sub i32 0, 1
  %123 = add i32 %120, %122
  %124 = sub i32 %120, 1
  %125 = mul i32 %120, %123
  %126 = urem i32 %125, 2
  %127 = icmp eq i32 %126, 0
  %128 = icmp slt i32 %121, 10
  %129 = xor i1 %127, true
  %130 = xor i1 %128, true
  %131 = xor i1 false, true
  %132 = and i1 %129, false
  %133 = and i1 %127, %131
  %134 = and i1 %130, false
  %135 = and i1 %128, %131
  %136 = or i1 %132, %133
  %137 = or i1 %134, %135
  %138 = xor i1 %136, %137
  %139 = or i1 %129, %130
  %140 = xor i1 %139, true
  %141 = or i1 false, %131
  %142 = and i1 %140, %141
  %143 = or i1 %138, %142
  %144 = or i1 %127, %128
  br i1 %143, label %145, label %465

; <label>:145:                                    ; preds = %119, %465
  %146 = load i32, i32* @x.139
  %147 = load i32, i32* @y.140
  %148 = sub i32 %146, 1185668295
  %149 = sub i32 %148, 1
  %150 = add i32 %149, 1185668295
  %151 = sub i32 %146, 1
  %152 = mul i32 %146, %150
  %153 = urem i32 %152, 2
  %154 = icmp eq i32 %153, 0
  %155 = icmp slt i32 %147, 10
  %156 = and i1 %154, %155
  %157 = xor i1 %154, %155
  %158 = or i1 %156, %157
  %159 = or i1 %154, %155
  br i1 %158, label %160, label %465

; <label>:160:                                    ; preds = %145
  br label %269

; <label>:161:                                    ; preds = %210, %165, %109, %104, %26, %5
  %162 = landingpad { i8*, i32 }
          cleanup
  %163 = extractvalue { i8*, i32 } %162, 0
  store i8* %163, i8** %11, align 8
  %164 = extractvalue { i8*, i32 } %162, 1
  store i32 %164, i32* %12, align 4
  br label %402

; <label>:165:                                    ; preds = %112
  %166 = load %"class.std::vector"*, %"class.std::vector"** %7, align 8
  %167 = load %class.Edge*, %class.Edge** %17, align 8
  %168 = invoke i32 @_ZNK4Edge2toEv(%class.Edge* %167)
          to label %169 unwind label %161

; <label>:169:                                    ; preds = %165
  %170 = load i32, i32* @x.139
  %171 = load i32, i32* @y.140
  %172 = sub i32 0, 1
  %173 = add i32 %170, %172
  %174 = sub i32 %170, 1
  %175 = mul i32 %170, %173
  %176 = urem i32 %175, 2
  %177 = icmp eq i32 %176, 0
  %178 = icmp slt i32 %171, 10
  %179 = xor i1 %177, true
  %180 = xor i1 %178, true
  %181 = xor i1 false, true
  %182 = and i1 %179, false
  %183 = and i1 %177, %181
  %184 = and i1 %180, false
  %185 = and i1 %178, %181
  %186 = or i1 %182, %183
  %187 = or i1 %184, %185
  %188 = xor i1 %186, %187
  %189 = or i1 %179, %180
  %190 = xor i1 %189, true
  %191 = or i1 false, %181
  %192 = and i1 %190, %191
  %193 = or i1 %188, %192
  %194 = or i1 %177, %178
  br i1 %193, label %195, label %466

; <label>:195:                                    ; preds = %169, %466
  %196 = load %"class.std::vector.31"*, %"class.std::vector.31"** %9, align 8
  %197 = load i32, i32* @x.139
  %198 = load i32, i32* @y.140
  %199 = sub i32 0, 1
  %200 = add i32 %197, %199
  %201 = sub i32 %197, 1
  %202 = mul i32 %197, %200
  %203 = urem i32 %202, 2
  %204 = icmp eq i32 %203, 0
  %205 = icmp slt i32 %198, 10
  %206 = and i1 %204, %205
  %207 = xor i1 %204, %205
  %208 = or i1 %206, %207
  %209 = or i1 %204, %205
  br i1 %208, label %210, label %466

; <label>:210:                                    ; preds = %195
  invoke void @_ZNK5Graph22Kosaraju_dfs_decomposeERKSt6vectorIS0_I4EdgeSaIS1_EESaIS3_EEiRS0_IbSaIbEE(%"class.std::vector.5"* sret %19, %class.Graph* %25, %"class.std::vector"* dereferenceable(24) %166, i32 %168, %"class.std::vector.31"* dereferenceable(40) %196)
          to label %211 unwind label %161

; <label>:211:                                    ; preds = %210
  %212 = call i32* @_ZNSt6vectorIiSaIiEE3endEv(%"class.std::vector.5"* %0) #4
  %213 = getelementptr inbounds %"class.__gnu_cxx::__normal_iterator.38", %"class.__gnu_cxx::__normal_iterator.38"* %21, i32 0, i32 0
  store i32* %212, i32** %213, align 8
  call void @_ZN9__gnu_cxx17__normal_iteratorIPKiSt6vectorIiSaIiEEEC2IPiEERKNS0_IT_NS_11__enable_ifIXsr3std10__are_sameIS9_S8_EE7__valueES5_E6__typeEEE(%"class.__gnu_cxx::__normal_iterator.39"* %20, %"class.__gnu_cxx::__normal_iterator.38"* dereferenceable(8) %21) #4
  %214 = call i32* @_ZNSt6vectorIiSaIiEE5beginEv(%"class.std::vector.5"* %19) #4
  %215 = getelementptr inbounds %"class.__gnu_cxx::__normal_iterator.38", %"class.__gnu_cxx::__normal_iterator.38"* %22, i32 0, i32 0
  store i32* %214, i32** %215, align 8
  %216 = call i32* @_ZNSt6vectorIiSaIiEE3endEv(%"class.std::vector.5"* %19) #4
  %217 = getelementptr inbounds %"class.__gnu_cxx::__normal_iterator.38", %"class.__gnu_cxx::__normal_iterator.38"* %23, i32 0, i32 0
  store i32* %216, i32** %217, align 8
  %218 = getelementptr inbounds %"class.__gnu_cxx::__normal_iterator.39", %"class.__gnu_cxx::__normal_iterator.39"* %20, i32 0, i32 0
  %219 = load i32*, i32** %218, align 8
  %220 = getelementptr inbounds %"class.__gnu_cxx::__normal_iterator.38", %"class.__gnu_cxx::__normal_iterator.38"* %22, i32 0, i32 0
  %221 = load i32*, i32** %220, align 8
  %222 = getelementptr inbounds %"class.__gnu_cxx::__normal_iterator.38", %"class.__gnu_cxx::__normal_iterator.38"* %23, i32 0, i32 0
  %223 = load i32*, i32** %222, align 8
  %224 = invoke i32* @_ZNSt6vectorIiSaIiEE6insertIN9__gnu_cxx17__normal_iteratorIPiS1_EEvEES6_NS4_IPKiS1_EET_SA_(%"class.std::vector.5"* %0, i32* %219, i32* %221, i32* %223)
          to label %225 unwind label %312

; <label>:225:                                    ; preds = %211
  %226 = load i32, i32* @x.139
  %227 = load i32, i32* @y.140
  %228 = add i32 %226, -1235730551
  %229 = sub i32 %228, 1
  %230 = sub i32 %229, -1235730551
  %231 = sub i32 %226, 1
  %232 = mul i32 %226, %230
  %233 = urem i32 %232, 2
  %234 = icmp eq i32 %233, 0
  %235 = icmp slt i32 %227, 10
  %236 = and i1 %234, %235
  %237 = xor i1 %234, %235
  %238 = or i1 %236, %237
  %239 = or i1 %234, %235
  br i1 %238, label %240, label %468

; <label>:240:                                    ; preds = %225, %468
  %241 = getelementptr inbounds %"class.__gnu_cxx::__normal_iterator.38", %"class.__gnu_cxx::__normal_iterator.38"* %24, i32 0, i32 0
  store i32* %224, i32** %241, align 8
  call void @_ZNSt6vectorIiSaIiEED2Ev(%"class.std::vector.5"* %19) #4
  %242 = load i32, i32* @x.139
  %243 = load i32, i32* @y.140
  %244 = sub i32 %242, -908213535
  %245 = sub i32 %244, 1
  %246 = add i32 %245, -908213535
  %247 = sub i32 %242, 1
  %248 = mul i32 %242, %246
  %249 = urem i32 %248, 2
  %250 = icmp eq i32 %249, 0
  %251 = icmp slt i32 %243, 10
  %252 = xor i1 %250, true
  %253 = xor i1 %251, true
  %254 = xor i1 true, true
  %255 = and i1 %252, true
  %256 = and i1 %250, %254
  %257 = and i1 %253, true
  %258 = and i1 %251, %254
  %259 = or i1 %255, %256
  %260 = or i1 %257, %258
  %261 = xor i1 %259, %260
  %262 = or i1 %252, %253
  %263 = xor i1 %262, true
  %264 = or i1 true, %254
  %265 = and i1 %263, %264
  %266 = or i1 %261, %265
  %267 = or i1 %250, %251
  br i1 %266, label %268, label %468

; <label>:268:                                    ; preds = %240
  br label %269

; <label>:269:                                    ; preds = %268, %160
  %270 = load i32, i32* @x.139
  %271 = load i32, i32* @y.140
  %272 = sub i32 0, 1
  %273 = add i32 %270, %272
  %274 = sub i32 %270, 1
  %275 = mul i32 %270, %273
  %276 = urem i32 %275, 2
  %277 = icmp eq i32 %276, 0
  %278 = icmp slt i32 %271, 10
  %279 = xor i1 %277, true
  %280 = xor i1 %278, true
  %281 = xor i1 true, true
  %282 = and i1 %279, true
  %283 = and i1 %277, %281
  %284 = and i1 %280, true
  %285 = and i1 %278, %281
  %286 = or i1 %282, %283
  %287 = or i1 %284, %285
  %288 = xor i1 %286, %287
  %289 = or i1 %279, %280
  %290 = xor i1 %289, true
  %291 = or i1 true, %281
  %292 = and i1 %290, %291
  %293 = or i1 %288, %292
  %294 = or i1 %277, %278
  br i1 %293, label %295, label %470

; <label>:295:                                    ; preds = %269, %470
  %296 = call dereferenceable(8) %"class.__gnu_cxx::__normal_iterator"* @_ZN9__gnu_cxx17__normal_iteratorIPK4EdgeSt6vectorIS1_SaIS1_EEEppEv(%"class.__gnu_cxx::__normal_iterator"* %15) #4
  %297 = load i32, i32* @x.139
  %298 = load i32, i32* @y.140
  %299 = add i32 %297, 2026769495
  %300 = sub i32 %299, 1
  %301 = sub i32 %300, 2026769495
  %302 = sub i32 %297, 1
  %303 = mul i32 %297, %301
  %304 = urem i32 %303, 2
  %305 = icmp eq i32 %304, 0
  %306 = icmp slt i32 %298, 10
  %307 = and i1 %305, %306
  %308 = xor i1 %305, %306
  %309 = or i1 %307, %308
  %310 = or i1 %305, %306
  br i1 %309, label %311, label %470

; <label>:311:                                    ; preds = %295
  br label %102

; <label>:312:                                    ; preds = %211
  %313 = load i32, i32* @x.139
  %314 = load i32, i32* @y.140
  %315 = sub i32 0, 1
  %316 = add i32 %313, %315
  %317 = sub i32 %313, 1
  %318 = mul i32 %313, %316
  %319 = urem i32 %318, 2
  %320 = icmp eq i32 %319, 0
  %321 = icmp slt i32 %314, 10
  %322 = and i1 %320, %321
  %323 = xor i1 %320, %321
  %324 = or i1 %322, %323
  %325 = or i1 %320, %321
  br i1 %324, label %326, label %472

; <label>:326:                                    ; preds = %312, %472
  %327 = landingpad { i8*, i32 }
          cleanup
  %328 = extractvalue { i8*, i32 } %327, 0
  store i8* %328, i8** %11, align 8
  %329 = extractvalue { i8*, i32 } %327, 1
  store i32 %329, i32* %12, align 4
  call void @_ZNSt6vectorIiSaIiEED2Ev(%"class.std::vector.5"* %19) #4
  %330 = load i32, i32* @x.139
  %331 = load i32, i32* @y.140
  %332 = sub i32 %330, 1799321931
  %333 = sub i32 %332, 1
  %334 = add i32 %333, 1799321931
  %335 = sub i32 %330, 1
  %336 = mul i32 %330, %334
  %337 = urem i32 %336, 2
  %338 = icmp eq i32 %337, 0
  %339 = icmp slt i32 %331, 10
  %340 = xor i1 %338, true
  %341 = xor i1 %339, true
  %342 = xor i1 false, true
  %343 = and i1 %340, false
  %344 = and i1 %338, %342
  %345 = and i1 %341, false
  %346 = and i1 %339, %342
  %347 = or i1 %343, %344
  %348 = or i1 %345, %346
  %349 = xor i1 %347, %348
  %350 = or i1 %340, %341
  %351 = xor i1 %350, true
  %352 = or i1 false, %342
  %353 = and i1 %351, %352
  %354 = or i1 %349, %353
  %355 = or i1 %338, %339
  br i1 %354, label %356, label %472

; <label>:356:                                    ; preds = %326
  br label %402

; <label>:357:                                    ; preds = %102
  store i1 true, i1* %10, align 1
  %358 = load i1, i1* %10, align 1
  br i1 %358, label %401, label %359

; <label>:359:                                    ; preds = %357
  %360 = load i32, i32* @x.139
  %361 = load i32, i32* @y.140
  %362 = sub i32 0, 1
  %363 = add i32 %360, %362
  %364 = sub i32 %360, 1
  %365 = mul i32 %360, %363
  %366 = urem i32 %365, 2
  %367 = icmp eq i32 %366, 0
  %368 = icmp slt i32 %361, 10
  %369 = and i1 %367, %368
  %370 = xor i1 %367, %368
  %371 = or i1 %369, %370
  %372 = or i1 %367, %368
  br i1 %371, label %373, label %476

; <label>:373:                                    ; preds = %359, %476
  call void @_ZNSt6vectorIiSaIiEED2Ev(%"class.std::vector.5"* %0) #4
  %374 = load i32, i32* @x.139
  %375 = load i32, i32* @y.140
  %376 = add i32 %374, 2115010131
  %377 = sub i32 %376, 1
  %378 = sub i32 %377, 2115010131
  %379 = sub i32 %374, 1
  %380 = mul i32 %374, %378
  %381 = urem i32 %380, 2
  %382 = icmp eq i32 %381, 0
  %383 = icmp slt i32 %375, 10
  %384 = xor i1 %382, true
  %385 = xor i1 %383, true
  %386 = xor i1 false, true
  %387 = and i1 %384, false
  %388 = and i1 %382, %386
  %389 = and i1 %385, false
  %390 = and i1 %383, %386
  %391 = or i1 %387, %388
  %392 = or i1 %389, %390
  %393 = xor i1 %391, %392
  %394 = or i1 %384, %385
  %395 = xor i1 %394, true
  %396 = or i1 false, %386
  %397 = and i1 %395, %396
  %398 = or i1 %393, %397
  %399 = or i1 %382, %383
  br i1 %398, label %400, label %476

; <label>:400:                                    ; preds = %373
  br label %401

; <label>:401:                                    ; preds = %400, %357
  ret void

; <label>:402:                                    ; preds = %356, %161
  call void @_ZNSt6vectorIiSaIiEED2Ev(%"class.std::vector.5"* %0) #4
  br label %403

; <label>:403:                                    ; preds = %402
  %404 = load i32, i32* @x.139
  %405 = load i32, i32* @y.140
  %406 = sub i32 0, 1
  %407 = add i32 %404, %406
  %408 = sub i32 %404, 1
  %409 = mul i32 %404, %407
  %410 = urem i32 %409, 2
  %411 = icmp eq i32 %410, 0
  %412 = icmp slt i32 %405, 10
  %413 = xor i1 %411, true
  %414 = xor i1 %412, true
  %415 = xor i1 false, true
  %416 = and i1 %413, false
  %417 = and i1 %411, %415
  %418 = and i1 %414, false
  %419 = and i1 %412, %415
  %420 = or i1 %416, %417
  %421 = or i1 %418, %419
  %422 = xor i1 %420, %421
  %423 = or i1 %413, %414
  %424 = xor i1 %423, true
  %425 = or i1 false, %415
  %426 = and i1 %424, %425
  %427 = or i1 %422, %426
  %428 = or i1 %411, %412
  br i1 %427, label %429, label %477

; <label>:429:                                    ; preds = %403, %477
  %430 = load i8*, i8** %11, align 8
  %431 = load i32, i32* %12, align 4
  %432 = insertvalue { i8*, i32 } undef, i8* %430, 0
  %433 = insertvalue { i8*, i32 } %432, i32 %431, 1
  %434 = load i32, i32* @x.139
  %435 = load i32, i32* @y.140
  %436 = sub i32 0, 1
  %437 = add i32 %434, %436
  %438 = sub i32 %434, 1
  %439 = mul i32 %434, %437
  %440 = urem i32 %439, 2
  %441 = icmp eq i32 %440, 0
  %442 = icmp slt i32 %435, 10
  %443 = and i1 %441, %442
  %444 = xor i1 %441, %442
  %445 = or i1 %443, %444
  %446 = or i1 %441, %442
  br i1 %445, label %447, label %477

; <label>:447:                                    ; preds = %429
  resume { i8*, i32 } %433

; <label>:448:                                    ; preds = %58, %31
  %449 = bitcast %"struct.std::_Bit_reference"* %13 to { i64*, i64 }*
  %450 = getelementptr inbounds { i64*, i64 }, { i64*, i64 }* %449, i32 0, i32 0
  %451 = extractvalue { i64*, i64 } %30, 0
  store i64* %451, i64** %450, align 8
  %452 = getelementptr inbounds { i64*, i64 }, { i64*, i64 }* %449, i32 0, i32 1
  %453 = extractvalue { i64*, i64 } %30, 1
  store i64 %453, i64* %452, align 8
  %454 = call dereferenceable(16) %"struct.std::_Bit_reference"* @_ZNSt14_Bit_referenceaSEb(%"struct.std::_Bit_reference"* %13, i1 zeroext true) #4
  %455 = load %"class.std::vector"*, %"class.std::vector"** %7, align 8
  %456 = load i32, i32* %8, align 4
  %457 = sext i32 %456 to i64
  %458 = call dereferenceable(24) %"class.std::vector.0"* @_ZNKSt6vectorIS_I4EdgeSaIS0_EESaIS2_EEixEm(%"class.std::vector"* %455, i64 %457) #4
  store %"class.std::vector.0"* %458, %"class.std::vector.0"** %14, align 8
  %459 = load %"class.std::vector.0"*, %"class.std::vector.0"** %14, align 8
  %460 = call %class.Edge* @_ZNKSt6vectorI4EdgeSaIS0_EE5beginEv(%"class.std::vector.0"* %459) #4
  %461 = getelementptr inbounds %"class.__gnu_cxx::__normal_iterator", %"class.__gnu_cxx::__normal_iterator"* %15, i32 0, i32 0
  store %class.Edge* %460, %class.Edge** %461, align 8
  %462 = load %"class.std::vector.0"*, %"class.std::vector.0"** %14, align 8
  %463 = call %class.Edge* @_ZNKSt6vectorI4EdgeSaIS0_EE3endEv(%"class.std::vector.0"* %462) #4
  %464 = getelementptr inbounds %"class.__gnu_cxx::__normal_iterator", %"class.__gnu_cxx::__normal_iterator"* %16, i32 0, i32 0
  store %class.Edge* %463, %class.Edge** %464, align 8
  br label %58

; <label>:465:                                    ; preds = %145, %119
  br label %145

; <label>:466:                                    ; preds = %195, %169
  %467 = load %"class.std::vector.31"*, %"class.std::vector.31"** %9, align 8
  br label %195

; <label>:468:                                    ; preds = %240, %225
  %469 = getelementptr inbounds %"class.__gnu_cxx::__normal_iterator.38", %"class.__gnu_cxx::__normal_iterator.38"* %24, i32 0, i32 0
  store i32* %224, i32** %469, align 8
  call void @_ZNSt6vectorIiSaIiEED2Ev(%"class.std::vector.5"* %19) #4
  br label %240

; <label>:470:                                    ; preds = %295, %269
  %471 = call dereferenceable(8) %"class.__gnu_cxx::__normal_iterator"* @_ZN9__gnu_cxx17__normal_iteratorIPK4EdgeSt6vectorIS1_SaIS1_EEEppEv(%"class.__gnu_cxx::__normal_iterator"* %15) #4
  br label %295

; <label>:472:                                    ; preds = %326, %312
  %473 = landingpad { i8*, i32 }
          cleanup
  %474 = extractvalue { i8*, i32 } %473, 0
  store i8* %474, i8** %11, align 8
  %475 = extractvalue { i8*, i32 } %473, 1
  store i32 %475, i32* %12, align 4
  call void @_ZNSt6vectorIiSaIiEED2Ev(%"class.std::vector.5"* %19) #4
  br label %326

; <label>:476:                                    ; preds = %373, %359
  call void @_ZNSt6vectorIiSaIiEED2Ev(%"class.std::vector.5"* %0) #4
  br label %373

; <label>:477:                                    ; preds = %429, %403
  %478 = load i8*, i8** %11, align 8
  %479 = load i32, i32* %12, align 4
  %480 = insertvalue { i8*, i32 } undef, i8* %478, 0
  %481 = insertvalue { i8*, i32 } %480, i32 %479, 1
  br label %429
}

; Function Attrs: noinline nounwind uwtable
define linkonce_odr void @_ZNSt6vectorIS_I4EdgeSaIS0_EESaIS2_EED2Ev(%"class.std::vector"*) unnamed_addr #1 comdat align 2 personality i8* bitcast (i32 (...)* @__gxx_personality_v0 to i8*) {
  %2 = load i32, i32* @x.141
  %3 = load i32, i32* @y.142
  %4 = sub i32 %2, -274549168
  %5 = sub i32 %4, 1
  %6 = add i32 %5, -274549168
  %7 = sub i32 %2, 1
  %8 = mul i32 %2, %6
  %9 = urem i32 %8, 2
  %10 = icmp eq i32 %9, 0
  %11 = icmp slt i32 %3, 10
  %12 = xor i1 %10, true
  %13 = xor i1 %11, true
  %14 = xor i1 true, true
  %15 = and i1 %12, true
  %16 = and i1 %10, %14
  %17 = and i1 %13, true
  %18 = and i1 %11, %14
  %19 = or i1 %15, %16
  %20 = or i1 %17, %18
  %21 = xor i1 %19, %20
  %22 = or i1 %12, %13
  %23 = xor i1 %22, true
  %24 = or i1 true, %14
  %25 = and i1 %23, %24
  %26 = or i1 %21, %25
  %27 = or i1 %10, %11
  br i1 %26, label %28, label %95

; <label>:28:                                     ; preds = %1, %95
  %29 = alloca %"class.std::vector"*, align 8
  %30 = alloca i8*
  %31 = alloca i32
  store %"class.std::vector"* %0, %"class.std::vector"** %29, align 8
  %32 = load %"class.std::vector"*, %"class.std::vector"** %29, align 8
  %33 = bitcast %"class.std::vector"* %32 to %"struct.std::_Vector_base"*
  %34 = getelementptr inbounds %"struct.std::_Vector_base", %"struct.std::_Vector_base"* %33, i32 0, i32 0
  %35 = getelementptr inbounds %"struct.std::_Vector_base<std::vector<Edge, std::allocator<Edge> >, std::allocator<std::vector<Edge, std::allocator<Edge> > > >::_Vector_impl", %"struct.std::_Vector_base<std::vector<Edge, std::allocator<Edge> >, std::allocator<std::vector<Edge, std::allocator<Edge> > > >::_Vector_impl"* %34, i32 0, i32 0
  %36 = load %"class.std::vector.0"*, %"class.std::vector.0"** %35, align 8
  %37 = bitcast %"class.std::vector"* %32 to %"struct.std::_Vector_base"*
  %38 = getelementptr inbounds %"struct.std::_Vector_base", %"struct.std::_Vector_base"* %37, i32 0, i32 0
  %39 = getelementptr inbounds %"struct.std::_Vector_base<std::vector<Edge, std::allocator<Edge> >, std::allocator<std::vector<Edge, std::allocator<Edge> > > >::_Vector_impl", %"struct.std::_Vector_base<std::vector<Edge, std::allocator<Edge> >, std::allocator<std::vector<Edge, std::allocator<Edge> > > >::_Vector_impl"* %38, i32 0, i32 1
  %40 = load %"class.std::vector.0"*, %"class.std::vector.0"** %39, align 8
  %41 = bitcast %"class.std::vector"* %32 to %"struct.std::_Vector_base"*
  %42 = call dereferenceable(1) %"class.std::allocator"* @_ZNSt12_Vector_baseISt6vectorI4EdgeSaIS1_EESaIS3_EE19_M_get_Tp_allocatorEv(%"struct.std::_Vector_base"* %41) #4
  %43 = load i32, i32* @x.141
  %44 = load i32, i32* @y.142
  %45 = sub i32 0, 1
  %46 = add i32 %43, %45
  %47 = sub i32 %43, 1
  %48 = mul i32 %43, %46
  %49 = urem i32 %48, 2
  %50 = icmp eq i32 %49, 0
  %51 = icmp slt i32 %44, 10
  %52 = and i1 %50, %51
  %53 = xor i1 %50, %51
  %54 = or i1 %52, %53
  %55 = or i1 %50, %51
  br i1 %54, label %56, label %95

; <label>:56:                                     ; preds = %28
  invoke void @_ZSt8_DestroyIPSt6vectorI4EdgeSaIS1_EES3_EvT_S5_RSaIT0_E(%"class.std::vector.0"* %36, %"class.std::vector.0"* %40, %"class.std::allocator"* dereferenceable(1) %42)
          to label %57 unwind label %88

; <label>:57:                                     ; preds = %56
  %58 = load i32, i32* @x.141
  %59 = load i32, i32* @y.142
  %60 = sub i32 %58, 289086641
  %61 = sub i32 %60, 1
  %62 = add i32 %61, 289086641
  %63 = sub i32 %58, 1
  %64 = mul i32 %58, %62
  %65 = urem i32 %64, 2
  %66 = icmp eq i32 %65, 0
  %67 = icmp slt i32 %59, 10
  %68 = and i1 %66, %67
  %69 = xor i1 %66, %67
  %70 = or i1 %68, %69
  %71 = or i1 %66, %67
  br i1 %70, label %72, label %110

; <label>:72:                                     ; preds = %57, %110
  %73 = bitcast %"class.std::vector"* %32 to %"struct.std::_Vector_base"*
  call void @_ZNSt12_Vector_baseISt6vectorI4EdgeSaIS1_EESaIS3_EED2Ev(%"struct.std::_Vector_base"* %73) #4
  %74 = load i32, i32* @x.141
  %75 = load i32, i32* @y.142
  %76 = sub i32 0, 1
  %77 = add i32 %74, %76
  %78 = sub i32 %74, 1
  %79 = mul i32 %74, %77
  %80 = urem i32 %79, 2
  %81 = icmp eq i32 %80, 0
  %82 = icmp slt i32 %75, 10
  %83 = and i1 %81, %82
  %84 = xor i1 %81, %82
  %85 = or i1 %83, %84
  %86 = or i1 %81, %82
  br i1 %85, label %87, label %110

; <label>:87:                                     ; preds = %72
  ret void

; <label>:88:                                     ; preds = %56
  %89 = landingpad { i8*, i32 }
          catch i8* null
  %90 = extractvalue { i8*, i32 } %89, 0
  store i8* %90, i8** %30, align 8
  %91 = extractvalue { i8*, i32 } %89, 1
  store i32 %91, i32* %31, align 4
  %92 = bitcast %"class.std::vector"* %32 to %"struct.std::_Vector_base"*
  call void @_ZNSt12_Vector_baseISt6vectorI4EdgeSaIS1_EESaIS3_EED2Ev(%"struct.std::_Vector_base"* %92) #4
  br label %93

; <label>:93:                                     ; preds = %88
  %94 = load i8*, i8** %30, align 8
  call void @__clang_call_terminate(i8* %94) #8
  unreachable

; <label>:95:                                     ; preds = %28, %1
  %96 = alloca %"class.std::vector"*, align 8
  %97 = alloca i8*
  %98 = alloca i32
  store %"class.std::vector"* %0, %"class.std::vector"** %96, align 8
  %99 = load %"class.std::vector"*, %"class.std::vector"** %96, align 8
  %100 = bitcast %"class.std::vector"* %99 to %"struct.std::_Vector_base"*
  %101 = getelementptr inbounds %"struct.std::_Vector_base", %"struct.std::_Vector_base"* %100, i32 0, i32 0
  %102 = getelementptr inbounds %"struct.std::_Vector_base<std::vector<Edge, std::allocator<Edge> >, std::allocator<std::vector<Edge, std::allocator<Edge> > > >::_Vector_impl", %"struct.std::_Vector_base<std::vector<Edge, std::allocator<Edge> >, std::allocator<std::vector<Edge, std::allocator<Edge> > > >::_Vector_impl"* %101, i32 0, i32 0
  %103 = load %"class.std::vector.0"*, %"class.std::vector.0"** %102, align 8
  %104 = bitcast %"class.std::vector"* %99 to %"struct.std::_Vector_base"*
  %105 = getelementptr inbounds %"struct.std::_Vector_base", %"struct.std::_Vector_base"* %104, i32 0, i32 0
  %106 = getelementptr inbounds %"struct.std::_Vector_base<std::vector<Edge, std::allocator<Edge> >, std::allocator<std::vector<Edge, std::allocator<Edge> > > >::_Vector_impl", %"struct.std::_Vector_base<std::vector<Edge, std::allocator<Edge> >, std::allocator<std::vector<Edge, std::allocator<Edge> > > >::_Vector_impl"* %105, i32 0, i32 1
  %107 = load %"class.std::vector.0"*, %"class.std::vector.0"** %106, align 8
  %108 = bitcast %"class.std::vector"* %99 to %"struct.std::_Vector_base"*
  %109 = call dereferenceable(1) %"class.std::allocator"* @_ZNSt12_Vector_baseISt6vectorI4EdgeSaIS1_EESaIS3_EE19_M_get_Tp_allocatorEv(%"struct.std::_Vector_base"* %108) #4
  br label %28

; <label>:110:                                    ; preds = %72, %57
  %111 = bitcast %"class.std::vector"* %32 to %"struct.std::_Vector_base"*
  call void @_ZNSt12_Vector_baseISt6vectorI4EdgeSaIS1_EESaIS3_EED2Ev(%"struct.std::_Vector_base"* %111) #4
  br label %72
}

; Function Attrs: noinline nounwind uwtable
define linkonce_odr void @_ZNSt5stackIiSt5dequeIiSaIiEEED2Ev(%"class.std::stack"*) unnamed_addr #1 comdat align 2 {
  %2 = alloca %"class.std::stack"*, align 8
  store %"class.std::stack"* %0, %"class.std::stack"** %2, align 8
  %3 = load %"class.std::stack"*, %"class.std::stack"** %2, align 8
  %4 = getelementptr inbounds %"class.std::stack", %"class.std::stack"* %3, i32 0, i32 0
  call void @_ZNSt5dequeIiSaIiEED2Ev(%"class.std::deque"* %4) #4
  ret void
}

; Function Attrs: noinline nounwind uwtable
define linkonce_odr void @_ZNSt6vectorIS_IiSaIiEESaIS1_EED2Ev(%"class.std::vector.26"*) unnamed_addr #1 comdat align 2 personality i8* bitcast (i32 (...)* @__gxx_personality_v0 to i8*) {
  %2 = load i32, i32* @x.145
  %3 = load i32, i32* @y.146
  %4 = sub i32 0, 1
  %5 = add i32 %2, %4
  %6 = sub i32 %2, 1
  %7 = mul i32 %2, %5
  %8 = urem i32 %7, 2
  %9 = icmp eq i32 %8, 0
  %10 = icmp slt i32 %3, 10
  %11 = and i1 %9, %10
  %12 = xor i1 %9, %10
  %13 = or i1 %11, %12
  %14 = or i1 %9, %10
  br i1 %13, label %15, label %107

; <label>:15:                                     ; preds = %1, %107
  %16 = alloca %"class.std::vector.26"*, align 8
  %17 = alloca i8*
  %18 = alloca i32
  store %"class.std::vector.26"* %0, %"class.std::vector.26"** %16, align 8
  %19 = load %"class.std::vector.26"*, %"class.std::vector.26"** %16, align 8
  %20 = bitcast %"class.std::vector.26"* %19 to %"struct.std::_Vector_base.27"*
  %21 = getelementptr inbounds %"struct.std::_Vector_base.27", %"struct.std::_Vector_base.27"* %20, i32 0, i32 0
  %22 = getelementptr inbounds %"struct.std::_Vector_base<std::vector<int, std::allocator<int> >, std::allocator<std::vector<int, std::allocator<int> > > >::_Vector_impl", %"struct.std::_Vector_base<std::vector<int, std::allocator<int> >, std::allocator<std::vector<int, std::allocator<int> > > >::_Vector_impl"* %21, i32 0, i32 0
  %23 = load %"class.std::vector.5"*, %"class.std::vector.5"** %22, align 8
  %24 = bitcast %"class.std::vector.26"* %19 to %"struct.std::_Vector_base.27"*
  %25 = getelementptr inbounds %"struct.std::_Vector_base.27", %"struct.std::_Vector_base.27"* %24, i32 0, i32 0
  %26 = getelementptr inbounds %"struct.std::_Vector_base<std::vector<int, std::allocator<int> >, std::allocator<std::vector<int, std::allocator<int> > > >::_Vector_impl", %"struct.std::_Vector_base<std::vector<int, std::allocator<int> >, std::allocator<std::vector<int, std::allocator<int> > > >::_Vector_impl"* %25, i32 0, i32 1
  %27 = load %"class.std::vector.5"*, %"class.std::vector.5"** %26, align 8
  %28 = bitcast %"class.std::vector.26"* %19 to %"struct.std::_Vector_base.27"*
  %29 = call dereferenceable(1) %"class.std::allocator.28"* @_ZNSt12_Vector_baseISt6vectorIiSaIiEESaIS2_EE19_M_get_Tp_allocatorEv(%"struct.std::_Vector_base.27"* %28) #4
  %30 = load i32, i32* @x.145
  %31 = load i32, i32* @y.146
  %32 = add i32 %30, 568972248
  %33 = sub i32 %32, 1
  %34 = sub i32 %33, 568972248
  %35 = sub i32 %30, 1
  %36 = mul i32 %30, %34
  %37 = urem i32 %36, 2
  %38 = icmp eq i32 %37, 0
  %39 = icmp slt i32 %31, 10
  %40 = xor i1 %38, true
  %41 = xor i1 %39, true
  %42 = xor i1 true, true
  %43 = and i1 %40, true
  %44 = and i1 %38, %42
  %45 = and i1 %41, true
  %46 = and i1 %39, %42
  %47 = or i1 %43, %44
  %48 = or i1 %45, %46
  %49 = xor i1 %47, %48
  %50 = or i1 %40, %41
  %51 = xor i1 %50, true
  %52 = or i1 true, %42
  %53 = and i1 %51, %52
  %54 = or i1 %49, %53
  %55 = or i1 %38, %39
  br i1 %54, label %56, label %107

; <label>:56:                                     ; preds = %15
  invoke void @_ZSt8_DestroyIPSt6vectorIiSaIiEES2_EvT_S4_RSaIT0_E(%"class.std::vector.5"* %23, %"class.std::vector.5"* %27, %"class.std::allocator.28"* dereferenceable(1) %29)
          to label %57 unwind label %100

; <label>:57:                                     ; preds = %56
  %58 = load i32, i32* @x.145
  %59 = load i32, i32* @y.146
  %60 = sub i32 0, 1
  %61 = add i32 %58, %60
  %62 = sub i32 %58, 1
  %63 = mul i32 %58, %61
  %64 = urem i32 %63, 2
  %65 = icmp eq i32 %64, 0
  %66 = icmp slt i32 %59, 10
  %67 = and i1 %65, %66
  %68 = xor i1 %65, %66
  %69 = or i1 %67, %68
  %70 = or i1 %65, %66
  br i1 %69, label %71, label %122

; <label>:71:                                     ; preds = %57, %122
  %72 = bitcast %"class.std::vector.26"* %19 to %"struct.std::_Vector_base.27"*
  call void @_ZNSt12_Vector_baseISt6vectorIiSaIiEESaIS2_EED2Ev(%"struct.std::_Vector_base.27"* %72) #4
  %73 = load i32, i32* @x.145
  %74 = load i32, i32* @y.146
  %75 = add i32 %73, 274792271
  %76 = sub i32 %75, 1
  %77 = sub i32 %76, 274792271
  %78 = sub i32 %73, 1
  %79 = mul i32 %73, %77
  %80 = urem i32 %79, 2
  %81 = icmp eq i32 %80, 0
  %82 = icmp slt i32 %74, 10
  %83 = xor i1 %81, true
  %84 = xor i1 %82, true
  %85 = xor i1 false, true
  %86 = and i1 %83, false
  %87 = and i1 %81, %85
  %88 = and i1 %84, false
  %89 = and i1 %82, %85
  %90 = or i1 %86, %87
  %91 = or i1 %88, %89
  %92 = xor i1 %90, %91
  %93 = or i1 %83, %84
  %94 = xor i1 %93, true
  %95 = or i1 false, %85
  %96 = and i1 %94, %95
  %97 = or i1 %92, %96
  %98 = or i1 %81, %82
  br i1 %97, label %99, label %122

; <label>:99:                                     ; preds = %71
  ret void

; <label>:100:                                    ; preds = %56
  %101 = landingpad { i8*, i32 }
          catch i8* null
  %102 = extractvalue { i8*, i32 } %101, 0
  store i8* %102, i8** %17, align 8
  %103 = extractvalue { i8*, i32 } %101, 1
  store i32 %103, i32* %18, align 4
  %104 = bitcast %"class.std::vector.26"* %19 to %"struct.std::_Vector_base.27"*
  call void @_ZNSt12_Vector_baseISt6vectorIiSaIiEESaIS2_EED2Ev(%"struct.std::_Vector_base.27"* %104) #4
  br label %105

; <label>:105:                                    ; preds = %100
  %106 = load i8*, i8** %17, align 8
  call void @__clang_call_terminate(i8* %106) #8
  unreachable

; <label>:107:                                    ; preds = %15, %1
  %108 = alloca %"class.std::vector.26"*, align 8
  %109 = alloca i8*
  %110 = alloca i32
  store %"class.std::vector.26"* %0, %"class.std::vector.26"** %108, align 8
  %111 = load %"class.std::vector.26"*, %"class.std::vector.26"** %108, align 8
  %112 = bitcast %"class.std::vector.26"* %111 to %"struct.std::_Vector_base.27"*
  %113 = getelementptr inbounds %"struct.std::_Vector_base.27", %"struct.std::_Vector_base.27"* %112, i32 0, i32 0
  %114 = getelementptr inbounds %"struct.std::_Vector_base<std::vector<int, std::allocator<int> >, std::allocator<std::vector<int, std::allocator<int> > > >::_Vector_impl", %"struct.std::_Vector_base<std::vector<int, std::allocator<int> >, std::allocator<std::vector<int, std::allocator<int> > > >::_Vector_impl"* %113, i32 0, i32 0
  %115 = load %"class.std::vector.5"*, %"class.std::vector.5"** %114, align 8
  %116 = bitcast %"class.std::vector.26"* %111 to %"struct.std::_Vector_base.27"*
  %117 = getelementptr inbounds %"struct.std::_Vector_base.27", %"struct.std::_Vector_base.27"* %116, i32 0, i32 0
  %118 = getelementptr inbounds %"struct.std::_Vector_base<std::vector<int, std::allocator<int> >, std::allocator<std::vector<int, std::allocator<int> > > >::_Vector_impl", %"struct.std::_Vector_base<std::vector<int, std::allocator<int> >, std::allocator<std::vector<int, std::allocator<int> > > >::_Vector_impl"* %117, i32 0, i32 1
  %119 = load %"class.std::vector.5"*, %"class.std::vector.5"** %118, align 8
  %120 = bitcast %"class.std::vector.26"* %111 to %"struct.std::_Vector_base.27"*
  %121 = call dereferenceable(1) %"class.std::allocator.28"* @_ZNSt12_Vector_baseISt6vectorIiSaIiEESaIS2_EE19_M_get_Tp_allocatorEv(%"struct.std::_Vector_base.27"* %120) #4
  br label %15

; <label>:122:                                    ; preds = %71, %57
  %123 = bitcast %"class.std::vector.26"* %19 to %"struct.std::_Vector_base.27"*
  call void @_ZNSt12_Vector_baseISt6vectorIiSaIiEESaIS2_EED2Ev(%"struct.std::_Vector_base.27"* %123) #4
  br label %71
}

; Function Attrs: noinline nounwind uwtable
define linkonce_odr dereferenceable(16) %"struct.std::_Bit_reference"* @_ZNSt14_Bit_referenceaSEb(%"struct.std::_Bit_reference"*, i1 zeroext) #1 comdat align 2 {
  %3 = alloca i8
  %4 = alloca %"struct.std::_Bit_reference"*
  %5 = alloca %"struct.std::_Bit_reference"*, align 8
  %6 = alloca i8, align 1
  store %"struct.std::_Bit_reference"* %0, %"struct.std::_Bit_reference"** %5, align 8
  %7 = zext i1 %1 to i8
  store i8 %7, i8* %6, align 1
  %8 = load %"struct.std::_Bit_reference"*, %"struct.std::_Bit_reference"** %5, align 8
  store %"struct.std::_Bit_reference"* %8, %"struct.std::_Bit_reference"** %4
  %9 = load i8, i8* %6, align 1
  store i8 %9, i8* %3
  %10 = alloca i32
  store i32 -993358704, i32* %10
  br label %11

; <label>:11:                                     ; preds = %2, %71
  %12 = load i32, i32* %10
  switch i32 %12, label %13 [
    i32 -993358704, label %14
    i32 -532749894, label %18
    i32 -171773900, label %42
    i32 595880710, label %69
  ]

; <label>:13:                                     ; preds = %11
  br label %71

; <label>:14:                                     ; preds = %11
  %15 = load volatile i8, i8* %3
  %16 = trunc i8 %15 to i1
  %17 = select i1 %16, i32 -532749894, i32 -171773900
  store i32 %17, i32* %10
  br label %71

; <label>:18:                                     ; preds = %11
  %19 = load volatile %"struct.std::_Bit_reference"*, %"struct.std::_Bit_reference"** %4
  %20 = getelementptr inbounds %"struct.std::_Bit_reference", %"struct.std::_Bit_reference"* %19, i32 0, i32 1
  %21 = load i64, i64* %20, align 8
  %22 = load volatile %"struct.std::_Bit_reference"*, %"struct.std::_Bit_reference"** %4
  %23 = getelementptr inbounds %"struct.std::_Bit_reference", %"struct.std::_Bit_reference"* %22, i32 0, i32 0
  %24 = load i64*, i64** %23, align 8
  %25 = load i64, i64* %24, align 8
  %26 = xor i64 %25, -1
  %27 = xor i64 %21, -1
  %28 = xor i64 6173550578630527736, -1
  %29 = and i64 %26, 6173550578630527736
  %30 = and i64 %25, %28
  %31 = and i64 %27, 6173550578630527736
  %32 = and i64 %21, %28
  %33 = or i64 %29, %30
  %34 = or i64 %31, %32
  %35 = xor i64 %33, %34
  %36 = or i64 %26, %27
  %37 = xor i64 %36, -1
  %38 = or i64 6173550578630527736, %28
  %39 = and i64 %37, %38
  %40 = or i64 %35, %39
  %41 = or i64 %25, %21
  store i64 %40, i64* %24, align 8
  store i32 595880710, i32* %10
  br label %71

; <label>:42:                                     ; preds = %11
  %43 = load volatile %"struct.std::_Bit_reference"*, %"struct.std::_Bit_reference"** %4
  %44 = getelementptr inbounds %"struct.std::_Bit_reference", %"struct.std::_Bit_reference"* %43, i32 0, i32 1
  %45 = load i64, i64* %44, align 8
  %46 = xor i64 %45, -1
  %47 = and i64 6506693856022258713, %46
  %48 = xor i64 6506693856022258713, -1
  %49 = and i64 %45, %48
  %50 = xor i64 -1, -1
  %51 = and i64 %50, 6506693856022258713
  %52 = and i64 -1, %48
  %53 = or i64 %47, %49
  %54 = or i64 %51, %52
  %55 = xor i64 %53, %54
  %56 = xor i64 %45, -1
  %57 = load volatile %"struct.std::_Bit_reference"*, %"struct.std::_Bit_reference"** %4
  %58 = getelementptr inbounds %"struct.std::_Bit_reference", %"struct.std::_Bit_reference"* %57, i32 0, i32 0
  %59 = load i64*, i64** %58, align 8
  %60 = load i64, i64* %59, align 8
  %61 = xor i64 %60, -1
  %62 = xor i64 %55, -1
  %63 = xor i64 6674853117748511968, -1
  %64 = or i64 %61, %62
  %65 = or i64 6674853117748511968, %63
  %66 = xor i64 %64, -1
  %67 = and i64 %66, %65
  %68 = and i64 %60, %55
  store i64 %67, i64* %59, align 8
  store i32 595880710, i32* %10
  br label %71

; <label>:69:                                     ; preds = %11
  %70 = load volatile %"struct.std::_Bit_reference"*, %"struct.std::_Bit_reference"** %4
  ret %"struct.std::_Bit_reference"* %70

; <label>:71:                                     ; preds = %42, %18, %14, %13
  br label %11
}

; Function Attrs: noinline uwtable
define linkonce_odr void @_ZNSt5stackIiSt5dequeIiSaIiEEE4pushERKi(%"class.std::stack"*, i32* dereferenceable(4)) #0 comdat align 2 {
  %3 = alloca i1
  %4 = alloca i1
  %5 = load i32, i32* @x.149
  %6 = load i32, i32* @y.150
  %7 = sub i32 %5, 267908977
  %8 = sub i32 %7, 1
  %9 = add i32 %8, 267908977
  %10 = sub i32 %5, 1
  %11 = mul i32 %5, %9
  %12 = urem i32 %11, 2
  %13 = icmp eq i32 %12, 0
  store i1 %13, i1* %4
  %14 = icmp slt i32 %6, 10
  store i1 %14, i1* %3
  %15 = alloca i32
  store i32 1173398540, i32* %15
  br label %16

; <label>:16:                                     ; preds = %2, %55
  %17 = load i32, i32* %15
  switch i32 %17, label %18 [
    i32 1173398540, label %19
    i32 2073641101, label %27
    i32 -1672653746, label %48
    i32 1058083954, label %49
  ]

; <label>:18:                                     ; preds = %16
  br label %55

; <label>:19:                                     ; preds = %16
  %20 = load volatile i1, i1* %4
  %21 = load volatile i1, i1* %3
  %22 = and i1 %20, %21
  %23 = xor i1 %20, %21
  %24 = or i1 %22, %23
  %25 = or i1 %20, %21
  %26 = select i1 %24, i32 2073641101, i32 1058083954
  store i32 %26, i32* %15
  br label %55

; <label>:27:                                     ; preds = %16
  %28 = alloca %"class.std::stack"*, align 8
  %29 = alloca i32*, align 8
  store %"class.std::stack"* %0, %"class.std::stack"** %28, align 8
  store i32* %1, i32** %29, align 8
  %30 = load %"class.std::stack"*, %"class.std::stack"** %28, align 8
  %31 = getelementptr inbounds %"class.std::stack", %"class.std::stack"* %30, i32 0, i32 0
  %32 = load i32*, i32** %29, align 8
  call void @_ZNSt5dequeIiSaIiEE9push_backERKi(%"class.std::deque"* %31, i32* dereferenceable(4) %32)
  %33 = load i32, i32* @x.149
  %34 = load i32, i32* @y.150
  %35 = sub i32 %33, 405836672
  %36 = sub i32 %35, 1
  %37 = add i32 %36, 405836672
  %38 = sub i32 %33, 1
  %39 = mul i32 %33, %37
  %40 = urem i32 %39, 2
  %41 = icmp eq i32 %40, 0
  %42 = icmp slt i32 %34, 10
  %43 = and i1 %41, %42
  %44 = xor i1 %41, %42
  %45 = or i1 %43, %44
  %46 = or i1 %41, %42
  %47 = select i1 %45, i32 -1672653746, i32 1058083954
  store i32 %47, i32* %15
  br label %55

; <label>:48:                                     ; preds = %16
  ret void

; <label>:49:                                     ; preds = %16
  %50 = alloca %"class.std::stack"*, align 8
  %51 = alloca i32*, align 8
  store %"class.std::stack"* %0, %"class.std::stack"** %50, align 8
  store i32* %1, i32** %51, align 8
  %52 = load %"class.std::stack"*, %"class.std::stack"** %50, align 8
  %53 = getelementptr inbounds %"class.std::stack", %"class.std::stack"* %52, i32 0, i32 0
  %54 = load i32*, i32** %51, align 8
  call void @_ZNSt5dequeIiSaIiEE9push_backERKi(%"class.std::deque"* %53, i32* dereferenceable(4) %54)
  store i32 2073641101, i32* %15
  br label %55

; <label>:55:                                     ; preds = %49, %27, %19, %18
  br label %16
}

; Function Attrs: noinline nounwind uwtable
define linkonce_odr void @_ZNSt6vectorIiSaIiEEC2Ev(%"class.std::vector.5"*) unnamed_addr #1 comdat align 2 personality i8* bitcast (i32 (...)* @__gxx_personality_v0 to i8*) {
  %2 = load i32, i32* @x.151
  %3 = load i32, i32* @y.152
  %4 = add i32 %2, -112461869
  %5 = sub i32 %4, 1
  %6 = sub i32 %5, -112461869
  %7 = sub i32 %2, 1
  %8 = mul i32 %2, %6
  %9 = urem i32 %8, 2
  %10 = icmp eq i32 %9, 0
  %11 = icmp slt i32 %3, 10
  %12 = and i1 %10, %11
  %13 = xor i1 %10, %11
  %14 = or i1 %12, %13
  %15 = or i1 %10, %11
  br i1 %14, label %16, label %78

; <label>:16:                                     ; preds = %1, %78
  %17 = alloca %"class.std::vector.5"*, align 8
  store %"class.std::vector.5"* %0, %"class.std::vector.5"** %17, align 8
  %18 = load %"class.std::vector.5"*, %"class.std::vector.5"** %17, align 8
  %19 = bitcast %"class.std::vector.5"* %18 to %"struct.std::_Vector_base.6"*
  %20 = load i32, i32* @x.151
  %21 = load i32, i32* @y.152
  %22 = sub i32 0, 1
  %23 = add i32 %20, %22
  %24 = sub i32 %20, 1
  %25 = mul i32 %20, %23
  %26 = urem i32 %25, 2
  %27 = icmp eq i32 %26, 0
  %28 = icmp slt i32 %21, 10
  %29 = and i1 %27, %28
  %30 = xor i1 %27, %28
  %31 = or i1 %29, %30
  %32 = or i1 %27, %28
  br i1 %31, label %33, label %78

; <label>:33:                                     ; preds = %16
  invoke void @_ZNSt12_Vector_baseIiSaIiEEC2Ev(%"struct.std::_Vector_base.6"* %19)
          to label %34 unwind label %35

; <label>:34:                                     ; preds = %33
  ret void

; <label>:35:                                     ; preds = %33
  %36 = load i32, i32* @x.151
  %37 = load i32, i32* @y.152
  %38 = sub i32 0, 1
  %39 = add i32 %36, %38
  %40 = sub i32 %36, 1
  %41 = mul i32 %36, %39
  %42 = urem i32 %41, 2
  %43 = icmp eq i32 %42, 0
  %44 = icmp slt i32 %37, 10
  %45 = and i1 %43, %44
  %46 = xor i1 %43, %44
  %47 = or i1 %45, %46
  %48 = or i1 %43, %44
  br i1 %47, label %49, label %82

; <label>:49:                                     ; preds = %35, %82
  %50 = landingpad { i8*, i32 }
          catch i8* null
  %51 = extractvalue { i8*, i32 } %50, 0
  call void @__clang_call_terminate(i8* %51) #8
  %52 = load i32, i32* @x.151
  %53 = load i32, i32* @y.152
  %54 = sub i32 0, 1
  %55 = add i32 %52, %54
  %56 = sub i32 %52, 1
  %57 = mul i32 %52, %55
  %58 = urem i32 %57, 2
  %59 = icmp eq i32 %58, 0
  %60 = icmp slt i32 %53, 10
  %61 = xor i1 %59, true
  %62 = xor i1 %60, true
  %63 = xor i1 false, true
  %64 = and i1 %61, false
  %65 = and i1 %59, %63
  %66 = and i1 %62, false
  %67 = and i1 %60, %63
  %68 = or i1 %64, %65
  %69 = or i1 %66, %67
  %70 = xor i1 %68, %69
  %71 = or i1 %61, %62
  %72 = xor i1 %71, true
  %73 = or i1 false, %63
  %74 = and i1 %72, %73
  %75 = or i1 %70, %74
  %76 = or i1 %59, %60
  br i1 %75, label %77, label %82

; <label>:77:                                     ; preds = %49
  unreachable

; <label>:78:                                     ; preds = %16, %1
  %79 = alloca %"class.std::vector.5"*, align 8
  store %"class.std::vector.5"* %0, %"class.std::vector.5"** %79, align 8
  %80 = load %"class.std::vector.5"*, %"class.std::vector.5"** %79, align 8
  %81 = bitcast %"class.std::vector.5"* %80 to %"struct.std::_Vector_base.6"*
  br label %16

; <label>:82:                                     ; preds = %49, %35
  %83 = landingpad { i8*, i32 }
          catch i8* null
  %84 = extractvalue { i8*, i32 } %83, 0
  call void @__clang_call_terminate(i8* %84) #8
  br label %49
}

; Function Attrs: noinline uwtable
define linkonce_odr void @_ZNSt6vectorIiSaIiEE9push_backERKi(%"class.std::vector.5"*, i32* dereferenceable(4)) #0 comdat align 2 {
  %3 = alloca i32*
  %4 = alloca i32*
  %5 = alloca %"class.std::vector.5"*
  %6 = alloca %"class.std::vector.5"*, align 8
  %7 = alloca i32*, align 8
  store %"class.std::vector.5"* %0, %"class.std::vector.5"** %6, align 8
  store i32* %1, i32** %7, align 8
  %8 = load %"class.std::vector.5"*, %"class.std::vector.5"** %6, align 8
  store %"class.std::vector.5"* %8, %"class.std::vector.5"** %5
  %9 = load volatile %"class.std::vector.5"*, %"class.std::vector.5"** %5
  %10 = bitcast %"class.std::vector.5"* %9 to %"struct.std::_Vector_base.6"*
  %11 = getelementptr inbounds %"struct.std::_Vector_base.6", %"struct.std::_Vector_base.6"* %10, i32 0, i32 0
  %12 = getelementptr inbounds %"struct.std::_Vector_base<int, std::allocator<int> >::_Vector_impl", %"struct.std::_Vector_base<int, std::allocator<int> >::_Vector_impl"* %11, i32 0, i32 1
  %13 = load i32*, i32** %12, align 8
  store i32* %13, i32** %4
  %14 = load volatile %"class.std::vector.5"*, %"class.std::vector.5"** %5
  %15 = bitcast %"class.std::vector.5"* %14 to %"struct.std::_Vector_base.6"*
  %16 = getelementptr inbounds %"struct.std::_Vector_base.6", %"struct.std::_Vector_base.6"* %15, i32 0, i32 0
  %17 = getelementptr inbounds %"struct.std::_Vector_base<int, std::allocator<int> >::_Vector_impl", %"struct.std::_Vector_base<int, std::allocator<int> >::_Vector_impl"* %16, i32 0, i32 2
  %18 = load i32*, i32** %17, align 8
  store i32* %18, i32** %3
  %19 = alloca i32
  store i32 1061718661, i32* %19
  br label %20

; <label>:20:                                     ; preds = %2, %49
  %21 = load i32, i32* %19
  switch i32 %21, label %22 [
    i32 1061718661, label %23
    i32 1540643316, label %28
    i32 258994039, label %45
    i32 912181008, label %48
  ]

; <label>:22:                                     ; preds = %20
  br label %49

; <label>:23:                                     ; preds = %20
  %24 = load volatile i32*, i32** %4
  %25 = load volatile i32*, i32** %3
  %26 = icmp ne i32* %24, %25
  %27 = select i1 %26, i32 1540643316, i32 258994039
  store i32 %27, i32* %19
  br label %49

; <label>:28:                                     ; preds = %20
  %29 = load volatile %"class.std::vector.5"*, %"class.std::vector.5"** %5
  %30 = bitcast %"class.std::vector.5"* %29 to %"struct.std::_Vector_base.6"*
  %31 = getelementptr inbounds %"struct.std::_Vector_base.6", %"struct.std::_Vector_base.6"* %30, i32 0, i32 0
  %32 = bitcast %"struct.std::_Vector_base<int, std::allocator<int> >::_Vector_impl"* %31 to %"class.std::allocator.7"*
  %33 = load volatile %"class.std::vector.5"*, %"class.std::vector.5"** %5
  %34 = bitcast %"class.std::vector.5"* %33 to %"struct.std::_Vector_base.6"*
  %35 = getelementptr inbounds %"struct.std::_Vector_base.6", %"struct.std::_Vector_base.6"* %34, i32 0, i32 0
  %36 = getelementptr inbounds %"struct.std::_Vector_base<int, std::allocator<int> >::_Vector_impl", %"struct.std::_Vector_base<int, std::allocator<int> >::_Vector_impl"* %35, i32 0, i32 1
  %37 = load i32*, i32** %36, align 8
  %38 = load i32*, i32** %7, align 8
  call void @_ZNSt16allocator_traitsISaIiEE9constructIiJRKiEEEvRS0_PT_DpOT0_(%"class.std::allocator.7"* dereferenceable(1) %32, i32* %37, i32* dereferenceable(4) %38)
  %39 = load volatile %"class.std::vector.5"*, %"class.std::vector.5"** %5
  %40 = bitcast %"class.std::vector.5"* %39 to %"struct.std::_Vector_base.6"*
  %41 = getelementptr inbounds %"struct.std::_Vector_base.6", %"struct.std::_Vector_base.6"* %40, i32 0, i32 0
  %42 = getelementptr inbounds %"struct.std::_Vector_base<int, std::allocator<int> >::_Vector_impl", %"struct.std::_Vector_base<int, std::allocator<int> >::_Vector_impl"* %41, i32 0, i32 1
  %43 = load i32*, i32** %42, align 8
  %44 = getelementptr inbounds i32, i32* %43, i32 1
  store i32* %44, i32** %42, align 8
  store i32 912181008, i32* %19
  br label %49

; <label>:45:                                     ; preds = %20
  %46 = load i32*, i32** %7, align 8
  %47 = load volatile %"class.std::vector.5"*, %"class.std::vector.5"** %5
  call void @_ZNSt6vectorIiSaIiEE19_M_emplace_back_auxIJRKiEEEvDpOT_(%"class.std::vector.5"* %47, i32* dereferenceable(4) %46)
  store i32 912181008, i32* %19
  br label %49

; <label>:48:                                     ; preds = %20
  ret void

; <label>:49:                                     ; preds = %45, %28, %23, %22
  br label %20
}

; Function Attrs: noinline nounwind uwtable
define linkonce_odr dereferenceable(24) %"class.std::vector.0"* @_ZNKSt6vectorIS_I4EdgeSaIS0_EESaIS2_EEixEm(%"class.std::vector"*, i64) #1 comdat align 2 {
  %3 = alloca %"class.std::vector"*, align 8
  %4 = alloca i64, align 8
  store %"class.std::vector"* %0, %"class.std::vector"** %3, align 8
  store i64 %1, i64* %4, align 8
  %5 = load %"class.std::vector"*, %"class.std::vector"** %3, align 8
  %6 = bitcast %"class.std::vector"* %5 to %"struct.std::_Vector_base"*
  %7 = getelementptr inbounds %"struct.std::_Vector_base", %"struct.std::_Vector_base"* %6, i32 0, i32 0
  %8 = getelementptr inbounds %"struct.std::_Vector_base<std::vector<Edge, std::allocator<Edge> >, std::allocator<std::vector<Edge, std::allocator<Edge> > > >::_Vector_impl", %"struct.std::_Vector_base<std::vector<Edge, std::allocator<Edge> >, std::allocator<std::vector<Edge, std::allocator<Edge> > > >::_Vector_impl"* %7, i32 0, i32 0
  %9 = load %"class.std::vector.0"*, %"class.std::vector.0"** %8, align 8
  %10 = load i64, i64* %4, align 8
  %11 = getelementptr inbounds %"class.std::vector.0", %"class.std::vector.0"* %9, i64 %10
  ret %"class.std::vector.0"* %11
}

; Function Attrs: noinline uwtable
define linkonce_odr i32* @_ZNSt6vectorIiSaIiEE6insertIN9__gnu_cxx17__normal_iteratorIPiS1_EEvEES6_NS4_IPKiS1_EET_SA_(%"class.std::vector.5"*, i32*, i32*, i32*) #0 comdat align 2 {
  %5 = alloca %"class.__gnu_cxx::__normal_iterator.38", align 8
  %6 = alloca %"class.__gnu_cxx::__normal_iterator.39", align 8
  %7 = alloca %"class.__gnu_cxx::__normal_iterator.38", align 8
  %8 = alloca %"class.__gnu_cxx::__normal_iterator.38", align 8
  %9 = alloca %"class.std::vector.5"*, align 8
  %10 = alloca i64, align 8
  %11 = alloca %"class.__gnu_cxx::__normal_iterator.39", align 8
  %12 = alloca %"class.__gnu_cxx::__normal_iterator.38", align 8
  %13 = alloca %"class.__gnu_cxx::__normal_iterator.38", align 8
  %14 = alloca %"class.__gnu_cxx::__normal_iterator.38", align 8
  %15 = alloca %"class.__gnu_cxx::__normal_iterator.38", align 8
  %16 = alloca %"struct.std::__false_type", align 1
  %17 = alloca %"class.__gnu_cxx::__normal_iterator.38", align 8
  %18 = getelementptr inbounds %"class.__gnu_cxx::__normal_iterator.39", %"class.__gnu_cxx::__normal_iterator.39"* %6, i32 0, i32 0
  store i32* %1, i32** %18, align 8
  %19 = getelementptr inbounds %"class.__gnu_cxx::__normal_iterator.38", %"class.__gnu_cxx::__normal_iterator.38"* %7, i32 0, i32 0
  store i32* %2, i32** %19, align 8
  %20 = getelementptr inbounds %"class.__gnu_cxx::__normal_iterator.38", %"class.__gnu_cxx::__normal_iterator.38"* %8, i32 0, i32 0
  store i32* %3, i32** %20, align 8
  store %"class.std::vector.5"* %0, %"class.std::vector.5"** %9, align 8
  %21 = load %"class.std::vector.5"*, %"class.std::vector.5"** %9, align 8
  %22 = call i32* @_ZNKSt6vectorIiSaIiEE6cbeginEv(%"class.std::vector.5"* %21) #4
  %23 = getelementptr inbounds %"class.__gnu_cxx::__normal_iterator.39", %"class.__gnu_cxx::__normal_iterator.39"* %11, i32 0, i32 0
  store i32* %22, i32** %23, align 8
  %24 = call i64 @_ZN9__gnu_cxxmiIPKiSt6vectorIiSaIiEEEENS_17__normal_iteratorIT_T0_E15difference_typeERKS9_SC_(%"class.__gnu_cxx::__normal_iterator.39"* dereferenceable(8) %6, %"class.__gnu_cxx::__normal_iterator.39"* dereferenceable(8) %11) #4
  store i64 %24, i64* %10, align 8
  %25 = call i32* @_ZNSt6vectorIiSaIiEE5beginEv(%"class.std::vector.5"* %21) #4
  %26 = getelementptr inbounds %"class.__gnu_cxx::__normal_iterator.38", %"class.__gnu_cxx::__normal_iterator.38"* %13, i32 0, i32 0
  store i32* %25, i32** %26, align 8
  %27 = load i64, i64* %10, align 8
  %28 = call i32* @_ZNK9__gnu_cxx17__normal_iteratorIPiSt6vectorIiSaIiEEEplEl(%"class.__gnu_cxx::__normal_iterator.38"* %13, i64 %27) #4
  %29 = getelementptr inbounds %"class.__gnu_cxx::__normal_iterator.38", %"class.__gnu_cxx::__normal_iterator.38"* %12, i32 0, i32 0
  store i32* %28, i32** %29, align 8
  %30 = bitcast %"class.__gnu_cxx::__normal_iterator.38"* %14 to i8*
  %31 = bitcast %"class.__gnu_cxx::__normal_iterator.38"* %7 to i8*
  call void @llvm.memcpy.p0i8.p0i8.i64(i8* %30, i8* %31, i64 8, i32 8, i1 false)
  %32 = bitcast %"class.__gnu_cxx::__normal_iterator.38"* %15 to i8*
  %33 = bitcast %"class.__gnu_cxx::__normal_iterator.38"* %8 to i8*
  call void @llvm.memcpy.p0i8.p0i8.i64(i8* %32, i8* %33, i64 8, i32 8, i1 false)
  %34 = getelementptr inbounds %"class.__gnu_cxx::__normal_iterator.38", %"class.__gnu_cxx::__normal_iterator.38"* %12, i32 0, i32 0
  %35 = load i32*, i32** %34, align 8
  %36 = getelementptr inbounds %"class.__gnu_cxx::__normal_iterator.38", %"class.__gnu_cxx::__normal_iterator.38"* %14, i32 0, i32 0
  %37 = load i32*, i32** %36, align 8
  %38 = getelementptr inbounds %"class.__gnu_cxx::__normal_iterator.38", %"class.__gnu_cxx::__normal_iterator.38"* %15, i32 0, i32 0
  %39 = load i32*, i32** %38, align 8
  call void @_ZNSt6vectorIiSaIiEE18_M_insert_dispatchIN9__gnu_cxx17__normal_iteratorIPiS1_EEEEvS6_T_S7_St12__false_type(%"class.std::vector.5"* %21, i32* %35, i32* %37, i32* %39)
  %40 = call i32* @_ZNSt6vectorIiSaIiEE5beginEv(%"class.std::vector.5"* %21) #4
  %41 = getelementptr inbounds %"class.__gnu_cxx::__normal_iterator.38", %"class.__gnu_cxx::__normal_iterator.38"* %17, i32 0, i32 0
  store i32* %40, i32** %41, align 8
  %42 = load i64, i64* %10, align 8
  %43 = call i32* @_ZNK9__gnu_cxx17__normal_iteratorIPiSt6vectorIiSaIiEEEplEl(%"class.__gnu_cxx::__normal_iterator.38"* %17, i64 %42) #4
  %44 = getelementptr inbounds %"class.__gnu_cxx::__normal_iterator.38", %"class.__gnu_cxx::__normal_iterator.38"* %5, i32 0, i32 0
  store i32* %43, i32** %44, align 8
  %45 = getelementptr inbounds %"class.__gnu_cxx::__normal_iterator.38", %"class.__gnu_cxx::__normal_iterator.38"* %5, i32 0, i32 0
  %46 = load i32*, i32** %45, align 8
  ret i32* %46
}

; Function Attrs: noinline nounwind uwtable
define linkonce_odr i32* @_ZNSt6vectorIiSaIiEE3endEv(%"class.std::vector.5"*) #1 comdat align 2 {
  %2 = alloca %"class.__gnu_cxx::__normal_iterator.38", align 8
  %3 = alloca %"class.std::vector.5"*, align 8
  store %"class.std::vector.5"* %0, %"class.std::vector.5"** %3, align 8
  %4 = load %"class.std::vector.5"*, %"class.std::vector.5"** %3, align 8
  %5 = bitcast %"class.std::vector.5"* %4 to %"struct.std::_Vector_base.6"*
  %6 = getelementptr inbounds %"struct.std::_Vector_base.6", %"struct.std::_Vector_base.6"* %5, i32 0, i32 0
  %7 = getelementptr inbounds %"struct.std::_Vector_base<int, std::allocator<int> >::_Vector_impl", %"struct.std::_Vector_base<int, std::allocator<int> >::_Vector_impl"* %6, i32 0, i32 1
  call void @_ZN9__gnu_cxx17__normal_iteratorIPiSt6vectorIiSaIiEEEC2ERKS1_(%"class.__gnu_cxx::__normal_iterator.38"* %2, i32** dereferenceable(8) %7) #4
  %8 = getelementptr inbounds %"class.__gnu_cxx::__normal_iterator.38", %"class.__gnu_cxx::__normal_iterator.38"* %2, i32 0, i32 0
  %9 = load i32*, i32** %8, align 8
  ret i32* %9
}

; Function Attrs: noinline nounwind uwtable
define linkonce_odr void @_ZN9__gnu_cxx17__normal_iteratorIPKiSt6vectorIiSaIiEEEC2IPiEERKNS0_IT_NS_11__enable_ifIXsr3std10__are_sameIS9_S8_EE7__valueES5_E6__typeEEE(%"class.__gnu_cxx::__normal_iterator.39"*, %"class.__gnu_cxx::__normal_iterator.38"* dereferenceable(8)) unnamed_addr #1 comdat align 2 {
  %3 = alloca %"class.__gnu_cxx::__normal_iterator.39"*, align 8
  %4 = alloca %"class.__gnu_cxx::__normal_iterator.38"*, align 8
  store %"class.__gnu_cxx::__normal_iterator.39"* %0, %"class.__gnu_cxx::__normal_iterator.39"** %3, align 8
  store %"class.__gnu_cxx::__normal_iterator.38"* %1, %"class.__gnu_cxx::__normal_iterator.38"** %4, align 8
  %5 = load %"class.__gnu_cxx::__normal_iterator.39"*, %"class.__gnu_cxx::__normal_iterator.39"** %3, align 8
  %6 = getelementptr inbounds %"class.__gnu_cxx::__normal_iterator.39", %"class.__gnu_cxx::__normal_iterator.39"* %5, i32 0, i32 0
  %7 = load %"class.__gnu_cxx::__normal_iterator.38"*, %"class.__gnu_cxx::__normal_iterator.38"** %4, align 8
  %8 = call dereferenceable(8) i32** @_ZNK9__gnu_cxx17__normal_iteratorIPiSt6vectorIiSaIiEEE4baseEv(%"class.__gnu_cxx::__normal_iterator.38"* %7) #4
  %9 = load i32*, i32** %8, align 8
  store i32* %9, i32** %6, align 8
  ret void
}

; Function Attrs: noinline nounwind uwtable
define linkonce_odr i32* @_ZNSt6vectorIiSaIiEE5beginEv(%"class.std::vector.5"*) #1 comdat align 2 {
  %2 = alloca %"class.__gnu_cxx::__normal_iterator.38", align 8
  %3 = alloca %"class.std::vector.5"*, align 8
  store %"class.std::vector.5"* %0, %"class.std::vector.5"** %3, align 8
  %4 = load %"class.std::vector.5"*, %"class.std::vector.5"** %3, align 8
  %5 = bitcast %"class.std::vector.5"* %4 to %"struct.std::_Vector_base.6"*
  %6 = getelementptr inbounds %"struct.std::_Vector_base.6", %"struct.std::_Vector_base.6"* %5, i32 0, i32 0
  %7 = getelementptr inbounds %"struct.std::_Vector_base<int, std::allocator<int> >::_Vector_impl", %"struct.std::_Vector_base<int, std::allocator<int> >::_Vector_impl"* %6, i32 0, i32 0
  call void @_ZN9__gnu_cxx17__normal_iteratorIPiSt6vectorIiSaIiEEEC2ERKS1_(%"class.__gnu_cxx::__normal_iterator.38"* %2, i32** dereferenceable(8) %7) #4
  %8 = getelementptr inbounds %"class.__gnu_cxx::__normal_iterator.38", %"class.__gnu_cxx::__normal_iterator.38"* %2, i32 0, i32 0
  %9 = load i32*, i32** %8, align 8
  ret i32* %9
}

; Function Attrs: noinline uwtable
define { i32, double } @_Z31diameter_of_unoriented_tree_dfsRK5Graphii(%class.Graph* dereferenceable(32), i32, i32) #0 {
  %4 = alloca %"class.std::tuple", align 8
  %5 = alloca %class.Graph*, align 8
  %6 = alloca i32, align 4
  %7 = alloca i32, align 4
  %8 = alloca double, align 8
  %9 = alloca %"class.std::vector.0"*, align 8
  %10 = alloca %"class.__gnu_cxx::__normal_iterator", align 8
  %11 = alloca %"class.__gnu_cxx::__normal_iterator", align 8
  %12 = alloca %class.Edge*, align 8
  %13 = alloca double, align 8
  %14 = alloca i32, align 4
  %15 = alloca %"class.std::tuple", align 8
  %16 = alloca %"class.std::tuple.40", align 8
  %17 = alloca %"class.std::tuple", align 8
  store %class.Graph* %0, %class.Graph** %5, align 8
  store i32 %1, i32* %6, align 4
  store i32 %2, i32* %7, align 4
  store double 0.000000e+00, double* %8, align 8
  call void @_ZNSt5tupleIJdiEEC2IdRKivEEOT_OT0_(%"class.std::tuple"* %4, double* dereferenceable(8) %8, i32* dereferenceable(4) %7)
  %18 = load %class.Graph*, %class.Graph** %5, align 8
  %19 = load i32, i32* %7, align 4
  %20 = call dereferenceable(24) %"class.std::vector.0"* @_ZNK5Graph4edgeEi(%class.Graph* %18, i32 %19)
  store %"class.std::vector.0"* %20, %"class.std::vector.0"** %9, align 8
  %21 = load %"class.std::vector.0"*, %"class.std::vector.0"** %9, align 8
  %22 = call %class.Edge* @_ZNKSt6vectorI4EdgeSaIS0_EE5beginEv(%"class.std::vector.0"* %21) #4
  %23 = getelementptr inbounds %"class.__gnu_cxx::__normal_iterator", %"class.__gnu_cxx::__normal_iterator"* %10, i32 0, i32 0
  store %class.Edge* %22, %class.Edge** %23, align 8
  %24 = load %"class.std::vector.0"*, %"class.std::vector.0"** %9, align 8
  %25 = call %class.Edge* @_ZNKSt6vectorI4EdgeSaIS0_EE3endEv(%"class.std::vector.0"* %24) #4
  %26 = getelementptr inbounds %"class.__gnu_cxx::__normal_iterator", %"class.__gnu_cxx::__normal_iterator"* %11, i32 0, i32 0
  store %class.Edge* %25, %class.Edge** %26, align 8
  %27 = alloca i32
  store i32 -1084613261, i32* %27
  br label %28

; <label>:28:                                     ; preds = %3, %144
  %29 = load i32, i32* %27
  switch i32 %29, label %30 [
    i32 -1084613261, label %31
    i32 -675430378, label %34
    i32 -1796150865, label %41
    i32 66361174, label %69
    i32 -1706225667, label %97
    i32 1609351227, label %98
    i32 1303217161, label %127
    i32 361705174, label %136
    i32 1278803477, label %137
    i32 1371358695, label %139
    i32 -1871501389, label %143
  ]

; <label>:30:                                     ; preds = %28
  br label %144

; <label>:31:                                     ; preds = %28
  %32 = call zeroext i1 @_ZN9__gnu_cxxneIPK4EdgeSt6vectorIS1_SaIS1_EEEEbRKNS_17__normal_iteratorIT_T0_EESC_(%"class.__gnu_cxx::__normal_iterator"* dereferenceable(8) %10, %"class.__gnu_cxx::__normal_iterator"* dereferenceable(8) %11) #4
  %33 = select i1 %32, i32 -675430378, i32 1371358695
  store i32 %33, i32* %27
  br label %144

; <label>:34:                                     ; preds = %28
  %35 = call dereferenceable(16) %class.Edge* @_ZNK9__gnu_cxx17__normal_iteratorIPK4EdgeSt6vectorIS1_SaIS1_EEEdeEv(%"class.__gnu_cxx::__normal_iterator"* %10) #4
  store %class.Edge* %35, %class.Edge** %12, align 8
  %36 = load %class.Edge*, %class.Edge** %12, align 8
  %37 = call i32 @_ZNK4Edge2toEv(%class.Edge* %36)
  %38 = load i32, i32* %6, align 4
  %39 = icmp eq i32 %37, %38
  %40 = select i1 %39, i32 -1796150865, i32 1609351227
  store i32 %40, i32* %27
  br label %144

; <label>:41:                                     ; preds = %28
  %42 = load i32, i32* @x.165
  %43 = load i32, i32* @y.166
  %44 = add i32 %42, -482188003
  %45 = sub i32 %44, 1
  %46 = sub i32 %45, -482188003
  %47 = sub i32 %42, 1
  %48 = mul i32 %42, %46
  %49 = urem i32 %48, 2
  %50 = icmp eq i32 %49, 0
  %51 = icmp slt i32 %43, 10
  %52 = xor i1 %50, true
  %53 = xor i1 %51, true
  %54 = xor i1 true, true
  %55 = and i1 %52, true
  %56 = and i1 %50, %54
  %57 = and i1 %53, true
  %58 = and i1 %51, %54
  %59 = or i1 %55, %56
  %60 = or i1 %57, %58
  %61 = xor i1 %59, %60
  %62 = or i1 %52, %53
  %63 = xor i1 %62, true
  %64 = or i1 true, %54
  %65 = and i1 %63, %64
  %66 = or i1 %61, %65
  %67 = or i1 %50, %51
  %68 = select i1 %66, i32 66361174, i32 -1871501389
  store i32 %68, i32* %27
  br label %144

; <label>:69:                                     ; preds = %28
  %70 = load i32, i32* @x.165
  %71 = load i32, i32* @y.166
  %72 = sub i32 %70, -616427378
  %73 = sub i32 %72, 1
  %74 = add i32 %73, -616427378
  %75 = sub i32 %70, 1
  %76 = mul i32 %70, %74
  %77 = urem i32 %76, 2
  %78 = icmp eq i32 %77, 0
  %79 = icmp slt i32 %71, 10
  %80 = xor i1 %78, true
  %81 = xor i1 %79, true
  %82 = xor i1 true, true
  %83 = and i1 %80, true
  %84 = and i1 %78, %82
  %85 = and i1 %81, true
  %86 = and i1 %79, %82
  %87 = or i1 %83, %84
  %88 = or i1 %85, %86
  %89 = xor i1 %87, %88
  %90 = or i1 %80, %81
  %91 = xor i1 %90, true
  %92 = or i1 true, %82
  %93 = and i1 %91, %92
  %94 = or i1 %89, %93
  %95 = or i1 %78, %79
  %96 = select i1 %94, i32 -1706225667, i32 -1871501389
  store i32 %96, i32* %27
  br label %144

; <label>:97:                                     ; preds = %28
  store i32 1278803477, i32* %27
  br label %144

; <label>:98:                                     ; preds = %28
  %99 = load %class.Graph*, %class.Graph** %5, align 8
  %100 = load i32, i32* %7, align 4
  %101 = load %class.Edge*, %class.Edge** %12, align 8
  %102 = call i32 @_ZNK4Edge2toEv(%class.Edge* %101)
  %103 = call { i32, double } @_Z31diameter_of_unoriented_tree_dfsRK5Graphii(%class.Graph* dereferenceable(32) %99, i32 %100, i32 %102)
  %104 = getelementptr inbounds %"class.std::tuple", %"class.std::tuple"* %15, i32 0, i32 0
  %105 = bitcast %"struct.std::_Tuple_impl"* %104 to { i32, double }*
  %106 = getelementptr inbounds { i32, double }, { i32, double }* %105, i32 0, i32 0
  %107 = extractvalue { i32, double } %103, 0
  store i32 %107, i32* %106, align 8
  %108 = getelementptr inbounds { i32, double }, { i32, double }* %105, i32 0, i32 1
  %109 = extractvalue { i32, double } %103, 1
  store double %109, double* %108, align 8
  %110 = call { i32*, double* } @_ZSt3tieIJdiEESt5tupleIJDpRT_EES3_(double* dereferenceable(8) %13, i32* dereferenceable(4) %14) #4
  %111 = getelementptr inbounds %"class.std::tuple.40", %"class.std::tuple.40"* %16, i32 0, i32 0
  %112 = bitcast %"struct.std::_Tuple_impl.41"* %111 to { i32*, double* }*
  %113 = getelementptr inbounds { i32*, double* }, { i32*, double* }* %112, i32 0, i32 0
  %114 = extractvalue { i32*, double* } %110, 0
  store i32* %114, i32** %113, align 8
  %115 = getelementptr inbounds { i32*, double* }, { i32*, double* }* %112, i32 0, i32 1
  %116 = extractvalue { i32*, double* } %110, 1
  store double* %116, double** %115, align 8
  %117 = call dereferenceable(16) %"class.std::tuple.40"* @_ZNSt5tupleIJRdRiEEaSIdiEERS2_OS_IJT_T0_EE(%"class.std::tuple.40"* %16, %"class.std::tuple"* dereferenceable(16) %15)
  %118 = load %class.Edge*, %class.Edge** %12, align 8
  %119 = call double @_ZNK4Edge6weightEv(%class.Edge* %118)
  %120 = load double, double* %13, align 8
  %121 = fadd double %120, %119
  store double %121, double* %13, align 8
  %122 = call dereferenceable(8) double* @_ZSt3getILm0EJdiEERNSt13tuple_elementIXT_ESt5tupleIJDpT0_EEE4typeERS4_(%"class.std::tuple"* dereferenceable(16) %4) #4
  %123 = load double, double* %122, align 8
  %124 = load double, double* %13, align 8
  %125 = fcmp olt double %123, %124
  %126 = select i1 %125, i32 1303217161, i32 361705174
  store i32 %126, i32* %27
  br label %144

; <label>:127:                                    ; preds = %28
  %128 = call { i32, double } @_ZSt10make_tupleIJRdRiEESt5tupleIJDpNSt17__decay_and_stripIT_E6__typeEEEDpOS4_(double* dereferenceable(8) %13, i32* dereferenceable(4) %14)
  %129 = getelementptr inbounds %"class.std::tuple", %"class.std::tuple"* %17, i32 0, i32 0
  %130 = bitcast %"struct.std::_Tuple_impl"* %129 to { i32, double }*
  %131 = getelementptr inbounds { i32, double }, { i32, double }* %130, i32 0, i32 0
  %132 = extractvalue { i32, double } %128, 0
  store i32 %132, i32* %131, align 8
  %133 = getelementptr inbounds { i32, double }, { i32, double }* %130, i32 0, i32 1
  %134 = extractvalue { i32, double } %128, 1
  store double %134, double* %133, align 8
  %135 = call dereferenceable(16) %"class.std::tuple"* @_ZNSt5tupleIJdiEEaSEOS0_(%"class.std::tuple"* %4, %"class.std::tuple"* dereferenceable(16) %17) #4
  store i32 361705174, i32* %27
  br label %144

; <label>:136:                                    ; preds = %28
  store i32 1278803477, i32* %27
  br label %144

; <label>:137:                                    ; preds = %28
  %138 = call dereferenceable(8) %"class.__gnu_cxx::__normal_iterator"* @_ZN9__gnu_cxx17__normal_iteratorIPK4EdgeSt6vectorIS1_SaIS1_EEEppEv(%"class.__gnu_cxx::__normal_iterator"* %10) #4
  store i32 -1084613261, i32* %27
  br label %144

; <label>:139:                                    ; preds = %28
  %140 = getelementptr inbounds %"class.std::tuple", %"class.std::tuple"* %4, i32 0, i32 0
  %141 = bitcast %"struct.std::_Tuple_impl"* %140 to { i32, double }*
  %142 = load { i32, double }, { i32, double }* %141, align 8
  ret { i32, double } %142

; <label>:143:                                    ; preds = %28
  store i32 66361174, i32* %27
  br label %144

; <label>:144:                                    ; preds = %143, %137, %136, %127, %98, %97, %69, %41, %34, %31, %30
  br label %28
}

; Function Attrs: noinline uwtable
define linkonce_odr void @_ZNSt5tupleIJdiEEC2IdRKivEEOT_OT0_(%"class.std::tuple"*, double* dereferenceable(8), i32* dereferenceable(4)) unnamed_addr #0 comdat align 2 {
  %4 = alloca %"class.std::tuple"*, align 8
  %5 = alloca double*, align 8
  %6 = alloca i32*, align 8
  store %"class.std::tuple"* %0, %"class.std::tuple"** %4, align 8
  store double* %1, double** %5, align 8
  store i32* %2, i32** %6, align 8
  %7 = load %"class.std::tuple"*, %"class.std::tuple"** %4, align 8
  %8 = bitcast %"class.std::tuple"* %7 to %"struct.std::_Tuple_impl"*
  %9 = load double*, double** %5, align 8
  %10 = call dereferenceable(8) double* @_ZSt7forwardIdEOT_RNSt16remove_referenceIS0_E4typeE(double* dereferenceable(8) %9) #4
  %11 = load i32*, i32** %6, align 8
  %12 = call dereferenceable(4) i32* @_ZSt7forwardIRKiEOT_RNSt16remove_referenceIS2_E4typeE(i32* dereferenceable(4) %11) #4
  call void @_ZNSt11_Tuple_implILm0EJdiEEC2IdJRKiEvEEOT_DpOT0_(%"struct.std::_Tuple_impl"* %8, double* dereferenceable(8) %10, i32* dereferenceable(4) %12)
  ret void
}

; Function Attrs: noinline nounwind uwtable
define linkonce_odr { i32*, double* } @_ZSt3tieIJdiEESt5tupleIJDpRT_EES3_(double* dereferenceable(8), i32* dereferenceable(4)) #1 comdat personality i8* bitcast (i32 (...)* @__gxx_personality_v0 to i8*) {
  %3 = load i32, i32* @x.169
  %4 = load i32, i32* @y.170
  %5 = sub i32 0, 1
  %6 = add i32 %3, %5
  %7 = sub i32 %3, 1
  %8 = mul i32 %3, %6
  %9 = urem i32 %8, 2
  %10 = icmp eq i32 %9, 0
  %11 = icmp slt i32 %4, 10
  %12 = and i1 %10, %11
  %13 = xor i1 %10, %11
  %14 = or i1 %12, %13
  %15 = or i1 %10, %11
  br i1 %14, label %16, label %73

; <label>:16:                                     ; preds = %2, %73
  %17 = alloca %"class.std::tuple.40", align 8
  %18 = alloca double*, align 8
  %19 = alloca i32*, align 8
  store double* %0, double** %18, align 8
  store i32* %1, i32** %19, align 8
  %20 = load double*, double** %18, align 8
  %21 = load i32*, i32** %19, align 8
  %22 = load i32, i32* @x.169
  %23 = load i32, i32* @y.170
  %24 = sub i32 0, 1
  %25 = add i32 %22, %24
  %26 = sub i32 %22, 1
  %27 = mul i32 %22, %25
  %28 = urem i32 %27, 2
  %29 = icmp eq i32 %28, 0
  %30 = icmp slt i32 %23, 10
  %31 = and i1 %29, %30
  %32 = xor i1 %29, %30
  %33 = or i1 %31, %32
  %34 = or i1 %29, %30
  br i1 %33, label %35, label %73

; <label>:35:                                     ; preds = %16
  invoke void @_ZNSt5tupleIJRdRiEEC2ES0_S1_(%"class.std::tuple.40"* %17, double* dereferenceable(8) %20, i32* dereferenceable(4) %21)
          to label %36 unwind label %40

; <label>:36:                                     ; preds = %35
  %37 = getelementptr inbounds %"class.std::tuple.40", %"class.std::tuple.40"* %17, i32 0, i32 0
  %38 = bitcast %"struct.std::_Tuple_impl.41"* %37 to { i32*, double* }*
  %39 = load { i32*, double* }, { i32*, double* }* %38, align 8
  ret { i32*, double* } %39

; <label>:40:                                     ; preds = %35
  %41 = load i32, i32* @x.169
  %42 = load i32, i32* @y.170
  %43 = add i32 %41, -341264951
  %44 = sub i32 %43, 1
  %45 = sub i32 %44, -341264951
  %46 = sub i32 %41, 1
  %47 = mul i32 %41, %45
  %48 = urem i32 %47, 2
  %49 = icmp eq i32 %48, 0
  %50 = icmp slt i32 %42, 10
  %51 = and i1 %49, %50
  %52 = xor i1 %49, %50
  %53 = or i1 %51, %52
  %54 = or i1 %49, %50
  br i1 %53, label %55, label %79

; <label>:55:                                     ; preds = %40, %79
  %56 = landingpad { i8*, i32 }
          catch i8* null
  %57 = extractvalue { i8*, i32 } %56, 0
  call void @__clang_call_terminate(i8* %57) #8
  %58 = load i32, i32* @x.169
  %59 = load i32, i32* @y.170
  %60 = add i32 %58, -905697743
