; ModuleID = 'Project_CodeNet_C++1400/p03256/s275261148.cpp'
source_filename = "Project_CodeNet_C++1400/p03256/s275261148.cpp"
target datalayout = "e-m:e-p270:32:32-p271:32:32-p272:64:64-i64:64-f80:128-n8:16:32:64-S128"
target triple = "x86_64-pc-linux-gnu"

%"class.std::ios_base::Init" = type { i8 }
%"class.std::queue" = type { %"class.std::deque" }
%"class.std::deque" = type { %"class.std::_Deque_base" }
%"class.std::_Deque_base" = type { %"struct.std::_Deque_base<int, std::allocator<int>>::_Deque_impl" }
%"struct.std::_Deque_base<int, std::allocator<int>>::_Deque_impl" = type { %"struct.std::_Deque_base<int, std::allocator<int>>::_Deque_impl_data" }
%"struct.std::_Deque_base<int, std::allocator<int>>::_Deque_impl_data" = type { i32**, i64, %"struct.std::_Deque_iterator", %"struct.std::_Deque_iterator" }
%"struct.std::_Deque_iterator" = type { i32*, i32*, i32*, i32** }
%"class.std::vector" = type { %"struct.std::_Vector_base" }
%"struct.std::_Vector_base" = type { %"struct.std::_Vector_base<int, std::allocator<int>>::_Vector_impl" }
%"struct.std::_Vector_base<int, std::allocator<int>>::_Vector_impl" = type { %"struct.std::_Vector_base<int, std::allocator<int>>::_Vector_impl_data" }
%"struct.std::_Vector_base<int, std::allocator<int>>::_Vector_impl_data" = type { i32*, i32*, i32* }
%"class.std::basic_istream" = type { i32 (...)**, i64, %"class.std::basic_ios" }
%"class.std::basic_ios" = type { %"class.std::ios_base", %"class.std::basic_ostream"*, i8, i8, %"class.std::basic_streambuf"*, %"class.std::ctype"*, %"class.std::num_put"*, %"class.std::num_get"* }
%"class.std::ios_base" = type { i32 (...)**, i64, i64, i32, i32, i32, %"struct.std::ios_base::_Callback_list"*, %"struct.std::ios_base::_Words", [8 x %"struct.std::ios_base::_Words"], i32, %"struct.std::ios_base::_Words"*, %"class.std::locale" }
%"struct.std::ios_base::_Callback_list" = type { %"struct.std::ios_base::_Callback_list"*, void (i32, %"class.std::ios_base"*, i32)*, i32, i32 }
%"struct.std::ios_base::_Words" = type { i8*, i64 }
%"class.std::locale" = type { %"class.std::locale::_Impl"* }
%"class.std::locale::_Impl" = type { i32, %"class.std::locale::facet"**, i64, %"class.std::locale::facet"**, i8** }
%"class.std::locale::facet" = type <{ i32 (...)**, i32, [4 x i8] }>
%"class.std::basic_ostream" = type { i32 (...)**, %"class.std::basic_ios" }
%"class.std::basic_streambuf" = type { i32 (...)**, i8*, i8*, i8*, i8*, i8*, i8*, %"class.std::locale" }
%"class.std::ctype" = type <{ %"class.std::locale::facet.base", [4 x i8], %struct.__locale_struct*, i8, [7 x i8], i32*, i32*, i16*, i8, [256 x i8], [256 x i8], i8, [6 x i8] }>
%"class.std::locale::facet.base" = type <{ i32 (...)**, i32 }>
%struct.__locale_struct = type { [13 x %struct.__locale_data*], i16*, i32*, i32*, [13 x i8*] }
%struct.__locale_data = type opaque
%"class.std::num_put" = type { %"class.std::locale::facet.base", [4 x i8] }
%"class.std::num_get" = type { %"class.std::locale::facet.base", [4 x i8] }

$_ZNSt5queueIiSt5dequeIiSaIiEEED2Ev = comdat any

$__clang_call_terminate = comdat any

$_ZNSt11_Deque_baseIiSaIiEE17_M_initialize_mapEm = comdat any

$_ZNSt5dequeIiSaIiEE16_M_push_back_auxIJRKiEEEvDpOT_ = comdat any

$_ZNSt5dequeIiSaIiEE17_M_reallocate_mapEmb = comdat any

@_ZStL8__ioinit = internal global %"class.std::ios_base::Init" zeroinitializer, align 1
@__dso_handle = external hidden global i8
@q = dso_local global %"class.std::queue" zeroinitializer, align 8
@adj = dso_local global [200100 x %"class.std::vector"] zeroinitializer, align 16
@mark = dso_local local_unnamed_addr global [200100 x i8] zeroinitializer, align 16
@a = dso_local global [200100 x i8] zeroinitializer, align 16
@d1 = dso_local local_unnamed_addr global [200100 x i32] zeroinitializer, align 16
@d2 = dso_local local_unnamed_addr global [200100 x i32] zeroinitializer, align 16
@n = dso_local global i32 0, align 4
@m = dso_local global i32 0, align 4
@cnt = dso_local local_unnamed_addr global i32 0, align 4
@_ZSt3cin = external global %"class.std::basic_istream", align 8
@_ZSt4cout = external global %"class.std::basic_ostream", align 8
@.str = private unnamed_addr constant [4 x i8] c"Yes\00", align 1
@.str.3 = private unnamed_addr constant [3 x i8] c"No\00", align 1
@.str.4 = private unnamed_addr constant [26 x i8] c"vector::_M_realloc_insert\00", align 1
@.str.5 = private unnamed_addr constant [48 x i8] c"cannot create std::deque larger than max_size()\00", align 1
@llvm.global_ctors = appending global [1 x { i32, void ()*, i8* }] [{ i32, void ()*, i8* } { i32 65535, void ()* @_GLOBAL__sub_I_s275261148.cpp, i8* null }]

declare void @_ZNSt8ios_base4InitC1Ev(%"class.std::ios_base::Init"* nonnull align 1 dereferenceable(1)) unnamed_addr #0

; Function Attrs: nounwind
declare void @_ZNSt8ios_base4InitD1Ev(%"class.std::ios_base::Init"* nonnull align 1 dereferenceable(1)) unnamed_addr #1

; Function Attrs: nofree nounwind
declare i32 @__cxa_atexit(void (i8*)*, i8*, i8*) local_unnamed_addr #2

; Function Attrs: inlinehint nounwind sspstrong uwtable
define linkonce_odr dso_local void @_ZNSt5queueIiSt5dequeIiSaIiEEED2Ev(%"class.std::queue"* nonnull align 8 dereferenceable(80) %0) unnamed_addr #3 comdat align 2 personality i32 (...)* @__gxx_personality_v0 {
  %2 = getelementptr inbounds %"class.std::queue", %"class.std::queue"* %0, i64 0, i32 0, i32 0, i32 0, i32 0, i32 0
  %3 = load i32**, i32*** %2, align 8, !tbaa !5
  %4 = icmp eq i32** %3, null
  br i1 %4, label %24, label %5

5:                                                ; preds = %1
  %6 = bitcast i32** %3 to i8*
  %7 = getelementptr inbounds %"class.std::queue", %"class.std::queue"* %0, i64 0, i32 0, i32 0, i32 0, i32 0, i32 2, i32 3
  %8 = load i32**, i32*** %7, align 8, !tbaa !12
  %9 = getelementptr inbounds %"class.std::queue", %"class.std::queue"* %0, i64 0, i32 0, i32 0, i32 0, i32 0, i32 3, i32 3
  %10 = load i32**, i32*** %9, align 8, !tbaa !13
  %11 = getelementptr inbounds i32*, i32** %10, i64 1
  %12 = icmp ult i32** %8, %11
  br i1 %12, label %13, label %22

13:                                               ; preds = %5, %13
  %14 = phi i32** [ %17, %13 ], [ %8, %5 ]
  %15 = bitcast i32** %14 to i8**
  %16 = load i8*, i8** %15, align 8, !tbaa !14
  tail call void @_ZdlPv(i8* %16) #15
  %17 = getelementptr inbounds i32*, i32** %14, i64 1
  %18 = icmp ult i32** %14, %10
  br i1 %18, label %13, label %19, !llvm.loop !15

19:                                               ; preds = %13
  %20 = bitcast %"class.std::queue"* %0 to i8**
  %21 = load i8*, i8** %20, align 8, !tbaa !5
  br label %22

22:                                               ; preds = %19, %5
  %23 = phi i8* [ %21, %19 ], [ %6, %5 ]
  tail call void @_ZdlPv(i8* %23) #15
  br label %24

24:                                               ; preds = %1, %22
  ret void
}

; Function Attrs: nounwind sspstrong uwtable
define internal void @__cxx_global_array_dtor(i8* nocapture readnone %0) #4 section ".text.startup" personality i32 (...)* @__gxx_personality_v0 {
  br label %2

2:                                                ; preds = %10, %1
  %3 = phi %"class.std::vector"* [ getelementptr inbounds ([200100 x %"class.std::vector"], [200100 x %"class.std::vector"]* @adj, i64 1, i64 0), %1 ], [ %4, %10 ]
  %4 = getelementptr inbounds %"class.std::vector", %"class.std::vector"* %3, i64 -1
  %5 = getelementptr inbounds %"class.std::vector", %"class.std::vector"* %4, i64 0, i32 0, i32 0, i32 0, i32 0
  %6 = load i32*, i32** %5, align 8, !tbaa !17
  %7 = icmp eq i32* %6, null
  br i1 %7, label %10, label %8

8:                                                ; preds = %2
  %9 = bitcast i32* %6 to i8*
  tail call void @_ZdlPv(i8* nonnull %9) #15
  br label %10

10:                                               ; preds = %2, %8
  %11 = icmp eq %"class.std::vector"* %4, getelementptr inbounds ([200100 x %"class.std::vector"], [200100 x %"class.std::vector"]* @adj, i64 0, i64 0)
  br i1 %11, label %12, label %2

12:                                               ; preds = %10
  ret void
}

; Function Attrs: norecurse sspstrong uwtable
define dso_local i32 @main() local_unnamed_addr #5 personality i32 (...)* @__gxx_personality_v0 {
  %1 = alloca i32, align 4
  %2 = alloca i32, align 4
  %3 = alloca i32, align 4
  %4 = tail call zeroext i1 @_ZNSt8ios_base15sync_with_stdioEb(i1 zeroext false)
  %5 = load i8*, i8** bitcast (%"class.std::basic_istream"* @_ZSt3cin to i8**), align 8, !tbaa !19
  %6 = getelementptr i8, i8* %5, i64 -24
  %7 = bitcast i8* %6 to i64*
  %8 = load i64, i64* %7, align 8
  %9 = add nsw i64 %8, 216
  %10 = getelementptr inbounds i8, i8* bitcast (%"class.std::basic_istream"* @_ZSt3cin to i8*), i64 %9
  %11 = bitcast i8* %10 to %"class.std::basic_ostream"**
  store %"class.std::basic_ostream"* null, %"class.std::basic_ostream"** %11, align 8, !tbaa !21
  %12 = load i8*, i8** bitcast (%"class.std::basic_ostream"* @_ZSt4cout to i8**), align 8, !tbaa !19
  %13 = getelementptr i8, i8* %12, i64 -24
  %14 = bitcast i8* %13 to i64*
  %15 = load i64, i64* %14, align 8
  %16 = add nsw i64 %15, 216
  %17 = getelementptr inbounds i8, i8* bitcast (%"class.std::basic_ostream"* @_ZSt4cout to i8*), i64 %16
  %18 = bitcast i8* %17 to %"class.std::basic_ostream"**
  store %"class.std::basic_ostream"* null, %"class.std::basic_ostream"** %18, align 8, !tbaa !21
  %19 = tail call nonnull align 8 dereferenceable(16) %"class.std::basic_istream"* @_ZNSirsERi(%"class.std::basic_istream"* nonnull align 8 dereferenceable(16) @_ZSt3cin, i32* nonnull align 4 dereferenceable(4) @n)
  %20 = tail call nonnull align 8 dereferenceable(16) %"class.std::basic_istream"* @_ZNSirsERi(%"class.std::basic_istream"* nonnull align 8 dereferenceable(16) %19, i32* nonnull align 4 dereferenceable(4) @m)
  %21 = load i32, i32* @n, align 4, !tbaa !24
  %22 = icmp sgt i32 %21, 0
  br i1 %22, label %29, label %23

23:                                               ; preds = %29, %0
  %24 = phi i32 [ %21, %0 ], [ %34, %29 ]
  %25 = bitcast i32* %1 to i8*
  %26 = bitcast i32* %2 to i8*
  %27 = load i32, i32* @m, align 4, !tbaa !24
  %28 = icmp sgt i32 %27, 0
  br i1 %28, label %43, label %39

29:                                               ; preds = %0, %29
  %30 = phi i64 [ %33, %29 ], [ 0, %0 ]
  %31 = getelementptr inbounds [200100 x i8], [200100 x i8]* @a, i64 0, i64 %30
  %32 = tail call nonnull align 8 dereferenceable(16) %"class.std::basic_istream"* @_ZStrsIcSt11char_traitsIcEERSt13basic_istreamIT_T0_ES6_RS3_(%"class.std::basic_istream"* nonnull align 8 dereferenceable(16) @_ZSt3cin, i8* nonnull align 1 dereferenceable(1) %31)
  %33 = add nuw nsw i64 %30, 1
  %34 = load i32, i32* @n, align 4, !tbaa !24
  %35 = sext i32 %34 to i64
  %36 = icmp slt i64 %33, %35
  br i1 %36, label %29, label %23, !llvm.loop !26

37:                                               ; preds = %145
  %38 = load i32, i32* @n, align 4, !tbaa !24
  br label %39

39:                                               ; preds = %37, %23
  %40 = phi i32 [ %38, %37 ], [ %24, %23 ]
  %41 = bitcast i32* %3 to i8*
  call void @llvm.lifetime.start.p0i8(i64 4, i8* nonnull %41) #15
  store i32 0, i32* %3, align 4, !tbaa !24
  %42 = icmp sgt i32 %40, 0
  br i1 %42, label %172, label %167

43:                                               ; preds = %23, %145
  %44 = phi i32 [ %164, %145 ], [ 0, %23 ]
  call void @llvm.lifetime.start.p0i8(i64 4, i8* nonnull %25) #15
  call void @llvm.lifetime.start.p0i8(i64 4, i8* nonnull %26) #15
  %45 = call nonnull align 8 dereferenceable(16) %"class.std::basic_istream"* @_ZNSirsERi(%"class.std::basic_istream"* nonnull align 8 dereferenceable(16) @_ZSt3cin, i32* nonnull align 4 dereferenceable(4) %1)
  %46 = call nonnull align 8 dereferenceable(16) %"class.std::basic_istream"* @_ZNSirsERi(%"class.std::basic_istream"* nonnull align 8 dereferenceable(16) %45, i32* nonnull align 4 dereferenceable(4) %2)
  %47 = load i32, i32* %1, align 4, !tbaa !24
  %48 = add nsw i32 %47, -1
  store i32 %48, i32* %1, align 4, !tbaa !24
  %49 = sext i32 %48 to i64
  %50 = load i32, i32* %2, align 4, !tbaa !24
  %51 = add nsw i32 %50, -1
  store i32 %51, i32* %2, align 4, !tbaa !24
  %52 = getelementptr inbounds [200100 x %"class.std::vector"], [200100 x %"class.std::vector"]* @adj, i64 0, i64 %49, i32 0, i32 0, i32 0, i32 1
  %53 = load i32*, i32** %52, align 8, !tbaa !27
  %54 = getelementptr inbounds [200100 x %"class.std::vector"], [200100 x %"class.std::vector"]* @adj, i64 0, i64 %49, i32 0, i32 0, i32 0, i32 2
  %55 = load i32*, i32** %54, align 8, !tbaa !28
  %56 = icmp eq i32* %53, %55
  br i1 %56, label %59, label %57

57:                                               ; preds = %43
  store i32 %51, i32* %53, align 4, !tbaa !24
  %58 = getelementptr inbounds i32, i32* %53, i64 1
  store i32* %58, i32** %52, align 8, !tbaa !27
  br label %97

59:                                               ; preds = %43
  %60 = getelementptr inbounds [200100 x %"class.std::vector"], [200100 x %"class.std::vector"]* @adj, i64 0, i64 %49, i32 0, i32 0, i32 0, i32 0
  %61 = load i32*, i32** %60, align 8, !tbaa !17
  %62 = ptrtoint i32* %53 to i64
  %63 = ptrtoint i32* %61 to i64
  %64 = sub i64 %62, %63
  %65 = ashr exact i64 %64, 2
  %66 = icmp eq i64 %64, 9223372036854775804
  br i1 %66, label %67, label %68

67:                                               ; preds = %59
  call void @_ZSt20__throw_length_errorPKc(i8* getelementptr inbounds ([26 x i8], [26 x i8]* @.str.4, i64 0, i64 0)) #16
  unreachable

68:                                               ; preds = %59
  %69 = icmp eq i64 %64, 0
  %70 = select i1 %69, i64 1, i64 %65
  %71 = add nsw i64 %70, %65
  %72 = icmp ult i64 %71, %65
  %73 = icmp ugt i64 %71, 2305843009213693951
  %74 = or i1 %72, %73
  %75 = select i1 %74, i64 2305843009213693951, i64 %71
  %76 = icmp eq i64 %75, 0
  br i1 %76, label %82, label %77

77:                                               ; preds = %68
  %78 = shl nuw nsw i64 %75, 2
  %79 = call noalias nonnull i8* @_Znwm(i64 %78) #17
  %80 = bitcast i8* %79 to i32*
  %81 = load i32, i32* %2, align 4, !tbaa !24
  br label %82

82:                                               ; preds = %77, %68
  %83 = phi i32 [ %81, %77 ], [ %51, %68 ]
  %84 = phi i32* [ %80, %77 ], [ null, %68 ]
  %85 = getelementptr inbounds i32, i32* %84, i64 %65
  store i32 %83, i32* %85, align 4, !tbaa !24
  %86 = icmp sgt i64 %64, 0
  br i1 %86, label %87, label %90

87:                                               ; preds = %82
  %88 = bitcast i32* %84 to i8*
  %89 = bitcast i32* %61 to i8*
  call void @llvm.memmove.p0i8.p0i8.i64(i8* align 4 %88, i8* align 4 %89, i64 %64, i1 false) #15
  br label %90

90:                                               ; preds = %87, %82
  %91 = getelementptr inbounds i32, i32* %85, i64 1
  %92 = icmp eq i32* %61, null
  br i1 %92, label %95, label %93

93:                                               ; preds = %90
  %94 = bitcast i32* %61 to i8*
  call void @_ZdlPv(i8* nonnull %94) #15
  br label %95

95:                                               ; preds = %93, %90
  store i32* %84, i32** %60, align 8, !tbaa !17
  store i32* %91, i32** %52, align 8, !tbaa !27
  %96 = getelementptr inbounds i32, i32* %84, i64 %75
  store i32* %96, i32** %54, align 8, !tbaa !28
  br label %97

97:                                               ; preds = %57, %95
  %98 = load i32, i32* %2, align 4, !tbaa !24
  %99 = sext i32 %98 to i64
  %100 = getelementptr inbounds [200100 x %"class.std::vector"], [200100 x %"class.std::vector"]* @adj, i64 0, i64 %99, i32 0, i32 0, i32 0, i32 1
  %101 = load i32*, i32** %100, align 8, !tbaa !27
  %102 = getelementptr inbounds [200100 x %"class.std::vector"], [200100 x %"class.std::vector"]* @adj, i64 0, i64 %99, i32 0, i32 0, i32 0, i32 2
  %103 = load i32*, i32** %102, align 8, !tbaa !28
  %104 = icmp eq i32* %101, %103
  br i1 %104, label %108, label %105

105:                                              ; preds = %97
  %106 = load i32, i32* %1, align 4, !tbaa !24
  store i32 %106, i32* %101, align 4, !tbaa !24
  %107 = getelementptr inbounds i32, i32* %101, i64 1
  store i32* %107, i32** %100, align 8, !tbaa !27
  br label %145

108:                                              ; preds = %97
  %109 = getelementptr inbounds [200100 x %"class.std::vector"], [200100 x %"class.std::vector"]* @adj, i64 0, i64 %99, i32 0, i32 0, i32 0, i32 0
  %110 = load i32*, i32** %109, align 8, !tbaa !17
  %111 = ptrtoint i32* %101 to i64
  %112 = ptrtoint i32* %110 to i64
  %113 = sub i64 %111, %112
  %114 = ashr exact i64 %113, 2
  %115 = icmp eq i64 %113, 9223372036854775804
  br i1 %115, label %116, label %117

116:                                              ; preds = %108
  call void @_ZSt20__throw_length_errorPKc(i8* getelementptr inbounds ([26 x i8], [26 x i8]* @.str.4, i64 0, i64 0)) #16
  unreachable

117:                                              ; preds = %108
  %118 = icmp eq i64 %113, 0
  %119 = select i1 %118, i64 1, i64 %114
  %120 = add nsw i64 %119, %114
  %121 = icmp ult i64 %120, %114
  %122 = icmp ugt i64 %120, 2305843009213693951
  %123 = or i1 %121, %122
  %124 = select i1 %123, i64 2305843009213693951, i64 %120
  %125 = icmp eq i64 %124, 0
  br i1 %125, label %130, label %126

126:                                              ; preds = %117
  %127 = shl nuw nsw i64 %124, 2
  %128 = call noalias nonnull i8* @_Znwm(i64 %127) #17
  %129 = bitcast i8* %128 to i32*
  br label %130

130:                                              ; preds = %126, %117
  %131 = phi i32* [ %129, %126 ], [ null, %117 ]
  %132 = getelementptr inbounds i32, i32* %131, i64 %114
  %133 = load i32, i32* %1, align 4, !tbaa !24
  store i32 %133, i32* %132, align 4, !tbaa !24
  %134 = icmp sgt i64 %113, 0
  br i1 %134, label %135, label %138

135:                                              ; preds = %130
  %136 = bitcast i32* %131 to i8*
  %137 = bitcast i32* %110 to i8*
  call void @llvm.memmove.p0i8.p0i8.i64(i8* align 4 %136, i8* align 4 %137, i64 %113, i1 false) #15
  br label %138

138:                                              ; preds = %135, %130
  %139 = getelementptr inbounds i32, i32* %132, i64 1
  %140 = icmp eq i32* %110, null
  br i1 %140, label %143, label %141

141:                                              ; preds = %138
  %142 = bitcast i32* %110 to i8*
  call void @_ZdlPv(i8* nonnull %142) #15
  br label %143

143:                                              ; preds = %141, %138
  store i32* %131, i32** %109, align 8, !tbaa !17
  store i32* %139, i32** %100, align 8, !tbaa !27
  %144 = getelementptr inbounds i32, i32* %131, i64 %124
  store i32* %144, i32** %102, align 8, !tbaa !28
  br label %145

145:                                              ; preds = %105, %143
  %146 = load i32, i32* %1, align 4, !tbaa !24
  %147 = sext i32 %146 to i64
  %148 = getelementptr inbounds [200100 x i8], [200100 x i8]* @a, i64 0, i64 %147
  %149 = load i8, i8* %148, align 1, !tbaa !29
  %150 = icmp eq i8 %149, 65
  %151 = load i32, i32* %2, align 4, !tbaa !24
  %152 = sext i32 %151 to i64
  %153 = select i1 %150, [200100 x i32]* @d1, [200100 x i32]* @d2
  %154 = getelementptr inbounds [200100 x i32], [200100 x i32]* %153, i64 0, i64 %152
  %155 = load i32, i32* %154, align 4, !tbaa !24
  %156 = add nsw i32 %155, 1
  store i32 %156, i32* %154, align 4, !tbaa !24
  %157 = getelementptr inbounds [200100 x i8], [200100 x i8]* @a, i64 0, i64 %152
  %158 = load i8, i8* %157, align 1, !tbaa !29
  %159 = icmp eq i8 %158, 65
  %160 = select i1 %159, [200100 x i32]* @d1, [200100 x i32]* @d2
  %161 = getelementptr inbounds [200100 x i32], [200100 x i32]* %160, i64 0, i64 %147
  %162 = load i32, i32* %161, align 4, !tbaa !24
  %163 = add nsw i32 %162, 1
  store i32 %163, i32* %161, align 4, !tbaa !24
  call void @llvm.lifetime.end.p0i8(i64 4, i8* nonnull %26) #15
  call void @llvm.lifetime.end.p0i8(i64 4, i8* nonnull %25) #15
  %164 = add nuw nsw i32 %44, 1
  %165 = load i32, i32* @m, align 4, !tbaa !24
  %166 = icmp slt i32 %164, %165
  br i1 %166, label %43, label %37, !llvm.loop !30

167:                                              ; preds = %196, %39
  %168 = phi i32 [ %40, %39 ], [ %197, %196 ]
  call void @llvm.lifetime.end.p0i8(i64 4, i8* nonnull %41) #15
  store i32 %168, i32* @cnt, align 4, !tbaa !24
  %169 = load i32*, i32** getelementptr inbounds (%"class.std::queue", %"class.std::queue"* @q, i64 0, i32 0, i32 0, i32 0, i32 0, i32 3, i32 0), align 8, !tbaa !31
  %170 = load i32*, i32** getelementptr inbounds (%"class.std::queue", %"class.std::queue"* @q, i64 0, i32 0, i32 0, i32 0, i32 0, i32 2, i32 0), align 8, !tbaa !31
  %171 = icmp eq i32* %169, %170
  br i1 %171, label %318, label %207

172:                                              ; preds = %39, %196
  %173 = phi i32 [ %197, %196 ], [ %40, %39 ]
  %174 = phi i32 [ %199, %196 ], [ 0, %39 ]
  %175 = sext i32 %174 to i64
  %176 = getelementptr inbounds [200100 x i32], [200100 x i32]* @d1, i64 0, i64 %175
  %177 = load i32, i32* %176, align 4, !tbaa !24
  %178 = icmp eq i32 %177, 0
  br i1 %178, label %183, label %179

179:                                              ; preds = %172
  %180 = getelementptr inbounds [200100 x i32], [200100 x i32]* @d2, i64 0, i64 %175
  %181 = load i32, i32* %180, align 4, !tbaa !24
  %182 = icmp eq i32 %181, 0
  br i1 %182, label %183, label %196

183:                                              ; preds = %179, %172
  %184 = load i32*, i32** getelementptr inbounds (%"class.std::queue", %"class.std::queue"* @q, i64 0, i32 0, i32 0, i32 0, i32 0, i32 3, i32 0), align 8, !tbaa !32
  %185 = load i32*, i32** getelementptr inbounds (%"class.std::queue", %"class.std::queue"* @q, i64 0, i32 0, i32 0, i32 0, i32 0, i32 3, i32 2), align 8, !tbaa !33
  %186 = getelementptr inbounds i32, i32* %185, i64 -1
  %187 = icmp eq i32* %184, %186
  br i1 %187, label %190, label %188

188:                                              ; preds = %183
  store i32 %174, i32* %184, align 4, !tbaa !24
  %189 = getelementptr inbounds i32, i32* %184, i64 1
  store i32* %189, i32** getelementptr inbounds (%"class.std::queue", %"class.std::queue"* @q, i64 0, i32 0, i32 0, i32 0, i32 0, i32 3, i32 0), align 8, !tbaa !32
  br label %191

190:                                              ; preds = %183
  call void @_ZNSt5dequeIiSaIiEE16_M_push_back_auxIJRKiEEEvDpOT_(%"class.std::deque"* nonnull align 8 dereferenceable(80) getelementptr inbounds (%"class.std::queue", %"class.std::queue"* @q, i64 0, i32 0), i32* nonnull align 4 dereferenceable(4) %3)
  br label %191

191:                                              ; preds = %188, %190
  %192 = load i32, i32* %3, align 4, !tbaa !24
  %193 = sext i32 %192 to i64
  %194 = getelementptr inbounds [200100 x i8], [200100 x i8]* @mark, i64 0, i64 %193
  store i8 1, i8* %194, align 1, !tbaa !34
  %195 = load i32, i32* @n, align 4, !tbaa !24
  br label %196

196:                                              ; preds = %179, %191
  %197 = phi i32 [ %173, %179 ], [ %195, %191 ]
  %198 = phi i32 [ %174, %179 ], [ %192, %191 ]
  %199 = add nsw i32 %198, 1
  store i32 %199, i32* %3, align 4, !tbaa !24
  %200 = icmp slt i32 %199, %197
  br i1 %200, label %172, label %167, !llvm.loop !35

201:                                              ; preds = %313
  %202 = load i32*, i32** getelementptr inbounds (%"class.std::queue", %"class.std::queue"* @q, i64 0, i32 0, i32 0, i32 0, i32 0, i32 2, i32 0), align 8, !tbaa !31
  br label %203

203:                                              ; preds = %201, %221
  %204 = phi i32* [ %202, %201 ], [ %222, %221 ]
  %205 = load i32*, i32** getelementptr inbounds (%"class.std::queue", %"class.std::queue"* @q, i64 0, i32 0, i32 0, i32 0, i32 0, i32 3, i32 0), align 8, !tbaa !31
  %206 = icmp eq i32* %205, %204
  br i1 %206, label %316, label %207, !llvm.loop !36

207:                                              ; preds = %167, %203
  %208 = phi i32* [ %204, %203 ], [ %170, %167 ]
  %209 = load i32, i32* %208, align 4, !tbaa !24
  %210 = load i32*, i32** getelementptr inbounds (%"class.std::queue", %"class.std::queue"* @q, i64 0, i32 0, i32 0, i32 0, i32 0, i32 2, i32 2), align 8, !tbaa !37
  %211 = getelementptr inbounds i32, i32* %210, i64 -1
  %212 = icmp eq i32* %208, %211
  br i1 %212, label %215, label %213

213:                                              ; preds = %207
  %214 = getelementptr inbounds i32, i32* %208, i64 1
  br label %221

215:                                              ; preds = %207
  %216 = load i8*, i8** bitcast (i32** getelementptr inbounds (%"class.std::queue", %"class.std::queue"* @q, i64 0, i32 0, i32 0, i32 0, i32 0, i32 2, i32 1) to i8**), align 8, !tbaa !38
  call void @_ZdlPv(i8* %216) #15
  %217 = load i32**, i32*** getelementptr inbounds (%"class.std::queue", %"class.std::queue"* @q, i64 0, i32 0, i32 0, i32 0, i32 0, i32 2, i32 3), align 8, !tbaa !12
  %218 = getelementptr inbounds i32*, i32** %217, i64 1
  store i32** %218, i32*** getelementptr inbounds (%"class.std::queue", %"class.std::queue"* @q, i64 0, i32 0, i32 0, i32 0, i32 0, i32 2, i32 3), align 8, !tbaa !39
  %219 = load i32*, i32** %218, align 8, !tbaa !14
  store i32* %219, i32** getelementptr inbounds (%"class.std::queue", %"class.std::queue"* @q, i64 0, i32 0, i32 0, i32 0, i32 0, i32 2, i32 1), align 8, !tbaa !40
  %220 = getelementptr inbounds i32, i32* %219, i64 128
  store i32* %220, i32** getelementptr inbounds (%"class.std::queue", %"class.std::queue"* @q, i64 0, i32 0, i32 0, i32 0, i32 0, i32 2, i32 2), align 8, !tbaa !41
  br label %221

221:                                              ; preds = %213, %215
  %222 = phi i32* [ %214, %213 ], [ %219, %215 ]
  store i32* %222, i32** getelementptr inbounds (%"class.std::queue", %"class.std::queue"* @q, i64 0, i32 0, i32 0, i32 0, i32 0, i32 2, i32 0), align 8, !tbaa !42
  %223 = load i32, i32* @cnt, align 4, !tbaa !24
  %224 = add nsw i32 %223, -1
  store i32 %224, i32* @cnt, align 4, !tbaa !24
  %225 = sext i32 %209 to i64
  %226 = getelementptr inbounds [200100 x %"class.std::vector"], [200100 x %"class.std::vector"]* @adj, i64 0, i64 %225, i32 0, i32 0, i32 0, i32 0
  %227 = load i32*, i32** %226, align 8, !tbaa !14
  %228 = getelementptr inbounds [200100 x %"class.std::vector"], [200100 x %"class.std::vector"]* @adj, i64 0, i64 %225, i32 0, i32 0, i32 0, i32 1
  %229 = load i32*, i32** %228, align 8, !tbaa !14
  %230 = getelementptr inbounds [200100 x i8], [200100 x i8]* @a, i64 0, i64 %225
  %231 = icmp eq i32* %227, %229
  br i1 %231, label %203, label %232

232:                                              ; preds = %221, %313
  %233 = phi i32* [ %314, %313 ], [ %227, %221 ]
  %234 = load i32, i32* %233, align 4, !tbaa !24
  %235 = load i8, i8* %230, align 1, !tbaa !29
  %236 = icmp eq i8 %235, 65
  %237 = sext i32 %234 to i64
  br i1 %236, label %238, label %242

238:                                              ; preds = %232
  %239 = getelementptr inbounds [200100 x i32], [200100 x i32]* @d1, i64 0, i64 %237
  %240 = load i32, i32* %239, align 4, !tbaa !24
  %241 = add nsw i32 %240, -1
  store i32 %241, i32* %239, align 4, !tbaa !24
  br label %248

242:                                              ; preds = %232
  %243 = getelementptr inbounds [200100 x i32], [200100 x i32]* @d2, i64 0, i64 %237
  %244 = load i32, i32* %243, align 4, !tbaa !24
  %245 = add nsw i32 %244, -1
  store i32 %245, i32* %243, align 4, !tbaa !24
  %246 = getelementptr inbounds [200100 x i32], [200100 x i32]* @d1, i64 0, i64 %237
  %247 = load i32, i32* %246, align 4, !tbaa !24
  br label %248

248:                                              ; preds = %242, %238
  %249 = phi i32 [ %247, %242 ], [ %241, %238 ]
  %250 = icmp eq i32 %249, 0
  br i1 %250, label %255, label %251

251:                                              ; preds = %248
  %252 = getelementptr inbounds [200100 x i32], [200100 x i32]* @d2, i64 0, i64 %237
  %253 = load i32, i32* %252, align 4, !tbaa !24
  %254 = icmp eq i32 %253, 0
  br i1 %254, label %255, label %313

255:                                              ; preds = %251, %248
  %256 = getelementptr inbounds [200100 x i8], [200100 x i8]* @mark, i64 0, i64 %237
  %257 = load i8, i8* %256, align 1, !tbaa !34, !range !43
  %258 = icmp eq i8 %257, 0
  br i1 %258, label %259, label %313

259:                                              ; preds = %255
  store i8 1, i8* %256, align 1, !tbaa !34
  %260 = load i32*, i32** getelementptr inbounds (%"class.std::queue", %"class.std::queue"* @q, i64 0, i32 0, i32 0, i32 0, i32 0, i32 3, i32 0), align 8, !tbaa !32
  %261 = load i32*, i32** getelementptr inbounds (%"class.std::queue", %"class.std::queue"* @q, i64 0, i32 0, i32 0, i32 0, i32 0, i32 3, i32 2), align 8, !tbaa !33
  %262 = getelementptr inbounds i32, i32* %261, i64 -1
  %263 = icmp eq i32* %260, %262
  br i1 %263, label %266, label %264

264:                                              ; preds = %259
  store i32 %234, i32* %260, align 4, !tbaa !24
  %265 = getelementptr inbounds i32, i32* %260, i64 1
  br label %311

266:                                              ; preds = %259
  %267 = load i32**, i32*** getelementptr inbounds (%"class.std::queue", %"class.std::queue"* @q, i64 0, i32 0, i32 0, i32 0, i32 0, i32 3, i32 3), align 8, !tbaa !39
  %268 = load i32**, i32*** getelementptr inbounds (%"class.std::queue", %"class.std::queue"* @q, i64 0, i32 0, i32 0, i32 0, i32 0, i32 2, i32 3), align 8, !tbaa !39
  %269 = ptrtoint i32** %267 to i64
  %270 = ptrtoint i32** %268 to i64
  %271 = sub i64 %269, %270
  %272 = ashr exact i64 %271, 3
  %273 = icmp ne i32** %267, null
  %274 = sext i1 %273 to i64
  %275 = add nsw i64 %272, %274
  %276 = shl nsw i64 %275, 7
  %277 = load i32*, i32** getelementptr inbounds (%"class.std::queue", %"class.std::queue"* @q, i64 0, i32 0, i32 0, i32 0, i32 0, i32 3, i32 1), align 8, !tbaa !40
  %278 = ptrtoint i32* %260 to i64
  %279 = ptrtoint i32* %277 to i64
  %280 = sub i64 %278, %279
  %281 = ashr exact i64 %280, 2
  %282 = add nsw i64 %276, %281
  %283 = load i32*, i32** getelementptr inbounds (%"class.std::queue", %"class.std::queue"* @q, i64 0, i32 0, i32 0, i32 0, i32 0, i32 2, i32 2), align 8, !tbaa !41
  %284 = load i32*, i32** getelementptr inbounds (%"class.std::queue", %"class.std::queue"* @q, i64 0, i32 0, i32 0, i32 0, i32 0, i32 2, i32 0), align 8, !tbaa !31
  %285 = ptrtoint i32* %283 to i64
  %286 = ptrtoint i32* %284 to i64
  %287 = sub i64 %285, %286
  %288 = ashr exact i64 %287, 2
  %289 = add nsw i64 %282, %288
  %290 = icmp eq i64 %289, 2305843009213693951
  br i1 %290, label %291, label %292

291:                                              ; preds = %266
  call void @_ZSt20__throw_length_errorPKc(i8* getelementptr inbounds ([48 x i8], [48 x i8]* @.str.5, i64 0, i64 0)) #16
  unreachable

292:                                              ; preds = %266
  %293 = load i64, i64* getelementptr inbounds (%"class.std::queue", %"class.std::queue"* @q, i64 0, i32 0, i32 0, i32 0, i32 0, i32 1), align 8, !tbaa !44
  %294 = load i32**, i32*** getelementptr inbounds (%"class.std::queue", %"class.std::queue"* @q, i64 0, i32 0, i32 0, i32 0, i32 0, i32 0), align 8, !tbaa !5
  %295 = ptrtoint i32** %294 to i64
  %296 = sub i64 %269, %295
  %297 = ashr exact i64 %296, 3
  %298 = sub i64 %293, %297
  %299 = icmp ult i64 %298, 2
  br i1 %299, label %300, label %301

300:                                              ; preds = %292
  call void @_ZNSt5dequeIiSaIiEE17_M_reallocate_mapEmb(%"class.std::deque"* nonnull align 8 dereferenceable(80) getelementptr inbounds (%"class.std::queue", %"class.std::queue"* @q, i64 0, i32 0), i64 1, i1 zeroext false)
  br label %301

301:                                              ; preds = %292, %300
  %302 = call noalias nonnull i8* @_Znwm(i64 512) #17
  %303 = load i32**, i32*** getelementptr inbounds (%"class.std::queue", %"class.std::queue"* @q, i64 0, i32 0, i32 0, i32 0, i32 0, i32 3, i32 3), align 8, !tbaa !13
  %304 = getelementptr inbounds i32*, i32** %303, i64 1
  %305 = bitcast i32** %304 to i8**
  store i8* %302, i8** %305, align 8, !tbaa !14
  %306 = load i32*, i32** getelementptr inbounds (%"class.std::queue", %"class.std::queue"* @q, i64 0, i32 0, i32 0, i32 0, i32 0, i32 3, i32 0), align 8, !tbaa !32
  store i32 %234, i32* %306, align 4, !tbaa !24
  %307 = load i32**, i32*** getelementptr inbounds (%"class.std::queue", %"class.std::queue"* @q, i64 0, i32 0, i32 0, i32 0, i32 0, i32 3, i32 3), align 8, !tbaa !13
  %308 = getelementptr inbounds i32*, i32** %307, i64 1
  store i32** %308, i32*** getelementptr inbounds (%"class.std::queue", %"class.std::queue"* @q, i64 0, i32 0, i32 0, i32 0, i32 0, i32 3, i32 3), align 8, !tbaa !39
  %309 = load i32*, i32** %308, align 8, !tbaa !14
  store i32* %309, i32** getelementptr inbounds (%"class.std::queue", %"class.std::queue"* @q, i64 0, i32 0, i32 0, i32 0, i32 0, i32 3, i32 1), align 8, !tbaa !40
  %310 = getelementptr inbounds i32, i32* %309, i64 128
  store i32* %310, i32** getelementptr inbounds (%"class.std::queue", %"class.std::queue"* @q, i64 0, i32 0, i32 0, i32 0, i32 0, i32 3, i32 2), align 8, !tbaa !41
  br label %311

311:                                              ; preds = %264, %301
  %312 = phi i32* [ %309, %301 ], [ %265, %264 ]
  store i32* %312, i32** getelementptr inbounds (%"class.std::queue", %"class.std::queue"* @q, i64 0, i32 0, i32 0, i32 0, i32 0, i32 3, i32 0), align 8, !tbaa !32
  br label %313

313:                                              ; preds = %311, %255, %251
  %314 = getelementptr inbounds i32, i32* %233, i64 1
  %315 = icmp eq i32* %314, %229
  br i1 %315, label %201, label %232

316:                                              ; preds = %203
  %317 = load i32, i32* @cnt, align 4, !tbaa !24
  br label %318

318:                                              ; preds = %316, %167
  %319 = phi i32 [ %317, %316 ], [ %168, %167 ]
  %320 = icmp eq i32 %319, 0
  %321 = select i1 %320, i8* getelementptr inbounds ([3 x i8], [3 x i8]* @.str.3, i64 0, i64 0), i8* getelementptr inbounds ([4 x i8], [4 x i8]* @.str, i64 0, i64 0)
  %322 = select i1 %320, i64 2, i64 3
  %323 = call nonnull align 8 dereferenceable(8) %"class.std::basic_ostream"* @_ZSt16__ostream_insertIcSt11char_traitsIcEERSt13basic_ostreamIT_T0_ES6_PKS3_l(%"class.std::basic_ostream"* nonnull align 8 dereferenceable(8) @_ZSt4cout, i8* nonnull %321, i64 %322)
  ret i32 0
}

declare zeroext i1 @_ZNSt8ios_base15sync_with_stdioEb(i1 zeroext) local_unnamed_addr #0

declare nonnull align 8 dereferenceable(16) %"class.std::basic_istream"* @_ZNSirsERi(%"class.std::basic_istream"* nonnull align 8 dereferenceable(16), i32* nonnull align 4 dereferenceable(4)) local_unnamed_addr #0

; Function Attrs: argmemonly mustprogress nofree nosync nounwind willreturn
declare void @llvm.lifetime.start.p0i8(i64 immarg, i8* nocapture) #6

declare nonnull align 8 dereferenceable(16) %"class.std::basic_istream"* @_ZStrsIcSt11char_traitsIcEERSt13basic_istreamIT_T0_ES6_RS3_(%"class.std::basic_istream"* nonnull align 8 dereferenceable(16), i8* nonnull align 1 dereferenceable(1)) local_unnamed_addr #0

; Function Attrs: argmemonly mustprogress nofree nosync nounwind willreturn
declare void @llvm.lifetime.end.p0i8(i64 immarg, i8* nocapture) #6

declare i32 @__gxx_personality_v0(...)

; Function Attrs: noinline noreturn nounwind
define linkonce_odr hidden void @__clang_call_terminate(i8* %0) local_unnamed_addr #7 comdat {
  %2 = tail call i8* @__cxa_begin_catch(i8* %0) #15
  tail call void @_ZSt9terminatev() #18
  unreachable
}

declare i8* @__cxa_begin_catch(i8*) local_unnamed_addr

declare void @_ZSt9terminatev() local_unnamed_addr

; Function Attrs: nobuiltin nounwind
declare void @_ZdlPv(i8*) local_unnamed_addr #8

; Function Attrs: argmemonly mustprogress nofree nounwind willreturn writeonly
declare void @llvm.memset.p0i8.i64(i8* nocapture writeonly, i8, i64, i1 immarg) #9

; Function Attrs: sspstrong uwtable
define linkonce_odr dso_local void @_ZNSt11_Deque_baseIiSaIiEE17_M_initialize_mapEm(%"class.std::_Deque_base"* nonnull align 8 dereferenceable(80) %0, i64 %1) local_unnamed_addr #10 comdat align 2 personality i8* bitcast (i32 (...)* @__gxx_personality_v0 to i8*) {
  %3 = lshr i64 %1, 7
  %4 = add nuw nsw i64 %3, 1
  %5 = icmp ugt i64 %3, 5
  %6 = select i1 %5, i64 %3, i64 5
  %7 = add nuw nsw i64 %6, 3
  %8 = getelementptr inbounds %"class.std::_Deque_base", %"class.std::_Deque_base"* %0, i64 0, i32 0, i32 0, i32 1
  store i64 %7, i64* %8, align 8, !tbaa !44
  %9 = shl nuw nsw i64 %7, 3
  %10 = tail call noalias nonnull i8* @_Znwm(i64 %9) #17
  %11 = bitcast i8* %10 to i32**
  %12 = bitcast %"class.std::_Deque_base"* %0 to i8**
  store i8* %10, i8** %12, align 8, !tbaa !5
  %13 = load i64, i64* %8, align 8, !tbaa !44
  %14 = sub i64 %13, %4
  %15 = lshr i64 %14, 1
  %16 = getelementptr inbounds i32*, i32** %11, i64 %15
  %17 = getelementptr inbounds i32*, i32** %16, i64 %4
  br label %18

18:                                               ; preds = %2, %21
  %19 = phi i32** [ %23, %21 ], [ %16, %2 ]
  %20 = invoke noalias nonnull i8* @_Znwm(i64 512) #17
          to label %21 unwind label %25

21:                                               ; preds = %18
  %22 = bitcast i32** %19 to i8**
  store i8* %20, i8** %22, align 8, !tbaa !14
  %23 = getelementptr inbounds i32*, i32** %19, i64 1
  %24 = icmp ult i32** %23, %17
  br i1 %24, label %18, label %51, !llvm.loop !45

25:                                               ; preds = %18
  %26 = landingpad { i8*, i32 }
          catch i8* null
  %27 = extractvalue { i8*, i32 } %26, 0
  %28 = tail call i8* @__cxa_begin_catch(i8* %27) #15
  %29 = icmp ugt i32** %19, %16
  br i1 %29, label %30, label %36

30:                                               ; preds = %25, %30
  %31 = phi i32** [ %34, %30 ], [ %16, %25 ]
  %32 = bitcast i32** %31 to i8**
  %33 = load i8*, i8** %32, align 8, !tbaa !14
  tail call void @_ZdlPv(i8* %33) #15
  %34 = getelementptr inbounds i32*, i32** %31, i64 1
  %35 = icmp ult i32** %34, %19
  br i1 %35, label %30, label %36, !llvm.loop !15

36:                                               ; preds = %30, %25
  invoke void @__cxa_rethrow() #16
          to label %42 unwind label %37

37:                                               ; preds = %36
  %38 = landingpad { i8*, i32 }
          catch i8* null
  invoke void @__cxa_end_catch()
          to label %43 unwind label %39

39:                                               ; preds = %37
  %40 = landingpad { i8*, i32 }
          catch i8* null
  %41 = extractvalue { i8*, i32 } %40, 0
  tail call void @__clang_call_terminate(i8* %41) #18
  unreachable

42:                                               ; preds = %36
  unreachable

43:                                               ; preds = %37
  %44 = extractvalue { i8*, i32 } %38, 0
  %45 = tail call i8* @__cxa_begin_catch(i8* %44) #15
  %46 = load i8*, i8** %12, align 8, !tbaa !5
  tail call void @_ZdlPv(i8* %46) #15
  %47 = bitcast %"class.std::_Deque_base"* %0 to i8*
  call void @llvm.memset.p0i8.i64(i8* noundef nonnull align 8 dereferenceable(16) %47, i8 0, i64 16, i1 false)
  invoke void @__cxa_rethrow() #16
          to label %70 unwind label %48

48:                                               ; preds = %43
  %49 = landingpad { i8*, i32 }
          cleanup
  invoke void @__cxa_end_catch()
          to label %50 unwind label %67

50:                                               ; preds = %48
  resume { i8*, i32 } %49

51:                                               ; preds = %21
  %52 = getelementptr inbounds %"class.std::_Deque_base", %"class.std::_Deque_base"* %0, i64 0, i32 0, i32 0, i32 2, i32 3
  store i32** %16, i32*** %52, align 8, !tbaa !39
  %53 = load i32*, i32** %16, align 8, !tbaa !14
  %54 = getelementptr inbounds %"class.std::_Deque_base", %"class.std::_Deque_base"* %0, i64 0, i32 0, i32 0, i32 2, i32 1
  store i32* %53, i32** %54, align 8, !tbaa !40
  %55 = getelementptr inbounds i32, i32* %53, i64 128
  %56 = getelementptr inbounds %"class.std::_Deque_base", %"class.std::_Deque_base"* %0, i64 0, i32 0, i32 0, i32 2, i32 2
  store i32* %55, i32** %56, align 8, !tbaa !41
  %57 = getelementptr inbounds i32*, i32** %17, i64 -1
  %58 = getelementptr inbounds %"class.std::_Deque_base", %"class.std::_Deque_base"* %0, i64 0, i32 0, i32 0, i32 3, i32 3
  store i32** %57, i32*** %58, align 8, !tbaa !39
  %59 = load i32*, i32** %57, align 8, !tbaa !14
  %60 = getelementptr inbounds %"class.std::_Deque_base", %"class.std::_Deque_base"* %0, i64 0, i32 0, i32 0, i32 3, i32 1
  store i32* %59, i32** %60, align 8, !tbaa !40
  %61 = getelementptr inbounds i32, i32* %59, i64 128
  %62 = getelementptr inbounds %"class.std::_Deque_base", %"class.std::_Deque_base"* %0, i64 0, i32 0, i32 0, i32 3, i32 2
  store i32* %61, i32** %62, align 8, !tbaa !41
  %63 = getelementptr inbounds %"class.std::_Deque_base", %"class.std::_Deque_base"* %0, i64 0, i32 0, i32 0, i32 2, i32 0
  store i32* %53, i32** %63, align 8, !tbaa !42
  %64 = and i64 %1, 127
  %65 = getelementptr inbounds i32, i32* %59, i64 %64
  %66 = getelementptr inbounds %"class.std::_Deque_base", %"class.std::_Deque_base"* %0, i64 0, i32 0, i32 0, i32 3, i32 0
  store i32* %65, i32** %66, align 8, !tbaa !32
  ret void

67:                                               ; preds = %48
  %68 = landingpad { i8*, i32 }
          catch i8* null
  %69 = extractvalue { i8*, i32 } %68, 0
  tail call void @__clang_call_terminate(i8* %69) #18
  unreachable

70:                                               ; preds = %43
  unreachable
}

declare void @__cxa_rethrow() local_unnamed_addr

declare void @__cxa_end_catch() local_unnamed_addr

; Function Attrs: noreturn
declare void @_ZSt28__throw_bad_array_new_lengthv() local_unnamed_addr #11

; Function Attrs: noreturn
declare void @_ZSt17__throw_bad_allocv() local_unnamed_addr #11

; Function Attrs: nobuiltin allocsize(0)
declare nonnull i8* @_Znwm(i64) local_unnamed_addr #12

; Function Attrs: noreturn
declare void @_ZSt20__throw_length_errorPKc(i8*) local_unnamed_addr #11

; Function Attrs: argmemonly mustprogress nofree nounwind willreturn
declare void @llvm.memmove.p0i8.p0i8.i64(i8* nocapture writeonly, i8* nocapture readonly, i64, i1 immarg) #13

; Function Attrs: mustprogress sspstrong uwtable
define linkonce_odr dso_local void @_ZNSt5dequeIiSaIiEE16_M_push_back_auxIJRKiEEEvDpOT_(%"class.std::deque"* nonnull align 8 dereferenceable(80) %0, i32* nonnull align 4 dereferenceable(4) %1) local_unnamed_addr #14 comdat align 2 {
  %3 = getelementptr inbounds %"class.std::deque", %"class.std::deque"* %0, i64 0, i32 0, i32 0, i32 0, i32 3, i32 3
  %4 = load i32**, i32*** %3, align 8, !tbaa !39
  %5 = getelementptr inbounds %"class.std::deque", %"class.std::deque"* %0, i64 0, i32 0, i32 0, i32 0, i32 2, i32 3
  %6 = load i32**, i32*** %5, align 8, !tbaa !39
  %7 = ptrtoint i32** %4 to i64
  %8 = ptrtoint i32** %6 to i64
  %9 = sub i64 %7, %8
  %10 = ashr exact i64 %9, 3
  %11 = icmp ne i32** %4, null
  %12 = sext i1 %11 to i64
  %13 = add nsw i64 %10, %12
  %14 = shl nsw i64 %13, 7
  %15 = getelementptr inbounds %"class.std::deque", %"class.std::deque"* %0, i64 0, i32 0, i32 0, i32 0, i32 3, i32 0
  %16 = load i32*, i32** %15, align 8, !tbaa !31
  %17 = getelementptr inbounds %"class.std::deque", %"class.std::deque"* %0, i64 0, i32 0, i32 0, i32 0, i32 3, i32 1
  %18 = load i32*, i32** %17, align 8, !tbaa !40
  %19 = ptrtoint i32* %16 to i64
  %20 = ptrtoint i32* %18 to i64
  %21 = sub i64 %19, %20
  %22 = ashr exact i64 %21, 2
  %23 = add nsw i64 %14, %22
  %24 = getelementptr inbounds %"class.std::deque", %"class.std::deque"* %0, i64 0, i32 0, i32 0, i32 0, i32 2, i32 2
  %25 = load i32*, i32** %24, align 8, !tbaa !41
  %26 = getelementptr inbounds %"class.std::deque", %"class.std::deque"* %0, i64 0, i32 0, i32 0, i32 0, i32 2, i32 0
  %27 = load i32*, i32** %26, align 8, !tbaa !31
  %28 = ptrtoint i32* %25 to i64
  %29 = ptrtoint i32* %27 to i64
  %30 = sub i64 %28, %29
  %31 = ashr exact i64 %30, 2
  %32 = add nsw i64 %23, %31
  %33 = icmp eq i64 %32, 2305843009213693951
  br i1 %33, label %34, label %35

34:                                               ; preds = %2
  tail call void @_ZSt20__throw_length_errorPKc(i8* getelementptr inbounds ([48 x i8], [48 x i8]* @.str.5, i64 0, i64 0)) #16
  unreachable

35:                                               ; preds = %2
  %36 = getelementptr inbounds %"class.std::deque", %"class.std::deque"* %0, i64 0, i32 0, i32 0, i32 0, i32 1
  %37 = load i64, i64* %36, align 8, !tbaa !44
  %38 = getelementptr inbounds %"class.std::deque", %"class.std::deque"* %0, i64 0, i32 0, i32 0, i32 0, i32 0
  %39 = load i32**, i32*** %38, align 8, !tbaa !5
  %40 = ptrtoint i32** %39 to i64
  %41 = sub i64 %7, %40
  %42 = ashr exact i64 %41, 3
  %43 = sub i64 %37, %42
  %44 = icmp ult i64 %43, 2
  br i1 %44, label %45, label %46

45:                                               ; preds = %35
  tail call void @_ZNSt5dequeIiSaIiEE17_M_reallocate_mapEmb(%"class.std::deque"* nonnull align 8 dereferenceable(80) %0, i64 1, i1 zeroext false)
  br label %46

46:                                               ; preds = %35, %45
  %47 = tail call noalias nonnull i8* @_Znwm(i64 512) #17
  %48 = load i32**, i32*** %3, align 8, !tbaa !13
  %49 = getelementptr inbounds i32*, i32** %48, i64 1
  %50 = bitcast i32** %49 to i8**
  store i8* %47, i8** %50, align 8, !tbaa !14
  %51 = load i32*, i32** %15, align 8, !tbaa !32
  %52 = load i32, i32* %1, align 4, !tbaa !24
  store i32 %52, i32* %51, align 4, !tbaa !24
  %53 = load i32**, i32*** %3, align 8, !tbaa !13
  %54 = getelementptr inbounds i32*, i32** %53, i64 1
  store i32** %54, i32*** %3, align 8, !tbaa !39
  %55 = load i32*, i32** %54, align 8, !tbaa !14
  store i32* %55, i32** %17, align 8, !tbaa !40
  %56 = getelementptr inbounds i32, i32* %55, i64 128
  %57 = getelementptr inbounds %"class.std::deque", %"class.std::deque"* %0, i64 0, i32 0, i32 0, i32 0, i32 3, i32 2
  store i32* %56, i32** %57, align 8, !tbaa !41
  store i32* %55, i32** %15, align 8, !tbaa !32
  ret void
}

; Function Attrs: sspstrong uwtable
define linkonce_odr dso_local void @_ZNSt5dequeIiSaIiEE17_M_reallocate_mapEmb(%"class.std::deque"* nonnull align 8 dereferenceable(80) %0, i64 %1, i1 zeroext %2) local_unnamed_addr #10 comdat align 2 personality i32 (...)* @__gxx_personality_v0 {
  %4 = getelementptr inbounds %"class.std::deque", %"class.std::deque"* %0, i64 0, i32 0, i32 0, i32 0, i32 3, i32 3
  %5 = load i32**, i32*** %4, align 8, !tbaa !13
  %6 = getelementptr inbounds %"class.std::deque", %"class.std::deque"* %0, i64 0, i32 0, i32 0, i32 0, i32 2, i32 3
  %7 = load i32**, i32*** %6, align 8, !tbaa !12
  %8 = ptrtoint i32** %5 to i64
  %9 = ptrtoint i32** %7 to i64
  %10 = sub i64 %8, %9
  %11 = ashr exact i64 %10, 3
  %12 = add nsw i64 %11, 1
  %13 = add i64 %12, %1
  %14 = getelementptr inbounds %"class.std::deque", %"class.std::deque"* %0, i64 0, i32 0, i32 0, i32 0, i32 1
  %15 = load i64, i64* %14, align 8, !tbaa !44
  %16 = shl i64 %13, 1
  %17 = icmp ugt i64 %15, %16
  br i1 %17, label %18, label %42

18:                                               ; preds = %3
  %19 = getelementptr inbounds %"class.std::deque", %"class.std::deque"* %0, i64 0, i32 0, i32 0, i32 0, i32 0
  %20 = load i32**, i32*** %19, align 8, !tbaa !5
  %21 = sub i64 %15, %13
  %22 = lshr i64 %21, 1
  %23 = select i1 %2, i64 %1, i64 0
  %24 = add nsw i64 %22, %23
  %25 = getelementptr inbounds i32*, i32** %20, i64 %24
  %26 = icmp ult i32** %25, %7
  %27 = getelementptr inbounds i32*, i32** %5, i64 1
  %28 = ptrtoint i32** %27 to i64
  %29 = sub i64 %28, %9
  %30 = icmp eq i64 %29, 0
  br i1 %26, label %31, label %35

31:                                               ; preds = %18
  br i1 %30, label %74, label %32

32:                                               ; preds = %31
  %33 = bitcast i32** %25 to i8*
  %34 = bitcast i32** %7 to i8*
  tail call void @llvm.memmove.p0i8.p0i8.i64(i8* align 8 %33, i8* nonnull align 8 %34, i64 %29, i1 false) #15
  br label %74

35:                                               ; preds = %18
  br i1 %30, label %74, label %36

36:                                               ; preds = %35
  %37 = ashr exact i64 %29, 3
  %38 = sub nsw i64 %12, %37
  %39 = getelementptr inbounds i32*, i32** %25, i64 %38
  %40 = bitcast i32** %39 to i8*
  %41 = bitcast i32** %7 to i8*
  tail call void @llvm.memmove.p0i8.p0i8.i64(i8* align 8 %40, i8* align 8 %41, i64 %29, i1 false) #15
  br label %74

42:                                               ; preds = %3
  %43 = icmp ult i64 %15, %1
  %44 = select i1 %43, i64 %1, i64 %15
  %45 = add i64 %15, 2
  %46 = add i64 %45, %44
  %47 = icmp ugt i64 %46, 1152921504606846975
  br i1 %47, label %48, label %52, !prof !46

48:                                               ; preds = %42
  %49 = icmp ugt i64 %46, 2305843009213693951
  br i1 %49, label %50, label %51

50:                                               ; preds = %48
  tail call void @_ZSt28__throw_bad_array_new_lengthv() #16
  unreachable

51:                                               ; preds = %48
  tail call void @_ZSt17__throw_bad_allocv() #16
  unreachable

52:                                               ; preds = %42
  %53 = shl nuw nsw i64 %46, 3
  %54 = tail call noalias nonnull i8* @_Znwm(i64 %53) #17
  %55 = bitcast i8* %54 to i32**
  %56 = sub i64 %46, %13
  %57 = lshr i64 %56, 1
  %58 = select i1 %2, i64 %1, i64 0
  %59 = add nsw i64 %57, %58
  %60 = getelementptr inbounds i32*, i32** %55, i64 %59
  %61 = load i32**, i32*** %6, align 8, !tbaa !12
  %62 = load i32**, i32*** %4, align 8, !tbaa !13
  %63 = getelementptr inbounds i32*, i32** %62, i64 1
  %64 = ptrtoint i32** %63 to i64
  %65 = ptrtoint i32** %61 to i64
  %66 = sub i64 %64, %65
  %67 = icmp eq i64 %66, 0
  br i1 %67, label %71, label %68

68:                                               ; preds = %52
  %69 = bitcast i32** %60 to i8*
  %70 = bitcast i32** %61 to i8*
  tail call void @llvm.memmove.p0i8.p0i8.i64(i8* nonnull align 8 %69, i8* align 8 %70, i64 %66, i1 false) #15
  br label %71

71:                                               ; preds = %52, %68
  %72 = bitcast %"class.std::deque"* %0 to i8**
  %73 = load i8*, i8** %72, align 8, !tbaa !5
  tail call void @_ZdlPv(i8* %73) #15
  store i8* %54, i8** %72, align 8, !tbaa !5
  store i64 %46, i64* %14, align 8, !tbaa !44
  br label %74

74:                                               ; preds = %32, %31, %36, %35, %71
  %75 = phi i32** [ %60, %71 ], [ %25, %35 ], [ %25, %36 ], [ %25, %31 ], [ %25, %32 ]
  store i32** %75, i32*** %6, align 8, !tbaa !39
  %76 = load i32*, i32** %75, align 8, !tbaa !14
  %77 = getelementptr inbounds %"class.std::deque", %"class.std::deque"* %0, i64 0, i32 0, i32 0, i32 0, i32 2, i32 1
  store i32* %76, i32** %77, align 8, !tbaa !40
  %78 = getelementptr inbounds i32, i32* %76, i64 128
  %79 = getelementptr inbounds %"class.std::deque", %"class.std::deque"* %0, i64 0, i32 0, i32 0, i32 0, i32 2, i32 2
  store i32* %78, i32** %79, align 8, !tbaa !41
  %80 = getelementptr inbounds i32*, i32** %75, i64 %11
  store i32** %80, i32*** %4, align 8, !tbaa !39
  %81 = load i32*, i32** %80, align 8, !tbaa !14
  %82 = getelementptr inbounds %"class.std::deque", %"class.std::deque"* %0, i64 0, i32 0, i32 0, i32 0, i32 3, i32 1
  store i32* %81, i32** %82, align 8, !tbaa !40
  %83 = getelementptr inbounds i32, i32* %81, i64 128
  %84 = getelementptr inbounds %"class.std::deque", %"class.std::deque"* %0, i64 0, i32 0, i32 0, i32 0, i32 3, i32 2
  store i32* %83, i32** %84, align 8, !tbaa !41
  ret void
}

declare nonnull align 8 dereferenceable(8) %"class.std::basic_ostream"* @_ZSt16__ostream_insertIcSt11char_traitsIcEERSt13basic_ostreamIT_T0_ES6_PKS3_l(%"class.std::basic_ostream"* nonnull align 8 dereferenceable(8), i8*, i64) local_unnamed_addr #0

; Function Attrs: sspstrong uwtable
define internal void @_GLOBAL__sub_I_s275261148.cpp() #10 section ".text.startup" personality i32 (...)* @__gxx_personality_v0 {
  tail call void @_ZNSt8ios_base4InitC1Ev(%"class.std::ios_base::Init"* nonnull align 1 dereferenceable(1) @_ZStL8__ioinit)
  %1 = tail call i32 @__cxa_atexit(void (i8*)* bitcast (void (%"class.std::ios_base::Init"*)* @_ZNSt8ios_base4InitD1Ev to void (i8*)*), i8* getelementptr inbounds (%"class.std::ios_base::Init", %"class.std::ios_base::Init"* @_ZStL8__ioinit, i64 0, i32 0), i8* nonnull @__dso_handle) #15
  tail call void @llvm.memset.p0i8.i64(i8* noundef nonnull align 8 dereferenceable(80) bitcast (%"class.std::queue"* @q to i8*), i8 0, i64 80, i1 false)
  tail call void @_ZNSt11_Deque_baseIiSaIiEE17_M_initialize_mapEm(%"class.std::_Deque_base"* nonnull align 8 dereferenceable(80) getelementptr inbounds (%"class.std::queue", %"class.std::queue"* @q, i64 0, i32 0, i32 0), i64 0)
  %2 = tail call i32 @__cxa_atexit(void (i8*)* bitcast (void (%"class.std::queue"*)* @_ZNSt5queueIiSt5dequeIiSaIiEEED2Ev to void (i8*)*), i8* bitcast (%"class.std::queue"* @q to i8*), i8* nonnull @__dso_handle) #15
  tail call void @llvm.memset.p0i8.i64(i8* noundef nonnull align 16 dereferenceable(4802400) bitcast ([200100 x %"class.std::vector"]* @adj to i8*), i8 0, i64 4802400, i1 false) #15
  %3 = tail call i32 @__cxa_atexit(void (i8*)* nonnull @__cxx_global_array_dtor, i8* null, i8* nonnull @__dso_handle) #15
  ret void
}

attributes #0 = { "frame-pointer"="none" "no-trapping-math"="true" "stack-protector-buffer-size"="8" "target-cpu"="x86-64" "target-features"="+cx8,+fxsr,+mmx,+sse,+sse2,+x87" "tune-cpu"="generic" }
attributes #1 = { nounwind "frame-pointer"="none" "no-trapping-math"="true" "stack-protector-buffer-size"="8" "target-cpu"="x86-64" "target-features"="+cx8,+fxsr,+mmx,+sse,+sse2,+x87" "tune-cpu"="generic" }
attributes #2 = { nofree nounwind }
attributes #3 = { inlinehint nounwind sspstrong uwtable "frame-pointer"="none" "min-legal-vector-width"="0" "no-trapping-math"="true" "stack-protector-buffer-size"="8" "target-cpu"="x86-64" "target-features"="+cx8,+fxsr,+mmx,+sse,+sse2,+x87" "tune-cpu"="generic" }
attributes #4 = { nounwind sspstrong uwtable "frame-pointer"="none" "min-legal-vector-width"="0" "no-trapping-math"="true" "stack-protector-buffer-size"="8" "target-cpu"="x86-64" "target-features"="+cx8,+fxsr,+mmx,+sse,+sse2,+x87" "tune-cpu"="generic" }
attributes #5 = { norecurse sspstrong uwtable "frame-pointer"="none" "min-legal-vector-width"="0" "no-trapping-math"="true" "stack-protector-buffer-size"="8" "target-cpu"="x86-64" "target-features"="+cx8,+fxsr,+mmx,+sse,+sse2,+x87" "tune-cpu"="generic" }
attributes #6 = { argmemonly mustprogress nofree nosync nounwind willreturn }
attributes #7 = { noinline noreturn nounwind }
attributes #8 = { nobuiltin nounwind "frame-pointer"="none" "no-trapping-math"="true" "stack-protector-buffer-size"="8" "target-cpu"="x86-64" "target-features"="+cx8,+fxsr,+mmx,+sse,+sse2,+x87" "tune-cpu"="generic" }
attributes #9 = { argmemonly mustprogress nofree nounwind willreturn writeonly }
attributes #10 = { sspstrong uwtable "frame-pointer"="none" "min-legal-vector-width"="0" "no-trapping-math"="true" "stack-protector-buffer-size"="8" "target-cpu"="x86-64" "target-features"="+cx8,+fxsr,+mmx,+sse,+sse2,+x87" "tune-cpu"="generic" }
attributes #11 = { noreturn "frame-pointer"="none" "no-trapping-math"="true" "stack-protector-buffer-size"="8" "target-cpu"="x86-64" "target-features"="+cx8,+fxsr,+mmx,+sse,+sse2,+x87" "tune-cpu"="generic" }
attributes #12 = { nobuiltin allocsize(0) "frame-pointer"="none" "no-trapping-math"="true" "stack-protector-buffer-size"="8" "target-cpu"="x86-64" "target-features"="+cx8,+fxsr,+mmx,+sse,+sse2,+x87" "tune-cpu"="generic" }
attributes #13 = { argmemonly mustprogress nofree nounwind willreturn }
attributes #14 = { mustprogress sspstrong uwtable "frame-pointer"="none" "min-legal-vector-width"="0" "no-trapping-math"="true" "stack-protector-buffer-size"="8" "target-cpu"="x86-64" "target-features"="+cx8,+fxsr,+mmx,+sse,+sse2,+x87" "tune-cpu"="generic" }
attributes #15 = { nounwind }
attributes #16 = { noreturn }
attributes #17 = { allocsize(0) }
attributes #18 = { noreturn nounwind }

!llvm.module.flags = !{!0, !1, !2, !3}
!llvm.ident = !{!4}

!0 = !{i32 1, !"wchar_size", i32 4}
!1 = !{i32 7, !"PIC Level", i32 2}
!2 = !{i32 7, !"PIE Level", i32 2}
!3 = !{i32 7, !"uwtable", i32 1}
!4 = !{!"clang version 13.0.0"}
!5 = !{!6, !7, i64 0}
!6 = !{!"_ZTSNSt11_Deque_baseIiSaIiEE16_Deque_impl_dataE", !7, i64 0, !10, i64 8, !11, i64 16, !11, i64 48}
!7 = !{!"any pointer", !8, i64 0}
!8 = !{!"omnipotent char", !9, i64 0}
!9 = !{!"Simple C++ TBAA"}
!10 = !{!"long", !8, i64 0}
!11 = !{!"_ZTSSt15_Deque_iteratorIiRiPiE", !7, i64 0, !7, i64 8, !7, i64 16, !7, i64 24}
!12 = !{!6, !7, i64 40}
!13 = !{!6, !7, i64 72}
!14 = !{!7, !7, i64 0}
!15 = distinct !{!15, !16}
!16 = !{!"llvm.loop.mustprogress"}
!17 = !{!18, !7, i64 0}
!18 = !{!"_ZTSNSt12_Vector_baseIiSaIiEE17_Vector_impl_dataE", !7, i64 0, !7, i64 8, !7, i64 16}
!19 = !{!20, !20, i64 0}
!20 = !{!"vtable pointer", !9, i64 0}
!21 = !{!22, !7, i64 216}
!22 = !{!"_ZTSSt9basic_iosIcSt11char_traitsIcEE", !7, i64 216, !8, i64 224, !23, i64 225, !7, i64 232, !7, i64 240, !7, i64 248, !7, i64 256}
!23 = !{!"bool", !8, i64 0}
!24 = !{!25, !25, i64 0}
!25 = !{!"int", !8, i64 0}
!26 = distinct !{!26, !16}
!27 = !{!18, !7, i64 8}
!28 = !{!18, !7, i64 16}
!29 = !{!8, !8, i64 0}
!30 = distinct !{!30, !16}
!31 = !{!11, !7, i64 0}
!32 = !{!6, !7, i64 48}
!33 = !{!6, !7, i64 64}
!34 = !{!23, !23, i64 0}
!35 = distinct !{!35, !16}
!36 = distinct !{!36, !16}
!37 = !{!6, !7, i64 32}
!38 = !{!6, !7, i64 24}
!39 = !{!11, !7, i64 24}
!40 = !{!11, !7, i64 8}
!41 = !{!11, !7, i64 16}
!42 = !{!6, !7, i64 16}
!43 = !{i8 0, i8 2}
!44 = !{!6, !10, i64 8}
!45 = distinct !{!45, !16}
!46 = !{!"branch_weights", i32 1, i32 2000}
