; ModuleID = 'build_ollvm/programs/p03224/s445884193.ll'
source_filename = "Project_CodeNet_C++1400/p03224/s445884193.cpp"
target datalayout = "e-m:e-p270:32:32-p271:32:32-p272:64:64-i64:64-f80:128-n8:16:32:64-S128"
target triple = "x86_64-pc-linux-gnu"

%"class.std::ios_base::Init" = type { i8 }
%"class.std::basic_ostream" = type { i32 (...)**, %"class.std::basic_ios" }
%"class.std::basic_ios" = type { %"class.std::ios_base", %"class.std::basic_ostream"*, i8, i8, %"class.std::basic_streambuf"*, %"class.std::ctype"*, %"class.std::num_put"*, %"class.std::num_get"* }
%"class.std::ios_base" = type { i32 (...)**, i64, i64, i32, i32, i32, %"struct.std::ios_base::_Callback_list"*, %"struct.std::ios_base::_Words", [8 x %"struct.std::ios_base::_Words"], i32, %"struct.std::ios_base::_Words"*, %"class.std::locale" }
%"struct.std::ios_base::_Callback_list" = type { %"struct.std::ios_base::_Callback_list"*, void (i32, %"class.std::ios_base"*, i32)*, i32, i32 }
%"struct.std::ios_base::_Words" = type { i8*, i64 }
%"class.std::locale" = type { %"class.std::locale::_Impl"* }
%"class.std::locale::_Impl" = type { i32, %"class.std::locale::facet"**, i64, %"class.std::locale::facet"**, i8** }
%"class.std::locale::facet" = type <{ i32 (...)**, i32, [4 x i8] }>
%"class.std::basic_streambuf" = type { i32 (...)**, i8*, i8*, i8*, i8*, i8*, i8*, %"class.std::locale" }
%"class.std::ctype" = type <{ %"class.std::locale::facet.base", [4 x i8], %struct.__locale_struct*, i8, [7 x i8], i32*, i32*, i16*, i8, [256 x i8], [256 x i8], i8, [6 x i8] }>
%"class.std::locale::facet.base" = type <{ i32 (...)**, i32 }>
%struct.__locale_struct = type { [13 x %struct.__locale_data*], i16*, i32*, i32*, [13 x i8*] }
%struct.__locale_data = type opaque
%"class.std::num_put" = type { %"class.std::locale::facet.base", [4 x i8] }
%"class.std::num_get" = type { %"class.std::locale::facet.base", [4 x i8] }
%"class.std::vector" = type { %"struct.std::_Vector_base" }
%"struct.std::_Vector_base" = type { %"struct.std::_Vector_base<int, std::allocator<int> >::_Vector_impl" }
%"struct.std::_Vector_base<int, std::allocator<int> >::_Vector_impl" = type { i32*, i32*, i32* }
%"class.std::basic_istream" = type { i32 (...)**, i64, %"class.std::basic_ios" }
%"class.std::allocator" = type { i8 }
%"class.__gnu_cxx::new_allocator" = type { i8 }
%"class.std::move_iterator" = type { i32* }

$_ZNSt6vectorIiSaIiEEC2Ev = comdat any

$_ZNSt6vectorIiSaIiEED2Ev = comdat any

$_ZNSt6vectorIiSaIiEE9push_backERKi = comdat any

$_ZNKSt6vectorIiSaIiEE4sizeEv = comdat any

$_ZNSt6vectorIiSaIiEEixEm = comdat any

$_ZSt5fixedRSt8ios_base = comdat any

$_ZNSt8ios_base9precisionEl = comdat any

$_ZNSt8ios_base4setfESt13_Ios_FmtflagsS0_ = comdat any

$_ZStaNRSt13_Ios_FmtflagsS_ = comdat any

$_ZStcoSt13_Ios_Fmtflags = comdat any

$_ZStoRRSt13_Ios_FmtflagsS_ = comdat any

$_ZStanSt13_Ios_FmtflagsS_ = comdat any

$_ZStorSt13_Ios_FmtflagsS_ = comdat any

$_ZNSt12_Vector_baseIiSaIiEEC2Ev = comdat any

$__clang_call_terminate = comdat any

$_ZNSt12_Vector_baseIiSaIiEE12_Vector_implC2Ev = comdat any

$_ZNSaIiEC2Ev = comdat any

$_ZN9__gnu_cxx13new_allocatorIiEC2Ev = comdat any

$_ZSt8_DestroyIPiiEvT_S1_RSaIT0_E = comdat any

$_ZNSt12_Vector_baseIiSaIiEE19_M_get_Tp_allocatorEv = comdat any

$_ZNSt12_Vector_baseIiSaIiEED2Ev = comdat any

$_ZSt8_DestroyIPiEvT_S1_ = comdat any

$_ZNSt12_Destroy_auxILb1EE9__destroyIPiEEvT_S3_ = comdat any

$_ZNSt12_Vector_baseIiSaIiEE13_M_deallocateEPim = comdat any

$_ZNSt12_Vector_baseIiSaIiEE12_Vector_implD2Ev = comdat any

$_ZNSt16allocator_traitsISaIiEE10deallocateERS0_Pim = comdat any

$_ZN9__gnu_cxx13new_allocatorIiE10deallocateEPim = comdat any

$_ZNSaIiED2Ev = comdat any

$_ZN9__gnu_cxx13new_allocatorIiED2Ev = comdat any

$_ZNSt16allocator_traitsISaIiEE9constructIiJRKiEEEvRS0_PT_DpOT0_ = comdat any

$_ZNSt6vectorIiSaIiEE19_M_emplace_back_auxIJRKiEEEvDpOT_ = comdat any

$_ZN9__gnu_cxx13new_allocatorIiE9constructIiJRKiEEEvPT_DpOT0_ = comdat any

$_ZSt7forwardIRKiEOT_RNSt16remove_referenceIS2_E4typeE = comdat any

$_ZNKSt6vectorIiSaIiEE12_M_check_lenEmPKc = comdat any

$_ZNSt12_Vector_baseIiSaIiEE11_M_allocateEm = comdat any

$_ZSt34__uninitialized_move_if_noexcept_aIPiS0_SaIiEET0_T_S3_S2_RT1_ = comdat any

$_ZNSt16allocator_traitsISaIiEE7destroyIiEEvRS0_PT_ = comdat any

$_ZNKSt6vectorIiSaIiEE8max_sizeEv = comdat any

$_ZSt3maxImERKT_S2_S2_ = comdat any

$_ZNSt16allocator_traitsISaIiEE8max_sizeERKS0_ = comdat any

$_ZNKSt12_Vector_baseIiSaIiEE19_M_get_Tp_allocatorEv = comdat any

$_ZNK9__gnu_cxx13new_allocatorIiE8max_sizeEv = comdat any

$_ZNSt16allocator_traitsISaIiEE8allocateERS0_m = comdat any

$_ZN9__gnu_cxx13new_allocatorIiE8allocateEmPKv = comdat any

$_ZSt22__uninitialized_copy_aISt13move_iteratorIPiES1_iET0_T_S4_S3_RSaIT1_E = comdat any

$_ZSt32__make_move_if_noexcept_iteratorIPiSt13move_iteratorIS0_EET0_T_ = comdat any

$_ZSt18uninitialized_copyISt13move_iteratorIPiES1_ET0_T_S4_S3_ = comdat any

$_ZNSt20__uninitialized_copyILb1EE13__uninit_copyISt13move_iteratorIPiES3_EET0_T_S6_S5_ = comdat any

$_ZSt4copyISt13move_iteratorIPiES1_ET0_T_S4_S3_ = comdat any

$_ZSt14__copy_move_a2ILb1EPiS0_ET1_T0_S2_S1_ = comdat any

$_ZSt12__miter_baseISt13move_iteratorIPiEENSt11_Miter_baseIT_E13iterator_typeES4_ = comdat any

$_ZSt13__copy_move_aILb1EPiS0_ET1_T0_S2_S1_ = comdat any

$_ZSt12__niter_baseIPiENSt11_Niter_baseIT_E13iterator_typeES2_ = comdat any

$_ZNSt11__copy_moveILb1ELb1ESt26random_access_iterator_tagE8__copy_mIiEEPT_PKS3_S6_S4_ = comdat any

$_ZNSt10_Iter_baseIPiLb0EE7_S_baseES0_ = comdat any

$_ZNSt10_Iter_baseISt13move_iteratorIPiELb1EE7_S_baseES2_ = comdat any

$_ZNKSt13move_iteratorIPiE4baseEv = comdat any

$_ZNSt13move_iteratorIPiEC2ES0_ = comdat any

$_ZN9__gnu_cxx13new_allocatorIiE7destroyIiEEvPT_ = comdat any

@_ZStL8__ioinit = internal global %"class.std::ios_base::Init" zeroinitializer, align 1
@__dso_handle = external global i8
@_ZSt4cout = external global %"class.std::basic_ostream", align 8
@N = global i32 0, align 4
@vec = global [200010 x %"class.std::vector"] zeroinitializer, align 16
@_ZSt3cin = external global %"class.std::basic_istream", align 8
@.str = private unnamed_addr constant [4 x i8] c"No\0A\00", align 1
@.str.2 = private unnamed_addr constant [5 x i8] c"Yes\0A\00", align 1
@.str.3 = private unnamed_addr constant [2 x i8] c"\0A\00", align 1
@.str.4 = private unnamed_addr constant [2 x i8] c" \00", align 1
@.str.5 = private unnamed_addr constant [28 x i8] c"vector::_M_emplace_back_aux\00", align 1
@llvm.global_ctors = appending global [1 x { i32, void ()*, i8* }] [{ i32, void ()*, i8* } { i32 65535, void ()* @_GLOBAL__sub_I_s445884193.cpp, i8* null }]
@x = common local_unnamed_addr global i32 0
@y = common local_unnamed_addr global i32 0
@x.6 = common local_unnamed_addr global i32 0
@y.7 = common local_unnamed_addr global i32 0
@x.8 = common local_unnamed_addr global i32 0
@y.9 = common local_unnamed_addr global i32 0
@x.10 = common local_unnamed_addr global i32 0
@y.11 = common local_unnamed_addr global i32 0
@x.12 = common local_unnamed_addr global i32 0
@y.13 = common local_unnamed_addr global i32 0
@x.14 = common local_unnamed_addr global i32 0
@y.15 = common local_unnamed_addr global i32 0
@x.16 = common local_unnamed_addr global i32 0
@y.17 = common local_unnamed_addr global i32 0
@x.18 = common local_unnamed_addr global i32 0
@y.19 = common local_unnamed_addr global i32 0
@x.20 = common local_unnamed_addr global i32 0
@y.21 = common local_unnamed_addr global i32 0
@x.22 = common local_unnamed_addr global i32 0
@y.23 = common local_unnamed_addr global i32 0
@x.24 = common local_unnamed_addr global i32 0
@y.25 = common local_unnamed_addr global i32 0
@x.26 = common local_unnamed_addr global i32 0
@y.27 = common local_unnamed_addr global i32 0
@x.28 = common local_unnamed_addr global i32 0
@y.29 = common local_unnamed_addr global i32 0
@x.30 = common local_unnamed_addr global i32 0
@y.31 = common local_unnamed_addr global i32 0
@x.32 = common local_unnamed_addr global i32 0
@y.33 = common local_unnamed_addr global i32 0
@x.34 = common local_unnamed_addr global i32 0
@y.35 = common local_unnamed_addr global i32 0
@x.36 = common local_unnamed_addr global i32 0
@y.37 = common local_unnamed_addr global i32 0
@x.38 = common local_unnamed_addr global i32 0
@y.39 = common local_unnamed_addr global i32 0
@x.40 = common local_unnamed_addr global i32 0
@y.41 = common local_unnamed_addr global i32 0
@x.42 = common local_unnamed_addr global i32 0
@y.43 = common local_unnamed_addr global i32 0
@x.44 = common local_unnamed_addr global i32 0
@y.45 = common local_unnamed_addr global i32 0
@x.46 = common local_unnamed_addr global i32 0
@y.47 = common local_unnamed_addr global i32 0
@x.48 = common local_unnamed_addr global i32 0
@y.49 = common local_unnamed_addr global i32 0
@x.50 = common local_unnamed_addr global i32 0
@y.51 = common local_unnamed_addr global i32 0
@x.52 = common local_unnamed_addr global i32 0
@y.53 = common local_unnamed_addr global i32 0
@x.54 = common local_unnamed_addr global i32 0
@y.55 = common local_unnamed_addr global i32 0
@x.56 = common local_unnamed_addr global i32 0
@y.57 = common local_unnamed_addr global i32 0
@x.58 = common local_unnamed_addr global i32 0
@y.59 = common local_unnamed_addr global i32 0
@x.60 = common local_unnamed_addr global i32 0
@y.61 = common local_unnamed_addr global i32 0
@x.62 = common local_unnamed_addr global i32 0
@y.63 = common local_unnamed_addr global i32 0
@x.64 = common local_unnamed_addr global i32 0
@y.65 = common local_unnamed_addr global i32 0
@x.66 = common local_unnamed_addr global i32 0
@y.67 = common local_unnamed_addr global i32 0
@x.68 = common local_unnamed_addr global i32 0
@y.69 = common local_unnamed_addr global i32 0
@x.70 = common local_unnamed_addr global i32 0
@y.71 = common local_unnamed_addr global i32 0
@x.72 = common local_unnamed_addr global i32 0
@y.73 = common local_unnamed_addr global i32 0
@x.74 = common local_unnamed_addr global i32 0
@y.75 = common local_unnamed_addr global i32 0
@x.76 = common local_unnamed_addr global i32 0
@y.77 = common local_unnamed_addr global i32 0
@x.78 = common local_unnamed_addr global i32 0
@y.79 = common local_unnamed_addr global i32 0
@x.80 = common local_unnamed_addr global i32 0
@y.81 = common local_unnamed_addr global i32 0
@x.82 = common local_unnamed_addr global i32 0
@y.83 = common local_unnamed_addr global i32 0
@x.84 = common local_unnamed_addr global i32 0
@y.85 = common local_unnamed_addr global i32 0
@x.86 = common local_unnamed_addr global i32 0
@y.87 = common local_unnamed_addr global i32 0
@x.88 = common local_unnamed_addr global i32 0
@y.89 = common local_unnamed_addr global i32 0
@x.90 = common local_unnamed_addr global i32 0
@y.91 = common local_unnamed_addr global i32 0
@x.92 = common local_unnamed_addr global i32 0
@y.93 = common local_unnamed_addr global i32 0
@x.94 = common local_unnamed_addr global i32 0
@y.95 = common local_unnamed_addr global i32 0
@x.96 = common local_unnamed_addr global i32 0
@y.97 = common local_unnamed_addr global i32 0
@x.98 = common local_unnamed_addr global i32 0
@y.99 = common local_unnamed_addr global i32 0
@x.100 = common local_unnamed_addr global i32 0
@y.101 = common local_unnamed_addr global i32 0
@x.102 = common local_unnamed_addr global i32 0
@y.103 = common local_unnamed_addr global i32 0
@x.104 = common local_unnamed_addr global i32 0
@y.105 = common local_unnamed_addr global i32 0
@x.106 = common local_unnamed_addr global i32 0
@y.107 = common local_unnamed_addr global i32 0
@x.108 = common local_unnamed_addr global i32 0
@y.109 = common local_unnamed_addr global i32 0
@x.110 = common local_unnamed_addr global i32 0
@y.111 = common local_unnamed_addr global i32 0
@x.112 = common local_unnamed_addr global i32 0
@y.113 = common local_unnamed_addr global i32 0
@x.114 = common local_unnamed_addr global i32 0
@y.115 = common local_unnamed_addr global i32 0
@x.116 = common local_unnamed_addr global i32 0
@y.117 = common local_unnamed_addr global i32 0
@x.118 = common local_unnamed_addr global i32 0
@y.119 = common local_unnamed_addr global i32 0
@x.120 = common local_unnamed_addr global i32 0
@y.121 = common local_unnamed_addr global i32 0
@x.122 = common local_unnamed_addr global i32 0
@y.123 = common local_unnamed_addr global i32 0
@x.124 = common local_unnamed_addr global i32 0
@y.125 = common local_unnamed_addr global i32 0
@x.126 = common local_unnamed_addr global i32 0
@y.127 = common local_unnamed_addr global i32 0
@x.128 = common local_unnamed_addr global i32 0
@y.129 = common local_unnamed_addr global i32 0
@x.130 = common local_unnamed_addr global i32 0
@y.131 = common local_unnamed_addr global i32 0
@x.132 = common local_unnamed_addr global i32 0
@y.133 = common local_unnamed_addr global i32 0
@x.134 = common local_unnamed_addr global i32 0
@y.135 = common local_unnamed_addr global i32 0

; Function Attrs: noinline uwtable
define internal fastcc void @__cxx_global_var_init() unnamed_addr #0 section ".text.startup" {
  tail call void @_ZNSt8ios_base4InitC1Ev(%"class.std::ios_base::Init"* nonnull @_ZStL8__ioinit)
  %1 = tail call i32 @__cxa_atexit(void (i8*)* bitcast (void (%"class.std::ios_base::Init"*)* @_ZNSt8ios_base4InitD1Ev to void (i8*)*), i8* getelementptr inbounds (%"class.std::ios_base::Init", %"class.std::ios_base::Init"* @_ZStL8__ioinit, i64 0, i32 0), i8* nonnull @__dso_handle) #12
  ret void
}

declare void @_ZNSt8ios_base4InitC1Ev(%"class.std::ios_base::Init"*) unnamed_addr #1

; Function Attrs: nounwind
declare void @_ZNSt8ios_base4InitD1Ev(%"class.std::ios_base::Init"*) unnamed_addr #2

; Function Attrs: nofree nounwind
declare i32 @__cxa_atexit(void (i8*)*, i8*, i8*) local_unnamed_addr #3

; Function Attrs: noinline uwtable
define void @_Z5Debugv() local_unnamed_addr #0 {
  %1 = alloca i1, align 1
  %2 = alloca i1, align 1
  %3 = load i32, i32* @x.6, align 4
  %4 = load i32, i32* @y.7, align 4
  %5 = add i32 %3, -1
  %6 = mul i32 %5, %3
  %7 = and i32 %6, 1
  %8 = icmp eq i32 %7, 0
  store i1 %8, i1* %2, align 1
  %9 = icmp slt i32 %4, 10
  store i1 %9, i1* %1, align 1
  br label %.outer

.outer:                                           ; preds = %.outer.backedge, %0
  %.0.ph = phi i32 [ 1974369525, %0 ], [ %.0.ph.be, %.outer.backedge ]
  br label %10

10:                                               ; preds = %.outer, %10
  switch i32 %.0.ph, label %10 [
    i32 1974369525, label %11
    i32 1488517346, label %14
    i32 1555749723, label %25
    i32 -480132687, label %26
  ]

11:                                               ; preds = %10
  %.0..0..0. = load volatile i1, i1* %2, align 1
  %.0..0..0.1 = load volatile i1, i1* %1, align 1
  %12 = or i1 %.0..0..0., %.0..0..0.1
  %13 = select i1 %12, i32 1488517346, i32 -480132687
  br label %.outer.backedge

14:                                               ; preds = %10
  %15 = tail call dereferenceable(272) %"class.std::basic_ostream"* @_ZStlsISt11char_traitsIcEERSt13basic_ostreamIcT_ES5_c(%"class.std::basic_ostream"* nonnull dereferenceable(272) @_ZSt4cout, i8 signext 10)
  %16 = load i32, i32* @x.6, align 4
  %17 = load i32, i32* @y.7, align 4
  %18 = add i32 %16, -1
  %19 = mul i32 %18, %16
  %20 = and i32 %19, 1
  %21 = icmp eq i32 %20, 0
  %22 = icmp slt i32 %17, 10
  %23 = or i1 %22, %21
  %24 = select i1 %23, i32 1555749723, i32 -480132687
  br label %.outer.backedge

25:                                               ; preds = %10
  ret void

26:                                               ; preds = %10
  %27 = tail call dereferenceable(272) %"class.std::basic_ostream"* @_ZStlsISt11char_traitsIcEERSt13basic_ostreamIcT_ES5_c(%"class.std::basic_ostream"* nonnull dereferenceable(272) @_ZSt4cout, i8 signext 10)
  br label %.outer.backedge

.outer.backedge:                                  ; preds = %26, %14, %11
  %.0.ph.be = phi i32 [ %13, %11 ], [ %24, %14 ], [ 1488517346, %26 ]
  br label %.outer
}

declare dereferenceable(272) %"class.std::basic_ostream"* @_ZStlsISt11char_traitsIcEERSt13basic_ostreamIcT_ES5_c(%"class.std::basic_ostream"* dereferenceable(272), i8 signext) local_unnamed_addr #1

; Function Attrs: noinline nounwind uwtable
define internal fastcc void @__cxx_global_var_init.1() unnamed_addr #4 section ".text.startup" {
  %1 = alloca %"class.std::vector"*, align 8
  %2 = alloca i1, align 1
  %3 = alloca %"class.std::vector"*, align 8
  %4 = alloca i1, align 1
  %5 = alloca i1, align 1
  %6 = load i32, i32* @x.8, align 4
  %7 = load i32, i32* @y.9, align 4
  %8 = add i32 %6, -1
  %9 = mul i32 %8, %6
  %10 = and i32 %9, 1
  %11 = icmp eq i32 %10, 0
  store i1 %11, i1* %5, align 1
  %12 = icmp slt i32 %7, 10
  store i1 %12, i1* %4, align 1
  br label %13

13:                                               ; preds = %.backedge, %0
  %.010 = phi i32 [ -1237043266, %0 ], [ %.010.be, %.backedge ]
  %.0 = phi %"class.std::vector"* [ undef, %0 ], [ %.0.be, %.backedge ]
  switch i32 %.010, label %.backedge [
    i32 -1237043266, label %14
    i32 1741855161, label %17
    i32 2062086889, label %27
    i32 923993456, label %28
    i32 -1043905661, label %38
    i32 1246010110, label %50
    i32 -1902706430, label %52
    i32 2045285772, label %62
    i32 1087077047, label %73
    i32 1791829475, label %74
    i32 421041869, label %75
    i32 690451860, label %76
  ]

.backedge:                                        ; preds = %13, %76, %75, %74, %62, %52, %50, %38, %28, %27, %17, %14
  %.010.be = phi i32 [ %.010, %13 ], [ 2045285772, %76 ], [ -1043905661, %75 ], [ 1741855161, %74 ], [ %72, %62 ], [ %61, %52 ], [ %51, %50 ], [ %49, %38 ], [ %37, %28 ], [ 923993456, %27 ], [ %26, %17 ], [ %16, %14 ]
  %.0.be = phi %"class.std::vector"* [ %.0, %13 ], [ %.0, %76 ], [ %.0, %75 ], [ %.0, %74 ], [ %.0, %62 ], [ %.0, %52 ], [ %.0..0..0.4, %50 ], [ %.0, %38 ], [ %.0, %28 ], [ getelementptr inbounds ([200010 x %"class.std::vector"], [200010 x %"class.std::vector"]* @vec, i64 0, i64 0), %27 ], [ %.0, %17 ], [ %.0, %14 ]
  br label %13

14:                                               ; preds = %13
  %.0..0..0.1 = load volatile i1, i1* %5, align 1
  %.0..0..0.2 = load volatile i1, i1* %4, align 1
  %15 = or i1 %.0..0..0.1, %.0..0..0.2
  %16 = select i1 %15, i32 1741855161, i32 1791829475
  br label %.backedge

17:                                               ; preds = %13
  %18 = load i32, i32* @x.8, align 4
  %19 = load i32, i32* @y.9, align 4
  %20 = add i32 %18, -1
  %21 = mul i32 %20, %18
  %22 = and i32 %21, 1
  %23 = icmp eq i32 %22, 0
  %24 = icmp slt i32 %19, 10
  %25 = or i1 %24, %23
  %26 = select i1 %25, i32 2062086889, i32 1791829475
  br label %.backedge

27:                                               ; preds = %13
  br label %.backedge

28:                                               ; preds = %13
  store %"class.std::vector"* %.0, %"class.std::vector"** %1, align 8
  %29 = load i32, i32* @x.8, align 4
  %30 = load i32, i32* @y.9, align 4
  %31 = add i32 %29, -1
  %32 = mul i32 %31, %29
  %33 = and i32 %32, 1
  %34 = icmp eq i32 %33, 0
  %35 = icmp slt i32 %30, 10
  %36 = or i1 %35, %34
  %37 = select i1 %36, i32 -1043905661, i32 421041869
  br label %.backedge

38:                                               ; preds = %13
  %.0..0..0.6 = load volatile %"class.std::vector"*, %"class.std::vector"** %1, align 8
  tail call void @_ZNSt6vectorIiSaIiEEC2Ev(%"class.std::vector"* %.0..0..0.6) #12
  %.0..0..0.7 = load volatile %"class.std::vector"*, %"class.std::vector"** %1, align 8
  %39 = getelementptr inbounds %"class.std::vector", %"class.std::vector"* %.0..0..0.7, i64 1
  store %"class.std::vector"* %39, %"class.std::vector"** %3, align 8
  %.0..0..0.3 = load volatile %"class.std::vector"*, %"class.std::vector"** %3, align 8
  %40 = icmp eq %"class.std::vector"* %.0..0..0.3, getelementptr inbounds ([200010 x %"class.std::vector"], [200010 x %"class.std::vector"]* @vec, i64 1, i64 0)
  store i1 %40, i1* %2, align 1
  %41 = load i32, i32* @x.8, align 4
  %42 = load i32, i32* @y.9, align 4
  %43 = add i32 %41, -1
  %44 = mul i32 %43, %41
  %45 = and i32 %44, 1
  %46 = icmp eq i32 %45, 0
  %47 = icmp slt i32 %42, 10
  %48 = or i1 %47, %46
  %49 = select i1 %48, i32 1246010110, i32 421041869
  br label %.backedge

50:                                               ; preds = %13
  %.0..0..0.5 = load volatile i1, i1* %2, align 1
  %51 = select i1 %.0..0..0.5, i32 -1902706430, i32 923993456
  %.0..0..0.4 = load volatile %"class.std::vector"*, %"class.std::vector"** %3, align 8
  br label %.backedge

52:                                               ; preds = %13
  %53 = load i32, i32* @x.8, align 4
  %54 = load i32, i32* @y.9, align 4
  %55 = add i32 %53, -1
  %56 = mul i32 %55, %53
  %57 = and i32 %56, 1
  %58 = icmp eq i32 %57, 0
  %59 = icmp slt i32 %54, 10
  %60 = or i1 %59, %58
  %61 = select i1 %60, i32 2045285772, i32 690451860
  br label %.backedge

62:                                               ; preds = %13
  %63 = tail call i32 @__cxa_atexit(void (i8*)* nonnull @__cxx_global_array_dtor, i8* null, i8* nonnull @__dso_handle) #12
  %64 = load i32, i32* @x.8, align 4
  %65 = load i32, i32* @y.9, align 4
  %66 = add i32 %64, -1
  %67 = mul i32 %66, %64
  %68 = and i32 %67, 1
  %69 = icmp eq i32 %68, 0
  %70 = icmp slt i32 %65, 10
  %71 = or i1 %70, %69
  %72 = select i1 %71, i32 1087077047, i32 690451860
  br label %.backedge

73:                                               ; preds = %13
  ret void

74:                                               ; preds = %13
  br label %.backedge

75:                                               ; preds = %13
  %.0..0..0.8 = load volatile %"class.std::vector"*, %"class.std::vector"** %1, align 8
  tail call void @_ZNSt6vectorIiSaIiEEC2Ev(%"class.std::vector"* %.0..0..0.8) #12
  %.0..0..0.9 = load volatile %"class.std::vector"*, %"class.std::vector"** %1, align 8
  br label %.backedge

76:                                               ; preds = %13
  %77 = tail call i32 @__cxa_atexit(void (i8*)* nonnull @__cxx_global_array_dtor, i8* null, i8* nonnull @__dso_handle) #12
  br label %.backedge
}

; Function Attrs: noinline nounwind uwtable
define linkonce_odr void @_ZNSt6vectorIiSaIiEEC2Ev(%"class.std::vector"* %0) unnamed_addr #4 comdat align 2 personality i8* bitcast (i32 (...)* @__gxx_personality_v0 to i8*) {
  %2 = getelementptr %"class.std::vector", %"class.std::vector"* %0, i64 0, i32 0
  invoke void @_ZNSt12_Vector_baseIiSaIiEEC2Ev(%"struct.std::_Vector_base"* %2)
          to label %3 unwind label %12

3:                                                ; preds = %1
  %4 = load i32, i32* @x.10, align 4
  %5 = load i32, i32* @y.11, align 4
  %6 = add i32 %4, -1
  %7 = mul i32 %6, %4
  %8 = and i32 %7, 1
  %9 = icmp eq i32 %8, 0
  %10 = icmp slt i32 %5, 10
  %11 = or i1 %10, %9
  br i1 %11, label %.critedge, label %.preheader

.critedge:                                        ; preds = %3
  ret void

12:                                               ; preds = %1
  %13 = landingpad { i8*, i32 }
          catch i8* null
  %14 = extractvalue { i8*, i32 } %13, 0
  tail call void @__clang_call_terminate(i8* %14) #13
  unreachable

.preheader:                                       ; preds = %3, %.preheader
  br label %.preheader, !llvm.loop !1
}

; Function Attrs: noinline nounwind uwtable
define internal void @__cxx_global_array_dtor(i8* nocapture readnone %0) #4 section ".text.startup" {
  br label %.outer

.outer:                                           ; preds = %3, %1
  %.01.ph = phi i32 [ %6, %3 ], [ 1981147355, %1 ]
  %.0.ph = phi %"class.std::vector"* [ %4, %3 ], [ getelementptr inbounds ([200010 x %"class.std::vector"], [200010 x %"class.std::vector"]* @vec, i64 1, i64 0), %1 ]
  br label %2

2:                                                ; preds = %.outer, %2
  switch i32 %.01.ph, label %2 [
    i32 1981147355, label %3
    i32 515937657, label %7
  ]

3:                                                ; preds = %2
  %4 = getelementptr inbounds %"class.std::vector", %"class.std::vector"* %.0.ph, i64 -1
  tail call void @_ZNSt6vectorIiSaIiEED2Ev(%"class.std::vector"* nonnull %4) #12
  %5 = icmp eq %"class.std::vector"* %4, getelementptr inbounds ([200010 x %"class.std::vector"], [200010 x %"class.std::vector"]* @vec, i64 0, i64 0)
  %6 = select i1 %5, i32 515937657, i32 1981147355
  br label %.outer

7:                                                ; preds = %2
  ret void
}

; Function Attrs: noinline nounwind uwtable
define linkonce_odr void @_ZNSt6vectorIiSaIiEED2Ev(%"class.std::vector"* %0) unnamed_addr #4 comdat align 2 personality i8* bitcast (i32 (...)* @__gxx_personality_v0 to i8*) {
  %2 = getelementptr %"class.std::vector", %"class.std::vector"* %0, i64 0, i32 0
  %3 = getelementptr inbounds %"class.std::vector", %"class.std::vector"* %0, i64 0, i32 0, i32 0, i32 0
  %4 = load i32*, i32** %3, align 8
  %5 = getelementptr inbounds %"class.std::vector", %"class.std::vector"* %0, i64 0, i32 0, i32 0, i32 1
  %6 = load i32*, i32** %5, align 8
  %7 = tail call dereferenceable(1) %"class.std::allocator"* @_ZNSt12_Vector_baseIiSaIiEE19_M_get_Tp_allocatorEv(%"struct.std::_Vector_base"* %2) #12
  invoke void @_ZSt8_DestroyIPiiEvT_S1_RSaIT0_E(i32* %4, i32* %6, %"class.std::allocator"* nonnull dereferenceable(1) %7)
          to label %8 unwind label %9

8:                                                ; preds = %1
  tail call void @_ZNSt12_Vector_baseIiSaIiEED2Ev(%"struct.std::_Vector_base"* %2) #12
  ret void

9:                                                ; preds = %1
  %10 = load i32, i32* @x.14, align 4
  %11 = load i32, i32* @y.15, align 4
  %12 = add i32 %10, -1
  %13 = mul i32 %12, %10
  %14 = and i32 %13, 1
  %15 = icmp eq i32 %14, 0
  %16 = icmp slt i32 %11, 10
  %17 = or i1 %16, %15
  br i1 %17, label %18, label %30

18:                                               ; preds = %30, %9
  %19 = landingpad { i8*, i32 }
          catch i8* null
  tail call void @_ZNSt12_Vector_baseIiSaIiEED2Ev(%"struct.std::_Vector_base"* %2) #12
  %20 = load i32, i32* @x.14, align 4
  %21 = load i32, i32* @y.15, align 4
  %22 = add i32 %20, -1
  %23 = mul i32 %22, %20
  %24 = and i32 %23, 1
  %25 = icmp eq i32 %24, 0
  %26 = icmp slt i32 %21, 10
  %27 = or i1 %26, %25
  br i1 %27, label %28, label %30

28:                                               ; preds = %18
  %29 = extractvalue { i8*, i32 } %19, 0
  tail call void @__clang_call_terminate(i8* %29) #13
  unreachable

30:                                               ; preds = %18, %9
  %31 = landingpad { i8*, i32 }
          catch i8* null
  tail call void @_ZNSt12_Vector_baseIiSaIiEED2Ev(%"struct.std::_Vector_base"* %2) #12
  br label %18
}

; Function Attrs: noinline uwtable
define void @_Z5solvev() local_unnamed_addr #0 {
  %1 = alloca i1, align 1
  %2 = alloca i1, align 1
  %3 = alloca i32*, align 8
  %4 = alloca i32*, align 8
  %5 = alloca i32*, align 8
  %6 = alloca i32*, align 8
  %7 = alloca i32*, align 8
  %8 = alloca i32*, align 8
  %9 = alloca i32*, align 8
  %10 = alloca i1, align 1
  %11 = alloca i1, align 1
  %12 = load i32, i32* @x.16, align 4
  %13 = load i32, i32* @y.17, align 4
  %14 = add i32 %12, -1
  %15 = mul i32 %14, %12
  %16 = and i32 %15, 1
  %17 = icmp eq i32 %16, 0
  store i1 %17, i1* %11, align 1
  %18 = icmp slt i32 %13, 10
  store i1 %18, i1* %10, align 1
  br label %19

19:                                               ; preds = %.backedge, %0
  %.0 = phi i32 [ -686640935, %0 ], [ %.0.be, %.backedge ]
  switch i32 %.0, label %.backedge [
    i32 -686640935, label %20
    i32 -839040769, label %23
    i32 -965931318, label %41
    i32 1955180348, label %42
    i32 -975567649, label %52
    i32 1105346494, label %64
    i32 362890337, label %66
    i32 832809611, label %75
    i32 27640430, label %77
    i32 -1369162332, label %87
    i32 -394419378, label %97
    i32 1945382272, label %98
    i32 1943525008, label %101
    i32 -1159107196, label %105
    i32 933106960, label %107
    i32 -117297892, label %117
    i32 1652293151, label %131
    i32 1773352857, label %132
    i32 -256482503, label %137
    i32 1273009957, label %147
    i32 -903919244, label %158
    i32 -522179172, label %159
    i32 2031958485, label %169
    i32 952305998, label %182
    i32 -1517905643, label %184
    i32 1338780118, label %192
    i32 310666992, label %194
    i32 -1555633173, label %204
    i32 -1469542119, label %214
    i32 1746371861, label %215
    i32 93233899, label %218
    i32 -1253225972, label %219
    i32 706317662, label %224
    i32 1387919962, label %232
    i32 1467791309, label %241
    i32 994580021, label %251
    i32 331229530, label %270
    i32 -1202472420, label %271
    i32 -1662372420, label %281
    i32 476869572, label %292
    i32 1008500950, label %293
    i32 -1692140843, label %295
    i32 -1823444263, label %298
    i32 -17677756, label %299
    i32 101495446, label %300
    i32 -1705947130, label %302
    i32 -850136733, label %303
    i32 32016974, label %304
    i32 1870406863, label %309
    i32 -337587681, label %312
    i32 -628861883, label %313
    i32 -31171070, label %314
    i32 476461174, label %324
  ]

.backedge:                                        ; preds = %19, %324, %314, %313, %312, %309, %304, %303, %302, %300, %298, %295, %293, %292, %281, %271, %270, %251, %241, %232, %224, %219, %218, %215, %214, %204, %194, %192, %184, %182, %169, %159, %158, %147, %137, %132, %131, %117, %107, %105, %101, %98, %97, %87, %77, %75, %66, %64, %52, %42, %41, %23, %20
  %.0.be = phi i32 [ %.0, %19 ], [ -1662372420, %324 ], [ 994580021, %314 ], [ -1555633173, %313 ], [ 2031958485, %312 ], [ 1273009957, %309 ], [ -117297892, %304 ], [ -1369162332, %303 ], [ -975567649, %302 ], [ -839040769, %300 ], [ -17677756, %298 ], [ -1253225972, %295 ], [ -1692140843, %293 ], [ 1387919962, %292 ], [ %291, %281 ], [ %280, %271 ], [ -1202472420, %270 ], [ %269, %251 ], [ %250, %241 ], [ %240, %232 ], [ 1387919962, %224 ], [ %223, %219 ], [ -1253225972, %218 ], [ 1773352857, %215 ], [ 1746371861, %214 ], [ %213, %204 ], [ %203, %194 ], [ -522179172, %192 ], [ 1338780118, %184 ], [ %183, %182 ], [ %181, %169 ], [ %168, %159 ], [ -522179172, %158 ], [ %157, %147 ], [ %146, %137 ], [ %136, %132 ], [ 1773352857, %131 ], [ %130, %117 ], [ %116, %107 ], [ -17677756, %105 ], [ %104, %101 ], [ 1955180348, %98 ], [ 1945382272, %97 ], [ %96, %87 ], [ %86, %77 ], [ 1943525008, %75 ], [ %74, %66 ], [ %65, %64 ], [ %63, %52 ], [ %51, %42 ], [ 1955180348, %41 ], [ %40, %23 ], [ %22, %20 ]
  br label %19

20:                                               ; preds = %19
  %.0..0..0. = load volatile i1, i1* %11, align 1
  %.0..0..0.1 = load volatile i1, i1* %10, align 1
  %21 = or i1 %.0..0..0., %.0..0..0.1
  %22 = select i1 %21, i32 -839040769, i32 101495446
  br label %.backedge

23:                                               ; preds = %19
  %24 = alloca i32, align 4
  store i32* %24, i32** %9, align 8
  %25 = alloca i32, align 4
  store i32* %25, i32** %8, align 8
  %26 = alloca i32, align 4
  store i32* %26, i32** %7, align 8
  %27 = alloca i32, align 4
  store i32* %27, i32** %6, align 8
  %28 = alloca i32, align 4
  store i32* %28, i32** %5, align 8
  %29 = alloca i32, align 4
  store i32* %29, i32** %4, align 8
  %30 = alloca i32, align 4
  store i32* %30, i32** %3, align 8
  %31 = call dereferenceable(280) %"class.std::basic_istream"* @_ZNSirsERi(%"class.std::basic_istream"* nonnull @_ZSt3cin, i32* nonnull dereferenceable(4) @N)
  %.0..0..0.2 = load volatile i32*, i32** %9, align 8
  store i32 -1, i32* %.0..0..0.2, align 4
  %.0..0..0.11 = load volatile i32*, i32** %8, align 8
  store i32 1, i32* %.0..0..0.11, align 4
  %32 = load i32, i32* @x.16, align 4
  %33 = load i32, i32* @y.17, align 4
  %34 = add i32 %32, -1
  %35 = mul i32 %34, %32
  %36 = and i32 %35, 1
  %37 = icmp eq i32 %36, 0
  %38 = icmp slt i32 %33, 10
  %39 = or i1 %38, %37
  %40 = select i1 %39, i32 -965931318, i32 101495446
  br label %.backedge

41:                                               ; preds = %19
  br label %.backedge

42:                                               ; preds = %19
  %43 = load i32, i32* @x.16, align 4
  %44 = load i32, i32* @y.17, align 4
  %45 = add i32 %43, -1
  %46 = mul i32 %45, %43
  %47 = and i32 %46, 1
  %48 = icmp eq i32 %47, 0
  %49 = icmp slt i32 %44, 10
  %50 = or i1 %49, %48
  %51 = select i1 %50, i32 -975567649, i32 -1705947130
  br label %.backedge

52:                                               ; preds = %19
  %.0..0..0.12 = load volatile i32*, i32** %8, align 8
  %53 = load i32, i32* %.0..0..0.12, align 4
  %54 = icmp slt i32 %53, 1001
  store i1 %54, i1* %2, align 1
  %55 = load i32, i32* @x.16, align 4
  %56 = load i32, i32* @y.17, align 4
  %57 = add i32 %55, -1
  %58 = mul i32 %57, %55
  %59 = and i32 %58, 1
  %60 = icmp eq i32 %59, 0
  %61 = icmp slt i32 %56, 10
  %62 = or i1 %61, %60
  %63 = select i1 %62, i32 1105346494, i32 -1705947130
  br label %.backedge

64:                                               ; preds = %19
  %.0..0..0.56 = load volatile i1, i1* %2, align 1
  %65 = select i1 %.0..0..0.56, i32 362890337, i32 1943525008
  br label %.backedge

66:                                               ; preds = %19
  %67 = load i32, i32* @N, align 4
  %.0..0..0.13 = load volatile i32*, i32** %8, align 8
  %68 = load i32, i32* %.0..0..0.13, align 4
  %.0..0..0.14 = load volatile i32*, i32** %8, align 8
  %69 = load i32, i32* %.0..0..0.14, align 4
  %70 = add i32 %69, -1
  %71 = mul nsw i32 %70, %68
  %72 = sdiv i32 %71, 2
  %73 = icmp eq i32 %67, %72
  %74 = select i1 %73, i32 832809611, i32 27640430
  br label %.backedge

75:                                               ; preds = %19
  %.0..0..0.15 = load volatile i32*, i32** %8, align 8
  %76 = load i32, i32* %.0..0..0.15, align 4
  %.0..0..0.3 = load volatile i32*, i32** %9, align 8
  store i32 %76, i32* %.0..0..0.3, align 4
  br label %.backedge

77:                                               ; preds = %19
  %78 = load i32, i32* @x.16, align 4
  %79 = load i32, i32* @y.17, align 4
  %80 = add i32 %78, -1
  %81 = mul i32 %80, %78
  %82 = and i32 %81, 1
  %83 = icmp eq i32 %82, 0
  %84 = icmp slt i32 %79, 10
  %85 = or i1 %84, %83
  %86 = select i1 %85, i32 -1369162332, i32 -850136733
  br label %.backedge

87:                                               ; preds = %19
  %88 = load i32, i32* @x.16, align 4
  %89 = load i32, i32* @y.17, align 4
  %90 = add i32 %88, -1
  %91 = mul i32 %90, %88
  %92 = and i32 %91, 1
  %93 = icmp eq i32 %92, 0
  %94 = icmp slt i32 %89, 10
  %95 = or i1 %94, %93
  %96 = select i1 %95, i32 -394419378, i32 -850136733
  br label %.backedge

97:                                               ; preds = %19
  br label %.backedge

98:                                               ; preds = %19
  %.0..0..0.16 = load volatile i32*, i32** %8, align 8
  %99 = load i32, i32* %.0..0..0.16, align 4
  %100 = add i32 %99, 1
  %.0..0..0.17 = load volatile i32*, i32** %8, align 8
  store i32 %100, i32* %.0..0..0.17, align 4
  br label %.backedge

101:                                              ; preds = %19
  %.0..0..0.4 = load volatile i32*, i32** %9, align 8
  %102 = load i32, i32* %.0..0..0.4, align 4
  %103 = icmp eq i32 %102, -1
  %104 = select i1 %103, i32 -1159107196, i32 933106960
  br label %.backedge

105:                                              ; preds = %19
  %106 = call dereferenceable(272) %"class.std::basic_ostream"* @_ZStlsISt11char_traitsIcEERSt13basic_ostreamIcT_ES5_PKc(%"class.std::basic_ostream"* nonnull dereferenceable(272) @_ZSt4cout, i8* getelementptr inbounds ([4 x i8], [4 x i8]* @.str, i64 0, i64 0))
  br label %.backedge

107:                                              ; preds = %19
  %108 = load i32, i32* @x.16, align 4
  %109 = load i32, i32* @y.17, align 4
  %110 = add i32 %108, -1
  %111 = mul i32 %110, %108
  %112 = and i32 %111, 1
  %113 = icmp eq i32 %112, 0
  %114 = icmp slt i32 %109, 10
  %115 = or i1 %114, %113
  %116 = select i1 %115, i32 -117297892, i32 32016974
  br label %.backedge

117:                                              ; preds = %19
  %118 = call dereferenceable(272) %"class.std::basic_ostream"* @_ZStlsISt11char_traitsIcEERSt13basic_ostreamIcT_ES5_PKc(%"class.std::basic_ostream"* nonnull dereferenceable(272) @_ZSt4cout, i8* getelementptr inbounds ([5 x i8], [5 x i8]* @.str.2, i64 0, i64 0))
  %.0..0..0.5 = load volatile i32*, i32** %9, align 8
  %119 = load i32, i32* %.0..0..0.5, align 4
  %120 = call dereferenceable(272) %"class.std::basic_ostream"* @_ZNSolsEi(%"class.std::basic_ostream"* nonnull @_ZSt4cout, i32 %119)
  %121 = call dereferenceable(272) %"class.std::basic_ostream"* @_ZStlsISt11char_traitsIcEERSt13basic_ostreamIcT_ES5_PKc(%"class.std::basic_ostream"* nonnull dereferenceable(272) %120, i8* getelementptr inbounds ([2 x i8], [2 x i8]* @.str.3, i64 0, i64 0))
  %.0..0..0.19 = load volatile i32*, i32** %7, align 8
  store i32 1, i32* %.0..0..0.19, align 4
  %.0..0..0.25 = load volatile i32*, i32** %6, align 8
  store i32 0, i32* %.0..0..0.25, align 4
  %122 = load i32, i32* @x.16, align 4
  %123 = load i32, i32* @y.17, align 4
  %124 = add i32 %122, -1
  %125 = mul i32 %124, %122
  %126 = and i32 %125, 1
  %127 = icmp eq i32 %126, 0
  %128 = icmp slt i32 %123, 10
  %129 = or i1 %128, %127
  %130 = select i1 %129, i32 1652293151, i32 32016974
  br label %.backedge

131:                                              ; preds = %19
  br label %.backedge

132:                                              ; preds = %19
  %.0..0..0.26 = load volatile i32*, i32** %6, align 8
  %133 = load i32, i32* %.0..0..0.26, align 4
  %.0..0..0.6 = load volatile i32*, i32** %9, align 8
  %134 = load i32, i32* %.0..0..0.6, align 4
  %135 = icmp slt i32 %133, %134
  %136 = select i1 %135, i32 -256482503, i32 93233899
  br label %.backedge

137:                                              ; preds = %19
  %138 = load i32, i32* @x.16, align 4
  %139 = load i32, i32* @y.17, align 4
  %140 = add i32 %138, -1
  %141 = mul i32 %140, %138
  %142 = and i32 %141, 1
  %143 = icmp eq i32 %142, 0
  %144 = icmp slt i32 %139, 10
  %145 = or i1 %144, %143
  %146 = select i1 %145, i32 1273009957, i32 1870406863
  br label %.backedge

147:                                              ; preds = %19
  %.0..0..0.27 = load volatile i32*, i32** %6, align 8
  %148 = load i32, i32* %.0..0..0.27, align 4
  %.neg60 = add i32 %148, 1
  %.0..0..0.33 = load volatile i32*, i32** %5, align 8
  store i32 %.neg60, i32* %.0..0..0.33, align 4
  %149 = load i32, i32* @x.16, align 4
  %150 = load i32, i32* @y.17, align 4
  %151 = add i32 %149, -1
  %152 = mul i32 %151, %149
  %153 = and i32 %152, 1
  %154 = icmp eq i32 %153, 0
  %155 = icmp slt i32 %150, 10
  %156 = or i1 %155, %154
  %157 = select i1 %156, i32 -903919244, i32 1870406863
  br label %.backedge

158:                                              ; preds = %19
  br label %.backedge

159:                                              ; preds = %19
  %160 = load i32, i32* @x.16, align 4
  %161 = load i32, i32* @y.17, align 4
  %162 = add i32 %160, -1
  %163 = mul i32 %162, %160
  %164 = and i32 %163, 1
  %165 = icmp eq i32 %164, 0
  %166 = icmp slt i32 %161, 10
  %167 = or i1 %166, %165
  %168 = select i1 %167, i32 2031958485, i32 -337587681
  br label %.backedge

169:                                              ; preds = %19
  %.0..0..0.34 = load volatile i32*, i32** %5, align 8
  %170 = load i32, i32* %.0..0..0.34, align 4
  %.0..0..0.7 = load volatile i32*, i32** %9, align 8
  %171 = load i32, i32* %.0..0..0.7, align 4
  %172 = icmp slt i32 %170, %171
  store i1 %172, i1* %1, align 1
  %173 = load i32, i32* @x.16, align 4
  %174 = load i32, i32* @y.17, align 4
  %175 = add i32 %173, -1
  %176 = mul i32 %175, %173
  %177 = and i32 %176, 1
  %178 = icmp eq i32 %177, 0
  %179 = icmp slt i32 %174, 10
  %180 = or i1 %179, %178
  %181 = select i1 %180, i32 952305998, i32 -337587681
  br label %.backedge

182:                                              ; preds = %19
  %.0..0..0.57 = load volatile i1, i1* %1, align 1
  %183 = select i1 %.0..0..0.57, i32 -1517905643, i32 310666992
  br label %.backedge

184:                                              ; preds = %19
  %.0..0..0.28 = load volatile i32*, i32** %6, align 8
  %185 = load i32, i32* %.0..0..0.28, align 4
  %186 = sext i32 %185 to i64
  %187 = getelementptr inbounds [200010 x %"class.std::vector"], [200010 x %"class.std::vector"]* @vec, i64 0, i64 %186
  %.0..0..0.20 = load volatile i32*, i32** %7, align 8
  call void @_ZNSt6vectorIiSaIiEE9push_backERKi(%"class.std::vector"* nonnull %187, i32* dereferenceable(4) %.0..0..0.20)
  %.0..0..0.35 = load volatile i32*, i32** %5, align 8
  %188 = load i32, i32* %.0..0..0.35, align 4
  %189 = sext i32 %188 to i64
  %190 = getelementptr inbounds [200010 x %"class.std::vector"], [200010 x %"class.std::vector"]* @vec, i64 0, i64 %189
  %.0..0..0.21 = load volatile i32*, i32** %7, align 8
  call void @_ZNSt6vectorIiSaIiEE9push_backERKi(%"class.std::vector"* nonnull %190, i32* dereferenceable(4) %.0..0..0.21)
  %.0..0..0.22 = load volatile i32*, i32** %7, align 8
  %191 = load i32, i32* %.0..0..0.22, align 4
  %.neg59 = add i32 %191, 1
  %.0..0..0.23 = load volatile i32*, i32** %7, align 8
  store i32 %.neg59, i32* %.0..0..0.23, align 4
  br label %.backedge

192:                                              ; preds = %19
  %.0..0..0.36 = load volatile i32*, i32** %5, align 8
  %193 = load i32, i32* %.0..0..0.36, align 4
  %.neg58 = add i32 %193, 1
  %.0..0..0.37 = load volatile i32*, i32** %5, align 8
  store i32 %.neg58, i32* %.0..0..0.37, align 4
  br label %.backedge

194:                                              ; preds = %19
  %195 = load i32, i32* @x.16, align 4
  %196 = load i32, i32* @y.17, align 4
  %197 = add i32 %195, -1
  %198 = mul i32 %197, %195
  %199 = and i32 %198, 1
  %200 = icmp eq i32 %199, 0
  %201 = icmp slt i32 %196, 10
  %202 = or i1 %201, %200
  %203 = select i1 %202, i32 -1555633173, i32 -628861883
  br label %.backedge

204:                                              ; preds = %19
  %205 = load i32, i32* @x.16, align 4
  %206 = load i32, i32* @y.17, align 4
  %207 = add i32 %205, -1
  %208 = mul i32 %207, %205
  %209 = and i32 %208, 1
  %210 = icmp eq i32 %209, 0
  %211 = icmp slt i32 %206, 10
  %212 = or i1 %211, %210
  %213 = select i1 %212, i32 -1469542119, i32 -628861883
  br label %.backedge

214:                                              ; preds = %19
  br label %.backedge

215:                                              ; preds = %19
  %.0..0..0.29 = load volatile i32*, i32** %6, align 8
  %216 = load i32, i32* %.0..0..0.29, align 4
  %217 = add i32 %216, 1
  %.0..0..0.30 = load volatile i32*, i32** %6, align 8
  store i32 %217, i32* %.0..0..0.30, align 4
  br label %.backedge

218:                                              ; preds = %19
  %.0..0..0.40 = load volatile i32*, i32** %4, align 8
  store i32 0, i32* %.0..0..0.40, align 4
  br label %.backedge

219:                                              ; preds = %19
  %.0..0..0.41 = load volatile i32*, i32** %4, align 8
  %220 = load i32, i32* %.0..0..0.41, align 4
  %.0..0..0.8 = load volatile i32*, i32** %9, align 8
  %221 = load i32, i32* %.0..0..0.8, align 4
  %222 = icmp slt i32 %220, %221
  %223 = select i1 %222, i32 706317662, i32 -1823444263
  br label %.backedge

224:                                              ; preds = %19
  %.0..0..0.42 = load volatile i32*, i32** %4, align 8
  %225 = load i32, i32* %.0..0..0.42, align 4
  %226 = sext i32 %225 to i64
  %227 = getelementptr inbounds [200010 x %"class.std::vector"], [200010 x %"class.std::vector"]* @vec, i64 0, i64 %226
  %228 = call i64 @_ZNKSt6vectorIiSaIiEE4sizeEv(%"class.std::vector"* nonnull %227) #12
  %229 = trunc i64 %228 to i32
  %230 = call dereferenceable(272) %"class.std::basic_ostream"* @_ZNSolsEi(%"class.std::basic_ostream"* nonnull @_ZSt4cout, i32 %229)
  %231 = call dereferenceable(272) %"class.std::basic_ostream"* @_ZStlsISt11char_traitsIcEERSt13basic_ostreamIcT_ES5_PKc(%"class.std::basic_ostream"* nonnull dereferenceable(272) %230, i8* getelementptr inbounds ([2 x i8], [2 x i8]* @.str.4, i64 0, i64 0))
  %.0..0..0.48 = load volatile i32*, i32** %3, align 8
  store i32 0, i32* %.0..0..0.48, align 4
  br label %.backedge

232:                                              ; preds = %19
  %.0..0..0.49 = load volatile i32*, i32** %3, align 8
  %233 = load i32, i32* %.0..0..0.49, align 4
  %.0..0..0.43 = load volatile i32*, i32** %4, align 8
  %234 = load i32, i32* %.0..0..0.43, align 4
  %235 = sext i32 %234 to i64
  %236 = getelementptr inbounds [200010 x %"class.std::vector"], [200010 x %"class.std::vector"]* @vec, i64 0, i64 %235
  %237 = call i64 @_ZNKSt6vectorIiSaIiEE4sizeEv(%"class.std::vector"* nonnull %236) #12
  %238 = trunc i64 %237 to i32
  %239 = icmp slt i32 %233, %238
  %240 = select i1 %239, i32 1467791309, i32 1008500950
  br label %.backedge

241:                                              ; preds = %19
  %242 = load i32, i32* @x.16, align 4
  %243 = load i32, i32* @y.17, align 4
  %244 = add i32 %242, -1
  %245 = mul i32 %244, %242
  %246 = and i32 %245, 1
  %247 = icmp eq i32 %246, 0
  %248 = icmp slt i32 %243, 10
  %249 = or i1 %248, %247
  %250 = select i1 %249, i32 994580021, i32 -31171070
  br label %.backedge

251:                                              ; preds = %19
  %.0..0..0.44 = load volatile i32*, i32** %4, align 8
  %252 = load i32, i32* %.0..0..0.44, align 4
  %253 = sext i32 %252 to i64
  %254 = getelementptr inbounds [200010 x %"class.std::vector"], [200010 x %"class.std::vector"]* @vec, i64 0, i64 %253
  %.0..0..0.50 = load volatile i32*, i32** %3, align 8
  %255 = load i32, i32* %.0..0..0.50, align 4
  %256 = sext i32 %255 to i64
  %257 = call dereferenceable(4) i32* @_ZNSt6vectorIiSaIiEEixEm(%"class.std::vector"* nonnull %254, i64 %256) #12
  %258 = load i32, i32* %257, align 4
  %259 = call dereferenceable(272) %"class.std::basic_ostream"* @_ZNSolsEi(%"class.std::basic_ostream"* nonnull @_ZSt4cout, i32 %258)
  %260 = call dereferenceable(272) %"class.std::basic_ostream"* @_ZStlsISt11char_traitsIcEERSt13basic_ostreamIcT_ES5_PKc(%"class.std::basic_ostream"* nonnull dereferenceable(272) %259, i8* getelementptr inbounds ([2 x i8], [2 x i8]* @.str.4, i64 0, i64 0))
  %261 = load i32, i32* @x.16, align 4
  %262 = load i32, i32* @y.17, align 4
  %263 = add i32 %261, -1
  %264 = mul i32 %263, %261
  %265 = and i32 %264, 1
  %266 = icmp eq i32 %265, 0
  %267 = icmp slt i32 %262, 10
  %268 = or i1 %267, %266
  %269 = select i1 %268, i32 331229530, i32 -31171070
  br label %.backedge

270:                                              ; preds = %19
  br label %.backedge

271:                                              ; preds = %19
  %272 = load i32, i32* @x.16, align 4
  %273 = load i32, i32* @y.17, align 4
  %274 = add i32 %272, -1
  %275 = mul i32 %274, %272
  %276 = and i32 %275, 1
  %277 = icmp eq i32 %276, 0
  %278 = icmp slt i32 %273, 10
  %279 = or i1 %278, %277
  %280 = select i1 %279, i32 -1662372420, i32 476461174
  br label %.backedge

281:                                              ; preds = %19
  %.0..0..0.51 = load volatile i32*, i32** %3, align 8
  %282 = load i32, i32* %.0..0..0.51, align 4
  %.neg = add i32 %282, 1
  %.0..0..0.52 = load volatile i32*, i32** %3, align 8
  store i32 %.neg, i32* %.0..0..0.52, align 4
  %283 = load i32, i32* @x.16, align 4
  %284 = load i32, i32* @y.17, align 4
  %285 = add i32 %283, -1
  %286 = mul i32 %285, %283
  %287 = and i32 %286, 1
  %288 = icmp eq i32 %287, 0
  %289 = icmp slt i32 %284, 10
  %290 = or i1 %289, %288
  %291 = select i1 %290, i32 476869572, i32 476461174
  br label %.backedge

292:                                              ; preds = %19
  br label %.backedge

293:                                              ; preds = %19
  %294 = call dereferenceable(272) %"class.std::basic_ostream"* @_ZStlsISt11char_traitsIcEERSt13basic_ostreamIcT_ES5_PKc(%"class.std::basic_ostream"* nonnull dereferenceable(272) @_ZSt4cout, i8* getelementptr inbounds ([2 x i8], [2 x i8]* @.str.3, i64 0, i64 0))
  br label %.backedge

295:                                              ; preds = %19
  %.0..0..0.45 = load volatile i32*, i32** %4, align 8
  %296 = load i32, i32* %.0..0..0.45, align 4
  %297 = add i32 %296, 1
  %.0..0..0.46 = load volatile i32*, i32** %4, align 8
  store i32 %297, i32* %.0..0..0.46, align 4
  br label %.backedge

298:                                              ; preds = %19
  br label %.backedge

299:                                              ; preds = %19
  ret void

300:                                              ; preds = %19
  %301 = call dereferenceable(280) %"class.std::basic_istream"* @_ZNSirsERi(%"class.std::basic_istream"* nonnull @_ZSt3cin, i32* nonnull dereferenceable(4) @N)
  br label %.backedge

302:                                              ; preds = %19
  %.0..0..0.18 = load volatile i32*, i32** %8, align 8
  br label %.backedge

303:                                              ; preds = %19
  br label %.backedge

304:                                              ; preds = %19
  %305 = call dereferenceable(272) %"class.std::basic_ostream"* @_ZStlsISt11char_traitsIcEERSt13basic_ostreamIcT_ES5_PKc(%"class.std::basic_ostream"* nonnull dereferenceable(272) @_ZSt4cout, i8* getelementptr inbounds ([5 x i8], [5 x i8]* @.str.2, i64 0, i64 0))
  %.0..0..0.9 = load volatile i32*, i32** %9, align 8
  %306 = load i32, i32* %.0..0..0.9, align 4
  %307 = call dereferenceable(272) %"class.std::basic_ostream"* @_ZNSolsEi(%"class.std::basic_ostream"* nonnull @_ZSt4cout, i32 %306)
  %308 = call dereferenceable(272) %"class.std::basic_ostream"* @_ZStlsISt11char_traitsIcEERSt13basic_ostreamIcT_ES5_PKc(%"class.std::basic_ostream"* nonnull dereferenceable(272) %307, i8* getelementptr inbounds ([2 x i8], [2 x i8]* @.str.3, i64 0, i64 0))
  %.0..0..0.24 = load volatile i32*, i32** %7, align 8
  store i32 1, i32* %.0..0..0.24, align 4
  %.0..0..0.31 = load volatile i32*, i32** %6, align 8
  store i32 0, i32* %.0..0..0.31, align 4
  br label %.backedge

309:                                              ; preds = %19
  %.0..0..0.32 = load volatile i32*, i32** %6, align 8
  %310 = load i32, i32* %.0..0..0.32, align 4
  %311 = add i32 %310, 1
  %.0..0..0.38 = load volatile i32*, i32** %5, align 8
  store i32 %311, i32* %.0..0..0.38, align 4
  br label %.backedge

312:                                              ; preds = %19
  %.0..0..0.39 = load volatile i32*, i32** %5, align 8
  %.0..0..0.10 = load volatile i32*, i32** %9, align 8
  br label %.backedge

313:                                              ; preds = %19
  br label %.backedge

314:                                              ; preds = %19
  %.0..0..0.47 = load volatile i32*, i32** %4, align 8
  %315 = load i32, i32* %.0..0..0.47, align 4
  %316 = sext i32 %315 to i64
  %317 = getelementptr inbounds [200010 x %"class.std::vector"], [200010 x %"class.std::vector"]* @vec, i64 0, i64 %316
  %.0..0..0.53 = load volatile i32*, i32** %3, align 8
  %318 = load i32, i32* %.0..0..0.53, align 4
  %319 = sext i32 %318 to i64
  %320 = call dereferenceable(4) i32* @_ZNSt6vectorIiSaIiEEixEm(%"class.std::vector"* nonnull %317, i64 %319) #12
  %321 = load i32, i32* %320, align 4
  %322 = call dereferenceable(272) %"class.std::basic_ostream"* @_ZNSolsEi(%"class.std::basic_ostream"* nonnull @_ZSt4cout, i32 %321)
  %323 = call dereferenceable(272) %"class.std::basic_ostream"* @_ZStlsISt11char_traitsIcEERSt13basic_ostreamIcT_ES5_PKc(%"class.std::basic_ostream"* nonnull dereferenceable(272) %322, i8* getelementptr inbounds ([2 x i8], [2 x i8]* @.str.4, i64 0, i64 0))
  br label %.backedge

324:                                              ; preds = %19
  %.0..0..0.54 = load volatile i32*, i32** %3, align 8
  %325 = load i32, i32* %.0..0..0.54, align 4
  %326 = add i32 %325, 1
  %.0..0..0.55 = load volatile i32*, i32** %3, align 8
  store i32 %326, i32* %.0..0..0.55, align 4
  br label %.backedge
}

declare dereferenceable(280) %"class.std::basic_istream"* @_ZNSirsERi(%"class.std::basic_istream"*, i32* dereferenceable(4)) local_unnamed_addr #1

declare dereferenceable(272) %"class.std::basic_ostream"* @_ZStlsISt11char_traitsIcEERSt13basic_ostreamIcT_ES5_PKc(%"class.std::basic_ostream"* dereferenceable(272), i8*) local_unnamed_addr #1

declare dereferenceable(272) %"class.std::basic_ostream"* @_ZNSolsEi(%"class.std::basic_ostream"*, i32) local_unnamed_addr #1

; Function Attrs: noinline uwtable
define linkonce_odr void @_ZNSt6vectorIiSaIiEE9push_backERKi(%"class.std::vector"* %0, i32* dereferenceable(4) %1) local_unnamed_addr #0 comdat align 2 {
  %3 = alloca i32*, align 8
  %4 = alloca i32*, align 8
  %5 = alloca %"class.std::vector"*, align 8
  store %"class.std::vector"* %0, %"class.std::vector"** %5, align 8
  %.0..0..0.4 = load volatile %"class.std::vector"*, %"class.std::vector"** %5, align 8
  %6 = getelementptr inbounds %"class.std::vector", %"class.std::vector"* %.0..0..0.4, i64 0, i32 0, i32 0, i32 1
  %7 = load i32*, i32** %6, align 8
  store i32* %7, i32** %4, align 8
  %.0..0..0.5 = load volatile %"class.std::vector"*, %"class.std::vector"** %5, align 8
  %8 = getelementptr inbounds %"class.std::vector", %"class.std::vector"* %.0..0..0.5, i64 0, i32 0, i32 0, i32 2
  %9 = load i32*, i32** %8, align 8
  store i32* %9, i32** %3, align 8
  br label %.outer

.outer:                                           ; preds = %.outer.backedge, %2
  %.0.ph = phi i32 [ -118354938, %2 ], [ %.0.ph.be, %.outer.backedge ]
  br label %10

10:                                               ; preds = %.outer, %10
  switch i32 %.0.ph, label %10 [
    i32 -118354938, label %11
    i32 1306140391, label %13
    i32 92334480, label %23
    i32 1552388363, label %.outer.backedge
    i32 -842016734, label %39
    i32 2136816509, label %40
    i32 779659888, label %41
  ]

11:                                               ; preds = %10
  %.0..0..0.13 = load volatile i32*, i32** %4, align 8
  %.0..0..0.14 = load volatile i32*, i32** %3, align 8
  %.not = icmp eq i32* %.0..0..0.13, %.0..0..0.14
  %12 = select i1 %.not, i32 -842016734, i32 1306140391
  br label %.outer.backedge

13:                                               ; preds = %10
  %14 = load i32, i32* @x.18, align 4
  %15 = load i32, i32* @y.19, align 4
  %16 = add i32 %14, -1
  %17 = mul i32 %16, %14
  %18 = and i32 %17, 1
  %19 = icmp eq i32 %18, 0
  %20 = icmp slt i32 %15, 10
  %21 = or i1 %20, %19
  %22 = select i1 %21, i32 92334480, i32 779659888
  br label %.outer.backedge

23:                                               ; preds = %10
  %.0..0..0.6 = load volatile %"class.std::vector"*, %"class.std::vector"** %5, align 8
  %24 = bitcast %"class.std::vector"* %.0..0..0.6 to %"class.std::allocator"*
  %.0..0..0.7 = load volatile %"class.std::vector"*, %"class.std::vector"** %5, align 8
  %25 = getelementptr inbounds %"class.std::vector", %"class.std::vector"* %.0..0..0.7, i64 0, i32 0, i32 0, i32 1
  %26 = load i32*, i32** %25, align 8
  tail call void @_ZNSt16allocator_traitsISaIiEE9constructIiJRKiEEEvRS0_PT_DpOT0_(%"class.std::allocator"* dereferenceable(1) %24, i32* %26, i32* nonnull dereferenceable(4) %1)
  %.0..0..0.8 = load volatile %"class.std::vector"*, %"class.std::vector"** %5, align 8
  %27 = getelementptr inbounds %"class.std::vector", %"class.std::vector"* %.0..0..0.8, i64 0, i32 0, i32 0, i32 1
  %28 = load i32*, i32** %27, align 8
  %29 = getelementptr inbounds i32, i32* %28, i64 1
  store i32* %29, i32** %27, align 8
  %30 = load i32, i32* @x.18, align 4
  %31 = load i32, i32* @y.19, align 4
  %32 = add i32 %30, -1
  %33 = mul i32 %32, %30
  %34 = and i32 %33, 1
  %35 = icmp eq i32 %34, 0
  %36 = icmp slt i32 %31, 10
  %37 = or i1 %36, %35
  %38 = select i1 %37, i32 1552388363, i32 779659888
  br label %.outer.backedge

39:                                               ; preds = %10
  %.0..0..0.9 = load volatile %"class.std::vector"*, %"class.std::vector"** %5, align 8
  tail call void @_ZNSt6vectorIiSaIiEE19_M_emplace_back_auxIJRKiEEEvDpOT_(%"class.std::vector"* %.0..0..0.9, i32* nonnull dereferenceable(4) %1)
  br label %.outer.backedge

40:                                               ; preds = %10
  ret void

41:                                               ; preds = %10
  %.0..0..0.10 = load volatile %"class.std::vector"*, %"class.std::vector"** %5, align 8
  %42 = bitcast %"class.std::vector"* %.0..0..0.10 to %"class.std::allocator"*
  %.0..0..0.11 = load volatile %"class.std::vector"*, %"class.std::vector"** %5, align 8
  %43 = getelementptr inbounds %"class.std::vector", %"class.std::vector"* %.0..0..0.11, i64 0, i32 0, i32 0, i32 1
  %44 = load i32*, i32** %43, align 8
  tail call void @_ZNSt16allocator_traitsISaIiEE9constructIiJRKiEEEvRS0_PT_DpOT0_(%"class.std::allocator"* dereferenceable(1) %42, i32* %44, i32* nonnull dereferenceable(4) %1)
  %.0..0..0.12 = load volatile %"class.std::vector"*, %"class.std::vector"** %5, align 8
  %45 = getelementptr inbounds %"class.std::vector", %"class.std::vector"* %.0..0..0.12, i64 0, i32 0, i32 0, i32 1
  %46 = load i32*, i32** %45, align 8
  %47 = getelementptr inbounds i32, i32* %46, i64 1
  store i32* %47, i32** %45, align 8
  br label %.outer.backedge

.outer.backedge:                                  ; preds = %10, %41, %39, %23, %13, %11
  %.0.ph.be = phi i32 [ %12, %11 ], [ %22, %13 ], [ %38, %23 ], [ 2136816509, %39 ], [ 92334480, %41 ], [ 2136816509, %10 ]
  br label %.outer
}

; Function Attrs: noinline nounwind uwtable
define linkonce_odr i64 @_ZNKSt6vectorIiSaIiEE4sizeEv(%"class.std::vector"* %0) local_unnamed_addr #4 comdat align 2 {
  %2 = getelementptr inbounds %"class.std::vector", %"class.std::vector"* %0, i64 0, i32 0, i32 0, i32 1
  %3 = load i32*, i32** %2, align 8
  %4 = getelementptr inbounds %"class.std::vector", %"class.std::vector"* %0, i64 0, i32 0, i32 0, i32 0
  %5 = load i32*, i32** %4, align 8
  %6 = ptrtoint i32* %3 to i64
  %7 = ptrtoint i32* %5 to i64
  %8 = sub i64 %6, %7
  %9 = ashr exact i64 %8, 2
  ret i64 %9
}

; Function Attrs: noinline nounwind uwtable
define linkonce_odr dereferenceable(4) i32* @_ZNSt6vectorIiSaIiEEixEm(%"class.std::vector"* %0, i64 %1) local_unnamed_addr #4 comdat align 2 {
  %3 = alloca i32*, align 8
  %4 = alloca i1, align 1
  %5 = alloca i1, align 1
  %6 = load i32, i32* @x.22, align 4
  %7 = load i32, i32* @y.23, align 4
  %8 = add i32 %6, -1
  %9 = mul i32 %8, %6
  %10 = and i32 %9, 1
  %11 = icmp eq i32 %10, 0
  store i1 %11, i1* %5, align 1
  %12 = icmp slt i32 %7, 10
  store i1 %12, i1* %4, align 1
  %13 = getelementptr inbounds %"class.std::vector", %"class.std::vector"* %0, i64 0, i32 0, i32 0, i32 0
  %14 = or i1 %12, %11
  %15 = select i1 %14, i32 -383572611, i32 1619920516
  br label %.outer

.outer:                                           ; preds = %20, %2
  %.ph = phi i32* [ %22, %20 ], [ undef, %2 ]
  %.0.ph = phi i32 [ %15, %20 ], [ 1249679041, %2 ]
  br label %.outer3

.outer3:                                          ; preds = %.outer3.backedge, %.outer
  %.0.ph4 = phi i32 [ %.0.ph, %.outer ], [ %.0.ph4.be, %.outer3.backedge ]
  br label %16

16:                                               ; preds = %.outer3, %16
  switch i32 %.0.ph4, label %16 [
    i32 1249679041, label %17
    i32 -309442546, label %20
    i32 -383572611, label %23
    i32 1619920516, label %.outer3.backedge
  ]

17:                                               ; preds = %16
  %.0..0..0. = load volatile i1, i1* %5, align 1
  %.0..0..0.1 = load volatile i1, i1* %4, align 1
  %18 = or i1 %.0..0..0., %.0..0..0.1
  %19 = select i1 %18, i32 -309442546, i32 1619920516
  br label %.outer3.backedge

20:                                               ; preds = %16
  %21 = load i32*, i32** %13, align 8
  %22 = getelementptr inbounds i32, i32* %21, i64 %1
  br label %.outer

23:                                               ; preds = %16
  store i32* %.ph, i32** %3, align 8
  %.0..0..0.2 = load volatile i32*, i32** %3, align 8
  ret i32* %.0..0..0.2

.outer3.backedge:                                 ; preds = %16, %17
  %.0.ph4.be = phi i32 [ %19, %17 ], [ -309442546, %16 ]
  br label %.outer3
}

; Function Attrs: noinline norecurse uwtable
define i32 @main() local_unnamed_addr #5 {
  %1 = tail call zeroext i1 @_ZNSt8ios_base15sync_with_stdioEb(i1 zeroext false)
  %2 = load i8*, i8** bitcast (%"class.std::basic_istream"* @_ZSt3cin to i8**), align 8
  %3 = getelementptr i8, i8* %2, i64 -24
  %4 = bitcast i8* %3 to i64*
  %5 = load i64, i64* %4, align 8
  %6 = getelementptr inbounds i8, i8* bitcast (%"class.std::basic_istream"* @_ZSt3cin to i8*), i64 %5
  %7 = bitcast i8* %6 to %"class.std::basic_ios"*
  %8 = tail call %"class.std::basic_ostream"* @_ZNSt9basic_iosIcSt11char_traitsIcEE3tieEPSo(%"class.std::basic_ios"* %7, %"class.std::basic_ostream"* null)
  %9 = tail call dereferenceable(272) %"class.std::basic_ostream"* @_ZNSolsEPFRSt8ios_baseS0_E(%"class.std::basic_ostream"* nonnull @_ZSt4cout, %"class.std::ios_base"* (%"class.std::ios_base"*)* nonnull @_ZSt5fixedRSt8ios_base)
  %10 = load i8*, i8** bitcast (%"class.std::basic_ostream"* @_ZSt4cout to i8**), align 8
  %11 = getelementptr i8, i8* %10, i64 -24
  %12 = bitcast i8* %11 to i64*
  %13 = load i64, i64* %12, align 8
  %14 = getelementptr inbounds i8, i8* bitcast (%"class.std::basic_ostream"* @_ZSt4cout to i8*), i64 %13
  %15 = bitcast i8* %14 to %"class.std::ios_base"*
  %16 = tail call i64 @_ZNSt8ios_base9precisionEl(%"class.std::ios_base"* %15, i64 20)
  %17 = tail call i64 @time(i64* null) #12
  %18 = trunc i64 %17 to i32
  tail call void @srand(i32 %18) #12
  tail call void @_Z5solvev()
  ret i32 0
}

declare zeroext i1 @_ZNSt8ios_base15sync_with_stdioEb(i1 zeroext) local_unnamed_addr #1

declare %"class.std::basic_ostream"* @_ZNSt9basic_iosIcSt11char_traitsIcEE3tieEPSo(%"class.std::basic_ios"*, %"class.std::basic_ostream"*) local_unnamed_addr #1

declare dereferenceable(272) %"class.std::basic_ostream"* @_ZNSolsEPFRSt8ios_baseS0_E(%"class.std::basic_ostream"*, %"class.std::ios_base"* (%"class.std::ios_base"*)*) local_unnamed_addr #1

; Function Attrs: noinline uwtable
define linkonce_odr dereferenceable(216) %"class.std::ios_base"* @_ZSt5fixedRSt8ios_base(%"class.std::ios_base"* dereferenceable(216) %0) #0 comdat {
  %2 = tail call i32 @_ZNSt8ios_base4setfESt13_Ios_FmtflagsS0_(%"class.std::ios_base"* nonnull %0, i32 4, i32 260)
  ret %"class.std::ios_base"* %0
}

; Function Attrs: noinline nounwind uwtable
define linkonce_odr i64 @_ZNSt8ios_base9precisionEl(%"class.std::ios_base"* %0, i64 %1) local_unnamed_addr #4 comdat align 2 {
  %3 = getelementptr inbounds %"class.std::ios_base", %"class.std::ios_base"* %0, i64 0, i32 1
  %4 = load i64, i64* %3, align 8
  store i64 %1, i64* %3, align 8
  ret i64 %4
}

; Function Attrs: nounwind
declare void @srand(i32) local_unnamed_addr #2

; Function Attrs: nounwind
declare i64 @time(i64*) local_unnamed_addr #2

; Function Attrs: noinline uwtable
define linkonce_odr i32 @_ZNSt8ios_base4setfESt13_Ios_FmtflagsS0_(%"class.std::ios_base"* %0, i32 %1, i32 %2) local_unnamed_addr #0 comdat align 2 {
  %4 = getelementptr inbounds %"class.std::ios_base", %"class.std::ios_base"* %0, i64 0, i32 3
  %5 = load i32, i32* %4, align 8
  %6 = tail call i32 @_ZStcoSt13_Ios_Fmtflags(i32 %2)
  %7 = tail call dereferenceable(4) i32* @_ZStaNRSt13_Ios_FmtflagsS_(i32* nonnull dereferenceable(4) %4, i32 %6)
  %8 = tail call i32 @_ZStanSt13_Ios_FmtflagsS_(i32 %1, i32 %2)
  %9 = tail call dereferenceable(4) i32* @_ZStoRRSt13_Ios_FmtflagsS_(i32* nonnull dereferenceable(4) %4, i32 %8)
  ret i32 %5
}

; Function Attrs: noinline uwtable
define linkonce_odr dereferenceable(4) i32* @_ZStaNRSt13_Ios_FmtflagsS_(i32* dereferenceable(4) %0, i32 %1) local_unnamed_addr #0 comdat {
  %3 = load i32, i32* %0, align 4
  %4 = tail call i32 @_ZStanSt13_Ios_FmtflagsS_(i32 %3, i32 %1)
  store i32 %4, i32* %0, align 4
  ret i32* %0
}

; Function Attrs: noinline nounwind uwtable
define linkonce_odr i32 @_ZStcoSt13_Ios_Fmtflags(i32 %0) local_unnamed_addr #4 comdat {
  %2 = alloca i32, align 4
  %3 = alloca i1, align 1
  %4 = alloca i1, align 1
  %5 = load i32, i32* @x.34, align 4
  %6 = load i32, i32* @y.35, align 4
  %7 = add i32 %5, -1
  %8 = mul i32 %7, %5
  %9 = and i32 %8, 1
  %10 = icmp eq i32 %9, 0
  store i1 %10, i1* %4, align 1
  %11 = icmp slt i32 %6, 10
  store i1 %11, i1* %3, align 1
  %12 = or i1 %11, %10
  %13 = select i1 %12, i32 2052220358, i32 974464465
  br label %.outer

.outer:                                           ; preds = %.outer.backedge, %1
  %.0.ph = phi i32 [ -73209917, %1 ], [ %.0.ph.be, %.outer.backedge ]
  br label %14

14:                                               ; preds = %.outer, %14
  switch i32 %.0.ph, label %14 [
    i32 -73209917, label %15
    i32 1053987914, label %.outer.backedge
    i32 2052220358, label %18
    i32 974464465, label %20
  ]

15:                                               ; preds = %14
  %.0..0..0. = load volatile i1, i1* %4, align 1
  %.0..0..0.1 = load volatile i1, i1* %3, align 1
  %16 = or i1 %.0..0..0., %.0..0..0.1
  %17 = select i1 %16, i32 1053987914, i32 974464465
  br label %.outer.backedge

18:                                               ; preds = %14
  %19 = xor i32 %0, -1
  store i32 %19, i32* %2, align 4
  %.0..0..0.2 = load volatile i32, i32* %2, align 4
  ret i32 %.0..0..0.2

20:                                               ; preds = %14
  br label %.outer.backedge

.outer.backedge:                                  ; preds = %14, %20, %15
  %.0.ph.be = phi i32 [ %17, %15 ], [ 1053987914, %20 ], [ %13, %14 ]
  br label %.outer
}

; Function Attrs: noinline uwtable
define linkonce_odr dereferenceable(4) i32* @_ZStoRRSt13_Ios_FmtflagsS_(i32* dereferenceable(4) %0, i32 %1) local_unnamed_addr #0 comdat {
  %3 = load i32, i32* %0, align 4
  %4 = tail call i32 @_ZStorSt13_Ios_FmtflagsS_(i32 %3, i32 %1)
  store i32 %4, i32* %0, align 4
  ret i32* %0
}

; Function Attrs: noinline nounwind uwtable
define linkonce_odr i32 @_ZStanSt13_Ios_FmtflagsS_(i32 %0, i32 %1) local_unnamed_addr #4 comdat {
  %3 = and i32 %1, %0
  ret i32 %3
}

; Function Attrs: noinline nounwind uwtable
define linkonce_odr i32 @_ZStorSt13_Ios_FmtflagsS_(i32 %0, i32 %1) local_unnamed_addr #4 comdat {
  %3 = or i32 %1, %0
  ret i32 %3
}

; Function Attrs: noinline uwtable
define linkonce_odr void @_ZNSt12_Vector_baseIiSaIiEEC2Ev(%"struct.std::_Vector_base"* %0) unnamed_addr #0 comdat align 2 {
  %2 = getelementptr inbounds %"struct.std::_Vector_base", %"struct.std::_Vector_base"* %0, i64 0, i32 0
  tail call void @_ZNSt12_Vector_baseIiSaIiEE12_Vector_implC2Ev(%"struct.std::_Vector_base<int, std::allocator<int> >::_Vector_impl"* %2)
  ret void
}

declare i32 @__gxx_personality_v0(...)

; Function Attrs: noinline noreturn nounwind
define linkonce_odr hidden void @__clang_call_terminate(i8* %0) local_unnamed_addr #6 comdat {
  %2 = tail call i8* @__cxa_begin_catch(i8* %0) #12
  tail call void @_ZSt9terminatev() #13
  unreachable
}

declare i8* @__cxa_begin_catch(i8*) local_unnamed_addr

declare void @_ZSt9terminatev() local_unnamed_addr

; Function Attrs: noinline nounwind uwtable
define linkonce_odr void @_ZNSt12_Vector_baseIiSaIiEE12_Vector_implC2Ev(%"struct.std::_Vector_base<int, std::allocator<int> >::_Vector_impl"* %0) unnamed_addr #4 comdat align 2 {
  %2 = alloca i1, align 1
  %3 = alloca i1, align 1
  %4 = load i32, i32* @x.46, align 4
  %5 = load i32, i32* @y.47, align 4
  %6 = add i32 %4, -1
  %7 = mul i32 %6, %4
  %8 = and i32 %7, 1
  %9 = icmp eq i32 %8, 0
  store i1 %9, i1* %3, align 1
  %10 = icmp slt i32 %5, 10
  store i1 %10, i1* %2, align 1
  %11 = bitcast %"struct.std::_Vector_base<int, std::allocator<int> >::_Vector_impl"* %0 to %"class.std::allocator"*
  %12 = bitcast %"struct.std::_Vector_base<int, std::allocator<int> >::_Vector_impl"* %0 to i8*
  %13 = bitcast %"struct.std::_Vector_base<int, std::allocator<int> >::_Vector_impl"* %0 to i8*
  br label %.outer

.outer:                                           ; preds = %.outer.backedge, %1
  %.0.ph = phi i32 [ 538318307, %1 ], [ %.0.ph.be, %.outer.backedge ]
  br label %14

14:                                               ; preds = %.outer, %14
  switch i32 %.0.ph, label %14 [
    i32 538318307, label %15
    i32 86617037, label %18
    i32 633839056, label %28
    i32 -1236572320, label %29
  ]

15:                                               ; preds = %14
  %.0..0..0. = load volatile i1, i1* %3, align 1
  %.0..0..0.1 = load volatile i1, i1* %2, align 1
  %16 = or i1 %.0..0..0., %.0..0..0.1
  %17 = select i1 %16, i32 86617037, i32 -1236572320
  br label %.outer.backedge

18:                                               ; preds = %14
  tail call void @_ZNSaIiEC2Ev(%"class.std::allocator"* %11) #12
  call void @llvm.memset.p0i8.i64(i8* noundef nonnull align 8 dereferenceable(24) %13, i8 0, i64 24, i1 false)
  %19 = load i32, i32* @x.46, align 4
  %20 = load i32, i32* @y.47, align 4
  %21 = add i32 %19, -1
  %22 = mul i32 %21, %19
  %23 = and i32 %22, 1
  %24 = icmp eq i32 %23, 0
  %25 = icmp slt i32 %20, 10
  %26 = or i1 %25, %24
  %27 = select i1 %26, i32 633839056, i32 -1236572320
  br label %.outer.backedge

28:                                               ; preds = %14
  ret void

29:                                               ; preds = %14
  tail call void @_ZNSaIiEC2Ev(%"class.std::allocator"* %11) #12
  call void @llvm.memset.p0i8.i64(i8* noundef nonnull align 8 dereferenceable(24) %12, i8 0, i64 24, i1 false)
  br label %.outer.backedge

.outer.backedge:                                  ; preds = %29, %18, %15
  %.0.ph.be = phi i32 [ %17, %15 ], [ %27, %18 ], [ 86617037, %29 ]
  br label %.outer
}

; Function Attrs: noinline nounwind uwtable
define linkonce_odr void @_ZNSaIiEC2Ev(%"class.std::allocator"* %0) unnamed_addr #4 comdat align 2 {
  %2 = bitcast %"class.std::allocator"* %0 to %"class.__gnu_cxx::new_allocator"*
  tail call void @_ZN9__gnu_cxx13new_allocatorIiEC2Ev(%"class.__gnu_cxx::new_allocator"* %2) #12
  ret void
}

; Function Attrs: noinline nounwind uwtable
define linkonce_odr void @_ZN9__gnu_cxx13new_allocatorIiEC2Ev(%"class.__gnu_cxx::new_allocator"* %0) unnamed_addr #4 comdat align 2 {
  %2 = alloca i1, align 1
  %3 = alloca i1, align 1
  %4 = load i32, i32* @x.50, align 4
  %5 = load i32, i32* @y.51, align 4
  %6 = add i32 %4, -1
  %7 = mul i32 %6, %4
  %8 = and i32 %7, 1
  %9 = icmp eq i32 %8, 0
  store i1 %9, i1* %3, align 1
  %10 = icmp slt i32 %5, 10
  store i1 %10, i1* %2, align 1
  %11 = or i1 %10, %9
  %12 = select i1 %11, i32 415896834, i32 -2130065520
  br label %.outer

.outer:                                           ; preds = %.outer.backedge, %1
  %.0.ph = phi i32 [ 1770992948, %1 ], [ %.0.ph.be, %.outer.backedge ]
  br label %13

13:                                               ; preds = %.outer, %13
  switch i32 %.0.ph, label %13 [
    i32 1770992948, label %14
    i32 -778187865, label %.outer.backedge
    i32 415896834, label %17
    i32 -2130065520, label %18
  ]

14:                                               ; preds = %13
  %.0..0..0. = load volatile i1, i1* %3, align 1
  %.0..0..0.1 = load volatile i1, i1* %2, align 1
  %15 = or i1 %.0..0..0., %.0..0..0.1
  %16 = select i1 %15, i32 -778187865, i32 -2130065520
  br label %.outer.backedge

17:                                               ; preds = %13
  ret void

18:                                               ; preds = %13
  br label %.outer.backedge

.outer.backedge:                                  ; preds = %13, %18, %14
  %.0.ph.be = phi i32 [ %16, %14 ], [ -778187865, %18 ], [ %12, %13 ]
  br label %.outer
}

; Function Attrs: noinline uwtable
define linkonce_odr void @_ZSt8_DestroyIPiiEvT_S1_RSaIT0_E(i32* %0, i32* %1, %"class.std::allocator"* dereferenceable(1) %2) local_unnamed_addr #0 comdat {
  %4 = alloca i1, align 1
  %5 = alloca i1, align 1
  %6 = load i32, i32* @x.52, align 4
  %7 = load i32, i32* @y.53, align 4
  %8 = add i32 %6, -1
  %9 = mul i32 %8, %6
  %10 = and i32 %9, 1
  %11 = icmp eq i32 %10, 0
  store i1 %11, i1* %5, align 1
  %12 = icmp slt i32 %7, 10
  store i1 %12, i1* %4, align 1
  br label %.outer

.outer:                                           ; preds = %.outer.backedge, %3
  %.0.ph = phi i32 [ 1192001494, %3 ], [ %.0.ph.be, %.outer.backedge ]
  br label %13

13:                                               ; preds = %.outer, %13
  switch i32 %.0.ph, label %13 [
    i32 1192001494, label %14
    i32 -1946135480, label %17
    i32 750716375, label %27
    i32 -1217198307, label %28
  ]

14:                                               ; preds = %13
  %.0..0..0. = load volatile i1, i1* %5, align 1
  %.0..0..0.1 = load volatile i1, i1* %4, align 1
  %15 = or i1 %.0..0..0., %.0..0..0.1
  %16 = select i1 %15, i32 -1946135480, i32 -1217198307
  br label %.outer.backedge

17:                                               ; preds = %13
  tail call void @_ZSt8_DestroyIPiEvT_S1_(i32* %0, i32* %1)
  %18 = load i32, i32* @x.52, align 4
  %19 = load i32, i32* @y.53, align 4
  %20 = add i32 %18, -1
  %21 = mul i32 %20, %18
  %22 = and i32 %21, 1
  %23 = icmp eq i32 %22, 0
  %24 = icmp slt i32 %19, 10
  %25 = or i1 %24, %23
  %26 = select i1 %25, i32 750716375, i32 -1217198307
  br label %.outer.backedge

27:                                               ; preds = %13
  ret void

28:                                               ; preds = %13
  tail call void @_ZSt8_DestroyIPiEvT_S1_(i32* %0, i32* %1)
  br label %.outer.backedge

.outer.backedge:                                  ; preds = %28, %17, %14
  %.0.ph.be = phi i32 [ %16, %14 ], [ %26, %17 ], [ -1946135480, %28 ]
  br label %.outer
}

; Function Attrs: noinline nounwind uwtable
define linkonce_odr dereferenceable(1) %"class.std::allocator"* @_ZNSt12_Vector_baseIiSaIiEE19_M_get_Tp_allocatorEv(%"struct.std::_Vector_base"* %0) local_unnamed_addr #4 comdat align 2 {
  %2 = alloca %"class.std::allocator"*, align 8
  %3 = alloca i1, align 1
  %4 = alloca i1, align 1
  %5 = load i32, i32* @x.54, align 4
  %6 = load i32, i32* @y.55, align 4
  %7 = add i32 %5, -1
  %8 = mul i32 %7, %5
  %9 = and i32 %8, 1
  %10 = icmp eq i32 %9, 0
  store i1 %10, i1* %4, align 1
  %11 = icmp slt i32 %6, 10
  store i1 %11, i1* %3, align 1
  %12 = or i1 %11, %10
  %13 = select i1 %12, i32 806518755, i32 -1305848312
  br label %.outer

.outer:                                           ; preds = %.outer.backedge, %1
  %.0.ph = phi i32 [ -57338265, %1 ], [ %.0.ph.be, %.outer.backedge ]
  br label %14

14:                                               ; preds = %.outer, %14
  switch i32 %.0.ph, label %14 [
    i32 -57338265, label %15
    i32 -1829669270, label %.outer.backedge
    i32 806518755, label %18
    i32 -1305848312, label %20
  ]

15:                                               ; preds = %14
  %.0..0..0. = load volatile i1, i1* %4, align 1
  %.0..0..0.1 = load volatile i1, i1* %3, align 1
  %16 = or i1 %.0..0..0., %.0..0..0.1
  %17 = select i1 %16, i32 -1829669270, i32 -1305848312
  br label %.outer.backedge

18:                                               ; preds = %14
  %19 = bitcast %"class.std::allocator"** %2 to %"struct.std::_Vector_base"**
  store %"struct.std::_Vector_base"* %0, %"struct.std::_Vector_base"** %19, align 8
  %.0..0..0.2 = load volatile %"class.std::allocator"*, %"class.std::allocator"** %2, align 8
  ret %"class.std::allocator"* %.0..0..0.2

20:                                               ; preds = %14
  br label %.outer.backedge

.outer.backedge:                                  ; preds = %14, %20, %15
  %.0.ph.be = phi i32 [ %17, %15 ], [ -1829669270, %20 ], [ %13, %14 ]
  br label %.outer
}

; Function Attrs: noinline nounwind uwtable
define linkonce_odr void @_ZNSt12_Vector_baseIiSaIiEED2Ev(%"struct.std::_Vector_base"* %0) unnamed_addr #4 comdat align 2 personality i8* bitcast (i32 (...)* @__gxx_personality_v0 to i8*) {
  %2 = load i32, i32* @x.56, align 4
  %3 = load i32, i32* @y.57, align 4
  %4 = add i32 %2, -1
  %5 = mul i32 %4, %2
  %6 = and i32 %5, 1
  %7 = icmp eq i32 %6, 0
  %8 = icmp slt i32 %3, 10
  %9 = or i1 %8, %7
  br label %10

10:                                               ; preds = %1, %10
  br i1 %9, label %11, label %10

11:                                               ; preds = %10
  %12 = getelementptr inbounds %"struct.std::_Vector_base", %"struct.std::_Vector_base"* %0, i64 0, i32 0
  %13 = getelementptr inbounds %"struct.std::_Vector_base", %"struct.std::_Vector_base"* %0, i64 0, i32 0, i32 0
  %14 = load i32*, i32** %13, align 8
  %15 = getelementptr inbounds %"struct.std::_Vector_base", %"struct.std::_Vector_base"* %0, i64 0, i32 0, i32 2
  %16 = load i32*, i32** %15, align 8
  %17 = ptrtoint i32* %16 to i64
  %18 = ptrtoint i32* %14 to i64
  %19 = sub i64 %17, %18
  %20 = ashr exact i64 %19, 2
  invoke void @_ZNSt12_Vector_baseIiSaIiEE13_M_deallocateEPim(%"struct.std::_Vector_base"* nonnull %0, i32* %14, i64 %20)
          to label %21 unwind label %22

21:                                               ; preds = %11
  tail call void @_ZNSt12_Vector_baseIiSaIiEE12_Vector_implD2Ev(%"struct.std::_Vector_base<int, std::allocator<int> >::_Vector_impl"* nonnull %12) #12
  ret void

22:                                               ; preds = %11
  %23 = landingpad { i8*, i32 }
          catch i8* null
  %24 = extractvalue { i8*, i32 } %23, 0
  tail call void @_ZNSt12_Vector_baseIiSaIiEE12_Vector_implD2Ev(%"struct.std::_Vector_base<int, std::allocator<int> >::_Vector_impl"* nonnull %12) #12
  tail call void @__clang_call_terminate(i8* %24) #13
  unreachable
}

; Function Attrs: noinline uwtable
define linkonce_odr void @_ZSt8_DestroyIPiEvT_S1_(i32* %0, i32* %1) local_unnamed_addr #0 comdat {
  tail call void @_ZNSt12_Destroy_auxILb1EE9__destroyIPiEEvT_S3_(i32* %0, i32* %1)
  ret void
}

; Function Attrs: noinline nounwind uwtable
define linkonce_odr void @_ZNSt12_Destroy_auxILb1EE9__destroyIPiEEvT_S3_(i32* %0, i32* %1) local_unnamed_addr #4 comdat align 2 {
  ret void
}

; Function Attrs: noinline uwtable
define linkonce_odr void @_ZNSt12_Vector_baseIiSaIiEE13_M_deallocateEPim(%"struct.std::_Vector_base"* %0, i32* %1, i64 %2) local_unnamed_addr #0 comdat align 2 {
  %4 = alloca i1, align 1
  %5 = alloca %"struct.std::_Vector_base"*, align 8
  %6 = alloca i64*, align 8
  %7 = alloca i32**, align 8
  %8 = alloca i1, align 1
  %9 = alloca i1, align 1
  %10 = load i32, i32* @x.62, align 4
  %11 = load i32, i32* @y.63, align 4
  %12 = add i32 %10, -1
  %13 = mul i32 %12, %10
  %14 = and i32 %13, 1
  %15 = icmp eq i32 %14, 0
  store i1 %15, i1* %9, align 1
  %16 = icmp slt i32 %11, 10
  store i1 %16, i1* %8, align 1
  br label %17

17:                                               ; preds = %.backedge, %3
  %.0 = phi i32 [ 1572274723, %3 ], [ %.0.be, %.backedge ]
  switch i32 %.0, label %.backedge [
    i32 1572274723, label %18
    i32 526089641, label %21
    i32 967192893, label %35
    i32 -500370062, label %37
    i32 -172531748, label %41
    i32 -1432472450, label %51
    i32 474432444, label %61
    i32 2008211602, label %62
    i32 -1503943393, label %63
  ]

.backedge:                                        ; preds = %17, %63, %62, %51, %41, %37, %35, %21, %18
  %.0.be = phi i32 [ %.0, %17 ], [ -1432472450, %63 ], [ 526089641, %62 ], [ %60, %51 ], [ %50, %41 ], [ -172531748, %37 ], [ %36, %35 ], [ %34, %21 ], [ %20, %18 ]
  br label %17

18:                                               ; preds = %17
  %.0..0..0. = load volatile i1, i1* %9, align 1
  %.0..0..0.1 = load volatile i1, i1* %8, align 1
  %19 = or i1 %.0..0..0., %.0..0..0.1
  %20 = select i1 %19, i32 526089641, i32 2008211602
  br label %.backedge

21:                                               ; preds = %17
  %22 = alloca i32*, align 8
  store i32** %22, i32*** %7, align 8
  %23 = alloca i64, align 8
  store i64* %23, i64** %6, align 8
  %.0..0..0.2 = load volatile i32**, i32*** %7, align 8
  store i32* %1, i32** %.0..0..0.2, align 8
  %.0..0..0.5 = load volatile i64*, i64** %6, align 8
  store i64 %2, i64* %.0..0..0.5, align 8
  store %"struct.std::_Vector_base"* %0, %"struct.std::_Vector_base"** %5, align 8
  %.0..0..0.3 = load volatile i32**, i32*** %7, align 8
  %24 = load i32*, i32** %.0..0..0.3, align 8
  %25 = icmp ne i32* %24, null
  store i1 %25, i1* %4, align 1
  %26 = load i32, i32* @x.62, align 4
  %27 = load i32, i32* @y.63, align 4
  %28 = add i32 %26, -1
  %29 = mul i32 %28, %26
  %30 = and i32 %29, 1
  %31 = icmp eq i32 %30, 0
  %32 = icmp slt i32 %27, 10
  %33 = or i1 %32, %31
  %34 = select i1 %33, i32 967192893, i32 2008211602
  br label %.backedge

35:                                               ; preds = %17
  %.0..0..0.8 = load volatile i1, i1* %4, align 1
  %36 = select i1 %.0..0..0.8, i32 -500370062, i32 -172531748
  br label %.backedge

37:                                               ; preds = %17
  %.0..0..0.7 = load volatile %"struct.std::_Vector_base"*, %"struct.std::_Vector_base"** %5, align 8
  %38 = bitcast %"struct.std::_Vector_base"* %.0..0..0.7 to %"class.std::allocator"*
  %.0..0..0.4 = load volatile i32**, i32*** %7, align 8
  %39 = load i32*, i32** %.0..0..0.4, align 8
  %.0..0..0.6 = load volatile i64*, i64** %6, align 8
  %40 = load i64, i64* %.0..0..0.6, align 8
  call void @_ZNSt16allocator_traitsISaIiEE10deallocateERS0_Pim(%"class.std::allocator"* dereferenceable(1) %38, i32* %39, i64 %40)
  br label %.backedge

41:                                               ; preds = %17
  %42 = load i32, i32* @x.62, align 4
  %43 = load i32, i32* @y.63, align 4
  %44 = add i32 %42, -1
  %45 = mul i32 %44, %42
  %46 = and i32 %45, 1
  %47 = icmp eq i32 %46, 0
  %48 = icmp slt i32 %43, 10
  %49 = or i1 %48, %47
  %50 = select i1 %49, i32 -1432472450, i32 -1503943393
  br label %.backedge

51:                                               ; preds = %17
  %52 = load i32, i32* @x.62, align 4
  %53 = load i32, i32* @y.63, align 4
  %54 = add i32 %52, -1
  %55 = mul i32 %54, %52
  %56 = and i32 %55, 1
  %57 = icmp eq i32 %56, 0
  %58 = icmp slt i32 %53, 10
  %59 = or i1 %58, %57
  %60 = select i1 %59, i32 474432444, i32 -1503943393
  br label %.backedge

61:                                               ; preds = %17
  ret void

62:                                               ; preds = %17
  br label %.backedge

63:                                               ; preds = %17
  br label %.backedge
}

; Function Attrs: noinline nounwind uwtable
define linkonce_odr void @_ZNSt12_Vector_baseIiSaIiEE12_Vector_implD2Ev(%"struct.std::_Vector_base<int, std::allocator<int> >::_Vector_impl"* %0) unnamed_addr #4 comdat align 2 {
  %2 = alloca i1, align 1
  %3 = alloca i1, align 1
  %4 = load i32, i32* @x.64, align 4
  %5 = load i32, i32* @y.65, align 4
  %6 = add i32 %4, -1
  %7 = mul i32 %6, %4
  %8 = and i32 %7, 1
  %9 = icmp eq i32 %8, 0
  store i1 %9, i1* %3, align 1
  %10 = icmp slt i32 %5, 10
  store i1 %10, i1* %2, align 1
  %11 = bitcast %"struct.std::_Vector_base<int, std::allocator<int> >::_Vector_impl"* %0 to %"class.std::allocator"*
  br label %.outer

.outer:                                           ; preds = %.outer.backedge, %1
  %.0.ph = phi i32 [ 1239696505, %1 ], [ %.0.ph.be, %.outer.backedge ]
  br label %12

12:                                               ; preds = %.outer, %12
  switch i32 %.0.ph, label %12 [
    i32 1239696505, label %13
    i32 -1565375527, label %16
    i32 1035396427, label %26
    i32 29431623, label %27
  ]

13:                                               ; preds = %12
  %.0..0..0. = load volatile i1, i1* %3, align 1
  %.0..0..0.1 = load volatile i1, i1* %2, align 1
  %14 = or i1 %.0..0..0., %.0..0..0.1
  %15 = select i1 %14, i32 -1565375527, i32 29431623
  br label %.outer.backedge

16:                                               ; preds = %12
  tail call void @_ZNSaIiED2Ev(%"class.std::allocator"* %11) #12
  %17 = load i32, i32* @x.64, align 4
  %18 = load i32, i32* @y.65, align 4
  %19 = add i32 %17, -1
  %20 = mul i32 %19, %17
  %21 = and i32 %20, 1
  %22 = icmp eq i32 %21, 0
  %23 = icmp slt i32 %18, 10
  %24 = or i1 %23, %22
  %25 = select i1 %24, i32 1035396427, i32 29431623
  br label %.outer.backedge

26:                                               ; preds = %12
  ret void

27:                                               ; preds = %12
  tail call void @_ZNSaIiED2Ev(%"class.std::allocator"* %11) #12
  br label %.outer.backedge

.outer.backedge:                                  ; preds = %27, %16, %13
  %.0.ph.be = phi i32 [ %15, %13 ], [ %25, %16 ], [ -1565375527, %27 ]
  br label %.outer
}

; Function Attrs: noinline uwtable
define linkonce_odr void @_ZNSt16allocator_traitsISaIiEE10deallocateERS0_Pim(%"class.std::allocator"* dereferenceable(1) %0, i32* %1, i64 %2) local_unnamed_addr #0 comdat align 2 {
  %4 = bitcast %"class.std::allocator"* %0 to %"class.__gnu_cxx::new_allocator"*
  tail call void @_ZN9__gnu_cxx13new_allocatorIiE10deallocateEPim(%"class.__gnu_cxx::new_allocator"* nonnull %4, i32* %1, i64 %2)
  ret void
}

; Function Attrs: noinline nounwind uwtable
define linkonce_odr void @_ZN9__gnu_cxx13new_allocatorIiE10deallocateEPim(%"class.__gnu_cxx::new_allocator"* %0, i32* %1, i64 %2) local_unnamed_addr #4 comdat align 2 {
  %4 = bitcast i32* %1 to i8*
  tail call void @_ZdlPv(i8* %4) #12
  ret void
}

; Function Attrs: nobuiltin nounwind
declare void @_ZdlPv(i8*) local_unnamed_addr #7

; Function Attrs: noinline nounwind uwtable
define linkonce_odr void @_ZNSaIiED2Ev(%"class.std::allocator"* %0) unnamed_addr #4 comdat align 2 {
  %2 = alloca i1, align 1
  %3 = alloca i1, align 1
  %4 = load i32, i32* @x.70, align 4
  %5 = load i32, i32* @y.71, align 4
  %6 = add i32 %4, -1
  %7 = mul i32 %6, %4
  %8 = and i32 %7, 1
  %9 = icmp eq i32 %8, 0
  store i1 %9, i1* %3, align 1
  %10 = icmp slt i32 %5, 10
  store i1 %10, i1* %2, align 1
  %11 = bitcast %"class.std::allocator"* %0 to %"class.__gnu_cxx::new_allocator"*
  br label %.outer

.outer:                                           ; preds = %.outer.backedge, %1
  %.0.ph = phi i32 [ 1488104152, %1 ], [ %.0.ph.be, %.outer.backedge ]
  br label %12

12:                                               ; preds = %.outer, %12
  switch i32 %.0.ph, label %12 [
    i32 1488104152, label %13
    i32 -2081983488, label %16
    i32 796446539, label %26
    i32 -1918204576, label %27
  ]

13:                                               ; preds = %12
  %.0..0..0. = load volatile i1, i1* %3, align 1
  %.0..0..0.1 = load volatile i1, i1* %2, align 1
  %14 = or i1 %.0..0..0., %.0..0..0.1
  %15 = select i1 %14, i32 -2081983488, i32 -1918204576
  br label %.outer.backedge

16:                                               ; preds = %12
  tail call void @_ZN9__gnu_cxx13new_allocatorIiED2Ev(%"class.__gnu_cxx::new_allocator"* %11) #12
  %17 = load i32, i32* @x.70, align 4
  %18 = load i32, i32* @y.71, align 4
  %19 = add i32 %17, -1
  %20 = mul i32 %19, %17
  %21 = and i32 %20, 1
  %22 = icmp eq i32 %21, 0
  %23 = icmp slt i32 %18, 10
  %24 = or i1 %23, %22
  %25 = select i1 %24, i32 796446539, i32 -1918204576
  br label %.outer.backedge

26:                                               ; preds = %12
  ret void

27:                                               ; preds = %12
  tail call void @_ZN9__gnu_cxx13new_allocatorIiED2Ev(%"class.__gnu_cxx::new_allocator"* %11) #12
  br label %.outer.backedge

.outer.backedge:                                  ; preds = %27, %16, %13
  %.0.ph.be = phi i32 [ %15, %13 ], [ %25, %16 ], [ -2081983488, %27 ]
  br label %.outer
}

; Function Attrs: noinline nounwind uwtable
define linkonce_odr void @_ZN9__gnu_cxx13new_allocatorIiED2Ev(%"class.__gnu_cxx::new_allocator"* %0) unnamed_addr #4 comdat align 2 {
  ret void
}

; Function Attrs: noinline uwtable
define linkonce_odr void @_ZNSt16allocator_traitsISaIiEE9constructIiJRKiEEEvRS0_PT_DpOT0_(%"class.std::allocator"* dereferenceable(1) %0, i32* %1, i32* dereferenceable(4) %2) local_unnamed_addr #0 comdat align 2 {
  %4 = bitcast %"class.std::allocator"* %0 to %"class.__gnu_cxx::new_allocator"*
  %5 = tail call dereferenceable(4) i32* @_ZSt7forwardIRKiEOT_RNSt16remove_referenceIS2_E4typeE(i32* nonnull dereferenceable(4) %2) #12
  tail call void @_ZN9__gnu_cxx13new_allocatorIiE9constructIiJRKiEEEvPT_DpOT0_(%"class.__gnu_cxx::new_allocator"* nonnull %4, i32* %1, i32* nonnull dereferenceable(4) %5)
  ret void
}

; Function Attrs: noinline uwtable
define linkonce_odr void @_ZNSt6vectorIiSaIiEE19_M_emplace_back_auxIJRKiEEEvDpOT_(%"class.std::vector"* %0, i32* dereferenceable(4) %1) local_unnamed_addr #0 comdat align 2 personality i8* bitcast (i32 (...)* @__gxx_personality_v0 to i8*) {
  %3 = tail call i64 @_ZNKSt6vectorIiSaIiEE12_M_check_lenEmPKc(%"class.std::vector"* %0, i64 1, i8* getelementptr inbounds ([28 x i8], [28 x i8]* @.str.5, i64 0, i64 0))
  %4 = getelementptr %"class.std::vector", %"class.std::vector"* %0, i64 0, i32 0
  %5 = tail call i32* @_ZNSt12_Vector_baseIiSaIiEE11_M_allocateEm(%"struct.std::_Vector_base"* %4, i64 %3)
  %6 = bitcast %"class.std::vector"* %0 to %"class.std::allocator"*
  %7 = tail call i64 @_ZNKSt6vectorIiSaIiEE4sizeEv(%"class.std::vector"* %0) #12
  %8 = getelementptr inbounds i32, i32* %5, i64 %7
  %9 = tail call dereferenceable(4) i32* @_ZSt7forwardIRKiEOT_RNSt16remove_referenceIS2_E4typeE(i32* nonnull dereferenceable(4) %1) #12
  invoke void @_ZNSt16allocator_traitsISaIiEE9constructIiJRKiEEEvRS0_PT_DpOT0_(%"class.std::allocator"* dereferenceable(1) %6, i32* %8, i32* nonnull dereferenceable(4) %9)
          to label %10 unwind label %26

10:                                               ; preds = %2
  %11 = getelementptr inbounds %"class.std::vector", %"class.std::vector"* %0, i64 0, i32 0, i32 0, i32 0
  %12 = load i32*, i32** %11, align 8
  %13 = getelementptr inbounds %"class.std::vector", %"class.std::vector"* %0, i64 0, i32 0, i32 0, i32 1
  %14 = load i32*, i32** %13, align 8
  %15 = tail call dereferenceable(1) %"class.std::allocator"* @_ZNSt12_Vector_baseIiSaIiEE19_M_get_Tp_allocatorEv(%"struct.std::_Vector_base"* %4) #12
  %16 = invoke i32* @_ZSt34__uninitialized_move_if_noexcept_aIPiS0_SaIiEET0_T_S3_S2_RT1_(i32* %12, i32* %14, i32* %5, %"class.std::allocator"* nonnull dereferenceable(1) %15)
          to label %17 unwind label %26

17:                                               ; preds = %10
  %18 = load i32, i32* @x.76, align 4
  %19 = load i32, i32* @y.77, align 4
  %20 = add i32 %18, -1
  %21 = mul i32 %20, %18
  %22 = and i32 %21, 1
  %23 = icmp eq i32 %22, 0
  %24 = icmp slt i32 %19, 10
  %25 = or i1 %24, %23
  br i1 %25, label %.critedge, label %.preheader

26:                                               ; preds = %10, %2
  %.0 = phi i32* [ null, %10 ], [ %5, %2 ]
  %27 = landingpad { i8*, i32 }
          catch i8* null
  %28 = extractvalue { i8*, i32 } %27, 0
  %29 = tail call i8* @__cxa_begin_catch(i8* %28) #12
  %.not = icmp eq i32* %.0, null
  br i1 %.not, label %30, label %45

30:                                               ; preds = %26
  %31 = tail call i64 @_ZNKSt6vectorIiSaIiEE4sizeEv(%"class.std::vector"* %0) #12
  %32 = getelementptr inbounds i32, i32* %5, i64 %31
  invoke void @_ZNSt16allocator_traitsISaIiEE7destroyIiEEvRS0_PT_(%"class.std::allocator"* dereferenceable(1) %6, i32* %32)
          to label %..critedge24_crit_edge unwind label %33

..critedge24_crit_edge:                           ; preds = %30
  %.pre = load i32, i32* @x.76, align 4
  %.pre33 = load i32, i32* @y.77, align 4
  %.pre34 = add i32 %.pre, -1
  %.pre35 = mul i32 %.pre34, %.pre
  %.pre37 = and i32 %.pre35, 1
  br label %.critedge24

33:                                               ; preds = %78, %.critedge25, %64, %30
  %34 = load i32, i32* @x.76, align 4
  %35 = load i32, i32* @y.77, align 4
  %36 = add i32 %34, -1
  %37 = mul i32 %36, %34
  %38 = and i32 %37, 1
  %39 = icmp eq i32 %38, 0
  %40 = icmp slt i32 %35, 10
  %41 = or i1 %40, %39
  br i1 %41, label %42, label %96

42:                                               ; preds = %96, %33
  %43 = landingpad { i8*, i32 }
          cleanup
  br i1 %41, label %44, label %96

44:                                               ; preds = %42
  invoke void @__cxa_end_catch()
          to label %91 unwind label %92

45:                                               ; preds = %26
  %46 = load i32, i32* @x.76, align 4
  %47 = load i32, i32* @y.77, align 4
  %48 = add i32 %46, -1
  %49 = mul i32 %48, %46
  %50 = and i32 %49, 1
  %51 = icmp eq i32 %50, 0
  %52 = icmp slt i32 %47, 10
  %53 = or i1 %52, %51
  br i1 %53, label %54, label %98

54:                                               ; preds = %98, %45
  %55 = tail call dereferenceable(1) %"class.std::allocator"* @_ZNSt12_Vector_baseIiSaIiEE19_M_get_Tp_allocatorEv(%"struct.std::_Vector_base"* %4) #12
  %56 = load i32, i32* @x.76, align 4
  %57 = load i32, i32* @y.77, align 4
  %58 = add i32 %56, -1
  %59 = mul i32 %58, %56
  %60 = and i32 %59, 1
  %61 = icmp eq i32 %60, 0
  %62 = icmp slt i32 %57, 10
  %63 = or i1 %62, %61
  br i1 %63, label %64, label %98

64:                                               ; preds = %54
  invoke void @_ZSt8_DestroyIPiiEvT_S1_RSaIT0_E(i32* %5, i32* nonnull %.0, %"class.std::allocator"* nonnull dereferenceable(1) %55)
          to label %65 unwind label %33

65:                                               ; preds = %64
  %66 = load i32, i32* @x.76, align 4
  %67 = load i32, i32* @y.77, align 4
  %68 = add i32 %66, -1
  %69 = mul i32 %68, %66
  %70 = and i32 %69, 1
  %71 = icmp eq i32 %70, 0
  %72 = icmp slt i32 %67, 10
  %73 = or i1 %72, %71
  br i1 %73, label %.critedge24, label %.preheader29

.critedge24:                                      ; preds = %..critedge24_crit_edge, %65
  %.pre-phi38 = phi i32 [ %.pre37, %..critedge24_crit_edge ], [ %70, %65 ]
  %74 = phi i32 [ %.pre33, %..critedge24_crit_edge ], [ %67, %65 ]
  %75 = icmp eq i32 %.pre-phi38, 0
  %76 = icmp slt i32 %74, 10
  %77 = or i1 %76, %75
  br i1 %77, label %.critedge25, label %.preheader28

.critedge25:                                      ; preds = %.critedge24
  invoke void @_ZNSt12_Vector_baseIiSaIiEE13_M_deallocateEPim(%"struct.std::_Vector_base"* %4, i32* %5, i64 %3)
          to label %78 unwind label %33

78:                                               ; preds = %.critedge25
  invoke void @__cxa_rethrow() #14
          to label %95 unwind label %33

.critedge:                                        ; preds = %17
  %79 = getelementptr inbounds i32, i32* %16, i64 1
  %80 = load i32*, i32** %11, align 8
  %81 = load i32*, i32** %13, align 8
  %82 = tail call dereferenceable(1) %"class.std::allocator"* @_ZNSt12_Vector_baseIiSaIiEE19_M_get_Tp_allocatorEv(%"struct.std::_Vector_base"* %4) #12
  tail call void @_ZSt8_DestroyIPiiEvT_S1_RSaIT0_E(i32* %80, i32* %81, %"class.std::allocator"* nonnull dereferenceable(1) %82)
  %83 = load i32*, i32** %11, align 8
  %84 = getelementptr inbounds %"class.std::vector", %"class.std::vector"* %0, i64 0, i32 0, i32 0, i32 2
  %85 = load i32*, i32** %84, align 8
  %86 = ptrtoint i32* %85 to i64
  %87 = ptrtoint i32* %83 to i64
  %88 = sub i64 %86, %87
  %89 = ashr exact i64 %88, 2
  tail call void @_ZNSt12_Vector_baseIiSaIiEE13_M_deallocateEPim(%"struct.std::_Vector_base"* %4, i32* %83, i64 %89)
  store i32* %5, i32** %11, align 8
  store i32* %79, i32** %13, align 8
  %90 = getelementptr inbounds i32, i32* %5, i64 %3
  store i32* %90, i32** %84, align 8
  ret void

91:                                               ; preds = %44
  resume { i8*, i32 } %43

92:                                               ; preds = %44
  %93 = landingpad { i8*, i32 }
          catch i8* null
  %94 = extractvalue { i8*, i32 } %93, 0
  tail call void @__clang_call_terminate(i8* %94) #13
  unreachable

95:                                               ; preds = %78
  unreachable

.preheader:                                       ; preds = %17, %.preheader
  br label %.preheader, !llvm.loop !3

96:                                               ; preds = %42, %33
  %97 = landingpad { i8*, i32 }
          cleanup
  br label %42

98:                                               ; preds = %54, %45
  %99 = tail call dereferenceable(1) %"class.std::allocator"* @_ZNSt12_Vector_baseIiSaIiEE19_M_get_Tp_allocatorEv(%"struct.std::_Vector_base"* %4) #12
  br label %54

.preheader29:                                     ; preds = %65, %.preheader29
  br label %.preheader29, !llvm.loop !4

.preheader28:                                     ; preds = %.critedge24, %.preheader28
  br label %.preheader28, !llvm.loop !5
}

; Function Attrs: noinline nounwind uwtable
define linkonce_odr void @_ZN9__gnu_cxx13new_allocatorIiE9constructIiJRKiEEEvPT_DpOT0_(%"class.__gnu_cxx::new_allocator"* %0, i32* %1, i32* dereferenceable(4) %2) local_unnamed_addr #4 comdat align 2 {
  %4 = tail call dereferenceable(4) i32* @_ZSt7forwardIRKiEOT_RNSt16remove_referenceIS2_E4typeE(i32* nonnull dereferenceable(4) %2) #12
  %5 = load i32, i32* %4, align 4
  store i32 %5, i32* %1, align 4
  ret void
}

; Function Attrs: noinline nounwind uwtable
define linkonce_odr dereferenceable(4) i32* @_ZSt7forwardIRKiEOT_RNSt16remove_referenceIS2_E4typeE(i32* dereferenceable(4) %0) local_unnamed_addr #4 comdat {
  ret i32* %0
}

; Function Attrs: noinline uwtable
define linkonce_odr i64 @_ZNKSt6vectorIiSaIiEE12_M_check_lenEmPKc(%"class.std::vector"* %0, i64 %1, i8* %2) local_unnamed_addr #0 comdat align 2 {
  %4 = alloca i64, align 8
  %5 = alloca i64, align 8
  %6 = alloca i64, align 8
  %7 = alloca %"class.std::vector"*, align 8
  %8 = alloca i64, align 8
  %9 = alloca i64, align 8
  store i64 %1, i64* %8, align 8
  store %"class.std::vector"* %0, %"class.std::vector"** %7, align 8
  %.0..0..0.6 = load volatile %"class.std::vector"*, %"class.std::vector"** %7, align 8
  %10 = tail call i64 @_ZNKSt6vectorIiSaIiEE8max_sizeEv(%"class.std::vector"* %.0..0..0.6) #12
  %.0..0..0.7 = load volatile %"class.std::vector"*, %"class.std::vector"** %7, align 8
  %11 = tail call i64 @_ZNKSt6vectorIiSaIiEE4sizeEv(%"class.std::vector"* %.0..0..0.7) #12
  %12 = sub i64 %10, %11
  store i64 %12, i64* %6, align 8
  store i64 %1, i64* %5, align 8
  br label %13

13:                                               ; preds = %.backedge, %3
  %.018 = phi i64 [ undef, %3 ], [ %.018.be, %.backedge ]
  %.016 = phi i32 [ 2065901402, %3 ], [ %.016.be, %.backedge ]
  %.0 = phi i64 [ undef, %3 ], [ %.0.be, %.backedge ]
  switch i32 %.016, label %.backedge [
    i32 2065901402, label %14
    i32 -1196943469, label %17
    i32 553105542, label %18
    i32 1147523043, label %27
    i32 1522805289, label %31
    i32 1004655051, label %33
    i32 -883317844, label %34
    i32 1129003195, label %44
    i32 -1314471072, label %54
    i32 976882905, label %55
  ]

.backedge:                                        ; preds = %13, %55, %44, %34, %33, %31, %27, %18, %14
  %.018.be = phi i64 [ %.018, %13 ], [ %.018, %55 ], [ %.018, %44 ], [ %.018, %34 ], [ %.018, %33 ], [ %.018, %31 ], [ %.018, %27 ], [ %23, %18 ], [ %.018, %14 ]
  %.016.be = phi i32 [ %.016, %13 ], [ 1129003195, %55 ], [ %53, %44 ], [ %43, %34 ], [ -883317844, %33 ], [ -883317844, %31 ], [ %30, %27 ], [ %26, %18 ], [ %16, %14 ]
  %.0.be = phi i64 [ %.0, %13 ], [ %.0, %55 ], [ %.0, %44 ], [ %.0, %34 ], [ %.018, %33 ], [ %32, %31 ], [ %.0, %27 ], [ %.0, %18 ], [ %.0, %14 ]
  br label %13

14:                                               ; preds = %13
  %.0..0..0.13 = load volatile i64, i64* %6, align 8
  %.0..0..0.14 = load volatile i64, i64* %5, align 8
  %15 = icmp ult i64 %.0..0..0.13, %.0..0..0.14
  %16 = select i1 %15, i32 -1196943469, i32 553105542
  br label %.backedge

17:                                               ; preds = %13
  call void @_ZSt20__throw_length_errorPKc(i8* %2) #14
  unreachable

18:                                               ; preds = %13
  %.0..0..0.8 = load volatile %"class.std::vector"*, %"class.std::vector"** %7, align 8
  %19 = call i64 @_ZNKSt6vectorIiSaIiEE4sizeEv(%"class.std::vector"* %.0..0..0.8) #12
  %.0..0..0.9 = load volatile %"class.std::vector"*, %"class.std::vector"** %7, align 8
  %20 = call i64 @_ZNKSt6vectorIiSaIiEE4sizeEv(%"class.std::vector"* %.0..0..0.9) #12
  store i64 %20, i64* %9, align 8
  %21 = call dereferenceable(8) i64* @_ZSt3maxImERKT_S2_S2_(i64* nonnull dereferenceable(8) %9, i64* nonnull dereferenceable(8) %8)
  %22 = load i64, i64* %21, align 8
  %23 = add i64 %22, %19
  %.0..0..0.10 = load volatile %"class.std::vector"*, %"class.std::vector"** %7, align 8
  %24 = call i64 @_ZNKSt6vectorIiSaIiEE4sizeEv(%"class.std::vector"* %.0..0..0.10) #12
  %25 = icmp ult i64 %23, %24
  %26 = select i1 %25, i32 1522805289, i32 1147523043
  br label %.backedge

27:                                               ; preds = %13
  %.0..0..0.11 = load volatile %"class.std::vector"*, %"class.std::vector"** %7, align 8
  %28 = call i64 @_ZNKSt6vectorIiSaIiEE8max_sizeEv(%"class.std::vector"* %.0..0..0.11) #12
  %29 = icmp ugt i64 %.018, %28
  %30 = select i1 %29, i32 1522805289, i32 1004655051
  br label %.backedge

31:                                               ; preds = %13
  %.0..0..0.12 = load volatile %"class.std::vector"*, %"class.std::vector"** %7, align 8
  %32 = call i64 @_ZNKSt6vectorIiSaIiEE8max_sizeEv(%"class.std::vector"* %.0..0..0.12) #12
  br label %.backedge

33:                                               ; preds = %13
  br label %.backedge

34:                                               ; preds = %13
  store i64 %.0, i64* %4, align 8
  %35 = load i32, i32* @x.82, align 4
  %36 = load i32, i32* @y.83, align 4
  %37 = add i32 %35, -1
  %38 = mul i32 %37, %35
  %39 = and i32 %38, 1
  %40 = icmp eq i32 %39, 0
  %41 = icmp slt i32 %36, 10
  %42 = or i1 %41, %40
  %43 = select i1 %42, i32 1129003195, i32 976882905
  br label %.backedge

44:                                               ; preds = %13
  %45 = load i32, i32* @x.82, align 4
  %46 = load i32, i32* @y.83, align 4
  %47 = add i32 %45, -1
  %48 = mul i32 %47, %45
  %49 = and i32 %48, 1
  %50 = icmp eq i32 %49, 0
  %51 = icmp slt i32 %46, 10
  %52 = or i1 %51, %50
  %53 = select i1 %52, i32 -1314471072, i32 976882905
  br label %.backedge

54:                                               ; preds = %13
  %.0..0..0.15 = load volatile i64, i64* %4, align 8
  ret i64 %.0..0..0.15

55:                                               ; preds = %13
  br label %.backedge
}

; Function Attrs: noinline uwtable
define linkonce_odr i32* @_ZNSt12_Vector_baseIiSaIiEE11_M_allocateEm(%"struct.std::_Vector_base"* %0, i64 %1) local_unnamed_addr #0 comdat align 2 {
  %3 = alloca i32*, align 8
  %4 = alloca i64, align 8
  %5 = alloca %"struct.std::_Vector_base"*, align 8
  store %"struct.std::_Vector_base"* %0, %"struct.std::_Vector_base"** %5, align 8
  store i64 %1, i64* %4, align 8
  br label %.outer.outer

.outer.outer:                                     ; preds = %.outer.outer.backedge, %2
  %.09.ph.ph = phi i32 [ 1460915678, %2 ], [ -419540736, %.outer.outer.backedge ]
  %.0.ph.ph = phi i32* [ undef, %2 ], [ %.0.ph.ph.be, %.outer.outer.backedge ]
  br label %.outer

.outer:                                           ; preds = %.outer.backedge, %.outer.outer
  %.09.ph = phi i32 [ %.09.ph.ph, %.outer.outer ], [ %.09.ph.be, %.outer.backedge ]
  br label %6

6:                                                ; preds = %.outer, %6
  switch i32 %.09.ph, label %6 [
    i32 1460915678, label %7
    i32 2037129636, label %9
    i32 2079027880, label %19
    i32 1659314304, label %31
    i32 -2009363476, label %.outer.outer.backedge
    i32 -419540736, label %32
    i32 1074067616, label %33
  ]

7:                                                ; preds = %6
  %.0..0..0.7 = load volatile i64, i64* %4, align 8
  %.not = icmp eq i64 %.0..0..0.7, 0
  %8 = select i1 %.not, i32 -2009363476, i32 2037129636
  br label %.outer.backedge

9:                                                ; preds = %6
  %10 = load i32, i32* @x.84, align 4
  %11 = load i32, i32* @y.85, align 4
  %12 = add i32 %10, -1
  %13 = mul i32 %12, %10
  %14 = and i32 %13, 1
  %15 = icmp eq i32 %14, 0
  %16 = icmp slt i32 %11, 10
  %17 = or i1 %16, %15
  %18 = select i1 %17, i32 2079027880, i32 1074067616
  br label %.outer.backedge

19:                                               ; preds = %6
  %.0..0..0.5 = load volatile %"struct.std::_Vector_base"*, %"struct.std::_Vector_base"** %5, align 8
  %20 = bitcast %"struct.std::_Vector_base"* %.0..0..0.5 to %"class.std::allocator"*
  %21 = tail call i32* @_ZNSt16allocator_traitsISaIiEE8allocateERS0_m(%"class.std::allocator"* dereferenceable(1) %20, i64 %1)
  store i32* %21, i32** %3, align 8
  %22 = load i32, i32* @x.84, align 4
  %23 = load i32, i32* @y.85, align 4
  %24 = add i32 %22, -1
  %25 = mul i32 %24, %22
  %26 = and i32 %25, 1
  %27 = icmp eq i32 %26, 0
  %28 = icmp slt i32 %23, 10
  %29 = or i1 %28, %27
  %30 = select i1 %29, i32 1659314304, i32 1074067616
  br label %.outer.backedge

31:                                               ; preds = %6
  %.0..0..0.8 = load volatile i32*, i32** %3, align 8
  br label %.outer.outer.backedge

.outer.outer.backedge:                            ; preds = %6, %31
  %.0.ph.ph.be = phi i32* [ %.0..0..0.8, %31 ], [ null, %6 ]
  br label %.outer.outer

32:                                               ; preds = %6
  ret i32* %.0.ph.ph

33:                                               ; preds = %6
  %.0..0..0.6 = load volatile %"struct.std::_Vector_base"*, %"struct.std::_Vector_base"** %5, align 8
  %34 = bitcast %"struct.std::_Vector_base"* %.0..0..0.6 to %"class.std::allocator"*
  %35 = tail call i32* @_ZNSt16allocator_traitsISaIiEE8allocateERS0_m(%"class.std::allocator"* dereferenceable(1) %34, i64 %1)
  br label %.outer.backedge

.outer.backedge:                                  ; preds = %33, %19, %9, %7
  %.09.ph.be = phi i32 [ %8, %7 ], [ %18, %9 ], [ %30, %19 ], [ 2079027880, %33 ]
  br label %.outer
}

; Function Attrs: noinline uwtable
define linkonce_odr i32* @_ZSt34__uninitialized_move_if_noexcept_aIPiS0_SaIiEET0_T_S3_S2_RT1_(i32* %0, i32* %1, i32* %2, %"class.std::allocator"* dereferenceable(1) %3) local_unnamed_addr #0 comdat {
  %5 = alloca i32*, align 8
  %6 = alloca i1, align 1
  %7 = alloca i1, align 1
  %8 = load i32, i32* @x.86, align 4
  %9 = load i32, i32* @y.87, align 4
  %10 = add i32 %8, -1
  %11 = mul i32 %10, %8
  %12 = and i32 %11, 1
  %13 = icmp eq i32 %12, 0
  store i1 %13, i1* %7, align 1
  %14 = icmp slt i32 %9, 10
  store i1 %14, i1* %6, align 1
  br label %.outer

.outer:                                           ; preds = %19, %4
  %.ph = phi i32* [ %22, %19 ], [ undef, %4 ]
  %.0.ph = phi i32 [ %31, %19 ], [ -1633296986, %4 ]
  br label %.outer3

.outer3:                                          ; preds = %.outer3.backedge, %.outer
  %.0.ph4 = phi i32 [ %.0.ph, %.outer ], [ %.0.ph4.be, %.outer3.backedge ]
  br label %15

15:                                               ; preds = %.outer3, %15
  switch i32 %.0.ph4, label %15 [
    i32 -1633296986, label %16
    i32 603329889, label %19
    i32 -1101327497, label %32
    i32 836615671, label %33
  ]

16:                                               ; preds = %15
  %.0..0..0. = load volatile i1, i1* %7, align 1
  %.0..0..0.1 = load volatile i1, i1* %6, align 1
  %17 = or i1 %.0..0..0., %.0..0..0.1
  %18 = select i1 %17, i32 603329889, i32 836615671
  br label %.outer3.backedge

19:                                               ; preds = %15
  %20 = tail call i32* @_ZSt32__make_move_if_noexcept_iteratorIPiSt13move_iteratorIS0_EET0_T_(i32* %0)
  %21 = tail call i32* @_ZSt32__make_move_if_noexcept_iteratorIPiSt13move_iteratorIS0_EET0_T_(i32* %1)
  %22 = tail call i32* @_ZSt22__uninitialized_copy_aISt13move_iteratorIPiES1_iET0_T_S4_S3_RSaIT1_E(i32* %20, i32* %21, i32* %2, %"class.std::allocator"* nonnull dereferenceable(1) %3)
  %23 = load i32, i32* @x.86, align 4
  %24 = load i32, i32* @y.87, align 4
  %25 = add i32 %23, -1
  %26 = mul i32 %25, %23
  %27 = and i32 %26, 1
  %28 = icmp eq i32 %27, 0
  %29 = icmp slt i32 %24, 10
  %30 = or i1 %29, %28
  %31 = select i1 %30, i32 -1101327497, i32 836615671
  br label %.outer

32:                                               ; preds = %15
  store i32* %.ph, i32** %5, align 8
  %.0..0..0.2 = load volatile i32*, i32** %5, align 8
  ret i32* %.0..0..0.2

33:                                               ; preds = %15
  %34 = tail call i32* @_ZSt32__make_move_if_noexcept_iteratorIPiSt13move_iteratorIS0_EET0_T_(i32* %0)
  %35 = tail call i32* @_ZSt32__make_move_if_noexcept_iteratorIPiSt13move_iteratorIS0_EET0_T_(i32* %1)
  %36 = tail call i32* @_ZSt22__uninitialized_copy_aISt13move_iteratorIPiES1_iET0_T_S4_S3_RSaIT1_E(i32* %34, i32* %35, i32* %2, %"class.std::allocator"* nonnull dereferenceable(1) %3)
  br label %.outer3.backedge

.outer3.backedge:                                 ; preds = %33, %16
  %.0.ph4.be = phi i32 [ %18, %16 ], [ 603329889, %33 ]
  br label %.outer3
}

; Function Attrs: noinline uwtable
define linkonce_odr void @_ZNSt16allocator_traitsISaIiEE7destroyIiEEvRS0_PT_(%"class.std::allocator"* dereferenceable(1) %0, i32* %1) local_unnamed_addr #0 comdat align 2 {
  %3 = bitcast %"class.std::allocator"* %0 to %"class.__gnu_cxx::new_allocator"*
  tail call void @_ZN9__gnu_cxx13new_allocatorIiE7destroyIiEEvPT_(%"class.__gnu_cxx::new_allocator"* nonnull %3, i32* %1)
  ret void
}

declare void @__cxa_rethrow() local_unnamed_addr

declare void @__cxa_end_catch() local_unnamed_addr

; Function Attrs: noinline nounwind uwtable
define linkonce_odr i64 @_ZNKSt6vectorIiSaIiEE8max_sizeEv(%"class.std::vector"* %0) local_unnamed_addr #4 comdat align 2 {
  %2 = alloca i64, align 8
  %3 = alloca i1, align 1
  %4 = alloca i1, align 1
  %5 = load i32, i32* @x.90, align 4
  %6 = load i32, i32* @y.91, align 4
  %7 = add i32 %5, -1
  %8 = mul i32 %7, %5
  %9 = and i32 %8, 1
  %10 = icmp eq i32 %9, 0
  store i1 %10, i1* %4, align 1
  %11 = icmp slt i32 %6, 10
  store i1 %11, i1* %3, align 1
  %12 = getelementptr %"class.std::vector", %"class.std::vector"* %0, i64 0, i32 0
  br label %.outer

.outer:                                           ; preds = %17, %1
  %.ph = phi i64 [ %19, %17 ], [ undef, %1 ]
  %.0.ph = phi i32 [ %28, %17 ], [ -1179995057, %1 ]
  br label %.outer3

.outer3:                                          ; preds = %.outer3.backedge, %.outer
  %.0.ph4 = phi i32 [ %.0.ph, %.outer ], [ %.0.ph4.be, %.outer3.backedge ]
  br label %13

13:                                               ; preds = %.outer3, %13
  switch i32 %.0.ph4, label %13 [
    i32 -1179995057, label %14
    i32 1989986009, label %17
    i32 1438046160, label %29
    i32 1968403644, label %30
  ]

14:                                               ; preds = %13
  %.0..0..0. = load volatile i1, i1* %4, align 1
  %.0..0..0.1 = load volatile i1, i1* %3, align 1
  %15 = or i1 %.0..0..0., %.0..0..0.1
  %16 = select i1 %15, i32 1989986009, i32 1968403644
  br label %.outer3.backedge

17:                                               ; preds = %13
  %18 = tail call dereferenceable(1) %"class.std::allocator"* @_ZNKSt12_Vector_baseIiSaIiEE19_M_get_Tp_allocatorEv(%"struct.std::_Vector_base"* %12) #12
  %19 = tail call i64 @_ZNSt16allocator_traitsISaIiEE8max_sizeERKS0_(%"class.std::allocator"* nonnull dereferenceable(1) %18) #12
  %20 = load i32, i32* @x.90, align 4
  %21 = load i32, i32* @y.91, align 4
  %22 = add i32 %20, -1
  %23 = mul i32 %22, %20
  %24 = and i32 %23, 1
  %25 = icmp eq i32 %24, 0
  %26 = icmp slt i32 %21, 10
  %27 = or i1 %26, %25
  %28 = select i1 %27, i32 1438046160, i32 1968403644
  br label %.outer

29:                                               ; preds = %13
  store i64 %.ph, i64* %2, align 8
  %.0..0..0.2 = load volatile i64, i64* %2, align 8
  ret i64 %.0..0..0.2

30:                                               ; preds = %13
  %31 = tail call dereferenceable(1) %"class.std::allocator"* @_ZNKSt12_Vector_baseIiSaIiEE19_M_get_Tp_allocatorEv(%"struct.std::_Vector_base"* %12) #12
  %32 = tail call i64 @_ZNSt16allocator_traitsISaIiEE8max_sizeERKS0_(%"class.std::allocator"* nonnull dereferenceable(1) %31) #12
  br label %.outer3.backedge

.outer3.backedge:                                 ; preds = %30, %14
  %.0.ph4.be = phi i32 [ %16, %14 ], [ 1989986009, %30 ]
  br label %.outer3
}

; Function Attrs: noreturn
declare void @_ZSt20__throw_length_errorPKc(i8*) local_unnamed_addr #8

; Function Attrs: noinline nounwind uwtable
define linkonce_odr dereferenceable(8) i64* @_ZSt3maxImERKT_S2_S2_(i64* dereferenceable(8) %0, i64* dereferenceable(8) %1) local_unnamed_addr #4 comdat {
  %3 = alloca i64*, align 8
  %4 = alloca i64, align 8
  %5 = alloca i64, align 8
  %6 = load i64, i64* %0, align 8
  store i64 %6, i64* %5, align 8
  %7 = load i64, i64* %1, align 8
  store i64 %7, i64* %4, align 8
  %8 = load i32, i32* @x.92, align 4
  %9 = load i32, i32* @y.93, align 4
  %10 = add i32 %8, -1
  %11 = mul i32 %10, %8
  %12 = and i32 %11, 1
  %13 = icmp eq i32 %12, 0
  %14 = icmp slt i32 %9, 10
  %15 = or i1 %14, %13
  %16 = select i1 %15, i32 -462201992, i32 -826573882
  %17 = select i1 %15, i32 -1136976099, i32 -826573882
  br label %.outer

.outer:                                           ; preds = %18, %2
  %.09.ph = phi i64* [ undef, %2 ], [ %.09.ph14, %18 ]
  %.0.ph = phi i32 [ 1614574517, %2 ], [ %16, %18 ]
  br label %.outer13

.outer13:                                         ; preds = %.outer13.backedge, %.outer
  %.09.ph14 = phi i64* [ %.09.ph, %.outer ], [ %.09.ph14.be, %.outer13.backedge ]
  %.0.ph15 = phi i32 [ %.0.ph, %.outer ], [ 933821774, %.outer13.backedge ]
  br label %.outer16

.outer16:                                         ; preds = %.outer16.backedge, %.outer13
  %.0.ph17 = phi i32 [ %.0.ph15, %.outer13 ], [ %.0.ph17.be, %.outer16.backedge ]
  br label %18

18:                                               ; preds = %.outer16, %18
  switch i32 %.0.ph17, label %18 [
    i32 1614574517, label %19
    i32 -239060547, label %.outer13.backedge
    i32 299160732, label %22
    i32 933821774, label %.outer16.backedge
    i32 -1136976099, label %.outer
    i32 -462201992, label %23
    i32 -826573882, label %24
  ]

19:                                               ; preds = %18
  %.0..0..0.6 = load volatile i64, i64* %5, align 8
  %.0..0..0.7 = load volatile i64, i64* %4, align 8
  %20 = icmp ult i64 %.0..0..0.6, %.0..0..0.7
  %21 = select i1 %20, i32 -239060547, i32 299160732
  br label %.outer16.backedge

22:                                               ; preds = %18
  br label %.outer13.backedge

.outer13.backedge:                                ; preds = %18, %22
  %.09.ph14.be = phi i64* [ %0, %22 ], [ %1, %18 ]
  br label %.outer13

23:                                               ; preds = %18
  store i64* %.09.ph, i64** %3, align 8
  %.0..0..0.8 = load volatile i64*, i64** %3, align 8
  ret i64* %.0..0..0.8

24:                                               ; preds = %18
  br label %.outer16.backedge

.outer16.backedge:                                ; preds = %18, %24, %19
  %.0.ph17.be = phi i32 [ %21, %19 ], [ -1136976099, %24 ], [ %17, %18 ]
  br label %.outer16
}

; Function Attrs: noinline nounwind uwtable
define linkonce_odr i64 @_ZNSt16allocator_traitsISaIiEE8max_sizeERKS0_(%"class.std::allocator"* dereferenceable(1) %0) local_unnamed_addr #4 comdat align 2 {
  %2 = bitcast %"class.std::allocator"* %0 to %"class.__gnu_cxx::new_allocator"*
  %3 = tail call i64 @_ZNK9__gnu_cxx13new_allocatorIiE8max_sizeEv(%"class.__gnu_cxx::new_allocator"* nonnull %2) #12
  ret i64 %3
}

; Function Attrs: noinline nounwind uwtable
define linkonce_odr dereferenceable(1) %"class.std::allocator"* @_ZNKSt12_Vector_baseIiSaIiEE19_M_get_Tp_allocatorEv(%"struct.std::_Vector_base"* %0) local_unnamed_addr #4 comdat align 2 {
  %2 = alloca %"class.std::allocator"*, align 8
  %3 = alloca i1, align 1
  %4 = alloca i1, align 1
  %5 = load i32, i32* @x.96, align 4
  %6 = load i32, i32* @y.97, align 4
  %7 = add i32 %5, -1
  %8 = mul i32 %7, %5
  %9 = and i32 %8, 1
  %10 = icmp eq i32 %9, 0
  store i1 %10, i1* %4, align 1
  %11 = icmp slt i32 %6, 10
  store i1 %11, i1* %3, align 1
  %12 = or i1 %11, %10
  %13 = select i1 %12, i32 -466521546, i32 -1346111958
  br label %.outer

.outer:                                           ; preds = %.outer.backedge, %1
  %.0.ph = phi i32 [ 671705711, %1 ], [ %.0.ph.be, %.outer.backedge ]
  br label %14

14:                                               ; preds = %.outer, %14
  switch i32 %.0.ph, label %14 [
    i32 671705711, label %15
    i32 -1737705686, label %.outer.backedge
    i32 -466521546, label %18
    i32 -1346111958, label %20
  ]

15:                                               ; preds = %14
  %.0..0..0. = load volatile i1, i1* %4, align 1
  %.0..0..0.1 = load volatile i1, i1* %3, align 1
  %16 = or i1 %.0..0..0., %.0..0..0.1
  %17 = select i1 %16, i32 -1737705686, i32 -1346111958
  br label %.outer.backedge

18:                                               ; preds = %14
  %19 = bitcast %"class.std::allocator"** %2 to %"struct.std::_Vector_base"**
  store %"struct.std::_Vector_base"* %0, %"struct.std::_Vector_base"** %19, align 8
  %.0..0..0.2 = load volatile %"class.std::allocator"*, %"class.std::allocator"** %2, align 8
  ret %"class.std::allocator"* %.0..0..0.2

20:                                               ; preds = %14
  br label %.outer.backedge

.outer.backedge:                                  ; preds = %14, %20, %15
  %.0.ph.be = phi i32 [ %17, %15 ], [ -1737705686, %20 ], [ %13, %14 ]
  br label %.outer
}

; Function Attrs: noinline nounwind uwtable
define linkonce_odr i64 @_ZNK9__gnu_cxx13new_allocatorIiE8max_sizeEv(%"class.__gnu_cxx::new_allocator"* %0) local_unnamed_addr #4 comdat align 2 {
  %2 = alloca i1, align 1
  %3 = alloca i1, align 1
  %4 = load i32, i32* @x.98, align 4
  %5 = load i32, i32* @y.99, align 4
  %6 = add i32 %4, -1
  %7 = mul i32 %6, %4
  %8 = and i32 %7, 1
  %9 = icmp eq i32 %8, 0
  store i1 %9, i1* %3, align 1
  %10 = icmp slt i32 %5, 10
  store i1 %10, i1* %2, align 1
  %11 = or i1 %10, %9
  %12 = select i1 %11, i32 -1984504125, i32 1175710234
  br label %.outer

.outer:                                           ; preds = %.outer.backedge, %1
  %.0.ph = phi i32 [ -558190475, %1 ], [ %.0.ph.be, %.outer.backedge ]
  br label %13

13:                                               ; preds = %.outer, %13
  switch i32 %.0.ph, label %13 [
    i32 -558190475, label %14
    i32 -52787336, label %.outer.backedge
    i32 -1984504125, label %17
    i32 1175710234, label %18
  ]

14:                                               ; preds = %13
  %.0..0..0. = load volatile i1, i1* %3, align 1
  %.0..0..0.1 = load volatile i1, i1* %2, align 1
  %15 = or i1 %.0..0..0., %.0..0..0.1
  %16 = select i1 %15, i32 -52787336, i32 1175710234
  br label %.outer.backedge

17:                                               ; preds = %13
  ret i64 4611686018427387903

18:                                               ; preds = %13
  br label %.outer.backedge

.outer.backedge:                                  ; preds = %13, %18, %14
  %.0.ph.be = phi i32 [ %16, %14 ], [ -52787336, %18 ], [ %12, %13 ]
  br label %.outer
}

; Function Attrs: noinline uwtable
define linkonce_odr i32* @_ZNSt16allocator_traitsISaIiEE8allocateERS0_m(%"class.std::allocator"* dereferenceable(1) %0, i64 %1) local_unnamed_addr #0 comdat align 2 {
  %3 = bitcast %"class.std::allocator"* %0 to %"class.__gnu_cxx::new_allocator"*
  %4 = tail call i32* @_ZN9__gnu_cxx13new_allocatorIiE8allocateEmPKv(%"class.__gnu_cxx::new_allocator"* nonnull %3, i64 %1, i8* null)
  ret i32* %4
}

; Function Attrs: noinline uwtable
define linkonce_odr i32* @_ZN9__gnu_cxx13new_allocatorIiE8allocateEmPKv(%"class.__gnu_cxx::new_allocator"* %0, i64 %1, i8* %2) local_unnamed_addr #0 comdat align 2 {
  %4 = alloca i32*, align 8
  %5 = alloca i64, align 8
  %6 = alloca i64, align 8
  store i64 %1, i64* %6, align 8
  %7 = tail call i64 @_ZNK9__gnu_cxx13new_allocatorIiE8max_sizeEv(%"class.__gnu_cxx::new_allocator"* %0) #12
  store i64 %7, i64* %5, align 8
  %8 = shl i64 %1, 2
  br label %.outer

.outer:                                           ; preds = %24, %3
  %.ph = phi i8* [ %25, %24 ], [ undef, %3 ]
  %.0.ph = phi i32 [ %34, %24 ], [ -1630251178, %3 ]
  br label %.outer11

.outer11:                                         ; preds = %.outer11.backedge, %.outer
  %.0.ph12 = phi i32 [ %.0.ph, %.outer ], [ %.0.ph12.be, %.outer11.backedge ]
  br label %9

9:                                                ; preds = %.outer11, %9
  switch i32 %.0.ph12, label %9 [
    i32 -1630251178, label %10
    i32 -1003416562, label %13
    i32 -630358405, label %14
    i32 -2062644334, label %24
    i32 -1156665751, label %35
    i32 -679742342, label %37
  ]

10:                                               ; preds = %9
  %.0..0..0.4 = load volatile i64, i64* %6, align 8
  %.0..0..0.5 = load volatile i64, i64* %5, align 8
  %11 = icmp ugt i64 %.0..0..0.4, %.0..0..0.5
  %12 = select i1 %11, i32 -1003416562, i32 -630358405
  br label %.outer11.backedge

13:                                               ; preds = %9
  tail call void @_ZSt17__throw_bad_allocv() #14
  unreachable

14:                                               ; preds = %9
  %15 = load i32, i32* @x.102, align 4
  %16 = load i32, i32* @y.103, align 4
  %17 = add i32 %15, -1
  %18 = mul i32 %17, %15
  %19 = and i32 %18, 1
  %20 = icmp eq i32 %19, 0
  %21 = icmp slt i32 %16, 10
  %22 = or i1 %21, %20
  %23 = select i1 %22, i32 -2062644334, i32 -679742342
  br label %.outer11.backedge

24:                                               ; preds = %9
  %25 = tail call i8* @_Znwm(i64 %8)
  %26 = load i32, i32* @x.102, align 4
  %27 = load i32, i32* @y.103, align 4
  %28 = add i32 %26, -1
  %29 = mul i32 %28, %26
  %30 = and i32 %29, 1
  %31 = icmp eq i32 %30, 0
  %32 = icmp slt i32 %27, 10
  %33 = or i1 %32, %31
  %34 = select i1 %33, i32 -1156665751, i32 -679742342
  br label %.outer

35:                                               ; preds = %9
  %36 = bitcast i32** %4 to i8**
  store i8* %.ph, i8** %36, align 8
  %.0..0..0.6 = load volatile i32*, i32** %4, align 8
  ret i32* %.0..0..0.6

37:                                               ; preds = %9
  %38 = tail call i8* @_Znwm(i64 %8)
  br label %.outer11.backedge

.outer11.backedge:                                ; preds = %37, %14, %10
  %.0.ph12.be = phi i32 [ %12, %10 ], [ %23, %14 ], [ -2062644334, %37 ]
  br label %.outer11
}

; Function Attrs: noreturn
declare void @_ZSt17__throw_bad_allocv() local_unnamed_addr #8

; Function Attrs: nobuiltin
declare noalias i8* @_Znwm(i64) local_unnamed_addr #9

; Function Attrs: noinline uwtable
define linkonce_odr i32* @_ZSt22__uninitialized_copy_aISt13move_iteratorIPiES1_iET0_T_S4_S3_RSaIT1_E(i32* %0, i32* %1, i32* %2, %"class.std::allocator"* dereferenceable(1) %3) local_unnamed_addr #0 comdat {
  %5 = tail call i32* @_ZSt18uninitialized_copyISt13move_iteratorIPiES1_ET0_T_S4_S3_(i32* %0, i32* %1, i32* %2)
  ret i32* %5
}

; Function Attrs: noinline uwtable
define linkonce_odr i32* @_ZSt32__make_move_if_noexcept_iteratorIPiSt13move_iteratorIS0_EET0_T_(i32* %0) local_unnamed_addr #0 comdat {
  %2 = alloca %"class.std::move_iterator", align 8
  call void @_ZNSt13move_iteratorIPiEC2ES0_(%"class.std::move_iterator"* nonnull %2, i32* %0)
  %3 = getelementptr inbounds %"class.std::move_iterator", %"class.std::move_iterator"* %2, i64 0, i32 0
  %4 = load i32*, i32** %3, align 8
  ret i32* %4
}

; Function Attrs: noinline uwtable
define linkonce_odr i32* @_ZSt18uninitialized_copyISt13move_iteratorIPiES1_ET0_T_S4_S3_(i32* %0, i32* %1, i32* %2) local_unnamed_addr #0 comdat {
  %4 = tail call i32* @_ZNSt20__uninitialized_copyILb1EE13__uninit_copyISt13move_iteratorIPiES3_EET0_T_S6_S5_(i32* %0, i32* %1, i32* %2)
  ret i32* %4
}

; Function Attrs: noinline uwtable
define linkonce_odr i32* @_ZNSt20__uninitialized_copyILb1EE13__uninit_copyISt13move_iteratorIPiES3_EET0_T_S6_S5_(i32* %0, i32* %1, i32* %2) local_unnamed_addr #0 comdat align 2 {
  %4 = tail call i32* @_ZSt4copyISt13move_iteratorIPiES1_ET0_T_S4_S3_(i32* %0, i32* %1, i32* %2)
  ret i32* %4
}

; Function Attrs: noinline uwtable
define linkonce_odr i32* @_ZSt4copyISt13move_iteratorIPiES1_ET0_T_S4_S3_(i32* %0, i32* %1, i32* %2) local_unnamed_addr #0 comdat {
  %4 = alloca i32*, align 8
  %5 = alloca i1, align 1
  %6 = alloca i1, align 1
  %7 = load i32, i32* @x.112, align 4
  %8 = load i32, i32* @y.113, align 4
  %9 = add i32 %7, -1
  %10 = mul i32 %9, %7
  %11 = and i32 %10, 1
  %12 = icmp eq i32 %11, 0
  store i1 %12, i1* %6, align 1
  %13 = icmp slt i32 %8, 10
  store i1 %13, i1* %5, align 1
  br label %.outer

.outer:                                           ; preds = %18, %3
  %.ph = phi i32* [ %21, %18 ], [ undef, %3 ]
  %.0.ph = phi i32 [ %30, %18 ], [ 507014611, %3 ]
  br label %.outer7

.outer7:                                          ; preds = %.outer7.backedge, %.outer
  %.0.ph8 = phi i32 [ %.0.ph, %.outer ], [ %.0.ph8.be, %.outer7.backedge ]
  br label %14

14:                                               ; preds = %.outer7, %14
  switch i32 %.0.ph8, label %14 [
    i32 507014611, label %15
    i32 901237451, label %18
    i32 889242292, label %31
    i32 1642004603, label %32
  ]

15:                                               ; preds = %14
  %.0..0..0. = load volatile i1, i1* %6, align 1
  %.0..0..0.1 = load volatile i1, i1* %5, align 1
  %16 = or i1 %.0..0..0., %.0..0..0.1
  %17 = select i1 %16, i32 901237451, i32 1642004603
  br label %.outer7.backedge

18:                                               ; preds = %14
  %19 = tail call i32* @_ZSt12__miter_baseISt13move_iteratorIPiEENSt11_Miter_baseIT_E13iterator_typeES4_(i32* %0)
  %20 = tail call i32* @_ZSt12__miter_baseISt13move_iteratorIPiEENSt11_Miter_baseIT_E13iterator_typeES4_(i32* %1)
  %21 = tail call i32* @_ZSt14__copy_move_a2ILb1EPiS0_ET1_T0_S2_S1_(i32* %19, i32* %20, i32* %2)
  %22 = load i32, i32* @x.112, align 4
  %23 = load i32, i32* @y.113, align 4
  %24 = add i32 %22, -1
  %25 = mul i32 %24, %22
  %26 = and i32 %25, 1
  %27 = icmp eq i32 %26, 0
  %28 = icmp slt i32 %23, 10
  %29 = or i1 %28, %27
  %30 = select i1 %29, i32 889242292, i32 1642004603
  br label %.outer

31:                                               ; preds = %14
  store i32* %.ph, i32** %4, align 8
  %.0..0..0.2 = load volatile i32*, i32** %4, align 8
  ret i32* %.0..0..0.2

32:                                               ; preds = %14
  %33 = tail call i32* @_ZSt12__miter_baseISt13move_iteratorIPiEENSt11_Miter_baseIT_E13iterator_typeES4_(i32* %0)
  %34 = tail call i32* @_ZSt12__miter_baseISt13move_iteratorIPiEENSt11_Miter_baseIT_E13iterator_typeES4_(i32* %1)
  %35 = tail call i32* @_ZSt14__copy_move_a2ILb1EPiS0_ET1_T0_S2_S1_(i32* %33, i32* %34, i32* %2)
  br label %.outer7.backedge

.outer7.backedge:                                 ; preds = %32, %15
  %.0.ph8.be = phi i32 [ %17, %15 ], [ 901237451, %32 ]
  br label %.outer7
}

; Function Attrs: noinline uwtable
define linkonce_odr i32* @_ZSt14__copy_move_a2ILb1EPiS0_ET1_T0_S2_S1_(i32* %0, i32* %1, i32* %2) local_unnamed_addr #0 comdat {
  %4 = tail call i32* @_ZSt12__niter_baseIPiENSt11_Niter_baseIT_E13iterator_typeES2_(i32* %0)
  %5 = tail call i32* @_ZSt12__niter_baseIPiENSt11_Niter_baseIT_E13iterator_typeES2_(i32* %1)
  %6 = tail call i32* @_ZSt12__niter_baseIPiENSt11_Niter_baseIT_E13iterator_typeES2_(i32* %2)
  %7 = tail call i32* @_ZSt13__copy_move_aILb1EPiS0_ET1_T0_S2_S1_(i32* %4, i32* %5, i32* %6)
  ret i32* %7
}

; Function Attrs: noinline uwtable
define linkonce_odr i32* @_ZSt12__miter_baseISt13move_iteratorIPiEENSt11_Miter_baseIT_E13iterator_typeES4_(i32* %0) local_unnamed_addr #0 comdat {
  %2 = alloca i32*, align 8
  %3 = alloca i1, align 1
  %4 = alloca i1, align 1
  %5 = load i32, i32* @x.116, align 4
  %6 = load i32, i32* @y.117, align 4
  %7 = add i32 %5, -1
  %8 = mul i32 %7, %5
  %9 = and i32 %8, 1
  %10 = icmp eq i32 %9, 0
  store i1 %10, i1* %4, align 1
  %11 = icmp slt i32 %6, 10
  store i1 %11, i1* %3, align 1
  br label %.outer

.outer:                                           ; preds = %16, %1
  %.ph = phi i32* [ %17, %16 ], [ undef, %1 ]
  %.0.ph = phi i32 [ %26, %16 ], [ -57072657, %1 ]
  br label %.outer5

.outer5:                                          ; preds = %.outer5.backedge, %.outer
  %.0.ph6 = phi i32 [ %.0.ph, %.outer ], [ %.0.ph6.be, %.outer5.backedge ]
  br label %12

12:                                               ; preds = %.outer5, %12
  switch i32 %.0.ph6, label %12 [
    i32 -57072657, label %13
    i32 -1070162261, label %16
    i32 96913271, label %27
    i32 158351411, label %28
  ]

13:                                               ; preds = %12
  %.0..0..0. = load volatile i1, i1* %4, align 1
  %.0..0..0.1 = load volatile i1, i1* %3, align 1
  %14 = or i1 %.0..0..0., %.0..0..0.1
  %15 = select i1 %14, i32 -1070162261, i32 158351411
  br label %.outer5.backedge

16:                                               ; preds = %12
  %17 = tail call i32* @_ZNSt10_Iter_baseISt13move_iteratorIPiELb1EE7_S_baseES2_(i32* %0)
  %18 = load i32, i32* @x.116, align 4
  %19 = load i32, i32* @y.117, align 4
  %20 = add i32 %18, -1
  %21 = mul i32 %20, %18
  %22 = and i32 %21, 1
  %23 = icmp eq i32 %22, 0
  %24 = icmp slt i32 %19, 10
  %25 = or i1 %24, %23
  %26 = select i1 %25, i32 96913271, i32 158351411
  br label %.outer

27:                                               ; preds = %12
  store i32* %.ph, i32** %2, align 8
  %.0..0..0.2 = load volatile i32*, i32** %2, align 8
  ret i32* %.0..0..0.2

28:                                               ; preds = %12
  %29 = tail call i32* @_ZNSt10_Iter_baseISt13move_iteratorIPiELb1EE7_S_baseES2_(i32* %0)
  br label %.outer5.backedge

.outer5.backedge:                                 ; preds = %28, %13
  %.0.ph6.be = phi i32 [ %15, %13 ], [ -1070162261, %28 ]
  br label %.outer5
}

; Function Attrs: noinline uwtable
define linkonce_odr i32* @_ZSt13__copy_move_aILb1EPiS0_ET1_T0_S2_S1_(i32* %0, i32* %1, i32* %2) local_unnamed_addr #0 comdat {
  %4 = alloca i32*, align 8
  %5 = alloca i1, align 1
  %6 = alloca i1, align 1
  %7 = load i32, i32* @x.118, align 4
  %8 = load i32, i32* @y.119, align 4
  %9 = add i32 %7, -1
  %10 = mul i32 %9, %7
  %11 = and i32 %10, 1
  %12 = icmp eq i32 %11, 0
  store i1 %12, i1* %6, align 1
  %13 = icmp slt i32 %8, 10
  store i1 %13, i1* %5, align 1
  br label %.outer

.outer:                                           ; preds = %18, %3
  %.ph = phi i32* [ %19, %18 ], [ undef, %3 ]
  %.0.ph = phi i32 [ %28, %18 ], [ 2070900634, %3 ]
  br label %.outer3

.outer3:                                          ; preds = %.outer3.backedge, %.outer
  %.0.ph4 = phi i32 [ %.0.ph, %.outer ], [ %.0.ph4.be, %.outer3.backedge ]
  br label %14

14:                                               ; preds = %.outer3, %14
  switch i32 %.0.ph4, label %14 [
    i32 2070900634, label %15
    i32 -369190190, label %18
    i32 951051781, label %29
    i32 2094301254, label %30
  ]

15:                                               ; preds = %14
  %.0..0..0. = load volatile i1, i1* %6, align 1
  %.0..0..0.1 = load volatile i1, i1* %5, align 1
  %16 = or i1 %.0..0..0., %.0..0..0.1
  %17 = select i1 %16, i32 -369190190, i32 2094301254
  br label %.outer3.backedge

18:                                               ; preds = %14
  %19 = tail call i32* @_ZNSt11__copy_moveILb1ELb1ESt26random_access_iterator_tagE8__copy_mIiEEPT_PKS3_S6_S4_(i32* %0, i32* %1, i32* %2)
  %20 = load i32, i32* @x.118, align 4
  %21 = load i32, i32* @y.119, align 4
  %22 = add i32 %20, -1
  %23 = mul i32 %22, %20
  %24 = and i32 %23, 1
  %25 = icmp eq i32 %24, 0
  %26 = icmp slt i32 %21, 10
  %27 = or i1 %26, %25
  %28 = select i1 %27, i32 951051781, i32 2094301254
  br label %.outer

29:                                               ; preds = %14
  store i32* %.ph, i32** %4, align 8
  %.0..0..0.2 = load volatile i32*, i32** %4, align 8
  ret i32* %.0..0..0.2

30:                                               ; preds = %14
  %31 = tail call i32* @_ZNSt11__copy_moveILb1ELb1ESt26random_access_iterator_tagE8__copy_mIiEEPT_PKS3_S6_S4_(i32* %0, i32* %1, i32* %2)
  br label %.outer3.backedge

.outer3.backedge:                                 ; preds = %30, %15
  %.0.ph4.be = phi i32 [ %17, %15 ], [ -369190190, %30 ]
  br label %.outer3
}

; Function Attrs: noinline uwtable
define linkonce_odr i32* @_ZSt12__niter_baseIPiENSt11_Niter_baseIT_E13iterator_typeES2_(i32* %0) local_unnamed_addr #0 comdat {
  %2 = alloca i32*, align 8
  %3 = alloca i1, align 1
  %4 = alloca i1, align 1
  %5 = load i32, i32* @x.120, align 4
  %6 = load i32, i32* @y.121, align 4
  %7 = add i32 %5, -1
  %8 = mul i32 %7, %5
  %9 = and i32 %8, 1
  %10 = icmp eq i32 %9, 0
  store i1 %10, i1* %4, align 1
  %11 = icmp slt i32 %6, 10
  store i1 %11, i1* %3, align 1
  br label %.outer

.outer:                                           ; preds = %16, %1
  %.ph = phi i32* [ %17, %16 ], [ undef, %1 ]
  %.0.ph = phi i32 [ %26, %16 ], [ -1229820267, %1 ]
  br label %.outer3

.outer3:                                          ; preds = %.outer3.backedge, %.outer
  %.0.ph4 = phi i32 [ %.0.ph, %.outer ], [ %.0.ph4.be, %.outer3.backedge ]
  br label %12

12:                                               ; preds = %.outer3, %12
  switch i32 %.0.ph4, label %12 [
    i32 -1229820267, label %13
    i32 -458709701, label %16
    i32 2035692915, label %27
    i32 1971177656, label %28
  ]

13:                                               ; preds = %12
  %.0..0..0. = load volatile i1, i1* %4, align 1
  %.0..0..0.1 = load volatile i1, i1* %3, align 1
  %14 = or i1 %.0..0..0., %.0..0..0.1
  %15 = select i1 %14, i32 -458709701, i32 1971177656
  br label %.outer3.backedge

16:                                               ; preds = %12
  %17 = tail call i32* @_ZNSt10_Iter_baseIPiLb0EE7_S_baseES0_(i32* %0)
  %18 = load i32, i32* @x.120, align 4
  %19 = load i32, i32* @y.121, align 4
  %20 = add i32 %18, -1
  %21 = mul i32 %20, %18
  %22 = and i32 %21, 1
  %23 = icmp eq i32 %22, 0
  %24 = icmp slt i32 %19, 10
  %25 = or i1 %24, %23
  %26 = select i1 %25, i32 2035692915, i32 1971177656
  br label %.outer

27:                                               ; preds = %12
  store i32* %.ph, i32** %2, align 8
  %.0..0..0.2 = load volatile i32*, i32** %2, align 8
  ret i32* %.0..0..0.2

28:                                               ; preds = %12
  %29 = tail call i32* @_ZNSt10_Iter_baseIPiLb0EE7_S_baseES0_(i32* %0)
  br label %.outer3.backedge

.outer3.backedge:                                 ; preds = %28, %13
  %.0.ph4.be = phi i32 [ %15, %13 ], [ -458709701, %28 ]
  br label %.outer3
}

; Function Attrs: noinline nounwind uwtable
define linkonce_odr i32* @_ZNSt11__copy_moveILb1ELb1ESt26random_access_iterator_tagE8__copy_mIiEEPT_PKS3_S6_S4_(i32* %0, i32* %1, i32* %2) local_unnamed_addr #4 comdat align 2 {
  %4 = alloca i32*, align 8
  %5 = alloca i64, align 8
  %6 = ptrtoint i32* %1 to i64
  %7 = ptrtoint i32* %0 to i64
  %8 = sub i64 %6, %7
  %9 = ashr exact i64 %8, 2
  store i64 %9, i64* %5, align 8
  %10 = bitcast i32* %2 to i8*
  %11 = bitcast i32* %0 to i8*
  br label %.outer

.outer:                                           ; preds = %.outer.backedge, %3
  %.0.ph = phi i32 [ -700820013, %3 ], [ %.0.ph.be, %.outer.backedge ]
  br label %12

12:                                               ; preds = %.outer, %12
  switch i32 %.0.ph, label %12 [
    i32 -700820013, label %13
    i32 19931151, label %15
    i32 1434007380, label %16
    i32 -2059271656, label %26
    i32 279796004, label %36
    i32 1350417571, label %.outer.backedge
  ]

13:                                               ; preds = %12
  %.0..0..0.10 = load volatile i64, i64* %5, align 8
  %.not = icmp eq i64 %.0..0..0.10, 0
  %14 = select i1 %.not, i32 1434007380, i32 19931151
  br label %.outer.backedge

15:                                               ; preds = %12
  tail call void @llvm.memmove.p0i8.p0i8.i64(i8* align 4 %10, i8* align 4 %11, i64 %8, i1 false)
  br label %.outer.backedge

16:                                               ; preds = %12
  %17 = load i32, i32* @x.122, align 4
  %18 = load i32, i32* @y.123, align 4
  %19 = add i32 %17, -1
  %20 = mul i32 %19, %17
  %21 = and i32 %20, 1
  %22 = icmp eq i32 %21, 0
  %23 = icmp slt i32 %18, 10
  %24 = or i1 %23, %22
  %25 = select i1 %24, i32 -2059271656, i32 1350417571
  br label %.outer.backedge

26:                                               ; preds = %12
  %27 = load i32, i32* @x.122, align 4
  %28 = load i32, i32* @y.123, align 4
  %29 = add i32 %27, -1
  %30 = mul i32 %29, %27
  %31 = and i32 %30, 1
  %32 = icmp eq i32 %31, 0
  %33 = icmp slt i32 %28, 10
  %34 = or i1 %33, %32
  %35 = select i1 %34, i32 279796004, i32 1350417571
  br label %.outer.backedge

36:                                               ; preds = %12
  %37 = getelementptr inbounds i32, i32* %2, i64 %9
  store i32* %37, i32** %4, align 8
  %.0..0..0.11 = load volatile i32*, i32** %4, align 8
  ret i32* %.0..0..0.11

.outer.backedge:                                  ; preds = %12, %26, %16, %15, %13
  %.0.ph.be = phi i32 [ %14, %13 ], [ 1434007380, %15 ], [ %25, %16 ], [ %35, %26 ], [ -2059271656, %12 ]
  br label %.outer
}

; Function Attrs: noinline nounwind uwtable
define linkonce_odr i32* @_ZNSt10_Iter_baseIPiLb0EE7_S_baseES0_(i32* %0) local_unnamed_addr #4 comdat align 2 {
  ret i32* %0
}

; Function Attrs: noinline uwtable
define linkonce_odr i32* @_ZNSt10_Iter_baseISt13move_iteratorIPiELb1EE7_S_baseES2_(i32* %0) local_unnamed_addr #0 comdat align 2 {
  %2 = alloca %"class.std::move_iterator", align 8
  %3 = getelementptr inbounds %"class.std::move_iterator", %"class.std::move_iterator"* %2, i64 0, i32 0
  store i32* %0, i32** %3, align 8
  %4 = call i32* @_ZNKSt13move_iteratorIPiE4baseEv(%"class.std::move_iterator"* nonnull %2)
  ret i32* %4
}

; Function Attrs: noinline nounwind uwtable
define linkonce_odr i32* @_ZNKSt13move_iteratorIPiE4baseEv(%"class.std::move_iterator"* %0) local_unnamed_addr #4 comdat align 2 {
  %2 = alloca i32*, align 8
  %3 = alloca i1, align 1
  %4 = alloca i1, align 1
  %5 = load i32, i32* @x.128, align 4
  %6 = load i32, i32* @y.129, align 4
  %7 = add i32 %5, -1
  %8 = mul i32 %7, %5
  %9 = and i32 %8, 1
  %10 = icmp eq i32 %9, 0
  store i1 %10, i1* %4, align 1
  %11 = icmp slt i32 %6, 10
  store i1 %11, i1* %3, align 1
  %12 = getelementptr inbounds %"class.std::move_iterator", %"class.std::move_iterator"* %0, i64 0, i32 0
  %13 = or i1 %11, %10
  %14 = select i1 %13, i32 615541597, i32 -854027434
  br label %.outer

.outer:                                           ; preds = %19, %1
  %.ph = phi i32* [ %20, %19 ], [ undef, %1 ]
  %.0.ph = phi i32 [ %14, %19 ], [ -1589205600, %1 ]
  br label %.outer3

.outer3:                                          ; preds = %.outer3.backedge, %.outer
  %.0.ph4 = phi i32 [ %.0.ph, %.outer ], [ %.0.ph4.be, %.outer3.backedge ]
  br label %15

15:                                               ; preds = %.outer3, %15
  switch i32 %.0.ph4, label %15 [
    i32 -1589205600, label %16
    i32 640777410, label %19
    i32 615541597, label %21
    i32 -854027434, label %.outer3.backedge
  ]

16:                                               ; preds = %15
  %.0..0..0. = load volatile i1, i1* %4, align 1
  %.0..0..0.1 = load volatile i1, i1* %3, align 1
  %17 = or i1 %.0..0..0., %.0..0..0.1
  %18 = select i1 %17, i32 640777410, i32 -854027434
  br label %.outer3.backedge

19:                                               ; preds = %15
  %20 = load i32*, i32** %12, align 8
  br label %.outer

21:                                               ; preds = %15
  store i32* %.ph, i32** %2, align 8
  %.0..0..0.2 = load volatile i32*, i32** %2, align 8
  ret i32* %.0..0..0.2

.outer3.backedge:                                 ; preds = %15, %16
  %.0.ph4.be = phi i32 [ %18, %16 ], [ 640777410, %15 ]
  br label %.outer3
}

; Function Attrs: noinline nounwind uwtable
define linkonce_odr void @_ZNSt13move_iteratorIPiEC2ES0_(%"class.std::move_iterator"* %0, i32* %1) unnamed_addr #4 comdat align 2 {
  %3 = getelementptr inbounds %"class.std::move_iterator", %"class.std::move_iterator"* %0, i64 0, i32 0
  store i32* %1, i32** %3, align 8
  ret void
}

; Function Attrs: noinline nounwind uwtable
define linkonce_odr void @_ZN9__gnu_cxx13new_allocatorIiE7destroyIiEEvPT_(%"class.__gnu_cxx::new_allocator"* %0, i32* %1) local_unnamed_addr #4 comdat align 2 {
  ret void
}

; Function Attrs: noinline uwtable
define internal void @_GLOBAL__sub_I_s445884193.cpp() #0 section ".text.startup" {
  tail call fastcc void @__cxx_global_var_init()
  tail call fastcc void @__cxx_global_var_init.1()
  ret void
}

; Function Attrs: argmemonly mustprogress nofree nounwind willreturn
declare void @llvm.memmove.p0i8.p0i8.i64(i8* nocapture writeonly, i8* nocapture readonly, i64, i1 immarg) #10

; Function Attrs: argmemonly nofree nounwind willreturn writeonly
declare void @llvm.memset.p0i8.i64(i8* nocapture writeonly, i8, i64, i1 immarg) #11

attributes #0 = { noinline uwtable "correctly-rounded-divide-sqrt-fp-math"="false" "disable-tail-calls"="false" "less-precise-fpmad"="false" "no-frame-pointer-elim"="true" "no-frame-pointer-elim-non-leaf" "no-infs-fp-math"="false" "no-jump-tables"="false" "no-nans-fp-math"="false" "no-signed-zeros-fp-math"="false" "no-trapping-math"="false" "stack-protector-buffer-size"="8" "target-cpu"="x86-64" "target-features"="+fxsr,+mmx,+sse,+sse2,+x87" "unsafe-fp-math"="false" "use-soft-float"="false" }
attributes #1 = { "correctly-rounded-divide-sqrt-fp-math"="false" "disable-tail-calls"="false" "less-precise-fpmad"="false" "no-frame-pointer-elim"="true" "no-frame-pointer-elim-non-leaf" "no-infs-fp-math"="false" "no-nans-fp-math"="false" "no-signed-zeros-fp-math"="false" "no-trapping-math"="false" "stack-protector-buffer-size"="8" "target-cpu"="x86-64" "target-features"="+fxsr,+mmx,+sse,+sse2,+x87" "unsafe-fp-math"="false" "use-soft-float"="false" }
attributes #2 = { nounwind "correctly-rounded-divide-sqrt-fp-math"="false" "disable-tail-calls"="false" "less-precise-fpmad"="false" "no-frame-pointer-elim"="true" "no-frame-pointer-elim-non-leaf" "no-infs-fp-math"="false" "no-nans-fp-math"="false" "no-signed-zeros-fp-math"="false" "no-trapping-math"="false" "stack-protector-buffer-size"="8" "target-cpu"="x86-64" "target-features"="+fxsr,+mmx,+sse,+sse2,+x87" "unsafe-fp-math"="false" "use-soft-float"="false" }
attributes #3 = { nofree nounwind }
attributes #4 = { noinline nounwind uwtable "correctly-rounded-divide-sqrt-fp-math"="false" "disable-tail-calls"="false" "less-precise-fpmad"="false" "no-frame-pointer-elim"="true" "no-frame-pointer-elim-non-leaf" "no-infs-fp-math"="false" "no-jump-tables"="false" "no-nans-fp-math"="false" "no-signed-zeros-fp-math"="false" "no-trapping-math"="false" "stack-protector-buffer-size"="8" "target-cpu"="x86-64" "target-features"="+fxsr,+mmx,+sse,+sse2,+x87" "unsafe-fp-math"="false" "use-soft-float"="false" }
attributes #5 = { noinline norecurse uwtable "correctly-rounded-divide-sqrt-fp-math"="false" "disable-tail-calls"="false" "less-precise-fpmad"="false" "no-frame-pointer-elim"="true" "no-frame-pointer-elim-non-leaf" "no-infs-fp-math"="false" "no-jump-tables"="false" "no-nans-fp-math"="false" "no-signed-zeros-fp-math"="false" "no-trapping-math"="false" "stack-protector-buffer-size"="8" "target-cpu"="x86-64" "target-features"="+fxsr,+mmx,+sse,+sse2,+x87" "unsafe-fp-math"="false" "use-soft-float"="false" }
attributes #6 = { noinline noreturn nounwind }
attributes #7 = { nobuiltin nounwind "correctly-rounded-divide-sqrt-fp-math"="false" "disable-tail-calls"="false" "less-precise-fpmad"="false" "no-frame-pointer-elim"="true" "no-frame-pointer-elim-non-leaf" "no-infs-fp-math"="false" "no-nans-fp-math"="false" "no-signed-zeros-fp-math"="false" "no-trapping-math"="false" "stack-protector-buffer-size"="8" "target-cpu"="x86-64" "target-features"="+fxsr,+mmx,+sse,+sse2,+x87" "unsafe-fp-math"="false" "use-soft-float"="false" }
attributes #8 = { noreturn "correctly-rounded-divide-sqrt-fp-math"="false" "disable-tail-calls"="false" "less-precise-fpmad"="false" "no-frame-pointer-elim"="true" "no-frame-pointer-elim-non-leaf" "no-infs-fp-math"="false" "no-nans-fp-math"="false" "no-signed-zeros-fp-math"="false" "no-trapping-math"="false" "stack-protector-buffer-size"="8" "target-cpu"="x86-64" "target-features"="+fxsr,+mmx,+sse,+sse2,+x87" "unsafe-fp-math"="false" "use-soft-float"="false" }
attributes #9 = { nobuiltin "correctly-rounded-divide-sqrt-fp-math"="false" "disable-tail-calls"="false" "less-precise-fpmad"="false" "no-frame-pointer-elim"="true" "no-frame-pointer-elim-non-leaf" "no-infs-fp-math"="false" "no-nans-fp-math"="false" "no-signed-zeros-fp-math"="false" "no-trapping-math"="false" "stack-protector-buffer-size"="8" "target-cpu"="x86-64" "target-features"="+fxsr,+mmx,+sse,+sse2,+x87" "unsafe-fp-math"="false" "use-soft-float"="false" }
attributes #10 = { argmemonly mustprogress nofree nounwind willreturn }
attributes #11 = { argmemonly nofree nounwind willreturn writeonly }
attributes #12 = { nounwind }
attributes #13 = { noreturn nounwind }
attributes #14 = { noreturn }

!llvm.ident = !{!0}

!0 = !{!"Obfuscator-LLVM clang version 4.0.1  (based on Obfuscator-LLVM 4.0.1)"}
!1 = distinct !{!1, !2}
!2 = !{!"llvm.loop.peeled.count", i32 1}
!3 = distinct !{!3, !2}
!4 = distinct !{!4, !2}
!5 = distinct !{!5, !2}
