; ModuleID = 'Project_CodeNet_C++1400/p01140/s852659497.cpp'
source_filename = "Project_CodeNet_C++1400/p01140/s852659497.cpp"
target datalayout = "e-m:e-p270:32:32-p271:32:32-p272:64:64-i64:64-f80:128-n8:16:32:64-S128"
target triple = "x86_64-pc-linux-gnu"

%"class.std::ios_base::Init" = type { i8 }
%"class.std::basic_istream" = type { i32 (...)**, i64, %"class.std::basic_ios" }
%"class.std::basic_ios" = type { %"class.std::ios_base", %"class.std::basic_ostream"*, i8, i8, %"class.std::basic_streambuf"*, %"class.std::ctype"*, %"class.std::num_put"*, %"class.std::num_get"* }
%"class.std::ios_base" = type { i32 (...)**, i64, i64, i32, i32, i32, %"struct.std::ios_base::_Callback_list"*, %"struct.std::ios_base::_Words", [8 x %"struct.std::ios_base::_Words"], i32, %"struct.std::ios_base::_Words"*, %"class.std::locale" }
%"struct.std::ios_base::_Callback_list" = type { %"struct.std::ios_base::_Callback_list"*, void (i32, %"class.std::ios_base"*, i32)*, i32, i32 }
%"struct.std::ios_base::_Words" = type { i8*, i64 }
%"class.std::locale" = type { %"class.std::locale::_Impl"* }
%"class.std::locale::_Impl" = type { i32, %"class.std::locale::facet"**, i64, %"class.std::locale::facet"**, i8** }
%"class.std::locale::facet" = type <{ i32 (...)**, i32, [4 x i8] }>
%"class.std::basic_ostream" = type { i32 (...)**, %"class.std::basic_ios" }
%"class.std::basic_streambuf" = type { i32 (...)**, i8*, i8*, i8*, i8*, i8*, i8*, %"class.std::locale" }
%"class.std::ctype" = type <{ %"class.std::locale::facet.base", [4 x i8], %struct.__locale_struct*, i8, [7 x i8], i32*, i32*, i16*, i8, [256 x i8], [256 x i8], i8, [6 x i8] }>
%"class.std::locale::facet.base" = type <{ i32 (...)**, i32 }>
%struct.__locale_struct = type { [13 x %struct.__locale_data*], i16*, i32*, i32*, [13 x i8*] }
%struct.__locale_data = type opaque
%"class.std::num_put" = type { %"class.std::locale::facet.base", [4 x i8] }
%"class.std::num_get" = type { %"class.std::locale::facet.base", [4 x i8] }
%"class.std::vector" = type { %"struct.std::_Vector_base" }
%"struct.std::_Vector_base" = type { %"struct.std::_Vector_base<long long, std::allocator<long long>>::_Vector_impl" }
%"struct.std::_Vector_base<long long, std::allocator<long long>>::_Vector_impl" = type { %"struct.std::_Vector_base<long long, std::allocator<long long>>::_Vector_impl_data" }
%"struct.std::_Vector_base<long long, std::allocator<long long>>::_Vector_impl_data" = type { i64*, i64*, i64* }
%"class.std::allocator" = type { i8 }
%"class.__gnu_cxx::new_allocator" = type { i8 }
%"struct.__gnu_cxx::__ops::_Iter_less_iter" = type { i8 }
%"struct.__gnu_cxx::__ops::_Iter_less_val" = type { i8 }

$_ZNSt6vectorIxSaIxEEC2EmRKS0_ = comdat any

$_ZNSt6vectorIxSaIxEE17_S_check_init_lenEmRKS0_ = comdat any

$_ZNSt6vectorIxSaIxEE21_M_default_initializeEm = comdat any

$_ZNSt12_Vector_baseIxSaIxEED2Ev = comdat any

$_ZNSt12_Vector_baseIxSaIxEE17_M_create_storageEm = comdat any

$_ZNSt12_Vector_baseIxSaIxEE11_M_allocateEm = comdat any

$_ZNSt16allocator_traitsISaIxEE8allocateERS0_m = comdat any

$_ZN9__gnu_cxx13new_allocatorIxE8allocateEmPKv = comdat any

$_ZNSt27__uninitialized_default_n_1ILb1EE18__uninit_default_nIPxmEET_S3_T0_ = comdat any

$_ZSt10__fill_n_aIPxmxET_S1_T0_RKT1_St26random_access_iterator_tag = comdat any

$_ZSt6__sortIN9__gnu_cxx17__normal_iteratorIPxSt6vectorIxSaIxEEEENS0_5__ops15_Iter_less_iterEEvT_S9_T0_ = comdat any

$_ZSt16__introsort_loopIN9__gnu_cxx17__normal_iteratorIPxSt6vectorIxSaIxEEEElNS0_5__ops15_Iter_less_iterEEvT_S9_T0_T1_ = comdat any

$_ZSt22__final_insertion_sortIN9__gnu_cxx17__normal_iteratorIPxSt6vectorIxSaIxEEEENS0_5__ops15_Iter_less_iterEEvT_S9_T0_ = comdat any

$_ZSt14__partial_sortIN9__gnu_cxx17__normal_iteratorIPxSt6vectorIxSaIxEEEENS0_5__ops15_Iter_less_iterEEvT_S9_S9_T0_ = comdat any

$_ZSt27__unguarded_partition_pivotIN9__gnu_cxx17__normal_iteratorIPxSt6vectorIxSaIxEEEENS0_5__ops15_Iter_less_iterEET_S9_S9_T0_ = comdat any

$_ZSt13__heap_selectIN9__gnu_cxx17__normal_iteratorIPxSt6vectorIxSaIxEEEENS0_5__ops15_Iter_less_iterEEvT_S9_S9_T0_ = comdat any

$_ZSt11__sort_heapIN9__gnu_cxx17__normal_iteratorIPxSt6vectorIxSaIxEEEENS0_5__ops15_Iter_less_iterEEvT_S9_RT0_ = comdat any

$_ZSt11__make_heapIN9__gnu_cxx17__normal_iteratorIPxSt6vectorIxSaIxEEEENS0_5__ops15_Iter_less_iterEEvT_S9_RT0_ = comdat any

$_ZSt10__pop_heapIN9__gnu_cxx17__normal_iteratorIPxSt6vectorIxSaIxEEEENS0_5__ops15_Iter_less_iterEEvT_S9_S9_RT0_ = comdat any

$_ZSt13__adjust_heapIN9__gnu_cxx17__normal_iteratorIPxSt6vectorIxSaIxEEEElxNS0_5__ops15_Iter_less_iterEEvT_T0_SA_T1_T2_ = comdat any

$_ZSt11__push_heapIN9__gnu_cxx17__normal_iteratorIPxSt6vectorIxSaIxEEEElxNS0_5__ops14_Iter_less_valEEvT_T0_SA_T1_RT2_ = comdat any

$_ZSt22__move_median_to_firstIN9__gnu_cxx17__normal_iteratorIPxSt6vectorIxSaIxEEEENS0_5__ops15_Iter_less_iterEEvT_S9_S9_S9_T0_ = comdat any

$_ZSt21__unguarded_partitionIN9__gnu_cxx17__normal_iteratorIPxSt6vectorIxSaIxEEEENS0_5__ops15_Iter_less_iterEET_S9_S9_S9_T0_ = comdat any

$_ZSt16__insertion_sortIN9__gnu_cxx17__normal_iteratorIPxSt6vectorIxSaIxEEEENS0_5__ops15_Iter_less_iterEEvT_S9_T0_ = comdat any

$_ZSt26__unguarded_insertion_sortIN9__gnu_cxx17__normal_iteratorIPxSt6vectorIxSaIxEEEENS0_5__ops15_Iter_less_iterEEvT_S9_T0_ = comdat any

$_ZSt25__unguarded_linear_insertIN9__gnu_cxx17__normal_iteratorIPxSt6vectorIxSaIxEEEENS0_5__ops14_Val_less_iterEEvT_T0_ = comdat any

@_ZStL8__ioinit = internal global %"class.std::ios_base::Init" zeroinitializer, align 1
@__dso_handle = external hidden global i8
@_ZSt3cin = external global %"class.std::basic_istream", align 8
@_ZSt4cout = external global %"class.std::basic_ostream", align 8
@.str = private unnamed_addr constant [49 x i8] c"cannot create std::vector larger than max_size()\00", align 1
@llvm.global_ctors = appending global [1 x { i32, void ()*, i8* }] [{ i32, void ()*, i8* } { i32 65535, void ()* @_GLOBAL__sub_I_s852659497.cpp, i8* null }]

; Function Attrs: minsize optsize
declare void @_ZNSt8ios_base4InitC1Ev(%"class.std::ios_base::Init"* nonnull align 1 dereferenceable(1)) unnamed_addr #0

; Function Attrs: minsize nounwind optsize
declare void @_ZNSt8ios_base4InitD1Ev(%"class.std::ios_base::Init"* nonnull align 1 dereferenceable(1)) unnamed_addr #1

; Function Attrs: nofree nounwind
declare i32 @__cxa_atexit(void (i8*)*, i8*, i8*) local_unnamed_addr #2

; Function Attrs: minsize norecurse optsize sspstrong uwtable
define dso_local i32 @main() local_unnamed_addr #3 personality i8* bitcast (i32 (...)* @__gxx_personality_v0 to i8*) {
  %1 = alloca i32, align 4
  %2 = alloca i32, align 4
  %3 = alloca i32, align 4
  %4 = alloca i32, align 4
  %5 = alloca %"class.std::vector", align 8
  %6 = alloca %"class.std::allocator", align 1
  %7 = alloca %"class.std::vector", align 8
  %8 = alloca %"class.std::allocator", align 1
  %9 = bitcast i32* %1 to i8*
  call void @llvm.lifetime.start.p0i8(i64 4, i8* nonnull %9) #19
  %10 = bitcast i32* %2 to i8*
  call void @llvm.lifetime.start.p0i8(i64 4, i8* nonnull %10) #19
  %11 = bitcast i32* %3 to i8*
  %12 = bitcast i32* %4 to i8*
  %13 = bitcast %"class.std::vector"* %5 to i8*
  %14 = getelementptr inbounds %"class.std::allocator", %"class.std::allocator"* %6, i64 0, i32 0
  %15 = bitcast %"class.std::vector"* %7 to i8*
  %16 = getelementptr inbounds %"class.std::allocator", %"class.std::allocator"* %8, i64 0, i32 0
  %17 = getelementptr inbounds %"class.std::vector", %"class.std::vector"* %5, i64 0, i32 0, i32 0, i32 0, i32 1
  %18 = getelementptr inbounds %"class.std::vector", %"class.std::vector"* %5, i64 0, i32 0, i32 0, i32 0, i32 0
  %19 = getelementptr inbounds %"class.std::vector", %"class.std::vector"* %7, i64 0, i32 0, i32 0, i32 0, i32 1
  %20 = getelementptr inbounds %"class.std::vector", %"class.std::vector"* %7, i64 0, i32 0, i32 0, i32 0, i32 0
  %21 = getelementptr inbounds %"class.std::vector", %"class.std::vector"* %7, i64 0, i32 0
  %22 = getelementptr inbounds %"class.std::vector", %"class.std::vector"* %5, i64 0, i32 0
  br label %23

23:                                               ; preds = %214, %0
  %24 = call nonnull align 8 dereferenceable(16) %"class.std::basic_istream"* @_ZNSirsERi(%"class.std::basic_istream"* nonnull align 8 dereferenceable(16) @_ZSt3cin, i32* nonnull align 4 dereferenceable(4) %1) #20
  %25 = call nonnull align 8 dereferenceable(16) %"class.std::basic_istream"* @_ZNSirsERi(%"class.std::basic_istream"* nonnull align 8 dereferenceable(16) %24, i32* nonnull align 4 dereferenceable(4) %2) #20
  %26 = load i32, i32* %1, align 4, !tbaa !5
  %27 = icmp ne i32 %26, 0
  %28 = load i32, i32* %2, align 4
  %29 = icmp ne i32 %28, 0
  %30 = select i1 %27, i1 true, i1 %29
  br i1 %30, label %31, label %221

31:                                               ; preds = %23
  %32 = add nsw i32 %26, 1
  %33 = zext i32 %32 to i64
  %34 = call i8* @llvm.stacksave()
  %35 = alloca i64, i64 %33, align 16
  %36 = load i32, i32* %2, align 4, !tbaa !5
  %37 = add nsw i32 %36, 1
  %38 = zext i32 %37 to i64
  %39 = alloca i64, i64 %38, align 16
  store i64 0, i64* %35, align 16, !tbaa !9
  store i64 0, i64* %39, align 16, !tbaa !9
  br label %40

40:                                               ; preds = %46, %31
  %41 = phi i64 [ %50, %46 ], [ 0, %31 ]
  %42 = phi i64 [ %52, %46 ], [ 1, %31 ]
  %43 = load i32, i32* %1, align 4, !tbaa !5
  %44 = sext i32 %43 to i64
  %45 = icmp sgt i64 %42, %44
  br i1 %45, label %53, label %46

46:                                               ; preds = %40
  call void @llvm.lifetime.start.p0i8(i64 4, i8* nonnull %11) #19
  %47 = call nonnull align 8 dereferenceable(16) %"class.std::basic_istream"* @_ZNSirsERi(%"class.std::basic_istream"* nonnull align 8 dereferenceable(16) @_ZSt3cin, i32* nonnull align 4 dereferenceable(4) %3) #20
  %48 = load i32, i32* %3, align 4, !tbaa !5
  %49 = sext i32 %48 to i64
  %50 = add nsw i64 %41, %49
  %51 = getelementptr inbounds i64, i64* %35, i64 %42
  store i64 %50, i64* %51, align 8, !tbaa !9
  call void @llvm.lifetime.end.p0i8(i64 4, i8* nonnull %11) #19
  %52 = add nuw nsw i64 %42, 1
  br label %40, !llvm.loop !11

53:                                               ; preds = %40, %68
  %54 = phi i64 [ %72, %68 ], [ 0, %40 ]
  %55 = phi i64 [ %74, %68 ], [ 1, %40 ]
  %56 = load i32, i32* %2, align 4, !tbaa !5
  %57 = sext i32 %56 to i64
  %58 = icmp sgt i64 %55, %57
  br i1 %58, label %59, label %68

59:                                               ; preds = %53
  call void @llvm.lifetime.start.p0i8(i64 24, i8* nonnull %13) #19
  %60 = load i32, i32* %1, align 4, !tbaa !5
  %61 = add nsw i32 %60, 1
  %62 = mul nsw i32 %61, %61
  %63 = zext i32 %62 to i64
  call void @llvm.lifetime.start.p0i8(i64 1, i8* nonnull %14) #19
  call void @_ZNSt6vectorIxSaIxEEC2EmRKS0_(%"class.std::vector"* nonnull align 8 dereferenceable(24) %5, i64 %63, %"class.std::allocator"* nonnull align 1 dereferenceable(1) %6) #20
  call void @llvm.lifetime.end.p0i8(i64 1, i8* nonnull %14) #19
  call void @llvm.lifetime.start.p0i8(i64 24, i8* nonnull %15) #19
  %64 = load i32, i32* %2, align 4, !tbaa !5
  %65 = add nsw i32 %64, 1
  %66 = mul nsw i32 %65, %65
  %67 = zext i32 %66 to i64
  call void @llvm.lifetime.start.p0i8(i64 1, i8* nonnull %16) #19
  invoke void @_ZNSt6vectorIxSaIxEEC2EmRKS0_(%"class.std::vector"* nonnull align 8 dereferenceable(24) %7, i64 %67, %"class.std::allocator"* nonnull align 1 dereferenceable(1) %8) #20
          to label %75 unwind label %92

68:                                               ; preds = %53
  call void @llvm.lifetime.start.p0i8(i64 4, i8* nonnull %12) #19
  %69 = call nonnull align 8 dereferenceable(16) %"class.std::basic_istream"* @_ZNSirsERi(%"class.std::basic_istream"* nonnull align 8 dereferenceable(16) @_ZSt3cin, i32* nonnull align 4 dereferenceable(4) %4) #20
  %70 = load i32, i32* %4, align 4, !tbaa !5
  %71 = sext i32 %70 to i64
  %72 = add nsw i64 %54, %71
  %73 = getelementptr inbounds i64, i64* %39, i64 %55
  store i64 %72, i64* %73, align 8, !tbaa !9
  call void @llvm.lifetime.end.p0i8(i64 4, i8* nonnull %12) #19
  %74 = add nuw nsw i64 %55, 1
  br label %53, !llvm.loop !13

75:                                               ; preds = %59
  call void @llvm.lifetime.end.p0i8(i64 1, i8* nonnull %16) #19
  %76 = load i64*, i64** %17, align 8, !tbaa !14
  %77 = load i64*, i64** %18, align 8, !tbaa !17
  %78 = ptrtoint i64* %76 to i64
  %79 = ptrtoint i64* %77 to i64
  %80 = sub i64 %78, %79
  %81 = ashr exact i64 %80, 3
  br label %82

82:                                               ; preds = %94, %75
  %83 = phi i64 [ %96, %94 ], [ 0, %75 ]
  %84 = icmp eq i64 %83, %81
  br i1 %84, label %85, label %94

85:                                               ; preds = %82
  %86 = load i64*, i64** %19, align 8, !tbaa !14
  %87 = load i64*, i64** %20, align 8, !tbaa !17
  %88 = ptrtoint i64* %86 to i64
  %89 = ptrtoint i64* %87 to i64
  %90 = sub i64 %88, %89
  %91 = ashr exact i64 %90, 3
  br label %97

92:                                               ; preds = %59
  %93 = landingpad { i8*, i32 }
          cleanup
  call void @llvm.lifetime.end.p0i8(i64 1, i8* nonnull %16) #19
  br label %219

94:                                               ; preds = %82
  %95 = getelementptr inbounds i64, i64* %77, i64 %83
  store i64 1000000007, i64* %95, align 8, !tbaa !9
  %96 = add nuw i64 %83, 1
  br label %82, !llvm.loop !18

97:                                               ; preds = %85, %104
  %98 = phi i64 [ 0, %85 ], [ %106, %104 ]
  %99 = icmp eq i64 %98, %91
  br i1 %99, label %100, label %104

100:                                              ; preds = %97
  %101 = load i32, i32* %1, align 4, !tbaa !5
  %102 = call i32 @llvm.smax.i32(i32 %101, i32 0)
  %103 = zext i32 %102 to i64
  br label %109

104:                                              ; preds = %97
  %105 = getelementptr inbounds i64, i64* %87, i64 %98
  store i64 1000000007, i64* %105, align 8, !tbaa !9
  %106 = add nuw i64 %98, 1
  br label %97, !llvm.loop !19

107:                                              ; preds = %122
  %108 = add nuw nsw i64 %111, 1
  br label %109, !llvm.loop !20

109:                                              ; preds = %107, %100
  %110 = phi i64 [ %120, %107 ], [ 0, %100 ]
  %111 = phi i64 [ %108, %107 ], [ 1, %100 ]
  %112 = phi i32 [ %124, %107 ], [ 0, %100 ]
  %113 = icmp eq i64 %110, %103
  br i1 %113, label %114, label %119

114:                                              ; preds = %109
  invoke void @_ZSt6__sortIN9__gnu_cxx17__normal_iteratorIPxSt6vectorIxSaIxEEEENS0_5__ops15_Iter_less_iterEEvT_S9_T0_(i64* %77, i64* %76) #20
          to label %115 unwind label %156

115:                                              ; preds = %114
  %116 = load i32, i32* %2, align 4, !tbaa !5
  %117 = call i32 @llvm.smax.i32(i32 %116, i32 0)
  %118 = zext i32 %117 to i64
  br label %142

119:                                              ; preds = %109
  %120 = add nuw nsw i64 %110, 1
  %121 = getelementptr inbounds i64, i64* %35, i64 %110
  br label %122

122:                                              ; preds = %137, %119
  %123 = phi i64 [ %139, %137 ], [ %111, %119 ]
  %124 = phi i32 [ %138, %137 ], [ %112, %119 ]
  %125 = trunc i64 %123 to i32
  %126 = icmp slt i32 %101, %125
  br i1 %126, label %107, label %127

127:                                              ; preds = %122
  %128 = load i64, i64* %121, align 8, !tbaa !9
  %129 = getelementptr inbounds i64, i64* %35, i64 %123
  %130 = load i64, i64* %129, align 8, !tbaa !9
  %131 = icmp sgt i64 %130, %128
  br i1 %131, label %132, label %137

132:                                              ; preds = %127
  %133 = sub nsw i64 %130, %128
  %134 = sext i32 %124 to i64
  %135 = getelementptr inbounds i64, i64* %77, i64 %134
  store i64 %133, i64* %135, align 8, !tbaa !9
  %136 = add nsw i32 %124, 1
  br label %137

137:                                              ; preds = %127, %132
  %138 = phi i32 [ %136, %132 ], [ %124, %127 ]
  %139 = add nuw i64 %123, 1
  br label %122, !llvm.loop !21

140:                                              ; preds = %162
  %141 = add nuw nsw i64 %144, 1
  br label %142, !llvm.loop !22

142:                                              ; preds = %140, %115
  %143 = phi i64 [ %159, %140 ], [ 0, %115 ]
  %144 = phi i64 [ %141, %140 ], [ 1, %115 ]
  %145 = phi i32 [ %164, %140 ], [ 0, %115 ]
  %146 = icmp eq i64 %143, %118
  br i1 %146, label %147, label %158

147:                                              ; preds = %142
  %148 = load i64*, i64** %20, align 8, !tbaa !23
  %149 = load i64*, i64** %19, align 8, !tbaa !23
  invoke void @_ZSt6__sortIN9__gnu_cxx17__normal_iteratorIPxSt6vectorIxSaIxEEEENS0_5__ops15_Iter_less_iterEEvT_S9_T0_(i64* %148, i64* %149) #20
          to label %150 unwind label %180

150:                                              ; preds = %147
  %151 = load i64*, i64** %20, align 8
  %152 = load i64*, i64** %18, align 8
  %153 = sext i32 %145 to i64
  %154 = call i32 @llvm.smax.i32(i32 %112, i32 0)
  %155 = zext i32 %154 to i64
  br label %182

156:                                              ; preds = %114
  %157 = landingpad { i8*, i32 }
          cleanup
  br label %217

158:                                              ; preds = %142
  %159 = add nuw nsw i64 %143, 1
  %160 = getelementptr inbounds i64, i64* %39, i64 %143
  %161 = load i64*, i64** %20, align 8
  br label %162

162:                                              ; preds = %177, %158
  %163 = phi i64 [ %179, %177 ], [ %144, %158 ]
  %164 = phi i32 [ %178, %177 ], [ %145, %158 ]
  %165 = trunc i64 %163 to i32
  %166 = icmp slt i32 %116, %165
  br i1 %166, label %140, label %167

167:                                              ; preds = %162
  %168 = load i64, i64* %160, align 8, !tbaa !9
  %169 = getelementptr inbounds i64, i64* %39, i64 %163
  %170 = load i64, i64* %169, align 8, !tbaa !9
  %171 = icmp sgt i64 %170, %168
  br i1 %171, label %172, label %177

172:                                              ; preds = %167
  %173 = sub nsw i64 %170, %168
  %174 = sext i32 %164 to i64
  %175 = getelementptr inbounds i64, i64* %161, i64 %174
  store i64 %173, i64* %175, align 8, !tbaa !9
  %176 = add nsw i32 %164, 1
  br label %177

177:                                              ; preds = %167, %172
  %178 = phi i32 [ %176, %172 ], [ %164, %167 ]
  %179 = add nuw i64 %163, 1
  br label %162, !llvm.loop !24

180:                                              ; preds = %147
  %181 = landingpad { i8*, i32 }
          cleanup
  br label %217

182:                                              ; preds = %150, %202
  %183 = phi i64 [ 0, %150 ], [ %203, %202 ]
  %184 = phi i64 [ 0, %150 ], [ %195, %202 ]
  %185 = phi i32 [ 0, %150 ], [ %196, %202 ]
  %186 = icmp eq i64 %183, %155
  br i1 %186, label %191, label %187

187:                                              ; preds = %182
  %188 = getelementptr inbounds i64, i64* %152, i64 %183
  %189 = load i64, i64* %188, align 8, !tbaa !9
  %190 = sext i32 %185 to i64
  br label %193

191:                                              ; preds = %182
  %192 = invoke nonnull align 8 dereferenceable(8) %"class.std::basic_ostream"* @_ZNSo9_M_insertIxEERSoT_(%"class.std::basic_ostream"* nonnull align 8 dereferenceable(8) @_ZSt4cout, i64 %184) #20
          to label %212 unwind label %215

193:                                              ; preds = %187, %204
  %194 = phi i64 [ %190, %187 ], [ %211, %204 ]
  %195 = phi i64 [ %184, %187 ], [ %207, %204 ]
  %196 = phi i32 [ %185, %187 ], [ %210, %204 ]
  %197 = getelementptr inbounds i64, i64* %151, i64 %194
  %198 = load i64, i64* %197, align 8, !tbaa !9
  %199 = icmp sle i64 %198, %189
  %200 = icmp slt i64 %194, %153
  %201 = select i1 %199, i1 %200, i1 false
  br i1 %201, label %204, label %202

202:                                              ; preds = %193
  %203 = add nuw nsw i64 %183, 1
  br label %182, !llvm.loop !25

204:                                              ; preds = %193
  %205 = icmp eq i64 %198, %189
  %206 = zext i1 %205 to i64
  %207 = add nsw i64 %195, %206
  %208 = icmp slt i64 %198, %189
  %209 = zext i1 %208 to i32
  %210 = add nsw i32 %196, %209
  %211 = add nsw i64 %194, 1
  br label %193, !llvm.loop !26

212:                                              ; preds = %191
  %213 = invoke nonnull align 8 dereferenceable(8) %"class.std::basic_ostream"* @_ZSt4endlIcSt11char_traitsIcEERSt13basic_ostreamIT_T0_ES6_(%"class.std::basic_ostream"* nonnull align 8 dereferenceable(8) %192) #20
          to label %214 unwind label %215

214:                                              ; preds = %212
  call void @_ZNSt12_Vector_baseIxSaIxEED2Ev(%"struct.std::_Vector_base"* nonnull align 8 dereferenceable(24) %21) #21
  call void @llvm.lifetime.end.p0i8(i64 24, i8* nonnull %15) #19
  call void @_ZNSt12_Vector_baseIxSaIxEED2Ev(%"struct.std::_Vector_base"* nonnull align 8 dereferenceable(24) %22) #21
  call void @llvm.lifetime.end.p0i8(i64 24, i8* nonnull %13) #19
  call void @llvm.stackrestore(i8* %34)
  br label %23, !llvm.loop !27

215:                                              ; preds = %212, %191
  %216 = landingpad { i8*, i32 }
          cleanup
  br label %217

217:                                              ; preds = %180, %215, %156
  %218 = phi { i8*, i32 } [ %157, %156 ], [ %216, %215 ], [ %181, %180 ]
  call void @_ZNSt12_Vector_baseIxSaIxEED2Ev(%"struct.std::_Vector_base"* nonnull align 8 dereferenceable(24) %21) #21
  br label %219

219:                                              ; preds = %217, %92
  %220 = phi { i8*, i32 } [ %218, %217 ], [ %93, %92 ]
  call void @llvm.lifetime.end.p0i8(i64 24, i8* nonnull %15) #19
  call void @_ZNSt12_Vector_baseIxSaIxEED2Ev(%"struct.std::_Vector_base"* nonnull align 8 dereferenceable(24) %22) #21
  call void @llvm.lifetime.end.p0i8(i64 24, i8* nonnull %13) #19
  call void @llvm.lifetime.end.p0i8(i64 4, i8* nonnull %10) #19
  call void @llvm.lifetime.end.p0i8(i64 4, i8* nonnull %9) #19
  resume { i8*, i32 } %220

221:                                              ; preds = %23
  call void @llvm.lifetime.end.p0i8(i64 4, i8* nonnull %10) #19
  call void @llvm.lifetime.end.p0i8(i64 4, i8* nonnull %9) #19
  ret i32 0
}

; Function Attrs: argmemonly mustprogress nofree nosync nounwind willreturn
declare void @llvm.lifetime.start.p0i8(i64 immarg, i8* nocapture) #4

; Function Attrs: minsize optsize
declare nonnull align 8 dereferenceable(16) %"class.std::basic_istream"* @_ZNSirsERi(%"class.std::basic_istream"* nonnull align 8 dereferenceable(16), i32* nonnull align 4 dereferenceable(4)) local_unnamed_addr #0

; Function Attrs: mustprogress nofree nosync nounwind willreturn
declare i8* @llvm.stacksave() #5

; Function Attrs: argmemonly mustprogress nofree nosync nounwind willreturn
declare void @llvm.lifetime.end.p0i8(i64 immarg, i8* nocapture) #4

; Function Attrs: minsize optsize sspstrong uwtable
define linkonce_odr dso_local void @_ZNSt6vectorIxSaIxEEC2EmRKS0_(%"class.std::vector"* nonnull align 8 dereferenceable(24) %0, i64 %1, %"class.std::allocator"* nonnull align 1 dereferenceable(1) %2) unnamed_addr #6 comdat align 2 personality i8* bitcast (i32 (...)* @__gxx_personality_v0 to i8*) {
  %4 = getelementptr inbounds %"class.std::vector", %"class.std::vector"* %0, i64 0, i32 0
  %5 = tail call i64 @_ZNSt6vectorIxSaIxEE17_S_check_init_lenEmRKS0_(i64 %1, %"class.std::allocator"* nonnull align 1 dereferenceable(1) %2) #20
  %6 = bitcast %"class.std::vector"* %0 to i8*
  tail call void @llvm.memset.p0i8.i64(i8* noundef nonnull align 8 dereferenceable(24) %6, i8 0, i64 24, i1 false) #19
  tail call void @_ZNSt12_Vector_baseIxSaIxEE17_M_create_storageEm(%"struct.std::_Vector_base"* nonnull align 8 dereferenceable(24) %4, i64 %5) #20
  invoke void @_ZNSt6vectorIxSaIxEE21_M_default_initializeEm(%"class.std::vector"* nonnull align 8 dereferenceable(24) %0, i64 %1) #20
          to label %7 unwind label %8

7:                                                ; preds = %3
  ret void

8:                                                ; preds = %3
  %9 = landingpad { i8*, i32 }
          cleanup
  tail call void @_ZNSt12_Vector_baseIxSaIxEED2Ev(%"struct.std::_Vector_base"* nonnull align 8 dereferenceable(24) %4) #21
  resume { i8*, i32 } %9
}

declare i32 @__gxx_personality_v0(...)

; Function Attrs: inlinehint minsize mustprogress optsize sspstrong uwtable
declare nonnull align 8 dereferenceable(8) %"class.std::basic_ostream"* @_ZSt4endlIcSt11char_traitsIcEERSt13basic_ostreamIT_T0_ES6_(%"class.std::basic_ostream"* nonnull align 8 dereferenceable(8)) local_unnamed_addr #7

; Function Attrs: mustprogress nofree nosync nounwind willreturn
declare void @llvm.stackrestore(i8*) #5

; Function Attrs: minsize optsize sspstrong uwtable
define linkonce_odr dso_local i64 @_ZNSt6vectorIxSaIxEE17_S_check_init_lenEmRKS0_(i64 %0, %"class.std::allocator"* nonnull align 1 dereferenceable(1) %1) local_unnamed_addr #6 comdat align 2 personality i32 (...)* @__gxx_personality_v0 {
  %3 = icmp ugt i64 %0, 1152921504606846975
  br i1 %3, label %4, label %5

4:                                                ; preds = %2
  tail call void @_ZSt20__throw_length_errorPKc(i8* getelementptr inbounds ([49 x i8], [49 x i8]* @.str, i64 0, i64 0)) #22
  unreachable

5:                                                ; preds = %2
  ret i64 %0
}

; Function Attrs: minsize mustprogress optsize sspstrong uwtable
define linkonce_odr dso_local void @_ZNSt6vectorIxSaIxEE21_M_default_initializeEm(%"class.std::vector"* nonnull align 8 dereferenceable(24) %0, i64 %1) local_unnamed_addr #8 comdat align 2 {
  %3 = getelementptr inbounds %"class.std::vector", %"class.std::vector"* %0, i64 0, i32 0, i32 0, i32 0, i32 0
  %4 = load i64*, i64** %3, align 8, !tbaa !17
  %5 = tail call i64* @_ZNSt27__uninitialized_default_n_1ILb1EE18__uninit_default_nIPxmEET_S3_T0_(i64* %4, i64 %1) #20
  %6 = getelementptr inbounds %"class.std::vector", %"class.std::vector"* %0, i64 0, i32 0, i32 0, i32 0, i32 1
  store i64* %5, i64** %6, align 8, !tbaa !14
  ret void
}

; Function Attrs: minsize nounwind optsize sspstrong uwtable
define linkonce_odr dso_local void @_ZNSt12_Vector_baseIxSaIxEED2Ev(%"struct.std::_Vector_base"* nonnull align 8 dereferenceable(24) %0) unnamed_addr #9 comdat align 2 personality i8* bitcast (i32 (...)* @__gxx_personality_v0 to i8*) {
  %2 = getelementptr inbounds %"struct.std::_Vector_base", %"struct.std::_Vector_base"* %0, i64 0, i32 0, i32 0, i32 0
  %3 = load i64*, i64** %2, align 8, !tbaa !17
  %4 = icmp eq i64* %3, null
  br i1 %4, label %7, label %5

5:                                                ; preds = %1
  %6 = bitcast i64* %3 to i8*
  tail call void @_ZdlPv(i8* nonnull %6) #21
  br label %7

7:                                                ; preds = %5, %1
  ret void
}

; Function Attrs: minsize noreturn optsize
declare void @_ZSt20__throw_length_errorPKc(i8*) local_unnamed_addr #10

; Function Attrs: minsize mustprogress optsize sspstrong uwtable
define linkonce_odr dso_local void @_ZNSt12_Vector_baseIxSaIxEE17_M_create_storageEm(%"struct.std::_Vector_base"* nonnull align 8 dereferenceable(24) %0, i64 %1) local_unnamed_addr #8 comdat align 2 {
  %3 = tail call i64* @_ZNSt12_Vector_baseIxSaIxEE11_M_allocateEm(%"struct.std::_Vector_base"* nonnull align 8 dereferenceable(24) %0, i64 %1) #20
  %4 = getelementptr inbounds %"struct.std::_Vector_base", %"struct.std::_Vector_base"* %0, i64 0, i32 0, i32 0, i32 0
  store i64* %3, i64** %4, align 8, !tbaa !17
  %5 = getelementptr inbounds %"struct.std::_Vector_base", %"struct.std::_Vector_base"* %0, i64 0, i32 0, i32 0, i32 1
  store i64* %3, i64** %5, align 8, !tbaa !14
  %6 = getelementptr inbounds i64, i64* %3, i64 %1
  %7 = getelementptr inbounds %"struct.std::_Vector_base", %"struct.std::_Vector_base"* %0, i64 0, i32 0, i32 0, i32 2
  store i64* %6, i64** %7, align 8, !tbaa !28
  ret void
}

; Function Attrs: minsize mustprogress optsize sspstrong uwtable
define linkonce_odr dso_local i64* @_ZNSt12_Vector_baseIxSaIxEE11_M_allocateEm(%"struct.std::_Vector_base"* nonnull align 8 dereferenceable(24) %0, i64 %1) local_unnamed_addr #8 comdat align 2 {
  %3 = icmp eq i64 %1, 0
  br i1 %3, label %7, label %4

4:                                                ; preds = %2
  %5 = bitcast %"struct.std::_Vector_base"* %0 to %"class.std::allocator"*
  %6 = tail call i64* @_ZNSt16allocator_traitsISaIxEE8allocateERS0_m(%"class.std::allocator"* nonnull align 1 dereferenceable(1) %5, i64 %1) #20
  br label %7

7:                                                ; preds = %2, %4
  %8 = phi i64* [ %6, %4 ], [ null, %2 ]
  ret i64* %8
}

; Function Attrs: minsize mustprogress optsize sspstrong uwtable
define linkonce_odr dso_local i64* @_ZNSt16allocator_traitsISaIxEE8allocateERS0_m(%"class.std::allocator"* nonnull align 1 dereferenceable(1) %0, i64 %1) local_unnamed_addr #8 comdat align 2 {
  %3 = bitcast %"class.std::allocator"* %0 to %"class.__gnu_cxx::new_allocator"*
  %4 = tail call i64* @_ZN9__gnu_cxx13new_allocatorIxE8allocateEmPKv(%"class.__gnu_cxx::new_allocator"* nonnull align 1 dereferenceable(1) %3, i64 %1, i8* null) #20
  ret i64* %4
}

; Function Attrs: minsize mustprogress optsize sspstrong uwtable
define linkonce_odr dso_local i64* @_ZN9__gnu_cxx13new_allocatorIxE8allocateEmPKv(%"class.__gnu_cxx::new_allocator"* nonnull align 1 dereferenceable(1) %0, i64 %1, i8* %2) local_unnamed_addr #8 comdat align 2 {
  %4 = icmp ugt i64 %1, 1152921504606846975
  br i1 %4, label %5, label %9, !prof !29

5:                                                ; preds = %3
  %6 = icmp ugt i64 %1, 2305843009213693951
  br i1 %6, label %7, label %8

7:                                                ; preds = %5
  tail call void @_ZSt28__throw_bad_array_new_lengthv() #22
  unreachable

8:                                                ; preds = %5
  tail call void @_ZSt17__throw_bad_allocv() #22
  unreachable

9:                                                ; preds = %3
  %10 = shl nuw nsw i64 %1, 3
  %11 = tail call noalias nonnull i8* @_Znwm(i64 %10) #23
  %12 = bitcast i8* %11 to i64*
  ret i64* %12
}

; Function Attrs: minsize noreturn optsize
declare void @_ZSt28__throw_bad_array_new_lengthv() local_unnamed_addr #10

; Function Attrs: minsize noreturn optsize
declare void @_ZSt17__throw_bad_allocv() local_unnamed_addr #10

; Function Attrs: minsize nobuiltin optsize allocsize(0)
declare nonnull i8* @_Znwm(i64) local_unnamed_addr #11

; Function Attrs: minsize mustprogress optsize sspstrong uwtable
define linkonce_odr dso_local i64* @_ZNSt27__uninitialized_default_n_1ILb1EE18__uninit_default_nIPxmEET_S3_T0_(i64* %0, i64 %1) local_unnamed_addr #8 comdat align 2 {
  %3 = icmp eq i64 %1, 0
  br i1 %3, label %8, label %4

4:                                                ; preds = %2
  store i64 0, i64* %0, align 8, !tbaa !9
  %5 = getelementptr inbounds i64, i64* %0, i64 1
  %6 = add i64 %1, -1
  %7 = tail call i64* @_ZSt10__fill_n_aIPxmxET_S1_T0_RKT1_St26random_access_iterator_tag(i64* nonnull %5, i64 %6, i64* nonnull align 8 dereferenceable(8) %0) #20
  br label %8

8:                                                ; preds = %4, %2
  %9 = phi i64* [ %7, %4 ], [ %0, %2 ]
  ret i64* %9
}

; Function Attrs: inlinehint minsize mustprogress optsize sspstrong uwtable
define linkonce_odr dso_local i64* @_ZSt10__fill_n_aIPxmxET_S1_T0_RKT1_St26random_access_iterator_tag(i64* %0, i64 %1, i64* nonnull align 8 dereferenceable(8) %2) local_unnamed_addr #7 comdat {
  %4 = icmp eq i64 %1, 0
  br i1 %4, label %13, label %5

5:                                                ; preds = %3
  %6 = getelementptr inbounds i64, i64* %0, i64 %1
  %7 = load i64, i64* %2, align 8, !tbaa !9
  br label %8

8:                                                ; preds = %11, %5
  %9 = phi i64* [ %0, %5 ], [ %12, %11 ]
  %10 = icmp eq i64* %9, %6
  br i1 %10, label %13, label %11

11:                                               ; preds = %8
  store i64 %7, i64* %9, align 8, !tbaa !9
  %12 = getelementptr inbounds i64, i64* %9, i64 1
  br label %8, !llvm.loop !30

13:                                               ; preds = %8, %3
  %14 = phi i64* [ %0, %3 ], [ %6, %8 ]
  ret i64* %14
}

; Function Attrs: minsize nobuiltin nounwind optsize
declare void @_ZdlPv(i8*) local_unnamed_addr #12

; Function Attrs: inlinehint minsize mustprogress optsize sspstrong uwtable
define linkonce_odr dso_local void @_ZSt6__sortIN9__gnu_cxx17__normal_iteratorIPxSt6vectorIxSaIxEEEENS0_5__ops15_Iter_less_iterEEvT_S9_T0_(i64* %0, i64* %1) local_unnamed_addr #7 comdat {
  %3 = icmp eq i64* %0, %1
  br i1 %3, label %12, label %4

4:                                                ; preds = %2
  %5 = ptrtoint i64* %1 to i64
  %6 = ptrtoint i64* %0 to i64
  %7 = sub i64 %5, %6
  %8 = ashr exact i64 %7, 3
  %9 = tail call i64 @llvm.ctlz.i64(i64 %8, i1 true) #19, !range !31
  %10 = shl nuw nsw i64 %9, 1
  %11 = xor i64 %10, 126
  tail call void @_ZSt16__introsort_loopIN9__gnu_cxx17__normal_iteratorIPxSt6vectorIxSaIxEEEElNS0_5__ops15_Iter_less_iterEEvT_S9_T0_T1_(i64* %0, i64* %1, i64 %11) #20
  tail call void @_ZSt22__final_insertion_sortIN9__gnu_cxx17__normal_iteratorIPxSt6vectorIxSaIxEEEENS0_5__ops15_Iter_less_iterEEvT_S9_T0_(i64* %0, i64* %1) #20
  br label %12

12:                                               ; preds = %4, %2
  ret void
}

; Function Attrs: minsize mustprogress optsize sspstrong uwtable
define linkonce_odr dso_local void @_ZSt16__introsort_loopIN9__gnu_cxx17__normal_iteratorIPxSt6vectorIxSaIxEEEElNS0_5__ops15_Iter_less_iterEEvT_S9_T0_T1_(i64* %0, i64* %1, i64 %2) local_unnamed_addr #8 comdat {
  %4 = ptrtoint i64* %0 to i64
  br label %5

5:                                                ; preds = %14, %3
  %6 = phi i64* [ %1, %3 ], [ %16, %14 ]
  %7 = phi i64 [ %2, %3 ], [ %15, %14 ]
  %8 = ptrtoint i64* %6 to i64
  %9 = sub i64 %8, %4
  %10 = icmp sgt i64 %9, 128
  br i1 %10, label %11, label %17

11:                                               ; preds = %5
  %12 = icmp eq i64 %7, 0
  br i1 %12, label %13, label %14

13:                                               ; preds = %11
  tail call void @_ZSt14__partial_sortIN9__gnu_cxx17__normal_iteratorIPxSt6vectorIxSaIxEEEENS0_5__ops15_Iter_less_iterEEvT_S9_S9_T0_(i64* %0, i64* %6, i64* %6) #20
  br label %17

14:                                               ; preds = %11
  %15 = add nsw i64 %7, -1
  %16 = tail call i64* @_ZSt27__unguarded_partition_pivotIN9__gnu_cxx17__normal_iteratorIPxSt6vectorIxSaIxEEEENS0_5__ops15_Iter_less_iterEET_S9_S9_T0_(i64* %0, i64* %6) #20
  tail call void @_ZSt16__introsort_loopIN9__gnu_cxx17__normal_iteratorIPxSt6vectorIxSaIxEEEElNS0_5__ops15_Iter_less_iterEEvT_S9_T0_T1_(i64* %16, i64* %6, i64 %15) #20
  br label %5, !llvm.loop !32

17:                                               ; preds = %5, %13
  ret void
}

; Function Attrs: minsize optsize sspstrong uwtable
define linkonce_odr dso_local void @_ZSt22__final_insertion_sortIN9__gnu_cxx17__normal_iteratorIPxSt6vectorIxSaIxEEEENS0_5__ops15_Iter_less_iterEEvT_S9_T0_(i64* %0, i64* %1) local_unnamed_addr #6 comdat {
  %3 = ptrtoint i64* %1 to i64
  %4 = ptrtoint i64* %0 to i64
  %5 = sub i64 %3, %4
  %6 = icmp sgt i64 %5, 128
  br i1 %6, label %7, label %9

7:                                                ; preds = %2
  %8 = getelementptr inbounds i64, i64* %0, i64 16
  tail call void @_ZSt16__insertion_sortIN9__gnu_cxx17__normal_iteratorIPxSt6vectorIxSaIxEEEENS0_5__ops15_Iter_less_iterEEvT_S9_T0_(i64* %0, i64* nonnull %8) #20
  tail call void @_ZSt26__unguarded_insertion_sortIN9__gnu_cxx17__normal_iteratorIPxSt6vectorIxSaIxEEEENS0_5__ops15_Iter_less_iterEEvT_S9_T0_(i64* nonnull %8, i64* %1) #20
  br label %10

9:                                                ; preds = %2
  tail call void @_ZSt16__insertion_sortIN9__gnu_cxx17__normal_iteratorIPxSt6vectorIxSaIxEEEENS0_5__ops15_Iter_less_iterEEvT_S9_T0_(i64* %0, i64* %1) #20
  br label %10

10:                                               ; preds = %9, %7
  ret void
}

; Function Attrs: inlinehint minsize mustprogress optsize sspstrong uwtable
define linkonce_odr dso_local void @_ZSt14__partial_sortIN9__gnu_cxx17__normal_iteratorIPxSt6vectorIxSaIxEEEENS0_5__ops15_Iter_less_iterEEvT_S9_S9_T0_(i64* %0, i64* %1, i64* %2) local_unnamed_addr #7 comdat {
  %4 = alloca %"struct.__gnu_cxx::__ops::_Iter_less_iter", align 1
  tail call void @_ZSt13__heap_selectIN9__gnu_cxx17__normal_iteratorIPxSt6vectorIxSaIxEEEENS0_5__ops15_Iter_less_iterEEvT_S9_S9_T0_(i64* %0, i64* %1, i64* %2) #20
  call void @_ZSt11__sort_heapIN9__gnu_cxx17__normal_iteratorIPxSt6vectorIxSaIxEEEENS0_5__ops15_Iter_less_iterEEvT_S9_RT0_(i64* %0, i64* %1, %"struct.__gnu_cxx::__ops::_Iter_less_iter"* nonnull align 1 dereferenceable(1) %4) #20
  ret void
}

; Function Attrs: inlinehint minsize optsize sspstrong uwtable
define linkonce_odr dso_local i64* @_ZSt27__unguarded_partition_pivotIN9__gnu_cxx17__normal_iteratorIPxSt6vectorIxSaIxEEEENS0_5__ops15_Iter_less_iterEET_S9_S9_T0_(i64* %0, i64* %1) local_unnamed_addr #13 comdat {
  %3 = ptrtoint i64* %1 to i64
  %4 = ptrtoint i64* %0 to i64
  %5 = sub i64 %3, %4
  %6 = ashr exact i64 %5, 3
  %7 = sdiv i64 %6, 2
  %8 = getelementptr inbounds i64, i64* %0, i64 %7
  %9 = getelementptr inbounds i64, i64* %0, i64 1
  %10 = getelementptr inbounds i64, i64* %1, i64 -1
  tail call void @_ZSt22__move_median_to_firstIN9__gnu_cxx17__normal_iteratorIPxSt6vectorIxSaIxEEEENS0_5__ops15_Iter_less_iterEEvT_S9_S9_S9_T0_(i64* %0, i64* nonnull %9, i64* %8, i64* nonnull %10) #20
  %11 = tail call i64* @_ZSt21__unguarded_partitionIN9__gnu_cxx17__normal_iteratorIPxSt6vectorIxSaIxEEEENS0_5__ops15_Iter_less_iterEET_S9_S9_S9_T0_(i64* nonnull %9, i64* %1, i64* %0) #20
  ret i64* %11
}

; Function Attrs: minsize mustprogress optsize sspstrong uwtable
define linkonce_odr dso_local void @_ZSt13__heap_selectIN9__gnu_cxx17__normal_iteratorIPxSt6vectorIxSaIxEEEENS0_5__ops15_Iter_less_iterEEvT_S9_S9_T0_(i64* %0, i64* %1, i64* %2) local_unnamed_addr #8 comdat {
  %4 = alloca %"struct.__gnu_cxx::__ops::_Iter_less_iter", align 1
  call void @_ZSt11__make_heapIN9__gnu_cxx17__normal_iteratorIPxSt6vectorIxSaIxEEEENS0_5__ops15_Iter_less_iterEEvT_S9_RT0_(i64* %0, i64* %1, %"struct.__gnu_cxx::__ops::_Iter_less_iter"* nonnull align 1 dereferenceable(1) %4) #20
  br label %5

5:                                                ; preds = %14, %3
  %6 = phi i64* [ %1, %3 ], [ %15, %14 ]
  %7 = icmp ult i64* %6, %2
  br i1 %7, label %9, label %8

8:                                                ; preds = %5
  ret void

9:                                                ; preds = %5
  %10 = load i64, i64* %6, align 8, !tbaa !9
  %11 = load i64, i64* %0, align 8, !tbaa !9
  %12 = icmp slt i64 %10, %11
  br i1 %12, label %13, label %14

13:                                               ; preds = %9
  call void @_ZSt10__pop_heapIN9__gnu_cxx17__normal_iteratorIPxSt6vectorIxSaIxEEEENS0_5__ops15_Iter_less_iterEEvT_S9_S9_RT0_(i64* nonnull %0, i64* %1, i64* nonnull %6, %"struct.__gnu_cxx::__ops::_Iter_less_iter"* nonnull align 1 dereferenceable(1) %4) #20
  br label %14

14:                                               ; preds = %9, %13
  %15 = getelementptr inbounds i64, i64* %6, i64 1
  br label %5, !llvm.loop !33
}

; Function Attrs: minsize mustprogress optsize sspstrong uwtable
define linkonce_odr dso_local void @_ZSt11__sort_heapIN9__gnu_cxx17__normal_iteratorIPxSt6vectorIxSaIxEEEENS0_5__ops15_Iter_less_iterEEvT_S9_RT0_(i64* %0, i64* %1, %"struct.__gnu_cxx::__ops::_Iter_less_iter"* nonnull align 1 dereferenceable(1) %2) local_unnamed_addr #8 comdat {
  %4 = ptrtoint i64* %0 to i64
  br label %5

5:                                                ; preds = %10, %3
  %6 = phi i64* [ %1, %3 ], [ %11, %10 ]
  %7 = ptrtoint i64* %6 to i64
  %8 = sub i64 %7, %4
  %9 = icmp sgt i64 %8, 8
  br i1 %9, label %10, label %12

10:                                               ; preds = %5
  %11 = getelementptr inbounds i64, i64* %6, i64 -1
  tail call void @_ZSt10__pop_heapIN9__gnu_cxx17__normal_iteratorIPxSt6vectorIxSaIxEEEENS0_5__ops15_Iter_less_iterEEvT_S9_S9_RT0_(i64* %0, i64* nonnull %11, i64* nonnull %11, %"struct.__gnu_cxx::__ops::_Iter_less_iter"* nonnull align 1 dereferenceable(1) %2) #20
  br label %5, !llvm.loop !34

12:                                               ; preds = %5
  ret void
}

; Function Attrs: minsize optsize sspstrong uwtable
define linkonce_odr dso_local void @_ZSt11__make_heapIN9__gnu_cxx17__normal_iteratorIPxSt6vectorIxSaIxEEEENS0_5__ops15_Iter_less_iterEEvT_S9_RT0_(i64* %0, i64* %1, %"struct.__gnu_cxx::__ops::_Iter_less_iter"* nonnull align 1 dereferenceable(1) %2) local_unnamed_addr #6 comdat {
  %4 = ptrtoint i64* %1 to i64
  %5 = ptrtoint i64* %0 to i64
  %6 = sub i64 %4, %5
  %7 = ashr exact i64 %6, 3
  %8 = icmp slt i64 %6, 16
  br i1 %8, label %18, label %9

9:                                                ; preds = %3
  %10 = add nsw i64 %7, -2
  %11 = lshr i64 %10, 1
  br label %12

12:                                               ; preds = %12, %9
  %13 = phi i64 [ %11, %9 ], [ %17, %12 ]
  %14 = getelementptr inbounds i64, i64* %0, i64 %13
  %15 = load i64, i64* %14, align 8, !tbaa !9
  tail call void @_ZSt13__adjust_heapIN9__gnu_cxx17__normal_iteratorIPxSt6vectorIxSaIxEEEElxNS0_5__ops15_Iter_less_iterEEvT_T0_SA_T1_T2_(i64* %0, i64 %13, i64 %7, i64 %15) #20
  %16 = icmp eq i64 %13, 0
  %17 = add nsw i64 %13, -1
  br i1 %16, label %18, label %12, !llvm.loop !35

18:                                               ; preds = %12, %3
  ret void
}

; Function Attrs: inlinehint minsize mustprogress optsize sspstrong uwtable
define linkonce_odr dso_local void @_ZSt10__pop_heapIN9__gnu_cxx17__normal_iteratorIPxSt6vectorIxSaIxEEEENS0_5__ops15_Iter_less_iterEEvT_S9_S9_RT0_(i64* %0, i64* %1, i64* %2, %"struct.__gnu_cxx::__ops::_Iter_less_iter"* nonnull align 1 dereferenceable(1) %3) local_unnamed_addr #7 comdat {
  %5 = load i64, i64* %2, align 8, !tbaa !9
  %6 = load i64, i64* %0, align 8, !tbaa !9
  store i64 %6, i64* %2, align 8, !tbaa !9
  %7 = ptrtoint i64* %1 to i64
  %8 = ptrtoint i64* %0 to i64
  %9 = sub i64 %7, %8
  %10 = ashr exact i64 %9, 3
  tail call void @_ZSt13__adjust_heapIN9__gnu_cxx17__normal_iteratorIPxSt6vectorIxSaIxEEEElxNS0_5__ops15_Iter_less_iterEEvT_T0_SA_T1_T2_(i64* nonnull %0, i64 0, i64 %10, i64 %5) #20
  ret void
}

; Function Attrs: minsize optsize sspstrong uwtable
define linkonce_odr dso_local void @_ZSt13__adjust_heapIN9__gnu_cxx17__normal_iteratorIPxSt6vectorIxSaIxEEEElxNS0_5__ops15_Iter_less_iterEEvT_T0_SA_T1_T2_(i64* %0, i64 %1, i64 %2, i64 %3) local_unnamed_addr #6 comdat {
  %5 = alloca %"struct.__gnu_cxx::__ops::_Iter_less_val", align 1
  %6 = add nsw i64 %2, -1
  %7 = sdiv i64 %6, 2
  br label %8

8:                                                ; preds = %11, %4
  %9 = phi i64 [ %1, %4 ], [ %20, %11 ]
  %10 = icmp slt i64 %9, %7
  br i1 %10, label %11, label %24

11:                                               ; preds = %8
  %12 = shl i64 %9, 1
  %13 = add i64 %12, 2
  %14 = getelementptr inbounds i64, i64* %0, i64 %13
  %15 = or i64 %12, 1
  %16 = getelementptr inbounds i64, i64* %0, i64 %15
  %17 = load i64, i64* %14, align 8, !tbaa !9
  %18 = load i64, i64* %16, align 8, !tbaa !9
  %19 = icmp slt i64 %17, %18
  %20 = select i1 %19, i64 %15, i64 %13
  %21 = getelementptr inbounds i64, i64* %0, i64 %20
  %22 = load i64, i64* %21, align 8, !tbaa !9
  %23 = getelementptr inbounds i64, i64* %0, i64 %9
  store i64 %22, i64* %23, align 8, !tbaa !9
  br label %8, !llvm.loop !36

24:                                               ; preds = %8
  %25 = and i64 %2, 1
  %26 = icmp eq i64 %25, 0
  br i1 %26, label %27, label %37

27:                                               ; preds = %24
  %28 = add nsw i64 %2, -2
  %29 = sdiv i64 %28, 2
  %30 = icmp eq i64 %9, %29
  br i1 %30, label %31, label %37

31:                                               ; preds = %27
  %32 = shl i64 %9, 1
  %33 = or i64 %32, 1
  %34 = getelementptr inbounds i64, i64* %0, i64 %33
  %35 = load i64, i64* %34, align 8, !tbaa !9
  %36 = getelementptr inbounds i64, i64* %0, i64 %9
  store i64 %35, i64* %36, align 8, !tbaa !9
  br label %37

37:                                               ; preds = %31, %27, %24
  %38 = phi i64 [ %33, %31 ], [ %9, %27 ], [ %9, %24 ]
  %39 = getelementptr inbounds %"struct.__gnu_cxx::__ops::_Iter_less_val", %"struct.__gnu_cxx::__ops::_Iter_less_val"* %5, i64 0, i32 0
  call void @llvm.lifetime.start.p0i8(i64 1, i8* nonnull %39) #19
  call void @_ZSt11__push_heapIN9__gnu_cxx17__normal_iteratorIPxSt6vectorIxSaIxEEEElxNS0_5__ops14_Iter_less_valEEvT_T0_SA_T1_RT2_(i64* %0, i64 %38, i64 %1, i64 %3, %"struct.__gnu_cxx::__ops::_Iter_less_val"* nonnull align 1 dereferenceable(1) %5) #20
  call void @llvm.lifetime.end.p0i8(i64 1, i8* nonnull %39) #19
  ret void
}

; Function Attrs: minsize optsize sspstrong uwtable
define linkonce_odr dso_local void @_ZSt11__push_heapIN9__gnu_cxx17__normal_iteratorIPxSt6vectorIxSaIxEEEElxNS0_5__ops14_Iter_less_valEEvT_T0_SA_T1_RT2_(i64* %0, i64 %1, i64 %2, i64 %3, %"struct.__gnu_cxx::__ops::_Iter_less_val"* nonnull align 1 dereferenceable(1) %4) local_unnamed_addr #6 comdat {
  br label %6

6:                                                ; preds = %15, %5
  %7 = phi i64 [ %1, %5 ], [ %9, %15 ]
  %8 = add nsw i64 %7, -1
  %9 = sdiv i64 %8, 2
  %10 = icmp sgt i64 %7, %2
  br i1 %10, label %11, label %17

11:                                               ; preds = %6
  %12 = getelementptr inbounds i64, i64* %0, i64 %9
  %13 = load i64, i64* %12, align 8, !tbaa !9
  %14 = icmp slt i64 %13, %3
  br i1 %14, label %15, label %17

15:                                               ; preds = %11
  %16 = getelementptr inbounds i64, i64* %0, i64 %7
  store i64 %13, i64* %16, align 8, !tbaa !9
  br label %6, !llvm.loop !37

17:                                               ; preds = %6, %11
  %18 = getelementptr inbounds i64, i64* %0, i64 %7
  store i64 %3, i64* %18, align 8, !tbaa !9
  ret void
}

; Function Attrs: minsize mustprogress optsize sspstrong uwtable
define linkonce_odr dso_local void @_ZSt22__move_median_to_firstIN9__gnu_cxx17__normal_iteratorIPxSt6vectorIxSaIxEEEENS0_5__ops15_Iter_less_iterEEvT_S9_S9_S9_T0_(i64* %0, i64* %1, i64* %2, i64* %3) local_unnamed_addr #8 comdat {
  %5 = load i64, i64* %1, align 8, !tbaa !9
  %6 = load i64, i64* %2, align 8, !tbaa !9
  %7 = icmp slt i64 %5, %6
  %8 = load i64, i64* %3, align 8, !tbaa !9
  br i1 %7, label %9, label %18

9:                                                ; preds = %4
  %10 = icmp slt i64 %6, %8
  br i1 %10, label %11, label %13

11:                                               ; preds = %9
  %12 = load i64, i64* %0, align 8, !tbaa !9
  store i64 %6, i64* %0, align 8, !tbaa !9
  store i64 %12, i64* %2, align 8, !tbaa !9
  br label %27

13:                                               ; preds = %9
  %14 = icmp slt i64 %5, %8
  %15 = load i64, i64* %0, align 8, !tbaa !9
  br i1 %14, label %16, label %17

16:                                               ; preds = %13
  store i64 %8, i64* %0, align 8, !tbaa !9
  store i64 %15, i64* %3, align 8, !tbaa !9
  br label %27

17:                                               ; preds = %13
  store i64 %5, i64* %0, align 8, !tbaa !9
  store i64 %15, i64* %1, align 8, !tbaa !9
  br label %27

18:                                               ; preds = %4
  %19 = icmp slt i64 %5, %8
  br i1 %19, label %20, label %22

20:                                               ; preds = %18
  %21 = load i64, i64* %0, align 8, !tbaa !9
  store i64 %5, i64* %0, align 8, !tbaa !9
  store i64 %21, i64* %1, align 8, !tbaa !9
  br label %27

22:                                               ; preds = %18
  %23 = icmp slt i64 %6, %8
  %24 = load i64, i64* %0, align 8, !tbaa !9
  br i1 %23, label %25, label %26

25:                                               ; preds = %22
  store i64 %8, i64* %0, align 8, !tbaa !9
  store i64 %24, i64* %3, align 8, !tbaa !9
  br label %27

26:                                               ; preds = %22
  store i64 %6, i64* %0, align 8, !tbaa !9
  store i64 %24, i64* %2, align 8, !tbaa !9
  br label %27

27:                                               ; preds = %20, %26, %25, %11, %17, %16
  ret void
}

; Function Attrs: minsize mustprogress nounwind optsize sspstrong uwtable
define linkonce_odr dso_local i64* @_ZSt21__unguarded_partitionIN9__gnu_cxx17__normal_iteratorIPxSt6vectorIxSaIxEEEENS0_5__ops15_Iter_less_iterEET_S9_S9_S9_T0_(i64* %0, i64* %1, i64* %2) local_unnamed_addr #14 comdat {
  br label %4

4:                                                ; preds = %3, %21
  %5 = phi i64* [ %0, %3 ], [ %12, %21 ]
  %6 = phi i64* [ %1, %3 ], [ %15, %21 ]
  %7 = load i64, i64* %2, align 8, !tbaa !9
  br label %8

8:                                                ; preds = %8, %4
  %9 = phi i64* [ %5, %4 ], [ %12, %8 ]
  %10 = load i64, i64* %9, align 8, !tbaa !9
  %11 = icmp slt i64 %10, %7
  %12 = getelementptr inbounds i64, i64* %9, i64 1
  br i1 %11, label %8, label %13, !llvm.loop !38

13:                                               ; preds = %8, %13
  %14 = phi i64* [ %15, %13 ], [ %6, %8 ]
  %15 = getelementptr inbounds i64, i64* %14, i64 -1
  %16 = load i64, i64* %15, align 8, !tbaa !9
  %17 = icmp slt i64 %7, %16
  br i1 %17, label %13, label %18, !llvm.loop !39

18:                                               ; preds = %13
  %19 = icmp ult i64* %9, %15
  br i1 %19, label %21, label %20

20:                                               ; preds = %18
  ret i64* %9

21:                                               ; preds = %18
  store i64 %16, i64* %9, align 8, !tbaa !9
  store i64 %10, i64* %15, align 8, !tbaa !9
  br label %4, !llvm.loop !40
}

; Function Attrs: mustprogress nofree nosync nounwind readnone speculatable willreturn
declare i64 @llvm.ctlz.i64(i64, i1 immarg) #15

; Function Attrs: minsize optsize sspstrong uwtable
define linkonce_odr dso_local void @_ZSt16__insertion_sortIN9__gnu_cxx17__normal_iteratorIPxSt6vectorIxSaIxEEEENS0_5__ops15_Iter_less_iterEEvT_S9_T0_(i64* %0, i64* %1) local_unnamed_addr #6 comdat {
  %3 = icmp eq i64* %0, %1
  br i1 %3, label %27, label %4

4:                                                ; preds = %2
  %5 = ptrtoint i64* %0 to i64
  %6 = bitcast i64* %0 to i8*
  br label %7

7:                                                ; preds = %25, %4
  %8 = phi i64* [ %0, %4 ], [ %9, %25 ]
  %9 = getelementptr inbounds i64, i64* %8, i64 1
  %10 = icmp eq i64* %9, %1
  br i1 %10, label %27, label %11

11:                                               ; preds = %7
  %12 = load i64, i64* %9, align 8, !tbaa !9
  %13 = load i64, i64* %0, align 8, !tbaa !9
  %14 = icmp slt i64 %12, %13
  br i1 %14, label %15, label %26

15:                                               ; preds = %11
  %16 = ptrtoint i64* %9 to i64
  %17 = sub i64 %16, %5
  %18 = icmp eq i64 %17, 0
  br i1 %18, label %24, label %19

19:                                               ; preds = %15
  %20 = ashr exact i64 %17, 3
  %21 = sub nsw i64 2, %20
  %22 = getelementptr inbounds i64, i64* %8, i64 %21
  %23 = bitcast i64* %22 to i8*
  tail call void @llvm.memmove.p0i8.p0i8.i64(i8* nonnull align 8 %23, i8* nonnull align 8 %6, i64 %17, i1 false) #19
  br label %24

24:                                               ; preds = %15, %19
  store i64 %12, i64* %0, align 8, !tbaa !9
  br label %25

25:                                               ; preds = %24, %26
  br label %7, !llvm.loop !41

26:                                               ; preds = %11
  tail call void @_ZSt25__unguarded_linear_insertIN9__gnu_cxx17__normal_iteratorIPxSt6vectorIxSaIxEEEENS0_5__ops14_Val_less_iterEEvT_T0_(i64* nonnull %9) #20
  br label %25

27:                                               ; preds = %7, %2
  ret void
}

; Function Attrs: inlinehint minsize mustprogress optsize sspstrong uwtable
define linkonce_odr dso_local void @_ZSt26__unguarded_insertion_sortIN9__gnu_cxx17__normal_iteratorIPxSt6vectorIxSaIxEEEENS0_5__ops15_Iter_less_iterEEvT_S9_T0_(i64* %0, i64* %1) local_unnamed_addr #7 comdat {
  br label %3

3:                                                ; preds = %7, %2
  %4 = phi i64* [ %0, %2 ], [ %8, %7 ]
  %5 = icmp eq i64* %4, %1
  br i1 %5, label %6, label %7

6:                                                ; preds = %3
  ret void

7:                                                ; preds = %3
  tail call void @_ZSt25__unguarded_linear_insertIN9__gnu_cxx17__normal_iteratorIPxSt6vectorIxSaIxEEEENS0_5__ops14_Val_less_iterEEvT_T0_(i64* %4) #20
  %8 = getelementptr inbounds i64, i64* %4, i64 1
  br label %3, !llvm.loop !42
}

; Function Attrs: minsize mustprogress optsize sspstrong uwtable
define linkonce_odr dso_local void @_ZSt25__unguarded_linear_insertIN9__gnu_cxx17__normal_iteratorIPxSt6vectorIxSaIxEEEENS0_5__ops14_Val_less_iterEEvT_T0_(i64* %0) local_unnamed_addr #8 comdat {
  %2 = load i64, i64* %0, align 8, !tbaa !9
  br label %3

3:                                                ; preds = %8, %1
  %4 = phi i64* [ %0, %1 ], [ %5, %8 ]
  %5 = getelementptr inbounds i64, i64* %4, i64 -1
  %6 = load i64, i64* %5, align 8, !tbaa !9
  %7 = icmp slt i64 %2, %6
  br i1 %7, label %8, label %9

8:                                                ; preds = %3
  store i64 %6, i64* %4, align 8, !tbaa !9
  br label %3, !llvm.loop !43

9:                                                ; preds = %3
  store i64 %2, i64* %4, align 8, !tbaa !9
  ret void
}

; Function Attrs: argmemonly mustprogress nofree nounwind willreturn
declare void @llvm.memmove.p0i8.p0i8.i64(i8* nocapture writeonly, i8* nocapture readonly, i64, i1 immarg) #16

; Function Attrs: minsize optsize
declare nonnull align 8 dereferenceable(8) %"class.std::basic_ostream"* @_ZNSo9_M_insertIxEERSoT_(%"class.std::basic_ostream"* nonnull align 8 dereferenceable(8), i64) local_unnamed_addr #0

; Function Attrs: minsize optsize sspstrong uwtable
define internal void @_GLOBAL__sub_I_s852659497.cpp() #6 section ".text.startup" {
  tail call void @_ZNSt8ios_base4InitC1Ev(%"class.std::ios_base::Init"* nonnull align 1 dereferenceable(1) @_ZStL8__ioinit) #20
  %1 = tail call i32 @__cxa_atexit(void (i8*)* bitcast (void (%"class.std::ios_base::Init"*)* @_ZNSt8ios_base4InitD1Ev to void (i8*)*), i8* getelementptr inbounds (%"class.std::ios_base::Init", %"class.std::ios_base::Init"* @_ZStL8__ioinit, i64 0, i32 0), i8* nonnull @__dso_handle) #19
  ret void
}

; Function Attrs: argmemonly nofree nounwind willreturn writeonly
declare void @llvm.memset.p0i8.i64(i8* nocapture writeonly, i8, i64, i1 immarg) #17

; Function Attrs: nofree nosync nounwind readnone speculatable willreturn
declare i32 @llvm.smax.i32(i32, i32) #18

attributes #0 = { minsize optsize "frame-pointer"="none" "no-trapping-math"="true" "stack-protector-buffer-size"="8" "target-cpu"="x86-64" "target-features"="+cx8,+fxsr,+mmx,+sse,+sse2,+x87" "tune-cpu"="generic" }
attributes #1 = { minsize nounwind optsize "frame-pointer"="none" "no-trapping-math"="true" "stack-protector-buffer-size"="8" "target-cpu"="x86-64" "target-features"="+cx8,+fxsr,+mmx,+sse,+sse2,+x87" "tune-cpu"="generic" }
attributes #2 = { nofree nounwind }
attributes #3 = { minsize norecurse optsize sspstrong uwtable "frame-pointer"="none" "min-legal-vector-width"="0" "no-trapping-math"="true" "stack-protector-buffer-size"="8" "target-cpu"="x86-64" "target-features"="+cx8,+fxsr,+mmx,+sse,+sse2,+x87" "tune-cpu"="generic" }
attributes #4 = { argmemonly mustprogress nofree nosync nounwind willreturn }
attributes #5 = { mustprogress nofree nosync nounwind willreturn }
attributes #6 = { minsize optsize sspstrong uwtable "frame-pointer"="none" "min-legal-vector-width"="0" "no-trapping-math"="true" "stack-protector-buffer-size"="8" "target-cpu"="x86-64" "target-features"="+cx8,+fxsr,+mmx,+sse,+sse2,+x87" "tune-cpu"="generic" }
attributes #7 = { inlinehint minsize mustprogress optsize sspstrong uwtable "frame-pointer"="none" "min-legal-vector-width"="0" "no-trapping-math"="true" "stack-protector-buffer-size"="8" "target-cpu"="x86-64" "target-features"="+cx8,+fxsr,+mmx,+sse,+sse2,+x87" "tune-cpu"="generic" }
attributes #8 = { minsize mustprogress optsize sspstrong uwtable "frame-pointer"="none" "min-legal-vector-width"="0" "no-trapping-math"="true" "stack-protector-buffer-size"="8" "target-cpu"="x86-64" "target-features"="+cx8,+fxsr,+mmx,+sse,+sse2,+x87" "tune-cpu"="generic" }
attributes #9 = { minsize nounwind optsize sspstrong uwtable "frame-pointer"="none" "min-legal-vector-width"="0" "no-trapping-math"="true" "stack-protector-buffer-size"="8" "target-cpu"="x86-64" "target-features"="+cx8,+fxsr,+mmx,+sse,+sse2,+x87" "tune-cpu"="generic" }
attributes #10 = { minsize noreturn optsize "frame-pointer"="none" "no-trapping-math"="true" "stack-protector-buffer-size"="8" "target-cpu"="x86-64" "target-features"="+cx8,+fxsr,+mmx,+sse,+sse2,+x87" "tune-cpu"="generic" }
attributes #11 = { minsize nobuiltin optsize allocsize(0) "frame-pointer"="none" "no-trapping-math"="true" "stack-protector-buffer-size"="8" "target-cpu"="x86-64" "target-features"="+cx8,+fxsr,+mmx,+sse,+sse2,+x87" "tune-cpu"="generic" }
attributes #12 = { minsize nobuiltin nounwind optsize "frame-pointer"="none" "no-trapping-math"="true" "stack-protector-buffer-size"="8" "target-cpu"="x86-64" "target-features"="+cx8,+fxsr,+mmx,+sse,+sse2,+x87" "tune-cpu"="generic" }
attributes #13 = { inlinehint minsize optsize sspstrong uwtable "frame-pointer"="none" "min-legal-vector-width"="0" "no-trapping-math"="true" "stack-protector-buffer-size"="8" "target-cpu"="x86-64" "target-features"="+cx8,+fxsr,+mmx,+sse,+sse2,+x87" "tune-cpu"="generic" }
attributes #14 = { minsize mustprogress nounwind optsize sspstrong uwtable "frame-pointer"="none" "min-legal-vector-width"="0" "no-trapping-math"="true" "stack-protector-buffer-size"="8" "target-cpu"="x86-64" "target-features"="+cx8,+fxsr,+mmx,+sse,+sse2,+x87" "tune-cpu"="generic" }
attributes #15 = { mustprogress nofree nosync nounwind readnone speculatable willreturn }
attributes #16 = { argmemonly mustprogress nofree nounwind willreturn }
attributes #17 = { argmemonly nofree nounwind willreturn writeonly }
attributes #18 = { nofree nosync nounwind readnone speculatable willreturn }
attributes #19 = { nounwind }
attributes #20 = { minsize optsize }
attributes #21 = { minsize nounwind optsize }
attributes #22 = { minsize noreturn optsize }
attributes #23 = { minsize optsize allocsize(0) }

!llvm.module.flags = !{!0, !1, !2, !3}
!llvm.ident = !{!4}

!0 = !{i32 1, !"wchar_size", i32 4}
!1 = !{i32 7, !"PIC Level", i32 2}
!2 = !{i32 7, !"PIE Level", i32 2}
!3 = !{i32 7, !"uwtable", i32 1}
!4 = !{!"clang version 13.0.0"}
!5 = !{!6, !6, i64 0}
!6 = !{!"int", !7, i64 0}
!7 = !{!"omnipotent char", !8, i64 0}
!8 = !{!"Simple C++ TBAA"}
!9 = !{!10, !10, i64 0}
!10 = !{!"long long", !7, i64 0}
!11 = distinct !{!11, !12}
!12 = !{!"llvm.loop.mustprogress"}
!13 = distinct !{!13, !12}
!14 = !{!15, !16, i64 8}
!15 = !{!"_ZTSNSt12_Vector_baseIxSaIxEE17_Vector_impl_dataE", !16, i64 0, !16, i64 8, !16, i64 16}
!16 = !{!"any pointer", !7, i64 0}
!17 = !{!15, !16, i64 0}
!18 = distinct !{!18, !12}
!19 = distinct !{!19, !12}
!20 = distinct !{!20, !12}
!21 = distinct !{!21, !12}
!22 = distinct !{!22, !12}
!23 = !{!16, !16, i64 0}
!24 = distinct !{!24, !12}
!25 = distinct !{!25, !12}
!26 = distinct !{!26, !12}
!27 = distinct !{!27, !12}
!28 = !{!15, !16, i64 16}
!29 = !{!"branch_weights", i32 1, i32 2000}
!30 = distinct !{!30, !12}
!31 = !{i64 0, i64 65}
!32 = distinct !{!32, !12}
!33 = distinct !{!33, !12}
!34 = distinct !{!34, !12}
!35 = distinct !{!35, !12}
!36 = distinct !{!36, !12}
!37 = distinct !{!37, !12}
!38 = distinct !{!38, !12}
!39 = distinct !{!39, !12}
!40 = distinct !{!40, !12}
!41 = distinct !{!41, !12}
!42 = distinct !{!42, !12}
!43 = distinct !{!43, !12}
