; ModuleID = 'Project_CodeNet_C++1400/p02763/s938582912.cpp'
source_filename = "Project_CodeNet_C++1400/p02763/s938582912.cpp"
target datalayout = "e-m:e-p270:32:32-p271:32:32-p272:64:64-i64:64-f80:128-n8:16:32:64-S128"
target triple = "x86_64-pc-linux-gnu"

%"class.std::ios_base::Init" = type { i8 }
%"class.std::basic_istream" = type { i32 (...)**, i64, %"class.std::basic_ios" }
%"class.std::basic_ios" = type { %"class.std::ios_base", %"class.std::basic_ostream"*, i8, i8, %"class.std::basic_streambuf"*, %"class.std::ctype"*, %"class.std::num_put"*, %"class.std::num_get"* }
%"class.std::ios_base" = type { i32 (...)**, i64, i64, i32, i32, i32, %"struct.std::ios_base::_Callback_list"*, %"struct.std::ios_base::_Words", [8 x %"struct.std::ios_base::_Words"], i32, %"struct.std::ios_base::_Words"*, %"class.std::locale" }
%"struct.std::ios_base::_Callback_list" = type { %"struct.std::ios_base::_Callback_list"*, void (i32, %"class.std::ios_base"*, i32)*, i32, i32 }
%"struct.std::ios_base::_Words" = type { i8*, i64 }
%"class.std::locale" = type { %"class.std::locale::_Impl"* }
%"class.std::locale::_Impl" = type { i32, %"class.std::locale::facet"**, i64, %"class.std::locale::facet"**, i8** }
%"class.std::locale::facet" = type <{ i32 (...)**, i32, [4 x i8] }>
%"class.std::basic_ostream" = type { i32 (...)**, %"class.std::basic_ios" }
%"class.std::basic_streambuf" = type { i32 (...)**, i8*, i8*, i8*, i8*, i8*, i8*, %"class.std::locale" }
%"class.std::ctype" = type <{ %"class.std::locale::facet.base", [4 x i8], %struct.__locale_struct*, i8, [7 x i8], i32*, i32*, i16*, i8, [256 x i8], [256 x i8], i8, [6 x i8] }>
%"class.std::locale::facet.base" = type <{ i32 (...)**, i32 }>
%struct.__locale_struct = type { [13 x %struct.__locale_data*], i16*, i32*, i32*, [13 x i8*] }
%struct.__locale_data = type opaque
%"class.std::num_put" = type { %"class.std::locale::facet.base", [4 x i8] }
%"class.std::num_get" = type { %"class.std::locale::facet.base", [4 x i8] }
%"class.std::__cxx11::basic_string" = type { %"struct.std::__cxx11::basic_string<char>::_Alloc_hider", i64, %union.anon }
%"struct.std::__cxx11::basic_string<char>::_Alloc_hider" = type { i8* }
%union.anon = type { i64, [8 x i8] }
%"class.std::vector" = type { %"struct.std::_Vector_base" }
%"struct.std::_Vector_base" = type { %"struct.std::_Vector_base<std::vector<int>, std::allocator<std::vector<int>>>::_Vector_impl" }
%"struct.std::_Vector_base<std::vector<int>, std::allocator<std::vector<int>>>::_Vector_impl" = type { %"struct.std::_Vector_base<std::vector<int>, std::allocator<std::vector<int>>>::_Vector_impl_data" }
%"struct.std::_Vector_base<std::vector<int>, std::allocator<std::vector<int>>>::_Vector_impl_data" = type { %"class.std::vector.3"*, %"class.std::vector.3"*, %"class.std::vector.3"* }
%"class.std::vector.3" = type { %"struct.std::_Vector_base.4" }
%"struct.std::_Vector_base.4" = type { %"struct.std::_Vector_base<int, std::allocator<int>>::_Vector_impl" }
%"struct.std::_Vector_base<int, std::allocator<int>>::_Vector_impl" = type { %"struct.std::_Vector_base<int, std::allocator<int>>::_Vector_impl_data" }
%"struct.std::_Vector_base<int, std::allocator<int>>::_Vector_impl_data" = type { i32*, i32*, i32* }

$_ZNSt6vectorIS_IiSaIiEESaIS1_EED2Ev = comdat any

$__clang_call_terminate = comdat any

$_ZNSt22__uninitialized_fill_nILb0EE15__uninit_fill_nIPSt6vectorIiSaIiEEmS4_EET_S6_T0_RKT1_ = comdat any

@_ZStL8__ioinit = internal global %"class.std::ios_base::Init" zeroinitializer, align 1
@__dso_handle = external hidden global i8
@_ZSt3cin = external global %"class.std::basic_istream", align 8
@_ZSt4cout = external global %"class.std::basic_ostream", align 8
@.str = private unnamed_addr constant [49 x i8] c"cannot create std::vector larger than max_size()\00", align 1
@.str.1 = private unnamed_addr constant [26 x i8] c"vector::_M_realloc_insert\00", align 1
@llvm.global_ctors = appending global [1 x { i32, void ()*, i8* }] [{ i32, void ()*, i8* } { i32 65535, void ()* @_GLOBAL__sub_I_s938582912.cpp, i8* null }]

declare void @_ZNSt8ios_base4InitC1Ev(%"class.std::ios_base::Init"* nonnull align 1 dereferenceable(1)) unnamed_addr #0

; Function Attrs: nounwind
declare void @_ZNSt8ios_base4InitD1Ev(%"class.std::ios_base::Init"* nonnull align 1 dereferenceable(1)) unnamed_addr #1

; Function Attrs: nofree nounwind
declare i32 @__cxa_atexit(void (i8*)*, i8*, i8*) local_unnamed_addr #2

; Function Attrs: norecurse sspstrong uwtable
define dso_local i32 @main() local_unnamed_addr #3 personality i8* bitcast (i32 (...)* @__gxx_personality_v0 to i8*) {
  %1 = alloca i32, align 4
  %2 = alloca %"class.std::__cxx11::basic_string", align 8
  %3 = alloca i32, align 4
  %4 = alloca %"class.std::vector", align 8
  %5 = alloca %"class.std::vector.3", align 8
  %6 = alloca [26 x %"class.std::vector.3"], align 16
  %7 = bitcast [26 x %"class.std::vector.3"]* %6 to i8*
  %8 = alloca [26 x %"class.std::vector.3"], align 16
  %9 = bitcast [26 x %"class.std::vector.3"]* %8 to i8*
  %10 = alloca i32, align 4
  %11 = alloca i32, align 4
  %12 = alloca i8, align 1
  %13 = alloca i32, align 4
  %14 = alloca i32, align 4
  %15 = bitcast i32* %1 to i8*
  call void @llvm.lifetime.start.p0i8(i64 4, i8* nonnull %15) #14
  %16 = bitcast %"class.std::__cxx11::basic_string"* %2 to i8*
  call void @llvm.lifetime.start.p0i8(i64 32, i8* nonnull %16) #14
  %17 = getelementptr inbounds %"class.std::__cxx11::basic_string", %"class.std::__cxx11::basic_string"* %2, i64 0, i32 2
  %18 = bitcast %"class.std::__cxx11::basic_string"* %2 to %union.anon**
  store %union.anon* %17, %union.anon** %18, align 8, !tbaa !5
  %19 = getelementptr inbounds %"class.std::__cxx11::basic_string", %"class.std::__cxx11::basic_string"* %2, i64 0, i32 1
  store i64 0, i64* %19, align 8, !tbaa !10
  %20 = bitcast %union.anon* %17 to i8*
  store i8 0, i8* %20, align 8, !tbaa !13
  %21 = bitcast i32* %3 to i8*
  call void @llvm.lifetime.start.p0i8(i64 4, i8* nonnull %21) #14
  %22 = invoke nonnull align 8 dereferenceable(16) %"class.std::basic_istream"* @_ZNSirsERi(%"class.std::basic_istream"* nonnull align 8 dereferenceable(16) @_ZSt3cin, i32* nonnull align 4 dereferenceable(4) %1)
          to label %23 unwind label %77

23:                                               ; preds = %0
  %24 = invoke nonnull align 8 dereferenceable(16) %"class.std::basic_istream"* @_ZStrsIcSt11char_traitsIcESaIcEERSt13basic_istreamIT_T0_ES7_RNSt7__cxx1112basic_stringIS4_S5_T1_EE(%"class.std::basic_istream"* nonnull align 8 dereferenceable(16) %22, %"class.std::__cxx11::basic_string"* nonnull align 8 dereferenceable(32) %2)
          to label %25 unwind label %77

25:                                               ; preds = %23
  %26 = invoke nonnull align 8 dereferenceable(16) %"class.std::basic_istream"* @_ZNSirsERi(%"class.std::basic_istream"* nonnull align 8 dereferenceable(16) %24, i32* nonnull align 4 dereferenceable(4) %3)
          to label %27 unwind label %77

27:                                               ; preds = %25
  %28 = bitcast %"class.std::vector"* %4 to i8*
  call void @llvm.lifetime.start.p0i8(i64 24, i8* nonnull %28) #14
  %29 = load i32, i32* %1, align 4, !tbaa !14
  %30 = bitcast %"class.std::vector.3"* %5 to i8*
  call void @llvm.lifetime.start.p0i8(i64 24, i8* nonnull %30) #14
  call void @llvm.memset.p0i8.i64(i8* noundef nonnull align 8 dereferenceable(24) %30, i8 0, i64 24, i1 false) #14
  %31 = invoke noalias nonnull i8* @_Znwm(i64 104) #15
          to label %32 unwind label %79

32:                                               ; preds = %27
  %33 = getelementptr inbounds %"class.std::vector.3", %"class.std::vector.3"* %5, i64 0, i32 0, i32 0, i32 0, i32 0
  %34 = bitcast %"class.std::vector.3"* %5 to i8**
  store i8* %31, i8** %34, align 8, !tbaa !16
  %35 = getelementptr inbounds i8, i8* %31, i64 104
  %36 = getelementptr inbounds %"class.std::vector.3", %"class.std::vector.3"* %5, i64 0, i32 0, i32 0, i32 0, i32 2
  %37 = bitcast i32** %36 to i8**
  store i8* %35, i8** %37, align 8, !tbaa !18
  %38 = getelementptr inbounds %"class.std::vector.3", %"class.std::vector.3"* %5, i64 0, i32 0, i32 0, i32 0, i32 1
  %39 = bitcast i32** %38 to i8**
  call void @llvm.memset.p0i8.i64(i8* noundef nonnull align 4 dereferenceable(104) %31, i8 0, i64 104, i1 false)
  store i8* %35, i8** %39, align 8, !tbaa !19
  %40 = add nsw i32 %29, 1
  %41 = sext i32 %40 to i64
  %42 = icmp slt i32 %29, -1
  br i1 %42, label %43, label %45

43:                                               ; preds = %32
  invoke void @_ZSt20__throw_length_errorPKc(i8* getelementptr inbounds ([49 x i8], [49 x i8]* @.str, i64 0, i64 0)) #16
          to label %44 unwind label %81

44:                                               ; preds = %43
  unreachable

45:                                               ; preds = %32
  call void @llvm.memset.p0i8.i64(i8* noundef nonnull align 8 dereferenceable(24) %28, i8 0, i64 24, i1 false) #14
  %46 = icmp eq i32 %40, 0
  br i1 %46, label %52, label %47

47:                                               ; preds = %45
  %48 = mul nuw nsw i64 %41, 24
  %49 = invoke noalias nonnull i8* @_Znwm(i64 %48) #15
          to label %50 unwind label %81

50:                                               ; preds = %47
  %51 = bitcast i8* %49 to %"class.std::vector.3"*
  br label %52

52:                                               ; preds = %50, %45
  %53 = phi %"class.std::vector.3"* [ %51, %50 ], [ null, %45 ]
  %54 = getelementptr inbounds %"class.std::vector", %"class.std::vector"* %4, i64 0, i32 0, i32 0, i32 0, i32 0
  store %"class.std::vector.3"* %53, %"class.std::vector.3"** %54, align 8, !tbaa !20
  %55 = getelementptr inbounds %"class.std::vector", %"class.std::vector"* %4, i64 0, i32 0, i32 0, i32 0, i32 1
  store %"class.std::vector.3"* %53, %"class.std::vector.3"** %55, align 8, !tbaa !22
  %56 = getelementptr inbounds %"class.std::vector.3", %"class.std::vector.3"* %53, i64 %41
  %57 = getelementptr inbounds %"class.std::vector", %"class.std::vector"* %4, i64 0, i32 0, i32 0, i32 0, i32 2
  store %"class.std::vector.3"* %56, %"class.std::vector.3"** %57, align 8, !tbaa !23
  %58 = invoke %"class.std::vector.3"* @_ZNSt22__uninitialized_fill_nILb0EE15__uninit_fill_nIPSt6vectorIiSaIiEEmS4_EET_S6_T0_RKT1_(%"class.std::vector.3"* %53, i64 %41, %"class.std::vector.3"* nonnull align 8 dereferenceable(24) %5)
          to label %64 unwind label %59

59:                                               ; preds = %52
  %60 = landingpad { i8*, i32 }
          cleanup
  %61 = icmp eq %"class.std::vector.3"* %53, null
  br i1 %61, label %83, label %62

62:                                               ; preds = %59
  %63 = bitcast %"class.std::vector.3"* %53 to i8*
  call void @_ZdlPv(i8* nonnull %63) #14
  br label %83

64:                                               ; preds = %52
  store %"class.std::vector.3"* %58, %"class.std::vector.3"** %55, align 8, !tbaa !22
  %65 = load i32*, i32** %33, align 8, !tbaa !16
  %66 = icmp eq i32* %65, null
  br i1 %66, label %69, label %67

67:                                               ; preds = %64
  %68 = bitcast i32* %65 to i8*
  call void @_ZdlPv(i8* nonnull %68) #14
  br label %69

69:                                               ; preds = %64, %67
  call void @llvm.lifetime.end.p0i8(i64 24, i8* nonnull %30) #14
  %70 = getelementptr inbounds %"class.std::__cxx11::basic_string", %"class.std::__cxx11::basic_string"* %2, i64 0, i32 0, i32 0
  %71 = load i8*, i8** %70, align 8
  %72 = load i32, i32* %1, align 4, !tbaa !14
  %73 = icmp sgt i32 %72, 0
  br i1 %73, label %91, label %244

74:                                               ; preds = %91
  %75 = load %"class.std::vector.3"*, %"class.std::vector.3"** %54, align 8
  %76 = icmp sgt i32 %103, 0
  br i1 %76, label %106, label %244

77:                                               ; preds = %25, %23, %0
  %78 = landingpad { i8*, i32 }
          cleanup
  br label %650

79:                                               ; preds = %27
  %80 = landingpad { i8*, i32 }
          cleanup
  br label %89

81:                                               ; preds = %47, %43
  %82 = landingpad { i8*, i32 }
          cleanup
  br label %83

83:                                               ; preds = %59, %62, %81
  %84 = phi { i8*, i32 } [ %82, %81 ], [ %60, %62 ], [ %60, %59 ]
  %85 = load i32*, i32** %33, align 8, !tbaa !16
  %86 = icmp eq i32* %85, null
  br i1 %86, label %89, label %87

87:                                               ; preds = %83
  %88 = bitcast i32* %85 to i8*
  call void @_ZdlPv(i8* nonnull %88) #14
  br label %89

89:                                               ; preds = %87, %83, %79
  %90 = phi { i8*, i32 } [ %80, %79 ], [ %84, %83 ], [ %84, %87 ]
  call void @llvm.lifetime.end.p0i8(i64 24, i8* nonnull %30) #14
  br label %648

91:                                               ; preds = %69, %91
  %92 = phi i64 [ %93, %91 ], [ 0, %69 ]
  %93 = add nuw nsw i64 %92, 1
  %94 = getelementptr inbounds i8, i8* %71, i64 %92
  %95 = load i8, i8* %94, align 1, !tbaa !13
  %96 = sext i8 %95 to i64
  %97 = add nsw i64 %96, -97
  %98 = getelementptr inbounds %"class.std::vector.3", %"class.std::vector.3"* %53, i64 %93, i32 0, i32 0, i32 0, i32 0
  %99 = load i32*, i32** %98, align 8, !tbaa !16
  %100 = getelementptr inbounds i32, i32* %99, i64 %97
  %101 = load i32, i32* %100, align 4, !tbaa !14
  %102 = add nsw i32 %101, 1
  store i32 %102, i32* %100, align 4, !tbaa !14
  %103 = load i32, i32* %1, align 4, !tbaa !14
  %104 = sext i32 %103 to i64
  %105 = icmp slt i64 %93, %104
  br i1 %105, label %91, label %74, !llvm.loop !24

106:                                              ; preds = %74, %106
  %107 = phi i64 [ %110, %106 ], [ 0, %74 ]
  %108 = getelementptr inbounds %"class.std::vector.3", %"class.std::vector.3"* %75, i64 %107, i32 0, i32 0, i32 0, i32 0
  %109 = load i32*, i32** %108, align 8, !tbaa !16
  %110 = add nuw nsw i64 %107, 1
  %111 = getelementptr inbounds %"class.std::vector.3", %"class.std::vector.3"* %75, i64 %110, i32 0, i32 0, i32 0, i32 0
  %112 = load i32*, i32** %111, align 8, !tbaa !16
  %113 = load i32, i32* %109, align 4, !tbaa !14
  %114 = load i32, i32* %112, align 4, !tbaa !14
  %115 = add nsw i32 %114, %113
  store i32 %115, i32* %112, align 4, !tbaa !14
  %116 = getelementptr inbounds i32, i32* %109, i64 1
  %117 = load i32, i32* %116, align 4, !tbaa !14
  %118 = getelementptr inbounds i32, i32* %112, i64 1
  %119 = load i32, i32* %118, align 4, !tbaa !14
  %120 = add nsw i32 %119, %117
  store i32 %120, i32* %118, align 4, !tbaa !14
  %121 = getelementptr inbounds i32, i32* %109, i64 2
  %122 = load i32, i32* %121, align 4, !tbaa !14
  %123 = getelementptr inbounds i32, i32* %112, i64 2
  %124 = load i32, i32* %123, align 4, !tbaa !14
  %125 = add nsw i32 %124, %122
  store i32 %125, i32* %123, align 4, !tbaa !14
  %126 = getelementptr inbounds i32, i32* %109, i64 3
  %127 = load i32, i32* %126, align 4, !tbaa !14
  %128 = getelementptr inbounds i32, i32* %112, i64 3
  %129 = load i32, i32* %128, align 4, !tbaa !14
  %130 = add nsw i32 %129, %127
  store i32 %130, i32* %128, align 4, !tbaa !14
  %131 = getelementptr inbounds i32, i32* %109, i64 4
  %132 = load i32, i32* %131, align 4, !tbaa !14
  %133 = getelementptr inbounds i32, i32* %112, i64 4
  %134 = load i32, i32* %133, align 4, !tbaa !14
  %135 = add nsw i32 %134, %132
  store i32 %135, i32* %133, align 4, !tbaa !14
  %136 = getelementptr inbounds i32, i32* %109, i64 5
  %137 = load i32, i32* %136, align 4, !tbaa !14
  %138 = getelementptr inbounds i32, i32* %112, i64 5
  %139 = load i32, i32* %138, align 4, !tbaa !14
  %140 = add nsw i32 %139, %137
  store i32 %140, i32* %138, align 4, !tbaa !14
  %141 = getelementptr inbounds i32, i32* %109, i64 6
  %142 = load i32, i32* %141, align 4, !tbaa !14
  %143 = getelementptr inbounds i32, i32* %112, i64 6
  %144 = load i32, i32* %143, align 4, !tbaa !14
  %145 = add nsw i32 %144, %142
  store i32 %145, i32* %143, align 4, !tbaa !14
  %146 = getelementptr inbounds i32, i32* %109, i64 7
  %147 = load i32, i32* %146, align 4, !tbaa !14
  %148 = getelementptr inbounds i32, i32* %112, i64 7
  %149 = load i32, i32* %148, align 4, !tbaa !14
  %150 = add nsw i32 %149, %147
  store i32 %150, i32* %148, align 4, !tbaa !14
  %151 = getelementptr inbounds i32, i32* %109, i64 8
  %152 = load i32, i32* %151, align 4, !tbaa !14
  %153 = getelementptr inbounds i32, i32* %112, i64 8
  %154 = load i32, i32* %153, align 4, !tbaa !14
  %155 = add nsw i32 %154, %152
  store i32 %155, i32* %153, align 4, !tbaa !14
  %156 = getelementptr inbounds i32, i32* %109, i64 9
  %157 = load i32, i32* %156, align 4, !tbaa !14
  %158 = getelementptr inbounds i32, i32* %112, i64 9
  %159 = load i32, i32* %158, align 4, !tbaa !14
  %160 = add nsw i32 %159, %157
  store i32 %160, i32* %158, align 4, !tbaa !14
  %161 = getelementptr inbounds i32, i32* %109, i64 10
  %162 = load i32, i32* %161, align 4, !tbaa !14
  %163 = getelementptr inbounds i32, i32* %112, i64 10
  %164 = load i32, i32* %163, align 4, !tbaa !14
  %165 = add nsw i32 %164, %162
  store i32 %165, i32* %163, align 4, !tbaa !14
  %166 = getelementptr inbounds i32, i32* %109, i64 11
  %167 = load i32, i32* %166, align 4, !tbaa !14
  %168 = getelementptr inbounds i32, i32* %112, i64 11
  %169 = load i32, i32* %168, align 4, !tbaa !14
  %170 = add nsw i32 %169, %167
  store i32 %170, i32* %168, align 4, !tbaa !14
  %171 = getelementptr inbounds i32, i32* %109, i64 12
  %172 = load i32, i32* %171, align 4, !tbaa !14
  %173 = getelementptr inbounds i32, i32* %112, i64 12
  %174 = load i32, i32* %173, align 4, !tbaa !14
  %175 = add nsw i32 %174, %172
  store i32 %175, i32* %173, align 4, !tbaa !14
  %176 = getelementptr inbounds i32, i32* %109, i64 13
  %177 = load i32, i32* %176, align 4, !tbaa !14
  %178 = getelementptr inbounds i32, i32* %112, i64 13
  %179 = load i32, i32* %178, align 4, !tbaa !14
  %180 = add nsw i32 %179, %177
  store i32 %180, i32* %178, align 4, !tbaa !14
  %181 = getelementptr inbounds i32, i32* %109, i64 14
  %182 = load i32, i32* %181, align 4, !tbaa !14
  %183 = getelementptr inbounds i32, i32* %112, i64 14
  %184 = load i32, i32* %183, align 4, !tbaa !14
  %185 = add nsw i32 %184, %182
  store i32 %185, i32* %183, align 4, !tbaa !14
  %186 = getelementptr inbounds i32, i32* %109, i64 15
  %187 = load i32, i32* %186, align 4, !tbaa !14
  %188 = getelementptr inbounds i32, i32* %112, i64 15
  %189 = load i32, i32* %188, align 4, !tbaa !14
  %190 = add nsw i32 %189, %187
  store i32 %190, i32* %188, align 4, !tbaa !14
  %191 = getelementptr inbounds i32, i32* %109, i64 16
  %192 = load i32, i32* %191, align 4, !tbaa !14
  %193 = getelementptr inbounds i32, i32* %112, i64 16
  %194 = load i32, i32* %193, align 4, !tbaa !14
  %195 = add nsw i32 %194, %192
  store i32 %195, i32* %193, align 4, !tbaa !14
  %196 = getelementptr inbounds i32, i32* %109, i64 17
  %197 = load i32, i32* %196, align 4, !tbaa !14
  %198 = getelementptr inbounds i32, i32* %112, i64 17
  %199 = load i32, i32* %198, align 4, !tbaa !14
  %200 = add nsw i32 %199, %197
  store i32 %200, i32* %198, align 4, !tbaa !14
  %201 = getelementptr inbounds i32, i32* %109, i64 18
  %202 = load i32, i32* %201, align 4, !tbaa !14
  %203 = getelementptr inbounds i32, i32* %112, i64 18
  %204 = load i32, i32* %203, align 4, !tbaa !14
  %205 = add nsw i32 %204, %202
  store i32 %205, i32* %203, align 4, !tbaa !14
  %206 = getelementptr inbounds i32, i32* %109, i64 19
  %207 = load i32, i32* %206, align 4, !tbaa !14
  %208 = getelementptr inbounds i32, i32* %112, i64 19
  %209 = load i32, i32* %208, align 4, !tbaa !14
  %210 = add nsw i32 %209, %207
  store i32 %210, i32* %208, align 4, !tbaa !14
  %211 = getelementptr inbounds i32, i32* %109, i64 20
  %212 = load i32, i32* %211, align 4, !tbaa !14
  %213 = getelementptr inbounds i32, i32* %112, i64 20
  %214 = load i32, i32* %213, align 4, !tbaa !14
  %215 = add nsw i32 %214, %212
  store i32 %215, i32* %213, align 4, !tbaa !14
  %216 = getelementptr inbounds i32, i32* %109, i64 21
  %217 = load i32, i32* %216, align 4, !tbaa !14
  %218 = getelementptr inbounds i32, i32* %112, i64 21
  %219 = load i32, i32* %218, align 4, !tbaa !14
  %220 = add nsw i32 %219, %217
  store i32 %220, i32* %218, align 4, !tbaa !14
  %221 = getelementptr inbounds i32, i32* %109, i64 22
  %222 = load i32, i32* %221, align 4, !tbaa !14
  %223 = getelementptr inbounds i32, i32* %112, i64 22
  %224 = load i32, i32* %223, align 4, !tbaa !14
  %225 = add nsw i32 %224, %222
  store i32 %225, i32* %223, align 4, !tbaa !14
  %226 = getelementptr inbounds i32, i32* %109, i64 23
  %227 = load i32, i32* %226, align 4, !tbaa !14
  %228 = getelementptr inbounds i32, i32* %112, i64 23
  %229 = load i32, i32* %228, align 4, !tbaa !14
  %230 = add nsw i32 %229, %227
  store i32 %230, i32* %228, align 4, !tbaa !14
  %231 = getelementptr inbounds i32, i32* %109, i64 24
  %232 = load i32, i32* %231, align 4, !tbaa !14
  %233 = getelementptr inbounds i32, i32* %112, i64 24
  %234 = load i32, i32* %233, align 4, !tbaa !14
  %235 = add nsw i32 %234, %232
  store i32 %235, i32* %233, align 4, !tbaa !14
  %236 = getelementptr inbounds i32, i32* %109, i64 25
  %237 = load i32, i32* %236, align 4, !tbaa !14
  %238 = getelementptr inbounds i32, i32* %112, i64 25
  %239 = load i32, i32* %238, align 4, !tbaa !14
  %240 = add nsw i32 %239, %237
  store i32 %240, i32* %238, align 4, !tbaa !14
  %241 = load i32, i32* %1, align 4, !tbaa !14
  %242 = sext i32 %241 to i64
  %243 = icmp slt i64 %110, %242
  br i1 %243, label %106, label %244, !llvm.loop !26

244:                                              ; preds = %106, %69, %74
  call void @llvm.lifetime.start.p0i8(i64 624, i8* nonnull %7) #14
  call void @llvm.memset.p0i8.i64(i8* noundef nonnull align 16 dereferenceable(624) %7, i8 0, i64 624, i1 false)
  call void @llvm.lifetime.start.p0i8(i64 624, i8* nonnull %9) #14
  call void @llvm.memset.p0i8.i64(i8* noundef nonnull align 16 dereferenceable(624) %9, i8 0, i64 624, i1 false)
  %245 = bitcast i32* %10 to i8*
  %246 = bitcast i32* %13 to i8*
  %247 = bitcast i32* %14 to i8*
  %248 = bitcast i32* %11 to i8*
  %249 = load i32, i32* %3, align 4, !tbaa !14
  %250 = icmp sgt i32 %249, 0
  br i1 %250, label %255, label %607

251:                                              ; preds = %596
  %252 = getelementptr inbounds [26 x %"class.std::vector.3"], [26 x %"class.std::vector.3"]* %8, i64 0, i64 25, i32 0, i32 0, i32 0, i32 0
  %253 = load i32*, i32** %252, align 8, !tbaa !16
  %254 = icmp eq i32* %253, null
  br i1 %254, label %607, label %605

255:                                              ; preds = %244, %596
  %256 = phi i32 [ %597, %596 ], [ 0, %244 ]
  call void @llvm.lifetime.start.p0i8(i64 4, i8* nonnull %245) #14
  %257 = invoke nonnull align 8 dereferenceable(16) %"class.std::basic_istream"* @_ZNSirsERi(%"class.std::basic_istream"* nonnull align 8 dereferenceable(16) @_ZSt3cin, i32* nonnull align 4 dereferenceable(4) %10)
          to label %258 unwind label %380

258:                                              ; preds = %255
  %259 = load i32, i32* %10, align 4, !tbaa !14
  %260 = icmp eq i32 %259, 1
  br i1 %260, label %261, label %388

261:                                              ; preds = %258
  call void @llvm.lifetime.start.p0i8(i64 4, i8* nonnull %248) #14
  call void @llvm.lifetime.start.p0i8(i64 1, i8* nonnull %12) #14
  %262 = invoke nonnull align 8 dereferenceable(16) %"class.std::basic_istream"* @_ZNSirsERi(%"class.std::basic_istream"* nonnull align 8 dereferenceable(16) @_ZSt3cin, i32* nonnull align 4 dereferenceable(4) %11)
          to label %263 unwind label %382

263:                                              ; preds = %261
  %264 = invoke nonnull align 8 dereferenceable(16) %"class.std::basic_istream"* @_ZStrsIcSt11char_traitsIcEERSt13basic_istreamIT_T0_ES6_RS3_(%"class.std::basic_istream"* nonnull align 8 dereferenceable(16) %262, i8* nonnull align 1 dereferenceable(1) %12)
          to label %265 unwind label %382

265:                                              ; preds = %263
  %266 = load i32, i32* %11, align 4, !tbaa !14
  %267 = add nsw i32 %266, -1
  %268 = sext i32 %267 to i64
  %269 = load i8*, i8** %70, align 8, !tbaa !27
  %270 = getelementptr inbounds i8, i8* %269, i64 %268
  %271 = load i8, i8* %270, align 1, !tbaa !13
  %272 = sext i8 %271 to i64
  %273 = add nsw i64 %272, -97
  %274 = getelementptr inbounds [26 x %"class.std::vector.3"], [26 x %"class.std::vector.3"]* %8, i64 0, i64 %273, i32 0, i32 0, i32 0, i32 1
  %275 = load i32*, i32** %274, align 8, !tbaa !19
  %276 = getelementptr inbounds [26 x %"class.std::vector.3"], [26 x %"class.std::vector.3"]* %8, i64 0, i64 %273, i32 0, i32 0, i32 0, i32 2
  %277 = load i32*, i32** %276, align 8, !tbaa !18
  %278 = icmp eq i32* %275, %277
  br i1 %278, label %281, label %279

279:                                              ; preds = %265
  store i32 %266, i32* %275, align 4, !tbaa !14
  %280 = getelementptr inbounds i32, i32* %275, i64 1
  store i32* %280, i32** %274, align 8, !tbaa !19
  br label %321

281:                                              ; preds = %265
  %282 = getelementptr inbounds [26 x %"class.std::vector.3"], [26 x %"class.std::vector.3"]* %8, i64 0, i64 %273, i32 0, i32 0, i32 0, i32 0
  %283 = load i32*, i32** %282, align 8, !tbaa !16
  %284 = ptrtoint i32* %275 to i64
  %285 = ptrtoint i32* %283 to i64
  %286 = sub i64 %284, %285
  %287 = ashr exact i64 %286, 2
  %288 = icmp eq i64 %286, 9223372036854775804
  br i1 %288, label %289, label %291

289:                                              ; preds = %281
  invoke void @_ZSt20__throw_length_errorPKc(i8* getelementptr inbounds ([26 x i8], [26 x i8]* @.str.1, i64 0, i64 0)) #16
          to label %290 unwind label %384

290:                                              ; preds = %289
  unreachable

291:                                              ; preds = %281
  %292 = icmp eq i64 %286, 0
  %293 = select i1 %292, i64 1, i64 %287
  %294 = add nsw i64 %293, %287
  %295 = icmp ult i64 %294, %287
  %296 = icmp ugt i64 %294, 2305843009213693951
  %297 = or i1 %295, %296
  %298 = select i1 %297, i64 2305843009213693951, i64 %294
  %299 = icmp eq i64 %298, 0
  br i1 %299, label %306, label %300

300:                                              ; preds = %291
  %301 = shl nuw nsw i64 %298, 2
  %302 = invoke noalias nonnull i8* @_Znwm(i64 %301) #15
          to label %303 unwind label %382

303:                                              ; preds = %300
  %304 = bitcast i8* %302 to i32*
  %305 = load i32, i32* %11, align 4, !tbaa !14
  br label %306

306:                                              ; preds = %303, %291
  %307 = phi i32 [ %305, %303 ], [ %266, %291 ]
  %308 = phi i32* [ %304, %303 ], [ null, %291 ]
  %309 = getelementptr inbounds i32, i32* %308, i64 %287
  store i32 %307, i32* %309, align 4, !tbaa !14
  %310 = icmp sgt i64 %286, 0
  br i1 %310, label %311, label %314

311:                                              ; preds = %306
  %312 = bitcast i32* %308 to i8*
  %313 = bitcast i32* %283 to i8*
  call void @llvm.memmove.p0i8.p0i8.i64(i8* align 4 %312, i8* align 4 %313, i64 %286, i1 false) #14
  br label %314

314:                                              ; preds = %311, %306
  %315 = getelementptr inbounds i32, i32* %309, i64 1
  %316 = icmp eq i32* %283, null
  br i1 %316, label %319, label %317

317:                                              ; preds = %314
  %318 = bitcast i32* %283 to i8*
  call void @_ZdlPv(i8* nonnull %318) #14
  br label %319

319:                                              ; preds = %317, %314
  store i32* %308, i32** %282, align 8, !tbaa !16
  store i32* %315, i32** %274, align 8, !tbaa !19
  %320 = getelementptr inbounds i32, i32* %308, i64 %298
  store i32* %320, i32** %276, align 8, !tbaa !18
  br label %321

321:                                              ; preds = %319, %279
  %322 = load i8, i8* %12, align 1, !tbaa !13
  %323 = sext i8 %322 to i64
  %324 = add nsw i64 %323, -97
  %325 = getelementptr inbounds [26 x %"class.std::vector.3"], [26 x %"class.std::vector.3"]* %6, i64 0, i64 %324, i32 0, i32 0, i32 0, i32 1
  %326 = load i32*, i32** %325, align 8, !tbaa !19
  %327 = getelementptr inbounds [26 x %"class.std::vector.3"], [26 x %"class.std::vector.3"]* %6, i64 0, i64 %324, i32 0, i32 0, i32 0, i32 2
  %328 = load i32*, i32** %327, align 8, !tbaa !18
  %329 = icmp eq i32* %326, %328
  br i1 %329, label %333, label %330

330:                                              ; preds = %321
  %331 = load i32, i32* %11, align 4, !tbaa !14
  store i32 %331, i32* %326, align 4, !tbaa !14
  %332 = getelementptr inbounds i32, i32* %326, i64 1
  store i32* %332, i32** %325, align 8, !tbaa !19
  br label %373

333:                                              ; preds = %321
  %334 = getelementptr inbounds [26 x %"class.std::vector.3"], [26 x %"class.std::vector.3"]* %6, i64 0, i64 %324, i32 0, i32 0, i32 0, i32 0
  %335 = load i32*, i32** %334, align 8, !tbaa !16
  %336 = ptrtoint i32* %326 to i64
  %337 = ptrtoint i32* %335 to i64
  %338 = sub i64 %336, %337
  %339 = ashr exact i64 %338, 2
  %340 = icmp eq i64 %338, 9223372036854775804
  br i1 %340, label %341, label %343

341:                                              ; preds = %333
  invoke void @_ZSt20__throw_length_errorPKc(i8* getelementptr inbounds ([26 x i8], [26 x i8]* @.str.1, i64 0, i64 0)) #16
          to label %342 unwind label %384

342:                                              ; preds = %341
  unreachable

343:                                              ; preds = %333
  %344 = icmp eq i64 %338, 0
  %345 = select i1 %344, i64 1, i64 %339
  %346 = add nsw i64 %345, %339
  %347 = icmp ult i64 %346, %339
  %348 = icmp ugt i64 %346, 2305843009213693951
  %349 = or i1 %347, %348
  %350 = select i1 %349, i64 2305843009213693951, i64 %346
  %351 = icmp eq i64 %350, 0
  br i1 %351, label %357, label %352

352:                                              ; preds = %343
  %353 = shl nuw nsw i64 %350, 2
  %354 = invoke noalias nonnull i8* @_Znwm(i64 %353) #15
          to label %355 unwind label %382

355:                                              ; preds = %352
  %356 = bitcast i8* %354 to i32*
  br label %357

357:                                              ; preds = %355, %343
  %358 = phi i32* [ %356, %355 ], [ null, %343 ]
  %359 = getelementptr inbounds i32, i32* %358, i64 %339
  %360 = load i32, i32* %11, align 4, !tbaa !14
  store i32 %360, i32* %359, align 4, !tbaa !14
  %361 = icmp sgt i64 %338, 0
  br i1 %361, label %362, label %365

362:                                              ; preds = %357
  %363 = bitcast i32* %358 to i8*
  %364 = bitcast i32* %335 to i8*
  call void @llvm.memmove.p0i8.p0i8.i64(i8* align 4 %363, i8* align 4 %364, i64 %338, i1 false) #14
  br label %365

365:                                              ; preds = %362, %357
  %366 = getelementptr inbounds i32, i32* %359, i64 1
  %367 = icmp eq i32* %335, null
  br i1 %367, label %370, label %368

368:                                              ; preds = %365
  %369 = bitcast i32* %335 to i8*
  call void @_ZdlPv(i8* nonnull %369) #14
  br label %370

370:                                              ; preds = %368, %365
  store i32* %358, i32** %334, align 8, !tbaa !16
  store i32* %366, i32** %325, align 8, !tbaa !19
  %371 = getelementptr inbounds i32, i32* %358, i64 %350
  store i32* %371, i32** %327, align 8, !tbaa !18
  %372 = load i8, i8* %12, align 1, !tbaa !13
  br label %373

373:                                              ; preds = %370, %330
  %374 = phi i8 [ %372, %370 ], [ %322, %330 ]
  %375 = load i32, i32* %11, align 4, !tbaa !14
  %376 = add nsw i32 %375, -1
  %377 = sext i32 %376 to i64
  %378 = load i8*, i8** %70, align 8, !tbaa !27
  %379 = getelementptr inbounds i8, i8* %378, i64 %377
  store i8 %374, i8* %379, align 1, !tbaa !13
  call void @llvm.lifetime.end.p0i8(i64 1, i8* nonnull %12) #14
  call void @llvm.lifetime.end.p0i8(i64 4, i8* nonnull %248) #14
  br label %596

380:                                              ; preds = %255
  %381 = landingpad { i8*, i32 }
          cleanup
  br label %600

382:                                              ; preds = %261, %263, %300, %352
  %383 = landingpad { i8*, i32 }
          cleanup
  br label %386

384:                                              ; preds = %289, %341
  %385 = landingpad { i8*, i32 }
          cleanup
  br label %386

386:                                              ; preds = %384, %382
  %387 = phi { i8*, i32 } [ %383, %382 ], [ %385, %384 ]
  call void @llvm.lifetime.end.p0i8(i64 1, i8* nonnull %12) #14
  call void @llvm.lifetime.end.p0i8(i64 4, i8* nonnull %248) #14
  br label %600

388:                                              ; preds = %258
  call void @llvm.lifetime.start.p0i8(i64 4, i8* nonnull %246) #14
  call void @llvm.lifetime.start.p0i8(i64 4, i8* nonnull %247) #14
  %389 = invoke nonnull align 8 dereferenceable(16) %"class.std::basic_istream"* @_ZNSirsERi(%"class.std::basic_istream"* nonnull align 8 dereferenceable(16) @_ZSt3cin, i32* nonnull align 4 dereferenceable(4) %13)
          to label %390 unwind label %469

390:                                              ; preds = %388
  %391 = invoke nonnull align 8 dereferenceable(16) %"class.std::basic_istream"* @_ZNSirsERi(%"class.std::basic_istream"* nonnull align 8 dereferenceable(16) %389, i32* nonnull align 4 dereferenceable(4) %14)
          to label %392 unwind label %469

392:                                              ; preds = %390
  %393 = load i32, i32* %13, align 4
  %394 = load i32, i32* %14, align 4
  %395 = sext i32 %394 to i64
  %396 = load %"class.std::vector.3"*, %"class.std::vector.3"** %54, align 8, !tbaa !20
  %397 = getelementptr inbounds %"class.std::vector.3", %"class.std::vector.3"* %396, i64 %395, i32 0, i32 0, i32 0, i32 0
  %398 = load i32*, i32** %397, align 8, !tbaa !16
  %399 = add nsw i32 %393, -1
  %400 = sext i32 %399 to i64
  %401 = getelementptr inbounds %"class.std::vector.3", %"class.std::vector.3"* %396, i64 %400, i32 0, i32 0, i32 0, i32 0
  %402 = load i32*, i32** %401, align 8, !tbaa !16
  %403 = insertelement <4 x i32> poison, i32 %393, i32 0
  %404 = shufflevector <4 x i32> %403, <4 x i32> poison, <4 x i32> zeroinitializer
  %405 = insertelement <4 x i32> poison, i32 %393, i32 0
  %406 = shufflevector <4 x i32> %405, <4 x i32> poison, <4 x i32> zeroinitializer
  %407 = insertelement <4 x i32> poison, i32 %394, i32 0
  %408 = shufflevector <4 x i32> %407, <4 x i32> poison, <4 x i32> zeroinitializer
  %409 = insertelement <4 x i32> poison, i32 %394, i32 0
  %410 = shufflevector <4 x i32> %409, <4 x i32> poison, <4 x i32> zeroinitializer
  %411 = insertelement <4 x i32> poison, i32 %393, i32 0
  %412 = shufflevector <4 x i32> %411, <4 x i32> poison, <4 x i32> zeroinitializer
  %413 = insertelement <4 x i32> poison, i32 %393, i32 0
  %414 = shufflevector <4 x i32> %413, <4 x i32> poison, <4 x i32> zeroinitializer
  %415 = insertelement <4 x i32> poison, i32 %394, i32 0
  %416 = shufflevector <4 x i32> %415, <4 x i32> poison, <4 x i32> zeroinitializer
  %417 = insertelement <4 x i32> poison, i32 %394, i32 0
  %418 = shufflevector <4 x i32> %417, <4 x i32> poison, <4 x i32> zeroinitializer
  br label %419

419:                                              ; preds = %392, %532
  %420 = phi i64 [ 0, %392 ], [ %542, %532 ]
  %421 = phi i32 [ 0, %392 ], [ %541, %532 ]
  %422 = getelementptr inbounds [26 x %"class.std::vector.3"], [26 x %"class.std::vector.3"]* %8, i64 0, i64 %420, i32 0, i32 0, i32 0, i32 1
  %423 = load i32*, i32** %422, align 8, !tbaa !19
  %424 = getelementptr inbounds [26 x %"class.std::vector.3"], [26 x %"class.std::vector.3"]* %8, i64 0, i64 %420, i32 0, i32 0, i32 0, i32 0
  %425 = load i32*, i32** %424, align 8, !tbaa !16
  %426 = ptrtoint i32* %423 to i64
  %427 = ptrtoint i32* %425 to i64
  %428 = sub i64 %426, %427
  %429 = lshr exact i64 %428, 2
  %430 = trunc i64 %429 to i32
  %431 = icmp sgt i32 %430, 0
  br i1 %431, label %432, label %471

432:                                              ; preds = %419
  %433 = and i64 %429, 4294967295
  %434 = icmp ult i64 %433, 8
  br i1 %434, label %464, label %435

435:                                              ; preds = %432
  %436 = and i64 %429, 7
  %437 = sub nsw i64 %433, %436
  br label %438

438:                                              ; preds = %438, %435
  %439 = phi i64 [ 0, %435 ], [ %458, %438 ]
  %440 = phi <4 x i32> [ zeroinitializer, %435 ], [ %456, %438 ]
  %441 = phi <4 x i32> [ zeroinitializer, %435 ], [ %457, %438 ]
  %442 = getelementptr inbounds i32, i32* %425, i64 %439
  %443 = bitcast i32* %442 to <4 x i32>*
  %444 = load <4 x i32>, <4 x i32>* %443, align 4, !tbaa !14
  %445 = getelementptr inbounds i32, i32* %442, i64 4
  %446 = bitcast i32* %445 to <4 x i32>*
  %447 = load <4 x i32>, <4 x i32>* %446, align 4, !tbaa !14
  %448 = icmp sge <4 x i32> %444, %404
  %449 = icmp sge <4 x i32> %447, %406
  %450 = icmp sle <4 x i32> %444, %408
  %451 = icmp sle <4 x i32> %447, %410
  %452 = select <4 x i1> %448, <4 x i1> %450, <4 x i1> zeroinitializer
  %453 = select <4 x i1> %449, <4 x i1> %451, <4 x i1> zeroinitializer
  %454 = sext <4 x i1> %452 to <4 x i32>
  %455 = sext <4 x i1> %453 to <4 x i32>
  %456 = add <4 x i32> %440, %454
  %457 = add <4 x i32> %441, %455
  %458 = add nuw i64 %439, 8
  %459 = icmp eq i64 %458, %437
  br i1 %459, label %460, label %438, !llvm.loop !28

460:                                              ; preds = %438
  %461 = add <4 x i32> %457, %456
  %462 = call i32 @llvm.vector.reduce.add.v4i32(<4 x i32> %461)
  %463 = icmp eq i64 %436, 0
  br i1 %463, label %471, label %464

464:                                              ; preds = %432, %460
  %465 = phi i64 [ 0, %432 ], [ %437, %460 ]
  %466 = phi i32 [ 0, %432 ], [ %462, %460 ]
  br label %520

467:                                              ; preds = %532
  %468 = invoke nonnull align 8 dereferenceable(8) %"class.std::basic_ostream"* @_ZNSolsEi(%"class.std::basic_ostream"* nonnull align 8 dereferenceable(8) @_ZSt4cout, i32 %541)
          to label %556 unwind label %590

469:                                              ; preds = %390, %388
  %470 = landingpad { i8*, i32 }
          cleanup
  br label %594

471:                                              ; preds = %520, %460, %419
  %472 = phi i32 [ 0, %419 ], [ %462, %460 ], [ %529, %520 ]
  %473 = getelementptr inbounds [26 x %"class.std::vector.3"], [26 x %"class.std::vector.3"]* %6, i64 0, i64 %420, i32 0, i32 0, i32 0, i32 1
  %474 = load i32*, i32** %473, align 8, !tbaa !19
  %475 = getelementptr inbounds [26 x %"class.std::vector.3"], [26 x %"class.std::vector.3"]* %6, i64 0, i64 %420, i32 0, i32 0, i32 0, i32 0
  %476 = load i32*, i32** %475, align 8, !tbaa !16
  %477 = ptrtoint i32* %474 to i64
  %478 = ptrtoint i32* %476 to i64
  %479 = sub i64 %477, %478
  %480 = lshr exact i64 %479, 2
  %481 = trunc i64 %480 to i32
  %482 = icmp sgt i32 %481, 0
  br i1 %482, label %483, label %532

483:                                              ; preds = %471
  %484 = and i64 %480, 4294967295
  %485 = and i64 %480, 4294967295
  %486 = icmp ult i64 %485, 8
  br i1 %486, label %517, label %487

487:                                              ; preds = %483
  %488 = and i64 %480, 7
  %489 = sub nsw i64 %485, %488
  %490 = insertelement <4 x i32> <i32 poison, i32 0, i32 0, i32 0>, i32 %472, i32 0
  br label %491

491:                                              ; preds = %491, %487
  %492 = phi i64 [ 0, %487 ], [ %511, %491 ]
  %493 = phi <4 x i32> [ %490, %487 ], [ %509, %491 ]
  %494 = phi <4 x i32> [ zeroinitializer, %487 ], [ %510, %491 ]
  %495 = getelementptr inbounds i32, i32* %476, i64 %492
  %496 = bitcast i32* %495 to <4 x i32>*
  %497 = load <4 x i32>, <4 x i32>* %496, align 4, !tbaa !14
  %498 = getelementptr inbounds i32, i32* %495, i64 4
  %499 = bitcast i32* %498 to <4 x i32>*
  %500 = load <4 x i32>, <4 x i32>* %499, align 4, !tbaa !14
  %501 = icmp sge <4 x i32> %497, %412
  %502 = icmp sge <4 x i32> %500, %414
  %503 = icmp sle <4 x i32> %497, %416
  %504 = icmp sle <4 x i32> %500, %418
  %505 = select <4 x i1> %501, <4 x i1> %503, <4 x i1> zeroinitializer
  %506 = select <4 x i1> %502, <4 x i1> %504, <4 x i1> zeroinitializer
  %507 = zext <4 x i1> %505 to <4 x i32>
  %508 = zext <4 x i1> %506 to <4 x i32>
  %509 = add <4 x i32> %493, %507
  %510 = add <4 x i32> %494, %508
  %511 = add nuw i64 %492, 8
  %512 = icmp eq i64 %511, %489
  br i1 %512, label %513, label %491, !llvm.loop !30

513:                                              ; preds = %491
  %514 = add <4 x i32> %510, %509
  %515 = call i32 @llvm.vector.reduce.add.v4i32(<4 x i32> %514)
  %516 = icmp eq i64 %488, 0
  br i1 %516, label %532, label %517

517:                                              ; preds = %483, %513
  %518 = phi i64 [ 0, %483 ], [ %489, %513 ]
  %519 = phi i32 [ %472, %483 ], [ %515, %513 ]
  br label %544

520:                                              ; preds = %464, %520
  %521 = phi i64 [ %530, %520 ], [ %465, %464 ]
  %522 = phi i32 [ %529, %520 ], [ %466, %464 ]
  %523 = getelementptr inbounds i32, i32* %425, i64 %521
  %524 = load i32, i32* %523, align 4, !tbaa !14
  %525 = icmp sge i32 %524, %393
  %526 = icmp sle i32 %524, %394
  %527 = select i1 %525, i1 %526, i1 false
  %528 = sext i1 %527 to i32
  %529 = add nsw i32 %522, %528
  %530 = add nuw nsw i64 %521, 1
  %531 = icmp eq i64 %530, %433
  br i1 %531, label %471, label %520, !llvm.loop !31

532:                                              ; preds = %544, %513, %471
  %533 = phi i32 [ %472, %471 ], [ %515, %513 ], [ %553, %544 ]
  %534 = getelementptr inbounds i32, i32* %398, i64 %420
  %535 = load i32, i32* %534, align 4, !tbaa !14
  %536 = add nsw i32 %535, %533
  %537 = getelementptr inbounds i32, i32* %402, i64 %420
  %538 = load i32, i32* %537, align 4, !tbaa !14
  %539 = icmp sgt i32 %536, %538
  %540 = zext i1 %539 to i32
  %541 = add nuw nsw i32 %421, %540
  %542 = add nuw nsw i64 %420, 1
  %543 = icmp eq i64 %542, 26
  br i1 %543, label %467, label %419, !llvm.loop !33

544:                                              ; preds = %517, %544
  %545 = phi i64 [ %554, %544 ], [ %518, %517 ]
  %546 = phi i32 [ %553, %544 ], [ %519, %517 ]
  %547 = getelementptr inbounds i32, i32* %476, i64 %545
  %548 = load i32, i32* %547, align 4, !tbaa !14
  %549 = icmp sge i32 %548, %393
  %550 = icmp sle i32 %548, %394
  %551 = select i1 %549, i1 %550, i1 false
  %552 = zext i1 %551 to i32
  %553 = add nsw i32 %546, %552
  %554 = add nuw nsw i64 %545, 1
  %555 = icmp eq i64 %554, %484
  br i1 %555, label %532, label %544, !llvm.loop !34

556:                                              ; preds = %467
  %557 = bitcast %"class.std::basic_ostream"* %468 to i8**
  %558 = load i8*, i8** %557, align 8, !tbaa !35
  %559 = getelementptr i8, i8* %558, i64 -24
  %560 = bitcast i8* %559 to i64*
  %561 = load i64, i64* %560, align 8
  %562 = bitcast %"class.std::basic_ostream"* %468 to i8*
  %563 = add nsw i64 %561, 240
  %564 = getelementptr inbounds i8, i8* %562, i64 %563
  %565 = bitcast i8* %564 to %"class.std::ctype"**
  %566 = load %"class.std::ctype"*, %"class.std::ctype"** %565, align 8, !tbaa !37
  %567 = icmp eq %"class.std::ctype"* %566, null
  br i1 %567, label %568, label %570

568:                                              ; preds = %556
  invoke void @_ZSt16__throw_bad_castv() #16
          to label %569 unwind label %592

569:                                              ; preds = %568
  unreachable

570:                                              ; preds = %556
  %571 = getelementptr inbounds %"class.std::ctype", %"class.std::ctype"* %566, i64 0, i32 8
  %572 = load i8, i8* %571, align 8, !tbaa !40
  %573 = icmp eq i8 %572, 0
  br i1 %573, label %577, label %574

574:                                              ; preds = %570
  %575 = getelementptr inbounds %"class.std::ctype", %"class.std::ctype"* %566, i64 0, i32 9, i64 10
  %576 = load i8, i8* %575, align 1, !tbaa !13
  br label %584

577:                                              ; preds = %570
  invoke void @_ZNKSt5ctypeIcE13_M_widen_initEv(%"class.std::ctype"* nonnull align 8 dereferenceable(570) %566)
          to label %578 unwind label %590

578:                                              ; preds = %577
  %579 = bitcast %"class.std::ctype"* %566 to i8 (%"class.std::ctype"*, i8)***
  %580 = load i8 (%"class.std::ctype"*, i8)**, i8 (%"class.std::ctype"*, i8)*** %579, align 8, !tbaa !35
  %581 = getelementptr inbounds i8 (%"class.std::ctype"*, i8)*, i8 (%"class.std::ctype"*, i8)** %580, i64 6
  %582 = load i8 (%"class.std::ctype"*, i8)*, i8 (%"class.std::ctype"*, i8)** %581, align 8
  %583 = invoke signext i8 %582(%"class.std::ctype"* nonnull align 8 dereferenceable(570) %566, i8 signext 10)
          to label %584 unwind label %590

584:                                              ; preds = %578, %574
  %585 = phi i8 [ %576, %574 ], [ %583, %578 ]
  %586 = invoke nonnull align 8 dereferenceable(8) %"class.std::basic_ostream"* @_ZNSo3putEc(%"class.std::basic_ostream"* nonnull align 8 dereferenceable(8) %468, i8 signext %585)
          to label %587 unwind label %590

587:                                              ; preds = %584
  %588 = invoke nonnull align 8 dereferenceable(8) %"class.std::basic_ostream"* @_ZNSo5flushEv(%"class.std::basic_ostream"* nonnull align 8 dereferenceable(8) %586)
          to label %589 unwind label %590

589:                                              ; preds = %587
  call void @llvm.lifetime.end.p0i8(i64 4, i8* nonnull %247) #14
  call void @llvm.lifetime.end.p0i8(i64 4, i8* nonnull %246) #14
  br label %596

590:                                              ; preds = %467, %577, %578, %584, %587
  %591 = landingpad { i8*, i32 }
          cleanup
  br label %594

592:                                              ; preds = %568
  %593 = landingpad { i8*, i32 }
          cleanup
  br label %594

594:                                              ; preds = %590, %592, %469
  %595 = phi { i8*, i32 } [ %470, %469 ], [ %591, %590 ], [ %593, %592 ]
  call void @llvm.lifetime.end.p0i8(i64 4, i8* nonnull %247) #14
  call void @llvm.lifetime.end.p0i8(i64 4, i8* nonnull %246) #14
  br label %600

596:                                              ; preds = %589, %373
  call void @llvm.lifetime.end.p0i8(i64 4, i8* nonnull %245) #14
  %597 = add nuw nsw i32 %256, 1
  %598 = load i32, i32* %3, align 4, !tbaa !14
  %599 = icmp slt i32 %597, %598
  br i1 %599, label %255, label %251, !llvm.loop !42

600:                                              ; preds = %594, %386, %380
  %601 = phi { i8*, i32 } [ %387, %386 ], [ %595, %594 ], [ %381, %380 ]
  call void @llvm.lifetime.end.p0i8(i64 4, i8* nonnull %245) #14
  %602 = getelementptr inbounds [26 x %"class.std::vector.3"], [26 x %"class.std::vector.3"]* %8, i64 0, i64 25, i32 0, i32 0, i32 0, i32 0
  %603 = load i32*, i32** %602, align 8, !tbaa !16
  %604 = icmp eq i32* %603, null
  br i1 %604, label %638, label %636

605:                                              ; preds = %251
  %606 = bitcast i32* %253 to i8*
  call void @_ZdlPv(i8* nonnull %606) #14
  br label %607

607:                                              ; preds = %244, %251, %605
  %608 = getelementptr inbounds [26 x %"class.std::vector.3"], [26 x %"class.std::vector.3"]* %8, i64 0, i64 24, i32 0, i32 0, i32 0, i32 0
  %609 = load i32*, i32** %608, align 16, !tbaa !16
  %610 = icmp eq i32* %609, null
  br i1 %610, label %659, label %657

611:                                              ; preds = %803
  %612 = bitcast i32* %805 to i8*
  call void @_ZdlPv(i8* nonnull %612) #14
  br label %613

613:                                              ; preds = %803, %611
  %614 = getelementptr inbounds [26 x %"class.std::vector.3"], [26 x %"class.std::vector.3"]* %6, i64 0, i64 24, i32 0, i32 0, i32 0, i32 0
  %615 = load i32*, i32** %614, align 16, !tbaa !16
  %616 = icmp eq i32* %615, null
  br i1 %616, label %809, label %807

617:                                              ; preds = %953, %624
  %618 = phi %"class.std::vector.3"* [ %625, %624 ], [ %954, %953 ]
  %619 = getelementptr inbounds %"class.std::vector.3", %"class.std::vector.3"* %618, i64 0, i32 0, i32 0, i32 0, i32 0
  %620 = load i32*, i32** %619, align 8, !tbaa !16
  %621 = icmp eq i32* %620, null
  br i1 %621, label %624, label %622

622:                                              ; preds = %617
  %623 = bitcast i32* %620 to i8*
  call void @_ZdlPv(i8* nonnull %623) #14
  br label %624

624:                                              ; preds = %622, %617
  %625 = getelementptr inbounds %"class.std::vector.3", %"class.std::vector.3"* %618, i64 1
  %626 = icmp eq %"class.std::vector.3"* %625, %955
  br i1 %626, label %627, label %617, !llvm.loop !43

627:                                              ; preds = %624, %953
  %628 = icmp eq %"class.std::vector.3"* %954, null
  br i1 %628, label %631, label %629

629:                                              ; preds = %627
  %630 = bitcast %"class.std::vector.3"* %954 to i8*
  call void @_ZdlPv(i8* nonnull %630) #14
  br label %631

631:                                              ; preds = %627, %629
  call void @llvm.lifetime.end.p0i8(i64 24, i8* nonnull %28) #14
  call void @llvm.lifetime.end.p0i8(i64 4, i8* nonnull %21) #14
  %632 = load i8*, i8** %70, align 8, !tbaa !27
  %633 = icmp eq i8* %632, %20
  br i1 %633, label %635, label %634

634:                                              ; preds = %631
  call void @_ZdlPv(i8* %632) #14
  br label %635

635:                                              ; preds = %631, %634
  call void @llvm.lifetime.end.p0i8(i64 32, i8* nonnull %16) #14
  call void @llvm.lifetime.end.p0i8(i64 4, i8* nonnull %15) #14
  ret i32 0

636:                                              ; preds = %600
  %637 = bitcast i32* %603 to i8*
  call void @_ZdlPv(i8* nonnull %637) #14
  br label %638

638:                                              ; preds = %600, %636
  %639 = getelementptr inbounds [26 x %"class.std::vector.3"], [26 x %"class.std::vector.3"]* %8, i64 0, i64 24, i32 0, i32 0, i32 0, i32 0
  %640 = load i32*, i32** %639, align 16, !tbaa !16
  %641 = icmp eq i32* %640, null
  br i1 %641, label %959, label %957

642:                                              ; preds = %1103
  %643 = bitcast i32* %1105 to i8*
  call void @_ZdlPv(i8* nonnull %643) #14
  br label %644

644:                                              ; preds = %1103, %642
  %645 = getelementptr inbounds [26 x %"class.std::vector.3"], [26 x %"class.std::vector.3"]* %6, i64 0, i64 24, i32 0, i32 0, i32 0, i32 0
  %646 = load i32*, i32** %645, align 16, !tbaa !16
  %647 = icmp eq i32* %646, null
  br i1 %647, label %1109, label %1107

648:                                              ; preds = %1253, %89
  %649 = phi { i8*, i32 } [ %601, %1253 ], [ %90, %89 ]
  call void @llvm.lifetime.end.p0i8(i64 24, i8* nonnull %28) #14
  br label %650

650:                                              ; preds = %648, %77
  %651 = phi { i8*, i32 } [ %649, %648 ], [ %78, %77 ]
  call void @llvm.lifetime.end.p0i8(i64 4, i8* nonnull %21) #14
  %652 = getelementptr inbounds %"class.std::__cxx11::basic_string", %"class.std::__cxx11::basic_string"* %2, i64 0, i32 0, i32 0
  %653 = load i8*, i8** %652, align 8, !tbaa !27
  %654 = icmp eq i8* %653, %20
  br i1 %654, label %656, label %655

655:                                              ; preds = %650
  call void @_ZdlPv(i8* %653) #14
  br label %656

656:                                              ; preds = %650, %655
  call void @llvm.lifetime.end.p0i8(i64 32, i8* nonnull %16) #14
  call void @llvm.lifetime.end.p0i8(i64 4, i8* nonnull %15) #14
  resume { i8*, i32 } %651

657:                                              ; preds = %607
  %658 = bitcast i32* %609 to i8*
  call void @_ZdlPv(i8* nonnull %658) #14
  br label %659

659:                                              ; preds = %657, %607
  %660 = getelementptr inbounds [26 x %"class.std::vector.3"], [26 x %"class.std::vector.3"]* %8, i64 0, i64 23, i32 0, i32 0, i32 0, i32 0
  %661 = load i32*, i32** %660, align 8, !tbaa !16
  %662 = icmp eq i32* %661, null
  br i1 %662, label %665, label %663

663:                                              ; preds = %659
  %664 = bitcast i32* %661 to i8*
  call void @_ZdlPv(i8* nonnull %664) #14
  br label %665

665:                                              ; preds = %663, %659
  %666 = getelementptr inbounds [26 x %"class.std::vector.3"], [26 x %"class.std::vector.3"]* %8, i64 0, i64 22, i32 0, i32 0, i32 0, i32 0
  %667 = load i32*, i32** %666, align 16, !tbaa !16
  %668 = icmp eq i32* %667, null
  br i1 %668, label %671, label %669

669:                                              ; preds = %665
  %670 = bitcast i32* %667 to i8*
  call void @_ZdlPv(i8* nonnull %670) #14
  br label %671

671:                                              ; preds = %669, %665
  %672 = getelementptr inbounds [26 x %"class.std::vector.3"], [26 x %"class.std::vector.3"]* %8, i64 0, i64 21, i32 0, i32 0, i32 0, i32 0
  %673 = load i32*, i32** %672, align 8, !tbaa !16
  %674 = icmp eq i32* %673, null
  br i1 %674, label %677, label %675

675:                                              ; preds = %671
  %676 = bitcast i32* %673 to i8*
  call void @_ZdlPv(i8* nonnull %676) #14
  br label %677

677:                                              ; preds = %675, %671
  %678 = getelementptr inbounds [26 x %"class.std::vector.3"], [26 x %"class.std::vector.3"]* %8, i64 0, i64 20, i32 0, i32 0, i32 0, i32 0
  %679 = load i32*, i32** %678, align 16, !tbaa !16
  %680 = icmp eq i32* %679, null
  br i1 %680, label %683, label %681

681:                                              ; preds = %677
  %682 = bitcast i32* %679 to i8*
  call void @_ZdlPv(i8* nonnull %682) #14
  br label %683

683:                                              ; preds = %681, %677
  %684 = getelementptr inbounds [26 x %"class.std::vector.3"], [26 x %"class.std::vector.3"]* %8, i64 0, i64 19, i32 0, i32 0, i32 0, i32 0
  %685 = load i32*, i32** %684, align 8, !tbaa !16
  %686 = icmp eq i32* %685, null
  br i1 %686, label %689, label %687

687:                                              ; preds = %683
  %688 = bitcast i32* %685 to i8*
  call void @_ZdlPv(i8* nonnull %688) #14
  br label %689

689:                                              ; preds = %687, %683
  %690 = getelementptr inbounds [26 x %"class.std::vector.3"], [26 x %"class.std::vector.3"]* %8, i64 0, i64 18, i32 0, i32 0, i32 0, i32 0
  %691 = load i32*, i32** %690, align 16, !tbaa !16
  %692 = icmp eq i32* %691, null
  br i1 %692, label %695, label %693

693:                                              ; preds = %689
  %694 = bitcast i32* %691 to i8*
  call void @_ZdlPv(i8* nonnull %694) #14
  br label %695

695:                                              ; preds = %693, %689
  %696 = getelementptr inbounds [26 x %"class.std::vector.3"], [26 x %"class.std::vector.3"]* %8, i64 0, i64 17, i32 0, i32 0, i32 0, i32 0
  %697 = load i32*, i32** %696, align 8, !tbaa !16
  %698 = icmp eq i32* %697, null
  br i1 %698, label %701, label %699

699:                                              ; preds = %695
  %700 = bitcast i32* %697 to i8*
  call void @_ZdlPv(i8* nonnull %700) #14
  br label %701

701:                                              ; preds = %699, %695
  %702 = getelementptr inbounds [26 x %"class.std::vector.3"], [26 x %"class.std::vector.3"]* %8, i64 0, i64 16, i32 0, i32 0, i32 0, i32 0
  %703 = load i32*, i32** %702, align 16, !tbaa !16
  %704 = icmp eq i32* %703, null
  br i1 %704, label %707, label %705

705:                                              ; preds = %701
  %706 = bitcast i32* %703 to i8*
  call void @_ZdlPv(i8* nonnull %706) #14
  br label %707

707:                                              ; preds = %705, %701
  %708 = getelementptr inbounds [26 x %"class.std::vector.3"], [26 x %"class.std::vector.3"]* %8, i64 0, i64 15, i32 0, i32 0, i32 0, i32 0
  %709 = load i32*, i32** %708, align 8, !tbaa !16
  %710 = icmp eq i32* %709, null
  br i1 %710, label %713, label %711

711:                                              ; preds = %707
  %712 = bitcast i32* %709 to i8*
  call void @_ZdlPv(i8* nonnull %712) #14
  br label %713

713:                                              ; preds = %711, %707
  %714 = getelementptr inbounds [26 x %"class.std::vector.3"], [26 x %"class.std::vector.3"]* %8, i64 0, i64 14, i32 0, i32 0, i32 0, i32 0
  %715 = load i32*, i32** %714, align 16, !tbaa !16
  %716 = icmp eq i32* %715, null
  br i1 %716, label %719, label %717

717:                                              ; preds = %713
  %718 = bitcast i32* %715 to i8*
  call void @_ZdlPv(i8* nonnull %718) #14
  br label %719

719:                                              ; preds = %717, %713
  %720 = getelementptr inbounds [26 x %"class.std::vector.3"], [26 x %"class.std::vector.3"]* %8, i64 0, i64 13, i32 0, i32 0, i32 0, i32 0
  %721 = load i32*, i32** %720, align 8, !tbaa !16
  %722 = icmp eq i32* %721, null
  br i1 %722, label %725, label %723

723:                                              ; preds = %719
  %724 = bitcast i32* %721 to i8*
  call void @_ZdlPv(i8* nonnull %724) #14
  br label %725

725:                                              ; preds = %723, %719
  %726 = getelementptr inbounds [26 x %"class.std::vector.3"], [26 x %"class.std::vector.3"]* %8, i64 0, i64 12, i32 0, i32 0, i32 0, i32 0
  %727 = load i32*, i32** %726, align 16, !tbaa !16
  %728 = icmp eq i32* %727, null
  br i1 %728, label %731, label %729

729:                                              ; preds = %725
  %730 = bitcast i32* %727 to i8*
  call void @_ZdlPv(i8* nonnull %730) #14
  br label %731

731:                                              ; preds = %729, %725
  %732 = getelementptr inbounds [26 x %"class.std::vector.3"], [26 x %"class.std::vector.3"]* %8, i64 0, i64 11, i32 0, i32 0, i32 0, i32 0
  %733 = load i32*, i32** %732, align 8, !tbaa !16
  %734 = icmp eq i32* %733, null
  br i1 %734, label %737, label %735

735:                                              ; preds = %731
  %736 = bitcast i32* %733 to i8*
  call void @_ZdlPv(i8* nonnull %736) #14
  br label %737

737:                                              ; preds = %735, %731
  %738 = getelementptr inbounds [26 x %"class.std::vector.3"], [26 x %"class.std::vector.3"]* %8, i64 0, i64 10, i32 0, i32 0, i32 0, i32 0
  %739 = load i32*, i32** %738, align 16, !tbaa !16
  %740 = icmp eq i32* %739, null
  br i1 %740, label %743, label %741

741:                                              ; preds = %737
  %742 = bitcast i32* %739 to i8*
  call void @_ZdlPv(i8* nonnull %742) #14
  br label %743

743:                                              ; preds = %741, %737
  %744 = getelementptr inbounds [26 x %"class.std::vector.3"], [26 x %"class.std::vector.3"]* %8, i64 0, i64 9, i32 0, i32 0, i32 0, i32 0
  %745 = load i32*, i32** %744, align 8, !tbaa !16
  %746 = icmp eq i32* %745, null
  br i1 %746, label %749, label %747

747:                                              ; preds = %743
  %748 = bitcast i32* %745 to i8*
  call void @_ZdlPv(i8* nonnull %748) #14
  br label %749

749:                                              ; preds = %747, %743
  %750 = getelementptr inbounds [26 x %"class.std::vector.3"], [26 x %"class.std::vector.3"]* %8, i64 0, i64 8, i32 0, i32 0, i32 0, i32 0
  %751 = load i32*, i32** %750, align 16, !tbaa !16
  %752 = icmp eq i32* %751, null
  br i1 %752, label %755, label %753

753:                                              ; preds = %749
  %754 = bitcast i32* %751 to i8*
  call void @_ZdlPv(i8* nonnull %754) #14
  br label %755

755:                                              ; preds = %753, %749
  %756 = getelementptr inbounds [26 x %"class.std::vector.3"], [26 x %"class.std::vector.3"]* %8, i64 0, i64 7, i32 0, i32 0, i32 0, i32 0
  %757 = load i32*, i32** %756, align 8, !tbaa !16
  %758 = icmp eq i32* %757, null
  br i1 %758, label %761, label %759

759:                                              ; preds = %755
  %760 = bitcast i32* %757 to i8*
  call void @_ZdlPv(i8* nonnull %760) #14
  br label %761

761:                                              ; preds = %759, %755
  %762 = getelementptr inbounds [26 x %"class.std::vector.3"], [26 x %"class.std::vector.3"]* %8, i64 0, i64 6, i32 0, i32 0, i32 0, i32 0
  %763 = load i32*, i32** %762, align 16, !tbaa !16
  %764 = icmp eq i32* %763, null
  br i1 %764, label %767, label %765

765:                                              ; preds = %761
  %766 = bitcast i32* %763 to i8*
  call void @_ZdlPv(i8* nonnull %766) #14
  br label %767

767:                                              ; preds = %765, %761
  %768 = getelementptr inbounds [26 x %"class.std::vector.3"], [26 x %"class.std::vector.3"]* %8, i64 0, i64 5, i32 0, i32 0, i32 0, i32 0
  %769 = load i32*, i32** %768, align 8, !tbaa !16
  %770 = icmp eq i32* %769, null
  br i1 %770, label %773, label %771

771:                                              ; preds = %767
  %772 = bitcast i32* %769 to i8*
  call void @_ZdlPv(i8* nonnull %772) #14
  br label %773

773:                                              ; preds = %771, %767
  %774 = getelementptr inbounds [26 x %"class.std::vector.3"], [26 x %"class.std::vector.3"]* %8, i64 0, i64 4, i32 0, i32 0, i32 0, i32 0
  %775 = load i32*, i32** %774, align 16, !tbaa !16
  %776 = icmp eq i32* %775, null
  br i1 %776, label %779, label %777

777:                                              ; preds = %773
  %778 = bitcast i32* %775 to i8*
  call void @_ZdlPv(i8* nonnull %778) #14
  br label %779

779:                                              ; preds = %777, %773
  %780 = getelementptr inbounds [26 x %"class.std::vector.3"], [26 x %"class.std::vector.3"]* %8, i64 0, i64 3, i32 0, i32 0, i32 0, i32 0
  %781 = load i32*, i32** %780, align 8, !tbaa !16
  %782 = icmp eq i32* %781, null
  br i1 %782, label %785, label %783

783:                                              ; preds = %779
  %784 = bitcast i32* %781 to i8*
  call void @_ZdlPv(i8* nonnull %784) #14
  br label %785

785:                                              ; preds = %783, %779
  %786 = getelementptr inbounds [26 x %"class.std::vector.3"], [26 x %"class.std::vector.3"]* %8, i64 0, i64 2, i32 0, i32 0, i32 0, i32 0
  %787 = load i32*, i32** %786, align 16, !tbaa !16
  %788 = icmp eq i32* %787, null
  br i1 %788, label %791, label %789

789:                                              ; preds = %785
  %790 = bitcast i32* %787 to i8*
  call void @_ZdlPv(i8* nonnull %790) #14
  br label %791

791:                                              ; preds = %789, %785
  %792 = getelementptr inbounds [26 x %"class.std::vector.3"], [26 x %"class.std::vector.3"]* %8, i64 0, i64 1, i32 0, i32 0, i32 0, i32 0
  %793 = load i32*, i32** %792, align 8, !tbaa !16
  %794 = icmp eq i32* %793, null
  br i1 %794, label %797, label %795

795:                                              ; preds = %791
  %796 = bitcast i32* %793 to i8*
  call void @_ZdlPv(i8* nonnull %796) #14
  br label %797

797:                                              ; preds = %795, %791
  %798 = getelementptr inbounds [26 x %"class.std::vector.3"], [26 x %"class.std::vector.3"]* %8, i64 0, i64 0, i32 0, i32 0, i32 0, i32 0
  %799 = load i32*, i32** %798, align 16, !tbaa !16
  %800 = icmp eq i32* %799, null
  br i1 %800, label %803, label %801

801:                                              ; preds = %797
  %802 = bitcast i32* %799 to i8*
  call void @_ZdlPv(i8* nonnull %802) #14
  br label %803

803:                                              ; preds = %801, %797
  call void @llvm.lifetime.end.p0i8(i64 624, i8* nonnull %9) #14
  %804 = getelementptr inbounds [26 x %"class.std::vector.3"], [26 x %"class.std::vector.3"]* %6, i64 0, i64 25, i32 0, i32 0, i32 0, i32 0
  %805 = load i32*, i32** %804, align 8, !tbaa !16
  %806 = icmp eq i32* %805, null
  br i1 %806, label %613, label %611

807:                                              ; preds = %613
  %808 = bitcast i32* %615 to i8*
  call void @_ZdlPv(i8* nonnull %808) #14
  br label %809

809:                                              ; preds = %807, %613
  %810 = getelementptr inbounds [26 x %"class.std::vector.3"], [26 x %"class.std::vector.3"]* %6, i64 0, i64 23, i32 0, i32 0, i32 0, i32 0
  %811 = load i32*, i32** %810, align 8, !tbaa !16
  %812 = icmp eq i32* %811, null
  br i1 %812, label %815, label %813

813:                                              ; preds = %809
  %814 = bitcast i32* %811 to i8*
  call void @_ZdlPv(i8* nonnull %814) #14
  br label %815

815:                                              ; preds = %813, %809
  %816 = getelementptr inbounds [26 x %"class.std::vector.3"], [26 x %"class.std::vector.3"]* %6, i64 0, i64 22, i32 0, i32 0, i32 0, i32 0
  %817 = load i32*, i32** %816, align 16, !tbaa !16
  %818 = icmp eq i32* %817, null
  br i1 %818, label %821, label %819

819:                                              ; preds = %815
  %820 = bitcast i32* %817 to i8*
  call void @_ZdlPv(i8* nonnull %820) #14
  br label %821

821:                                              ; preds = %819, %815
  %822 = getelementptr inbounds [26 x %"class.std::vector.3"], [26 x %"class.std::vector.3"]* %6, i64 0, i64 21, i32 0, i32 0, i32 0, i32 0
  %823 = load i32*, i32** %822, align 8, !tbaa !16
  %824 = icmp eq i32* %823, null
  br i1 %824, label %827, label %825

825:                                              ; preds = %821
  %826 = bitcast i32* %823 to i8*
  call void @_ZdlPv(i8* nonnull %826) #14
  br label %827

827:                                              ; preds = %825, %821
  %828 = getelementptr inbounds [26 x %"class.std::vector.3"], [26 x %"class.std::vector.3"]* %6, i64 0, i64 20, i32 0, i32 0, i32 0, i32 0
  %829 = load i32*, i32** %828, align 16, !tbaa !16
  %830 = icmp eq i32* %829, null
  br i1 %830, label %833, label %831

831:                                              ; preds = %827
  %832 = bitcast i32* %829 to i8*
  call void @_ZdlPv(i8* nonnull %832) #14
  br label %833

833:                                              ; preds = %831, %827
  %834 = getelementptr inbounds [26 x %"class.std::vector.3"], [26 x %"class.std::vector.3"]* %6, i64 0, i64 19, i32 0, i32 0, i32 0, i32 0
  %835 = load i32*, i32** %834, align 8, !tbaa !16
  %836 = icmp eq i32* %835, null
  br i1 %836, label %839, label %837

837:                                              ; preds = %833
  %838 = bitcast i32* %835 to i8*
  call void @_ZdlPv(i8* nonnull %838) #14
  br label %839

839:                                              ; preds = %837, %833
  %840 = getelementptr inbounds [26 x %"class.std::vector.3"], [26 x %"class.std::vector.3"]* %6, i64 0, i64 18, i32 0, i32 0, i32 0, i32 0
  %841 = load i32*, i32** %840, align 16, !tbaa !16
  %842 = icmp eq i32* %841, null
  br i1 %842, label %845, label %843

843:                                              ; preds = %839
  %844 = bitcast i32* %841 to i8*
  call void @_ZdlPv(i8* nonnull %844) #14
  br label %845

845:                                              ; preds = %843, %839
  %846 = getelementptr inbounds [26 x %"class.std::vector.3"], [26 x %"class.std::vector.3"]* %6, i64 0, i64 17, i32 0, i32 0, i32 0, i32 0
  %847 = load i32*, i32** %846, align 8, !tbaa !16
  %848 = icmp eq i32* %847, null
  br i1 %848, label %851, label %849

849:                                              ; preds = %845
  %850 = bitcast i32* %847 to i8*
  call void @_ZdlPv(i8* nonnull %850) #14
  br label %851

851:                                              ; preds = %849, %845
  %852 = getelementptr inbounds [26 x %"class.std::vector.3"], [26 x %"class.std::vector.3"]* %6, i64 0, i64 16, i32 0, i32 0, i32 0, i32 0
  %853 = load i32*, i32** %852, align 16, !tbaa !16
  %854 = icmp eq i32* %853, null
  br i1 %854, label %857, label %855

855:                                              ; preds = %851
  %856 = bitcast i32* %853 to i8*
  call void @_ZdlPv(i8* nonnull %856) #14
  br label %857

857:                                              ; preds = %855, %851
  %858 = getelementptr inbounds [26 x %"class.std::vector.3"], [26 x %"class.std::vector.3"]* %6, i64 0, i64 15, i32 0, i32 0, i32 0, i32 0
  %859 = load i32*, i32** %858, align 8, !tbaa !16
  %860 = icmp eq i32* %859, null
  br i1 %860, label %863, label %861

861:                                              ; preds = %857
  %862 = bitcast i32* %859 to i8*
  call void @_ZdlPv(i8* nonnull %862) #14
  br label %863

863:                                              ; preds = %861, %857
  %864 = getelementptr inbounds [26 x %"class.std::vector.3"], [26 x %"class.std::vector.3"]* %6, i64 0, i64 14, i32 0, i32 0, i32 0, i32 0
  %865 = load i32*, i32** %864, align 16, !tbaa !16
  %866 = icmp eq i32* %865, null
  br i1 %866, label %869, label %867

867:                                              ; preds = %863
  %868 = bitcast i32* %865 to i8*
  call void @_ZdlPv(i8* nonnull %868) #14
  br label %869

869:                                              ; preds = %867, %863
  %870 = getelementptr inbounds [26 x %"class.std::vector.3"], [26 x %"class.std::vector.3"]* %6, i64 0, i64 13, i32 0, i32 0, i32 0, i32 0
  %871 = load i32*, i32** %870, align 8, !tbaa !16
  %872 = icmp eq i32* %871, null
  br i1 %872, label %875, label %873

873:                                              ; preds = %869
  %874 = bitcast i32* %871 to i8*
  call void @_ZdlPv(i8* nonnull %874) #14
  br label %875

875:                                              ; preds = %873, %869
  %876 = getelementptr inbounds [26 x %"class.std::vector.3"], [26 x %"class.std::vector.3"]* %6, i64 0, i64 12, i32 0, i32 0, i32 0, i32 0
  %877 = load i32*, i32** %876, align 16, !tbaa !16
  %878 = icmp eq i32* %877, null
  br i1 %878, label %881, label %879

879:                                              ; preds = %875
  %880 = bitcast i32* %877 to i8*
  call void @_ZdlPv(i8* nonnull %880) #14
  br label %881

881:                                              ; preds = %879, %875
  %882 = getelementptr inbounds [26 x %"class.std::vector.3"], [26 x %"class.std::vector.3"]* %6, i64 0, i64 11, i32 0, i32 0, i32 0, i32 0
  %883 = load i32*, i32** %882, align 8, !tbaa !16
  %884 = icmp eq i32* %883, null
  br i1 %884, label %887, label %885

885:                                              ; preds = %881
  %886 = bitcast i32* %883 to i8*
  call void @_ZdlPv(i8* nonnull %886) #14
  br label %887

887:                                              ; preds = %885, %881
  %888 = getelementptr inbounds [26 x %"class.std::vector.3"], [26 x %"class.std::vector.3"]* %6, i64 0, i64 10, i32 0, i32 0, i32 0, i32 0
  %889 = load i32*, i32** %888, align 16, !tbaa !16
  %890 = icmp eq i32* %889, null
  br i1 %890, label %893, label %891

891:                                              ; preds = %887
  %892 = bitcast i32* %889 to i8*
  call void @_ZdlPv(i8* nonnull %892) #14
  br label %893

893:                                              ; preds = %891, %887
  %894 = getelementptr inbounds [26 x %"class.std::vector.3"], [26 x %"class.std::vector.3"]* %6, i64 0, i64 9, i32 0, i32 0, i32 0, i32 0
  %895 = load i32*, i32** %894, align 8, !tbaa !16
  %896 = icmp eq i32* %895, null
  br i1 %896, label %899, label %897

897:                                              ; preds = %893
  %898 = bitcast i32* %895 to i8*
  call void @_ZdlPv(i8* nonnull %898) #14
  br label %899

899:                                              ; preds = %897, %893
  %900 = getelementptr inbounds [26 x %"class.std::vector.3"], [26 x %"class.std::vector.3"]* %6, i64 0, i64 8, i32 0, i32 0, i32 0, i32 0
  %901 = load i32*, i32** %900, align 16, !tbaa !16
  %902 = icmp eq i32* %901, null
  br i1 %902, label %905, label %903

903:                                              ; preds = %899
  %904 = bitcast i32* %901 to i8*
  call void @_ZdlPv(i8* nonnull %904) #14
  br label %905

905:                                              ; preds = %903, %899
  %906 = getelementptr inbounds [26 x %"class.std::vector.3"], [26 x %"class.std::vector.3"]* %6, i64 0, i64 7, i32 0, i32 0, i32 0, i32 0
  %907 = load i32*, i32** %906, align 8, !tbaa !16
  %908 = icmp eq i32* %907, null
  br i1 %908, label %911, label %909

909:                                              ; preds = %905
  %910 = bitcast i32* %907 to i8*
  call void @_ZdlPv(i8* nonnull %910) #14
  br label %911

911:                                              ; preds = %909, %905
  %912 = getelementptr inbounds [26 x %"class.std::vector.3"], [26 x %"class.std::vector.3"]* %6, i64 0, i64 6, i32 0, i32 0, i32 0, i32 0
  %913 = load i32*, i32** %912, align 16, !tbaa !16
  %914 = icmp eq i32* %913, null
  br i1 %914, label %917, label %915

915:                                              ; preds = %911
  %916 = bitcast i32* %913 to i8*
  call void @_ZdlPv(i8* nonnull %916) #14
  br label %917

917:                                              ; preds = %915, %911
  %918 = getelementptr inbounds [26 x %"class.std::vector.3"], [26 x %"class.std::vector.3"]* %6, i64 0, i64 5, i32 0, i32 0, i32 0, i32 0
  %919 = load i32*, i32** %918, align 8, !tbaa !16
  %920 = icmp eq i32* %919, null
  br i1 %920, label %923, label %921

921:                                              ; preds = %917
  %922 = bitcast i32* %919 to i8*
  call void @_ZdlPv(i8* nonnull %922) #14
  br label %923

923:                                              ; preds = %921, %917
  %924 = getelementptr inbounds [26 x %"class.std::vector.3"], [26 x %"class.std::vector.3"]* %6, i64 0, i64 4, i32 0, i32 0, i32 0, i32 0
  %925 = load i32*, i32** %924, align 16, !tbaa !16
  %926 = icmp eq i32* %925, null
  br i1 %926, label %929, label %927

927:                                              ; preds = %923
  %928 = bitcast i32* %925 to i8*
  call void @_ZdlPv(i8* nonnull %928) #14
  br label %929

929:                                              ; preds = %927, %923
  %930 = getelementptr inbounds [26 x %"class.std::vector.3"], [26 x %"class.std::vector.3"]* %6, i64 0, i64 3, i32 0, i32 0, i32 0, i32 0
  %931 = load i32*, i32** %930, align 8, !tbaa !16
  %932 = icmp eq i32* %931, null
  br i1 %932, label %935, label %933

933:                                              ; preds = %929
  %934 = bitcast i32* %931 to i8*
  call void @_ZdlPv(i8* nonnull %934) #14
  br label %935

935:                                              ; preds = %933, %929
  %936 = getelementptr inbounds [26 x %"class.std::vector.3"], [26 x %"class.std::vector.3"]* %6, i64 0, i64 2, i32 0, i32 0, i32 0, i32 0
  %937 = load i32*, i32** %936, align 16, !tbaa !16
  %938 = icmp eq i32* %937, null
  br i1 %938, label %941, label %939

939:                                              ; preds = %935
  %940 = bitcast i32* %937 to i8*
  call void @_ZdlPv(i8* nonnull %940) #14
  br label %941

941:                                              ; preds = %939, %935
  %942 = getelementptr inbounds [26 x %"class.std::vector.3"], [26 x %"class.std::vector.3"]* %6, i64 0, i64 1, i32 0, i32 0, i32 0, i32 0
  %943 = load i32*, i32** %942, align 8, !tbaa !16
  %944 = icmp eq i32* %943, null
  br i1 %944, label %947, label %945

945:                                              ; preds = %941
  %946 = bitcast i32* %943 to i8*
  call void @_ZdlPv(i8* nonnull %946) #14
  br label %947

947:                                              ; preds = %945, %941
  %948 = getelementptr inbounds [26 x %"class.std::vector.3"], [26 x %"class.std::vector.3"]* %6, i64 0, i64 0, i32 0, i32 0, i32 0, i32 0
  %949 = load i32*, i32** %948, align 16, !tbaa !16
  %950 = icmp eq i32* %949, null
  br i1 %950, label %953, label %951

951:                                              ; preds = %947
  %952 = bitcast i32* %949 to i8*
  call void @_ZdlPv(i8* nonnull %952) #14
  br label %953

953:                                              ; preds = %951, %947
  call void @llvm.lifetime.end.p0i8(i64 624, i8* nonnull %7) #14
  %954 = load %"class.std::vector.3"*, %"class.std::vector.3"** %54, align 8, !tbaa !20
  %955 = load %"class.std::vector.3"*, %"class.std::vector.3"** %55, align 8, !tbaa !22
  %956 = icmp eq %"class.std::vector.3"* %954, %955
  br i1 %956, label %627, label %617

957:                                              ; preds = %638
  %958 = bitcast i32* %640 to i8*
  call void @_ZdlPv(i8* nonnull %958) #14
  br label %959

959:                                              ; preds = %957, %638
  %960 = getelementptr inbounds [26 x %"class.std::vector.3"], [26 x %"class.std::vector.3"]* %8, i64 0, i64 23, i32 0, i32 0, i32 0, i32 0
  %961 = load i32*, i32** %960, align 8, !tbaa !16
  %962 = icmp eq i32* %961, null
  br i1 %962, label %965, label %963

963:                                              ; preds = %959
  %964 = bitcast i32* %961 to i8*
  call void @_ZdlPv(i8* nonnull %964) #14
  br label %965

965:                                              ; preds = %963, %959
  %966 = getelementptr inbounds [26 x %"class.std::vector.3"], [26 x %"class.std::vector.3"]* %8, i64 0, i64 22, i32 0, i32 0, i32 0, i32 0
  %967 = load i32*, i32** %966, align 16, !tbaa !16
  %968 = icmp eq i32* %967, null
  br i1 %968, label %971, label %969

969:                                              ; preds = %965
  %970 = bitcast i32* %967 to i8*
  call void @_ZdlPv(i8* nonnull %970) #14
  br label %971

971:                                              ; preds = %969, %965
  %972 = getelementptr inbounds [26 x %"class.std::vector.3"], [26 x %"class.std::vector.3"]* %8, i64 0, i64 21, i32 0, i32 0, i32 0, i32 0
  %973 = load i32*, i32** %972, align 8, !tbaa !16
  %974 = icmp eq i32* %973, null
  br i1 %974, label %977, label %975

975:                                              ; preds = %971
  %976 = bitcast i32* %973 to i8*
  call void @_ZdlPv(i8* nonnull %976) #14
  br label %977

977:                                              ; preds = %975, %971
  %978 = getelementptr inbounds [26 x %"class.std::vector.3"], [26 x %"class.std::vector.3"]* %8, i64 0, i64 20, i32 0, i32 0, i32 0, i32 0
  %979 = load i32*, i32** %978, align 16, !tbaa !16
  %980 = icmp eq i32* %979, null
  br i1 %980, label %983, label %981

981:                                              ; preds = %977
  %982 = bitcast i32* %979 to i8*
  call void @_ZdlPv(i8* nonnull %982) #14
  br label %983

983:                                              ; preds = %981, %977
  %984 = getelementptr inbounds [26 x %"class.std::vector.3"], [26 x %"class.std::vector.3"]* %8, i64 0, i64 19, i32 0, i32 0, i32 0, i32 0
  %985 = load i32*, i32** %984, align 8, !tbaa !16
  %986 = icmp eq i32* %985, null
  br i1 %986, label %989, label %987

987:                                              ; preds = %983
  %988 = bitcast i32* %985 to i8*
  call void @_ZdlPv(i8* nonnull %988) #14
  br label %989

989:                                              ; preds = %987, %983
  %990 = getelementptr inbounds [26 x %"class.std::vector.3"], [26 x %"class.std::vector.3"]* %8, i64 0, i64 18, i32 0, i32 0, i32 0, i32 0
  %991 = load i32*, i32** %990, align 16, !tbaa !16
  %992 = icmp eq i32* %991, null
  br i1 %992, label %995, label %993

993:                                              ; preds = %989
  %994 = bitcast i32* %991 to i8*
  call void @_ZdlPv(i8* nonnull %994) #14
  br label %995

995:                                              ; preds = %993, %989
  %996 = getelementptr inbounds [26 x %"class.std::vector.3"], [26 x %"class.std::vector.3"]* %8, i64 0, i64 17, i32 0, i32 0, i32 0, i32 0
  %997 = load i32*, i32** %996, align 8, !tbaa !16
  %998 = icmp eq i32* %997, null
  br i1 %998, label %1001, label %999

999:                                              ; preds = %995
  %1000 = bitcast i32* %997 to i8*
  call void @_ZdlPv(i8* nonnull %1000) #14
  br label %1001

1001:                                             ; preds = %999, %995
  %1002 = getelementptr inbounds [26 x %"class.std::vector.3"], [26 x %"class.std::vector.3"]* %8, i64 0, i64 16, i32 0, i32 0, i32 0, i32 0
  %1003 = load i32*, i32** %1002, align 16, !tbaa !16
  %1004 = icmp eq i32* %1003, null
  br i1 %1004, label %1007, label %1005

1005:                                             ; preds = %1001
  %1006 = bitcast i32* %1003 to i8*
  call void @_ZdlPv(i8* nonnull %1006) #14
  br label %1007

1007:                                             ; preds = %1005, %1001
  %1008 = getelementptr inbounds [26 x %"class.std::vector.3"], [26 x %"class.std::vector.3"]* %8, i64 0, i64 15, i32 0, i32 0, i32 0, i32 0
  %1009 = load i32*, i32** %1008, align 8, !tbaa !16
  %1010 = icmp eq i32* %1009, null
  br i1 %1010, label %1013, label %1011

1011:                                             ; preds = %1007
  %1012 = bitcast i32* %1009 to i8*
  call void @_ZdlPv(i8* nonnull %1012) #14
  br label %1013

1013:                                             ; preds = %1011, %1007
  %1014 = getelementptr inbounds [26 x %"class.std::vector.3"], [26 x %"class.std::vector.3"]* %8, i64 0, i64 14, i32 0, i32 0, i32 0, i32 0
  %1015 = load i32*, i32** %1014, align 16, !tbaa !16
  %1016 = icmp eq i32* %1015, null
  br i1 %1016, label %1019, label %1017

1017:                                             ; preds = %1013
  %1018 = bitcast i32* %1015 to i8*
  call void @_ZdlPv(i8* nonnull %1018) #14
  br label %1019

1019:                                             ; preds = %1017, %1013
  %1020 = getelementptr inbounds [26 x %"class.std::vector.3"], [26 x %"class.std::vector.3"]* %8, i64 0, i64 13, i32 0, i32 0, i32 0, i32 0
  %1021 = load i32*, i32** %1020, align 8, !tbaa !16
  %1022 = icmp eq i32* %1021, null
  br i1 %1022, label %1025, label %1023

1023:                                             ; preds = %1019
  %1024 = bitcast i32* %1021 to i8*
  call void @_ZdlPv(i8* nonnull %1024) #14
  br label %1025

1025:                                             ; preds = %1023, %1019
  %1026 = getelementptr inbounds [26 x %"class.std::vector.3"], [26 x %"class.std::vector.3"]* %8, i64 0, i64 12, i32 0, i32 0, i32 0, i32 0
  %1027 = load i32*, i32** %1026, align 16, !tbaa !16
  %1028 = icmp eq i32* %1027, null
  br i1 %1028, label %1031, label %1029

1029:                                             ; preds = %1025
  %1030 = bitcast i32* %1027 to i8*
  call void @_ZdlPv(i8* nonnull %1030) #14
  br label %1031

1031:                                             ; preds = %1029, %1025
  %1032 = getelementptr inbounds [26 x %"class.std::vector.3"], [26 x %"class.std::vector.3"]* %8, i64 0, i64 11, i32 0, i32 0, i32 0, i32 0
  %1033 = load i32*, i32** %1032, align 8, !tbaa !16
  %1034 = icmp eq i32* %1033, null
  br i1 %1034, label %1037, label %1035

1035:                                             ; preds = %1031
  %1036 = bitcast i32* %1033 to i8*
  call void @_ZdlPv(i8* nonnull %1036) #14
  br label %1037

1037:                                             ; preds = %1035, %1031
  %1038 = getelementptr inbounds [26 x %"class.std::vector.3"], [26 x %"class.std::vector.3"]* %8, i64 0, i64 10, i32 0, i32 0, i32 0, i32 0
  %1039 = load i32*, i32** %1038, align 16, !tbaa !16
  %1040 = icmp eq i32* %1039, null
  br i1 %1040, label %1043, label %1041

1041:                                             ; preds = %1037
  %1042 = bitcast i32* %1039 to i8*
  call void @_ZdlPv(i8* nonnull %1042) #14
  br label %1043

1043:                                             ; preds = %1041, %1037
  %1044 = getelementptr inbounds [26 x %"class.std::vector.3"], [26 x %"class.std::vector.3"]* %8, i64 0, i64 9, i32 0, i32 0, i32 0, i32 0
  %1045 = load i32*, i32** %1044, align 8, !tbaa !16
  %1046 = icmp eq i32* %1045, null
  br i1 %1046, label %1049, label %1047

1047:                                             ; preds = %1043
  %1048 = bitcast i32* %1045 to i8*
  call void @_ZdlPv(i8* nonnull %1048) #14
  br label %1049

1049:                                             ; preds = %1047, %1043
  %1050 = getelementptr inbounds [26 x %"class.std::vector.3"], [26 x %"class.std::vector.3"]* %8, i64 0, i64 8, i32 0, i32 0, i32 0, i32 0
  %1051 = load i32*, i32** %1050, align 16, !tbaa !16
  %1052 = icmp eq i32* %1051, null
  br i1 %1052, label %1055, label %1053

1053:                                             ; preds = %1049
  %1054 = bitcast i32* %1051 to i8*
  call void @_ZdlPv(i8* nonnull %1054) #14
  br label %1055

1055:                                             ; preds = %1053, %1049
  %1056 = getelementptr inbounds [26 x %"class.std::vector.3"], [26 x %"class.std::vector.3"]* %8, i64 0, i64 7, i32 0, i32 0, i32 0, i32 0
  %1057 = load i32*, i32** %1056, align 8, !tbaa !16
  %1058 = icmp eq i32* %1057, null
  br i1 %1058, label %1061, label %1059

1059:                                             ; preds = %1055
  %1060 = bitcast i32* %1057 to i8*
  call void @_ZdlPv(i8* nonnull %1060) #14
  br label %1061

1061:                                             ; preds = %1059, %1055
  %1062 = getelementptr inbounds [26 x %"class.std::vector.3"], [26 x %"class.std::vector.3"]* %8, i64 0, i64 6, i32 0, i32 0, i32 0, i32 0
  %1063 = load i32*, i32** %1062, align 16, !tbaa !16
  %1064 = icmp eq i32* %1063, null
  br i1 %1064, label %1067, label %1065

1065:                                             ; preds = %1061
  %1066 = bitcast i32* %1063 to i8*
  call void @_ZdlPv(i8* nonnull %1066) #14
  br label %1067

1067:                                             ; preds = %1065, %1061
  %1068 = getelementptr inbounds [26 x %"class.std::vector.3"], [26 x %"class.std::vector.3"]* %8, i64 0, i64 5, i32 0, i32 0, i32 0, i32 0
  %1069 = load i32*, i32** %1068, align 8, !tbaa !16
  %1070 = icmp eq i32* %1069, null
  br i1 %1070, label %1073, label %1071

1071:                                             ; preds = %1067
  %1072 = bitcast i32* %1069 to i8*
  call void @_ZdlPv(i8* nonnull %1072) #14
  br label %1073

1073:                                             ; preds = %1071, %1067
  %1074 = getelementptr inbounds [26 x %"class.std::vector.3"], [26 x %"class.std::vector.3"]* %8, i64 0, i64 4, i32 0, i32 0, i32 0, i32 0
  %1075 = load i32*, i32** %1074, align 16, !tbaa !16
  %1076 = icmp eq i32* %1075, null
  br i1 %1076, label %1079, label %1077

1077:                                             ; preds = %1073
  %1078 = bitcast i32* %1075 to i8*
  call void @_ZdlPv(i8* nonnull %1078) #14
  br label %1079

1079:                                             ; preds = %1077, %1073
  %1080 = getelementptr inbounds [26 x %"class.std::vector.3"], [26 x %"class.std::vector.3"]* %8, i64 0, i64 3, i32 0, i32 0, i32 0, i32 0
  %1081 = load i32*, i32** %1080, align 8, !tbaa !16
  %1082 = icmp eq i32* %1081, null
  br i1 %1082, label %1085, label %1083

1083:                                             ; preds = %1079
  %1084 = bitcast i32* %1081 to i8*
  call void @_ZdlPv(i8* nonnull %1084) #14
  br label %1085

1085:                                             ; preds = %1083, %1079
  %1086 = getelementptr inbounds [26 x %"class.std::vector.3"], [26 x %"class.std::vector.3"]* %8, i64 0, i64 2, i32 0, i32 0, i32 0, i32 0
  %1087 = load i32*, i32** %1086, align 16, !tbaa !16
  %1088 = icmp eq i32* %1087, null
  br i1 %1088, label %1091, label %1089

1089:                                             ; preds = %1085
  %1090 = bitcast i32* %1087 to i8*
  call void @_ZdlPv(i8* nonnull %1090) #14
  br label %1091

1091:                                             ; preds = %1089, %1085
  %1092 = getelementptr inbounds [26 x %"class.std::vector.3"], [26 x %"class.std::vector.3"]* %8, i64 0, i64 1, i32 0, i32 0, i32 0, i32 0
  %1093 = load i32*, i32** %1092, align 8, !tbaa !16
  %1094 = icmp eq i32* %1093, null
  br i1 %1094, label %1097, label %1095

1095:                                             ; preds = %1091
  %1096 = bitcast i32* %1093 to i8*
  call void @_ZdlPv(i8* nonnull %1096) #14
  br label %1097

1097:                                             ; preds = %1095, %1091
  %1098 = getelementptr inbounds [26 x %"class.std::vector.3"], [26 x %"class.std::vector.3"]* %8, i64 0, i64 0, i32 0, i32 0, i32 0, i32 0
  %1099 = load i32*, i32** %1098, align 16, !tbaa !16
  %1100 = icmp eq i32* %1099, null
  br i1 %1100, label %1103, label %1101

1101:                                             ; preds = %1097
  %1102 = bitcast i32* %1099 to i8*
  call void @_ZdlPv(i8* nonnull %1102) #14
  br label %1103

1103:                                             ; preds = %1101, %1097
  call void @llvm.lifetime.end.p0i8(i64 624, i8* nonnull %9) #14
  %1104 = getelementptr inbounds [26 x %"class.std::vector.3"], [26 x %"class.std::vector.3"]* %6, i64 0, i64 25, i32 0, i32 0, i32 0, i32 0
  %1105 = load i32*, i32** %1104, align 8, !tbaa !16
  %1106 = icmp eq i32* %1105, null
  br i1 %1106, label %644, label %642

1107:                                             ; preds = %644
  %1108 = bitcast i32* %646 to i8*
  call void @_ZdlPv(i8* nonnull %1108) #14
  br label %1109

1109:                                             ; preds = %1107, %644
  %1110 = getelementptr inbounds [26 x %"class.std::vector.3"], [26 x %"class.std::vector.3"]* %6, i64 0, i64 23, i32 0, i32 0, i32 0, i32 0
  %1111 = load i32*, i32** %1110, align 8, !tbaa !16
  %1112 = icmp eq i32* %1111, null
  br i1 %1112, label %1115, label %1113

1113:                                             ; preds = %1109
  %1114 = bitcast i32* %1111 to i8*
  call void @_ZdlPv(i8* nonnull %1114) #14
  br label %1115

1115:                                             ; preds = %1113, %1109
  %1116 = getelementptr inbounds [26 x %"class.std::vector.3"], [26 x %"class.std::vector.3"]* %6, i64 0, i64 22, i32 0, i32 0, i32 0, i32 0
  %1117 = load i32*, i32** %1116, align 16, !tbaa !16
  %1118 = icmp eq i32* %1117, null
  br i1 %1118, label %1121, label %1119

1119:                                             ; preds = %1115
  %1120 = bitcast i32* %1117 to i8*
  call void @_ZdlPv(i8* nonnull %1120) #14
  br label %1121

1121:                                             ; preds = %1119, %1115
  %1122 = getelementptr inbounds [26 x %"class.std::vector.3"], [26 x %"class.std::vector.3"]* %6, i64 0, i64 21, i32 0, i32 0, i32 0, i32 0
  %1123 = load i32*, i32** %1122, align 8, !tbaa !16
  %1124 = icmp eq i32* %1123, null
  br i1 %1124, label %1127, label %1125

1125:                                             ; preds = %1121
  %1126 = bitcast i32* %1123 to i8*
  call void @_ZdlPv(i8* nonnull %1126) #14
  br label %1127

1127:                                             ; preds = %1125, %1121
  %1128 = getelementptr inbounds [26 x %"class.std::vector.3"], [26 x %"class.std::vector.3"]* %6, i64 0, i64 20, i32 0, i32 0, i32 0, i32 0
  %1129 = load i32*, i32** %1128, align 16, !tbaa !16
  %1130 = icmp eq i32* %1129, null
  br i1 %1130, label %1133, label %1131

1131:                                             ; preds = %1127
  %1132 = bitcast i32* %1129 to i8*
  call void @_ZdlPv(i8* nonnull %1132) #14
  br label %1133

1133:                                             ; preds = %1131, %1127
  %1134 = getelementptr inbounds [26 x %"class.std::vector.3"], [26 x %"class.std::vector.3"]* %6, i64 0, i64 19, i32 0, i32 0, i32 0, i32 0
  %1135 = load i32*, i32** %1134, align 8, !tbaa !16
  %1136 = icmp eq i32* %1135, null
  br i1 %1136, label %1139, label %1137

1137:                                             ; preds = %1133
  %1138 = bitcast i32* %1135 to i8*
  call void @_ZdlPv(i8* nonnull %1138) #14
  br label %1139

1139:                                             ; preds = %1137, %1133
  %1140 = getelementptr inbounds [26 x %"class.std::vector.3"], [26 x %"class.std::vector.3"]* %6, i64 0, i64 18, i32 0, i32 0, i32 0, i32 0
  %1141 = load i32*, i32** %1140, align 16, !tbaa !16
  %1142 = icmp eq i32* %1141, null
  br i1 %1142, label %1145, label %1143

1143:                                             ; preds = %1139
  %1144 = bitcast i32* %1141 to i8*
  call void @_ZdlPv(i8* nonnull %1144) #14
  br label %1145

1145:                                             ; preds = %1143, %1139
  %1146 = getelementptr inbounds [26 x %"class.std::vector.3"], [26 x %"class.std::vector.3"]* %6, i64 0, i64 17, i32 0, i32 0, i32 0, i32 0
  %1147 = load i32*, i32** %1146, align 8, !tbaa !16
  %1148 = icmp eq i32* %1147, null
  br i1 %1148, label %1151, label %1149

1149:                                             ; preds = %1145
  %1150 = bitcast i32* %1147 to i8*
  call void @_ZdlPv(i8* nonnull %1150) #14
  br label %1151

1151:                                             ; preds = %1149, %1145
  %1152 = getelementptr inbounds [26 x %"class.std::vector.3"], [26 x %"class.std::vector.3"]* %6, i64 0, i64 16, i32 0, i32 0, i32 0, i32 0
  %1153 = load i32*, i32** %1152, align 16, !tbaa !16
  %1154 = icmp eq i32* %1153, null
  br i1 %1154, label %1157, label %1155

1155:                                             ; preds = %1151
  %1156 = bitcast i32* %1153 to i8*
  call void @_ZdlPv(i8* nonnull %1156) #14
  br label %1157

1157:                                             ; preds = %1155, %1151
  %1158 = getelementptr inbounds [26 x %"class.std::vector.3"], [26 x %"class.std::vector.3"]* %6, i64 0, i64 15, i32 0, i32 0, i32 0, i32 0
  %1159 = load i32*, i32** %1158, align 8, !tbaa !16
  %1160 = icmp eq i32* %1159, null
  br i1 %1160, label %1163, label %1161

1161:                                             ; preds = %1157
  %1162 = bitcast i32* %1159 to i8*
  call void @_ZdlPv(i8* nonnull %1162) #14
  br label %1163

1163:                                             ; preds = %1161, %1157
  %1164 = getelementptr inbounds [26 x %"class.std::vector.3"], [26 x %"class.std::vector.3"]* %6, i64 0, i64 14, i32 0, i32 0, i32 0, i32 0
  %1165 = load i32*, i32** %1164, align 16, !tbaa !16
  %1166 = icmp eq i32* %1165, null
  br i1 %1166, label %1169, label %1167

1167:                                             ; preds = %1163
  %1168 = bitcast i32* %1165 to i8*
  call void @_ZdlPv(i8* nonnull %1168) #14
  br label %1169

1169:                                             ; preds = %1167, %1163
  %1170 = getelementptr inbounds [26 x %"class.std::vector.3"], [26 x %"class.std::vector.3"]* %6, i64 0, i64 13, i32 0, i32 0, i32 0, i32 0
  %1171 = load i32*, i32** %1170, align 8, !tbaa !16
  %1172 = icmp eq i32* %1171, null
  br i1 %1172, label %1175, label %1173

1173:                                             ; preds = %1169
  %1174 = bitcast i32* %1171 to i8*
  call void @_ZdlPv(i8* nonnull %1174) #14
  br label %1175

1175:                                             ; preds = %1173, %1169
  %1176 = getelementptr inbounds [26 x %"class.std::vector.3"], [26 x %"class.std::vector.3"]* %6, i64 0, i64 12, i32 0, i32 0, i32 0, i32 0
  %1177 = load i32*, i32** %1176, align 16, !tbaa !16
  %1178 = icmp eq i32* %1177, null
  br i1 %1178, label %1181, label %1179

1179:                                             ; preds = %1175
  %1180 = bitcast i32* %1177 to i8*
  call void @_ZdlPv(i8* nonnull %1180) #14
  br label %1181

1181:                                             ; preds = %1179, %1175
  %1182 = getelementptr inbounds [26 x %"class.std::vector.3"], [26 x %"class.std::vector.3"]* %6, i64 0, i64 11, i32 0, i32 0, i32 0, i32 0
  %1183 = load i32*, i32** %1182, align 8, !tbaa !16
  %1184 = icmp eq i32* %1183, null
  br i1 %1184, label %1187, label %1185

1185:                                             ; preds = %1181
  %1186 = bitcast i32* %1183 to i8*
  call void @_ZdlPv(i8* nonnull %1186) #14
  br label %1187

1187:                                             ; preds = %1185, %1181
  %1188 = getelementptr inbounds [26 x %"class.std::vector.3"], [26 x %"class.std::vector.3"]* %6, i64 0, i64 10, i32 0, i32 0, i32 0, i32 0
  %1189 = load i32*, i32** %1188, align 16, !tbaa !16
  %1190 = icmp eq i32* %1189, null
  br i1 %1190, label %1193, label %1191

1191:                                             ; preds = %1187
  %1192 = bitcast i32* %1189 to i8*
  call void @_ZdlPv(i8* nonnull %1192) #14
  br label %1193

1193:                                             ; preds = %1191, %1187
  %1194 = getelementptr inbounds [26 x %"class.std::vector.3"], [26 x %"class.std::vector.3"]* %6, i64 0, i64 9, i32 0, i32 0, i32 0, i32 0
  %1195 = load i32*, i32** %1194, align 8, !tbaa !16
  %1196 = icmp eq i32* %1195, null
  br i1 %1196, label %1199, label %1197

1197:                                             ; preds = %1193
  %1198 = bitcast i32* %1195 to i8*
  call void @_ZdlPv(i8* nonnull %1198) #14
  br label %1199

1199:                                             ; preds = %1197, %1193
  %1200 = getelementptr inbounds [26 x %"class.std::vector.3"], [26 x %"class.std::vector.3"]* %6, i64 0, i64 8, i32 0, i32 0, i32 0, i32 0
  %1201 = load i32*, i32** %1200, align 16, !tbaa !16
  %1202 = icmp eq i32* %1201, null
  br i1 %1202, label %1205, label %1203

1203:                                             ; preds = %1199
  %1204 = bitcast i32* %1201 to i8*
  call void @_ZdlPv(i8* nonnull %1204) #14
  br label %1205

1205:                                             ; preds = %1203, %1199
  %1206 = getelementptr inbounds [26 x %"class.std::vector.3"], [26 x %"class.std::vector.3"]* %6, i64 0, i64 7, i32 0, i32 0, i32 0, i32 0
  %1207 = load i32*, i32** %1206, align 8, !tbaa !16
  %1208 = icmp eq i32* %1207, null
  br i1 %1208, label %1211, label %1209

1209:                                             ; preds = %1205
  %1210 = bitcast i32* %1207 to i8*
  call void @_ZdlPv(i8* nonnull %1210) #14
  br label %1211

1211:                                             ; preds = %1209, %1205
  %1212 = getelementptr inbounds [26 x %"class.std::vector.3"], [26 x %"class.std::vector.3"]* %6, i64 0, i64 6, i32 0, i32 0, i32 0, i32 0
  %1213 = load i32*, i32** %1212, align 16, !tbaa !16
  %1214 = icmp eq i32* %1213, null
  br i1 %1214, label %1217, label %1215

1215:                                             ; preds = %1211
  %1216 = bitcast i32* %1213 to i8*
  call void @_ZdlPv(i8* nonnull %1216) #14
  br label %1217

1217:                                             ; preds = %1215, %1211
  %1218 = getelementptr inbounds [26 x %"class.std::vector.3"], [26 x %"class.std::vector.3"]* %6, i64 0, i64 5, i32 0, i32 0, i32 0, i32 0
  %1219 = load i32*, i32** %1218, align 8, !tbaa !16
  %1220 = icmp eq i32* %1219, null
  br i1 %1220, label %1223, label %1221

1221:                                             ; preds = %1217
  %1222 = bitcast i32* %1219 to i8*
  call void @_ZdlPv(i8* nonnull %1222) #14
  br label %1223

1223:                                             ; preds = %1221, %1217
  %1224 = getelementptr inbounds [26 x %"class.std::vector.3"], [26 x %"class.std::vector.3"]* %6, i64 0, i64 4, i32 0, i32 0, i32 0, i32 0
  %1225 = load i32*, i32** %1224, align 16, !tbaa !16
  %1226 = icmp eq i32* %1225, null
  br i1 %1226, label %1229, label %1227

1227:                                             ; preds = %1223
  %1228 = bitcast i32* %1225 to i8*
  call void @_ZdlPv(i8* nonnull %1228) #14
  br label %1229

1229:                                             ; preds = %1227, %1223
  %1230 = getelementptr inbounds [26 x %"class.std::vector.3"], [26 x %"class.std::vector.3"]* %6, i64 0, i64 3, i32 0, i32 0, i32 0, i32 0
  %1231 = load i32*, i32** %1230, align 8, !tbaa !16
  %1232 = icmp eq i32* %1231, null
  br i1 %1232, label %1235, label %1233

1233:                                             ; preds = %1229
  %1234 = bitcast i32* %1231 to i8*
  call void @_ZdlPv(i8* nonnull %1234) #14
  br label %1235

1235:                                             ; preds = %1233, %1229
  %1236 = getelementptr inbounds [26 x %"class.std::vector.3"], [26 x %"class.std::vector.3"]* %6, i64 0, i64 2, i32 0, i32 0, i32 0, i32 0
  %1237 = load i32*, i32** %1236, align 16, !tbaa !16
  %1238 = icmp eq i32* %1237, null
  br i1 %1238, label %1241, label %1239

1239:                                             ; preds = %1235
  %1240 = bitcast i32* %1237 to i8*
  call void @_ZdlPv(i8* nonnull %1240) #14
  br label %1241

1241:                                             ; preds = %1239, %1235
  %1242 = getelementptr inbounds [26 x %"class.std::vector.3"], [26 x %"class.std::vector.3"]* %6, i64 0, i64 1, i32 0, i32 0, i32 0, i32 0
  %1243 = load i32*, i32** %1242, align 8, !tbaa !16
  %1244 = icmp eq i32* %1243, null
  br i1 %1244, label %1247, label %1245

1245:                                             ; preds = %1241
  %1246 = bitcast i32* %1243 to i8*
  call void @_ZdlPv(i8* nonnull %1246) #14
  br label %1247

1247:                                             ; preds = %1245, %1241
  %1248 = getelementptr inbounds [26 x %"class.std::vector.3"], [26 x %"class.std::vector.3"]* %6, i64 0, i64 0, i32 0, i32 0, i32 0, i32 0
  %1249 = load i32*, i32** %1248, align 16, !tbaa !16
  %1250 = icmp eq i32* %1249, null
  br i1 %1250, label %1253, label %1251

1251:                                             ; preds = %1247
  %1252 = bitcast i32* %1249 to i8*
  call void @_ZdlPv(i8* nonnull %1252) #14
  br label %1253

1253:                                             ; preds = %1251, %1247
  call void @llvm.lifetime.end.p0i8(i64 624, i8* nonnull %7) #14
  call void @_ZNSt6vectorIS_IiSaIiEESaIS1_EED2Ev(%"class.std::vector"* nonnull align 8 dereferenceable(24) %4) #14
  br label %648
}

; Function Attrs: argmemonly mustprogress nofree nosync nounwind willreturn
declare void @llvm.lifetime.start.p0i8(i64 immarg, i8* nocapture) #4

declare nonnull align 8 dereferenceable(16) %"class.std::basic_istream"* @_ZStrsIcSt11char_traitsIcESaIcEERSt13basic_istreamIT_T0_ES7_RNSt7__cxx1112basic_stringIS4_S5_T1_EE(%"class.std::basic_istream"* nonnull align 8 dereferenceable(16), %"class.std::__cxx11::basic_string"* nonnull align 8 dereferenceable(32)) local_unnamed_addr #0

declare nonnull align 8 dereferenceable(16) %"class.std::basic_istream"* @_ZNSirsERi(%"class.std::basic_istream"* nonnull align 8 dereferenceable(16), i32* nonnull align 4 dereferenceable(4)) local_unnamed_addr #0

declare i32 @__gxx_personality_v0(...)

; Function Attrs: argmemonly mustprogress nofree nosync nounwind willreturn
declare void @llvm.lifetime.end.p0i8(i64 immarg, i8* nocapture) #4

declare nonnull align 8 dereferenceable(16) %"class.std::basic_istream"* @_ZStrsIcSt11char_traitsIcEERSt13basic_istreamIT_T0_ES6_RS3_(%"class.std::basic_istream"* nonnull align 8 dereferenceable(16), i8* nonnull align 1 dereferenceable(1)) local_unnamed_addr #0

declare nonnull align 8 dereferenceable(8) %"class.std::basic_ostream"* @_ZNSolsEi(%"class.std::basic_ostream"* nonnull align 8 dereferenceable(8), i32) local_unnamed_addr #0

; Function Attrs: nounwind sspstrong uwtable
define linkonce_odr dso_local void @_ZNSt6vectorIS_IiSaIiEESaIS1_EED2Ev(%"class.std::vector"* nonnull align 8 dereferenceable(24) %0) unnamed_addr #5 comdat align 2 personality i8* bitcast (i32 (...)* @__gxx_personality_v0 to i8*) {
  %2 = getelementptr inbounds %"class.std::vector", %"class.std::vector"* %0, i64 0, i32 0, i32 0, i32 0, i32 0
  %3 = load %"class.std::vector.3"*, %"class.std::vector.3"** %2, align 8, !tbaa !20
  %4 = getelementptr inbounds %"class.std::vector", %"class.std::vector"* %0, i64 0, i32 0, i32 0, i32 0, i32 1
  %5 = load %"class.std::vector.3"*, %"class.std::vector.3"** %4, align 8, !tbaa !22
  %6 = icmp eq %"class.std::vector.3"* %3, %5
  br i1 %6, label %19, label %7

7:                                                ; preds = %1, %14
  %8 = phi %"class.std::vector.3"* [ %15, %14 ], [ %3, %1 ]
  %9 = getelementptr inbounds %"class.std::vector.3", %"class.std::vector.3"* %8, i64 0, i32 0, i32 0, i32 0, i32 0
  %10 = load i32*, i32** %9, align 8, !tbaa !16
  %11 = icmp eq i32* %10, null
  br i1 %11, label %14, label %12

12:                                               ; preds = %7
  %13 = bitcast i32* %10 to i8*
  tail call void @_ZdlPv(i8* nonnull %13) #14
  br label %14

14:                                               ; preds = %12, %7
  %15 = getelementptr inbounds %"class.std::vector.3", %"class.std::vector.3"* %8, i64 1
  %16 = icmp eq %"class.std::vector.3"* %15, %5
  br i1 %16, label %17, label %7, !llvm.loop !43

17:                                               ; preds = %14
  %18 = load %"class.std::vector.3"*, %"class.std::vector.3"** %2, align 8, !tbaa !20
  br label %19

19:                                               ; preds = %17, %1
  %20 = phi %"class.std::vector.3"* [ %18, %17 ], [ %3, %1 ]
  %21 = icmp eq %"class.std::vector.3"* %20, null
  br i1 %21, label %24, label %22

22:                                               ; preds = %19
  %23 = bitcast %"class.std::vector.3"* %20 to i8*
  tail call void @_ZdlPv(i8* nonnull %23) #14
  br label %24

24:                                               ; preds = %19, %22
  ret void
}

; Function Attrs: noinline noreturn nounwind
define linkonce_odr hidden void @__clang_call_terminate(i8* %0) local_unnamed_addr #6 comdat {
  %2 = tail call i8* @__cxa_begin_catch(i8* %0) #14
  tail call void @_ZSt9terminatev() #17
  unreachable
}

declare i8* @__cxa_begin_catch(i8*) local_unnamed_addr

declare void @_ZSt9terminatev() local_unnamed_addr

; Function Attrs: nobuiltin nounwind
declare void @_ZdlPv(i8*) local_unnamed_addr #7

; Function Attrs: noreturn
declare void @_ZSt20__throw_length_errorPKc(i8*) local_unnamed_addr #8

; Function Attrs: noreturn
declare void @_ZSt28__throw_bad_array_new_lengthv() local_unnamed_addr #8

; Function Attrs: nobuiltin allocsize(0)
declare nonnull i8* @_Znwm(i64) local_unnamed_addr #9

; Function Attrs: sspstrong uwtable
define linkonce_odr dso_local %"class.std::vector.3"* @_ZNSt22__uninitialized_fill_nILb0EE15__uninit_fill_nIPSt6vectorIiSaIiEEmS4_EET_S6_T0_RKT1_(%"class.std::vector.3"* %0, i64 %1, %"class.std::vector.3"* nonnull align 8 dereferenceable(24) %2) local_unnamed_addr #10 comdat align 2 personality i8* bitcast (i32 (...)* @__gxx_personality_v0 to i8*) {
  %4 = getelementptr inbounds %"class.std::vector.3", %"class.std::vector.3"* %2, i64 0, i32 0, i32 0, i32 0, i32 1
  %5 = getelementptr inbounds %"class.std::vector.3", %"class.std::vector.3"* %2, i64 0, i32 0, i32 0, i32 0, i32 0
  %6 = icmp eq i64 %1, 0
  br i1 %6, label %69, label %7

7:                                                ; preds = %3
  %8 = load i32*, i32** %5, align 8, !tbaa !16
  br label %9

9:                                                ; preds = %7, %43
  %10 = phi i32* [ %34, %43 ], [ %8, %7 ]
  %11 = phi %"class.std::vector.3"* [ %47, %43 ], [ %0, %7 ]
  %12 = phi i64 [ %46, %43 ], [ %1, %7 ]
  %13 = load i32*, i32** %4, align 8, !tbaa !19
  %14 = ptrtoint i32* %13 to i64
  %15 = ptrtoint i32* %10 to i64
  %16 = sub i64 %14, %15
  %17 = ashr exact i64 %16, 2
  %18 = bitcast %"class.std::vector.3"* %11 to i8*
  tail call void @llvm.memset.p0i8.i64(i8* noundef nonnull align 8 dereferenceable(24) %18, i8 0, i64 24, i1 false) #14
  %19 = icmp eq i64 %16, 0
  br i1 %19, label %28, label %20

20:                                               ; preds = %9
  %21 = icmp ugt i64 %17, 2305843009213693951
  br i1 %21, label %22, label %24, !prof !44

22:                                               ; preds = %20
  invoke void @_ZSt28__throw_bad_array_new_lengthv() #16
          to label %23 unwind label %51

23:                                               ; preds = %22
  unreachable

24:                                               ; preds = %20
  %25 = invoke noalias nonnull i8* @_Znwm(i64 %16) #15
          to label %26 unwind label %49

26:                                               ; preds = %24
  %27 = bitcast i8* %25 to i32*
  br label %28

28:                                               ; preds = %26, %9
  %29 = phi i32* [ %27, %26 ], [ null, %9 ]
  %30 = getelementptr inbounds %"class.std::vector.3", %"class.std::vector.3"* %11, i64 0, i32 0, i32 0, i32 0, i32 0
  store i32* %29, i32** %30, align 8, !tbaa !16
  %31 = getelementptr inbounds %"class.std::vector.3", %"class.std::vector.3"* %11, i64 0, i32 0, i32 0, i32 0, i32 1
  store i32* %29, i32** %31, align 8, !tbaa !19
  %32 = getelementptr inbounds i32, i32* %29, i64 %17
  %33 = getelementptr inbounds %"class.std::vector.3", %"class.std::vector.3"* %11, i64 0, i32 0, i32 0, i32 0, i32 2
  store i32* %32, i32** %33, align 8, !tbaa !18
  %34 = load i32*, i32** %5, align 8, !tbaa !45
  %35 = load i32*, i32** %4, align 8, !tbaa !45
  %36 = ptrtoint i32* %35 to i64
  %37 = ptrtoint i32* %34 to i64
  %38 = sub i64 %36, %37
  %39 = icmp eq i64 %38, 0
  br i1 %39, label %43, label %40

40:                                               ; preds = %28
  %41 = bitcast i32* %29 to i8*
  %42 = bitcast i32* %34 to i8*
  tail call void @llvm.memmove.p0i8.p0i8.i64(i8* align 4 %41, i8* align 4 %42, i64 %38, i1 false) #14
  br label %43

43:                                               ; preds = %40, %28
  %44 = ashr exact i64 %38, 2
  %45 = getelementptr inbounds i32, i32* %29, i64 %44
  store i32* %45, i32** %31, align 8, !tbaa !19
  %46 = add i64 %12, -1
  %47 = getelementptr inbounds %"class.std::vector.3", %"class.std::vector.3"* %11, i64 1
  %48 = icmp eq i64 %46, 0
  br i1 %48, label %69, label %9, !llvm.loop !46

49:                                               ; preds = %24
  %50 = landingpad { i8*, i32 }
          catch i8* null
  br label %53

51:                                               ; preds = %22
  %52 = landingpad { i8*, i32 }
          catch i8* null
  br label %53

53:                                               ; preds = %51, %49
  %54 = phi { i8*, i32 } [ %50, %49 ], [ %52, %51 ]
  %55 = extractvalue { i8*, i32 } %54, 0
  %56 = tail call i8* @__cxa_begin_catch(i8* %55) #14
  %57 = icmp eq %"class.std::vector.3"* %11, %0
  br i1 %57, label %68, label %58

58:                                               ; preds = %53, %65
  %59 = phi %"class.std::vector.3"* [ %66, %65 ], [ %0, %53 ]
  %60 = getelementptr inbounds %"class.std::vector.3", %"class.std::vector.3"* %59, i64 0, i32 0, i32 0, i32 0, i32 0
  %61 = load i32*, i32** %60, align 8, !tbaa !16
  %62 = icmp eq i32* %61, null
  br i1 %62, label %65, label %63

63:                                               ; preds = %58
  %64 = bitcast i32* %61 to i8*
  tail call void @_ZdlPv(i8* nonnull %64) #14
  br label %65

65:                                               ; preds = %63, %58
  %66 = getelementptr inbounds %"class.std::vector.3", %"class.std::vector.3"* %59, i64 1
  %67 = icmp eq %"class.std::vector.3"* %66, %11
  br i1 %67, label %68, label %58, !llvm.loop !43

68:                                               ; preds = %65, %53
  invoke void @__cxa_rethrow() #16
          to label %77 unwind label %71

69:                                               ; preds = %43, %3
  %70 = phi %"class.std::vector.3"* [ %0, %3 ], [ %47, %43 ]
  ret %"class.std::vector.3"* %70

71:                                               ; preds = %68
  %72 = landingpad { i8*, i32 }
          cleanup
  invoke void @__cxa_end_catch()
          to label %73 unwind label %74

73:                                               ; preds = %71
  resume { i8*, i32 } %72

74:                                               ; preds = %71
  %75 = landingpad { i8*, i32 }
          catch i8* null
  %76 = extractvalue { i8*, i32 } %75, 0
  tail call void @__clang_call_terminate(i8* %76) #17
  unreachable

77:                                               ; preds = %68
  unreachable
}

declare void @__cxa_rethrow() local_unnamed_addr

declare void @__cxa_end_catch() local_unnamed_addr

; Function Attrs: argmemonly mustprogress nofree nounwind willreturn
declare void @llvm.memmove.p0i8.p0i8.i64(i8* nocapture writeonly, i8* nocapture readonly, i64, i1 immarg) #11

declare nonnull align 8 dereferenceable(8) %"class.std::basic_ostream"* @_ZNSo3putEc(%"class.std::basic_ostream"* nonnull align 8 dereferenceable(8), i8 signext) local_unnamed_addr #0

declare nonnull align 8 dereferenceable(8) %"class.std::basic_ostream"* @_ZNSo5flushEv(%"class.std::basic_ostream"* nonnull align 8 dereferenceable(8)) local_unnamed_addr #0

; Function Attrs: noreturn
declare void @_ZSt16__throw_bad_castv() local_unnamed_addr #8

declare void @_ZNKSt5ctypeIcE13_M_widen_initEv(%"class.std::ctype"* nonnull align 8 dereferenceable(570)) local_unnamed_addr #0

; Function Attrs: sspstrong uwtable
define internal void @_GLOBAL__sub_I_s938582912.cpp() #10 section ".text.startup" {
  tail call void @_ZNSt8ios_base4InitC1Ev(%"class.std::ios_base::Init"* nonnull align 1 dereferenceable(1) @_ZStL8__ioinit)
  %1 = tail call i32 @__cxa_atexit(void (i8*)* bitcast (void (%"class.std::ios_base::Init"*)* @_ZNSt8ios_base4InitD1Ev to void (i8*)*), i8* getelementptr inbounds (%"class.std::ios_base::Init", %"class.std::ios_base::Init"* @_ZStL8__ioinit, i64 0, i32 0), i8* nonnull @__dso_handle) #14
  ret void
}

; Function Attrs: argmemonly nofree nounwind willreturn writeonly
declare void @llvm.memset.p0i8.i64(i8* nocapture writeonly, i8, i64, i1 immarg) #12

; Function Attrs: nofree nosync nounwind readnone willreturn
declare i32 @llvm.vector.reduce.add.v4i32(<4 x i32>) #13

attributes #0 = { "frame-pointer"="none" "no-trapping-math"="true" "stack-protector-buffer-size"="8" "target-cpu"="x86-64" "target-features"="+cx8,+fxsr,+mmx,+sse,+sse2,+x87" "tune-cpu"="generic" }
attributes #1 = { nounwind "frame-pointer"="none" "no-trapping-math"="true" "stack-protector-buffer-size"="8" "target-cpu"="x86-64" "target-features"="+cx8,+fxsr,+mmx,+sse,+sse2,+x87" "tune-cpu"="generic" }
attributes #2 = { nofree nounwind }
attributes #3 = { norecurse sspstrong uwtable "frame-pointer"="none" "min-legal-vector-width"="0" "no-trapping-math"="true" "stack-protector-buffer-size"="8" "target-cpu"="x86-64" "target-features"="+cx8,+fxsr,+mmx,+sse,+sse2,+x87" "tune-cpu"="generic" }
attributes #4 = { argmemonly mustprogress nofree nosync nounwind willreturn }
attributes #5 = { nounwind sspstrong uwtable "frame-pointer"="none" "min-legal-vector-width"="0" "no-trapping-math"="true" "stack-protector-buffer-size"="8" "target-cpu"="x86-64" "target-features"="+cx8,+fxsr,+mmx,+sse,+sse2,+x87" "tune-cpu"="generic" }
attributes #6 = { noinline noreturn nounwind }
attributes #7 = { nobuiltin nounwind "frame-pointer"="none" "no-trapping-math"="true" "stack-protector-buffer-size"="8" "target-cpu"="x86-64" "target-features"="+cx8,+fxsr,+mmx,+sse,+sse2,+x87" "tune-cpu"="generic" }
attributes #8 = { noreturn "frame-pointer"="none" "no-trapping-math"="true" "stack-protector-buffer-size"="8" "target-cpu"="x86-64" "target-features"="+cx8,+fxsr,+mmx,+sse,+sse2,+x87" "tune-cpu"="generic" }
attributes #9 = { nobuiltin allocsize(0) "frame-pointer"="none" "no-trapping-math"="true" "stack-protector-buffer-size"="8" "target-cpu"="x86-64" "target-features"="+cx8,+fxsr,+mmx,+sse,+sse2,+x87" "tune-cpu"="generic" }
attributes #10 = { sspstrong uwtable "frame-pointer"="none" "min-legal-vector-width"="0" "no-trapping-math"="true" "stack-protector-buffer-size"="8" "target-cpu"="x86-64" "target-features"="+cx8,+fxsr,+mmx,+sse,+sse2,+x87" "tune-cpu"="generic" }
attributes #11 = { argmemonly mustprogress nofree nounwind willreturn }
attributes #12 = { argmemonly nofree nounwind willreturn writeonly }
attributes #13 = { nofree nosync nounwind readnone willreturn }
attributes #14 = { nounwind }
attributes #15 = { allocsize(0) }
attributes #16 = { noreturn }
attributes #17 = { noreturn nounwind }

!llvm.module.flags = !{!0, !1, !2, !3}
!llvm.ident = !{!4}

!0 = !{i32 1, !"wchar_size", i32 4}
!1 = !{i32 7, !"PIC Level", i32 2}
!2 = !{i32 7, !"PIE Level", i32 2}
!3 = !{i32 7, !"uwtable", i32 1}
!4 = !{!"clang version 13.0.0"}
!5 = !{!6, !7, i64 0}
!6 = !{!"_ZTSNSt7__cxx1112basic_stringIcSt11char_traitsIcESaIcEE12_Alloc_hiderE", !7, i64 0}
!7 = !{!"any pointer", !8, i64 0}
!8 = !{!"omnipotent char", !9, i64 0}
!9 = !{!"Simple C++ TBAA"}
!10 = !{!11, !12, i64 8}
!11 = !{!"_ZTSNSt7__cxx1112basic_stringIcSt11char_traitsIcESaIcEEE", !6, i64 0, !12, i64 8, !8, i64 16}
!12 = !{!"long", !8, i64 0}
!13 = !{!8, !8, i64 0}
!14 = !{!15, !15, i64 0}
!15 = !{!"int", !8, i64 0}
!16 = !{!17, !7, i64 0}
!17 = !{!"_ZTSNSt12_Vector_baseIiSaIiEE17_Vector_impl_dataE", !7, i64 0, !7, i64 8, !7, i64 16}
!18 = !{!17, !7, i64 16}
!19 = !{!17, !7, i64 8}
!20 = !{!21, !7, i64 0}
!21 = !{!"_ZTSNSt12_Vector_baseISt6vectorIiSaIiEESaIS2_EE17_Vector_impl_dataE", !7, i64 0, !7, i64 8, !7, i64 16}
!22 = !{!21, !7, i64 8}
!23 = !{!21, !7, i64 16}
!24 = distinct !{!24, !25}
!25 = !{!"llvm.loop.mustprogress"}
!26 = distinct !{!26, !25}
!27 = !{!11, !7, i64 0}
!28 = distinct !{!28, !25, !29}
!29 = !{!"llvm.loop.isvectorized", i32 1}
!30 = distinct !{!30, !25, !29}
!31 = distinct !{!31, !25, !32, !29}
!32 = !{!"llvm.loop.unroll.runtime.disable"}
!33 = distinct !{!33, !25}
!34 = distinct !{!34, !25, !32, !29}
!35 = !{!36, !36, i64 0}
!36 = !{!"vtable pointer", !9, i64 0}
!37 = !{!38, !7, i64 240}
!38 = !{!"_ZTSSt9basic_iosIcSt11char_traitsIcEE", !7, i64 216, !8, i64 224, !39, i64 225, !7, i64 232, !7, i64 240, !7, i64 248, !7, i64 256}
!39 = !{!"bool", !8, i64 0}
!40 = !{!41, !8, i64 56}
!41 = !{!"_ZTSSt5ctypeIcE", !7, i64 16, !39, i64 24, !7, i64 32, !7, i64 40, !7, i64 48, !8, i64 56, !8, i64 57, !8, i64 313, !8, i64 569}
!42 = distinct !{!42, !25}
!43 = distinct !{!43, !25}
!44 = !{!"branch_weights", i32 1, i32 2000}
!45 = !{!7, !7, i64 0}
!46 = distinct !{!46, !25}
