; ModuleID = 'Project_CodeNet_C++1400/p00015/s765114591.cpp'
source_filename = "Project_CodeNet_C++1400/p00015/s765114591.cpp"
target datalayout = "e-m:e-p270:32:32-p271:32:32-p272:64:64-i64:64-f80:128-n8:16:32:64-S128"
target triple = "x86_64-pc-linux-gnu"

%"class.std::ios_base::Init" = type { i8 }
%"class.std::basic_istream" = type { i32 (...)**, i64, %"class.std::basic_ios" }
%"class.std::basic_ios" = type { %"class.std::ios_base", %"class.std::basic_ostream"*, i8, i8, %"class.std::basic_streambuf"*, %"class.std::ctype"*, %"class.std::num_put"*, %"class.std::num_get"* }
%"class.std::ios_base" = type { i32 (...)**, i64, i64, i32, i32, i32, %"struct.std::ios_base::_Callback_list"*, %"struct.std::ios_base::_Words", [8 x %"struct.std::ios_base::_Words"], i32, %"struct.std::ios_base::_Words"*, %"class.std::locale" }
%"struct.std::ios_base::_Callback_list" = type { %"struct.std::ios_base::_Callback_list"*, void (i32, %"class.std::ios_base"*, i32)*, i32, i32 }
%"struct.std::ios_base::_Words" = type { i8*, i64 }
%"class.std::locale" = type { %"class.std::locale::_Impl"* }
%"class.std::locale::_Impl" = type { i32, %"class.std::locale::facet"**, i64, %"class.std::locale::facet"**, i8** }
%"class.std::locale::facet" = type <{ i32 (...)**, i32, [4 x i8] }>
%"class.std::basic_ostream" = type { i32 (...)**, %"class.std::basic_ios" }
%"class.std::basic_streambuf" = type { i32 (...)**, i8*, i8*, i8*, i8*, i8*, i8*, %"class.std::locale" }
%"class.std::ctype" = type <{ %"class.std::locale::facet.base", [4 x i8], %struct.__locale_struct*, i8, [7 x i8], i32*, i32*, i16*, i8, [256 x i8], [256 x i8], i8, [6 x i8] }>
%"class.std::locale::facet.base" = type <{ i32 (...)**, i32 }>
%struct.__locale_struct = type { [13 x %struct.__locale_data*], i16*, i32*, i32*, [13 x i8*] }
%struct.__locale_data = type opaque
%"class.std::num_put" = type { %"class.std::locale::facet.base", [4 x i8] }
%"class.std::num_get" = type { %"class.std::locale::facet.base", [4 x i8] }
%class.anon = type { [120 x i32]* }
%"class.std::__cxx11::basic_string" = type { %"struct.std::__cxx11::basic_string<char>::_Alloc_hider", i64, %union.anon }
%"struct.std::__cxx11::basic_string<char>::_Alloc_hider" = type { i8* }
%union.anon = type { i64, [8 x i8] }

$_ZSt9__reverseIN9__gnu_cxx17__normal_iteratorIPcNSt7__cxx1112basic_stringIcSt11char_traitsIcESaIcEEEEEEvT_SA_St26random_access_iterator_tag = comdat any

@_ZStL8__ioinit = internal global %"class.std::ios_base::Init" zeroinitializer, align 1
@__dso_handle = external hidden global i8
@_ZSt3cin = external global %"class.std::basic_istream", align 8
@_ZSt4cout = external global %"class.std::basic_ostream", align 8
@.str = private unnamed_addr constant [10 x i8] c"overflow\0A\00", align 1
@llvm.global_ctors = appending global [1 x { i32, void ()*, i8* }] [{ i32, void ()*, i8* } { i32 65535, void ()* @_GLOBAL__sub_I_s765114591.cpp, i8* null }]

; Function Attrs: minsize optsize
declare void @_ZNSt8ios_base4InitC1Ev(%"class.std::ios_base::Init"* nonnull align 1 dereferenceable(1)) unnamed_addr #0

; Function Attrs: minsize nounwind optsize
declare void @_ZNSt8ios_base4InitD1Ev(%"class.std::ios_base::Init"* nonnull align 1 dereferenceable(1)) unnamed_addr #1

; Function Attrs: nofree nounwind
declare i32 @__cxa_atexit(void (i8*)*, i8*, i8*) local_unnamed_addr #2

; Function Attrs: minsize mustprogress norecurse optsize sspstrong uwtable
define dso_local i32 @main() local_unnamed_addr #3 {
  %1 = alloca i32, align 4
  %2 = alloca [120 x i32], align 16
  %3 = alloca %class.anon, align 8
  %4 = tail call zeroext i1 @_ZNSt8ios_base15sync_with_stdioEb(i1 zeroext false) #11
  %5 = bitcast i32* %1 to i8*
  call void @llvm.lifetime.start.p0i8(i64 4, i8* nonnull %5) #12
  %6 = call nonnull align 8 dereferenceable(16) %"class.std::basic_istream"* @_ZNSirsERi(%"class.std::basic_istream"* nonnull align 8 dereferenceable(16) @_ZSt3cin, i32* nonnull align 4 dereferenceable(4) %1) #11
  %7 = bitcast [120 x i32]* %2 to i8*
  %8 = bitcast %class.anon* %3 to i8*
  %9 = getelementptr inbounds %class.anon, %class.anon* %3, i64 0, i32 0
  br label %10

10:                                               ; preds = %60, %0
  %11 = load i32, i32* %1, align 4, !tbaa !5
  %12 = add nsw i32 %11, -1
  store i32 %12, i32* %1, align 4, !tbaa !5
  %13 = icmp eq i32 %11, 0
  br i1 %13, label %61, label %14

14:                                               ; preds = %10
  call void @llvm.lifetime.start.p0i8(i64 480, i8* nonnull %7) #12
  call void @llvm.memset.p0i8.i64(i8* noundef nonnull align 16 dereferenceable(480) %7, i8 0, i64 480, i1 false)
  call void @llvm.lifetime.start.p0i8(i64 8, i8* nonnull %8) #12
  store [120 x i32]* %2, [120 x i32]** %9, align 8, !tbaa !9
  call fastcc void @"_ZZ4mainENK3$_0clEv"(%class.anon* nonnull align 8 dereferenceable(8) %3) #11
  call fastcc void @"_ZZ4mainENK3$_0clEv"(%class.anon* nonnull align 8 dereferenceable(8) %3) #11
  br label %15

15:                                               ; preds = %23, %14
  %16 = phi i64 [ 0, %14 ], [ %17, %23 ]
  %17 = add nuw nsw i64 %16, 1
  %18 = icmp eq i64 %16, 119
  br i1 %18, label %29, label %19

19:                                               ; preds = %15
  %20 = getelementptr inbounds [120 x i32], [120 x i32]* %2, i64 0, i64 %16
  %21 = load i32, i32* %20, align 4, !tbaa !5
  %22 = icmp sgt i32 %21, 9
  br i1 %22, label %24, label %23

23:                                               ; preds = %19, %24
  br label %15, !llvm.loop !11

24:                                               ; preds = %19
  %25 = getelementptr inbounds [120 x i32], [120 x i32]* %2, i64 0, i64 %17
  %26 = load i32, i32* %25, align 4, !tbaa !5
  %27 = add nsw i32 %26, 1
  store i32 %27, i32* %25, align 4, !tbaa !5
  %28 = add nsw i32 %21, -10
  store i32 %28, i32* %20, align 4, !tbaa !5
  br label %23

29:                                               ; preds = %15, %35
  %30 = phi i64 [ %41, %35 ], [ 0, %15 ]
  %31 = phi i32 [ %40, %35 ], [ -1, %15 ]
  %32 = icmp eq i64 %30, 120
  br i1 %32, label %33, label %35

33:                                               ; preds = %29
  %34 = icmp eq i32 %31, -1
  br i1 %34, label %42, label %45

35:                                               ; preds = %29
  %36 = getelementptr inbounds [120 x i32], [120 x i32]* %2, i64 0, i64 %30
  %37 = load i32, i32* %36, align 4, !tbaa !5
  %38 = icmp eq i32 %37, 0
  %39 = trunc i64 %30 to i32
  %40 = select i1 %38, i32 %31, i32 %39
  %41 = add nuw nsw i64 %30, 1
  br label %29, !llvm.loop !13

42:                                               ; preds = %33
  %43 = call nonnull align 8 dereferenceable(8) %"class.std::basic_ostream"* @_ZNSolsEi(%"class.std::basic_ostream"* nonnull align 8 dereferenceable(8) @_ZSt4cout, i32 0) #11
  %44 = call nonnull align 8 dereferenceable(8) %"class.std::basic_ostream"* @_ZStlsISt11char_traitsIcEERSt13basic_ostreamIcT_ES5_c(%"class.std::basic_ostream"* nonnull align 8 dereferenceable(8) %43, i8 signext 10) #11
  br label %60

45:                                               ; preds = %33
  %46 = icmp sgt i32 %31, 79
  br i1 %46, label %47, label %49

47:                                               ; preds = %45
  %48 = call nonnull align 8 dereferenceable(8) %"class.std::basic_ostream"* @_ZStlsISt11char_traitsIcEERSt13basic_ostreamIcT_ES5_PKc(%"class.std::basic_ostream"* nonnull align 8 dereferenceable(8) @_ZSt4cout, i8* getelementptr inbounds ([10 x i8], [10 x i8]* @.str, i64 0, i64 0)) #11
  br label %60

49:                                               ; preds = %45, %54
  %50 = phi i32 [ %59, %54 ], [ %31, %45 ]
  %51 = icmp sgt i32 %50, -1
  br i1 %51, label %54, label %52

52:                                               ; preds = %49
  %53 = call nonnull align 8 dereferenceable(8) %"class.std::basic_ostream"* @_ZStlsISt11char_traitsIcEERSt13basic_ostreamIcT_ES5_c(%"class.std::basic_ostream"* nonnull align 8 dereferenceable(8) @_ZSt4cout, i8 signext 10) #11
  br label %60

54:                                               ; preds = %49
  %55 = zext i32 %50 to i64
  %56 = getelementptr inbounds [120 x i32], [120 x i32]* %2, i64 0, i64 %55
  %57 = load i32, i32* %56, align 4, !tbaa !5
  %58 = call nonnull align 8 dereferenceable(8) %"class.std::basic_ostream"* @_ZNSolsEi(%"class.std::basic_ostream"* nonnull align 8 dereferenceable(8) @_ZSt4cout, i32 %57) #11
  %59 = add nsw i32 %50, -1
  br label %49, !llvm.loop !14

60:                                               ; preds = %47, %52, %42
  call void @llvm.lifetime.end.p0i8(i64 8, i8* nonnull %8) #12
  call void @llvm.lifetime.end.p0i8(i64 480, i8* nonnull %7) #12
  br label %10, !llvm.loop !15

61:                                               ; preds = %10
  call void @llvm.lifetime.end.p0i8(i64 4, i8* nonnull %5) #12
  ret i32 0
}

; Function Attrs: minsize optsize
declare zeroext i1 @_ZNSt8ios_base15sync_with_stdioEb(i1 zeroext) local_unnamed_addr #0

; Function Attrs: argmemonly mustprogress nofree nosync nounwind willreturn
declare void @llvm.lifetime.start.p0i8(i64 immarg, i8* nocapture) #4

; Function Attrs: minsize optsize
declare nonnull align 8 dereferenceable(16) %"class.std::basic_istream"* @_ZNSirsERi(%"class.std::basic_istream"* nonnull align 8 dereferenceable(16), i32* nonnull align 4 dereferenceable(4)) local_unnamed_addr #0

; Function Attrs: argmemonly mustprogress nofree nounwind willreturn writeonly
declare void @llvm.memset.p0i8.i64(i8* nocapture writeonly, i8, i64, i1 immarg) #5

; Function Attrs: inlinehint minsize norecurse optsize sspstrong uwtable
define internal fastcc void @"_ZZ4mainENK3$_0clEv"(%class.anon* nocapture nonnull readonly align 8 dereferenceable(8) %0) unnamed_addr #6 align 2 personality i8* bitcast (i32 (...)* @__gxx_personality_v0 to i8*) {
  %2 = alloca %"class.std::__cxx11::basic_string", align 8
  %3 = bitcast %"class.std::__cxx11::basic_string"* %2 to i8*
  call void @llvm.lifetime.start.p0i8(i64 32, i8* nonnull %3) #12
  %4 = getelementptr inbounds %"class.std::__cxx11::basic_string", %"class.std::__cxx11::basic_string"* %2, i64 0, i32 2
  %5 = bitcast %"class.std::__cxx11::basic_string"* %2 to %union.anon**
  store %union.anon* %4, %union.anon** %5, align 8, !tbaa !16
  %6 = getelementptr inbounds %"class.std::__cxx11::basic_string", %"class.std::__cxx11::basic_string"* %2, i64 0, i32 1
  store i64 0, i64* %6, align 8, !tbaa !18
  %7 = bitcast %union.anon* %4 to i8*
  store i8 0, i8* %7, align 8, !tbaa !21
  %8 = invoke nonnull align 8 dereferenceable(16) %"class.std::basic_istream"* @_ZStrsIcSt11char_traitsIcESaIcEERSt13basic_istreamIT_T0_ES7_RNSt7__cxx1112basic_stringIS4_S5_T1_EE(%"class.std::basic_istream"* nonnull align 8 dereferenceable(16) @_ZSt3cin, %"class.std::__cxx11::basic_string"* nonnull align 8 dereferenceable(32) %2) #11
          to label %9 unwind label %23

9:                                                ; preds = %1
  %10 = getelementptr inbounds %"class.std::__cxx11::basic_string", %"class.std::__cxx11::basic_string"* %2, i64 0, i32 0, i32 0
  %11 = load i8*, i8** %10, align 8, !tbaa !22
  %12 = load i64, i64* %6, align 8, !tbaa !18
  %13 = getelementptr inbounds i8, i8* %11, i64 %12
  invoke void @_ZSt9__reverseIN9__gnu_cxx17__normal_iteratorIPcNSt7__cxx1112basic_stringIcSt11char_traitsIcESaIcEEEEEEvT_SA_St26random_access_iterator_tag(i8* %11, i8* %13) #11
          to label %14 unwind label %23

14:                                               ; preds = %9
  %15 = load i64, i64* %6, align 8, !tbaa !18
  %16 = load i8*, i8** %10, align 8
  %17 = getelementptr inbounds %class.anon, %class.anon* %0, i64 0, i32 0
  %18 = load [120 x i32]*, [120 x i32]** %17, align 8
  br label %19

19:                                               ; preds = %14, %25
  %20 = phi i64 [ 0, %14 ], [ %33, %25 ]
  %21 = icmp eq i64 %20, %15
  br i1 %21, label %22, label %25

22:                                               ; preds = %19
  call void @_ZNSt7__cxx1112basic_stringIcSt11char_traitsIcESaIcEED2Ev(%"class.std::__cxx11::basic_string"* nonnull align 8 dereferenceable(32) %2) #13
  call void @llvm.lifetime.end.p0i8(i64 32, i8* nonnull %3) #12
  ret void

23:                                               ; preds = %9, %1
  %24 = landingpad { i8*, i32 }
          cleanup
  call void @_ZNSt7__cxx1112basic_stringIcSt11char_traitsIcESaIcEED2Ev(%"class.std::__cxx11::basic_string"* nonnull align 8 dereferenceable(32) %2) #13
  call void @llvm.lifetime.end.p0i8(i64 32, i8* nonnull %3) #12
  resume { i8*, i32 } %24

25:                                               ; preds = %19
  %26 = getelementptr inbounds i8, i8* %16, i64 %20
  %27 = load i8, i8* %26, align 1, !tbaa !21
  %28 = sext i8 %27 to i32
  %29 = add nsw i32 %28, -48
  %30 = getelementptr inbounds [120 x i32], [120 x i32]* %18, i64 0, i64 %20
  %31 = load i32, i32* %30, align 4, !tbaa !5
  %32 = add nsw i32 %29, %31
  store i32 %32, i32* %30, align 4, !tbaa !5
  %33 = add nuw i64 %20, 1
  br label %19, !llvm.loop !23
}

; Function Attrs: argmemonly mustprogress nofree nosync nounwind willreturn
declare void @llvm.lifetime.end.p0i8(i64 immarg, i8* nocapture) #4

; Function Attrs: inlinehint minsize mustprogress optsize sspstrong uwtable
declare nonnull align 8 dereferenceable(8) %"class.std::basic_ostream"* @_ZStlsISt11char_traitsIcEERSt13basic_ostreamIcT_ES5_c(%"class.std::basic_ostream"* nonnull align 8 dereferenceable(8), i8 signext) local_unnamed_addr #7

; Function Attrs: minsize optsize
declare nonnull align 8 dereferenceable(8) %"class.std::basic_ostream"* @_ZNSolsEi(%"class.std::basic_ostream"* nonnull align 8 dereferenceable(8), i32) local_unnamed_addr #0

; Function Attrs: inlinehint minsize mustprogress optsize sspstrong uwtable
declare nonnull align 8 dereferenceable(8) %"class.std::basic_ostream"* @_ZStlsISt11char_traitsIcEERSt13basic_ostreamIcT_ES5_PKc(%"class.std::basic_ostream"* nonnull align 8 dereferenceable(8), i8*) local_unnamed_addr #7

; Function Attrs: minsize optsize
declare nonnull align 8 dereferenceable(16) %"class.std::basic_istream"* @_ZStrsIcSt11char_traitsIcESaIcEERSt13basic_istreamIT_T0_ES7_RNSt7__cxx1112basic_stringIS4_S5_T1_EE(%"class.std::basic_istream"* nonnull align 8 dereferenceable(16), %"class.std::__cxx11::basic_string"* nonnull align 8 dereferenceable(32)) local_unnamed_addr #0

declare i32 @__gxx_personality_v0(...)

; Function Attrs: minsize nounwind optsize sspstrong uwtable
declare void @_ZNSt7__cxx1112basic_stringIcSt11char_traitsIcESaIcEED2Ev(%"class.std::__cxx11::basic_string"* nonnull align 8 dereferenceable(32)) unnamed_addr #8 align 2

; Function Attrs: minsize mustprogress optsize sspstrong uwtable
define linkonce_odr dso_local void @_ZSt9__reverseIN9__gnu_cxx17__normal_iteratorIPcNSt7__cxx1112basic_stringIcSt11char_traitsIcESaIcEEEEEEvT_SA_St26random_access_iterator_tag(i8* %0, i8* %1) local_unnamed_addr #9 comdat {
  %3 = icmp eq i8* %0, %1
  br i1 %3, label %13, label %4

4:                                                ; preds = %2, %9
  %5 = phi i8* [ %12, %9 ], [ %0, %2 ]
  %6 = phi i8* [ %7, %9 ], [ %1, %2 ]
  %7 = getelementptr inbounds i8, i8* %6, i64 -1
  %8 = icmp ult i8* %5, %7
  br i1 %8, label %9, label %13

9:                                                ; preds = %4
  %10 = load i8, i8* %5, align 1, !tbaa !21
  %11 = load i8, i8* %7, align 1, !tbaa !21
  store i8 %11, i8* %5, align 1, !tbaa !21
  store i8 %10, i8* %7, align 1, !tbaa !21
  %12 = getelementptr inbounds i8, i8* %5, i64 1
  br label %4, !llvm.loop !24

13:                                               ; preds = %4, %2
  ret void
}

; Function Attrs: minsize optsize sspstrong uwtable
define internal void @_GLOBAL__sub_I_s765114591.cpp() #10 section ".text.startup" {
  tail call void @_ZNSt8ios_base4InitC1Ev(%"class.std::ios_base::Init"* nonnull align 1 dereferenceable(1) @_ZStL8__ioinit) #11
  %1 = tail call i32 @__cxa_atexit(void (i8*)* bitcast (void (%"class.std::ios_base::Init"*)* @_ZNSt8ios_base4InitD1Ev to void (i8*)*), i8* getelementptr inbounds (%"class.std::ios_base::Init", %"class.std::ios_base::Init"* @_ZStL8__ioinit, i64 0, i32 0), i8* nonnull @__dso_handle) #12
  ret void
}

attributes #0 = { minsize optsize "frame-pointer"="none" "no-trapping-math"="true" "stack-protector-buffer-size"="8" "target-cpu"="x86-64" "target-features"="+cx8,+fxsr,+mmx,+sse,+sse2,+x87" "tune-cpu"="generic" }
attributes #1 = { minsize nounwind optsize "frame-pointer"="none" "no-trapping-math"="true" "stack-protector-buffer-size"="8" "target-cpu"="x86-64" "target-features"="+cx8,+fxsr,+mmx,+sse,+sse2,+x87" "tune-cpu"="generic" }
attributes #2 = { nofree nounwind }
attributes #3 = { minsize mustprogress norecurse optsize sspstrong uwtable "frame-pointer"="none" "min-legal-vector-width"="0" "no-trapping-math"="true" "stack-protector-buffer-size"="8" "target-cpu"="x86-64" "target-features"="+cx8,+fxsr,+mmx,+sse,+sse2,+x87" "tune-cpu"="generic" }
attributes #4 = { argmemonly mustprogress nofree nosync nounwind willreturn }
attributes #5 = { argmemonly mustprogress nofree nounwind willreturn writeonly }
attributes #6 = { inlinehint minsize norecurse optsize sspstrong uwtable "frame-pointer"="none" "min-legal-vector-width"="0" "no-trapping-math"="true" "stack-protector-buffer-size"="8" "target-cpu"="x86-64" "target-features"="+cx8,+fxsr,+mmx,+sse,+sse2,+x87" "tune-cpu"="generic" }
attributes #7 = { inlinehint minsize mustprogress optsize sspstrong uwtable "frame-pointer"="none" "min-legal-vector-width"="0" "no-trapping-math"="true" "stack-protector-buffer-size"="8" "target-cpu"="x86-64" "target-features"="+cx8,+fxsr,+mmx,+sse,+sse2,+x87" "tune-cpu"="generic" }
attributes #8 = { minsize nounwind optsize sspstrong uwtable "frame-pointer"="none" "min-legal-vector-width"="0" "no-trapping-math"="true" "stack-protector-buffer-size"="8" "target-cpu"="x86-64" "target-features"="+cx8,+fxsr,+mmx,+sse,+sse2,+x87" "tune-cpu"="generic" }
attributes #9 = { minsize mustprogress optsize sspstrong uwtable "frame-pointer"="none" "min-legal-vector-width"="0" "no-trapping-math"="true" "stack-protector-buffer-size"="8" "target-cpu"="x86-64" "target-features"="+cx8,+fxsr,+mmx,+sse,+sse2,+x87" "tune-cpu"="generic" }
attributes #10 = { minsize optsize sspstrong uwtable "frame-pointer"="none" "min-legal-vector-width"="0" "no-trapping-math"="true" "stack-protector-buffer-size"="8" "target-cpu"="x86-64" "target-features"="+cx8,+fxsr,+mmx,+sse,+sse2,+x87" "tune-cpu"="generic" }
attributes #11 = { minsize optsize }
attributes #12 = { nounwind }
attributes #13 = { minsize nounwind optsize }

!llvm.module.flags = !{!0, !1, !2, !3}
!llvm.ident = !{!4}

!0 = !{i32 1, !"wchar_size", i32 4}
!1 = !{i32 7, !"PIC Level", i32 2}
!2 = !{i32 7, !"PIE Level", i32 2}
!3 = !{i32 7, !"uwtable", i32 1}
!4 = !{!"clang version 13.0.0"}
!5 = !{!6, !6, i64 0}
!6 = !{!"int", !7, i64 0}
!7 = !{!"omnipotent char", !8, i64 0}
!8 = !{!"Simple C++ TBAA"}
!9 = !{!10, !10, i64 0}
!10 = !{!"any pointer", !7, i64 0}
!11 = distinct !{!11, !12}
!12 = !{!"llvm.loop.mustprogress"}
!13 = distinct !{!13, !12}
!14 = distinct !{!14, !12}
!15 = distinct !{!15, !12}
!16 = !{!17, !10, i64 0}
!17 = !{!"_ZTSNSt7__cxx1112basic_stringIcSt11char_traitsIcESaIcEE12_Alloc_hiderE", !10, i64 0}
!18 = !{!19, !20, i64 8}
!19 = !{!"_ZTSNSt7__cxx1112basic_stringIcSt11char_traitsIcESaIcEEE", !17, i64 0, !20, i64 8, !7, i64 16}
!20 = !{!"long", !7, i64 0}
!21 = !{!7, !7, i64 0}
!22 = !{!19, !10, i64 0}
!23 = distinct !{!23, !12}
!24 = distinct !{!24, !12}
