; ModuleID = 'Project_CodeNet_C++1400/p03618/s732215866.cpp'
source_filename = "Project_CodeNet_C++1400/p03618/s732215866.cpp"
target datalayout = "e-m:e-p270:32:32-p271:32:32-p272:64:64-i64:64-f80:128-n8:16:32:64-S128"
target triple = "x86_64-pc-linux-gnu"

%"class.std::ios_base::Init" = type { i8 }
%"class.std::basic_ostream" = type { i32 (...)**, %"class.std::basic_ios" }
%"class.std::basic_ios" = type { %"class.std::ios_base", %"class.std::basic_ostream"*, i8, i8, %"class.std::basic_streambuf"*, %"class.std::ctype"*, %"class.std::num_put"*, %"class.std::num_get"* }
%"class.std::ios_base" = type { i32 (...)**, i64, i64, i32, i32, i32, %"struct.std::ios_base::_Callback_list"*, %"struct.std::ios_base::_Words", [8 x %"struct.std::ios_base::_Words"], i32, %"struct.std::ios_base::_Words"*, %"class.std::locale" }
%"struct.std::ios_base::_Callback_list" = type { %"struct.std::ios_base::_Callback_list"*, void (i32, %"class.std::ios_base"*, i32)*, i32, i32 }
%"struct.std::ios_base::_Words" = type { i8*, i64 }
%"class.std::locale" = type { %"class.std::locale::_Impl"* }
%"class.std::locale::_Impl" = type { i32, %"class.std::locale::facet"**, i64, %"class.std::locale::facet"**, i8** }
%"class.std::locale::facet" = type <{ i32 (...)**, i32, [4 x i8] }>
%"class.std::basic_streambuf" = type { i32 (...)**, i8*, i8*, i8*, i8*, i8*, i8*, %"class.std::locale" }
%"class.std::ctype" = type <{ %"class.std::locale::facet.base", [4 x i8], %struct.__locale_struct*, i8, [7 x i8], i32*, i32*, i16*, i8, [256 x i8], [256 x i8], i8, [6 x i8] }>
%"class.std::locale::facet.base" = type <{ i32 (...)**, i32 }>
%struct.__locale_struct = type { [13 x %struct.__locale_data*], i16*, i32*, i32*, [13 x i8*] }
%struct.__locale_data = type opaque
%"class.std::num_put" = type { %"class.std::locale::facet.base", [4 x i8] }
%"class.std::num_get" = type { %"class.std::locale::facet.base", [4 x i8] }
%"class.std::basic_istream" = type { i32 (...)**, i64, %"class.std::basic_ios" }
%"struct.std::piecewise_construct_t" = type { i8 }
%"class.std::__cxx11::basic_string" = type { %"struct.std::__cxx11::basic_string<char>::_Alloc_hider", i64, %union.anon }
%"struct.std::__cxx11::basic_string<char>::_Alloc_hider" = type { i8* }
%union.anon = type { i64, [8 x i8] }
%"class.std::vector" = type { %"struct.std::_Bvector_base" }
%"struct.std::_Bvector_base" = type { %"struct.std::_Bvector_base<std::allocator<bool>>::_Bvector_impl" }
%"struct.std::_Bvector_base<std::allocator<bool>>::_Bvector_impl" = type { %"struct.std::_Bvector_base<std::allocator<bool>>::_Bvector_impl_data" }
%"struct.std::_Bvector_base<std::allocator<bool>>::_Bvector_impl_data" = type { %"struct.std::_Bit_iterator", %"struct.std::_Bit_iterator", i64* }
%"struct.std::_Bit_iterator" = type { %"struct.std::_Bit_iterator_base.base", [4 x i8] }
%"struct.std::_Bit_iterator_base.base" = type <{ i64*, i32 }>
%"class.std::vector.3" = type { %"struct.std::_Vector_base" }
%"struct.std::_Vector_base" = type { %"struct.std::_Vector_base<long long, std::allocator<long long>>::_Vector_impl" }
%"struct.std::_Vector_base<long long, std::allocator<long long>>::_Vector_impl" = type { %"struct.std::_Vector_base<long long, std::allocator<long long>>::_Vector_impl_data" }
%"struct.std::_Vector_base<long long, std::allocator<long long>>::_Vector_impl_data" = type { i64*, i64*, i64* }
%"class.std::tuple" = type { %"struct.std::_Tuple_impl" }
%"struct.std::_Tuple_impl" = type { %"struct.std::_Head_base" }
%"struct.std::_Head_base" = type { i8* }
%"class.std::tuple.11" = type { i8 }
%"class.std::map" = type { %"class.std::_Rb_tree" }
%"class.std::_Rb_tree" = type { %"struct.std::_Rb_tree<char, std::pair<const char, long long>, std::_Select1st<std::pair<const char, long long>>, std::less<char>>::_Rb_tree_impl" }
%"struct.std::_Rb_tree<char, std::pair<const char, long long>, std::_Select1st<std::pair<const char, long long>>, std::less<char>>::_Rb_tree_impl" = type { %"struct.std::_Rb_tree_key_compare", %"struct.std::_Rb_tree_header" }
%"struct.std::_Rb_tree_key_compare" = type { %"struct.std::less" }
%"struct.std::less" = type { i8 }
%"struct.std::_Rb_tree_header" = type { %"struct.std::_Rb_tree_node_base", i64 }
%"struct.std::_Rb_tree_node_base" = type { i32, %"struct.std::_Rb_tree_node_base"*, %"struct.std::_Rb_tree_node_base"*, %"struct.std::_Rb_tree_node_base"* }
%"struct.std::_Rb_tree_node" = type { %"struct.std::_Rb_tree_node_base", %"struct.__gnu_cxx::__aligned_membuf" }
%"struct.__gnu_cxx::__aligned_membuf" = type { [16 x i8] }

$__clang_call_terminate = comdat any

$_ZNSt8_Rb_treeIcSt4pairIKcxESt10_Select1stIS2_ESt4lessIcESaIS2_EED2Ev = comdat any

$_ZNSt8_Rb_treeIcSt4pairIKcxESt10_Select1stIS2_ESt4lessIcESaIS2_EE8_M_eraseEPSt13_Rb_tree_nodeIS2_E = comdat any

$_ZNSt8_Rb_treeIcSt4pairIKcxESt10_Select1stIS2_ESt4lessIcESaIS2_EE22_M_emplace_hint_uniqueIJRKSt21piecewise_construct_tSt5tupleIJRS1_EESD_IJEEEEESt17_Rb_tree_iteratorIS2_ESt23_Rb_tree_const_iteratorIS2_EDpOT_ = comdat any

$_ZNSt8_Rb_treeIcSt4pairIKcxESt10_Select1stIS2_ESt4lessIcESaIS2_EE29_M_get_insert_hint_unique_posESt23_Rb_tree_const_iteratorIS2_ERS1_ = comdat any

@_ZStL8__ioinit = internal global %"class.std::ios_base::Init" zeroinitializer, align 1
@__dso_handle = external hidden global i8
@.str = private unnamed_addr constant [5 x i8] c"true\00", align 1
@.str.1 = private unnamed_addr constant [6 x i8] c"false\00", align 1
@.str.3 = private unnamed_addr constant [3 x i8] c", \00", align 1
@.str.4 = private unnamed_addr constant [2 x i8] c"}\00", align 1
@_ZSt4cerr = external global %"class.std::basic_ostream", align 8
@_ZSt4cout = external global %"class.std::basic_ostream", align 8
@.str.5 = private unnamed_addr constant [3 x i8] c"No\00", align 1
@.str.6 = private unnamed_addr constant [4 x i8] c"Yes\00", align 1
@_ZL2PI = internal global double 0.000000e+00, align 8
@_ZSt3cin = external global %"class.std::basic_istream", align 8
@.str.8 = private unnamed_addr constant [42 x i8] c"basic_string::_M_construct null not valid\00", align 1
@.str.9 = private unnamed_addr constant [21 x i8] c"basic_string::append\00", align 1
@_ZStL19piecewise_construct = internal constant %"struct.std::piecewise_construct_t" undef, align 1
@llvm.global_ctors = appending global [1 x { i32, void ()*, i8* }] [{ i32, void ()*, i8* } { i32 65535, void ()* @_GLOBAL__sub_I_s732215866.cpp, i8* null }]

declare void @_ZNSt8ios_base4InitC1Ev(%"class.std::ios_base::Init"* nonnull align 1 dereferenceable(1)) unnamed_addr #0

; Function Attrs: nounwind
declare void @_ZNSt8ios_base4InitD1Ev(%"class.std::ios_base::Init"* nonnull align 1 dereferenceable(1)) unnamed_addr #1

; Function Attrs: nofree nounwind
declare i32 @__cxa_atexit(void (i8*)*, i8*, i8*) local_unnamed_addr #2

; Function Attrs: sspstrong uwtable
define dso_local void @_Z9to_stringRKNSt7__cxx1112basic_stringIcSt11char_traitsIcESaIcEEE(%"class.std::__cxx11::basic_string"* noalias sret(%"class.std::__cxx11::basic_string") align 8 %0, %"class.std::__cxx11::basic_string"* nocapture nonnull readonly align 8 dereferenceable(32) %1) local_unnamed_addr #3 personality i8* bitcast (i32 (...)* @__gxx_personality_v0 to i8*) {
  %3 = alloca %"class.std::__cxx11::basic_string", align 8
  %4 = bitcast %"class.std::__cxx11::basic_string"* %3 to i8*
  call void @llvm.lifetime.start.p0i8(i64 32, i8* nonnull %4) #27
  tail call void @llvm.experimental.noalias.scope.decl(metadata !5)
  %5 = getelementptr inbounds %"class.std::__cxx11::basic_string", %"class.std::__cxx11::basic_string"* %3, i64 0, i32 2
  %6 = bitcast %"class.std::__cxx11::basic_string"* %3 to %union.anon**
  store %union.anon* %5, %union.anon** %6, align 8, !tbaa !8, !alias.scope !5
  %7 = getelementptr inbounds %"class.std::__cxx11::basic_string", %"class.std::__cxx11::basic_string"* %3, i64 0, i32 1
  store i64 0, i64* %7, align 8, !tbaa !13, !alias.scope !5
  %8 = bitcast %union.anon* %5 to i8*
  store i8 0, i8* %8, align 8, !tbaa !16, !alias.scope !5
  %9 = getelementptr inbounds %"class.std::__cxx11::basic_string", %"class.std::__cxx11::basic_string"* %1, i64 0, i32 1
  %10 = load i64, i64* %9, align 8, !tbaa !13, !noalias !5
  %11 = add i64 %10, 1
  invoke void @_ZNSt7__cxx1112basic_stringIcSt11char_traitsIcESaIcEE7reserveEm(%"class.std::__cxx11::basic_string"* nonnull align 8 dereferenceable(32) %3, i64 %11)
          to label %12 unwind label %20

12:                                               ; preds = %2
  %13 = load i64, i64* %7, align 8, !tbaa !13, !alias.scope !5
  %14 = invoke nonnull align 8 dereferenceable(32) %"class.std::__cxx11::basic_string"* @_ZNSt7__cxx1112basic_stringIcSt11char_traitsIcESaIcEE14_M_replace_auxEmmmc(%"class.std::__cxx11::basic_string"* nonnull align 8 dereferenceable(32) %3, i64 %13, i64 0, i64 1, i8 signext 34)
          to label %15 unwind label %20

15:                                               ; preds = %12
  %16 = getelementptr inbounds %"class.std::__cxx11::basic_string", %"class.std::__cxx11::basic_string"* %1, i64 0, i32 0, i32 0
  %17 = load i8*, i8** %16, align 8, !tbaa !17, !noalias !5
  %18 = load i64, i64* %9, align 8, !tbaa !13, !noalias !5
  %19 = invoke nonnull align 8 dereferenceable(32) %"class.std::__cxx11::basic_string"* @_ZNSt7__cxx1112basic_stringIcSt11char_traitsIcESaIcEE9_M_appendEPKcm(%"class.std::__cxx11::basic_string"* nonnull align 8 dereferenceable(32) %3, i8* %17, i64 %18)
          to label %28 unwind label %20

20:                                               ; preds = %15, %12, %2
  %21 = landingpad { i8*, i32 }
          cleanup
  %22 = getelementptr inbounds %"class.std::__cxx11::basic_string", %"class.std::__cxx11::basic_string"* %3, i64 0, i32 0, i32 0
  %23 = load i8*, i8** %22, align 8, !tbaa !17, !alias.scope !5
  %24 = icmp eq i8* %23, %8
  br i1 %24, label %26, label %25

25:                                               ; preds = %20
  call void @_ZdlPv(i8* %23) #27
  br label %26

26:                                               ; preds = %20, %25, %62
  %27 = phi { i8*, i32 } [ %57, %62 ], [ %21, %25 ], [ %21, %20 ]
  resume { i8*, i32 } %27

28:                                               ; preds = %15
  call void @llvm.experimental.noalias.scope.decl(metadata !18)
  %29 = load i64, i64* %7, align 8, !tbaa !13, !noalias !18
  %30 = invoke nonnull align 8 dereferenceable(32) %"class.std::__cxx11::basic_string"* @_ZNSt7__cxx1112basic_stringIcSt11char_traitsIcESaIcEE14_M_replace_auxEmmmc(%"class.std::__cxx11::basic_string"* nonnull align 8 dereferenceable(32) %3, i64 %29, i64 0, i64 1, i8 signext 34)
          to label %31 unwind label %56

31:                                               ; preds = %28
  %32 = getelementptr inbounds %"class.std::__cxx11::basic_string", %"class.std::__cxx11::basic_string"* %0, i64 0, i32 2
  %33 = bitcast %"class.std::__cxx11::basic_string"* %0 to %union.anon**
  store %union.anon* %32, %union.anon** %33, align 8, !tbaa !8, !alias.scope !18
  %34 = getelementptr inbounds %"class.std::__cxx11::basic_string", %"class.std::__cxx11::basic_string"* %30, i64 0, i32 0, i32 0
  %35 = load i8*, i8** %34, align 8, !tbaa !17
  %36 = getelementptr inbounds %"class.std::__cxx11::basic_string", %"class.std::__cxx11::basic_string"* %30, i64 0, i32 2
  %37 = bitcast %union.anon* %36 to i8*
  %38 = icmp eq i8* %35, %37
  br i1 %38, label %39, label %41

39:                                               ; preds = %31
  %40 = bitcast %union.anon* %32 to i8*
  call void @llvm.memcpy.p0i8.p0i8.i64(i8* noundef nonnull align 8 dereferenceable(16) %40, i8* noundef nonnull align 8 dereferenceable(16) %35, i64 16, i1 false) #27
  br label %46

41:                                               ; preds = %31
  %42 = getelementptr inbounds %"class.std::__cxx11::basic_string", %"class.std::__cxx11::basic_string"* %0, i64 0, i32 0, i32 0
  store i8* %35, i8** %42, align 8, !tbaa !17, !alias.scope !18
  %43 = getelementptr inbounds %"class.std::__cxx11::basic_string", %"class.std::__cxx11::basic_string"* %30, i64 0, i32 2, i32 0
  %44 = load i64, i64* %43, align 8, !tbaa !16
  %45 = getelementptr inbounds %"class.std::__cxx11::basic_string", %"class.std::__cxx11::basic_string"* %0, i64 0, i32 2, i32 0
  store i64 %44, i64* %45, align 8, !tbaa !16, !alias.scope !18
  br label %46

46:                                               ; preds = %41, %39
  %47 = getelementptr inbounds %"class.std::__cxx11::basic_string", %"class.std::__cxx11::basic_string"* %30, i64 0, i32 1
  %48 = load i64, i64* %47, align 8, !tbaa !13
  %49 = getelementptr inbounds %"class.std::__cxx11::basic_string", %"class.std::__cxx11::basic_string"* %0, i64 0, i32 1
  store i64 %48, i64* %49, align 8, !tbaa !13, !alias.scope !18
  %50 = bitcast %"class.std::__cxx11::basic_string"* %30 to %union.anon**
  store %union.anon* %36, %union.anon** %50, align 8, !tbaa !17
  store i64 0, i64* %47, align 8, !tbaa !13
  store i8 0, i8* %37, align 8, !tbaa !16
  %51 = getelementptr inbounds %"class.std::__cxx11::basic_string", %"class.std::__cxx11::basic_string"* %3, i64 0, i32 0, i32 0
  %52 = load i8*, i8** %51, align 8, !tbaa !17
  %53 = icmp eq i8* %52, %8
  br i1 %53, label %55, label %54

54:                                               ; preds = %46
  call void @_ZdlPv(i8* %52) #27
  br label %55

55:                                               ; preds = %46, %54
  call void @llvm.lifetime.end.p0i8(i64 32, i8* nonnull %4) #27
  ret void

56:                                               ; preds = %28
  %57 = landingpad { i8*, i32 }
          cleanup
  %58 = getelementptr inbounds %"class.std::__cxx11::basic_string", %"class.std::__cxx11::basic_string"* %3, i64 0, i32 0, i32 0
  %59 = load i8*, i8** %58, align 8, !tbaa !17
  %60 = icmp eq i8* %59, %8
  br i1 %60, label %62, label %61

61:                                               ; preds = %56
  call void @_ZdlPv(i8* %59) #27
  br label %62

62:                                               ; preds = %56, %61
  call void @llvm.lifetime.end.p0i8(i64 32, i8* nonnull %4) #27
  br label %26
}

; Function Attrs: argmemonly mustprogress nofree nosync nounwind willreturn
declare void @llvm.lifetime.start.p0i8(i64 immarg, i8* nocapture) #4

declare i32 @__gxx_personality_v0(...)

; Function Attrs: argmemonly mustprogress nofree nosync nounwind willreturn
declare void @llvm.lifetime.end.p0i8(i64 immarg, i8* nocapture) #4

; Function Attrs: sspstrong uwtable
define dso_local void @_Z9to_stringB5cxx11PKc(%"class.std::__cxx11::basic_string"* noalias sret(%"class.std::__cxx11::basic_string") align 8 %0, i8* readonly %1) local_unnamed_addr #3 personality i8* bitcast (i32 (...)* @__gxx_personality_v0 to i8*) {
  %3 = alloca i64, align 8
  %4 = alloca %"class.std::__cxx11::basic_string", align 8
  %5 = bitcast %"class.std::__cxx11::basic_string"* %4 to i8*
  call void @llvm.lifetime.start.p0i8(i64 32, i8* nonnull %5) #27
  %6 = getelementptr inbounds %"class.std::__cxx11::basic_string", %"class.std::__cxx11::basic_string"* %4, i64 0, i32 2
  %7 = bitcast %"class.std::__cxx11::basic_string"* %4 to %union.anon**
  store %union.anon* %6, %union.anon** %7, align 8, !tbaa !8
  %8 = icmp eq i8* %1, null
  br i1 %8, label %9, label %10

9:                                                ; preds = %2
  call void @_ZSt19__throw_logic_errorPKc(i8* getelementptr inbounds ([42 x i8], [42 x i8]* @.str.8, i64 0, i64 0)) #28
  unreachable

10:                                               ; preds = %2
  %11 = bitcast %union.anon* %6 to i8*
  %12 = call i64 @strlen(i8* noundef nonnull dereferenceable(1) %1) #27
  %13 = bitcast i64* %3 to i8*
  call void @llvm.lifetime.start.p0i8(i64 8, i8* nonnull %13) #27
  store i64 %12, i64* %3, align 8, !tbaa !21
  %14 = icmp ugt i64 %12, 15
  br i1 %14, label %15, label %20

15:                                               ; preds = %10
  %16 = call i8* @_ZNSt7__cxx1112basic_stringIcSt11char_traitsIcESaIcEE9_M_createERmm(%"class.std::__cxx11::basic_string"* nonnull align 8 dereferenceable(32) %4, i64* nonnull align 8 dereferenceable(8) %3, i64 0)
  %17 = getelementptr inbounds %"class.std::__cxx11::basic_string", %"class.std::__cxx11::basic_string"* %4, i64 0, i32 0, i32 0
  store i8* %16, i8** %17, align 8, !tbaa !17
  %18 = load i64, i64* %3, align 8, !tbaa !21
  %19 = getelementptr inbounds %"class.std::__cxx11::basic_string", %"class.std::__cxx11::basic_string"* %4, i64 0, i32 2, i32 0
  store i64 %18, i64* %19, align 8, !tbaa !16
  br label %20

20:                                               ; preds = %15, %10
  %21 = phi i8* [ %16, %15 ], [ %11, %10 ]
  switch i64 %12, label %24 [
    i64 1, label %22
    i64 0, label %25
  ]

22:                                               ; preds = %20
  %23 = load i8, i8* %1, align 1, !tbaa !16
  store i8 %23, i8* %21, align 1, !tbaa !16
  br label %25

24:                                               ; preds = %20
  call void @llvm.memcpy.p0i8.p0i8.i64(i8* align 1 %21, i8* nonnull align 1 %1, i64 %12, i1 false) #27
  br label %25

25:                                               ; preds = %24, %22, %20
  %26 = getelementptr inbounds %"class.std::__cxx11::basic_string", %"class.std::__cxx11::basic_string"* %4, i64 0, i32 0, i32 0
  %27 = load i64, i64* %3, align 8, !tbaa !21
  %28 = getelementptr inbounds %"class.std::__cxx11::basic_string", %"class.std::__cxx11::basic_string"* %4, i64 0, i32 1
  store i64 %27, i64* %28, align 8, !tbaa !13
  %29 = load i8*, i8** %26, align 8, !tbaa !17
  %30 = getelementptr inbounds i8, i8* %29, i64 %27
  store i8 0, i8* %30, align 1, !tbaa !16
  call void @llvm.lifetime.end.p0i8(i64 8, i8* nonnull %13) #27
  invoke void @_Z9to_stringRKNSt7__cxx1112basic_stringIcSt11char_traitsIcESaIcEEE(%"class.std::__cxx11::basic_string"* sret(%"class.std::__cxx11::basic_string") align 8 %0, %"class.std::__cxx11::basic_string"* nonnull align 8 dereferenceable(32) %4)
          to label %31 unwind label %36

31:                                               ; preds = %25
  %32 = load i8*, i8** %26, align 8, !tbaa !17
  %33 = icmp eq i8* %32, %11
  br i1 %33, label %35, label %34

34:                                               ; preds = %31
  call void @_ZdlPv(i8* %32) #27
  br label %35

35:                                               ; preds = %31, %34
  call void @llvm.lifetime.end.p0i8(i64 32, i8* nonnull %5) #27
  ret void

36:                                               ; preds = %25
  %37 = landingpad { i8*, i32 }
          cleanup
  %38 = load i8*, i8** %26, align 8, !tbaa !17
  %39 = icmp eq i8* %38, %11
  br i1 %39, label %41, label %40

40:                                               ; preds = %36
  call void @_ZdlPv(i8* %38) #27
  br label %41

41:                                               ; preds = %40, %36
  call void @llvm.lifetime.end.p0i8(i64 32, i8* nonnull %5) #27
  resume { i8*, i32 } %37
}

; Function Attrs: sspstrong uwtable
define dso_local void @_Z9to_stringB5cxx11b(%"class.std::__cxx11::basic_string"* noalias sret(%"class.std::__cxx11::basic_string") align 8 %0, i1 zeroext %1) local_unnamed_addr #3 personality i8* bitcast (i32 (...)* @__gxx_personality_v0 to i8*) {
  %3 = select i1 %1, i8* getelementptr inbounds ([5 x i8], [5 x i8]* @.str, i64 0, i64 0), i8* getelementptr inbounds ([6 x i8], [6 x i8]* @.str.1, i64 0, i64 0)
  %4 = getelementptr inbounds %"class.std::__cxx11::basic_string", %"class.std::__cxx11::basic_string"* %0, i64 0, i32 2
  %5 = bitcast %"class.std::__cxx11::basic_string"* %0 to %union.anon**
  store %union.anon* %4, %union.anon** %5, align 8, !tbaa !8
  %6 = bitcast %union.anon* %4 to i8*
  %7 = select i1 %1, i64 4, i64 5
  tail call void @llvm.memcpy.p0i8.p0i8.i64(i8* noundef nonnull align 8 dereferenceable(4) %6, i8* noundef nonnull align 1 dereferenceable(4) %3, i64 %7, i1 false) #27
  %8 = getelementptr inbounds %"class.std::__cxx11::basic_string", %"class.std::__cxx11::basic_string"* %0, i64 0, i32 1
  store i64 %7, i64* %8, align 8, !tbaa !13
  %9 = getelementptr inbounds i8, i8* %6, i64 %7
  store i8 0, i8* %9, align 1, !tbaa !16
  ret void
}

; Function Attrs: sspstrong uwtable
define dso_local void @_Z9to_stringB5cxx11St6vectorIbSaIbEE(%"class.std::__cxx11::basic_string"* noalias sret(%"class.std::__cxx11::basic_string") align 8 %0, %"class.std::vector"* nocapture readonly %1) local_unnamed_addr #3 personality i8* bitcast (i32 (...)* @__gxx_personality_v0 to i8*) {
  %3 = alloca %"class.std::__cxx11::basic_string", align 8
  %4 = getelementptr inbounds %"class.std::__cxx11::basic_string", %"class.std::__cxx11::basic_string"* %0, i64 0, i32 2
  %5 = bitcast %"class.std::__cxx11::basic_string"* %0 to %union.anon**
  store %union.anon* %4, %union.anon** %5, align 8, !tbaa !8
  %6 = bitcast %union.anon* %4 to i8*
  store i8 123, i8* %6, align 8, !tbaa !16
  %7 = getelementptr inbounds %"class.std::__cxx11::basic_string", %"class.std::__cxx11::basic_string"* %0, i64 0, i32 0, i32 0
  %8 = getelementptr inbounds %"class.std::__cxx11::basic_string", %"class.std::__cxx11::basic_string"* %0, i64 0, i32 1
  store i64 1, i64* %8, align 8, !tbaa !13
  %9 = getelementptr inbounds i8, i8* %6, i64 1
  store i8 0, i8* %9, align 1, !tbaa !16
  %10 = getelementptr inbounds %"class.std::vector", %"class.std::vector"* %1, i64 0, i32 0, i32 0, i32 0, i32 1, i32 0, i32 0
  %11 = getelementptr inbounds %"class.std::vector", %"class.std::vector"* %1, i64 0, i32 0, i32 0, i32 0, i32 1, i32 0, i32 1
  %12 = getelementptr inbounds %"class.std::vector", %"class.std::vector"* %1, i64 0, i32 0, i32 0, i32 0, i32 0, i32 0, i32 0
  %13 = bitcast %"class.std::__cxx11::basic_string"* %3 to i8*
  %14 = getelementptr inbounds %"class.std::__cxx11::basic_string", %"class.std::__cxx11::basic_string"* %3, i64 0, i32 2
  %15 = bitcast %"class.std::__cxx11::basic_string"* %3 to %union.anon**
  %16 = bitcast %union.anon* %14 to i8*
  %17 = getelementptr inbounds %"class.std::__cxx11::basic_string", %"class.std::__cxx11::basic_string"* %3, i64 0, i32 1
  %18 = getelementptr inbounds %"class.std::__cxx11::basic_string", %"class.std::__cxx11::basic_string"* %3, i64 0, i32 0, i32 0
  %19 = load i64*, i64** %10, align 8, !tbaa !22
  %20 = load i32, i32* %11, align 8, !tbaa !25
  %21 = load i64*, i64** %12, align 8, !tbaa !22
  %22 = ptrtoint i64* %19 to i64
  %23 = ptrtoint i64* %21 to i64
  %24 = sub i64 %22, %23
  %25 = trunc i64 %24 to i32
  %26 = shl i32 %25, 3
  %27 = add i32 %26, %20
  %28 = icmp sgt i32 %27, 0
  br i1 %28, label %36, label %34

29:                                               ; preds = %73
  %30 = load i64, i64* %8, align 8, !tbaa !13
  %31 = icmp eq i64 %30, 4611686018427387903
  br i1 %31, label %32, label %34

32:                                               ; preds = %29
  invoke void @_ZSt20__throw_length_errorPKc(i8* getelementptr inbounds ([21 x i8], [21 x i8]* @.str.9, i64 0, i64 0)) #28
          to label %33 unwind label %91

33:                                               ; preds = %32
  unreachable

34:                                               ; preds = %2, %29
  %35 = invoke nonnull align 8 dereferenceable(32) %"class.std::__cxx11::basic_string"* @_ZNSt7__cxx1112basic_stringIcSt11char_traitsIcESaIcEE9_M_appendEPKcm(%"class.std::__cxx11::basic_string"* nonnull align 8 dereferenceable(32) %0, i8* getelementptr inbounds ([2 x i8], [2 x i8]* @.str.4, i64 0, i64 0), i64 1)
          to label %93 unwind label %91

36:                                               ; preds = %2, %73
  %37 = phi i64* [ %77, %73 ], [ %21, %2 ]
  %38 = phi i32 [ %74, %73 ], [ 0, %2 ]
  %39 = phi i1 [ false, %73 ], [ true, %2 ]
  br i1 %39, label %54, label %40

40:                                               ; preds = %36
  %41 = load i64, i64* %8, align 8, !tbaa !13
  %42 = and i64 %41, -2
  %43 = icmp eq i64 %42, 4611686018427387902
  br i1 %43, label %44, label %46

44:                                               ; preds = %40
  invoke void @_ZSt20__throw_length_errorPKc(i8* getelementptr inbounds ([21 x i8], [21 x i8]* @.str.9, i64 0, i64 0)) #28
          to label %45 unwind label %52

45:                                               ; preds = %44
  unreachable

46:                                               ; preds = %40
  %47 = invoke nonnull align 8 dereferenceable(32) %"class.std::__cxx11::basic_string"* @_ZNSt7__cxx1112basic_stringIcSt11char_traitsIcESaIcEE9_M_appendEPKcm(%"class.std::__cxx11::basic_string"* nonnull align 8 dereferenceable(32) %0, i8* getelementptr inbounds ([3 x i8], [3 x i8]* @.str.3, i64 0, i64 0), i64 2)
          to label %48 unwind label %50

48:                                               ; preds = %46
  %49 = load i64*, i64** %12, align 8, !tbaa !22
  br label %54

50:                                               ; preds = %46
  %51 = landingpad { i8*, i32 }
          cleanup
  br label %94

52:                                               ; preds = %44
  %53 = landingpad { i8*, i32 }
          cleanup
  br label %94

54:                                               ; preds = %48, %36
  %55 = phi i64* [ %49, %48 ], [ %37, %36 ]
  call void @llvm.lifetime.start.p0i8(i64 32, i8* nonnull %13) #27
  %56 = lshr i32 %38, 6
  %57 = zext i32 %56 to i64
  %58 = and i32 %38, 63
  %59 = zext i32 %58 to i64
  %60 = getelementptr i64, i64* %55, i64 %57
  %61 = shl nuw i64 1, %59
  %62 = load i64, i64* %60, align 8, !tbaa !21
  %63 = and i64 %62, %61
  %64 = icmp eq i64 %63, 0
  %65 = select i1 %64, i8* getelementptr inbounds ([6 x i8], [6 x i8]* @.str.1, i64 0, i64 0), i8* getelementptr inbounds ([5 x i8], [5 x i8]* @.str, i64 0, i64 0)
  store %union.anon* %14, %union.anon** %15, align 8, !tbaa !8, !alias.scope !26
  %66 = select i1 %64, i64 5, i64 4
  call void @llvm.memcpy.p0i8.p0i8.i64(i8* noundef nonnull align 8 dereferenceable(4) %16, i8* noundef nonnull align 1 dereferenceable(4) %65, i64 %66, i1 false) #27
  store i64 %66, i64* %17, align 8, !tbaa !13, !alias.scope !26
  %67 = getelementptr inbounds i8, i8* %16, i64 %66
  store i8 0, i8* %67, align 1, !tbaa !16, !alias.scope !26
  %68 = invoke nonnull align 8 dereferenceable(32) %"class.std::__cxx11::basic_string"* @_ZNSt7__cxx1112basic_stringIcSt11char_traitsIcESaIcEE9_M_appendEPKcm(%"class.std::__cxx11::basic_string"* nonnull align 8 dereferenceable(32) %0, i8* nonnull %16, i64 %66)
          to label %69 unwind label %85

69:                                               ; preds = %54
  %70 = load i8*, i8** %18, align 8, !tbaa !17
  %71 = icmp eq i8* %70, %16
  br i1 %71, label %73, label %72

72:                                               ; preds = %69
  call void @_ZdlPv(i8* %70) #27
  br label %73

73:                                               ; preds = %69, %72
  call void @llvm.lifetime.end.p0i8(i64 32, i8* nonnull %13) #27
  %74 = add nuw nsw i32 %38, 1
  %75 = load i64*, i64** %10, align 8, !tbaa !22
  %76 = load i32, i32* %11, align 8, !tbaa !25
  %77 = load i64*, i64** %12, align 8, !tbaa !22
  %78 = ptrtoint i64* %75 to i64
  %79 = ptrtoint i64* %77 to i64
  %80 = sub i64 %78, %79
  %81 = trunc i64 %80 to i32
  %82 = shl i32 %81, 3
  %83 = add i32 %82, %76
  %84 = icmp slt i32 %74, %83
  br i1 %84, label %36, label %29, !llvm.loop !29

85:                                               ; preds = %54
  %86 = landingpad { i8*, i32 }
          cleanup
  %87 = load i8*, i8** %18, align 8, !tbaa !17
  %88 = icmp eq i8* %87, %16
  br i1 %88, label %90, label %89

89:                                               ; preds = %85
  call void @_ZdlPv(i8* %87) #27
  br label %90

90:                                               ; preds = %89, %85
  call void @llvm.lifetime.end.p0i8(i64 32, i8* nonnull %13) #27
  br label %94

91:                                               ; preds = %34, %32
  %92 = landingpad { i8*, i32 }
          cleanup
  br label %94

93:                                               ; preds = %34
  ret void

94:                                               ; preds = %50, %52, %90, %91
  %95 = phi { i8*, i32 } [ %92, %91 ], [ %86, %90 ], [ %51, %50 ], [ %53, %52 ]
  %96 = load i8*, i8** %7, align 8, !tbaa !17
  %97 = icmp eq i8* %96, %6
  br i1 %97, label %99, label %98

98:                                               ; preds = %94
  call void @_ZdlPv(i8* %96) #27
  br label %99

99:                                               ; preds = %98, %94
  resume { i8*, i32 } %95
}

; Function Attrs: mustprogress sspstrong uwtable
define dso_local void @_Z9debug_outv() local_unnamed_addr #5 {
  %1 = alloca i8, align 1
  call void @llvm.lifetime.start.p0i8(i64 1, i8* nonnull %1)
  store i8 10, i8* %1, align 1, !tbaa !16
  %2 = call nonnull align 8 dereferenceable(8) %"class.std::basic_ostream"* @_ZSt16__ostream_insertIcSt11char_traitsIcEERSt13basic_ostreamIT_T0_ES6_PKS3_l(%"class.std::basic_ostream"* nonnull align 8 dereferenceable(8) @_ZSt4cerr, i8* nonnull %1, i64 1)
  call void @llvm.lifetime.end.p0i8(i64 1, i8* nonnull %1)
  ret void
}

; Function Attrs: inlinehint mustprogress sspstrong uwtable
declare nonnull align 8 dereferenceable(8) %"class.std::basic_ostream"* @_ZStlsISt11char_traitsIcEERSt13basic_ostreamIcT_ES5_c(%"class.std::basic_ostream"* nonnull align 8 dereferenceable(8), i8 signext) local_unnamed_addr #6

; Function Attrs: nofree norecurse nosync nounwind readonly sspstrong uwtable
define dso_local i64 @_Z3SUMRSt6vectorIxSaIxEE(%"class.std::vector.3"* nocapture nonnull readonly align 8 dereferenceable(24) %0) local_unnamed_addr #7 {
  %2 = getelementptr inbounds %"class.std::vector.3", %"class.std::vector.3"* %0, i64 0, i32 0, i32 0, i32 0, i32 0
  %3 = load i64*, i64** %2, align 8, !tbaa !31
  %4 = getelementptr inbounds %"class.std::vector.3", %"class.std::vector.3"* %0, i64 0, i32 0, i32 0, i32 0, i32 1
  %5 = load i64*, i64** %4, align 8, !tbaa !31
  %6 = icmp eq i64* %3, %5
  br i1 %6, label %107, label %7

7:                                                ; preds = %1
  %8 = ptrtoint i64* %5 to i64
  %9 = ptrtoint i64* %3 to i64
  %10 = add i64 %8, -8
  %11 = sub i64 %10, %9
  %12 = lshr i64 %11, 3
  %13 = add nuw nsw i64 %12, 1
  %14 = icmp ult i64 %11, 24
  br i1 %14, label %97, label %15

15:                                               ; preds = %7
  %16 = and i64 %13, 4611686018427387900
  %17 = getelementptr i64, i64* %3, i64 %16
  %18 = add nsw i64 %16, -4
  %19 = lshr exact i64 %18, 2
  %20 = add nuw nsw i64 %19, 1
  %21 = and i64 %20, 3
  %22 = icmp ult i64 %18, 12
  br i1 %22, label %68, label %23

23:                                               ; preds = %15
  %24 = and i64 %20, 9223372036854775804
  br label %25

25:                                               ; preds = %25, %23
  %26 = phi i64 [ 0, %23 ], [ %65, %25 ]
  %27 = phi <2 x i64> [ zeroinitializer, %23 ], [ %63, %25 ]
  %28 = phi <2 x i64> [ zeroinitializer, %23 ], [ %64, %25 ]
  %29 = phi i64 [ %24, %23 ], [ %66, %25 ]
  %30 = getelementptr i64, i64* %3, i64 %26
  %31 = bitcast i64* %30 to <2 x i64>*
  %32 = load <2 x i64>, <2 x i64>* %31, align 8, !tbaa !32
  %33 = getelementptr i64, i64* %30, i64 2
  %34 = bitcast i64* %33 to <2 x i64>*
  %35 = load <2 x i64>, <2 x i64>* %34, align 8, !tbaa !32
  %36 = add <2 x i64> %32, %27
  %37 = add <2 x i64> %35, %28
  %38 = or i64 %26, 4
  %39 = getelementptr i64, i64* %3, i64 %38
  %40 = bitcast i64* %39 to <2 x i64>*
  %41 = load <2 x i64>, <2 x i64>* %40, align 8, !tbaa !32
  %42 = getelementptr i64, i64* %39, i64 2
  %43 = bitcast i64* %42 to <2 x i64>*
  %44 = load <2 x i64>, <2 x i64>* %43, align 8, !tbaa !32
  %45 = add <2 x i64> %41, %36
  %46 = add <2 x i64> %44, %37
  %47 = or i64 %26, 8
  %48 = getelementptr i64, i64* %3, i64 %47
  %49 = bitcast i64* %48 to <2 x i64>*
  %50 = load <2 x i64>, <2 x i64>* %49, align 8, !tbaa !32
  %51 = getelementptr i64, i64* %48, i64 2
  %52 = bitcast i64* %51 to <2 x i64>*
  %53 = load <2 x i64>, <2 x i64>* %52, align 8, !tbaa !32
  %54 = add <2 x i64> %50, %45
  %55 = add <2 x i64> %53, %46
  %56 = or i64 %26, 12
  %57 = getelementptr i64, i64* %3, i64 %56
  %58 = bitcast i64* %57 to <2 x i64>*
  %59 = load <2 x i64>, <2 x i64>* %58, align 8, !tbaa !32
  %60 = getelementptr i64, i64* %57, i64 2
  %61 = bitcast i64* %60 to <2 x i64>*
  %62 = load <2 x i64>, <2 x i64>* %61, align 8, !tbaa !32
  %63 = add <2 x i64> %59, %54
  %64 = add <2 x i64> %62, %55
  %65 = add nuw i64 %26, 16
  %66 = add i64 %29, -4
  %67 = icmp eq i64 %66, 0
  br i1 %67, label %68, label %25, !llvm.loop !34

68:                                               ; preds = %25, %15
  %69 = phi <2 x i64> [ undef, %15 ], [ %63, %25 ]
  %70 = phi <2 x i64> [ undef, %15 ], [ %64, %25 ]
  %71 = phi i64 [ 0, %15 ], [ %65, %25 ]
  %72 = phi <2 x i64> [ zeroinitializer, %15 ], [ %63, %25 ]
  %73 = phi <2 x i64> [ zeroinitializer, %15 ], [ %64, %25 ]
  %74 = icmp eq i64 %21, 0
  br i1 %74, label %91, label %75

75:                                               ; preds = %68, %75
  %76 = phi i64 [ %88, %75 ], [ %71, %68 ]
  %77 = phi <2 x i64> [ %86, %75 ], [ %72, %68 ]
  %78 = phi <2 x i64> [ %87, %75 ], [ %73, %68 ]
  %79 = phi i64 [ %89, %75 ], [ %21, %68 ]
  %80 = getelementptr i64, i64* %3, i64 %76
  %81 = bitcast i64* %80 to <2 x i64>*
  %82 = load <2 x i64>, <2 x i64>* %81, align 8, !tbaa !32
  %83 = getelementptr i64, i64* %80, i64 2
  %84 = bitcast i64* %83 to <2 x i64>*
  %85 = load <2 x i64>, <2 x i64>* %84, align 8, !tbaa !32
  %86 = add <2 x i64> %82, %77
  %87 = add <2 x i64> %85, %78
  %88 = add nuw i64 %76, 4
  %89 = add i64 %79, -1
  %90 = icmp eq i64 %89, 0
  br i1 %90, label %91, label %75, !llvm.loop !36

91:                                               ; preds = %75, %68
  %92 = phi <2 x i64> [ %69, %68 ], [ %86, %75 ]
  %93 = phi <2 x i64> [ %70, %68 ], [ %87, %75 ]
  %94 = add <2 x i64> %93, %92
  %95 = call i64 @llvm.vector.reduce.add.v2i64(<2 x i64> %94)
  %96 = icmp eq i64 %13, %16
  br i1 %96, label %107, label %97

97:                                               ; preds = %7, %91
  %98 = phi i64 [ 0, %7 ], [ %95, %91 ]
  %99 = phi i64* [ %3, %7 ], [ %17, %91 ]
  br label %100

100:                                              ; preds = %97, %100
  %101 = phi i64 [ %104, %100 ], [ %98, %97 ]
  %102 = phi i64* [ %105, %100 ], [ %99, %97 ]
  %103 = load i64, i64* %102, align 8, !tbaa !32
  %104 = add nsw i64 %103, %101
  %105 = getelementptr inbounds i64, i64* %102, i64 1
  %106 = icmp eq i64* %105, %5
  br i1 %106, label %107, label %100, !llvm.loop !38

107:                                              ; preds = %100, %91, %1
  %108 = phi i64 [ 0, %1 ], [ %95, %91 ], [ %104, %100 ]
  ret i64 %108
}

; Function Attrs: nofree nosync nounwind readonly sspstrong uwtable
define dso_local i64 @_Z3MINRSt6vectorIxSaIxEE(%"class.std::vector.3"* nocapture nonnull readonly align 8 dereferenceable(24) %0) local_unnamed_addr #8 {
  %2 = getelementptr inbounds %"class.std::vector.3", %"class.std::vector.3"* %0, i64 0, i32 0, i32 0, i32 0, i32 0
  %3 = load i64*, i64** %2, align 8, !tbaa !31
  %4 = getelementptr inbounds %"class.std::vector.3", %"class.std::vector.3"* %0, i64 0, i32 0, i32 0, i32 0, i32 1
  %5 = load i64*, i64** %4, align 8, !tbaa !31
  %6 = icmp eq i64* %3, %5
  %7 = getelementptr inbounds i64, i64* %3, i64 1
  %8 = icmp eq i64* %7, %5
  %9 = select i1 %6, i1 true, i1 %8
  br i1 %9, label %19, label %10

10:                                               ; preds = %1, %10
  %11 = phi i64* [ %17, %10 ], [ %7, %1 ]
  %12 = phi i64* [ %16, %10 ], [ %3, %1 ]
  %13 = load i64, i64* %11, align 8, !tbaa !32
  %14 = load i64, i64* %12, align 8, !tbaa !32
  %15 = icmp slt i64 %13, %14
  %16 = select i1 %15, i64* %11, i64* %12
  %17 = getelementptr inbounds i64, i64* %11, i64 1
  %18 = icmp eq i64* %17, %5
  br i1 %18, label %19, label %10, !llvm.loop !40

19:                                               ; preds = %10, %1
  %20 = phi i64* [ %3, %1 ], [ %16, %10 ]
  %21 = load i64, i64* %20, align 8, !tbaa !32
  ret i64 %21
}

; Function Attrs: nofree nosync nounwind readonly sspstrong uwtable
define dso_local i64 @_Z3MAXRSt6vectorIxSaIxEE(%"class.std::vector.3"* nocapture nonnull readonly align 8 dereferenceable(24) %0) local_unnamed_addr #8 {
  %2 = getelementptr inbounds %"class.std::vector.3", %"class.std::vector.3"* %0, i64 0, i32 0, i32 0, i32 0, i32 0
  %3 = load i64*, i64** %2, align 8, !tbaa !31
  %4 = getelementptr inbounds %"class.std::vector.3", %"class.std::vector.3"* %0, i64 0, i32 0, i32 0, i32 0, i32 1
  %5 = load i64*, i64** %4, align 8, !tbaa !31
  %6 = icmp eq i64* %3, %5
  %7 = getelementptr inbounds i64, i64* %3, i64 1
  %8 = icmp eq i64* %7, %5
  %9 = select i1 %6, i1 true, i1 %8
  br i1 %9, label %19, label %10

10:                                               ; preds = %1, %10
  %11 = phi i64* [ %17, %10 ], [ %7, %1 ]
  %12 = phi i64* [ %16, %10 ], [ %3, %1 ]
  %13 = load i64, i64* %12, align 8, !tbaa !32
  %14 = load i64, i64* %11, align 8, !tbaa !32
  %15 = icmp slt i64 %13, %14
  %16 = select i1 %15, i64* %11, i64* %12
  %17 = getelementptr inbounds i64, i64* %11, i64 1
  %18 = icmp eq i64* %17, %5
  br i1 %18, label %19, label %10, !llvm.loop !41

19:                                               ; preds = %10, %1
  %20 = phi i64* [ %3, %1 ], [ %16, %10 ]
  %21 = load i64, i64* %20, align 8, !tbaa !32
  ret i64 %21
}

; Function Attrs: mustprogress sspstrong uwtable
define dso_local void @_Z12print_vectorRSt6vectorIxSaIxEE(%"class.std::vector.3"* nocapture nonnull readonly align 8 dereferenceable(24) %0) local_unnamed_addr #5 {
  %2 = alloca i8, align 1
  %3 = getelementptr inbounds %"class.std::vector.3", %"class.std::vector.3"* %0, i64 0, i32 0, i32 0, i32 0, i32 1
  %4 = load i64*, i64** %3, align 8, !tbaa !42
  %5 = getelementptr inbounds %"class.std::vector.3", %"class.std::vector.3"* %0, i64 0, i32 0, i32 0, i32 0, i32 0
  %6 = load i64*, i64** %5, align 8, !tbaa !44
  %7 = ptrtoint i64* %4 to i64
  %8 = ptrtoint i64* %6 to i64
  %9 = sub i64 %7, %8
  %10 = icmp sgt i64 %9, 0
  br i1 %10, label %11, label %17

11:                                               ; preds = %1
  %12 = lshr exact i64 %9, 3
  %13 = call i64 @llvm.smax.i64(i64 %12, i64 1)
  %14 = load i64, i64* %6, align 8, !tbaa !32
  %15 = call nonnull align 8 dereferenceable(8) %"class.std::basic_ostream"* @_ZNSo9_M_insertIxEERSoT_(%"class.std::basic_ostream"* nonnull align 8 dereferenceable(8) @_ZSt4cout, i64 %14)
  %16 = icmp slt i64 %9, 16
  br i1 %16, label %17, label %45

17:                                               ; preds = %45, %11, %1
  %18 = load i8*, i8** bitcast (%"class.std::basic_ostream"* @_ZSt4cout to i8**), align 8, !tbaa !45
  %19 = getelementptr i8, i8* %18, i64 -24
  %20 = bitcast i8* %19 to i64*
  %21 = load i64, i64* %20, align 8
  %22 = add nsw i64 %21, 240
  %23 = getelementptr inbounds i8, i8* bitcast (%"class.std::basic_ostream"* @_ZSt4cout to i8*), i64 %22
  %24 = bitcast i8* %23 to %"class.std::ctype"**
  %25 = load %"class.std::ctype"*, %"class.std::ctype"** %24, align 8, !tbaa !47
  %26 = icmp eq %"class.std::ctype"* %25, null
  br i1 %26, label %27, label %28

27:                                               ; preds = %17
  call void @_ZSt16__throw_bad_castv() #28
  unreachable

28:                                               ; preds = %17
  %29 = getelementptr inbounds %"class.std::ctype", %"class.std::ctype"* %25, i64 0, i32 8
  %30 = load i8, i8* %29, align 8, !tbaa !50
  %31 = icmp eq i8 %30, 0
  br i1 %31, label %35, label %32

32:                                               ; preds = %28
  %33 = getelementptr inbounds %"class.std::ctype", %"class.std::ctype"* %25, i64 0, i32 9, i64 10
  %34 = load i8, i8* %33, align 1, !tbaa !16
  br label %41

35:                                               ; preds = %28
  call void @_ZNKSt5ctypeIcE13_M_widen_initEv(%"class.std::ctype"* nonnull align 8 dereferenceable(570) %25)
  %36 = bitcast %"class.std::ctype"* %25 to i8 (%"class.std::ctype"*, i8)***
  %37 = load i8 (%"class.std::ctype"*, i8)**, i8 (%"class.std::ctype"*, i8)*** %36, align 8, !tbaa !45
  %38 = getelementptr inbounds i8 (%"class.std::ctype"*, i8)*, i8 (%"class.std::ctype"*, i8)** %37, i64 6
  %39 = load i8 (%"class.std::ctype"*, i8)*, i8 (%"class.std::ctype"*, i8)** %38, align 8
  %40 = call signext i8 %39(%"class.std::ctype"* nonnull align 8 dereferenceable(570) %25, i8 signext 10)
  br label %41

41:                                               ; preds = %32, %35
  %42 = phi i8 [ %34, %32 ], [ %40, %35 ]
  %43 = call nonnull align 8 dereferenceable(8) %"class.std::basic_ostream"* @_ZNSo3putEc(%"class.std::basic_ostream"* nonnull align 8 dereferenceable(8) @_ZSt4cout, i8 signext %42)
  %44 = call nonnull align 8 dereferenceable(8) %"class.std::basic_ostream"* @_ZNSo5flushEv(%"class.std::basic_ostream"* nonnull align 8 dereferenceable(8) %43)
  ret void

45:                                               ; preds = %11, %45
  %46 = phi i64 [ %52, %45 ], [ 1, %11 ]
  call void @llvm.lifetime.start.p0i8(i64 1, i8* nonnull %2)
  store i8 32, i8* %2, align 1, !tbaa !16
  %47 = call nonnull align 8 dereferenceable(8) %"class.std::basic_ostream"* @_ZSt16__ostream_insertIcSt11char_traitsIcEERSt13basic_ostreamIT_T0_ES6_PKS3_l(%"class.std::basic_ostream"* nonnull align 8 dereferenceable(8) @_ZSt4cout, i8* nonnull %2, i64 1)
  call void @llvm.lifetime.end.p0i8(i64 1, i8* nonnull %2)
  %48 = load i64*, i64** %5, align 8, !tbaa !44
  %49 = getelementptr inbounds i64, i64* %48, i64 %46
  %50 = load i64, i64* %49, align 8, !tbaa !32
  %51 = call nonnull align 8 dereferenceable(8) %"class.std::basic_ostream"* @_ZNSo9_M_insertIxEERSoT_(%"class.std::basic_ostream"* nonnull align 8 dereferenceable(8) @_ZSt4cout, i64 %50)
  %52 = add nuw nsw i64 %46, 1
  %53 = icmp eq i64 %52, %13
  br i1 %53, label %17, label %45, !llvm.loop !52
}

; Function Attrs: mustprogress nofree nosync nounwind readnone sspstrong uwtable willreturn
define dso_local i64 @_Z3gcdxx(i64 %0, i64 %1) local_unnamed_addr #9 {
  %3 = icmp eq i64 %1, 0
  br i1 %3, label %9, label %4

4:                                                ; preds = %2, %4
  %5 = phi i64 [ %7, %4 ], [ %1, %2 ]
  %6 = phi i64 [ %5, %4 ], [ %0, %2 ]
  %7 = srem i64 %6, %5
  %8 = icmp eq i64 %7, 0
  br i1 %8, label %9, label %4

9:                                                ; preds = %4, %2
  %10 = phi i64 [ %0, %2 ], [ %5, %4 ]
  ret i64 %10
}

; Function Attrs: mustprogress nofree norecurse nosync nounwind readnone sspstrong uwtable willreturn
define dso_local i64 @_Z3lcmxx(i64 %0, i64 %1) local_unnamed_addr #10 {
  %3 = icmp eq i64 %1, 0
  br i1 %3, label %9, label %4

4:                                                ; preds = %2, %4
  %5 = phi i64 [ %7, %4 ], [ %1, %2 ]
  %6 = phi i64 [ %5, %4 ], [ %0, %2 ]
  %7 = srem i64 %6, %5
  %8 = icmp eq i64 %7, 0
  br i1 %8, label %9, label %4

9:                                                ; preds = %4, %2
  %10 = phi i64 [ %0, %2 ], [ %5, %4 ]
  %11 = sdiv i64 %0, %10
  %12 = mul nsw i64 %11, %1
  ret i64 %12
}

; Function Attrs: mustprogress noreturn sspstrong uwtable
define dso_local void @_Z2nov() local_unnamed_addr #11 {
  %1 = tail call nonnull align 8 dereferenceable(8) %"class.std::basic_ostream"* @_ZStlsISt11char_traitsIcEERSt13basic_ostreamIcT_ES5_PKc(%"class.std::basic_ostream"* nonnull align 8 dereferenceable(8) @_ZSt4cout, i8* getelementptr inbounds ([3 x i8], [3 x i8]* @.str.5, i64 0, i64 0))
  %2 = tail call nonnull align 8 dereferenceable(8) %"class.std::basic_ostream"* @_ZStlsISt11char_traitsIcEERSt13basic_ostreamIcT_ES5_c(%"class.std::basic_ostream"* nonnull align 8 dereferenceable(8) %1, i8 signext 10)
  tail call void @exit(i32 0) #29
  unreachable
}

; Function Attrs: inlinehint mustprogress sspstrong uwtable
declare nonnull align 8 dereferenceable(8) %"class.std::basic_ostream"* @_ZStlsISt11char_traitsIcEERSt13basic_ostreamIcT_ES5_PKc(%"class.std::basic_ostream"* nonnull align 8 dereferenceable(8), i8*) local_unnamed_addr #6

; Function Attrs: noreturn nounwind
declare void @exit(i32) local_unnamed_addr #12

; Function Attrs: mustprogress noreturn sspstrong uwtable
define dso_local void @_Z3yesv() local_unnamed_addr #11 {
  %1 = tail call nonnull align 8 dereferenceable(8) %"class.std::basic_ostream"* @_ZStlsISt11char_traitsIcEERSt13basic_ostreamIcT_ES5_PKc(%"class.std::basic_ostream"* nonnull align 8 dereferenceable(8) @_ZSt4cout, i8* getelementptr inbounds ([4 x i8], [4 x i8]* @.str.6, i64 0, i64 0))
  %2 = tail call nonnull align 8 dereferenceable(8) %"class.std::basic_ostream"* @_ZStlsISt11char_traitsIcEERSt13basic_ostreamIcT_ES5_c(%"class.std::basic_ostream"* nonnull align 8 dereferenceable(8) %1, i8 signext 10)
  tail call void @exit(i32 0) #29
  unreachable
}

; Function Attrs: argmemonly mustprogress nofree nosync nounwind willreturn
declare {}* @llvm.invariant.start.p0i8(i64 immarg, i8* nocapture) #4

; Function Attrs: sspstrong uwtable
define dso_local zeroext i1 @_Z13is_palindromeNSt7__cxx1112basic_stringIcSt11char_traitsIcESaIcEEE(%"class.std::__cxx11::basic_string"* nocapture readonly %0) local_unnamed_addr #3 personality i8* bitcast (i32 (...)* @__gxx_personality_v0 to i8*) {
  %2 = alloca i64, align 8
  %3 = alloca %"class.std::__cxx11::basic_string", align 8
  %4 = bitcast %"class.std::__cxx11::basic_string"* %3 to i8*
  call void @llvm.lifetime.start.p0i8(i64 32, i8* nonnull %4) #27
  %5 = getelementptr inbounds %"class.std::__cxx11::basic_string", %"class.std::__cxx11::basic_string"* %3, i64 0, i32 2
  %6 = bitcast %"class.std::__cxx11::basic_string"* %3 to %union.anon**
  store %union.anon* %5, %union.anon** %6, align 8, !tbaa !8
  %7 = getelementptr inbounds %"class.std::__cxx11::basic_string", %"class.std::__cxx11::basic_string"* %0, i64 0, i32 0, i32 0
  %8 = load i8*, i8** %7, align 8, !tbaa !17
  %9 = getelementptr inbounds %"class.std::__cxx11::basic_string", %"class.std::__cxx11::basic_string"* %0, i64 0, i32 1
  %10 = load i64, i64* %9, align 8, !tbaa !13
  %11 = bitcast i64* %2 to i8*
  call void @llvm.lifetime.start.p0i8(i64 8, i8* nonnull %11) #27
  store i64 %10, i64* %2, align 8, !tbaa !21
  %12 = icmp ugt i64 %10, 15
  br i1 %12, label %15, label %13

13:                                               ; preds = %1
  %14 = bitcast %union.anon* %5 to i8*
  br label %20

15:                                               ; preds = %1
  %16 = call i8* @_ZNSt7__cxx1112basic_stringIcSt11char_traitsIcESaIcEE9_M_createERmm(%"class.std::__cxx11::basic_string"* nonnull align 8 dereferenceable(32) %3, i64* nonnull align 8 dereferenceable(8) %2, i64 0)
  %17 = getelementptr inbounds %"class.std::__cxx11::basic_string", %"class.std::__cxx11::basic_string"* %3, i64 0, i32 0, i32 0
  store i8* %16, i8** %17, align 8, !tbaa !17
  %18 = load i64, i64* %2, align 8, !tbaa !21
  %19 = getelementptr inbounds %"class.std::__cxx11::basic_string", %"class.std::__cxx11::basic_string"* %3, i64 0, i32 2, i32 0
  store i64 %18, i64* %19, align 8, !tbaa !16
  br label %20

20:                                               ; preds = %15, %13
  %21 = phi i8* [ %14, %13 ], [ %16, %15 ]
  switch i64 %10, label %24 [
    i64 1, label %22
    i64 0, label %25
  ]

22:                                               ; preds = %20
  %23 = load i8, i8* %8, align 1, !tbaa !16
  store i8 %23, i8* %21, align 1, !tbaa !16
  br label %25

24:                                               ; preds = %20
  call void @llvm.memcpy.p0i8.p0i8.i64(i8* align 1 %21, i8* align 1 %8, i64 %10, i1 false) #27
  br label %25

25:                                               ; preds = %20, %22, %24
  %26 = getelementptr inbounds %"class.std::__cxx11::basic_string", %"class.std::__cxx11::basic_string"* %3, i64 0, i32 0, i32 0
  %27 = load i64, i64* %2, align 8, !tbaa !21
  %28 = getelementptr inbounds %"class.std::__cxx11::basic_string", %"class.std::__cxx11::basic_string"* %3, i64 0, i32 1
  store i64 %27, i64* %28, align 8, !tbaa !13
  %29 = load i8*, i8** %26, align 8, !tbaa !17
  %30 = getelementptr inbounds i8, i8* %29, i64 %27
  store i8 0, i8* %30, align 1, !tbaa !16
  call void @llvm.lifetime.end.p0i8(i64 8, i8* nonnull %11) #27
  %31 = load i8*, i8** %26, align 8, !tbaa !17
  %32 = load i64, i64* %28, align 8, !tbaa !13
  %33 = icmp sgt i64 %32, 1
  br i1 %33, label %34, label %47

34:                                               ; preds = %25
  %35 = add nsw i64 %32, -1
  %36 = getelementptr inbounds i8, i8* %31, i64 %35
  br label %37

37:                                               ; preds = %34, %37
  %38 = phi i8* [ %43, %37 ], [ %36, %34 ]
  %39 = phi i8* [ %42, %37 ], [ %31, %34 ]
  %40 = load i8, i8* %39, align 1, !tbaa !16
  %41 = load i8, i8* %38, align 1, !tbaa !16
  store i8 %41, i8* %39, align 1, !tbaa !16
  store i8 %40, i8* %38, align 1, !tbaa !16
  %42 = getelementptr inbounds i8, i8* %39, i64 1
  %43 = getelementptr inbounds i8, i8* %38, i64 -1
  %44 = icmp ult i8* %42, %43
  br i1 %44, label %37, label %45, !llvm.loop !54

45:                                               ; preds = %37
  %46 = load i64, i64* %28, align 8, !tbaa !13
  br label %47

47:                                               ; preds = %45, %25
  %48 = phi i64 [ %46, %45 ], [ %32, %25 ]
  %49 = load i64, i64* %9, align 8, !tbaa !13
  %50 = icmp eq i64 %49, %48
  br i1 %50, label %51, label %58

51:                                               ; preds = %47
  %52 = icmp eq i64 %48, 0
  br i1 %52, label %58, label %53

53:                                               ; preds = %51
  %54 = load i8*, i8** %26, align 8, !tbaa !17
  %55 = load i8*, i8** %7, align 8, !tbaa !17
  %56 = call i32 @bcmp(i8* %55, i8* %54, i64 %48) #27
  %57 = icmp eq i32 %56, 0
  br label %58

58:                                               ; preds = %47, %51, %53
  %59 = phi i1 [ false, %47 ], [ %57, %53 ], [ true, %51 ]
  %60 = load i8*, i8** %26, align 8, !tbaa !17
  %61 = bitcast %union.anon* %5 to i8*
  %62 = icmp eq i8* %60, %61
  br i1 %62, label %64, label %63

63:                                               ; preds = %58
  call void @_ZdlPv(i8* %60) #27
  br label %64

64:                                               ; preds = %58, %63
  call void @llvm.lifetime.end.p0i8(i64 32, i8* nonnull %4) #27
  ret i1 %59
}

; Function Attrs: nofree nosync nounwind sspstrong uwtable
define dso_local void @_Z6f_swapNSt7__cxx1112basic_stringIcSt11char_traitsIcESaIcEEExx(%"class.std::__cxx11::basic_string"* noalias sret(%"class.std::__cxx11::basic_string") align 8 %0, %"class.std::__cxx11::basic_string"* %1, i64 %2, i64 %3) local_unnamed_addr #13 personality i32 (...)* @__gxx_personality_v0 {
  %5 = getelementptr inbounds %"class.std::__cxx11::basic_string", %"class.std::__cxx11::basic_string"* %1, i64 0, i32 0, i32 0
  %6 = load i8*, i8** %5, align 8, !tbaa !17
  %7 = add nsw i64 %3, 1
  %8 = icmp ne i64 %7, %2
  %9 = icmp sgt i64 %3, %2
  %10 = and i1 %9, %8
  br i1 %10, label %11, label %24

11:                                               ; preds = %4
  %12 = getelementptr inbounds i8, i8* %6, i64 %3
  %13 = getelementptr inbounds i8, i8* %6, i64 %2
  br label %14

14:                                               ; preds = %11, %14
  %15 = phi i8* [ %20, %14 ], [ %12, %11 ]
  %16 = phi i8* [ %19, %14 ], [ %13, %11 ]
  %17 = load i8, i8* %16, align 1, !tbaa !16
  %18 = load i8, i8* %15, align 1, !tbaa !16
  store i8 %18, i8* %16, align 1, !tbaa !16
  store i8 %17, i8* %15, align 1, !tbaa !16
  %19 = getelementptr inbounds i8, i8* %16, i64 1
  %20 = getelementptr inbounds i8, i8* %15, i64 -1
  %21 = icmp ult i8* %19, %20
  br i1 %21, label %14, label %22, !llvm.loop !54

22:                                               ; preds = %14
  %23 = load i8*, i8** %5, align 8, !tbaa !17
  br label %24

24:                                               ; preds = %22, %4
  %25 = phi i8* [ %23, %22 ], [ %6, %4 ]
  %26 = getelementptr inbounds %"class.std::__cxx11::basic_string", %"class.std::__cxx11::basic_string"* %0, i64 0, i32 2
  %27 = bitcast %"class.std::__cxx11::basic_string"* %0 to %union.anon**
  store %union.anon* %26, %union.anon** %27, align 8, !tbaa !8
  %28 = getelementptr inbounds %"class.std::__cxx11::basic_string", %"class.std::__cxx11::basic_string"* %1, i64 0, i32 2
  %29 = bitcast %union.anon* %28 to i8*
  %30 = icmp eq i8* %25, %29
  br i1 %30, label %31, label %33

31:                                               ; preds = %24
  %32 = bitcast %union.anon* %26 to i8*
  tail call void @llvm.memcpy.p0i8.p0i8.i64(i8* noundef nonnull align 8 dereferenceable(16) %32, i8* noundef nonnull align 8 dereferenceable(16) %25, i64 16, i1 false) #27
  br label %38

33:                                               ; preds = %24
  %34 = getelementptr inbounds %"class.std::__cxx11::basic_string", %"class.std::__cxx11::basic_string"* %0, i64 0, i32 0, i32 0
  store i8* %25, i8** %34, align 8, !tbaa !17
  %35 = getelementptr inbounds %"class.std::__cxx11::basic_string", %"class.std::__cxx11::basic_string"* %1, i64 0, i32 2, i32 0
  %36 = load i64, i64* %35, align 8, !tbaa !16
  %37 = getelementptr inbounds %"class.std::__cxx11::basic_string", %"class.std::__cxx11::basic_string"* %0, i64 0, i32 2, i32 0
  store i64 %36, i64* %37, align 8, !tbaa !16
  br label %38

38:                                               ; preds = %31, %33
  %39 = getelementptr inbounds %"class.std::__cxx11::basic_string", %"class.std::__cxx11::basic_string"* %1, i64 0, i32 1
  %40 = load i64, i64* %39, align 8, !tbaa !13
  %41 = getelementptr inbounds %"class.std::__cxx11::basic_string", %"class.std::__cxx11::basic_string"* %0, i64 0, i32 1
  store i64 %40, i64* %41, align 8, !tbaa !13
  %42 = bitcast %"class.std::__cxx11::basic_string"* %1 to %union.anon**
  store %union.anon* %28, %union.anon** %42, align 8, !tbaa !17
  store i64 0, i64* %39, align 8, !tbaa !13
  store i8 0, i8* %29, align 8, !tbaa !16
  ret void
}

; Function Attrs: norecurse sspstrong uwtable
define dso_local i32 @main() local_unnamed_addr #14 personality i8* bitcast (i32 (...)* @__gxx_personality_v0 to i8*) {
  %1 = alloca i8, align 1
  %2 = alloca %"class.std::tuple", align 8
  %3 = alloca %"class.std::tuple.11", align 1
  %4 = alloca %"class.std::__cxx11::basic_string", align 8
  %5 = alloca %"class.std::map", align 8
  %6 = alloca i8, align 1
  %7 = load i8*, i8** bitcast (%"class.std::basic_istream"* @_ZSt3cin to i8**), align 8, !tbaa !45
  %8 = getelementptr i8, i8* %7, i64 -24
  %9 = bitcast i8* %8 to i64*
  %10 = load i64, i64* %9, align 8
  %11 = add nsw i64 %10, 216
  %12 = getelementptr inbounds i8, i8* bitcast (%"class.std::basic_istream"* @_ZSt3cin to i8*), i64 %11
  %13 = bitcast i8* %12 to %"class.std::basic_ostream"**
  store %"class.std::basic_ostream"* null, %"class.std::basic_ostream"** %13, align 8, !tbaa !55
  %14 = tail call zeroext i1 @_ZNSt8ios_base15sync_with_stdioEb(i1 zeroext false)
  %15 = bitcast %"class.std::__cxx11::basic_string"* %4 to i8*
  call void @llvm.lifetime.start.p0i8(i64 32, i8* nonnull %15) #27
  %16 = getelementptr inbounds %"class.std::__cxx11::basic_string", %"class.std::__cxx11::basic_string"* %4, i64 0, i32 2
  %17 = bitcast %"class.std::__cxx11::basic_string"* %4 to %union.anon**
  store %union.anon* %16, %union.anon** %17, align 8, !tbaa !8
  %18 = getelementptr inbounds %"class.std::__cxx11::basic_string", %"class.std::__cxx11::basic_string"* %4, i64 0, i32 1
  store i64 0, i64* %18, align 8, !tbaa !13
  %19 = bitcast %union.anon* %16 to i8*
  store i8 0, i8* %19, align 8, !tbaa !16
  %20 = invoke nonnull align 8 dereferenceable(16) %"class.std::basic_istream"* @_ZStrsIcSt11char_traitsIcESaIcEERSt13basic_istreamIT_T0_ES7_RNSt7__cxx1112basic_stringIS4_S5_T1_EE(%"class.std::basic_istream"* nonnull align 8 dereferenceable(16) @_ZSt3cin, %"class.std::__cxx11::basic_string"* nonnull align 8 dereferenceable(32) %4)
          to label %21 unwind label %51

21:                                               ; preds = %0
  %22 = load i64, i64* %18, align 8, !tbaa !13
  %23 = add nsw i64 %22, -1
  %24 = mul nsw i64 %23, %22
  %25 = sdiv i64 %24, 2
  %26 = getelementptr inbounds %"class.std::map", %"class.std::map"* %5, i64 0, i32 0, i32 0, i32 0, i32 0, i32 0
  call void @llvm.lifetime.start.p0i8(i64 48, i8* nonnull %26) #27
  %27 = getelementptr inbounds i8, i8* %26, i64 8
  %28 = bitcast i8* %27 to i32*
  store i32 0, i32* %28, align 8, !tbaa !56
  %29 = getelementptr inbounds i8, i8* %26, i64 16
  %30 = bitcast i8* %29 to %"struct.std::_Rb_tree_node_base"**
  store %"struct.std::_Rb_tree_node_base"* null, %"struct.std::_Rb_tree_node_base"** %30, align 8, !tbaa !60
  %31 = getelementptr inbounds i8, i8* %26, i64 24
  %32 = bitcast i8* %31 to i8**
  store i8* %27, i8** %32, align 8, !tbaa !61
  %33 = getelementptr inbounds i8, i8* %26, i64 32
  %34 = bitcast i8* %33 to i8**
  store i8* %27, i8** %34, align 8, !tbaa !62
  %35 = getelementptr inbounds i8, i8* %26, i64 40
  %36 = bitcast i8* %35 to i64*
  store i64 0, i64* %36, align 8, !tbaa !63
  %37 = getelementptr inbounds %"class.std::__cxx11::basic_string", %"class.std::__cxx11::basic_string"* %4, i64 0, i32 0, i32 0
  %38 = load i8*, i8** %37, align 8, !tbaa !17
  %39 = getelementptr inbounds i8, i8* %38, i64 %22
  %40 = bitcast i8* %29 to %"struct.std::_Rb_tree_node"**
  %41 = bitcast i8* %27 to %"struct.std::_Rb_tree_node_base"*
  %42 = getelementptr inbounds %"class.std::map", %"class.std::map"* %5, i64 0, i32 0
  %43 = bitcast %"class.std::tuple"* %2 to i8*
  %44 = getelementptr inbounds %"class.std::tuple", %"class.std::tuple"* %2, i64 0, i32 0, i32 0, i32 0
  %45 = getelementptr inbounds %"class.std::tuple.11", %"class.std::tuple.11"* %3, i64 0, i32 0
  %46 = icmp eq i64 %22, 0
  br i1 %46, label %96, label %53

47:                                               ; preds = %84
  %48 = bitcast i8* %31 to %"struct.std::_Rb_tree_node_base"**
  %49 = load %"struct.std::_Rb_tree_node_base"*, %"struct.std::_Rb_tree_node_base"** %48, align 8, !tbaa !61
  %50 = icmp eq %"struct.std::_Rb_tree_node_base"* %49, %41
  br i1 %50, label %96, label %100

51:                                               ; preds = %0
  %52 = landingpad { i8*, i32 }
          cleanup
  br label %128

53:                                               ; preds = %21, %92
  %54 = phi %"struct.std::_Rb_tree_node"* [ %93, %92 ], [ null, %21 ]
  %55 = phi i8* [ %90, %92 ], [ %38, %21 ]
  call void @llvm.lifetime.start.p0i8(i64 1, i8* nonnull %6) #27
  %56 = load i8, i8* %55, align 1, !tbaa !16
  store i8 %56, i8* %6, align 1, !tbaa !16
  %57 = icmp eq %"struct.std::_Rb_tree_node"* %54, null
  br i1 %57, label %80, label %58

58:                                               ; preds = %53, %58
  %59 = phi %"struct.std::_Rb_tree_node"* [ %70, %58 ], [ %54, %53 ]
  %60 = phi %"struct.std::_Rb_tree_node_base"* [ %67, %58 ], [ %41, %53 ]
  %61 = getelementptr inbounds %"struct.std::_Rb_tree_node", %"struct.std::_Rb_tree_node"* %59, i64 0, i32 1, i32 0, i64 0
  %62 = load i8, i8* %61, align 1, !tbaa !16
  %63 = icmp slt i8 %62, %56
  %64 = getelementptr inbounds %"struct.std::_Rb_tree_node", %"struct.std::_Rb_tree_node"* %59, i64 0, i32 0, i32 3
  %65 = getelementptr %"struct.std::_Rb_tree_node", %"struct.std::_Rb_tree_node"* %59, i64 0, i32 0
  %66 = getelementptr inbounds %"struct.std::_Rb_tree_node", %"struct.std::_Rb_tree_node"* %59, i64 0, i32 0, i32 2
  %67 = select i1 %63, %"struct.std::_Rb_tree_node_base"* %60, %"struct.std::_Rb_tree_node_base"* %65
  %68 = select i1 %63, %"struct.std::_Rb_tree_node_base"** %64, %"struct.std::_Rb_tree_node_base"** %66
  %69 = bitcast %"struct.std::_Rb_tree_node_base"** %68 to %"struct.std::_Rb_tree_node"**
  %70 = load %"struct.std::_Rb_tree_node"*, %"struct.std::_Rb_tree_node"** %69, align 8, !tbaa !31
  %71 = icmp eq %"struct.std::_Rb_tree_node"* %70, null
  br i1 %71, label %72, label %58, !llvm.loop !64

72:                                               ; preds = %58
  %73 = icmp eq %"struct.std::_Rb_tree_node_base"* %67, %41
  br i1 %73, label %80, label %74

74:                                               ; preds = %72
  %75 = select i1 %63, %"struct.std::_Rb_tree_node_base"* %60, %"struct.std::_Rb_tree_node_base"* %65
  %76 = getelementptr inbounds %"struct.std::_Rb_tree_node_base", %"struct.std::_Rb_tree_node_base"* %75, i64 1
  %77 = bitcast %"struct.std::_Rb_tree_node_base"* %76 to i8*
  %78 = load i8, i8* %77, align 1, !tbaa !16
  %79 = icmp slt i8 %56, %78
  br i1 %79, label %80, label %84

80:                                               ; preds = %74, %72, %53
  %81 = phi %"struct.std::_Rb_tree_node_base"* [ %67, %74 ], [ %41, %72 ], [ %41, %53 ]
  call void @llvm.lifetime.start.p0i8(i64 8, i8* nonnull %43) #27
  store i8* %6, i8** %44, align 8, !tbaa !31
  call void @llvm.lifetime.start.p0i8(i64 1, i8* nonnull %45) #27
  %82 = invoke %"struct.std::_Rb_tree_node_base"* @_ZNSt8_Rb_treeIcSt4pairIKcxESt10_Select1stIS2_ESt4lessIcESaIS2_EE22_M_emplace_hint_uniqueIJRKSt21piecewise_construct_tSt5tupleIJRS1_EESD_IJEEEEESt17_Rb_tree_iteratorIS2_ESt23_Rb_tree_const_iteratorIS2_EDpOT_(%"class.std::_Rb_tree"* nonnull align 8 dereferenceable(48) %42, %"struct.std::_Rb_tree_node_base"* %81, %"struct.std::piecewise_construct_t"* nonnull align 1 dereferenceable(1) @_ZStL19piecewise_construct, %"class.std::tuple"* nonnull align 8 dereferenceable(8) %2, %"class.std::tuple.11"* nonnull align 1 dereferenceable(1) %3)
          to label %83 unwind label %94

83:                                               ; preds = %80
  call void @llvm.lifetime.end.p0i8(i64 1, i8* nonnull %45) #27
  call void @llvm.lifetime.end.p0i8(i64 8, i8* nonnull %43) #27
  br label %84

84:                                               ; preds = %83, %74
  %85 = phi %"struct.std::_Rb_tree_node_base"* [ %82, %83 ], [ %67, %74 ]
  %86 = getelementptr inbounds %"struct.std::_Rb_tree_node_base", %"struct.std::_Rb_tree_node_base"* %85, i64 1, i32 1
  %87 = bitcast %"struct.std::_Rb_tree_node_base"** %86 to i64*
  %88 = load i64, i64* %87, align 8, !tbaa !32
  %89 = add nsw i64 %88, 1
  store i64 %89, i64* %87, align 8, !tbaa !32
  call void @llvm.lifetime.end.p0i8(i64 1, i8* nonnull %6) #27
  %90 = getelementptr inbounds i8, i8* %55, i64 1
  %91 = icmp eq i8* %90, %39
  br i1 %91, label %47, label %92

92:                                               ; preds = %84
  %93 = load %"struct.std::_Rb_tree_node"*, %"struct.std::_Rb_tree_node"** %40, align 8, !tbaa !60
  br label %53

94:                                               ; preds = %80
  %95 = landingpad { i8*, i32 }
          cleanup
  call void @llvm.lifetime.end.p0i8(i64 1, i8* nonnull %6) #27
  br label %126

96:                                               ; preds = %100, %21, %47
  %97 = phi i64 [ %25, %47 ], [ %25, %21 ], [ %109, %100 ]
  %98 = add nsw i64 %97, 1
  %99 = invoke nonnull align 8 dereferenceable(8) %"class.std::basic_ostream"* @_ZNSo9_M_insertIxEERSoT_(%"class.std::basic_ostream"* nonnull align 8 dereferenceable(8) @_ZSt4cout, i64 %98)
          to label %112 unwind label %124

100:                                              ; preds = %47, %100
  %101 = phi i64 [ %109, %100 ], [ %25, %47 ]
  %102 = phi %"struct.std::_Rb_tree_node_base"* [ %110, %100 ], [ %49, %47 ]
  %103 = getelementptr inbounds %"struct.std::_Rb_tree_node_base", %"struct.std::_Rb_tree_node_base"* %102, i64 1, i32 1
  %104 = bitcast %"struct.std::_Rb_tree_node_base"** %103 to i64*
  %105 = load i64, i64* %104, align 8
  %106 = add nsw i64 %105, -1
  %107 = mul nsw i64 %106, %105
  %108 = sdiv i64 %107, -2
  %109 = add i64 %108, %101
  %110 = call %"struct.std::_Rb_tree_node_base"* @_ZSt18_Rb_tree_incrementPSt18_Rb_tree_node_base(%"struct.std::_Rb_tree_node_base"* %102) #30
  %111 = icmp eq %"struct.std::_Rb_tree_node_base"* %110, %41
  br i1 %111, label %96, label %100

112:                                              ; preds = %96
  call void @llvm.lifetime.start.p0i8(i64 1, i8* nonnull %1)
  store i8 10, i8* %1, align 1, !tbaa !16
  %113 = invoke nonnull align 8 dereferenceable(8) %"class.std::basic_ostream"* @_ZSt16__ostream_insertIcSt11char_traitsIcEERSt13basic_ostreamIT_T0_ES6_PKS3_l(%"class.std::basic_ostream"* nonnull align 8 dereferenceable(8) %99, i8* nonnull %1, i64 1)
          to label %114 unwind label %124

114:                                              ; preds = %112
  call void @llvm.lifetime.end.p0i8(i64 1, i8* nonnull %1)
  %115 = load %"struct.std::_Rb_tree_node"*, %"struct.std::_Rb_tree_node"** %40, align 8, !tbaa !60
  invoke void @_ZNSt8_Rb_treeIcSt4pairIKcxESt10_Select1stIS2_ESt4lessIcESaIS2_EE8_M_eraseEPSt13_Rb_tree_nodeIS2_E(%"class.std::_Rb_tree"* nonnull align 8 dereferenceable(48) %42, %"struct.std::_Rb_tree_node"* %115)
          to label %119 unwind label %116

116:                                              ; preds = %114
  %117 = landingpad { i8*, i32 }
          catch i8* null
  %118 = extractvalue { i8*, i32 } %117, 0
  call void @__clang_call_terminate(i8* %118) #29
  unreachable

119:                                              ; preds = %114
  call void @llvm.lifetime.end.p0i8(i64 48, i8* nonnull %26) #27
  %120 = load i8*, i8** %37, align 8, !tbaa !17
  %121 = icmp eq i8* %120, %19
  br i1 %121, label %123, label %122

122:                                              ; preds = %119
  call void @_ZdlPv(i8* %120) #27
  br label %123

123:                                              ; preds = %119, %122
  call void @llvm.lifetime.end.p0i8(i64 32, i8* nonnull %15) #27
  ret i32 0

124:                                              ; preds = %112, %96
  %125 = landingpad { i8*, i32 }
          cleanup
  br label %126

126:                                              ; preds = %124, %94
  %127 = phi { i8*, i32 } [ %95, %94 ], [ %125, %124 ]
  call void @_ZNSt8_Rb_treeIcSt4pairIKcxESt10_Select1stIS2_ESt4lessIcESaIS2_EED2Ev(%"class.std::_Rb_tree"* nonnull align 8 dereferenceable(48) %42) #27
  call void @llvm.lifetime.end.p0i8(i64 48, i8* nonnull %26) #27
  br label %128

128:                                              ; preds = %126, %51
  %129 = phi { i8*, i32 } [ %127, %126 ], [ %52, %51 ]
  %130 = getelementptr inbounds %"class.std::__cxx11::basic_string", %"class.std::__cxx11::basic_string"* %4, i64 0, i32 0, i32 0
  %131 = load i8*, i8** %130, align 8, !tbaa !17
  %132 = icmp eq i8* %131, %19
  br i1 %132, label %134, label %133

133:                                              ; preds = %128
  call void @_ZdlPv(i8* %131) #27
  br label %134

134:                                              ; preds = %128, %133
  call void @llvm.lifetime.end.p0i8(i64 32, i8* nonnull %15) #27
  resume { i8*, i32 } %129
}

declare zeroext i1 @_ZNSt8ios_base15sync_with_stdioEb(i1 zeroext) local_unnamed_addr #0

declare nonnull align 8 dereferenceable(16) %"class.std::basic_istream"* @_ZStrsIcSt11char_traitsIcESaIcEERSt13basic_istreamIT_T0_ES7_RNSt7__cxx1112basic_stringIS4_S5_T1_EE(%"class.std::basic_istream"* nonnull align 8 dereferenceable(16), %"class.std::__cxx11::basic_string"* nonnull align 8 dereferenceable(32)) local_unnamed_addr #0

; Function Attrs: argmemonly mustprogress nofree nounwind willreturn
declare void @llvm.memcpy.p0i8.p0i8.i64(i8* noalias nocapture writeonly, i8* noalias nocapture readonly, i64, i1 immarg) #15

; Function Attrs: noinline noreturn nounwind
define linkonce_odr hidden void @__clang_call_terminate(i8* %0) local_unnamed_addr #16 comdat {
  %2 = tail call i8* @__cxa_begin_catch(i8* %0) #27
  tail call void @_ZSt9terminatev() #29
  unreachable
}

declare i8* @__cxa_begin_catch(i8*) local_unnamed_addr

declare void @_ZSt9terminatev() local_unnamed_addr

; Function Attrs: nounwind sspstrong uwtable
define linkonce_odr dso_local void @_ZNSt8_Rb_treeIcSt4pairIKcxESt10_Select1stIS2_ESt4lessIcESaIS2_EED2Ev(%"class.std::_Rb_tree"* nonnull align 8 dereferenceable(48) %0) unnamed_addr #17 comdat align 2 personality i8* bitcast (i32 (...)* @__gxx_personality_v0 to i8*) {
  %2 = getelementptr inbounds %"class.std::_Rb_tree", %"class.std::_Rb_tree"* %0, i64 0, i32 0, i32 0, i32 0, i32 0
  %3 = getelementptr inbounds i8, i8* %2, i64 16
  %4 = bitcast i8* %3 to %"struct.std::_Rb_tree_node"**
  %5 = load %"struct.std::_Rb_tree_node"*, %"struct.std::_Rb_tree_node"** %4, align 8, !tbaa !60
  invoke void @_ZNSt8_Rb_treeIcSt4pairIKcxESt10_Select1stIS2_ESt4lessIcESaIS2_EE8_M_eraseEPSt13_Rb_tree_nodeIS2_E(%"class.std::_Rb_tree"* nonnull align 8 dereferenceable(48) %0, %"struct.std::_Rb_tree_node"* %5)
          to label %6 unwind label %7

6:                                                ; preds = %1
  ret void

7:                                                ; preds = %1
  %8 = landingpad { i8*, i32 }
          catch i8* null
  %9 = extractvalue { i8*, i32 } %8, 0
  tail call void @__clang_call_terminate(i8* %9) #29
  unreachable
}

; Function Attrs: mustprogress sspstrong uwtable
define linkonce_odr dso_local void @_ZNSt8_Rb_treeIcSt4pairIKcxESt10_Select1stIS2_ESt4lessIcESaIS2_EE8_M_eraseEPSt13_Rb_tree_nodeIS2_E(%"class.std::_Rb_tree"* nonnull align 8 dereferenceable(48) %0, %"struct.std::_Rb_tree_node"* %1) local_unnamed_addr #5 comdat align 2 personality i32 (...)* @__gxx_personality_v0 {
  %3 = icmp eq %"struct.std::_Rb_tree_node"* %1, null
  br i1 %3, label %14, label %4

4:                                                ; preds = %2, %4
  %5 = phi %"struct.std::_Rb_tree_node"* [ %11, %4 ], [ %1, %2 ]
  %6 = getelementptr inbounds %"struct.std::_Rb_tree_node", %"struct.std::_Rb_tree_node"* %5, i64 0, i32 0, i32 3
  %7 = bitcast %"struct.std::_Rb_tree_node_base"** %6 to %"struct.std::_Rb_tree_node"**
  %8 = load %"struct.std::_Rb_tree_node"*, %"struct.std::_Rb_tree_node"** %7, align 8, !tbaa !65
  tail call void @_ZNSt8_Rb_treeIcSt4pairIKcxESt10_Select1stIS2_ESt4lessIcESaIS2_EE8_M_eraseEPSt13_Rb_tree_nodeIS2_E(%"class.std::_Rb_tree"* nonnull align 8 dereferenceable(48) %0, %"struct.std::_Rb_tree_node"* %8)
  %9 = getelementptr inbounds %"struct.std::_Rb_tree_node", %"struct.std::_Rb_tree_node"* %5, i64 0, i32 0, i32 2
  %10 = bitcast %"struct.std::_Rb_tree_node_base"** %9 to %"struct.std::_Rb_tree_node"**
  %11 = load %"struct.std::_Rb_tree_node"*, %"struct.std::_Rb_tree_node"** %10, align 8, !tbaa !66
  %12 = bitcast %"struct.std::_Rb_tree_node"* %5 to i8*
  tail call void @_ZdlPv(i8* nonnull %12) #27
  %13 = icmp eq %"struct.std::_Rb_tree_node"* %11, null
  br i1 %13, label %14, label %4, !llvm.loop !67

14:                                               ; preds = %4, %2
  ret void
}

; Function Attrs: nobuiltin nounwind
declare void @_ZdlPv(i8*) local_unnamed_addr #18

; Function Attrs: noreturn
declare void @_ZSt19__throw_logic_errorPKc(i8*) local_unnamed_addr #19

declare i8* @_ZNSt7__cxx1112basic_stringIcSt11char_traitsIcESaIcEE9_M_createERmm(%"class.std::__cxx11::basic_string"* nonnull align 8 dereferenceable(32), i64* nonnull align 8 dereferenceable(8), i64) local_unnamed_addr #0

; Function Attrs: argmemonly mustprogress nofree nounwind readonly willreturn
declare i64 @strlen(i8* nocapture) local_unnamed_addr #20

declare void @_ZNSt7__cxx1112basic_stringIcSt11char_traitsIcESaIcEE7reserveEm(%"class.std::__cxx11::basic_string"* nonnull align 8 dereferenceable(32), i64) local_unnamed_addr #0

declare nonnull align 8 dereferenceable(32) %"class.std::__cxx11::basic_string"* @_ZNSt7__cxx1112basic_stringIcSt11char_traitsIcESaIcEE14_M_replace_auxEmmmc(%"class.std::__cxx11::basic_string"* nonnull align 8 dereferenceable(32), i64, i64, i64, i8 signext) local_unnamed_addr #0

declare nonnull align 8 dereferenceable(32) %"class.std::__cxx11::basic_string"* @_ZNSt7__cxx1112basic_stringIcSt11char_traitsIcESaIcEE9_M_appendEPKcm(%"class.std::__cxx11::basic_string"* nonnull align 8 dereferenceable(32), i8*, i64) local_unnamed_addr #0

; Function Attrs: noreturn
declare void @_ZSt20__throw_length_errorPKc(i8*) local_unnamed_addr #19

declare nonnull align 8 dereferenceable(8) %"class.std::basic_ostream"* @_ZSt16__ostream_insertIcSt11char_traitsIcEERSt13basic_ostreamIT_T0_ES6_PKS3_l(%"class.std::basic_ostream"* nonnull align 8 dereferenceable(8), i8*, i64) local_unnamed_addr #0

declare nonnull align 8 dereferenceable(8) %"class.std::basic_ostream"* @_ZNSo9_M_insertIxEERSoT_(%"class.std::basic_ostream"* nonnull align 8 dereferenceable(8), i64) local_unnamed_addr #0

declare nonnull align 8 dereferenceable(8) %"class.std::basic_ostream"* @_ZNSo3putEc(%"class.std::basic_ostream"* nonnull align 8 dereferenceable(8), i8 signext) local_unnamed_addr #0

declare nonnull align 8 dereferenceable(8) %"class.std::basic_ostream"* @_ZNSo5flushEv(%"class.std::basic_ostream"* nonnull align 8 dereferenceable(8)) local_unnamed_addr #0

; Function Attrs: noreturn
declare void @_ZSt16__throw_bad_castv() local_unnamed_addr #19

declare void @_ZNKSt5ctypeIcE13_M_widen_initEv(%"class.std::ctype"* nonnull align 8 dereferenceable(570)) local_unnamed_addr #0

; Function Attrs: sspstrong uwtable
define linkonce_odr dso_local %"struct.std::_Rb_tree_node_base"* @_ZNSt8_Rb_treeIcSt4pairIKcxESt10_Select1stIS2_ESt4lessIcESaIS2_EE22_M_emplace_hint_uniqueIJRKSt21piecewise_construct_tSt5tupleIJRS1_EESD_IJEEEEESt17_Rb_tree_iteratorIS2_ESt23_Rb_tree_const_iteratorIS2_EDpOT_(%"class.std::_Rb_tree"* nonnull align 8 dereferenceable(48) %0, %"struct.std::_Rb_tree_node_base"* %1, %"struct.std::piecewise_construct_t"* nonnull align 1 dereferenceable(1) %2, %"class.std::tuple"* nonnull align 8 dereferenceable(8) %3, %"class.std::tuple.11"* nonnull align 1 dereferenceable(1) %4) local_unnamed_addr #3 comdat align 2 personality i8* bitcast (i32 (...)* @__gxx_personality_v0 to i8*) {
  %6 = tail call noalias nonnull i8* @_Znwm(i64 48) #31
  %7 = getelementptr inbounds %"class.std::tuple", %"class.std::tuple"* %3, i64 0, i32 0, i32 0, i32 0
  %8 = load i8*, i8** %7, align 8, !tbaa !68
  %9 = getelementptr inbounds i8, i8* %6, i64 32
  %10 = load i8, i8* %8, align 1, !tbaa !16
  store i8 %10, i8* %9, align 8, !tbaa !70
  %11 = getelementptr inbounds i8, i8* %6, i64 40
  %12 = bitcast i8* %11 to i64*
  store i64 0, i64* %12, align 8, !tbaa !72
  %13 = invoke { %"struct.std::_Rb_tree_node_base"*, %"struct.std::_Rb_tree_node_base"* } @_ZNSt8_Rb_treeIcSt4pairIKcxESt10_Select1stIS2_ESt4lessIcESaIS2_EE29_M_get_insert_hint_unique_posESt23_Rb_tree_const_iteratorIS2_ERS1_(%"class.std::_Rb_tree"* nonnull align 8 dereferenceable(48) %0, %"struct.std::_Rb_tree_node_base"* %1, i8* nonnull align 1 dereferenceable(1) %9)
          to label %14 unwind label %41

14:                                               ; preds = %5
  %15 = extractvalue { %"struct.std::_Rb_tree_node_base"*, %"struct.std::_Rb_tree_node_base"* } %13, 0
  %16 = extractvalue { %"struct.std::_Rb_tree_node_base"*, %"struct.std::_Rb_tree_node_base"* } %13, 1
  %17 = icmp eq %"struct.std::_Rb_tree_node_base"* %16, null
  br i1 %17, label %45, label %18

18:                                               ; preds = %14
  %19 = icmp eq %"struct.std::_Rb_tree_node_base"* %15, null
  br i1 %19, label %20, label %31

20:                                               ; preds = %18
  %21 = getelementptr inbounds %"class.std::_Rb_tree", %"class.std::_Rb_tree"* %0, i64 0, i32 0, i32 0, i32 0, i32 0
  %22 = getelementptr inbounds i8, i8* %21, i64 8
  %23 = bitcast i8* %22 to %"struct.std::_Rb_tree_node_base"*
  %24 = icmp eq %"struct.std::_Rb_tree_node_base"* %16, %23
  br i1 %24, label %31, label %25

25:                                               ; preds = %20
  %26 = getelementptr inbounds %"struct.std::_Rb_tree_node_base", %"struct.std::_Rb_tree_node_base"* %16, i64 1
  %27 = bitcast %"struct.std::_Rb_tree_node_base"* %26 to i8*
  %28 = load i8, i8* %9, align 1, !tbaa !16
  %29 = load i8, i8* %27, align 1, !tbaa !16
  %30 = icmp slt i8 %28, %29
  br label %31

31:                                               ; preds = %18, %25, %20
  %32 = phi i1 [ true, %20 ], [ %30, %25 ], [ true, %18 ]
  %33 = bitcast i8* %6 to %"struct.std::_Rb_tree_node_base"*
  %34 = getelementptr inbounds %"class.std::_Rb_tree", %"class.std::_Rb_tree"* %0, i64 0, i32 0, i32 0, i32 0, i32 0
  %35 = getelementptr inbounds i8, i8* %34, i64 8
  %36 = bitcast i8* %35 to %"struct.std::_Rb_tree_node_base"*
  tail call void @_ZSt29_Rb_tree_insert_and_rebalancebPSt18_Rb_tree_node_baseS0_RS_(i1 zeroext %32, %"struct.std::_Rb_tree_node_base"* nonnull %33, %"struct.std::_Rb_tree_node_base"* nonnull %16, %"struct.std::_Rb_tree_node_base"* nonnull align 8 dereferenceable(32) %36) #27
  %37 = getelementptr inbounds i8, i8* %34, i64 40
  %38 = bitcast i8* %37 to i64*
  %39 = load i64, i64* %38, align 8, !tbaa !63
  %40 = add i64 %39, 1
  store i64 %40, i64* %38, align 8, !tbaa !63
  br label %46

41:                                               ; preds = %5
  %42 = landingpad { i8*, i32 }
          catch i8* null
  %43 = extractvalue { i8*, i32 } %42, 0
  %44 = tail call i8* @__cxa_begin_catch(i8* %43) #27
  tail call void @_ZdlPv(i8* nonnull %6) #27
  invoke void @__cxa_rethrow() #28
          to label %54 unwind label %48

45:                                               ; preds = %14
  tail call void @_ZdlPv(i8* nonnull %6) #27
  br label %46

46:                                               ; preds = %45, %31
  %47 = phi %"struct.std::_Rb_tree_node_base"* [ %15, %45 ], [ %33, %31 ]
  ret %"struct.std::_Rb_tree_node_base"* %47

48:                                               ; preds = %41
  %49 = landingpad { i8*, i32 }
          cleanup
  invoke void @__cxa_end_catch()
          to label %50 unwind label %51

50:                                               ; preds = %48
  resume { i8*, i32 } %49

51:                                               ; preds = %48
  %52 = landingpad { i8*, i32 }
          catch i8* null
  %53 = extractvalue { i8*, i32 } %52, 0
  tail call void @__clang_call_terminate(i8* %53) #29
  unreachable

54:                                               ; preds = %41
  unreachable
}

; Function Attrs: sspstrong uwtable
define linkonce_odr dso_local { %"struct.std::_Rb_tree_node_base"*, %"struct.std::_Rb_tree_node_base"* } @_ZNSt8_Rb_treeIcSt4pairIKcxESt10_Select1stIS2_ESt4lessIcESaIS2_EE29_M_get_insert_hint_unique_posESt23_Rb_tree_const_iteratorIS2_ERS1_(%"class.std::_Rb_tree"* nonnull align 8 dereferenceable(48) %0, %"struct.std::_Rb_tree_node_base"* %1, i8* nonnull align 1 dereferenceable(1) %2) local_unnamed_addr #3 comdat align 2 {
  %4 = getelementptr inbounds %"class.std::_Rb_tree", %"class.std::_Rb_tree"* %0, i64 0, i32 0, i32 0, i32 0, i32 0
  %5 = getelementptr inbounds i8, i8* %4, i64 8
  %6 = bitcast i8* %5 to %"struct.std::_Rb_tree_node_base"*
  %7 = icmp eq %"struct.std::_Rb_tree_node_base"* %6, %1
  br i1 %7, label %8, label %60

8:                                                ; preds = %3
  %9 = getelementptr inbounds i8, i8* %4, i64 40
  %10 = bitcast i8* %9 to i64*
  %11 = load i64, i64* %10, align 8, !tbaa !63
  %12 = icmp eq i64 %11, 0
  br i1 %12, label %13, label %15

13:                                               ; preds = %8
  %14 = load i8, i8* %2, align 1
  br label %24

15:                                               ; preds = %8
  %16 = getelementptr inbounds i8, i8* %4, i64 32
  %17 = bitcast i8* %16 to %"struct.std::_Rb_tree_node_base"**
  %18 = load %"struct.std::_Rb_tree_node_base"*, %"struct.std::_Rb_tree_node_base"** %17, align 8, !tbaa !31
  %19 = getelementptr inbounds %"struct.std::_Rb_tree_node_base", %"struct.std::_Rb_tree_node_base"* %18, i64 1
  %20 = bitcast %"struct.std::_Rb_tree_node_base"* %19 to i8*
  %21 = load i8, i8* %20, align 1, !tbaa !16
  %22 = load i8, i8* %2, align 1, !tbaa !16
  %23 = icmp slt i8 %21, %22
  br i1 %23, label %171, label %24

24:                                               ; preds = %13, %15
  %25 = phi i8 [ %14, %13 ], [ %22, %15 ]
  %26 = getelementptr inbounds i8, i8* %4, i64 16
  %27 = bitcast i8* %26 to %"struct.std::_Rb_tree_node"**
  %28 = load %"struct.std::_Rb_tree_node"*, %"struct.std::_Rb_tree_node"** %27, align 8, !tbaa !31
  %29 = icmp eq %"struct.std::_Rb_tree_node"* %28, null
  br i1 %29, label %43, label %30

30:                                               ; preds = %24, %30
  %31 = phi %"struct.std::_Rb_tree_node"* [ %39, %30 ], [ %28, %24 ]
  %32 = getelementptr inbounds %"struct.std::_Rb_tree_node", %"struct.std::_Rb_tree_node"* %31, i64 0, i32 1, i32 0, i64 0
  %33 = load i8, i8* %32, align 1, !tbaa !16
  %34 = icmp slt i8 %25, %33
  %35 = getelementptr inbounds %"struct.std::_Rb_tree_node", %"struct.std::_Rb_tree_node"* %31, i64 0, i32 0, i32 2
  %36 = getelementptr inbounds %"struct.std::_Rb_tree_node", %"struct.std::_Rb_tree_node"* %31, i64 0, i32 0, i32 3
  %37 = select i1 %34, %"struct.std::_Rb_tree_node_base"** %35, %"struct.std::_Rb_tree_node_base"** %36
  %38 = bitcast %"struct.std::_Rb_tree_node_base"** %37 to %"struct.std::_Rb_tree_node"**
  %39 = load %"struct.std::_Rb_tree_node"*, %"struct.std::_Rb_tree_node"** %38, align 8, !tbaa !31
  %40 = icmp eq %"struct.std::_Rb_tree_node"* %39, null
  br i1 %40, label %41, label %30, !llvm.loop !73

41:                                               ; preds = %30
  %42 = getelementptr %"struct.std::_Rb_tree_node", %"struct.std::_Rb_tree_node"* %31, i64 0, i32 0
  br i1 %34, label %43, label %51

43:                                               ; preds = %41, %24
  %44 = phi %"struct.std::_Rb_tree_node_base"* [ %42, %41 ], [ %1, %24 ]
  %45 = getelementptr inbounds i8, i8* %4, i64 24
  %46 = bitcast i8* %45 to %"struct.std::_Rb_tree_node_base"**
  %47 = load %"struct.std::_Rb_tree_node_base"*, %"struct.std::_Rb_tree_node_base"** %46, align 8, !tbaa !61
  %48 = icmp eq %"struct.std::_Rb_tree_node_base"* %44, %47
  br i1 %48, label %171, label %49

49:                                               ; preds = %43
  %50 = tail call %"struct.std::_Rb_tree_node_base"* @_ZSt18_Rb_tree_decrementPSt18_Rb_tree_node_base(%"struct.std::_Rb_tree_node_base"* %44) #30
  br label %51

51:                                               ; preds = %49, %41
  %52 = phi %"struct.std::_Rb_tree_node_base"* [ %44, %49 ], [ %42, %41 ]
  %53 = phi %"struct.std::_Rb_tree_node_base"* [ %50, %49 ], [ %42, %41 ]
  %54 = getelementptr inbounds %"struct.std::_Rb_tree_node_base", %"struct.std::_Rb_tree_node_base"* %53, i64 1
  %55 = bitcast %"struct.std::_Rb_tree_node_base"* %54 to i8*
  %56 = load i8, i8* %55, align 1, !tbaa !16
  %57 = icmp slt i8 %56, %25
  %58 = select i1 %57, %"struct.std::_Rb_tree_node_base"* null, %"struct.std::_Rb_tree_node_base"* %53
  %59 = select i1 %57, %"struct.std::_Rb_tree_node_base"* %52, %"struct.std::_Rb_tree_node_base"* null
  br label %171

60:                                               ; preds = %3
  %61 = getelementptr inbounds %"struct.std::_Rb_tree_node_base", %"struct.std::_Rb_tree_node_base"* %1, i64 1
  %62 = bitcast %"struct.std::_Rb_tree_node_base"* %61 to i8*
  %63 = load i8, i8* %2, align 1, !tbaa !16
  %64 = load i8, i8* %62, align 1, !tbaa !16
  %65 = icmp slt i8 %63, %64
  br i1 %65, label %66, label %116

66:                                               ; preds = %60
  %67 = getelementptr inbounds i8, i8* %4, i64 24
  %68 = bitcast i8* %67 to %"struct.std::_Rb_tree_node_base"**
  %69 = load %"struct.std::_Rb_tree_node_base"*, %"struct.std::_Rb_tree_node_base"** %68, align 8, !tbaa !31
  %70 = icmp eq %"struct.std::_Rb_tree_node_base"* %69, %1
  br i1 %70, label %171, label %71

71:                                               ; preds = %66
  %72 = tail call %"struct.std::_Rb_tree_node_base"* @_ZSt18_Rb_tree_decrementPSt18_Rb_tree_node_base(%"struct.std::_Rb_tree_node_base"* nonnull %1) #30
  %73 = getelementptr inbounds %"struct.std::_Rb_tree_node_base", %"struct.std::_Rb_tree_node_base"* %72, i64 1
  %74 = bitcast %"struct.std::_Rb_tree_node_base"* %73 to i8*
  %75 = load i8, i8* %74, align 1, !tbaa !16
  %76 = icmp slt i8 %75, %63
  br i1 %76, label %77, label %84

77:                                               ; preds = %71
  %78 = getelementptr inbounds %"struct.std::_Rb_tree_node_base", %"struct.std::_Rb_tree_node_base"* %72, i64 0, i32 3
  %79 = bitcast %"struct.std::_Rb_tree_node_base"** %78 to %"struct.std::_Rb_tree_node"**
  %80 = load %"struct.std::_Rb_tree_node"*, %"struct.std::_Rb_tree_node"** %79, align 8, !tbaa !65
  %81 = icmp eq %"struct.std::_Rb_tree_node"* %80, null
  %82 = select i1 %81, %"struct.std::_Rb_tree_node_base"* null, %"struct.std::_Rb_tree_node_base"* %1
  %83 = select i1 %81, %"struct.std::_Rb_tree_node_base"* %72, %"struct.std::_Rb_tree_node_base"* %1
  br label %171

84:                                               ; preds = %71
  %85 = getelementptr inbounds i8, i8* %4, i64 16
  %86 = bitcast i8* %85 to %"struct.std::_Rb_tree_node"**
  %87 = load %"struct.std::_Rb_tree_node"*, %"struct.std::_Rb_tree_node"** %86, align 8, !tbaa !31
  %88 = icmp eq %"struct.std::_Rb_tree_node"* %87, null
  br i1 %88, label %102, label %89

89:                                               ; preds = %84, %89
  %90 = phi %"struct.std::_Rb_tree_node"* [ %98, %89 ], [ %87, %84 ]
  %91 = getelementptr inbounds %"struct.std::_Rb_tree_node", %"struct.std::_Rb_tree_node"* %90, i64 0, i32 1, i32 0, i64 0
  %92 = load i8, i8* %91, align 1, !tbaa !16
  %93 = icmp slt i8 %63, %92
  %94 = getelementptr inbounds %"struct.std::_Rb_tree_node", %"struct.std::_Rb_tree_node"* %90, i64 0, i32 0, i32 2
  %95 = getelementptr inbounds %"struct.std::_Rb_tree_node", %"struct.std::_Rb_tree_node"* %90, i64 0, i32 0, i32 3
  %96 = select i1 %93, %"struct.std::_Rb_tree_node_base"** %94, %"struct.std::_Rb_tree_node_base"** %95
  %97 = bitcast %"struct.std::_Rb_tree_node_base"** %96 to %"struct.std::_Rb_tree_node"**
  %98 = load %"struct.std::_Rb_tree_node"*, %"struct.std::_Rb_tree_node"** %97, align 8, !tbaa !31
  %99 = icmp eq %"struct.std::_Rb_tree_node"* %98, null
  br i1 %99, label %100, label %89, !llvm.loop !73

100:                                              ; preds = %89
  %101 = getelementptr %"struct.std::_Rb_tree_node", %"struct.std::_Rb_tree_node"* %90, i64 0, i32 0
  br i1 %93, label %102, label %107

102:                                              ; preds = %100, %84
  %103 = phi %"struct.std::_Rb_tree_node_base"* [ %101, %100 ], [ %6, %84 ]
  %104 = icmp eq %"struct.std::_Rb_tree_node_base"* %103, %69
  br i1 %104, label %171, label %105

105:                                              ; preds = %102
  %106 = tail call %"struct.std::_Rb_tree_node_base"* @_ZSt18_Rb_tree_decrementPSt18_Rb_tree_node_base(%"struct.std::_Rb_tree_node_base"* %103) #30
  br label %107

107:                                              ; preds = %105, %100
  %108 = phi %"struct.std::_Rb_tree_node_base"* [ %103, %105 ], [ %101, %100 ]
  %109 = phi %"struct.std::_Rb_tree_node_base"* [ %106, %105 ], [ %101, %100 ]
  %110 = getelementptr inbounds %"struct.std::_Rb_tree_node_base", %"struct.std::_Rb_tree_node_base"* %109, i64 1
  %111 = bitcast %"struct.std::_Rb_tree_node_base"* %110 to i8*
  %112 = load i8, i8* %111, align 1, !tbaa !16
  %113 = icmp slt i8 %112, %63
  %114 = select i1 %113, %"struct.std::_Rb_tree_node_base"* null, %"struct.std::_Rb_tree_node_base"* %109
  %115 = select i1 %113, %"struct.std::_Rb_tree_node_base"* %108, %"struct.std::_Rb_tree_node_base"* null
  br label %171

116:                                              ; preds = %60
  %117 = icmp slt i8 %64, %63
  br i1 %117, label %118, label %171

118:                                              ; preds = %116
  %119 = getelementptr inbounds i8, i8* %4, i64 32
  %120 = bitcast i8* %119 to %"struct.std::_Rb_tree_node_base"**
  %121 = load %"struct.std::_Rb_tree_node_base"*, %"struct.std::_Rb_tree_node_base"** %120, align 8, !tbaa !31
  %122 = icmp eq %"struct.std::_Rb_tree_node_base"* %121, %1
  br i1 %122, label %171, label %123

123:                                              ; preds = %118
  %124 = tail call %"struct.std::_Rb_tree_node_base"* @_ZSt18_Rb_tree_incrementPSt18_Rb_tree_node_base(%"struct.std::_Rb_tree_node_base"* nonnull %1) #30
  %125 = getelementptr inbounds %"struct.std::_Rb_tree_node_base", %"struct.std::_Rb_tree_node_base"* %124, i64 1
  %126 = bitcast %"struct.std::_Rb_tree_node_base"* %125 to i8*
  %127 = load i8, i8* %126, align 1, !tbaa !16
  %128 = icmp slt i8 %63, %127
  br i1 %128, label %129, label %136

129:                                              ; preds = %123
  %130 = getelementptr inbounds %"struct.std::_Rb_tree_node_base", %"struct.std::_Rb_tree_node_base"* %1, i64 0, i32 3
  %131 = bitcast %"struct.std::_Rb_tree_node_base"** %130 to %"struct.std::_Rb_tree_node"**
  %132 = load %"struct.std::_Rb_tree_node"*, %"struct.std::_Rb_tree_node"** %131, align 8, !tbaa !65
  %133 = icmp eq %"struct.std::_Rb_tree_node"* %132, null
  %134 = select i1 %133, %"struct.std::_Rb_tree_node_base"* null, %"struct.std::_Rb_tree_node_base"* %124
  %135 = select i1 %133, %"struct.std::_Rb_tree_node_base"* %1, %"struct.std::_Rb_tree_node_base"* %124
  br label %171

136:                                              ; preds = %123
  %137 = getelementptr inbounds i8, i8* %4, i64 16
  %138 = bitcast i8* %137 to %"struct.std::_Rb_tree_node"**
  %139 = load %"struct.std::_Rb_tree_node"*, %"struct.std::_Rb_tree_node"** %138, align 8, !tbaa !31
  %140 = icmp eq %"struct.std::_Rb_tree_node"* %139, null
  br i1 %140, label %154, label %141

141:                                              ; preds = %136, %141
  %142 = phi %"struct.std::_Rb_tree_node"* [ %150, %141 ], [ %139, %136 ]
  %143 = getelementptr inbounds %"struct.std::_Rb_tree_node", %"struct.std::_Rb_tree_node"* %142, i64 0, i32 1, i32 0, i64 0
  %144 = load i8, i8* %143, align 1, !tbaa !16
  %145 = icmp slt i8 %63, %144
  %146 = getelementptr inbounds %"struct.std::_Rb_tree_node", %"struct.std::_Rb_tree_node"* %142, i64 0, i32 0, i32 2
  %147 = getelementptr inbounds %"struct.std::_Rb_tree_node", %"struct.std::_Rb_tree_node"* %142, i64 0, i32 0, i32 3
  %148 = select i1 %145, %"struct.std::_Rb_tree_node_base"** %146, %"struct.std::_Rb_tree_node_base"** %147
  %149 = bitcast %"struct.std::_Rb_tree_node_base"** %148 to %"struct.std::_Rb_tree_node"**
  %150 = load %"struct.std::_Rb_tree_node"*, %"struct.std::_Rb_tree_node"** %149, align 8, !tbaa !31
  %151 = icmp eq %"struct.std::_Rb_tree_node"* %150, null
  br i1 %151, label %152, label %141, !llvm.loop !73

152:                                              ; preds = %141
  %153 = getelementptr %"struct.std::_Rb_tree_node", %"struct.std::_Rb_tree_node"* %142, i64 0, i32 0
  br i1 %145, label %154, label %162

154:                                              ; preds = %152, %136
  %155 = phi %"struct.std::_Rb_tree_node_base"* [ %153, %152 ], [ %6, %136 ]
  %156 = getelementptr inbounds i8, i8* %4, i64 24
  %157 = bitcast i8* %156 to %"struct.std::_Rb_tree_node_base"**
  %158 = load %"struct.std::_Rb_tree_node_base"*, %"struct.std::_Rb_tree_node_base"** %157, align 8, !tbaa !61
  %159 = icmp eq %"struct.std::_Rb_tree_node_base"* %155, %158
  br i1 %159, label %171, label %160

160:                                              ; preds = %154
  %161 = tail call %"struct.std::_Rb_tree_node_base"* @_ZSt18_Rb_tree_decrementPSt18_Rb_tree_node_base(%"struct.std::_Rb_tree_node_base"* %155) #30
  br label %162

162:                                              ; preds = %160, %152
  %163 = phi %"struct.std::_Rb_tree_node_base"* [ %155, %160 ], [ %153, %152 ]
  %164 = phi %"struct.std::_Rb_tree_node_base"* [ %161, %160 ], [ %153, %152 ]
  %165 = getelementptr inbounds %"struct.std::_Rb_tree_node_base", %"struct.std::_Rb_tree_node_base"* %164, i64 1
  %166 = bitcast %"struct.std::_Rb_tree_node_base"* %165 to i8*
  %167 = load i8, i8* %166, align 1, !tbaa !16
  %168 = icmp slt i8 %167, %63
  %169 = select i1 %168, %"struct.std::_Rb_tree_node_base"* null, %"struct.std::_Rb_tree_node_base"* %164
  %170 = select i1 %168, %"struct.std::_Rb_tree_node_base"* %163, %"struct.std::_Rb_tree_node_base"* null
  br label %171

171:                                              ; preds = %162, %154, %107, %102, %51, %43, %129, %77, %116, %118, %66, %15
  %172 = phi %"struct.std::_Rb_tree_node_base"* [ null, %15 ], [ %1, %66 ], [ null, %118 ], [ %1, %116 ], [ %82, %77 ], [ %134, %129 ], [ %58, %51 ], [ null, %43 ], [ %114, %107 ], [ null, %102 ], [ %169, %162 ], [ null, %154 ]
  %173 = phi %"struct.std::_Rb_tree_node_base"* [ %18, %15 ], [ %1, %66 ], [ %1, %118 ], [ null, %116 ], [ %83, %77 ], [ %135, %129 ], [ %59, %51 ], [ %44, %43 ], [ %115, %107 ], [ %69, %102 ], [ %170, %162 ], [ %155, %154 ]
  %174 = insertvalue { %"struct.std::_Rb_tree_node_base"*, %"struct.std::_Rb_tree_node_base"* } undef, %"struct.std::_Rb_tree_node_base"* %172, 0
  %175 = insertvalue { %"struct.std::_Rb_tree_node_base"*, %"struct.std::_Rb_tree_node_base"* } %174, %"struct.std::_Rb_tree_node_base"* %173, 1
  ret { %"struct.std::_Rb_tree_node_base"*, %"struct.std::_Rb_tree_node_base"* } %175
}

declare void @__cxa_rethrow() local_unnamed_addr

declare void @__cxa_end_catch() local_unnamed_addr

; Function Attrs: nobuiltin allocsize(0)
declare nonnull i8* @_Znwm(i64) local_unnamed_addr #21

; Function Attrs: mustprogress nofree nounwind readonly willreturn
declare %"struct.std::_Rb_tree_node_base"* @_ZSt18_Rb_tree_decrementPSt18_Rb_tree_node_base(%"struct.std::_Rb_tree_node_base"*) local_unnamed_addr #22

; Function Attrs: nounwind
declare void @_ZSt29_Rb_tree_insert_and_rebalancebPSt18_Rb_tree_node_baseS0_RS_(i1 zeroext, %"struct.std::_Rb_tree_node_base"*, %"struct.std::_Rb_tree_node_base"*, %"struct.std::_Rb_tree_node_base"* nonnull align 8 dereferenceable(32)) local_unnamed_addr #1

; Function Attrs: mustprogress nofree nounwind readonly willreturn
declare %"struct.std::_Rb_tree_node_base"* @_ZSt18_Rb_tree_incrementPSt18_Rb_tree_node_base(%"struct.std::_Rb_tree_node_base"*) local_unnamed_addr #22

; Function Attrs: sspstrong uwtable
define internal void @_GLOBAL__sub_I_s732215866.cpp() #3 section ".text.startup" {
  tail call void @_ZNSt8ios_base4InitC1Ev(%"class.std::ios_base::Init"* nonnull align 1 dereferenceable(1) @_ZStL8__ioinit)
  %1 = tail call i32 @__cxa_atexit(void (i8*)* bitcast (void (%"class.std::ios_base::Init"*)* @_ZNSt8ios_base4InitD1Ev to void (i8*)*), i8* getelementptr inbounds (%"class.std::ios_base::Init", %"class.std::ios_base::Init"* @_ZStL8__ioinit, i64 0, i32 0), i8* nonnull @__dso_handle) #27
  store double 0x400921FB54442D18, double* @_ZL2PI, align 8, !tbaa !74
  %2 = tail call {}* @llvm.invariant.start.p0i8(i64 8, i8* bitcast (double* @_ZL2PI to i8*)) #27
  ret void
}

; Function Attrs: inaccessiblememonly nofree nosync nounwind willreturn
declare void @llvm.experimental.noalias.scope.decl(metadata) #23

; Function Attrs: nofree nosync nounwind readnone speculatable willreturn
declare i64 @llvm.smax.i64(i64, i64) #24

; Function Attrs: argmemonly nofree nounwind readonly willreturn
declare i32 @bcmp(i8* nocapture, i8* nocapture, i64) local_unnamed_addr #25

; Function Attrs: nofree nosync nounwind readnone willreturn
declare i64 @llvm.vector.reduce.add.v2i64(<2 x i64>) #26

attributes #0 = { "frame-pointer"="none" "no-trapping-math"="true" "stack-protector-buffer-size"="8" "target-cpu"="x86-64" "target-features"="+cx8,+fxsr,+mmx,+sse,+sse2,+x87" "tune-cpu"="generic" }
attributes #1 = { nounwind "frame-pointer"="none" "no-trapping-math"="true" "stack-protector-buffer-size"="8" "target-cpu"="x86-64" "target-features"="+cx8,+fxsr,+mmx,+sse,+sse2,+x87" "tune-cpu"="generic" }
attributes #2 = { nofree nounwind }
attributes #3 = { sspstrong uwtable "frame-pointer"="none" "min-legal-vector-width"="0" "no-trapping-math"="true" "stack-protector-buffer-size"="8" "target-cpu"="x86-64" "target-features"="+cx8,+fxsr,+mmx,+sse,+sse2,+x87" "tune-cpu"="generic" }
attributes #4 = { argmemonly mustprogress nofree nosync nounwind willreturn }
attributes #5 = { mustprogress sspstrong uwtable "frame-pointer"="none" "min-legal-vector-width"="0" "no-trapping-math"="true" "stack-protector-buffer-size"="8" "target-cpu"="x86-64" "target-features"="+cx8,+fxsr,+mmx,+sse,+sse2,+x87" "tune-cpu"="generic" }
attributes #6 = { inlinehint mustprogress sspstrong uwtable "frame-pointer"="none" "min-legal-vector-width"="0" "no-trapping-math"="true" "stack-protector-buffer-size"="8" "target-cpu"="x86-64" "target-features"="+cx8,+fxsr,+mmx,+sse,+sse2,+x87" "tune-cpu"="generic" }
attributes #7 = { nofree norecurse nosync nounwind readonly sspstrong uwtable "frame-pointer"="none" "min-legal-vector-width"="0" "no-trapping-math"="true" "stack-protector-buffer-size"="8" "target-cpu"="x86-64" "target-features"="+cx8,+fxsr,+mmx,+sse,+sse2,+x87" "tune-cpu"="generic" }
attributes #8 = { nofree nosync nounwind readonly sspstrong uwtable "frame-pointer"="none" "min-legal-vector-width"="0" "no-trapping-math"="true" "stack-protector-buffer-size"="8" "target-cpu"="x86-64" "target-features"="+cx8,+fxsr,+mmx,+sse,+sse2,+x87" "tune-cpu"="generic" }
attributes #9 = { mustprogress nofree nosync nounwind readnone sspstrong uwtable willreturn "frame-pointer"="none" "min-legal-vector-width"="0" "no-trapping-math"="true" "stack-protector-buffer-size"="8" "target-cpu"="x86-64" "target-features"="+cx8,+fxsr,+mmx,+sse,+sse2,+x87" "tune-cpu"="generic" }
attributes #10 = { mustprogress nofree norecurse nosync nounwind readnone sspstrong uwtable willreturn "frame-pointer"="none" "min-legal-vector-width"="0" "no-trapping-math"="true" "stack-protector-buffer-size"="8" "target-cpu"="x86-64" "target-features"="+cx8,+fxsr,+mmx,+sse,+sse2,+x87" "tune-cpu"="generic" }
attributes #11 = { mustprogress noreturn sspstrong uwtable "frame-pointer"="none" "min-legal-vector-width"="0" "no-trapping-math"="true" "stack-protector-buffer-size"="8" "target-cpu"="x86-64" "target-features"="+cx8,+fxsr,+mmx,+sse,+sse2,+x87" "tune-cpu"="generic" }
attributes #12 = { noreturn nounwind "frame-pointer"="none" "no-trapping-math"="true" "stack-protector-buffer-size"="8" "target-cpu"="x86-64" "target-features"="+cx8,+fxsr,+mmx,+sse,+sse2,+x87" "tune-cpu"="generic" }
attributes #13 = { nofree nosync nounwind sspstrong uwtable "frame-pointer"="none" "min-legal-vector-width"="0" "no-trapping-math"="true" "stack-protector-buffer-size"="8" "target-cpu"="x86-64" "target-features"="+cx8,+fxsr,+mmx,+sse,+sse2,+x87" "tune-cpu"="generic" }
attributes #14 = { norecurse sspstrong uwtable "frame-pointer"="none" "min-legal-vector-width"="0" "no-trapping-math"="true" "stack-protector-buffer-size"="8" "target-cpu"="x86-64" "target-features"="+cx8,+fxsr,+mmx,+sse,+sse2,+x87" "tune-cpu"="generic" }
attributes #15 = { argmemonly mustprogress nofree nounwind willreturn }
attributes #16 = { noinline noreturn nounwind }
attributes #17 = { nounwind sspstrong uwtable "frame-pointer"="none" "min-legal-vector-width"="0" "no-trapping-math"="true" "stack-protector-buffer-size"="8" "target-cpu"="x86-64" "target-features"="+cx8,+fxsr,+mmx,+sse,+sse2,+x87" "tune-cpu"="generic" }
attributes #18 = { nobuiltin nounwind "frame-pointer"="none" "no-trapping-math"="true" "stack-protector-buffer-size"="8" "target-cpu"="x86-64" "target-features"="+cx8,+fxsr,+mmx,+sse,+sse2,+x87" "tune-cpu"="generic" }
attributes #19 = { noreturn "frame-pointer"="none" "no-trapping-math"="true" "stack-protector-buffer-size"="8" "target-cpu"="x86-64" "target-features"="+cx8,+fxsr,+mmx,+sse,+sse2,+x87" "tune-cpu"="generic" }
attributes #20 = { argmemonly mustprogress nofree nounwind readonly willreturn "frame-pointer"="none" "no-trapping-math"="true" "stack-protector-buffer-size"="8" "target-cpu"="x86-64" "target-features"="+cx8,+fxsr,+mmx,+sse,+sse2,+x87" "tune-cpu"="generic" }
attributes #21 = { nobuiltin allocsize(0) "frame-pointer"="none" "no-trapping-math"="true" "stack-protector-buffer-size"="8" "target-cpu"="x86-64" "target-features"="+cx8,+fxsr,+mmx,+sse,+sse2,+x87" "tune-cpu"="generic" }
attributes #22 = { mustprogress nofree nounwind readonly willreturn "frame-pointer"="none" "no-trapping-math"="true" "stack-protector-buffer-size"="8" "target-cpu"="x86-64" "target-features"="+cx8,+fxsr,+mmx,+sse,+sse2,+x87" "tune-cpu"="generic" }
attributes #23 = { inaccessiblememonly nofree nosync nounwind willreturn }
attributes #24 = { nofree nosync nounwind readnone speculatable willreturn }
attributes #25 = { argmemonly nofree nounwind readonly willreturn }
attributes #26 = { nofree nosync nounwind readnone willreturn }
attributes #27 = { nounwind }
attributes #28 = { noreturn }
attributes #29 = { noreturn nounwind }
attributes #30 = { nounwind readonly willreturn }
attributes #31 = { allocsize(0) }

!llvm.module.flags = !{!0, !1, !2, !3}
!llvm.ident = !{!4}

!0 = !{i32 1, !"wchar_size", i32 4}
!1 = !{i32 7, !"PIC Level", i32 2}
!2 = !{i32 7, !"PIE Level", i32 2}
!3 = !{i32 7, !"uwtable", i32 1}
!4 = !{!"clang version 13.0.0"}
!5 = !{!6}
!6 = distinct !{!6, !7, !"_ZStplIcSt11char_traitsIcESaIcEENSt7__cxx1112basic_stringIT_T0_T1_EES5_RKS8_: argument 0"}
!7 = distinct !{!7, !"_ZStplIcSt11char_traitsIcESaIcEENSt7__cxx1112basic_stringIT_T0_T1_EES5_RKS8_"}
!8 = !{!9, !10, i64 0}
!9 = !{!"_ZTSNSt7__cxx1112basic_stringIcSt11char_traitsIcESaIcEE12_Alloc_hiderE", !10, i64 0}
!10 = !{!"any pointer", !11, i64 0}
!11 = !{!"omnipotent char", !12, i64 0}
!12 = !{!"Simple C++ TBAA"}
!13 = !{!14, !15, i64 8}
!14 = !{!"_ZTSNSt7__cxx1112basic_stringIcSt11char_traitsIcESaIcEEE", !9, i64 0, !15, i64 8, !11, i64 16}
!15 = !{!"long", !11, i64 0}
!16 = !{!11, !11, i64 0}
!17 = !{!14, !10, i64 0}
!18 = !{!19}
!19 = distinct !{!19, !20, !"_ZStplIcSt11char_traitsIcESaIcEENSt7__cxx1112basic_stringIT_T0_T1_EEOS8_S5_: argument 0"}
!20 = distinct !{!20, !"_ZStplIcSt11char_traitsIcESaIcEENSt7__cxx1112basic_stringIT_T0_T1_EEOS8_S5_"}
!21 = !{!15, !15, i64 0}
!22 = !{!23, !10, i64 0}
!23 = !{!"_ZTSSt18_Bit_iterator_base", !10, i64 0, !24, i64 8}
!24 = !{!"int", !11, i64 0}
!25 = !{!23, !24, i64 8}
!26 = !{!27}
!27 = distinct !{!27, !28, !"_Z9to_stringB5cxx11b: argument 0"}
!28 = distinct !{!28, !"_Z9to_stringB5cxx11b"}
!29 = distinct !{!29, !30}
!30 = !{!"llvm.loop.mustprogress"}
!31 = !{!10, !10, i64 0}
!32 = !{!33, !33, i64 0}
!33 = !{!"long long", !11, i64 0}
!34 = distinct !{!34, !30, !35}
!35 = !{!"llvm.loop.isvectorized", i32 1}
!36 = distinct !{!36, !37}
!37 = !{!"llvm.loop.unroll.disable"}
!38 = distinct !{!38, !30, !39, !35}
!39 = !{!"llvm.loop.unroll.runtime.disable"}
!40 = distinct !{!40, !30}
!41 = distinct !{!41, !30}
!42 = !{!43, !10, i64 8}
!43 = !{!"_ZTSNSt12_Vector_baseIxSaIxEE17_Vector_impl_dataE", !10, i64 0, !10, i64 8, !10, i64 16}
!44 = !{!43, !10, i64 0}
!45 = !{!46, !46, i64 0}
!46 = !{!"vtable pointer", !12, i64 0}
!47 = !{!48, !10, i64 240}
!48 = !{!"_ZTSSt9basic_iosIcSt11char_traitsIcEE", !10, i64 216, !11, i64 224, !49, i64 225, !10, i64 232, !10, i64 240, !10, i64 248, !10, i64 256}
!49 = !{!"bool", !11, i64 0}
!50 = !{!51, !11, i64 56}
!51 = !{!"_ZTSSt5ctypeIcE", !10, i64 16, !49, i64 24, !10, i64 32, !10, i64 40, !10, i64 48, !11, i64 56, !11, i64 57, !11, i64 313, !11, i64 569}
!52 = distinct !{!52, !30, !53}
!53 = !{!"llvm.loop.peeled.count", i32 1}
!54 = distinct !{!54, !30}
!55 = !{!48, !10, i64 216}
!56 = !{!57, !59, i64 0}
!57 = !{!"_ZTSSt15_Rb_tree_header", !58, i64 0, !15, i64 32}
!58 = !{!"_ZTSSt18_Rb_tree_node_base", !59, i64 0, !10, i64 8, !10, i64 16, !10, i64 24}
!59 = !{!"_ZTSSt14_Rb_tree_color", !11, i64 0}
!60 = !{!57, !10, i64 8}
!61 = !{!57, !10, i64 16}
!62 = !{!57, !10, i64 24}
!63 = !{!57, !15, i64 32}
!64 = distinct !{!64, !30}
!65 = !{!58, !10, i64 24}
!66 = !{!58, !10, i64 16}
!67 = distinct !{!67, !30}
!68 = !{!69, !10, i64 0}
!69 = !{!"_ZTSSt10_Head_baseILm0ERKcLb0EE", !10, i64 0}
!70 = !{!71, !11, i64 0}
!71 = !{!"_ZTSSt4pairIKcxE", !11, i64 0, !33, i64 8}
!72 = !{!71, !33, i64 8}
!73 = distinct !{!73, !30}
!74 = !{!75, !75, i64 0}
!75 = !{!"double", !11, i64 0}
