; ModuleID = 'Project_CodeNet_C++1400/p03477/s133469986.cpp'
source_filename = "Project_CodeNet_C++1400/p03477/s133469986.cpp"
target datalayout = "e-m:e-i64:64-f80:128-n8:16:32:64-S128"
target triple = "x86_64-unknown-linux-gnu"

%"class.std::ios_base::Init" = type { i8 }
%"class.std::basic_istream" = type { i32 (...)**, i64, %"class.std::basic_ios" }
%"class.std::basic_ios" = type { %"class.std::ios_base", %"class.std::basic_ostream"*, i8, i8, %"class.std::basic_streambuf"*, %"class.std::ctype"*, %"class.std::num_put"*, %"class.std::num_get"* }
%"class.std::ios_base" = type { i32 (...)**, i64, i64, i32, i32, i32, %"struct.std::ios_base::_Callback_list"*, %"struct.std::ios_base::_Words", [8 x %"struct.std::ios_base::_Words"], i32, %"struct.std::ios_base::_Words"*, %"class.std::locale" }
%"struct.std::ios_base::_Callback_list" = type { %"struct.std::ios_base::_Callback_list"*, void (i32, %"class.std::ios_base"*, i32)*, i32, i32 }
%"struct.std::ios_base::_Words" = type { i8*, i64 }
%"class.std::locale" = type { %"class.std::locale::_Impl"* }
%"class.std::locale::_Impl" = type { i32, %"class.std::locale::facet"**, i64, %"class.std::locale::facet"**, i8** }
%"class.std::locale::facet" = type <{ i32 (...)**, i32, [4 x i8] }>
%"class.std::basic_ostream" = type { i32 (...)**, %"class.std::basic_ios" }
%"class.std::basic_streambuf" = type { i32 (...)**, i8*, i8*, i8*, i8*, i8*, i8*, %"class.std::locale" }
%"class.std::ctype" = type <{ %"class.std::locale::facet.base", [4 x i8], %struct.__locale_struct*, i8, [7 x i8], i32*, i32*, i16*, i8, [256 x i8], [256 x i8], i8, [6 x i8] }>
%"class.std::locale::facet.base" = type <{ i32 (...)**, i32 }>
%struct.__locale_struct = type { [13 x %struct.__locale_data*], i16*, i32*, i32*, [13 x i8*] }
%struct.__locale_data = type opaque
%"class.std::num_put" = type { %"class.std::locale::facet.base", [4 x i8] }
%"class.std::num_get" = type { %"class.std::locale::facet.base", [4 x i8] }

@_ZStL8__ioinit = internal global %"class.std::ios_base::Init" zeroinitializer, align 1
@__dso_handle = external global i8
@_ZSt3cin = external global %"class.std::basic_istream", align 8
@_ZSt4cout = external global %"class.std::basic_ostream", align 8
@.str = private unnamed_addr constant [9 x i8] c"Balanced\00", align 1
@.str.1 = private unnamed_addr constant [5 x i8] c"Left\00", align 1
@.str.2 = private unnamed_addr constant [6 x i8] c"Right\00", align 1
@llvm.global_ctors = appending global [1 x { i32, void ()*, i8* }] [{ i32, void ()*, i8* } { i32 65535, void ()* @_GLOBAL__sub_I_s133469986.cpp, i8* null }]
@x = common global i32 0
@y = common global i32 0
@x.3 = common global i32 0
@y.4 = common global i32 0
@x.5 = common global i32 0
@y.6 = common global i32 0

; Function Attrs: noinline uwtable
define internal void @__cxx_global_var_init() #0 section ".text.startup" {
  call void @_ZNSt8ios_base4InitC1Ev(%"class.std::ios_base::Init"* @_ZStL8__ioinit)
  %1 = call i32 @__cxa_atexit(void (i8*)* bitcast (void (%"class.std::ios_base::Init"*)* @_ZNSt8ios_base4InitD1Ev to void (i8*)*), i8* getelementptr inbounds (%"class.std::ios_base::Init", %"class.std::ios_base::Init"* @_ZStL8__ioinit, i32 0, i32 0), i8* @__dso_handle) #3
  ret void
}

declare void @_ZNSt8ios_base4InitC1Ev(%"class.std::ios_base::Init"*) unnamed_addr #1

; Function Attrs: nounwind
declare void @_ZNSt8ios_base4InitD1Ev(%"class.std::ios_base::Init"*) unnamed_addr #2

; Function Attrs: nounwind
declare i32 @__cxa_atexit(void (i8*)*, i8*, i8*) #3

; Function Attrs: noinline norecurse uwtable
define i32 @main() #4 {
  %1 = alloca i1
  %2 = alloca i32*
  %3 = alloca i32*
  %4 = alloca i32*
  %5 = alloca i1
  %6 = alloca i1
  %7 = load i32, i32* @x.3
  %8 = load i32, i32* @y.4
  %9 = sub i32 0, 1
  %10 = add i32 %7, %9
  %11 = sub i32 %7, 1
  %12 = mul i32 %7, %10
  %13 = urem i32 %12, 2
  %14 = icmp eq i32 %13, 0
  store i1 %14, i1* %6
  %15 = icmp slt i32 %8, 10
  store i1 %15, i1* %5
  %16 = alloca i32
  store i32 859330441, i32* %16
  br label %17

; <label>:17:                                     ; preds = %0, %215
  %18 = load i32, i32* %16
  switch i32 %18, label %19 [
    i32 859330441, label %20
    i32 1964210401, label %40
    i32 1756439113, label %98
    i32 896963548, label %101
    i32 -744094278, label %129
    i32 1175585825, label %159
    i32 -1090576895, label %160
    i32 -1771445317, label %167
    i32 1734742947, label %170
    i32 1370202019, label %173
    i32 -1056798485, label %174
    i32 -1133725317, label %177
    i32 807821004, label %212
  ]

; <label>:19:                                     ; preds = %17
  br label %215

; <label>:20:                                     ; preds = %17
  %21 = load volatile i1, i1* %6
  %22 = load volatile i1, i1* %5
  %23 = xor i1 %21, true
  %24 = xor i1 %22, true
  %25 = xor i1 false, true
  %26 = and i1 %23, false
  %27 = and i1 %21, %25
  %28 = and i1 %24, false
  %29 = and i1 %22, %25
  %30 = or i1 %26, %27
  %31 = or i1 %28, %29
  %32 = xor i1 %30, %31
  %33 = or i1 %23, %24
  %34 = xor i1 %33, true
  %35 = or i1 false, %25
  %36 = and i1 %34, %35
  %37 = or i1 %32, %36
  %38 = or i1 %21, %22
  %39 = select i1 %37, i32 1964210401, i32 -1133725317
  store i32 %39, i32* %16
  br label %215

; <label>:40:                                     ; preds = %17
  %41 = alloca i32, align 4
  store i32* %41, i32** %4
  %42 = alloca i32, align 4
  %43 = alloca i32, align 4
  %44 = alloca i32, align 4
  %45 = alloca i32, align 4
  %46 = alloca i32, align 4
  store i32* %46, i32** %3
  %47 = alloca i32, align 4
  store i32* %47, i32** %2
  %48 = load volatile i32*, i32** %4
  store i32 0, i32* %48, align 4
  %49 = call dereferenceable(280) %"class.std::basic_istream"* @_ZNSirsERi(%"class.std::basic_istream"* @_ZSt3cin, i32* dereferenceable(4) %42)
  %50 = call dereferenceable(280) %"class.std::basic_istream"* @_ZNSirsERi(%"class.std::basic_istream"* %49, i32* dereferenceable(4) %43)
  %51 = call dereferenceable(280) %"class.std::basic_istream"* @_ZNSirsERi(%"class.std::basic_istream"* %50, i32* dereferenceable(4) %44)
  %52 = call dereferenceable(280) %"class.std::basic_istream"* @_ZNSirsERi(%"class.std::basic_istream"* %51, i32* dereferenceable(4) %45)
  %53 = load i32, i32* %42, align 4
  %54 = load i32, i32* %43, align 4
  %55 = sub i32 %53, -1638020014
  %56 = add i32 %55, %54
  %57 = add i32 %56, -1638020014
  %58 = add nsw i32 %53, %54
  %59 = load volatile i32*, i32** %3
  store i32 %57, i32* %59, align 4
  %60 = load i32, i32* %44, align 4
  %61 = load i32, i32* %45, align 4
  %62 = sub i32 0, %61
  %63 = sub i32 %60, %62
  %64 = add nsw i32 %60, %61
  %65 = load volatile i32*, i32** %2
  store i32 %63, i32* %65, align 4
  %66 = load volatile i32*, i32** %3
  %67 = load i32, i32* %66, align 4
  %68 = load volatile i32*, i32** %2
  %69 = load i32, i32* %68, align 4
  %70 = icmp eq i32 %67, %69
  store i1 %70, i1* %1
  %71 = load i32, i32* @x.3
  %72 = load i32, i32* @y.4
  %73 = add i32 %71, -483561560
  %74 = sub i32 %73, 1
  %75 = sub i32 %74, -483561560
  %76 = sub i32 %71, 1
  %77 = mul i32 %71, %75
  %78 = urem i32 %77, 2
  %79 = icmp eq i32 %78, 0
  %80 = icmp slt i32 %72, 10
  %81 = xor i1 %79, true
  %82 = xor i1 %80, true
  %83 = xor i1 true, true
  %84 = and i1 %81, true
  %85 = and i1 %79, %83
  %86 = and i1 %82, true
  %87 = and i1 %80, %83
  %88 = or i1 %84, %85
  %89 = or i1 %86, %87
  %90 = xor i1 %88, %89
  %91 = or i1 %81, %82
  %92 = xor i1 %91, true
  %93 = or i1 true, %83
  %94 = and i1 %92, %93
  %95 = or i1 %90, %94
  %96 = or i1 %79, %80
  %97 = select i1 %95, i32 1756439113, i32 -1133725317
  store i32 %97, i32* %16
  br label %215

; <label>:98:                                     ; preds = %17
  %99 = load volatile i1, i1* %1
  %100 = select i1 %99, i32 896963548, i32 -1090576895
  store i32 %100, i32* %16
  br label %215

; <label>:101:                                    ; preds = %17
  %102 = load i32, i32* @x.3
  %103 = load i32, i32* @y.4
  %104 = sub i32 %102, -1933242493
  %105 = sub i32 %104, 1
  %106 = add i32 %105, -1933242493
  %107 = sub i32 %102, 1
  %108 = mul i32 %102, %106
  %109 = urem i32 %108, 2
  %110 = icmp eq i32 %109, 0
  %111 = icmp slt i32 %103, 10
  %112 = xor i1 %110, true
  %113 = xor i1 %111, true
  %114 = xor i1 true, true
  %115 = and i1 %112, true
  %116 = and i1 %110, %114
  %117 = and i1 %113, true
  %118 = and i1 %111, %114
  %119 = or i1 %115, %116
  %120 = or i1 %117, %118
  %121 = xor i1 %119, %120
  %122 = or i1 %112, %113
  %123 = xor i1 %122, true
  %124 = or i1 true, %114
  %125 = and i1 %123, %124
  %126 = or i1 %121, %125
  %127 = or i1 %110, %111
  %128 = select i1 %126, i32 -744094278, i32 807821004
  store i32 %128, i32* %16
  br label %215

; <label>:129:                                    ; preds = %17
  %130 = call dereferenceable(272) %"class.std::basic_ostream"* @_ZStlsISt11char_traitsIcEERSt13basic_ostreamIcT_ES5_PKc(%"class.std::basic_ostream"* dereferenceable(272) @_ZSt4cout, i8* getelementptr inbounds ([9 x i8], [9 x i8]* @.str, i32 0, i32 0))
  %131 = call dereferenceable(272) %"class.std::basic_ostream"* @_ZNSolsEPFRSoS_E(%"class.std::basic_ostream"* %130, %"class.std::basic_ostream"* (%"class.std::basic_ostream"*)* @_ZSt4endlIcSt11char_traitsIcEERSt13basic_ostreamIT_T0_ES6_)
  %132 = load i32, i32* @x.3
  %133 = load i32, i32* @y.4
  %134 = sub i32 %132, 586907994
  %135 = sub i32 %134, 1
  %136 = add i32 %135, 586907994
  %137 = sub i32 %132, 1
  %138 = mul i32 %132, %136
  %139 = urem i32 %138, 2
  %140 = icmp eq i32 %139, 0
  %141 = icmp slt i32 %133, 10
  %142 = xor i1 %140, true
  %143 = xor i1 %141, true
  %144 = xor i1 true, true
  %145 = and i1 %142, true
  %146 = and i1 %140, %144
  %147 = and i1 %143, true
  %148 = and i1 %141, %144
  %149 = or i1 %145, %146
  %150 = or i1 %147, %148
  %151 = xor i1 %149, %150
  %152 = or i1 %142, %143
  %153 = xor i1 %152, true
  %154 = or i1 true, %144
  %155 = and i1 %153, %154
  %156 = or i1 %151, %155
  %157 = or i1 %140, %141
  %158 = select i1 %156, i32 1175585825, i32 807821004
  store i32 %158, i32* %16
  br label %215

; <label>:159:                                    ; preds = %17
  store i32 -1056798485, i32* %16
  br label %215

; <label>:160:                                    ; preds = %17
  %161 = load volatile i32*, i32** %3
  %162 = load i32, i32* %161, align 4
  %163 = load volatile i32*, i32** %2
  %164 = load i32, i32* %163, align 4
  %165 = icmp sgt i32 %162, %164
  %166 = select i1 %165, i32 -1771445317, i32 1734742947
  store i32 %166, i32* %16
  br label %215

; <label>:167:                                    ; preds = %17
  %168 = call dereferenceable(272) %"class.std::basic_ostream"* @_ZStlsISt11char_traitsIcEERSt13basic_ostreamIcT_ES5_PKc(%"class.std::basic_ostream"* dereferenceable(272) @_ZSt4cout, i8* getelementptr inbounds ([5 x i8], [5 x i8]* @.str.1, i32 0, i32 0))
  %169 = call dereferenceable(272) %"class.std::basic_ostream"* @_ZNSolsEPFRSoS_E(%"class.std::basic_ostream"* %168, %"class.std::basic_ostream"* (%"class.std::basic_ostream"*)* @_ZSt4endlIcSt11char_traitsIcEERSt13basic_ostreamIT_T0_ES6_)
  store i32 1370202019, i32* %16
  br label %215

; <label>:170:                                    ; preds = %17
  %171 = call dereferenceable(272) %"class.std::basic_ostream"* @_ZStlsISt11char_traitsIcEERSt13basic_ostreamIcT_ES5_PKc(%"class.std::basic_ostream"* dereferenceable(272) @_ZSt4cout, i8* getelementptr inbounds ([6 x i8], [6 x i8]* @.str.2, i32 0, i32 0))
  %172 = call dereferenceable(272) %"class.std::basic_ostream"* @_ZNSolsEPFRSoS_E(%"class.std::basic_ostream"* %171, %"class.std::basic_ostream"* (%"class.std::basic_ostream"*)* @_ZSt4endlIcSt11char_traitsIcEERSt13basic_ostreamIT_T0_ES6_)
  store i32 1370202019, i32* %16
  br label %215

; <label>:173:                                    ; preds = %17
  store i32 -1056798485, i32* %16
  br label %215

; <label>:174:                                    ; preds = %17
  %175 = load volatile i32*, i32** %4
  %176 = load i32, i32* %175, align 4
  ret i32 %176

; <label>:177:                                    ; preds = %17
  %178 = alloca i32, align 4
  %179 = alloca i32, align 4
  %180 = alloca i32, align 4
  %181 = alloca i32, align 4
  %182 = alloca i32, align 4
  %183 = alloca i32, align 4
  %184 = alloca i32, align 4
  store i32 0, i32* %178, align 4
  %185 = call dereferenceable(280) %"class.std::basic_istream"* @_ZNSirsERi(%"class.std::basic_istream"* @_ZSt3cin, i32* dereferenceable(4) %179)
  %186 = call dereferenceable(280) %"class.std::basic_istream"* @_ZNSirsERi(%"class.std::basic_istream"* %185, i32* dereferenceable(4) %180)
  %187 = call dereferenceable(280) %"class.std::basic_istream"* @_ZNSirsERi(%"class.std::basic_istream"* %186, i32* dereferenceable(4) %181)
  %188 = call dereferenceable(280) %"class.std::basic_istream"* @_ZNSirsERi(%"class.std::basic_istream"* %187, i32* dereferenceable(4) %182)
  %189 = load i32, i32* %179, align 4
  %190 = load i32, i32* %180, align 4
  %191 = sub i32 %189, -218638426
  %192 = add i32 %191, %190
  %193 = add i32 %192, -218638426
  %194 = add nsw i32 %189, %190
  store i32 %193, i32* %183, align 4
  %195 = load i32, i32* %181, align 4
  %196 = load i32, i32* %182, align 4
  %197 = shl i32 %195, %196
  %198 = shl i32 %195, %196
  %199 = shl i32 %195, %196
  %200 = add i32 %195, 973221303
  %201 = sub i32 %200, %196
  %202 = sub i32 %201, 973221303
  %203 = sub i32 %195, %196
  %204 = mul i32 %202, %196
  %205 = add i32 %195, 1569361972
  %206 = add i32 %205, %196
  %207 = sub i32 %206, 1569361972
  %208 = add nsw i32 %195, %196
  store i32 %207, i32* %184, align 4
  %209 = load i32, i32* %183, align 4
  %210 = load i32, i32* %184, align 4
  %211 = icmp eq i32 %209, %210
  store i32 1964210401, i32* %16
  br label %215

; <label>:212:                                    ; preds = %17
  %213 = call dereferenceable(272) %"class.std::basic_ostream"* @_ZStlsISt11char_traitsIcEERSt13basic_ostreamIcT_ES5_PKc(%"class.std::basic_ostream"* dereferenceable(272) @_ZSt4cout, i8* getelementptr inbounds ([9 x i8], [9 x i8]* @.str, i32 0, i32 0))
  %214 = call dereferenceable(272) %"class.std::basic_ostream"* @_ZNSolsEPFRSoS_E(%"class.std::basic_ostream"* %213, %"class.std::basic_ostream"* (%"class.std::basic_ostream"*)* @_ZSt4endlIcSt11char_traitsIcEERSt13basic_ostreamIT_T0_ES6_)
  store i32 -744094278, i32* %16
  br label %215

; <label>:215:                                    ; preds = %212, %177, %173, %170, %167, %160, %159, %129, %101, %98, %40, %20, %19
  br label %17
}

declare dereferenceable(280) %"class.std::basic_istream"* @_ZNSirsERi(%"class.std::basic_istream"*, i32* dereferenceable(4)) #1

declare dereferenceable(272) %"class.std::basic_ostream"* @_ZStlsISt11char_traitsIcEERSt13basic_ostreamIcT_ES5_PKc(%"class.std::basic_ostream"* dereferenceable(272), i8*) #1

declare dereferenceable(272) %"class.std::basic_ostream"* @_ZNSolsEPFRSoS_E(%"class.std::basic_ostream"*, %"class.std::basic_ostream"* (%"class.std::basic_ostream"*)*) #1

declare dereferenceable(272) %"class.std::basic_ostream"* @_ZSt4endlIcSt11char_traitsIcEERSt13basic_ostreamIT_T0_ES6_(%"class.std::basic_ostream"* dereferenceable(272)) #1

; Function Attrs: noinline uwtable
define internal void @_GLOBAL__sub_I_s133469986.cpp() #0 section ".text.startup" {
  call void @__cxx_global_var_init()
  ret void
}

attributes #0 = { noinline uwtable "correctly-rounded-divide-sqrt-fp-math"="false" "disable-tail-calls"="false" "less-precise-fpmad"="false" "no-frame-pointer-elim"="true" "no-frame-pointer-elim-non-leaf" "no-infs-fp-math"="false" "no-jump-tables"="false" "no-nans-fp-math"="false" "no-signed-zeros-fp-math"="false" "no-trapping-math"="false" "stack-protector-buffer-size"="8" "target-cpu"="x86-64" "target-features"="+fxsr,+mmx,+sse,+sse2,+x87" "unsafe-fp-math"="false" "use-soft-float"="false" }
attributes #1 = { "correctly-rounded-divide-sqrt-fp-math"="false" "disable-tail-calls"="false" "less-precise-fpmad"="false" "no-frame-pointer-elim"="true" "no-frame-pointer-elim-non-leaf" "no-infs-fp-math"="false" "no-nans-fp-math"="false" "no-signed-zeros-fp-math"="false" "no-trapping-math"="false" "stack-protector-buffer-size"="8" "target-cpu"="x86-64" "target-features"="+fxsr,+mmx,+sse,+sse2,+x87" "unsafe-fp-math"="false" "use-soft-float"="false" }
attributes #2 = { nounwind "correctly-rounded-divide-sqrt-fp-math"="false" "disable-tail-calls"="false" "less-precise-fpmad"="false" "no-frame-pointer-elim"="true" "no-frame-pointer-elim-non-leaf" "no-infs-fp-math"="false" "no-nans-fp-math"="false" "no-signed-zeros-fp-math"="false" "no-trapping-math"="false" "stack-protector-buffer-size"="8" "target-cpu"="x86-64" "target-features"="+fxsr,+mmx,+sse,+sse2,+x87" "unsafe-fp-math"="false" "use-soft-float"="false" }
attributes #3 = { nounwind }
attributes #4 = { noinline norecurse uwtable "correctly-rounded-divide-sqrt-fp-math"="false" "disable-tail-calls"="false" "less-precise-fpmad"="false" "no-frame-pointer-elim"="true" "no-frame-pointer-elim-non-leaf" "no-infs-fp-math"="false" "no-jump-tables"="false" "no-nans-fp-math"="false" "no-signed-zeros-fp-math"="false" "no-trapping-math"="false" "stack-protector-buffer-size"="8" "target-cpu"="x86-64" "target-features"="+fxsr,+mmx,+sse,+sse2,+x87" "unsafe-fp-math"="false" "use-soft-float"="false" }

!llvm.ident = !{!0}

!0 = !{!"Obfuscator-LLVM clang version 4.0.1  (based on Obfuscator-LLVM 4.0.1)"}
