; ModuleID = 'Project_CodeNet_C++1400/p03608/s861613019.cpp'
source_filename = "Project_CodeNet_C++1400/p03608/s861613019.cpp"
target datalayout = "e-m:e-i64:64-f80:128-n8:16:32:64-S128"
target triple = "x86_64-unknown-linux-gnu"

%"class.std::ios_base::Init" = type { i8 }
%"class.std::basic_istream" = type { i32 (...)**, i64, %"class.std::basic_ios" }
%"class.std::basic_ios" = type { %"class.std::ios_base", %"class.std::basic_ostream"*, i8, i8, %"class.std::basic_streambuf"*, %"class.std::ctype"*, %"class.std::num_put"*, %"class.std::num_get"* }
%"class.std::ios_base" = type { i32 (...)**, i64, i64, i32, i32, i32, %"struct.std::ios_base::_Callback_list"*, %"struct.std::ios_base::_Words", [8 x %"struct.std::ios_base::_Words"], i32, %"struct.std::ios_base::_Words"*, %"class.std::locale" }
%"struct.std::ios_base::_Callback_list" = type { %"struct.std::ios_base::_Callback_list"*, void (i32, %"class.std::ios_base"*, i32)*, i32, i32 }
%"struct.std::ios_base::_Words" = type { i8*, i64 }
%"class.std::locale" = type { %"class.std::locale::_Impl"* }
%"class.std::locale::_Impl" = type { i32, %"class.std::locale::facet"**, i64, %"class.std::locale::facet"**, i8** }
%"class.std::locale::facet" = type <{ i32 (...)**, i32, [4 x i8] }>
%"class.std::basic_ostream" = type { i32 (...)**, %"class.std::basic_ios" }
%"class.std::basic_streambuf" = type { i32 (...)**, i8*, i8*, i8*, i8*, i8*, i8*, %"class.std::locale" }
%"class.std::ctype" = type <{ %"class.std::locale::facet.base", [4 x i8], %struct.__locale_struct*, i8, [7 x i8], i32*, i32*, i16*, i8, [256 x i8], [256 x i8], i8, [6 x i8] }>
%"class.std::locale::facet.base" = type <{ i32 (...)**, i32 }>
%struct.__locale_struct = type { [13 x %struct.__locale_data*], i16*, i32*, i32*, [13 x i8*] }
%struct.__locale_data = type opaque
%"class.std::num_put" = type { %"class.std::locale::facet.base", [4 x i8] }
%"class.std::num_get" = type { %"class.std::locale::facet.base", [4 x i8] }
%"class.std::__debug::vector" = type { %"class.__gnu_debug::_Safe_container.base", %"class.std::__cxx1998::vector", %"class.__gnu_debug::_Safe_vector" }
%"class.__gnu_debug::_Safe_container.base" = type { %"class.__gnu_debug::_Safe_sequence.base" }
%"class.__gnu_debug::_Safe_sequence.base" = type { %"class.__gnu_debug::_Safe_sequence_base.base" }
%"class.__gnu_debug::_Safe_sequence_base.base" = type <{ %"class.__gnu_debug::_Safe_iterator_base"*, %"class.__gnu_debug::_Safe_iterator_base"*, i32 }>
%"class.__gnu_debug::_Safe_iterator_base" = type { %"class.__gnu_debug::_Safe_sequence_base"*, i32, %"class.__gnu_debug::_Safe_iterator_base"*, %"class.__gnu_debug::_Safe_iterator_base"* }
%"class.__gnu_debug::_Safe_sequence_base" = type <{ %"class.__gnu_debug::_Safe_iterator_base"*, %"class.__gnu_debug::_Safe_iterator_base"*, i32, [4 x i8] }>
%"class.std::__cxx1998::vector" = type { %"struct.std::__cxx1998::_Vector_base" }
%"struct.std::__cxx1998::_Vector_base" = type { %"struct.std::__cxx1998::_Vector_base<int, std::allocator<int> >::_Vector_impl" }
%"struct.std::__cxx1998::_Vector_base<int, std::allocator<int> >::_Vector_impl" = type { i32*, i32*, i32* }
%"class.__gnu_debug::_Safe_vector" = type { i64 }
%"class.std::allocator" = type { i8 }
%"class.__gnu_debug::_Safe_iterator" = type { %"class.__gnu_cxx::__normal_iterator", %"class.__gnu_debug::_Safe_iterator_base" }
%"class.__gnu_cxx::__normal_iterator" = type { i32* }
%"class.std::__debug::vector.0" = type { %"class.__gnu_debug::_Safe_container.base.4", %"class.std::__cxx1998::vector.5", %"class.__gnu_debug::_Safe_vector.21" }
%"class.__gnu_debug::_Safe_container.base.4" = type { %"class.__gnu_debug::_Safe_sequence.base.3" }
%"class.__gnu_debug::_Safe_sequence.base.3" = type { %"class.__gnu_debug::_Safe_sequence_base.base" }
%"class.std::__cxx1998::vector.5" = type { %"struct.std::__cxx1998::_Vector_base.6" }
%"struct.std::__cxx1998::_Vector_base.6" = type { %"struct.std::__cxx1998::_Vector_base<std::__debug::vector<std::pair<int, int>, std::allocator<std::pair<int, int> > >, std::allocator<std::__debug::vector<std::pair<int, int>, std::allocator<std::pair<int, int> > > > >::_Vector_impl" }
%"struct.std::__cxx1998::_Vector_base<std::__debug::vector<std::pair<int, int>, std::allocator<std::pair<int, int> > >, std::allocator<std::__debug::vector<std::pair<int, int>, std::allocator<std::pair<int, int> > > > >::_Vector_impl" = type { %"class.std::__debug::vector.10"*, %"class.std::__debug::vector.10"*, %"class.std::__debug::vector.10"* }
%"class.std::__debug::vector.10" = type { %"class.__gnu_debug::_Safe_container.base.14", %"class.std::__cxx1998::vector.15", %"class.__gnu_debug::_Safe_vector.20" }
%"class.__gnu_debug::_Safe_container.base.14" = type { %"class.__gnu_debug::_Safe_sequence.base.13" }
%"class.__gnu_debug::_Safe_sequence.base.13" = type { %"class.__gnu_debug::_Safe_sequence_base.base" }
%"class.std::__cxx1998::vector.15" = type { %"struct.std::__cxx1998::_Vector_base.16" }
%"struct.std::__cxx1998::_Vector_base.16" = type { %"struct.std::__cxx1998::_Vector_base<std::pair<int, int>, std::allocator<std::pair<int, int> > >::_Vector_impl" }
%"struct.std::__cxx1998::_Vector_base<std::pair<int, int>, std::allocator<std::pair<int, int> > >::_Vector_impl" = type { %"struct.std::pair"*, %"struct.std::pair"*, %"struct.std::pair"* }
%"struct.std::pair" = type { i32, i32 }
%"class.__gnu_debug::_Safe_vector.20" = type { i64 }
%"class.__gnu_debug::_Safe_vector.21" = type { i64 }
%"class.std::allocator.7" = type { i8 }
%"class.std::__debug::vector.22" = type { %"class.__gnu_debug::_Safe_container.base.26", %"class.std::__cxx1998::vector.27", %"class.__gnu_debug::_Safe_vector.32" }
%"class.__gnu_debug::_Safe_container.base.26" = type { %"class.__gnu_debug::_Safe_sequence.base.25" }
%"class.__gnu_debug::_Safe_sequence.base.25" = type { %"class.__gnu_debug::_Safe_sequence_base.base" }
%"class.std::__cxx1998::vector.27" = type { %"struct.std::__cxx1998::_Vector_base.28" }
%"struct.std::__cxx1998::_Vector_base.28" = type { %"struct.std::__cxx1998::_Vector_base<std::__debug::vector<int, std::allocator<int> >, std::allocator<std::__debug::vector<int, std::allocator<int> > > >::_Vector_impl" }
%"struct.std::__cxx1998::_Vector_base<std::__debug::vector<int, std::allocator<int> >, std::allocator<std::__debug::vector<int, std::allocator<int> > > >::_Vector_impl" = type { %"class.std::__debug::vector"*, %"class.std::__debug::vector"*, %"class.std::__debug::vector"* }
%"class.__gnu_debug::_Safe_vector.32" = type { i64 }
%"class.std::allocator.29" = type { i8 }
%"class.std::queue" = type { %"class.std::__debug::deque" }
%"class.std::__debug::deque" = type { %"class.__gnu_debug::_Safe_container.base.36", %"class.std::__cxx1998::deque" }
%"class.__gnu_debug::_Safe_container.base.36" = type { %"class.__gnu_debug::_Safe_sequence.base.35" }
%"class.__gnu_debug::_Safe_sequence.base.35" = type { %"class.__gnu_debug::_Safe_sequence_base.base" }
%"class.std::__cxx1998::deque" = type { %"class.std::__cxx1998::_Deque_base" }
%"class.std::__cxx1998::_Deque_base" = type { %"struct.std::__cxx1998::_Deque_base<int, std::allocator<int> >::_Deque_impl" }
%"struct.std::__cxx1998::_Deque_base<int, std::allocator<int> >::_Deque_impl" = type { i32**, i64, %"struct.std::__cxx1998::_Deque_iterator", %"struct.std::__cxx1998::_Deque_iterator" }
%"struct.std::__cxx1998::_Deque_iterator" = type { i32*, i32*, i32*, i32** }
%"class.__gnu_debug::_Safe_iterator.37" = type { %"class.__gnu_cxx::__normal_iterator.38", %"class.__gnu_debug::_Safe_iterator_base" }
%"class.__gnu_cxx::__normal_iterator.38" = type { %"struct.std::pair"* }
%"class.__gnu_cxx::new_allocator" = type { i8 }
%"class.__gnu_debug::_Safe_container" = type { %"class.__gnu_debug::_Safe_sequence.base", [4 x i8] }
%"class.__gnu_debug::_Error_formatter" = type <{ i8*, i64, [9 x %"struct.__gnu_debug::_Error_formatter::_Parameter"], i64, i8*, i64, i64, i8, i8, [6 x i8] }>
%"struct.__gnu_debug::_Error_formatter::_Parameter" = type { i32, %union.anon }
%union.anon = type { %struct.anon }
%struct.anon = type { i8*, i8*, %"class.std::type_info"*, i32, i32, i8*, %"class.std::type_info"* }
%"class.std::type_info" = type { i32 (...)**, i8* }
%"struct.__gnu_cxx::__ops::_Iter_less_iter" = type { i8 }
%"class.__gnu_cxx::new_allocator.8" = type { i8 }
%"class.__gnu_debug::_Safe_container.1" = type { %"class.__gnu_debug::_Safe_sequence.base.3", [4 x i8] }
%"class.__gnu_cxx::new_allocator.30" = type { i8 }
%"class.__gnu_debug::_Safe_container.23" = type { %"class.__gnu_debug::_Safe_sequence.base.25", [4 x i8] }
%"class.__gnu_debug::_Safe_container.33" = type { %"class.__gnu_debug::_Safe_sequence.base.35", [4 x i8] }
%"class.__gnu_cxx::__scoped_lock" = type { %"class.__gnu_cxx::__mutex"* }
%"class.__gnu_cxx::__mutex" = type { %union.pthread_mutex_t }
%union.pthread_mutex_t = type { %"struct.(anonymous union)::__pthread_mutex_s" }
%"struct.(anonymous union)::__pthread_mutex_s" = type { i32, i32, i32, i32, i32, i16, i16, %struct.__pthread_internal_list }
%struct.__pthread_internal_list = type { %struct.__pthread_internal_list*, %struct.__pthread_internal_list* }
%"class.__gnu_debug::_Safe_sequence" = type { %"class.__gnu_debug::_Safe_sequence_base.base", [4 x i8] }
%"class.__gnu_debug::_Safe_sequence.34" = type { %"class.__gnu_debug::_Safe_sequence_base.base", [4 x i8] }
%"class.std::allocator.39" = type { i8 }
%"class.__gnu_cxx::new_allocator.40" = type { i8 }
%"class.__gnu_debug::_Safe_sequence.24" = type { %"class.__gnu_debug::_Safe_sequence_base.base", [4 x i8] }
%"class.__gnu_debug::_Safe_sequence.2" = type { %"class.__gnu_debug::_Safe_sequence_base.base", [4 x i8] }
%"class.__gnu_debug::_Safe_container.11" = type { %"class.__gnu_debug::_Safe_sequence.base.13", [4 x i8] }
%"class.std::allocator.17" = type { i8 }
%"class.__gnu_debug::_Safe_sequence.12" = type { %"class.__gnu_debug::_Safe_sequence_base.base", [4 x i8] }
%"class.__gnu_cxx::new_allocator.18" = type { i8 }
%"struct.__gnu_debug::_Error_formatter::_Is_sequence" = type { i8 }
%struct.anon.42 = type { i8*, i8*, %"class.std::type_info"* }
%struct.anon.43 = type { i8*, i64 }
%"struct.__gnu_debug::_Error_formatter::_Is_iterator" = type { i8 }
%"struct.std::pair.45" = type <{ i64, i32, [4 x i8] }>
%"struct.std::random_access_iterator_tag" = type { i8 }
%"struct.__gnu_cxx::__ops::_Iter_less_val" = type { i8 }
%"class.__gnu_cxx::__concurrence_lock_error" = type { %"class.std::exception" }
%"class.std::exception" = type { i32 (...)** }
%"class.__gnu_cxx::__concurrence_unlock_error" = type { %"class.std::exception" }
%"struct.__gnu_cxx::__ops::_Val_less_iter" = type { i8 }
%"class.std::move_iterator" = type { %"struct.std::pair"* }
%"class.__gnu_cxx::__normal_iterator.46" = type { i32* }
%"struct.std::__false_type" = type { i8 }
%"struct.std::integral_constant" = type { i8 }
%"struct.__gnu_cxx::__allocator_always_compares_equal" = type { i8 }
%"class.__gnu_debug::_Equal_to" = type { %"struct.std::__cxx1998::_Deque_iterator.47" }
%"struct.std::__cxx1998::_Deque_iterator.47" = type { i32*, i32*, i32*, i32** }
%"class.__gnu_debug::_Safe_iterator.48" = type { %"struct.std::__cxx1998::_Deque_iterator", %"class.__gnu_debug::_Safe_iterator_base" }
%"class.__gnu_debug::_Safe_iterator.49" = type { %"struct.std::__cxx1998::_Deque_iterator.47", %"class.__gnu_debug::_Safe_iterator_base" }

$_ZNSaIiEC2Ev = comdat any

$_ZNSt7__debug6vectorIiSaIiEEC2EmRKS1_ = comdat any

$_ZNSaIiED2Ev = comdat any

$_ZNSt7__debug6vectorIiSaIiEEixEm = comdat any

$_ZSt4sortIN11__gnu_debug14_Safe_iteratorIN9__gnu_cxx17__normal_iteratorIPiNSt9__cxx19986vectorIiSaIiEEEEENSt7__debug6vectorIiS7_EEEEEvT_SE_ = comdat any

$_ZNSt7__debug6vectorIiSaIiEE5beginEv = comdat any

$_ZNSt7__debug6vectorIiSaIiEE3endEv = comdat any

$_ZN11__gnu_debug14_Safe_iteratorIN9__gnu_cxx17__normal_iteratorIPiNSt9__cxx19986vectorIiSaIiEEEEENSt7__debug6vectorIiS6_EEED2Ev = comdat any

$_ZNSaINSt7__debug6vectorISt4pairIiiESaIS2_EEEEC2Ev = comdat any

$_ZNSt7__debug6vectorINS0_ISt4pairIiiESaIS2_EEESaIS4_EEC2EmRKS5_ = comdat any

$_ZNSaINSt7__debug6vectorISt4pairIiiESaIS2_EEEED2Ev = comdat any

$_ZNSt7__debug6vectorINS0_ISt4pairIiiESaIS2_EEESaIS4_EEixEm = comdat any

$_ZNSt7__debug6vectorISt4pairIiiESaIS2_EE9push_backIS2_EEN9__gnu_cxx11__enable_ifIXntsr3std10__are_sameIT_bEE7__valueEvE6__typeEOS2_ = comdat any

$_ZSt9make_pairIRiS0_ESt4pairINSt17__decay_and_stripIT_E6__typeENS2_IT0_E6__typeEEOS3_OS6_ = comdat any

$_ZNSaINSt7__debug6vectorIiSaIiEEEEC2Ev = comdat any

$_ZNSt7__debug6vectorINS0_IiSaIiEEESaIS2_EEC2EmRKS2_RKS3_ = comdat any

$_ZNSaINSt7__debug6vectorIiSaIiEEEED2Ev = comdat any

$_ZNSt7__debug6vectorIiSaIiEED2Ev = comdat any

$_ZNSt7__debug5dequeIiSaIiEEC2Ev = comdat any

$_ZNSt5queueIiNSt7__debug5dequeIiSaIiEEEEC2EOS3_ = comdat any

$_ZNSt7__debug5dequeIiSaIiEED2Ev = comdat any

$_ZNSt5queueIiNSt7__debug5dequeIiSaIiEEEE4pushERKi = comdat any

$_ZNSt7__debug6vectorIiSaIiEEC2EmRKiRKS1_ = comdat any

$_ZNKSt5queueIiNSt7__debug5dequeIiSaIiEEEE5emptyEv = comdat any

$_ZNSt5queueIiNSt7__debug5dequeIiSaIiEEEE5frontEv = comdat any

$_ZNSt5queueIiNSt7__debug5dequeIiSaIiEEEE3popEv = comdat any

$_ZNSt7__debug6vectorISt4pairIiiESaIS2_EE5beginEv = comdat any

$_ZNSt7__debug6vectorISt4pairIiiESaIS2_EE3endEv = comdat any

$_ZN11__gnu_debugneIN9__gnu_cxx17__normal_iteratorIPSt4pairIiiENSt9__cxx19986vectorIS4_SaIS4_EEEEENSt7__debug6vectorIS4_S8_EEEEbRKNS_14_Safe_iteratorIT_T0_EESJ_ = comdat any

$_ZNK11__gnu_debug14_Safe_iteratorIN9__gnu_cxx17__normal_iteratorIPSt4pairIiiENSt9__cxx19986vectorIS4_SaIS4_EEEEENSt7__debug6vectorIS4_S8_EEEdeEv = comdat any

$_ZN11__gnu_debug14_Safe_iteratorIN9__gnu_cxx17__normal_iteratorIPSt4pairIiiENSt9__cxx19986vectorIS4_SaIS4_EEEEENSt7__debug6vectorIS4_S8_EEEppEv = comdat any

$_ZN11__gnu_debug14_Safe_iteratorIN9__gnu_cxx17__normal_iteratorIPSt4pairIiiENSt9__cxx19986vectorIS4_SaIS4_EEEEENSt7__debug6vectorIS4_S8_EEED2Ev = comdat any

$_ZNSt7__debug6vectorINS0_IiSaIiEEESaIS2_EEixEm = comdat any

$_ZNSt5queueIiNSt7__debug5dequeIiSaIiEEEED2Ev = comdat any

$_ZSt3minIiERKT_S2_S2_ = comdat any

$_ZSt16next_permutationIN11__gnu_debug14_Safe_iteratorIN9__gnu_cxx17__normal_iteratorIPiNSt9__cxx19986vectorIiSaIiEEEEENSt7__debug6vectorIiS7_EEEEEbT_SE_ = comdat any

$_ZNSt7__debug6vectorINS0_IiSaIiEEESaIS2_EED2Ev = comdat any

$_ZNSt7__debug6vectorINS0_ISt4pairIiiESaIS2_EEESaIS4_EED2Ev = comdat any

$_ZN11__gnu_debug19_Safe_iterator_baseD2Ev = comdat any

$__clang_call_terminate = comdat any

$_ZSt7forwardIRiEOT_RNSt16remove_referenceIS1_E4typeE = comdat any

$_ZNSt4pairIiiEC2IRiS2_vEEOT_OT0_ = comdat any

$_ZNSt9__cxx19986vectorIiSaIiEED2Ev = comdat any

$_ZN11__gnu_debug15_Safe_containerINSt7__debug6vectorIiSaIiEEES3_NS_14_Safe_sequenceELb1EED2Ev = comdat any

$_ZSt8_DestroyIPiiEvT_S1_RSaIT0_E = comdat any

$_ZNSt9__cxx199812_Vector_baseIiSaIiEE19_M_get_Tp_allocatorEv = comdat any

$_ZNSt9__cxx199812_Vector_baseIiSaIiEED2Ev = comdat any

$_ZSt8_DestroyIPiEvT_S1_ = comdat any

$_ZNSt12_Destroy_auxILb1EE9__destroyIPiEEvT_S3_ = comdat any

$_ZNSt9__cxx199812_Vector_baseIiSaIiEE13_M_deallocateEPim = comdat any

$_ZNSt9__cxx199812_Vector_baseIiSaIiEE12_Vector_implD2Ev = comdat any

$_ZNSt16allocator_traitsISaIiEE10deallocateERS0_Pim = comdat any

$_ZN9__gnu_cxx13new_allocatorIiE10deallocateEPim = comdat any

$_ZN9__gnu_cxx13new_allocatorIiED2Ev = comdat any

$_ZN11__gnu_debug14_Safe_sequenceINSt7__debug6vectorIiSaIiEEEED2Ev = comdat any

$_ZN11__gnu_debug19_Safe_sequence_baseD2Ev = comdat any

$_ZN11__gnu_debug15_Safe_containerINSt7__debug5dequeIiSaIiEEES3_NS_14_Safe_sequenceELb1EEC2Ev = comdat any

$_ZNSt9__cxx19985dequeIiSaIiEEC2Ev = comdat any

$_ZN11__gnu_debug15_Safe_containerINSt7__debug5dequeIiSaIiEEES3_NS_14_Safe_sequenceELb1EED2Ev = comdat any

$_ZN11__gnu_debug14_Safe_sequenceINSt7__debug5dequeIiSaIiEEEEC2Ev = comdat any

$_ZN11__gnu_debug19_Safe_sequence_baseC2Ev = comdat any

$_ZNSt9__cxx199811_Deque_baseIiSaIiEEC2Ev = comdat any

$_ZNSt9__cxx199811_Deque_baseIiSaIiEE11_Deque_implC2Ev = comdat any

$_ZNSt9__cxx199811_Deque_baseIiSaIiEE17_M_initialize_mapEm = comdat any

$_ZNSt9__cxx199811_Deque_baseIiSaIiEE11_Deque_implD2Ev = comdat any

$_ZNSt9__cxx199815_Deque_iteratorIiRiPiEC2Ev = comdat any

$_ZN9__gnu_cxx13new_allocatorIiEC2Ev = comdat any

$_ZNSt9__cxx199816__deque_buf_sizeEm = comdat any

$_ZSt3maxImERKT_S2_S2_ = comdat any

$_ZNSt9__cxx199811_Deque_baseIiSaIiEE15_M_allocate_mapEm = comdat any

$_ZNSt9__cxx199811_Deque_baseIiSaIiEE15_M_create_nodesEPPiS4_ = comdat any

$_ZNSt9__cxx199811_Deque_baseIiSaIiEE17_M_deallocate_mapEPPim = comdat any

$_ZNSt9__cxx199815_Deque_iteratorIiRiPiE11_M_set_nodeEPS2_ = comdat any

$_ZNKSt9__cxx199811_Deque_baseIiSaIiEE20_M_get_map_allocatorEv = comdat any

$_ZNSt16allocator_traitsISaIPiEE8allocateERS1_m = comdat any

$_ZNSaIPiED2Ev = comdat any

$_ZNKSt9__cxx199811_Deque_baseIiSaIiEE19_M_get_Tp_allocatorEv = comdat any

$_ZNSaIPiEC2IiEERKSaIT_E = comdat any

$_ZN9__gnu_cxx13new_allocatorIPiEC2Ev = comdat any

$_ZN9__gnu_cxx13new_allocatorIPiE8allocateEmPKv = comdat any

$_ZNK9__gnu_cxx13new_allocatorIPiE8max_sizeEv = comdat any

$_ZN9__gnu_cxx13new_allocatorIPiED2Ev = comdat any

$_ZNSt9__cxx199811_Deque_baseIiSaIiEE16_M_allocate_nodeEv = comdat any

$_ZNSt9__cxx199811_Deque_baseIiSaIiEE16_M_destroy_nodesEPPiS4_ = comdat any

$_ZNSt16allocator_traitsISaIiEE8allocateERS0_m = comdat any

$_ZN9__gnu_cxx13new_allocatorIiE8allocateEmPKv = comdat any

$_ZNK9__gnu_cxx13new_allocatorIiE8max_sizeEv = comdat any

$_ZNSt9__cxx199811_Deque_baseIiSaIiEE18_M_deallocate_nodeEPi = comdat any

$_ZNSt16allocator_traitsISaIPiEE10deallocateERS1_PS0_m = comdat any

$_ZN9__gnu_cxx13new_allocatorIPiE10deallocateEPS1_m = comdat any

$_ZNSt9__cxx199815_Deque_iteratorIiRiPiE14_S_buffer_sizeEv = comdat any

$_ZN11__gnu_debug14_Safe_sequenceINSt7__debug5dequeIiSaIiEEEED2Ev = comdat any

$_ZNSt9__cxx19985dequeIiSaIiEED2Ev = comdat any

$_ZNSt9__cxx19985dequeIiSaIiEE15_M_destroy_dataENS_15_Deque_iteratorIiRiPiEES6_RKS1_ = comdat any

$_ZNSt9__cxx19985dequeIiSaIiEE5beginEv = comdat any

$_ZNSt9__cxx19985dequeIiSaIiEE3endEv = comdat any

$_ZNSt9__cxx199811_Deque_baseIiSaIiEE19_M_get_Tp_allocatorEv = comdat any

$_ZNSt9__cxx199811_Deque_baseIiSaIiEED2Ev = comdat any

$_ZNSt9__cxx199815_Deque_iteratorIiRiPiEC2ERKS3_ = comdat any

$_ZNSt9__cxx19986vectorINSt7__debug6vectorIiSaIiEEESaIS4_EED2Ev = comdat any

$_ZN11__gnu_debug15_Safe_containerINSt7__debug6vectorINS2_IiSaIiEEESaIS4_EEES5_NS_14_Safe_sequenceELb1EED2Ev = comdat any

$_ZSt8_DestroyIPNSt7__debug6vectorIiSaIiEEES3_EvT_S5_RSaIT0_E = comdat any

$_ZNSt9__cxx199812_Vector_baseINSt7__debug6vectorIiSaIiEEESaIS4_EE19_M_get_Tp_allocatorEv = comdat any

$_ZNSt9__cxx199812_Vector_baseINSt7__debug6vectorIiSaIiEEESaIS4_EED2Ev = comdat any

$_ZSt8_DestroyIPNSt7__debug6vectorIiSaIiEEEEvT_S5_ = comdat any

$_ZNSt12_Destroy_auxILb0EE9__destroyIPNSt7__debug6vectorIiSaIiEEEEEvT_S7_ = comdat any

$_ZSt8_DestroyINSt7__debug6vectorIiSaIiEEEEvPT_ = comdat any

$_ZSt11__addressofINSt7__debug6vectorIiSaIiEEEEPT_RS4_ = comdat any

$_ZNSt9__cxx199812_Vector_baseINSt7__debug6vectorIiSaIiEEESaIS4_EE13_M_deallocateEPS4_m = comdat any

$_ZNSt9__cxx199812_Vector_baseINSt7__debug6vectorIiSaIiEEESaIS4_EE12_Vector_implD2Ev = comdat any

$_ZNSt16allocator_traitsISaINSt7__debug6vectorIiSaIiEEEEE10deallocateERS4_PS3_m = comdat any

$_ZN9__gnu_cxx13new_allocatorINSt7__debug6vectorIiSaIiEEEE10deallocateEPS4_m = comdat any

$_ZN9__gnu_cxx13new_allocatorINSt7__debug6vectorIiSaIiEEEED2Ev = comdat any

$_ZN11__gnu_debug14_Safe_sequenceINSt7__debug6vectorINS2_IiSaIiEEESaIS4_EEEED2Ev = comdat any

$_ZNSt9__cxx19986vectorINSt7__debug6vectorISt4pairIiiESaIS4_EEESaIS6_EED2Ev = comdat any

$_ZN11__gnu_debug15_Safe_containerINSt7__debug6vectorINS2_ISt4pairIiiESaIS4_EEESaIS6_EEES7_NS_14_Safe_sequenceELb1EED2Ev = comdat any

$_ZSt8_DestroyIPNSt7__debug6vectorISt4pairIiiESaIS3_EEES5_EvT_S7_RSaIT0_E = comdat any

$_ZNSt9__cxx199812_Vector_baseINSt7__debug6vectorISt4pairIiiESaIS4_EEESaIS6_EE19_M_get_Tp_allocatorEv = comdat any

$_ZNSt9__cxx199812_Vector_baseINSt7__debug6vectorISt4pairIiiESaIS4_EEESaIS6_EED2Ev = comdat any

$_ZSt8_DestroyIPNSt7__debug6vectorISt4pairIiiESaIS3_EEEEvT_S7_ = comdat any

$_ZNSt12_Destroy_auxILb0EE9__destroyIPNSt7__debug6vectorISt4pairIiiESaIS5_EEEEEvT_S9_ = comdat any

$_ZSt8_DestroyINSt7__debug6vectorISt4pairIiiESaIS3_EEEEvPT_ = comdat any

$_ZSt11__addressofINSt7__debug6vectorISt4pairIiiESaIS3_EEEEPT_RS6_ = comdat any

$_ZNSt7__debug6vectorISt4pairIiiESaIS2_EED2Ev = comdat any

$_ZNSt9__cxx19986vectorISt4pairIiiESaIS2_EED2Ev = comdat any

$_ZN11__gnu_debug15_Safe_containerINSt7__debug6vectorISt4pairIiiESaIS4_EEES5_NS_14_Safe_sequenceELb1EED2Ev = comdat any

$_ZSt8_DestroyIPSt4pairIiiES1_EvT_S3_RSaIT0_E = comdat any

$_ZNSt9__cxx199812_Vector_baseISt4pairIiiESaIS2_EE19_M_get_Tp_allocatorEv = comdat any

$_ZNSt9__cxx199812_Vector_baseISt4pairIiiESaIS2_EED2Ev = comdat any

$_ZSt8_DestroyIPSt4pairIiiEEvT_S3_ = comdat any

$_ZNSt12_Destroy_auxILb1EE9__destroyIPSt4pairIiiEEEvT_S5_ = comdat any

$_ZNSt9__cxx199812_Vector_baseISt4pairIiiESaIS2_EE13_M_deallocateEPS2_m = comdat any

$_ZNSt9__cxx199812_Vector_baseISt4pairIiiESaIS2_EE12_Vector_implD2Ev = comdat any

$_ZNSt16allocator_traitsISaISt4pairIiiEEE10deallocateERS2_PS1_m = comdat any

$_ZN9__gnu_cxx13new_allocatorISt4pairIiiEE10deallocateEPS2_m = comdat any

$_ZNSaISt4pairIiiEED2Ev = comdat any

$_ZN9__gnu_cxx13new_allocatorISt4pairIiiEED2Ev = comdat any

$_ZN11__gnu_debug14_Safe_sequenceINSt7__debug6vectorISt4pairIiiESaIS4_EEEED2Ev = comdat any

$_ZNSt9__cxx199812_Vector_baseINSt7__debug6vectorISt4pairIiiESaIS4_EEESaIS6_EE13_M_deallocateEPS6_m = comdat any

$_ZNSt9__cxx199812_Vector_baseINSt7__debug6vectorISt4pairIiiESaIS4_EEESaIS6_EE12_Vector_implD2Ev = comdat any

$_ZNSt16allocator_traitsISaINSt7__debug6vectorISt4pairIiiESaIS3_EEEEE10deallocateERS6_PS5_m = comdat any

$_ZN9__gnu_cxx13new_allocatorINSt7__debug6vectorISt4pairIiiESaIS4_EEEE10deallocateEPS6_m = comdat any

$_ZN9__gnu_cxx13new_allocatorINSt7__debug6vectorISt4pairIiiESaIS4_EEEED2Ev = comdat any

$_ZN11__gnu_debug14_Safe_sequenceINSt7__debug6vectorINS2_ISt4pairIiiESaIS4_EEESaIS6_EEEED2Ev = comdat any

$_ZN11__gnu_debug15_Safe_containerINSt7__debug6vectorIiSaIiEEES3_NS_14_Safe_sequenceELb1EEC2Ev = comdat any

$_ZNSt9__cxx19986vectorIiSaIiEEC2EmRKS1_ = comdat any

$_ZN11__gnu_debug12_Safe_vectorINSt7__debug6vectorIiSaIiEEENSt9__cxx19986vectorIiS3_EEEC2Em = comdat any

$_ZN11__gnu_debug14_Safe_sequenceINSt7__debug6vectorIiSaIiEEEEC2Ev = comdat any

$_ZNSt9__cxx199812_Vector_baseIiSaIiEEC2EmRKS1_ = comdat any

$_ZNSt9__cxx19986vectorIiSaIiEE21_M_default_initializeEm = comdat any

$_ZNSt9__cxx199812_Vector_baseIiSaIiEE12_Vector_implC2ERKS1_ = comdat any

$_ZNSt9__cxx199812_Vector_baseIiSaIiEE17_M_create_storageEm = comdat any

$_ZN9__gnu_cxx13new_allocatorIiEC2ERKS1_ = comdat any

$_ZNSt9__cxx199812_Vector_baseIiSaIiEE11_M_allocateEm = comdat any

$_ZSt27__uninitialized_default_n_aIPimiET_S1_T0_RSaIT1_E = comdat any

$_ZSt25__uninitialized_default_nIPimET_S1_T0_ = comdat any

$_ZNSt27__uninitialized_default_n_1ILb1EE18__uninit_default_nIPimEET_S3_T0_ = comdat any

$_ZSt6fill_nIPimiET_S1_T0_RKT1_ = comdat any

$_ZSt10__fill_n_aIPimiEN9__gnu_cxx11__enable_ifIXsr11__is_scalarIT1_EE7__valueET_E6__typeES4_T0_RKS3_ = comdat any

$_ZSt12__niter_baseIPiENSt11_Niter_baseIT_E13iterator_typeES2_ = comdat any

$_ZNSt10_Iter_baseIPiLb0EE7_S_baseES0_ = comdat any

$_ZNKSt9__cxx19986vectorIiSaIiEE4sizeEv = comdat any

$_ZN11__gnu_debug16_Error_formatter5_M_atEPKcm = comdat any

$_ZNK11__gnu_debug16_Error_formatter11_M_sequenceINSt7__debug6vectorIiSaIiEEEEERKS0_RKT_PKc = comdat any

$_ZNK11__gnu_debug16_Error_formatter10_M_integerElPKc = comdat any

$_ZNSt7__debug6vectorIiSaIiEE7_M_baseEv = comdat any

$_ZNSt9__cxx19986vectorIiSaIiEEixEm = comdat any

$_ZN11__gnu_debug16_Error_formatterC2EPKcm = comdat any

$_ZN11__gnu_debug16_Error_formatter10_ParameterC2Ev = comdat any

$_ZN11__gnu_debug16_Error_formatter10_ParameterC2INSt7__debug6vectorIiSaIiEEEEERKT_PKcNS0_12_Is_sequenceE = comdat any

$_ZN11__gnu_debug16_Error_formatter10_ParameterC2ElPKc = comdat any

$_ZNSt9__cxx19986vectorIiSaIiEE5beginEv = comdat any

$_ZN11__gnu_debug14_Safe_iteratorIN9__gnu_cxx17__normal_iteratorIPiNSt9__cxx19986vectorIiSaIiEEEEENSt7__debug6vectorIiS6_EEEC2ERKS8_PKNS_19_Safe_sequence_baseE = comdat any

$_ZN9__gnu_cxx17__normal_iteratorIPiNSt9__cxx19986vectorIiSaIiEEEEC2ERKS1_ = comdat any

$_ZNK11__gnu_debug14_Safe_iteratorIN9__gnu_cxx17__normal_iteratorIPiNSt9__cxx19986vectorIiSaIiEEEEENSt7__debug6vectorIiS6_EEE11_M_constantEv = comdat any

$_ZN11__gnu_debug19_Safe_iterator_baseC2EPKNS_19_Safe_sequence_baseEb = comdat any

$_ZNK11__gnu_debug16_Error_formatter11_M_iteratorINS_14_Safe_iteratorIN9__gnu_cxx17__normal_iteratorIPiNSt9__cxx19986vectorIiSaIiEEEEENSt7__debug6vectorIiS8_EEEEEERKS0_RKT_PKc = comdat any

$_ZN11__gnu_debug16_Error_formatter10_ParameterC2IN9__gnu_cxx17__normal_iteratorIPiNSt9__cxx19986vectorIiSaIiEEEEENSt7__debug6vectorIiS8_EEEERKNS_14_Safe_iteratorIT_T0_EEPKcNS0_12_Is_iteratorE = comdat any

$_ZNK11__gnu_debug14_Safe_iteratorIN9__gnu_cxx17__normal_iteratorIPiNSt9__cxx19986vectorIiSaIiEEEEENSt7__debug6vectorIiS6_EEE15_M_get_sequenceEv = comdat any

$_ZNK11__gnu_debug14_Safe_iteratorIN9__gnu_cxx17__normal_iteratorIPiNSt9__cxx19986vectorIiSaIiEEEEENSt7__debug6vectorIiS6_EEE18_M_is_before_beginEv = comdat any

$_ZNK11__gnu_debug14_Safe_iteratorIN9__gnu_cxx17__normal_iteratorIPiNSt9__cxx19986vectorIiSaIiEEEEENSt7__debug6vectorIiS6_EEE9_M_is_endEv = comdat any

$_ZNK11__gnu_debug14_Safe_iteratorIN9__gnu_cxx17__normal_iteratorIPiNSt9__cxx19986vectorIiSaIiEEEEENSt7__debug6vectorIiS6_EEE11_M_is_beginEv = comdat any

$_ZN11__gnu_debug18_BeforeBeginHelperINSt7__debug6vectorIiSaIiEEEE5_S_IsIN9__gnu_cxx17__normal_iteratorIPiNSt9__cxx19986vectorIiS3_EEEEEEbRKNS_14_Safe_iteratorIT_S4_EE = comdat any

$_ZN9__gnu_cxxeqIPiNSt9__cxx19986vectorIiSaIiEEEEEbRKNS_17__normal_iteratorIT_T0_EESB_ = comdat any

$_ZNK11__gnu_debug14_Safe_iteratorIN9__gnu_cxx17__normal_iteratorIPiNSt9__cxx19986vectorIiSaIiEEEEENSt7__debug6vectorIiS6_EEE4baseEv = comdat any

$_ZNSt9__cxx19986vectorIiSaIiEE3endEv = comdat any

$_ZNK9__gnu_cxx17__normal_iteratorIPiNSt9__cxx19986vectorIiSaIiEEEE4baseEv = comdat any

$_ZN11__gnu_debug13__valid_rangeIN9__gnu_cxx17__normal_iteratorIPiNSt9__cxx19986vectorIiSaIiEEEEENSt7__debug6vectorIiS6_EEEEbRKNS_14_Safe_iteratorIT_T0_EESH_ = comdat any

$_ZSt6__sortIN11__gnu_debug14_Safe_iteratorIN9__gnu_cxx17__normal_iteratorIPiNSt9__cxx19986vectorIiSaIiEEEEENSt7__debug6vectorIiS7_EEEENS2_5__ops15_Iter_less_iterEEvT_SG_T0_ = comdat any

$_ZN11__gnu_debug14_Safe_iteratorIN9__gnu_cxx17__normal_iteratorIPiNSt9__cxx19986vectorIiSaIiEEEEENSt7__debug6vectorIiS6_EEEC2ERKSC_ = comdat any

$_ZN9__gnu_cxx5__ops16__iter_less_iterEv = comdat any

$_ZNK11__gnu_debug14_Safe_iteratorIN9__gnu_cxx17__normal_iteratorIPiNSt9__cxx19986vectorIiSaIiEEEEENSt7__debug6vectorIiS6_EEE14_M_valid_rangeERKSC_ = comdat any

$_ZN11__gnu_debug14__get_distanceIN9__gnu_cxx17__normal_iteratorIPiNSt9__cxx19986vectorIiSaIiEEEEEEESt4pairINSt15iterator_traitsIT_E15difference_typeENS_19_Distance_precisionEERKSB_SH_ = comdat any

$_ZNK11__gnu_debug14_Safe_iteratorIN9__gnu_cxx17__normal_iteratorIPiNSt9__cxx19986vectorIiSaIiEEEEENSt7__debug6vectorIiS6_EEE15_M_is_beginnestEv = comdat any

$_ZN11__gnu_debug14__get_distanceIN9__gnu_cxx17__normal_iteratorIPiNSt9__cxx19986vectorIiSaIiEEEEEEESt4pairINSt15iterator_traitsIT_E15difference_typeENS_19_Distance_precisionEERKSB_SH_St26random_access_iterator_tag = comdat any

$_ZSt9make_pairIlN11__gnu_debug19_Distance_precisionEESt4pairINSt17__decay_and_stripIT_E6__typeENS3_IT0_E6__typeEEOS4_OS7_ = comdat any

$_ZN9__gnu_cxxmiIPiNSt9__cxx19986vectorIiSaIiEEEEENS_17__normal_iteratorIT_T0_E15difference_typeERKS9_SC_ = comdat any

$_ZSt7forwardIlEOT_RNSt16remove_referenceIS0_E4typeE = comdat any

$_ZSt7forwardIN11__gnu_debug19_Distance_precisionEEOT_RNSt16remove_referenceIS2_E4typeE = comdat any

$_ZNSt4pairIlN11__gnu_debug19_Distance_precisionEEC2IlS1_vEEOT_OT0_ = comdat any

$_ZN11__gnu_debug18_BeforeBeginHelperINSt7__debug6vectorIiSaIiEEEE15_S_Is_BeginnestIN9__gnu_cxx17__normal_iteratorIPiNSt9__cxx19986vectorIiS3_EEEEEEbRKNS_14_Safe_iteratorIT_S4_EE = comdat any

$_ZN11__gnu_debugneIN9__gnu_cxx17__normal_iteratorIPiNSt9__cxx19986vectorIiSaIiEEEEENSt7__debug6vectorIiS6_EEEEbRKNS_14_Safe_iteratorIT_T0_EESH_ = comdat any

$_ZSt16__introsort_loopIN11__gnu_debug14_Safe_iteratorIN9__gnu_cxx17__normal_iteratorIPiNSt9__cxx19986vectorIiSaIiEEEEENSt7__debug6vectorIiS7_EEEElNS2_5__ops15_Iter_less_iterEEvT_SG_T0_T1_ = comdat any

$_ZSt4__lgl = comdat any

$_ZN11__gnu_debugmiIN9__gnu_cxx17__normal_iteratorIPiNSt9__cxx19986vectorIiSaIiEEEEENSt7__debug6vectorIiS6_EEEENS_14_Safe_iteratorIT_T0_E15difference_typeERKSF_SI_ = comdat any

$_ZSt22__final_insertion_sortIN11__gnu_debug14_Safe_iteratorIN9__gnu_cxx17__normal_iteratorIPiNSt9__cxx19986vectorIiSaIiEEEEENSt7__debug6vectorIiS7_EEEENS2_5__ops15_Iter_less_iterEEvT_SG_T0_ = comdat any

$_ZN9__gnu_cxxneIPiNSt9__cxx19986vectorIiSaIiEEEEEbRKNS_17__normal_iteratorIT_T0_EESB_ = comdat any

$_ZSt14__partial_sortIN11__gnu_debug14_Safe_iteratorIN9__gnu_cxx17__normal_iteratorIPiNSt9__cxx19986vectorIiSaIiEEEEENSt7__debug6vectorIiS7_EEEENS2_5__ops15_Iter_less_iterEEvT_SG_SG_T0_ = comdat any

$_ZSt27__unguarded_partition_pivotIN11__gnu_debug14_Safe_iteratorIN9__gnu_cxx17__normal_iteratorIPiNSt9__cxx19986vectorIiSaIiEEEEENSt7__debug6vectorIiS7_EEEENS2_5__ops15_Iter_less_iterEET_SG_SG_T0_ = comdat any

$_ZN11__gnu_debug14_Safe_iteratorIN9__gnu_cxx17__normal_iteratorIPiNSt9__cxx19986vectorIiSaIiEEEEENSt7__debug6vectorIiS6_EEEaSERKSC_ = comdat any

$_ZSt13__heap_selectIN11__gnu_debug14_Safe_iteratorIN9__gnu_cxx17__normal_iteratorIPiNSt9__cxx19986vectorIiSaIiEEEEENSt7__debug6vectorIiS7_EEEENS2_5__ops15_Iter_less_iterEEvT_SG_SG_T0_ = comdat any

$_ZSt11__sort_heapIN11__gnu_debug14_Safe_iteratorIN9__gnu_cxx17__normal_iteratorIPiNSt9__cxx19986vectorIiSaIiEEEEENSt7__debug6vectorIiS7_EEEENS2_5__ops15_Iter_less_iterEEvT_SG_T0_ = comdat any

$_ZSt11__make_heapIN11__gnu_debug14_Safe_iteratorIN9__gnu_cxx17__normal_iteratorIPiNSt9__cxx19986vectorIiSaIiEEEEENSt7__debug6vectorIiS7_EEEENS2_5__ops15_Iter_less_iterEEvT_SG_T0_ = comdat any

$_ZN11__gnu_debugltIN9__gnu_cxx17__normal_iteratorIPiNSt9__cxx19986vectorIiSaIiEEEEENSt7__debug6vectorIiS6_EEEEbRKNS_14_Safe_iteratorIT_T0_EESH_ = comdat any

$_ZNK9__gnu_cxx5__ops15_Iter_less_iterclIN11__gnu_debug14_Safe_iteratorINS_17__normal_iteratorIPiNSt9__cxx19986vectorIiSaIiEEEEENSt7__debug6vectorIiS9_EEEESF_EEbT_T0_ = comdat any

$_ZSt10__pop_heapIN11__gnu_debug14_Safe_iteratorIN9__gnu_cxx17__normal_iteratorIPiNSt9__cxx19986vectorIiSaIiEEEEENSt7__debug6vectorIiS7_EEEENS2_5__ops15_Iter_less_iterEEvT_SG_SG_T0_ = comdat any

$_ZN11__gnu_debug14_Safe_iteratorIN9__gnu_cxx17__normal_iteratorIPiNSt9__cxx19986vectorIiSaIiEEEEENSt7__debug6vectorIiS6_EEEppEv = comdat any

$_ZSt4moveIRiEONSt16remove_referenceIT_E4typeEOS2_ = comdat any

$_ZNK11__gnu_debug14_Safe_iteratorIN9__gnu_cxx17__normal_iteratorIPiNSt9__cxx19986vectorIiSaIiEEEEENSt7__debug6vectorIiS6_EEEplERKl = comdat any

$_ZNK11__gnu_debug14_Safe_iteratorIN9__gnu_cxx17__normal_iteratorIPiNSt9__cxx19986vectorIiSaIiEEEEENSt7__debug6vectorIiS6_EEEdeEv = comdat any

$_ZSt13__adjust_heapIN11__gnu_debug14_Safe_iteratorIN9__gnu_cxx17__normal_iteratorIPiNSt9__cxx19986vectorIiSaIiEEEEENSt7__debug6vectorIiS7_EEEEliNS2_5__ops15_Iter_less_iterEEvT_T0_SH_T1_T2_ = comdat any

$_ZNK11__gnu_debug14_Safe_iteratorIN9__gnu_cxx17__normal_iteratorIPiNSt9__cxx19986vectorIiSaIiEEEEENSt7__debug6vectorIiS6_EEE14_M_can_advanceERKl = comdat any

$_ZNK9__gnu_cxx17__normal_iteratorIPiNSt9__cxx19986vectorIiSaIiEEEEplEl = comdat any

$_ZNK11__gnu_debug14_Safe_iteratorIN9__gnu_cxx17__normal_iteratorIPiNSt9__cxx19986vectorIiSaIiEEEEENSt7__debug6vectorIiS6_EEE18_M_dereferenceableEv = comdat any

$_ZNK9__gnu_cxx17__normal_iteratorIPiNSt9__cxx19986vectorIiSaIiEEEEdeEv = comdat any

$_ZSt11__push_heapIN11__gnu_debug14_Safe_iteratorIN9__gnu_cxx17__normal_iteratorIPiNSt9__cxx19986vectorIiSaIiEEEEENSt7__debug6vectorIiS7_EEEEliNS2_5__ops14_Iter_less_valEEvT_T0_SH_T1_T2_ = comdat any

$_ZN9__gnu_cxx5__ops15__iter_comp_valENS0_15_Iter_less_iterE = comdat any

$_ZNK9__gnu_cxx5__ops14_Iter_less_valclIN11__gnu_debug14_Safe_iteratorINS_17__normal_iteratorIPiNSt9__cxx19986vectorIiSaIiEEEEENSt7__debug6vectorIiS9_EEEEiEEbT_RT0_ = comdat any

$_ZN9__gnu_cxxltIPiNSt9__cxx19986vectorIiSaIiEEEEEbRKNS_17__normal_iteratorIT_T0_EESB_ = comdat any

$_ZNK11__gnu_debug14_Safe_iteratorIN9__gnu_cxx17__normal_iteratorIPiNSt9__cxx19986vectorIiSaIiEEEEENSt7__debug6vectorIiS6_EEE16_M_incrementableEv = comdat any

$_ZN9__gnu_cxx13__scoped_lockC2ERNS_7__mutexE = comdat any

$_ZN9__gnu_cxx13__scoped_lockD2Ev = comdat any

$_ZN11__gnu_debug14_Safe_iteratorIN9__gnu_cxx17__normal_iteratorIPiNSt9__cxx19986vectorIiSaIiEEEEENSt7__debug6vectorIiS6_EEE4baseEv = comdat any

$_ZN9__gnu_cxx17__normal_iteratorIPiNSt9__cxx19986vectorIiSaIiEEEEppEv = comdat any

$_ZN9__gnu_cxx7__mutex4lockEv = comdat any

$_ZN9__gnu_cxx30__throw_concurrence_lock_errorEv = comdat any

$_ZN9__gnu_cxx24__concurrence_lock_errorC2Ev = comdat any

$_ZN9__gnu_cxx24__concurrence_lock_errorD2Ev = comdat any

$_ZNSt9exceptionC2Ev = comdat any

$_ZN9__gnu_cxx24__concurrence_lock_errorD0Ev = comdat any

$_ZNK9__gnu_cxx24__concurrence_lock_error4whatEv = comdat any

$_ZN9__gnu_cxx7__mutex6unlockEv = comdat any

$_ZN9__gnu_cxx32__throw_concurrence_unlock_errorEv = comdat any

$_ZN9__gnu_cxx26__concurrence_unlock_errorC2Ev = comdat any

$_ZN9__gnu_cxx26__concurrence_unlock_errorD2Ev = comdat any

$_ZN9__gnu_cxx26__concurrence_unlock_errorD0Ev = comdat any

$_ZNK9__gnu_cxx26__concurrence_unlock_error4whatEv = comdat any

$_ZN11__gnu_debug14_Safe_iteratorIN9__gnu_cxx17__normal_iteratorIPiNSt9__cxx19986vectorIiSaIiEEEEENSt7__debug6vectorIiS6_EEEmmEv = comdat any

$_ZNK11__gnu_debug14_Safe_iteratorIN9__gnu_cxx17__normal_iteratorIPiNSt9__cxx19986vectorIiSaIiEEEEENSt7__debug6vectorIiS6_EEE16_M_decrementableEv = comdat any

$_ZN9__gnu_cxx17__normal_iteratorIPiNSt9__cxx19986vectorIiSaIiEEEEmmEv = comdat any

$_ZSt22__move_median_to_firstIN11__gnu_debug14_Safe_iteratorIN9__gnu_cxx17__normal_iteratorIPiNSt9__cxx19986vectorIiSaIiEEEEENSt7__debug6vectorIiS7_EEEENS2_5__ops15_Iter_less_iterEEvT_SG_SG_SG_T0_ = comdat any

$_ZNK11__gnu_debug14_Safe_iteratorIN9__gnu_cxx17__normal_iteratorIPiNSt9__cxx19986vectorIiSaIiEEEEENSt7__debug6vectorIiS6_EEEmiERKl = comdat any

$_ZSt21__unguarded_partitionIN11__gnu_debug14_Safe_iteratorIN9__gnu_cxx17__normal_iteratorIPiNSt9__cxx19986vectorIiSaIiEEEEENSt7__debug6vectorIiS7_EEEENS2_5__ops15_Iter_less_iterEET_SG_SG_SG_T0_ = comdat any

$_ZSt9iter_swapIN11__gnu_debug14_Safe_iteratorIN9__gnu_cxx17__normal_iteratorIPiNSt9__cxx19986vectorIiSaIiEEEEENSt7__debug6vectorIiS7_EEEESD_EvT_T0_ = comdat any

$_ZSt4swapIiEvRT_S1_ = comdat any

$_ZNK9__gnu_cxx17__normal_iteratorIPiNSt9__cxx19986vectorIiSaIiEEEEmiEl = comdat any

$_ZN11__gnu_debug14_Safe_iteratorIN9__gnu_cxx17__normal_iteratorIPiNSt9__cxx19986vectorIiSaIiEEEEENSt7__debug6vectorIiS6_EEEC2EOSC_ = comdat any

$_ZN11__gnu_debug19_Safe_iterator_baseC2Ev = comdat any

$_ZN9__gnu_cxx17__normal_iteratorIPiNSt9__cxx19986vectorIiSaIiEEEEC2Ev = comdat any

$_ZSt4swapIN9__gnu_cxx17__normal_iteratorIPiNSt9__cxx19986vectorIiSaIiEEEEEEvRT_S9_ = comdat any

$_ZN11__gnu_debug14_Safe_iteratorIN9__gnu_cxx17__normal_iteratorIPiNSt9__cxx19986vectorIiSaIiEEEEENSt7__debug6vectorIiS6_EEE9_M_attachEPNS_19_Safe_sequence_baseE = comdat any

$_ZSt4moveIRN9__gnu_cxx17__normal_iteratorIPiNSt9__cxx19986vectorIiSaIiEEEEEEONSt16remove_referenceIT_E4typeEOSA_ = comdat any

$_ZSt16__insertion_sortIN11__gnu_debug14_Safe_iteratorIN9__gnu_cxx17__normal_iteratorIPiNSt9__cxx19986vectorIiSaIiEEEEENSt7__debug6vectorIiS7_EEEENS2_5__ops15_Iter_less_iterEEvT_SG_T0_ = comdat any

$_ZSt26__unguarded_insertion_sortIN11__gnu_debug14_Safe_iteratorIN9__gnu_cxx17__normal_iteratorIPiNSt9__cxx19986vectorIiSaIiEEEEENSt7__debug6vectorIiS7_EEEENS2_5__ops15_Iter_less_iterEEvT_SG_T0_ = comdat any

$_ZN11__gnu_debugeqIN9__gnu_cxx17__normal_iteratorIPiNSt9__cxx19986vectorIiSaIiEEEEENSt7__debug6vectorIiS6_EEEEbRKNS_14_Safe_iteratorIT_T0_EESH_ = comdat any

$_ZSt13move_backwardIN11__gnu_debug14_Safe_iteratorIN9__gnu_cxx17__normal_iteratorIPiNSt9__cxx19986vectorIiSaIiEEEEENSt7__debug6vectorIiS7_EEEESD_ET0_T_SF_SE_ = comdat any

$_ZSt25__unguarded_linear_insertIN11__gnu_debug14_Safe_iteratorIN9__gnu_cxx17__normal_iteratorIPiNSt9__cxx19986vectorIiSaIiEEEEENSt7__debug6vectorIiS7_EEEENS2_5__ops14_Val_less_iterEEvT_T0_ = comdat any

$_ZN9__gnu_cxx5__ops15__val_comp_iterENS0_15_Iter_less_iterE = comdat any

$_ZSt23__copy_move_backward_a2ILb1EN11__gnu_debug14_Safe_iteratorIN9__gnu_cxx17__normal_iteratorIPiNSt9__cxx19986vectorIiSaIiEEEEENSt7__debug6vectorIiS7_EEEESD_ET1_T0_SF_SE_ = comdat any

$_ZSt12__miter_baseIN11__gnu_debug14_Safe_iteratorIN9__gnu_cxx17__normal_iteratorIPiNSt9__cxx19986vectorIiSaIiEEEEENSt7__debug6vectorIiS7_EEEEENSt11_Miter_baseIT_E13iterator_typeESF_ = comdat any

$_ZSt22__copy_move_backward_aILb1EN11__gnu_debug14_Safe_iteratorIN9__gnu_cxx17__normal_iteratorIPiNSt9__cxx19986vectorIiSaIiEEEEENSt7__debug6vectorIiS7_EEEESD_ET1_T0_SF_SE_ = comdat any

$_ZSt12__niter_baseIN11__gnu_debug14_Safe_iteratorIN9__gnu_cxx17__normal_iteratorIPiNSt9__cxx19986vectorIiSaIiEEEEENSt7__debug6vectorIiS7_EEEEENSt11_Niter_baseIT_E13iterator_typeESF_ = comdat any

$_ZNSt20__copy_move_backwardILb1ELb0ESt26random_access_iterator_tagE13__copy_move_bIN11__gnu_debug14_Safe_iteratorIN9__gnu_cxx17__normal_iteratorIPiNSt9__cxx19986vectorIiSaIiEEEEENSt7__debug6vectorIiSA_EEEESG_EET0_T_SI_SH_ = comdat any

$_ZNSt10_Iter_baseIN11__gnu_debug14_Safe_iteratorIN9__gnu_cxx17__normal_iteratorIPiNSt9__cxx19986vectorIiSaIiEEEEENSt7__debug6vectorIiS7_EEEELb0EE7_S_baseESD_ = comdat any

$_ZNK9__gnu_cxx5__ops14_Val_less_iterclIiN11__gnu_debug14_Safe_iteratorINS_17__normal_iteratorIPiNSt9__cxx19986vectorIiSaIiEEEEENSt7__debug6vectorIiS9_EEEEEEbRT_T0_ = comdat any

$_ZN9__gnu_cxx13new_allocatorINSt7__debug6vectorISt4pairIiiESaIS4_EEEEC2Ev = comdat any

$_ZN11__gnu_debug15_Safe_containerINSt7__debug6vectorINS2_ISt4pairIiiESaIS4_EEESaIS6_EEES7_NS_14_Safe_sequenceELb1EEC2Ev = comdat any

$_ZNSt9__cxx19986vectorINSt7__debug6vectorISt4pairIiiESaIS4_EEESaIS6_EEC2EmRKS7_ = comdat any

$_ZN11__gnu_debug12_Safe_vectorINSt7__debug6vectorINS2_ISt4pairIiiESaIS4_EEESaIS6_EEENSt9__cxx19986vectorIS6_S7_EEEC2Em = comdat any

$_ZN11__gnu_debug14_Safe_sequenceINSt7__debug6vectorINS2_ISt4pairIiiESaIS4_EEESaIS6_EEEEC2Ev = comdat any

$_ZNSt9__cxx199812_Vector_baseINSt7__debug6vectorISt4pairIiiESaIS4_EEESaIS6_EEC2EmRKS7_ = comdat any

$_ZNSt9__cxx19986vectorINSt7__debug6vectorISt4pairIiiESaIS4_EEESaIS6_EE21_M_default_initializeEm = comdat any

$_ZNSt9__cxx199812_Vector_baseINSt7__debug6vectorISt4pairIiiESaIS4_EEESaIS6_EE12_Vector_implC2ERKS7_ = comdat any

$_ZNSt9__cxx199812_Vector_baseINSt7__debug6vectorISt4pairIiiESaIS4_EEESaIS6_EE17_M_create_storageEm = comdat any

$_ZNSaINSt7__debug6vectorISt4pairIiiESaIS2_EEEEC2ERKS5_ = comdat any

$_ZN9__gnu_cxx13new_allocatorINSt7__debug6vectorISt4pairIiiESaIS4_EEEEC2ERKS7_ = comdat any

$_ZNSt9__cxx199812_Vector_baseINSt7__debug6vectorISt4pairIiiESaIS4_EEESaIS6_EE11_M_allocateEm = comdat any

$_ZNSt16allocator_traitsISaINSt7__debug6vectorISt4pairIiiESaIS3_EEEEE8allocateERS6_m = comdat any

$_ZN9__gnu_cxx13new_allocatorINSt7__debug6vectorISt4pairIiiESaIS4_EEEE8allocateEmPKv = comdat any

$_ZNK9__gnu_cxx13new_allocatorINSt7__debug6vectorISt4pairIiiESaIS4_EEEE8max_sizeEv = comdat any

$_ZSt27__uninitialized_default_n_aIPNSt7__debug6vectorISt4pairIiiESaIS3_EEEmS5_ET_S7_T0_RSaIT1_E = comdat any

$_ZSt25__uninitialized_default_nIPNSt7__debug6vectorISt4pairIiiESaIS3_EEEmET_S7_T0_ = comdat any

$_ZNSt27__uninitialized_default_n_1ILb0EE18__uninit_default_nIPNSt7__debug6vectorISt4pairIiiESaIS5_EEEmEET_S9_T0_ = comdat any

$_ZSt10_ConstructINSt7__debug6vectorISt4pairIiiESaIS3_EEEJEEvPT_DpOT0_ = comdat any

$_ZNSt7__debug6vectorISt4pairIiiESaIS2_EEC2Ev = comdat any

$_ZN11__gnu_debug15_Safe_containerINSt7__debug6vectorISt4pairIiiESaIS4_EEES5_NS_14_Safe_sequenceELb1EEC2Ev = comdat any

$_ZNSt9__cxx19986vectorISt4pairIiiESaIS2_EEC2Ev = comdat any

$_ZN11__gnu_debug12_Safe_vectorINSt7__debug6vectorISt4pairIiiESaIS4_EEENSt9__cxx19986vectorIS4_S5_EEEC2Ev = comdat any

$_ZN11__gnu_debug14_Safe_sequenceINSt7__debug6vectorISt4pairIiiESaIS4_EEEEC2Ev = comdat any

$_ZNSt9__cxx199812_Vector_baseISt4pairIiiESaIS2_EEC2Ev = comdat any

$_ZNSt9__cxx199812_Vector_baseISt4pairIiiESaIS2_EE12_Vector_implC2Ev = comdat any

$_ZNSaISt4pairIiiEEC2Ev = comdat any

$_ZN9__gnu_cxx13new_allocatorISt4pairIiiEEC2Ev = comdat any

$_ZN11__gnu_debug12_Safe_vectorINSt7__debug6vectorISt4pairIiiESaIS4_EEENSt9__cxx19986vectorIS4_S5_EEE29_M_update_guaranteed_capacityEv = comdat any

$_ZNK11__gnu_debug12_Safe_vectorINSt7__debug6vectorISt4pairIiiESaIS4_EEENSt9__cxx19986vectorIS4_S5_EEE6_M_seqEv = comdat any

$_ZNKSt9__cxx19986vectorISt4pairIiiESaIS2_EE4sizeEv = comdat any

$_ZNKSt9__cxx19986vectorINSt7__debug6vectorISt4pairIiiESaIS4_EEESaIS6_EE4sizeEv = comdat any

$_ZNK11__gnu_debug16_Error_formatter11_M_sequenceINSt7__debug6vectorINS3_ISt4pairIiiESaIS5_EEESaIS7_EEEEERKS0_RKT_PKc = comdat any

$_ZNSt7__debug6vectorINS0_ISt4pairIiiESaIS2_EEESaIS4_EE7_M_baseEv = comdat any

$_ZNSt9__cxx19986vectorINSt7__debug6vectorISt4pairIiiESaIS4_EEESaIS6_EEixEm = comdat any

$_ZN11__gnu_debug16_Error_formatter10_ParameterC2INSt7__debug6vectorINS4_ISt4pairIiiESaIS6_EEESaIS8_EEEEERKT_PKcNS0_12_Is_sequenceE = comdat any

$_ZNSt7__debug6vectorISt4pairIiiESaIS2_EE12emplace_backIJS2_EEEvDpOT_ = comdat any

$_ZSt4moveIRSt4pairIiiEEONSt16remove_referenceIT_E4typeEOS4_ = comdat any

$_ZNK11__gnu_debug12_Safe_vectorINSt7__debug6vectorISt4pairIiiESaIS4_EEENSt9__cxx19986vectorIS4_S5_EEE24_M_requires_reallocationEm = comdat any

$_ZNSt9__cxx19986vectorISt4pairIiiESaIS2_EE12emplace_backIJS2_EEEvDpOT_ = comdat any

$_ZSt7forwardISt4pairIiiEEOT_RNSt16remove_referenceIS2_E4typeE = comdat any

$_ZNK11__gnu_debug19_Safe_sequence_base17_M_invalidate_allEv = comdat any

$_ZNKSt7__debug6vectorISt4pairIiiESaIS2_EE8capacityEv = comdat any

$_ZNKSt9__cxx19986vectorISt4pairIiiESaIS2_EE8capacityEv = comdat any

$_ZNSt16allocator_traitsISaISt4pairIiiEEE9constructIS1_JS1_EEEvRS2_PT_DpOT0_ = comdat any

$_ZNSt9__cxx19986vectorISt4pairIiiESaIS2_EE19_M_emplace_back_auxIJS2_EEEvDpOT_ = comdat any

$_ZN9__gnu_cxx13new_allocatorISt4pairIiiEE9constructIS2_JS2_EEEvPT_DpOT0_ = comdat any

$_ZNKSt9__cxx19986vectorISt4pairIiiESaIS2_EE12_M_check_lenEmPKc = comdat any

$_ZNSt9__cxx199812_Vector_baseISt4pairIiiESaIS2_EE11_M_allocateEm = comdat any

$_ZSt34__uninitialized_move_if_noexcept_aIPSt4pairIiiES2_SaIS1_EET0_T_S5_S4_RT1_ = comdat any

$_ZNSt16allocator_traitsISaISt4pairIiiEEE7destroyIS1_EEvRS2_PT_ = comdat any

$_ZNKSt9__cxx19986vectorISt4pairIiiESaIS2_EE8max_sizeEv = comdat any

$_ZNSt16allocator_traitsISaISt4pairIiiEEE8max_sizeERKS2_ = comdat any

$_ZNKSt9__cxx199812_Vector_baseISt4pairIiiESaIS2_EE19_M_get_Tp_allocatorEv = comdat any

$_ZNK9__gnu_cxx13new_allocatorISt4pairIiiEE8max_sizeEv = comdat any

$_ZNSt16allocator_traitsISaISt4pairIiiEEE8allocateERS2_m = comdat any

$_ZN9__gnu_cxx13new_allocatorISt4pairIiiEE8allocateEmPKv = comdat any

$_ZSt22__uninitialized_copy_aISt13move_iteratorIPSt4pairIiiEES3_S2_ET0_T_S6_S5_RSaIT1_E = comdat any

$_ZSt32__make_move_if_noexcept_iteratorIPSt4pairIiiESt13move_iteratorIS2_EET0_T_ = comdat any

$_ZSt18uninitialized_copyISt13move_iteratorIPSt4pairIiiEES3_ET0_T_S6_S5_ = comdat any

$_ZNSt20__uninitialized_copyILb0EE13__uninit_copyISt13move_iteratorIPSt4pairIiiEES5_EET0_T_S8_S7_ = comdat any

$_ZStneIPSt4pairIiiEEbRKSt13move_iteratorIT_ES7_ = comdat any

$_ZSt10_ConstructISt4pairIiiEJS1_EEvPT_DpOT0_ = comdat any

$_ZSt11__addressofISt4pairIiiEEPT_RS2_ = comdat any

$_ZNKSt13move_iteratorIPSt4pairIiiEEdeEv = comdat any

$_ZNSt13move_iteratorIPSt4pairIiiEEppEv = comdat any

$_ZSteqIPSt4pairIiiEEbRKSt13move_iteratorIT_ES7_ = comdat any

$_ZNKSt13move_iteratorIPSt4pairIiiEE4baseEv = comdat any

$_ZNSt13move_iteratorIPSt4pairIiiEEC2ES2_ = comdat any

$_ZN9__gnu_cxx13new_allocatorISt4pairIiiEE7destroyIS2_EEvPT_ = comdat any

$_ZN9__gnu_cxx13new_allocatorINSt7__debug6vectorIiSaIiEEEEC2Ev = comdat any

$_ZN11__gnu_debug15_Safe_containerINSt7__debug6vectorINS2_IiSaIiEEESaIS4_EEES5_NS_14_Safe_sequenceELb1EEC2Ev = comdat any

$_ZNSt9__cxx19986vectorINSt7__debug6vectorIiSaIiEEESaIS4_EEC2EmRKS4_RKS5_ = comdat any

$_ZN11__gnu_debug12_Safe_vectorINSt7__debug6vectorINS2_IiSaIiEEESaIS4_EEENSt9__cxx19986vectorIS4_S5_EEEC2Ev = comdat any

$_ZN11__gnu_debug14_Safe_sequenceINSt7__debug6vectorINS2_IiSaIiEEESaIS4_EEEEC2Ev = comdat any

$_ZNSt9__cxx199812_Vector_baseINSt7__debug6vectorIiSaIiEEESaIS4_EEC2EmRKS5_ = comdat any

$_ZNSt9__cxx19986vectorINSt7__debug6vectorIiSaIiEEESaIS4_EE18_M_fill_initializeEmRKS4_ = comdat any

$_ZNSt9__cxx199812_Vector_baseINSt7__debug6vectorIiSaIiEEESaIS4_EE12_Vector_implC2ERKS5_ = comdat any

$_ZNSt9__cxx199812_Vector_baseINSt7__debug6vectorIiSaIiEEESaIS4_EE17_M_create_storageEm = comdat any

$_ZNSaINSt7__debug6vectorIiSaIiEEEEC2ERKS3_ = comdat any

$_ZN9__gnu_cxx13new_allocatorINSt7__debug6vectorIiSaIiEEEEC2ERKS5_ = comdat any

$_ZNSt9__cxx199812_Vector_baseINSt7__debug6vectorIiSaIiEEESaIS4_EE11_M_allocateEm = comdat any

$_ZNSt16allocator_traitsISaINSt7__debug6vectorIiSaIiEEEEE8allocateERS4_m = comdat any

$_ZN9__gnu_cxx13new_allocatorINSt7__debug6vectorIiSaIiEEEE8allocateEmPKv = comdat any

$_ZNK9__gnu_cxx13new_allocatorINSt7__debug6vectorIiSaIiEEEE8max_sizeEv = comdat any

$_ZSt24__uninitialized_fill_n_aIPNSt7__debug6vectorIiSaIiEEEmS3_S3_ET_S5_T0_RKT1_RSaIT2_E = comdat any

$_ZSt20uninitialized_fill_nIPNSt7__debug6vectorIiSaIiEEEmS3_ET_S5_T0_RKT1_ = comdat any

$_ZNSt22__uninitialized_fill_nILb0EE15__uninit_fill_nIPNSt7__debug6vectorIiSaIiEEEmS5_EET_S7_T0_RKT1_ = comdat any

$_ZSt10_ConstructINSt7__debug6vectorIiSaIiEEEJRKS3_EEvPT_DpOT0_ = comdat any

$_ZSt7forwardIRKNSt7__debug6vectorIiSaIiEEEEOT_RNSt16remove_referenceIS6_E4typeE = comdat any

$_ZNSt7__debug6vectorIiSaIiEEC2ERKS2_ = comdat any

$_ZN11__gnu_debug15_Safe_containerINSt7__debug6vectorIiSaIiEEES3_NS_14_Safe_sequenceELb1EEC2ERKS6_ = comdat any

$_ZNSt9__cxx19986vectorIiSaIiEEC2ERKS2_ = comdat any

$_ZN11__gnu_debug12_Safe_vectorINSt7__debug6vectorIiSaIiEEENSt9__cxx19986vectorIiS3_EEEC2ERKS8_ = comdat any

$_ZN11__gnu_debug14_Safe_sequenceINSt7__debug6vectorIiSaIiEEEEC2ERKS5_ = comdat any

$_ZN11__gnu_debug19_Safe_sequence_baseC2ERKS0_ = comdat any

$_ZN9__gnu_cxx14__alloc_traitsISaIiEE17_S_select_on_copyERKS1_ = comdat any

$_ZNKSt9__cxx199812_Vector_baseIiSaIiEE19_M_get_Tp_allocatorEv = comdat any

$_ZSt22__uninitialized_copy_aIN9__gnu_cxx17__normal_iteratorIPKiNSt9__cxx19986vectorIiSaIiEEEEEPiiET0_T_SB_SA_RSaIT1_E = comdat any

$_ZNKSt9__cxx19986vectorIiSaIiEE5beginEv = comdat any

$_ZNKSt9__cxx19986vectorIiSaIiEE3endEv = comdat any

$_ZNSt16allocator_traitsISaIiEE37select_on_container_copy_constructionERKS0_ = comdat any

$_ZNSaIiEC2ERKS_ = comdat any

$_ZSt18uninitialized_copyIN9__gnu_cxx17__normal_iteratorIPKiNSt9__cxx19986vectorIiSaIiEEEEEPiET0_T_SB_SA_ = comdat any

$_ZNSt20__uninitialized_copyILb1EE13__uninit_copyIN9__gnu_cxx17__normal_iteratorIPKiNSt9__cxx19986vectorIiSaIiEEEEEPiEET0_T_SD_SC_ = comdat any

$_ZSt4copyIN9__gnu_cxx17__normal_iteratorIPKiNSt9__cxx19986vectorIiSaIiEEEEEPiET0_T_SB_SA_ = comdat any

$_ZN11__gnu_debug13__valid_rangeIN9__gnu_cxx17__normal_iteratorIPKiNSt9__cxx19986vectorIiSaIiEEEEEEEbRKT_SC_ = comdat any

$_ZNK11__gnu_debug16_Error_formatter11_M_iteratorIN9__gnu_cxx17__normal_iteratorIPKiNSt9__cxx19986vectorIiSaIiEEEEEEERKS0_RKT_PKc = comdat any

$_ZSt14__copy_move_a2ILb0EN9__gnu_cxx17__normal_iteratorIPKiNSt9__cxx19986vectorIiSaIiEEEEEPiET1_T0_SB_SA_ = comdat any

$_ZSt12__miter_baseIN9__gnu_cxx17__normal_iteratorIPKiNSt9__cxx19986vectorIiSaIiEEEEEENSt11_Miter_baseIT_E13iterator_typeESA_ = comdat any

$_ZN11__gnu_debug17__valid_range_auxIN9__gnu_cxx17__normal_iteratorIPKiNSt9__cxx19986vectorIiSaIiEEEEEEEbRKT_SC_St12__false_type = comdat any

$_ZN11__gnu_debug18__valid_range_aux2IN9__gnu_cxx17__normal_iteratorIPKiNSt9__cxx19986vectorIiSaIiEEEEEEEbRKT_SC_St26random_access_iterator_tag = comdat any

$_ZSt19__iterator_categoryIN9__gnu_cxx17__normal_iteratorIPKiNSt9__cxx19986vectorIiSaIiEEEEEENSt15iterator_traitsIT_E17iterator_categoryERKSA_ = comdat any

$_ZN9__gnu_cxxmiIPKiNSt9__cxx19986vectorIiSaIiEEEEENS_17__normal_iteratorIT_T0_E15difference_typeERKSA_SD_ = comdat any

$_ZNK9__gnu_cxx17__normal_iteratorIPKiNSt9__cxx19986vectorIiSaIiEEEE4baseEv = comdat any

$_ZN11__gnu_debug16_Error_formatter10_ParameterC2IN9__gnu_cxx17__normal_iteratorIPKiNSt9__cxx19986vectorIiSaIiEEEEEEERKT_PKcNS0_12_Is_iteratorE = comdat any

$_ZN11__gnu_debug16__check_singularIN9__gnu_cxx17__normal_iteratorIPKiNSt9__cxx19986vectorIiSaIiEEEEEEEbRKT_ = comdat any

$_ZN11__gnu_debug20__check_singular_auxEPKv = comdat any

$_ZSt13__copy_move_aILb0EPKiPiET1_T0_S4_S3_ = comdat any

$_ZSt12__niter_baseIN9__gnu_cxx17__normal_iteratorIPKiNSt9__cxx19986vectorIiSaIiEEEEEENSt11_Niter_baseIT_E13iterator_typeESA_ = comdat any

$_ZNSt11__copy_moveILb0ELb1ESt26random_access_iterator_tagE8__copy_mIiEEPT_PKS3_S6_S4_ = comdat any

$_ZNSt10_Iter_baseIN9__gnu_cxx17__normal_iteratorIPKiNSt9__cxx19986vectorIiSaIiEEEEELb1EE7_S_baseES8_ = comdat any

$_ZNSt10_Iter_baseIN9__gnu_cxx17__normal_iteratorIPKiNSt9__cxx19986vectorIiSaIiEEEEELb0EE7_S_baseES8_ = comdat any

$_ZN9__gnu_cxx17__normal_iteratorIPKiNSt9__cxx19986vectorIiSaIiEEEEC2ERKS2_ = comdat any

$_ZN11__gnu_debug12_Safe_vectorINSt7__debug6vectorIiSaIiEEENSt9__cxx19986vectorIiS3_EEE29_M_update_guaranteed_capacityEv = comdat any

$_ZNK11__gnu_debug12_Safe_vectorINSt7__debug6vectorIiSaIiEEENSt9__cxx19986vectorIiS3_EEE6_M_seqEv = comdat any

$_ZN11__gnu_debug12_Safe_vectorINSt7__debug6vectorINS2_IiSaIiEEESaIS4_EEENSt9__cxx19986vectorIS4_S5_EEE29_M_update_guaranteed_capacityEv = comdat any

$_ZNK11__gnu_debug12_Safe_vectorINSt7__debug6vectorINS2_IiSaIiEEESaIS4_EEENSt9__cxx19986vectorIS4_S5_EEE6_M_seqEv = comdat any

$_ZNKSt9__cxx19986vectorINSt7__debug6vectorIiSaIiEEESaIS4_EE4sizeEv = comdat any

$_ZSt4moveIRNSt7__debug5dequeIiSaIiEEEEONSt16remove_referenceIT_E4typeEOS6_ = comdat any

$_ZNSt7__debug5dequeIiSaIiEEC2EOS2_ = comdat any

$_ZN11__gnu_debug15_Safe_containerINSt7__debug5dequeIiSaIiEEES3_NS_14_Safe_sequenceELb1EEC2EOS6_ = comdat any

$_ZNSt9__cxx19985dequeIiSaIiEEC2EOS2_ = comdat any

$_ZSt4moveIRNSt9__cxx19985dequeIiSaIiEEEEONSt16remove_referenceIT_E4typeEOS6_ = comdat any

$_ZNSt9__cxx199811_Deque_baseIiSaIiEEC2EOS2_ = comdat any

$_ZSt4moveIRNSt9__cxx199811_Deque_baseIiSaIiEEEEONSt16remove_referenceIT_E4typeEOS6_ = comdat any

$_ZNSt9__cxx199811_Deque_baseIiSaIiEEC2EOS2_St17integral_constantIbLb1EE = comdat any

$_ZSt4moveIRSaIiEEONSt16remove_referenceIT_E4typeEOS3_ = comdat any

$_ZNSt9__cxx199811_Deque_baseIiSaIiEE11_Deque_implC2EOS1_ = comdat any

$_ZNSt9__cxx199811_Deque_baseIiSaIiEE11_Deque_impl12_M_swap_dataERS3_ = comdat any

$_ZSt4swapINSt9__cxx199815_Deque_iteratorIiRiPiEEEvRT_S6_ = comdat any

$_ZSt4swapIPPiEvRT_S3_ = comdat any

$_ZSt4swapImEvRT_S1_ = comdat any

$_ZSt4moveIRNSt9__cxx199815_Deque_iteratorIiRiPiEEEONSt16remove_referenceIT_E4typeEOS7_ = comdat any

$_ZSt4moveIRPPiEONSt16remove_referenceIT_E4typeEOS4_ = comdat any

$_ZSt4moveIRmEONSt16remove_referenceIT_E4typeEOS2_ = comdat any

$_ZNSt7__debug5dequeIiSaIiEE9push_backERKi = comdat any

$_ZNSt9__cxx19985dequeIiSaIiEE9push_backERKi = comdat any

$_ZNSt16allocator_traitsISaIiEE9constructIiJRKiEEEvRS0_PT_DpOT0_ = comdat any

$_ZNSt9__cxx19985dequeIiSaIiEE16_M_push_back_auxIJRKiEEEvDpOT_ = comdat any

$_ZN9__gnu_cxx13new_allocatorIiE9constructIiJRKiEEEvPT_DpOT0_ = comdat any

$_ZSt7forwardIRKiEOT_RNSt16remove_referenceIS2_E4typeE = comdat any

$_ZNSt9__cxx19985dequeIiSaIiEE22_M_reserve_map_at_backEm = comdat any

$_ZNSt9__cxx19985dequeIiSaIiEE17_M_reallocate_mapEmb = comdat any

$_ZSt4copyIPPiS1_ET0_T_S3_S2_ = comdat any

$_ZSt13copy_backwardIPPiS1_ET0_T_S3_S2_ = comdat any

$_ZN11__gnu_debug13__valid_rangeIPPiEEbRKT_S5_ = comdat any

$_ZNK11__gnu_debug16_Error_formatter11_M_iteratorIPPiEERKS0_RKT_PKc = comdat any

$_ZSt14__copy_move_a2ILb0EPPiS1_ET1_T0_S3_S2_ = comdat any

$_ZSt12__miter_baseIPPiENSt11_Miter_baseIT_E13iterator_typeES3_ = comdat any

$_ZN11__gnu_debug17__valid_range_auxIPPiEEbRKT_S5_St12__false_type = comdat any

$_ZN11__gnu_debug18__valid_range_aux2IPPiEEbRKT_S5_St26random_access_iterator_tag = comdat any

$_ZSt19__iterator_categoryIPPiENSt15iterator_traitsIT_E17iterator_categoryERKS3_ = comdat any

$_ZN11__gnu_debug16_Error_formatter10_ParameterC2IPPiEERKT_PKcNS0_12_Is_iteratorE = comdat any

$_ZN11__gnu_debug16__check_singularIPPiEEbRKT_ = comdat any

$_ZSt13__copy_move_aILb0EPPiS1_ET1_T0_S3_S2_ = comdat any

$_ZSt12__niter_baseIPPiENSt11_Niter_baseIT_E13iterator_typeES3_ = comdat any

$_ZNSt11__copy_moveILb0ELb1ESt26random_access_iterator_tagE8__copy_mIPiEEPT_PKS4_S7_S5_ = comdat any

$_ZNSt10_Iter_baseIPPiLb0EE7_S_baseES1_ = comdat any

$_ZSt23__copy_move_backward_a2ILb0EPPiS1_ET1_T0_S3_S2_ = comdat any

$_ZSt22__copy_move_backward_aILb0EPPiS1_ET1_T0_S3_S2_ = comdat any

$_ZNSt20__copy_move_backwardILb0ELb1ESt26random_access_iterator_tagE13__copy_move_bIPiEEPT_PKS4_S7_S5_ = comdat any

$_ZNSt9__cxx19986vectorIiSaIiEEC2EmRKiRKS1_ = comdat any

$_ZN11__gnu_debug12_Safe_vectorINSt7__debug6vectorIiSaIiEEENSt9__cxx19986vectorIiS3_EEEC2Ev = comdat any

$_ZNSt9__cxx19986vectorIiSaIiEE18_M_fill_initializeEmRKi = comdat any

$_ZSt24__uninitialized_fill_n_aIPimiiET_S1_T0_RKT1_RSaIT2_E = comdat any

$_ZSt20uninitialized_fill_nIPimiET_S1_T0_RKT1_ = comdat any

$_ZNSt22__uninitialized_fill_nILb1EE15__uninit_fill_nIPimiEET_S3_T0_RKT1_ = comdat any

$_ZNKSt9__cxx19985dequeIiSaIiEE5emptyEv = comdat any

$_ZNSt9__cxx1998eqIiRiPiEEbRKNS_15_Deque_iteratorIT_T0_T1_EES9_ = comdat any

$_ZNK11__gnu_debug16_Error_formatter11_M_sequenceISt5queueIiNSt7__debug5dequeIiSaIiEEEEEERKS0_RKT_PKc = comdat any

$_ZNSt7__debug5dequeIiSaIiEE5frontEv = comdat any

$_ZN11__gnu_debug16_Error_formatter10_ParameterC2ISt5queueIiNSt7__debug5dequeIiSaIiEEEEEERKT_PKcNS0_12_Is_sequenceE = comdat any

$_ZNK11__gnu_debug16_Error_formatter11_M_sequenceINSt7__debug5dequeIiSaIiEEEEERKS0_RKT_PKc = comdat any

$_ZNSt9__cxx19985dequeIiSaIiEE5frontEv = comdat any

$_ZN11__gnu_debug16_Error_formatter10_ParameterC2INSt7__debug5dequeIiSaIiEEEEERKT_PKcNS0_12_Is_sequenceE = comdat any

$_ZNKSt9__cxx199815_Deque_iteratorIiRiPiEdeEv = comdat any

$_ZNSt7__debug5dequeIiSaIiEE9pop_frontEv = comdat any

$_ZN11__gnu_debug14_Safe_sequenceINSt7__debug5dequeIiSaIiEEEE16_M_invalidate_ifINS_9_Equal_toINSt9__cxx199815_Deque_iteratorIiRKiPSA_EEEEEEvT_ = comdat any

$_ZNSt9__cxx199815_Deque_iteratorIiRKiPS1_EC2ERKNS0_IiRiPiEE = comdat any

$_ZN11__gnu_debug9_Equal_toINSt9__cxx199815_Deque_iteratorIiRKiPS3_EEEC2ERKS6_ = comdat any

$_ZNSt9__cxx19985dequeIiSaIiEE9pop_frontEv = comdat any

$_ZNK11__gnu_debug9_Equal_toINSt9__cxx199815_Deque_iteratorIiRKiPS3_EEEclERKS6_ = comdat any

$_ZN11__gnu_debug14_Safe_iteratorINSt9__cxx199815_Deque_iteratorIiRiPiEENSt7__debug5dequeIiSaIiEEEE4baseEv = comdat any

$_ZN11__gnu_debug19_Safe_iterator_base13_M_invalidateEv = comdat any

$_ZN11__gnu_debug14_Safe_iteratorINSt9__cxx199815_Deque_iteratorIiRKiPS3_EENSt7__debug5dequeIiSaIiEEEE4baseEv = comdat any

$_ZNSt9__cxx1998eqIiRKiPS1_EEbRKNS_15_Deque_iteratorIT_T0_T1_EESA_ = comdat any

$_ZNSt16allocator_traitsISaIiEE7destroyIiEEvRS0_PT_ = comdat any

$_ZNSt9__cxx19985dequeIiSaIiEE16_M_pop_front_auxEv = comdat any

$_ZN9__gnu_cxx13new_allocatorIiE7destroyIiEEvPT_ = comdat any

$_ZNSt9__cxx19986vectorISt4pairIiiESaIS2_EE5beginEv = comdat any

$_ZN11__gnu_debug14_Safe_iteratorIN9__gnu_cxx17__normal_iteratorIPSt4pairIiiENSt9__cxx19986vectorIS4_SaIS4_EEEEENSt7__debug6vectorIS4_S8_EEEC2ERKSA_PKNS_19_Safe_sequence_baseE = comdat any

$_ZN9__gnu_cxx17__normal_iteratorIPSt4pairIiiENSt9__cxx19986vectorIS2_SaIS2_EEEEC2ERKS3_ = comdat any

$_ZNK11__gnu_debug14_Safe_iteratorIN9__gnu_cxx17__normal_iteratorIPSt4pairIiiENSt9__cxx19986vectorIS4_SaIS4_EEEEENSt7__debug6vectorIS4_S8_EEE11_M_constantEv = comdat any

$_ZNK11__gnu_debug16_Error_formatter11_M_iteratorINS_14_Safe_iteratorIN9__gnu_cxx17__normal_iteratorIPSt4pairIiiENSt9__cxx19986vectorIS6_SaIS6_EEEEENSt7__debug6vectorIS6_SA_EEEEEERKS0_RKT_PKc = comdat any

$_ZN11__gnu_debug16_Error_formatter10_ParameterC2IN9__gnu_cxx17__normal_iteratorIPSt4pairIiiENSt9__cxx19986vectorIS6_SaIS6_EEEEENSt7__debug6vectorIS6_SA_EEEERKNS_14_Safe_iteratorIT_T0_EEPKcNS0_12_Is_iteratorE = comdat any

$_ZNK11__gnu_debug14_Safe_iteratorIN9__gnu_cxx17__normal_iteratorIPSt4pairIiiENSt9__cxx19986vectorIS4_SaIS4_EEEEENSt7__debug6vectorIS4_S8_EEE15_M_get_sequenceEv = comdat any

$_ZNK11__gnu_debug14_Safe_iteratorIN9__gnu_cxx17__normal_iteratorIPSt4pairIiiENSt9__cxx19986vectorIS4_SaIS4_EEEEENSt7__debug6vectorIS4_S8_EEE18_M_is_before_beginEv = comdat any

$_ZNK11__gnu_debug14_Safe_iteratorIN9__gnu_cxx17__normal_iteratorIPSt4pairIiiENSt9__cxx19986vectorIS4_SaIS4_EEEEENSt7__debug6vectorIS4_S8_EEE9_M_is_endEv = comdat any

$_ZNK11__gnu_debug14_Safe_iteratorIN9__gnu_cxx17__normal_iteratorIPSt4pairIiiENSt9__cxx19986vectorIS4_SaIS4_EEEEENSt7__debug6vectorIS4_S8_EEE11_M_is_beginEv = comdat any

$_ZN11__gnu_debug18_BeforeBeginHelperINSt7__debug6vectorISt4pairIiiESaIS4_EEEE5_S_IsIN9__gnu_cxx17__normal_iteratorIPS4_NSt9__cxx19986vectorIS4_S5_EEEEEEbRKNS_14_Safe_iteratorIT_S6_EE = comdat any

$_ZN9__gnu_cxxeqIPSt4pairIiiENSt9__cxx19986vectorIS2_SaIS2_EEEEEbRKNS_17__normal_iteratorIT_T0_EESD_ = comdat any

$_ZNK11__gnu_debug14_Safe_iteratorIN9__gnu_cxx17__normal_iteratorIPSt4pairIiiENSt9__cxx19986vectorIS4_SaIS4_EEEEENSt7__debug6vectorIS4_S8_EEE4baseEv = comdat any

$_ZNSt7__debug6vectorISt4pairIiiESaIS2_EE7_M_baseEv = comdat any

$_ZNSt9__cxx19986vectorISt4pairIiiESaIS2_EE3endEv = comdat any

$_ZNK9__gnu_cxx17__normal_iteratorIPSt4pairIiiENSt9__cxx19986vectorIS2_SaIS2_EEEE4baseEv = comdat any

$_ZN9__gnu_cxxneIPSt4pairIiiENSt9__cxx19986vectorIS2_SaIS2_EEEEEbRKNS_17__normal_iteratorIT_T0_EESD_ = comdat any

$_ZNK11__gnu_debug14_Safe_iteratorIN9__gnu_cxx17__normal_iteratorIPSt4pairIiiENSt9__cxx19986vectorIS4_SaIS4_EEEEENSt7__debug6vectorIS4_S8_EEE16_M_incrementableEv = comdat any

$_ZN11__gnu_debug14_Safe_iteratorIN9__gnu_cxx17__normal_iteratorIPSt4pairIiiENSt9__cxx19986vectorIS4_SaIS4_EEEEENSt7__debug6vectorIS4_S8_EEE4baseEv = comdat any

$_ZN9__gnu_cxx17__normal_iteratorIPSt4pairIiiENSt9__cxx19986vectorIS2_SaIS2_EEEEppEv = comdat any

$_ZNK11__gnu_debug14_Safe_iteratorIN9__gnu_cxx17__normal_iteratorIPSt4pairIiiENSt9__cxx19986vectorIS4_SaIS4_EEEEENSt7__debug6vectorIS4_S8_EEE18_M_dereferenceableEv = comdat any

$_ZNK9__gnu_cxx17__normal_iteratorIPSt4pairIiiENSt9__cxx19986vectorIS2_SaIS2_EEEEdeEv = comdat any

$_ZNK11__gnu_debug16_Error_formatter11_M_sequenceINSt7__debug6vectorINS3_IiSaIiEEESaIS5_EEEEERKS0_RKT_PKc = comdat any

$_ZNSt7__debug6vectorINS0_IiSaIiEEESaIS2_EE7_M_baseEv = comdat any

$_ZNSt9__cxx19986vectorINSt7__debug6vectorIiSaIiEEESaIS4_EEixEm = comdat any

$_ZN11__gnu_debug16_Error_formatter10_ParameterC2INSt7__debug6vectorINS4_IiSaIiEEESaIS6_EEEEERKT_PKcNS0_12_Is_sequenceE = comdat any

$_ZSt18__next_permutationIN11__gnu_debug14_Safe_iteratorIN9__gnu_cxx17__normal_iteratorIPiNSt9__cxx19986vectorIiSaIiEEEEENSt7__debug6vectorIiS7_EEEENS2_5__ops15_Iter_less_iterEEbT_SG_T0_ = comdat any

$_ZSt9__reverseIN11__gnu_debug14_Safe_iteratorIN9__gnu_cxx17__normal_iteratorIPiNSt9__cxx19986vectorIiSaIiEEEEENSt7__debug6vectorIiS7_EEEEEvT_SE_St26random_access_iterator_tag = comdat any

$_ZSt19__iterator_categoryIN11__gnu_debug14_Safe_iteratorIN9__gnu_cxx17__normal_iteratorIPiNSt9__cxx19986vectorIiSaIiEEEEENSt7__debug6vectorIiS7_EEEEENSt15iterator_traitsIT_E17iterator_categoryERKSF_ = comdat any

$_ZTSNSt7__debug6vectorIiSaIiEEE = comdat any

$_ZTSN11__gnu_debug15_Safe_containerINSt7__debug6vectorIiSaIiEEES3_NS_14_Safe_sequenceELb1EEE = comdat any

$_ZTSN11__gnu_debug14_Safe_sequenceINSt7__debug6vectorIiSaIiEEEEE = comdat any

$_ZTSN11__gnu_debug19_Safe_sequence_baseE = comdat any

$_ZTIN11__gnu_debug19_Safe_sequence_baseE = comdat any

$_ZTIN11__gnu_debug14_Safe_sequenceINSt7__debug6vectorIiSaIiEEEEE = comdat any

$_ZTIN11__gnu_debug15_Safe_containerINSt7__debug6vectorIiSaIiEEES3_NS_14_Safe_sequenceELb1EEE = comdat any

$_ZTSNSt9__cxx19986vectorIiSaIiEEE = comdat any

$_ZTSNSt9__cxx199812_Vector_baseIiSaIiEEE = comdat any

$_ZTINSt9__cxx199812_Vector_baseIiSaIiEEE = comdat any

$_ZTINSt9__cxx19986vectorIiSaIiEEE = comdat any

$_ZTSN11__gnu_debug12_Safe_vectorINSt7__debug6vectorIiSaIiEEENSt9__cxx19986vectorIiS3_EEEE = comdat any

$_ZTIN11__gnu_debug12_Safe_vectorINSt7__debug6vectorIiSaIiEEENSt9__cxx19986vectorIiS3_EEEE = comdat any

$_ZTINSt7__debug6vectorIiSaIiEEE = comdat any

$_ZTSN11__gnu_debug14_Safe_iteratorIN9__gnu_cxx17__normal_iteratorIPiNSt9__cxx19986vectorIiSaIiEEEEENSt7__debug6vectorIiS6_EEEE = comdat any

$_ZTSN9__gnu_cxx17__normal_iteratorIPiNSt9__cxx19986vectorIiSaIiEEEEE = comdat any

$_ZTIN9__gnu_cxx17__normal_iteratorIPiNSt9__cxx19986vectorIiSaIiEEEEE = comdat any

$_ZTSN11__gnu_debug19_Safe_iterator_baseE = comdat any

$_ZTIN11__gnu_debug19_Safe_iterator_baseE = comdat any

$_ZTIN11__gnu_debug14_Safe_iteratorIN9__gnu_cxx17__normal_iteratorIPiNSt9__cxx19986vectorIiSaIiEEEEENSt7__debug6vectorIiS6_EEEE = comdat any

$_ZTSN9__gnu_cxx24__concurrence_lock_errorE = comdat any

$_ZTIN9__gnu_cxx24__concurrence_lock_errorE = comdat any

$_ZTVN9__gnu_cxx24__concurrence_lock_errorE = comdat any

$_ZTSN9__gnu_cxx26__concurrence_unlock_errorE = comdat any

$_ZTIN9__gnu_cxx26__concurrence_unlock_errorE = comdat any

$_ZTVN9__gnu_cxx26__concurrence_unlock_errorE = comdat any

$_ZTSNSt7__debug6vectorINS0_ISt4pairIiiESaIS2_EEESaIS4_EEE = comdat any

$_ZTSN11__gnu_debug15_Safe_containerINSt7__debug6vectorINS2_ISt4pairIiiESaIS4_EEESaIS6_EEES7_NS_14_Safe_sequenceELb1EEE = comdat any

$_ZTSN11__gnu_debug14_Safe_sequenceINSt7__debug6vectorINS2_ISt4pairIiiESaIS4_EEESaIS6_EEEEE = comdat any

$_ZTIN11__gnu_debug14_Safe_sequenceINSt7__debug6vectorINS2_ISt4pairIiiESaIS4_EEESaIS6_EEEEE = comdat any

$_ZTIN11__gnu_debug15_Safe_containerINSt7__debug6vectorINS2_ISt4pairIiiESaIS4_EEESaIS6_EEES7_NS_14_Safe_sequenceELb1EEE = comdat any

$_ZTSNSt9__cxx19986vectorINSt7__debug6vectorISt4pairIiiESaIS4_EEESaIS6_EEE = comdat any

$_ZTSNSt9__cxx199812_Vector_baseINSt7__debug6vectorISt4pairIiiESaIS4_EEESaIS6_EEE = comdat any

$_ZTINSt9__cxx199812_Vector_baseINSt7__debug6vectorISt4pairIiiESaIS4_EEESaIS6_EEE = comdat any

$_ZTINSt9__cxx19986vectorINSt7__debug6vectorISt4pairIiiESaIS4_EEESaIS6_EEE = comdat any

$_ZTSN11__gnu_debug12_Safe_vectorINSt7__debug6vectorINS2_ISt4pairIiiESaIS4_EEESaIS6_EEENSt9__cxx19986vectorIS6_S7_EEEE = comdat any

$_ZTIN11__gnu_debug12_Safe_vectorINSt7__debug6vectorINS2_ISt4pairIiiESaIS4_EEESaIS6_EEENSt9__cxx19986vectorIS6_S7_EEEE = comdat any

$_ZTINSt7__debug6vectorINS0_ISt4pairIiiESaIS2_EEESaIS4_EEE = comdat any

$_ZTSN9__gnu_cxx17__normal_iteratorIPKiNSt9__cxx19986vectorIiSaIiEEEEE = comdat any

$_ZTIN9__gnu_cxx17__normal_iteratorIPKiNSt9__cxx19986vectorIiSaIiEEEEE = comdat any

$_ZTSPPi = comdat any

$_ZTIPPi = comdat any

$_ZTSSt5queueIiNSt7__debug5dequeIiSaIiEEEE = comdat any

$_ZTISt5queueIiNSt7__debug5dequeIiSaIiEEEE = comdat any

$_ZTSNSt7__debug5dequeIiSaIiEEE = comdat any

$_ZTSN11__gnu_debug15_Safe_containerINSt7__debug5dequeIiSaIiEEES3_NS_14_Safe_sequenceELb1EEE = comdat any

$_ZTSN11__gnu_debug14_Safe_sequenceINSt7__debug5dequeIiSaIiEEEEE = comdat any

$_ZTIN11__gnu_debug14_Safe_sequenceINSt7__debug5dequeIiSaIiEEEEE = comdat any

$_ZTIN11__gnu_debug15_Safe_containerINSt7__debug5dequeIiSaIiEEES3_NS_14_Safe_sequenceELb1EEE = comdat any

$_ZTSNSt9__cxx19985dequeIiSaIiEEE = comdat any

$_ZTSNSt9__cxx199811_Deque_baseIiSaIiEEE = comdat any

$_ZTINSt9__cxx199811_Deque_baseIiSaIiEEE = comdat any

$_ZTINSt9__cxx19985dequeIiSaIiEEE = comdat any

$_ZTINSt7__debug5dequeIiSaIiEEE = comdat any

$_ZTSN11__gnu_debug14_Safe_iteratorIN9__gnu_cxx17__normal_iteratorIPSt4pairIiiENSt9__cxx19986vectorIS4_SaIS4_EEEEENSt7__debug6vectorIS4_S8_EEEE = comdat any

$_ZTSN9__gnu_cxx17__normal_iteratorIPSt4pairIiiENSt9__cxx19986vectorIS2_SaIS2_EEEEE = comdat any

$_ZTIN9__gnu_cxx17__normal_iteratorIPSt4pairIiiENSt9__cxx19986vectorIS2_SaIS2_EEEEE = comdat any

$_ZTIN11__gnu_debug14_Safe_iteratorIN9__gnu_cxx17__normal_iteratorIPSt4pairIiiENSt9__cxx19986vectorIS4_SaIS4_EEEEENSt7__debug6vectorIS4_S8_EEEE = comdat any

$_ZTSNSt7__debug6vectorISt4pairIiiESaIS2_EEE = comdat any

$_ZTSN11__gnu_debug15_Safe_containerINSt7__debug6vectorISt4pairIiiESaIS4_EEES5_NS_14_Safe_sequenceELb1EEE = comdat any

$_ZTSN11__gnu_debug14_Safe_sequenceINSt7__debug6vectorISt4pairIiiESaIS4_EEEEE = comdat any

$_ZTIN11__gnu_debug14_Safe_sequenceINSt7__debug6vectorISt4pairIiiESaIS4_EEEEE = comdat any

$_ZTIN11__gnu_debug15_Safe_containerINSt7__debug6vectorISt4pairIiiESaIS4_EEES5_NS_14_Safe_sequenceELb1EEE = comdat any

$_ZTSNSt9__cxx19986vectorISt4pairIiiESaIS2_EEE = comdat any

$_ZTSNSt9__cxx199812_Vector_baseISt4pairIiiESaIS2_EEE = comdat any

$_ZTINSt9__cxx199812_Vector_baseISt4pairIiiESaIS2_EEE = comdat any

$_ZTINSt9__cxx19986vectorISt4pairIiiESaIS2_EEE = comdat any

$_ZTSN11__gnu_debug12_Safe_vectorINSt7__debug6vectorISt4pairIiiESaIS4_EEENSt9__cxx19986vectorIS4_S5_EEEE = comdat any

$_ZTIN11__gnu_debug12_Safe_vectorINSt7__debug6vectorISt4pairIiiESaIS4_EEENSt9__cxx19986vectorIS4_S5_EEEE = comdat any

$_ZTINSt7__debug6vectorISt4pairIiiESaIS2_EEE = comdat any

$_ZTSNSt7__debug6vectorINS0_IiSaIiEEESaIS2_EEE = comdat any

$_ZTSN11__gnu_debug15_Safe_containerINSt7__debug6vectorINS2_IiSaIiEEESaIS4_EEES5_NS_14_Safe_sequenceELb1EEE = comdat any

$_ZTSN11__gnu_debug14_Safe_sequenceINSt7__debug6vectorINS2_IiSaIiEEESaIS4_EEEEE = comdat any

$_ZTIN11__gnu_debug14_Safe_sequenceINSt7__debug6vectorINS2_IiSaIiEEESaIS4_EEEEE = comdat any

$_ZTIN11__gnu_debug15_Safe_containerINSt7__debug6vectorINS2_IiSaIiEEESaIS4_EEES5_NS_14_Safe_sequenceELb1EEE = comdat any

$_ZTSNSt9__cxx19986vectorINSt7__debug6vectorIiSaIiEEESaIS4_EEE = comdat any

$_ZTSNSt9__cxx199812_Vector_baseINSt7__debug6vectorIiSaIiEEESaIS4_EEE = comdat any

$_ZTINSt9__cxx199812_Vector_baseINSt7__debug6vectorIiSaIiEEESaIS4_EEE = comdat any

$_ZTINSt9__cxx19986vectorINSt7__debug6vectorIiSaIiEEESaIS4_EEE = comdat any

$_ZTSN11__gnu_debug12_Safe_vectorINSt7__debug6vectorINS2_IiSaIiEEESaIS4_EEENSt9__cxx19986vectorIS4_S5_EEEE = comdat any

$_ZTIN11__gnu_debug12_Safe_vectorINSt7__debug6vectorINS2_IiSaIiEEESaIS4_EEENSt9__cxx19986vectorIS4_S5_EEEE = comdat any

$_ZTINSt7__debug6vectorINS0_IiSaIiEEESaIS2_EEE = comdat any

@_ZStL8__ioinit = internal global %"class.std::ios_base::Init" zeroinitializer, align 1
@__dso_handle = external global i8
@_ZSt3cin = external global %"class.std::basic_istream", align 8
@_ZSt4cout = external global %"class.std::basic_ostream", align 8
@.str = private unnamed_addr constant [79 x i8] c"/usr/lib/gcc/x86_64-linux-gnu/5.4.0/../../../../include/c++/5.4.0/debug/vector\00", align 1
@.str.1 = private unnamed_addr constant [5 x i8] c"this\00", align 1
@.str.2 = private unnamed_addr constant [4 x i8] c"__n\00", align 1
@.str.3 = private unnamed_addr constant [5 x i8] c"size\00", align 1
@_ZTVN10__cxxabiv121__vmi_class_type_infoE = external global i8*
@_ZTSNSt7__debug6vectorIiSaIiEEE = linkonce_odr constant [28 x i8] c"NSt7__debug6vectorIiSaIiEEE\00", comdat
@_ZTVN10__cxxabiv120__si_class_type_infoE = external global i8*
@_ZTSN11__gnu_debug15_Safe_containerINSt7__debug6vectorIiSaIiEEES3_NS_14_Safe_sequenceELb1EEE = linkonce_odr constant [89 x i8] c"N11__gnu_debug15_Safe_containerINSt7__debug6vectorIiSaIiEEES3_NS_14_Safe_sequenceELb1EEE\00", comdat
@_ZTSN11__gnu_debug14_Safe_sequenceINSt7__debug6vectorIiSaIiEEEEE = linkonce_odr constant [61 x i8] c"N11__gnu_debug14_Safe_sequenceINSt7__debug6vectorIiSaIiEEEEE\00", comdat
@_ZTVN10__cxxabiv117__class_type_infoE = external global i8*
@_ZTSN11__gnu_debug19_Safe_sequence_baseE = linkonce_odr constant [37 x i8] c"N11__gnu_debug19_Safe_sequence_baseE\00", comdat
@_ZTIN11__gnu_debug19_Safe_sequence_baseE = linkonce_odr constant { i8*, i8* } { i8* bitcast (i8** getelementptr inbounds (i8*, i8** @_ZTVN10__cxxabiv117__class_type_infoE, i64 2) to i8*), i8* getelementptr inbounds ([37 x i8], [37 x i8]* @_ZTSN11__gnu_debug19_Safe_sequence_baseE, i32 0, i32 0) }, comdat
@_ZTIN11__gnu_debug14_Safe_sequenceINSt7__debug6vectorIiSaIiEEEEE = linkonce_odr constant { i8*, i8*, i8* } { i8* bitcast (i8** getelementptr inbounds (i8*, i8** @_ZTVN10__cxxabiv120__si_class_type_infoE, i64 2) to i8*), i8* getelementptr inbounds ([61 x i8], [61 x i8]* @_ZTSN11__gnu_debug14_Safe_sequenceINSt7__debug6vectorIiSaIiEEEEE, i32 0, i32 0), i8* bitcast ({ i8*, i8* }* @_ZTIN11__gnu_debug19_Safe_sequence_baseE to i8*) }, comdat
@_ZTIN11__gnu_debug15_Safe_containerINSt7__debug6vectorIiSaIiEEES3_NS_14_Safe_sequenceELb1EEE = linkonce_odr constant { i8*, i8*, i8* } { i8* bitcast (i8** getelementptr inbounds (i8*, i8** @_ZTVN10__cxxabiv120__si_class_type_infoE, i64 2) to i8*), i8* getelementptr inbounds ([89 x i8], [89 x i8]* @_ZTSN11__gnu_debug15_Safe_containerINSt7__debug6vectorIiSaIiEEES3_NS_14_Safe_sequenceELb1EEE, i32 0, i32 0), i8* bitcast ({ i8*, i8*, i8* }* @_ZTIN11__gnu_debug14_Safe_sequenceINSt7__debug6vectorIiSaIiEEEEE to i8*) }, comdat
@_ZTSNSt9__cxx19986vectorIiSaIiEEE = linkonce_odr constant [30 x i8] c"NSt9__cxx19986vectorIiSaIiEEE\00", comdat
@_ZTSNSt9__cxx199812_Vector_baseIiSaIiEEE = linkonce_odr constant [37 x i8] c"NSt9__cxx199812_Vector_baseIiSaIiEEE\00", comdat
@_ZTINSt9__cxx199812_Vector_baseIiSaIiEEE = linkonce_odr constant { i8*, i8* } { i8* bitcast (i8** getelementptr inbounds (i8*, i8** @_ZTVN10__cxxabiv117__class_type_infoE, i64 2) to i8*), i8* getelementptr inbounds ([37 x i8], [37 x i8]* @_ZTSNSt9__cxx199812_Vector_baseIiSaIiEEE, i32 0, i32 0) }, comdat
@_ZTINSt9__cxx19986vectorIiSaIiEEE = linkonce_odr constant { i8*, i8*, i32, i32, i8*, i64 } { i8* bitcast (i8** getelementptr inbounds (i8*, i8** @_ZTVN10__cxxabiv121__vmi_class_type_infoE, i64 2) to i8*), i8* getelementptr inbounds ([30 x i8], [30 x i8]* @_ZTSNSt9__cxx19986vectorIiSaIiEEE, i32 0, i32 0), i32 0, i32 1, i8* bitcast ({ i8*, i8* }* @_ZTINSt9__cxx199812_Vector_baseIiSaIiEEE to i8*), i64 0 }, comdat
@_ZTSN11__gnu_debug12_Safe_vectorINSt7__debug6vectorIiSaIiEEENSt9__cxx19986vectorIiS3_EEEE = linkonce_odr constant [86 x i8] c"N11__gnu_debug12_Safe_vectorINSt7__debug6vectorIiSaIiEEENSt9__cxx19986vectorIiS3_EEEE\00", comdat
@_ZTIN11__gnu_debug12_Safe_vectorINSt7__debug6vectorIiSaIiEEENSt9__cxx19986vectorIiS3_EEEE = linkonce_odr constant { i8*, i8* } { i8* bitcast (i8** getelementptr inbounds (i8*, i8** @_ZTVN10__cxxabiv117__class_type_infoE, i64 2) to i8*), i8* getelementptr inbounds ([86 x i8], [86 x i8]* @_ZTSN11__gnu_debug12_Safe_vectorINSt7__debug6vectorIiSaIiEEENSt9__cxx19986vectorIiS3_EEEE, i32 0, i32 0) }, comdat
@_ZTINSt7__debug6vectorIiSaIiEEE = linkonce_odr constant { i8*, i8*, i32, i32, i8*, i64, i8*, i64, i8*, i64 } { i8* bitcast (i8** getelementptr inbounds (i8*, i8** @_ZTVN10__cxxabiv121__vmi_class_type_infoE, i64 2) to i8*), i8* getelementptr inbounds ([28 x i8], [28 x i8]* @_ZTSNSt7__debug6vectorIiSaIiEEE, i32 0, i32 0), i32 0, i32 3, i8* bitcast ({ i8*, i8*, i8* }* @_ZTIN11__gnu_debug15_Safe_containerINSt7__debug6vectorIiSaIiEEES3_NS_14_Safe_sequenceELb1EEE to i8*), i64 2, i8* bitcast ({ i8*, i8*, i32, i32, i8*, i64 }* @_ZTINSt9__cxx19986vectorIiSaIiEEE to i8*), i64 6146, i8* bitcast ({ i8*, i8* }* @_ZTIN11__gnu_debug12_Safe_vectorINSt7__debug6vectorIiSaIiEEENSt9__cxx19986vectorIiS3_EEEE to i8*), i64 12290 }, comdat
@.str.4 = private unnamed_addr constant [88 x i8] c"/usr/lib/gcc/x86_64-linux-gnu/5.4.0/../../../../include/c++/5.4.0/debug/safe_iterator.h\00", align 1
@_ZTSN11__gnu_debug14_Safe_iteratorIN9__gnu_cxx17__normal_iteratorIPiNSt9__cxx19986vectorIiSaIiEEEEENSt7__debug6vectorIiS6_EEEE = linkonce_odr constant [123 x i8] c"N11__gnu_debug14_Safe_iteratorIN9__gnu_cxx17__normal_iteratorIPiNSt9__cxx19986vectorIiSaIiEEEEENSt7__debug6vectorIiS6_EEEE\00", comdat
@_ZTSN9__gnu_cxx17__normal_iteratorIPiNSt9__cxx19986vectorIiSaIiEEEEE = linkonce_odr constant [65 x i8] c"N9__gnu_cxx17__normal_iteratorIPiNSt9__cxx19986vectorIiSaIiEEEEE\00", comdat
@_ZTIN9__gnu_cxx17__normal_iteratorIPiNSt9__cxx19986vectorIiSaIiEEEEE = linkonce_odr constant { i8*, i8* } { i8* bitcast (i8** getelementptr inbounds (i8*, i8** @_ZTVN10__cxxabiv117__class_type_infoE, i64 2) to i8*), i8* getelementptr inbounds ([65 x i8], [65 x i8]* @_ZTSN9__gnu_cxx17__normal_iteratorIPiNSt9__cxx19986vectorIiSaIiEEEEE, i32 0, i32 0) }, comdat
@_ZTSN11__gnu_debug19_Safe_iterator_baseE = linkonce_odr constant [37 x i8] c"N11__gnu_debug19_Safe_iterator_baseE\00", comdat
@_ZTIN11__gnu_debug19_Safe_iterator_baseE = linkonce_odr constant { i8*, i8* } { i8* bitcast (i8** getelementptr inbounds (i8*, i8** @_ZTVN10__cxxabiv117__class_type_infoE, i64 2) to i8*), i8* getelementptr inbounds ([37 x i8], [37 x i8]* @_ZTSN11__gnu_debug19_Safe_iterator_baseE, i32 0, i32 0) }, comdat
@_ZTIN11__gnu_debug14_Safe_iteratorIN9__gnu_cxx17__normal_iteratorIPiNSt9__cxx19986vectorIiSaIiEEEEENSt7__debug6vectorIiS6_EEEE = linkonce_odr constant { i8*, i8*, i32, i32, i8*, i64, i8*, i64 } { i8* bitcast (i8** getelementptr inbounds (i8*, i8** @_ZTVN10__cxxabiv121__vmi_class_type_infoE, i64 2) to i8*), i8* getelementptr inbounds ([123 x i8], [123 x i8]* @_ZTSN11__gnu_debug14_Safe_iteratorIN9__gnu_cxx17__normal_iteratorIPiNSt9__cxx19986vectorIiSaIiEEEEENSt7__debug6vectorIiS6_EEEE, i32 0, i32 0), i32 0, i32 2, i8* bitcast ({ i8*, i8* }* @_ZTIN9__gnu_cxx17__normal_iteratorIPiNSt9__cxx19986vectorIiSaIiEEEEE to i8*), i64 0, i8* bitcast ({ i8*, i8* }* @_ZTIN11__gnu_debug19_Safe_iterator_baseE to i8*), i64 2050 }, comdat
@.str.5 = private unnamed_addr constant [82 x i8] c"/usr/lib/gcc/x86_64-linux-gnu/5.4.0/../../../../include/c++/5.4.0/bits/stl_algo.h\00", align 1
@.str.6 = private unnamed_addr constant [8 x i8] c"__first\00", align 1
@.str.7 = private unnamed_addr constant [7 x i8] c"__last\00", align 1
@.str.8 = private unnamed_addr constant [4 x i8] c"lhs\00", align 1
@.str.9 = private unnamed_addr constant [4 x i8] c"rhs\00", align 1
@_ZZL18__gthread_active_pvE20__gthread_active_ptr = internal constant i8* bitcast (i32 (i32*, void (i8*)*)* @__pthread_key_create to i8*), align 8
@_ZTSN9__gnu_cxx24__concurrence_lock_errorE = linkonce_odr constant [39 x i8] c"N9__gnu_cxx24__concurrence_lock_errorE\00", comdat
@_ZTISt9exception = external constant i8*
@_ZTIN9__gnu_cxx24__concurrence_lock_errorE = linkonce_odr constant { i8*, i8*, i8* } { i8* bitcast (i8** getelementptr inbounds (i8*, i8** @_ZTVN10__cxxabiv120__si_class_type_infoE, i64 2) to i8*), i8* getelementptr inbounds ([39 x i8], [39 x i8]* @_ZTSN9__gnu_cxx24__concurrence_lock_errorE, i32 0, i32 0), i8* bitcast (i8** @_ZTISt9exception to i8*) }, comdat
@_ZTVN9__gnu_cxx24__concurrence_lock_errorE = linkonce_odr unnamed_addr constant { [5 x i8*] } { [5 x i8*] [i8* null, i8* bitcast ({ i8*, i8*, i8* }* @_ZTIN9__gnu_cxx24__concurrence_lock_errorE to i8*), i8* bitcast (void (%"class.__gnu_cxx::__concurrence_lock_error"*)* @_ZN9__gnu_cxx24__concurrence_lock_errorD2Ev to i8*), i8* bitcast (void (%"class.__gnu_cxx::__concurrence_lock_error"*)* @_ZN9__gnu_cxx24__concurrence_lock_errorD0Ev to i8*), i8* bitcast (i8* (%"class.__gnu_cxx::__concurrence_lock_error"*)* @_ZNK9__gnu_cxx24__concurrence_lock_error4whatEv to i8*)] }, comdat, align 8
@_ZTVSt9exception = external unnamed_addr constant { [5 x i8*] }
@.str.10 = private unnamed_addr constant [36 x i8] c"__gnu_cxx::__concurrence_lock_error\00", align 1
@_ZTSN9__gnu_cxx26__concurrence_unlock_errorE = linkonce_odr constant [41 x i8] c"N9__gnu_cxx26__concurrence_unlock_errorE\00", comdat
@_ZTIN9__gnu_cxx26__concurrence_unlock_errorE = linkonce_odr constant { i8*, i8*, i8* } { i8* bitcast (i8** getelementptr inbounds (i8*, i8** @_ZTVN10__cxxabiv120__si_class_type_infoE, i64 2) to i8*), i8* getelementptr inbounds ([41 x i8], [41 x i8]* @_ZTSN9__gnu_cxx26__concurrence_unlock_errorE, i32 0, i32 0), i8* bitcast (i8** @_ZTISt9exception to i8*) }, comdat
@_ZTVN9__gnu_cxx26__concurrence_unlock_errorE = linkonce_odr unnamed_addr constant { [5 x i8*] } { [5 x i8*] [i8* null, i8* bitcast ({ i8*, i8*, i8* }* @_ZTIN9__gnu_cxx26__concurrence_unlock_errorE to i8*), i8* bitcast (void (%"class.__gnu_cxx::__concurrence_unlock_error"*)* @_ZN9__gnu_cxx26__concurrence_unlock_errorD2Ev to i8*), i8* bitcast (void (%"class.__gnu_cxx::__concurrence_unlock_error"*)* @_ZN9__gnu_cxx26__concurrence_unlock_errorD0Ev to i8*), i8* bitcast (i8* (%"class.__gnu_cxx::__concurrence_unlock_error"*)* @_ZNK9__gnu_cxx26__concurrence_unlock_error4whatEv to i8*)] }, comdat, align 8
@.str.11 = private unnamed_addr constant [38 x i8] c"__gnu_cxx::__concurrence_unlock_error\00", align 1
@.str.12 = private unnamed_addr constant [6 x i8] c"other\00", align 1
@.str.13 = private unnamed_addr constant [86 x i8] c"/usr/lib/gcc/x86_64-linux-gnu/5.4.0/../../../../include/c++/5.4.0/bits/stl_algobase.h\00", align 1
@_ZTSNSt7__debug6vectorINS0_ISt4pairIiiESaIS2_EEESaIS4_EEE = linkonce_odr constant [54 x i8] c"NSt7__debug6vectorINS0_ISt4pairIiiESaIS2_EEESaIS4_EEE\00", comdat
@_ZTSN11__gnu_debug15_Safe_containerINSt7__debug6vectorINS2_ISt4pairIiiESaIS4_EEESaIS6_EEES7_NS_14_Safe_sequenceELb1EEE = linkonce_odr constant [115 x i8] c"N11__gnu_debug15_Safe_containerINSt7__debug6vectorINS2_ISt4pairIiiESaIS4_EEESaIS6_EEES7_NS_14_Safe_sequenceELb1EEE\00", comdat
@_ZTSN11__gnu_debug14_Safe_sequenceINSt7__debug6vectorINS2_ISt4pairIiiESaIS4_EEESaIS6_EEEEE = linkonce_odr constant [87 x i8] c"N11__gnu_debug14_Safe_sequenceINSt7__debug6vectorINS2_ISt4pairIiiESaIS4_EEESaIS6_EEEEE\00", comdat
@_ZTIN11__gnu_debug14_Safe_sequenceINSt7__debug6vectorINS2_ISt4pairIiiESaIS4_EEESaIS6_EEEEE = linkonce_odr constant { i8*, i8*, i8* } { i8* bitcast (i8** getelementptr inbounds (i8*, i8** @_ZTVN10__cxxabiv120__si_class_type_infoE, i64 2) to i8*), i8* getelementptr inbounds ([87 x i8], [87 x i8]* @_ZTSN11__gnu_debug14_Safe_sequenceINSt7__debug6vectorINS2_ISt4pairIiiESaIS4_EEESaIS6_EEEEE, i32 0, i32 0), i8* bitcast ({ i8*, i8* }* @_ZTIN11__gnu_debug19_Safe_sequence_baseE to i8*) }, comdat
@_ZTIN11__gnu_debug15_Safe_containerINSt7__debug6vectorINS2_ISt4pairIiiESaIS4_EEESaIS6_EEES7_NS_14_Safe_sequenceELb1EEE = linkonce_odr constant { i8*, i8*, i8* } { i8* bitcast (i8** getelementptr inbounds (i8*, i8** @_ZTVN10__cxxabiv120__si_class_type_infoE, i64 2) to i8*), i8* getelementptr inbounds ([115 x i8], [115 x i8]* @_ZTSN11__gnu_debug15_Safe_containerINSt7__debug6vectorINS2_ISt4pairIiiESaIS4_EEESaIS6_EEES7_NS_14_Safe_sequenceELb1EEE, i32 0, i32 0), i8* bitcast ({ i8*, i8*, i8* }* @_ZTIN11__gnu_debug14_Safe_sequenceINSt7__debug6vectorINS2_ISt4pairIiiESaIS4_EEESaIS6_EEEEE to i8*) }, comdat
@_ZTSNSt9__cxx19986vectorINSt7__debug6vectorISt4pairIiiESaIS4_EEESaIS6_EEE = linkonce_odr constant [70 x i8] c"NSt9__cxx19986vectorINSt7__debug6vectorISt4pairIiiESaIS4_EEESaIS6_EEE\00", comdat
@_ZTSNSt9__cxx199812_Vector_baseINSt7__debug6vectorISt4pairIiiESaIS4_EEESaIS6_EEE = linkonce_odr constant [77 x i8] c"NSt9__cxx199812_Vector_baseINSt7__debug6vectorISt4pairIiiESaIS4_EEESaIS6_EEE\00", comdat
@_ZTINSt9__cxx199812_Vector_baseINSt7__debug6vectorISt4pairIiiESaIS4_EEESaIS6_EEE = linkonce_odr constant { i8*, i8* } { i8* bitcast (i8** getelementptr inbounds (i8*, i8** @_ZTVN10__cxxabiv117__class_type_infoE, i64 2) to i8*), i8* getelementptr inbounds ([77 x i8], [77 x i8]* @_ZTSNSt9__cxx199812_Vector_baseINSt7__debug6vectorISt4pairIiiESaIS4_EEESaIS6_EEE, i32 0, i32 0) }, comdat
@_ZTINSt9__cxx19986vectorINSt7__debug6vectorISt4pairIiiESaIS4_EEESaIS6_EEE = linkonce_odr constant { i8*, i8*, i32, i32, i8*, i64 } { i8* bitcast (i8** getelementptr inbounds (i8*, i8** @_ZTVN10__cxxabiv121__vmi_class_type_infoE, i64 2) to i8*), i8* getelementptr inbounds ([70 x i8], [70 x i8]* @_ZTSNSt9__cxx19986vectorINSt7__debug6vectorISt4pairIiiESaIS4_EEESaIS6_EEE, i32 0, i32 0), i32 0, i32 1, i8* bitcast ({ i8*, i8* }* @_ZTINSt9__cxx199812_Vector_baseINSt7__debug6vectorISt4pairIiiESaIS4_EEESaIS6_EEE to i8*), i64 0 }, comdat
@_ZTSN11__gnu_debug12_Safe_vectorINSt7__debug6vectorINS2_ISt4pairIiiESaIS4_EEESaIS6_EEENSt9__cxx19986vectorIS6_S7_EEEE = linkonce_odr constant [114 x i8] c"N11__gnu_debug12_Safe_vectorINSt7__debug6vectorINS2_ISt4pairIiiESaIS4_EEESaIS6_EEENSt9__cxx19986vectorIS6_S7_EEEE\00", comdat
@_ZTIN11__gnu_debug12_Safe_vectorINSt7__debug6vectorINS2_ISt4pairIiiESaIS4_EEESaIS6_EEENSt9__cxx19986vectorIS6_S7_EEEE = linkonce_odr constant { i8*, i8* } { i8* bitcast (i8** getelementptr inbounds (i8*, i8** @_ZTVN10__cxxabiv117__class_type_infoE, i64 2) to i8*), i8* getelementptr inbounds ([114 x i8], [114 x i8]* @_ZTSN11__gnu_debug12_Safe_vectorINSt7__debug6vectorINS2_ISt4pairIiiESaIS4_EEESaIS6_EEENSt9__cxx19986vectorIS6_S7_EEEE, i32 0, i32 0) }, comdat
@_ZTINSt7__debug6vectorINS0_ISt4pairIiiESaIS2_EEESaIS4_EEE = linkonce_odr constant { i8*, i8*, i32, i32, i8*, i64, i8*, i64, i8*, i64 } { i8* bitcast (i8** getelementptr inbounds (i8*, i8** @_ZTVN10__cxxabiv121__vmi_class_type_infoE, i64 2) to i8*), i8* getelementptr inbounds ([54 x i8], [54 x i8]* @_ZTSNSt7__debug6vectorINS0_ISt4pairIiiESaIS2_EEESaIS4_EEE, i32 0, i32 0), i32 0, i32 3, i8* bitcast ({ i8*, i8*, i8* }* @_ZTIN11__gnu_debug15_Safe_containerINSt7__debug6vectorINS2_ISt4pairIiiESaIS4_EEESaIS6_EEES7_NS_14_Safe_sequenceELb1EEE to i8*), i64 2, i8* bitcast ({ i8*, i8*, i32, i32, i8*, i64 }* @_ZTINSt9__cxx19986vectorINSt7__debug6vectorISt4pairIiiESaIS4_EEESaIS6_EEE to i8*), i64 6146, i8* bitcast ({ i8*, i8* }* @_ZTIN11__gnu_debug12_Safe_vectorINSt7__debug6vectorINS2_ISt4pairIiiESaIS4_EEESaIS6_EEENSt9__cxx19986vectorIS6_S7_EEEE to i8*), i64 12290 }, comdat
@.str.14 = private unnamed_addr constant [28 x i8] c"vector::_M_emplace_back_aux\00", align 1
@_ZTSN9__gnu_cxx17__normal_iteratorIPKiNSt9__cxx19986vectorIiSaIiEEEEE = linkonce_odr constant [66 x i8] c"N9__gnu_cxx17__normal_iteratorIPKiNSt9__cxx19986vectorIiSaIiEEEEE\00", comdat
@_ZTIN9__gnu_cxx17__normal_iteratorIPKiNSt9__cxx19986vectorIiSaIiEEEEE = linkonce_odr constant { i8*, i8* } { i8* bitcast (i8** getelementptr inbounds (i8*, i8** @_ZTVN10__cxxabiv117__class_type_infoE, i64 2) to i8*), i8* getelementptr inbounds ([66 x i8], [66 x i8]* @_ZTSN9__gnu_cxx17__normal_iteratorIPKiNSt9__cxx19986vectorIiSaIiEEEEE, i32 0, i32 0) }, comdat
@_ZTVN10__cxxabiv119__pointer_type_infoE = external global i8*
@_ZTSPPi = linkonce_odr constant [4 x i8] c"PPi\00", comdat
@_ZTIPi = external constant i8*
@_ZTIPPi = linkonce_odr constant { i8*, i8*, i32, i8* } { i8* bitcast (i8** getelementptr inbounds (i8*, i8** @_ZTVN10__cxxabiv119__pointer_type_infoE, i64 2) to i8*), i8* getelementptr inbounds ([4 x i8], [4 x i8]* @_ZTSPPi, i32 0, i32 0), i32 0, i8* bitcast (i8** @_ZTIPi to i8*) }, comdat
@.str.15 = private unnamed_addr constant [83 x i8] c"/usr/lib/gcc/x86_64-linux-gnu/5.4.0/../../../../include/c++/5.4.0/bits/stl_queue.h\00", align 1
@_ZTSSt5queueIiNSt7__debug5dequeIiSaIiEEEE = linkonce_odr constant [38 x i8] c"St5queueIiNSt7__debug5dequeIiSaIiEEEE\00", comdat
@_ZTISt5queueIiNSt7__debug5dequeIiSaIiEEEE = linkonce_odr constant { i8*, i8* } { i8* bitcast (i8** getelementptr inbounds (i8*, i8** @_ZTVN10__cxxabiv117__class_type_infoE, i64 2) to i8*), i8* getelementptr inbounds ([38 x i8], [38 x i8]* @_ZTSSt5queueIiNSt7__debug5dequeIiSaIiEEEE, i32 0, i32 0) }, comdat
@.str.16 = private unnamed_addr constant [78 x i8] c"/usr/lib/gcc/x86_64-linux-gnu/5.4.0/../../../../include/c++/5.4.0/debug/deque\00", align 1
@_ZTSNSt7__debug5dequeIiSaIiEEE = linkonce_odr constant [27 x i8] c"NSt7__debug5dequeIiSaIiEEE\00", comdat
@_ZTSN11__gnu_debug15_Safe_containerINSt7__debug5dequeIiSaIiEEES3_NS_14_Safe_sequenceELb1EEE = linkonce_odr constant [88 x i8] c"N11__gnu_debug15_Safe_containerINSt7__debug5dequeIiSaIiEEES3_NS_14_Safe_sequenceELb1EEE\00", comdat
@_ZTSN11__gnu_debug14_Safe_sequenceINSt7__debug5dequeIiSaIiEEEEE = linkonce_odr constant [60 x i8] c"N11__gnu_debug14_Safe_sequenceINSt7__debug5dequeIiSaIiEEEEE\00", comdat
@_ZTIN11__gnu_debug14_Safe_sequenceINSt7__debug5dequeIiSaIiEEEEE = linkonce_odr constant { i8*, i8*, i8* } { i8* bitcast (i8** getelementptr inbounds (i8*, i8** @_ZTVN10__cxxabiv120__si_class_type_infoE, i64 2) to i8*), i8* getelementptr inbounds ([60 x i8], [60 x i8]* @_ZTSN11__gnu_debug14_Safe_sequenceINSt7__debug5dequeIiSaIiEEEEE, i32 0, i32 0), i8* bitcast ({ i8*, i8* }* @_ZTIN11__gnu_debug19_Safe_sequence_baseE to i8*) }, comdat
@_ZTIN11__gnu_debug15_Safe_containerINSt7__debug5dequeIiSaIiEEES3_NS_14_Safe_sequenceELb1EEE = linkonce_odr constant { i8*, i8*, i8* } { i8* bitcast (i8** getelementptr inbounds (i8*, i8** @_ZTVN10__cxxabiv120__si_class_type_infoE, i64 2) to i8*), i8* getelementptr inbounds ([88 x i8], [88 x i8]* @_ZTSN11__gnu_debug15_Safe_containerINSt7__debug5dequeIiSaIiEEES3_NS_14_Safe_sequenceELb1EEE, i32 0, i32 0), i8* bitcast ({ i8*, i8*, i8* }* @_ZTIN11__gnu_debug14_Safe_sequenceINSt7__debug5dequeIiSaIiEEEEE to i8*) }, comdat
@_ZTSNSt9__cxx19985dequeIiSaIiEEE = linkonce_odr constant [29 x i8] c"NSt9__cxx19985dequeIiSaIiEEE\00", comdat
@_ZTSNSt9__cxx199811_Deque_baseIiSaIiEEE = linkonce_odr constant [36 x i8] c"NSt9__cxx199811_Deque_baseIiSaIiEEE\00", comdat
@_ZTINSt9__cxx199811_Deque_baseIiSaIiEEE = linkonce_odr constant { i8*, i8* } { i8* bitcast (i8** getelementptr inbounds (i8*, i8** @_ZTVN10__cxxabiv117__class_type_infoE, i64 2) to i8*), i8* getelementptr inbounds ([36 x i8], [36 x i8]* @_ZTSNSt9__cxx199811_Deque_baseIiSaIiEEE, i32 0, i32 0) }, comdat
@_ZTINSt9__cxx19985dequeIiSaIiEEE = linkonce_odr constant { i8*, i8*, i32, i32, i8*, i64 } { i8* bitcast (i8** getelementptr inbounds (i8*, i8** @_ZTVN10__cxxabiv121__vmi_class_type_infoE, i64 2) to i8*), i8* getelementptr inbounds ([29 x i8], [29 x i8]* @_ZTSNSt9__cxx19985dequeIiSaIiEEE, i32 0, i32 0), i32 0, i32 1, i8* bitcast ({ i8*, i8* }* @_ZTINSt9__cxx199811_Deque_baseIiSaIiEEE to i8*), i64 0 }, comdat
@_ZTINSt7__debug5dequeIiSaIiEEE = linkonce_odr constant { i8*, i8*, i32, i32, i8*, i64, i8*, i64 } { i8* bitcast (i8** getelementptr inbounds (i8*, i8** @_ZTVN10__cxxabiv121__vmi_class_type_infoE, i64 2) to i8*), i8* getelementptr inbounds ([27 x i8], [27 x i8]* @_ZTSNSt7__debug5dequeIiSaIiEEE, i32 0, i32 0), i32 0, i32 2, i8* bitcast ({ i8*, i8*, i8* }* @_ZTIN11__gnu_debug15_Safe_containerINSt7__debug5dequeIiSaIiEEES3_NS_14_Safe_sequenceELb1EEE to i8*), i64 2, i8* bitcast ({ i8*, i8*, i32, i32, i8*, i64 }* @_ZTINSt9__cxx19985dequeIiSaIiEEE to i8*), i64 6146 }, comdat
@_ZTSN11__gnu_debug14_Safe_iteratorIN9__gnu_cxx17__normal_iteratorIPSt4pairIiiENSt9__cxx19986vectorIS4_SaIS4_EEEEENSt7__debug6vectorIS4_S8_EEEE = linkonce_odr constant [139 x i8] c"N11__gnu_debug14_Safe_iteratorIN9__gnu_cxx17__normal_iteratorIPSt4pairIiiENSt9__cxx19986vectorIS4_SaIS4_EEEEENSt7__debug6vectorIS4_S8_EEEE\00", comdat
@_ZTSN9__gnu_cxx17__normal_iteratorIPSt4pairIiiENSt9__cxx19986vectorIS2_SaIS2_EEEEE = linkonce_odr constant [79 x i8] c"N9__gnu_cxx17__normal_iteratorIPSt4pairIiiENSt9__cxx19986vectorIS2_SaIS2_EEEEE\00", comdat
@_ZTIN9__gnu_cxx17__normal_iteratorIPSt4pairIiiENSt9__cxx19986vectorIS2_SaIS2_EEEEE = linkonce_odr constant { i8*, i8* } { i8* bitcast (i8** getelementptr inbounds (i8*, i8** @_ZTVN10__cxxabiv117__class_type_infoE, i64 2) to i8*), i8* getelementptr inbounds ([79 x i8], [79 x i8]* @_ZTSN9__gnu_cxx17__normal_iteratorIPSt4pairIiiENSt9__cxx19986vectorIS2_SaIS2_EEEEE, i32 0, i32 0) }, comdat
@_ZTIN11__gnu_debug14_Safe_iteratorIN9__gnu_cxx17__normal_iteratorIPSt4pairIiiENSt9__cxx19986vectorIS4_SaIS4_EEEEENSt7__debug6vectorIS4_S8_EEEE = linkonce_odr constant { i8*, i8*, i32, i32, i8*, i64, i8*, i64 } { i8* bitcast (i8** getelementptr inbounds (i8*, i8** @_ZTVN10__cxxabiv121__vmi_class_type_infoE, i64 2) to i8*), i8* getelementptr inbounds ([139 x i8], [139 x i8]* @_ZTSN11__gnu_debug14_Safe_iteratorIN9__gnu_cxx17__normal_iteratorIPSt4pairIiiENSt9__cxx19986vectorIS4_SaIS4_EEEEENSt7__debug6vectorIS4_S8_EEEE, i32 0, i32 0), i32 0, i32 2, i8* bitcast ({ i8*, i8* }* @_ZTIN9__gnu_cxx17__normal_iteratorIPSt4pairIiiENSt9__cxx19986vectorIS2_SaIS2_EEEEE to i8*), i64 0, i8* bitcast ({ i8*, i8* }* @_ZTIN11__gnu_debug19_Safe_iterator_baseE to i8*), i64 2050 }, comdat
@_ZTSNSt7__debug6vectorISt4pairIiiESaIS2_EEE = linkonce_odr constant [40 x i8] c"NSt7__debug6vectorISt4pairIiiESaIS2_EEE\00", comdat
@_ZTSN11__gnu_debug15_Safe_containerINSt7__debug6vectorISt4pairIiiESaIS4_EEES5_NS_14_Safe_sequenceELb1EEE = linkonce_odr constant [101 x i8] c"N11__gnu_debug15_Safe_containerINSt7__debug6vectorISt4pairIiiESaIS4_EEES5_NS_14_Safe_sequenceELb1EEE\00", comdat
@_ZTSN11__gnu_debug14_Safe_sequenceINSt7__debug6vectorISt4pairIiiESaIS4_EEEEE = linkonce_odr constant [73 x i8] c"N11__gnu_debug14_Safe_sequenceINSt7__debug6vectorISt4pairIiiESaIS4_EEEEE\00", comdat
@_ZTIN11__gnu_debug14_Safe_sequenceINSt7__debug6vectorISt4pairIiiESaIS4_EEEEE = linkonce_odr constant { i8*, i8*, i8* } { i8* bitcast (i8** getelementptr inbounds (i8*, i8** @_ZTVN10__cxxabiv120__si_class_type_infoE, i64 2) to i8*), i8* getelementptr inbounds ([73 x i8], [73 x i8]* @_ZTSN11__gnu_debug14_Safe_sequenceINSt7__debug6vectorISt4pairIiiESaIS4_EEEEE, i32 0, i32 0), i8* bitcast ({ i8*, i8* }* @_ZTIN11__gnu_debug19_Safe_sequence_baseE to i8*) }, comdat
@_ZTIN11__gnu_debug15_Safe_containerINSt7__debug6vectorISt4pairIiiESaIS4_EEES5_NS_14_Safe_sequenceELb1EEE = linkonce_odr constant { i8*, i8*, i8* } { i8* bitcast (i8** getelementptr inbounds (i8*, i8** @_ZTVN10__cxxabiv120__si_class_type_infoE, i64 2) to i8*), i8* getelementptr inbounds ([101 x i8], [101 x i8]* @_ZTSN11__gnu_debug15_Safe_containerINSt7__debug6vectorISt4pairIiiESaIS4_EEES5_NS_14_Safe_sequenceELb1EEE, i32 0, i32 0), i8* bitcast ({ i8*, i8*, i8* }* @_ZTIN11__gnu_debug14_Safe_sequenceINSt7__debug6vectorISt4pairIiiESaIS4_EEEEE to i8*) }, comdat
@_ZTSNSt9__cxx19986vectorISt4pairIiiESaIS2_EEE = linkonce_odr constant [42 x i8] c"NSt9__cxx19986vectorISt4pairIiiESaIS2_EEE\00", comdat
@_ZTSNSt9__cxx199812_Vector_baseISt4pairIiiESaIS2_EEE = linkonce_odr constant [49 x i8] c"NSt9__cxx199812_Vector_baseISt4pairIiiESaIS2_EEE\00", comdat
@_ZTINSt9__cxx199812_Vector_baseISt4pairIiiESaIS2_EEE = linkonce_odr constant { i8*, i8* } { i8* bitcast (i8** getelementptr inbounds (i8*, i8** @_ZTVN10__cxxabiv117__class_type_infoE, i64 2) to i8*), i8* getelementptr inbounds ([49 x i8], [49 x i8]* @_ZTSNSt9__cxx199812_Vector_baseISt4pairIiiESaIS2_EEE, i32 0, i32 0) }, comdat
@_ZTINSt9__cxx19986vectorISt4pairIiiESaIS2_EEE = linkonce_odr constant { i8*, i8*, i32, i32, i8*, i64 } { i8* bitcast (i8** getelementptr inbounds (i8*, i8** @_ZTVN10__cxxabiv121__vmi_class_type_infoE, i64 2) to i8*), i8* getelementptr inbounds ([42 x i8], [42 x i8]* @_ZTSNSt9__cxx19986vectorISt4pairIiiESaIS2_EEE, i32 0, i32 0), i32 0, i32 1, i8* bitcast ({ i8*, i8* }* @_ZTINSt9__cxx199812_Vector_baseISt4pairIiiESaIS2_EEE to i8*), i64 0 }, comdat
@_ZTSN11__gnu_debug12_Safe_vectorINSt7__debug6vectorISt4pairIiiESaIS4_EEENSt9__cxx19986vectorIS4_S5_EEEE = linkonce_odr constant [100 x i8] c"N11__gnu_debug12_Safe_vectorINSt7__debug6vectorISt4pairIiiESaIS4_EEENSt9__cxx19986vectorIS4_S5_EEEE\00", comdat
@_ZTIN11__gnu_debug12_Safe_vectorINSt7__debug6vectorISt4pairIiiESaIS4_EEENSt9__cxx19986vectorIS4_S5_EEEE = linkonce_odr constant { i8*, i8* } { i8* bitcast (i8** getelementptr inbounds (i8*, i8** @_ZTVN10__cxxabiv117__class_type_infoE, i64 2) to i8*), i8* getelementptr inbounds ([100 x i8], [100 x i8]* @_ZTSN11__gnu_debug12_Safe_vectorINSt7__debug6vectorISt4pairIiiESaIS4_EEENSt9__cxx19986vectorIS4_S5_EEEE, i32 0, i32 0) }, comdat
@_ZTINSt7__debug6vectorISt4pairIiiESaIS2_EEE = linkonce_odr constant { i8*, i8*, i32, i32, i8*, i64, i8*, i64, i8*, i64 } { i8* bitcast (i8** getelementptr inbounds (i8*, i8** @_ZTVN10__cxxabiv121__vmi_class_type_infoE, i64 2) to i8*), i8* getelementptr inbounds ([40 x i8], [40 x i8]* @_ZTSNSt7__debug6vectorISt4pairIiiESaIS2_EEE, i32 0, i32 0), i32 0, i32 3, i8* bitcast ({ i8*, i8*, i8* }* @_ZTIN11__gnu_debug15_Safe_containerINSt7__debug6vectorISt4pairIiiESaIS4_EEES5_NS_14_Safe_sequenceELb1EEE to i8*), i64 2, i8* bitcast ({ i8*, i8*, i32, i32, i8*, i64 }* @_ZTINSt9__cxx19986vectorISt4pairIiiESaIS2_EEE to i8*), i64 6146, i8* bitcast ({ i8*, i8* }* @_ZTIN11__gnu_debug12_Safe_vectorINSt7__debug6vectorISt4pairIiiESaIS4_EEENSt9__cxx19986vectorIS4_S5_EEEE to i8*), i64 12290 }, comdat
@_ZTSNSt7__debug6vectorINS0_IiSaIiEEESaIS2_EEE = linkonce_odr constant [42 x i8] c"NSt7__debug6vectorINS0_IiSaIiEEESaIS2_EEE\00", comdat
@_ZTSN11__gnu_debug15_Safe_containerINSt7__debug6vectorINS2_IiSaIiEEESaIS4_EEES5_NS_14_Safe_sequenceELb1EEE = linkonce_odr constant [103 x i8] c"N11__gnu_debug15_Safe_containerINSt7__debug6vectorINS2_IiSaIiEEESaIS4_EEES5_NS_14_Safe_sequenceELb1EEE\00", comdat
@_ZTSN11__gnu_debug14_Safe_sequenceINSt7__debug6vectorINS2_IiSaIiEEESaIS4_EEEEE = linkonce_odr constant [75 x i8] c"N11__gnu_debug14_Safe_sequenceINSt7__debug6vectorINS2_IiSaIiEEESaIS4_EEEEE\00", comdat
@_ZTIN11__gnu_debug14_Safe_sequenceINSt7__debug6vectorINS2_IiSaIiEEESaIS4_EEEEE = linkonce_odr constant { i8*, i8*, i8* } { i8* bitcast (i8** getelementptr inbounds (i8*, i8** @_ZTVN10__cxxabiv120__si_class_type_infoE, i64 2) to i8*), i8* getelementptr inbounds ([75 x i8], [75 x i8]* @_ZTSN11__gnu_debug14_Safe_sequenceINSt7__debug6vectorINS2_IiSaIiEEESaIS4_EEEEE, i32 0, i32 0), i8* bitcast ({ i8*, i8* }* @_ZTIN11__gnu_debug19_Safe_sequence_baseE to i8*) }, comdat
@_ZTIN11__gnu_debug15_Safe_containerINSt7__debug6vectorINS2_IiSaIiEEESaIS4_EEES5_NS_14_Safe_sequenceELb1EEE = linkonce_odr constant { i8*, i8*, i8* } { i8* bitcast (i8** getelementptr inbounds (i8*, i8** @_ZTVN10__cxxabiv120__si_class_type_infoE, i64 2) to i8*), i8* getelementptr inbounds ([103 x i8], [103 x i8]* @_ZTSN11__gnu_debug15_Safe_containerINSt7__debug6vectorINS2_IiSaIiEEESaIS4_EEES5_NS_14_Safe_sequenceELb1EEE, i32 0, i32 0), i8* bitcast ({ i8*, i8*, i8* }* @_ZTIN11__gnu_debug14_Safe_sequenceINSt7__debug6vectorINS2_IiSaIiEEESaIS4_EEEEE to i8*) }, comdat
@_ZTSNSt9__cxx19986vectorINSt7__debug6vectorIiSaIiEEESaIS4_EEE = linkonce_odr constant [58 x i8] c"NSt9__cxx19986vectorINSt7__debug6vectorIiSaIiEEESaIS4_EEE\00", comdat
@_ZTSNSt9__cxx199812_Vector_baseINSt7__debug6vectorIiSaIiEEESaIS4_EEE = linkonce_odr constant [65 x i8] c"NSt9__cxx199812_Vector_baseINSt7__debug6vectorIiSaIiEEESaIS4_EEE\00", comdat
@_ZTINSt9__cxx199812_Vector_baseINSt7__debug6vectorIiSaIiEEESaIS4_EEE = linkonce_odr constant { i8*, i8* } { i8* bitcast (i8** getelementptr inbounds (i8*, i8** @_ZTVN10__cxxabiv117__class_type_infoE, i64 2) to i8*), i8* getelementptr inbounds ([65 x i8], [65 x i8]* @_ZTSNSt9__cxx199812_Vector_baseINSt7__debug6vectorIiSaIiEEESaIS4_EEE, i32 0, i32 0) }, comdat
@_ZTINSt9__cxx19986vectorINSt7__debug6vectorIiSaIiEEESaIS4_EEE = linkonce_odr constant { i8*, i8*, i32, i32, i8*, i64 } { i8* bitcast (i8** getelementptr inbounds (i8*, i8** @_ZTVN10__cxxabiv121__vmi_class_type_infoE, i64 2) to i8*), i8* getelementptr inbounds ([58 x i8], [58 x i8]* @_ZTSNSt9__cxx19986vectorINSt7__debug6vectorIiSaIiEEESaIS4_EEE, i32 0, i32 0), i32 0, i32 1, i8* bitcast ({ i8*, i8* }* @_ZTINSt9__cxx199812_Vector_baseINSt7__debug6vectorIiSaIiEEESaIS4_EEE to i8*), i64 0 }, comdat
@_ZTSN11__gnu_debug12_Safe_vectorINSt7__debug6vectorINS2_IiSaIiEEESaIS4_EEENSt9__cxx19986vectorIS4_S5_EEEE = linkonce_odr constant [102 x i8] c"N11__gnu_debug12_Safe_vectorINSt7__debug6vectorINS2_IiSaIiEEESaIS4_EEENSt9__cxx19986vectorIS4_S5_EEEE\00", comdat
@_ZTIN11__gnu_debug12_Safe_vectorINSt7__debug6vectorINS2_IiSaIiEEESaIS4_EEENSt9__cxx19986vectorIS4_S5_EEEE = linkonce_odr constant { i8*, i8* } { i8* bitcast (i8** getelementptr inbounds (i8*, i8** @_ZTVN10__cxxabiv117__class_type_infoE, i64 2) to i8*), i8* getelementptr inbounds ([102 x i8], [102 x i8]* @_ZTSN11__gnu_debug12_Safe_vectorINSt7__debug6vectorINS2_IiSaIiEEESaIS4_EEENSt9__cxx19986vectorIS4_S5_EEEE, i32 0, i32 0) }, comdat
@_ZTINSt7__debug6vectorINS0_IiSaIiEEESaIS2_EEE = linkonce_odr constant { i8*, i8*, i32, i32, i8*, i64, i8*, i64, i8*, i64 } { i8* bitcast (i8** getelementptr inbounds (i8*, i8** @_ZTVN10__cxxabiv121__vmi_class_type_infoE, i64 2) to i8*), i8* getelementptr inbounds ([42 x i8], [42 x i8]* @_ZTSNSt7__debug6vectorINS0_IiSaIiEEESaIS2_EEE, i32 0, i32 0), i32 0, i32 3, i8* bitcast ({ i8*, i8*, i8* }* @_ZTIN11__gnu_debug15_Safe_containerINSt7__debug6vectorINS2_IiSaIiEEESaIS4_EEES5_NS_14_Safe_sequenceELb1EEE to i8*), i64 2, i8* bitcast ({ i8*, i8*, i32, i32, i8*, i64 }* @_ZTINSt9__cxx19986vectorINSt7__debug6vectorIiSaIiEEESaIS4_EEE to i8*), i64 6146, i8* bitcast ({ i8*, i8* }* @_ZTIN11__gnu_debug12_Safe_vectorINSt7__debug6vectorINS2_IiSaIiEEESaIS4_EEENSt9__cxx19986vectorIS4_S5_EEEE to i8*), i64 12290 }, comdat
@llvm.global_ctors = appending global [1 x { i32, void ()*, i8* }] [{ i32, void ()*, i8* } { i32 65535, void ()* @_GLOBAL__sub_I_s861613019.cpp, i8* null }]
@x = common global i32 0
@y = common global i32 0
@x.17 = common global i32 0
@y.18 = common global i32 0
@x.19 = common global i32 0
@y.20 = common global i32 0
@x.21 = common global i32 0
@y.22 = common global i32 0
@x.23 = common global i32 0
@y.24 = common global i32 0
@x.25 = common global i32 0
@y.26 = common global i32 0
@x.27 = common global i32 0
@y.28 = common global i32 0
@x.29 = common global i32 0
@y.30 = common global i32 0
@x.31 = common global i32 0
@y.32 = common global i32 0
@x.33 = common global i32 0
@y.34 = common global i32 0
@x.35 = common global i32 0
@y.36 = common global i32 0
@x.37 = common global i32 0
@y.38 = common global i32 0
@x.39 = common global i32 0
@y.40 = common global i32 0
@x.41 = common global i32 0
@y.42 = common global i32 0
@x.43 = common global i32 0
@y.44 = common global i32 0
@x.45 = common global i32 0
@y.46 = common global i32 0
@x.47 = common global i32 0
@y.48 = common global i32 0
@x.49 = common global i32 0
@y.50 = common global i32 0
@x.51 = common global i32 0
@y.52 = common global i32 0
@x.53 = common global i32 0
@y.54 = common global i32 0
@x.55 = common global i32 0
@y.56 = common global i32 0
@x.57 = common global i32 0
@y.58 = common global i32 0
@x.59 = common global i32 0
@y.60 = common global i32 0
@x.61 = common global i32 0
@y.62 = common global i32 0
@x.63 = common global i32 0
@y.64 = common global i32 0
@x.65 = common global i32 0
@y.66 = common global i32 0
@x.67 = common global i32 0
@y.68 = common global i32 0
@x.69 = common global i32 0
@y.70 = common global i32 0
@x.71 = common global i32 0
@y.72 = common global i32 0
@x.73 = common global i32 0
@y.74 = common global i32 0
@x.75 = common global i32 0
@y.76 = common global i32 0
@x.77 = common global i32 0
@y.78 = common global i32 0
@x.79 = common global i32 0
@y.80 = common global i32 0
@x.81 = common global i32 0
@y.82 = common global i32 0
@x.83 = common global i32 0
@y.84 = common global i32 0
@x.85 = common global i32 0
@y.86 = common global i32 0
@x.87 = common global i32 0
@y.88 = common global i32 0
@x.89 = common global i32 0
@y.90 = common global i32 0
@x.91 = common global i32 0
@y.92 = common global i32 0
@x.93 = common global i32 0
@y.94 = common global i32 0
@x.95 = common global i32 0
@y.96 = common global i32 0
@x.97 = common global i32 0
@y.98 = common global i32 0
@x.99 = common global i32 0
@y.100 = common global i32 0
@x.101 = common global i32 0
@y.102 = common global i32 0
@x.103 = common global i32 0
@y.104 = common global i32 0
@x.105 = common global i32 0
@y.106 = common global i32 0
@x.107 = common global i32 0
@y.108 = common global i32 0
@x.109 = common global i32 0
@y.110 = common global i32 0
@x.111 = common global i32 0
@y.112 = common global i32 0
@x.113 = common global i32 0
@y.114 = common global i32 0
@x.115 = common global i32 0
@y.116 = common global i32 0
@x.117 = common global i32 0
@y.118 = common global i32 0
@x.119 = common global i32 0
@y.120 = common global i32 0
@x.121 = common global i32 0
@y.122 = common global i32 0
@x.123 = common global i32 0
@y.124 = common global i32 0
@x.125 = common global i32 0
@y.126 = common global i32 0
@x.127 = common global i32 0
@y.128 = common global i32 0
@x.129 = common global i32 0
@y.130 = common global i32 0
@x.131 = common global i32 0
@y.132 = common global i32 0
@x.133 = common global i32 0
@y.134 = common global i32 0
@x.135 = common global i32 0
@y.136 = common global i32 0
@x.137 = common global i32 0
@y.138 = common global i32 0
@x.139 = common global i32 0
@y.140 = common global i32 0
@x.141 = common global i32 0
@y.142 = common global i32 0
@x.143 = common global i32 0
@y.144 = common global i32 0
@x.145 = common global i32 0
@y.146 = common global i32 0
@x.147 = common global i32 0
@y.148 = common global i32 0
@x.149 = common global i32 0
@y.150 = common global i32 0
@x.151 = common global i32 0
@y.152 = common global i32 0
@x.153 = common global i32 0
@y.154 = common global i32 0
@x.155 = common global i32 0
@y.156 = common global i32 0
@x.157 = common global i32 0
@y.158 = common global i32 0
@x.159 = common global i32 0
@y.160 = common global i32 0
@x.161 = common global i32 0
@y.162 = common global i32 0
@x.163 = common global i32 0
@y.164 = common global i32 0
@x.165 = common global i32 0
@y.166 = common global i32 0
@x.167 = common global i32 0
@y.168 = common global i32 0
@x.169 = common global i32 0
@y.170 = common global i32 0
@x.171 = common global i32 0
@y.172 = common global i32 0
@x.173 = common global i32 0
@y.174 = common global i32 0
@x.175 = common global i32 0
@y.176 = common global i32 0
@x.177 = common global i32 0
@y.178 = common global i32 0
@x.179 = common global i32 0
@y.180 = common global i32 0
@x.181 = common global i32 0
@y.182 = common global i32 0
@x.183 = common global i32 0
@y.184 = common global i32 0
@x.185 = common global i32 0
@y.186 = common global i32 0
@x.187 = common global i32 0
@y.188 = common global i32 0
@x.189 = common global i32 0
@y.190 = common global i32 0
@x.191 = common global i32 0
@y.192 = common global i32 0
@x.193 = common global i32 0
@y.194 = common global i32 0
@x.195 = common global i32 0
@y.196 = common global i32 0
@x.197 = common global i32 0
@y.198 = common global i32 0
@x.199 = common global i32 0
@y.200 = common global i32 0
@x.201 = common global i32 0
@y.202 = common global i32 0
@x.203 = common global i32 0
@y.204 = common global i32 0
@x.205 = common global i32 0
@y.206 = common global i32 0
@x.207 = common global i32 0
@y.208 = common global i32 0
@x.209 = common global i32 0
@y.210 = common global i32 0
@x.211 = common global i32 0
@y.212 = common global i32 0
@x.213 = common global i32 0
@y.214 = common global i32 0
@x.215 = common global i32 0
@y.216 = common global i32 0
@x.217 = common global i32 0
@y.218 = common global i32 0
@x.219 = common global i32 0
@y.220 = common global i32 0
@x.221 = common global i32 0
@y.222 = common global i32 0
@x.223 = common global i32 0
@y.224 = common global i32 0
@x.225 = common global i32 0
@y.226 = common global i32 0
@x.227 = common global i32 0
@y.228 = common global i32 0
@x.229 = common global i32 0
@y.230 = common global i32 0
@x.231 = common global i32 0
@y.232 = common global i32 0
@x.233 = common global i32 0
@y.234 = common global i32 0
@x.235 = common global i32 0
@y.236 = common global i32 0
@x.237 = common global i32 0
@y.238 = common global i32 0
@x.239 = common global i32 0
@y.240 = common global i32 0
@x.241 = common global i32 0
@y.242 = common global i32 0
@x.243 = common global i32 0
@y.244 = common global i32 0
@x.245 = common global i32 0
@y.246 = common global i32 0
@x.247 = common global i32 0
@y.248 = common global i32 0
@x.249 = common global i32 0
@y.250 = common global i32 0
@x.251 = common global i32 0
@y.252 = common global i32 0
@x.253 = common global i32 0
@y.254 = common global i32 0
@x.255 = common global i32 0
@y.256 = common global i32 0
@x.257 = common global i32 0
@y.258 = common global i32 0
@x.259 = common global i32 0
@y.260 = common global i32 0
@x.261 = common global i32 0
@y.262 = common global i32 0
@x.263 = common global i32 0
@y.264 = common global i32 0
@x.265 = common global i32 0
@y.266 = common global i32 0
@x.267 = common global i32 0
@y.268 = common global i32 0
@x.269 = common global i32 0
@y.270 = common global i32 0
@x.271 = common global i32 0
@y.272 = common global i32 0
@x.273 = common global i32 0
@y.274 = common global i32 0
@x.275 = common global i32 0
@y.276 = common global i32 0
@x.277 = common global i32 0
@y.278 = common global i32 0
@x.279 = common global i32 0
@y.280 = common global i32 0
@x.281 = common global i32 0
@y.282 = common global i32 0
@x.283 = common global i32 0
@y.284 = common global i32 0
@x.285 = common global i32 0
@y.286 = common global i32 0
@x.287 = common global i32 0
@y.288 = common global i32 0
@x.289 = common global i32 0
@y.290 = common global i32 0
@x.291 = common global i32 0
@y.292 = common global i32 0
@x.293 = common global i32 0
@y.294 = common global i32 0
@x.295 = common global i32 0
@y.296 = common global i32 0
@x.297 = common global i32 0
@y.298 = common global i32 0
@x.299 = common global i32 0
@y.300 = common global i32 0
@x.301 = common global i32 0
@y.302 = common global i32 0
@x.303 = common global i32 0
@y.304 = common global i32 0
@x.305 = common global i32 0
@y.306 = common global i32 0
@x.307 = common global i32 0
@y.308 = common global i32 0
@x.309 = common global i32 0
@y.310 = common global i32 0
@x.311 = common global i32 0
@y.312 = common global i32 0
@x.313 = common global i32 0
@y.314 = common global i32 0
@x.315 = common global i32 0
@y.316 = common global i32 0
@x.317 = common global i32 0
@y.318 = common global i32 0
@x.319 = common global i32 0
@y.320 = common global i32 0
@x.321 = common global i32 0
@y.322 = common global i32 0
@x.323 = common global i32 0
@y.324 = common global i32 0
@x.325 = common global i32 0
@y.326 = common global i32 0
@x.327 = common global i32 0
@y.328 = common global i32 0
@x.329 = common global i32 0
@y.330 = common global i32 0
@x.331 = common global i32 0
@y.332 = common global i32 0
@x.333 = common global i32 0
@y.334 = common global i32 0
@x.335 = common global i32 0
@y.336 = common global i32 0
@x.337 = common global i32 0
@y.338 = common global i32 0
@x.339 = common global i32 0
@y.340 = common global i32 0
@x.341 = common global i32 0
@y.342 = common global i32 0
@x.343 = common global i32 0
@y.344 = common global i32 0
@x.345 = common global i32 0
@y.346 = common global i32 0
@x.347 = common global i32 0
@y.348 = common global i32 0
@x.349 = common global i32 0
@y.350 = common global i32 0
@x.351 = common global i32 0
@y.352 = common global i32 0
@x.353 = common global i32 0
@y.354 = common global i32 0
@x.355 = common global i32 0
@y.356 = common global i32 0
@x.357 = common global i32 0
@y.358 = common global i32 0
@x.359 = common global i32 0
@y.360 = common global i32 0
@x.361 = common global i32 0
@y.362 = common global i32 0
@x.363 = common global i32 0
@y.364 = common global i32 0
@x.365 = common global i32 0
@y.366 = common global i32 0
@x.367 = common global i32 0
@y.368 = common global i32 0
@x.369 = common global i32 0
@y.370 = common global i32 0
@x.371 = common global i32 0
@y.372 = common global i32 0
@x.373 = common global i32 0
@y.374 = common global i32 0
@x.375 = common global i32 0
@y.376 = common global i32 0
@x.377 = common global i32 0
@y.378 = common global i32 0
@x.379 = common global i32 0
@y.380 = common global i32 0
@x.381 = common global i32 0
@y.382 = common global i32 0
@x.383 = common global i32 0
@y.384 = common global i32 0
@x.385 = common global i32 0
@y.386 = common global i32 0
@x.387 = common global i32 0
@y.388 = common global i32 0
@x.389 = common global i32 0
@y.390 = common global i32 0
@x.391 = common global i32 0
@y.392 = common global i32 0
@x.393 = common global i32 0
@y.394 = common global i32 0
@x.395 = common global i32 0
@y.396 = common global i32 0
@x.397 = common global i32 0
@y.398 = common global i32 0
@x.399 = common global i32 0
@y.400 = common global i32 0
@x.401 = common global i32 0
@y.402 = common global i32 0
@x.403 = common global i32 0
@y.404 = common global i32 0
@x.405 = common global i32 0
@y.406 = common global i32 0
@x.407 = common global i32 0
@y.408 = common global i32 0
@x.409 = common global i32 0
@y.410 = common global i32 0
@x.411 = common global i32 0
@y.412 = common global i32 0
@x.413 = common global i32 0
@y.414 = common global i32 0
@x.415 = common global i32 0
@y.416 = common global i32 0
@x.417 = common global i32 0
@y.418 = common global i32 0
@x.419 = common global i32 0
@y.420 = common global i32 0
@x.421 = common global i32 0
@y.422 = common global i32 0
@x.423 = common global i32 0
@y.424 = common global i32 0
@x.425 = common global i32 0
@y.426 = common global i32 0
@x.427 = common global i32 0
@y.428 = common global i32 0
@x.429 = common global i32 0
@y.430 = common global i32 0
@x.431 = common global i32 0
@y.432 = common global i32 0
@x.433 = common global i32 0
@y.434 = common global i32 0
@x.435 = common global i32 0
@y.436 = common global i32 0
@x.437 = common global i32 0
@y.438 = common global i32 0
@x.439 = common global i32 0
@y.440 = common global i32 0
@x.441 = common global i32 0
@y.442 = common global i32 0
@x.443 = common global i32 0
@y.444 = common global i32 0
@x.445 = common global i32 0
@y.446 = common global i32 0
@x.447 = common global i32 0
@y.448 = common global i32 0
@x.449 = common global i32 0
@y.450 = common global i32 0
@x.451 = common global i32 0
@y.452 = common global i32 0
@x.453 = common global i32 0
@y.454 = common global i32 0
@x.455 = common global i32 0
@y.456 = common global i32 0
@x.457 = common global i32 0
@y.458 = common global i32 0
@x.459 = common global i32 0
@y.460 = common global i32 0
@x.461 = common global i32 0
@y.462 = common global i32 0
@x.463 = common global i32 0
@y.464 = common global i32 0
@x.465 = common global i32 0
@y.466 = common global i32 0
@x.467 = common global i32 0
@y.468 = common global i32 0
@x.469 = common global i32 0
@y.470 = common global i32 0
@x.471 = common global i32 0
@y.472 = common global i32 0
@x.473 = common global i32 0
@y.474 = common global i32 0
@x.475 = common global i32 0
@y.476 = common global i32 0
@x.477 = common global i32 0
@y.478 = common global i32 0
@x.479 = common global i32 0
@y.480 = common global i32 0
@x.481 = common global i32 0
@y.482 = common global i32 0
@x.483 = common global i32 0
@y.484 = common global i32 0
@x.485 = common global i32 0
@y.486 = common global i32 0
@x.487 = common global i32 0
@y.488 = common global i32 0
@x.489 = common global i32 0
@y.490 = common global i32 0
@x.491 = common global i32 0
@y.492 = common global i32 0
@x.493 = common global i32 0
@y.494 = common global i32 0
@x.495 = common global i32 0
@y.496 = common global i32 0
@x.497 = common global i32 0
@y.498 = common global i32 0
@x.499 = common global i32 0
@y.500 = common global i32 0
@x.501 = common global i32 0
@y.502 = common global i32 0
@x.503 = common global i32 0
@y.504 = common global i32 0
@x.505 = common global i32 0
@y.506 = common global i32 0
@x.507 = common global i32 0
@y.508 = common global i32 0
@x.509 = common global i32 0
@y.510 = common global i32 0
@x.511 = common global i32 0
@y.512 = common global i32 0
@x.513 = common global i32 0
@y.514 = common global i32 0
@x.515 = common global i32 0
@y.516 = common global i32 0
@x.517 = common global i32 0
@y.518 = common global i32 0
@x.519 = common global i32 0
@y.520 = common global i32 0
@x.521 = common global i32 0
@y.522 = common global i32 0
@x.523 = common global i32 0
@y.524 = common global i32 0
@x.525 = common global i32 0
@y.526 = common global i32 0
@x.527 = common global i32 0
@y.528 = common global i32 0
@x.529 = common global i32 0
@y.530 = common global i32 0
@x.531 = common global i32 0
@y.532 = common global i32 0
@x.533 = common global i32 0
@y.534 = common global i32 0
@x.535 = common global i32 0
@y.536 = common global i32 0
@x.537 = common global i32 0
@y.538 = common global i32 0
@x.539 = common global i32 0
@y.540 = common global i32 0
@x.541 = common global i32 0
@y.542 = common global i32 0
@x.543 = common global i32 0
@y.544 = common global i32 0
@x.545 = common global i32 0
@y.546 = common global i32 0
@x.547 = common global i32 0
@y.548 = common global i32 0
@x.549 = common global i32 0
@y.550 = common global i32 0
@x.551 = common global i32 0
@y.552 = common global i32 0
@x.553 = common global i32 0
@y.554 = common global i32 0
@x.555 = common global i32 0
@y.556 = common global i32 0
@x.557 = common global i32 0
@y.558 = common global i32 0
@x.559 = common global i32 0
@y.560 = common global i32 0
@x.561 = common global i32 0
@y.562 = common global i32 0
@x.563 = common global i32 0
@y.564 = common global i32 0
@x.565 = common global i32 0
@y.566 = common global i32 0
@x.567 = common global i32 0
@y.568 = common global i32 0
@x.569 = common global i32 0
@y.570 = common global i32 0
@x.571 = common global i32 0
@y.572 = common global i32 0
@x.573 = common global i32 0
@y.574 = common global i32 0
@x.575 = common global i32 0
@y.576 = common global i32 0
@x.577 = common global i32 0
@y.578 = common global i32 0
@x.579 = common global i32 0
@y.580 = common global i32 0
@x.581 = common global i32 0
@y.582 = common global i32 0
@x.583 = common global i32 0
@y.584 = common global i32 0
@x.585 = common global i32 0
@y.586 = common global i32 0
@x.587 = common global i32 0
@y.588 = common global i32 0
@x.589 = common global i32 0
@y.590 = common global i32 0
@x.591 = common global i32 0
@y.592 = common global i32 0
@x.593 = common global i32 0
@y.594 = common global i32 0
@x.595 = common global i32 0
@y.596 = common global i32 0
@x.597 = common global i32 0
@y.598 = common global i32 0
@x.599 = common global i32 0
@y.600 = common global i32 0
@x.601 = common global i32 0
@y.602 = common global i32 0
@x.603 = common global i32 0
@y.604 = common global i32 0
@x.605 = common global i32 0
@y.606 = common global i32 0
@x.607 = common global i32 0
@y.608 = common global i32 0
@x.609 = common global i32 0
@y.610 = common global i32 0
@x.611 = common global i32 0
@y.612 = common global i32 0
@x.613 = common global i32 0
@y.614 = common global i32 0
@x.615 = common global i32 0
@y.616 = common global i32 0
@x.617 = common global i32 0
@y.618 = common global i32 0
@x.619 = common global i32 0
@y.620 = common global i32 0
@x.621 = common global i32 0
@y.622 = common global i32 0
@x.623 = common global i32 0
@y.624 = common global i32 0
@x.625 = common global i32 0
@y.626 = common global i32 0
@x.627 = common global i32 0
@y.628 = common global i32 0
@x.629 = common global i32 0
@y.630 = common global i32 0
@x.631 = common global i32 0
@y.632 = common global i32 0
@x.633 = common global i32 0
@y.634 = common global i32 0
@x.635 = common global i32 0
@y.636 = common global i32 0
@x.637 = common global i32 0
@y.638 = common global i32 0
@x.639 = common global i32 0
@y.640 = common global i32 0
@x.641 = common global i32 0
@y.642 = common global i32 0
@x.643 = common global i32 0
@y.644 = common global i32 0
@x.645 = common global i32 0
@y.646 = common global i32 0
@x.647 = common global i32 0
@y.648 = common global i32 0
@x.649 = common global i32 0
@y.650 = common global i32 0
@x.651 = common global i32 0
@y.652 = common global i32 0
@x.653 = common global i32 0
@y.654 = common global i32 0
@x.655 = common global i32 0
@y.656 = common global i32 0
@x.657 = common global i32 0
@y.658 = common global i32 0
@x.659 = common global i32 0
@y.660 = common global i32 0
@x.661 = common global i32 0
@y.662 = common global i32 0
@x.663 = common global i32 0
@y.664 = common global i32 0
@x.665 = common global i32 0
@y.666 = common global i32 0
@x.667 = common global i32 0
@y.668 = common global i32 0
@x.669 = common global i32 0
@y.670 = common global i32 0
@x.671 = common global i32 0
@y.672 = common global i32 0
@x.673 = common global i32 0
@y.674 = common global i32 0
@x.675 = common global i32 0
@y.676 = common global i32 0
@x.677 = common global i32 0
@y.678 = common global i32 0
@x.679 = common global i32 0
@y.680 = common global i32 0
@x.681 = common global i32 0
@y.682 = common global i32 0
@x.683 = common global i32 0
@y.684 = common global i32 0
@x.685 = common global i32 0
@y.686 = common global i32 0
@x.687 = common global i32 0
@y.688 = common global i32 0
@x.689 = common global i32 0
@y.690 = common global i32 0
@x.691 = common global i32 0
@y.692 = common global i32 0
@x.693 = common global i32 0
@y.694 = common global i32 0
@x.695 = common global i32 0
@y.696 = common global i32 0
@x.697 = common global i32 0
@y.698 = common global i32 0
@x.699 = common global i32 0
@y.700 = common global i32 0
@x.701 = common global i32 0
@y.702 = common global i32 0
@x.703 = common global i32 0
@y.704 = common global i32 0
@x.705 = common global i32 0
@y.706 = common global i32 0
@x.707 = common global i32 0
@y.708 = common global i32 0
@x.709 = common global i32 0
@y.710 = common global i32 0
@x.711 = common global i32 0
@y.712 = common global i32 0
@x.713 = common global i32 0
@y.714 = common global i32 0
@x.715 = common global i32 0
@y.716 = common global i32 0
@x.717 = common global i32 0
@y.718 = common global i32 0
@x.719 = common global i32 0
@y.720 = common global i32 0
@x.721 = common global i32 0
@y.722 = common global i32 0
@x.723 = common global i32 0
@y.724 = common global i32 0
@x.725 = common global i32 0
@y.726 = common global i32 0
@x.727 = common global i32 0
@y.728 = common global i32 0
@x.729 = common global i32 0
@y.730 = common global i32 0
@x.731 = common global i32 0
@y.732 = common global i32 0
@x.733 = common global i32 0
@y.734 = common global i32 0
@x.735 = common global i32 0
@y.736 = common global i32 0
@x.737 = common global i32 0
@y.738 = common global i32 0
@x.739 = common global i32 0
@y.740 = common global i32 0
@x.741 = common global i32 0
@y.742 = common global i32 0
@x.743 = common global i32 0
@y.744 = common global i32 0
@x.745 = common global i32 0
@y.746 = common global i32 0
@x.747 = common global i32 0
@y.748 = common global i32 0
@x.749 = common global i32 0
@y.750 = common global i32 0
@x.751 = common global i32 0
@y.752 = common global i32 0
@x.753 = common global i32 0
@y.754 = common global i32 0
@x.755 = common global i32 0
@y.756 = common global i32 0
@x.757 = common global i32 0
@y.758 = common global i32 0
@x.759 = common global i32 0
@y.760 = common global i32 0
@x.761 = common global i32 0
@y.762 = common global i32 0
@x.763 = common global i32 0
@y.764 = common global i32 0
@x.765 = common global i32 0
@y.766 = common global i32 0
@x.767 = common global i32 0
@y.768 = common global i32 0
@x.769 = common global i32 0
@y.770 = common global i32 0
@x.771 = common global i32 0
@y.772 = common global i32 0
@x.773 = common global i32 0
@y.774 = common global i32 0
@x.775 = common global i32 0
@y.776 = common global i32 0
@x.777 = common global i32 0
@y.778 = common global i32 0
@x.779 = common global i32 0
@y.780 = common global i32 0
@x.781 = common global i32 0
@y.782 = common global i32 0
@x.783 = common global i32 0
@y.784 = common global i32 0
@x.785 = common global i32 0
@y.786 = common global i32 0
@x.787 = common global i32 0
@y.788 = common global i32 0
@x.789 = common global i32 0
@y.790 = common global i32 0
@x.791 = common global i32 0
@y.792 = common global i32 0
@x.793 = common global i32 0
@y.794 = common global i32 0
@x.795 = common global i32 0
@y.796 = common global i32 0
@x.797 = common global i32 0
@y.798 = common global i32 0
@x.799 = common global i32 0
@y.800 = common global i32 0
@x.801 = common global i32 0
@y.802 = common global i32 0
@x.803 = common global i32 0
@y.804 = common global i32 0
@x.805 = common global i32 0
@y.806 = common global i32 0
@x.807 = common global i32 0
@y.808 = common global i32 0
@x.809 = common global i32 0
@y.810 = common global i32 0
@x.811 = common global i32 0
@y.812 = common global i32 0
@x.813 = common global i32 0
@y.814 = common global i32 0
@x.815 = common global i32 0
@y.816 = common global i32 0
@x.817 = common global i32 0
@y.818 = common global i32 0
@x.819 = common global i32 0
@y.820 = common global i32 0
@x.821 = common global i32 0
@y.822 = common global i32 0
@x.823 = common global i32 0
@y.824 = common global i32 0
@x.825 = common global i32 0
@y.826 = common global i32 0
@x.827 = common global i32 0
@y.828 = common global i32 0
@x.829 = common global i32 0
@y.830 = common global i32 0
@x.831 = common global i32 0
@y.832 = common global i32 0
@x.833 = common global i32 0
@y.834 = common global i32 0
@x.835 = common global i32 0
@y.836 = common global i32 0
@x.837 = common global i32 0
@y.838 = common global i32 0
@x.839 = common global i32 0
@y.840 = common global i32 0
@x.841 = common global i32 0
@y.842 = common global i32 0
@x.843 = common global i32 0
@y.844 = common global i32 0
@x.845 = common global i32 0
@y.846 = common global i32 0
@x.847 = common global i32 0
@y.848 = common global i32 0
@x.849 = common global i32 0
@y.850 = common global i32 0
@x.851 = common global i32 0
@y.852 = common global i32 0
@x.853 = common global i32 0
@y.854 = common global i32 0
@x.855 = common global i32 0
@y.856 = common global i32 0
@x.857 = common global i32 0
@y.858 = common global i32 0
@x.859 = common global i32 0
@y.860 = common global i32 0
@x.861 = common global i32 0
@y.862 = common global i32 0
@x.863 = common global i32 0
@y.864 = common global i32 0
@x.865 = common global i32 0
@y.866 = common global i32 0
@x.867 = common global i32 0
@y.868 = common global i32 0
@x.869 = common global i32 0
@y.870 = common global i32 0
@x.871 = common global i32 0
@y.872 = common global i32 0
@x.873 = common global i32 0
@y.874 = common global i32 0
@x.875 = common global i32 0
@y.876 = common global i32 0
@x.877 = common global i32 0
@y.878 = common global i32 0
@x.879 = common global i32 0
@y.880 = common global i32 0
@x.881 = common global i32 0
@y.882 = common global i32 0
@x.883 = common global i32 0
@y.884 = common global i32 0
@x.885 = common global i32 0
@y.886 = common global i32 0
@x.887 = common global i32 0
@y.888 = common global i32 0
@x.889 = common global i32 0
@y.890 = common global i32 0
@x.891 = common global i32 0
@y.892 = common global i32 0
@x.893 = common global i32 0
@y.894 = common global i32 0
@x.895 = common global i32 0
@y.896 = common global i32 0
@x.897 = common global i32 0
@y.898 = common global i32 0
@x.899 = common global i32 0
@y.900 = common global i32 0
@x.901 = common global i32 0
@y.902 = common global i32 0
@x.903 = common global i32 0
@y.904 = common global i32 0
@x.905 = common global i32 0
@y.906 = common global i32 0
@x.907 = common global i32 0
@y.908 = common global i32 0
@x.909 = common global i32 0
@y.910 = common global i32 0
@x.911 = common global i32 0
@y.912 = common global i32 0
@x.913 = common global i32 0
@y.914 = common global i32 0
@x.915 = common global i32 0
@y.916 = common global i32 0
@x.917 = common global i32 0
@y.918 = common global i32 0
@x.919 = common global i32 0
@y.920 = common global i32 0
@x.921 = common global i32 0
@y.922 = common global i32 0
@x.923 = common global i32 0
@y.924 = common global i32 0
@x.925 = common global i32 0
@y.926 = common global i32 0
@x.927 = common global i32 0
@y.928 = common global i32 0
@x.929 = common global i32 0
@y.930 = common global i32 0
@x.931 = common global i32 0
@y.932 = common global i32 0
@x.933 = common global i32 0
@y.934 = common global i32 0
@x.935 = common global i32 0
@y.936 = common global i32 0
@x.937 = common global i32 0
@y.938 = common global i32 0
@x.939 = common global i32 0
@y.940 = common global i32 0
@x.941 = common global i32 0
@y.942 = common global i32 0
@x.943 = common global i32 0
@y.944 = common global i32 0
@x.945 = common global i32 0
@y.946 = common global i32 0
@x.947 = common global i32 0
@y.948 = common global i32 0
@x.949 = common global i32 0
@y.950 = common global i32 0
@x.951 = common global i32 0
@y.952 = common global i32 0
@x.953 = common global i32 0
@y.954 = common global i32 0
@x.955 = common global i32 0
@y.956 = common global i32 0
@x.957 = common global i32 0
@y.958 = common global i32 0
@x.959 = common global i32 0
@y.960 = common global i32 0
@x.961 = common global i32 0
@y.962 = common global i32 0
@x.963 = common global i32 0
@y.964 = common global i32 0
@x.965 = common global i32 0
@y.966 = common global i32 0
@x.967 = common global i32 0
@y.968 = common global i32 0
@x.969 = common global i32 0
@y.970 = common global i32 0
@x.971 = common global i32 0
@y.972 = common global i32 0
@x.973 = common global i32 0
@y.974 = common global i32 0
@x.975 = common global i32 0
@y.976 = common global i32 0
@x.977 = common global i32 0
@y.978 = common global i32 0
@x.979 = common global i32 0
@y.980 = common global i32 0
@x.981 = common global i32 0
@y.982 = common global i32 0
@x.983 = common global i32 0
@y.984 = common global i32 0
@x.985 = common global i32 0
@y.986 = common global i32 0
@x.987 = common global i32 0
@y.988 = common global i32 0
@x.989 = common global i32 0
@y.990 = common global i32 0
@x.991 = common global i32 0
@y.992 = common global i32 0
@x.993 = common global i32 0
@y.994 = common global i32 0
@x.995 = common global i32 0
@y.996 = common global i32 0
@x.997 = common global i32 0
@y.998 = common global i32 0
@x.999 = common global i32 0
@y.1000 = common global i32 0
@x.1001 = common global i32 0
@y.1002 = common global i32 0
@x.1003 = common global i32 0
@y.1004 = common global i32 0
@x.1005 = common global i32 0
@y.1006 = common global i32 0
@x.1007 = common global i32 0
@y.1008 = common global i32 0
@x.1009 = common global i32 0
@y.1010 = common global i32 0
@x.1011 = common global i32 0
@y.1012 = common global i32 0
@x.1013 = common global i32 0
@y.1014 = common global i32 0
@x.1015 = common global i32 0
@y.1016 = common global i32 0
@x.1017 = common global i32 0
@y.1018 = common global i32 0
@x.1019 = common global i32 0
@y.1020 = common global i32 0
@x.1021 = common global i32 0
@y.1022 = common global i32 0
@x.1023 = common global i32 0
@y.1024 = common global i32 0
@x.1025 = common global i32 0
@y.1026 = common global i32 0
@x.1027 = common global i32 0
@y.1028 = common global i32 0
@x.1029 = common global i32 0
@y.1030 = common global i32 0
@x.1031 = common global i32 0
@y.1032 = common global i32 0
@x.1033 = common global i32 0
@y.1034 = common global i32 0

; Function Attrs: noinline uwtable
define internal void @__cxx_global_var_init() #0 section ".text.startup" {
  call void @_ZNSt8ios_base4InitC1Ev(%"class.std::ios_base::Init"* @_ZStL8__ioinit)
  %1 = call i32 @__cxa_atexit(void (i8*)* bitcast (void (%"class.std::ios_base::Init"*)* @_ZNSt8ios_base4InitD1Ev to void (i8*)*), i8* getelementptr inbounds (%"class.std::ios_base::Init", %"class.std::ios_base::Init"* @_ZStL8__ioinit, i32 0, i32 0), i8* @__dso_handle) #3
  ret void
}

declare void @_ZNSt8ios_base4InitC1Ev(%"class.std::ios_base::Init"*) unnamed_addr #1

; Function Attrs: nounwind
declare void @_ZNSt8ios_base4InitD1Ev(%"class.std::ios_base::Init"*) unnamed_addr #2

; Function Attrs: nounwind
declare i32 @__cxa_atexit(void (i8*)*, i8*, i8*) #3

; Function Attrs: noinline norecurse uwtable
define i32 @main() #4 personality i8* bitcast (i32 (...)* @__gxx_personality_v0 to i8*) {
  %1 = load i32, i32* @x.17
  %2 = load i32, i32* @y.18
  %3 = add i32 %1, 1244813004
  %4 = sub i32 %3, 1
  %5 = sub i32 %4, 1244813004
  %6 = sub i32 %1, 1
  %7 = mul i32 %1, %5
  %8 = urem i32 %7, 2
  %9 = icmp eq i32 %8, 0
  %10 = icmp slt i32 %2, 10
  %11 = and i1 %9, %10
  %12 = xor i1 %9, %10
  %13 = or i1 %11, %12
  %14 = or i1 %9, %10
  br i1 %13, label %15, label %1590

; <label>:15:                                     ; preds = %0, %1590
  %16 = alloca i32, align 4
  %17 = alloca i32, align 4
  %18 = alloca i32, align 4
  %19 = alloca i32, align 4
  %20 = alloca %"class.std::__debug::vector", align 8
  %21 = alloca %"class.std::allocator", align 1
  %22 = alloca i8*
  %23 = alloca i32
  %24 = alloca i32, align 4
  %25 = alloca %"class.__gnu_debug::_Safe_iterator", align 8
  %26 = alloca %"class.__gnu_debug::_Safe_iterator", align 8
  %27 = alloca %"class.std::__debug::vector.0", align 8
  %28 = alloca %"class.std::allocator.7", align 1
  %29 = alloca i32, align 4
  %30 = alloca i32, align 4
  %31 = alloca i32, align 4
  %32 = alloca i32, align 4
  %33 = alloca %"struct.std::pair", align 4
  %34 = alloca %"struct.std::pair", align 4
  %35 = alloca %"class.std::__debug::vector.22", align 8
  %36 = alloca %"class.std::__debug::vector", align 8
  %37 = alloca %"class.std::allocator", align 1
  %38 = alloca %"class.std::allocator.29", align 1
  %39 = alloca i32, align 4
  %40 = alloca %"class.std::queue", align 8
  %41 = alloca %"class.std::__debug::deque", align 8
  %42 = alloca %"class.std::__debug::vector", align 8
  %43 = alloca i32, align 4
  %44 = alloca %"class.std::allocator", align 1
  %45 = alloca i32, align 4
  %46 = alloca %"class.std::__debug::vector.10"*, align 8
  %47 = alloca %"class.__gnu_debug::_Safe_iterator.37", align 8
  %48 = alloca %"class.__gnu_debug::_Safe_iterator.37", align 8
  %49 = alloca i32
  %50 = alloca %"struct.std::pair", align 4
  %51 = alloca i32, align 4
  %52 = alloca i32, align 4
  %53 = alloca %"class.std::__debug::vector", align 8
  %54 = alloca %"class.std::allocator", align 1
  %55 = alloca i32, align 4
  %56 = alloca i32, align 4
  %57 = alloca i32, align 4
  %58 = alloca %"class.__gnu_debug::_Safe_iterator", align 8
  %59 = alloca %"class.__gnu_debug::_Safe_iterator", align 8
  store i32 0, i32* %16, align 4
  %60 = call dereferenceable(280) %"class.std::basic_istream"* @_ZNSirsERi(%"class.std::basic_istream"* @_ZSt3cin, i32* dereferenceable(4) %17)
  %61 = call dereferenceable(280) %"class.std::basic_istream"* @_ZNSirsERi(%"class.std::basic_istream"* %60, i32* dereferenceable(4) %18)
  %62 = call dereferenceable(280) %"class.std::basic_istream"* @_ZNSirsERi(%"class.std::basic_istream"* %61, i32* dereferenceable(4) %19)
  %63 = load i32, i32* %19, align 4
  %64 = sext i32 %63 to i64
  call void @_ZNSaIiEC2Ev(%"class.std::allocator"* %21) #3
  %65 = load i32, i32* @x.17
  %66 = load i32, i32* @y.18
  %67 = add i32 %65, 310368944
  %68 = sub i32 %67, 1
  %69 = sub i32 %68, 310368944
  %70 = sub i32 %65, 1
  %71 = mul i32 %65, %69
  %72 = urem i32 %71, 2
  %73 = icmp eq i32 %72, 0
  %74 = icmp slt i32 %66, 10
  %75 = xor i1 %73, true
  %76 = xor i1 %74, true
  %77 = xor i1 false, true
  %78 = and i1 %75, false
  %79 = and i1 %73, %77
  %80 = and i1 %76, false
  %81 = and i1 %74, %77
  %82 = or i1 %78, %79
  %83 = or i1 %80, %81
  %84 = xor i1 %82, %83
  %85 = or i1 %75, %76
  %86 = xor i1 %85, true
  %87 = or i1 false, %77
  %88 = and i1 %86, %87
  %89 = or i1 %84, %88
  %90 = or i1 %73, %74
  br i1 %89, label %91, label %1590

; <label>:91:                                     ; preds = %15
  invoke void @_ZNSt7__debug6vectorIiSaIiEEC2EmRKS1_(%"class.std::__debug::vector"* %20, i64 %64, %"class.std::allocator"* dereferenceable(1) %21)
          to label %92 unwind label %119

; <label>:92:                                     ; preds = %91
  call void @_ZNSaIiED2Ev(%"class.std::allocator"* %21) #3
  store i32 0, i32* %24, align 4
  br label %93

; <label>:93:                                     ; preds = %112, %92
  %94 = load i32, i32* %24, align 4
  %95 = load i32, i32* %19, align 4
  %96 = icmp slt i32 %94, %95
  br i1 %96, label %97, label %127

; <label>:97:                                     ; preds = %93
  %98 = load i32, i32* %24, align 4
  %99 = sext i32 %98 to i64
  %100 = call dereferenceable(4) i32* @_ZNSt7__debug6vectorIiSaIiEEixEm(%"class.std::__debug::vector"* %20, i64 %99) #3
  %101 = invoke dereferenceable(280) %"class.std::basic_istream"* @_ZNSirsERi(%"class.std::basic_istream"* @_ZSt3cin, i32* dereferenceable(4) %100)
          to label %102 unwind label %123

; <label>:102:                                    ; preds = %97
  %103 = load i32, i32* %24, align 4
  %104 = sext i32 %103 to i64
  %105 = call dereferenceable(4) i32* @_ZNSt7__debug6vectorIiSaIiEEixEm(%"class.std::__debug::vector"* %20, i64 %104) #3
  %106 = load i32, i32* %105, align 4
  %107 = sub i32 0, %106
  %108 = sub i32 0, -1
  %109 = add i32 %107, %108
  %110 = sub i32 0, %109
  %111 = add nsw i32 %106, -1
  store i32 %110, i32* %105, align 4
  br label %112

; <label>:112:                                    ; preds = %102
  %113 = load i32, i32* %24, align 4
  %114 = sub i32 0, %113
  %115 = sub i32 0, 1
  %116 = add i32 %114, %115
  %117 = sub i32 0, %116
  %118 = add nsw i32 %113, 1
  store i32 %117, i32* %24, align 4
  br label %93

; <label>:119:                                    ; preds = %91
  %120 = landingpad { i8*, i32 }
          cleanup
  %121 = extractvalue { i8*, i32 } %120, 0
  store i8* %121, i8** %22, align 8
  %122 = extractvalue { i8*, i32 } %120, 1
  store i32 %122, i32* %23, align 4
  call void @_ZNSaIiED2Ev(%"class.std::allocator"* %21) #3
  br label %1585

; <label>:123:                                    ; preds = %97
  %124 = landingpad { i8*, i32 }
          cleanup
  %125 = extractvalue { i8*, i32 } %124, 0
  store i8* %125, i8** %22, align 8
  %126 = extractvalue { i8*, i32 } %124, 1
  store i32 %126, i32* %23, align 4
  br label %1530

; <label>:127:                                    ; preds = %93
  call void @_ZNSt7__debug6vectorIiSaIiEE5beginEv(%"class.__gnu_debug::_Safe_iterator"* sret %25, %"class.std::__debug::vector"* %20) #3
  call void @_ZNSt7__debug6vectorIiSaIiEE3endEv(%"class.__gnu_debug::_Safe_iterator"* sret %26, %"class.std::__debug::vector"* %20) #3
  invoke void @_ZSt4sortIN11__gnu_debug14_Safe_iteratorIN9__gnu_cxx17__normal_iteratorIPiNSt9__cxx19986vectorIiSaIiEEEEENSt7__debug6vectorIiS7_EEEEEvT_SE_(%"class.__gnu_debug::_Safe_iterator"* %25, %"class.__gnu_debug::_Safe_iterator"* %26)
          to label %128 unwind label %307

; <label>:128:                                    ; preds = %127
  %129 = load i32, i32* @x.17
  %130 = load i32, i32* @y.18
  %131 = sub i32 0, 1
  %132 = add i32 %129, %131
  %133 = sub i32 %129, 1
  %134 = mul i32 %129, %132
  %135 = urem i32 %134, 2
  %136 = icmp eq i32 %135, 0
  %137 = icmp slt i32 %130, 10
  %138 = and i1 %136, %137
  %139 = xor i1 %136, %137
  %140 = or i1 %138, %139
  %141 = or i1 %136, %137
  br i1 %140, label %142, label %1640

; <label>:142:                                    ; preds = %128, %1640
  call void @_ZN11__gnu_debug14_Safe_iteratorIN9__gnu_cxx17__normal_iteratorIPiNSt9__cxx19986vectorIiSaIiEEEEENSt7__debug6vectorIiS6_EEED2Ev(%"class.__gnu_debug::_Safe_iterator"* %26) #3
  call void @_ZN11__gnu_debug14_Safe_iteratorIN9__gnu_cxx17__normal_iteratorIPiNSt9__cxx19986vectorIiSaIiEEEEENSt7__debug6vectorIiS6_EEED2Ev(%"class.__gnu_debug::_Safe_iterator"* %25) #3
  %143 = load i32, i32* %17, align 4
  %144 = sext i32 %143 to i64
  call void @_ZNSaINSt7__debug6vectorISt4pairIiiESaIS2_EEEEC2Ev(%"class.std::allocator.7"* %28) #3
  %145 = load i32, i32* @x.17
  %146 = load i32, i32* @y.18
  %147 = sub i32 0, 1
  %148 = add i32 %145, %147
  %149 = sub i32 %145, 1
  %150 = mul i32 %145, %148
  %151 = urem i32 %150, 2
  %152 = icmp eq i32 %151, 0
  %153 = icmp slt i32 %146, 10
  %154 = xor i1 %152, true
  %155 = xor i1 %153, true
  %156 = xor i1 true, true
  %157 = and i1 %154, true
  %158 = and i1 %152, %156
  %159 = and i1 %155, true
  %160 = and i1 %153, %156
  %161 = or i1 %157, %158
  %162 = or i1 %159, %160
  %163 = xor i1 %161, %162
  %164 = or i1 %154, %155
  %165 = xor i1 %164, true
  %166 = or i1 true, %156
  %167 = and i1 %165, %166
  %168 = or i1 %163, %167
  %169 = or i1 %152, %153
  br i1 %168, label %170, label %1640

; <label>:170:                                    ; preds = %142
  invoke void @_ZNSt7__debug6vectorINS0_ISt4pairIiiESaIS2_EEESaIS4_EEC2EmRKS5_(%"class.std::__debug::vector.0"* %27, i64 %144, %"class.std::allocator.7"* dereferenceable(1) %28)
          to label %171 unwind label %340

; <label>:171:                                    ; preds = %170
  call void @_ZNSaINSt7__debug6vectorISt4pairIiiESaIS2_EEEED2Ev(%"class.std::allocator.7"* %28) #3
  store i32 0, i32* %29, align 4
  br label %172

; <label>:172:                                    ; preds = %301, %171
  %173 = load i32, i32* %29, align 4
  %174 = load i32, i32* %18, align 4
  %175 = icmp slt i32 %173, %174
  br i1 %175, label %176, label %401

; <label>:176:                                    ; preds = %172
  %177 = invoke dereferenceable(280) %"class.std::basic_istream"* @_ZNSirsERi(%"class.std::basic_istream"* @_ZSt3cin, i32* dereferenceable(4) %30)
          to label %178 unwind label %397

; <label>:178:                                    ; preds = %176
  %179 = invoke dereferenceable(280) %"class.std::basic_istream"* @_ZNSirsERi(%"class.std::basic_istream"* %177, i32* dereferenceable(4) %31)
          to label %180 unwind label %397

; <label>:180:                                    ; preds = %178
  %181 = invoke dereferenceable(280) %"class.std::basic_istream"* @_ZNSirsERi(%"class.std::basic_istream"* %179, i32* dereferenceable(4) %32)
          to label %182 unwind label %397

; <label>:182:                                    ; preds = %180
  %183 = load i32, i32* @x.17
  %184 = load i32, i32* @y.18
  %185 = add i32 %183, 974556937
  %186 = sub i32 %185, 1
  %187 = sub i32 %186, 974556937
  %188 = sub i32 %183, 1
  %189 = mul i32 %183, %187
  %190 = urem i32 %189, 2
  %191 = icmp eq i32 %190, 0
  %192 = icmp slt i32 %184, 10
  %193 = xor i1 %191, true
  %194 = xor i1 %192, true
  %195 = xor i1 true, true
  %196 = and i1 %193, true
  %197 = and i1 %191, %195
  %198 = and i1 %194, true
  %199 = and i1 %192, %195
  %200 = or i1 %196, %197
  %201 = or i1 %198, %199
  %202 = xor i1 %200, %201
  %203 = or i1 %193, %194
  %204 = xor i1 %203, true
  %205 = or i1 true, %195
  %206 = and i1 %204, %205
  %207 = or i1 %202, %206
  %208 = or i1 %191, %192
  br i1 %207, label %209, label %1643

; <label>:209:                                    ; preds = %182, %1643
  %210 = load i32, i32* %30, align 4
  %211 = sub i32 %210, 2100543166
  %212 = add i32 %211, -1
  %213 = add i32 %212, 2100543166
  %214 = add nsw i32 %210, -1
  store i32 %213, i32* %30, align 4
  %215 = load i32, i32* %31, align 4
  %216 = add i32 %215, 1711273957
  %217 = add i32 %216, -1
  %218 = sub i32 %217, 1711273957
  %219 = add nsw i32 %215, -1
  store i32 %218, i32* %31, align 4
  %220 = load i32, i32* %30, align 4
  %221 = sext i32 %220 to i64
  %222 = call dereferenceable(56) %"class.std::__debug::vector.10"* @_ZNSt7__debug6vectorINS0_ISt4pairIiiESaIS2_EEESaIS4_EEixEm(%"class.std::__debug::vector.0"* %27, i64 %221) #3
  %223 = load i32, i32* @x.17
  %224 = load i32, i32* @y.18
  %225 = sub i32 0, 1
  %226 = add i32 %223, %225
  %227 = sub i32 %223, 1
  %228 = mul i32 %223, %226
  %229 = urem i32 %228, 2
  %230 = icmp eq i32 %229, 0
  %231 = icmp slt i32 %224, 10
  %232 = and i1 %230, %231
  %233 = xor i1 %230, %231
  %234 = or i1 %232, %233
  %235 = or i1 %230, %231
  br i1 %234, label %236, label %1643

; <label>:236:                                    ; preds = %209
  %237 = invoke i64 @_ZSt9make_pairIRiS0_ESt4pairINSt17__decay_and_stripIT_E6__typeENS2_IT0_E6__typeEEOS3_OS6_(i32* dereferenceable(4) %31, i32* dereferenceable(4) %32)
          to label %238 unwind label %397

; <label>:238:                                    ; preds = %236
  %239 = bitcast %"struct.std::pair"* %33 to i64*
  store i64 %237, i64* %239, align 4
  invoke void @_ZNSt7__debug6vectorISt4pairIiiESaIS2_EE9push_backIS2_EEN9__gnu_cxx11__enable_ifIXntsr3std10__are_sameIT_bEE7__valueEvE6__typeEOS2_(%"class.std::__debug::vector.10"* %222, %"struct.std::pair"* dereferenceable(8) %33)
          to label %240 unwind label %397

; <label>:240:                                    ; preds = %238
  %241 = load i32, i32* %31, align 4
  %242 = sext i32 %241 to i64
  %243 = call dereferenceable(56) %"class.std::__debug::vector.10"* @_ZNSt7__debug6vectorINS0_ISt4pairIiiESaIS2_EEESaIS4_EEixEm(%"class.std::__debug::vector.0"* %27, i64 %242) #3
  %244 = invoke i64 @_ZSt9make_pairIRiS0_ESt4pairINSt17__decay_and_stripIT_E6__typeENS2_IT0_E6__typeEEOS3_OS6_(i32* dereferenceable(4) %30, i32* dereferenceable(4) %32)
          to label %245 unwind label %397

; <label>:245:                                    ; preds = %240
  %246 = load i32, i32* @x.17
  %247 = load i32, i32* @y.18
  %248 = sub i32 0, 1
  %249 = add i32 %246, %248
  %250 = sub i32 %246, 1
  %251 = mul i32 %246, %249
  %252 = urem i32 %251, 2
  %253 = icmp eq i32 %252, 0
  %254 = icmp slt i32 %247, 10
  %255 = xor i1 %253, true
  %256 = xor i1 %254, true
  %257 = xor i1 false, true
  %258 = and i1 %255, false
  %259 = and i1 %253, %257
  %260 = and i1 %256, false
  %261 = and i1 %254, %257
  %262 = or i1 %258, %259
  %263 = or i1 %260, %261
  %264 = xor i1 %262, %263
  %265 = or i1 %255, %256
  %266 = xor i1 %265, true
  %267 = or i1 false, %257
  %268 = and i1 %266, %267
  %269 = or i1 %264, %268
  %270 = or i1 %253, %254
  br i1 %269, label %271, label %1704

; <label>:271:                                    ; preds = %245, %1704
  %272 = bitcast %"struct.std::pair"* %34 to i64*
  store i64 %244, i64* %272, align 4
  %273 = load i32, i32* @x.17
  %274 = load i32, i32* @y.18
  %275 = add i32 %273, 439571705
  %276 = sub i32 %275, 1
  %277 = sub i32 %276, 439571705
  %278 = sub i32 %273, 1
  %279 = mul i32 %273, %277
  %280 = urem i32 %279, 2
  %281 = icmp eq i32 %280, 0
  %282 = icmp slt i32 %274, 10
  %283 = xor i1 %281, true
  %284 = xor i1 %282, true
  %285 = xor i1 true, true
  %286 = and i1 %283, true
  %287 = and i1 %281, %285
  %288 = and i1 %284, true
  %289 = and i1 %282, %285
  %290 = or i1 %286, %287
  %291 = or i1 %288, %289
  %292 = xor i1 %290, %291
  %293 = or i1 %283, %284
  %294 = xor i1 %293, true
  %295 = or i1 true, %285
  %296 = and i1 %294, %295
  %297 = or i1 %292, %296
  %298 = or i1 %281, %282
  br i1 %297, label %299, label %1704

; <label>:299:                                    ; preds = %271
  invoke void @_ZNSt7__debug6vectorISt4pairIiiESaIS2_EE9push_backIS2_EEN9__gnu_cxx11__enable_ifIXntsr3std10__are_sameIT_bEE7__valueEvE6__typeEOS2_(%"class.std::__debug::vector.10"* %243, %"struct.std::pair"* dereferenceable(8) %34)
          to label %300 unwind label %397

; <label>:300:                                    ; preds = %299
  br label %301

; <label>:301:                                    ; preds = %300
  %302 = load i32, i32* %29, align 4
  %303 = sub i32 %302, 1759077024
  %304 = add i32 %303, 1
  %305 = add i32 %304, 1759077024
  %306 = add nsw i32 %302, 1
  store i32 %305, i32* %29, align 4
  br label %172

; <label>:307:                                    ; preds = %127
  %308 = load i32, i32* @x.17
  %309 = load i32, i32* @y.18
  %310 = add i32 %308, 1933249441
  %311 = sub i32 %310, 1
  %312 = sub i32 %311, 1933249441
  %313 = sub i32 %308, 1
  %314 = mul i32 %308, %312
  %315 = urem i32 %314, 2
  %316 = icmp eq i32 %315, 0
  %317 = icmp slt i32 %309, 10
  %318 = and i1 %316, %317
  %319 = xor i1 %316, %317
  %320 = or i1 %318, %319
  %321 = or i1 %316, %317
  br i1 %320, label %322, label %1706

; <label>:322:                                    ; preds = %307, %1706
  %323 = landingpad { i8*, i32 }
          cleanup
  %324 = extractvalue { i8*, i32 } %323, 0
  store i8* %324, i8** %22, align 8
  %325 = extractvalue { i8*, i32 } %323, 1
  store i32 %325, i32* %23, align 4
  call void @_ZN11__gnu_debug14_Safe_iteratorIN9__gnu_cxx17__normal_iteratorIPiNSt9__cxx19986vectorIiSaIiEEEEENSt7__debug6vectorIiS6_EEED2Ev(%"class.__gnu_debug::_Safe_iterator"* %26) #3
  call void @_ZN11__gnu_debug14_Safe_iteratorIN9__gnu_cxx17__normal_iteratorIPiNSt9__cxx19986vectorIiSaIiEEEEENSt7__debug6vectorIiS6_EEED2Ev(%"class.__gnu_debug::_Safe_iterator"* %25) #3
  %326 = load i32, i32* @x.17
  %327 = load i32, i32* @y.18
  %328 = sub i32 0, 1
  %329 = add i32 %326, %328
  %330 = sub i32 %326, 1
  %331 = mul i32 %326, %329
  %332 = urem i32 %331, 2
  %333 = icmp eq i32 %332, 0
  %334 = icmp slt i32 %327, 10
  %335 = and i1 %333, %334
  %336 = xor i1 %333, %334
  %337 = or i1 %335, %336
  %338 = or i1 %333, %334
  br i1 %337, label %339, label %1706

; <label>:339:                                    ; preds = %322
  br label %1530

; <label>:340:                                    ; preds = %170
  %341 = load i32, i32* @x.17
  %342 = load i32, i32* @y.18
  %343 = sub i32 %341, 411962069
  %344 = sub i32 %343, 1
  %345 = add i32 %344, 411962069
  %346 = sub i32 %341, 1
  %347 = mul i32 %341, %345
  %348 = urem i32 %347, 2
  %349 = icmp eq i32 %348, 0
  %350 = icmp slt i32 %342, 10
  %351 = xor i1 %349, true
  %352 = xor i1 %350, true
  %353 = xor i1 false, true
  %354 = and i1 %351, false
  %355 = and i1 %349, %353
  %356 = and i1 %352, false
  %357 = and i1 %350, %353
  %358 = or i1 %354, %355
  %359 = or i1 %356, %357
  %360 = xor i1 %358, %359
  %361 = or i1 %351, %352
  %362 = xor i1 %361, true
  %363 = or i1 false, %353
  %364 = and i1 %362, %363
  %365 = or i1 %360, %364
  %366 = or i1 %349, %350
  br i1 %365, label %367, label %1710

; <label>:367:                                    ; preds = %340, %1710
  %368 = landingpad { i8*, i32 }
          cleanup
  %369 = extractvalue { i8*, i32 } %368, 0
  store i8* %369, i8** %22, align 8
  %370 = extractvalue { i8*, i32 } %368, 1
  store i32 %370, i32* %23, align 4
  call void @_ZNSaINSt7__debug6vectorISt4pairIiiESaIS2_EEEED2Ev(%"class.std::allocator.7"* %28) #3
  %371 = load i32, i32* @x.17
  %372 = load i32, i32* @y.18
  %373 = sub i32 0, 1
  %374 = add i32 %371, %373
  %375 = sub i32 %371, 1
  %376 = mul i32 %371, %374
  %377 = urem i32 %376, 2
  %378 = icmp eq i32 %377, 0
  %379 = icmp slt i32 %372, 10
  %380 = xor i1 %378, true
  %381 = xor i1 %379, true
  %382 = xor i1 true, true
  %383 = and i1 %380, true
  %384 = and i1 %378, %382
  %385 = and i1 %381, true
  %386 = and i1 %379, %382
  %387 = or i1 %383, %384
  %388 = or i1 %385, %386
  %389 = xor i1 %387, %388
  %390 = or i1 %380, %381
  %391 = xor i1 %390, true
  %392 = or i1 true, %382
  %393 = and i1 %391, %392
  %394 = or i1 %389, %393
  %395 = or i1 %378, %379
  br i1 %394, label %396, label %1710

; <label>:396:                                    ; preds = %367
  br label %1530

; <label>:397:                                    ; preds = %299, %240, %238, %236, %180, %178, %176
  %398 = landingpad { i8*, i32 }
          cleanup
  %399 = extractvalue { i8*, i32 } %398, 0
  store i8* %399, i8** %22, align 8
  %400 = extractvalue { i8*, i32 } %398, 1
  store i32 %400, i32* %23, align 4
  br label %1529

; <label>:401:                                    ; preds = %172
  %402 = load i32, i32* @x.17
  %403 = load i32, i32* @y.18
  %404 = sub i32 %402, 1274009282
  %405 = sub i32 %404, 1
  %406 = add i32 %405, 1274009282
  %407 = sub i32 %402, 1
  %408 = mul i32 %402, %406
  %409 = urem i32 %408, 2
  %410 = icmp eq i32 %409, 0
  %411 = icmp slt i32 %403, 10
  %412 = xor i1 %410, true
  %413 = xor i1 %411, true
  %414 = xor i1 true, true
  %415 = and i1 %412, true
  %416 = and i1 %410, %414
  %417 = and i1 %413, true
  %418 = and i1 %411, %414
  %419 = or i1 %415, %416
  %420 = or i1 %417, %418
  %421 = xor i1 %419, %420
  %422 = or i1 %412, %413
  %423 = xor i1 %422, true
  %424 = or i1 true, %414
  %425 = and i1 %423, %424
  %426 = or i1 %421, %425
  %427 = or i1 %410, %411
  br i1 %426, label %428, label %1714

; <label>:428:                                    ; preds = %401, %1714
  %429 = load i32, i32* %19, align 4
  %430 = sext i32 %429 to i64
  %431 = load i32, i32* %19, align 4
  %432 = sext i32 %431 to i64
  call void @_ZNSaIiEC2Ev(%"class.std::allocator"* %37) #3
  %433 = load i32, i32* @x.17
  %434 = load i32, i32* @y.18
  %435 = sub i32 0, 1
  %436 = add i32 %433, %435
  %437 = sub i32 %433, 1
  %438 = mul i32 %433, %436
  %439 = urem i32 %438, 2
  %440 = icmp eq i32 %439, 0
  %441 = icmp slt i32 %434, 10
  %442 = and i1 %440, %441
  %443 = xor i1 %440, %441
  %444 = or i1 %442, %443
  %445 = or i1 %440, %441
  br i1 %444, label %446, label %1714

; <label>:446:                                    ; preds = %428
  invoke void @_ZNSt7__debug6vectorIiSaIiEEC2EmRKS1_(%"class.std::__debug::vector"* %36, i64 %432, %"class.std::allocator"* dereferenceable(1) %37)
          to label %447 unwind label %748

; <label>:447:                                    ; preds = %446
  %448 = load i32, i32* @x.17
  %449 = load i32, i32* @y.18
  %450 = sub i32 0, 1
  %451 = add i32 %448, %450
  %452 = sub i32 %448, 1
  %453 = mul i32 %448, %451
  %454 = urem i32 %453, 2
  %455 = icmp eq i32 %454, 0
  %456 = icmp slt i32 %449, 10
  %457 = and i1 %455, %456
  %458 = xor i1 %455, %456
  %459 = or i1 %457, %458
  %460 = or i1 %455, %456
  br i1 %459, label %461, label %1719

; <label>:461:                                    ; preds = %447, %1719
  call void @_ZNSaINSt7__debug6vectorIiSaIiEEEEC2Ev(%"class.std::allocator.29"* %38) #3
  %462 = load i32, i32* @x.17
  %463 = load i32, i32* @y.18
  %464 = sub i32 %462, 417197519
  %465 = sub i32 %464, 1
  %466 = add i32 %465, 417197519
  %467 = sub i32 %462, 1
  %468 = mul i32 %462, %466
  %469 = urem i32 %468, 2
  %470 = icmp eq i32 %469, 0
  %471 = icmp slt i32 %463, 10
  %472 = and i1 %470, %471
  %473 = xor i1 %470, %471
  %474 = or i1 %472, %473
  %475 = or i1 %470, %471
  br i1 %474, label %476, label %1719

; <label>:476:                                    ; preds = %461
  invoke void @_ZNSt7__debug6vectorINS0_IiSaIiEEESaIS2_EEC2EmRKS2_RKS3_(%"class.std::__debug::vector.22"* %35, i64 %430, %"class.std::__debug::vector"* dereferenceable(56) %36, %"class.std::allocator.29"* dereferenceable(1) %38)
          to label %477 unwind label %752

; <label>:477:                                    ; preds = %476
  call void @_ZNSaINSt7__debug6vectorIiSaIiEEEED2Ev(%"class.std::allocator.29"* %38) #3
  call void @_ZNSt7__debug6vectorIiSaIiEED2Ev(%"class.std::__debug::vector"* %36) #3
  call void @_ZNSaIiED2Ev(%"class.std::allocator"* %37) #3
  store i32 0, i32* %39, align 4
  br label %478

; <label>:478:                                    ; preds = %1288, %477
  %479 = load i32, i32* %39, align 4
  %480 = load i32, i32* %19, align 4
  %481 = icmp slt i32 %479, %480
  br i1 %481, label %482, label %1291

; <label>:482:                                    ; preds = %478
  %483 = bitcast %"class.std::__debug::deque"* %41 to i8*
  call void @llvm.memset.p0i8.i64(i8* %483, i8 0, i64 104, i32 8, i1 false)
  invoke void @_ZNSt7__debug5dequeIiSaIiEEC2Ev(%"class.std::__debug::deque"* %41)
          to label %484 unwind label %757

; <label>:484:                                    ; preds = %482
  invoke void @_ZNSt5queueIiNSt7__debug5dequeIiSaIiEEEEC2EOS3_(%"class.std::queue"* %40, %"class.std::__debug::deque"* dereferenceable(104) %41)
          to label %485 unwind label %761

; <label>:485:                                    ; preds = %484
  %486 = load i32, i32* @x.17
  %487 = load i32, i32* @y.18
  %488 = sub i32 0, 1
  %489 = add i32 %486, %488
  %490 = sub i32 %486, 1
  %491 = mul i32 %486, %489
  %492 = urem i32 %491, 2
  %493 = icmp eq i32 %492, 0
  %494 = icmp slt i32 %487, 10
  %495 = xor i1 %493, true
  %496 = xor i1 %494, true
  %497 = xor i1 false, true
  %498 = and i1 %495, false
  %499 = and i1 %493, %497
  %500 = and i1 %496, false
  %501 = and i1 %494, %497
  %502 = or i1 %498, %499
  %503 = or i1 %500, %501
  %504 = xor i1 %502, %503
  %505 = or i1 %495, %496
  %506 = xor i1 %505, true
  %507 = or i1 false, %497
  %508 = and i1 %506, %507
  %509 = or i1 %504, %508
  %510 = or i1 %493, %494
  br i1 %509, label %511, label %1720

; <label>:511:                                    ; preds = %485, %1720
  call void @_ZNSt7__debug5dequeIiSaIiEED2Ev(%"class.std::__debug::deque"* %41) #3
  %512 = load i32, i32* %39, align 4
  %513 = sext i32 %512 to i64
  %514 = call dereferenceable(4) i32* @_ZNSt7__debug6vectorIiSaIiEEixEm(%"class.std::__debug::vector"* %20, i64 %513) #3
  %515 = load i32, i32* @x.17
  %516 = load i32, i32* @y.18
  %517 = sub i32 %515, 672070729
  %518 = sub i32 %517, 1
  %519 = add i32 %518, 672070729
  %520 = sub i32 %515, 1
  %521 = mul i32 %515, %519
  %522 = urem i32 %521, 2
  %523 = icmp eq i32 %522, 0
  %524 = icmp slt i32 %516, 10
  %525 = xor i1 %523, true
  %526 = xor i1 %524, true
  %527 = xor i1 true, true
  %528 = and i1 %525, true
  %529 = and i1 %523, %527
  %530 = and i1 %526, true
  %531 = and i1 %524, %527
  %532 = or i1 %528, %529
  %533 = or i1 %530, %531
  %534 = xor i1 %532, %533
  %535 = or i1 %525, %526
  %536 = xor i1 %535, true
  %537 = or i1 true, %527
  %538 = and i1 %536, %537
  %539 = or i1 %534, %538
  %540 = or i1 %523, %524
  br i1 %539, label %541, label %1720

; <label>:541:                                    ; preds = %511
  invoke void @_ZNSt5queueIiNSt7__debug5dequeIiSaIiEEEE4pushERKi(%"class.std::queue"* %40, i32* dereferenceable(4) %514)
          to label %542 unwind label %819

; <label>:542:                                    ; preds = %541
  %543 = load i32, i32* %17, align 4
  %544 = sext i32 %543 to i64
  store i32 2147483647, i32* %43, align 4
  call void @_ZNSaIiEC2Ev(%"class.std::allocator"* %44) #3
  invoke void @_ZNSt7__debug6vectorIiSaIiEEC2EmRKiRKS1_(%"class.std::__debug::vector"* %42, i64 %544, i32* dereferenceable(4) %43, %"class.std::allocator"* dereferenceable(1) %44)
          to label %545 unwind label %823

; <label>:545:                                    ; preds = %542
  call void @_ZNSaIiED2Ev(%"class.std::allocator"* %44) #3
  %546 = load i32, i32* %39, align 4
  %547 = sext i32 %546 to i64
  %548 = call dereferenceable(4) i32* @_ZNSt7__debug6vectorIiSaIiEEixEm(%"class.std::__debug::vector"* %20, i64 %547) #3
  %549 = load i32, i32* %548, align 4
  %550 = sext i32 %549 to i64
  %551 = call dereferenceable(4) i32* @_ZNSt7__debug6vectorIiSaIiEEixEm(%"class.std::__debug::vector"* %42, i64 %550) #3
  store i32 0, i32* %551, align 4
  br label %552

; <label>:552:                                    ; preds = %1183, %545
  %553 = invoke zeroext i1 @_ZNKSt5queueIiNSt7__debug5dequeIiSaIiEEEE5emptyEv(%"class.std::queue"* %40)
          to label %554 unwind label %827

; <label>:554:                                    ; preds = %552
  %555 = xor i1 %553, true
  %556 = and i1 true, %555
  %557 = xor i1 true, true
  %558 = and i1 %553, %557
  %559 = or i1 %556, %558
  %560 = xor i1 %553, true
  br i1 %559, label %561, label %1184

; <label>:561:                                    ; preds = %554
  %562 = load i32, i32* @x.17
  %563 = load i32, i32* @y.18
  %564 = sub i32 0, 1
  %565 = add i32 %562, %564
  %566 = sub i32 %562, 1
  %567 = mul i32 %562, %565
  %568 = urem i32 %567, 2
  %569 = icmp eq i32 %568, 0
  %570 = icmp slt i32 %563, 10
  %571 = and i1 %569, %570
  %572 = xor i1 %569, %570
  %573 = or i1 %571, %572
  %574 = or i1 %569, %570
  br i1 %573, label %575, label %1724

; <label>:575:                                    ; preds = %561, %1724
  %576 = load i32, i32* @x.17
  %577 = load i32, i32* @y.18
  %578 = sub i32 %576, 1565845261
  %579 = sub i32 %578, 1
  %580 = add i32 %579, 1565845261
  %581 = sub i32 %576, 1
  %582 = mul i32 %576, %580
  %583 = urem i32 %582, 2
  %584 = icmp eq i32 %583, 0
  %585 = icmp slt i32 %577, 10
  %586 = xor i1 %584, true
  %587 = xor i1 %585, true
  %588 = xor i1 false, true
  %589 = and i1 %586, false
  %590 = and i1 %584, %588
  %591 = and i1 %587, false
  %592 = and i1 %585, %588
  %593 = or i1 %589, %590
  %594 = or i1 %591, %592
  %595 = xor i1 %593, %594
  %596 = or i1 %586, %587
  %597 = xor i1 %596, true
  %598 = or i1 false, %588
  %599 = and i1 %597, %598
  %600 = or i1 %595, %599
  %601 = or i1 %584, %585
  br i1 %600, label %602, label %1724

; <label>:602:                                    ; preds = %575
  %603 = invoke dereferenceable(4) i32* @_ZNSt5queueIiNSt7__debug5dequeIiSaIiEEEE5frontEv(%"class.std::queue"* %40)
          to label %604 unwind label %827

; <label>:604:                                    ; preds = %602
  %605 = load i32, i32* @x.17
  %606 = load i32, i32* @y.18
  %607 = sub i32 0, 1
  %608 = add i32 %605, %607
  %609 = sub i32 %605, 1
  %610 = mul i32 %605, %608
  %611 = urem i32 %610, 2
  %612 = icmp eq i32 %611, 0
  %613 = icmp slt i32 %606, 10
  %614 = xor i1 %612, true
  %615 = xor i1 %613, true
  %616 = xor i1 true, true
  %617 = and i1 %614, true
  %618 = and i1 %612, %616
  %619 = and i1 %615, true
  %620 = and i1 %613, %616
  %621 = or i1 %617, %618
  %622 = or i1 %619, %620
  %623 = xor i1 %621, %622
  %624 = or i1 %614, %615
  %625 = xor i1 %624, true
  %626 = or i1 true, %616
  %627 = and i1 %625, %626
  %628 = or i1 %623, %627
  %629 = or i1 %612, %613
  br i1 %628, label %630, label %1725

; <label>:630:                                    ; preds = %604, %1725
  %631 = load i32, i32* %603, align 4
  store i32 %631, i32* %45, align 4
  %632 = load i32, i32* @x.17
  %633 = load i32, i32* @y.18
  %634 = sub i32 0, 1
  %635 = add i32 %632, %634
  %636 = sub i32 %632, 1
  %637 = mul i32 %632, %635
  %638 = urem i32 %637, 2
  %639 = icmp eq i32 %638, 0
  %640 = icmp slt i32 %633, 10
  %641 = xor i1 %639, true
  %642 = xor i1 %640, true
  %643 = xor i1 true, true
  %644 = and i1 %641, true
  %645 = and i1 %639, %643
  %646 = and i1 %642, true
  %647 = and i1 %640, %643
  %648 = or i1 %644, %645
  %649 = or i1 %646, %647
  %650 = xor i1 %648, %649
  %651 = or i1 %641, %642
  %652 = xor i1 %651, true
  %653 = or i1 true, %643
  %654 = and i1 %652, %653
  %655 = or i1 %650, %654
  %656 = or i1 %639, %640
  br i1 %655, label %657, label %1725

; <label>:657:                                    ; preds = %630
  invoke void @_ZNSt5queueIiNSt7__debug5dequeIiSaIiEEEE3popEv(%"class.std::queue"* %40)
          to label %658 unwind label %827

; <label>:658:                                    ; preds = %657
  %659 = load i32, i32* @x.17
  %660 = load i32, i32* @y.18
  %661 = sub i32 0, 1
  %662 = add i32 %659, %661
  %663 = sub i32 %659, 1
  %664 = mul i32 %659, %662
  %665 = urem i32 %664, 2
  %666 = icmp eq i32 %665, 0
  %667 = icmp slt i32 %660, 10
  %668 = and i1 %666, %667
  %669 = xor i1 %666, %667
  %670 = or i1 %668, %669
  %671 = or i1 %666, %667
  br i1 %670, label %672, label %1727

; <label>:672:                                    ; preds = %658, %1727
  %673 = load i32, i32* %45, align 4
  %674 = sext i32 %673 to i64
  %675 = call dereferenceable(56) %"class.std::__debug::vector.10"* @_ZNSt7__debug6vectorINS0_ISt4pairIiiESaIS2_EEESaIS4_EEixEm(%"class.std::__debug::vector.0"* %27, i64 %674) #3
  store %"class.std::__debug::vector.10"* %675, %"class.std::__debug::vector.10"** %46, align 8
  %676 = load %"class.std::__debug::vector.10"*, %"class.std::__debug::vector.10"** %46, align 8
  call void @_ZNSt7__debug6vectorISt4pairIiiESaIS2_EE5beginEv(%"class.__gnu_debug::_Safe_iterator.37"* sret %47, %"class.std::__debug::vector.10"* %676) #3
  %677 = load %"class.std::__debug::vector.10"*, %"class.std::__debug::vector.10"** %46, align 8
  call void @_ZNSt7__debug6vectorISt4pairIiiESaIS2_EE3endEv(%"class.__gnu_debug::_Safe_iterator.37"* sret %48, %"class.std::__debug::vector.10"* %677) #3
  %678 = load i32, i32* @x.17
  %679 = load i32, i32* @y.18
  %680 = add i32 %678, 998240206
  %681 = sub i32 %680, 1
  %682 = sub i32 %681, 998240206
  %683 = sub i32 %678, 1
  %684 = mul i32 %678, %682
  %685 = urem i32 %684, 2
  %686 = icmp eq i32 %685, 0
  %687 = icmp slt i32 %679, 10
  %688 = and i1 %686, %687
  %689 = xor i1 %686, %687
  %690 = or i1 %688, %689
  %691 = or i1 %686, %687
  br i1 %690, label %692, label %1727

; <label>:692:                                    ; preds = %672
  br label %693

; <label>:693:                                    ; preds = %1181, %692
  %694 = call zeroext i1 @_ZN11__gnu_debugneIN9__gnu_cxx17__normal_iteratorIPSt4pairIiiENSt9__cxx19986vectorIS4_SaIS4_EEEEENSt7__debug6vectorIS4_S8_EEEEbRKNS_14_Safe_iteratorIT_T0_EESJ_(%"class.__gnu_debug::_Safe_iterator.37"* dereferenceable(40) %47, %"class.__gnu_debug::_Safe_iterator.37"* dereferenceable(40) %48) #3
  br i1 %694, label %831, label %695

; <label>:695:                                    ; preds = %693
  %696 = load i32, i32* @x.17
  %697 = load i32, i32* @y.18
  %698 = sub i32 0, 1
  %699 = add i32 %696, %698
  %700 = sub i32 %696, 1
  %701 = mul i32 %696, %699
  %702 = urem i32 %701, 2
  %703 = icmp eq i32 %702, 0
  %704 = icmp slt i32 %697, 10
  %705 = xor i1 %703, true
  %706 = xor i1 %704, true
  %707 = xor i1 false, true
  %708 = and i1 %705, false
  %709 = and i1 %703, %707
  %710 = and i1 %706, false
  %711 = and i1 %704, %707
  %712 = or i1 %708, %709
  %713 = or i1 %710, %711
  %714 = xor i1 %712, %713
  %715 = or i1 %705, %706
  %716 = xor i1 %715, true
  %717 = or i1 false, %707
  %718 = and i1 %716, %717
  %719 = or i1 %714, %718
  %720 = or i1 %703, %704
  br i1 %719, label %721, label %1733

; <label>:721:                                    ; preds = %695, %1733
  store i32 13, i32* %49, align 4
  %722 = load i32, i32* @x.17
  %723 = load i32, i32* @y.18
  %724 = sub i32 0, 1
  %725 = add i32 %722, %724
  %726 = sub i32 %722, 1
  %727 = mul i32 %722, %725
  %728 = urem i32 %727, 2
  %729 = icmp eq i32 %728, 0
  %730 = icmp slt i32 %723, 10
  %731 = xor i1 %729, true
  %732 = xor i1 %730, true
  %733 = xor i1 false, true
  %734 = and i1 %731, false
  %735 = and i1 %729, %733
  %736 = and i1 %732, false
  %737 = and i1 %730, %733
  %738 = or i1 %734, %735
  %739 = or i1 %736, %737
  %740 = xor i1 %738, %739
  %741 = or i1 %731, %732
  %742 = xor i1 %741, true
  %743 = or i1 false, %733
  %744 = and i1 %742, %743
  %745 = or i1 %740, %744
  %746 = or i1 %729, %730
  br i1 %745, label %747, label %1733

; <label>:747:                                    ; preds = %721
  br label %1182

; <label>:748:                                    ; preds = %446
  %749 = landingpad { i8*, i32 }
          cleanup
  %750 = extractvalue { i8*, i32 } %749, 0
  store i8* %750, i8** %22, align 8
  %751 = extractvalue { i8*, i32 } %749, 1
  store i32 %751, i32* %23, align 4
  br label %756

; <label>:752:                                    ; preds = %476
  %753 = landingpad { i8*, i32 }
          cleanup
  %754 = extractvalue { i8*, i32 } %753, 0
  store i8* %754, i8** %22, align 8
  %755 = extractvalue { i8*, i32 } %753, 1
  store i32 %755, i32* %23, align 4
  call void @_ZNSaINSt7__debug6vectorIiSaIiEEEED2Ev(%"class.std::allocator.29"* %38) #3
  call void @_ZNSt7__debug6vectorIiSaIiEED2Ev(%"class.std::__debug::vector"* %36) #3
  br label %756

; <label>:756:                                    ; preds = %752, %748
  call void @_ZNSaIiED2Ev(%"class.std::allocator"* %37) #3
  br label %1529

; <label>:757:                                    ; preds = %482
  %758 = landingpad { i8*, i32 }
          cleanup
  %759 = extractvalue { i8*, i32 } %758, 0
  store i8* %759, i8** %22, align 8
  %760 = extractvalue { i8*, i32 } %758, 1
  store i32 %760, i32* %23, align 4
  br label %1528

; <label>:761:                                    ; preds = %484
  %762 = load i32, i32* @x.17
  %763 = load i32, i32* @y.18
  %764 = sub i32 %762, 495175936
  %765 = sub i32 %764, 1
  %766 = add i32 %765, 495175936
  %767 = sub i32 %762, 1
  %768 = mul i32 %762, %766
  %769 = urem i32 %768, 2
  %770 = icmp eq i32 %769, 0
  %771 = icmp slt i32 %763, 10
  %772 = xor i1 %770, true
  %773 = xor i1 %771, true
  %774 = xor i1 false, true
  %775 = and i1 %772, false
  %776 = and i1 %770, %774
  %777 = and i1 %773, false
  %778 = and i1 %771, %774
  %779 = or i1 %775, %776
  %780 = or i1 %777, %778
  %781 = xor i1 %779, %780
  %782 = or i1 %772, %773
  %783 = xor i1 %782, true
  %784 = or i1 false, %774
  %785 = and i1 %783, %784
  %786 = or i1 %781, %785
  %787 = or i1 %770, %771
  br i1 %786, label %788, label %1734

; <label>:788:                                    ; preds = %761, %1734
  %789 = landingpad { i8*, i32 }
          cleanup
  %790 = extractvalue { i8*, i32 } %789, 0
  store i8* %790, i8** %22, align 8
  %791 = extractvalue { i8*, i32 } %789, 1
  store i32 %791, i32* %23, align 4
  call void @_ZNSt7__debug5dequeIiSaIiEED2Ev(%"class.std::__debug::deque"* %41) #3
  %792 = load i32, i32* @x.17
  %793 = load i32, i32* @y.18
  %794 = sub i32 %792, -544202117
  %795 = sub i32 %794, 1
  %796 = add i32 %795, -544202117
  %797 = sub i32 %792, 1
  %798 = mul i32 %792, %796
  %799 = urem i32 %798, 2
  %800 = icmp eq i32 %799, 0
  %801 = icmp slt i32 %793, 10
  %802 = xor i1 %800, true
  %803 = xor i1 %801, true
  %804 = xor i1 true, true
  %805 = and i1 %802, true
  %806 = and i1 %800, %804
  %807 = and i1 %803, true
  %808 = and i1 %801, %804
  %809 = or i1 %805, %806
  %810 = or i1 %807, %808
  %811 = xor i1 %809, %810
  %812 = or i1 %802, %803
  %813 = xor i1 %812, true
  %814 = or i1 true, %804
  %815 = and i1 %813, %814
  %816 = or i1 %811, %815
  %817 = or i1 %800, %801
  br i1 %816, label %818, label %1734

; <label>:818:                                    ; preds = %788
  br label %1528

; <label>:819:                                    ; preds = %541
  %820 = landingpad { i8*, i32 }
          cleanup
  %821 = extractvalue { i8*, i32 } %820, 0
  store i8* %821, i8** %22, align 8
  %822 = extractvalue { i8*, i32 } %820, 1
  store i32 %822, i32* %23, align 4
  br label %1290

; <label>:823:                                    ; preds = %542
  %824 = landingpad { i8*, i32 }
          cleanup
  %825 = extractvalue { i8*, i32 } %824, 0
  store i8* %825, i8** %22, align 8
  %826 = extractvalue { i8*, i32 } %824, 1
  store i32 %826, i32* %23, align 4
  call void @_ZNSaIiED2Ev(%"class.std::allocator"* %44) #3
  br label %1290

; <label>:827:                                    ; preds = %657, %602, %552
  %828 = landingpad { i8*, i32 }
          cleanup
  %829 = extractvalue { i8*, i32 } %828, 0
  store i8* %829, i8** %22, align 8
  %830 = extractvalue { i8*, i32 } %828, 1
  store i32 %830, i32* %23, align 4
  br label %1289

; <label>:831:                                    ; preds = %693
  %832 = call dereferenceable(8) %"struct.std::pair"* @_ZNK11__gnu_debug14_Safe_iteratorIN9__gnu_cxx17__normal_iteratorIPSt4pairIiiENSt9__cxx19986vectorIS4_SaIS4_EEEEENSt7__debug6vectorIS4_S8_EEEdeEv(%"class.__gnu_debug::_Safe_iterator.37"* %47) #3
  %833 = bitcast %"struct.std::pair"* %50 to i8*
  %834 = bitcast %"struct.std::pair"* %832 to i8*
  call void @llvm.memcpy.p0i8.p0i8.i64(i8* %833, i8* %834, i64 8, i32 4, i1 false)
  %835 = getelementptr inbounds %"struct.std::pair", %"struct.std::pair"* %50, i32 0, i32 0
  %836 = load i32, i32* %835, align 4
  %837 = sext i32 %836 to i64
  %838 = call dereferenceable(4) i32* @_ZNSt7__debug6vectorIiSaIiEEixEm(%"class.std::__debug::vector"* %42, i64 %837) #3
  %839 = load i32, i32* %838, align 4
  %840 = icmp ne i32 %839, 2147483647
  br i1 %840, label %841, label %1050

; <label>:841:                                    ; preds = %831
  %842 = load i32, i32* @x.17
  %843 = load i32, i32* @y.18
  %844 = sub i32 %842, 117813934
  %845 = sub i32 %844, 1
  %846 = add i32 %845, 117813934
  %847 = sub i32 %842, 1
  %848 = mul i32 %842, %846
  %849 = urem i32 %848, 2
  %850 = icmp eq i32 %849, 0
  %851 = icmp slt i32 %843, 10
  %852 = and i1 %850, %851
  %853 = xor i1 %850, %851
  %854 = or i1 %852, %853
  %855 = or i1 %850, %851
  br i1 %854, label %856, label %1738

; <label>:856:                                    ; preds = %841, %1738
  %857 = getelementptr inbounds %"struct.std::pair", %"struct.std::pair"* %50, i32 0, i32 0
  %858 = load i32, i32* %857, align 4
  %859 = sext i32 %858 to i64
  %860 = call dereferenceable(4) i32* @_ZNSt7__debug6vectorIiSaIiEEixEm(%"class.std::__debug::vector"* %42, i64 %859) #3
  %861 = load i32, i32* %860, align 4
  %862 = load i32, i32* %45, align 4
  %863 = sext i32 %862 to i64
  %864 = call dereferenceable(4) i32* @_ZNSt7__debug6vectorIiSaIiEEixEm(%"class.std::__debug::vector"* %42, i64 %863) #3
  %865 = load i32, i32* %864, align 4
  %866 = getelementptr inbounds %"struct.std::pair", %"struct.std::pair"* %50, i32 0, i32 1
  %867 = load i32, i32* %866, align 4
  %868 = sub i32 0, %867
  %869 = sub i32 %865, %868
  %870 = add nsw i32 %865, %867
  %871 = icmp sgt i32 %861, %869
  %872 = load i32, i32* @x.17
  %873 = load i32, i32* @y.18
  %874 = sub i32 %872, 1488454376
  %875 = sub i32 %874, 1
  %876 = add i32 %875, 1488454376
  %877 = sub i32 %872, 1
  %878 = mul i32 %872, %876
  %879 = urem i32 %878, 2
  %880 = icmp eq i32 %879, 0
  %881 = icmp slt i32 %873, 10
  %882 = xor i1 %880, true
  %883 = xor i1 %881, true
  %884 = xor i1 false, true
  %885 = and i1 %882, false
  %886 = and i1 %880, %884
  %887 = and i1 %883, false
  %888 = and i1 %881, %884
  %889 = or i1 %885, %886
  %890 = or i1 %887, %888
  %891 = xor i1 %889, %890
  %892 = or i1 %882, %883
  %893 = xor i1 %892, true
  %894 = or i1 false, %884
  %895 = and i1 %893, %894
  %896 = or i1 %891, %895
  %897 = or i1 %880, %881
  br i1 %896, label %898, label %1738

; <label>:898:                                    ; preds = %856
  br i1 %871, label %899, label %962

; <label>:899:                                    ; preds = %898
  %900 = getelementptr inbounds %"struct.std::pair", %"struct.std::pair"* %50, i32 0, i32 0
  invoke void @_ZNSt5queueIiNSt7__debug5dequeIiSaIiEEEE4pushERKi(%"class.std::queue"* %40, i32* dereferenceable(4) %900)
          to label %901 unwind label %958

; <label>:901:                                    ; preds = %899
  %902 = load i32, i32* @x.17
  %903 = load i32, i32* @y.18
  %904 = sub i32 %902, 1266657339
  %905 = sub i32 %904, 1
  %906 = add i32 %905, 1266657339
  %907 = sub i32 %902, 1
  %908 = mul i32 %902, %906
  %909 = urem i32 %908, 2
  %910 = icmp eq i32 %909, 0
  %911 = icmp slt i32 %903, 10
  %912 = and i1 %910, %911
  %913 = xor i1 %910, %911
  %914 = or i1 %912, %913
  %915 = or i1 %910, %911
  br i1 %914, label %916, label %1768

; <label>:916:                                    ; preds = %901, %1768
  %917 = load i32, i32* %45, align 4
  %918 = sext i32 %917 to i64
  %919 = call dereferenceable(4) i32* @_ZNSt7__debug6vectorIiSaIiEEixEm(%"class.std::__debug::vector"* %42, i64 %918) #3
  %920 = load i32, i32* %919, align 4
  %921 = getelementptr inbounds %"struct.std::pair", %"struct.std::pair"* %50, i32 0, i32 1
  %922 = load i32, i32* %921, align 4
  %923 = add i32 %920, 2116406124
  %924 = add i32 %923, %922
  %925 = sub i32 %924, 2116406124
  %926 = add nsw i32 %920, %922
  %927 = getelementptr inbounds %"struct.std::pair", %"struct.std::pair"* %50, i32 0, i32 0
  %928 = load i32, i32* %927, align 4
  %929 = sext i32 %928 to i64
  %930 = call dereferenceable(4) i32* @_ZNSt7__debug6vectorIiSaIiEEixEm(%"class.std::__debug::vector"* %42, i64 %929) #3
  store i32 %925, i32* %930, align 4
  %931 = load i32, i32* @x.17
  %932 = load i32, i32* @y.18
  %933 = sub i32 %931, 1112312968
  %934 = sub i32 %933, 1
  %935 = add i32 %934, 1112312968
  %936 = sub i32 %931, 1
  %937 = mul i32 %931, %935
  %938 = urem i32 %937, 2
  %939 = icmp eq i32 %938, 0
  %940 = icmp slt i32 %932, 10
  %941 = xor i1 %939, true
  %942 = xor i1 %940, true
  %943 = xor i1 true, true
  %944 = and i1 %941, true
  %945 = and i1 %939, %943
  %946 = and i1 %942, true
  %947 = and i1 %940, %943
  %948 = or i1 %944, %945
  %949 = or i1 %946, %947
  %950 = xor i1 %948, %949
  %951 = or i1 %941, %942
  %952 = xor i1 %951, true
  %953 = or i1 true, %943
  %954 = and i1 %952, %953
  %955 = or i1 %950, %954
  %956 = or i1 %939, %940
  br i1 %955, label %957, label %1768

; <label>:957:                                    ; preds = %916
  br label %1049

; <label>:958:                                    ; preds = %1094, %1046, %899
  %959 = landingpad { i8*, i32 }
          cleanup
  %960 = extractvalue { i8*, i32 } %959, 0
  store i8* %960, i8** %22, align 8
  %961 = extractvalue { i8*, i32 } %959, 1
  store i32 %961, i32* %23, align 4
  call void @_ZN11__gnu_debug14_Safe_iteratorIN9__gnu_cxx17__normal_iteratorIPSt4pairIiiENSt9__cxx19986vectorIS4_SaIS4_EEEEENSt7__debug6vectorIS4_S8_EEED2Ev(%"class.__gnu_debug::_Safe_iterator.37"* %48) #3
  call void @_ZN11__gnu_debug14_Safe_iteratorIN9__gnu_cxx17__normal_iteratorIPSt4pairIiiENSt9__cxx19986vectorIS4_SaIS4_EEEEENSt7__debug6vectorIS4_S8_EEED2Ev(%"class.__gnu_debug::_Safe_iterator.37"* %47) #3
  br label %1289

; <label>:962:                                    ; preds = %898
  %963 = getelementptr inbounds %"struct.std::pair", %"struct.std::pair"* %50, i32 0, i32 0
  %964 = load i32, i32* %963, align 4
  %965 = sext i32 %964 to i64
  %966 = call dereferenceable(4) i32* @_ZNSt7__debug6vectorIiSaIiEEixEm(%"class.std::__debug::vector"* %42, i64 %965) #3
  %967 = load i32, i32* %966, align 4
  %968 = getelementptr inbounds %"struct.std::pair", %"struct.std::pair"* %50, i32 0, i32 1
  %969 = load i32, i32* %968, align 4
  %970 = sub i32 0, %969
  %971 = sub i32 %967, %970
  %972 = add nsw i32 %967, %969
  %973 = load i32, i32* %45, align 4
  %974 = sext i32 %973 to i64
  %975 = call dereferenceable(4) i32* @_ZNSt7__debug6vectorIiSaIiEEixEm(%"class.std::__debug::vector"* %42, i64 %974) #3
  %976 = load i32, i32* %975, align 4
  %977 = icmp slt i32 %971, %976
  br i1 %977, label %978, label %1048

; <label>:978:                                    ; preds = %962
  %979 = load i32, i32* @x.17
  %980 = load i32, i32* @y.18
  %981 = add i32 %979, -1219354793
  %982 = sub i32 %981, 1
  %983 = sub i32 %982, -1219354793
  %984 = sub i32 %979, 1
  %985 = mul i32 %979, %983
  %986 = urem i32 %985, 2
  %987 = icmp eq i32 %986, 0
  %988 = icmp slt i32 %980, 10
  %989 = xor i1 %987, true
  %990 = xor i1 %988, true
  %991 = xor i1 true, true
  %992 = and i1 %989, true
  %993 = and i1 %987, %991
  %994 = and i1 %990, true
  %995 = and i1 %988, %991
  %996 = or i1 %992, %993
  %997 = or i1 %994, %995
  %998 = xor i1 %996, %997
  %999 = or i1 %989, %990
  %1000 = xor i1 %999, true
  %1001 = or i1 true, %991
  %1002 = and i1 %1000, %1001
  %1003 = or i1 %998, %1002
  %1004 = or i1 %987, %988
  br i1 %1003, label %1005, label %1800

; <label>:1005:                                   ; preds = %978, %1800
  %1006 = getelementptr inbounds %"struct.std::pair", %"struct.std::pair"* %50, i32 0, i32 0
  %1007 = load i32, i32* %1006, align 4
  %1008 = sext i32 %1007 to i64
  %1009 = call dereferenceable(4) i32* @_ZNSt7__debug6vectorIiSaIiEEixEm(%"class.std::__debug::vector"* %42, i64 %1008) #3
  %1010 = load i32, i32* %1009, align 4
  %1011 = getelementptr inbounds %"struct.std::pair", %"struct.std::pair"* %50, i32 0, i32 1
  %1012 = load i32, i32* %1011, align 4
  %1013 = sub i32 %1010, 1114379675
  %1014 = add i32 %1013, %1012
  %1015 = add i32 %1014, 1114379675
  %1016 = add nsw i32 %1010, %1012
  %1017 = load i32, i32* %45, align 4
  %1018 = sext i32 %1017 to i64
  %1019 = call dereferenceable(4) i32* @_ZNSt7__debug6vectorIiSaIiEEixEm(%"class.std::__debug::vector"* %42, i64 %1018) #3
  store i32 %1015, i32* %1019, align 4
  %1020 = load i32, i32* @x.17
  %1021 = load i32, i32* @y.18
  %1022 = sub i32 %1020, 163709092
  %1023 = sub i32 %1022, 1
  %1024 = add i32 %1023, 163709092
  %1025 = sub i32 %1020, 1
  %1026 = mul i32 %1020, %1024
  %1027 = urem i32 %1026, 2
  %1028 = icmp eq i32 %1027, 0
  %1029 = icmp slt i32 %1021, 10
  %1030 = xor i1 %1028, true
  %1031 = xor i1 %1029, true
  %1032 = xor i1 true, true
  %1033 = and i1 %1030, true
  %1034 = and i1 %1028, %1032
  %1035 = and i1 %1031, true
  %1036 = and i1 %1029, %1032
  %1037 = or i1 %1033, %1034
  %1038 = or i1 %1035, %1036
  %1039 = xor i1 %1037, %1038
  %1040 = or i1 %1030, %1031
  %1041 = xor i1 %1040, true
  %1042 = or i1 true, %1032
  %1043 = and i1 %1041, %1042
  %1044 = or i1 %1039, %1043
  %1045 = or i1 %1028, %1029
  br i1 %1044, label %1046, label %1800

; <label>:1046:                                   ; preds = %1005
  invoke void @_ZNSt5queueIiNSt7__debug5dequeIiSaIiEEEE4pushERKi(%"class.std::queue"* %40, i32* dereferenceable(4) %45)
          to label %1047 unwind label %958

; <label>:1047:                                   ; preds = %1046
  store i32 13, i32* %49, align 4
  br label %1182

; <label>:1048:                                   ; preds = %962
  br label %1138

; <label>:1049:                                   ; preds = %957
  br label %1050

; <label>:1050:                                   ; preds = %1049, %831
  %1051 = load i32, i32* @x.17
  %1052 = load i32, i32* @y.18
  %1053 = sub i32 %1051, 2044340067
  %1054 = sub i32 %1053, 1
  %1055 = add i32 %1054, 2044340067
  %1056 = sub i32 %1051, 1
  %1057 = mul i32 %1051, %1055
  %1058 = urem i32 %1057, 2
  %1059 = icmp eq i32 %1058, 0
  %1060 = icmp slt i32 %1052, 10
  %1061 = and i1 %1059, %1060
  %1062 = xor i1 %1059, %1060
  %1063 = or i1 %1061, %1062
  %1064 = or i1 %1059, %1060
  br i1 %1063, label %1065, label %1825

; <label>:1065:                                   ; preds = %1050, %1825
  %1066 = load i32, i32* %45, align 4
  %1067 = sext i32 %1066 to i64
  %1068 = call dereferenceable(4) i32* @_ZNSt7__debug6vectorIiSaIiEEixEm(%"class.std::__debug::vector"* %42, i64 %1067) #3
  %1069 = load i32, i32* %1068, align 4
  %1070 = getelementptr inbounds %"struct.std::pair", %"struct.std::pair"* %50, i32 0, i32 1
  %1071 = load i32, i32* %1070, align 4
  %1072 = sub i32 0, %1071
  %1073 = sub i32 %1069, %1072
  %1074 = add nsw i32 %1069, %1071
  %1075 = getelementptr inbounds %"struct.std::pair", %"struct.std::pair"* %50, i32 0, i32 0
  %1076 = load i32, i32* %1075, align 4
  %1077 = sext i32 %1076 to i64
  %1078 = call dereferenceable(4) i32* @_ZNSt7__debug6vectorIiSaIiEEixEm(%"class.std::__debug::vector"* %42, i64 %1077) #3
  store i32 %1073, i32* %1078, align 4
  %1079 = getelementptr inbounds %"struct.std::pair", %"struct.std::pair"* %50, i32 0, i32 0
  %1080 = load i32, i32* @x.17
  %1081 = load i32, i32* @y.18
  %1082 = sub i32 %1080, -2109780168
  %1083 = sub i32 %1082, 1
  %1084 = add i32 %1083, -2109780168
  %1085 = sub i32 %1080, 1
  %1086 = mul i32 %1080, %1084
  %1087 = urem i32 %1086, 2
  %1088 = icmp eq i32 %1087, 0
  %1089 = icmp slt i32 %1081, 10
  %1090 = and i1 %1088, %1089
  %1091 = xor i1 %1088, %1089
  %1092 = or i1 %1090, %1091
  %1093 = or i1 %1088, %1089
  br i1 %1092, label %1094, label %1825

; <label>:1094:                                   ; preds = %1065
  invoke void @_ZNSt5queueIiNSt7__debug5dequeIiSaIiEEEE4pushERKi(%"class.std::queue"* %40, i32* dereferenceable(4) %1079)
          to label %1095 unwind label %958

; <label>:1095:                                   ; preds = %1094
  %1096 = load i32, i32* @x.17
  %1097 = load i32, i32* @y.18
  %1098 = sub i32 %1096, -1977675565
  %1099 = sub i32 %1098, 1
  %1100 = add i32 %1099, -1977675565
  %1101 = sub i32 %1096, 1
  %1102 = mul i32 %1096, %1100
  %1103 = urem i32 %1102, 2
  %1104 = icmp eq i32 %1103, 0
  %1105 = icmp slt i32 %1097, 10
  %1106 = xor i1 %1104, true
  %1107 = xor i1 %1105, true
  %1108 = xor i1 false, true
  %1109 = and i1 %1106, false
  %1110 = and i1 %1104, %1108
  %1111 = and i1 %1107, false
  %1112 = and i1 %1105, %1108
  %1113 = or i1 %1109, %1110
  %1114 = or i1 %1111, %1112
  %1115 = xor i1 %1113, %1114
  %1116 = or i1 %1106, %1107
  %1117 = xor i1 %1116, true
  %1118 = or i1 false, %1108
  %1119 = and i1 %1117, %1118
  %1120 = or i1 %1115, %1119
  %1121 = or i1 %1104, %1105
  br i1 %1120, label %1122, label %1844

; <label>:1122:                                   ; preds = %1095, %1844
  %1123 = load i32, i32* @x.17
  %1124 = load i32, i32* @y.18
  %1125 = sub i32 %1123, 1457788943
  %1126 = sub i32 %1125, 1
  %1127 = add i32 %1126, 1457788943
  %1128 = sub i32 %1123, 1
  %1129 = mul i32 %1123, %1127
  %1130 = urem i32 %1129, 2
  %1131 = icmp eq i32 %1130, 0
  %1132 = icmp slt i32 %1124, 10
  %1133 = and i1 %1131, %1132
  %1134 = xor i1 %1131, %1132
  %1135 = or i1 %1133, %1134
  %1136 = or i1 %1131, %1132
  br i1 %1135, label %1137, label %1844

; <label>:1137:                                   ; preds = %1122
  br label %1138

; <label>:1138:                                   ; preds = %1137, %1048
  %1139 = load i32, i32* @x.17
  %1140 = load i32, i32* @y.18
  %1141 = add i32 %1139, 1365987351
  %1142 = sub i32 %1141, 1
  %1143 = sub i32 %1142, 1365987351
  %1144 = sub i32 %1139, 1
  %1145 = mul i32 %1139, %1143
  %1146 = urem i32 %1145, 2
  %1147 = icmp eq i32 %1146, 0
  %1148 = icmp slt i32 %1140, 10
  %1149 = and i1 %1147, %1148
  %1150 = xor i1 %1147, %1148
  %1151 = or i1 %1149, %1150
  %1152 = or i1 %1147, %1148
  br i1 %1151, label %1153, label %1845

; <label>:1153:                                   ; preds = %1138, %1845
  %1154 = call dereferenceable(40) %"class.__gnu_debug::_Safe_iterator.37"* @_ZN11__gnu_debug14_Safe_iteratorIN9__gnu_cxx17__normal_iteratorIPSt4pairIiiENSt9__cxx19986vectorIS4_SaIS4_EEEEENSt7__debug6vectorIS4_S8_EEEppEv(%"class.__gnu_debug::_Safe_iterator.37"* %47) #3
  %1155 = load i32, i32* @x.17
  %1156 = load i32, i32* @y.18
  %1157 = sub i32 %1155, -1221518915
  %1158 = sub i32 %1157, 1
  %1159 = add i32 %1158, -1221518915
  %1160 = sub i32 %1155, 1
  %1161 = mul i32 %1155, %1159
  %1162 = urem i32 %1161, 2
  %1163 = icmp eq i32 %1162, 0
  %1164 = icmp slt i32 %1156, 10
  %1165 = xor i1 %1163, true
  %1166 = xor i1 %1164, true
  %1167 = xor i1 false, true
  %1168 = and i1 %1165, false
  %1169 = and i1 %1163, %1167
  %1170 = and i1 %1166, false
  %1171 = and i1 %1164, %1167
  %1172 = or i1 %1168, %1169
  %1173 = or i1 %1170, %1171
  %1174 = xor i1 %1172, %1173
  %1175 = or i1 %1165, %1166
  %1176 = xor i1 %1175, true
  %1177 = or i1 false, %1167
  %1178 = and i1 %1176, %1177
  %1179 = or i1 %1174, %1178
  %1180 = or i1 %1163, %1164
  br i1 %1179, label %1181, label %1845

; <label>:1181:                                   ; preds = %1153
  br label %693

; <label>:1182:                                   ; preds = %1047, %747
  call void @_ZN11__gnu_debug14_Safe_iteratorIN9__gnu_cxx17__normal_iteratorIPSt4pairIiiENSt9__cxx19986vectorIS4_SaIS4_EEEEENSt7__debug6vectorIS4_S8_EEED2Ev(%"class.__gnu_debug::_Safe_iterator.37"* %48) #3
  call void @_ZN11__gnu_debug14_Safe_iteratorIN9__gnu_cxx17__normal_iteratorIPSt4pairIiiENSt9__cxx19986vectorIS4_SaIS4_EEEEENSt7__debug6vectorIS4_S8_EEED2Ev(%"class.__gnu_debug::_Safe_iterator.37"* %47) #3
  br label %1183

; <label>:1183:                                   ; preds = %1182
  br label %552

; <label>:1184:                                   ; preds = %554
  store i32 0, i32* %51, align 4
  br label %1185

; <label>:1185:                                   ; preds = %1203, %1184
  %1186 = load i32, i32* %51, align 4
  %1187 = load i32, i32* %19, align 4
  %1188 = icmp slt i32 %1186, %1187
  br i1 %1188, label %1189, label %1209

; <label>:1189:                                   ; preds = %1185
  %1190 = load i32, i32* %51, align 4
  %1191 = sext i32 %1190 to i64
  %1192 = call dereferenceable(4) i32* @_ZNSt7__debug6vectorIiSaIiEEixEm(%"class.std::__debug::vector"* %20, i64 %1191) #3
  %1193 = load i32, i32* %1192, align 4
  %1194 = sext i32 %1193 to i64
  %1195 = call dereferenceable(4) i32* @_ZNSt7__debug6vectorIiSaIiEEixEm(%"class.std::__debug::vector"* %42, i64 %1194) #3
  %1196 = load i32, i32* %1195, align 4
  %1197 = load i32, i32* %39, align 4
  %1198 = sext i32 %1197 to i64
  %1199 = call dereferenceable(56) %"class.std::__debug::vector"* @_ZNSt7__debug6vectorINS0_IiSaIiEEESaIS2_EEixEm(%"class.std::__debug::vector.22"* %35, i64 %1198) #3
  %1200 = load i32, i32* %51, align 4
  %1201 = sext i32 %1200 to i64
  %1202 = call dereferenceable(4) i32* @_ZNSt7__debug6vectorIiSaIiEEixEm(%"class.std::__debug::vector"* %1199, i64 %1201) #3
  store i32 %1196, i32* %1202, align 4
  br label %1203

; <label>:1203:                                   ; preds = %1189
  %1204 = load i32, i32* %51, align 4
  %1205 = add i32 %1204, -1864634659
  %1206 = add i32 %1205, 1
  %1207 = sub i32 %1206, -1864634659
  %1208 = add nsw i32 %1204, 1
  store i32 %1207, i32* %51, align 4
  br label %1185

; <label>:1209:                                   ; preds = %1185
  %1210 = load i32, i32* @x.17
  %1211 = load i32, i32* @y.18
  %1212 = sub i32 %1210, -237485048
  %1213 = sub i32 %1212, 1
  %1214 = add i32 %1213, -237485048
  %1215 = sub i32 %1210, 1
  %1216 = mul i32 %1210, %1214
  %1217 = urem i32 %1216, 2
  %1218 = icmp eq i32 %1217, 0
  %1219 = icmp slt i32 %1211, 10
  %1220 = and i1 %1218, %1219
  %1221 = xor i1 %1218, %1219
  %1222 = or i1 %1220, %1221
  %1223 = or i1 %1218, %1219
  br i1 %1222, label %1224, label %1847

; <label>:1224:                                   ; preds = %1209, %1847
  call void @_ZNSt7__debug6vectorIiSaIiEED2Ev(%"class.std::__debug::vector"* %42) #3
  call void @_ZNSt5queueIiNSt7__debug5dequeIiSaIiEEEED2Ev(%"class.std::queue"* %40) #3
  %1225 = load i32, i32* @x.17
  %1226 = load i32, i32* @y.18
  %1227 = sub i32 %1225, -1836416446
  %1228 = sub i32 %1227, 1
  %1229 = add i32 %1228, -1836416446
  %1230 = sub i32 %1225, 1
  %1231 = mul i32 %1225, %1229
  %1232 = urem i32 %1231, 2
  %1233 = icmp eq i32 %1232, 0
  %1234 = icmp slt i32 %1226, 10
  %1235 = xor i1 %1233, true
  %1236 = xor i1 %1234, true
  %1237 = xor i1 false, true
  %1238 = and i1 %1235, false
  %1239 = and i1 %1233, %1237
  %1240 = and i1 %1236, false
  %1241 = and i1 %1234, %1237
  %1242 = or i1 %1238, %1239
  %1243 = or i1 %1240, %1241
  %1244 = xor i1 %1242, %1243
  %1245 = or i1 %1235, %1236
  %1246 = xor i1 %1245, true
  %1247 = or i1 false, %1237
  %1248 = and i1 %1246, %1247
  %1249 = or i1 %1244, %1248
  %1250 = or i1 %1233, %1234
  br i1 %1249, label %1251, label %1847

; <label>:1251:                                   ; preds = %1224
  br label %1252

; <label>:1252:                                   ; preds = %1251
  %1253 = load i32, i32* @x.17
  %1254 = load i32, i32* @y.18
  %1255 = add i32 %1253, -1839140078
  %1256 = sub i32 %1255, 1
  %1257 = sub i32 %1256, -1839140078
  %1258 = sub i32 %1253, 1
  %1259 = mul i32 %1253, %1257
  %1260 = urem i32 %1259, 2
  %1261 = icmp eq i32 %1260, 0
  %1262 = icmp slt i32 %1254, 10
  %1263 = and i1 %1261, %1262
  %1264 = xor i1 %1261, %1262
  %1265 = or i1 %1263, %1264
  %1266 = or i1 %1261, %1262
  br i1 %1265, label %1267, label %1848

; <label>:1267:                                   ; preds = %1252, %1848
  %1268 = load i32, i32* %39, align 4
  %1269 = sub i32 0, %1268
  %1270 = sub i32 0, 1
  %1271 = add i32 %1269, %1270
  %1272 = sub i32 0, %1271
  %1273 = add nsw i32 %1268, 1
  store i32 %1272, i32* %39, align 4
  %1274 = load i32, i32* @x.17
  %1275 = load i32, i32* @y.18
  %1276 = sub i32 %1274, -623990946
  %1277 = sub i32 %1276, 1
  %1278 = add i32 %1277, -623990946
  %1279 = sub i32 %1274, 1
  %1280 = mul i32 %1274, %1278
  %1281 = urem i32 %1280, 2
  %1282 = icmp eq i32 %1281, 0
  %1283 = icmp slt i32 %1275, 10
  %1284 = and i1 %1282, %1283
  %1285 = xor i1 %1282, %1283
  %1286 = or i1 %1284, %1285
  %1287 = or i1 %1282, %1283
  br i1 %1286, label %1288, label %1848

; <label>:1288:                                   ; preds = %1267
  br label %478

; <label>:1289:                                   ; preds = %958, %827
  call void @_ZNSt7__debug6vectorIiSaIiEED2Ev(%"class.std::__debug::vector"* %42) #3
  br label %1290

; <label>:1290:                                   ; preds = %1289, %823, %819
  call void @_ZNSt5queueIiNSt7__debug5dequeIiSaIiEEEED2Ev(%"class.std::queue"* %40) #3
  br label %1528

; <label>:1291:                                   ; preds = %478
  store i32 2147483647, i32* %52, align 4
  %1292 = load i32, i32* %19, align 4
  %1293 = sext i32 %1292 to i64
  call void @_ZNSaIiEC2Ev(%"class.std::allocator"* %54) #3
  invoke void @_ZNSt7__debug6vectorIiSaIiEEC2EmRKS1_(%"class.std::__debug::vector"* %53, i64 %1293, %"class.std::allocator"* dereferenceable(1) %54)
          to label %1294 unwind label %1338

; <label>:1294:                                   ; preds = %1291
  %1295 = load i32, i32* @x.17
  %1296 = load i32, i32* @y.18
  %1297 = sub i32 0, 1
  %1298 = add i32 %1295, %1297
  %1299 = sub i32 %1295, 1
  %1300 = mul i32 %1295, %1298
  %1301 = urem i32 %1300, 2
  %1302 = icmp eq i32 %1301, 0
  %1303 = icmp slt i32 %1296, 10
  %1304 = and i1 %1302, %1303
  %1305 = xor i1 %1302, %1303
  %1306 = or i1 %1304, %1305
  %1307 = or i1 %1302, %1303
  br i1 %1306, label %1308, label %1864

; <label>:1308:                                   ; preds = %1294, %1864
  call void @_ZNSaIiED2Ev(%"class.std::allocator"* %54) #3
  store i32 0, i32* %55, align 4
  %1309 = load i32, i32* @x.17
  %1310 = load i32, i32* @y.18
  %1311 = sub i32 %1309, -473644508
  %1312 = sub i32 %1311, 1
  %1313 = add i32 %1312, -473644508
  %1314 = sub i32 %1309, 1
  %1315 = mul i32 %1309, %1313
  %1316 = urem i32 %1315, 2
  %1317 = icmp eq i32 %1316, 0
  %1318 = icmp slt i32 %1310, 10
  %1319 = and i1 %1317, %1318
  %1320 = xor i1 %1317, %1318
  %1321 = or i1 %1319, %1320
  %1322 = or i1 %1317, %1318
  br i1 %1321, label %1323, label %1864

; <label>:1323:                                   ; preds = %1308
  br label %1324

; <label>:1324:                                   ; preds = %1333, %1323
  %1325 = load i32, i32* %55, align 4
  %1326 = load i32, i32* %19, align 4
  %1327 = icmp slt i32 %1325, %1326
  br i1 %1327, label %1328, label %1342

; <label>:1328:                                   ; preds = %1324
  %1329 = load i32, i32* %55, align 4
  %1330 = load i32, i32* %55, align 4
  %1331 = sext i32 %1330 to i64
  %1332 = call dereferenceable(4) i32* @_ZNSt7__debug6vectorIiSaIiEEixEm(%"class.std::__debug::vector"* %53, i64 %1331) #3
  store i32 %1329, i32* %1332, align 4
  br label %1333

; <label>:1333:                                   ; preds = %1328
  %1334 = load i32, i32* %55, align 4
  %1335 = sub i32 0, 1
  %1336 = sub i32 %1334, %1335
  %1337 = add nsw i32 %1334, 1
  store i32 %1336, i32* %55, align 4
  br label %1324

; <label>:1338:                                   ; preds = %1291
  %1339 = landingpad { i8*, i32 }
          cleanup
  %1340 = extractvalue { i8*, i32 } %1339, 0
  store i8* %1340, i8** %22, align 8
  %1341 = extractvalue { i8*, i32 } %1339, 1
  store i32 %1341, i32* %23, align 4
  call void @_ZNSaIiED2Ev(%"class.std::allocator"* %54) #3
  br label %1528

; <label>:1342:                                   ; preds = %1324
  br label %1343

; <label>:1343:                                   ; preds = %1470, %1342
  store i32 0, i32* %56, align 4
  store i32 0, i32* %57, align 4
  br label %1344

; <label>:1344:                                   ; preds = %1463, %1343
  %1345 = load i32, i32* %57, align 4
  %1346 = load i32, i32* %19, align 4
  %1347 = add i32 %1346, 1926161103
  %1348 = sub i32 %1347, 1
  %1349 = sub i32 %1348, 1926161103
  %1350 = sub nsw i32 %1346, 1
  %1351 = icmp slt i32 %1345, %1349
  br i1 %1351, label %1352, label %1464

; <label>:1352:                                   ; preds = %1344
  %1353 = load i32, i32* @x.17
  %1354 = load i32, i32* @y.18
  %1355 = sub i32 %1353, 933153537
  %1356 = sub i32 %1355, 1
  %1357 = add i32 %1356, 933153537
  %1358 = sub i32 %1353, 1
  %1359 = mul i32 %1353, %1357
  %1360 = urem i32 %1359, 2
  %1361 = icmp eq i32 %1360, 0
  %1362 = icmp slt i32 %1354, 10
  %1363 = xor i1 %1361, true
  %1364 = xor i1 %1362, true
  %1365 = xor i1 false, true
  %1366 = and i1 %1363, false
  %1367 = and i1 %1361, %1365
  %1368 = and i1 %1364, false
  %1369 = and i1 %1362, %1365
  %1370 = or i1 %1366, %1367
  %1371 = or i1 %1368, %1369
  %1372 = xor i1 %1370, %1371
  %1373 = or i1 %1363, %1364
  %1374 = xor i1 %1373, true
  %1375 = or i1 false, %1365
  %1376 = and i1 %1374, %1375
  %1377 = or i1 %1372, %1376
  %1378 = or i1 %1361, %1362
  br i1 %1377, label %1379, label %1865

; <label>:1379:                                   ; preds = %1352, %1865
  %1380 = load i32, i32* %57, align 4
  %1381 = sext i32 %1380 to i64
  %1382 = call dereferenceable(4) i32* @_ZNSt7__debug6vectorIiSaIiEEixEm(%"class.std::__debug::vector"* %53, i64 %1381) #3
  %1383 = load i32, i32* %1382, align 4
  %1384 = sext i32 %1383 to i64
  %1385 = call dereferenceable(56) %"class.std::__debug::vector"* @_ZNSt7__debug6vectorINS0_IiSaIiEEESaIS2_EEixEm(%"class.std::__debug::vector.22"* %35, i64 %1384) #3
  %1386 = load i32, i32* %57, align 4
  %1387 = sub i32 %1386, -701048162
  %1388 = add i32 %1387, 1
  %1389 = add i32 %1388, -701048162
  %1390 = add nsw i32 %1386, 1
  %1391 = sext i32 %1389 to i64
  %1392 = call dereferenceable(4) i32* @_ZNSt7__debug6vectorIiSaIiEEixEm(%"class.std::__debug::vector"* %53, i64 %1391) #3
  %1393 = load i32, i32* %1392, align 4
  %1394 = sext i32 %1393 to i64
  %1395 = call dereferenceable(4) i32* @_ZNSt7__debug6vectorIiSaIiEEixEm(%"class.std::__debug::vector"* %1385, i64 %1394) #3
  %1396 = load i32, i32* %1395, align 4
  %1397 = load i32, i32* %56, align 4
  %1398 = sub i32 0, %1396
  %1399 = sub i32 %1397, %1398
  %1400 = add nsw i32 %1397, %1396
  store i32 %1399, i32* %56, align 4
  %1401 = load i32, i32* @x.17
  %1402 = load i32, i32* @y.18
  %1403 = add i32 %1401, 952410879
  %1404 = sub i32 %1403, 1
  %1405 = sub i32 %1404, 952410879
  %1406 = sub i32 %1401, 1
  %1407 = mul i32 %1401, %1405
  %1408 = urem i32 %1407, 2
  %1409 = icmp eq i32 %1408, 0
  %1410 = icmp slt i32 %1402, 10
  %1411 = xor i1 %1409, true
  %1412 = xor i1 %1410, true
  %1413 = xor i1 false, true
  %1414 = and i1 %1411, false
  %1415 = and i1 %1409, %1413
  %1416 = and i1 %1412, false
  %1417 = and i1 %1410, %1413
  %1418 = or i1 %1414, %1415
  %1419 = or i1 %1416, %1417
  %1420 = xor i1 %1418, %1419
  %1421 = or i1 %1411, %1412
  %1422 = xor i1 %1421, true
  %1423 = or i1 false, %1413
  %1424 = and i1 %1422, %1423
  %1425 = or i1 %1420, %1424
  %1426 = or i1 %1409, %1410
  br i1 %1425, label %1427, label %1865

; <label>:1427:                                   ; preds = %1379
  br label %1428

; <label>:1428:                                   ; preds = %1427
  %1429 = load i32, i32* @x.17
  %1430 = load i32, i32* @y.18
  %1431 = sub i32 0, 1
  %1432 = add i32 %1429, %1431
  %1433 = sub i32 %1429, 1
  %1434 = mul i32 %1429, %1432
  %1435 = urem i32 %1434, 2
  %1436 = icmp eq i32 %1435, 0
  %1437 = icmp slt i32 %1430, 10
  %1438 = and i1 %1436, %1437
  %1439 = xor i1 %1436, %1437
  %1440 = or i1 %1438, %1439
  %1441 = or i1 %1436, %1437
  br i1 %1440, label %1442, label %1920

; <label>:1442:                                   ; preds = %1428, %1920
  %1443 = load i32, i32* %57, align 4
  %1444 = sub i32 0, %1443
  %1445 = sub i32 0, 1
  %1446 = add i32 %1444, %1445
  %1447 = sub i32 0, %1446
  %1448 = add nsw i32 %1443, 1
  store i32 %1447, i32* %57, align 4
  %1449 = load i32, i32* @x.17
  %1450 = load i32, i32* @y.18
  %1451 = add i32 %1449, -1681823912
  %1452 = sub i32 %1451, 1
  %1453 = sub i32 %1452, -1681823912
  %1454 = sub i32 %1449, 1
  %1455 = mul i32 %1449, %1453
  %1456 = urem i32 %1455, 2
  %1457 = icmp eq i32 %1456, 0
  %1458 = icmp slt i32 %1450, 10
  %1459 = and i1 %1457, %1458
  %1460 = xor i1 %1457, %1458
  %1461 = or i1 %1459, %1460
  %1462 = or i1 %1457, %1458
  br i1 %1461, label %1463, label %1920

; <label>:1463:                                   ; preds = %1442
  br label %1344

; <label>:1464:                                   ; preds = %1344
  %1465 = invoke dereferenceable(4) i32* @_ZSt3minIiERKT_S2_S2_(i32* dereferenceable(4) %52, i32* dereferenceable(4) %56)
          to label %1466 unwind label %1519

; <label>:1466:                                   ; preds = %1464
  %1467 = load i32, i32* %1465, align 4
  store i32 %1467, i32* %52, align 4
  br label %1468

; <label>:1468:                                   ; preds = %1466
  call void @_ZNSt7__debug6vectorIiSaIiEE5beginEv(%"class.__gnu_debug::_Safe_iterator"* sret %58, %"class.std::__debug::vector"* %53) #3
  call void @_ZNSt7__debug6vectorIiSaIiEE3endEv(%"class.__gnu_debug::_Safe_iterator"* sret %59, %"class.std::__debug::vector"* %53) #3
  %1469 = invoke zeroext i1 @_ZSt16next_permutationIN11__gnu_debug14_Safe_iteratorIN9__gnu_cxx17__normal_iteratorIPiNSt9__cxx19986vectorIiSaIiEEEEENSt7__debug6vectorIiS7_EEEEEbT_SE_(%"class.__gnu_debug::_Safe_iterator"* %58, %"class.__gnu_debug::_Safe_iterator"* %59)
          to label %1470 unwind label %1523

; <label>:1470:                                   ; preds = %1468
  call void @_ZN11__gnu_debug14_Safe_iteratorIN9__gnu_cxx17__normal_iteratorIPiNSt9__cxx19986vectorIiSaIiEEEEENSt7__debug6vectorIiS6_EEED2Ev(%"class.__gnu_debug::_Safe_iterator"* %59) #3
  call void @_ZN11__gnu_debug14_Safe_iteratorIN9__gnu_cxx17__normal_iteratorIPiNSt9__cxx19986vectorIiSaIiEEEEENSt7__debug6vectorIiS6_EEED2Ev(%"class.__gnu_debug::_Safe_iterator"* %58) #3
  br i1 %1469, label %1343, label %1471

; <label>:1471:                                   ; preds = %1470
  %1472 = load i32, i32* %52, align 4
  %1473 = invoke dereferenceable(272) %"class.std::basic_ostream"* @_ZNSolsEi(%"class.std::basic_ostream"* @_ZSt4cout, i32 %1472)
          to label %1474 unwind label %1519

; <label>:1474:                                   ; preds = %1471
  %1475 = load i32, i32* @x.17
  %1476 = load i32, i32* @y.18
  %1477 = sub i32 0, 1
  %1478 = add i32 %1475, %1477
  %1479 = sub i32 %1475, 1
  %1480 = mul i32 %1475, %1478
  %1481 = urem i32 %1480, 2
  %1482 = icmp eq i32 %1481, 0
  %1483 = icmp slt i32 %1476, 10
  %1484 = xor i1 %1482, true
  %1485 = xor i1 %1483, true
  %1486 = xor i1 false, true
  %1487 = and i1 %1484, false
  %1488 = and i1 %1482, %1486
  %1489 = and i1 %1485, false
  %1490 = and i1 %1483, %1486
  %1491 = or i1 %1487, %1488
  %1492 = or i1 %1489, %1490
  %1493 = xor i1 %1491, %1492
  %1494 = or i1 %1484, %1485
  %1495 = xor i1 %1494, true
  %1496 = or i1 false, %1486
  %1497 = and i1 %1495, %1496
  %1498 = or i1 %1493, %1497
  %1499 = or i1 %1482, %1483
  br i1 %1498, label %1500, label %1937

; <label>:1500:                                   ; preds = %1474, %1937
  %1501 = load i32, i32* @x.17
  %1502 = load i32, i32* @y.18
  %1503 = add i32 %1501, -733191822
  %1504 = sub i32 %1503, 1
  %1505 = sub i32 %1504, -733191822
  %1506 = sub i32 %1501, 1
  %1507 = mul i32 %1501, %1505
  %1508 = urem i32 %1507, 2
  %1509 = icmp eq i32 %1508, 0
  %1510 = icmp slt i32 %1502, 10
  %1511 = and i1 %1509, %1510
  %1512 = xor i1 %1509, %1510
  %1513 = or i1 %1511, %1512
  %1514 = or i1 %1509, %1510
  br i1 %1513, label %1515, label %1937

; <label>:1515:                                   ; preds = %1500
  %1516 = invoke dereferenceable(272) %"class.std::basic_ostream"* @_ZNSolsEPFRSoS_E(%"class.std::basic_ostream"* %1473, %"class.std::basic_ostream"* (%"class.std::basic_ostream"*)* @_ZSt4endlIcSt11char_traitsIcEERSt13basic_ostreamIT_T0_ES6_)
          to label %1517 unwind label %1519

; <label>:1517:                                   ; preds = %1515
  call void @_ZNSt7__debug6vectorIiSaIiEED2Ev(%"class.std::__debug::vector"* %53) #3
  call void @_ZNSt7__debug6vectorINS0_IiSaIiEEESaIS2_EED2Ev(%"class.std::__debug::vector.22"* %35) #3
  call void @_ZNSt7__debug6vectorINS0_ISt4pairIiiESaIS2_EEESaIS4_EED2Ev(%"class.std::__debug::vector.0"* %27) #3
  call void @_ZNSt7__debug6vectorIiSaIiEED2Ev(%"class.std::__debug::vector"* %20) #3
  %1518 = load i32, i32* %16, align 4
  ret i32 %1518

; <label>:1519:                                   ; preds = %1515, %1471, %1464
  %1520 = landingpad { i8*, i32 }
          cleanup
  %1521 = extractvalue { i8*, i32 } %1520, 0
  store i8* %1521, i8** %22, align 8
  %1522 = extractvalue { i8*, i32 } %1520, 1
  store i32 %1522, i32* %23, align 4
  br label %1527

; <label>:1523:                                   ; preds = %1468
  %1524 = landingpad { i8*, i32 }
          cleanup
  %1525 = extractvalue { i8*, i32 } %1524, 0
  store i8* %1525, i8** %22, align 8
  %1526 = extractvalue { i8*, i32 } %1524, 1
  store i32 %1526, i32* %23, align 4
  call void @_ZN11__gnu_debug14_Safe_iteratorIN9__gnu_cxx17__normal_iteratorIPiNSt9__cxx19986vectorIiSaIiEEEEENSt7__debug6vectorIiS6_EEED2Ev(%"class.__gnu_debug::_Safe_iterator"* %59) #3
  call void @_ZN11__gnu_debug14_Safe_iteratorIN9__gnu_cxx17__normal_iteratorIPiNSt9__cxx19986vectorIiSaIiEEEEENSt7__debug6vectorIiS6_EEED2Ev(%"class.__gnu_debug::_Safe_iterator"* %58) #3
  br label %1527

; <label>:1527:                                   ; preds = %1523, %1519
  call void @_ZNSt7__debug6vectorIiSaIiEED2Ev(%"class.std::__debug::vector"* %53) #3
  br label %1528

; <label>:1528:                                   ; preds = %1527, %1338, %1290, %818, %757
  call void @_ZNSt7__debug6vectorINS0_IiSaIiEEESaIS2_EED2Ev(%"class.std::__debug::vector.22"* %35) #3
  br label %1529

; <label>:1529:                                   ; preds = %1528, %756, %397
  call void @_ZNSt7__debug6vectorINS0_ISt4pairIiiESaIS2_EEESaIS4_EED2Ev(%"class.std::__debug::vector.0"* %27) #3
  br label %1530

; <label>:1530:                                   ; preds = %1529, %396, %339, %123
  %1531 = load i32, i32* @x.17
  %1532 = load i32, i32* @y.18
  %1533 = add i32 %1531, 1090583568
  %1534 = sub i32 %1533, 1
  %1535 = sub i32 %1534, 1090583568
  %1536 = sub i32 %1531, 1
  %1537 = mul i32 %1531, %1535
  %1538 = urem i32 %1537, 2
  %1539 = icmp eq i32 %1538, 0
  %1540 = icmp slt i32 %1532, 10
  %1541 = xor i1 %1539, true
  %1542 = xor i1 %1540, true
  %1543 = xor i1 true, true
  %1544 = and i1 %1541, true
  %1545 = and i1 %1539, %1543
  %1546 = and i1 %1542, true
  %1547 = and i1 %1540, %1543
  %1548 = or i1 %1544, %1545
  %1549 = or i1 %1546, %1547
  %1550 = xor i1 %1548, %1549
  %1551 = or i1 %1541, %1542
  %1552 = xor i1 %1551, true
  %1553 = or i1 true, %1543
  %1554 = and i1 %1552, %1553
  %1555 = or i1 %1550, %1554
  %1556 = or i1 %1539, %1540
  br i1 %1555, label %1557, label %1938

; <label>:1557:                                   ; preds = %1530, %1938
  call void @_ZNSt7__debug6vectorIiSaIiEED2Ev(%"class.std::__debug::vector"* %20) #3
  %1558 = load i32, i32* @x.17
  %1559 = load i32, i32* @y.18
  %1560 = sub i32 %1558, 1057629912
  %1561 = sub i32 %1560, 1
  %1562 = add i32 %1561, 1057629912
  %1563 = sub i32 %1558, 1
  %1564 = mul i32 %1558, %1562
  %1565 = urem i32 %1564, 2
  %1566 = icmp eq i32 %1565, 0
  %1567 = icmp slt i32 %1559, 10
  %1568 = xor i1 %1566, true
  %1569 = xor i1 %1567, true
  %1570 = xor i1 true, true
  %1571 = and i1 %1568, true
  %1572 = and i1 %1566, %1570
  %1573 = and i1 %1569, true
  %1574 = and i1 %1567, %1570
  %1575 = or i1 %1571, %1572
  %1576 = or i1 %1573, %1574
  %1577 = xor i1 %1575, %1576
  %1578 = or i1 %1568, %1569
  %1579 = xor i1 %1578, true
  %1580 = or i1 true, %1570
  %1581 = and i1 %1579, %1580
  %1582 = or i1 %1577, %1581
  %1583 = or i1 %1566, %1567
  br i1 %1582, label %1584, label %1938

; <label>:1584:                                   ; preds = %1557
  br label %1585

; <label>:1585:                                   ; preds = %1584, %119
  %1586 = load i8*, i8** %22, align 8
  %1587 = load i32, i32* %23, align 4
  %1588 = insertvalue { i8*, i32 } undef, i8* %1586, 0
  %1589 = insertvalue { i8*, i32 } %1588, i32 %1587, 1
  resume { i8*, i32 } %1589

; <label>:1590:                                   ; preds = %15, %0
  %1591 = alloca i32, align 4
  %1592 = alloca i32, align 4
  %1593 = alloca i32, align 4
  %1594 = alloca i32, align 4
  %1595 = alloca %"class.std::__debug::vector", align 8
  %1596 = alloca %"class.std::allocator", align 1
  %1597 = alloca i8*
  %1598 = alloca i32
  %1599 = alloca i32, align 4
  %1600 = alloca %"class.__gnu_debug::_Safe_iterator", align 8
  %1601 = alloca %"class.__gnu_debug::_Safe_iterator", align 8
  %1602 = alloca %"class.std::__debug::vector.0", align 8
  %1603 = alloca %"class.std::allocator.7", align 1
  %1604 = alloca i32, align 4
  %1605 = alloca i32, align 4
  %1606 = alloca i32, align 4
  %1607 = alloca i32, align 4
  %1608 = alloca %"struct.std::pair", align 4
  %1609 = alloca %"struct.std::pair", align 4
  %1610 = alloca %"class.std::__debug::vector.22", align 8
  %1611 = alloca %"class.std::__debug::vector", align 8
  %1612 = alloca %"class.std::allocator", align 1
  %1613 = alloca %"class.std::allocator.29", align 1
  %1614 = alloca i32, align 4
  %1615 = alloca %"class.std::queue", align 8
  %1616 = alloca %"class.std::__debug::deque", align 8
  %1617 = alloca %"class.std::__debug::vector", align 8
  %1618 = alloca i32, align 4
  %1619 = alloca %"class.std::allocator", align 1
  %1620 = alloca i32, align 4
  %1621 = alloca %"class.std::__debug::vector.10"*, align 8
  %1622 = alloca %"class.__gnu_debug::_Safe_iterator.37", align 8
  %1623 = alloca %"class.__gnu_debug::_Safe_iterator.37", align 8
  %1624 = alloca i32
  %1625 = alloca %"struct.std::pair", align 4
  %1626 = alloca i32, align 4
  %1627 = alloca i32, align 4
  %1628 = alloca %"class.std::__debug::vector", align 8
  %1629 = alloca %"class.std::allocator", align 1
  %1630 = alloca i32, align 4
  %1631 = alloca i32, align 4
  %1632 = alloca i32, align 4
  %1633 = alloca %"class.__gnu_debug::_Safe_iterator", align 8
  %1634 = alloca %"class.__gnu_debug::_Safe_iterator", align 8
  store i32 0, i32* %1591, align 4
  %1635 = call dereferenceable(280) %"class.std::basic_istream"* @_ZNSirsERi(%"class.std::basic_istream"* @_ZSt3cin, i32* dereferenceable(4) %1592)
  %1636 = call dereferenceable(280) %"class.std::basic_istream"* @_ZNSirsERi(%"class.std::basic_istream"* %1635, i32* dereferenceable(4) %1593)
  %1637 = call dereferenceable(280) %"class.std::basic_istream"* @_ZNSirsERi(%"class.std::basic_istream"* %1636, i32* dereferenceable(4) %1594)
  %1638 = load i32, i32* %1594, align 4
  %1639 = sext i32 %1638 to i64
  call void @_ZNSaIiEC2Ev(%"class.std::allocator"* %1596) #3
  br label %15

; <label>:1640:                                   ; preds = %142, %128
  call void @_ZN11__gnu_debug14_Safe_iteratorIN9__gnu_cxx17__normal_iteratorIPiNSt9__cxx19986vectorIiSaIiEEEEENSt7__debug6vectorIiS6_EEED2Ev(%"class.__gnu_debug::_Safe_iterator"* %26) #3
  call void @_ZN11__gnu_debug14_Safe_iteratorIN9__gnu_cxx17__normal_iteratorIPiNSt9__cxx19986vectorIiSaIiEEEEENSt7__debug6vectorIiS6_EEED2Ev(%"class.__gnu_debug::_Safe_iterator"* %25) #3
  %1641 = load i32, i32* %17, align 4
  %1642 = sext i32 %1641 to i64
  call void @_ZNSaINSt7__debug6vectorISt4pairIiiESaIS2_EEEEC2Ev(%"class.std::allocator.7"* %28) #3
  br label %142

; <label>:1643:                                   ; preds = %209, %182
  %1644 = load i32, i32* %30, align 4
  %1645 = shl i32 %1644, -1
  %1646 = shl i32 %1644, -1
  %1647 = sub i32 %1644, -1314934528
  %1648 = sub i32 %1647, -1
  %1649 = add i32 %1648, -1314934528
  %1650 = sub i32 %1644, -1
  %1651 = mul i32 %1649, -1
  %1652 = shl i32 %1644, -1
  %1653 = shl i32 %1644, -1
  %1654 = add i32 %1644, 362009749
  %1655 = add i32 %1654, -1
  %1656 = sub i32 %1655, 362009749
  %1657 = add nsw i32 %1644, -1
  store i32 %1656, i32* %30, align 4
  %1658 = load i32, i32* %31, align 4
  %1659 = sub i32 %1658, -1647396517
  %1660 = sub i32 %1659, -1
  %1661 = add i32 %1660, -1647396517
  %1662 = sub i32 %1658, -1
  %1663 = mul i32 %1661, -1
  %1664 = sub i32 0, 1446628932
  %1665 = sub i32 %1664, %1658
  %1666 = add i32 %1665, 1446628932
  %1667 = sub i32 0, %1658
  %1668 = sub i32 0, %1666
  %1669 = sub i32 0, -1
  %1670 = add i32 %1668, %1669
  %1671 = sub i32 0, %1670
  %1672 = add i32 %1666, -1
  %1673 = shl i32 %1658, -1
  %1674 = sub i32 0, %1658
  %1675 = add i32 0, %1674
  %1676 = sub i32 0, %1658
  %1677 = add i32 %1675, 389635685
  %1678 = add i32 %1677, -1
  %1679 = sub i32 %1678, 389635685
  %1680 = add i32 %1675, -1
  %1681 = sub i32 0, 635474752
  %1682 = sub i32 %1681, %1658
  %1683 = add i32 %1682, 635474752
  %1684 = sub i32 0, %1658
  %1685 = sub i32 0, -1
  %1686 = sub i32 %1683, %1685
  %1687 = add i32 %1683, -1
  %1688 = add i32 0, -1179656217
  %1689 = sub i32 %1688, %1658
  %1690 = sub i32 %1689, -1179656217
  %1691 = sub i32 0, %1658
  %1692 = add i32 %1690, 497524627
  %1693 = add i32 %1692, -1
  %1694 = sub i32 %1693, 497524627
  %1695 = add i32 %1690, -1
  %1696 = shl i32 %1658, -1
  %1697 = add i32 %1658, 295202203
  %1698 = add i32 %1697, -1
  %1699 = sub i32 %1698, 295202203
  %1700 = add nsw i32 %1658, -1
  store i32 %1699, i32* %31, align 4
  %1701 = load i32, i32* %30, align 4
  %1702 = sext i32 %1701 to i64
  %1703 = call dereferenceable(56) %"class.std::__debug::vector.10"* @_ZNSt7__debug6vectorINS0_ISt4pairIiiESaIS2_EEESaIS4_EEixEm(%"class.std::__debug::vector.0"* %27, i64 %1702) #3
  br label %209

; <label>:1704:                                   ; preds = %271, %245
  %1705 = bitcast %"struct.std::pair"* %34 to i64*
  store i64 %244, i64* %1705, align 4
  br label %271

; <label>:1706:                                   ; preds = %322, %307
  %1707 = landingpad { i8*, i32 }
          cleanup
  %1708 = extractvalue { i8*, i32 } %1707, 0
  store i8* %1708, i8** %22, align 8
  %1709 = extractvalue { i8*, i32 } %1707, 1
  store i32 %1709, i32* %23, align 4
  call void @_ZN11__gnu_debug14_Safe_iteratorIN9__gnu_cxx17__normal_iteratorIPiNSt9__cxx19986vectorIiSaIiEEEEENSt7__debug6vectorIiS6_EEED2Ev(%"class.__gnu_debug::_Safe_iterator"* %26) #3
  call void @_ZN11__gnu_debug14_Safe_iteratorIN9__gnu_cxx17__normal_iteratorIPiNSt9__cxx19986vectorIiSaIiEEEEENSt7__debug6vectorIiS6_EEED2Ev(%"class.__gnu_debug::_Safe_iterator"* %25) #3
  br label %322

; <label>:1710:                                   ; preds = %367, %340
  %1711 = landingpad { i8*, i32 }
          cleanup
  %1712 = extractvalue { i8*, i32 } %1711, 0
  store i8* %1712, i8** %22, align 8
  %1713 = extractvalue { i8*, i32 } %1711, 1
  store i32 %1713, i32* %23, align 4
  call void @_ZNSaINSt7__debug6vectorISt4pairIiiESaIS2_EEEED2Ev(%"class.std::allocator.7"* %28) #3
  br label %367

; <label>:1714:                                   ; preds = %428, %401
  %1715 = load i32, i32* %19, align 4
  %1716 = sext i32 %1715 to i64
  %1717 = load i32, i32* %19, align 4
  %1718 = sext i32 %1717 to i64
  call void @_ZNSaIiEC2Ev(%"class.std::allocator"* %37) #3
  br label %428

; <label>:1719:                                   ; preds = %461, %447
  call void @_ZNSaINSt7__debug6vectorIiSaIiEEEEC2Ev(%"class.std::allocator.29"* %38) #3
  br label %461

; <label>:1720:                                   ; preds = %511, %485
  call void @_ZNSt7__debug5dequeIiSaIiEED2Ev(%"class.std::__debug::deque"* %41) #3
  %1721 = load i32, i32* %39, align 4
  %1722 = sext i32 %1721 to i64
  %1723 = call dereferenceable(4) i32* @_ZNSt7__debug6vectorIiSaIiEEixEm(%"class.std::__debug::vector"* %20, i64 %1722) #3
  br label %511

; <label>:1724:                                   ; preds = %575, %561
  br label %575

; <label>:1725:                                   ; preds = %630, %604
  %1726 = load i32, i32* %603, align 4
  store i32 %1726, i32* %45, align 4
  br label %630

; <label>:1727:                                   ; preds = %672, %658
  %1728 = load i32, i32* %45, align 4
  %1729 = sext i32 %1728 to i64
  %1730 = call dereferenceable(56) %"class.std::__debug::vector.10"* @_ZNSt7__debug6vectorINS0_ISt4pairIiiESaIS2_EEESaIS4_EEixEm(%"class.std::__debug::vector.0"* %27, i64 %1729) #3
  store %"class.std::__debug::vector.10"* %1730, %"class.std::__debug::vector.10"** %46, align 8
  %1731 = load %"class.std::__debug::vector.10"*, %"class.std::__debug::vector.10"** %46, align 8
  call void @_ZNSt7__debug6vectorISt4pairIiiESaIS2_EE5beginEv(%"class.__gnu_debug::_Safe_iterator.37"* sret %47, %"class.std::__debug::vector.10"* %1731) #3
  %1732 = load %"class.std::__debug::vector.10"*, %"class.std::__debug::vector.10"** %46, align 8
  call void @_ZNSt7__debug6vectorISt4pairIiiESaIS2_EE3endEv(%"class.__gnu_debug::_Safe_iterator.37"* sret %48, %"class.std::__debug::vector.10"* %1732) #3
  br label %672

; <label>:1733:                                   ; preds = %721, %695
  store i32 13, i32* %49, align 4
  br label %721

; <label>:1734:                                   ; preds = %788, %761
  %1735 = landingpad { i8*, i32 }
          cleanup
  %1736 = extractvalue { i8*, i32 } %1735, 0
  store i8* %1736, i8** %22, align 8
  %1737 = extractvalue { i8*, i32 } %1735, 1
  store i32 %1737, i32* %23, align 4
  call void @_ZNSt7__debug5dequeIiSaIiEED2Ev(%"class.std::__debug::deque"* %41) #3
  br label %788

; <label>:1738:                                   ; preds = %856, %841
  %1739 = getelementptr inbounds %"struct.std::pair", %"struct.std::pair"* %50, i32 0, i32 0
  %1740 = load i32, i32* %1739, align 4
  %1741 = sext i32 %1740 to i64
  %1742 = call dereferenceable(4) i32* @_ZNSt7__debug6vectorIiSaIiEEixEm(%"class.std::__debug::vector"* %42, i64 %1741) #3
  %1743 = load i32, i32* %1742, align 4
  %1744 = load i32, i32* %45, align 4
  %1745 = sext i32 %1744 to i64
  %1746 = call dereferenceable(4) i32* @_ZNSt7__debug6vectorIiSaIiEEixEm(%"class.std::__debug::vector"* %42, i64 %1745) #3
  %1747 = load i32, i32* %1746, align 4
  %1748 = getelementptr inbounds %"struct.std::pair", %"struct.std::pair"* %50, i32 0, i32 1
  %1749 = load i32, i32* %1748, align 4
  %1750 = shl i32 %1747, %1749
  %1751 = sub i32 0, -104318838
  %1752 = sub i32 %1751, %1747
  %1753 = add i32 %1752, -104318838
  %1754 = sub i32 0, %1747
  %1755 = sub i32 0, %1749
  %1756 = sub i32 %1753, %1755
  %1757 = add i32 %1753, %1749
  %1758 = shl i32 %1747, %1749
  %1759 = sub i32 %1747, 1663916777
  %1760 = sub i32 %1759, %1749
  %1761 = add i32 %1760, 1663916777
  %1762 = sub i32 %1747, %1749
  %1763 = mul i32 %1761, %1749
  %1764 = sub i32 0, %1749
  %1765 = sub i32 %1747, %1764
  %1766 = add nsw i32 %1747, %1749
  %1767 = icmp sgt i32 %1743, %1765
  br label %856

; <label>:1768:                                   ; preds = %916, %901
  %1769 = load i32, i32* %45, align 4
  %1770 = sext i32 %1769 to i64
  %1771 = call dereferenceable(4) i32* @_ZNSt7__debug6vectorIiSaIiEEixEm(%"class.std::__debug::vector"* %42, i64 %1770) #3
  %1772 = load i32, i32* %1771, align 4
  %1773 = getelementptr inbounds %"struct.std::pair", %"struct.std::pair"* %50, i32 0, i32 1
  %1774 = load i32, i32* %1773, align 4
  %1775 = shl i32 %1772, %1774
  %1776 = sub i32 0, -405328768
  %1777 = sub i32 %1776, %1772
  %1778 = add i32 %1777, -405328768
  %1779 = sub i32 0, %1772
  %1780 = sub i32 %1778, 1483517265
  %1781 = add i32 %1780, %1774
  %1782 = add i32 %1781, 1483517265
  %1783 = add i32 %1778, %1774
  %1784 = sub i32 0, %1774
  %1785 = add i32 %1772, %1784
  %1786 = sub i32 %1772, %1774
  %1787 = mul i32 %1785, %1774
  %1788 = sub i32 0, %1774
  %1789 = add i32 %1772, %1788
  %1790 = sub i32 %1772, %1774
  %1791 = mul i32 %1789, %1774
  %1792 = add i32 %1772, -188547712
  %1793 = add i32 %1792, %1774
  %1794 = sub i32 %1793, -188547712
  %1795 = add nsw i32 %1772, %1774
  %1796 = getelementptr inbounds %"struct.std::pair", %"struct.std::pair"* %50, i32 0, i32 0
  %1797 = load i32, i32* %1796, align 4
  %1798 = sext i32 %1797 to i64
  %1799 = call dereferenceable(4) i32* @_ZNSt7__debug6vectorIiSaIiEEixEm(%"class.std::__debug::vector"* %42, i64 %1798) #3
  store i32 %1794, i32* %1799, align 4
  br label %916

; <label>:1800:                                   ; preds = %1005, %978
  %1801 = getelementptr inbounds %"struct.std::pair", %"struct.std::pair"* %50, i32 0, i32 0
  %1802 = load i32, i32* %1801, align 4
  %1803 = sext i32 %1802 to i64
  %1804 = call dereferenceable(4) i32* @_ZNSt7__debug6vectorIiSaIiEEixEm(%"class.std::__debug::vector"* %42, i64 %1803) #3
  %1805 = load i32, i32* %1804, align 4
  %1806 = getelementptr inbounds %"struct.std::pair", %"struct.std::pair"* %50, i32 0, i32 1
  %1807 = load i32, i32* %1806, align 4
  %1808 = shl i32 %1805, %1807
  %1809 = sub i32 %1805, 1145484022
  %1810 = sub i32 %1809, %1807
  %1811 = add i32 %1810, 1145484022
  %1812 = sub i32 %1805, %1807
  %1813 = mul i32 %1811, %1807
  %1814 = sub i32 0, %1807
  %1815 = add i32 %1805, %1814
  %1816 = sub i32 %1805, %1807
  %1817 = mul i32 %1815, %1807
  %1818 = shl i32 %1805, %1807
  %1819 = sub i32 0, %1807
  %1820 = sub i32 %1805, %1819
  %1821 = add nsw i32 %1805, %1807
  %1822 = load i32, i32* %45, align 4
  %1823 = sext i32 %1822 to i64
  %1824 = call dereferenceable(4) i32* @_ZNSt7__debug6vectorIiSaIiEEixEm(%"class.std::__debug::vector"* %42, i64 %1823) #3
  store i32 %1820, i32* %1824, align 4
  br label %1005

; <label>:1825:                                   ; preds = %1065, %1050
  %1826 = load i32, i32* %45, align 4
  %1827 = sext i32 %1826 to i64
  %1828 = call dereferenceable(4) i32* @_ZNSt7__debug6vectorIiSaIiEEixEm(%"class.std::__debug::vector"* %42, i64 %1827) #3
  %1829 = load i32, i32* %1828, align 4
  %1830 = getelementptr inbounds %"struct.std::pair", %"struct.std::pair"* %50, i32 0, i32 1
  %1831 = load i32, i32* %1830, align 4
  %1832 = sub i32 0, %1831
  %1833 = add i32 %1829, %1832
  %1834 = sub i32 %1829, %1831
  %1835 = mul i32 %1833, %1831
  %1836 = sub i32 0, %1831
  %1837 = sub i32 %1829, %1836
  %1838 = add nsw i32 %1829, %1831
  %1839 = getelementptr inbounds %"struct.std::pair", %"struct.std::pair"* %50, i32 0, i32 0
  %1840 = load i32, i32* %1839, align 4
  %1841 = sext i32 %1840 to i64
  %1842 = call dereferenceable(4) i32* @_ZNSt7__debug6vectorIiSaIiEEixEm(%"class.std::__debug::vector"* %42, i64 %1841) #3
  store i32 %1837, i32* %1842, align 4
  %1843 = getelementptr inbounds %"struct.std::pair", %"struct.std::pair"* %50, i32 0, i32 0
  br label %1065

; <label>:1844:                                   ; preds = %1122, %1095
  br label %1122

; <label>:1845:                                   ; preds = %1153, %1138
  %1846 = call dereferenceable(40) %"class.__gnu_debug::_Safe_iterator.37"* @_ZN11__gnu_debug14_Safe_iteratorIN9__gnu_cxx17__normal_iteratorIPSt4pairIiiENSt9__cxx19986vectorIS4_SaIS4_EEEEENSt7__debug6vectorIS4_S8_EEEppEv(%"class.__gnu_debug::_Safe_iterator.37"* %47) #3
  br label %1153

; <label>:1847:                                   ; preds = %1224, %1209
  call void @_ZNSt7__debug6vectorIiSaIiEED2Ev(%"class.std::__debug::vector"* %42) #3
  call void @_ZNSt5queueIiNSt7__debug5dequeIiSaIiEEEED2Ev(%"class.std::queue"* %40) #3
  br label %1224

; <label>:1848:                                   ; preds = %1267, %1252
  %1849 = load i32, i32* %39, align 4
  %1850 = shl i32 %1849, 1
  %1851 = shl i32 %1849, 1
  %1852 = add i32 0, -1831484174
  %1853 = sub i32 %1852, %1849
  %1854 = sub i32 %1853, -1831484174
  %1855 = sub i32 0, %1849
  %1856 = sub i32 0, %1854
  %1857 = sub i32 0, 1
  %1858 = add i32 %1856, %1857
  %1859 = sub i32 0, %1858
  %1860 = add i32 %1854, 1
  %1861 = sub i32 0, 1
  %1862 = sub i32 %1849, %1861
  %1863 = add nsw i32 %1849, 1
  store i32 %1862, i32* %39, align 4
  br label %1267

; <label>:1864:                                   ; preds = %1308, %1294
  call void @_ZNSaIiED2Ev(%"class.std::allocator"* %54) #3
  store i32 0, i32* %55, align 4
  br label %1308

; <label>:1865:                                   ; preds = %1379, %1352
  %1866 = load i32, i32* %57, align 4
  %1867 = sext i32 %1866 to i64
  %1868 = call dereferenceable(4) i32* @_ZNSt7__debug6vectorIiSaIiEEixEm(%"class.std::__debug::vector"* %53, i64 %1867) #3
  %1869 = load i32, i32* %1868, align 4
  %1870 = sext i32 %1869 to i64
  %1871 = call dereferenceable(56) %"class.std::__debug::vector"* @_ZNSt7__debug6vectorINS0_IiSaIiEEESaIS2_EEixEm(%"class.std::__debug::vector.22"* %35, i64 %1870) #3
  %1872 = load i32, i32* %57, align 4
  %1873 = add i32 %1872, 550916493
  %1874 = sub i32 %1873, 1
  %1875 = sub i32 %1874, 550916493
  %1876 = sub i32 %1872, 1
  %1877 = mul i32 %1875, 1
  %1878 = shl i32 %1872, 1
  %1879 = sub i32 %1872, -715258920
  %1880 = sub i32 %1879, 1
  %1881 = add i32 %1880, -715258920
  %1882 = sub i32 %1872, 1
  %1883 = mul i32 %1881, 1
  %1884 = sub i32 0, 1
  %1885 = add i32 %1872, %1884
  %1886 = sub i32 %1872, 1
  %1887 = mul i32 %1885, 1
  %1888 = add i32 %1872, -1272548429
  %1889 = sub i32 %1888, 1
  %1890 = sub i32 %1889, -1272548429
  %1891 = sub i32 %1872, 1
  %1892 = mul i32 %1890, 1
  %1893 = shl i32 %1872, 1
  %1894 = sub i32 0, %1872
  %1895 = sub i32 0, 1
  %1896 = add i32 %1894, %1895
  %1897 = sub i32 0, %1896
  %1898 = add nsw i32 %1872, 1
  %1899 = sext i32 %1897 to i64
  %1900 = call dereferenceable(4) i32* @_ZNSt7__debug6vectorIiSaIiEEixEm(%"class.std::__debug::vector"* %53, i64 %1899) #3
  %1901 = load i32, i32* %1900, align 4
  %1902 = sext i32 %1901 to i64
  %1903 = call dereferenceable(4) i32* @_ZNSt7__debug6vectorIiSaIiEEixEm(%"class.std::__debug::vector"* %1871, i64 %1902) #3
  %1904 = load i32, i32* %1903, align 4
  %1905 = load i32, i32* %56, align 4
  %1906 = sub i32 %1905, -903565945
  %1907 = sub i32 %1906, %1904
  %1908 = add i32 %1907, -903565945
  %1909 = sub i32 %1905, %1904
  %1910 = mul i32 %1908, %1904
  %1911 = add i32 %1905, 720448632
  %1912 = sub i32 %1911, %1904
  %1913 = sub i32 %1912, 720448632
  %1914 = sub i32 %1905, %1904
  %1915 = mul i32 %1913, %1904
  %1916 = sub i32 %1905, 1663118416
  %1917 = add i32 %1916, %1904
  %1918 = add i32 %1917, 1663118416
  %1919 = add nsw i32 %1905, %1904
  store i32 %1918, i32* %56, align 4
  br label %1379

; <label>:1920:                                   ; preds = %1442, %1428
  %1921 = load i32, i32* %57, align 4
  %1922 = shl i32 %1921, 1
  %1923 = add i32 %1921, -244868303
  %1924 = sub i32 %1923, 1
  %1925 = sub i32 %1924, -244868303
  %1926 = sub i32 %1921, 1
  %1927 = mul i32 %1925, 1
  %1928 = add i32 %1921, -659676249
  %1929 = sub i32 %1928, 1
  %1930 = sub i32 %1929, -659676249
  %1931 = sub i32 %1921, 1
  %1932 = mul i32 %1930, 1
  %1933 = add i32 %1921, -1315307704
  %1934 = add i32 %1933, 1
  %1935 = sub i32 %1934, -1315307704
  %1936 = add nsw i32 %1921, 1
  store i32 %1935, i32* %57, align 4
  br label %1442

; <label>:1937:                                   ; preds = %1500, %1474
  br label %1500

; <label>:1938:                                   ; preds = %1557, %1530
  call void @_ZNSt7__debug6vectorIiSaIiEED2Ev(%"class.std::__debug::vector"* %20) #3
  br label %1557
}

declare dereferenceable(280) %"class.std::basic_istream"* @_ZNSirsERi(%"class.std::basic_istream"*, i32* dereferenceable(4)) #1

; Function Attrs: noinline nounwind uwtable
define linkonce_odr void @_ZNSaIiEC2Ev(%"class.std::allocator"*) unnamed_addr #5 comdat align 2 {
  %2 = alloca %"class.std::allocator"*, align 8
  store %"class.std::allocator"* %0, %"class.std::allocator"** %2, align 8
  %3 = load %"class.std::allocator"*, %"class.std::allocator"** %2, align 8
  %4 = bitcast %"class.std::allocator"* %3 to %"class.__gnu_cxx::new_allocator"*
  call void @_ZN9__gnu_cxx13new_allocatorIiEC2Ev(%"class.__gnu_cxx::new_allocator"* %4) #3
  ret void
}

; Function Attrs: noinline uwtable
define linkonce_odr void @_ZNSt7__debug6vectorIiSaIiEEC2EmRKS1_(%"class.std::__debug::vector"*, i64, %"class.std::allocator"* dereferenceable(1)) unnamed_addr #0 comdat align 2 personality i8* bitcast (i32 (...)* @__gxx_personality_v0 to i8*) {
  %4 = alloca %"class.std::__debug::vector"*, align 8
  %5 = alloca i64, align 8
  %6 = alloca %"class.std::allocator"*, align 8
  %7 = alloca i8*
  %8 = alloca i32
  store %"class.std::__debug::vector"* %0, %"class.std::__debug::vector"** %4, align 8
  store i64 %1, i64* %5, align 8
  store %"class.std::allocator"* %2, %"class.std::allocator"** %6, align 8
  %9 = load %"class.std::__debug::vector"*, %"class.std::__debug::vector"** %4, align 8
  %10 = bitcast %"class.std::__debug::vector"* %9 to %"class.__gnu_debug::_Safe_container"*
  call void @_ZN11__gnu_debug15_Safe_containerINSt7__debug6vectorIiSaIiEEES3_NS_14_Safe_sequenceELb1EEC2Ev(%"class.__gnu_debug::_Safe_container"* %10) #3
  %11 = bitcast %"class.std::__debug::vector"* %9 to i8*
  %12 = getelementptr inbounds i8, i8* %11, i64 24
  %13 = bitcast i8* %12 to %"class.std::__cxx1998::vector"*
  %14 = load i64, i64* %5, align 8
  %15 = load %"class.std::allocator"*, %"class.std::allocator"** %6, align 8
  invoke void @_ZNSt9__cxx19986vectorIiSaIiEEC2EmRKS1_(%"class.std::__cxx1998::vector"* %13, i64 %14, %"class.std::allocator"* dereferenceable(1) %15)
          to label %16 unwind label %21

; <label>:16:                                     ; preds = %3
  %17 = bitcast %"class.std::__debug::vector"* %9 to i8*
  %18 = getelementptr inbounds i8, i8* %17, i64 48
  %19 = bitcast i8* %18 to %"class.__gnu_debug::_Safe_vector"*
  %20 = load i64, i64* %5, align 8
  call void @_ZN11__gnu_debug12_Safe_vectorINSt7__debug6vectorIiSaIiEEENSt9__cxx19986vectorIiS3_EEEC2Em(%"class.__gnu_debug::_Safe_vector"* %19, i64 %20) #3
  ret void

; <label>:21:                                     ; preds = %3
  %22 = landingpad { i8*, i32 }
          cleanup
  %23 = extractvalue { i8*, i32 } %22, 0
  store i8* %23, i8** %7, align 8
  %24 = extractvalue { i8*, i32 } %22, 1
  store i32 %24, i32* %8, align 4
  %25 = bitcast %"class.std::__debug::vector"* %9 to %"class.__gnu_debug::_Safe_container"*
  call void @_ZN11__gnu_debug15_Safe_containerINSt7__debug6vectorIiSaIiEEES3_NS_14_Safe_sequenceELb1EED2Ev(%"class.__gnu_debug::_Safe_container"* %25) #3
  br label %26

; <label>:26:                                     ; preds = %21
  %27 = load i8*, i8** %7, align 8
  %28 = load i32, i32* %8, align 4
  %29 = insertvalue { i8*, i32 } undef, i8* %27, 0
  %30 = insertvalue { i8*, i32 } %29, i32 %28, 1
  resume { i8*, i32 } %30
}

declare i32 @__gxx_personality_v0(...)

; Function Attrs: noinline nounwind uwtable
define linkonce_odr void @_ZNSaIiED2Ev(%"class.std::allocator"*) unnamed_addr #5 comdat align 2 {
  %2 = alloca %"class.std::allocator"*, align 8
  store %"class.std::allocator"* %0, %"class.std::allocator"** %2, align 8
  %3 = load %"class.std::allocator"*, %"class.std::allocator"** %2, align 8
  %4 = bitcast %"class.std::allocator"* %3 to %"class.__gnu_cxx::new_allocator"*
  call void @_ZN9__gnu_cxx13new_allocatorIiED2Ev(%"class.__gnu_cxx::new_allocator"* %4) #3
  ret void
}

; Function Attrs: noinline nounwind uwtable
define linkonce_odr dereferenceable(4) i32* @_ZNSt7__debug6vectorIiSaIiEEixEm(%"class.std::__debug::vector"*, i64) #5 comdat align 2 personality i8* bitcast (i32 (...)* @__gxx_personality_v0 to i8*) {
  %3 = alloca %"class.std::__debug::vector"*, align 8
  %4 = alloca i64, align 8
  %5 = alloca %"class.__gnu_debug::_Error_formatter", align 8
  store %"class.std::__debug::vector"* %0, %"class.std::__debug::vector"** %3, align 8
  store i64 %1, i64* %4, align 8
  %6 = load %"class.std::__debug::vector"*, %"class.std::__debug::vector"** %3, align 8
  br label %7

; <label>:7:                                      ; preds = %2
  %8 = load i32, i32* @x.25
  %9 = load i32, i32* @y.26
  %10 = sub i32 %8, -1192741059
  %11 = sub i32 %10, 1
  %12 = add i32 %11, -1192741059
  %13 = sub i32 %8, 1
  %14 = mul i32 %8, %12
  %15 = urem i32 %14, 2
  %16 = icmp eq i32 %15, 0
  %17 = icmp slt i32 %9, 10
  %18 = and i1 %16, %17
  %19 = xor i1 %16, %17
  %20 = or i1 %18, %19
  %21 = or i1 %16, %17
  br i1 %20, label %22, label %258

; <label>:22:                                     ; preds = %7, %258
  %23 = load i64, i64* %4, align 8
  %24 = bitcast %"class.std::__debug::vector"* %6 to i8*
  %25 = getelementptr inbounds i8, i8* %24, i64 24
  %26 = bitcast i8* %25 to %"class.std::__cxx1998::vector"*
  %27 = call i64 @_ZNKSt9__cxx19986vectorIiSaIiEE4sizeEv(%"class.std::__cxx1998::vector"* %26) #3
  %28 = icmp ult i64 %23, %27
  %29 = load i32, i32* @x.25
  %30 = load i32, i32* @y.26
  %31 = add i32 %29, -107370706
  %32 = sub i32 %31, 1
  %33 = sub i32 %32, -107370706
  %34 = sub i32 %29, 1
  %35 = mul i32 %29, %33
  %36 = urem i32 %35, 2
  %37 = icmp eq i32 %36, 0
  %38 = icmp slt i32 %30, 10
  %39 = xor i1 %37, true
  %40 = xor i1 %38, true
  %41 = xor i1 true, true
  %42 = and i1 %39, true
  %43 = and i1 %37, %41
  %44 = and i1 %40, true
  %45 = and i1 %38, %41
  %46 = or i1 %42, %43
  %47 = or i1 %44, %45
  %48 = xor i1 %46, %47
  %49 = or i1 %39, %40
  %50 = xor i1 %49, true
  %51 = or i1 true, %41
  %52 = and i1 %50, %51
  %53 = or i1 %48, %52
  %54 = or i1 %37, %38
  br i1 %53, label %55, label %258

; <label>:55:                                     ; preds = %22
  br i1 %28, label %208, label %56

; <label>:56:                                     ; preds = %55
  invoke void @_ZN11__gnu_debug16_Error_formatter5_M_atEPKcm(%"class.__gnu_debug::_Error_formatter"* sret %5, i8* getelementptr inbounds ([79 x i8], [79 x i8]* @.str, i32 0, i32 0), i64 409)
          to label %57 unwind label %255

; <label>:57:                                     ; preds = %56
  %58 = call dereferenceable(560) %"class.__gnu_debug::_Error_formatter"* @_ZNK11__gnu_debug16_Error_formatter10_M_messageENS_13_Debug_msg_idE(%"class.__gnu_debug::_Error_formatter"* %5, i32 5) #3
  %59 = invoke dereferenceable(560) %"class.__gnu_debug::_Error_formatter"* @_ZNK11__gnu_debug16_Error_formatter11_M_sequenceINSt7__debug6vectorIiSaIiEEEEERKS0_RKT_PKc(%"class.__gnu_debug::_Error_formatter"* %58, %"class.std::__debug::vector"* dereferenceable(56) %6, i8* getelementptr inbounds ([5 x i8], [5 x i8]* @.str.1, i32 0, i32 0))
          to label %60 unwind label %255

; <label>:60:                                     ; preds = %57
  %61 = load i64, i64* %4, align 8
  %62 = invoke dereferenceable(560) %"class.__gnu_debug::_Error_formatter"* @_ZNK11__gnu_debug16_Error_formatter10_M_integerElPKc(%"class.__gnu_debug::_Error_formatter"* %59, i64 %61, i8* getelementptr inbounds ([4 x i8], [4 x i8]* @.str.2, i32 0, i32 0))
          to label %63 unwind label %255

; <label>:63:                                     ; preds = %60
  %64 = load i32, i32* @x.25
  %65 = load i32, i32* @y.26
  %66 = add i32 %64, 2062119708
  %67 = sub i32 %66, 1
  %68 = sub i32 %67, 2062119708
  %69 = sub i32 %64, 1
  %70 = mul i32 %64, %68
  %71 = urem i32 %70, 2
  %72 = icmp eq i32 %71, 0
  %73 = icmp slt i32 %65, 10
  %74 = xor i1 %72, true
  %75 = xor i1 %73, true
  %76 = xor i1 true, true
  %77 = and i1 %74, true
  %78 = and i1 %72, %76
  %79 = and i1 %75, true
  %80 = and i1 %73, %76
  %81 = or i1 %77, %78
  %82 = or i1 %79, %80
  %83 = xor i1 %81, %82
  %84 = or i1 %74, %75
  %85 = xor i1 %84, true
  %86 = or i1 true, %76
  %87 = and i1 %85, %86
  %88 = or i1 %83, %87
  %89 = or i1 %72, %73
  br i1 %88, label %90, label %265

; <label>:90:                                     ; preds = %63, %265
  %91 = bitcast %"class.std::__debug::vector"* %6 to i8*
  %92 = getelementptr inbounds i8, i8* %91, i64 24
  %93 = bitcast i8* %92 to %"class.std::__cxx1998::vector"*
  %94 = call i64 @_ZNKSt9__cxx19986vectorIiSaIiEE4sizeEv(%"class.std::__cxx1998::vector"* %93) #3
  %95 = load i32, i32* @x.25
  %96 = load i32, i32* @y.26
  %97 = sub i32 %95, 646668666
  %98 = sub i32 %97, 1
  %99 = add i32 %98, 646668666
  %100 = sub i32 %95, 1
  %101 = mul i32 %95, %99
  %102 = urem i32 %101, 2
  %103 = icmp eq i32 %102, 0
  %104 = icmp slt i32 %96, 10
  %105 = xor i1 %103, true
  %106 = xor i1 %104, true
  %107 = xor i1 false, true
  %108 = and i1 %105, false
  %109 = and i1 %103, %107
  %110 = and i1 %106, false
  %111 = and i1 %104, %107
  %112 = or i1 %108, %109
  %113 = or i1 %110, %111
  %114 = xor i1 %112, %113
  %115 = or i1 %105, %106
  %116 = xor i1 %115, true
  %117 = or i1 false, %107
  %118 = and i1 %116, %117
  %119 = or i1 %114, %118
  %120 = or i1 %103, %104
  br i1 %119, label %121, label %265

; <label>:121:                                    ; preds = %90
  %122 = invoke dereferenceable(560) %"class.__gnu_debug::_Error_formatter"* @_ZNK11__gnu_debug16_Error_formatter10_M_integerElPKc(%"class.__gnu_debug::_Error_formatter"* %62, i64 %94, i8* getelementptr inbounds ([5 x i8], [5 x i8]* @.str.3, i32 0, i32 0))
          to label %123 unwind label %255

; <label>:123:                                    ; preds = %121
  %124 = load i32, i32* @x.25
  %125 = load i32, i32* @y.26
  %126 = sub i32 %124, -62832949
  %127 = sub i32 %126, 1
  %128 = add i32 %127, -62832949
  %129 = sub i32 %124, 1
  %130 = mul i32 %124, %128
  %131 = urem i32 %130, 2
  %132 = icmp eq i32 %131, 0
  %133 = icmp slt i32 %125, 10
  %134 = xor i1 %132, true
  %135 = xor i1 %133, true
  %136 = xor i1 false, true
  %137 = and i1 %134, false
  %138 = and i1 %132, %136
  %139 = and i1 %135, false
  %140 = and i1 %133, %136
  %141 = or i1 %137, %138
  %142 = or i1 %139, %140
  %143 = xor i1 %141, %142
  %144 = or i1 %134, %135
  %145 = xor i1 %144, true
  %146 = or i1 false, %136
  %147 = and i1 %145, %146
  %148 = or i1 %143, %147
  %149 = or i1 %132, %133
  br i1 %148, label %150, label %270

; <label>:150:                                    ; preds = %123, %270
  %151 = load i32, i32* @x.25
  %152 = load i32, i32* @y.26
  %153 = sub i32 0, 1
  %154 = add i32 %151, %153
  %155 = sub i32 %151, 1
  %156 = mul i32 %151, %154
  %157 = urem i32 %156, 2
  %158 = icmp eq i32 %157, 0
  %159 = icmp slt i32 %152, 10
  %160 = xor i1 %158, true
  %161 = xor i1 %159, true
  %162 = xor i1 true, true
  %163 = and i1 %160, true
  %164 = and i1 %158, %162
  %165 = and i1 %161, true
  %166 = and i1 %159, %162
  %167 = or i1 %163, %164
  %168 = or i1 %165, %166
  %169 = xor i1 %167, %168
  %170 = or i1 %160, %161
  %171 = xor i1 %170, true
  %172 = or i1 true, %162
  %173 = and i1 %171, %172
  %174 = or i1 %169, %173
  %175 = or i1 %158, %159
  br i1 %174, label %176, label %270

; <label>:176:                                    ; preds = %150
  invoke void @_ZNK11__gnu_debug16_Error_formatter8_M_errorEv(%"class.__gnu_debug::_Error_formatter"* %122) #14
          to label %177 unwind label %255

; <label>:177:                                    ; preds = %176
  %178 = load i32, i32* @x.25
  %179 = load i32, i32* @y.26
  %180 = sub i32 %178, -1617795088
  %181 = sub i32 %180, 1
  %182 = add i32 %181, -1617795088
  %183 = sub i32 %178, 1
  %184 = mul i32 %178, %182
  %185 = urem i32 %184, 2
  %186 = icmp eq i32 %185, 0
  %187 = icmp slt i32 %179, 10
  %188 = and i1 %186, %187
  %189 = xor i1 %186, %187
  %190 = or i1 %188, %189
  %191 = or i1 %186, %187
  br i1 %190, label %192, label %271

; <label>:192:                                    ; preds = %177, %271
  %193 = load i32, i32* @x.25
  %194 = load i32, i32* @y.26
  %195 = add i32 %193, -1967584730
  %196 = sub i32 %195, 1
  %197 = sub i32 %196, -1967584730
  %198 = sub i32 %193, 1
  %199 = mul i32 %193, %197
  %200 = urem i32 %199, 2
  %201 = icmp eq i32 %200, 0
  %202 = icmp slt i32 %194, 10
  %203 = and i1 %201, %202
  %204 = xor i1 %201, %202
  %205 = or i1 %203, %204
  %206 = or i1 %201, %202
  br i1 %205, label %207, label %271

; <label>:207:                                    ; preds = %192
  unreachable

; <label>:208:                                    ; preds = %55
  %209 = load i32, i32* @x.25
  %210 = load i32, i32* @y.26
  %211 = add i32 %209, -779351767
  %212 = sub i32 %211, 1
  %213 = sub i32 %212, -779351767
  %214 = sub i32 %209, 1
  %215 = mul i32 %209, %213
  %216 = urem i32 %215, 2
  %217 = icmp eq i32 %216, 0
  %218 = icmp slt i32 %210, 10
  %219 = and i1 %217, %218
  %220 = xor i1 %217, %218
  %221 = or i1 %219, %220
  %222 = or i1 %217, %218
  br i1 %221, label %223, label %272

; <label>:223:                                    ; preds = %208, %272
  %224 = load i32, i32* @x.25
  %225 = load i32, i32* @y.26
  %226 = sub i32 0, 1
  %227 = add i32 %224, %226
  %228 = sub i32 %224, 1
  %229 = mul i32 %224, %227
  %230 = urem i32 %229, 2
  %231 = icmp eq i32 %230, 0
  %232 = icmp slt i32 %225, 10
  %233 = xor i1 %231, true
  %234 = xor i1 %232, true
  %235 = xor i1 false, true
  %236 = and i1 %233, false
  %237 = and i1 %231, %235
  %238 = and i1 %234, false
  %239 = and i1 %232, %235
  %240 = or i1 %236, %237
  %241 = or i1 %238, %239
  %242 = xor i1 %240, %241
  %243 = or i1 %233, %234
  %244 = xor i1 %243, true
  %245 = or i1 false, %235
  %246 = and i1 %244, %245
  %247 = or i1 %242, %246
  %248 = or i1 %231, %232
  br i1 %247, label %249, label %272

; <label>:249:                                    ; preds = %223
  br label %250

; <label>:250:                                    ; preds = %249
  br label %251

; <label>:251:                                    ; preds = %250
  %252 = call dereferenceable(24) %"class.std::__cxx1998::vector"* @_ZNSt7__debug6vectorIiSaIiEE7_M_baseEv(%"class.std::__debug::vector"* %6) #3
  %253 = load i64, i64* %4, align 8
  %254 = call dereferenceable(4) i32* @_ZNSt9__cxx19986vectorIiSaIiEEixEm(%"class.std::__cxx1998::vector"* %252, i64 %253) #3
  ret i32* %254

; <label>:255:                                    ; preds = %176, %121, %60, %57, %56
  %256 = landingpad { i8*, i32 }
          catch i8* null
  %257 = extractvalue { i8*, i32 } %256, 0
  call void @__clang_call_terminate(i8* %257) #13
  unreachable

; <label>:258:                                    ; preds = %22, %7
  %259 = load i64, i64* %4, align 8
  %260 = bitcast %"class.std::__debug::vector"* %6 to i8*
  %261 = getelementptr inbounds i8, i8* %260, i64 24
  %262 = bitcast i8* %261 to %"class.std::__cxx1998::vector"*
  %263 = call i64 @_ZNKSt9__cxx19986vectorIiSaIiEE4sizeEv(%"class.std::__cxx1998::vector"* %262) #3
  %264 = icmp ult i64 %259, %263
  br label %22

; <label>:265:                                    ; preds = %90, %63
  %266 = bitcast %"class.std::__debug::vector"* %6 to i8*
  %267 = getelementptr inbounds i8, i8* %266, i64 24
  %268 = bitcast i8* %267 to %"class.std::__cxx1998::vector"*
  %269 = call i64 @_ZNKSt9__cxx19986vectorIiSaIiEE4sizeEv(%"class.std::__cxx1998::vector"* %268) #3
  br label %90

; <label>:270:                                    ; preds = %150, %123
  br label %150

; <label>:271:                                    ; preds = %192, %177
  br label %192

; <label>:272:                                    ; preds = %223, %208
  br label %223
}

; Function Attrs: noinline uwtable
define linkonce_odr void @_ZSt4sortIN11__gnu_debug14_Safe_iteratorIN9__gnu_cxx17__normal_iteratorIPiNSt9__cxx19986vectorIiSaIiEEEEENSt7__debug6vectorIiS7_EEEEEvT_SE_(%"class.__gnu_debug::_Safe_iterator"*, %"class.__gnu_debug::_Safe_iterator"*) #0 comdat personality i8* bitcast (i32 (...)* @__gxx_personality_v0 to i8*) {
  %3 = alloca %"class.__gnu_debug::_Error_formatter", align 8
  %4 = alloca %"class.__gnu_debug::_Safe_iterator", align 8
  %5 = alloca %"class.__gnu_debug::_Safe_iterator", align 8
  %6 = alloca %"struct.__gnu_cxx::__ops::_Iter_less_iter", align 1
  %7 = alloca i8*
  %8 = alloca i32
  %9 = alloca %"struct.__gnu_cxx::__ops::_Iter_less_iter", align 1
  br label %10

; <label>:10:                                     ; preds = %2
  %11 = call zeroext i1 @_ZN11__gnu_debug13__valid_rangeIN9__gnu_cxx17__normal_iteratorIPiNSt9__cxx19986vectorIiSaIiEEEEENSt7__debug6vectorIiS6_EEEEbRKNS_14_Safe_iteratorIT_T0_EESH_(%"class.__gnu_debug::_Safe_iterator"* dereferenceable(40) %0, %"class.__gnu_debug::_Safe_iterator"* dereferenceable(40) %1)
  br i1 %11, label %16, label %12

; <label>:12:                                     ; preds = %10
  call void @_ZN11__gnu_debug16_Error_formatter5_M_atEPKcm(%"class.__gnu_debug::_Error_formatter"* sret %3, i8* getelementptr inbounds ([82 x i8], [82 x i8]* @.str.5, i32 0, i32 0), i64 4696)
  %13 = call dereferenceable(560) %"class.__gnu_debug::_Error_formatter"* @_ZNK11__gnu_debug16_Error_formatter10_M_messageENS_13_Debug_msg_idE(%"class.__gnu_debug::_Error_formatter"* %3, i32 0) #3
  %14 = call dereferenceable(560) %"class.__gnu_debug::_Error_formatter"* @_ZNK11__gnu_debug16_Error_formatter11_M_iteratorINS_14_Safe_iteratorIN9__gnu_cxx17__normal_iteratorIPiNSt9__cxx19986vectorIiSaIiEEEEENSt7__debug6vectorIiS8_EEEEEERKS0_RKT_PKc(%"class.__gnu_debug::_Error_formatter"* %13, %"class.__gnu_debug::_Safe_iterator"* dereferenceable(40) %0, i8* getelementptr inbounds ([8 x i8], [8 x i8]* @.str.6, i32 0, i32 0))
  %15 = call dereferenceable(560) %"class.__gnu_debug::_Error_formatter"* @_ZNK11__gnu_debug16_Error_formatter11_M_iteratorINS_14_Safe_iteratorIN9__gnu_cxx17__normal_iteratorIPiNSt9__cxx19986vectorIiSaIiEEEEENSt7__debug6vectorIiS8_EEEEEERKS0_RKT_PKc(%"class.__gnu_debug::_Error_formatter"* %14, %"class.__gnu_debug::_Safe_iterator"* dereferenceable(40) %1, i8* getelementptr inbounds ([7 x i8], [7 x i8]* @.str.7, i32 0, i32 0))
  call void @_ZNK11__gnu_debug16_Error_formatter8_M_errorEv(%"class.__gnu_debug::_Error_formatter"* %15) #14
  unreachable

; <label>:16:                                     ; preds = %10
  br label %17

; <label>:17:                                     ; preds = %16
  call void @_ZN11__gnu_debug14_Safe_iteratorIN9__gnu_cxx17__normal_iteratorIPiNSt9__cxx19986vectorIiSaIiEEEEENSt7__debug6vectorIiS6_EEEC2ERKSC_(%"class.__gnu_debug::_Safe_iterator"* %4, %"class.__gnu_debug::_Safe_iterator"* dereferenceable(40) %0) #3
  call void @_ZN11__gnu_debug14_Safe_iteratorIN9__gnu_cxx17__normal_iteratorIPiNSt9__cxx19986vectorIiSaIiEEEEENSt7__debug6vectorIiS6_EEEC2ERKSC_(%"class.__gnu_debug::_Safe_iterator"* %5, %"class.__gnu_debug::_Safe_iterator"* dereferenceable(40) %1) #3
  invoke void @_ZN9__gnu_cxx5__ops16__iter_less_iterEv()
          to label %18 unwind label %20

; <label>:18:                                     ; preds = %17
  invoke void @_ZSt6__sortIN11__gnu_debug14_Safe_iteratorIN9__gnu_cxx17__normal_iteratorIPiNSt9__cxx19986vectorIiSaIiEEEEENSt7__debug6vectorIiS7_EEEENS2_5__ops15_Iter_less_iterEEvT_SG_T0_(%"class.__gnu_debug::_Safe_iterator"* %4, %"class.__gnu_debug::_Safe_iterator"* %5)
          to label %19 unwind label %20

; <label>:19:                                     ; preds = %18
  call void @_ZN11__gnu_debug14_Safe_iteratorIN9__gnu_cxx17__normal_iteratorIPiNSt9__cxx19986vectorIiSaIiEEEEENSt7__debug6vectorIiS6_EEED2Ev(%"class.__gnu_debug::_Safe_iterator"* %5) #3
  call void @_ZN11__gnu_debug14_Safe_iteratorIN9__gnu_cxx17__normal_iteratorIPiNSt9__cxx19986vectorIiSaIiEEEEENSt7__debug6vectorIiS6_EEED2Ev(%"class.__gnu_debug::_Safe_iterator"* %4) #3
  ret void

; <label>:20:                                     ; preds = %18, %17
  %21 = landingpad { i8*, i32 }
          cleanup
  %22 = extractvalue { i8*, i32 } %21, 0
  store i8* %22, i8** %7, align 8
  %23 = extractvalue { i8*, i32 } %21, 1
  store i32 %23, i32* %8, align 4
  call void @_ZN11__gnu_debug14_Safe_iteratorIN9__gnu_cxx17__normal_iteratorIPiNSt9__cxx19986vectorIiSaIiEEEEENSt7__debug6vectorIiS6_EEED2Ev(%"class.__gnu_debug::_Safe_iterator"* %5) #3
  call void @_ZN11__gnu_debug14_Safe_iteratorIN9__gnu_cxx17__normal_iteratorIPiNSt9__cxx19986vectorIiSaIiEEEEENSt7__debug6vectorIiS6_EEED2Ev(%"class.__gnu_debug::_Safe_iterator"* %4) #3
  br label %24

; <label>:24:                                     ; preds = %20
  %25 = load i8*, i8** %7, align 8
  %26 = load i32, i32* %8, align 4
  %27 = insertvalue { i8*, i32 } undef, i8* %25, 0
  %28 = insertvalue { i8*, i32 } %27, i32 %26, 1
  resume { i8*, i32 } %28
}

; Function Attrs: noinline nounwind uwtable
define linkonce_odr void @_ZNSt7__debug6vectorIiSaIiEE5beginEv(%"class.__gnu_debug::_Safe_iterator"* noalias sret, %"class.std::__debug::vector"*) #5 comdat align 2 {
  %3 = alloca i1
  %4 = alloca i1
  %5 = load i32, i32* @x.29
  %6 = load i32, i32* @y.30
  %7 = sub i32 %5, 1985031194
  %8 = sub i32 %7, 1
  %9 = add i32 %8, 1985031194
  %10 = sub i32 %5, 1
  %11 = mul i32 %5, %9
  %12 = urem i32 %11, 2
  %13 = icmp eq i32 %12, 0
  store i1 %13, i1* %4
  %14 = icmp slt i32 %6, 10
  store i1 %14, i1* %3
  %15 = alloca i32
  store i32 1998649546, i32* %15
  br label %16

; <label>:16:                                     ; preds = %2, %75
  %17 = load i32, i32* %15
  switch i32 %17, label %18 [
    i32 1998649546, label %19
    i32 -1715966237, label %27
    i32 859905793, label %64
    i32 1224371476, label %65
  ]

; <label>:18:                                     ; preds = %16
  br label %75

; <label>:19:                                     ; preds = %16
  %20 = load volatile i1, i1* %4
  %21 = load volatile i1, i1* %3
  %22 = and i1 %20, %21
  %23 = xor i1 %20, %21
  %24 = or i1 %22, %23
  %25 = or i1 %20, %21
  %26 = select i1 %24, i32 -1715966237, i32 1224371476
  store i32 %26, i32* %15
  br label %75

; <label>:27:                                     ; preds = %16
  %28 = alloca %"class.std::__debug::vector"*, align 8
  %29 = alloca %"class.__gnu_cxx::__normal_iterator", align 8
  store %"class.std::__debug::vector"* %1, %"class.std::__debug::vector"** %28, align 8
  %30 = load %"class.std::__debug::vector"*, %"class.std::__debug::vector"** %28, align 8
  %31 = bitcast %"class.std::__debug::vector"* %30 to i8*
  %32 = getelementptr inbounds i8, i8* %31, i64 24
  %33 = bitcast i8* %32 to %"class.std::__cxx1998::vector"*
  %34 = call i32* @_ZNSt9__cxx19986vectorIiSaIiEE5beginEv(%"class.std::__cxx1998::vector"* %33) #3
  %35 = getelementptr inbounds %"class.__gnu_cxx::__normal_iterator", %"class.__gnu_cxx::__normal_iterator"* %29, i32 0, i32 0
  store i32* %34, i32** %35, align 8
  %36 = bitcast %"class.std::__debug::vector"* %30 to %"class.__gnu_debug::_Safe_sequence_base"*
  call void @_ZN11__gnu_debug14_Safe_iteratorIN9__gnu_cxx17__normal_iteratorIPiNSt9__cxx19986vectorIiSaIiEEEEENSt7__debug6vectorIiS6_EEEC2ERKS8_PKNS_19_Safe_sequence_baseE(%"class.__gnu_debug::_Safe_iterator"* %0, %"class.__gnu_cxx::__normal_iterator"* dereferenceable(8) %29, %"class.__gnu_debug::_Safe_sequence_base"* %36) #3
  %37 = load i32, i32* @x.29
  %38 = load i32, i32* @y.30
  %39 = sub i32 %37, 782670425
  %40 = sub i32 %39, 1
  %41 = add i32 %40, 782670425
  %42 = sub i32 %37, 1
  %43 = mul i32 %37, %41
  %44 = urem i32 %43, 2
  %45 = icmp eq i32 %44, 0
  %46 = icmp slt i32 %38, 10
  %47 = xor i1 %45, true
  %48 = xor i1 %46, true
  %49 = xor i1 false, true
  %50 = and i1 %47, false
  %51 = and i1 %45, %49
  %52 = and i1 %48, false
  %53 = and i1 %46, %49
  %54 = or i1 %50, %51
  %55 = or i1 %52, %53
  %56 = xor i1 %54, %55
  %57 = or i1 %47, %48
  %58 = xor i1 %57, true
  %59 = or i1 false, %49
  %60 = and i1 %58, %59
  %61 = or i1 %56, %60
  %62 = or i1 %45, %46
  %63 = select i1 %61, i32 859905793, i32 1224371476
  store i32 %63, i32* %15
  br label %75

; <label>:64:                                     ; preds = %16
  ret void

; <label>:65:                                     ; preds = %16
  %66 = alloca %"class.std::__debug::vector"*, align 8
  %67 = alloca %"class.__gnu_cxx::__normal_iterator", align 8
  store %"class.std::__debug::vector"* %1, %"class.std::__debug::vector"** %66, align 8
  %68 = load %"class.std::__debug::vector"*, %"class.std::__debug::vector"** %66, align 8
  %69 = bitcast %"class.std::__debug::vector"* %68 to i8*
  %70 = getelementptr inbounds i8, i8* %69, i64 24
  %71 = bitcast i8* %70 to %"class.std::__cxx1998::vector"*
  %72 = call i32* @_ZNSt9__cxx19986vectorIiSaIiEE5beginEv(%"class.std::__cxx1998::vector"* %71) #3
  %73 = getelementptr inbounds %"class.__gnu_cxx::__normal_iterator", %"class.__gnu_cxx::__normal_iterator"* %67, i32 0, i32 0
  store i32* %72, i32** %73, align 8
  %74 = bitcast %"class.std::__debug::vector"* %68 to %"class.__gnu_debug::_Safe_sequence_base"*
  call void @_ZN11__gnu_debug14_Safe_iteratorIN9__gnu_cxx17__normal_iteratorIPiNSt9__cxx19986vectorIiSaIiEEEEENSt7__debug6vectorIiS6_EEEC2ERKS8_PKNS_19_Safe_sequence_baseE(%"class.__gnu_debug::_Safe_iterator"* %0, %"class.__gnu_cxx::__normal_iterator"* dereferenceable(8) %67, %"class.__gnu_debug::_Safe_sequence_base"* %74) #3
  store i32 -1715966237, i32* %15
  br label %75

; <label>:75:                                     ; preds = %65, %27, %19, %18
  br label %16
}

; Function Attrs: noinline nounwind uwtable
define linkonce_odr void @_ZNSt7__debug6vectorIiSaIiEE3endEv(%"class.__gnu_debug::_Safe_iterator"* noalias sret, %"class.std::__debug::vector"*) #5 comdat align 2 {
  %3 = alloca %"class.std::__debug::vector"*, align 8
  %4 = alloca %"class.__gnu_cxx::__normal_iterator", align 8
  store %"class.std::__debug::vector"* %1, %"class.std::__debug::vector"** %3, align 8
  %5 = load %"class.std::__debug::vector"*, %"class.std::__debug::vector"** %3, align 8
  %6 = bitcast %"class.std::__debug::vector"* %5 to i8*
  %7 = getelementptr inbounds i8, i8* %6, i64 24
  %8 = bitcast i8* %7 to %"class.std::__cxx1998::vector"*
  %9 = call i32* @_ZNSt9__cxx19986vectorIiSaIiEE3endEv(%"class.std::__cxx1998::vector"* %8) #3
  %10 = getelementptr inbounds %"class.__gnu_cxx::__normal_iterator", %"class.__gnu_cxx::__normal_iterator"* %4, i32 0, i32 0
  store i32* %9, i32** %10, align 8
  %11 = bitcast %"class.std::__debug::vector"* %5 to %"class.__gnu_debug::_Safe_sequence_base"*
  call void @_ZN11__gnu_debug14_Safe_iteratorIN9__gnu_cxx17__normal_iteratorIPiNSt9__cxx19986vectorIiSaIiEEEEENSt7__debug6vectorIiS6_EEEC2ERKS8_PKNS_19_Safe_sequence_baseE(%"class.__gnu_debug::_Safe_iterator"* %0, %"class.__gnu_cxx::__normal_iterator"* dereferenceable(8) %4, %"class.__gnu_debug::_Safe_sequence_base"* %11) #3
  ret void
}

; Function Attrs: noinline nounwind uwtable
define linkonce_odr void @_ZN11__gnu_debug14_Safe_iteratorIN9__gnu_cxx17__normal_iteratorIPiNSt9__cxx19986vectorIiSaIiEEEEENSt7__debug6vectorIiS6_EEED2Ev(%"class.__gnu_debug::_Safe_iterator"*) unnamed_addr #5 comdat align 2 {
  %2 = alloca %"class.__gnu_debug::_Safe_iterator"*, align 8
  store %"class.__gnu_debug::_Safe_iterator"* %0, %"class.__gnu_debug::_Safe_iterator"** %2, align 8
  %3 = load %"class.__gnu_debug::_Safe_iterator"*, %"class.__gnu_debug::_Safe_iterator"** %2, align 8
  %4 = bitcast %"class.__gnu_debug::_Safe_iterator"* %3 to i8*
  %5 = getelementptr inbounds i8, i8* %4, i64 8
  %6 = bitcast i8* %5 to %"class.__gnu_debug::_Safe_iterator_base"*
  call void @_ZN11__gnu_debug19_Safe_iterator_baseD2Ev(%"class.__gnu_debug::_Safe_iterator_base"* %6) #3
  ret void
}

; Function Attrs: noinline nounwind uwtable
define linkonce_odr void @_ZNSaINSt7__debug6vectorISt4pairIiiESaIS2_EEEEC2Ev(%"class.std::allocator.7"*) unnamed_addr #5 comdat align 2 {
  %2 = alloca %"class.std::allocator.7"*, align 8
  store %"class.std::allocator.7"* %0, %"class.std::allocator.7"** %2, align 8
  %3 = load %"class.std::allocator.7"*, %"class.std::allocator.7"** %2, align 8
  %4 = bitcast %"class.std::allocator.7"* %3 to %"class.__gnu_cxx::new_allocator.8"*
  call void @_ZN9__gnu_cxx13new_allocatorINSt7__debug6vectorISt4pairIiiESaIS4_EEEEC2Ev(%"class.__gnu_cxx::new_allocator.8"* %4) #3
  ret void
}

; Function Attrs: noinline uwtable
define linkonce_odr void @_ZNSt7__debug6vectorINS0_ISt4pairIiiESaIS2_EEESaIS4_EEC2EmRKS5_(%"class.std::__debug::vector.0"*, i64, %"class.std::allocator.7"* dereferenceable(1)) unnamed_addr #0 comdat align 2 personality i8* bitcast (i32 (...)* @__gxx_personality_v0 to i8*) {
  %4 = alloca %"class.std::__debug::vector.0"*, align 8
  %5 = alloca i64, align 8
  %6 = alloca %"class.std::allocator.7"*, align 8
  %7 = alloca i8*
  %8 = alloca i32
  store %"class.std::__debug::vector.0"* %0, %"class.std::__debug::vector.0"** %4, align 8
  store i64 %1, i64* %5, align 8
  store %"class.std::allocator.7"* %2, %"class.std::allocator.7"** %6, align 8
  %9 = load %"class.std::__debug::vector.0"*, %"class.std::__debug::vector.0"** %4, align 8
  %10 = bitcast %"class.std::__debug::vector.0"* %9 to %"class.__gnu_debug::_Safe_container.1"*
  call void @_ZN11__gnu_debug15_Safe_containerINSt7__debug6vectorINS2_ISt4pairIiiESaIS4_EEESaIS6_EEES7_NS_14_Safe_sequenceELb1EEC2Ev(%"class.__gnu_debug::_Safe_container.1"* %10) #3
  %11 = bitcast %"class.std::__debug::vector.0"* %9 to i8*
  %12 = getelementptr inbounds i8, i8* %11, i64 24
  %13 = bitcast i8* %12 to %"class.std::__cxx1998::vector.5"*
  %14 = load i64, i64* %5, align 8
  %15 = load %"class.std::allocator.7"*, %"class.std::allocator.7"** %6, align 8
  invoke void @_ZNSt9__cxx19986vectorINSt7__debug6vectorISt4pairIiiESaIS4_EEESaIS6_EEC2EmRKS7_(%"class.std::__cxx1998::vector.5"* %13, i64 %14, %"class.std::allocator.7"* dereferenceable(1) %15)
          to label %16 unwind label %21

; <label>:16:                                     ; preds = %3
  %17 = bitcast %"class.std::__debug::vector.0"* %9 to i8*
  %18 = getelementptr inbounds i8, i8* %17, i64 48
  %19 = bitcast i8* %18 to %"class.__gnu_debug::_Safe_vector.21"*
  %20 = load i64, i64* %5, align 8
  call void @_ZN11__gnu_debug12_Safe_vectorINSt7__debug6vectorINS2_ISt4pairIiiESaIS4_EEESaIS6_EEENSt9__cxx19986vectorIS6_S7_EEEC2Em(%"class.__gnu_debug::_Safe_vector.21"* %19, i64 %20) #3
  ret void

; <label>:21:                                     ; preds = %3
  %22 = landingpad { i8*, i32 }
          cleanup
  %23 = extractvalue { i8*, i32 } %22, 0
  store i8* %23, i8** %7, align 8
  %24 = extractvalue { i8*, i32 } %22, 1
  store i32 %24, i32* %8, align 4
  %25 = bitcast %"class.std::__debug::vector.0"* %9 to %"class.__gnu_debug::_Safe_container.1"*
  call void @_ZN11__gnu_debug15_Safe_containerINSt7__debug6vectorINS2_ISt4pairIiiESaIS4_EEESaIS6_EEES7_NS_14_Safe_sequenceELb1EED2Ev(%"class.__gnu_debug::_Safe_container.1"* %25) #3
  br label %26

; <label>:26:                                     ; preds = %21
  %27 = load i32, i32* @x.37
  %28 = load i32, i32* @y.38
  %29 = sub i32 0, 1
  %30 = add i32 %27, %29
  %31 = sub i32 %27, 1
  %32 = mul i32 %27, %30
  %33 = urem i32 %32, 2
  %34 = icmp eq i32 %33, 0
  %35 = icmp slt i32 %28, 10
  %36 = xor i1 %34, true
  %37 = xor i1 %35, true
  %38 = xor i1 false, true
  %39 = and i1 %36, false
  %40 = and i1 %34, %38
  %41 = and i1 %37, false
  %42 = and i1 %35, %38
  %43 = or i1 %39, %40
  %44 = or i1 %41, %42
  %45 = xor i1 %43, %44
  %46 = or i1 %36, %37
  %47 = xor i1 %46, true
  %48 = or i1 false, %38
  %49 = and i1 %47, %48
  %50 = or i1 %45, %49
  %51 = or i1 %34, %35
  br i1 %50, label %52, label %84

; <label>:52:                                     ; preds = %26, %84
  %53 = load i8*, i8** %7, align 8
  %54 = load i32, i32* %8, align 4
  %55 = insertvalue { i8*, i32 } undef, i8* %53, 0
  %56 = insertvalue { i8*, i32 } %55, i32 %54, 1
  %57 = load i32, i32* @x.37
  %58 = load i32, i32* @y.38
  %59 = add i32 %57, -357413817
  %60 = sub i32 %59, 1
  %61 = sub i32 %60, -357413817
  %62 = sub i32 %57, 1
  %63 = mul i32 %57, %61
  %64 = urem i32 %63, 2
  %65 = icmp eq i32 %64, 0
  %66 = icmp slt i32 %58, 10
  %67 = xor i1 %65, true
  %68 = xor i1 %66, true
  %69 = xor i1 true, true
  %70 = and i1 %67, true
  %71 = and i1 %65, %69
  %72 = and i1 %68, true
  %73 = and i1 %66, %69
  %74 = or i1 %70, %71
  %75 = or i1 %72, %73
  %76 = xor i1 %74, %75
  %77 = or i1 %67, %68
  %78 = xor i1 %77, true
  %79 = or i1 true, %69
  %80 = and i1 %78, %79
  %81 = or i1 %76, %80
  %82 = or i1 %65, %66
  br i1 %81, label %83, label %84

; <label>:83:                                     ; preds = %52
  resume { i8*, i32 } %56

; <label>:84:                                     ; preds = %52, %26
  %85 = load i8*, i8** %7, align 8
  %86 = load i32, i32* %8, align 4
  %87 = insertvalue { i8*, i32 } undef, i8* %85, 0
  %88 = insertvalue { i8*, i32 } %87, i32 %86, 1
  br label %52
}

; Function Attrs: noinline nounwind uwtable
define linkonce_odr void @_ZNSaINSt7__debug6vectorISt4pairIiiESaIS2_EEEED2Ev(%"class.std::allocator.7"*) unnamed_addr #5 comdat align 2 {
  %2 = alloca %"class.std::allocator.7"*, align 8
  store %"class.std::allocator.7"* %0, %"class.std::allocator.7"** %2, align 8
  %3 = load %"class.std::allocator.7"*, %"class.std::allocator.7"** %2, align 8
  %4 = bitcast %"class.std::allocator.7"* %3 to %"class.__gnu_cxx::new_allocator.8"*
  call void @_ZN9__gnu_cxx13new_allocatorINSt7__debug6vectorISt4pairIiiESaIS4_EEEED2Ev(%"class.__gnu_cxx::new_allocator.8"* %4) #3
  ret void
}

; Function Attrs: noinline nounwind uwtable
define linkonce_odr dereferenceable(56) %"class.std::__debug::vector.10"* @_ZNSt7__debug6vectorINS0_ISt4pairIiiESaIS2_EEESaIS4_EEixEm(%"class.std::__debug::vector.0"*, i64) #5 comdat align 2 personality i8* bitcast (i32 (...)* @__gxx_personality_v0 to i8*) {
  %3 = alloca %"class.std::__debug::vector.0"*, align 8
  %4 = alloca i64, align 8
  %5 = alloca %"class.__gnu_debug::_Error_formatter", align 8
  store %"class.std::__debug::vector.0"* %0, %"class.std::__debug::vector.0"** %3, align 8
  store i64 %1, i64* %4, align 8
  %6 = load %"class.std::__debug::vector.0"*, %"class.std::__debug::vector.0"** %3, align 8
  br label %7

; <label>:7:                                      ; preds = %2
  %8 = load i32, i32* @x.41
  %9 = load i32, i32* @y.42
  %10 = sub i32 0, 1
  %11 = add i32 %8, %10
  %12 = sub i32 %8, 1
  %13 = mul i32 %8, %11
  %14 = urem i32 %13, 2
  %15 = icmp eq i32 %14, 0
  %16 = icmp slt i32 %9, 10
  %17 = and i1 %15, %16
  %18 = xor i1 %15, %16
  %19 = or i1 %17, %18
  %20 = or i1 %15, %16
  br i1 %19, label %21, label %216

; <label>:21:                                     ; preds = %7, %216
  %22 = load i64, i64* %4, align 8
  %23 = bitcast %"class.std::__debug::vector.0"* %6 to i8*
  %24 = getelementptr inbounds i8, i8* %23, i64 24
  %25 = bitcast i8* %24 to %"class.std::__cxx1998::vector.5"*
  %26 = call i64 @_ZNKSt9__cxx19986vectorINSt7__debug6vectorISt4pairIiiESaIS4_EEESaIS6_EE4sizeEv(%"class.std::__cxx1998::vector.5"* %25) #3
  %27 = icmp ult i64 %22, %26
  %28 = load i32, i32* @x.41
  %29 = load i32, i32* @y.42
  %30 = sub i32 %28, 442305163
  %31 = sub i32 %30, 1
  %32 = add i32 %31, 442305163
  %33 = sub i32 %28, 1
  %34 = mul i32 %28, %32
  %35 = urem i32 %34, 2
  %36 = icmp eq i32 %35, 0
  %37 = icmp slt i32 %29, 10
  %38 = and i1 %36, %37
  %39 = xor i1 %36, %37
  %40 = or i1 %38, %39
  %41 = or i1 %36, %37
  br i1 %40, label %42, label %216

; <label>:42:                                     ; preds = %21
  br i1 %27, label %153, label %43

; <label>:43:                                     ; preds = %42
  %44 = load i32, i32* @x.41
  %45 = load i32, i32* @y.42
  %46 = sub i32 %44, -1231591823
  %47 = sub i32 %46, 1
  %48 = add i32 %47, -1231591823
  %49 = sub i32 %44, 1
  %50 = mul i32 %44, %48
  %51 = urem i32 %50, 2
  %52 = icmp eq i32 %51, 0
  %53 = icmp slt i32 %45, 10
  %54 = xor i1 %52, true
  %55 = xor i1 %53, true
  %56 = xor i1 true, true
  %57 = and i1 %54, true
  %58 = and i1 %52, %56
  %59 = and i1 %55, true
  %60 = and i1 %53, %56
  %61 = or i1 %57, %58
  %62 = or i1 %59, %60
  %63 = xor i1 %61, %62
  %64 = or i1 %54, %55
  %65 = xor i1 %64, true
  %66 = or i1 true, %56
  %67 = and i1 %65, %66
  %68 = or i1 %63, %67
  %69 = or i1 %52, %53
  br i1 %68, label %70, label %223

; <label>:70:                                     ; preds = %43, %223
  %71 = load i32, i32* @x.41
  %72 = load i32, i32* @y.42
  %73 = sub i32 %71, 1319902093
  %74 = sub i32 %73, 1
  %75 = add i32 %74, 1319902093
  %76 = sub i32 %71, 1
  %77 = mul i32 %71, %75
  %78 = urem i32 %77, 2
  %79 = icmp eq i32 %78, 0
  %80 = icmp slt i32 %72, 10
  %81 = and i1 %79, %80
  %82 = xor i1 %79, %80
  %83 = or i1 %81, %82
  %84 = or i1 %79, %80
  br i1 %83, label %85, label %223

; <label>:85:                                     ; preds = %70
  invoke void @_ZN11__gnu_debug16_Error_formatter5_M_atEPKcm(%"class.__gnu_debug::_Error_formatter"* sret %5, i8* getelementptr inbounds ([79 x i8], [79 x i8]* @.str, i32 0, i32 0), i64 409)
          to label %86 unwind label %213

; <label>:86:                                     ; preds = %85
  %87 = load i32, i32* @x.41
  %88 = load i32, i32* @y.42
  %89 = sub i32 0, 1
  %90 = add i32 %87, %89
  %91 = sub i32 %87, 1
  %92 = mul i32 %87, %90
  %93 = urem i32 %92, 2
  %94 = icmp eq i32 %93, 0
  %95 = icmp slt i32 %88, 10
  %96 = xor i1 %94, true
  %97 = xor i1 %95, true
  %98 = xor i1 false, true
  %99 = and i1 %96, false
  %100 = and i1 %94, %98
  %101 = and i1 %97, false
  %102 = and i1 %95, %98
  %103 = or i1 %99, %100
  %104 = or i1 %101, %102
  %105 = xor i1 %103, %104
  %106 = or i1 %96, %97
  %107 = xor i1 %106, true
  %108 = or i1 false, %98
  %109 = and i1 %107, %108
  %110 = or i1 %105, %109
  %111 = or i1 %94, %95
  br i1 %110, label %112, label %224

; <label>:112:                                    ; preds = %86, %224
  %113 = call dereferenceable(560) %"class.__gnu_debug::_Error_formatter"* @_ZNK11__gnu_debug16_Error_formatter10_M_messageENS_13_Debug_msg_idE(%"class.__gnu_debug::_Error_formatter"* %5, i32 5) #3
  %114 = load i32, i32* @x.41
  %115 = load i32, i32* @y.42
  %116 = add i32 %114, 740661420
  %117 = sub i32 %116, 1
  %118 = sub i32 %117, 740661420
  %119 = sub i32 %114, 1
  %120 = mul i32 %114, %118
  %121 = urem i32 %120, 2
  %122 = icmp eq i32 %121, 0
  %123 = icmp slt i32 %115, 10
  %124 = xor i1 %122, true
  %125 = xor i1 %123, true
  %126 = xor i1 true, true
  %127 = and i1 %124, true
  %128 = and i1 %122, %126
  %129 = and i1 %125, true
  %130 = and i1 %123, %126
  %131 = or i1 %127, %128
  %132 = or i1 %129, %130
  %133 = xor i1 %131, %132
  %134 = or i1 %124, %125
  %135 = xor i1 %134, true
  %136 = or i1 true, %126
  %137 = and i1 %135, %136
  %138 = or i1 %133, %137
  %139 = or i1 %122, %123
  br i1 %138, label %140, label %224

; <label>:140:                                    ; preds = %112
  %141 = invoke dereferenceable(560) %"class.__gnu_debug::_Error_formatter"* @_ZNK11__gnu_debug16_Error_formatter11_M_sequenceINSt7__debug6vectorINS3_ISt4pairIiiESaIS5_EEESaIS7_EEEEERKS0_RKT_PKc(%"class.__gnu_debug::_Error_formatter"* %113, %"class.std::__debug::vector.0"* dereferenceable(56) %6, i8* getelementptr inbounds ([5 x i8], [5 x i8]* @.str.1, i32 0, i32 0))
          to label %142 unwind label %213

; <label>:142:                                    ; preds = %140
  %143 = load i64, i64* %4, align 8
  %144 = invoke dereferenceable(560) %"class.__gnu_debug::_Error_formatter"* @_ZNK11__gnu_debug16_Error_formatter10_M_integerElPKc(%"class.__gnu_debug::_Error_formatter"* %141, i64 %143, i8* getelementptr inbounds ([4 x i8], [4 x i8]* @.str.2, i32 0, i32 0))
          to label %145 unwind label %213

; <label>:145:                                    ; preds = %142
  %146 = bitcast %"class.std::__debug::vector.0"* %6 to i8*
  %147 = getelementptr inbounds i8, i8* %146, i64 24
  %148 = bitcast i8* %147 to %"class.std::__cxx1998::vector.5"*
  %149 = call i64 @_ZNKSt9__cxx19986vectorINSt7__debug6vectorISt4pairIiiESaIS4_EEESaIS6_EE4sizeEv(%"class.std::__cxx1998::vector.5"* %148) #3
  %150 = invoke dereferenceable(560) %"class.__gnu_debug::_Error_formatter"* @_ZNK11__gnu_debug16_Error_formatter10_M_integerElPKc(%"class.__gnu_debug::_Error_formatter"* %144, i64 %149, i8* getelementptr inbounds ([5 x i8], [5 x i8]* @.str.3, i32 0, i32 0))
          to label %151 unwind label %213

; <label>:151:                                    ; preds = %145
  invoke void @_ZNK11__gnu_debug16_Error_formatter8_M_errorEv(%"class.__gnu_debug::_Error_formatter"* %150) #14
          to label %152 unwind label %213

; <label>:152:                                    ; preds = %151
  unreachable

; <label>:153:                                    ; preds = %42
  %154 = load i32, i32* @x.41
  %155 = load i32, i32* @y.42
  %156 = sub i32 %154, 1660527348
  %157 = sub i32 %156, 1
  %158 = add i32 %157, 1660527348
  %159 = sub i32 %154, 1
  %160 = mul i32 %154, %158
  %161 = urem i32 %160, 2
  %162 = icmp eq i32 %161, 0
  %163 = icmp slt i32 %155, 10
  %164 = xor i1 %162, true
  %165 = xor i1 %163, true
  %166 = xor i1 true, true
  %167 = and i1 %164, true
  %168 = and i1 %162, %166
  %169 = and i1 %165, true
  %170 = and i1 %163, %166
  %171 = or i1 %167, %168
  %172 = or i1 %169, %170
  %173 = xor i1 %171, %172
  %174 = or i1 %164, %165
  %175 = xor i1 %174, true
  %176 = or i1 true, %166
  %177 = and i1 %175, %176
  %178 = or i1 %173, %177
  %179 = or i1 %162, %163
  br i1 %178, label %180, label %226

; <label>:180:                                    ; preds = %153, %226
  %181 = load i32, i32* @x.41
  %182 = load i32, i32* @y.42
  %183 = sub i32 %181, 715773491
  %184 = sub i32 %183, 1
  %185 = add i32 %184, 715773491
  %186 = sub i32 %181, 1
  %187 = mul i32 %181, %185
  %188 = urem i32 %187, 2
  %189 = icmp eq i32 %188, 0
  %190 = icmp slt i32 %182, 10
  %191 = xor i1 %189, true
  %192 = xor i1 %190, true
  %193 = xor i1 true, true
  %194 = and i1 %191, true
  %195 = and i1 %189, %193
  %196 = and i1 %192, true
  %197 = and i1 %190, %193
  %198 = or i1 %194, %195
  %199 = or i1 %196, %197
  %200 = xor i1 %198, %199
  %201 = or i1 %191, %192
  %202 = xor i1 %201, true
  %203 = or i1 true, %193
  %204 = and i1 %202, %203
  %205 = or i1 %200, %204
  %206 = or i1 %189, %190
  br i1 %205, label %207, label %226

; <label>:207:                                    ; preds = %180
  br label %208

; <label>:208:                                    ; preds = %207
  br label %209

; <label>:209:                                    ; preds = %208
  %210 = call dereferenceable(24) %"class.std::__cxx1998::vector.5"* @_ZNSt7__debug6vectorINS0_ISt4pairIiiESaIS2_EEESaIS4_EE7_M_baseEv(%"class.std::__debug::vector.0"* %6) #3
  %211 = load i64, i64* %4, align 8
  %212 = call dereferenceable(56) %"class.std::__debug::vector.10"* @_ZNSt9__cxx19986vectorINSt7__debug6vectorISt4pairIiiESaIS4_EEESaIS6_EEixEm(%"class.std::__cxx1998::vector.5"* %210, i64 %211) #3
  ret %"class.std::__debug::vector.10"* %212

; <label>:213:                                    ; preds = %151, %145, %142, %140, %85
  %214 = landingpad { i8*, i32 }
          catch i8* null
  %215 = extractvalue { i8*, i32 } %214, 0
  call void @__clang_call_terminate(i8* %215) #13
  unreachable

; <label>:216:                                    ; preds = %21, %7
  %217 = load i64, i64* %4, align 8
  %218 = bitcast %"class.std::__debug::vector.0"* %6 to i8*
  %219 = getelementptr inbounds i8, i8* %218, i64 24
  %220 = bitcast i8* %219 to %"class.std::__cxx1998::vector.5"*
  %221 = call i64 @_ZNKSt9__cxx19986vectorINSt7__debug6vectorISt4pairIiiESaIS4_EEESaIS6_EE4sizeEv(%"class.std::__cxx1998::vector.5"* %220) #3
  %222 = icmp ult i64 %217, %221
  br label %21

; <label>:223:                                    ; preds = %70, %43
  br label %70

; <label>:224:                                    ; preds = %112, %86
  %225 = call dereferenceable(560) %"class.__gnu_debug::_Error_formatter"* @_ZNK11__gnu_debug16_Error_formatter10_M_messageENS_13_Debug_msg_idE(%"class.__gnu_debug::_Error_formatter"* %5, i32 5) #3
  br label %112

; <label>:226:                                    ; preds = %180, %153
  br label %180
}

; Function Attrs: noinline uwtable
define linkonce_odr void @_ZNSt7__debug6vectorISt4pairIiiESaIS2_EE9push_backIS2_EEN9__gnu_cxx11__enable_ifIXntsr3std10__are_sameIT_bEE7__valueEvE6__typeEOS2_(%"class.std::__debug::vector.10"*, %"struct.std::pair"* dereferenceable(8)) #0 comdat align 2 {
  %3 = alloca i1
  %4 = alloca i1
  %5 = load i32, i32* @x.43
  %6 = load i32, i32* @y.44
  %7 = sub i32 0, 1
  %8 = add i32 %5, %7
  %9 = sub i32 %5, 1
  %10 = mul i32 %5, %8
  %11 = urem i32 %10, 2
  %12 = icmp eq i32 %11, 0
  store i1 %12, i1* %4
  %13 = icmp slt i32 %6, 10
  store i1 %13, i1* %3
  %14 = alloca i32
  store i32 1333738144, i32* %14
  br label %15

; <label>:15:                                     ; preds = %2, %66
  %16 = load i32, i32* %14
  switch i32 %16, label %17 [
    i32 1333738144, label %18
    i32 -940528849, label %38
    i32 -925258855, label %59
    i32 1709369515, label %60
  ]

; <label>:17:                                     ; preds = %15
  br label %66

; <label>:18:                                     ; preds = %15
  %19 = load volatile i1, i1* %4
  %20 = load volatile i1, i1* %3
  %21 = xor i1 %19, true
  %22 = xor i1 %20, true
  %23 = xor i1 false, true
  %24 = and i1 %21, false
  %25 = and i1 %19, %23
  %26 = and i1 %22, false
  %27 = and i1 %20, %23
  %28 = or i1 %24, %25
  %29 = or i1 %26, %27
  %30 = xor i1 %28, %29
  %31 = or i1 %21, %22
  %32 = xor i1 %31, true
  %33 = or i1 false, %23
  %34 = and i1 %32, %33
  %35 = or i1 %30, %34
  %36 = or i1 %19, %20
  %37 = select i1 %35, i32 -940528849, i32 1709369515
  store i32 %37, i32* %14
  br label %66

; <label>:38:                                     ; preds = %15
  %39 = alloca %"class.std::__debug::vector.10"*, align 8
  %40 = alloca %"struct.std::pair"*, align 8
  store %"class.std::__debug::vector.10"* %0, %"class.std::__debug::vector.10"** %39, align 8
  store %"struct.std::pair"* %1, %"struct.std::pair"** %40, align 8
  %41 = load %"class.std::__debug::vector.10"*, %"class.std::__debug::vector.10"** %39, align 8
  %42 = load %"struct.std::pair"*, %"struct.std::pair"** %40, align 8
  %43 = call dereferenceable(8) %"struct.std::pair"* @_ZSt4moveIRSt4pairIiiEEONSt16remove_referenceIT_E4typeEOS4_(%"struct.std::pair"* dereferenceable(8) %42) #3
  call void @_ZNSt7__debug6vectorISt4pairIiiESaIS2_EE12emplace_backIJS2_EEEvDpOT_(%"class.std::__debug::vector.10"* %41, %"struct.std::pair"* dereferenceable(8) %43)
  %44 = load i32, i32* @x.43
  %45 = load i32, i32* @y.44
  %46 = add i32 %44, 1717799177
  %47 = sub i32 %46, 1
  %48 = sub i32 %47, 1717799177
  %49 = sub i32 %44, 1
  %50 = mul i32 %44, %48
  %51 = urem i32 %50, 2
  %52 = icmp eq i32 %51, 0
  %53 = icmp slt i32 %45, 10
  %54 = and i1 %52, %53
  %55 = xor i1 %52, %53
  %56 = or i1 %54, %55
  %57 = or i1 %52, %53
  %58 = select i1 %56, i32 -925258855, i32 1709369515
  store i32 %58, i32* %14
  br label %66

; <label>:59:                                     ; preds = %15
  ret void

; <label>:60:                                     ; preds = %15
  %61 = alloca %"class.std::__debug::vector.10"*, align 8
  %62 = alloca %"struct.std::pair"*, align 8
  store %"class.std::__debug::vector.10"* %0, %"class.std::__debug::vector.10"** %61, align 8
  store %"struct.std::pair"* %1, %"struct.std::pair"** %62, align 8
  %63 = load %"class.std::__debug::vector.10"*, %"class.std::__debug::vector.10"** %61, align 8
  %64 = load %"struct.std::pair"*, %"struct.std::pair"** %62, align 8
  %65 = call dereferenceable(8) %"struct.std::pair"* @_ZSt4moveIRSt4pairIiiEEONSt16remove_referenceIT_E4typeEOS4_(%"struct.std::pair"* dereferenceable(8) %64) #3
  call void @_ZNSt7__debug6vectorISt4pairIiiESaIS2_EE12emplace_backIJS2_EEEvDpOT_(%"class.std::__debug::vector.10"* %63, %"struct.std::pair"* dereferenceable(8) %65)
  store i32 -940528849, i32* %14
  br label %66

; <label>:66:                                     ; preds = %60, %38, %18, %17
  br label %15
}

; Function Attrs: noinline uwtable
define linkonce_odr i64 @_ZSt9make_pairIRiS0_ESt4pairINSt17__decay_and_stripIT_E6__typeENS2_IT0_E6__typeEEOS3_OS6_(i32* dereferenceable(4), i32* dereferenceable(4)) #0 comdat {
  %3 = alloca %"struct.std::pair", align 4
  %4 = alloca i32*, align 8
  %5 = alloca i32*, align 8
  store i32* %0, i32** %4, align 8
  store i32* %1, i32** %5, align 8
  %6 = load i32*, i32** %4, align 8
  %7 = call dereferenceable(4) i32* @_ZSt7forwardIRiEOT_RNSt16remove_referenceIS1_E4typeE(i32* dereferenceable(4) %6) #3
  %8 = load i32*, i32** %5, align 8
  %9 = call dereferenceable(4) i32* @_ZSt7forwardIRiEOT_RNSt16remove_referenceIS1_E4typeE(i32* dereferenceable(4) %8) #3
  call void @_ZNSt4pairIiiEC2IRiS2_vEEOT_OT0_(%"struct.std::pair"* %3, i32* dereferenceable(4) %7, i32* dereferenceable(4) %9)
  %10 = bitcast %"struct.std::pair"* %3 to i64*
  %11 = load i64, i64* %10, align 4
  ret i64 %11
}

; Function Attrs: noinline nounwind uwtable
define linkonce_odr void @_ZNSaINSt7__debug6vectorIiSaIiEEEEC2Ev(%"class.std::allocator.29"*) unnamed_addr #5 comdat align 2 {
  %2 = alloca %"class.std::allocator.29"*, align 8
  store %"class.std::allocator.29"* %0, %"class.std::allocator.29"** %2, align 8
  %3 = load %"class.std::allocator.29"*, %"class.std::allocator.29"** %2, align 8
  %4 = bitcast %"class.std::allocator.29"* %3 to %"class.__gnu_cxx::new_allocator.30"*
  call void @_ZN9__gnu_cxx13new_allocatorINSt7__debug6vectorIiSaIiEEEEC2Ev(%"class.__gnu_cxx::new_allocator.30"* %4) #3
  ret void
}

; Function Attrs: noinline uwtable
define linkonce_odr void @_ZNSt7__debug6vectorINS0_IiSaIiEEESaIS2_EEC2EmRKS2_RKS3_(%"class.std::__debug::vector.22"*, i64, %"class.std::__debug::vector"* dereferenceable(56), %"class.std::allocator.29"* dereferenceable(1)) unnamed_addr #0 comdat align 2 personality i8* bitcast (i32 (...)* @__gxx_personality_v0 to i8*) {
  %5 = alloca %"class.std::__debug::vector.22"*, align 8
  %6 = alloca i64, align 8
  %7 = alloca %"class.std::__debug::vector"*, align 8
  %8 = alloca %"class.std::allocator.29"*, align 8
  %9 = alloca i8*
  %10 = alloca i32
  store %"class.std::__debug::vector.22"* %0, %"class.std::__debug::vector.22"** %5, align 8
  store i64 %1, i64* %6, align 8
  store %"class.std::__debug::vector"* %2, %"class.std::__debug::vector"** %7, align 8
  store %"class.std::allocator.29"* %3, %"class.std::allocator.29"** %8, align 8
  %11 = load %"class.std::__debug::vector.22"*, %"class.std::__debug::vector.22"** %5, align 8
  %12 = bitcast %"class.std::__debug::vector.22"* %11 to %"class.__gnu_debug::_Safe_container.23"*
  call void @_ZN11__gnu_debug15_Safe_containerINSt7__debug6vectorINS2_IiSaIiEEESaIS4_EEES5_NS_14_Safe_sequenceELb1EEC2Ev(%"class.__gnu_debug::_Safe_container.23"* %12) #3
  %13 = bitcast %"class.std::__debug::vector.22"* %11 to i8*
  %14 = getelementptr inbounds i8, i8* %13, i64 24
  %15 = bitcast i8* %14 to %"class.std::__cxx1998::vector.27"*
  %16 = load i64, i64* %6, align 8
  %17 = load %"class.std::__debug::vector"*, %"class.std::__debug::vector"** %7, align 8
  %18 = load %"class.std::allocator.29"*, %"class.std::allocator.29"** %8, align 8
  invoke void @_ZNSt9__cxx19986vectorINSt7__debug6vectorIiSaIiEEESaIS4_EEC2EmRKS4_RKS5_(%"class.std::__cxx1998::vector.27"* %15, i64 %16, %"class.std::__debug::vector"* dereferenceable(56) %17, %"class.std::allocator.29"* dereferenceable(1) %18)
          to label %19 unwind label %77

; <label>:19:                                     ; preds = %4
  %20 = load i32, i32* @x.49
  %21 = load i32, i32* @y.50
  %22 = add i32 %20, -326005383
  %23 = sub i32 %22, 1
  %24 = sub i32 %23, -326005383
  %25 = sub i32 %20, 1
  %26 = mul i32 %20, %24
  %27 = urem i32 %26, 2
  %28 = icmp eq i32 %27, 0
  %29 = icmp slt i32 %21, 10
  %30 = xor i1 %28, true
  %31 = xor i1 %29, true
  %32 = xor i1 true, true
  %33 = and i1 %30, true
  %34 = and i1 %28, %32
  %35 = and i1 %31, true
  %36 = and i1 %29, %32
  %37 = or i1 %33, %34
  %38 = or i1 %35, %36
  %39 = xor i1 %37, %38
  %40 = or i1 %30, %31
  %41 = xor i1 %40, true
  %42 = or i1 true, %32
  %43 = and i1 %41, %42
  %44 = or i1 %39, %43
  %45 = or i1 %28, %29
  br i1 %44, label %46, label %128

; <label>:46:                                     ; preds = %19, %128
  %47 = bitcast %"class.std::__debug::vector.22"* %11 to i8*
  %48 = getelementptr inbounds i8, i8* %47, i64 48
  %49 = bitcast i8* %48 to %"class.__gnu_debug::_Safe_vector.32"*
  call void @_ZN11__gnu_debug12_Safe_vectorINSt7__debug6vectorINS2_IiSaIiEEESaIS4_EEENSt9__cxx19986vectorIS4_S5_EEEC2Ev(%"class.__gnu_debug::_Safe_vector.32"* %49) #3
  %50 = load i32, i32* @x.49
  %51 = load i32, i32* @y.50
  %52 = add i32 %50, 1638682525
  %53 = sub i32 %52, 1
  %54 = sub i32 %53, 1638682525
  %55 = sub i32 %50, 1
  %56 = mul i32 %50, %54
  %57 = urem i32 %56, 2
  %58 = icmp eq i32 %57, 0
  %59 = icmp slt i32 %51, 10
  %60 = xor i1 %58, true
  %61 = xor i1 %59, true
  %62 = xor i1 true, true
  %63 = and i1 %60, true
  %64 = and i1 %58, %62
  %65 = and i1 %61, true
  %66 = and i1 %59, %62
  %67 = or i1 %63, %64
  %68 = or i1 %65, %66
  %69 = xor i1 %67, %68
  %70 = or i1 %60, %61
  %71 = xor i1 %70, true
  %72 = or i1 true, %62
  %73 = and i1 %71, %72
  %74 = or i1 %69, %73
  %75 = or i1 %58, %59
  br i1 %74, label %76, label %128

; <label>:76:                                     ; preds = %46
  ret void

; <label>:77:                                     ; preds = %4
  %78 = landingpad { i8*, i32 }
          cleanup
  %79 = extractvalue { i8*, i32 } %78, 0
  store i8* %79, i8** %9, align 8
  %80 = extractvalue { i8*, i32 } %78, 1
  store i32 %80, i32* %10, align 4
  %81 = bitcast %"class.std::__debug::vector.22"* %11 to %"class.__gnu_debug::_Safe_container.23"*
  call void @_ZN11__gnu_debug15_Safe_containerINSt7__debug6vectorINS2_IiSaIiEEESaIS4_EEES5_NS_14_Safe_sequenceELb1EED2Ev(%"class.__gnu_debug::_Safe_container.23"* %81) #3
  br label %82

; <label>:82:                                     ; preds = %77
  %83 = load i32, i32* @x.49
  %84 = load i32, i32* @y.50
  %85 = sub i32 0, 1
  %86 = add i32 %83, %85
  %87 = sub i32 %83, 1
  %88 = mul i32 %83, %86
  %89 = urem i32 %88, 2
  %90 = icmp eq i32 %89, 0
  %91 = icmp slt i32 %84, 10
  %92 = and i1 %90, %91
  %93 = xor i1 %90, %91
  %94 = or i1 %92, %93
  %95 = or i1 %90, %91
  br i1 %94, label %96, label %132

; <label>:96:                                     ; preds = %82, %132
  %97 = load i8*, i8** %9, align 8
  %98 = load i32, i32* %10, align 4
  %99 = insertvalue { i8*, i32 } undef, i8* %97, 0
  %100 = insertvalue { i8*, i32 } %99, i32 %98, 1
  %101 = load i32, i32* @x.49
  %102 = load i32, i32* @y.50
  %103 = sub i32 %101, 1162877786
  %104 = sub i32 %103, 1
  %105 = add i32 %104, 1162877786
  %106 = sub i32 %101, 1
  %107 = mul i32 %101, %105
  %108 = urem i32 %107, 2
  %109 = icmp eq i32 %108, 0
  %110 = icmp slt i32 %102, 10
  %111 = xor i1 %109, true
  %112 = xor i1 %110, true
  %113 = xor i1 false, true
  %114 = and i1 %111, false
  %115 = and i1 %109, %113
  %116 = and i1 %112, false
  %117 = and i1 %110, %113
  %118 = or i1 %114, %115
  %119 = or i1 %116, %117
  %120 = xor i1 %118, %119
  %121 = or i1 %111, %112
  %122 = xor i1 %121, true
  %123 = or i1 false, %113
  %124 = and i1 %122, %123
  %125 = or i1 %120, %124
  %126 = or i1 %109, %110
  br i1 %125, label %127, label %132

; <label>:127:                                    ; preds = %96
  resume { i8*, i32 } %100

; <label>:128:                                    ; preds = %46, %19
  %129 = bitcast %"class.std::__debug::vector.22"* %11 to i8*
  %130 = getelementptr inbounds i8, i8* %129, i64 48
  %131 = bitcast i8* %130 to %"class.__gnu_debug::_Safe_vector.32"*
  call void @_ZN11__gnu_debug12_Safe_vectorINSt7__debug6vectorINS2_IiSaIiEEESaIS4_EEENSt9__cxx19986vectorIS4_S5_EEEC2Ev(%"class.__gnu_debug::_Safe_vector.32"* %131) #3
  br label %46

; <label>:132:                                    ; preds = %96, %82
  %133 = load i8*, i8** %9, align 8
  %134 = load i32, i32* %10, align 4
  %135 = insertvalue { i8*, i32 } undef, i8* %133, 0
  %136 = insertvalue { i8*, i32 } %135, i32 %134, 1
  br label %96
}

; Function Attrs: noinline nounwind uwtable
define linkonce_odr void @_ZNSaINSt7__debug6vectorIiSaIiEEEED2Ev(%"class.std::allocator.29"*) unnamed_addr #5 comdat align 2 {
  %2 = alloca %"class.std::allocator.29"*, align 8
  store %"class.std::allocator.29"* %0, %"class.std::allocator.29"** %2, align 8
  %3 = load %"class.std::allocator.29"*, %"class.std::allocator.29"** %2, align 8
  %4 = bitcast %"class.std::allocator.29"* %3 to %"class.__gnu_cxx::new_allocator.30"*
  call void @_ZN9__gnu_cxx13new_allocatorINSt7__debug6vectorIiSaIiEEEED2Ev(%"class.__gnu_cxx::new_allocator.30"* %4) #3
  ret void
}

; Function Attrs: noinline nounwind uwtable
define linkonce_odr void @_ZNSt7__debug6vectorIiSaIiEED2Ev(%"class.std::__debug::vector"*) unnamed_addr #5 comdat align 2 {
  %2 = alloca %"class.std::__debug::vector"*, align 8
  store %"class.std::__debug::vector"* %0, %"class.std::__debug::vector"** %2, align 8
  %3 = load %"class.std::__debug::vector"*, %"class.std::__debug::vector"** %2, align 8
  %4 = bitcast %"class.std::__debug::vector"* %3 to i8*
  %5 = getelementptr inbounds i8, i8* %4, i64 24
  %6 = bitcast i8* %5 to %"class.std::__cxx1998::vector"*
  call void @_ZNSt9__cxx19986vectorIiSaIiEED2Ev(%"class.std::__cxx1998::vector"* %6) #3
  %7 = bitcast %"class.std::__debug::vector"* %3 to %"class.__gnu_debug::_Safe_container"*
  call void @_ZN11__gnu_debug15_Safe_containerINSt7__debug6vectorIiSaIiEEES3_NS_14_Safe_sequenceELb1EED2Ev(%"class.__gnu_debug::_Safe_container"* %7) #3
  ret void
}

; Function Attrs: argmemonly nounwind
declare void @llvm.memset.p0i8.i64(i8* nocapture writeonly, i8, i64, i32, i1) #6

; Function Attrs: noinline uwtable
define linkonce_odr void @_ZNSt7__debug5dequeIiSaIiEEC2Ev(%"class.std::__debug::deque"*) unnamed_addr #0 comdat align 2 personality i8* bitcast (i32 (...)* @__gxx_personality_v0 to i8*) {
  %2 = alloca %"class.std::__debug::deque"*, align 8
  %3 = alloca i8*
  %4 = alloca i32
  store %"class.std::__debug::deque"* %0, %"class.std::__debug::deque"** %2, align 8
  %5 = load %"class.std::__debug::deque"*, %"class.std::__debug::deque"** %2, align 8
  %6 = bitcast %"class.std::__debug::deque"* %5 to %"class.__gnu_debug::_Safe_container.33"*
  call void @_ZN11__gnu_debug15_Safe_containerINSt7__debug5dequeIiSaIiEEES3_NS_14_Safe_sequenceELb1EEC2Ev(%"class.__gnu_debug::_Safe_container.33"* %6) #3
  %7 = bitcast %"class.std::__debug::deque"* %5 to i8*
  %8 = getelementptr inbounds i8, i8* %7, i64 24
  %9 = bitcast i8* %8 to %"class.std::__cxx1998::deque"*
  invoke void @_ZNSt9__cxx19985dequeIiSaIiEEC2Ev(%"class.std::__cxx1998::deque"* %9)
          to label %10 unwind label %11

; <label>:10:                                     ; preds = %1
  ret void

; <label>:11:                                     ; preds = %1
  %12 = load i32, i32* @x.55
  %13 = load i32, i32* @y.56
  %14 = sub i32 %12, -1717366293
  %15 = sub i32 %14, 1
  %16 = add i32 %15, -1717366293
  %17 = sub i32 %12, 1
  %18 = mul i32 %12, %16
  %19 = urem i32 %18, 2
  %20 = icmp eq i32 %19, 0
  %21 = icmp slt i32 %13, 10
  %22 = xor i1 %20, true
  %23 = xor i1 %21, true
  %24 = xor i1 false, true
  %25 = and i1 %22, false
  %26 = and i1 %20, %24
  %27 = and i1 %23, false
  %28 = and i1 %21, %24
  %29 = or i1 %25, %26
  %30 = or i1 %27, %28
  %31 = xor i1 %29, %30
  %32 = or i1 %22, %23
  %33 = xor i1 %32, true
  %34 = or i1 false, %24
  %35 = and i1 %33, %34
  %36 = or i1 %31, %35
  %37 = or i1 %20, %21
  br i1 %36, label %38, label %114

; <label>:38:                                     ; preds = %11, %114
  %39 = landingpad { i8*, i32 }
          cleanup
  %40 = extractvalue { i8*, i32 } %39, 0
  store i8* %40, i8** %3, align 8
  %41 = extractvalue { i8*, i32 } %39, 1
  store i32 %41, i32* %4, align 4
  %42 = bitcast %"class.std::__debug::deque"* %5 to %"class.__gnu_debug::_Safe_container.33"*
  call void @_ZN11__gnu_debug15_Safe_containerINSt7__debug5dequeIiSaIiEEES3_NS_14_Safe_sequenceELb1EED2Ev(%"class.__gnu_debug::_Safe_container.33"* %42) #3
  %43 = load i32, i32* @x.55
  %44 = load i32, i32* @y.56
  %45 = sub i32 0, 1
  %46 = add i32 %43, %45
  %47 = sub i32 %43, 1
  %48 = mul i32 %43, %46
  %49 = urem i32 %48, 2
  %50 = icmp eq i32 %49, 0
  %51 = icmp slt i32 %44, 10
  %52 = xor i1 %50, true
  %53 = xor i1 %51, true
  %54 = xor i1 true, true
  %55 = and i1 %52, true
  %56 = and i1 %50, %54
  %57 = and i1 %53, true
  %58 = and i1 %51, %54
  %59 = or i1 %55, %56
  %60 = or i1 %57, %58
  %61 = xor i1 %59, %60
  %62 = or i1 %52, %53
  %63 = xor i1 %62, true
  %64 = or i1 true, %54
  %65 = and i1 %63, %64
  %66 = or i1 %61, %65
  %67 = or i1 %50, %51
  br i1 %66, label %68, label %114

; <label>:68:                                     ; preds = %38
  br label %69

; <label>:69:                                     ; preds = %68
  %70 = load i32, i32* @x.55
  %71 = load i32, i32* @y.56
  %72 = sub i32 0, 1
  %73 = add i32 %70, %72
  %74 = sub i32 %70, 1
  %75 = mul i32 %70, %73
  %76 = urem i32 %75, 2
  %77 = icmp eq i32 %76, 0
  %78 = icmp slt i32 %71, 10
  %79 = xor i1 %77, true
  %80 = xor i1 %78, true
  %81 = xor i1 true, true
  %82 = and i1 %79, true
  %83 = and i1 %77, %81
  %84 = and i1 %80, true
  %85 = and i1 %78, %81
  %86 = or i1 %82, %83
  %87 = or i1 %84, %85
  %88 = xor i1 %86, %87
  %89 = or i1 %79, %80
  %90 = xor i1 %89, true
  %91 = or i1 true, %81
  %92 = and i1 %90, %91
  %93 = or i1 %88, %92
  %94 = or i1 %77, %78
  br i1 %93, label %95, label %119

; <label>:95:                                     ; preds = %69, %119
  %96 = load i8*, i8** %3, align 8
  %97 = load i32, i32* %4, align 4
  %98 = insertvalue { i8*, i32 } undef, i8* %96, 0
  %99 = insertvalue { i8*, i32 } %98, i32 %97, 1
  %100 = load i32, i32* @x.55
  %101 = load i32, i32* @y.56
  %102 = sub i32 0, 1
  %103 = add i32 %100, %102
  %104 = sub i32 %100, 1
  %105 = mul i32 %100, %103
  %106 = urem i32 %105, 2
  %107 = icmp eq i32 %106, 0
  %108 = icmp slt i32 %101, 10
  %109 = and i1 %107, %108
  %110 = xor i1 %107, %108
  %111 = or i1 %109, %110
  %112 = or i1 %107, %108
  br i1 %111, label %113, label %119

; <label>:113:                                    ; preds = %95
  resume { i8*, i32 } %99

; <label>:114:                                    ; preds = %38, %11
  %115 = landingpad { i8*, i32 }
          cleanup
  %116 = extractvalue { i8*, i32 } %115, 0
  store i8* %116, i8** %3, align 8
  %117 = extractvalue { i8*, i32 } %115, 1
  store i32 %117, i32* %4, align 4
  %118 = bitcast %"class.std::__debug::deque"* %5 to %"class.__gnu_debug::_Safe_container.33"*
  call void @_ZN11__gnu_debug15_Safe_containerINSt7__debug5dequeIiSaIiEEES3_NS_14_Safe_sequenceELb1EED2Ev(%"class.__gnu_debug::_Safe_container.33"* %118) #3
  br label %38

; <label>:119:                                    ; preds = %95, %69
  %120 = load i8*, i8** %3, align 8
  %121 = load i32, i32* %4, align 4
  %122 = insertvalue { i8*, i32 } undef, i8* %120, 0
  %123 = insertvalue { i8*, i32 } %122, i32 %121, 1
  br label %95
}

; Function Attrs: noinline uwtable
define linkonce_odr void @_ZNSt5queueIiNSt7__debug5dequeIiSaIiEEEEC2EOS3_(%"class.std::queue"*, %"class.std::__debug::deque"* dereferenceable(104)) unnamed_addr #0 comdat align 2 {
  %3 = alloca i1
  %4 = alloca i1
  %5 = load i32, i32* @x.57
  %6 = load i32, i32* @y.58
  %7 = sub i32 %5, -81745604
  %8 = sub i32 %7, 1
  %9 = add i32 %8, -81745604
  %10 = sub i32 %5, 1
  %11 = mul i32 %5, %9
  %12 = urem i32 %11, 2
  %13 = icmp eq i32 %12, 0
  store i1 %13, i1* %4
  %14 = icmp slt i32 %6, 10
  store i1 %14, i1* %3
  %15 = alloca i32
  store i32 1370009614, i32* %15
  br label %16

; <label>:16:                                     ; preds = %2, %69
  %17 = load i32, i32* %15
  switch i32 %17, label %18 [
    i32 1370009614, label %19
    i32 -1284192024, label %27
    i32 -361518442, label %61
    i32 229302511, label %62
  ]

; <label>:18:                                     ; preds = %16
  br label %69

; <label>:19:                                     ; preds = %16
  %20 = load volatile i1, i1* %4
  %21 = load volatile i1, i1* %3
  %22 = and i1 %20, %21
  %23 = xor i1 %20, %21
  %24 = or i1 %22, %23
  %25 = or i1 %20, %21
  %26 = select i1 %24, i32 -1284192024, i32 229302511
  store i32 %26, i32* %15
  br label %69

; <label>:27:                                     ; preds = %16
  %28 = alloca %"class.std::queue"*, align 8
  %29 = alloca %"class.std::__debug::deque"*, align 8
  store %"class.std::queue"* %0, %"class.std::queue"** %28, align 8
  store %"class.std::__debug::deque"* %1, %"class.std::__debug::deque"** %29, align 8
  %30 = load %"class.std::queue"*, %"class.std::queue"** %28, align 8
  %31 = getelementptr inbounds %"class.std::queue", %"class.std::queue"* %30, i32 0, i32 0
  %32 = load %"class.std::__debug::deque"*, %"class.std::__debug::deque"** %29, align 8
  %33 = call dereferenceable(104) %"class.std::__debug::deque"* @_ZSt4moveIRNSt7__debug5dequeIiSaIiEEEEONSt16remove_referenceIT_E4typeEOS6_(%"class.std::__debug::deque"* dereferenceable(104) %32) #3
  call void @_ZNSt7__debug5dequeIiSaIiEEC2EOS2_(%"class.std::__debug::deque"* %31, %"class.std::__debug::deque"* dereferenceable(104) %33)
  %34 = load i32, i32* @x.57
  %35 = load i32, i32* @y.58
  %36 = sub i32 %34, -262171100
  %37 = sub i32 %36, 1
  %38 = add i32 %37, -262171100
  %39 = sub i32 %34, 1
  %40 = mul i32 %34, %38
  %41 = urem i32 %40, 2
  %42 = icmp eq i32 %41, 0
  %43 = icmp slt i32 %35, 10
  %44 = xor i1 %42, true
  %45 = xor i1 %43, true
  %46 = xor i1 true, true
  %47 = and i1 %44, true
  %48 = and i1 %42, %46
  %49 = and i1 %45, true
  %50 = and i1 %43, %46
  %51 = or i1 %47, %48
  %52 = or i1 %49, %50
  %53 = xor i1 %51, %52
  %54 = or i1 %44, %45
  %55 = xor i1 %54, true
  %56 = or i1 true, %46
  %57 = and i1 %55, %56
  %58 = or i1 %53, %57
  %59 = or i1 %42, %43
  %60 = select i1 %58, i32 -361518442, i32 229302511
  store i32 %60, i32* %15
  br label %69

; <label>:61:                                     ; preds = %16
  ret void

; <label>:62:                                     ; preds = %16
  %63 = alloca %"class.std::queue"*, align 8
  %64 = alloca %"class.std::__debug::deque"*, align 8
  store %"class.std::queue"* %0, %"class.std::queue"** %63, align 8
  store %"class.std::__debug::deque"* %1, %"class.std::__debug::deque"** %64, align 8
  %65 = load %"class.std::queue"*, %"class.std::queue"** %63, align 8
  %66 = getelementptr inbounds %"class.std::queue", %"class.std::queue"* %65, i32 0, i32 0
  %67 = load %"class.std::__debug::deque"*, %"class.std::__debug::deque"** %64, align 8
  %68 = call dereferenceable(104) %"class.std::__debug::deque"* @_ZSt4moveIRNSt7__debug5dequeIiSaIiEEEEONSt16remove_referenceIT_E4typeEOS6_(%"class.std::__debug::deque"* dereferenceable(104) %67) #3
  call void @_ZNSt7__debug5dequeIiSaIiEEC2EOS2_(%"class.std::__debug::deque"* %66, %"class.std::__debug::deque"* dereferenceable(104) %68)
  store i32 -1284192024, i32* %15
  br label %69

; <label>:69:                                     ; preds = %62, %27, %19, %18
  br label %16
}

; Function Attrs: noinline nounwind uwtable
define linkonce_odr void @_ZNSt7__debug5dequeIiSaIiEED2Ev(%"class.std::__debug::deque"*) unnamed_addr #5 comdat align 2 {
  %2 = alloca %"class.std::__debug::deque"*, align 8
  store %"class.std::__debug::deque"* %0, %"class.std::__debug::deque"** %2, align 8
  %3 = load %"class.std::__debug::deque"*, %"class.std::__debug::deque"** %2, align 8
  %4 = bitcast %"class.std::__debug::deque"* %3 to i8*
  %5 = getelementptr inbounds i8, i8* %4, i64 24
  %6 = bitcast i8* %5 to %"class.std::__cxx1998::deque"*
  call void @_ZNSt9__cxx19985dequeIiSaIiEED2Ev(%"class.std::__cxx1998::deque"* %6) #3
  %7 = bitcast %"class.std::__debug::deque"* %3 to %"class.__gnu_debug::_Safe_container.33"*
  call void @_ZN11__gnu_debug15_Safe_containerINSt7__debug5dequeIiSaIiEEES3_NS_14_Safe_sequenceELb1EED2Ev(%"class.__gnu_debug::_Safe_container.33"* %7) #3
  ret void
}

; Function Attrs: noinline uwtable
define linkonce_odr void @_ZNSt5queueIiNSt7__debug5dequeIiSaIiEEEE4pushERKi(%"class.std::queue"*, i32* dereferenceable(4)) #0 comdat align 2 {
  %3 = alloca %"class.std::queue"*, align 8
  %4 = alloca i32*, align 8
  store %"class.std::queue"* %0, %"class.std::queue"** %3, align 8
  store i32* %1, i32** %4, align 8
  %5 = load %"class.std::queue"*, %"class.std::queue"** %3, align 8
  %6 = getelementptr inbounds %"class.std::queue", %"class.std::queue"* %5, i32 0, i32 0
  %7 = load i32*, i32** %4, align 8
  call void @_ZNSt7__debug5dequeIiSaIiEE9push_backERKi(%"class.std::__debug::deque"* %6, i32* dereferenceable(4) %7)
  ret void
}

; Function Attrs: noinline uwtable
define linkonce_odr void @_ZNSt7__debug6vectorIiSaIiEEC2EmRKiRKS1_(%"class.std::__debug::vector"*, i64, i32* dereferenceable(4), %"class.std::allocator"* dereferenceable(1)) unnamed_addr #0 comdat align 2 personality i8* bitcast (i32 (...)* @__gxx_personality_v0 to i8*) {
  %5 = alloca %"class.std::__debug::vector"*, align 8
  %6 = alloca i64, align 8
  %7 = alloca i32*, align 8
  %8 = alloca %"class.std::allocator"*, align 8
  %9 = alloca i8*
  %10 = alloca i32
  store %"class.std::__debug::vector"* %0, %"class.std::__debug::vector"** %5, align 8
  store i64 %1, i64* %6, align 8
  store i32* %2, i32** %7, align 8
  store %"class.std::allocator"* %3, %"class.std::allocator"** %8, align 8
  %11 = load %"class.std::__debug::vector"*, %"class.std::__debug::vector"** %5, align 8
  %12 = bitcast %"class.std::__debug::vector"* %11 to %"class.__gnu_debug::_Safe_container"*
  call void @_ZN11__gnu_debug15_Safe_containerINSt7__debug6vectorIiSaIiEEES3_NS_14_Safe_sequenceELb1EEC2Ev(%"class.__gnu_debug::_Safe_container"* %12) #3
  %13 = bitcast %"class.std::__debug::vector"* %11 to i8*
  %14 = getelementptr inbounds i8, i8* %13, i64 24
  %15 = bitcast i8* %14 to %"class.std::__cxx1998::vector"*
  %16 = load i64, i64* %6, align 8
  %17 = load i32*, i32** %7, align 8
  %18 = load %"class.std::allocator"*, %"class.std::allocator"** %8, align 8
  invoke void @_ZNSt9__cxx19986vectorIiSaIiEEC2EmRKiRKS1_(%"class.std::__cxx1998::vector"* %15, i64 %16, i32* dereferenceable(4) %17, %"class.std::allocator"* dereferenceable(1) %18)
          to label %19 unwind label %65

; <label>:19:                                     ; preds = %4
  %20 = load i32, i32* @x.63
  %21 = load i32, i32* @y.64
  %22 = sub i32 %20, -1453028058
  %23 = sub i32 %22, 1
  %24 = add i32 %23, -1453028058
  %25 = sub i32 %20, 1
  %26 = mul i32 %20, %24
  %27 = urem i32 %26, 2
  %28 = icmp eq i32 %27, 0
  %29 = icmp slt i32 %21, 10
  %30 = xor i1 %28, true
  %31 = xor i1 %29, true
  %32 = xor i1 false, true
  %33 = and i1 %30, false
  %34 = and i1 %28, %32
  %35 = and i1 %31, false
  %36 = and i1 %29, %32
  %37 = or i1 %33, %34
  %38 = or i1 %35, %36
  %39 = xor i1 %37, %38
  %40 = or i1 %30, %31
  %41 = xor i1 %40, true
  %42 = or i1 false, %32
  %43 = and i1 %41, %42
  %44 = or i1 %39, %43
  %45 = or i1 %28, %29
  br i1 %44, label %46, label %105

; <label>:46:                                     ; preds = %19, %105
  %47 = bitcast %"class.std::__debug::vector"* %11 to i8*
  %48 = getelementptr inbounds i8, i8* %47, i64 48
  %49 = bitcast i8* %48 to %"class.__gnu_debug::_Safe_vector"*
  call void @_ZN11__gnu_debug12_Safe_vectorINSt7__debug6vectorIiSaIiEEENSt9__cxx19986vectorIiS3_EEEC2Ev(%"class.__gnu_debug::_Safe_vector"* %49) #3
  %50 = load i32, i32* @x.63
  %51 = load i32, i32* @y.64
  %52 = add i32 %50, 922061288
  %53 = sub i32 %52, 1
  %54 = sub i32 %53, 922061288
  %55 = sub i32 %50, 1
  %56 = mul i32 %50, %54
  %57 = urem i32 %56, 2
  %58 = icmp eq i32 %57, 0
  %59 = icmp slt i32 %51, 10
  %60 = and i1 %58, %59
  %61 = xor i1 %58, %59
  %62 = or i1 %60, %61
  %63 = or i1 %58, %59
  br i1 %62, label %64, label %105

; <label>:64:                                     ; preds = %46
  ret void

; <label>:65:                                     ; preds = %4
  %66 = load i32, i32* @x.63
  %67 = load i32, i32* @y.64
  %68 = add i32 %66, -1957603508
  %69 = sub i32 %68, 1
  %70 = sub i32 %69, -1957603508
  %71 = sub i32 %66, 1
  %72 = mul i32 %66, %70
  %73 = urem i32 %72, 2
  %74 = icmp eq i32 %73, 0
  %75 = icmp slt i32 %67, 10
  %76 = and i1 %74, %75
  %77 = xor i1 %74, %75
  %78 = or i1 %76, %77
  %79 = or i1 %74, %75
  br i1 %78, label %80, label %109

; <label>:80:                                     ; preds = %65, %109
  %81 = landingpad { i8*, i32 }
          cleanup
  %82 = extractvalue { i8*, i32 } %81, 0
  store i8* %82, i8** %9, align 8
  %83 = extractvalue { i8*, i32 } %81, 1
  store i32 %83, i32* %10, align 4
  %84 = bitcast %"class.std::__debug::vector"* %11 to %"class.__gnu_debug::_Safe_container"*
  call void @_ZN11__gnu_debug15_Safe_containerINSt7__debug6vectorIiSaIiEEES3_NS_14_Safe_sequenceELb1EED2Ev(%"class.__gnu_debug::_Safe_container"* %84) #3
  %85 = load i32, i32* @x.63
  %86 = load i32, i32* @y.64
  %87 = add i32 %85, 1499003405
  %88 = sub i32 %87, 1
  %89 = sub i32 %88, 1499003405
  %90 = sub i32 %85, 1
  %91 = mul i32 %85, %89
  %92 = urem i32 %91, 2
  %93 = icmp eq i32 %92, 0
  %94 = icmp slt i32 %86, 10
  %95 = and i1 %93, %94
  %96 = xor i1 %93, %94
  %97 = or i1 %95, %96
  %98 = or i1 %93, %94
  br i1 %97, label %99, label %109

; <label>:99:                                     ; preds = %80
  br label %100

; <label>:100:                                    ; preds = %99
  %101 = load i8*, i8** %9, align 8
  %102 = load i32, i32* %10, align 4
  %103 = insertvalue { i8*, i32 } undef, i8* %101, 0
  %104 = insertvalue { i8*, i32 } %103, i32 %102, 1
  resume { i8*, i32 } %104

; <label>:105:                                    ; preds = %46, %19
  %106 = bitcast %"class.std::__debug::vector"* %11 to i8*
  %107 = getelementptr inbounds i8, i8* %106, i64 48
  %108 = bitcast i8* %107 to %"class.__gnu_debug::_Safe_vector"*
  call void @_ZN11__gnu_debug12_Safe_vectorINSt7__debug6vectorIiSaIiEEENSt9__cxx19986vectorIiS3_EEEC2Ev(%"class.__gnu_debug::_Safe_vector"* %108) #3
  br label %46

; <label>:109:                                    ; preds = %80, %65
  %110 = landingpad { i8*, i32 }
          cleanup
  %111 = extractvalue { i8*, i32 } %110, 0
  store i8* %111, i8** %9, align 8
  %112 = extractvalue { i8*, i32 } %110, 1
  store i32 %112, i32* %10, align 4
  %113 = bitcast %"class.std::__debug::vector"* %11 to %"class.__gnu_debug::_Safe_container"*
  call void @_ZN11__gnu_debug15_Safe_containerINSt7__debug6vectorIiSaIiEEES3_NS_14_Safe_sequenceELb1EED2Ev(%"class.__gnu_debug::_Safe_container"* %113) #3
  br label %80
}

; Function Attrs: noinline nounwind uwtable
define linkonce_odr zeroext i1 @_ZNKSt5queueIiNSt7__debug5dequeIiSaIiEEEE5emptyEv(%"class.std::queue"*) #5 comdat align 2 {
  %2 = alloca %"class.std::queue"*, align 8
  store %"class.std::queue"* %0, %"class.std::queue"** %2, align 8
  %3 = load %"class.std::queue"*, %"class.std::queue"** %2, align 8
  %4 = getelementptr inbounds %"class.std::queue", %"class.std::queue"* %3, i32 0, i32 0
  %5 = bitcast %"class.std::__debug::deque"* %4 to i8*
  %6 = getelementptr inbounds i8, i8* %5, i64 24
  %7 = bitcast i8* %6 to %"class.std::__cxx1998::deque"*
  %8 = call zeroext i1 @_ZNKSt9__cxx19985dequeIiSaIiEE5emptyEv(%"class.std::__cxx1998::deque"* %7) #3
  ret i1 %8
}

; Function Attrs: noinline uwtable
define linkonce_odr dereferenceable(4) i32* @_ZNSt5queueIiNSt7__debug5dequeIiSaIiEEEE5frontEv(%"class.std::queue"*) #0 comdat align 2 {
  %2 = alloca i32*
  %3 = alloca %"class.std::queue"*
  %4 = alloca %"class.std::queue"*, align 8
  %5 = alloca %"class.__gnu_debug::_Error_formatter", align 8
  store %"class.std::queue"* %0, %"class.std::queue"** %4, align 8
  %6 = load %"class.std::queue"*, %"class.std::queue"** %4, align 8
  store %"class.std::queue"* %6, %"class.std::queue"** %3
  %7 = alloca i32
  store i32 -1954426241, i32* %7
  br label %8

; <label>:8:                                      ; preds = %1, %73
  %9 = load i32, i32* %7
  switch i32 %9, label %10 [
    i32 -1954426241, label %11
    i32 -2132409434, label %15
    i32 1358664440, label %19
    i32 -2084026691, label %20
    i32 -1873949021, label %48
    i32 -273344056, label %67
    i32 1856965109, label %69
  ]

; <label>:10:                                     ; preds = %8
  br label %73

; <label>:11:                                     ; preds = %8
  %12 = load volatile %"class.std::queue"*, %"class.std::queue"** %3
  %13 = call zeroext i1 @_ZNKSt5queueIiNSt7__debug5dequeIiSaIiEEEE5emptyEv(%"class.std::queue"* %12)
  %14 = select i1 %13, i32 -2132409434, i32 1358664440
  store i32 %14, i32* %7
  br label %73

; <label>:15:                                     ; preds = %8
  call void @_ZN11__gnu_debug16_Error_formatter5_M_atEPKcm(%"class.__gnu_debug::_Error_formatter"* sret %5, i8* getelementptr inbounds ([83 x i8], [83 x i8]* @.str.15, i32 0, i32 0), i64 168)
  %16 = call dereferenceable(560) %"class.__gnu_debug::_Error_formatter"* @_ZNK11__gnu_debug16_Error_formatter10_M_messageENS_13_Debug_msg_idE(%"class.__gnu_debug::_Error_formatter"* %5, i32 6) #3
  %17 = load volatile %"class.std::queue"*, %"class.std::queue"** %3
  %18 = call dereferenceable(560) %"class.__gnu_debug::_Error_formatter"* @_ZNK11__gnu_debug16_Error_formatter11_M_sequenceISt5queueIiNSt7__debug5dequeIiSaIiEEEEEERKS0_RKT_PKc(%"class.__gnu_debug::_Error_formatter"* %16, %"class.std::queue"* dereferenceable(104) %17, i8* getelementptr inbounds ([5 x i8], [5 x i8]* @.str.1, i32 0, i32 0))
  call void @_ZNK11__gnu_debug16_Error_formatter8_M_errorEv(%"class.__gnu_debug::_Error_formatter"* %18) #14
  unreachable

; <label>:19:                                     ; preds = %8
  store i32 -2084026691, i32* %7
  br label %73

; <label>:20:                                     ; preds = %8
  %21 = load i32, i32* @x.67
  %22 = load i32, i32* @y.68
  %23 = sub i32 %21, 995224745
  %24 = sub i32 %23, 1
  %25 = add i32 %24, 995224745
  %26 = sub i32 %21, 1
  %27 = mul i32 %21, %25
  %28 = urem i32 %27, 2
  %29 = icmp eq i32 %28, 0
  %30 = icmp slt i32 %22, 10
  %31 = xor i1 %29, true
  %32 = xor i1 %30, true
  %33 = xor i1 false, true
  %34 = and i1 %31, false
  %35 = and i1 %29, %33
  %36 = and i1 %32, false
  %37 = and i1 %30, %33
  %38 = or i1 %34, %35
  %39 = or i1 %36, %37
  %40 = xor i1 %38, %39
  %41 = or i1 %31, %32
  %42 = xor i1 %41, true
  %43 = or i1 false, %33
  %44 = and i1 %42, %43
  %45 = or i1 %40, %44
  %46 = or i1 %29, %30
  %47 = select i1 %45, i32 -1873949021, i32 1856965109
  store i32 %47, i32* %7
  br label %73

; <label>:48:                                     ; preds = %8
  %49 = load volatile %"class.std::queue"*, %"class.std::queue"** %3
  %50 = getelementptr inbounds %"class.std::queue", %"class.std::queue"* %49, i32 0, i32 0
  %51 = call dereferenceable(4) i32* @_ZNSt7__debug5dequeIiSaIiEE5frontEv(%"class.std::__debug::deque"* %50) #3
  store i32* %51, i32** %2
  %52 = load i32, i32* @x.67
  %53 = load i32, i32* @y.68
  %54 = add i32 %52, -1381060316
  %55 = sub i32 %54, 1
  %56 = sub i32 %55, -1381060316
  %57 = sub i32 %52, 1
  %58 = mul i32 %52, %56
  %59 = urem i32 %58, 2
  %60 = icmp eq i32 %59, 0
  %61 = icmp slt i32 %53, 10
  %62 = and i1 %60, %61
  %63 = xor i1 %60, %61
  %64 = or i1 %62, %63
  %65 = or i1 %60, %61
  %66 = select i1 %64, i32 -273344056, i32 1856965109
  store i32 %66, i32* %7
  br label %73

; <label>:67:                                     ; preds = %8
  %68 = load volatile i32*, i32** %2
  ret i32* %68

; <label>:69:                                     ; preds = %8
  %70 = load volatile %"class.std::queue"*, %"class.std::queue"** %3
  %71 = getelementptr inbounds %"class.std::queue", %"class.std::queue"* %70, i32 0, i32 0
  %72 = call dereferenceable(4) i32* @_ZNSt7__debug5dequeIiSaIiEE5frontEv(%"class.std::__debug::deque"* %71) #3
  store i32 -1873949021, i32* %7
  br label %73

; <label>:73:                                     ; preds = %69, %48, %20, %19, %11, %10
  br label %8
}

; Function Attrs: noinline uwtable
define linkonce_odr void @_ZNSt5queueIiNSt7__debug5dequeIiSaIiEEEE3popEv(%"class.std::queue"*) #0 comdat align 2 {
  %2 = alloca i1
  %3 = alloca %"class.std::queue"*
  %4 = alloca %"class.__gnu_debug::_Error_formatter"*
  %5 = alloca i1
  %6 = alloca i1
  %7 = load i32, i32* @x.69
  %8 = load i32, i32* @y.70
  %9 = sub i32 0, 1
  %10 = add i32 %7, %9
  %11 = sub i32 %7, 1
  %12 = mul i32 %7, %10
  %13 = urem i32 %12, 2
  %14 = icmp eq i32 %13, 0
  store i1 %14, i1* %6
  %15 = icmp slt i32 %8, 10
  store i1 %15, i1* %5
  %16 = alloca i32
  store i32 -1522793048, i32* %16
  br label %17

; <label>:17:                                     ; preds = %1, %218
  %18 = load i32, i32* %16
  switch i32 %18, label %19 [
    i32 -1522793048, label %20
    i32 1772122930, label %40
    i32 462353733, label %58
    i32 -1186958842, label %59
    i32 834723858, label %75
    i32 2117356587, label %92
    i32 1604021979, label %95
    i32 141373586, label %123
    i32 240027530, label %144
    i32 -919789534, label %145
    i32 1552958453, label %173
    i32 -1934119661, label %200
    i32 1734762325, label %201
    i32 -1196871275, label %204
    i32 875247398, label %208
    i32 190477461, label %211
    i32 832908240, label %217
  ]

; <label>:19:                                     ; preds = %17
  br label %218

; <label>:20:                                     ; preds = %17
  %21 = load volatile i1, i1* %6
  %22 = load volatile i1, i1* %5
  %23 = xor i1 %21, true
  %24 = xor i1 %22, true
  %25 = xor i1 false, true
  %26 = and i1 %23, false
  %27 = and i1 %21, %25
  %28 = and i1 %24, false
  %29 = and i1 %22, %25
  %30 = or i1 %26, %27
  %31 = or i1 %28, %29
  %32 = xor i1 %30, %31
  %33 = or i1 %23, %24
  %34 = xor i1 %33, true
  %35 = or i1 false, %25
  %36 = and i1 %34, %35
  %37 = or i1 %32, %36
  %38 = or i1 %21, %22
  %39 = select i1 %37, i32 1772122930, i32 -1196871275
  store i32 %39, i32* %16
  br label %218

; <label>:40:                                     ; preds = %17
  %41 = alloca %"class.std::queue"*, align 8
  %42 = alloca %"class.__gnu_debug::_Error_formatter", align 8
  store %"class.__gnu_debug::_Error_formatter"* %42, %"class.__gnu_debug::_Error_formatter"** %4
  store %"class.std::queue"* %0, %"class.std::queue"** %41, align 8
  %43 = load %"class.std::queue"*, %"class.std::queue"** %41, align 8
  store %"class.std::queue"* %43, %"class.std::queue"** %3
  %44 = load i32, i32* @x.69
  %45 = load i32, i32* @y.70
  %46 = sub i32 0, 1
  %47 = add i32 %44, %46
  %48 = sub i32 %44, 1
  %49 = mul i32 %44, %47
  %50 = urem i32 %49, 2
  %51 = icmp eq i32 %50, 0
  %52 = icmp slt i32 %45, 10
  %53 = and i1 %51, %52
  %54 = xor i1 %51, %52
  %55 = or i1 %53, %54
  %56 = or i1 %51, %52
  %57 = select i1 %55, i32 462353733, i32 -1196871275
  store i32 %57, i32* %16
  br label %218

; <label>:58:                                     ; preds = %17
  store i32 -1186958842, i32* %16
  br label %218

; <label>:59:                                     ; preds = %17
  %60 = load i32, i32* @x.69
  %61 = load i32, i32* @y.70
  %62 = sub i32 %60, 793140811
  %63 = sub i32 %62, 1
  %64 = add i32 %63, 793140811
  %65 = sub i32 %60, 1
  %66 = mul i32 %60, %64
  %67 = urem i32 %66, 2
  %68 = icmp eq i32 %67, 0
  %69 = icmp slt i32 %61, 10
  %70 = and i1 %68, %69
  %71 = xor i1 %68, %69
  %72 = or i1 %70, %71
  %73 = or i1 %68, %69
  %74 = select i1 %72, i32 834723858, i32 875247398
  store i32 %74, i32* %16
  br label %218

; <label>:75:                                     ; preds = %17
  %76 = load volatile %"class.std::queue"*, %"class.std::queue"** %3
  %77 = call zeroext i1 @_ZNKSt5queueIiNSt7__debug5dequeIiSaIiEEEE5emptyEv(%"class.std::queue"* %76)
  store i1 %77, i1* %2
  %78 = load i32, i32* @x.69
  %79 = load i32, i32* @y.70
  %80 = sub i32 0, 1
  %81 = add i32 %78, %80
  %82 = sub i32 %78, 1
  %83 = mul i32 %78, %81
  %84 = urem i32 %83, 2
  %85 = icmp eq i32 %84, 0
  %86 = icmp slt i32 %79, 10
  %87 = and i1 %85, %86
  %88 = xor i1 %85, %86
  %89 = or i1 %87, %88
  %90 = or i1 %85, %86
  %91 = select i1 %89, i32 2117356587, i32 875247398
  store i32 %91, i32* %16
  br label %218

; <label>:92:                                     ; preds = %17
  %93 = load volatile i1, i1* %2
  %94 = select i1 %93, i32 1604021979, i32 -919789534
  store i32 %94, i32* %16
  br label %218

; <label>:95:                                     ; preds = %17
  %96 = load i32, i32* @x.69
  %97 = load i32, i32* @y.70
  %98 = sub i32 %96, -1627501387
  %99 = sub i32 %98, 1
  %100 = add i32 %99, -1627501387
  %101 = sub i32 %96, 1
  %102 = mul i32 %96, %100
  %103 = urem i32 %102, 2
  %104 = icmp eq i32 %103, 0
  %105 = icmp slt i32 %97, 10
  %106 = xor i1 %104, true
  %107 = xor i1 %105, true
  %108 = xor i1 true, true
  %109 = and i1 %106, true
  %110 = and i1 %104, %108
  %111 = and i1 %107, true
  %112 = and i1 %105, %108
  %113 = or i1 %109, %110
  %114 = or i1 %111, %112
  %115 = xor i1 %113, %114
  %116 = or i1 %106, %107
  %117 = xor i1 %116, true
  %118 = or i1 true, %108
  %119 = and i1 %117, %118
  %120 = or i1 %115, %119
  %121 = or i1 %104, %105
  %122 = select i1 %120, i32 141373586, i32 190477461
  store i32 %122, i32* %16
  br label %218

; <label>:123:                                    ; preds = %17
  %124 = load volatile %"class.__gnu_debug::_Error_formatter"*, %"class.__gnu_debug::_Error_formatter"** %4
  call void @_ZN11__gnu_debug16_Error_formatter5_M_atEPKcm(%"class.__gnu_debug::_Error_formatter"* sret %124, i8* getelementptr inbounds ([83 x i8], [83 x i8]* @.str.15, i32 0, i32 0), i64 243)
  %125 = load volatile %"class.__gnu_debug::_Error_formatter"*, %"class.__gnu_debug::_Error_formatter"** %4
  %126 = call dereferenceable(560) %"class.__gnu_debug::_Error_formatter"* @_ZNK11__gnu_debug16_Error_formatter10_M_messageENS_13_Debug_msg_idE(%"class.__gnu_debug::_Error_formatter"* %125, i32 6) #3
  %127 = load volatile %"class.std::queue"*, %"class.std::queue"** %3
  %128 = call dereferenceable(560) %"class.__gnu_debug::_Error_formatter"* @_ZNK11__gnu_debug16_Error_formatter11_M_sequenceISt5queueIiNSt7__debug5dequeIiSaIiEEEEEERKS0_RKT_PKc(%"class.__gnu_debug::_Error_formatter"* %126, %"class.std::queue"* dereferenceable(104) %127, i8* getelementptr inbounds ([5 x i8], [5 x i8]* @.str.1, i32 0, i32 0))
  call void @_ZNK11__gnu_debug16_Error_formatter8_M_errorEv(%"class.__gnu_debug::_Error_formatter"* %128) #14
  %129 = load i32, i32* @x.69
  %130 = load i32, i32* @y.70
  %131 = add i32 %129, 1171160571
  %132 = sub i32 %131, 1
  %133 = sub i32 %132, 1171160571
  %134 = sub i32 %129, 1
  %135 = mul i32 %129, %133
  %136 = urem i32 %135, 2
  %137 = icmp eq i32 %136, 0
  %138 = icmp slt i32 %130, 10
  %139 = and i1 %137, %138
  %140 = xor i1 %137, %138
  %141 = or i1 %139, %140
  %142 = or i1 %137, %138
  %143 = select i1 %141, i32 240027530, i32 190477461
  store i32 %143, i32* %16
  br label %218

; <label>:144:                                    ; preds = %17
  unreachable

; <label>:145:                                    ; preds = %17
  %146 = load i32, i32* @x.69
  %147 = load i32, i32* @y.70
  %148 = sub i32 %146, -1165232562
  %149 = sub i32 %148, 1
  %150 = add i32 %149, -1165232562
  %151 = sub i32 %146, 1
  %152 = mul i32 %146, %150
  %153 = urem i32 %152, 2
  %154 = icmp eq i32 %153, 0
  %155 = icmp slt i32 %147, 10
  %156 = xor i1 %154, true
  %157 = xor i1 %155, true
  %158 = xor i1 true, true
  %159 = and i1 %156, true
  %160 = and i1 %154, %158
  %161 = and i1 %157, true
  %162 = and i1 %155, %158
  %163 = or i1 %159, %160
  %164 = or i1 %161, %162
  %165 = xor i1 %163, %164
  %166 = or i1 %156, %157
  %167 = xor i1 %166, true
  %168 = or i1 true, %158
  %169 = and i1 %167, %168
  %170 = or i1 %165, %169
  %171 = or i1 %154, %155
  %172 = select i1 %170, i32 1552958453, i32 832908240
  store i32 %172, i32* %16
  br label %218

; <label>:173:                                    ; preds = %17
  %174 = load i32, i32* @x.69
  %175 = load i32, i32* @y.70
  %176 = sub i32 0, 1
  %177 = add i32 %174, %176
  %178 = sub i32 %174, 1
  %179 = mul i32 %174, %177
  %180 = urem i32 %179, 2
  %181 = icmp eq i32 %180, 0
  %182 = icmp slt i32 %175, 10
  %183 = xor i1 %181, true
  %184 = xor i1 %182, true
  %185 = xor i1 false, true
  %186 = and i1 %183, false
  %187 = and i1 %181, %185
  %188 = and i1 %184, false
  %189 = and i1 %182, %185
  %190 = or i1 %186, %187
  %191 = or i1 %188, %189
  %192 = xor i1 %190, %191
  %193 = or i1 %183, %184
  %194 = xor i1 %193, true
  %195 = or i1 false, %185
  %196 = and i1 %194, %195
  %197 = or i1 %192, %196
  %198 = or i1 %181, %182
  %199 = select i1 %197, i32 -1934119661, i32 832908240
  store i32 %199, i32* %16
  br label %218

; <label>:200:                                    ; preds = %17
  store i32 1734762325, i32* %16
  br label %218

; <label>:201:                                    ; preds = %17
  %202 = load volatile %"class.std::queue"*, %"class.std::queue"** %3
  %203 = getelementptr inbounds %"class.std::queue", %"class.std::queue"* %202, i32 0, i32 0
  call void @_ZNSt7__debug5dequeIiSaIiEE9pop_frontEv(%"class.std::__debug::deque"* %203) #3
  ret void

; <label>:204:                                    ; preds = %17
  %205 = alloca %"class.std::queue"*, align 8
  %206 = alloca %"class.__gnu_debug::_Error_formatter", align 8
  store %"class.std::queue"* %0, %"class.std::queue"** %205, align 8
  %207 = load %"class.std::queue"*, %"class.std::queue"** %205, align 8
  store i32 1772122930, i32* %16
  br label %218

; <label>:208:                                    ; preds = %17
  %209 = load volatile %"class.std::queue"*, %"class.std::queue"** %3
  %210 = call zeroext i1 @_ZNKSt5queueIiNSt7__debug5dequeIiSaIiEEEE5emptyEv(%"class.std::queue"* %209)
  store i32 834723858, i32* %16
  br label %218

; <label>:211:                                    ; preds = %17
  %212 = load volatile %"class.__gnu_debug::_Error_formatter"*, %"class.__gnu_debug::_Error_formatter"** %4
  call void @_ZN11__gnu_debug16_Error_formatter5_M_atEPKcm(%"class.__gnu_debug::_Error_formatter"* sret %212, i8* getelementptr inbounds ([83 x i8], [83 x i8]* @.str.15, i32 0, i32 0), i64 243)
  %213 = load volatile %"class.__gnu_debug::_Error_formatter"*, %"class.__gnu_debug::_Error_formatter"** %4
  %214 = call dereferenceable(560) %"class.__gnu_debug::_Error_formatter"* @_ZNK11__gnu_debug16_Error_formatter10_M_messageENS_13_Debug_msg_idE(%"class.__gnu_debug::_Error_formatter"* %213, i32 6) #3
  %215 = load volatile %"class.std::queue"*, %"class.std::queue"** %3
  %216 = call dereferenceable(560) %"class.__gnu_debug::_Error_formatter"* @_ZNK11__gnu_debug16_Error_formatter11_M_sequenceISt5queueIiNSt7__debug5dequeIiSaIiEEEEEERKS0_RKT_PKc(%"class.__gnu_debug::_Error_formatter"* %214, %"class.std::queue"* dereferenceable(104) %215, i8* getelementptr inbounds ([5 x i8], [5 x i8]* @.str.1, i32 0, i32 0))
  call void @_ZNK11__gnu_debug16_Error_formatter8_M_errorEv(%"class.__gnu_debug::_Error_formatter"* %216) #14
  store i32 141373586, i32* %16
  br label %218

; <label>:217:                                    ; preds = %17
  store i32 1552958453, i32* %16
  br label %218

; <label>:218:                                    ; preds = %217, %211, %208, %204, %200, %173, %145, %123, %95, %92, %75, %59, %58, %40, %20, %19
  br label %17
}

; Function Attrs: noinline nounwind uwtable
define linkonce_odr void @_ZNSt7__debug6vectorISt4pairIiiESaIS2_EE5beginEv(%"class.__gnu_debug::_Safe_iterator.37"* noalias sret, %"class.std::__debug::vector.10"*) #5 comdat align 2 {
  %3 = alloca %"class.std::__debug::vector.10"*, align 8
  %4 = alloca %"class.__gnu_cxx::__normal_iterator.38", align 8
  store %"class.std::__debug::vector.10"* %1, %"class.std::__debug::vector.10"** %3, align 8
  %5 = load %"class.std::__debug::vector.10"*, %"class.std::__debug::vector.10"** %3, align 8
  %6 = bitcast %"class.std::__debug::vector.10"* %5 to i8*
  %7 = getelementptr inbounds i8, i8* %6, i64 24
  %8 = bitcast i8* %7 to %"class.std::__cxx1998::vector.15"*
  %9 = call %"struct.std::pair"* @_ZNSt9__cxx19986vectorISt4pairIiiESaIS2_EE5beginEv(%"class.std::__cxx1998::vector.15"* %8) #3
  %10 = getelementptr inbounds %"class.__gnu_cxx::__normal_iterator.38", %"class.__gnu_cxx::__normal_iterator.38"* %4, i32 0, i32 0
  store %"struct.std::pair"* %9, %"struct.std::pair"** %10, align 8
  %11 = bitcast %"class.std::__debug::vector.10"* %5 to %"class.__gnu_debug::_Safe_sequence_base"*
  call void @_ZN11__gnu_debug14_Safe_iteratorIN9__gnu_cxx17__normal_iteratorIPSt4pairIiiENSt9__cxx19986vectorIS4_SaIS4_EEEEENSt7__debug6vectorIS4_S8_EEEC2ERKSA_PKNS_19_Safe_sequence_baseE(%"class.__gnu_debug::_Safe_iterator.37"* %0, %"class.__gnu_cxx::__normal_iterator.38"* dereferenceable(8) %4, %"class.__gnu_debug::_Safe_sequence_base"* %11) #3
  ret void
}

; Function Attrs: noinline nounwind uwtable
define linkonce_odr void @_ZNSt7__debug6vectorISt4pairIiiESaIS2_EE3endEv(%"class.__gnu_debug::_Safe_iterator.37"* noalias sret, %"class.std::__debug::vector.10"*) #5 comdat align 2 {
  %3 = alloca %"class.std::__debug::vector.10"*, align 8
  %4 = alloca %"class.__gnu_cxx::__normal_iterator.38", align 8
  store %"class.std::__debug::vector.10"* %1, %"class.std::__debug::vector.10"** %3, align 8
  %5 = load %"class.std::__debug::vector.10"*, %"class.std::__debug::vector.10"** %3, align 8
  %6 = bitcast %"class.std::__debug::vector.10"* %5 to i8*
  %7 = getelementptr inbounds i8, i8* %6, i64 24
  %8 = bitcast i8* %7 to %"class.std::__cxx1998::vector.15"*
  %9 = call %"struct.std::pair"* @_ZNSt9__cxx19986vectorISt4pairIiiESaIS2_EE3endEv(%"class.std::__cxx1998::vector.15"* %8) #3
  %10 = getelementptr inbounds %"class.__gnu_cxx::__normal_iterator.38", %"class.__gnu_cxx::__normal_iterator.38"* %4, i32 0, i32 0
  store %"struct.std::pair"* %9, %"struct.std::pair"** %10, align 8
  %11 = bitcast %"class.std::__debug::vector.10"* %5 to %"class.__gnu_debug::_Safe_sequence_base"*
  call void @_ZN11__gnu_debug14_Safe_iteratorIN9__gnu_cxx17__normal_iteratorIPSt4pairIiiENSt9__cxx19986vectorIS4_SaIS4_EEEEENSt7__debug6vectorIS4_S8_EEEC2ERKSA_PKNS_19_Safe_sequence_baseE(%"class.__gnu_debug::_Safe_iterator.37"* %0, %"class.__gnu_cxx::__normal_iterator.38"* dereferenceable(8) %4, %"class.__gnu_debug::_Safe_sequence_base"* %11) #3
  ret void
}

; Function Attrs: noinline nounwind uwtable
define linkonce_odr zeroext i1 @_ZN11__gnu_debugneIN9__gnu_cxx17__normal_iteratorIPSt4pairIiiENSt9__cxx19986vectorIS4_SaIS4_EEEEENSt7__debug6vectorIS4_S8_EEEEbRKNS_14_Safe_iteratorIT_T0_EESJ_(%"class.__gnu_debug::_Safe_iterator.37"* dereferenceable(40), %"class.__gnu_debug::_Safe_iterator.37"* dereferenceable(40)) #5 comdat personality i8* bitcast (i32 (...)* @__gxx_personality_v0 to i8*) {
  %3 = alloca %"class.__gnu_debug::_Safe_iterator.37"*, align 8
  %4 = alloca %"class.__gnu_debug::_Safe_iterator.37"*, align 8
  %5 = alloca %"class.__gnu_debug::_Error_formatter", align 8
  %6 = alloca %"class.__gnu_debug::_Error_formatter", align 8
  store %"class.__gnu_debug::_Safe_iterator.37"* %0, %"class.__gnu_debug::_Safe_iterator.37"** %3, align 8
  store %"class.__gnu_debug::_Safe_iterator.37"* %1, %"class.__gnu_debug::_Safe_iterator.37"** %4, align 8
  br label %7

; <label>:7:                                      ; preds = %2
  %8 = load i32, i32* @x.75
  %9 = load i32, i32* @y.76
  %10 = sub i32 0, 1
  %11 = add i32 %8, %10
  %12 = sub i32 %8, 1
  %13 = mul i32 %8, %11
  %14 = urem i32 %13, 2
  %15 = icmp eq i32 %14, 0
  %16 = icmp slt i32 %9, 10
  %17 = xor i1 %15, true
  %18 = xor i1 %16, true
  %19 = xor i1 false, true
  %20 = and i1 %17, false
  %21 = and i1 %15, %19
  %22 = and i1 %18, false
  %23 = and i1 %16, %19
  %24 = or i1 %20, %21
  %25 = or i1 %22, %23
  %26 = xor i1 %24, %25
  %27 = or i1 %17, %18
  %28 = xor i1 %27, true
  %29 = or i1 false, %19
  %30 = and i1 %28, %29
  %31 = or i1 %26, %30
  %32 = or i1 %15, %16
  br i1 %31, label %33, label %217

; <label>:33:                                     ; preds = %7, %217
  %34 = load %"class.__gnu_debug::_Safe_iterator.37"*, %"class.__gnu_debug::_Safe_iterator.37"** %3, align 8
  %35 = bitcast %"class.__gnu_debug::_Safe_iterator.37"* %34 to i8*
  %36 = getelementptr inbounds i8, i8* %35, i64 8
  %37 = bitcast i8* %36 to %"class.__gnu_debug::_Safe_iterator_base"*
  %38 = call zeroext i1 @_ZNK11__gnu_debug19_Safe_iterator_base11_M_singularEv(%"class.__gnu_debug::_Safe_iterator_base"* %37) #15
  %39 = load i32, i32* @x.75
  %40 = load i32, i32* @y.76
  %41 = sub i32 0, 1
  %42 = add i32 %39, %41
  %43 = sub i32 %39, 1
  %44 = mul i32 %39, %42
  %45 = urem i32 %44, 2
  %46 = icmp eq i32 %45, 0
  %47 = icmp slt i32 %40, 10
  %48 = and i1 %46, %47
  %49 = xor i1 %46, %47
  %50 = or i1 %48, %49
  %51 = or i1 %46, %47
  br i1 %50, label %52, label %217

; <label>:52:                                     ; preds = %33
  br i1 %38, label %59, label %53

; <label>:53:                                     ; preds = %52
  %54 = load %"class.__gnu_debug::_Safe_iterator.37"*, %"class.__gnu_debug::_Safe_iterator.37"** %4, align 8
  %55 = bitcast %"class.__gnu_debug::_Safe_iterator.37"* %54 to i8*
  %56 = getelementptr inbounds i8, i8* %55, i64 8
  %57 = bitcast i8* %56 to %"class.__gnu_debug::_Safe_iterator_base"*
  %58 = call zeroext i1 @_ZNK11__gnu_debug19_Safe_iterator_base11_M_singularEv(%"class.__gnu_debug::_Safe_iterator_base"* %57) #15
  br i1 %58, label %59, label %111

; <label>:59:                                     ; preds = %53, %52
  %60 = load i32, i32* @x.75
  %61 = load i32, i32* @y.76
  %62 = sub i32 %60, -48828750
  %63 = sub i32 %62, 1
  %64 = add i32 %63, -48828750
  %65 = sub i32 %60, 1
  %66 = mul i32 %60, %64
  %67 = urem i32 %66, 2
  %68 = icmp eq i32 %67, 0
  %69 = icmp slt i32 %61, 10
  %70 = xor i1 %68, true
  %71 = xor i1 %69, true
  %72 = xor i1 true, true
  %73 = and i1 %70, true
  %74 = and i1 %68, %72
  %75 = and i1 %71, true
  %76 = and i1 %69, %72
  %77 = or i1 %73, %74
  %78 = or i1 %75, %76
  %79 = xor i1 %77, %78
  %80 = or i1 %70, %71
  %81 = xor i1 %80, true
  %82 = or i1 true, %72
  %83 = and i1 %81, %82
  %84 = or i1 %79, %83
  %85 = or i1 %68, %69
  br i1 %84, label %86, label %223

; <label>:86:                                     ; preds = %59, %223
  %87 = load i32, i32* @x.75
  %88 = load i32, i32* @y.76
  %89 = sub i32 %87, 1258581309
  %90 = sub i32 %89, 1
  %91 = add i32 %90, 1258581309
  %92 = sub i32 %87, 1
  %93 = mul i32 %87, %91
  %94 = urem i32 %93, 2
  %95 = icmp eq i32 %94, 0
  %96 = icmp slt i32 %88, 10
  %97 = and i1 %95, %96
  %98 = xor i1 %95, %96
  %99 = or i1 %97, %98
  %100 = or i1 %95, %96
  br i1 %99, label %101, label %223

; <label>:101:                                    ; preds = %86
  invoke void @_ZN11__gnu_debug16_Error_formatter5_M_atEPKcm(%"class.__gnu_debug::_Error_formatter"* sret %5, i8* getelementptr inbounds ([88 x i8], [88 x i8]* @.str.4, i32 0, i32 0), i64 584)
          to label %102 unwind label %214

; <label>:102:                                    ; preds = %101
  %103 = call dereferenceable(560) %"class.__gnu_debug::_Error_formatter"* @_ZNK11__gnu_debug16_Error_formatter10_M_messageENS_13_Debug_msg_idE(%"class.__gnu_debug::_Error_formatter"* %5, i32 31) #3
  %104 = load %"class.__gnu_debug::_Safe_iterator.37"*, %"class.__gnu_debug::_Safe_iterator.37"** %3, align 8
  %105 = invoke dereferenceable(560) %"class.__gnu_debug::_Error_formatter"* @_ZNK11__gnu_debug16_Error_formatter11_M_iteratorINS_14_Safe_iteratorIN9__gnu_cxx17__normal_iteratorIPSt4pairIiiENSt9__cxx19986vectorIS6_SaIS6_EEEEENSt7__debug6vectorIS6_SA_EEEEEERKS0_RKT_PKc(%"class.__gnu_debug::_Error_formatter"* %103, %"class.__gnu_debug::_Safe_iterator.37"* dereferenceable(40) %104, i8* getelementptr inbounds ([4 x i8], [4 x i8]* @.str.8, i32 0, i32 0))
          to label %106 unwind label %214

; <label>:106:                                    ; preds = %102
  %107 = load %"class.__gnu_debug::_Safe_iterator.37"*, %"class.__gnu_debug::_Safe_iterator.37"** %4, align 8
  %108 = invoke dereferenceable(560) %"class.__gnu_debug::_Error_formatter"* @_ZNK11__gnu_debug16_Error_formatter11_M_iteratorINS_14_Safe_iteratorIN9__gnu_cxx17__normal_iteratorIPSt4pairIiiENSt9__cxx19986vectorIS6_SaIS6_EEEEENSt7__debug6vectorIS6_SA_EEEEEERKS0_RKT_PKc(%"class.__gnu_debug::_Error_formatter"* %105, %"class.__gnu_debug::_Safe_iterator.37"* dereferenceable(40) %107, i8* getelementptr inbounds ([4 x i8], [4 x i8]* @.str.9, i32 0, i32 0))
          to label %109 unwind label %214

; <label>:109:                                    ; preds = %106
  invoke void @_ZNK11__gnu_debug16_Error_formatter8_M_errorEv(%"class.__gnu_debug::_Error_formatter"* %108) #14
          to label %110 unwind label %214

; <label>:110:                                    ; preds = %109
  unreachable

; <label>:111:                                    ; preds = %53
  br label %112

; <label>:112:                                    ; preds = %111
  br label %113

; <label>:113:                                    ; preds = %112
  %114 = load i32, i32* @x.75
  %115 = load i32, i32* @y.76
  %116 = sub i32 %114, 1789475139
  %117 = sub i32 %116, 1
  %118 = add i32 %117, 1789475139
  %119 = sub i32 %114, 1
  %120 = mul i32 %114, %118
  %121 = urem i32 %120, 2
  %122 = icmp eq i32 %121, 0
  %123 = icmp slt i32 %115, 10
  %124 = and i1 %122, %123
  %125 = xor i1 %122, %123
  %126 = or i1 %124, %125
  %127 = or i1 %122, %123
  br i1 %126, label %128, label %224

; <label>:128:                                    ; preds = %113, %224
  %129 = load i32, i32* @x.75
  %130 = load i32, i32* @y.76
  %131 = sub i32 %129, -940050394
  %132 = sub i32 %131, 1
  %133 = add i32 %132, -940050394
  %134 = sub i32 %129, 1
  %135 = mul i32 %129, %133
  %136 = urem i32 %135, 2
  %137 = icmp eq i32 %136, 0
  %138 = icmp slt i32 %130, 10
  %139 = xor i1 %137, true
  %140 = xor i1 %138, true
  %141 = xor i1 true, true
  %142 = and i1 %139, true
  %143 = and i1 %137, %141
  %144 = and i1 %140, true
  %145 = and i1 %138, %141
  %146 = or i1 %142, %143
  %147 = or i1 %144, %145
  %148 = xor i1 %146, %147
  %149 = or i1 %139, %140
  %150 = xor i1 %149, true
  %151 = or i1 true, %141
  %152 = and i1 %150, %151
  %153 = or i1 %148, %152
  %154 = or i1 %137, %138
  br i1 %153, label %155, label %224

; <label>:155:                                    ; preds = %128
  br label %156

; <label>:156:                                    ; preds = %155
  %157 = load %"class.__gnu_debug::_Safe_iterator.37"*, %"class.__gnu_debug::_Safe_iterator.37"** %3, align 8
  %158 = bitcast %"class.__gnu_debug::_Safe_iterator.37"* %157 to i8*
  %159 = getelementptr inbounds i8, i8* %158, i64 8
  %160 = bitcast i8* %159 to %"class.__gnu_debug::_Safe_iterator_base"*
  %161 = load %"class.__gnu_debug::_Safe_iterator.37"*, %"class.__gnu_debug::_Safe_iterator.37"** %4, align 8
  %162 = bitcast %"class.__gnu_debug::_Safe_iterator.37"* %161 to i8*
  %163 = getelementptr inbounds i8, i8* %162, i64 8
  %164 = bitcast i8* %163 to %"class.__gnu_debug::_Safe_iterator_base"*
  %165 = call zeroext i1 @_ZNK11__gnu_debug19_Safe_iterator_base14_M_can_compareERKS0_(%"class.__gnu_debug::_Safe_iterator_base"* %160, %"class.__gnu_debug::_Safe_iterator_base"* dereferenceable(32) %164) #15
  br i1 %165, label %176, label %166

; <label>:166:                                    ; preds = %156
  invoke void @_ZN11__gnu_debug16_Error_formatter5_M_atEPKcm(%"class.__gnu_debug::_Error_formatter"* sret %6, i8* getelementptr inbounds ([88 x i8], [88 x i8]* @.str.4, i32 0, i32 0), i64 588)
          to label %167 unwind label %214

; <label>:167:                                    ; preds = %166
  %168 = call dereferenceable(560) %"class.__gnu_debug::_Error_formatter"* @_ZNK11__gnu_debug16_Error_formatter10_M_messageENS_13_Debug_msg_idE(%"class.__gnu_debug::_Error_formatter"* %6, i32 32) #3
  %169 = load %"class.__gnu_debug::_Safe_iterator.37"*, %"class.__gnu_debug::_Safe_iterator.37"** %3, align 8
  %170 = invoke dereferenceable(560) %"class.__gnu_debug::_Error_formatter"* @_ZNK11__gnu_debug16_Error_formatter11_M_iteratorINS_14_Safe_iteratorIN9__gnu_cxx17__normal_iteratorIPSt4pairIiiENSt9__cxx19986vectorIS6_SaIS6_EEEEENSt7__debug6vectorIS6_SA_EEEEEERKS0_RKT_PKc(%"class.__gnu_debug::_Error_formatter"* %168, %"class.__gnu_debug::_Safe_iterator.37"* dereferenceable(40) %169, i8* getelementptr inbounds ([4 x i8], [4 x i8]* @.str.8, i32 0, i32 0))
          to label %171 unwind label %214

; <label>:171:                                    ; preds = %167
  %172 = load %"class.__gnu_debug::_Safe_iterator.37"*, %"class.__gnu_debug::_Safe_iterator.37"** %4, align 8
  %173 = invoke dereferenceable(560) %"class.__gnu_debug::_Error_formatter"* @_ZNK11__gnu_debug16_Error_formatter11_M_iteratorINS_14_Safe_iteratorIN9__gnu_cxx17__normal_iteratorIPSt4pairIiiENSt9__cxx19986vectorIS6_SaIS6_EEEEENSt7__debug6vectorIS6_SA_EEEEEERKS0_RKT_PKc(%"class.__gnu_debug::_Error_formatter"* %170, %"class.__gnu_debug::_Safe_iterator.37"* dereferenceable(40) %172, i8* getelementptr inbounds ([4 x i8], [4 x i8]* @.str.9, i32 0, i32 0))
          to label %174 unwind label %214

; <label>:174:                                    ; preds = %171
  invoke void @_ZNK11__gnu_debug16_Error_formatter8_M_errorEv(%"class.__gnu_debug::_Error_formatter"* %173) #14
          to label %175 unwind label %214

; <label>:175:                                    ; preds = %174
  unreachable

; <label>:176:                                    ; preds = %156
  br label %177

; <label>:177:                                    ; preds = %176
  %178 = load i32, i32* @x.75
  %179 = load i32, i32* @y.76
  %180 = add i32 %178, 1979931804
  %181 = sub i32 %180, 1
  %182 = sub i32 %181, 1979931804
  %183 = sub i32 %178, 1
  %184 = mul i32 %178, %182
  %185 = urem i32 %184, 2
  %186 = icmp eq i32 %185, 0
  %187 = icmp slt i32 %179, 10
  %188 = and i1 %186, %187
  %189 = xor i1 %186, %187
  %190 = or i1 %188, %189
  %191 = or i1 %186, %187
  br i1 %190, label %192, label %225

; <label>:192:                                    ; preds = %177, %225
  %193 = load i32, i32* @x.75
  %194 = load i32, i32* @y.76
  %195 = sub i32 %193, -1961658035
  %196 = sub i32 %195, 1
  %197 = add i32 %196, -1961658035
  %198 = sub i32 %193, 1
  %199 = mul i32 %193, %197
  %200 = urem i32 %199, 2
  %201 = icmp eq i32 %200, 0
  %202 = icmp slt i32 %194, 10
  %203 = and i1 %201, %202
  %204 = xor i1 %201, %202
  %205 = or i1 %203, %204
  %206 = or i1 %201, %202
  br i1 %205, label %207, label %225

; <label>:207:                                    ; preds = %192
  br label %208

; <label>:208:                                    ; preds = %207
  %209 = load %"class.__gnu_debug::_Safe_iterator.37"*, %"class.__gnu_debug::_Safe_iterator.37"** %3, align 8
  %210 = call dereferenceable(8) %"class.__gnu_cxx::__normal_iterator.38"* @_ZNK11__gnu_debug14_Safe_iteratorIN9__gnu_cxx17__normal_iteratorIPSt4pairIiiENSt9__cxx19986vectorIS4_SaIS4_EEEEENSt7__debug6vectorIS4_S8_EEE4baseEv(%"class.__gnu_debug::_Safe_iterator.37"* %209) #3
  %211 = load %"class.__gnu_debug::_Safe_iterator.37"*, %"class.__gnu_debug::_Safe_iterator.37"** %4, align 8
  %212 = call dereferenceable(8) %"class.__gnu_cxx::__normal_iterator.38"* @_ZNK11__gnu_debug14_Safe_iteratorIN9__gnu_cxx17__normal_iteratorIPSt4pairIiiENSt9__cxx19986vectorIS4_SaIS4_EEEEENSt7__debug6vectorIS4_S8_EEE4baseEv(%"class.__gnu_debug::_Safe_iterator.37"* %211) #3
  %213 = call zeroext i1 @_ZN9__gnu_cxxneIPSt4pairIiiENSt9__cxx19986vectorIS2_SaIS2_EEEEEbRKNS_17__normal_iteratorIT_T0_EESD_(%"class.__gnu_cxx::__normal_iterator.38"* dereferenceable(8) %210, %"class.__gnu_cxx::__normal_iterator.38"* dereferenceable(8) %212) #3
  ret i1 %213

; <label>:214:                                    ; preds = %174, %171, %167, %166, %109, %106, %102, %101
  %215 = landingpad { i8*, i32 }
          catch i8* null
  %216 = extractvalue { i8*, i32 } %215, 0
  call void @__clang_call_terminate(i8* %216) #13
  unreachable

; <label>:217:                                    ; preds = %33, %7
  %218 = load %"class.__gnu_debug::_Safe_iterator.37"*, %"class.__gnu_debug::_Safe_iterator.37"** %3, align 8
  %219 = bitcast %"class.__gnu_debug::_Safe_iterator.37"* %218 to i8*
  %220 = getelementptr inbounds i8, i8* %219, i64 8
  %221 = bitcast i8* %220 to %"class.__gnu_debug::_Safe_iterator_base"*
  %222 = call zeroext i1 @_ZNK11__gnu_debug19_Safe_iterator_base11_M_singularEv(%"class.__gnu_debug::_Safe_iterator_base"* %221) #15
  br label %33

; <label>:223:                                    ; preds = %86, %59
  br label %86

; <label>:224:                                    ; preds = %128, %113
  br label %128

; <label>:225:                                    ; preds = %192, %177
  br label %192
}

; Function Attrs: noinline nounwind uwtable
define linkonce_odr dereferenceable(8) %"struct.std::pair"* @_ZNK11__gnu_debug14_Safe_iteratorIN9__gnu_cxx17__normal_iteratorIPSt4pairIiiENSt9__cxx19986vectorIS4_SaIS4_EEEEENSt7__debug6vectorIS4_S8_EEEdeEv(%"class.__gnu_debug::_Safe_iterator.37"*) #5 comdat align 2 personality i8* bitcast (i32 (...)* @__gxx_personality_v0 to i8*) {
  %2 = alloca %"class.__gnu_debug::_Safe_iterator.37"*, align 8
  %3 = alloca %"class.__gnu_debug::_Error_formatter", align 8
  store %"class.__gnu_debug::_Safe_iterator.37"* %0, %"class.__gnu_debug::_Safe_iterator.37"** %2, align 8
  %4 = load %"class.__gnu_debug::_Safe_iterator.37"*, %"class.__gnu_debug::_Safe_iterator.37"** %2, align 8
  br label %5

; <label>:5:                                      ; preds = %1
  %6 = load i32, i32* @x.77
  %7 = load i32, i32* @y.78
  %8 = sub i32 0, 1
  %9 = add i32 %6, %8
  %10 = sub i32 %6, 1
  %11 = mul i32 %6, %9
  %12 = urem i32 %11, 2
  %13 = icmp eq i32 %12, 0
  %14 = icmp slt i32 %7, 10
  %15 = and i1 %13, %14
  %16 = xor i1 %13, %14
  %17 = or i1 %15, %16
  %18 = or i1 %13, %14
  br i1 %17, label %19, label %188

; <label>:19:                                     ; preds = %5, %188
  %20 = load i32, i32* @x.77
  %21 = load i32, i32* @y.78
  %22 = sub i32 0, 1
  %23 = add i32 %20, %22
  %24 = sub i32 %20, 1
  %25 = mul i32 %20, %23
  %26 = urem i32 %25, 2
  %27 = icmp eq i32 %26, 0
  %28 = icmp slt i32 %21, 10
  %29 = and i1 %27, %28
  %30 = xor i1 %27, %28
  %31 = or i1 %29, %30
  %32 = or i1 %27, %28
  br i1 %31, label %33, label %188

; <label>:33:                                     ; preds = %19
  %34 = invoke zeroext i1 @_ZNK11__gnu_debug14_Safe_iteratorIN9__gnu_cxx17__normal_iteratorIPSt4pairIiiENSt9__cxx19986vectorIS4_SaIS4_EEEEENSt7__debug6vectorIS4_S8_EEE18_M_dereferenceableEv(%"class.__gnu_debug::_Safe_iterator.37"* %4)
          to label %35 unwind label %185

; <label>:35:                                     ; preds = %33
  br i1 %34, label %84, label %36

; <label>:36:                                     ; preds = %35
  %37 = load i32, i32* @x.77
  %38 = load i32, i32* @y.78
  %39 = sub i32 %37, -2024264795
  %40 = sub i32 %39, 1
  %41 = add i32 %40, -2024264795
  %42 = sub i32 %37, 1
  %43 = mul i32 %37, %41
  %44 = urem i32 %43, 2
  %45 = icmp eq i32 %44, 0
  %46 = icmp slt i32 %38, 10
  %47 = xor i1 %45, true
  %48 = xor i1 %46, true
  %49 = xor i1 false, true
  %50 = and i1 %47, false
  %51 = and i1 %45, %49
  %52 = and i1 %48, false
  %53 = and i1 %46, %49
  %54 = or i1 %50, %51
  %55 = or i1 %52, %53
  %56 = xor i1 %54, %55
  %57 = or i1 %47, %48
  %58 = xor i1 %57, true
  %59 = or i1 false, %49
  %60 = and i1 %58, %59
  %61 = or i1 %56, %60
  %62 = or i1 %45, %46
  br i1 %61, label %63, label %189

; <label>:63:                                     ; preds = %36, %189
  %64 = load i32, i32* @x.77
  %65 = load i32, i32* @y.78
  %66 = add i32 %64, 826503592
  %67 = sub i32 %66, 1
  %68 = sub i32 %67, 826503592
  %69 = sub i32 %64, 1
  %70 = mul i32 %64, %68
  %71 = urem i32 %70, 2
  %72 = icmp eq i32 %71, 0
  %73 = icmp slt i32 %65, 10
  %74 = and i1 %72, %73
  %75 = xor i1 %72, %73
  %76 = or i1 %74, %75
  %77 = or i1 %72, %73
  br i1 %76, label %78, label %189

; <label>:78:                                     ; preds = %63
  invoke void @_ZN11__gnu_debug16_Error_formatter5_M_atEPKcm(%"class.__gnu_debug::_Error_formatter"* sret %3, i8* getelementptr inbounds ([88 x i8], [88 x i8]* @.str.4, i32 0, i32 0), i64 303)
          to label %79 unwind label %185

; <label>:79:                                     ; preds = %78
  %80 = call dereferenceable(560) %"class.__gnu_debug::_Error_formatter"* @_ZNK11__gnu_debug16_Error_formatter10_M_messageENS_13_Debug_msg_idE(%"class.__gnu_debug::_Error_formatter"* %3, i32 25) #3
  %81 = invoke dereferenceable(560) %"class.__gnu_debug::_Error_formatter"* @_ZNK11__gnu_debug16_Error_formatter11_M_iteratorINS_14_Safe_iteratorIN9__gnu_cxx17__normal_iteratorIPSt4pairIiiENSt9__cxx19986vectorIS6_SaIS6_EEEEENSt7__debug6vectorIS6_SA_EEEEEERKS0_RKT_PKc(%"class.__gnu_debug::_Error_formatter"* %80, %"class.__gnu_debug::_Safe_iterator.37"* dereferenceable(40) %4, i8* getelementptr inbounds ([5 x i8], [5 x i8]* @.str.1, i32 0, i32 0))
          to label %82 unwind label %185

; <label>:82:                                     ; preds = %79
  invoke void @_ZNK11__gnu_debug16_Error_formatter8_M_errorEv(%"class.__gnu_debug::_Error_formatter"* %81) #14
          to label %83 unwind label %185

; <label>:83:                                     ; preds = %82
  unreachable

; <label>:84:                                     ; preds = %35
  %85 = load i32, i32* @x.77
  %86 = load i32, i32* @y.78
  %87 = add i32 %85, -1028041892
  %88 = sub i32 %87, 1
  %89 = sub i32 %88, -1028041892
  %90 = sub i32 %85, 1
  %91 = mul i32 %85, %89
  %92 = urem i32 %91, 2
  %93 = icmp eq i32 %92, 0
  %94 = icmp slt i32 %86, 10
  %95 = and i1 %93, %94
  %96 = xor i1 %93, %94
  %97 = or i1 %95, %96
  %98 = or i1 %93, %94
  br i1 %97, label %99, label %190

; <label>:99:                                     ; preds = %84, %190
  %100 = load i32, i32* @x.77
  %101 = load i32, i32* @y.78
  %102 = add i32 %100, 1978916231
  %103 = sub i32 %102, 1
  %104 = sub i32 %103, 1978916231
  %105 = sub i32 %100, 1
  %106 = mul i32 %100, %104
  %107 = urem i32 %106, 2
  %108 = icmp eq i32 %107, 0
  %109 = icmp slt i32 %101, 10
  %110 = xor i1 %108, true
  %111 = xor i1 %109, true
  %112 = xor i1 false, true
  %113 = and i1 %110, false
  %114 = and i1 %108, %112
  %115 = and i1 %111, false
  %116 = and i1 %109, %112
  %117 = or i1 %113, %114
  %118 = or i1 %115, %116
  %119 = xor i1 %117, %118
  %120 = or i1 %110, %111
  %121 = xor i1 %120, true
  %122 = or i1 false, %112
  %123 = and i1 %121, %122
  %124 = or i1 %119, %123
  %125 = or i1 %108, %109
  br i1 %124, label %126, label %190

; <label>:126:                                    ; preds = %99
  br label %127

; <label>:127:                                    ; preds = %126
  br label %128

; <label>:128:                                    ; preds = %127
  %129 = load i32, i32* @x.77
  %130 = load i32, i32* @y.78
  %131 = sub i32 %129, -1830590524
  %132 = sub i32 %131, 1
  %133 = add i32 %132, -1830590524
  %134 = sub i32 %129, 1
  %135 = mul i32 %129, %133
  %136 = urem i32 %135, 2
  %137 = icmp eq i32 %136, 0
  %138 = icmp slt i32 %130, 10
  %139 = xor i1 %137, true
  %140 = xor i1 %138, true
  %141 = xor i1 true, true
  %142 = and i1 %139, true
  %143 = and i1 %137, %141
  %144 = and i1 %140, true
  %145 = and i1 %138, %141
  %146 = or i1 %142, %143
  %147 = or i1 %144, %145
  %148 = xor i1 %146, %147
  %149 = or i1 %139, %140
  %150 = xor i1 %149, true
  %151 = or i1 true, %141
  %152 = and i1 %150, %151
  %153 = or i1 %148, %152
  %154 = or i1 %137, %138
  br i1 %153, label %155, label %191

; <label>:155:                                    ; preds = %128, %191
  %156 = call dereferenceable(8) %"class.__gnu_cxx::__normal_iterator.38"* @_ZNK11__gnu_debug14_Safe_iteratorIN9__gnu_cxx17__normal_iteratorIPSt4pairIiiENSt9__cxx19986vectorIS4_SaIS4_EEEEENSt7__debug6vectorIS4_S8_EEE4baseEv(%"class.__gnu_debug::_Safe_iterator.37"* %4) #3
  %157 = call dereferenceable(8) %"struct.std::pair"* @_ZNK9__gnu_cxx17__normal_iteratorIPSt4pairIiiENSt9__cxx19986vectorIS2_SaIS2_EEEEdeEv(%"class.__gnu_cxx::__normal_iterator.38"* %156) #3
  %158 = load i32, i32* @x.77
  %159 = load i32, i32* @y.78
  %160 = sub i32 %158, -2090182853
  %161 = sub i32 %160, 1
  %162 = add i32 %161, -2090182853
  %163 = sub i32 %158, 1
  %164 = mul i32 %158, %162
  %165 = urem i32 %164, 2
  %166 = icmp eq i32 %165, 0
  %167 = icmp slt i32 %159, 10
  %168 = xor i1 %166, true
  %169 = xor i1 %167, true
  %170 = xor i1 true, true
  %171 = and i1 %168, true
  %172 = and i1 %166, %170
  %173 = and i1 %169, true
  %174 = and i1 %167, %170
  %175 = or i1 %171, %172
  %176 = or i1 %173, %174
  %177 = xor i1 %175, %176
  %178 = or i1 %168, %169
  %179 = xor i1 %178, true
  %180 = or i1 true, %170
  %181 = and i1 %179, %180
  %182 = or i1 %177, %181
  %183 = or i1 %166, %167
  br i1 %182, label %184, label %191

; <label>:184:                                    ; preds = %155
  ret %"struct.std::pair"* %157

; <label>:185:                                    ; preds = %82, %79, %78, %33
  %186 = landingpad { i8*, i32 }
          catch i8* null
  %187 = extractvalue { i8*, i32 } %186, 0
  call void @__clang_call_terminate(i8* %187) #13
  unreachable

; <label>:188:                                    ; preds = %19, %5
  br label %19

; <label>:189:                                    ; preds = %63, %36
  br label %63

; <label>:190:                                    ; preds = %99, %84
  br label %99

; <label>:191:                                    ; preds = %155, %128
  %192 = call dereferenceable(8) %"class.__gnu_cxx::__normal_iterator.38"* @_ZNK11__gnu_debug14_Safe_iteratorIN9__gnu_cxx17__normal_iteratorIPSt4pairIiiENSt9__cxx19986vectorIS4_SaIS4_EEEEENSt7__debug6vectorIS4_S8_EEE4baseEv(%"class.__gnu_debug::_Safe_iterator.37"* %4) #3
  %193 = call dereferenceable(8) %"struct.std::pair"* @_ZNK9__gnu_cxx17__normal_iteratorIPSt4pairIiiENSt9__cxx19986vectorIS2_SaIS2_EEEEdeEv(%"class.__gnu_cxx::__normal_iterator.38"* %192) #3
  br label %155
}

; Function Attrs: argmemonly nounwind
declare void @llvm.memcpy.p0i8.p0i8.i64(i8* nocapture writeonly, i8* nocapture readonly, i64, i32, i1) #6

; Function Attrs: noinline nounwind uwtable
define linkonce_odr dereferenceable(40) %"class.__gnu_debug::_Safe_iterator.37"* @_ZN11__gnu_debug14_Safe_iteratorIN9__gnu_cxx17__normal_iteratorIPSt4pairIiiENSt9__cxx19986vectorIS4_SaIS4_EEEEENSt7__debug6vectorIS4_S8_EEEppEv(%"class.__gnu_debug::_Safe_iterator.37"*) #5 comdat align 2 personality i8* bitcast (i32 (...)* @__gxx_personality_v0 to i8*) {
  %2 = alloca %"class.__gnu_debug::_Safe_iterator.37"*, align 8
  %3 = alloca %"class.__gnu_debug::_Error_formatter", align 8
  %4 = alloca %"class.__gnu_cxx::__scoped_lock", align 8
  store %"class.__gnu_debug::_Safe_iterator.37"* %0, %"class.__gnu_debug::_Safe_iterator.37"** %2, align 8
  %5 = load %"class.__gnu_debug::_Safe_iterator.37"*, %"class.__gnu_debug::_Safe_iterator.37"** %2, align 8
  br label %6

; <label>:6:                                      ; preds = %1
  %7 = load i32, i32* @x.79
  %8 = load i32, i32* @y.80
  %9 = sub i32 0, 1
  %10 = add i32 %7, %9
  %11 = sub i32 %7, 1
  %12 = mul i32 %7, %10
  %13 = urem i32 %12, 2
  %14 = icmp eq i32 %13, 0
  %15 = icmp slt i32 %8, 10
  %16 = and i1 %14, %15
  %17 = xor i1 %14, %15
  %18 = or i1 %16, %17
  %19 = or i1 %14, %15
  br i1 %18, label %20, label %181

; <label>:20:                                     ; preds = %6, %181
  %21 = load i32, i32* @x.79
  %22 = load i32, i32* @y.80
  %23 = sub i32 0, 1
  %24 = add i32 %21, %23
  %25 = sub i32 %21, 1
  %26 = mul i32 %21, %24
  %27 = urem i32 %26, 2
  %28 = icmp eq i32 %27, 0
  %29 = icmp slt i32 %22, 10
  %30 = and i1 %28, %29
  %31 = xor i1 %28, %29
  %32 = or i1 %30, %31
  %33 = or i1 %28, %29
  br i1 %32, label %34, label %181

; <label>:34:                                     ; preds = %20
  %35 = invoke zeroext i1 @_ZNK11__gnu_debug14_Safe_iteratorIN9__gnu_cxx17__normal_iteratorIPSt4pairIiiENSt9__cxx19986vectorIS4_SaIS4_EEEEENSt7__debug6vectorIS4_S8_EEE16_M_incrementableEv(%"class.__gnu_debug::_Safe_iterator.37"* %5)
          to label %36 unwind label %178

; <label>:36:                                     ; preds = %34
  br i1 %35, label %73, label %37

; <label>:37:                                     ; preds = %36
  invoke void @_ZN11__gnu_debug16_Error_formatter5_M_atEPKcm(%"class.__gnu_debug::_Error_formatter"* sret %3, i8* getelementptr inbounds ([88 x i8], [88 x i8]* @.str.4, i32 0, i32 0), i64 331)
          to label %38 unwind label %178

; <label>:38:                                     ; preds = %37
  %39 = load i32, i32* @x.79
  %40 = load i32, i32* @y.80
  %41 = add i32 %39, -1445423042
  %42 = sub i32 %41, 1
  %43 = sub i32 %42, -1445423042
  %44 = sub i32 %39, 1
  %45 = mul i32 %39, %43
  %46 = urem i32 %45, 2
  %47 = icmp eq i32 %46, 0
  %48 = icmp slt i32 %40, 10
  %49 = and i1 %47, %48
  %50 = xor i1 %47, %48
  %51 = or i1 %49, %50
  %52 = or i1 %47, %48
  br i1 %51, label %53, label %182

; <label>:53:                                     ; preds = %38, %182
  %54 = call dereferenceable(560) %"class.__gnu_debug::_Error_formatter"* @_ZNK11__gnu_debug16_Error_formatter10_M_messageENS_13_Debug_msg_idE(%"class.__gnu_debug::_Error_formatter"* %3, i32 26) #3
  %55 = load i32, i32* @x.79
  %56 = load i32, i32* @y.80
  %57 = add i32 %55, -552973797
  %58 = sub i32 %57, 1
  %59 = sub i32 %58, -552973797
  %60 = sub i32 %55, 1
  %61 = mul i32 %55, %59
  %62 = urem i32 %61, 2
  %63 = icmp eq i32 %62, 0
  %64 = icmp slt i32 %56, 10
  %65 = and i1 %63, %64
  %66 = xor i1 %63, %64
  %67 = or i1 %65, %66
  %68 = or i1 %63, %64
  br i1 %67, label %69, label %182

; <label>:69:                                     ; preds = %53
  %70 = invoke dereferenceable(560) %"class.__gnu_debug::_Error_formatter"* @_ZNK11__gnu_debug16_Error_formatter11_M_iteratorINS_14_Safe_iteratorIN9__gnu_cxx17__normal_iteratorIPSt4pairIiiENSt9__cxx19986vectorIS6_SaIS6_EEEEENSt7__debug6vectorIS6_SA_EEEEEERKS0_RKT_PKc(%"class.__gnu_debug::_Error_formatter"* %54, %"class.__gnu_debug::_Safe_iterator.37"* dereferenceable(40) %5, i8* getelementptr inbounds ([5 x i8], [5 x i8]* @.str.1, i32 0, i32 0))
          to label %71 unwind label %178

; <label>:71:                                     ; preds = %69
  invoke void @_ZNK11__gnu_debug16_Error_formatter8_M_errorEv(%"class.__gnu_debug::_Error_formatter"* %70) #14
          to label %72 unwind label %178

; <label>:72:                                     ; preds = %71
  unreachable

; <label>:73:                                     ; preds = %36
  br label %74

; <label>:74:                                     ; preds = %73
  br label %75

; <label>:75:                                     ; preds = %74
  %76 = load i32, i32* @x.79
  %77 = load i32, i32* @y.80
  %78 = add i32 %76, -786454087
  %79 = sub i32 %78, 1
  %80 = sub i32 %79, -786454087
  %81 = sub i32 %76, 1
  %82 = mul i32 %76, %80
  %83 = urem i32 %82, 2
  %84 = icmp eq i32 %83, 0
  %85 = icmp slt i32 %77, 10
  %86 = xor i1 %84, true
  %87 = xor i1 %85, true
  %88 = xor i1 false, true
  %89 = and i1 %86, false
  %90 = and i1 %84, %88
  %91 = and i1 %87, false
  %92 = and i1 %85, %88
  %93 = or i1 %89, %90
  %94 = or i1 %91, %92
  %95 = xor i1 %93, %94
  %96 = or i1 %86, %87
  %97 = xor i1 %96, true
  %98 = or i1 false, %88
  %99 = and i1 %97, %98
  %100 = or i1 %95, %99
  %101 = or i1 %84, %85
  br i1 %100, label %102, label %184

; <label>:102:                                    ; preds = %75, %184
  %103 = bitcast %"class.__gnu_debug::_Safe_iterator.37"* %5 to i8*
  %104 = getelementptr inbounds i8, i8* %103, i64 8
  %105 = bitcast i8* %104 to %"class.__gnu_debug::_Safe_iterator_base"*
  %106 = call dereferenceable(40) %"class.__gnu_cxx::__mutex"* @_ZN11__gnu_debug19_Safe_iterator_base12_M_get_mutexEv(%"class.__gnu_debug::_Safe_iterator_base"* %105) #3
  %107 = load i32, i32* @x.79
  %108 = load i32, i32* @y.80
  %109 = sub i32 0, 1
  %110 = add i32 %107, %109
  %111 = sub i32 %107, 1
  %112 = mul i32 %107, %110
  %113 = urem i32 %112, 2
  %114 = icmp eq i32 %113, 0
  %115 = icmp slt i32 %108, 10
  %116 = and i1 %114, %115
  %117 = xor i1 %114, %115
  %118 = or i1 %116, %117
  %119 = or i1 %114, %115
  br i1 %118, label %120, label %184

; <label>:120:                                    ; preds = %102
  invoke void @_ZN9__gnu_cxx13__scoped_lockC2ERNS_7__mutexE(%"class.__gnu_cxx::__scoped_lock"* %4, %"class.__gnu_cxx::__mutex"* dereferenceable(40) %106)
          to label %121 unwind label %178

; <label>:121:                                    ; preds = %120
  %122 = load i32, i32* @x.79
  %123 = load i32, i32* @y.80
  %124 = add i32 %122, 1678931265
  %125 = sub i32 %124, 1
  %126 = sub i32 %125, 1678931265
  %127 = sub i32 %122, 1
  %128 = mul i32 %122, %126
  %129 = urem i32 %128, 2
  %130 = icmp eq i32 %129, 0
  %131 = icmp slt i32 %123, 10
  %132 = xor i1 %130, true
  %133 = xor i1 %131, true
  %134 = xor i1 false, true
  %135 = and i1 %132, false
  %136 = and i1 %130, %134
  %137 = and i1 %133, false
  %138 = and i1 %131, %134
  %139 = or i1 %135, %136
  %140 = or i1 %137, %138
  %141 = xor i1 %139, %140
  %142 = or i1 %132, %133
  %143 = xor i1 %142, true
  %144 = or i1 false, %134
  %145 = and i1 %143, %144
  %146 = or i1 %141, %145
  %147 = or i1 %130, %131
  br i1 %146, label %148, label %189

; <label>:148:                                    ; preds = %121, %189
  call void @_ZN9__gnu_cxx13__scoped_lockD2Ev(%"class.__gnu_cxx::__scoped_lock"* %4) #3
  %149 = call dereferenceable(8) %"class.__gnu_cxx::__normal_iterator.38"* @_ZN11__gnu_debug14_Safe_iteratorIN9__gnu_cxx17__normal_iteratorIPSt4pairIiiENSt9__cxx19986vectorIS4_SaIS4_EEEEENSt7__debug6vectorIS4_S8_EEE4baseEv(%"class.__gnu_debug::_Safe_iterator.37"* %5) #3
  %150 = call dereferenceable(8) %"class.__gnu_cxx::__normal_iterator.38"* @_ZN9__gnu_cxx17__normal_iteratorIPSt4pairIiiENSt9__cxx19986vectorIS2_SaIS2_EEEEppEv(%"class.__gnu_cxx::__normal_iterator.38"* %149) #3
  %151 = load i32, i32* @x.79
  %152 = load i32, i32* @y.80
  %153 = add i32 %151, 208110783
  %154 = sub i32 %153, 1
  %155 = sub i32 %154, 208110783
  %156 = sub i32 %151, 1
  %157 = mul i32 %151, %155
  %158 = urem i32 %157, 2
  %159 = icmp eq i32 %158, 0
  %160 = icmp slt i32 %152, 10
  %161 = xor i1 %159, true
  %162 = xor i1 %160, true
  %163 = xor i1 true, true
  %164 = and i1 %161, true
  %165 = and i1 %159, %163
  %166 = and i1 %162, true
  %167 = and i1 %160, %163
  %168 = or i1 %164, %165
  %169 = or i1 %166, %167
  %170 = xor i1 %168, %169
  %171 = or i1 %161, %162
  %172 = xor i1 %171, true
  %173 = or i1 true, %163
  %174 = and i1 %172, %173
  %175 = or i1 %170, %174
  %176 = or i1 %159, %160
  br i1 %175, label %177, label %189

; <label>:177:                                    ; preds = %148
  ret %"class.__gnu_debug::_Safe_iterator.37"* %5

; <label>:178:                                    ; preds = %120, %71, %69, %37, %34
  %179 = landingpad { i8*, i32 }
          catch i8* null
  %180 = extractvalue { i8*, i32 } %179, 0
  call void @__clang_call_terminate(i8* %180) #13
  unreachable

; <label>:181:                                    ; preds = %20, %6
  br label %20

; <label>:182:                                    ; preds = %53, %38
  %183 = call dereferenceable(560) %"class.__gnu_debug::_Error_formatter"* @_ZNK11__gnu_debug16_Error_formatter10_M_messageENS_13_Debug_msg_idE(%"class.__gnu_debug::_Error_formatter"* %3, i32 26) #3
  br label %53

; <label>:184:                                    ; preds = %102, %75
  %185 = bitcast %"class.__gnu_debug::_Safe_iterator.37"* %5 to i8*
  %186 = getelementptr inbounds i8, i8* %185, i64 8
  %187 = bitcast i8* %186 to %"class.__gnu_debug::_Safe_iterator_base"*
  %188 = call dereferenceable(40) %"class.__gnu_cxx::__mutex"* @_ZN11__gnu_debug19_Safe_iterator_base12_M_get_mutexEv(%"class.__gnu_debug::_Safe_iterator_base"* %187) #3
  br label %102

; <label>:189:                                    ; preds = %148, %121
  call void @_ZN9__gnu_cxx13__scoped_lockD2Ev(%"class.__gnu_cxx::__scoped_lock"* %4) #3
  %190 = call dereferenceable(8) %"class.__gnu_cxx::__normal_iterator.38"* @_ZN11__gnu_debug14_Safe_iteratorIN9__gnu_cxx17__normal_iteratorIPSt4pairIiiENSt9__cxx19986vectorIS4_SaIS4_EEEEENSt7__debug6vectorIS4_S8_EEE4baseEv(%"class.__gnu_debug::_Safe_iterator.37"* %5) #3
  %191 = call dereferenceable(8) %"class.__gnu_cxx::__normal_iterator.38"* @_ZN9__gnu_cxx17__normal_iteratorIPSt4pairIiiENSt9__cxx19986vectorIS2_SaIS2_EEEEppEv(%"class.__gnu_cxx::__normal_iterator.38"* %190) #3
  br label %148
}

; Function Attrs: noinline nounwind uwtable
define linkonce_odr void @_ZN11__gnu_debug14_Safe_iteratorIN9__gnu_cxx17__normal_iteratorIPSt4pairIiiENSt9__cxx19986vectorIS4_SaIS4_EEEEENSt7__debug6vectorIS4_S8_EEED2Ev(%"class.__gnu_debug::_Safe_iterator.37"*) unnamed_addr #5 comdat align 2 {
  %2 = alloca %"class.__gnu_debug::_Safe_iterator.37"*, align 8
  store %"class.__gnu_debug::_Safe_iterator.37"* %0, %"class.__gnu_debug::_Safe_iterator.37"** %2, align 8
  %3 = load %"class.__gnu_debug::_Safe_iterator.37"*, %"class.__gnu_debug::_Safe_iterator.37"** %2, align 8
  %4 = bitcast %"class.__gnu_debug::_Safe_iterator.37"* %3 to i8*
  %5 = getelementptr inbounds i8, i8* %4, i64 8
  %6 = bitcast i8* %5 to %"class.__gnu_debug::_Safe_iterator_base"*
  call void @_ZN11__gnu_debug19_Safe_iterator_baseD2Ev(%"class.__gnu_debug::_Safe_iterator_base"* %6) #3
  ret void
}

; Function Attrs: noinline nounwind uwtable
define linkonce_odr dereferenceable(56) %"class.std::__debug::vector"* @_ZNSt7__debug6vectorINS0_IiSaIiEEESaIS2_EEixEm(%"class.std::__debug::vector.22"*, i64) #5 comdat align 2 personality i8* bitcast (i32 (...)* @__gxx_personality_v0 to i8*) {
  %3 = load i32, i32* @x.83
  %4 = load i32, i32* @y.84
  %5 = add i32 %3, -1157035584
  %6 = sub i32 %5, 1
  %7 = sub i32 %6, -1157035584
  %8 = sub i32 %3, 1
  %9 = mul i32 %3, %7
  %10 = urem i32 %9, 2
  %11 = icmp eq i32 %10, 0
  %12 = icmp slt i32 %4, 10
  %13 = and i1 %11, %12
  %14 = xor i1 %11, %12
  %15 = or i1 %13, %14
  %16 = or i1 %11, %12
  br i1 %15, label %17, label %244

; <label>:17:                                     ; preds = %2, %244
  %18 = alloca %"class.std::__debug::vector.22"*, align 8
  %19 = alloca i64, align 8
  %20 = alloca %"class.__gnu_debug::_Error_formatter", align 8
  store %"class.std::__debug::vector.22"* %0, %"class.std::__debug::vector.22"** %18, align 8
  store i64 %1, i64* %19, align 8
  %21 = load %"class.std::__debug::vector.22"*, %"class.std::__debug::vector.22"** %18, align 8
  %22 = load i32, i32* @x.83
  %23 = load i32, i32* @y.84
  %24 = sub i32 %22, -806153113
  %25 = sub i32 %24, 1
  %26 = add i32 %25, -806153113
  %27 = sub i32 %22, 1
  %28 = mul i32 %22, %26
  %29 = urem i32 %28, 2
  %30 = icmp eq i32 %29, 0
  %31 = icmp slt i32 %23, 10
  %32 = and i1 %30, %31
  %33 = xor i1 %30, %31
  %34 = or i1 %32, %33
  %35 = or i1 %30, %31
  br i1 %34, label %36, label %244

; <label>:36:                                     ; preds = %17
  br label %37

; <label>:37:                                     ; preds = %36
  %38 = load i64, i64* %19, align 8
  %39 = bitcast %"class.std::__debug::vector.22"* %21 to i8*
  %40 = getelementptr inbounds i8, i8* %39, i64 24
  %41 = bitcast i8* %40 to %"class.std::__cxx1998::vector.27"*
  %42 = call i64 @_ZNKSt9__cxx19986vectorINSt7__debug6vectorIiSaIiEEESaIS4_EE4sizeEv(%"class.std::__cxx1998::vector.27"* %41) #3
  %43 = icmp ult i64 %38, %42
  br i1 %43, label %181, label %44

; <label>:44:                                     ; preds = %37
  %45 = load i32, i32* @x.83
  %46 = load i32, i32* @y.84
  %47 = sub i32 0, 1
  %48 = add i32 %45, %47
  %49 = sub i32 %45, 1
  %50 = mul i32 %45, %48
  %51 = urem i32 %50, 2
  %52 = icmp eq i32 %51, 0
  %53 = icmp slt i32 %46, 10
  %54 = xor i1 %52, true
  %55 = xor i1 %53, true
  %56 = xor i1 true, true
  %57 = and i1 %54, true
  %58 = and i1 %52, %56
  %59 = and i1 %55, true
  %60 = and i1 %53, %56
  %61 = or i1 %57, %58
  %62 = or i1 %59, %60
  %63 = xor i1 %61, %62
  %64 = or i1 %54, %55
  %65 = xor i1 %64, true
  %66 = or i1 true, %56
  %67 = and i1 %65, %66
  %68 = or i1 %63, %67
  %69 = or i1 %52, %53
  br i1 %68, label %70, label %249

; <label>:70:                                     ; preds = %44, %249
  %71 = load i32, i32* @x.83
  %72 = load i32, i32* @y.84
  %73 = add i32 %71, 257878638
  %74 = sub i32 %73, 1
  %75 = sub i32 %74, 257878638
  %76 = sub i32 %71, 1
  %77 = mul i32 %71, %75
  %78 = urem i32 %77, 2
  %79 = icmp eq i32 %78, 0
  %80 = icmp slt i32 %72, 10
  %81 = and i1 %79, %80
  %82 = xor i1 %79, %80
  %83 = or i1 %81, %82
  %84 = or i1 %79, %80
  br i1 %83, label %85, label %249

; <label>:85:                                     ; preds = %70
  invoke void @_ZN11__gnu_debug16_Error_formatter5_M_atEPKcm(%"class.__gnu_debug::_Error_formatter"* sret %20, i8* getelementptr inbounds ([79 x i8], [79 x i8]* @.str, i32 0, i32 0), i64 409)
          to label %86 unwind label %241

; <label>:86:                                     ; preds = %85
  %87 = call dereferenceable(560) %"class.__gnu_debug::_Error_formatter"* @_ZNK11__gnu_debug16_Error_formatter10_M_messageENS_13_Debug_msg_idE(%"class.__gnu_debug::_Error_formatter"* %20, i32 5) #3
  %88 = invoke dereferenceable(560) %"class.__gnu_debug::_Error_formatter"* @_ZNK11__gnu_debug16_Error_formatter11_M_sequenceINSt7__debug6vectorINS3_IiSaIiEEESaIS5_EEEEERKS0_RKT_PKc(%"class.__gnu_debug::_Error_formatter"* %87, %"class.std::__debug::vector.22"* dereferenceable(56) %21, i8* getelementptr inbounds ([5 x i8], [5 x i8]* @.str.1, i32 0, i32 0))
          to label %89 unwind label %241

; <label>:89:                                     ; preds = %86
  %90 = load i32, i32* @x.83
  %91 = load i32, i32* @y.84
  %92 = sub i32 0, 1
  %93 = add i32 %90, %92
  %94 = sub i32 %90, 1
  %95 = mul i32 %90, %93
  %96 = urem i32 %95, 2
  %97 = icmp eq i32 %96, 0
  %98 = icmp slt i32 %91, 10
  %99 = and i1 %97, %98
  %100 = xor i1 %97, %98
  %101 = or i1 %99, %100
  %102 = or i1 %97, %98
  br i1 %101, label %103, label %250

; <label>:103:                                    ; preds = %89, %250
  %104 = load i64, i64* %19, align 8
  %105 = load i32, i32* @x.83
  %106 = load i32, i32* @y.84
  %107 = sub i32 0, 1
  %108 = add i32 %105, %107
  %109 = sub i32 %105, 1
  %110 = mul i32 %105, %108
  %111 = urem i32 %110, 2
  %112 = icmp eq i32 %111, 0
  %113 = icmp slt i32 %106, 10
  %114 = and i1 %112, %113
  %115 = xor i1 %112, %113
  %116 = or i1 %114, %115
  %117 = or i1 %112, %113
  br i1 %116, label %118, label %250

; <label>:118:                                    ; preds = %103
  %119 = invoke dereferenceable(560) %"class.__gnu_debug::_Error_formatter"* @_ZNK11__gnu_debug16_Error_formatter10_M_integerElPKc(%"class.__gnu_debug::_Error_formatter"* %88, i64 %104, i8* getelementptr inbounds ([4 x i8], [4 x i8]* @.str.2, i32 0, i32 0))
          to label %120 unwind label %241

; <label>:120:                                    ; preds = %118
  %121 = bitcast %"class.std::__debug::vector.22"* %21 to i8*
  %122 = getelementptr inbounds i8, i8* %121, i64 24
  %123 = bitcast i8* %122 to %"class.std::__cxx1998::vector.27"*
  %124 = call i64 @_ZNKSt9__cxx19986vectorINSt7__debug6vectorIiSaIiEEESaIS4_EE4sizeEv(%"class.std::__cxx1998::vector.27"* %123) #3
  %125 = invoke dereferenceable(560) %"class.__gnu_debug::_Error_formatter"* @_ZNK11__gnu_debug16_Error_formatter10_M_integerElPKc(%"class.__gnu_debug::_Error_formatter"* %119, i64 %124, i8* getelementptr inbounds ([5 x i8], [5 x i8]* @.str.3, i32 0, i32 0))
          to label %126 unwind label %241

; <label>:126:                                    ; preds = %120
  %127 = load i32, i32* @x.83
  %128 = load i32, i32* @y.84
  %129 = sub i32 %127, 1588567659
  %130 = sub i32 %129, 1
  %131 = add i32 %130, 1588567659
  %132 = sub i32 %127, 1
  %133 = mul i32 %127, %131
  %134 = urem i32 %133, 2
  %135 = icmp eq i32 %134, 0
  %136 = icmp slt i32 %128, 10
  %137 = xor i1 %135, true
  %138 = xor i1 %136, true
  %139 = xor i1 true, true
  %140 = and i1 %137, true
  %141 = and i1 %135, %139
  %142 = and i1 %138, true
  %143 = and i1 %136, %139
  %144 = or i1 %140, %141
  %145 = or i1 %142, %143
  %146 = xor i1 %144, %145
  %147 = or i1 %137, %138
  %148 = xor i1 %147, true
  %149 = or i1 true, %139
  %150 = and i1 %148, %149
  %151 = or i1 %146, %150
  %152 = or i1 %135, %136
  br i1 %151, label %153, label %252

; <label>:153:                                    ; preds = %126, %252
  %154 = load i32, i32* @x.83
  %155 = load i32, i32* @y.84
  %156 = sub i32 0, 1
  %157 = add i32 %154, %156
  %158 = sub i32 %154, 1
  %159 = mul i32 %154, %157
  %160 = urem i32 %159, 2
  %161 = icmp eq i32 %160, 0
  %162 = icmp slt i32 %155, 10
  %163 = xor i1 %161, true
  %164 = xor i1 %162, true
  %165 = xor i1 false, true
  %166 = and i1 %163, false
  %167 = and i1 %161, %165
  %168 = and i1 %164, false
  %169 = and i1 %162, %165
  %170 = or i1 %166, %167
  %171 = or i1 %168, %169
  %172 = xor i1 %170, %171
  %173 = or i1 %163, %164
  %174 = xor i1 %173, true
  %175 = or i1 false, %165
  %176 = and i1 %174, %175
  %177 = or i1 %172, %176
  %178 = or i1 %161, %162
  br i1 %177, label %179, label %252

; <label>:179:                                    ; preds = %153
  invoke void @_ZNK11__gnu_debug16_Error_formatter8_M_errorEv(%"class.__gnu_debug::_Error_formatter"* %125) #14
          to label %180 unwind label %241

; <label>:180:                                    ; preds = %179
  unreachable

; <label>:181:                                    ; preds = %37
  br label %182

; <label>:182:                                    ; preds = %181
  %183 = load i32, i32* @x.83
  %184 = load i32, i32* @y.84
  %185 = add i32 %183, 707868482
  %186 = sub i32 %185, 1
  %187 = sub i32 %186, 707868482
  %188 = sub i32 %183, 1
  %189 = mul i32 %183, %187
  %190 = urem i32 %189, 2
  %191 = icmp eq i32 %190, 0
  %192 = icmp slt i32 %184, 10
  %193 = xor i1 %191, true
  %194 = xor i1 %192, true
  %195 = xor i1 true, true
  %196 = and i1 %193, true
  %197 = and i1 %191, %195
  %198 = and i1 %194, true
  %199 = and i1 %192, %195
  %200 = or i1 %196, %197
  %201 = or i1 %198, %199
  %202 = xor i1 %200, %201
  %203 = or i1 %193, %194
  %204 = xor i1 %203, true
  %205 = or i1 true, %195
  %206 = and i1 %204, %205
  %207 = or i1 %202, %206
  %208 = or i1 %191, %192
  br i1 %207, label %209, label %253

; <label>:209:                                    ; preds = %182, %253
  %210 = load i32, i32* @x.83
  %211 = load i32, i32* @y.84
  %212 = add i32 %210, -1208727576
  %213 = sub i32 %212, 1
  %214 = sub i32 %213, -1208727576
  %215 = sub i32 %210, 1
  %216 = mul i32 %210, %214
  %217 = urem i32 %216, 2
  %218 = icmp eq i32 %217, 0
  %219 = icmp slt i32 %211, 10
  %220 = xor i1 %218, true
  %221 = xor i1 %219, true
  %222 = xor i1 true, true
  %223 = and i1 %220, true
  %224 = and i1 %218, %222
  %225 = and i1 %221, true
  %226 = and i1 %219, %222
  %227 = or i1 %223, %224
  %228 = or i1 %225, %226
  %229 = xor i1 %227, %228
  %230 = or i1 %220, %221
  %231 = xor i1 %230, true
  %232 = or i1 true, %222
  %233 = and i1 %231, %232
  %234 = or i1 %229, %233
  %235 = or i1 %218, %219
  br i1 %234, label %236, label %253

; <label>:236:                                    ; preds = %209
  br label %237

; <label>:237:                                    ; preds = %236
  %238 = call dereferenceable(24) %"class.std::__cxx1998::vector.27"* @_ZNSt7__debug6vectorINS0_IiSaIiEEESaIS2_EE7_M_baseEv(%"class.std::__debug::vector.22"* %21) #3
  %239 = load i64, i64* %19, align 8
  %240 = call dereferenceable(56) %"class.std::__debug::vector"* @_ZNSt9__cxx19986vectorINSt7__debug6vectorIiSaIiEEESaIS4_EEixEm(%"class.std::__cxx1998::vector.27"* %238, i64 %239) #3
  ret %"class.std::__debug::vector"* %240

; <label>:241:                                    ; preds = %179, %120, %118, %86, %85
  %242 = landingpad { i8*, i32 }
          catch i8* null
  %243 = extractvalue { i8*, i32 } %242, 0
  call void @__clang_call_terminate(i8* %243) #13
  unreachable

; <label>:244:                                    ; preds = %17, %2
  %245 = alloca %"class.std::__debug::vector.22"*, align 8
  %246 = alloca i64, align 8
  %247 = alloca %"class.__gnu_debug::_Error_formatter", align 8
  store %"class.std::__debug::vector.22"* %0, %"class.std::__debug::vector.22"** %245, align 8
  store i64 %1, i64* %246, align 8
  %248 = load %"class.std::__debug::vector.22"*, %"class.std::__debug::vector.22"** %245, align 8
  br label %17

; <label>:249:                                    ; preds = %70, %44
  br label %70

; <label>:250:                                    ; preds = %103, %89
  %251 = load i64, i64* %19, align 8
  br label %103

; <label>:252:                                    ; preds = %153, %126
  br label %153

; <label>:253:                                    ; preds = %209, %182
  br label %209
}

; Function Attrs: noinline nounwind uwtable
define linkonce_odr void @_ZNSt5queueIiNSt7__debug5dequeIiSaIiEEEED2Ev(%"class.std::queue"*) unnamed_addr #5 comdat align 2 {
  %2 = alloca i1
  %3 = alloca i1
  %4 = load i32, i32* @x.85
  %5 = load i32, i32* @y.86
  %6 = add i32 %4, -809018511
  %7 = sub i32 %6, 1
  %8 = sub i32 %7, -809018511
  %9 = sub i32 %4, 1
  %10 = mul i32 %4, %8
  %11 = urem i32 %10, 2
  %12 = icmp eq i32 %11, 0
  store i1 %12, i1* %3
  %13 = icmp slt i32 %5, 10
  store i1 %13, i1* %2
  %14 = alloca i32
  store i32 818895084, i32* %14
  br label %15

; <label>:15:                                     ; preds = %1, %62
  %16 = load i32, i32* %14
  switch i32 %16, label %17 [
    i32 818895084, label %18
    i32 489180503, label %38
    i32 -1732932117, label %57
    i32 1335889893, label %58
  ]

; <label>:17:                                     ; preds = %15
  br label %62

; <label>:18:                                     ; preds = %15
  %19 = load volatile i1, i1* %3
  %20 = load volatile i1, i1* %2
  %21 = xor i1 %19, true
  %22 = xor i1 %20, true
  %23 = xor i1 false, true
  %24 = and i1 %21, false
  %25 = and i1 %19, %23
  %26 = and i1 %22, false
  %27 = and i1 %20, %23
  %28 = or i1 %24, %25
  %29 = or i1 %26, %27
  %30 = xor i1 %28, %29
  %31 = or i1 %21, %22
  %32 = xor i1 %31, true
  %33 = or i1 false, %23
  %34 = and i1 %32, %33
  %35 = or i1 %30, %34
  %36 = or i1 %19, %20
  %37 = select i1 %35, i32 489180503, i32 1335889893
  store i32 %37, i32* %14
  br label %62

; <label>:38:                                     ; preds = %15
  %39 = alloca %"class.std::queue"*, align 8
  store %"class.std::queue"* %0, %"class.std::queue"** %39, align 8
  %40 = load %"class.std::queue"*, %"class.std::queue"** %39, align 8
  %41 = getelementptr inbounds %"class.std::queue", %"class.std::queue"* %40, i32 0, i32 0
  call void @_ZNSt7__debug5dequeIiSaIiEED2Ev(%"class.std::__debug::deque"* %41) #3
  %42 = load i32, i32* @x.85
  %43 = load i32, i32* @y.86
  %44 = add i32 %42, 245046406
  %45 = sub i32 %44, 1
  %46 = sub i32 %45, 245046406
  %47 = sub i32 %42, 1
  %48 = mul i32 %42, %46
  %49 = urem i32 %48, 2
  %50 = icmp eq i32 %49, 0
  %51 = icmp slt i32 %43, 10
  %52 = and i1 %50, %51
  %53 = xor i1 %50, %51
  %54 = or i1 %52, %53
  %55 = or i1 %50, %51
  %56 = select i1 %54, i32 -1732932117, i32 1335889893
  store i32 %56, i32* %14
  br label %62

; <label>:57:                                     ; preds = %15
  ret void

; <label>:58:                                     ; preds = %15
  %59 = alloca %"class.std::queue"*, align 8
  store %"class.std::queue"* %0, %"class.std::queue"** %59, align 8
  %60 = load %"class.std::queue"*, %"class.std::queue"** %59, align 8
  %61 = getelementptr inbounds %"class.std::queue", %"class.std::queue"* %60, i32 0, i32 0
  call void @_ZNSt7__debug5dequeIiSaIiEED2Ev(%"class.std::__debug::deque"* %61) #3
  store i32 489180503, i32* %14
  br label %62

; <label>:62:                                     ; preds = %58, %38, %18, %17
  br label %15
}

; Function Attrs: noinline nounwind uwtable
define linkonce_odr dereferenceable(4) i32* @_ZSt3minIiERKT_S2_S2_(i32* dereferenceable(4), i32* dereferenceable(4)) #5 comdat {
  %3 = alloca i1
  %4 = alloca i32**
  %5 = alloca i32**
  %6 = alloca i32**
  %7 = alloca i1
  %8 = alloca i1
  %9 = load i32, i32* @x.87
  %10 = load i32, i32* @y.88
  %11 = add i32 %9, -497779083
  %12 = sub i32 %11, 1
  %13 = sub i32 %12, -497779083
  %14 = sub i32 %9, 1
  %15 = mul i32 %9, %13
  %16 = urem i32 %15, 2
  %17 = icmp eq i32 %16, 0
  store i1 %17, i1* %8
  %18 = icmp slt i32 %10, 10
  store i1 %18, i1* %7
  %19 = alloca i32
  store i32 -610191538, i32* %19
  br label %20

; <label>:20:                                     ; preds = %2, %118
  %21 = load i32, i32* %19
  switch i32 %21, label %22 [
    i32 -610191538, label %23
    i32 75788288, label %31
    i32 551437640, label %59
    i32 1743850294, label %62
    i32 -35712457, label %78
    i32 -661489782, label %97
    i32 -892366493, label %98
    i32 -695590250, label %102
    i32 -1762682287, label %105
    i32 955157834, label %114
  ]

; <label>:22:                                     ; preds = %20
  br label %118

; <label>:23:                                     ; preds = %20
  %24 = load volatile i1, i1* %8
  %25 = load volatile i1, i1* %7
  %26 = and i1 %24, %25
  %27 = xor i1 %24, %25
  %28 = or i1 %26, %27
  %29 = or i1 %24, %25
  %30 = select i1 %28, i32 75788288, i32 -1762682287
  store i32 %30, i32* %19
  br label %118

; <label>:31:                                     ; preds = %20
  %32 = alloca i32*, align 8
  store i32** %32, i32*** %6
  %33 = alloca i32*, align 8
  store i32** %33, i32*** %5
  %34 = alloca i32*, align 8
  store i32** %34, i32*** %4
  %35 = load volatile i32**, i32*** %5
  store i32* %0, i32** %35, align 8
  %36 = load volatile i32**, i32*** %4
  store i32* %1, i32** %36, align 8
  %37 = load volatile i32**, i32*** %4
  %38 = load i32*, i32** %37, align 8
  %39 = load i32, i32* %38, align 4
  %40 = load volatile i32**, i32*** %5
  %41 = load i32*, i32** %40, align 8
  %42 = load i32, i32* %41, align 4
  %43 = icmp slt i32 %39, %42
  store i1 %43, i1* %3
  %44 = load i32, i32* @x.87
  %45 = load i32, i32* @y.88
  %46 = add i32 %44, 223285822
  %47 = sub i32 %46, 1
  %48 = sub i32 %47, 223285822
  %49 = sub i32 %44, 1
  %50 = mul i32 %44, %48
  %51 = urem i32 %50, 2
  %52 = icmp eq i32 %51, 0
  %53 = icmp slt i32 %45, 10
  %54 = and i1 %52, %53
  %55 = xor i1 %52, %53
  %56 = or i1 %54, %55
  %57 = or i1 %52, %53
  %58 = select i1 %56, i32 551437640, i32 -1762682287
  store i32 %58, i32* %19
  br label %118

; <label>:59:                                     ; preds = %20
  %60 = load volatile i1, i1* %3
  %61 = select i1 %60, i32 1743850294, i32 -892366493
  store i32 %61, i32* %19
  br label %118

; <label>:62:                                     ; preds = %20
  %63 = load i32, i32* @x.87
  %64 = load i32, i32* @y.88
  %65 = add i32 %63, 1220100424
  %66 = sub i32 %65, 1
  %67 = sub i32 %66, 1220100424
  %68 = sub i32 %63, 1
  %69 = mul i32 %63, %67
  %70 = urem i32 %69, 2
  %71 = icmp eq i32 %70, 0
  %72 = icmp slt i32 %64, 10
  %73 = and i1 %71, %72
  %74 = xor i1 %71, %72
  %75 = or i1 %73, %74
  %76 = or i1 %71, %72
  %77 = select i1 %75, i32 -35712457, i32 955157834
  store i32 %77, i32* %19
  br label %118

; <label>:78:                                     ; preds = %20
  %79 = load volatile i32**, i32*** %4
  %80 = load i32*, i32** %79, align 8
  %81 = load volatile i32**, i32*** %6
  store i32* %80, i32** %81, align 8
  %82 = load i32, i32* @x.87
  %83 = load i32, i32* @y.88
  %84 = sub i32 %82, 1915459777
  %85 = sub i32 %84, 1
  %86 = add i32 %85, 1915459777
  %87 = sub i32 %82, 1
  %88 = mul i32 %82, %86
  %89 = urem i32 %88, 2
  %90 = icmp eq i32 %89, 0
  %91 = icmp slt i32 %83, 10
  %92 = and i1 %90, %91
  %93 = xor i1 %90, %91
  %94 = or i1 %92, %93
  %95 = or i1 %90, %91
  %96 = select i1 %94, i32 -661489782, i32 955157834
  store i32 %96, i32* %19
  br label %118

; <label>:97:                                     ; preds = %20
  store i32 -695590250, i32* %19
  br label %118

; <label>:98:                                     ; preds = %20
  %99 = load volatile i32**, i32*** %5
  %100 = load i32*, i32** %99, align 8
  %101 = load volatile i32**, i32*** %6
  store i32* %100, i32** %101, align 8
  store i32 -695590250, i32* %19
  br label %118

; <label>:102:                                    ; preds = %20
  %103 = load volatile i32**, i32*** %6
  %104 = load i32*, i32** %103, align 8
  ret i32* %104

; <label>:105:                                    ; preds = %20
  %106 = alloca i32*, align 8
  %107 = alloca i32*, align 8
  %108 = alloca i32*, align 8
  store i32* %0, i32** %107, align 8
  store i32* %1, i32** %108, align 8
  %109 = load i32*, i32** %108, align 8
  %110 = load i32, i32* %109, align 4
  %111 = load i32*, i32** %107, align 8
  %112 = load i32, i32* %111, align 4
  %113 = icmp slt i32 %110, %112
  store i32 75788288, i32* %19
  br label %118

; <label>:114:                                    ; preds = %20
  %115 = load volatile i32**, i32*** %4
  %116 = load i32*, i32** %115, align 8
  %117 = load volatile i32**, i32*** %6
  store i32* %116, i32** %117, align 8
  store i32 -35712457, i32* %19
  br label %118

; <label>:118:                                    ; preds = %114, %105, %98, %97, %78, %62, %59, %31, %23, %22
  br label %20
}

; Function Attrs: noinline uwtable
define linkonce_odr zeroext i1 @_ZSt16next_permutationIN11__gnu_debug14_Safe_iteratorIN9__gnu_cxx17__normal_iteratorIPiNSt9__cxx19986vectorIiSaIiEEEEENSt7__debug6vectorIiS7_EEEEEbT_SE_(%"class.__gnu_debug::_Safe_iterator"*, %"class.__gnu_debug::_Safe_iterator"*) #0 comdat personality i8* bitcast (i32 (...)* @__gxx_personality_v0 to i8*) {
  %3 = load i32, i32* @x.89
  %4 = load i32, i32* @y.90
  %5 = sub i32 %3, -1524588162
  %6 = sub i32 %5, 1
  %7 = add i32 %6, -1524588162
  %8 = sub i32 %3, 1
  %9 = mul i32 %3, %7
  %10 = urem i32 %9, 2
  %11 = icmp eq i32 %10, 0
  %12 = icmp slt i32 %4, 10
  %13 = xor i1 %11, true
  %14 = xor i1 %12, true
  %15 = xor i1 true, true
  %16 = and i1 %13, true
  %17 = and i1 %11, %15
  %18 = and i1 %14, true
  %19 = and i1 %12, %15
  %20 = or i1 %16, %17
  %21 = or i1 %18, %19
  %22 = xor i1 %20, %21
  %23 = or i1 %13, %14
  %24 = xor i1 %23, true
  %25 = or i1 true, %15
  %26 = and i1 %24, %25
  %27 = or i1 %22, %26
  %28 = or i1 %11, %12
  br i1 %27, label %29, label %180

; <label>:29:                                     ; preds = %2, %180
  %30 = alloca %"class.__gnu_debug::_Error_formatter", align 8
  %31 = alloca %"class.__gnu_debug::_Safe_iterator", align 8
  %32 = alloca %"class.__gnu_debug::_Safe_iterator", align 8
  %33 = alloca %"struct.__gnu_cxx::__ops::_Iter_less_iter", align 1
  %34 = alloca i8*
  %35 = alloca i32
  %36 = alloca %"struct.__gnu_cxx::__ops::_Iter_less_iter", align 1
  %37 = load i32, i32* @x.89
  %38 = load i32, i32* @y.90
  %39 = add i32 %37, 932736702
  %40 = sub i32 %39, 1
  %41 = sub i32 %40, 932736702
  %42 = sub i32 %37, 1
  %43 = mul i32 %37, %41
  %44 = urem i32 %43, 2
  %45 = icmp eq i32 %44, 0
  %46 = icmp slt i32 %38, 10
  %47 = xor i1 %45, true
  %48 = xor i1 %46, true
  %49 = xor i1 true, true
  %50 = and i1 %47, true
  %51 = and i1 %45, %49
  %52 = and i1 %48, true
  %53 = and i1 %46, %49
  %54 = or i1 %50, %51
  %55 = or i1 %52, %53
  %56 = xor i1 %54, %55
  %57 = or i1 %47, %48
  %58 = xor i1 %57, true
  %59 = or i1 true, %49
  %60 = and i1 %58, %59
  %61 = or i1 %56, %60
  %62 = or i1 %45, %46
  br i1 %61, label %63, label %180

; <label>:63:                                     ; preds = %29
  br label %64

; <label>:64:                                     ; preds = %63
  %65 = call zeroext i1 @_ZN11__gnu_debug13__valid_rangeIN9__gnu_cxx17__normal_iteratorIPiNSt9__cxx19986vectorIiSaIiEEEEENSt7__debug6vectorIiS6_EEEEbRKNS_14_Safe_iteratorIT_T0_EESH_(%"class.__gnu_debug::_Safe_iterator"* dereferenceable(40) %0, %"class.__gnu_debug::_Safe_iterator"* dereferenceable(40) %1)
  br i1 %65, label %70, label %66

; <label>:66:                                     ; preds = %64
  call void @_ZN11__gnu_debug16_Error_formatter5_M_atEPKcm(%"class.__gnu_debug::_Error_formatter"* sret %30, i8* getelementptr inbounds ([82 x i8], [82 x i8]* @.str.5, i32 0, i32 0), i64 2965)
  %67 = call dereferenceable(560) %"class.__gnu_debug::_Error_formatter"* @_ZNK11__gnu_debug16_Error_formatter10_M_messageENS_13_Debug_msg_idE(%"class.__gnu_debug::_Error_formatter"* %30, i32 0) #3
  %68 = call dereferenceable(560) %"class.__gnu_debug::_Error_formatter"* @_ZNK11__gnu_debug16_Error_formatter11_M_iteratorINS_14_Safe_iteratorIN9__gnu_cxx17__normal_iteratorIPiNSt9__cxx19986vectorIiSaIiEEEEENSt7__debug6vectorIiS8_EEEEEERKS0_RKT_PKc(%"class.__gnu_debug::_Error_formatter"* %67, %"class.__gnu_debug::_Safe_iterator"* dereferenceable(40) %0, i8* getelementptr inbounds ([8 x i8], [8 x i8]* @.str.6, i32 0, i32 0))
  %69 = call dereferenceable(560) %"class.__gnu_debug::_Error_formatter"* @_ZNK11__gnu_debug16_Error_formatter11_M_iteratorINS_14_Safe_iteratorIN9__gnu_cxx17__normal_iteratorIPiNSt9__cxx19986vectorIiSaIiEEEEENSt7__debug6vectorIiS8_EEEEEERKS0_RKT_PKc(%"class.__gnu_debug::_Error_formatter"* %68, %"class.__gnu_debug::_Safe_iterator"* dereferenceable(40) %1, i8* getelementptr inbounds ([7 x i8], [7 x i8]* @.str.7, i32 0, i32 0))
  call void @_ZNK11__gnu_debug16_Error_formatter8_M_errorEv(%"class.__gnu_debug::_Error_formatter"* %69) #14
  unreachable

; <label>:70:                                     ; preds = %64
  br label %71

; <label>:71:                                     ; preds = %70
  %72 = load i32, i32* @x.89
  %73 = load i32, i32* @y.90
  %74 = sub i32 %72, -1821382884
  %75 = sub i32 %74, 1
  %76 = add i32 %75, -1821382884
  %77 = sub i32 %72, 1
  %78 = mul i32 %72, %76
  %79 = urem i32 %78, 2
  %80 = icmp eq i32 %79, 0
  %81 = icmp slt i32 %73, 10
  %82 = and i1 %80, %81
  %83 = xor i1 %80, %81
  %84 = or i1 %82, %83
  %85 = or i1 %80, %81
  br i1 %84, label %86, label %188

; <label>:86:                                     ; preds = %71, %188
  call void @_ZN11__gnu_debug14_Safe_iteratorIN9__gnu_cxx17__normal_iteratorIPiNSt9__cxx19986vectorIiSaIiEEEEENSt7__debug6vectorIiS6_EEEC2ERKSC_(%"class.__gnu_debug::_Safe_iterator"* %31, %"class.__gnu_debug::_Safe_iterator"* dereferenceable(40) %0) #3
  call void @_ZN11__gnu_debug14_Safe_iteratorIN9__gnu_cxx17__normal_iteratorIPiNSt9__cxx19986vectorIiSaIiEEEEENSt7__debug6vectorIiS6_EEEC2ERKSC_(%"class.__gnu_debug::_Safe_iterator"* %32, %"class.__gnu_debug::_Safe_iterator"* dereferenceable(40) %1) #3
  %87 = load i32, i32* @x.89
  %88 = load i32, i32* @y.90
  %89 = sub i32 %87, 2035925364
  %90 = sub i32 %89, 1
  %91 = add i32 %90, 2035925364
  %92 = sub i32 %87, 1
  %93 = mul i32 %87, %91
  %94 = urem i32 %93, 2
  %95 = icmp eq i32 %94, 0
  %96 = icmp slt i32 %88, 10
  %97 = xor i1 %95, true
  %98 = xor i1 %96, true
  %99 = xor i1 false, true
  %100 = and i1 %97, false
  %101 = and i1 %95, %99
  %102 = and i1 %98, false
  %103 = and i1 %96, %99
  %104 = or i1 %100, %101
  %105 = or i1 %102, %103
  %106 = xor i1 %104, %105
  %107 = or i1 %97, %98
  %108 = xor i1 %107, true
  %109 = or i1 false, %99
  %110 = and i1 %108, %109
  %111 = or i1 %106, %110
  %112 = or i1 %95, %96
  br i1 %111, label %113, label %188

; <label>:113:                                    ; preds = %86
  invoke void @_ZN9__gnu_cxx5__ops16__iter_less_iterEv()
          to label %114 unwind label %171

; <label>:114:                                    ; preds = %113
  %115 = load i32, i32* @x.89
  %116 = load i32, i32* @y.90
  %117 = add i32 %115, -1848521217
  %118 = sub i32 %117, 1
  %119 = sub i32 %118, -1848521217
  %120 = sub i32 %115, 1
  %121 = mul i32 %115, %119
  %122 = urem i32 %121, 2
  %123 = icmp eq i32 %122, 0
  %124 = icmp slt i32 %116, 10
  %125 = xor i1 %123, true
  %126 = xor i1 %124, true
  %127 = xor i1 true, true
  %128 = and i1 %125, true
  %129 = and i1 %123, %127
  %130 = and i1 %126, true
  %131 = and i1 %124, %127
  %132 = or i1 %128, %129
  %133 = or i1 %130, %131
  %134 = xor i1 %132, %133
  %135 = or i1 %125, %126
  %136 = xor i1 %135, true
  %137 = or i1 true, %127
  %138 = and i1 %136, %137
  %139 = or i1 %134, %138
  %140 = or i1 %123, %124
  br i1 %139, label %141, label %189

; <label>:141:                                    ; preds = %114, %189
  %142 = load i32, i32* @x.89
  %143 = load i32, i32* @y.90
  %144 = sub i32 %142, 154877219
  %145 = sub i32 %144, 1
  %146 = add i32 %145, 154877219
  %147 = sub i32 %142, 1
  %148 = mul i32 %142, %146
  %149 = urem i32 %148, 2
  %150 = icmp eq i32 %149, 0
  %151 = icmp slt i32 %143, 10
  %152 = xor i1 %150, true
  %153 = xor i1 %151, true
  %154 = xor i1 false, true
  %155 = and i1 %152, false
  %156 = and i1 %150, %154
  %157 = and i1 %153, false
  %158 = and i1 %151, %154
  %159 = or i1 %155, %156
  %160 = or i1 %157, %158
  %161 = xor i1 %159, %160
  %162 = or i1 %152, %153
  %163 = xor i1 %162, true
  %164 = or i1 false, %154
  %165 = and i1 %163, %164
  %166 = or i1 %161, %165
  %167 = or i1 %150, %151
  br i1 %166, label %168, label %189

; <label>:168:                                    ; preds = %141
  %169 = invoke zeroext i1 @_ZSt18__next_permutationIN11__gnu_debug14_Safe_iteratorIN9__gnu_cxx17__normal_iteratorIPiNSt9__cxx19986vectorIiSaIiEEEEENSt7__debug6vectorIiS7_EEEENS2_5__ops15_Iter_less_iterEEbT_SG_T0_(%"class.__gnu_debug::_Safe_iterator"* %31, %"class.__gnu_debug::_Safe_iterator"* %32)
          to label %170 unwind label %171

; <label>:170:                                    ; preds = %168
  call void @_ZN11__gnu_debug14_Safe_iteratorIN9__gnu_cxx17__normal_iteratorIPiNSt9__cxx19986vectorIiSaIiEEEEENSt7__debug6vectorIiS6_EEED2Ev(%"class.__gnu_debug::_Safe_iterator"* %32) #3
  call void @_ZN11__gnu_debug14_Safe_iteratorIN9__gnu_cxx17__normal_iteratorIPiNSt9__cxx19986vectorIiSaIiEEEEENSt7__debug6vectorIiS6_EEED2Ev(%"class.__gnu_debug::_Safe_iterator"* %31) #3
  ret i1 %169

; <label>:171:                                    ; preds = %168, %113
  %172 = landingpad { i8*, i32 }
          cleanup
  %173 = extractvalue { i8*, i32 } %172, 0
  store i8* %173, i8** %34, align 8
  %174 = extractvalue { i8*, i32 } %172, 1
  store i32 %174, i32* %35, align 4
  call void @_ZN11__gnu_debug14_Safe_iteratorIN9__gnu_cxx17__normal_iteratorIPiNSt9__cxx19986vectorIiSaIiEEEEENSt7__debug6vectorIiS6_EEED2Ev(%"class.__gnu_debug::_Safe_iterator"* %32) #3
  call void @_ZN11__gnu_debug14_Safe_iteratorIN9__gnu_cxx17__normal_iteratorIPiNSt9__cxx19986vectorIiSaIiEEEEENSt7__debug6vectorIiS6_EEED2Ev(%"class.__gnu_debug::_Safe_iterator"* %31) #3
  br label %175

; <label>:175:                                    ; preds = %171
  %176 = load i8*, i8** %34, align 8
  %177 = load i32, i32* %35, align 4
  %178 = insertvalue { i8*, i32 } undef, i8* %176, 0
  %179 = insertvalue { i8*, i32 } %178, i32 %177, 1
  resume { i8*, i32 } %179

; <label>:180:                                    ; preds = %29, %2
  %181 = alloca %"class.__gnu_debug::_Error_formatter", align 8
  %182 = alloca %"class.__gnu_debug::_Safe_iterator", align 8
  %183 = alloca %"class.__gnu_debug::_Safe_iterator", align 8
  %184 = alloca %"struct.__gnu_cxx::__ops::_Iter_less_iter", align 1
  %185 = alloca i8*
  %186 = alloca i32
  %187 = alloca %"struct.__gnu_cxx::__ops::_Iter_less_iter", align 1
  br label %29

; <label>:188:                                    ; preds = %86, %71
  call void @_ZN11__gnu_debug14_Safe_iteratorIN9__gnu_cxx17__normal_iteratorIPiNSt9__cxx19986vectorIiSaIiEEEEENSt7__debug6vectorIiS6_EEEC2ERKSC_(%"class.__gnu_debug::_Safe_iterator"* %31, %"class.__gnu_debug::_Safe_iterator"* dereferenceable(40) %0) #3
  call void @_ZN11__gnu_debug14_Safe_iteratorIN9__gnu_cxx17__normal_iteratorIPiNSt9__cxx19986vectorIiSaIiEEEEENSt7__debug6vectorIiS6_EEEC2ERKSC_(%"class.__gnu_debug::_Safe_iterator"* %32, %"class.__gnu_debug::_Safe_iterator"* dereferenceable(40) %1) #3
  br label %86

; <label>:189:                                    ; preds = %141, %114
  br label %141
}

declare dereferenceable(272) %"class.std::basic_ostream"* @_ZNSolsEi(%"class.std::basic_ostream"*, i32) #1

declare dereferenceable(272) %"class.std::basic_ostream"* @_ZNSolsEPFRSoS_E(%"class.std::basic_ostream"*, %"class.std::basic_ostream"* (%"class.std::basic_ostream"*)*) #1

declare dereferenceable(272) %"class.std::basic_ostream"* @_ZSt4endlIcSt11char_traitsIcEERSt13basic_ostreamIT_T0_ES6_(%"class.std::basic_ostream"* dereferenceable(272)) #1

; Function Attrs: noinline nounwind uwtable
define linkonce_odr void @_ZNSt7__debug6vectorINS0_IiSaIiEEESaIS2_EED2Ev(%"class.std::__debug::vector.22"*) unnamed_addr #5 comdat align 2 {
  %2 = alloca %"class.std::__debug::vector.22"*, align 8
  store %"class.std::__debug::vector.22"* %0, %"class.std::__debug::vector.22"** %2, align 8
  %3 = load %"class.std::__debug::vector.22"*, %"class.std::__debug::vector.22"** %2, align 8
  %4 = bitcast %"class.std::__debug::vector.22"* %3 to i8*
  %5 = getelementptr inbounds i8, i8* %4, i64 24
  %6 = bitcast i8* %5 to %"class.std::__cxx1998::vector.27"*
  call void @_ZNSt9__cxx19986vectorINSt7__debug6vectorIiSaIiEEESaIS4_EED2Ev(%"class.std::__cxx1998::vector.27"* %6) #3
  %7 = bitcast %"class.std::__debug::vector.22"* %3 to %"class.__gnu_debug::_Safe_container.23"*
  call void @_ZN11__gnu_debug15_Safe_containerINSt7__debug6vectorINS2_IiSaIiEEESaIS4_EEES5_NS_14_Safe_sequenceELb1EED2Ev(%"class.__gnu_debug::_Safe_container.23"* %7) #3
  ret void
}

; Function Attrs: noinline nounwind uwtable
define linkonce_odr void @_ZNSt7__debug6vectorINS0_ISt4pairIiiESaIS2_EEESaIS4_EED2Ev(%"class.std::__debug::vector.0"*) unnamed_addr #5 comdat align 2 {
  %2 = alloca %"class.std::__debug::vector.0"*, align 8
  store %"class.std::__debug::vector.0"* %0, %"class.std::__debug::vector.0"** %2, align 8
  %3 = load %"class.std::__debug::vector.0"*, %"class.std::__debug::vector.0"** %2, align 8
  %4 = bitcast %"class.std::__debug::vector.0"* %3 to i8*
  %5 = getelementptr inbounds i8, i8* %4, i64 24
  %6 = bitcast i8* %5 to %"class.std::__cxx1998::vector.5"*
  call void @_ZNSt9__cxx19986vectorINSt7__debug6vectorISt4pairIiiESaIS4_EEESaIS6_EED2Ev(%"class.std::__cxx1998::vector.5"* %6) #3
  %7 = bitcast %"class.std::__debug::vector.0"* %3 to %"class.__gnu_debug::_Safe_container.1"*
  call void @_ZN11__gnu_debug15_Safe_containerINSt7__debug6vectorINS2_ISt4pairIiiESaIS4_EEESaIS6_EEES7_NS_14_Safe_sequenceELb1EED2Ev(%"class.__gnu_debug::_Safe_container.1"* %7) #3
  ret void
}

; Function Attrs: noinline nounwind uwtable
define linkonce_odr void @_ZN11__gnu_debug19_Safe_iterator_baseD2Ev(%"class.__gnu_debug::_Safe_iterator_base"*) unnamed_addr #5 comdat align 2 personality i8* bitcast (i32 (...)* @__gxx_personality_v0 to i8*) {
  %2 = alloca %"class.__gnu_debug::_Safe_iterator_base"*, align 8
  store %"class.__gnu_debug::_Safe_iterator_base"* %0, %"class.__gnu_debug::_Safe_iterator_base"** %2, align 8
  %3 = load %"class.__gnu_debug::_Safe_iterator_base"*, %"class.__gnu_debug::_Safe_iterator_base"** %2, align 8
  invoke void @_ZN11__gnu_debug19_Safe_iterator_base9_M_detachEv(%"class.__gnu_debug::_Safe_iterator_base"* %3)
          to label %4 unwind label %5

; <label>:4:                                      ; preds = %1
  ret void

; <label>:5:                                      ; preds = %1
  %6 = load i32, i32* @x.95
  %7 = load i32, i32* @y.96
  %8 = sub i32 0, 1
  %9 = add i32 %6, %8
  %10 = sub i32 %6, 1
  %11 = mul i32 %6, %9
  %12 = urem i32 %11, 2
  %13 = icmp eq i32 %12, 0
  %14 = icmp slt i32 %7, 10
  %15 = and i1 %13, %14
  %16 = xor i1 %13, %14
  %17 = or i1 %15, %16
  %18 = or i1 %13, %14
  br i1 %17, label %19, label %37

; <label>:19:                                     ; preds = %5, %37
  %20 = landingpad { i8*, i32 }
          catch i8* null
  %21 = extractvalue { i8*, i32 } %20, 0
  call void @__clang_call_terminate(i8* %21) #13
  %22 = load i32, i32* @x.95
  %23 = load i32, i32* @y.96
  %24 = add i32 %22, 199432828
  %25 = sub i32 %24, 1
  %26 = sub i32 %25, 199432828
  %27 = sub i32 %22, 1
  %28 = mul i32 %22, %26
  %29 = urem i32 %28, 2
  %30 = icmp eq i32 %29, 0
  %31 = icmp slt i32 %23, 10
  %32 = and i1 %30, %31
  %33 = xor i1 %30, %31
  %34 = or i1 %32, %33
  %35 = or i1 %30, %31
  br i1 %34, label %36, label %37

; <label>:36:                                     ; preds = %19
  unreachable

; <label>:37:                                     ; preds = %19, %5
  %38 = landingpad { i8*, i32 }
          catch i8* null
  %39 = extractvalue { i8*, i32 } %38, 0
  call void @__clang_call_terminate(i8* %39) #13
  br label %19
}

declare void @_ZN11__gnu_debug19_Safe_iterator_base9_M_detachEv(%"class.__gnu_debug::_Safe_iterator_base"*) #1

; Function Attrs: noinline noreturn nounwind
define linkonce_odr hidden void @__clang_call_terminate(i8*) #7 comdat {
  %2 = call i8* @__cxa_begin_catch(i8* %0) #3
  call void @_ZSt9terminatev() #13
  unreachable
}

declare i8* @__cxa_begin_catch(i8*)

declare void @_ZSt9terminatev()

; Function Attrs: noinline nounwind uwtable
define linkonce_odr dereferenceable(4) i32* @_ZSt7forwardIRiEOT_RNSt16remove_referenceIS1_E4typeE(i32* dereferenceable(4)) #5 comdat {
  %2 = alloca i32*, align 8
  store i32* %0, i32** %2, align 8
  %3 = load i32*, i32** %2, align 8
  ret i32* %3
}

; Function Attrs: noinline nounwind uwtable
define linkonce_odr void @_ZNSt4pairIiiEC2IRiS2_vEEOT_OT0_(%"struct.std::pair"*, i32* dereferenceable(4), i32* dereferenceable(4)) unnamed_addr #5 comdat align 2 {
  %4 = alloca %"struct.std::pair"*, align 8
  %5 = alloca i32*, align 8
  %6 = alloca i32*, align 8
  store %"struct.std::pair"* %0, %"struct.std::pair"** %4, align 8
  store i32* %1, i32** %5, align 8
  store i32* %2, i32** %6, align 8
  %7 = load %"struct.std::pair"*, %"struct.std::pair"** %4, align 8
  %8 = getelementptr inbounds %"struct.std::pair", %"struct.std::pair"* %7, i32 0, i32 0
  %9 = load i32*, i32** %5, align 8
  %10 = call dereferenceable(4) i32* @_ZSt7forwardIRiEOT_RNSt16remove_referenceIS1_E4typeE(i32* dereferenceable(4) %9) #3
  %11 = load i32, i32* %10, align 4
  store i32 %11, i32* %8, align 4
  %12 = getelementptr inbounds %"struct.std::pair", %"struct.std::pair"* %7, i32 0, i32 1
  %13 = load i32*, i32** %6, align 8
  %14 = call dereferenceable(4) i32* @_ZSt7forwardIRiEOT_RNSt16remove_referenceIS1_E4typeE(i32* dereferenceable(4) %13) #3
  %15 = load i32, i32* %14, align 4
  store i32 %15, i32* %12, align 4
  ret void
}

; Function Attrs: noinline nounwind uwtable
define linkonce_odr void @_ZNSt9__cxx19986vectorIiSaIiEED2Ev(%"class.std::__cxx1998::vector"*) unnamed_addr #5 comdat align 2 personality i8* bitcast (i32 (...)* @__gxx_personality_v0 to i8*) {
  %2 = alloca %"class.std::__cxx1998::vector"*, align 8
  %3 = alloca i8*
  %4 = alloca i32
  store %"class.std::__cxx1998::vector"* %0, %"class.std::__cxx1998::vector"** %2, align 8
  %5 = load %"class.std::__cxx1998::vector"*, %"class.std::__cxx1998::vector"** %2, align 8
  %6 = bitcast %"class.std::__cxx1998::vector"* %5 to %"struct.std::__cxx1998::_Vector_base"*
  %7 = getelementptr inbounds %"struct.std::__cxx1998::_Vector_base", %"struct.std::__cxx1998::_Vector_base"* %6, i32 0, i32 0
  %8 = getelementptr inbounds %"struct.std::__cxx1998::_Vector_base<int, std::allocator<int> >::_Vector_impl", %"struct.std::__cxx1998::_Vector_base<int, std::allocator<int> >::_Vector_impl"* %7, i32 0, i32 0
  %9 = load i32*, i32** %8, align 8
  %10 = bitcast %"class.std::__cxx1998::vector"* %5 to %"struct.std::__cxx1998::_Vector_base"*
  %11 = getelementptr inbounds %"struct.std::__cxx1998::_Vector_base", %"struct.std::__cxx1998::_Vector_base"* %10, i32 0, i32 0
  %12 = getelementptr inbounds %"struct.std::__cxx1998::_Vector_base<int, std::allocator<int> >::_Vector_impl", %"struct.std::__cxx1998::_Vector_base<int, std::allocator<int> >::_Vector_impl"* %11, i32 0, i32 1
  %13 = load i32*, i32** %12, align 8
  %14 = bitcast %"class.std::__cxx1998::vector"* %5 to %"struct.std::__cxx1998::_Vector_base"*
  %15 = call dereferenceable(1) %"class.std::allocator"* @_ZNSt9__cxx199812_Vector_baseIiSaIiEE19_M_get_Tp_allocatorEv(%"struct.std::__cxx1998::_Vector_base"* %14) #3
  invoke void @_ZSt8_DestroyIPiiEvT_S1_RSaIT0_E(i32* %9, i32* %13, %"class.std::allocator"* dereferenceable(1) %15)
          to label %16 unwind label %18

; <label>:16:                                     ; preds = %1
  %17 = bitcast %"class.std::__cxx1998::vector"* %5 to %"struct.std::__cxx1998::_Vector_base"*
  call void @_ZNSt9__cxx199812_Vector_baseIiSaIiEED2Ev(%"struct.std::__cxx1998::_Vector_base"* %17) #3
  ret void

; <label>:18:                                     ; preds = %1
  %19 = landingpad { i8*, i32 }
          catch i8* null
  %20 = extractvalue { i8*, i32 } %19, 0
  store i8* %20, i8** %3, align 8
  %21 = extractvalue { i8*, i32 } %19, 1
  store i32 %21, i32* %4, align 4
  %22 = bitcast %"class.std::__cxx1998::vector"* %5 to %"struct.std::__cxx1998::_Vector_base"*
  call void @_ZNSt9__cxx199812_Vector_baseIiSaIiEED2Ev(%"struct.std::__cxx1998::_Vector_base"* %22) #3
  br label %23

; <label>:23:                                     ; preds = %18
  %24 = load i8*, i8** %3, align 8
  call void @__clang_call_terminate(i8* %24) #13
  unreachable
}

; Function Attrs: noinline nounwind uwtable
define linkonce_odr void @_ZN11__gnu_debug15_Safe_containerINSt7__debug6vectorIiSaIiEEES3_NS_14_Safe_sequenceELb1EED2Ev(%"class.__gnu_debug::_Safe_container"*) unnamed_addr #5 comdat align 2 {
  %2 = alloca i1
  %3 = alloca i1
  %4 = load i32, i32* @x.105
  %5 = load i32, i32* @y.106
  %6 = add i32 %4, 770133964
  %7 = sub i32 %6, 1
  %8 = sub i32 %7, 770133964
  %9 = sub i32 %4, 1
  %10 = mul i32 %4, %8
  %11 = urem i32 %10, 2
  %12 = icmp eq i32 %11, 0
  store i1 %12, i1* %3
  %13 = icmp slt i32 %5, 10
  store i1 %13, i1* %2
  %14 = alloca i32
  store i32 1160268628, i32* %14
  br label %15

; <label>:15:                                     ; preds = %1, %62
  %16 = load i32, i32* %14
  switch i32 %16, label %17 [
    i32 1160268628, label %18
    i32 -1137437433, label %38
    i32 -856530452, label %57
    i32 219638364, label %58
  ]

; <label>:17:                                     ; preds = %15
  br label %62

; <label>:18:                                     ; preds = %15
  %19 = load volatile i1, i1* %3
  %20 = load volatile i1, i1* %2
  %21 = xor i1 %19, true
  %22 = xor i1 %20, true
  %23 = xor i1 true, true
  %24 = and i1 %21, true
  %25 = and i1 %19, %23
  %26 = and i1 %22, true
  %27 = and i1 %20, %23
  %28 = or i1 %24, %25
  %29 = or i1 %26, %27
  %30 = xor i1 %28, %29
  %31 = or i1 %21, %22
  %32 = xor i1 %31, true
  %33 = or i1 true, %23
  %34 = and i1 %32, %33
  %35 = or i1 %30, %34
  %36 = or i1 %19, %20
  %37 = select i1 %35, i32 -1137437433, i32 219638364
  store i32 %37, i32* %14
  br label %62

; <label>:38:                                     ; preds = %15
  %39 = alloca %"class.__gnu_debug::_Safe_container"*, align 8
  store %"class.__gnu_debug::_Safe_container"* %0, %"class.__gnu_debug::_Safe_container"** %39, align 8
  %40 = load %"class.__gnu_debug::_Safe_container"*, %"class.__gnu_debug::_Safe_container"** %39, align 8
  %41 = bitcast %"class.__gnu_debug::_Safe_container"* %40 to %"class.__gnu_debug::_Safe_sequence"*
  call void @_ZN11__gnu_debug14_Safe_sequenceINSt7__debug6vectorIiSaIiEEEED2Ev(%"class.__gnu_debug::_Safe_sequence"* %41) #3
  %42 = load i32, i32* @x.105
  %43 = load i32, i32* @y.106
  %44 = sub i32 %42, -1717181451
  %45 = sub i32 %44, 1
  %46 = add i32 %45, -1717181451
  %47 = sub i32 %42, 1
  %48 = mul i32 %42, %46
  %49 = urem i32 %48, 2
  %50 = icmp eq i32 %49, 0
  %51 = icmp slt i32 %43, 10
  %52 = and i1 %50, %51
  %53 = xor i1 %50, %51
  %54 = or i1 %52, %53
  %55 = or i1 %50, %51
  %56 = select i1 %54, i32 -856530452, i32 219638364
  store i32 %56, i32* %14
  br label %62

; <label>:57:                                     ; preds = %15
  ret void

; <label>:58:                                     ; preds = %15
  %59 = alloca %"class.__gnu_debug::_Safe_container"*, align 8
  store %"class.__gnu_debug::_Safe_container"* %0, %"class.__gnu_debug::_Safe_container"** %59, align 8
  %60 = load %"class.__gnu_debug::_Safe_container"*, %"class.__gnu_debug::_Safe_container"** %59, align 8
  %61 = bitcast %"class.__gnu_debug::_Safe_container"* %60 to %"class.__gnu_debug::_Safe_sequence"*
  call void @_ZN11__gnu_debug14_Safe_sequenceINSt7__debug6vectorIiSaIiEEEED2Ev(%"class.__gnu_debug::_Safe_sequence"* %61) #3
  store i32 -1137437433, i32* %14
  br label %62

; <label>:62:                                     ; preds = %58, %38, %18, %17
  br label %15
}

; Function Attrs: noinline uwtable
define linkonce_odr void @_ZSt8_DestroyIPiiEvT_S1_RSaIT0_E(i32*, i32*, %"class.std::allocator"* dereferenceable(1)) #0 comdat {
  %4 = alloca i32*, align 8
  %5 = alloca i32*, align 8
  %6 = alloca %"class.std::allocator"*, align 8
  store i32* %0, i32** %4, align 8
  store i32* %1, i32** %5, align 8
  store %"class.std::allocator"* %2, %"class.std::allocator"** %6, align 8
  %7 = load i32*, i32** %4, align 8
  %8 = load i32*, i32** %5, align 8
  call void @_ZSt8_DestroyIPiEvT_S1_(i32* %7, i32* %8)
  ret void
}

; Function Attrs: noinline nounwind uwtable
define linkonce_odr dereferenceable(1) %"class.std::allocator"* @_ZNSt9__cxx199812_Vector_baseIiSaIiEE19_M_get_Tp_allocatorEv(%"struct.std::__cxx1998::_Vector_base"*) #5 comdat align 2 {
  %2 = alloca %"struct.std::__cxx1998::_Vector_base"*, align 8
  store %"struct.std::__cxx1998::_Vector_base"* %0, %"struct.std::__cxx1998::_Vector_base"** %2, align 8
  %3 = load %"struct.std::__cxx1998::_Vector_base"*, %"struct.std::__cxx1998::_Vector_base"** %2, align 8
  %4 = getelementptr inbounds %"struct.std::__cxx1998::_Vector_base", %"struct.std::__cxx1998::_Vector_base"* %3, i32 0, i32 0
  %5 = bitcast %"struct.std::__cxx1998::_Vector_base<int, std::allocator<int> >::_Vector_impl"* %4 to %"class.std::allocator"*
  ret %"class.std::allocator"* %5
}

; Function Attrs: noinline nounwind uwtable
define linkonce_odr void @_ZNSt9__cxx199812_Vector_baseIiSaIiEED2Ev(%"struct.std::__cxx1998::_Vector_base"*) unnamed_addr #5 comdat align 2 personality i8* bitcast (i32 (...)* @__gxx_personality_v0 to i8*) {
  %2 = alloca %"struct.std::__cxx1998::_Vector_base"*, align 8
  %3 = alloca i8*
  %4 = alloca i32
  store %"struct.std::__cxx1998::_Vector_base"* %0, %"struct.std::__cxx1998::_Vector_base"** %2, align 8
  %5 = load %"struct.std::__cxx1998::_Vector_base"*, %"struct.std::__cxx1998::_Vector_base"** %2, align 8
  %6 = getelementptr inbounds %"struct.std::__cxx1998::_Vector_base", %"struct.std::__cxx1998::_Vector_base"* %5, i32 0, i32 0
  %7 = getelementptr inbounds %"struct.std::__cxx1998::_Vector_base<int, std::allocator<int> >::_Vector_impl", %"struct.std::__cxx1998::_Vector_base<int, std::allocator<int> >::_Vector_impl"* %6, i32 0, i32 0
  %8 = load i32*, i32** %7, align 8
  %9 = getelementptr inbounds %"struct.std::__cxx1998::_Vector_base", %"struct.std::__cxx1998::_Vector_base"* %5, i32 0, i32 0
  %10 = getelementptr inbounds %"struct.std::__cxx1998::_Vector_base<int, std::allocator<int> >::_Vector_impl", %"struct.std::__cxx1998::_Vector_base<int, std::allocator<int> >::_Vector_impl"* %9, i32 0, i32 2
  %11 = load i32*, i32** %10, align 8
  %12 = getelementptr inbounds %"struct.std::__cxx1998::_Vector_base", %"struct.std::__cxx1998::_Vector_base"* %5, i32 0, i32 0
  %13 = getelementptr inbounds %"struct.std::__cxx1998::_Vector_base<int, std::allocator<int> >::_Vector_impl", %"struct.std::__cxx1998::_Vector_base<int, std::allocator<int> >::_Vector_impl"* %12, i32 0, i32 0
  %14 = load i32*, i32** %13, align 8
  %15 = ptrtoint i32* %11 to i64
  %16 = ptrtoint i32* %14 to i64
  %17 = sub i64 %15, 2869769208198068350
  %18 = sub i64 %17, %16
  %19 = add i64 %18, 2869769208198068350
  %20 = sub i64 %15, %16
  %21 = sdiv exact i64 %19, 4
  invoke void @_ZNSt9__cxx199812_Vector_baseIiSaIiEE13_M_deallocateEPim(%"struct.std::__cxx1998::_Vector_base"* %5, i32* %8, i64 %21)
          to label %22 unwind label %24

; <label>:22:                                     ; preds = %1
  %23 = getelementptr inbounds %"struct.std::__cxx1998::_Vector_base", %"struct.std::__cxx1998::_Vector_base"* %5, i32 0, i32 0
  call void @_ZNSt9__cxx199812_Vector_baseIiSaIiEE12_Vector_implD2Ev(%"struct.std::__cxx1998::_Vector_base<int, std::allocator<int> >::_Vector_impl"* %23) #3
  ret void

; <label>:24:                                     ; preds = %1
  %25 = landingpad { i8*, i32 }
          catch i8* null
  %26 = extractvalue { i8*, i32 } %25, 0
  store i8* %26, i8** %3, align 8
  %27 = extractvalue { i8*, i32 } %25, 1
  store i32 %27, i32* %4, align 4
  %28 = getelementptr inbounds %"struct.std::__cxx1998::_Vector_base", %"struct.std::__cxx1998::_Vector_base"* %5, i32 0, i32 0
  call void @_ZNSt9__cxx199812_Vector_baseIiSaIiEE12_Vector_implD2Ev(%"struct.std::__cxx1998::_Vector_base<int, std::allocator<int> >::_Vector_impl"* %28) #3
  br label %29

; <label>:29:                                     ; preds = %24
  %30 = load i32, i32* @x.111
  %31 = load i32, i32* @y.112
  %32 = sub i32 0, 1
  %33 = add i32 %30, %32
  %34 = sub i32 %30, 1
  %35 = mul i32 %30, %33
  %36 = urem i32 %35, 2
  %37 = icmp eq i32 %36, 0
  %38 = icmp slt i32 %31, 10
  %39 = and i1 %37, %38
  %40 = xor i1 %37, %38
  %41 = or i1 %39, %40
  %42 = or i1 %37, %38
  br i1 %41, label %43, label %59

; <label>:43:                                     ; preds = %29, %59
  %44 = load i8*, i8** %3, align 8
  call void @__clang_call_terminate(i8* %44) #13
  %45 = load i32, i32* @x.111
  %46 = load i32, i32* @y.112
  %47 = sub i32 0, 1
  %48 = add i32 %45, %47
  %49 = sub i32 %45, 1
  %50 = mul i32 %45, %48
  %51 = urem i32 %50, 2
  %52 = icmp eq i32 %51, 0
  %53 = icmp slt i32 %46, 10
  %54 = and i1 %52, %53
  %55 = xor i1 %52, %53
  %56 = or i1 %54, %55
  %57 = or i1 %52, %53
  br i1 %56, label %58, label %59

; <label>:58:                                     ; preds = %43
  unreachable

; <label>:59:                                     ; preds = %43, %29
  %60 = load i8*, i8** %3, align 8
  call void @__clang_call_terminate(i8* %60) #13
  br label %43
}

; Function Attrs: noinline uwtable
define linkonce_odr void @_ZSt8_DestroyIPiEvT_S1_(i32*, i32*) #0 comdat {
  %3 = alloca i1
  %4 = alloca i1
  %5 = load i32, i32* @x.113
  %6 = load i32, i32* @y.114
  %7 = add i32 %5, -1109262976
  %8 = sub i32 %7, 1
  %9 = sub i32 %8, -1109262976
  %10 = sub i32 %5, 1
  %11 = mul i32 %5, %9
  %12 = urem i32 %11, 2
  %13 = icmp eq i32 %12, 0
  store i1 %13, i1* %4
  %14 = icmp slt i32 %6, 10
  store i1 %14, i1* %3
  %15 = alloca i32
  store i32 1242994940, i32* %15
  br label %16

; <label>:16:                                     ; preds = %2, %53
  %17 = load i32, i32* %15
  switch i32 %17, label %18 [
    i32 1242994940, label %19
    i32 -1243839679, label %27
    i32 771139319, label %47
    i32 -1687453186, label %48
  ]

; <label>:18:                                     ; preds = %16
  br label %53

; <label>:19:                                     ; preds = %16
  %20 = load volatile i1, i1* %4
  %21 = load volatile i1, i1* %3
  %22 = and i1 %20, %21
  %23 = xor i1 %20, %21
  %24 = or i1 %22, %23
  %25 = or i1 %20, %21
  %26 = select i1 %24, i32 -1243839679, i32 -1687453186
  store i32 %26, i32* %15
  br label %53

; <label>:27:                                     ; preds = %16
  %28 = alloca i32*, align 8
  %29 = alloca i32*, align 8
  store i32* %0, i32** %28, align 8
  store i32* %1, i32** %29, align 8
  %30 = load i32*, i32** %28, align 8
  %31 = load i32*, i32** %29, align 8
  call void @_ZNSt12_Destroy_auxILb1EE9__destroyIPiEEvT_S3_(i32* %30, i32* %31)
  %32 = load i32, i32* @x.113
  %33 = load i32, i32* @y.114
  %34 = sub i32 %32, 703750797
  %35 = sub i32 %34, 1
  %36 = add i32 %35, 703750797
  %37 = sub i32 %32, 1
  %38 = mul i32 %32, %36
  %39 = urem i32 %38, 2
  %40 = icmp eq i32 %39, 0
  %41 = icmp slt i32 %33, 10
  %42 = and i1 %40, %41
  %43 = xor i1 %40, %41
  %44 = or i1 %42, %43
  %45 = or i1 %40, %41
  %46 = select i1 %44, i32 771139319, i32 -1687453186
  store i32 %46, i32* %15
  br label %53

; <label>:47:                                     ; preds = %16
  ret void

; <label>:48:                                     ; preds = %16
  %49 = alloca i32*, align 8
  %50 = alloca i32*, align 8
  store i32* %0, i32** %49, align 8
  store i32* %1, i32** %50, align 8
  %51 = load i32*, i32** %49, align 8
  %52 = load i32*, i32** %50, align 8
  call void @_ZNSt12_Destroy_auxILb1EE9__destroyIPiEEvT_S3_(i32* %51, i32* %52)
  store i32 -1243839679, i32* %15
  br label %53

; <label>:53:                                     ; preds = %48, %27, %19, %18
  br label %16
}

; Function Attrs: noinline nounwind uwtable
define linkonce_odr void @_ZNSt12_Destroy_auxILb1EE9__destroyIPiEEvT_S3_(i32*, i32*) #5 comdat align 2 {
  %3 = alloca i1
  %4 = alloca i1
  %5 = load i32, i32* @x.115
  %6 = load i32, i32* @y.116
  %7 = sub i32 %5, 1858048419
  %8 = sub i32 %7, 1
  %9 = add i32 %8, 1858048419
  %10 = sub i32 %5, 1
  %11 = mul i32 %5, %9
  %12 = urem i32 %11, 2
  %13 = icmp eq i32 %12, 0
  store i1 %13, i1* %4
  %14 = icmp slt i32 %6, 10
  store i1 %14, i1* %3
  %15 = alloca i32
  store i32 -626763042, i32* %15
  br label %16

; <label>:16:                                     ; preds = %2, %60
  %17 = load i32, i32* %15
  switch i32 %17, label %18 [
    i32 -626763042, label %19
    i32 -540568620, label %27
    i32 1538291702, label %56
    i32 388966252, label %57
  ]

; <label>:18:                                     ; preds = %16
  br label %60

; <label>:19:                                     ; preds = %16
  %20 = load volatile i1, i1* %4
  %21 = load volatile i1, i1* %3
  %22 = and i1 %20, %21
  %23 = xor i1 %20, %21
  %24 = or i1 %22, %23
  %25 = or i1 %20, %21
  %26 = select i1 %24, i32 -540568620, i32 388966252
  store i32 %26, i32* %15
  br label %60

; <label>:27:                                     ; preds = %16
  %28 = alloca i32*, align 8
  %29 = alloca i32*, align 8
  store i32* %0, i32** %28, align 8
  store i32* %1, i32** %29, align 8
  %30 = load i32, i32* @x.115
  %31 = load i32, i32* @y.116
  %32 = sub i32 0, 1
  %33 = add i32 %30, %32
  %34 = sub i32 %30, 1
  %35 = mul i32 %30, %33
  %36 = urem i32 %35, 2
  %37 = icmp eq i32 %36, 0
  %38 = icmp slt i32 %31, 10
  %39 = xor i1 %37, true
  %40 = xor i1 %38, true
  %41 = xor i1 true, true
  %42 = and i1 %39, true
  %43 = and i1 %37, %41
  %44 = and i1 %40, true
  %45 = and i1 %38, %41
  %46 = or i1 %42, %43
  %47 = or i1 %44, %45
  %48 = xor i1 %46, %47
  %49 = or i1 %39, %40
  %50 = xor i1 %49, true
  %51 = or i1 true, %41
  %52 = and i1 %50, %51
  %53 = or i1 %48, %52
  %54 = or i1 %37, %38
  %55 = select i1 %53, i32 1538291702, i32 388966252
  store i32 %55, i32* %15
  br label %60

; <label>:56:                                     ; preds = %16
  ret void

; <label>:57:                                     ; preds = %16
  %58 = alloca i32*, align 8
  %59 = alloca i32*, align 8
  store i32* %0, i32** %58, align 8
  store i32* %1, i32** %59, align 8
  store i32 -540568620, i32* %15
  br label %60

; <label>:60:                                     ; preds = %57, %27, %19, %18
  br label %16
}

; Function Attrs: noinline uwtable
define linkonce_odr void @_ZNSt9__cxx199812_Vector_baseIiSaIiEE13_M_deallocateEPim(%"struct.std::__cxx1998::_Vector_base"*, i32*, i64) #0 comdat align 2 {
  %4 = alloca i32*
  %5 = alloca %"struct.std::__cxx1998::_Vector_base"*
  %6 = alloca %"struct.std::__cxx1998::_Vector_base"*, align 8
  %7 = alloca i32*, align 8
  %8 = alloca i64, align 8
  store %"struct.std::__cxx1998::_Vector_base"* %0, %"struct.std::__cxx1998::_Vector_base"** %6, align 8
  store i32* %1, i32** %7, align 8
  store i64 %2, i64* %8, align 8
  %9 = load %"struct.std::__cxx1998::_Vector_base"*, %"struct.std::__cxx1998::_Vector_base"** %6, align 8
  store %"struct.std::__cxx1998::_Vector_base"* %9, %"struct.std::__cxx1998::_Vector_base"** %5
  %10 = load i32*, i32** %7, align 8
  store i32* %10, i32** %4
  %11 = alloca i32
  store i32 -1738069552, i32* %11
  br label %12

; <label>:12:                                     ; preds = %3, %26
  %13 = load i32, i32* %11
  switch i32 %13, label %14 [
    i32 -1738069552, label %15
    i32 -1919728303, label %19
    i32 643217643, label %25
  ]

; <label>:14:                                     ; preds = %12
  br label %26

; <label>:15:                                     ; preds = %12
  %16 = load volatile i32*, i32** %4
  %17 = icmp ne i32* %16, null
  %18 = select i1 %17, i32 -1919728303, i32 643217643
  store i32 %18, i32* %11
  br label %26

; <label>:19:                                     ; preds = %12
  %20 = load volatile %"struct.std::__cxx1998::_Vector_base"*, %"struct.std::__cxx1998::_Vector_base"** %5
  %21 = getelementptr inbounds %"struct.std::__cxx1998::_Vector_base", %"struct.std::__cxx1998::_Vector_base"* %20, i32 0, i32 0
  %22 = bitcast %"struct.std::__cxx1998::_Vector_base<int, std::allocator<int> >::_Vector_impl"* %21 to %"class.std::allocator"*
  %23 = load i32*, i32** %7, align 8
  %24 = load i64, i64* %8, align 8
  call void @_ZNSt16allocator_traitsISaIiEE10deallocateERS0_Pim(%"class.std::allocator"* dereferenceable(1) %22, i32* %23, i64 %24)
  store i32 643217643, i32* %11
  br label %26

; <label>:25:                                     ; preds = %12
  ret void

; <label>:26:                                     ; preds = %19, %15, %14
  br label %12
}

; Function Attrs: noinline nounwind uwtable
define linkonce_odr void @_ZNSt9__cxx199812_Vector_baseIiSaIiEE12_Vector_implD2Ev(%"struct.std::__cxx1998::_Vector_base<int, std::allocator<int> >::_Vector_impl"*) unnamed_addr #5 comdat align 2 {
  %2 = alloca i1
  %3 = alloca i1
  %4 = load i32, i32* @x.119
  %5 = load i32, i32* @y.120
  %6 = sub i32 %4, 1538170285
  %7 = sub i32 %6, 1
  %8 = add i32 %7, 1538170285
  %9 = sub i32 %4, 1
  %10 = mul i32 %4, %8
  %11 = urem i32 %10, 2
  %12 = icmp eq i32 %11, 0
  store i1 %12, i1* %3
  %13 = icmp slt i32 %5, 10
  store i1 %13, i1* %2
  %14 = alloca i32
  store i32 879052569, i32* %14
  br label %15

; <label>:15:                                     ; preds = %1, %62
  %16 = load i32, i32* %14
  switch i32 %16, label %17 [
    i32 879052569, label %18
    i32 -2059676636, label %26
    i32 1139814979, label %57
    i32 1187663083, label %58
  ]

; <label>:17:                                     ; preds = %15
  br label %62

; <label>:18:                                     ; preds = %15
  %19 = load volatile i1, i1* %3
  %20 = load volatile i1, i1* %2
  %21 = and i1 %19, %20
  %22 = xor i1 %19, %20
  %23 = or i1 %21, %22
  %24 = or i1 %19, %20
  %25 = select i1 %23, i32 -2059676636, i32 1187663083
  store i32 %25, i32* %14
  br label %62

; <label>:26:                                     ; preds = %15
  %27 = alloca %"struct.std::__cxx1998::_Vector_base<int, std::allocator<int> >::_Vector_impl"*, align 8
  store %"struct.std::__cxx1998::_Vector_base<int, std::allocator<int> >::_Vector_impl"* %0, %"struct.std::__cxx1998::_Vector_base<int, std::allocator<int> >::_Vector_impl"** %27, align 8
  %28 = load %"struct.std::__cxx1998::_Vector_base<int, std::allocator<int> >::_Vector_impl"*, %"struct.std::__cxx1998::_Vector_base<int, std::allocator<int> >::_Vector_impl"** %27, align 8
  %29 = bitcast %"struct.std::__cxx1998::_Vector_base<int, std::allocator<int> >::_Vector_impl"* %28 to %"class.std::allocator"*
  call void @_ZNSaIiED2Ev(%"class.std::allocator"* %29) #3
  %30 = load i32, i32* @x.119
  %31 = load i32, i32* @y.120
  %32 = add i32 %30, -940679589
  %33 = sub i32 %32, 1
  %34 = sub i32 %33, -940679589
  %35 = sub i32 %30, 1
  %36 = mul i32 %30, %34
  %37 = urem i32 %36, 2
  %38 = icmp eq i32 %37, 0
  %39 = icmp slt i32 %31, 10
  %40 = xor i1 %38, true
  %41 = xor i1 %39, true
  %42 = xor i1 true, true
  %43 = and i1 %40, true
  %44 = and i1 %38, %42
  %45 = and i1 %41, true
  %46 = and i1 %39, %42
  %47 = or i1 %43, %44
  %48 = or i1 %45, %46
  %49 = xor i1 %47, %48
  %50 = or i1 %40, %41
  %51 = xor i1 %50, true
  %52 = or i1 true, %42
  %53 = and i1 %51, %52
  %54 = or i1 %49, %53
  %55 = or i1 %38, %39
  %56 = select i1 %54, i32 1139814979, i32 1187663083
  store i32 %56, i32* %14
  br label %62

; <label>:57:                                     ; preds = %15
  ret void

; <label>:58:                                     ; preds = %15
  %59 = alloca %"struct.std::__cxx1998::_Vector_base<int, std::allocator<int> >::_Vector_impl"*, align 8
  store %"struct.std::__cxx1998::_Vector_base<int, std::allocator<int> >::_Vector_impl"* %0, %"struct.std::__cxx1998::_Vector_base<int, std::allocator<int> >::_Vector_impl"** %59, align 8
  %60 = load %"struct.std::__cxx1998::_Vector_base<int, std::allocator<int> >::_Vector_impl"*, %"struct.std::__cxx1998::_Vector_base<int, std::allocator<int> >::_Vector_impl"** %59, align 8
  %61 = bitcast %"struct.std::__cxx1998::_Vector_base<int, std::allocator<int> >::_Vector_impl"* %60 to %"class.std::allocator"*
  call void @_ZNSaIiED2Ev(%"class.std::allocator"* %61) #3
  store i32 -2059676636, i32* %14
  br label %62

; <label>:62:                                     ; preds = %58, %26, %18, %17
  br label %15
}

; Function Attrs: noinline uwtable
define linkonce_odr void @_ZNSt16allocator_traitsISaIiEE10deallocateERS0_Pim(%"class.std::allocator"* dereferenceable(1), i32*, i64) #0 comdat align 2 {
  %4 = alloca %"class.std::allocator"*, align 8
  %5 = alloca i32*, align 8
  %6 = alloca i64, align 8
  store %"class.std::allocator"* %0, %"class.std::allocator"** %4, align 8
  store i32* %1, i32** %5, align 8
  store i64 %2, i64* %6, align 8
  %7 = load %"class.std::allocator"*, %"class.std::allocator"** %4, align 8
  %8 = bitcast %"class.std::allocator"* %7 to %"class.__gnu_cxx::new_allocator"*
  %9 = load i32*, i32** %5, align 8
  %10 = load i64, i64* %6, align 8
  call void @_ZN9__gnu_cxx13new_allocatorIiE10deallocateEPim(%"class.__gnu_cxx::new_allocator"* %8, i32* %9, i64 %10)
  ret void
}

; Function Attrs: noinline nounwind uwtable
define linkonce_odr void @_ZN9__gnu_cxx13new_allocatorIiE10deallocateEPim(%"class.__gnu_cxx::new_allocator"*, i32*, i64) #5 comdat align 2 {
  %4 = alloca i1
  %5 = alloca i1
  %6 = load i32, i32* @x.123
  %7 = load i32, i32* @y.124
  %8 = sub i32 0, 1
  %9 = add i32 %6, %8
  %10 = sub i32 %6, 1
  %11 = mul i32 %6, %9
  %12 = urem i32 %11, 2
  %13 = icmp eq i32 %12, 0
  store i1 %13, i1* %5
  %14 = icmp slt i32 %7, 10
  store i1 %14, i1* %4
  %15 = alloca i32
  store i32 1952109240, i32* %15
  br label %16

; <label>:16:                                     ; preds = %3, %68
  %17 = load i32, i32* %15
  switch i32 %17, label %18 [
    i32 1952109240, label %19
    i32 -1632868809, label %39
    i32 737945272, label %60
    i32 70531364, label %61
  ]

; <label>:18:                                     ; preds = %16
  br label %68

; <label>:19:                                     ; preds = %16
  %20 = load volatile i1, i1* %5
  %21 = load volatile i1, i1* %4
  %22 = xor i1 %20, true
  %23 = xor i1 %21, true
  %24 = xor i1 true, true
  %25 = and i1 %22, true
  %26 = and i1 %20, %24
  %27 = and i1 %23, true
  %28 = and i1 %21, %24
  %29 = or i1 %25, %26
  %30 = or i1 %27, %28
  %31 = xor i1 %29, %30
  %32 = or i1 %22, %23
  %33 = xor i1 %32, true
  %34 = or i1 true, %24
  %35 = and i1 %33, %34
  %36 = or i1 %31, %35
  %37 = or i1 %20, %21
  %38 = select i1 %36, i32 -1632868809, i32 70531364
  store i32 %38, i32* %15
  br label %68

; <label>:39:                                     ; preds = %16
  %40 = alloca %"class.__gnu_cxx::new_allocator"*, align 8
  %41 = alloca i32*, align 8
  %42 = alloca i64, align 8
  store %"class.__gnu_cxx::new_allocator"* %0, %"class.__gnu_cxx::new_allocator"** %40, align 8
  store i32* %1, i32** %41, align 8
  store i64 %2, i64* %42, align 8
  %43 = load %"class.__gnu_cxx::new_allocator"*, %"class.__gnu_cxx::new_allocator"** %40, align 8
  %44 = load i32*, i32** %41, align 8
  %45 = bitcast i32* %44 to i8*
  call void @_ZdlPv(i8* %45) #3
  %46 = load i32, i32* @x.123
  %47 = load i32, i32* @y.124
  %48 = sub i32 0, 1
  %49 = add i32 %46, %48
  %50 = sub i32 %46, 1
  %51 = mul i32 %46, %49
  %52 = urem i32 %51, 2
  %53 = icmp eq i32 %52, 0
  %54 = icmp slt i32 %47, 10
  %55 = and i1 %53, %54
  %56 = xor i1 %53, %54
  %57 = or i1 %55, %56
  %58 = or i1 %53, %54
  %59 = select i1 %57, i32 737945272, i32 70531364
  store i32 %59, i32* %15
  br label %68

; <label>:60:                                     ; preds = %16
  ret void

; <label>:61:                                     ; preds = %16
  %62 = alloca %"class.__gnu_cxx::new_allocator"*, align 8
  %63 = alloca i32*, align 8
  %64 = alloca i64, align 8
  store %"class.__gnu_cxx::new_allocator"* %0, %"class.__gnu_cxx::new_allocator"** %62, align 8
  store i32* %1, i32** %63, align 8
  store i64 %2, i64* %64, align 8
  %65 = load %"class.__gnu_cxx::new_allocator"*, %"class.__gnu_cxx::new_allocator"** %62, align 8
  %66 = load i32*, i32** %63, align 8
  %67 = bitcast i32* %66 to i8*
  call void @_ZdlPv(i8* %67) #3
  store i32 -1632868809, i32* %15
  br label %68

; <label>:68:                                     ; preds = %61, %39, %19, %18
  br label %16
}

; Function Attrs: nobuiltin nounwind
declare void @_ZdlPv(i8*) #8

; Function Attrs: noinline nounwind uwtable
define linkonce_odr void @_ZN9__gnu_cxx13new_allocatorIiED2Ev(%"class.__gnu_cxx::new_allocator"*) unnamed_addr #5 comdat align 2 {
  %2 = alloca %"class.__gnu_cxx::new_allocator"*, align 8
  store %"class.__gnu_cxx::new_allocator"* %0, %"class.__gnu_cxx::new_allocator"** %2, align 8
  %3 = load %"class.__gnu_cxx::new_allocator"*, %"class.__gnu_cxx::new_allocator"** %2, align 8
  ret void
}

; Function Attrs: noinline nounwind uwtable
define linkonce_odr void @_ZN11__gnu_debug14_Safe_sequenceINSt7__debug6vectorIiSaIiEEEED2Ev(%"class.__gnu_debug::_Safe_sequence"*) unnamed_addr #5 comdat align 2 {
  %2 = alloca i1
  %3 = alloca i1
  %4 = load i32, i32* @x.127
  %5 = load i32, i32* @y.128
  %6 = sub i32 %4, 1000102454
  %7 = sub i32 %6, 1
  %8 = add i32 %7, 1000102454
  %9 = sub i32 %4, 1
  %10 = mul i32 %4, %8
  %11 = urem i32 %10, 2
  %12 = icmp eq i32 %11, 0
  store i1 %12, i1* %3
  %13 = icmp slt i32 %5, 10
  store i1 %13, i1* %2
  %14 = alloca i32
  store i32 -873721968, i32* %14
  br label %15

; <label>:15:                                     ; preds = %1, %62
  %16 = load i32, i32* %14
  switch i32 %16, label %17 [
    i32 -873721968, label %18
    i32 1137342041, label %38
    i32 1189585920, label %57
    i32 -1286625903, label %58
  ]

; <label>:17:                                     ; preds = %15
  br label %62

; <label>:18:                                     ; preds = %15
  %19 = load volatile i1, i1* %3
  %20 = load volatile i1, i1* %2
  %21 = xor i1 %19, true
  %22 = xor i1 %20, true
  %23 = xor i1 false, true
  %24 = and i1 %21, false
  %25 = and i1 %19, %23
  %26 = and i1 %22, false
  %27 = and i1 %20, %23
  %28 = or i1 %24, %25
  %29 = or i1 %26, %27
  %30 = xor i1 %28, %29
  %31 = or i1 %21, %22
  %32 = xor i1 %31, true
  %33 = or i1 false, %23
  %34 = and i1 %32, %33
  %35 = or i1 %30, %34
  %36 = or i1 %19, %20
  %37 = select i1 %35, i32 1137342041, i32 -1286625903
  store i32 %37, i32* %14
  br label %62

; <label>:38:                                     ; preds = %15
  %39 = alloca %"class.__gnu_debug::_Safe_sequence"*, align 8
  store %"class.__gnu_debug::_Safe_sequence"* %0, %"class.__gnu_debug::_Safe_sequence"** %39, align 8
  %40 = load %"class.__gnu_debug::_Safe_sequence"*, %"class.__gnu_debug::_Safe_sequence"** %39, align 8
  %41 = bitcast %"class.__gnu_debug::_Safe_sequence"* %40 to %"class.__gnu_debug::_Safe_sequence_base"*
  call void @_ZN11__gnu_debug19_Safe_sequence_baseD2Ev(%"class.__gnu_debug::_Safe_sequence_base"* %41) #3
  %42 = load i32, i32* @x.127
  %43 = load i32, i32* @y.128
  %44 = add i32 %42, -767662978
  %45 = sub i32 %44, 1
  %46 = sub i32 %45, -767662978
  %47 = sub i32 %42, 1
  %48 = mul i32 %42, %46
  %49 = urem i32 %48, 2
  %50 = icmp eq i32 %49, 0
  %51 = icmp slt i32 %43, 10
  %52 = and i1 %50, %51
  %53 = xor i1 %50, %51
  %54 = or i1 %52, %53
  %55 = or i1 %50, %51
  %56 = select i1 %54, i32 1189585920, i32 -1286625903
  store i32 %56, i32* %14
  br label %62

; <label>:57:                                     ; preds = %15
  ret void

; <label>:58:                                     ; preds = %15
  %59 = alloca %"class.__gnu_debug::_Safe_sequence"*, align 8
  store %"class.__gnu_debug::_Safe_sequence"* %0, %"class.__gnu_debug::_Safe_sequence"** %59, align 8
  %60 = load %"class.__gnu_debug::_Safe_sequence"*, %"class.__gnu_debug::_Safe_sequence"** %59, align 8
  %61 = bitcast %"class.__gnu_debug::_Safe_sequence"* %60 to %"class.__gnu_debug::_Safe_sequence_base"*
  call void @_ZN11__gnu_debug19_Safe_sequence_baseD2Ev(%"class.__gnu_debug::_Safe_sequence_base"* %61) #3
  store i32 1137342041, i32* %14
  br label %62

; <label>:62:                                     ; preds = %58, %38, %18, %17
  br label %15
}

; Function Attrs: noinline nounwind uwtable
define linkonce_odr void @_ZN11__gnu_debug19_Safe_sequence_baseD2Ev(%"class.__gnu_debug::_Safe_sequence_base"*) unnamed_addr #5 comdat align 2 personality i8* bitcast (i32 (...)* @__gxx_personality_v0 to i8*) {
  %2 = alloca %"class.__gnu_debug::_Safe_sequence_base"*, align 8
  store %"class.__gnu_debug::_Safe_sequence_base"* %0, %"class.__gnu_debug::_Safe_sequence_base"** %2, align 8
  %3 = load %"class.__gnu_debug::_Safe_sequence_base"*, %"class.__gnu_debug::_Safe_sequence_base"** %2, align 8
  invoke void @_ZN11__gnu_debug19_Safe_sequence_base13_M_detach_allEv(%"class.__gnu_debug::_Safe_sequence_base"* %3)
          to label %4 unwind label %5

; <label>:4:                                      ; preds = %1
  ret void

; <label>:5:                                      ; preds = %1
  %6 = landingpad { i8*, i32 }
          catch i8* null
  %7 = extractvalue { i8*, i32 } %6, 0
  call void @__clang_call_terminate(i8* %7) #13
  unreachable
}

declare void @_ZN11__gnu_debug19_Safe_sequence_base13_M_detach_allEv(%"class.__gnu_debug::_Safe_sequence_base"*) #1

; Function Attrs: noinline nounwind uwtable
define linkonce_odr void @_ZN11__gnu_debug15_Safe_containerINSt7__debug5dequeIiSaIiEEES3_NS_14_Safe_sequenceELb1EEC2Ev(%"class.__gnu_debug::_Safe_container.33"*) unnamed_addr #5 comdat align 2 {
  %2 = alloca %"class.__gnu_debug::_Safe_container.33"*, align 8
  store %"class.__gnu_debug::_Safe_container.33"* %0, %"class.__gnu_debug::_Safe_container.33"** %2, align 8
  %3 = load %"class.__gnu_debug::_Safe_container.33"*, %"class.__gnu_debug::_Safe_container.33"** %2, align 8
  %4 = bitcast %"class.__gnu_debug::_Safe_container.33"* %3 to %"class.__gnu_debug::_Safe_sequence.34"*
  call void @_ZN11__gnu_debug14_Safe_sequenceINSt7__debug5dequeIiSaIiEEEEC2Ev(%"class.__gnu_debug::_Safe_sequence.34"* %4) #3
  ret void
}

; Function Attrs: noinline uwtable
define linkonce_odr void @_ZNSt9__cxx19985dequeIiSaIiEEC2Ev(%"class.std::__cxx1998::deque"*) unnamed_addr #0 comdat align 2 {
  %2 = alloca %"class.std::__cxx1998::deque"*, align 8
  store %"class.std::__cxx1998::deque"* %0, %"class.std::__cxx1998::deque"** %2, align 8
  %3 = load %"class.std::__cxx1998::deque"*, %"class.std::__cxx1998::deque"** %2, align 8
  %4 = bitcast %"class.std::__cxx1998::deque"* %3 to %"class.std::__cxx1998::_Deque_base"*
  call void @_ZNSt9__cxx199811_Deque_baseIiSaIiEEC2Ev(%"class.std::__cxx1998::_Deque_base"* %4)
  ret void
}

; Function Attrs: noinline nounwind uwtable
define linkonce_odr void @_ZN11__gnu_debug15_Safe_containerINSt7__debug5dequeIiSaIiEEES3_NS_14_Safe_sequenceELb1EED2Ev(%"class.__gnu_debug::_Safe_container.33"*) unnamed_addr #5 comdat align 2 {
  %2 = alloca i1
  %3 = alloca i1
  %4 = load i32, i32* @x.135
  %5 = load i32, i32* @y.136
  %6 = sub i32 0, 1
  %7 = add i32 %4, %6
  %8 = sub i32 %4, 1
  %9 = mul i32 %4, %7
  %10 = urem i32 %9, 2
  %11 = icmp eq i32 %10, 0
  store i1 %11, i1* %3
  %12 = icmp slt i32 %5, 10
  store i1 %12, i1* %2
  %13 = alloca i32
  store i32 -120779971, i32* %13
  br label %14

; <label>:14:                                     ; preds = %1, %48
  %15 = load i32, i32* %13
  switch i32 %15, label %16 [
    i32 -120779971, label %17
    i32 -235442054, label %25
    i32 -73929986, label %43
    i32 -1359464609, label %44
  ]

; <label>:16:                                     ; preds = %14
  br label %48

; <label>:17:                                     ; preds = %14
  %18 = load volatile i1, i1* %3
  %19 = load volatile i1, i1* %2
  %20 = and i1 %18, %19
  %21 = xor i1 %18, %19
  %22 = or i1 %20, %21
  %23 = or i1 %18, %19
  %24 = select i1 %22, i32 -235442054, i32 -1359464609
  store i32 %24, i32* %13
  br label %48

; <label>:25:                                     ; preds = %14
  %26 = alloca %"class.__gnu_debug::_Safe_container.33"*, align 8
  store %"class.__gnu_debug::_Safe_container.33"* %0, %"class.__gnu_debug::_Safe_container.33"** %26, align 8
  %27 = load %"class.__gnu_debug::_Safe_container.33"*, %"class.__gnu_debug::_Safe_container.33"** %26, align 8
  %28 = bitcast %"class.__gnu_debug::_Safe_container.33"* %27 to %"class.__gnu_debug::_Safe_sequence.34"*
  call void @_ZN11__gnu_debug14_Safe_sequenceINSt7__debug5dequeIiSaIiEEEED2Ev(%"class.__gnu_debug::_Safe_sequence.34"* %28) #3
  %29 = load i32, i32* @x.135
  %30 = load i32, i32* @y.136
  %31 = sub i32 0, 1
  %32 = add i32 %29, %31
  %33 = sub i32 %29, 1
  %34 = mul i32 %29, %32
  %35 = urem i32 %34, 2
  %36 = icmp eq i32 %35, 0
  %37 = icmp slt i32 %30, 10
  %38 = and i1 %36, %37
  %39 = xor i1 %36, %37
  %40 = or i1 %38, %39
  %41 = or i1 %36, %37
  %42 = select i1 %40, i32 -73929986, i32 -1359464609
  store i32 %42, i32* %13
  br label %48

; <label>:43:                                     ; preds = %14
  ret void

; <label>:44:                                     ; preds = %14
  %45 = alloca %"class.__gnu_debug::_Safe_container.33"*, align 8
  store %"class.__gnu_debug::_Safe_container.33"* %0, %"class.__gnu_debug::_Safe_container.33"** %45, align 8
  %46 = load %"class.__gnu_debug::_Safe_container.33"*, %"class.__gnu_debug::_Safe_container.33"** %45, align 8
  %47 = bitcast %"class.__gnu_debug::_Safe_container.33"* %46 to %"class.__gnu_debug::_Safe_sequence.34"*
  call void @_ZN11__gnu_debug14_Safe_sequenceINSt7__debug5dequeIiSaIiEEEED2Ev(%"class.__gnu_debug::_Safe_sequence.34"* %47) #3
  store i32 -235442054, i32* %13
  br label %48

; <label>:48:                                     ; preds = %44, %25, %17, %16
  br label %14
}

; Function Attrs: noinline nounwind uwtable
define linkonce_odr void @_ZN11__gnu_debug14_Safe_sequenceINSt7__debug5dequeIiSaIiEEEEC2Ev(%"class.__gnu_debug::_Safe_sequence.34"*) unnamed_addr #5 comdat align 2 {
  %2 = alloca %"class.__gnu_debug::_Safe_sequence.34"*, align 8
  store %"class.__gnu_debug::_Safe_sequence.34"* %0, %"class.__gnu_debug::_Safe_sequence.34"** %2, align 8
  %3 = load %"class.__gnu_debug::_Safe_sequence.34"*, %"class.__gnu_debug::_Safe_sequence.34"** %2, align 8
  %4 = bitcast %"class.__gnu_debug::_Safe_sequence.34"* %3 to %"class.__gnu_debug::_Safe_sequence_base"*
  call void @_ZN11__gnu_debug19_Safe_sequence_baseC2Ev(%"class.__gnu_debug::_Safe_sequence_base"* %4) #3
  ret void
}

; Function Attrs: noinline nounwind uwtable
define linkonce_odr void @_ZN11__gnu_debug19_Safe_sequence_baseC2Ev(%"class.__gnu_debug::_Safe_sequence_base"*) unnamed_addr #5 comdat align 2 {
  %2 = alloca i1
  %3 = alloca i1
  %4 = load i32, i32* @x.139
  %5 = load i32, i32* @y.140
  %6 = add i32 %4, 1980416580
  %7 = sub i32 %6, 1
  %8 = sub i32 %7, 1980416580
  %9 = sub i32 %4, 1
  %10 = mul i32 %4, %8
  %11 = urem i32 %10, 2
  %12 = icmp eq i32 %11, 0
  store i1 %12, i1* %3
  %13 = icmp slt i32 %5, 10
  store i1 %13, i1* %2
  %14 = alloca i32
  store i32 -1034129459, i32* %14
  br label %15

; <label>:15:                                     ; preds = %1, %78
  %16 = load i32, i32* %14
  switch i32 %16, label %17 [
    i32 -1034129459, label %18
    i32 172004872, label %38
    i32 -1909541544, label %71
    i32 -45198809, label %72
  ]

; <label>:17:                                     ; preds = %15
  br label %78

; <label>:18:                                     ; preds = %15
  %19 = load volatile i1, i1* %3
  %20 = load volatile i1, i1* %2
  %21 = xor i1 %19, true
  %22 = xor i1 %20, true
  %23 = xor i1 true, true
  %24 = and i1 %21, true
  %25 = and i1 %19, %23
  %26 = and i1 %22, true
  %27 = and i1 %20, %23
  %28 = or i1 %24, %25
  %29 = or i1 %26, %27
  %30 = xor i1 %28, %29
  %31 = or i1 %21, %22
  %32 = xor i1 %31, true
  %33 = or i1 true, %23
  %34 = and i1 %32, %33
  %35 = or i1 %30, %34
  %36 = or i1 %19, %20
  %37 = select i1 %35, i32 172004872, i32 -45198809
  store i32 %37, i32* %14
  br label %78

; <label>:38:                                     ; preds = %15
  %39 = alloca %"class.__gnu_debug::_Safe_sequence_base"*, align 8
  store %"class.__gnu_debug::_Safe_sequence_base"* %0, %"class.__gnu_debug::_Safe_sequence_base"** %39, align 8
  %40 = load %"class.__gnu_debug::_Safe_sequence_base"*, %"class.__gnu_debug::_Safe_sequence_base"** %39, align 8
  %41 = getelementptr inbounds %"class.__gnu_debug::_Safe_sequence_base", %"class.__gnu_debug::_Safe_sequence_base"* %40, i32 0, i32 0
  store %"class.__gnu_debug::_Safe_iterator_base"* null, %"class.__gnu_debug::_Safe_iterator_base"** %41, align 8
  %42 = getelementptr inbounds %"class.__gnu_debug::_Safe_sequence_base", %"class.__gnu_debug::_Safe_sequence_base"* %40, i32 0, i32 1
  store %"class.__gnu_debug::_Safe_iterator_base"* null, %"class.__gnu_debug::_Safe_iterator_base"** %42, align 8
  %43 = getelementptr inbounds %"class.__gnu_debug::_Safe_sequence_base", %"class.__gnu_debug::_Safe_sequence_base"* %40, i32 0, i32 2
  store i32 1, i32* %43, align 8
  %44 = load i32, i32* @x.139
  %45 = load i32, i32* @y.140
  %46 = add i32 %44, -1229242232
  %47 = sub i32 %46, 1
  %48 = sub i32 %47, -1229242232
  %49 = sub i32 %44, 1
  %50 = mul i32 %44, %48
  %51 = urem i32 %50, 2
  %52 = icmp eq i32 %51, 0
  %53 = icmp slt i32 %45, 10
  %54 = xor i1 %52, true
  %55 = xor i1 %53, true
  %56 = xor i1 false, true
  %57 = and i1 %54, false
  %58 = and i1 %52, %56
  %59 = and i1 %55, false
  %60 = and i1 %53, %56
  %61 = or i1 %57, %58
  %62 = or i1 %59, %60
  %63 = xor i1 %61, %62
  %64 = or i1 %54, %55
  %65 = xor i1 %64, true
  %66 = or i1 false, %56
  %67 = and i1 %65, %66
  %68 = or i1 %63, %67
  %69 = or i1 %52, %53
  %70 = select i1 %68, i32 -1909541544, i32 -45198809
  store i32 %70, i32* %14
  br label %78

; <label>:71:                                     ; preds = %15
  ret void

; <label>:72:                                     ; preds = %15
  %73 = alloca %"class.__gnu_debug::_Safe_sequence_base"*, align 8
  store %"class.__gnu_debug::_Safe_sequence_base"* %0, %"class.__gnu_debug::_Safe_sequence_base"** %73, align 8
  %74 = load %"class.__gnu_debug::_Safe_sequence_base"*, %"class.__gnu_debug::_Safe_sequence_base"** %73, align 8
  %75 = getelementptr inbounds %"class.__gnu_debug::_Safe_sequence_base", %"class.__gnu_debug::_Safe_sequence_base"* %74, i32 0, i32 0
  store %"class.__gnu_debug::_Safe_iterator_base"* null, %"class.__gnu_debug::_Safe_iterator_base"** %75, align 8
  %76 = getelementptr inbounds %"class.__gnu_debug::_Safe_sequence_base", %"class.__gnu_debug::_Safe_sequence_base"* %74, i32 0, i32 1
  store %"class.__gnu_debug::_Safe_iterator_base"* null, %"class.__gnu_debug::_Safe_iterator_base"** %76, align 8
  %77 = getelementptr inbounds %"class.__gnu_debug::_Safe_sequence_base", %"class.__gnu_debug::_Safe_sequence_base"* %74, i32 0, i32 2
  store i32 1, i32* %77, align 8
  store i32 172004872, i32* %14
  br label %78

; <label>:78:                                     ; preds = %72, %38, %18, %17
  br label %15
}

; Function Attrs: noinline uwtable
define linkonce_odr void @_ZNSt9__cxx199811_Deque_baseIiSaIiEEC2Ev(%"class.std::__cxx1998::_Deque_base"*) unnamed_addr #0 comdat align 2 personality i8* bitcast (i32 (...)* @__gxx_personality_v0 to i8*) {
  %2 = alloca %"class.std::__cxx1998::_Deque_base"*, align 8
  %3 = alloca i8*
  %4 = alloca i32
  store %"class.std::__cxx1998::_Deque_base"* %0, %"class.std::__cxx1998::_Deque_base"** %2, align 8
  %5 = load %"class.std::__cxx1998::_Deque_base"*, %"class.std::__cxx1998::_Deque_base"** %2, align 8
  %6 = getelementptr inbounds %"class.std::__cxx1998::_Deque_base", %"class.std::__cxx1998::_Deque_base"* %5, i32 0, i32 0
  call void @_ZNSt9__cxx199811_Deque_baseIiSaIiEE11_Deque_implC2Ev(%"struct.std::__cxx1998::_Deque_base<int, std::allocator<int> >::_Deque_impl"* %6)
  invoke void @_ZNSt9__cxx199811_Deque_baseIiSaIiEE17_M_initialize_mapEm(%"class.std::__cxx1998::_Deque_base"* %5, i64 0)
          to label %7 unwind label %49

; <label>:7:                                      ; preds = %1
  %8 = load i32, i32* @x.141
  %9 = load i32, i32* @y.142
  %10 = sub i32 %8, 227307601
  %11 = sub i32 %10, 1
  %12 = add i32 %11, 227307601
  %13 = sub i32 %8, 1
  %14 = mul i32 %8, %12
  %15 = urem i32 %14, 2
  %16 = icmp eq i32 %15, 0
  %17 = icmp slt i32 %9, 10
  %18 = and i1 %16, %17
  %19 = xor i1 %16, %17
  %20 = or i1 %18, %19
  %21 = or i1 %16, %17
  br i1 %20, label %22, label %58

; <label>:22:                                     ; preds = %7, %58
  %23 = load i32, i32* @x.141
  %24 = load i32, i32* @y.142
  %25 = sub i32 0, 1
  %26 = add i32 %23, %25
  %27 = sub i32 %23, 1
  %28 = mul i32 %23, %26
  %29 = urem i32 %28, 2
  %30 = icmp eq i32 %29, 0
  %31 = icmp slt i32 %24, 10
  %32 = xor i1 %30, true
  %33 = xor i1 %31, true
  %34 = xor i1 true, true
  %35 = and i1 %32, true
  %36 = and i1 %30, %34
  %37 = and i1 %33, true
  %38 = and i1 %31, %34
  %39 = or i1 %35, %36
  %40 = or i1 %37, %38
  %41 = xor i1 %39, %40
  %42 = or i1 %32, %33
  %43 = xor i1 %42, true
  %44 = or i1 true, %34
  %45 = and i1 %43, %44
  %46 = or i1 %41, %45
  %47 = or i1 %30, %31
  br i1 %46, label %48, label %58

; <label>:48:                                     ; preds = %22
  ret void

; <label>:49:                                     ; preds = %1
  %50 = landingpad { i8*, i32 }
          cleanup
  %51 = extractvalue { i8*, i32 } %50, 0
  store i8* %51, i8** %3, align 8
  %52 = extractvalue { i8*, i32 } %50, 1
  store i32 %52, i32* %4, align 4
  call void @_ZNSt9__cxx199811_Deque_baseIiSaIiEE11_Deque_implD2Ev(%"struct.std::__cxx1998::_Deque_base<int, std::allocator<int> >::_Deque_impl"* %6) #3
  br label %53

; <label>:53:                                     ; preds = %49
  %54 = load i8*, i8** %3, align 8
  %55 = load i32, i32* %4, align 4
  %56 = insertvalue { i8*, i32 } undef, i8* %54, 0
  %57 = insertvalue { i8*, i32 } %56, i32 %55, 1
  resume { i8*, i32 } %57

; <label>:58:                                     ; preds = %22, %7
  br label %22
}

; Function Attrs: noinline nounwind uwtable
define linkonce_odr void @_ZNSt9__cxx199811_Deque_baseIiSaIiEE11_Deque_implC2Ev(%"struct.std::__cxx1998::_Deque_base<int, std::allocator<int> >::_Deque_impl"*) unnamed_addr #5 comdat align 2 {
  %2 = alloca %"struct.std::__cxx1998::_Deque_base<int, std::allocator<int> >::_Deque_impl"*, align 8
  store %"struct.std::__cxx1998::_Deque_base<int, std::allocator<int> >::_Deque_impl"* %0, %"struct.std::__cxx1998::_Deque_base<int, std::allocator<int> >::_Deque_impl"** %2, align 8
  %3 = load %"struct.std::__cxx1998::_Deque_base<int, std::allocator<int> >::_Deque_impl"*, %"struct.std::__cxx1998::_Deque_base<int, std::allocator<int> >::_Deque_impl"** %2, align 8
  %4 = bitcast %"struct.std::__cxx1998::_Deque_base<int, std::allocator<int> >::_Deque_impl"* %3 to %"class.std::allocator"*
  call void @_ZNSaIiEC2Ev(%"class.std::allocator"* %4) #3
  %5 = getelementptr inbounds %"struct.std::__cxx1998::_Deque_base<int, std::allocator<int> >::_Deque_impl", %"struct.std::__cxx1998::_Deque_base<int, std::allocator<int> >::_Deque_impl"* %3, i32 0, i32 0
  store i32** null, i32*** %5, align 8
  %6 = getelementptr inbounds %"struct.std::__cxx1998::_Deque_base<int, std::allocator<int> >::_Deque_impl", %"struct.std::__cxx1998::_Deque_base<int, std::allocator<int> >::_Deque_impl"* %3, i32 0, i32 1
  store i64 0, i64* %6, align 8
  %7 = getelementptr inbounds %"struct.std::__cxx1998::_Deque_base<int, std::allocator<int> >::_Deque_impl", %"struct.std::__cxx1998::_Deque_base<int, std::allocator<int> >::_Deque_impl"* %3, i32 0, i32 2
  call void @_ZNSt9__cxx199815_Deque_iteratorIiRiPiEC2Ev(%"struct.std::__cxx1998::_Deque_iterator"* %7) #3
  %8 = getelementptr inbounds %"struct.std::__cxx1998::_Deque_base<int, std::allocator<int> >::_Deque_impl", %"struct.std::__cxx1998::_Deque_base<int, std::allocator<int> >::_Deque_impl"* %3, i32 0, i32 3
  call void @_ZNSt9__cxx199815_Deque_iteratorIiRiPiEC2Ev(%"struct.std::__cxx1998::_Deque_iterator"* %8) #3
  ret void
}

; Function Attrs: noinline uwtable
define linkonce_odr void @_ZNSt9__cxx199811_Deque_baseIiSaIiEE17_M_initialize_mapEm(%"class.std::__cxx1998::_Deque_base"*, i64) #0 comdat align 2 personality i8* bitcast (i32 (...)* @__gxx_personality_v0 to i8*) {
  %3 = alloca %"class.std::__cxx1998::_Deque_base"*, align 8
  %4 = alloca i64, align 8
  %5 = alloca i64, align 8
  %6 = alloca i64, align 8
  %7 = alloca i64, align 8
  %8 = alloca i32**, align 8
  %9 = alloca i32**, align 8
  %10 = alloca i8*
  %11 = alloca i32
  store %"class.std::__cxx1998::_Deque_base"* %0, %"class.std::__cxx1998::_Deque_base"** %3, align 8
  store i64 %1, i64* %4, align 8
  %12 = load %"class.std::__cxx1998::_Deque_base"*, %"class.std::__cxx1998::_Deque_base"** %3, align 8
  %13 = load i64, i64* %4, align 8
  %14 = call i64 @_ZNSt9__cxx199816__deque_buf_sizeEm(i64 4)
  %15 = udiv i64 %13, %14
  %16 = sub i64 %15, 7611411885820245504
  %17 = add i64 %16, 1
  %18 = add i64 %17, 7611411885820245504
  %19 = add i64 %15, 1
  store i64 %18, i64* %5, align 8
  store i64 8, i64* %6, align 8
  %20 = load i64, i64* %5, align 8
  %21 = add i64 %20, 7647628591562280642
  %22 = add i64 %21, 2
  %23 = sub i64 %22, 7647628591562280642
  %24 = add i64 %20, 2
  store i64 %23, i64* %7, align 8
  %25 = call dereferenceable(8) i64* @_ZSt3maxImERKT_S2_S2_(i64* dereferenceable(8) %6, i64* dereferenceable(8) %7)
  %26 = load i64, i64* %25, align 8
  %27 = getelementptr inbounds %"class.std::__cxx1998::_Deque_base", %"class.std::__cxx1998::_Deque_base"* %12, i32 0, i32 0
  %28 = getelementptr inbounds %"struct.std::__cxx1998::_Deque_base<int, std::allocator<int> >::_Deque_impl", %"struct.std::__cxx1998::_Deque_base<int, std::allocator<int> >::_Deque_impl"* %27, i32 0, i32 1
  store i64 %26, i64* %28, align 8
  %29 = getelementptr inbounds %"class.std::__cxx1998::_Deque_base", %"class.std::__cxx1998::_Deque_base"* %12, i32 0, i32 0
  %30 = getelementptr inbounds %"struct.std::__cxx1998::_Deque_base<int, std::allocator<int> >::_Deque_impl", %"struct.std::__cxx1998::_Deque_base<int, std::allocator<int> >::_Deque_impl"* %29, i32 0, i32 1
  %31 = load i64, i64* %30, align 8
  %32 = call i32** @_ZNSt9__cxx199811_Deque_baseIiSaIiEE15_M_allocate_mapEm(%"class.std::__cxx1998::_Deque_base"* %12, i64 %31)
  %33 = getelementptr inbounds %"class.std::__cxx1998::_Deque_base", %"class.std::__cxx1998::_Deque_base"* %12, i32 0, i32 0
  %34 = getelementptr inbounds %"struct.std::__cxx1998::_Deque_base<int, std::allocator<int> >::_Deque_impl", %"struct.std::__cxx1998::_Deque_base<int, std::allocator<int> >::_Deque_impl"* %33, i32 0, i32 0
  store i32** %32, i32*** %34, align 8
  %35 = getelementptr inbounds %"class.std::__cxx1998::_Deque_base", %"class.std::__cxx1998::_Deque_base"* %12, i32 0, i32 0
  %36 = getelementptr inbounds %"struct.std::__cxx1998::_Deque_base<int, std::allocator<int> >::_Deque_impl", %"struct.std::__cxx1998::_Deque_base<int, std::allocator<int> >::_Deque_impl"* %35, i32 0, i32 0
  %37 = load i32**, i32*** %36, align 8
  %38 = getelementptr inbounds %"class.std::__cxx1998::_Deque_base", %"class.std::__cxx1998::_Deque_base"* %12, i32 0, i32 0
  %39 = getelementptr inbounds %"struct.std::__cxx1998::_Deque_base<int, std::allocator<int> >::_Deque_impl", %"struct.std::__cxx1998::_Deque_base<int, std::allocator<int> >::_Deque_impl"* %38, i32 0, i32 1
  %40 = load i64, i64* %39, align 8
  %41 = load i64, i64* %5, align 8
  %42 = sub i64 0, %41
  %43 = add i64 %40, %42
  %44 = sub i64 %40, %41
  %45 = udiv i64 %43, 2
  %46 = getelementptr inbounds i32*, i32** %37, i64 %45
  store i32** %46, i32*** %8, align 8
  %47 = load i32**, i32*** %8, align 8
  %48 = load i64, i64* %5, align 8
  %49 = getelementptr inbounds i32*, i32** %47, i64 %48
  store i32** %49, i32*** %9, align 8
  %50 = load i32**, i32*** %8, align 8
  %51 = load i32**, i32*** %9, align 8
  invoke void @_ZNSt9__cxx199811_Deque_baseIiSaIiEE15_M_create_nodesEPPiS4_(%"class.std::__cxx1998::_Deque_base"* %12, i32** %50, i32** %51)
          to label %52 unwind label %53

; <label>:52:                                     ; preds = %2
  br label %117

; <label>:53:                                     ; preds = %2
  %54 = load i32, i32* @x.145
  %55 = load i32, i32* @y.146
  %56 = add i32 %54, 1134682736
  %57 = sub i32 %56, 1
  %58 = sub i32 %57, 1134682736
  %59 = sub i32 %54, 1
  %60 = mul i32 %54, %58
  %61 = urem i32 %60, 2
  %62 = icmp eq i32 %61, 0
  %63 = icmp slt i32 %55, 10
  %64 = and i1 %62, %63
  %65 = xor i1 %62, %63
  %66 = or i1 %64, %65
  %67 = or i1 %62, %63
  br i1 %66, label %68, label %222

; <label>:68:                                     ; preds = %53, %222
  %69 = landingpad { i8*, i32 }
          catch i8* null
  %70 = extractvalue { i8*, i32 } %69, 0
  store i8* %70, i8** %10, align 8
  %71 = extractvalue { i8*, i32 } %69, 1
  store i32 %71, i32* %11, align 4
  %72 = load i32, i32* @x.145
  %73 = load i32, i32* @y.146
  %74 = sub i32 %72, 397123998
  %75 = sub i32 %74, 1
  %76 = add i32 %75, 397123998
  %77 = sub i32 %72, 1
  %78 = mul i32 %72, %76
  %79 = urem i32 %78, 2
  %80 = icmp eq i32 %79, 0
  %81 = icmp slt i32 %73, 10
  %82 = xor i1 %80, true
  %83 = xor i1 %81, true
  %84 = xor i1 false, true
  %85 = and i1 %82, false
  %86 = and i1 %80, %84
  %87 = and i1 %83, false
  %88 = and i1 %81, %84
  %89 = or i1 %85, %86
  %90 = or i1 %87, %88
  %91 = xor i1 %89, %90
  %92 = or i1 %82, %83
  %93 = xor i1 %92, true
  %94 = or i1 false, %84
  %95 = and i1 %93, %94
  %96 = or i1 %91, %95
  %97 = or i1 %80, %81
  br i1 %96, label %98, label %222

; <label>:98:                                     ; preds = %68
  br label %99

; <label>:99:                                     ; preds = %98
  %100 = load i8*, i8** %10, align 8
  %101 = call i8* @__cxa_begin_catch(i8* %100) #3
  %102 = getelementptr inbounds %"class.std::__cxx1998::_Deque_base", %"class.std::__cxx1998::_Deque_base"* %12, i32 0, i32 0
  %103 = getelementptr inbounds %"struct.std::__cxx1998::_Deque_base<int, std::allocator<int> >::_Deque_impl", %"struct.std::__cxx1998::_Deque_base<int, std::allocator<int> >::_Deque_impl"* %102, i32 0, i32 0
  %104 = load i32**, i32*** %103, align 8
  %105 = getelementptr inbounds %"class.std::__cxx1998::_Deque_base", %"class.std::__cxx1998::_Deque_base"* %12, i32 0, i32 0
  %106 = getelementptr inbounds %"struct.std::__cxx1998::_Deque_base<int, std::allocator<int> >::_Deque_impl", %"struct.std::__cxx1998::_Deque_base<int, std::allocator<int> >::_Deque_impl"* %105, i32 0, i32 1
  %107 = load i64, i64* %106, align 8
  call void @_ZNSt9__cxx199811_Deque_baseIiSaIiEE17_M_deallocate_mapEPPim(%"class.std::__cxx1998::_Deque_base"* %12, i32** %104, i64 %107) #3
  %108 = getelementptr inbounds %"class.std::__cxx1998::_Deque_base", %"class.std::__cxx1998::_Deque_base"* %12, i32 0, i32 0
  %109 = getelementptr inbounds %"struct.std::__cxx1998::_Deque_base<int, std::allocator<int> >::_Deque_impl", %"struct.std::__cxx1998::_Deque_base<int, std::allocator<int> >::_Deque_impl"* %108, i32 0, i32 0
  store i32** null, i32*** %109, align 8
  %110 = getelementptr inbounds %"class.std::__cxx1998::_Deque_base", %"class.std::__cxx1998::_Deque_base"* %12, i32 0, i32 0
  %111 = getelementptr inbounds %"struct.std::__cxx1998::_Deque_base<int, std::allocator<int> >::_Deque_impl", %"struct.std::__cxx1998::_Deque_base<int, std::allocator<int> >::_Deque_impl"* %110, i32 0, i32 1
  store i64 0, i64* %111, align 8
  invoke void @__cxa_rethrow() #14
          to label %181 unwind label %112

; <label>:112:                                    ; preds = %99
  %113 = landingpad { i8*, i32 }
          cleanup
  %114 = extractvalue { i8*, i32 } %113, 0
  store i8* %114, i8** %10, align 8
  %115 = extractvalue { i8*, i32 } %113, 1
  store i32 %115, i32* %11, align 4
  invoke void @__cxa_end_catch()
          to label %116 unwind label %148

; <label>:116:                                    ; preds = %112
  br label %143

; <label>:117:                                    ; preds = %52
  %118 = getelementptr inbounds %"class.std::__cxx1998::_Deque_base", %"class.std::__cxx1998::_Deque_base"* %12, i32 0, i32 0
  %119 = getelementptr inbounds %"struct.std::__cxx1998::_Deque_base<int, std::allocator<int> >::_Deque_impl", %"struct.std::__cxx1998::_Deque_base<int, std::allocator<int> >::_Deque_impl"* %118, i32 0, i32 2
  %120 = load i32**, i32*** %8, align 8
  call void @_ZNSt9__cxx199815_Deque_iteratorIiRiPiE11_M_set_nodeEPS2_(%"struct.std::__cxx1998::_Deque_iterator"* %119, i32** %120) #3
  %121 = getelementptr inbounds %"class.std::__cxx1998::_Deque_base", %"class.std::__cxx1998::_Deque_base"* %12, i32 0, i32 0
  %122 = getelementptr inbounds %"struct.std::__cxx1998::_Deque_base<int, std::allocator<int> >::_Deque_impl", %"struct.std::__cxx1998::_Deque_base<int, std::allocator<int> >::_Deque_impl"* %121, i32 0, i32 3
  %123 = load i32**, i32*** %9, align 8
  %124 = getelementptr inbounds i32*, i32** %123, i64 -1
  call void @_ZNSt9__cxx199815_Deque_iteratorIiRiPiE11_M_set_nodeEPS2_(%"struct.std::__cxx1998::_Deque_iterator"* %122, i32** %124) #3
  %125 = getelementptr inbounds %"class.std::__cxx1998::_Deque_base", %"class.std::__cxx1998::_Deque_base"* %12, i32 0, i32 0
  %126 = getelementptr inbounds %"struct.std::__cxx1998::_Deque_base<int, std::allocator<int> >::_Deque_impl", %"struct.std::__cxx1998::_Deque_base<int, std::allocator<int> >::_Deque_impl"* %125, i32 0, i32 2
  %127 = getelementptr inbounds %"struct.std::__cxx1998::_Deque_iterator", %"struct.std::__cxx1998::_Deque_iterator"* %126, i32 0, i32 1
  %128 = load i32*, i32** %127, align 8
  %129 = getelementptr inbounds %"class.std::__cxx1998::_Deque_base", %"class.std::__cxx1998::_Deque_base"* %12, i32 0, i32 0
  %130 = getelementptr inbounds %"struct.std::__cxx1998::_Deque_base<int, std::allocator<int> >::_Deque_impl", %"struct.std::__cxx1998::_Deque_base<int, std::allocator<int> >::_Deque_impl"* %129, i32 0, i32 2
  %131 = getelementptr inbounds %"struct.std::__cxx1998::_Deque_iterator", %"struct.std::__cxx1998::_Deque_iterator"* %130, i32 0, i32 0
  store i32* %128, i32** %131, align 8
  %132 = getelementptr inbounds %"class.std::__cxx1998::_Deque_base", %"class.std::__cxx1998::_Deque_base"* %12, i32 0, i32 0
  %133 = getelementptr inbounds %"struct.std::__cxx1998::_Deque_base<int, std::allocator<int> >::_Deque_impl", %"struct.std::__cxx1998::_Deque_base<int, std::allocator<int> >::_Deque_impl"* %132, i32 0, i32 3
  %134 = getelementptr inbounds %"struct.std::__cxx1998::_Deque_iterator", %"struct.std::__cxx1998::_Deque_iterator"* %133, i32 0, i32 1
  %135 = load i32*, i32** %134, align 8
  %136 = load i64, i64* %4, align 8
  %137 = call i64 @_ZNSt9__cxx199816__deque_buf_sizeEm(i64 4)
  %138 = urem i64 %136, %137
  %139 = getelementptr inbounds i32, i32* %135, i64 %138
  %140 = getelementptr inbounds %"class.std::__cxx1998::_Deque_base", %"class.std::__cxx1998::_Deque_base"* %12, i32 0, i32 0
  %141 = getelementptr inbounds %"struct.std::__cxx1998::_Deque_base<int, std::allocator<int> >::_Deque_impl", %"struct.std::__cxx1998::_Deque_base<int, std::allocator<int> >::_Deque_impl"* %140, i32 0, i32 3
  %142 = getelementptr inbounds %"struct.std::__cxx1998::_Deque_iterator", %"struct.std::__cxx1998::_Deque_iterator"* %141, i32 0, i32 0
  store i32* %139, i32** %142, align 8
  ret void

; <label>:143:                                    ; preds = %116
  %144 = load i8*, i8** %10, align 8
  %145 = load i32, i32* %11, align 4
  %146 = insertvalue { i8*, i32 } undef, i8* %144, 0
  %147 = insertvalue { i8*, i32 } %146, i32 %145, 1
  resume { i8*, i32 } %147

; <label>:148:                                    ; preds = %112
  %149 = load i32, i32* @x.145
  %150 = load i32, i32* @y.146
  %151 = sub i32 %149, -250217108
  %152 = sub i32 %151, 1
  %153 = add i32 %152, -250217108
  %154 = sub i32 %149, 1
  %155 = mul i32 %149, %153
  %156 = urem i32 %155, 2
  %157 = icmp eq i32 %156, 0
  %158 = icmp slt i32 %150, 10
  %159 = and i1 %157, %158
  %160 = xor i1 %157, %158
  %161 = or i1 %159, %160
  %162 = or i1 %157, %158
  br i1 %161, label %163, label %226

; <label>:163:                                    ; preds = %148, %226
  %164 = landingpad { i8*, i32 }
          catch i8* null
  %165 = extractvalue { i8*, i32 } %164, 0
  call void @__clang_call_terminate(i8* %165) #13
  %166 = load i32, i32* @x.145
  %167 = load i32, i32* @y.146
  %168 = add i32 %166, -197923475
  %169 = sub i32 %168, 1
  %170 = sub i32 %169, -197923475
  %171 = sub i32 %166, 1
  %172 = mul i32 %166, %170
  %173 = urem i32 %172, 2
  %174 = icmp eq i32 %173, 0
  %175 = icmp slt i32 %167, 10
  %176 = and i1 %174, %175
  %177 = xor i1 %174, %175
  %178 = or i1 %176, %177
  %179 = or i1 %174, %175
  br i1 %178, label %180, label %226

; <label>:180:                                    ; preds = %163
  unreachable

; <label>:181:                                    ; preds = %99
  %182 = load i32, i32* @x.145
  %183 = load i32, i32* @y.146
  %184 = sub i32 0, 1
  %185 = add i32 %182, %184
  %186 = sub i32 %182, 1
  %187 = mul i32 %182, %185
  %188 = urem i32 %187, 2
  %189 = icmp eq i32 %188, 0
  %190 = icmp slt i32 %183, 10
  %191 = and i1 %189, %190
  %192 = xor i1 %189, %190
  %193 = or i1 %191, %192
  %194 = or i1 %189, %190
  br i1 %193, label %195, label %229

; <label>:195:                                    ; preds = %181, %229
  %196 = load i32, i32* @x.145
  %197 = load i32, i32* @y.146
  %198 = sub i32 0, 1
  %199 = add i32 %196, %198
  %200 = sub i32 %196, 1
  %201 = mul i32 %196, %199
  %202 = urem i32 %201, 2
  %203 = icmp eq i32 %202, 0
  %204 = icmp slt i32 %197, 10
  %205 = xor i1 %203, true
  %206 = xor i1 %204, true
  %207 = xor i1 true, true
  %208 = and i1 %205, true
  %209 = and i1 %203, %207
  %210 = and i1 %206, true
  %211 = and i1 %204, %207
  %212 = or i1 %208, %209
  %213 = or i1 %210, %211
  %214 = xor i1 %212, %213
  %215 = or i1 %205, %206
  %216 = xor i1 %215, true
  %217 = or i1 true, %207
  %218 = and i1 %216, %217
  %219 = or i1 %214, %218
  %220 = or i1 %203, %204
  br i1 %219, label %221, label %229

; <label>:221:                                    ; preds = %195
  unreachable

; <label>:222:                                    ; preds = %68, %53
  %223 = landingpad { i8*, i32 }
          catch i8* null
  %224 = extractvalue { i8*, i32 } %223, 0
  store i8* %224, i8** %10, align 8
  %225 = extractvalue { i8*, i32 } %223, 1
  store i32 %225, i32* %11, align 4
  br label %68

; <label>:226:                                    ; preds = %163, %148
  %227 = landingpad { i8*, i32 }
          catch i8* null
  %228 = extractvalue { i8*, i32 } %227, 0
  call void @__clang_call_terminate(i8* %228) #13
  br label %163

; <label>:229:                                    ; preds = %195, %181
  br label %195
}

; Function Attrs: noinline nounwind uwtable
define linkonce_odr void @_ZNSt9__cxx199811_Deque_baseIiSaIiEE11_Deque_implD2Ev(%"struct.std::__cxx1998::_Deque_base<int, std::allocator<int> >::_Deque_impl"*) unnamed_addr #5 comdat align 2 {
  %2 = alloca i1
  %3 = alloca i1
  %4 = load i32, i32* @x.147
  %5 = load i32, i32* @y.148
  %6 = sub i32 %4, 1344709687
  %7 = sub i32 %6, 1
  %8 = add i32 %7, 1344709687
  %9 = sub i32 %4, 1
  %10 = mul i32 %4, %8
  %11 = urem i32 %10, 2
  %12 = icmp eq i32 %11, 0
  store i1 %12, i1* %3
  %13 = icmp slt i32 %5, 10
  store i1 %13, i1* %2
  %14 = alloca i32
  store i32 -139086088, i32* %14
  br label %15

; <label>:15:                                     ; preds = %1, %62
  %16 = load i32, i32* %14
  switch i32 %16, label %17 [
    i32 -139086088, label %18
    i32 1666076208, label %26
    i32 1135288102, label %57
    i32 -429193817, label %58
  ]

; <label>:17:                                     ; preds = %15
  br label %62

; <label>:18:                                     ; preds = %15
  %19 = load volatile i1, i1* %3
  %20 = load volatile i1, i1* %2
  %21 = and i1 %19, %20
  %22 = xor i1 %19, %20
  %23 = or i1 %21, %22
  %24 = or i1 %19, %20
  %25 = select i1 %23, i32 1666076208, i32 -429193817
  store i32 %25, i32* %14
  br label %62

; <label>:26:                                     ; preds = %15
  %27 = alloca %"struct.std::__cxx1998::_Deque_base<int, std::allocator<int> >::_Deque_impl"*, align 8
  store %"struct.std::__cxx1998::_Deque_base<int, std::allocator<int> >::_Deque_impl"* %0, %"struct.std::__cxx1998::_Deque_base<int, std::allocator<int> >::_Deque_impl"** %27, align 8
  %28 = load %"struct.std::__cxx1998::_Deque_base<int, std::allocator<int> >::_Deque_impl"*, %"struct.std::__cxx1998::_Deque_base<int, std::allocator<int> >::_Deque_impl"** %27, align 8
  %29 = bitcast %"struct.std::__cxx1998::_Deque_base<int, std::allocator<int> >::_Deque_impl"* %28 to %"class.std::allocator"*
  call void @_ZNSaIiED2Ev(%"class.std::allocator"* %29) #3
  %30 = load i32, i32* @x.147
  %31 = load i32, i32* @y.148
  %32 = sub i32 %30, -1300895091
  %33 = sub i32 %32, 1
  %34 = add i32 %33, -1300895091
  %35 = sub i32 %30, 1
  %36 = mul i32 %30, %34
  %37 = urem i32 %36, 2
  %38 = icmp eq i32 %37, 0
  %39 = icmp slt i32 %31, 10
  %40 = xor i1 %38, true
  %41 = xor i1 %39, true
  %42 = xor i1 false, true
  %43 = and i1 %40, false
  %44 = and i1 %38, %42
  %45 = and i1 %41, false
  %46 = and i1 %39, %42
  %47 = or i1 %43, %44
  %48 = or i1 %45, %46
  %49 = xor i1 %47, %48
  %50 = or i1 %40, %41
  %51 = xor i1 %50, true
  %52 = or i1 false, %42
  %53 = and i1 %51, %52
  %54 = or i1 %49, %53
  %55 = or i1 %38, %39
  %56 = select i1 %54, i32 1135288102, i32 -429193817
  store i32 %56, i32* %14
  br label %62

; <label>:57:                                     ; preds = %15
  ret void

; <label>:58:                                     ; preds = %15
  %59 = alloca %"struct.std::__cxx1998::_Deque_base<int, std::allocator<int> >::_Deque_impl"*, align 8
  store %"struct.std::__cxx1998::_Deque_base<int, std::allocator<int> >::_Deque_impl"* %0, %"struct.std::__cxx1998::_Deque_base<int, std::allocator<int> >::_Deque_impl"** %59, align 8
  %60 = load %"struct.std::__cxx1998::_Deque_base<int, std::allocator<int> >::_Deque_impl"*, %"struct.std::__cxx1998::_Deque_base<int, std::allocator<int> >::_Deque_impl"** %59, align 8
  %61 = bitcast %"struct.std::__cxx1998::_Deque_base<int, std::allocator<int> >::_Deque_impl"* %60 to %"class.std::allocator"*
  call void @_ZNSaIiED2Ev(%"class.std::allocator"* %61) #3
  store i32 1666076208, i32* %14
  br label %62

; <label>:62:                                     ; preds = %58, %26, %18, %17
  br label %15
}

; Function Attrs: noinline nounwind uwtable
define linkonce_odr void @_ZNSt9__cxx199815_Deque_iteratorIiRiPiEC2Ev(%"struct.std::__cxx1998::_Deque_iterator"*) unnamed_addr #5 comdat align 2 {
  %2 = alloca %"struct.std::__cxx1998::_Deque_iterator"*, align 8
  store %"struct.std::__cxx1998::_Deque_iterator"* %0, %"struct.std::__cxx1998::_Deque_iterator"** %2, align 8
  %3 = load %"struct.std::__cxx1998::_Deque_iterator"*, %"struct.std::__cxx1998::_Deque_iterator"** %2, align 8
  %4 = getelementptr inbounds %"struct.std::__cxx1998::_Deque_iterator", %"struct.std::__cxx1998::_Deque_iterator"* %3, i32 0, i32 0
  store i32* null, i32** %4, align 8
  %5 = getelementptr inbounds %"struct.std::__cxx1998::_Deque_iterator", %"struct.std::__cxx1998::_Deque_iterator"* %3, i32 0, i32 1
  store i32* null, i32** %5, align 8
  %6 = getelementptr inbounds %"struct.std::__cxx1998::_Deque_iterator", %"struct.std::__cxx1998::_Deque_iterator"* %3, i32 0, i32 2
  store i32* null, i32** %6, align 8
  %7 = getelementptr inbounds %"struct.std::__cxx1998::_Deque_iterator", %"struct.std::__cxx1998::_Deque_iterator"* %3, i32 0, i32 3
  store i32** null, i32*** %7, align 8
  ret void
}

; Function Attrs: noinline nounwind uwtable
define linkonce_odr void @_ZN9__gnu_cxx13new_allocatorIiEC2Ev(%"class.__gnu_cxx::new_allocator"*) unnamed_addr #5 comdat align 2 {
  %2 = alloca i1
  %3 = alloca i1
  %4 = load i32, i32* @x.151
  %5 = load i32, i32* @y.152
  %6 = sub i32 0, 1
  %7 = add i32 %4, %6
  %8 = sub i32 %4, 1
  %9 = mul i32 %4, %7
  %10 = urem i32 %9, 2
  %11 = icmp eq i32 %10, 0
  store i1 %11, i1* %3
  %12 = icmp slt i32 %5, 10
  store i1 %12, i1* %2
  %13 = alloca i32
  store i32 1831937742, i32* %13
  br label %14

; <label>:14:                                     ; preds = %1, %58
  %15 = load i32, i32* %13
  switch i32 %15, label %16 [
    i32 1831937742, label %17
    i32 -695327176, label %25
    i32 -1571314625, label %54
    i32 1383530802, label %55
  ]

; <label>:16:                                     ; preds = %14
  br label %58

; <label>:17:                                     ; preds = %14
  %18 = load volatile i1, i1* %3
  %19 = load volatile i1, i1* %2
  %20 = and i1 %18, %19
  %21 = xor i1 %18, %19
  %22 = or i1 %20, %21
  %23 = or i1 %18, %19
  %24 = select i1 %22, i32 -695327176, i32 1383530802
  store i32 %24, i32* %13
  br label %58

; <label>:25:                                     ; preds = %14
  %26 = alloca %"class.__gnu_cxx::new_allocator"*, align 8
  store %"class.__gnu_cxx::new_allocator"* %0, %"class.__gnu_cxx::new_allocator"** %26, align 8
  %27 = load %"class.__gnu_cxx::new_allocator"*, %"class.__gnu_cxx::new_allocator"** %26, align 8
  %28 = load i32, i32* @x.151
  %29 = load i32, i32* @y.152
  %30 = sub i32 0, 1
  %31 = add i32 %28, %30
  %32 = sub i32 %28, 1
  %33 = mul i32 %28, %31
  %34 = urem i32 %33, 2
  %35 = icmp eq i32 %34, 0
  %36 = icmp slt i32 %29, 10
  %37 = xor i1 %35, true
  %38 = xor i1 %36, true
  %39 = xor i1 false, true
  %40 = and i1 %37, false
  %41 = and i1 %35, %39
  %42 = and i1 %38, false
  %43 = and i1 %36, %39
  %44 = or i1 %40, %41
  %45 = or i1 %42, %43
  %46 = xor i1 %44, %45
  %47 = or i1 %37, %38
  %48 = xor i1 %47, true
  %49 = or i1 false, %39
  %50 = and i1 %48, %49
  %51 = or i1 %46, %50
  %52 = or i1 %35, %36
  %53 = select i1 %51, i32 -1571314625, i32 1383530802
  store i32 %53, i32* %13
  br label %58

; <label>:54:                                     ; preds = %14
  ret void

; <label>:55:                                     ; preds = %14
  %56 = alloca %"class.__gnu_cxx::new_allocator"*, align 8
  store %"class.__gnu_cxx::new_allocator"* %0, %"class.__gnu_cxx::new_allocator"** %56, align 8
  %57 = load %"class.__gnu_cxx::new_allocator"*, %"class.__gnu_cxx::new_allocator"** %56, align 8
  store i32 -695327176, i32* %13
  br label %58

; <label>:58:                                     ; preds = %55, %25, %17, %16
  br label %14
}

; Function Attrs: noinline nounwind uwtable
define linkonce_odr i64 @_ZNSt9__cxx199816__deque_buf_sizeEm(i64) #5 comdat {
  %2 = alloca i64
  %3 = alloca i64, align 8
  store i64 %0, i64* %3, align 8
  %4 = load i64, i64* %3, align 8
  store i64 %4, i64* %2
  %5 = alloca i32
  store i32 1516073238, i32* %5
  %6 = alloca i64
  br label %7

; <label>:7:                                      ; preds = %1, %20
  %8 = load i32, i32* %5
  switch i32 %8, label %9 [
    i32 1516073238, label %10
    i32 230347111, label %14
    i32 -557652781, label %17
    i32 -1214099120, label %18
  ]

; <label>:9:                                      ; preds = %7
  br label %20

; <label>:10:                                     ; preds = %7
  %11 = load volatile i64, i64* %2
  %12 = icmp ult i64 %11, 512
  %13 = select i1 %12, i32 230347111, i32 -557652781
  store i32 %13, i32* %5
  br label %20

; <label>:14:                                     ; preds = %7
  %15 = load i64, i64* %3, align 8
  %16 = udiv i64 512, %15
  store i32 -1214099120, i32* %5
  store i64 %16, i64* %6
  br label %20

; <label>:17:                                     ; preds = %7
  store i32 -1214099120, i32* %5
  store i64 1, i64* %6
  br label %20

; <label>:18:                                     ; preds = %7
  %19 = load i64, i64* %6
  ret i64 %19

; <label>:20:                                     ; preds = %17, %14, %10, %9
  br label %7
}

; Function Attrs: noinline nounwind uwtable
define linkonce_odr dereferenceable(8) i64* @_ZSt3maxImERKT_S2_S2_(i64* dereferenceable(8), i64* dereferenceable(8)) #5 comdat {
  %3 = alloca i1
  %4 = alloca i64**
  %5 = alloca i64**
  %6 = alloca i64**
  %7 = alloca i1
  %8 = alloca i1
  %9 = load i32, i32* @x.155
  %10 = load i32, i32* @y.156
  %11 = sub i32 0, 1
  %12 = add i32 %9, %11
  %13 = sub i32 %9, 1
  %14 = mul i32 %9, %12
  %15 = urem i32 %14, 2
  %16 = icmp eq i32 %15, 0
  store i1 %16, i1* %8
  %17 = icmp slt i32 %10, 10
  store i1 %17, i1* %7
  %18 = alloca i32
  store i32 1975929547, i32* %18
  br label %19

; <label>:19:                                     ; preds = %2, %93
  %20 = load i32, i32* %18
  switch i32 %20, label %21 [
    i32 1975929547, label %22
    i32 -1917777993, label %30
    i32 -518015213, label %70
    i32 493587716, label %73
    i32 -1671975782, label %77
    i32 -330887481, label %81
    i32 -445125461, label %84
  ]

; <label>:21:                                     ; preds = %19
  br label %93

; <label>:22:                                     ; preds = %19
  %23 = load volatile i1, i1* %8
  %24 = load volatile i1, i1* %7
  %25 = and i1 %23, %24
  %26 = xor i1 %23, %24
  %27 = or i1 %25, %26
  %28 = or i1 %23, %24
  %29 = select i1 %27, i32 -1917777993, i32 -445125461
  store i32 %29, i32* %18
  br label %93

; <label>:30:                                     ; preds = %19
  %31 = alloca i64*, align 8
  store i64** %31, i64*** %6
  %32 = alloca i64*, align 8
  store i64** %32, i64*** %5
  %33 = alloca i64*, align 8
  store i64** %33, i64*** %4
  %34 = load volatile i64**, i64*** %5
  store i64* %0, i64** %34, align 8
  %35 = load volatile i64**, i64*** %4
  store i64* %1, i64** %35, align 8
  %36 = load volatile i64**, i64*** %5
  %37 = load i64*, i64** %36, align 8
  %38 = load i64, i64* %37, align 8
  %39 = load volatile i64**, i64*** %4
  %40 = load i64*, i64** %39, align 8
  %41 = load i64, i64* %40, align 8
  %42 = icmp ult i64 %38, %41
  store i1 %42, i1* %3
  %43 = load i32, i32* @x.155
  %44 = load i32, i32* @y.156
  %45 = sub i32 %43, -1497755275
  %46 = sub i32 %45, 1
  %47 = add i32 %46, -1497755275
  %48 = sub i32 %43, 1
  %49 = mul i32 %43, %47
  %50 = urem i32 %49, 2
  %51 = icmp eq i32 %50, 0
  %52 = icmp slt i32 %44, 10
  %53 = xor i1 %51, true
  %54 = xor i1 %52, true
  %55 = xor i1 false, true
  %56 = and i1 %53, false
  %57 = and i1 %51, %55
  %58 = and i1 %54, false
  %59 = and i1 %52, %55
  %60 = or i1 %56, %57
  %61 = or i1 %58, %59
  %62 = xor i1 %60, %61
  %63 = or i1 %53, %54
  %64 = xor i1 %63, true
  %65 = or i1 false, %55
  %66 = and i1 %64, %65
  %67 = or i1 %62, %66
  %68 = or i1 %51, %52
  %69 = select i1 %67, i32 -518015213, i32 -445125461
  store i32 %69, i32* %18
  br label %93

; <label>:70:                                     ; preds = %19
  %71 = load volatile i1, i1* %3
  %72 = select i1 %71, i32 493587716, i32 -1671975782
  store i32 %72, i32* %18
  br label %93

; <label>:73:                                     ; preds = %19
  %74 = load volatile i64**, i64*** %4
  %75 = load i64*, i64** %74, align 8
  %76 = load volatile i64**, i64*** %6
  store i64* %75, i64** %76, align 8
  store i32 -330887481, i32* %18
  br label %93

; <label>:77:                                     ; preds = %19
  %78 = load volatile i64**, i64*** %5
  %79 = load i64*, i64** %78, align 8
  %80 = load volatile i64**, i64*** %6
  store i64* %79, i64** %80, align 8
  store i32 -330887481, i32* %18
  br label %93

; <label>:81:                                     ; preds = %19
  %82 = load volatile i64**, i64*** %6
  %83 = load i64*, i64** %82, align 8
  ret i64* %83

; <label>:84:                                     ; preds = %19
  %85 = alloca i64*, align 8
  %86 = alloca i64*, align 8
  %87 = alloca i64*, align 8
  store i64* %0, i64** %86, align 8
  store i64* %1, i64** %87, align 8
  %88 = load i64*, i64** %86, align 8
  %89 = load i64, i64* %88, align 8
  %90 = load i64*, i64** %87, align 8
  %91 = load i64, i64* %90, align 8
  %92 = icmp ult i64 %89, %91
  store i32 -1917777993, i32* %18
  br label %93

; <label>:93:                                     ; preds = %84, %77, %73, %70, %30, %22, %21
  br label %19
}

; Function Attrs: noinline uwtable
define linkonce_odr i32** @_ZNSt9__cxx199811_Deque_baseIiSaIiEE15_M_allocate_mapEm(%"class.std::__cxx1998::_Deque_base"*, i64) #0 comdat align 2 personality i8* bitcast (i32 (...)* @__gxx_personality_v0 to i8*) {
  %3 = load i32, i32* @x.157
  %4 = load i32, i32* @y.158
  %5 = sub i32 %3, 2114730348
  %6 = sub i32 %5, 1
  %7 = add i32 %6, 2114730348
  %8 = sub i32 %3, 1
  %9 = mul i32 %3, %7
  %10 = urem i32 %9, 2
  %11 = icmp eq i32 %10, 0
  %12 = icmp slt i32 %4, 10
  %13 = xor i1 %11, true
  %14 = xor i1 %12, true
  %15 = xor i1 true, true
  %16 = and i1 %13, true
  %17 = and i1 %11, %15
  %18 = and i1 %14, true
  %19 = and i1 %12, %15
  %20 = or i1 %16, %17
  %21 = or i1 %18, %19
  %22 = xor i1 %20, %21
  %23 = or i1 %13, %14
  %24 = xor i1 %23, true
  %25 = or i1 true, %15
  %26 = and i1 %24, %25
  %27 = or i1 %22, %26
  %28 = or i1 %11, %12
  br i1 %27, label %29, label %158

; <label>:29:                                     ; preds = %2, %158
  %30 = alloca %"class.std::__cxx1998::_Deque_base"*, align 8
  %31 = alloca i64, align 8
  %32 = alloca %"class.std::allocator.39", align 1
  %33 = alloca i8*
  %34 = alloca i32
  store %"class.std::__cxx1998::_Deque_base"* %0, %"class.std::__cxx1998::_Deque_base"** %30, align 8
  store i64 %1, i64* %31, align 8
  %35 = load %"class.std::__cxx1998::_Deque_base"*, %"class.std::__cxx1998::_Deque_base"** %30, align 8
  call void @_ZNKSt9__cxx199811_Deque_baseIiSaIiEE20_M_get_map_allocatorEv(%"class.std::allocator.39"* sret %32, %"class.std::__cxx1998::_Deque_base"* %35) #3
  %36 = load i64, i64* %31, align 8
  %37 = load i32, i32* @x.157
  %38 = load i32, i32* @y.158
  %39 = sub i32 %37, -1676543846
  %40 = sub i32 %39, 1
  %41 = add i32 %40, -1676543846
  %42 = sub i32 %37, 1
  %43 = mul i32 %37, %41
  %44 = urem i32 %43, 2
  %45 = icmp eq i32 %44, 0
  %46 = icmp slt i32 %38, 10
  %47 = and i1 %45, %46
  %48 = xor i1 %45, %46
  %49 = or i1 %47, %48
  %50 = or i1 %45, %46
  br i1 %49, label %51, label %158

; <label>:51:                                     ; preds = %29
  %52 = invoke i32** @_ZNSt16allocator_traitsISaIPiEE8allocateERS1_m(%"class.std::allocator.39"* dereferenceable(1) %32, i64 %36)
          to label %53 unwind label %95

; <label>:53:                                     ; preds = %51
  %54 = load i32, i32* @x.157
  %55 = load i32, i32* @y.158
  %56 = add i32 %54, -1605206822
  %57 = sub i32 %56, 1
  %58 = sub i32 %57, -1605206822
  %59 = sub i32 %54, 1
  %60 = mul i32 %54, %58
  %61 = urem i32 %60, 2
  %62 = icmp eq i32 %61, 0
  %63 = icmp slt i32 %55, 10
  %64 = xor i1 %62, true
  %65 = xor i1 %63, true
  %66 = xor i1 true, true
  %67 = and i1 %64, true
  %68 = and i1 %62, %66
  %69 = and i1 %65, true
  %70 = and i1 %63, %66
  %71 = or i1 %67, %68
  %72 = or i1 %69, %70
  %73 = xor i1 %71, %72
  %74 = or i1 %64, %65
  %75 = xor i1 %74, true
  %76 = or i1 true, %66
  %77 = and i1 %75, %76
  %78 = or i1 %73, %77
  %79 = or i1 %62, %63
  br i1 %78, label %80, label %166

; <label>:80:                                     ; preds = %53, %166
  call void @_ZNSaIPiED2Ev(%"class.std::allocator.39"* %32) #3
  %81 = load i32, i32* @x.157
  %82 = load i32, i32* @y.158
  %83 = sub i32 0, 1
  %84 = add i32 %81, %83
  %85 = sub i32 %81, 1
  %86 = mul i32 %81, %84
  %87 = urem i32 %86, 2
  %88 = icmp eq i32 %87, 0
  %89 = icmp slt i32 %82, 10
  %90 = and i1 %88, %89
  %91 = xor i1 %88, %89
  %92 = or i1 %90, %91
  %93 = or i1 %88, %89
  br i1 %92, label %94, label %166

; <label>:94:                                     ; preds = %80
  ret i32** %52

; <label>:95:                                     ; preds = %51
  %96 = load i32, i32* @x.157
  %97 = load i32, i32* @y.158
  %98 = sub i32 %96, 17582909
  %99 = sub i32 %98, 1
  %100 = add i32 %99, 17582909
  %101 = sub i32 %96, 1
  %102 = mul i32 %96, %100
  %103 = urem i32 %102, 2
  %104 = icmp eq i32 %103, 0
  %105 = icmp slt i32 %97, 10
  %106 = xor i1 %104, true
  %107 = xor i1 %105, true
  %108 = xor i1 true, true
  %109 = and i1 %106, true
  %110 = and i1 %104, %108
  %111 = and i1 %107, true
  %112 = and i1 %105, %108
  %113 = or i1 %109, %110
  %114 = or i1 %111, %112
  %115 = xor i1 %113, %114
  %116 = or i1 %106, %107
  %117 = xor i1 %116, true
  %118 = or i1 true, %108
  %119 = and i1 %117, %118
  %120 = or i1 %115, %119
  %121 = or i1 %104, %105
  br i1 %120, label %122, label %167

; <label>:122:                                    ; preds = %95, %167
  %123 = landingpad { i8*, i32 }
          cleanup
  %124 = extractvalue { i8*, i32 } %123, 0
  store i8* %124, i8** %33, align 8
  %125 = extractvalue { i8*, i32 } %123, 1
  store i32 %125, i32* %34, align 4
  call void @_ZNSaIPiED2Ev(%"class.std::allocator.39"* %32) #3
  %126 = load i32, i32* @x.157
  %127 = load i32, i32* @y.158
  %128 = add i32 %126, -987819810
  %129 = sub i32 %128, 1
  %130 = sub i32 %129, -987819810
  %131 = sub i32 %126, 1
  %132 = mul i32 %126, %130
  %133 = urem i32 %132, 2
  %134 = icmp eq i32 %133, 0
  %135 = icmp slt i32 %127, 10
  %136 = xor i1 %134, true
  %137 = xor i1 %135, true
  %138 = xor i1 true, true
  %139 = and i1 %136, true
  %140 = and i1 %134, %138
  %141 = and i1 %137, true
  %142 = and i1 %135, %138
  %143 = or i1 %139, %140
  %144 = or i1 %141, %142
  %145 = xor i1 %143, %144
  %146 = or i1 %136, %137
  %147 = xor i1 %146, true
  %148 = or i1 true, %138
  %149 = and i1 %147, %148
  %150 = or i1 %145, %149
  %151 = or i1 %134, %135
  br i1 %150, label %152, label %167

; <label>:152:                                    ; preds = %122
  br label %153

; <label>:153:                                    ; preds = %152
  %154 = load i8*, i8** %33, align 8
  %155 = load i32, i32* %34, align 4
  %156 = insertvalue { i8*, i32 } undef, i8* %154, 0
  %157 = insertvalue { i8*, i32 } %156, i32 %155, 1
  resume { i8*, i32 } %157

; <label>:158:                                    ; preds = %29, %2
  %159 = alloca %"class.std::__cxx1998::_Deque_base"*, align 8
  %160 = alloca i64, align 8
  %161 = alloca %"class.std::allocator.39", align 1
  %162 = alloca i8*
  %163 = alloca i32
  store %"class.std::__cxx1998::_Deque_base"* %0, %"class.std::__cxx1998::_Deque_base"** %159, align 8
  store i64 %1, i64* %160, align 8
  %164 = load %"class.std::__cxx1998::_Deque_base"*, %"class.std::__cxx1998::_Deque_base"** %159, align 8
  call void @_ZNKSt9__cxx199811_Deque_baseIiSaIiEE20_M_get_map_allocatorEv(%"class.std::allocator.39"* sret %161, %"class.std::__cxx1998::_Deque_base"* %164) #3
  %165 = load i64, i64* %160, align 8
  br label %29

; <label>:166:                                    ; preds = %80, %53
  call void @_ZNSaIPiED2Ev(%"class.std::allocator.39"* %32) #3
  br label %80

; <label>:167:                                    ; preds = %122, %95
  %168 = landingpad { i8*, i32 }
          cleanup
  %169 = extractvalue { i8*, i32 } %168, 0
  store i8* %169, i8** %33, align 8
  %170 = extractvalue { i8*, i32 } %168, 1
  store i32 %170, i32* %34, align 4
  call void @_ZNSaIPiED2Ev(%"class.std::allocator.39"* %32) #3
  br label %122
}

; Function Attrs: noinline uwtable
define linkonce_odr void @_ZNSt9__cxx199811_Deque_baseIiSaIiEE15_M_create_nodesEPPiS4_(%"class.std::__cxx1998::_Deque_base"*, i32**, i32**) #0 comdat align 2 personality i8* bitcast (i32 (...)* @__gxx_personality_v0 to i8*) {
  %4 = alloca %"class.std::__cxx1998::_Deque_base"*, align 8
  %5 = alloca i32**, align 8
  %6 = alloca i32**, align 8
  %7 = alloca i32**, align 8
  %8 = alloca i8*
  %9 = alloca i32
  store %"class.std::__cxx1998::_Deque_base"* %0, %"class.std::__cxx1998::_Deque_base"** %4, align 8
  store i32** %1, i32*** %5, align 8
  store i32** %2, i32*** %6, align 8
  %10 = load %"class.std::__cxx1998::_Deque_base"*, %"class.std::__cxx1998::_Deque_base"** %4, align 8
  %11 = load i32**, i32*** %5, align 8
  store i32** %11, i32*** %7, align 8
  br label %12

; <label>:12:                                     ; preds = %93, %3
  %13 = load i32**, i32*** %7, align 8
  %14 = load i32**, i32*** %6, align 8
  %15 = icmp ult i32** %13, %14
  br i1 %15, label %16, label %133

; <label>:16:                                     ; preds = %12
  %17 = load i32, i32* @x.159
  %18 = load i32, i32* @y.160
  %19 = sub i32 0, 1
  %20 = add i32 %17, %19
  %21 = sub i32 %17, 1
  %22 = mul i32 %17, %20
  %23 = urem i32 %22, 2
  %24 = icmp eq i32 %23, 0
  %25 = icmp slt i32 %18, 10
  %26 = and i1 %24, %25
  %27 = xor i1 %24, %25
  %28 = or i1 %26, %27
  %29 = or i1 %24, %25
  br i1 %28, label %30, label %149

; <label>:30:                                     ; preds = %16, %149
  %31 = load i32, i32* @x.159
  %32 = load i32, i32* @y.160
  %33 = add i32 %31, 1423570760
  %34 = sub i32 %33, 1
  %35 = sub i32 %34, 1423570760
  %36 = sub i32 %31, 1
  %37 = mul i32 %31, %35
  %38 = urem i32 %37, 2
  %39 = icmp eq i32 %38, 0
  %40 = icmp slt i32 %32, 10
  %41 = and i1 %39, %40
  %42 = xor i1 %39, %40
  %43 = or i1 %41, %42
  %44 = or i1 %39, %40
  br i1 %43, label %45, label %149

; <label>:45:                                     ; preds = %30
  %46 = invoke i32* @_ZNSt9__cxx199811_Deque_baseIiSaIiEE16_M_allocate_nodeEv(%"class.std::__cxx1998::_Deque_base"* %10)
          to label %47 unwind label %94

; <label>:47:                                     ; preds = %45
  %48 = load i32**, i32*** %7, align 8
  store i32* %46, i32** %48, align 8
  br label %49

; <label>:49:                                     ; preds = %47
  %50 = load i32, i32* @x.159
  %51 = load i32, i32* @y.160
  %52 = add i32 %50, -1440258278
  %53 = sub i32 %52, 1
  %54 = sub i32 %53, -1440258278
  %55 = sub i32 %50, 1
  %56 = mul i32 %50, %54
  %57 = urem i32 %56, 2
  %58 = icmp eq i32 %57, 0
  %59 = icmp slt i32 %51, 10
  %60 = and i1 %58, %59
  %61 = xor i1 %58, %59
  %62 = or i1 %60, %61
  %63 = or i1 %58, %59
  br i1 %62, label %64, label %150

; <label>:64:                                     ; preds = %49, %150
  %65 = load i32**, i32*** %7, align 8
  %66 = getelementptr inbounds i32*, i32** %65, i32 1
  store i32** %66, i32*** %7, align 8
  %67 = load i32, i32* @x.159
  %68 = load i32, i32* @y.160
  %69 = sub i32 %67, 713053719
  %70 = sub i32 %69, 1
  %71 = add i32 %70, 713053719
  %72 = sub i32 %67, 1
  %73 = mul i32 %67, %71
  %74 = urem i32 %73, 2
  %75 = icmp eq i32 %74, 0
  %76 = icmp slt i32 %68, 10
  %77 = xor i1 %75, true
  %78 = xor i1 %76, true
  %79 = xor i1 true, true
  %80 = and i1 %77, true
  %81 = and i1 %75, %79
  %82 = and i1 %78, true
  %83 = and i1 %76, %79
  %84 = or i1 %80, %81
  %85 = or i1 %82, %83
  %86 = xor i1 %84, %85
  %87 = or i1 %77, %78
  %88 = xor i1 %87, true
  %89 = or i1 true, %79
  %90 = and i1 %88, %89
  %91 = or i1 %86, %90
  %92 = or i1 %75, %76
  br i1 %91, label %93, label %150

; <label>:93:                                     ; preds = %64
  br label %12

; <label>:94:                                     ; preds = %45
  %95 = landingpad { i8*, i32 }
          catch i8* null
  %96 = extractvalue { i8*, i32 } %95, 0
  store i8* %96, i8** %8, align 8
  %97 = extractvalue { i8*, i32 } %95, 1
  store i32 %97, i32* %9, align 4
  br label %98

; <label>:98:                                     ; preds = %94
  %99 = load i32, i32* @x.159
  %100 = load i32, i32* @y.160
  %101 = sub i32 %99, -1612395245
  %102 = sub i32 %101, 1
  %103 = add i32 %102, -1612395245
  %104 = sub i32 %99, 1
  %105 = mul i32 %99, %103
  %106 = urem i32 %105, 2
  %107 = icmp eq i32 %106, 0
  %108 = icmp slt i32 %100, 10
  %109 = and i1 %107, %108
  %110 = xor i1 %107, %108
  %111 = or i1 %109, %110
  %112 = or i1 %107, %108
  br i1 %111, label %113, label %153

; <label>:113:                                    ; preds = %98, %153
  %114 = load i8*, i8** %8, align 8
  %115 = call i8* @__cxa_begin_catch(i8* %114) #3
  %116 = load i32**, i32*** %5, align 8
  %117 = load i32**, i32*** %7, align 8
  call void @_ZNSt9__cxx199811_Deque_baseIiSaIiEE16_M_destroy_nodesEPPiS4_(%"class.std::__cxx1998::_Deque_base"* %10, i32** %116, i32** %117) #3
  %118 = load i32, i32* @x.159
  %119 = load i32, i32* @y.160
  %120 = add i32 %118, -755353312
  %121 = sub i32 %120, 1
  %122 = sub i32 %121, -755353312
  %123 = sub i32 %118, 1
  %124 = mul i32 %118, %122
  %125 = urem i32 %124, 2
  %126 = icmp eq i32 %125, 0
  %127 = icmp slt i32 %119, 10
  %128 = and i1 %126, %127
  %129 = xor i1 %126, %127
  %130 = or i1 %128, %129
  %131 = or i1 %126, %127
  br i1 %130, label %132, label %153

; <label>:132:                                    ; preds = %113
  invoke void @__cxa_rethrow() #14
          to label %148 unwind label %134

; <label>:133:                                    ; preds = %12
  br label %139

; <label>:134:                                    ; preds = %132
  %135 = landingpad { i8*, i32 }
          cleanup
  %136 = extractvalue { i8*, i32 } %135, 0
  store i8* %136, i8** %8, align 8
  %137 = extractvalue { i8*, i32 } %135, 1
  store i32 %137, i32* %9, align 4
  invoke void @__cxa_end_catch()
          to label %138 unwind label %145

; <label>:138:                                    ; preds = %134
  br label %140

; <label>:139:                                    ; preds = %133
  ret void

; <label>:140:                                    ; preds = %138
  %141 = load i8*, i8** %8, align 8
  %142 = load i32, i32* %9, align 4
  %143 = insertvalue { i8*, i32 } undef, i8* %141, 0
  %144 = insertvalue { i8*, i32 } %143, i32 %142, 1
  resume { i8*, i32 } %144

; <label>:145:                                    ; preds = %134
  %146 = landingpad { i8*, i32 }
          catch i8* null
  %147 = extractvalue { i8*, i32 } %146, 0
  call void @__clang_call_terminate(i8* %147) #13
  unreachable

; <label>:148:                                    ; preds = %132
  unreachable

; <label>:149:                                    ; preds = %30, %16
  br label %30

; <label>:150:                                    ; preds = %64, %49
  %151 = load i32**, i32*** %7, align 8
  %152 = getelementptr inbounds i32*, i32** %151, i32 1
  store i32** %152, i32*** %7, align 8
  br label %64

; <label>:153:                                    ; preds = %113, %98
  %154 = load i8*, i8** %8, align 8
  %155 = call i8* @__cxa_begin_catch(i8* %154) #3
  %156 = load i32**, i32*** %5, align 8
  %157 = load i32**, i32*** %7, align 8
  call void @_ZNSt9__cxx199811_Deque_baseIiSaIiEE16_M_destroy_nodesEPPiS4_(%"class.std::__cxx1998::_Deque_base"* %10, i32** %156, i32** %157) #3
  br label %113
}

; Function Attrs: noinline nounwind uwtable
define linkonce_odr void @_ZNSt9__cxx199811_Deque_baseIiSaIiEE17_M_deallocate_mapEPPim(%"class.std::__cxx1998::_Deque_base"*, i32**, i64) #5 comdat align 2 personality i8* bitcast (i32 (...)* @__gxx_personality_v0 to i8*) {
  %4 = alloca %"class.std::__cxx1998::_Deque_base"*, align 8
  %5 = alloca i32**, align 8
  %6 = alloca i64, align 8
  %7 = alloca %"class.std::allocator.39", align 1
  %8 = alloca i8*
  %9 = alloca i32
  store %"class.std::__cxx1998::_Deque_base"* %0, %"class.std::__cxx1998::_Deque_base"** %4, align 8
  store i32** %1, i32*** %5, align 8
  store i64 %2, i64* %6, align 8
  %10 = load %"class.std::__cxx1998::_Deque_base"*, %"class.std::__cxx1998::_Deque_base"** %4, align 8
  call void @_ZNKSt9__cxx199811_Deque_baseIiSaIiEE20_M_get_map_allocatorEv(%"class.std::allocator.39"* sret %7, %"class.std::__cxx1998::_Deque_base"* %10) #3
  %11 = load i32**, i32*** %5, align 8
  %12 = load i64, i64* %6, align 8
  invoke void @_ZNSt16allocator_traitsISaIPiEE10deallocateERS1_PS0_m(%"class.std::allocator.39"* dereferenceable(1) %7, i32** %11, i64 %12)
          to label %13 unwind label %68

; <label>:13:                                     ; preds = %3
  %14 = load i32, i32* @x.161
  %15 = load i32, i32* @y.162
  %16 = add i32 %14, 2102766617
  %17 = sub i32 %16, 1
  %18 = sub i32 %17, 2102766617
  %19 = sub i32 %14, 1
  %20 = mul i32 %14, %18
  %21 = urem i32 %20, 2
  %22 = icmp eq i32 %21, 0
  %23 = icmp slt i32 %15, 10
  %24 = xor i1 %22, true
  %25 = xor i1 %23, true
  %26 = xor i1 true, true
  %27 = and i1 %24, true
  %28 = and i1 %22, %26
  %29 = and i1 %25, true
  %30 = and i1 %23, %26
  %31 = or i1 %27, %28
  %32 = or i1 %29, %30
  %33 = xor i1 %31, %32
  %34 = or i1 %24, %25
  %35 = xor i1 %34, true
  %36 = or i1 true, %26
  %37 = and i1 %35, %36
  %38 = or i1 %33, %37
  %39 = or i1 %22, %23
  br i1 %38, label %40, label %128

; <label>:40:                                     ; preds = %13, %128
  call void @_ZNSaIPiED2Ev(%"class.std::allocator.39"* %7) #3
  %41 = load i32, i32* @x.161
  %42 = load i32, i32* @y.162
  %43 = sub i32 %41, 1238887006
  %44 = sub i32 %43, 1
  %45 = add i32 %44, 1238887006
  %46 = sub i32 %41, 1
  %47 = mul i32 %41, %45
  %48 = urem i32 %47, 2
  %49 = icmp eq i32 %48, 0
  %50 = icmp slt i32 %42, 10
  %51 = xor i1 %49, true
  %52 = xor i1 %50, true
  %53 = xor i1 false, true
  %54 = and i1 %51, false
  %55 = and i1 %49, %53
  %56 = and i1 %52, false
  %57 = and i1 %50, %53
  %58 = or i1 %54, %55
  %59 = or i1 %56, %57
  %60 = xor i1 %58, %59
  %61 = or i1 %51, %52
  %62 = xor i1 %61, true
  %63 = or i1 false, %53
  %64 = and i1 %62, %63
  %65 = or i1 %60, %64
  %66 = or i1 %49, %50
  br i1 %65, label %67, label %128

; <label>:67:                                     ; preds = %40
  ret void

; <label>:68:                                     ; preds = %3
  %69 = load i32, i32* @x.161
  %70 = load i32, i32* @y.162
  %71 = add i32 %69, -1922538600
  %72 = sub i32 %71, 1
  %73 = sub i32 %72, -1922538600
  %74 = sub i32 %69, 1
  %75 = mul i32 %69, %73
  %76 = urem i32 %75, 2
  %77 = icmp eq i32 %76, 0
  %78 = icmp slt i32 %70, 10
  %79 = xor i1 %77, true
  %80 = xor i1 %78, true
  %81 = xor i1 true, true
  %82 = and i1 %79, true
  %83 = and i1 %77, %81
  %84 = and i1 %80, true
  %85 = and i1 %78, %81
  %86 = or i1 %82, %83
  %87 = or i1 %84, %85
  %88 = xor i1 %86, %87
  %89 = or i1 %79, %80
  %90 = xor i1 %89, true
  %91 = or i1 true, %81
  %92 = and i1 %90, %91
  %93 = or i1 %88, %92
  %94 = or i1 %77, %78
  br i1 %93, label %95, label %129

; <label>:95:                                     ; preds = %68, %129
  %96 = landingpad { i8*, i32 }
          catch i8* null
  %97 = extractvalue { i8*, i32 } %96, 0
  store i8* %97, i8** %8, align 8
  %98 = extractvalue { i8*, i32 } %96, 1
  store i32 %98, i32* %9, align 4
  call void @_ZNSaIPiED2Ev(%"class.std::allocator.39"* %7) #3
  %99 = load i32, i32* @x.161
  %100 = load i32, i32* @y.162
  %101 = sub i32 %99, 161868903
  %102 = sub i32 %101, 1
  %103 = add i32 %102, 161868903
  %104 = sub i32 %99, 1
  %105 = mul i32 %99, %103
  %106 = urem i32 %105, 2
  %107 = icmp eq i32 %106, 0
  %108 = icmp slt i32 %100, 10
  %109 = xor i1 %107, true
  %110 = xor i1 %108, true
  %111 = xor i1 true, true
  %112 = and i1 %109, true
  %113 = and i1 %107, %111
  %114 = and i1 %110, true
  %115 = and i1 %108, %111
  %116 = or i1 %112, %113
  %117 = or i1 %114, %115
  %118 = xor i1 %116, %117
  %119 = or i1 %109, %110
  %120 = xor i1 %119, true
  %121 = or i1 true, %111
  %122 = and i1 %120, %121
  %123 = or i1 %118, %122
  %124 = or i1 %107, %108
  br i1 %123, label %125, label %129

; <label>:125:                                    ; preds = %95
  br label %126

; <label>:126:                                    ; preds = %125
  %127 = load i8*, i8** %8, align 8
  call void @__clang_call_terminate(i8* %127) #13
  unreachable

; <label>:128:                                    ; preds = %40, %13
  call void @_ZNSaIPiED2Ev(%"class.std::allocator.39"* %7) #3
  br label %40

; <label>:129:                                    ; preds = %95, %68
  %130 = landingpad { i8*, i32 }
          catch i8* null
  %131 = extractvalue { i8*, i32 } %130, 0
  store i8* %131, i8** %8, align 8
  %132 = extractvalue { i8*, i32 } %130, 1
  store i32 %132, i32* %9, align 4
  call void @_ZNSaIPiED2Ev(%"class.std::allocator.39"* %7) #3
  br label %95
}

declare void @__cxa_rethrow()

declare void @__cxa_end_catch()

; Function Attrs: noinline nounwind uwtable
define linkonce_odr void @_ZNSt9__cxx199815_Deque_iteratorIiRiPiE11_M_set_nodeEPS2_(%"struct.std::__cxx1998::_Deque_iterator"*, i32**) #5 comdat align 2 {
  %3 = alloca %"struct.std::__cxx1998::_Deque_iterator"*, align 8
  %4 = alloca i32**, align 8
  store %"struct.std::__cxx1998::_Deque_iterator"* %0, %"struct.std::__cxx1998::_Deque_iterator"** %3, align 8
  store i32** %1, i32*** %4, align 8
  %5 = load %"struct.std::__cxx1998::_Deque_iterator"*, %"struct.std::__cxx1998::_Deque_iterator"** %3, align 8
  %6 = load i32**, i32*** %4, align 8
  %7 = getelementptr inbounds %"struct.std::__cxx1998::_Deque_iterator", %"struct.std::__cxx1998::_Deque_iterator"* %5, i32 0, i32 3
  store i32** %6, i32*** %7, align 8
  %8 = load i32**, i32*** %4, align 8
  %9 = load i32*, i32** %8, align 8
  %10 = getelementptr inbounds %"struct.std::__cxx1998::_Deque_iterator", %"struct.std::__cxx1998::_Deque_iterator"* %5, i32 0, i32 1
  store i32* %9, i32** %10, align 8
  %11 = getelementptr inbounds %"struct.std::__cxx1998::_Deque_iterator", %"struct.std::__cxx1998::_Deque_iterator"* %5, i32 0, i32 1
  %12 = load i32*, i32** %11, align 8
  %13 = call i64 @_ZNSt9__cxx199815_Deque_iteratorIiRiPiE14_S_buffer_sizeEv() #3
  %14 = getelementptr inbounds i32, i32* %12, i64 %13
  %15 = getelementptr inbounds %"struct.std::__cxx1998::_Deque_iterator", %"struct.std::__cxx1998::_Deque_iterator"* %5, i32 0, i32 2
  store i32* %14, i32** %15, align 8
  ret void
}

; Function Attrs: noinline nounwind uwtable
define linkonce_odr void @_ZNKSt9__cxx199811_Deque_baseIiSaIiEE20_M_get_map_allocatorEv(%"class.std::allocator.39"* noalias sret, %"class.std::__cxx1998::_Deque_base"*) #5 comdat align 2 {
  %3 = alloca i1
  %4 = alloca i1
  %5 = load i32, i32* @x.165
  %6 = load i32, i32* @y.166
  %7 = add i32 %5, -1968328815
  %8 = sub i32 %7, 1
  %9 = sub i32 %8, -1968328815
  %10 = sub i32 %5, 1
  %11 = mul i32 %5, %9
  %12 = urem i32 %11, 2
  %13 = icmp eq i32 %12, 0
  store i1 %13, i1* %4
  %14 = icmp slt i32 %6, 10
  store i1 %14, i1* %3
  %15 = alloca i32
  store i32 -441666931, i32* %15
  br label %16

; <label>:16:                                     ; preds = %2, %63
  %17 = load i32, i32* %15
  switch i32 %17, label %18 [
    i32 -441666931, label %19
    i32 -1458295568, label %39
    i32 -1150620626, label %58
    i32 -1395793912, label %59
  ]

; <label>:18:                                     ; preds = %16
  br label %63

; <label>:19:                                     ; preds = %16
  %20 = load volatile i1, i1* %4
  %21 = load volatile i1, i1* %3
  %22 = xor i1 %20, true
  %23 = xor i1 %21, true
  %24 = xor i1 false, true
  %25 = and i1 %22, false
  %26 = and i1 %20, %24
  %27 = and i1 %23, false
  %28 = and i1 %21, %24
  %29 = or i1 %25, %26
  %30 = or i1 %27, %28
  %31 = xor i1 %29, %30
  %32 = or i1 %22, %23
  %33 = xor i1 %32, true
  %34 = or i1 false, %24
  %35 = and i1 %33, %34
  %36 = or i1 %31, %35
  %37 = or i1 %20, %21
  %38 = select i1 %36, i32 -1458295568, i32 -1395793912
  store i32 %38, i32* %15
  br label %63

; <label>:39:                                     ; preds = %16
  %40 = alloca %"class.std::__cxx1998::_Deque_base"*, align 8
  store %"class.std::__cxx1998::_Deque_base"* %1, %"class.std::__cxx1998::_Deque_base"** %40, align 8
  %41 = load %"class.std::__cxx1998::_Deque_base"*, %"class.std::__cxx1998::_Deque_base"** %40, align 8
  %42 = call dereferenceable(1) %"class.std::allocator"* @_ZNKSt9__cxx199811_Deque_baseIiSaIiEE19_M_get_Tp_allocatorEv(%"class.std::__cxx1998::_Deque_base"* %41) #3
  call void @_ZNSaIPiEC2IiEERKSaIT_E(%"class.std::allocator.39"* %0, %"class.std::allocator"* dereferenceable(1) %42) #3
  %43 = load i32, i32* @x.165
  %44 = load i32, i32* @y.166
  %45 = sub i32 %43, -271916188
  %46 = sub i32 %45, 1
  %47 = add i32 %46, -271916188
  %48 = sub i32 %43, 1
  %49 = mul i32 %43, %47
  %50 = urem i32 %49, 2
  %51 = icmp eq i32 %50, 0
  %52 = icmp slt i32 %44, 10
  %53 = and i1 %51, %52
  %54 = xor i1 %51, %52
  %55 = or i1 %53, %54
  %56 = or i1 %51, %52
  %57 = select i1 %55, i32 -1150620626, i32 -1395793912
  store i32 %57, i32* %15
  br label %63

; <label>:58:                                     ; preds = %16
  ret void

; <label>:59:                                     ; preds = %16
  %60 = alloca %"class.std::__cxx1998::_Deque_base"*, align 8
  store %"class.std::__cxx1998::_Deque_base"* %1, %"class.std::__cxx1998::_Deque_base"** %60, align 8
  %61 = load %"class.std::__cxx1998::_Deque_base"*, %"class.std::__cxx1998::_Deque_base"** %60, align 8
  %62 = call dereferenceable(1) %"class.std::allocator"* @_ZNKSt9__cxx199811_Deque_baseIiSaIiEE19_M_get_Tp_allocatorEv(%"class.std::__cxx1998::_Deque_base"* %61) #3
  call void @_ZNSaIPiEC2IiEERKSaIT_E(%"class.std::allocator.39"* %0, %"class.std::allocator"* dereferenceable(1) %62) #3
  store i32 -1458295568, i32* %15
  br label %63

; <label>:63:                                     ; preds = %59, %39, %19, %18
  br label %16
}

; Function Attrs: noinline uwtable
define linkonce_odr i32** @_ZNSt16allocator_traitsISaIPiEE8allocateERS1_m(%"class.std::allocator.39"* dereferenceable(1), i64) #0 comdat align 2 {
  %3 = alloca %"class.std::allocator.39"*, align 8
  %4 = alloca i64, align 8
  store %"class.std::allocator.39"* %0, %"class.std::allocator.39"** %3, align 8
  store i64 %1, i64* %4, align 8
  %5 = load %"class.std::allocator.39"*, %"class.std::allocator.39"** %3, align 8
  %6 = bitcast %"class.std::allocator.39"* %5 to %"class.__gnu_cxx::new_allocator.40"*
  %7 = load i64, i64* %4, align 8
  %8 = call i32** @_ZN9__gnu_cxx13new_allocatorIPiE8allocateEmPKv(%"class.__gnu_cxx::new_allocator.40"* %6, i64 %7, i8* null)
  ret i32** %8
}

; Function Attrs: noinline nounwind uwtable
define linkonce_odr void @_ZNSaIPiED2Ev(%"class.std::allocator.39"*) unnamed_addr #5 comdat align 2 {
  %2 = alloca i1
  %3 = alloca i1
  %4 = load i32, i32* @x.169
  %5 = load i32, i32* @y.170
  %6 = sub i32 %4, 1645679704
  %7 = sub i32 %6, 1
  %8 = add i32 %7, 1645679704
  %9 = sub i32 %4, 1
  %10 = mul i32 %4, %8
  %11 = urem i32 %10, 2
  %12 = icmp eq i32 %11, 0
  store i1 %12, i1* %3
  %13 = icmp slt i32 %5, 10
  store i1 %13, i1* %2
  %14 = alloca i32
  store i32 1686603950, i32* %14
  br label %15

; <label>:15:                                     ; preds = %1, %74
  %16 = load i32, i32* %14
  switch i32 %16, label %17 [
    i32 1686603950, label %18
    i32 1295816211, label %38
    i32 -1139374070, label %69
    i32 348977936, label %70
  ]

; <label>:17:                                     ; preds = %15
  br label %74

; <label>:18:                                     ; preds = %15
  %19 = load volatile i1, i1* %3
  %20 = load volatile i1, i1* %2
  %21 = xor i1 %19, true
  %22 = xor i1 %20, true
  %23 = xor i1 false, true
  %24 = and i1 %21, false
  %25 = and i1 %19, %23
  %26 = and i1 %22, false
  %27 = and i1 %20, %23
  %28 = or i1 %24, %25
  %29 = or i1 %26, %27
  %30 = xor i1 %28, %29
  %31 = or i1 %21, %22
  %32 = xor i1 %31, true
  %33 = or i1 false, %23
  %34 = and i1 %32, %33
  %35 = or i1 %30, %34
  %36 = or i1 %19, %20
  %37 = select i1 %35, i32 1295816211, i32 348977936
  store i32 %37, i32* %14
  br label %74

; <label>:38:                                     ; preds = %15
  %39 = alloca %"class.std::allocator.39"*, align 8
  store %"class.std::allocator.39"* %0, %"class.std::allocator.39"** %39, align 8
  %40 = load %"class.std::allocator.39"*, %"class.std::allocator.39"** %39, align 8
  %41 = bitcast %"class.std::allocator.39"* %40 to %"class.__gnu_cxx::new_allocator.40"*
  call void @_ZN9__gnu_cxx13new_allocatorIPiED2Ev(%"class.__gnu_cxx::new_allocator.40"* %41) #3
  %42 = load i32, i32* @x.169
  %43 = load i32, i32* @y.170
  %44 = add i32 %42, -924993926
  %45 = sub i32 %44, 1
  %46 = sub i32 %45, -924993926
  %47 = sub i32 %42, 1
  %48 = mul i32 %42, %46
  %49 = urem i32 %48, 2
  %50 = icmp eq i32 %49, 0
  %51 = icmp slt i32 %43, 10
  %52 = xor i1 %50, true
  %53 = xor i1 %51, true
  %54 = xor i1 true, true
  %55 = and i1 %52, true
  %56 = and i1 %50, %54
  %57 = and i1 %53, true
  %58 = and i1 %51, %54
  %59 = or i1 %55, %56
  %60 = or i1 %57, %58
  %61 = xor i1 %59, %60
  %62 = or i1 %52, %53
  %63 = xor i1 %62, true
  %64 = or i1 true, %54
  %65 = and i1 %63, %64
  %66 = or i1 %61, %65
  %67 = or i1 %50, %51
  %68 = select i1 %66, i32 -1139374070, i32 348977936
  store i32 %68, i32* %14
  br label %74

; <label>:69:                                     ; preds = %15
  ret void

; <label>:70:                                     ; preds = %15
  %71 = alloca %"class.std::allocator.39"*, align 8
  store %"class.std::allocator.39"* %0, %"class.std::allocator.39"** %71, align 8
  %72 = load %"class.std::allocator.39"*, %"class.std::allocator.39"** %71, align 8
  %73 = bitcast %"class.std::allocator.39"* %72 to %"class.__gnu_cxx::new_allocator.40"*
  call void @_ZN9__gnu_cxx13new_allocatorIPiED2Ev(%"class.__gnu_cxx::new_allocator.40"* %73) #3
  store i32 1295816211, i32* %14
  br label %74

; <label>:74:                                     ; preds = %70, %38, %18, %17
  br label %15
}

; Function Attrs: noinline nounwind uwtable
define linkonce_odr dereferenceable(1) %"class.std::allocator"* @_ZNKSt9__cxx199811_Deque_baseIiSaIiEE19_M_get_Tp_allocatorEv(%"class.std::__cxx1998::_Deque_base"*) #5 comdat align 2 {
  %2 = alloca %"class.std::__cxx1998::_Deque_base"*, align 8
  store %"class.std::__cxx1998::_Deque_base"* %0, %"class.std::__cxx1998::_Deque_base"** %2, align 8
  %3 = load %"class.std::__cxx1998::_Deque_base"*, %"class.std::__cxx1998::_Deque_base"** %2, align 8
  %4 = getelementptr inbounds %"class.std::__cxx1998::_Deque_base", %"class.std::__cxx1998::_Deque_base"* %3, i32 0, i32 0
  %5 = bitcast %"struct.std::__cxx1998::_Deque_base<int, std::allocator<int> >::_Deque_impl"* %4 to %"class.std::allocator"*
  ret %"class.std::allocator"* %5
}

; Function Attrs: noinline nounwind uwtable
define linkonce_odr void @_ZNSaIPiEC2IiEERKSaIT_E(%"class.std::allocator.39"*, %"class.std::allocator"* dereferenceable(1)) unnamed_addr #5 comdat align 2 {
  %3 = alloca %"class.std::allocator.39"*, align 8
  %4 = alloca %"class.std::allocator"*, align 8
  store %"class.std::allocator.39"* %0, %"class.std::allocator.39"** %3, align 8
  store %"class.std::allocator"* %1, %"class.std::allocator"** %4, align 8
  %5 = load %"class.std::allocator.39"*, %"class.std::allocator.39"** %3, align 8
  %6 = bitcast %"class.std::allocator.39"* %5 to %"class.__gnu_cxx::new_allocator.40"*
  call void @_ZN9__gnu_cxx13new_allocatorIPiEC2Ev(%"class.__gnu_cxx::new_allocator.40"* %6) #3
  ret void
}

; Function Attrs: noinline nounwind uwtable
define linkonce_odr void @_ZN9__gnu_cxx13new_allocatorIPiEC2Ev(%"class.__gnu_cxx::new_allocator.40"*) unnamed_addr #5 comdat align 2 {
  %2 = alloca %"class.__gnu_cxx::new_allocator.40"*, align 8
  store %"class.__gnu_cxx::new_allocator.40"* %0, %"class.__gnu_cxx::new_allocator.40"** %2, align 8
  %3 = load %"class.__gnu_cxx::new_allocator.40"*, %"class.__gnu_cxx::new_allocator.40"** %2, align 8
  ret void
}

; Function Attrs: noinline uwtable
define linkonce_odr i32** @_ZN9__gnu_cxx13new_allocatorIPiE8allocateEmPKv(%"class.__gnu_cxx::new_allocator.40"*, i64, i8*) #0 comdat align 2 {
  %4 = alloca i1
  %5 = alloca i64*
  %6 = alloca i1
  %7 = alloca i1
  %8 = load i32, i32* @x.177
  %9 = load i32, i32* @y.178
  %10 = sub i32 %8, 1660608030
  %11 = sub i32 %10, 1
  %12 = add i32 %11, 1660608030
  %13 = sub i32 %8, 1
  %14 = mul i32 %8, %12
  %15 = urem i32 %14, 2
  %16 = icmp eq i32 %15, 0
  store i1 %16, i1* %7
  %17 = icmp slt i32 %9, 10
  store i1 %17, i1* %6
  %18 = alloca i32
  store i32 160893575, i32* %18
  br label %19

; <label>:19:                                     ; preds = %3, %84
  %20 = load i32, i32* %18
  switch i32 %20, label %21 [
    i32 160893575, label %22
    i32 -227176139, label %42
    i32 -1534666732, label %66
    i32 242691986, label %69
    i32 203389687, label %70
    i32 -1923520962, label %76
  ]

; <label>:21:                                     ; preds = %19
  br label %84

; <label>:22:                                     ; preds = %19
  %23 = load volatile i1, i1* %7
  %24 = load volatile i1, i1* %6
  %25 = xor i1 %23, true
  %26 = xor i1 %24, true
  %27 = xor i1 false, true
  %28 = and i1 %25, false
  %29 = and i1 %23, %27
  %30 = and i1 %26, false
  %31 = and i1 %24, %27
  %32 = or i1 %28, %29
  %33 = or i1 %30, %31
  %34 = xor i1 %32, %33
  %35 = or i1 %25, %26
  %36 = xor i1 %35, true
  %37 = or i1 false, %27
  %38 = and i1 %36, %37
  %39 = or i1 %34, %38
  %40 = or i1 %23, %24
  %41 = select i1 %39, i32 -227176139, i32 -1923520962
  store i32 %41, i32* %18
  br label %84

; <label>:42:                                     ; preds = %19
  %43 = alloca %"class.__gnu_cxx::new_allocator.40"*, align 8
  %44 = alloca i64, align 8
  store i64* %44, i64** %5
  %45 = alloca i8*, align 8
  store %"class.__gnu_cxx::new_allocator.40"* %0, %"class.__gnu_cxx::new_allocator.40"** %43, align 8
  %46 = load volatile i64*, i64** %5
  store i64 %1, i64* %46, align 8
  store i8* %2, i8** %45, align 8
  %47 = load %"class.__gnu_cxx::new_allocator.40"*, %"class.__gnu_cxx::new_allocator.40"** %43, align 8
  %48 = load volatile i64*, i64** %5
  %49 = load i64, i64* %48, align 8
  %50 = call i64 @_ZNK9__gnu_cxx13new_allocatorIPiE8max_sizeEv(%"class.__gnu_cxx::new_allocator.40"* %47) #3
  %51 = icmp ugt i64 %49, %50
  store i1 %51, i1* %4
  %52 = load i32, i32* @x.177
  %53 = load i32, i32* @y.178
  %54 = sub i32 0, 1
  %55 = add i32 %52, %54
  %56 = sub i32 %52, 1
  %57 = mul i32 %52, %55
  %58 = urem i32 %57, 2
  %59 = icmp eq i32 %58, 0
  %60 = icmp slt i32 %53, 10
  %61 = and i1 %59, %60
  %62 = xor i1 %59, %60
  %63 = or i1 %61, %62
  %64 = or i1 %59, %60
  %65 = select i1 %63, i32 -1534666732, i32 -1923520962
  store i32 %65, i32* %18
  br label %84

; <label>:66:                                     ; preds = %19
  %67 = load volatile i1, i1* %4
  %68 = select i1 %67, i32 242691986, i32 203389687
  store i32 %68, i32* %18
  br label %84

; <label>:69:                                     ; preds = %19
  call void @_ZSt17__throw_bad_allocv() #14
  unreachable

; <label>:70:                                     ; preds = %19
  %71 = load volatile i64*, i64** %5
  %72 = load i64, i64* %71, align 8
  %73 = mul i64 %72, 8
  %74 = call i8* @_Znwm(i64 %73)
  %75 = bitcast i8* %74 to i32**
  ret i32** %75

; <label>:76:                                     ; preds = %19
  %77 = alloca %"class.__gnu_cxx::new_allocator.40"*, align 8
  %78 = alloca i64, align 8
  %79 = alloca i8*, align 8
  store %"class.__gnu_cxx::new_allocator.40"* %0, %"class.__gnu_cxx::new_allocator.40"** %77, align 8
  store i64 %1, i64* %78, align 8
  store i8* %2, i8** %79, align 8
  %80 = load %"class.__gnu_cxx::new_allocator.40"*, %"class.__gnu_cxx::new_allocator.40"** %77, align 8
  %81 = load i64, i64* %78, align 8
  %82 = call i64 @_ZNK9__gnu_cxx13new_allocatorIPiE8max_sizeEv(%"class.__gnu_cxx::new_allocator.40"* %80) #3
  %83 = icmp ugt i64 %81, %82
  store i32 -227176139, i32* %18
  br label %84

; <label>:84:                                     ; preds = %76, %66, %42, %22, %21
  br label %19
}

; Function Attrs: noinline nounwind uwtable
define linkonce_odr i64 @_ZNK9__gnu_cxx13new_allocatorIPiE8max_sizeEv(%"class.__gnu_cxx::new_allocator.40"*) #5 comdat align 2 {
  %2 = alloca i1
  %3 = alloca i1
  %4 = load i32, i32* @x.179
  %5 = load i32, i32* @y.180
  %6 = add i32 %4, -1882720288
  %7 = sub i32 %6, 1
