; ModuleID = 'Project_CodeNet_C++1400/p02688/s349045803.cpp'
source_filename = "Project_CodeNet_C++1400/p02688/s349045803.cpp"
target datalayout = "e-m:e-p270:32:32-p271:32:32-p272:64:64-i64:64-f80:128-n8:16:32:64-S128"
target triple = "x86_64-pc-linux-gnu"

%"class.std::ios_base::Init" = type { i8 }
%"class.std::basic_istream" = type { i32 (...)**, i64, %"class.std::basic_ios" }
%"class.std::basic_ios" = type { %"class.std::ios_base", %"class.std::basic_ostream"*, i8, i8, %"class.std::basic_streambuf"*, %"class.std::ctype"*, %"class.std::num_put"*, %"class.std::num_get"* }
%"class.std::ios_base" = type { i32 (...)**, i64, i64, i32, i32, i32, %"struct.std::ios_base::_Callback_list"*, %"struct.std::ios_base::_Words", [8 x %"struct.std::ios_base::_Words"], i32, %"struct.std::ios_base::_Words"*, %"class.std::locale" }
%"struct.std::ios_base::_Callback_list" = type { %"struct.std::ios_base::_Callback_list"*, void (i32, %"class.std::ios_base"*, i32)*, i32, i32 }
%"struct.std::ios_base::_Words" = type { i8*, i64 }
%"class.std::locale" = type { %"class.std::locale::_Impl"* }
%"class.std::locale::_Impl" = type { i32, %"class.std::locale::facet"**, i64, %"class.std::locale::facet"**, i8** }
%"class.std::locale::facet" = type <{ i32 (...)**, i32, [4 x i8] }>
%"class.std::basic_ostream" = type { i32 (...)**, %"class.std::basic_ios" }
%"class.std::basic_streambuf" = type { i32 (...)**, i8*, i8*, i8*, i8*, i8*, i8*, %"class.std::locale" }
%"class.std::ctype" = type <{ %"class.std::locale::facet.base", [4 x i8], %struct.__locale_struct*, i8, [7 x i8], i32*, i32*, i16*, i8, [256 x i8], [256 x i8], i8, [6 x i8] }>
%"class.std::locale::facet.base" = type <{ i32 (...)**, i32 }>
%struct.__locale_struct = type { [13 x %struct.__locale_data*], i16*, i32*, i32*, [13 x i8*] }
%struct.__locale_data = type opaque
%"class.std::num_put" = type { %"class.std::locale::facet.base", [4 x i8] }
%"class.std::num_get" = type { %"class.std::locale::facet.base", [4 x i8] }
%"class.std::vector" = type { %"struct.std::_Vector_base" }
%"struct.std::_Vector_base" = type { %"struct.std::_Vector_base<int, std::allocator<int>>::_Vector_impl" }
%"struct.std::_Vector_base<int, std::allocator<int>>::_Vector_impl" = type { %"struct.std::_Vector_base<int, std::allocator<int>>::_Vector_impl_data" }
%"struct.std::_Vector_base<int, std::allocator<int>>::_Vector_impl_data" = type { i32*, i32*, i32* }
%"class.std::vector.0" = type { %"struct.std::_Vector_base.1" }
%"struct.std::_Vector_base.1" = type { %"struct.std::_Vector_base<std::vector<int>, std::allocator<std::vector<int>>>::_Vector_impl" }
%"struct.std::_Vector_base<std::vector<int>, std::allocator<std::vector<int>>>::_Vector_impl" = type { %"struct.std::_Vector_base<std::vector<int>, std::allocator<std::vector<int>>>::_Vector_impl_data" }
%"struct.std::_Vector_base<std::vector<int>, std::allocator<std::vector<int>>>::_Vector_impl_data" = type { %"class.std::vector"*, %"class.std::vector"*, %"class.std::vector"* }
%"struct.std::vector<std::vector<int>>::_Temporary_value" = type { %"class.std::vector.0"*, %"union.std::aligned_storage<24, 8>::type" }
%"union.std::aligned_storage<24, 8>::type" = type { [24 x i8] }

$_ZNSt6vectorIS_IiSaIiEESaIS1_EED2Ev = comdat any

$__clang_call_terminate = comdat any

$_ZNSt6vectorIiSaIiEE17_M_default_appendEm = comdat any

$_ZNSt6vectorIS_IiSaIiEESaIS1_EE14_M_fill_insertEN9__gnu_cxx17__normal_iteratorIPS1_S3_EEmRKS1_ = comdat any

$_ZNSt6vectorIiSaIiEEaSERKS1_ = comdat any

$_ZNSt22__uninitialized_fill_nILb0EE15__uninit_fill_nIPSt6vectorIiSaIiEEmS4_EET_S6_T0_RKT1_ = comdat any

@_ZStL8__ioinit = internal global %"class.std::ios_base::Init" zeroinitializer, align 1
@__dso_handle = external hidden global i8
@_ZSt3cin = external global %"class.std::basic_istream", align 8
@_ZSt4cout = external global %"class.std::basic_ostream", align 8
@.str = private unnamed_addr constant [26 x i8] c"vector::_M_default_append\00", align 1
@.str.1 = private unnamed_addr constant [23 x i8] c"vector::_M_fill_insert\00", align 1
@.str.2 = private unnamed_addr constant [49 x i8] c"cannot create std::vector larger than max_size()\00", align 1
@llvm.global_ctors = appending global [1 x { i32, void ()*, i8* }] [{ i32, void ()*, i8* } { i32 65535, void ()* @_GLOBAL__sub_I_s349045803.cpp, i8* null }]

declare void @_ZNSt8ios_base4InitC1Ev(%"class.std::ios_base::Init"* nonnull align 1 dereferenceable(1)) unnamed_addr #0

; Function Attrs: nounwind
declare void @_ZNSt8ios_base4InitD1Ev(%"class.std::ios_base::Init"* nonnull align 1 dereferenceable(1)) unnamed_addr #1

; Function Attrs: nofree nounwind
declare i32 @__cxa_atexit(void (i8*)*, i8*, i8*) local_unnamed_addr #2

; Function Attrs: norecurse sspstrong uwtable
define dso_local i32 @main() local_unnamed_addr #3 personality i8* bitcast (i32 (...)* @__gxx_personality_v0 to i8*) {
  %1 = alloca i32, align 4
  %2 = alloca i32, align 4
  %3 = alloca %"class.std::vector", align 8
  %4 = alloca %"class.std::vector.0", align 8
  %5 = alloca %"class.std::vector", align 8
  %6 = bitcast i32* %1 to i8*
  call void @llvm.lifetime.start.p0i8(i64 4, i8* nonnull %6) #17
  %7 = bitcast i32* %2 to i8*
  call void @llvm.lifetime.start.p0i8(i64 4, i8* nonnull %7) #17
  %8 = call nonnull align 8 dereferenceable(16) %"class.std::basic_istream"* @_ZNSirsERi(%"class.std::basic_istream"* nonnull align 8 dereferenceable(16) @_ZSt3cin, i32* nonnull align 4 dereferenceable(4) %1)
  %9 = call nonnull align 8 dereferenceable(16) %"class.std::basic_istream"* @_ZNSirsERi(%"class.std::basic_istream"* nonnull align 8 dereferenceable(16) %8, i32* nonnull align 4 dereferenceable(4) %2)
  %10 = bitcast %"class.std::vector"* %3 to i8*
  call void @llvm.lifetime.start.p0i8(i64 24, i8* nonnull %10) #17
  call void @llvm.memset.p0i8.i64(i8* noundef nonnull align 8 dereferenceable(24) %10, i8 0, i64 24, i1 false) #17
  %11 = bitcast %"class.std::vector.0"* %4 to i8*
  call void @llvm.lifetime.start.p0i8(i64 24, i8* nonnull %11) #17
  call void @llvm.memset.p0i8.i64(i8* noundef nonnull align 8 dereferenceable(24) %11, i8 0, i64 24, i1 false) #17
  %12 = load i32, i32* %2, align 4, !tbaa !5
  %13 = getelementptr inbounds %"class.std::vector", %"class.std::vector"* %3, i64 0, i32 0, i32 0, i32 0, i32 0
  %14 = icmp eq i32 %12, 0
  br i1 %14, label %24, label %15

15:                                               ; preds = %0
  %16 = sext i32 %12 to i64
  invoke void @_ZNSt6vectorIiSaIiEE17_M_default_appendEm(%"class.std::vector"* nonnull align 8 dereferenceable(24) %3, i64 %16)
          to label %17 unwind label %83

17:                                               ; preds = %15
  %18 = load i32, i32* %2, align 4, !tbaa !5
  %19 = getelementptr inbounds %"class.std::vector.0", %"class.std::vector.0"* %4, i64 0, i32 0, i32 0, i32 0, i32 1
  %20 = load %"class.std::vector"*, %"class.std::vector"** %19, align 8, !tbaa !9
  %21 = getelementptr inbounds %"class.std::vector.0", %"class.std::vector.0"* %4, i64 0, i32 0, i32 0, i32 0, i32 0
  %22 = load %"class.std::vector"*, %"class.std::vector"** %21, align 8, !tbaa !12
  %23 = sext i32 %18 to i64
  br label %24

24:                                               ; preds = %0, %17
  %25 = phi i64 [ %23, %17 ], [ 0, %0 ]
  %26 = phi %"class.std::vector"* [ %22, %17 ], [ null, %0 ]
  %27 = phi %"class.std::vector"* [ %20, %17 ], [ null, %0 ]
  %28 = bitcast %"class.std::vector"* %5 to i8*
  call void @llvm.lifetime.start.p0i8(i64 24, i8* nonnull %28) #17
  %29 = getelementptr inbounds %"class.std::vector.0", %"class.std::vector.0"* %4, i64 0, i32 0, i32 0, i32 0, i32 1
  %30 = getelementptr inbounds %"class.std::vector.0", %"class.std::vector.0"* %4, i64 0, i32 0, i32 0, i32 0, i32 0
  %31 = ptrtoint %"class.std::vector"* %27 to i64
  %32 = ptrtoint %"class.std::vector"* %26 to i64
  %33 = sub i64 %31, %32
  %34 = sdiv exact i64 %33, 24
  %35 = icmp ugt i64 %25, %34
  %36 = bitcast %"class.std::vector"* %5 to i8*
  call void @llvm.memset.p0i8.i64(i8* noundef nonnull align 8 dereferenceable(24) %36, i8 0, i64 24, i1 false)
  br i1 %35, label %37, label %39

37:                                               ; preds = %24
  %38 = sub nsw i64 %25, %34
  invoke void @_ZNSt6vectorIS_IiSaIiEESaIS1_EE14_M_fill_insertEN9__gnu_cxx17__normal_iteratorIPS1_S3_EEmRKS1_(%"class.std::vector.0"* nonnull align 8 dereferenceable(24) %4, %"class.std::vector"* %27, i64 %38, %"class.std::vector"* nonnull align 8 dereferenceable(24) %5)
          to label %55 unwind label %85

39:                                               ; preds = %24
  %40 = icmp ult i64 %25, %34
  br i1 %40, label %41, label %55

41:                                               ; preds = %39
  %42 = getelementptr inbounds %"class.std::vector", %"class.std::vector"* %26, i64 %25
  %43 = icmp eq %"class.std::vector"* %27, %42
  br i1 %43, label %55, label %44

44:                                               ; preds = %41, %51
  %45 = phi %"class.std::vector"* [ %52, %51 ], [ %42, %41 ]
  %46 = getelementptr inbounds %"class.std::vector", %"class.std::vector"* %45, i64 0, i32 0, i32 0, i32 0, i32 0
  %47 = load i32*, i32** %46, align 8, !tbaa !13
  %48 = icmp eq i32* %47, null
  br i1 %48, label %51, label %49

49:                                               ; preds = %44
  %50 = bitcast i32* %47 to i8*
  call void @_ZdlPv(i8* nonnull %50) #17
  br label %51

51:                                               ; preds = %49, %44
  %52 = getelementptr inbounds %"class.std::vector", %"class.std::vector"* %45, i64 1
  %53 = icmp eq %"class.std::vector"* %52, %27
  br i1 %53, label %54, label %44, !llvm.loop !15

54:                                               ; preds = %51
  store %"class.std::vector"* %42, %"class.std::vector"** %29, align 8, !tbaa !9
  br label %55

55:                                               ; preds = %54, %41, %39, %37
  %56 = getelementptr inbounds %"class.std::vector", %"class.std::vector"* %5, i64 0, i32 0, i32 0, i32 0, i32 0
  %57 = load i32*, i32** %56, align 8, !tbaa !13
  %58 = icmp eq i32* %57, null
  br i1 %58, label %61, label %59

59:                                               ; preds = %55
  %60 = bitcast i32* %57 to i8*
  call void @_ZdlPv(i8* nonnull %60) #17
  br label %61

61:                                               ; preds = %55, %59
  call void @llvm.lifetime.end.p0i8(i64 24, i8* nonnull %28) #17
  %62 = load i32, i32* %2, align 4, !tbaa !5
  %63 = icmp sgt i32 %62, 0
  br i1 %63, label %64, label %66

64:                                               ; preds = %61
  %65 = load i32*, i32** %13, align 8, !tbaa !13
  br label %93

66:                                               ; preds = %130, %61
  %67 = load i32, i32* %1, align 4, !tbaa !5
  %68 = sext i32 %67 to i64
  %69 = icmp slt i32 %67, 0
  br i1 %69, label %70, label %72

70:                                               ; preds = %66
  invoke void @_ZSt20__throw_length_errorPKc(i8* getelementptr inbounds ([49 x i8], [49 x i8]* @.str.2, i64 0, i64 0)) #18
          to label %71 unwind label %341

71:                                               ; preds = %70
  unreachable

72:                                               ; preds = %66
  %73 = icmp eq i32 %67, 0
  br i1 %73, label %212, label %74

74:                                               ; preds = %72
  %75 = shl nuw nsw i64 %68, 2
  %76 = invoke noalias nonnull i8* @_Znwm(i64 %75) #19
          to label %77 unwind label %341

77:                                               ; preds = %74
  %78 = bitcast i8* %76 to i32*
  store i32 0, i32* %78, align 4, !tbaa !5
  %79 = icmp eq i32 %67, 1
  br i1 %79, label %154, label %80

80:                                               ; preds = %77
  %81 = getelementptr inbounds i8, i8* %76, i64 4
  %82 = add nsw i64 %75, -4
  call void @llvm.memset.p0i8.i64(i8* nonnull align 4 %81, i8 0, i64 %82, i1 false)
  br label %154

83:                                               ; preds = %15
  %84 = landingpad { i8*, i32 }
          cleanup
  br label %507

85:                                               ; preds = %37
  %86 = landingpad { i8*, i32 }
          cleanup
  %87 = getelementptr inbounds %"class.std::vector", %"class.std::vector"* %5, i64 0, i32 0, i32 0, i32 0, i32 0
  %88 = load i32*, i32** %87, align 8, !tbaa !13
  %89 = icmp eq i32* %88, null
  br i1 %89, label %92, label %90

90:                                               ; preds = %85
  %91 = bitcast i32* %88 to i8*
  call void @_ZdlPv(i8* nonnull %91) #17
  br label %92

92:                                               ; preds = %85, %90
  call void @llvm.lifetime.end.p0i8(i64 24, i8* nonnull %28) #17
  br label %507

93:                                               ; preds = %64, %130
  %94 = phi i32* [ %65, %64 ], [ %131, %130 ]
  %95 = phi i64 [ 0, %64 ], [ %132, %130 ]
  %96 = getelementptr inbounds i32, i32* %94, i64 %95
  %97 = invoke nonnull align 8 dereferenceable(16) %"class.std::basic_istream"* @_ZNSirsERi(%"class.std::basic_istream"* nonnull align 8 dereferenceable(16) @_ZSt3cin, i32* nonnull align 4 dereferenceable(4) %96)
          to label %98 unwind label %136

98:                                               ; preds = %93
  %99 = load %"class.std::vector"*, %"class.std::vector"** %30, align 8, !tbaa !12
  %100 = getelementptr inbounds %"class.std::vector", %"class.std::vector"* %99, i64 %95
  %101 = load i32*, i32** %13, align 8, !tbaa !13
  %102 = getelementptr inbounds i32, i32* %101, i64 %95
  %103 = load i32, i32* %102, align 4, !tbaa !5
  %104 = sext i32 %103 to i64
  %105 = getelementptr inbounds %"class.std::vector", %"class.std::vector"* %99, i64 %95, i32 0, i32 0, i32 0, i32 1
  %106 = load i32*, i32** %105, align 8, !tbaa !17
  %107 = getelementptr inbounds %"class.std::vector", %"class.std::vector"* %100, i64 0, i32 0, i32 0, i32 0, i32 0
  %108 = load i32*, i32** %107, align 8, !tbaa !13
  %109 = ptrtoint i32* %106 to i64
  %110 = ptrtoint i32* %108 to i64
  %111 = sub i64 %109, %110
  %112 = ashr exact i64 %111, 2
  %113 = icmp ult i64 %112, %104
  br i1 %113, label %114, label %120

114:                                              ; preds = %98
  %115 = sub nsw i64 %104, %112
  invoke void @_ZNSt6vectorIiSaIiEE17_M_default_appendEm(%"class.std::vector"* nonnull align 8 dereferenceable(24) %100, i64 %115)
          to label %116 unwind label %136

116:                                              ; preds = %114
  %117 = load i32*, i32** %13, align 8, !tbaa !13
  %118 = getelementptr inbounds i32, i32* %117, i64 %95
  %119 = load i32, i32* %118, align 4, !tbaa !5
  br label %126

120:                                              ; preds = %98
  %121 = icmp ugt i64 %112, %104
  br i1 %121, label %122, label %126

122:                                              ; preds = %120
  %123 = getelementptr inbounds i32, i32* %108, i64 %104
  %124 = icmp eq i32* %106, %123
  br i1 %124, label %126, label %125

125:                                              ; preds = %122
  store i32* %123, i32** %105, align 8, !tbaa !17
  br label %126

126:                                              ; preds = %116, %120, %122, %125
  %127 = phi i32 [ %119, %116 ], [ %103, %120 ], [ %103, %122 ], [ %103, %125 ]
  %128 = phi i32* [ %117, %116 ], [ %101, %120 ], [ %101, %122 ], [ %101, %125 ]
  %129 = icmp sgt i32 %127, 0
  br i1 %129, label %138, label %130

130:                                              ; preds = %145, %126
  %131 = phi i32* [ %128, %126 ], [ %147, %145 ]
  %132 = add nuw nsw i64 %95, 1
  %133 = load i32, i32* %2, align 4, !tbaa !5
  %134 = sext i32 %133 to i64
  %135 = icmp slt i64 %132, %134
  br i1 %135, label %93, label %66, !llvm.loop !18

136:                                              ; preds = %114, %93
  %137 = landingpad { i8*, i32 }
          cleanup
  br label %507

138:                                              ; preds = %126, %145
  %139 = phi i64 [ %146, %145 ], [ 0, %126 ]
  %140 = load %"class.std::vector"*, %"class.std::vector"** %30, align 8, !tbaa !12
  %141 = getelementptr inbounds %"class.std::vector", %"class.std::vector"* %140, i64 %95, i32 0, i32 0, i32 0, i32 0
  %142 = load i32*, i32** %141, align 8, !tbaa !13
  %143 = getelementptr inbounds i32, i32* %142, i64 %139
  %144 = invoke nonnull align 8 dereferenceable(16) %"class.std::basic_istream"* @_ZNSirsERi(%"class.std::basic_istream"* nonnull align 8 dereferenceable(16) @_ZSt3cin, i32* nonnull align 4 dereferenceable(4) %143)
          to label %145 unwind label %152

145:                                              ; preds = %138
  %146 = add nuw nsw i64 %139, 1
  %147 = load i32*, i32** %13, align 8, !tbaa !13
  %148 = getelementptr inbounds i32, i32* %147, i64 %95
  %149 = load i32, i32* %148, align 4, !tbaa !5
  %150 = sext i32 %149 to i64
  %151 = icmp slt i64 %146, %150
  br i1 %151, label %138, label %130, !llvm.loop !19

152:                                              ; preds = %138
  %153 = landingpad { i8*, i32 }
          cleanup
  br label %507

154:                                              ; preds = %80, %77
  %155 = load i32, i32* %1, align 4, !tbaa !5
  %156 = icmp sgt i32 %155, 0
  br i1 %156, label %157, label %212

157:                                              ; preds = %154
  %158 = zext i32 %155 to i64
  %159 = icmp ult i32 %155, 8
  br i1 %159, label %210, label %160

160:                                              ; preds = %157
  %161 = and i64 %158, 4294967288
  %162 = add nsw i64 %161, -8
  %163 = lshr exact i64 %162, 3
  %164 = add nuw nsw i64 %163, 1
  %165 = and i64 %164, 1
  %166 = icmp eq i64 %162, 0
  br i1 %166, label %195, label %167

167:                                              ; preds = %160
  %168 = and i64 %164, 4611686018427387902
  br label %169

169:                                              ; preds = %169, %167
  %170 = phi i64 [ 0, %167 ], [ %191, %169 ]
  %171 = phi <4 x i64> [ <i64 0, i64 1, i64 2, i64 3>, %167 ], [ %192, %169 ]
  %172 = phi i64 [ %168, %167 ], [ %193, %169 ]
  %173 = getelementptr inbounds i32, i32* %78, i64 %170
  %174 = trunc <4 x i64> %171 to <4 x i32>
  %175 = add <4 x i32> %174, <i32 1, i32 1, i32 1, i32 1>
  %176 = trunc <4 x i64> %171 to <4 x i32>
  %177 = add <4 x i32> %176, <i32 5, i32 5, i32 5, i32 5>
  %178 = bitcast i32* %173 to <4 x i32>*
  store <4 x i32> %175, <4 x i32>* %178, align 4, !tbaa !5
  %179 = getelementptr inbounds i32, i32* %173, i64 4
  %180 = bitcast i32* %179 to <4 x i32>*
  store <4 x i32> %177, <4 x i32>* %180, align 4, !tbaa !5
  %181 = or i64 %170, 8
  %182 = add <4 x i64> %171, <i64 8, i64 8, i64 8, i64 8>
  %183 = getelementptr inbounds i32, i32* %78, i64 %181
  %184 = trunc <4 x i64> %182 to <4 x i32>
  %185 = add <4 x i32> %184, <i32 1, i32 1, i32 1, i32 1>
  %186 = trunc <4 x i64> %182 to <4 x i32>
  %187 = add <4 x i32> %186, <i32 5, i32 5, i32 5, i32 5>
  %188 = bitcast i32* %183 to <4 x i32>*
  store <4 x i32> %185, <4 x i32>* %188, align 4, !tbaa !5
  %189 = getelementptr inbounds i32, i32* %183, i64 4
  %190 = bitcast i32* %189 to <4 x i32>*
  store <4 x i32> %187, <4 x i32>* %190, align 4, !tbaa !5
  %191 = add nuw i64 %170, 16
  %192 = add <4 x i64> %171, <i64 16, i64 16, i64 16, i64 16>
  %193 = add i64 %172, -2
  %194 = icmp eq i64 %193, 0
  br i1 %194, label %195, label %169, !llvm.loop !20

195:                                              ; preds = %169, %160
  %196 = phi i64 [ 0, %160 ], [ %191, %169 ]
  %197 = phi <4 x i64> [ <i64 0, i64 1, i64 2, i64 3>, %160 ], [ %192, %169 ]
  %198 = icmp eq i64 %165, 0
  br i1 %198, label %208, label %199

199:                                              ; preds = %195
  %200 = getelementptr inbounds i32, i32* %78, i64 %196
  %201 = trunc <4 x i64> %197 to <4 x i32>
  %202 = add <4 x i32> %201, <i32 1, i32 1, i32 1, i32 1>
  %203 = trunc <4 x i64> %197 to <4 x i32>
  %204 = add <4 x i32> %203, <i32 5, i32 5, i32 5, i32 5>
  %205 = bitcast i32* %200 to <4 x i32>*
  store <4 x i32> %202, <4 x i32>* %205, align 4, !tbaa !5
  %206 = getelementptr inbounds i32, i32* %200, i64 4
  %207 = bitcast i32* %206 to <4 x i32>*
  store <4 x i32> %204, <4 x i32>* %207, align 4, !tbaa !5
  br label %208

208:                                              ; preds = %195, %199
  %209 = icmp eq i64 %161, %158
  br i1 %209, label %212, label %210

210:                                              ; preds = %157, %208
  %211 = phi i64 [ 0, %157 ], [ %161, %208 ]
  br label %343

212:                                              ; preds = %343, %208, %72, %154
  %213 = phi i1 [ false, %154 ], [ false, %72 ], [ %156, %208 ], [ %156, %343 ]
  %214 = phi i32* [ %78, %154 ], [ null, %72 ], [ %78, %208 ], [ %78, %343 ]
  %215 = phi i32 [ %155, %154 ], [ 0, %72 ], [ %155, %208 ], [ %155, %343 ]
  %216 = load i32, i32* %2, align 4, !tbaa !5
  %217 = load i32*, i32** %13, align 8
  %218 = load %"class.std::vector"*, %"class.std::vector"** %30, align 8
  %219 = icmp sgt i32 %216, 0
  br i1 %219, label %220, label %349

220:                                              ; preds = %212
  br i1 %213, label %221, label %424

221:                                              ; preds = %220
  %222 = zext i32 %216 to i64
  %223 = zext i32 %215 to i64
  %224 = getelementptr i32, i32* %214, i64 %223
  %225 = icmp ult i32 %215, 8
  %226 = and i64 %223, 4294967288
  %227 = icmp eq i64 %226, %223
  %228 = and i64 %223, 1
  %229 = icmp eq i64 %228, 0
  %230 = sub nsw i64 0, %223
  br label %231

231:                                              ; preds = %221, %236
  %232 = phi i64 [ 0, %221 ], [ %237, %236 ]
  %233 = getelementptr inbounds i32, i32* %217, i64 %232
  %234 = load i32, i32* %233, align 4, !tbaa !5
  %235 = icmp sgt i32 %234, 0
  br i1 %235, label %239, label %236

236:                                              ; preds = %336, %231
  %237 = add nuw nsw i64 %232, 1
  %238 = icmp eq i64 %237, %222
  br i1 %238, label %349, label %231, !llvm.loop !22

239:                                              ; preds = %231
  %240 = getelementptr inbounds %"class.std::vector", %"class.std::vector"* %218, i64 %232, i32 0, i32 0, i32 0, i32 0
  %241 = load i32*, i32** %240, align 8, !tbaa !13
  br label %242

242:                                              ; preds = %336, %239
  %243 = phi i64 [ %337, %336 ], [ 0, %239 ]
  %244 = getelementptr inbounds i32, i32* %241, i64 %243
  br i1 %225, label %309, label %245

245:                                              ; preds = %242
  %246 = add nuw i64 %243, 1
  %247 = getelementptr i32, i32* %241, i64 %246
  %248 = getelementptr i32, i32* %241, i64 %243
  %249 = icmp ult i32* %214, %247
  %250 = icmp ult i32* %248, %224
  %251 = and i1 %249, %250
  br i1 %251, label %309, label %252

252:                                              ; preds = %245
  %253 = load i32, i32* %244, align 4, !tbaa !5, !alias.scope !23
  %254 = insertelement <4 x i32> poison, i32 %253, i32 0
  %255 = shufflevector <4 x i32> %254, <4 x i32> poison, <4 x i32> zeroinitializer
  %256 = insertelement <4 x i32> poison, i32 %253, i32 0
  %257 = shufflevector <4 x i32> %256, <4 x i32> poison, <4 x i32> zeroinitializer
  br label %258

258:                                              ; preds = %305, %252
  %259 = phi i64 [ 0, %252 ], [ %306, %305 ]
  %260 = getelementptr inbounds i32, i32* %214, i64 %259
  %261 = bitcast i32* %260 to <4 x i32>*
  %262 = load <4 x i32>, <4 x i32>* %261, align 4, !tbaa !5, !alias.scope !26, !noalias !23
  %263 = getelementptr inbounds i32, i32* %260, i64 4
  %264 = bitcast i32* %263 to <4 x i32>*
  %265 = load <4 x i32>, <4 x i32>* %264, align 4, !tbaa !5, !alias.scope !26, !noalias !23
  %266 = icmp eq <4 x i32> %255, %262
  %267 = icmp eq <4 x i32> %257, %265
  %268 = extractelement <4 x i1> %266, i32 0
  br i1 %268, label %269, label %270

269:                                              ; preds = %258
  store i32 1000, i32* %260, align 4, !tbaa !5, !alias.scope !26, !noalias !23
  br label %270

270:                                              ; preds = %269, %258
  %271 = extractelement <4 x i1> %266, i32 1
  br i1 %271, label %272, label %275

272:                                              ; preds = %270
  %273 = or i64 %259, 1
  %274 = getelementptr inbounds i32, i32* %214, i64 %273
  store i32 1000, i32* %274, align 4, !tbaa !5, !alias.scope !26, !noalias !23
  br label %275

275:                                              ; preds = %272, %270
  %276 = extractelement <4 x i1> %266, i32 2
  br i1 %276, label %277, label %280

277:                                              ; preds = %275
  %278 = or i64 %259, 2
  %279 = getelementptr inbounds i32, i32* %214, i64 %278
  store i32 1000, i32* %279, align 4, !tbaa !5, !alias.scope !26, !noalias !23
  br label %280

280:                                              ; preds = %277, %275
  %281 = extractelement <4 x i1> %266, i32 3
  br i1 %281, label %282, label %285

282:                                              ; preds = %280
  %283 = or i64 %259, 3
  %284 = getelementptr inbounds i32, i32* %214, i64 %283
  store i32 1000, i32* %284, align 4, !tbaa !5, !alias.scope !26, !noalias !23
  br label %285

285:                                              ; preds = %282, %280
  %286 = extractelement <4 x i1> %267, i32 0
  br i1 %286, label %287, label %290

287:                                              ; preds = %285
  %288 = or i64 %259, 4
  %289 = getelementptr inbounds i32, i32* %214, i64 %288
  store i32 1000, i32* %289, align 4, !tbaa !5, !alias.scope !26, !noalias !23
  br label %290

290:                                              ; preds = %287, %285
  %291 = extractelement <4 x i1> %267, i32 1
  br i1 %291, label %292, label %295

292:                                              ; preds = %290
  %293 = or i64 %259, 5
  %294 = getelementptr inbounds i32, i32* %214, i64 %293
  store i32 1000, i32* %294, align 4, !tbaa !5, !alias.scope !26, !noalias !23
  br label %295

295:                                              ; preds = %292, %290
  %296 = extractelement <4 x i1> %267, i32 2
  br i1 %296, label %297, label %300

297:                                              ; preds = %295
  %298 = or i64 %259, 6
  %299 = getelementptr inbounds i32, i32* %214, i64 %298
  store i32 1000, i32* %299, align 4, !tbaa !5, !alias.scope !26, !noalias !23
  br label %300

300:                                              ; preds = %297, %295
  %301 = extractelement <4 x i1> %267, i32 3
  br i1 %301, label %302, label %305

302:                                              ; preds = %300
  %303 = or i64 %259, 7
  %304 = getelementptr inbounds i32, i32* %214, i64 %303
  store i32 1000, i32* %304, align 4, !tbaa !5, !alias.scope !26, !noalias !23
  br label %305

305:                                              ; preds = %302, %300
  %306 = add nuw i64 %259, 8
  %307 = icmp eq i64 %306, %226
  br i1 %307, label %308, label %258, !llvm.loop !28

308:                                              ; preds = %305
  br i1 %227, label %336, label %309

309:                                              ; preds = %245, %242, %308
  %310 = phi i64 [ 0, %245 ], [ 0, %242 ], [ %226, %308 ]
  %311 = xor i64 %310, -1
  br i1 %229, label %320, label %312

312:                                              ; preds = %309
  %313 = load i32, i32* %244, align 4, !tbaa !5
  %314 = getelementptr inbounds i32, i32* %214, i64 %310
  %315 = load i32, i32* %314, align 4, !tbaa !5
  %316 = icmp eq i32 %313, %315
  br i1 %316, label %317, label %318

317:                                              ; preds = %312
  store i32 1000, i32* %314, align 4, !tbaa !5
  br label %318

318:                                              ; preds = %317, %312
  %319 = or i64 %310, 1
  br label %320

320:                                              ; preds = %318, %309
  %321 = phi i64 [ %319, %318 ], [ %310, %309 ]
  %322 = icmp eq i64 %311, %230
  br i1 %322, label %336, label %323

323:                                              ; preds = %320, %515
  %324 = phi i64 [ %516, %515 ], [ %321, %320 ]
  %325 = load i32, i32* %244, align 4, !tbaa !5
  %326 = getelementptr inbounds i32, i32* %214, i64 %324
  %327 = load i32, i32* %326, align 4, !tbaa !5
  %328 = icmp eq i32 %325, %327
  br i1 %328, label %329, label %330

329:                                              ; preds = %323
  store i32 1000, i32* %326, align 4, !tbaa !5
  br label %330

330:                                              ; preds = %329, %323
  %331 = add nuw nsw i64 %324, 1
  %332 = load i32, i32* %244, align 4, !tbaa !5
  %333 = getelementptr inbounds i32, i32* %214, i64 %331
  %334 = load i32, i32* %333, align 4, !tbaa !5
  %335 = icmp eq i32 %332, %334
  br i1 %335, label %514, label %515

336:                                              ; preds = %320, %515, %308
  %337 = add nuw nsw i64 %243, 1
  %338 = load i32, i32* %233, align 4, !tbaa !5
  %339 = sext i32 %338 to i64
  %340 = icmp slt i64 %337, %339
  br i1 %340, label %242, label %236, !llvm.loop !29

341:                                              ; preds = %74, %70
  %342 = landingpad { i8*, i32 }
          cleanup
  br label %507

343:                                              ; preds = %210, %343
  %344 = phi i64 [ %345, %343 ], [ %211, %210 ]
  %345 = add nuw nsw i64 %344, 1
  %346 = getelementptr inbounds i32, i32* %78, i64 %344
  %347 = trunc i64 %345 to i32
  store i32 %347, i32* %346, align 4, !tbaa !5
  %348 = icmp eq i64 %345, %158
  br i1 %348, label %212, label %343, !llvm.loop !30

349:                                              ; preds = %236, %212
  br i1 %213, label %350, label %424

350:                                              ; preds = %349
  %351 = zext i32 %215 to i64
  %352 = icmp ult i32 %215, 8
  br i1 %352, label %421, label %353

353:                                              ; preds = %350
  %354 = and i64 %351, 4294967288
  %355 = add nsw i64 %354, -8
  %356 = lshr exact i64 %355, 3
  %357 = add nuw nsw i64 %356, 1
  %358 = and i64 %357, 1
  %359 = icmp eq i64 %355, 0
  br i1 %359, label %395, label %360

360:                                              ; preds = %353
  %361 = and i64 %357, 4611686018427387902
  br label %362

362:                                              ; preds = %362, %360
  %363 = phi i64 [ 0, %360 ], [ %392, %362 ]
  %364 = phi <4 x i32> [ zeroinitializer, %360 ], [ %390, %362 ]
  %365 = phi <4 x i32> [ zeroinitializer, %360 ], [ %391, %362 ]
  %366 = phi i64 [ %361, %360 ], [ %393, %362 ]
  %367 = getelementptr inbounds i32, i32* %214, i64 %363
  %368 = bitcast i32* %367 to <4 x i32>*
  %369 = load <4 x i32>, <4 x i32>* %368, align 4, !tbaa !5
  %370 = getelementptr inbounds i32, i32* %367, i64 4
  %371 = bitcast i32* %370 to <4 x i32>*
  %372 = load <4 x i32>, <4 x i32>* %371, align 4, !tbaa !5
  %373 = icmp eq <4 x i32> %369, <i32 1000, i32 1000, i32 1000, i32 1000>
  %374 = icmp eq <4 x i32> %372, <i32 1000, i32 1000, i32 1000, i32 1000>
  %375 = zext <4 x i1> %373 to <4 x i32>
  %376 = zext <4 x i1> %374 to <4 x i32>
  %377 = add <4 x i32> %364, %375
  %378 = add <4 x i32> %365, %376
  %379 = or i64 %363, 8
  %380 = getelementptr inbounds i32, i32* %214, i64 %379
  %381 = bitcast i32* %380 to <4 x i32>*
  %382 = load <4 x i32>, <4 x i32>* %381, align 4, !tbaa !5
  %383 = getelementptr inbounds i32, i32* %380, i64 4
  %384 = bitcast i32* %383 to <4 x i32>*
  %385 = load <4 x i32>, <4 x i32>* %384, align 4, !tbaa !5
  %386 = icmp eq <4 x i32> %382, <i32 1000, i32 1000, i32 1000, i32 1000>
  %387 = icmp eq <4 x i32> %385, <i32 1000, i32 1000, i32 1000, i32 1000>
  %388 = zext <4 x i1> %386 to <4 x i32>
  %389 = zext <4 x i1> %387 to <4 x i32>
  %390 = add <4 x i32> %377, %388
  %391 = add <4 x i32> %378, %389
  %392 = add nuw i64 %363, 16
  %393 = add i64 %366, -2
  %394 = icmp eq i64 %393, 0
  br i1 %394, label %395, label %362, !llvm.loop !32

395:                                              ; preds = %362, %353
  %396 = phi <4 x i32> [ undef, %353 ], [ %390, %362 ]
  %397 = phi <4 x i32> [ undef, %353 ], [ %391, %362 ]
  %398 = phi i64 [ 0, %353 ], [ %392, %362 ]
  %399 = phi <4 x i32> [ zeroinitializer, %353 ], [ %390, %362 ]
  %400 = phi <4 x i32> [ zeroinitializer, %353 ], [ %391, %362 ]
  %401 = icmp eq i64 %358, 0
  br i1 %401, label %415, label %402

402:                                              ; preds = %395
  %403 = getelementptr inbounds i32, i32* %214, i64 %398
  %404 = getelementptr inbounds i32, i32* %403, i64 4
  %405 = bitcast i32* %404 to <4 x i32>*
  %406 = load <4 x i32>, <4 x i32>* %405, align 4, !tbaa !5
  %407 = icmp eq <4 x i32> %406, <i32 1000, i32 1000, i32 1000, i32 1000>
  %408 = zext <4 x i1> %407 to <4 x i32>
  %409 = add <4 x i32> %400, %408
  %410 = bitcast i32* %403 to <4 x i32>*
  %411 = load <4 x i32>, <4 x i32>* %410, align 4, !tbaa !5
  %412 = icmp eq <4 x i32> %411, <i32 1000, i32 1000, i32 1000, i32 1000>
  %413 = zext <4 x i1> %412 to <4 x i32>
  %414 = add <4 x i32> %399, %413
  br label %415

415:                                              ; preds = %395, %402
  %416 = phi <4 x i32> [ %396, %395 ], [ %414, %402 ]
  %417 = phi <4 x i32> [ %397, %395 ], [ %409, %402 ]
  %418 = add <4 x i32> %417, %416
  %419 = call i32 @llvm.vector.reduce.add.v4i32(<4 x i32> %418)
  %420 = icmp eq i64 %354, %351
  br i1 %420, label %424, label %421

421:                                              ; preds = %350, %415
  %422 = phi i64 [ 0, %350 ], [ %354, %415 ]
  %423 = phi i32 [ 0, %350 ], [ %419, %415 ]
  br label %428

424:                                              ; preds = %428, %415, %220, %349
  %425 = phi i32 [ 0, %349 ], [ 0, %220 ], [ %419, %415 ], [ %435, %428 ]
  %426 = sub nsw i32 %215, %425
  %427 = invoke nonnull align 8 dereferenceable(8) %"class.std::basic_ostream"* @_ZNSolsEi(%"class.std::basic_ostream"* nonnull align 8 dereferenceable(8) @_ZSt4cout, i32 %426)
          to label %438 unwind label %502

428:                                              ; preds = %421, %428
  %429 = phi i64 [ %436, %428 ], [ %422, %421 ]
  %430 = phi i32 [ %435, %428 ], [ %423, %421 ]
  %431 = getelementptr inbounds i32, i32* %214, i64 %429
  %432 = load i32, i32* %431, align 4, !tbaa !5
  %433 = icmp eq i32 %432, 1000
  %434 = zext i1 %433 to i32
  %435 = add nuw nsw i32 %430, %434
  %436 = add nuw nsw i64 %429, 1
  %437 = icmp eq i64 %436, %351
  br i1 %437, label %424, label %428, !llvm.loop !33

438:                                              ; preds = %424
  %439 = bitcast %"class.std::basic_ostream"* %427 to i8**
  %440 = load i8*, i8** %439, align 8, !tbaa !34
  %441 = getelementptr i8, i8* %440, i64 -24
  %442 = bitcast i8* %441 to i64*
  %443 = load i64, i64* %442, align 8
  %444 = bitcast %"class.std::basic_ostream"* %427 to i8*
  %445 = add nsw i64 %443, 240
  %446 = getelementptr inbounds i8, i8* %444, i64 %445
  %447 = bitcast i8* %446 to %"class.std::ctype"**
  %448 = load %"class.std::ctype"*, %"class.std::ctype"** %447, align 8, !tbaa !36
  %449 = icmp eq %"class.std::ctype"* %448, null
  br i1 %449, label %450, label %452

450:                                              ; preds = %438
  invoke void @_ZSt16__throw_bad_castv() #18
          to label %451 unwind label %502

451:                                              ; preds = %450
  unreachable

452:                                              ; preds = %438
  %453 = getelementptr inbounds %"class.std::ctype", %"class.std::ctype"* %448, i64 0, i32 8
  %454 = load i8, i8* %453, align 8, !tbaa !39
  %455 = icmp eq i8 %454, 0
  br i1 %455, label %459, label %456

456:                                              ; preds = %452
  %457 = getelementptr inbounds %"class.std::ctype", %"class.std::ctype"* %448, i64 0, i32 9, i64 10
  %458 = load i8, i8* %457, align 1, !tbaa !41
  br label %466

459:                                              ; preds = %452
  invoke void @_ZNKSt5ctypeIcE13_M_widen_initEv(%"class.std::ctype"* nonnull align 8 dereferenceable(570) %448)
          to label %460 unwind label %502

460:                                              ; preds = %459
  %461 = bitcast %"class.std::ctype"* %448 to i8 (%"class.std::ctype"*, i8)***
  %462 = load i8 (%"class.std::ctype"*, i8)**, i8 (%"class.std::ctype"*, i8)*** %461, align 8, !tbaa !34
  %463 = getelementptr inbounds i8 (%"class.std::ctype"*, i8)*, i8 (%"class.std::ctype"*, i8)** %462, i64 6
  %464 = load i8 (%"class.std::ctype"*, i8)*, i8 (%"class.std::ctype"*, i8)** %463, align 8
  %465 = invoke signext i8 %464(%"class.std::ctype"* nonnull align 8 dereferenceable(570) %448, i8 signext 10)
          to label %466 unwind label %502

466:                                              ; preds = %460, %456
  %467 = phi i8 [ %458, %456 ], [ %465, %460 ]
  %468 = invoke nonnull align 8 dereferenceable(8) %"class.std::basic_ostream"* @_ZNSo3putEc(%"class.std::basic_ostream"* nonnull align 8 dereferenceable(8) %427, i8 signext %467)
          to label %469 unwind label %502

469:                                              ; preds = %466
  %470 = invoke nonnull align 8 dereferenceable(8) %"class.std::basic_ostream"* @_ZNSo5flushEv(%"class.std::basic_ostream"* nonnull align 8 dereferenceable(8) %468)
          to label %471 unwind label %502

471:                                              ; preds = %469
  %472 = icmp eq i32* %214, null
  br i1 %472, label %475, label %473

473:                                              ; preds = %471
  %474 = bitcast i32* %214 to i8*
  call void @_ZdlPv(i8* nonnull %474) #17
  br label %475

475:                                              ; preds = %471, %473
  %476 = load %"class.std::vector"*, %"class.std::vector"** %30, align 8, !tbaa !12
  %477 = load %"class.std::vector"*, %"class.std::vector"** %29, align 8, !tbaa !9
  %478 = icmp eq %"class.std::vector"* %476, %477
  br i1 %478, label %491, label %479

479:                                              ; preds = %475, %486
  %480 = phi %"class.std::vector"* [ %487, %486 ], [ %476, %475 ]
  %481 = getelementptr inbounds %"class.std::vector", %"class.std::vector"* %480, i64 0, i32 0, i32 0, i32 0, i32 0
  %482 = load i32*, i32** %481, align 8, !tbaa !13
  %483 = icmp eq i32* %482, null
  br i1 %483, label %486, label %484

484:                                              ; preds = %479
  %485 = bitcast i32* %482 to i8*
  call void @_ZdlPv(i8* nonnull %485) #17
  br label %486

486:                                              ; preds = %484, %479
  %487 = getelementptr inbounds %"class.std::vector", %"class.std::vector"* %480, i64 1
  %488 = icmp eq %"class.std::vector"* %487, %477
  br i1 %488, label %489, label %479, !llvm.loop !15

489:                                              ; preds = %486
  %490 = load %"class.std::vector"*, %"class.std::vector"** %30, align 8, !tbaa !12
  br label %491

491:                                              ; preds = %489, %475
  %492 = phi %"class.std::vector"* [ %490, %489 ], [ %476, %475 ]
  %493 = icmp eq %"class.std::vector"* %492, null
  br i1 %493, label %496, label %494

494:                                              ; preds = %491
  %495 = bitcast %"class.std::vector"* %492 to i8*
  call void @_ZdlPv(i8* nonnull %495) #17
  br label %496

496:                                              ; preds = %491, %494
  call void @llvm.lifetime.end.p0i8(i64 24, i8* nonnull %11) #17
  %497 = load i32*, i32** %13, align 8, !tbaa !13
  %498 = icmp eq i32* %497, null
  br i1 %498, label %501, label %499

499:                                              ; preds = %496
  %500 = bitcast i32* %497 to i8*
  call void @_ZdlPv(i8* nonnull %500) #17
  br label %501

501:                                              ; preds = %496, %499
  call void @llvm.lifetime.end.p0i8(i64 24, i8* nonnull %10) #17
  call void @llvm.lifetime.end.p0i8(i64 4, i8* nonnull %7) #17
  call void @llvm.lifetime.end.p0i8(i64 4, i8* nonnull %6) #17
  ret i32 0

502:                                              ; preds = %469, %466, %460, %459, %450, %424
  %503 = landingpad { i8*, i32 }
          cleanup
  %504 = icmp eq i32* %214, null
  br i1 %504, label %507, label %505

505:                                              ; preds = %502
  %506 = bitcast i32* %214 to i8*
  call void @_ZdlPv(i8* nonnull %506) #17
  br label %507

507:                                              ; preds = %341, %502, %505, %136, %152, %92, %83
  %508 = phi { i8*, i32 } [ %86, %92 ], [ %84, %83 ], [ %153, %152 ], [ %137, %136 ], [ %342, %341 ], [ %503, %502 ], [ %503, %505 ]
  call void @_ZNSt6vectorIS_IiSaIiEESaIS1_EED2Ev(%"class.std::vector.0"* nonnull align 8 dereferenceable(24) %4) #17
  call void @llvm.lifetime.end.p0i8(i64 24, i8* nonnull %11) #17
  %509 = load i32*, i32** %13, align 8, !tbaa !13
  %510 = icmp eq i32* %509, null
  br i1 %510, label %513, label %511

511:                                              ; preds = %507
  %512 = bitcast i32* %509 to i8*
  call void @_ZdlPv(i8* nonnull %512) #17
  br label %513

513:                                              ; preds = %507, %511
  call void @llvm.lifetime.end.p0i8(i64 24, i8* nonnull %10) #17
  call void @llvm.lifetime.end.p0i8(i64 4, i8* nonnull %7) #17
  call void @llvm.lifetime.end.p0i8(i64 4, i8* nonnull %6) #17
  resume { i8*, i32 } %508

514:                                              ; preds = %330
  store i32 1000, i32* %333, align 4, !tbaa !5
  br label %515

515:                                              ; preds = %514, %330
  %516 = add nuw nsw i64 %324, 2
  %517 = icmp eq i64 %516, %223
  br i1 %517, label %336, label %323, !llvm.loop !42
}

; Function Attrs: argmemonly mustprogress nofree nosync nounwind willreturn
declare void @llvm.lifetime.start.p0i8(i64 immarg, i8* nocapture) #4

declare nonnull align 8 dereferenceable(16) %"class.std::basic_istream"* @_ZNSirsERi(%"class.std::basic_istream"* nonnull align 8 dereferenceable(16), i32* nonnull align 4 dereferenceable(4)) local_unnamed_addr #0

declare i32 @__gxx_personality_v0(...)

; Function Attrs: argmemonly mustprogress nofree nounwind willreturn writeonly
declare void @llvm.memset.p0i8.i64(i8* nocapture writeonly, i8, i64, i1 immarg) #5

; Function Attrs: argmemonly mustprogress nofree nosync nounwind willreturn
declare void @llvm.lifetime.end.p0i8(i64 immarg, i8* nocapture) #4

declare nonnull align 8 dereferenceable(8) %"class.std::basic_ostream"* @_ZNSolsEi(%"class.std::basic_ostream"* nonnull align 8 dereferenceable(8), i32) local_unnamed_addr #0

; Function Attrs: nounwind sspstrong uwtable
define linkonce_odr dso_local void @_ZNSt6vectorIS_IiSaIiEESaIS1_EED2Ev(%"class.std::vector.0"* nonnull align 8 dereferenceable(24) %0) unnamed_addr #6 comdat align 2 personality i8* bitcast (i32 (...)* @__gxx_personality_v0 to i8*) {
  %2 = getelementptr inbounds %"class.std::vector.0", %"class.std::vector.0"* %0, i64 0, i32 0, i32 0, i32 0, i32 0
  %3 = load %"class.std::vector"*, %"class.std::vector"** %2, align 8, !tbaa !12
  %4 = getelementptr inbounds %"class.std::vector.0", %"class.std::vector.0"* %0, i64 0, i32 0, i32 0, i32 0, i32 1
  %5 = load %"class.std::vector"*, %"class.std::vector"** %4, align 8, !tbaa !9
  %6 = icmp eq %"class.std::vector"* %3, %5
  br i1 %6, label %19, label %7

7:                                                ; preds = %1, %14
  %8 = phi %"class.std::vector"* [ %15, %14 ], [ %3, %1 ]
  %9 = getelementptr inbounds %"class.std::vector", %"class.std::vector"* %8, i64 0, i32 0, i32 0, i32 0, i32 0
  %10 = load i32*, i32** %9, align 8, !tbaa !13
  %11 = icmp eq i32* %10, null
  br i1 %11, label %14, label %12

12:                                               ; preds = %7
  %13 = bitcast i32* %10 to i8*
  tail call void @_ZdlPv(i8* nonnull %13) #17
  br label %14

14:                                               ; preds = %12, %7
  %15 = getelementptr inbounds %"class.std::vector", %"class.std::vector"* %8, i64 1
  %16 = icmp eq %"class.std::vector"* %15, %5
  br i1 %16, label %17, label %7, !llvm.loop !15

17:                                               ; preds = %14
  %18 = load %"class.std::vector"*, %"class.std::vector"** %2, align 8, !tbaa !12
  br label %19

19:                                               ; preds = %17, %1
  %20 = phi %"class.std::vector"* [ %18, %17 ], [ %3, %1 ]
  %21 = icmp eq %"class.std::vector"* %20, null
  br i1 %21, label %24, label %22

22:                                               ; preds = %19
  %23 = bitcast %"class.std::vector"* %20 to i8*
  tail call void @_ZdlPv(i8* nonnull %23) #17
  br label %24

24:                                               ; preds = %19, %22
  ret void
}

; Function Attrs: noinline noreturn nounwind
define linkonce_odr hidden void @__clang_call_terminate(i8* %0) local_unnamed_addr #7 comdat {
  %2 = tail call i8* @__cxa_begin_catch(i8* %0) #17
  tail call void @_ZSt9terminatev() #20
  unreachable
}

declare i8* @__cxa_begin_catch(i8*) local_unnamed_addr

declare void @_ZSt9terminatev() local_unnamed_addr

; Function Attrs: nobuiltin nounwind
declare void @_ZdlPv(i8*) local_unnamed_addr #8

; Function Attrs: mustprogress sspstrong uwtable
define linkonce_odr dso_local void @_ZNSt6vectorIiSaIiEE17_M_default_appendEm(%"class.std::vector"* nonnull align 8 dereferenceable(24) %0, i64 %1) local_unnamed_addr #9 comdat align 2 personality i8* bitcast (i32 (...)* @__gxx_personality_v0 to i8*) {
  %3 = icmp eq i64 %1, 0
  br i1 %3, label %74, label %4

4:                                                ; preds = %2
  %5 = getelementptr inbounds %"class.std::vector", %"class.std::vector"* %0, i64 0, i32 0, i32 0, i32 0, i32 1
  %6 = load i32*, i32** %5, align 8, !tbaa !17
  %7 = getelementptr inbounds %"class.std::vector", %"class.std::vector"* %0, i64 0, i32 0, i32 0, i32 0, i32 0
  %8 = load i32*, i32** %7, align 8, !tbaa !13
  %9 = ptrtoint i32* %6 to i64
  %10 = ptrtoint i32* %8 to i64
  %11 = sub i64 %9, %10
  %12 = lshr exact i64 %11, 2
  %13 = getelementptr inbounds %"class.std::vector", %"class.std::vector"* %0, i64 0, i32 0, i32 0, i32 0, i32 2
  %14 = load i32*, i32** %13, align 8, !tbaa !43
  %15 = ptrtoint i32* %14 to i64
  %16 = sub i64 %15, %9
  %17 = ashr exact i64 %16, 2
  %18 = icmp sgt i64 %11, -1
  tail call void @llvm.assume(i1 %18)
  %19 = xor i64 %12, 2305843009213693951
  %20 = icmp ule i64 %17, %19
  tail call void @llvm.assume(i1 %20)
  %21 = icmp ult i64 %17, %1
  br i1 %21, label %32, label %22

22:                                               ; preds = %4
  store i32 0, i32* %6, align 4, !tbaa !5
  %23 = getelementptr inbounds i32, i32* %6, i64 1
  %24 = icmp eq i64 %1, 1
  br i1 %24, label %30, label %25

25:                                               ; preds = %22
  %26 = bitcast i32* %23 to i8*
  %27 = shl nsw i64 %1, 2
  %28 = add i64 %27, -4
  tail call void @llvm.memset.p0i8.i64(i8* nonnull align 4 %26, i8 0, i64 %28, i1 false)
  %29 = getelementptr inbounds i32, i32* %6, i64 %1
  br label %30

30:                                               ; preds = %22, %25
  %31 = phi i32* [ %23, %22 ], [ %29, %25 ]
  store i32* %31, i32** %5, align 8, !tbaa !17
  br label %74

32:                                               ; preds = %4
  %33 = icmp ult i64 %19, %1
  br i1 %33, label %34, label %35

34:                                               ; preds = %32
  tail call void @_ZSt20__throw_length_errorPKc(i8* getelementptr inbounds ([26 x i8], [26 x i8]* @.str, i64 0, i64 0)) #18
  unreachable

35:                                               ; preds = %32
  %36 = icmp ult i64 %12, %1
  %37 = select i1 %36, i64 %1, i64 %12
  %38 = add i64 %37, %12
  %39 = icmp ult i64 %38, %12
  %40 = icmp ugt i64 %38, 2305843009213693951
  %41 = or i1 %39, %40
  %42 = select i1 %41, i64 2305843009213693951, i64 %38
  %43 = icmp eq i64 %42, 0
  br i1 %43, label %48, label %44

44:                                               ; preds = %35
  %45 = shl nuw nsw i64 %42, 2
  %46 = tail call noalias nonnull i8* @_Znwm(i64 %45) #19
  %47 = bitcast i8* %46 to i32*
  br label %48

48:                                               ; preds = %44, %35
  %49 = phi i32* [ %47, %44 ], [ null, %35 ]
  %50 = getelementptr inbounds i32, i32* %49, i64 %12
  store i32 0, i32* %50, align 4, !tbaa !5
  %51 = icmp eq i64 %1, 1
  br i1 %51, label %57, label %52

52:                                               ; preds = %48
  %53 = getelementptr inbounds i32, i32* %50, i64 1
  %54 = bitcast i32* %53 to i8*
  %55 = shl nsw i64 %1, 2
  %56 = add i64 %55, -4
  tail call void @llvm.memset.p0i8.i64(i8* nonnull align 4 %54, i8 0, i64 %56, i1 false)
  br label %57

57:                                               ; preds = %52, %48
  %58 = load i32*, i32** %7, align 8, !tbaa !13
  %59 = load i32*, i32** %5, align 8, !tbaa !17
  %60 = ptrtoint i32* %59 to i64
  %61 = ptrtoint i32* %58 to i64
  %62 = sub i64 %60, %61
  %63 = icmp sgt i64 %62, 0
  br i1 %63, label %64, label %67

64:                                               ; preds = %57
  %65 = bitcast i32* %49 to i8*
  %66 = bitcast i32* %58 to i8*
  tail call void @llvm.memmove.p0i8.p0i8.i64(i8* align 4 %65, i8* align 4 %66, i64 %62, i1 false) #17
  br label %67

67:                                               ; preds = %57, %64
  %68 = icmp eq i32* %58, null
  br i1 %68, label %71, label %69

69:                                               ; preds = %67
  %70 = bitcast i32* %58 to i8*
  tail call void @_ZdlPv(i8* nonnull %70) #17
  br label %71

71:                                               ; preds = %67, %69
  store i32* %49, i32** %7, align 8, !tbaa !13
  %72 = getelementptr inbounds i32, i32* %50, i64 %1
  store i32* %72, i32** %5, align 8, !tbaa !17
  %73 = getelementptr inbounds i32, i32* %49, i64 %42
  store i32* %73, i32** %13, align 8, !tbaa !43
  br label %74

74:                                               ; preds = %30, %71, %2
  ret void
}

declare void @__cxa_rethrow() local_unnamed_addr

declare void @__cxa_end_catch() local_unnamed_addr

; Function Attrs: noreturn
declare void @_ZSt20__throw_length_errorPKc(i8*) local_unnamed_addr #10

; Function Attrs: noreturn
declare void @_ZSt28__throw_bad_array_new_lengthv() local_unnamed_addr #10

; Function Attrs: nobuiltin allocsize(0)
declare nonnull i8* @_Znwm(i64) local_unnamed_addr #11

; Function Attrs: argmemonly mustprogress nofree nounwind willreturn
declare void @llvm.memmove.p0i8.p0i8.i64(i8* nocapture writeonly, i8* nocapture readonly, i64, i1 immarg) #12

; Function Attrs: sspstrong uwtable
define linkonce_odr dso_local void @_ZNSt6vectorIS_IiSaIiEESaIS1_EE14_M_fill_insertEN9__gnu_cxx17__normal_iteratorIPS1_S3_EEmRKS1_(%"class.std::vector.0"* nonnull align 8 dereferenceable(24) %0, %"class.std::vector"* %1, i64 %2, %"class.std::vector"* nonnull align 8 dereferenceable(24) %3) local_unnamed_addr #13 comdat align 2 personality i8* bitcast (i32 (...)* @__gxx_personality_v0 to i8*) {
  %5 = alloca %"struct.std::vector<std::vector<int>>::_Temporary_value", align 8
  %6 = icmp eq i64 %2, 0
  br i1 %6, label %329, label %7

7:                                                ; preds = %4
  %8 = getelementptr inbounds %"class.std::vector.0", %"class.std::vector.0"* %0, i64 0, i32 0, i32 0, i32 0, i32 2
  %9 = load %"class.std::vector"*, %"class.std::vector"** %8, align 8, !tbaa !44
  %10 = getelementptr inbounds %"class.std::vector.0", %"class.std::vector.0"* %0, i64 0, i32 0, i32 0, i32 0, i32 1
  %11 = load %"class.std::vector"*, %"class.std::vector"** %10, align 8, !tbaa !9
  %12 = ptrtoint %"class.std::vector"* %9 to i64
  %13 = ptrtoint %"class.std::vector"* %11 to i64
  %14 = sub i64 %12, %13
  %15 = sdiv exact i64 %14, 24
  %16 = icmp ult i64 %15, %2
  br i1 %16, label %218, label %17

17:                                               ; preds = %7
  %18 = bitcast %"struct.std::vector<std::vector<int>>::_Temporary_value"* %5 to i8*
  call void @llvm.lifetime.start.p0i8(i64 32, i8* nonnull %18) #17
  %19 = getelementptr inbounds %"struct.std::vector<std::vector<int>>::_Temporary_value", %"struct.std::vector<std::vector<int>>::_Temporary_value"* %5, i64 0, i32 0
  store %"class.std::vector.0"* %0, %"class.std::vector.0"** %19, align 8, !tbaa !45
  %20 = getelementptr inbounds %"struct.std::vector<std::vector<int>>::_Temporary_value", %"struct.std::vector<std::vector<int>>::_Temporary_value"* %5, i64 0, i32 1
  %21 = getelementptr inbounds %"class.std::vector", %"class.std::vector"* %3, i64 0, i32 0, i32 0, i32 0, i32 1
  %22 = load i32*, i32** %21, align 8, !tbaa !17
  %23 = getelementptr inbounds %"class.std::vector", %"class.std::vector"* %3, i64 0, i32 0, i32 0, i32 0, i32 0
  %24 = load i32*, i32** %23, align 8, !tbaa !13
  %25 = ptrtoint i32* %22 to i64
  %26 = ptrtoint i32* %24 to i64
  %27 = sub i64 %25, %26
  %28 = ashr exact i64 %27, 2
  %29 = icmp eq i64 %27, 0
  br i1 %29, label %41, label %30

30:                                               ; preds = %17
  %31 = icmp ugt i64 %28, 2305843009213693951
  br i1 %31, label %32, label %33, !prof !47

32:                                               ; preds = %30
  tail call void @_ZSt28__throw_bad_array_new_lengthv() #18
  unreachable

33:                                               ; preds = %30
  %34 = tail call noalias nonnull i8* @_Znwm(i64 %27) #19
  %35 = bitcast i8* %34 to i32*
  %36 = load i32*, i32** %23, align 8, !tbaa !48
  %37 = load i32*, i32** %21, align 8, !tbaa !48
  %38 = ptrtoint i32* %37 to i64
  %39 = ptrtoint i32* %36 to i64
  %40 = sub i64 %38, %39
  br label %41

41:                                               ; preds = %33, %17
  %42 = phi i64 [ %40, %33 ], [ 0, %17 ]
  %43 = phi i32* [ %36, %33 ], [ %24, %17 ]
  %44 = phi i32* [ %35, %33 ], [ null, %17 ]
  %45 = bitcast %"union.std::aligned_storage<24, 8>::type"* %20 to i32**
  store i32* %44, i32** %45, align 8, !tbaa !13
  %46 = getelementptr inbounds %"struct.std::vector<std::vector<int>>::_Temporary_value", %"struct.std::vector<std::vector<int>>::_Temporary_value"* %5, i64 0, i32 1, i32 0, i64 8
  %47 = bitcast i8* %46 to i32**
  %48 = getelementptr inbounds i32, i32* %44, i64 %28
  %49 = getelementptr inbounds %"struct.std::vector<std::vector<int>>::_Temporary_value", %"struct.std::vector<std::vector<int>>::_Temporary_value"* %5, i64 0, i32 1, i32 0, i64 16
  %50 = bitcast i8* %49 to i32**
  store i32* %48, i32** %50, align 8, !tbaa !43
  %51 = icmp eq i64 %42, 0
  br i1 %51, label %55, label %52

52:                                               ; preds = %41
  %53 = bitcast i32* %44 to i8*
  %54 = bitcast i32* %43 to i8*
  tail call void @llvm.memmove.p0i8.p0i8.i64(i8* align 4 %53, i8* align 4 %54, i64 %42, i1 false) #17
  br label %55

55:                                               ; preds = %41, %52
  %56 = ashr exact i64 %42, 2
  %57 = getelementptr inbounds i32, i32* %44, i64 %56
  store i32* %57, i32** %47, align 8, !tbaa !17
  %58 = bitcast %"union.std::aligned_storage<24, 8>::type"* %20 to %"class.std::vector"*
  %59 = load %"class.std::vector"*, %"class.std::vector"** %10, align 8, !tbaa !48
  %60 = ptrtoint %"class.std::vector"* %59 to i64
  %61 = ptrtoint %"class.std::vector"* %1 to i64
  %62 = sub i64 %60, %61
  %63 = sdiv exact i64 %62, 24
  %64 = icmp ugt i64 %63, %2
  br i1 %64, label %65, label %183

65:                                               ; preds = %55
  %66 = sub i64 0, %2
  %67 = getelementptr inbounds %"class.std::vector", %"class.std::vector"* %59, i64 %66
  %68 = mul i64 %2, 24
  %69 = add i64 %68, -24
  %70 = udiv i64 %69, 24
  %71 = add nuw nsw i64 %70, 1
  %72 = and i64 %71, 3
  %73 = icmp eq i64 %72, 0
  br i1 %73, label %89, label %74

74:                                               ; preds = %65, %74
  %75 = phi %"class.std::vector"* [ %86, %74 ], [ %59, %65 ]
  %76 = phi %"class.std::vector"* [ %85, %74 ], [ %67, %65 ]
  %77 = phi i64 [ %87, %74 ], [ %72, %65 ]
  %78 = bitcast %"class.std::vector"* %76 to <2 x i32*>*
  %79 = load <2 x i32*>, <2 x i32*>* %78, align 8, !tbaa !48
  %80 = bitcast %"class.std::vector"* %75 to <2 x i32*>*
  store <2 x i32*> %79, <2 x i32*>* %80, align 8, !tbaa !48
  %81 = getelementptr inbounds %"class.std::vector", %"class.std::vector"* %75, i64 0, i32 0, i32 0, i32 0, i32 2
  %82 = getelementptr inbounds %"class.std::vector", %"class.std::vector"* %76, i64 0, i32 0, i32 0, i32 0, i32 2
  %83 = load i32*, i32** %82, align 8, !tbaa !43
  store i32* %83, i32** %81, align 8, !tbaa !43
  %84 = bitcast %"class.std::vector"* %76 to i8*
  tail call void @llvm.memset.p0i8.i64(i8* noundef nonnull align 8 dereferenceable(24) %84, i8 0, i64 24, i1 false) #17
  %85 = getelementptr inbounds %"class.std::vector", %"class.std::vector"* %76, i64 1
  %86 = getelementptr inbounds %"class.std::vector", %"class.std::vector"* %75, i64 1
  %87 = add i64 %77, -1
  %88 = icmp eq i64 %87, 0
  br i1 %88, label %89, label %74, !llvm.loop !49

89:                                               ; preds = %74, %65
  %90 = phi %"class.std::vector"* [ %59, %65 ], [ %86, %74 ]
  %91 = phi %"class.std::vector"* [ %67, %65 ], [ %85, %74 ]
  %92 = icmp ult i64 %69, 72
  br i1 %92, label %133, label %93

93:                                               ; preds = %89, %93
  %94 = phi %"class.std::vector"* [ %131, %93 ], [ %90, %89 ]
  %95 = phi %"class.std::vector"* [ %130, %93 ], [ %91, %89 ]
  %96 = bitcast %"class.std::vector"* %95 to <2 x i32*>*
  %97 = load <2 x i32*>, <2 x i32*>* %96, align 8, !tbaa !48
  %98 = bitcast %"class.std::vector"* %94 to <2 x i32*>*
  store <2 x i32*> %97, <2 x i32*>* %98, align 8, !tbaa !48
  %99 = getelementptr inbounds %"class.std::vector", %"class.std::vector"* %94, i64 0, i32 0, i32 0, i32 0, i32 2
  %100 = getelementptr inbounds %"class.std::vector", %"class.std::vector"* %95, i64 0, i32 0, i32 0, i32 0, i32 2
  %101 = load i32*, i32** %100, align 8, !tbaa !43
  store i32* %101, i32** %99, align 8, !tbaa !43
  %102 = bitcast %"class.std::vector"* %95 to i8*
  tail call void @llvm.memset.p0i8.i64(i8* noundef nonnull align 8 dereferenceable(24) %102, i8 0, i64 24, i1 false) #17
  %103 = getelementptr inbounds %"class.std::vector", %"class.std::vector"* %95, i64 1
  %104 = getelementptr inbounds %"class.std::vector", %"class.std::vector"* %94, i64 1
  %105 = bitcast %"class.std::vector"* %103 to <2 x i32*>*
  %106 = load <2 x i32*>, <2 x i32*>* %105, align 8, !tbaa !48
  %107 = bitcast %"class.std::vector"* %104 to <2 x i32*>*
  store <2 x i32*> %106, <2 x i32*>* %107, align 8, !tbaa !48
  %108 = getelementptr inbounds %"class.std::vector", %"class.std::vector"* %94, i64 1, i32 0, i32 0, i32 0, i32 2
  %109 = getelementptr inbounds %"class.std::vector", %"class.std::vector"* %95, i64 1, i32 0, i32 0, i32 0, i32 2
  %110 = load i32*, i32** %109, align 8, !tbaa !43
  store i32* %110, i32** %108, align 8, !tbaa !43
  %111 = bitcast %"class.std::vector"* %103 to i8*
  tail call void @llvm.memset.p0i8.i64(i8* noundef nonnull align 8 dereferenceable(24) %111, i8 0, i64 24, i1 false) #17
  %112 = getelementptr inbounds %"class.std::vector", %"class.std::vector"* %95, i64 2
  %113 = getelementptr inbounds %"class.std::vector", %"class.std::vector"* %94, i64 2
  %114 = bitcast %"class.std::vector"* %112 to <2 x i32*>*
  %115 = load <2 x i32*>, <2 x i32*>* %114, align 8, !tbaa !48
  %116 = bitcast %"class.std::vector"* %113 to <2 x i32*>*
  store <2 x i32*> %115, <2 x i32*>* %116, align 8, !tbaa !48
  %117 = getelementptr inbounds %"class.std::vector", %"class.std::vector"* %94, i64 2, i32 0, i32 0, i32 0, i32 2
  %118 = getelementptr inbounds %"class.std::vector", %"class.std::vector"* %95, i64 2, i32 0, i32 0, i32 0, i32 2
  %119 = load i32*, i32** %118, align 8, !tbaa !43
  store i32* %119, i32** %117, align 8, !tbaa !43
  %120 = bitcast %"class.std::vector"* %112 to i8*
  tail call void @llvm.memset.p0i8.i64(i8* noundef nonnull align 8 dereferenceable(24) %120, i8 0, i64 24, i1 false) #17
  %121 = getelementptr inbounds %"class.std::vector", %"class.std::vector"* %95, i64 3
  %122 = getelementptr inbounds %"class.std::vector", %"class.std::vector"* %94, i64 3
  %123 = bitcast %"class.std::vector"* %121 to <2 x i32*>*
  %124 = load <2 x i32*>, <2 x i32*>* %123, align 8, !tbaa !48
  %125 = bitcast %"class.std::vector"* %122 to <2 x i32*>*
  store <2 x i32*> %124, <2 x i32*>* %125, align 8, !tbaa !48
  %126 = getelementptr inbounds %"class.std::vector", %"class.std::vector"* %94, i64 3, i32 0, i32 0, i32 0, i32 2
  %127 = getelementptr inbounds %"class.std::vector", %"class.std::vector"* %95, i64 3, i32 0, i32 0, i32 0, i32 2
  %128 = load i32*, i32** %127, align 8, !tbaa !43
  store i32* %128, i32** %126, align 8, !tbaa !43
  %129 = bitcast %"class.std::vector"* %121 to i8*
  tail call void @llvm.memset.p0i8.i64(i8* noundef nonnull align 8 dereferenceable(24) %129, i8 0, i64 24, i1 false) #17
  %130 = getelementptr inbounds %"class.std::vector", %"class.std::vector"* %95, i64 4
  %131 = getelementptr inbounds %"class.std::vector", %"class.std::vector"* %94, i64 4
  %132 = icmp eq %"class.std::vector"* %130, %59
  br i1 %132, label %133, label %93, !llvm.loop !51

133:                                              ; preds = %93, %89
  %134 = load %"class.std::vector"*, %"class.std::vector"** %10, align 8, !tbaa !9
  %135 = getelementptr inbounds %"class.std::vector", %"class.std::vector"* %134, i64 %2
  store %"class.std::vector"* %135, %"class.std::vector"** %10, align 8, !tbaa !9
  %136 = ptrtoint %"class.std::vector"* %67 to i64
  %137 = sub i64 %136, %61
  %138 = icmp sgt i64 %137, 0
  br i1 %138, label %139, label %162

139:                                              ; preds = %133
  %140 = udiv exact i64 %137, 24
  br label %141

141:                                              ; preds = %159, %139
  %142 = phi i64 [ %160, %159 ], [ %140, %139 ]
  %143 = phi %"class.std::vector"* [ %146, %159 ], [ %59, %139 ]
  %144 = phi %"class.std::vector"* [ %145, %159 ], [ %67, %139 ]
  %145 = getelementptr inbounds %"class.std::vector", %"class.std::vector"* %144, i64 -1
  %146 = getelementptr inbounds %"class.std::vector", %"class.std::vector"* %143, i64 -1
  %147 = getelementptr inbounds %"class.std::vector", %"class.std::vector"* %146, i64 0, i32 0, i32 0, i32 0, i32 0
  %148 = load i32*, i32** %147, align 8, !tbaa !13
  %149 = getelementptr inbounds %"class.std::vector", %"class.std::vector"* %143, i64 -1, i32 0, i32 0, i32 0, i32 2
  %150 = bitcast %"class.std::vector"* %145 to <2 x i32*>*
  %151 = load <2 x i32*>, <2 x i32*>* %150, align 8, !tbaa !48
  %152 = bitcast %"class.std::vector"* %146 to <2 x i32*>*
  store <2 x i32*> %151, <2 x i32*>* %152, align 8, !tbaa !48
  %153 = getelementptr inbounds %"class.std::vector", %"class.std::vector"* %144, i64 -1, i32 0, i32 0, i32 0, i32 2
  %154 = load i32*, i32** %153, align 8, !tbaa !43
  store i32* %154, i32** %149, align 8, !tbaa !43
  %155 = icmp eq i32* %148, null
  %156 = bitcast %"class.std::vector"* %145 to i8*
  tail call void @llvm.memset.p0i8.i64(i8* noundef nonnull align 8 dereferenceable(24) %156, i8 0, i64 24, i1 false) #17
  br i1 %155, label %159, label %157

157:                                              ; preds = %141
  %158 = bitcast i32* %148 to i8*
  tail call void @_ZdlPv(i8* nonnull %158) #17
  br label %159

159:                                              ; preds = %157, %141
  %160 = add nsw i64 %142, -1
  %161 = icmp sgt i64 %142, 1
  br i1 %161, label %141, label %162, !llvm.loop !52

162:                                              ; preds = %159, %133
  %163 = getelementptr inbounds %"class.std::vector", %"class.std::vector"* %1, i64 %2
  br label %164

164:                                              ; preds = %162, %167
  %165 = phi %"class.std::vector"* [ %168, %167 ], [ %1, %162 ]
  %166 = invoke nonnull align 8 dereferenceable(24) %"class.std::vector"* @_ZNSt6vectorIiSaIiEEaSERKS1_(%"class.std::vector"* nonnull align 8 dereferenceable(24) %165, %"class.std::vector"* nonnull align 8 dereferenceable(24) %58)
          to label %167 unwind label %170

167:                                              ; preds = %164
  %168 = getelementptr inbounds %"class.std::vector", %"class.std::vector"* %165, i64 1
  %169 = icmp eq %"class.std::vector"* %168, %163
  br i1 %169, label %212, label %164, !llvm.loop !53

170:                                              ; preds = %164
  %171 = landingpad { i8*, i32 }
          cleanup
  br label %176

172:                                              ; preds = %206
  %173 = landingpad { i8*, i32 }
          cleanup
  br label %176

174:                                              ; preds = %183
  %175 = landingpad { i8*, i32 }
          cleanup
  br label %176

176:                                              ; preds = %172, %174, %170
  %177 = phi { i8*, i32 } [ %171, %170 ], [ %173, %172 ], [ %175, %174 ]
  %178 = load i32*, i32** %45, align 8, !tbaa !13
  %179 = icmp eq i32* %178, null
  br i1 %179, label %182, label %180

180:                                              ; preds = %176
  %181 = bitcast i32* %178 to i8*
  call void @_ZdlPv(i8* nonnull %181) #17
  br label %182

182:                                              ; preds = %176, %180
  call void @llvm.lifetime.end.p0i8(i64 32, i8* nonnull %18) #17
  br label %330

183:                                              ; preds = %55
  %184 = sub i64 %2, %63
  %185 = invoke %"class.std::vector"* @_ZNSt22__uninitialized_fill_nILb0EE15__uninit_fill_nIPSt6vectorIiSaIiEEmS4_EET_S6_T0_RKT1_(%"class.std::vector"* %59, i64 %184, %"class.std::vector"* nonnull align 8 dereferenceable(24) %58)
          to label %186 unwind label %174

186:                                              ; preds = %183
  store %"class.std::vector"* %185, %"class.std::vector"** %10, align 8, !tbaa !9
  %187 = icmp eq %"class.std::vector"* %59, %1
  br i1 %187, label %188, label %190

188:                                              ; preds = %186
  %189 = getelementptr inbounds %"class.std::vector", %"class.std::vector"* %185, i64 %63
  store %"class.std::vector"* %189, %"class.std::vector"** %10, align 8, !tbaa !9
  br label %212

190:                                              ; preds = %186, %190
  %191 = phi %"class.std::vector"* [ %201, %190 ], [ %185, %186 ]
  %192 = phi %"class.std::vector"* [ %200, %190 ], [ %1, %186 ]
  %193 = bitcast %"class.std::vector"* %192 to <2 x i32*>*
  %194 = load <2 x i32*>, <2 x i32*>* %193, align 8, !tbaa !48
  %195 = bitcast %"class.std::vector"* %191 to <2 x i32*>*
  store <2 x i32*> %194, <2 x i32*>* %195, align 8, !tbaa !48
  %196 = getelementptr inbounds %"class.std::vector", %"class.std::vector"* %191, i64 0, i32 0, i32 0, i32 0, i32 2
  %197 = getelementptr inbounds %"class.std::vector", %"class.std::vector"* %192, i64 0, i32 0, i32 0, i32 0, i32 2
  %198 = load i32*, i32** %197, align 8, !tbaa !43
  store i32* %198, i32** %196, align 8, !tbaa !43
  %199 = bitcast %"class.std::vector"* %192 to i8*
  call void @llvm.memset.p0i8.i64(i8* noundef nonnull align 8 dereferenceable(24) %199, i8 0, i64 24, i1 false) #17
  %200 = getelementptr inbounds %"class.std::vector", %"class.std::vector"* %192, i64 1
  %201 = getelementptr inbounds %"class.std::vector", %"class.std::vector"* %191, i64 1
  %202 = icmp eq %"class.std::vector"* %200, %59
  br i1 %202, label %203, label %190, !llvm.loop !51

203:                                              ; preds = %190
  %204 = load %"class.std::vector"*, %"class.std::vector"** %10, align 8, !tbaa !9
  %205 = getelementptr inbounds %"class.std::vector", %"class.std::vector"* %204, i64 %63
  store %"class.std::vector"* %205, %"class.std::vector"** %10, align 8, !tbaa !9
  br label %206

206:                                              ; preds = %203, %209
  %207 = phi %"class.std::vector"* [ %210, %209 ], [ %1, %203 ]
  %208 = invoke nonnull align 8 dereferenceable(24) %"class.std::vector"* @_ZNSt6vectorIiSaIiEEaSERKS1_(%"class.std::vector"* nonnull align 8 dereferenceable(24) %207, %"class.std::vector"* nonnull align 8 dereferenceable(24) %58)
          to label %209 unwind label %172

209:                                              ; preds = %206
  %210 = getelementptr inbounds %"class.std::vector", %"class.std::vector"* %207, i64 1
  %211 = icmp eq %"class.std::vector"* %210, %59
  br i1 %211, label %212, label %206, !llvm.loop !53

212:                                              ; preds = %209, %167, %188
  %213 = load i32*, i32** %45, align 8, !tbaa !13
  %214 = icmp eq i32* %213, null
  br i1 %214, label %217, label %215

215:                                              ; preds = %212
  %216 = bitcast i32* %213 to i8*
  call void @_ZdlPv(i8* nonnull %216) #17
  br label %217

217:                                              ; preds = %212, %215
  call void @llvm.lifetime.end.p0i8(i64 32, i8* nonnull %18) #17
  br label %329

218:                                              ; preds = %7
  %219 = getelementptr inbounds %"class.std::vector.0", %"class.std::vector.0"* %0, i64 0, i32 0, i32 0, i32 0, i32 0
  %220 = load %"class.std::vector"*, %"class.std::vector"** %219, align 8, !tbaa !12
  %221 = ptrtoint %"class.std::vector"* %220 to i64
  %222 = sub i64 %13, %221
  %223 = sdiv exact i64 %222, 24
  %224 = sub nsw i64 384307168202282325, %223
  %225 = icmp ult i64 %224, %2
  br i1 %225, label %226, label %227

226:                                              ; preds = %218
  tail call void @_ZSt20__throw_length_errorPKc(i8* getelementptr inbounds ([23 x i8], [23 x i8]* @.str.1, i64 0, i64 0)) #18
  unreachable

227:                                              ; preds = %218
  %228 = icmp ult i64 %223, %2
  %229 = select i1 %228, i64 %2, i64 %223
  %230 = add i64 %229, %223
  %231 = icmp ult i64 %230, %223
  %232 = icmp ugt i64 %230, 384307168202282325
  %233 = or i1 %231, %232
  %234 = select i1 %233, i64 384307168202282325, i64 %230
  %235 = ptrtoint %"class.std::vector"* %1 to i64
  %236 = sub i64 %235, %221
  %237 = sdiv exact i64 %236, 24
  %238 = icmp eq i64 %234, 0
  br i1 %238, label %243, label %239

239:                                              ; preds = %227
  %240 = mul nuw nsw i64 %234, 24
  %241 = tail call noalias nonnull i8* @_Znwm(i64 %240) #19
  %242 = bitcast i8* %241 to %"class.std::vector"*
  br label %243

243:                                              ; preds = %227, %239
  %244 = phi %"class.std::vector"* [ %242, %239 ], [ null, %227 ]
  %245 = getelementptr inbounds %"class.std::vector", %"class.std::vector"* %244, i64 %237
  %246 = invoke %"class.std::vector"* @_ZNSt22__uninitialized_fill_nILb0EE15__uninit_fill_nIPSt6vectorIiSaIiEEmS4_EET_S6_T0_RKT1_(%"class.std::vector"* %245, i64 %2, %"class.std::vector"* nonnull align 8 dereferenceable(24) %3)
          to label %247 unwind label %307

247:                                              ; preds = %243
  %248 = load %"class.std::vector"*, %"class.std::vector"** %219, align 8, !tbaa !12
  %249 = icmp eq %"class.std::vector"* %248, %1
  br i1 %249, label %263, label %250

250:                                              ; preds = %247, %250
  %251 = phi %"class.std::vector"* [ %261, %250 ], [ %244, %247 ]
  %252 = phi %"class.std::vector"* [ %260, %250 ], [ %248, %247 ]
  %253 = bitcast %"class.std::vector"* %252 to <2 x i32*>*
  %254 = load <2 x i32*>, <2 x i32*>* %253, align 8, !tbaa !48
  %255 = bitcast %"class.std::vector"* %251 to <2 x i32*>*
  store <2 x i32*> %254, <2 x i32*>* %255, align 8, !tbaa !48
  %256 = getelementptr inbounds %"class.std::vector", %"class.std::vector"* %251, i64 0, i32 0, i32 0, i32 0, i32 2
  %257 = getelementptr inbounds %"class.std::vector", %"class.std::vector"* %252, i64 0, i32 0, i32 0, i32 0, i32 2
  %258 = load i32*, i32** %257, align 8, !tbaa !43
  store i32* %258, i32** %256, align 8, !tbaa !43
  %259 = bitcast %"class.std::vector"* %252 to i8*
  tail call void @llvm.memset.p0i8.i64(i8* noundef nonnull align 8 dereferenceable(24) %259, i8 0, i64 24, i1 false) #17
  %260 = getelementptr inbounds %"class.std::vector", %"class.std::vector"* %252, i64 1
  %261 = getelementptr inbounds %"class.std::vector", %"class.std::vector"* %251, i64 1
  %262 = icmp eq %"class.std::vector"* %260, %1
  br i1 %262, label %263, label %250, !llvm.loop !51

263:                                              ; preds = %250, %247
  %264 = phi %"class.std::vector"* [ %244, %247 ], [ %261, %250 ]
  %265 = getelementptr inbounds %"class.std::vector", %"class.std::vector"* %264, i64 %2
  %266 = load %"class.std::vector"*, %"class.std::vector"** %10, align 8, !tbaa !9
  %267 = icmp eq %"class.std::vector"* %266, %1
  br i1 %267, label %283, label %268

268:                                              ; preds = %263, %268
  %269 = phi %"class.std::vector"* [ %279, %268 ], [ %265, %263 ]
  %270 = phi %"class.std::vector"* [ %278, %268 ], [ %1, %263 ]
  %271 = bitcast %"class.std::vector"* %270 to <2 x i32*>*
  %272 = load <2 x i32*>, <2 x i32*>* %271, align 8, !tbaa !48
  %273 = bitcast %"class.std::vector"* %269 to <2 x i32*>*
  store <2 x i32*> %272, <2 x i32*>* %273, align 8, !tbaa !48
  %274 = getelementptr inbounds %"class.std::vector", %"class.std::vector"* %269, i64 0, i32 0, i32 0, i32 0, i32 2
  %275 = getelementptr inbounds %"class.std::vector", %"class.std::vector"* %270, i64 0, i32 0, i32 0, i32 0, i32 2
  %276 = load i32*, i32** %275, align 8, !tbaa !43
  store i32* %276, i32** %274, align 8, !tbaa !43
  %277 = bitcast %"class.std::vector"* %270 to i8*
  tail call void @llvm.memset.p0i8.i64(i8* noundef nonnull align 8 dereferenceable(24) %277, i8 0, i64 24, i1 false) #17
  %278 = getelementptr inbounds %"class.std::vector", %"class.std::vector"* %270, i64 1
  %279 = getelementptr inbounds %"class.std::vector", %"class.std::vector"* %269, i64 1
  %280 = icmp eq %"class.std::vector"* %278, %266
  br i1 %280, label %281, label %268, !llvm.loop !51

281:                                              ; preds = %268
  %282 = load %"class.std::vector"*, %"class.std::vector"** %10, align 8, !tbaa !9
  br label %283

283:                                              ; preds = %281, %263
  %284 = phi %"class.std::vector"* [ %1, %263 ], [ %282, %281 ]
  %285 = phi %"class.std::vector"* [ %265, %263 ], [ %279, %281 ]
  %286 = load %"class.std::vector"*, %"class.std::vector"** %219, align 8, !tbaa !12
  %287 = icmp eq %"class.std::vector"* %286, %284
  br i1 %287, label %300, label %288

288:                                              ; preds = %283, %295
  %289 = phi %"class.std::vector"* [ %296, %295 ], [ %286, %283 ]
  %290 = getelementptr inbounds %"class.std::vector", %"class.std::vector"* %289, i64 0, i32 0, i32 0, i32 0, i32 0
  %291 = load i32*, i32** %290, align 8, !tbaa !13
  %292 = icmp eq i32* %291, null
  br i1 %292, label %295, label %293

293:                                              ; preds = %288
  %294 = bitcast i32* %291 to i8*
  tail call void @_ZdlPv(i8* nonnull %294) #17
  br label %295

295:                                              ; preds = %293, %288
  %296 = getelementptr inbounds %"class.std::vector", %"class.std::vector"* %289, i64 1
  %297 = icmp eq %"class.std::vector"* %296, %284
  br i1 %297, label %298, label %288, !llvm.loop !15

298:                                              ; preds = %295
  %299 = load %"class.std::vector"*, %"class.std::vector"** %219, align 8, !tbaa !12
  br label %300

300:                                              ; preds = %298, %283
  %301 = phi %"class.std::vector"* [ %299, %298 ], [ %284, %283 ]
  %302 = icmp eq %"class.std::vector"* %301, null
  br i1 %302, label %305, label %303

303:                                              ; preds = %300
  %304 = bitcast %"class.std::vector"* %301 to i8*
  tail call void @_ZdlPv(i8* nonnull %304) #17
  br label %305

305:                                              ; preds = %300, %303
  store %"class.std::vector"* %244, %"class.std::vector"** %219, align 8, !tbaa !12
  store %"class.std::vector"* %285, %"class.std::vector"** %10, align 8, !tbaa !9
  %306 = getelementptr inbounds %"class.std::vector", %"class.std::vector"* %244, i64 %234
  store %"class.std::vector"* %306, %"class.std::vector"** %8, align 8, !tbaa !44
  br label %329

307:                                              ; preds = %243
  %308 = landingpad { i8*, i32 }
          catch i8* null
  %309 = extractvalue { i8*, i32 } %308, 0
  %310 = tail call i8* @__cxa_begin_catch(i8* %309) #17
  %311 = icmp eq %"class.std::vector"* %244, null
  br i1 %311, label %312, label %326

312:                                              ; preds = %307
  %313 = getelementptr inbounds %"class.std::vector", %"class.std::vector"* %245, i64 %2
  br label %314

314:                                              ; preds = %312, %321
  %315 = phi %"class.std::vector"* [ %322, %321 ], [ %245, %312 ]
  %316 = getelementptr inbounds %"class.std::vector", %"class.std::vector"* %315, i64 0, i32 0, i32 0, i32 0, i32 0
  %317 = load i32*, i32** %316, align 8, !tbaa !13
  %318 = icmp eq i32* %317, null
  br i1 %318, label %321, label %319

319:                                              ; preds = %314
  %320 = bitcast i32* %317 to i8*
  tail call void @_ZdlPv(i8* nonnull %320) #17
  br label %321

321:                                              ; preds = %319, %314
  %322 = getelementptr inbounds %"class.std::vector", %"class.std::vector"* %315, i64 1
  %323 = icmp eq %"class.std::vector"* %322, %313
  br i1 %323, label %328, label %314, !llvm.loop !15

324:                                              ; preds = %328
  %325 = landingpad { i8*, i32 }
          cleanup
  invoke void @__cxa_end_catch()
          to label %330 unwind label %332

326:                                              ; preds = %307
  %327 = bitcast %"class.std::vector"* %244 to i8*
  tail call void @_ZdlPv(i8* nonnull %327) #17
  br label %328

328:                                              ; preds = %321, %326
  invoke void @__cxa_rethrow() #18
          to label %335 unwind label %324

329:                                              ; preds = %217, %305, %4
  ret void

330:                                              ; preds = %324, %182
  %331 = phi { i8*, i32 } [ %177, %182 ], [ %325, %324 ]
  resume { i8*, i32 } %331

332:                                              ; preds = %324
  %333 = landingpad { i8*, i32 }
          catch i8* null
  %334 = extractvalue { i8*, i32 } %333, 0
  tail call void @__clang_call_terminate(i8* %334) #20
  unreachable

335:                                              ; preds = %328
  unreachable
}

; Function Attrs: sspstrong uwtable
define linkonce_odr dso_local nonnull align 8 dereferenceable(24) %"class.std::vector"* @_ZNSt6vectorIiSaIiEEaSERKS1_(%"class.std::vector"* nonnull align 8 dereferenceable(24) %0, %"class.std::vector"* nonnull align 8 dereferenceable(24) %1) local_unnamed_addr #13 comdat align 2 personality i32 (...)* @__gxx_personality_v0 {
  %3 = icmp eq %"class.std::vector"* %1, %0
  br i1 %3, label %81, label %4

4:                                                ; preds = %2
  %5 = getelementptr inbounds %"class.std::vector", %"class.std::vector"* %1, i64 0, i32 0, i32 0, i32 0, i32 1
  %6 = load i32*, i32** %5, align 8, !tbaa !17
  %7 = getelementptr inbounds %"class.std::vector", %"class.std::vector"* %1, i64 0, i32 0, i32 0, i32 0, i32 0
  %8 = load i32*, i32** %7, align 8, !tbaa !13
  %9 = ptrtoint i32* %6 to i64
  %10 = ptrtoint i32* %8 to i64
  %11 = sub i64 %9, %10
  %12 = ashr exact i64 %11, 2
  %13 = getelementptr inbounds %"class.std::vector", %"class.std::vector"* %0, i64 0, i32 0, i32 0, i32 0, i32 2
  %14 = load i32*, i32** %13, align 8, !tbaa !43
  %15 = getelementptr inbounds %"class.std::vector", %"class.std::vector"* %0, i64 0, i32 0, i32 0, i32 0, i32 0
  %16 = load i32*, i32** %15, align 8, !tbaa !13
  %17 = ptrtoint i32* %14 to i64
  %18 = ptrtoint i32* %16 to i64
  %19 = sub i64 %17, %18
  %20 = ashr exact i64 %19, 2
  %21 = icmp ugt i64 %12, %20
  br i1 %21, label %22, label %39

22:                                               ; preds = %4
  %23 = icmp ugt i64 %12, 2305843009213693951
  br i1 %23, label %24, label %25, !prof !47

24:                                               ; preds = %22
  tail call void @_ZSt28__throw_bad_array_new_lengthv() #18
  unreachable

25:                                               ; preds = %22
  %26 = tail call noalias nonnull i8* @_Znwm(i64 %11) #19
  %27 = bitcast i8* %26 to i32*
  %28 = icmp eq i64 %11, 0
  br i1 %28, label %31, label %29

29:                                               ; preds = %25
  %30 = bitcast i32* %8 to i8*
  tail call void @llvm.memcpy.p0i8.p0i8.i64(i8* nonnull align 4 %26, i8* align 4 %30, i64 %11, i1 false) #17
  br label %31

31:                                               ; preds = %25, %29
  %32 = load i32*, i32** %15, align 8, !tbaa !13
  %33 = icmp eq i32* %32, null
  br i1 %33, label %36, label %34

34:                                               ; preds = %31
  %35 = bitcast i32* %32 to i8*
  tail call void @_ZdlPv(i8* nonnull %35) #17
  br label %36

36:                                               ; preds = %31, %34
  %37 = bitcast %"class.std::vector"* %0 to i8**
  store i8* %26, i8** %37, align 8, !tbaa !13
  %38 = getelementptr inbounds i32, i32* %27, i64 %12
  store i32* %38, i32** %13, align 8, !tbaa !43
  br label %77

39:                                               ; preds = %4
  %40 = getelementptr inbounds %"class.std::vector", %"class.std::vector"* %0, i64 0, i32 0, i32 0, i32 0, i32 1
  %41 = load i32*, i32** %40, align 8, !tbaa !17
  %42 = ptrtoint i32* %41 to i64
  %43 = sub i64 %42, %18
  %44 = ashr exact i64 %43, 2
  %45 = icmp ult i64 %44, %12
  br i1 %45, label %51, label %46

46:                                               ; preds = %39
  %47 = icmp eq i64 %11, 0
  br i1 %47, label %77, label %48

48:                                               ; preds = %46
  %49 = bitcast i32* %16 to i8*
  %50 = bitcast i32* %8 to i8*
  tail call void @llvm.memmove.p0i8.p0i8.i64(i8* align 4 %49, i8* align 4 %50, i64 %11, i1 false) #17
  br label %77

51:                                               ; preds = %39
  %52 = icmp eq i64 %43, 0
  br i1 %52, label %65, label %53

53:                                               ; preds = %51
  %54 = bitcast i32* %16 to i8*
  %55 = bitcast i32* %8 to i8*
  tail call void @llvm.memmove.p0i8.p0i8.i64(i8* align 4 %54, i8* align 4 %55, i64 %43, i1 false) #17
  %56 = load i32*, i32** %7, align 8, !tbaa !13
  %57 = load i32*, i32** %40, align 8, !tbaa !17
  %58 = load i32*, i32** %15, align 8, !tbaa !13
  %59 = load i32*, i32** %5, align 8, !tbaa !17
  %60 = ptrtoint i32* %57 to i64
  %61 = ptrtoint i32* %58 to i64
  %62 = sub i64 %60, %61
  %63 = ashr exact i64 %62, 2
  %64 = ptrtoint i32* %59 to i64
  br label %65

65:                                               ; preds = %51, %53
  %66 = phi i64 [ %9, %51 ], [ %64, %53 ]
  %67 = phi i64 [ 0, %51 ], [ %63, %53 ]
  %68 = phi i32* [ %41, %51 ], [ %57, %53 ]
  %69 = phi i32* [ %8, %51 ], [ %56, %53 ]
  %70 = getelementptr inbounds i32, i32* %69, i64 %67
  %71 = ptrtoint i32* %70 to i64
  %72 = sub i64 %66, %71
  %73 = icmp eq i64 %72, 0
  br i1 %73, label %77, label %74

74:                                               ; preds = %65
  %75 = bitcast i32* %68 to i8*
  %76 = bitcast i32* %70 to i8*
  tail call void @llvm.memmove.p0i8.p0i8.i64(i8* align 4 %75, i8* align 4 %76, i64 %72, i1 false) #17
  br label %77

77:                                               ; preds = %74, %65, %48, %46, %36
  %78 = load i32*, i32** %15, align 8, !tbaa !13
  %79 = getelementptr inbounds i32, i32* %78, i64 %12
  %80 = getelementptr inbounds %"class.std::vector", %"class.std::vector"* %0, i64 0, i32 0, i32 0, i32 0, i32 1
  store i32* %79, i32** %80, align 8, !tbaa !17
  br label %81

81:                                               ; preds = %77, %2
  ret %"class.std::vector"* %0
}

; Function Attrs: sspstrong uwtable
define linkonce_odr dso_local %"class.std::vector"* @_ZNSt22__uninitialized_fill_nILb0EE15__uninit_fill_nIPSt6vectorIiSaIiEEmS4_EET_S6_T0_RKT1_(%"class.std::vector"* %0, i64 %1, %"class.std::vector"* nonnull align 8 dereferenceable(24) %2) local_unnamed_addr #13 comdat align 2 personality i8* bitcast (i32 (...)* @__gxx_personality_v0 to i8*) {
  %4 = getelementptr inbounds %"class.std::vector", %"class.std::vector"* %2, i64 0, i32 0, i32 0, i32 0, i32 1
  %5 = getelementptr inbounds %"class.std::vector", %"class.std::vector"* %2, i64 0, i32 0, i32 0, i32 0, i32 0
  %6 = icmp eq i64 %1, 0
  br i1 %6, label %69, label %7

7:                                                ; preds = %3
  %8 = load i32*, i32** %5, align 8, !tbaa !13
  br label %9

9:                                                ; preds = %7, %43
  %10 = phi i32* [ %34, %43 ], [ %8, %7 ]
  %11 = phi %"class.std::vector"* [ %47, %43 ], [ %0, %7 ]
  %12 = phi i64 [ %46, %43 ], [ %1, %7 ]
  %13 = load i32*, i32** %4, align 8, !tbaa !17
  %14 = ptrtoint i32* %13 to i64
  %15 = ptrtoint i32* %10 to i64
  %16 = sub i64 %14, %15
  %17 = ashr exact i64 %16, 2
  %18 = bitcast %"class.std::vector"* %11 to i8*
  tail call void @llvm.memset.p0i8.i64(i8* noundef nonnull align 8 dereferenceable(24) %18, i8 0, i64 24, i1 false) #17
  %19 = icmp eq i64 %16, 0
  br i1 %19, label %28, label %20

20:                                               ; preds = %9
  %21 = icmp ugt i64 %17, 2305843009213693951
  br i1 %21, label %22, label %24, !prof !47

22:                                               ; preds = %20
  invoke void @_ZSt28__throw_bad_array_new_lengthv() #18
          to label %23 unwind label %51

23:                                               ; preds = %22
  unreachable

24:                                               ; preds = %20
  %25 = invoke noalias nonnull i8* @_Znwm(i64 %16) #19
          to label %26 unwind label %49

26:                                               ; preds = %24
  %27 = bitcast i8* %25 to i32*
  br label %28

28:                                               ; preds = %26, %9
  %29 = phi i32* [ %27, %26 ], [ null, %9 ]
  %30 = getelementptr inbounds %"class.std::vector", %"class.std::vector"* %11, i64 0, i32 0, i32 0, i32 0, i32 0
  store i32* %29, i32** %30, align 8, !tbaa !13
  %31 = getelementptr inbounds %"class.std::vector", %"class.std::vector"* %11, i64 0, i32 0, i32 0, i32 0, i32 1
  store i32* %29, i32** %31, align 8, !tbaa !17
  %32 = getelementptr inbounds i32, i32* %29, i64 %17
  %33 = getelementptr inbounds %"class.std::vector", %"class.std::vector"* %11, i64 0, i32 0, i32 0, i32 0, i32 2
  store i32* %32, i32** %33, align 8, !tbaa !43
  %34 = load i32*, i32** %5, align 8, !tbaa !48
  %35 = load i32*, i32** %4, align 8, !tbaa !48
  %36 = ptrtoint i32* %35 to i64
  %37 = ptrtoint i32* %34 to i64
  %38 = sub i64 %36, %37
  %39 = icmp eq i64 %38, 0
  br i1 %39, label %43, label %40

40:                                               ; preds = %28
  %41 = bitcast i32* %29 to i8*
  %42 = bitcast i32* %34 to i8*
  tail call void @llvm.memmove.p0i8.p0i8.i64(i8* align 4 %41, i8* align 4 %42, i64 %38, i1 false) #17
  br label %43

43:                                               ; preds = %40, %28
  %44 = ashr exact i64 %38, 2
  %45 = getelementptr inbounds i32, i32* %29, i64 %44
  store i32* %45, i32** %31, align 8, !tbaa !17
  %46 = add i64 %12, -1
  %47 = getelementptr inbounds %"class.std::vector", %"class.std::vector"* %11, i64 1
  %48 = icmp eq i64 %46, 0
  br i1 %48, label %69, label %9, !llvm.loop !54

49:                                               ; preds = %24
  %50 = landingpad { i8*, i32 }
          catch i8* null
  br label %53

51:                                               ; preds = %22
  %52 = landingpad { i8*, i32 }
          catch i8* null
  br label %53

53:                                               ; preds = %51, %49
  %54 = phi { i8*, i32 } [ %50, %49 ], [ %52, %51 ]
  %55 = extractvalue { i8*, i32 } %54, 0
  %56 = tail call i8* @__cxa_begin_catch(i8* %55) #17
  %57 = icmp eq %"class.std::vector"* %11, %0
  br i1 %57, label %68, label %58

58:                                               ; preds = %53, %65
  %59 = phi %"class.std::vector"* [ %66, %65 ], [ %0, %53 ]
  %60 = getelementptr inbounds %"class.std::vector", %"class.std::vector"* %59, i64 0, i32 0, i32 0, i32 0, i32 0
  %61 = load i32*, i32** %60, align 8, !tbaa !13
  %62 = icmp eq i32* %61, null
  br i1 %62, label %65, label %63

63:                                               ; preds = %58
  %64 = bitcast i32* %61 to i8*
  tail call void @_ZdlPv(i8* nonnull %64) #17
  br label %65

65:                                               ; preds = %63, %58
  %66 = getelementptr inbounds %"class.std::vector", %"class.std::vector"* %59, i64 1
  %67 = icmp eq %"class.std::vector"* %66, %11
  br i1 %67, label %68, label %58, !llvm.loop !15

68:                                               ; preds = %65, %53
  invoke void @__cxa_rethrow() #18
          to label %77 unwind label %71

69:                                               ; preds = %43, %3
  %70 = phi %"class.std::vector"* [ %0, %3 ], [ %47, %43 ]
  ret %"class.std::vector"* %70

71:                                               ; preds = %68
  %72 = landingpad { i8*, i32 }
          cleanup
  invoke void @__cxa_end_catch()
          to label %73 unwind label %74

73:                                               ; preds = %71
  resume { i8*, i32 } %72

74:                                               ; preds = %71
  %75 = landingpad { i8*, i32 }
          catch i8* null
  %76 = extractvalue { i8*, i32 } %75, 0
  tail call void @__clang_call_terminate(i8* %76) #20
  unreachable

77:                                               ; preds = %68
  unreachable
}

declare nonnull align 8 dereferenceable(8) %"class.std::basic_ostream"* @_ZNSo3putEc(%"class.std::basic_ostream"* nonnull align 8 dereferenceable(8), i8 signext) local_unnamed_addr #0

declare nonnull align 8 dereferenceable(8) %"class.std::basic_ostream"* @_ZNSo5flushEv(%"class.std::basic_ostream"* nonnull align 8 dereferenceable(8)) local_unnamed_addr #0

; Function Attrs: noreturn
declare void @_ZSt16__throw_bad_castv() local_unnamed_addr #10

declare void @_ZNKSt5ctypeIcE13_M_widen_initEv(%"class.std::ctype"* nonnull align 8 dereferenceable(570)) local_unnamed_addr #0

; Function Attrs: sspstrong uwtable
define internal void @_GLOBAL__sub_I_s349045803.cpp() #13 section ".text.startup" {
  tail call void @_ZNSt8ios_base4InitC1Ev(%"class.std::ios_base::Init"* nonnull align 1 dereferenceable(1) @_ZStL8__ioinit)
  %1 = tail call i32 @__cxa_atexit(void (i8*)* bitcast (void (%"class.std::ios_base::Init"*)* @_ZNSt8ios_base4InitD1Ev to void (i8*)*), i8* getelementptr inbounds (%"class.std::ios_base::Init", %"class.std::ios_base::Init"* @_ZStL8__ioinit, i64 0, i32 0), i8* nonnull @__dso_handle) #17
  ret void
}

; Function Attrs: inaccessiblememonly nofree nosync nounwind willreturn
declare void @llvm.assume(i1 noundef) #14

; Function Attrs: argmemonly nofree nounwind willreturn
declare void @llvm.memcpy.p0i8.p0i8.i64(i8* noalias nocapture writeonly, i8* noalias nocapture readonly, i64, i1 immarg) #15

; Function Attrs: nofree nosync nounwind readnone willreturn
declare i32 @llvm.vector.reduce.add.v4i32(<4 x i32>) #16

attributes #0 = { "frame-pointer"="none" "no-trapping-math"="true" "stack-protector-buffer-size"="8" "target-cpu"="x86-64" "target-features"="+cx8,+fxsr,+mmx,+sse,+sse2,+x87" "tune-cpu"="generic" }
attributes #1 = { nounwind "frame-pointer"="none" "no-trapping-math"="true" "stack-protector-buffer-size"="8" "target-cpu"="x86-64" "target-features"="+cx8,+fxsr,+mmx,+sse,+sse2,+x87" "tune-cpu"="generic" }
attributes #2 = { nofree nounwind }
attributes #3 = { norecurse sspstrong uwtable "frame-pointer"="none" "min-legal-vector-width"="0" "no-trapping-math"="true" "stack-protector-buffer-size"="8" "target-cpu"="x86-64" "target-features"="+cx8,+fxsr,+mmx,+sse,+sse2,+x87" "tune-cpu"="generic" }
attributes #4 = { argmemonly mustprogress nofree nosync nounwind willreturn }
attributes #5 = { argmemonly mustprogress nofree nounwind willreturn writeonly }
attributes #6 = { nounwind sspstrong uwtable "frame-pointer"="none" "min-legal-vector-width"="0" "no-trapping-math"="true" "stack-protector-buffer-size"="8" "target-cpu"="x86-64" "target-features"="+cx8,+fxsr,+mmx,+sse,+sse2,+x87" "tune-cpu"="generic" }
attributes #7 = { noinline noreturn nounwind }
attributes #8 = { nobuiltin nounwind "frame-pointer"="none" "no-trapping-math"="true" "stack-protector-buffer-size"="8" "target-cpu"="x86-64" "target-features"="+cx8,+fxsr,+mmx,+sse,+sse2,+x87" "tune-cpu"="generic" }
attributes #9 = { mustprogress sspstrong uwtable "frame-pointer"="none" "min-legal-vector-width"="0" "no-trapping-math"="true" "stack-protector-buffer-size"="8" "target-cpu"="x86-64" "target-features"="+cx8,+fxsr,+mmx,+sse,+sse2,+x87" "tune-cpu"="generic" }
attributes #10 = { noreturn "frame-pointer"="none" "no-trapping-math"="true" "stack-protector-buffer-size"="8" "target-cpu"="x86-64" "target-features"="+cx8,+fxsr,+mmx,+sse,+sse2,+x87" "tune-cpu"="generic" }
attributes #11 = { nobuiltin allocsize(0) "frame-pointer"="none" "no-trapping-math"="true" "stack-protector-buffer-size"="8" "target-cpu"="x86-64" "target-features"="+cx8,+fxsr,+mmx,+sse,+sse2,+x87" "tune-cpu"="generic" }
attributes #12 = { argmemonly mustprogress nofree nounwind willreturn }
attributes #13 = { sspstrong uwtable "frame-pointer"="none" "min-legal-vector-width"="0" "no-trapping-math"="true" "stack-protector-buffer-size"="8" "target-cpu"="x86-64" "target-features"="+cx8,+fxsr,+mmx,+sse,+sse2,+x87" "tune-cpu"="generic" }
attributes #14 = { inaccessiblememonly nofree nosync nounwind willreturn }
attributes #15 = { argmemonly nofree nounwind willreturn }
attributes #16 = { nofree nosync nounwind readnone willreturn }
attributes #17 = { nounwind }
attributes #18 = { noreturn }
attributes #19 = { allocsize(0) }
attributes #20 = { noreturn nounwind }

!llvm.module.flags = !{!0, !1, !2, !3}
!llvm.ident = !{!4}

!0 = !{i32 1, !"wchar_size", i32 4}
!1 = !{i32 7, !"PIC Level", i32 2}
!2 = !{i32 7, !"PIE Level", i32 2}
!3 = !{i32 7, !"uwtable", i32 1}
!4 = !{!"clang version 13.0.0"}
!5 = !{!6, !6, i64 0}
!6 = !{!"int", !7, i64 0}
!7 = !{!"omnipotent char", !8, i64 0}
!8 = !{!"Simple C++ TBAA"}
!9 = !{!10, !11, i64 8}
!10 = !{!"_ZTSNSt12_Vector_baseISt6vectorIiSaIiEESaIS2_EE17_Vector_impl_dataE", !11, i64 0, !11, i64 8, !11, i64 16}
!11 = !{!"any pointer", !7, i64 0}
!12 = !{!10, !11, i64 0}
!13 = !{!14, !11, i64 0}
!14 = !{!"_ZTSNSt12_Vector_baseIiSaIiEE17_Vector_impl_dataE", !11, i64 0, !11, i64 8, !11, i64 16}
!15 = distinct !{!15, !16}
!16 = !{!"llvm.loop.mustprogress"}
!17 = !{!14, !11, i64 8}
!18 = distinct !{!18, !16}
!19 = distinct !{!19, !16}
!20 = distinct !{!20, !16, !21}
!21 = !{!"llvm.loop.isvectorized", i32 1}
!22 = distinct !{!22, !16}
!23 = !{!24}
!24 = distinct !{!24, !25}
!25 = distinct !{!25, !"LVerDomain"}
!26 = !{!27}
!27 = distinct !{!27, !25}
!28 = distinct !{!28, !16, !21}
!29 = distinct !{!29, !16}
!30 = distinct !{!30, !16, !31, !21}
!31 = !{!"llvm.loop.unroll.runtime.disable"}
!32 = distinct !{!32, !16, !21}
!33 = distinct !{!33, !16, !31, !21}
!34 = !{!35, !35, i64 0}
!35 = !{!"vtable pointer", !8, i64 0}
!36 = !{!37, !11, i64 240}
!37 = !{!"_ZTSSt9basic_iosIcSt11char_traitsIcEE", !11, i64 216, !7, i64 224, !38, i64 225, !11, i64 232, !11, i64 240, !11, i64 248, !11, i64 256}
!38 = !{!"bool", !7, i64 0}
!39 = !{!40, !7, i64 56}
!40 = !{!"_ZTSSt5ctypeIcE", !11, i64 16, !38, i64 24, !11, i64 32, !11, i64 40, !11, i64 48, !7, i64 56, !7, i64 57, !7, i64 313, !7, i64 569}
!41 = !{!7, !7, i64 0}
!42 = distinct !{!42, !16, !21}
!43 = !{!14, !11, i64 16}
!44 = !{!10, !11, i64 16}
!45 = !{!46, !11, i64 0}
!46 = !{!"_ZTSNSt6vectorIS_IiSaIiEESaIS1_EE16_Temporary_valueE", !11, i64 0, !7, i64 8}
!47 = !{!"branch_weights", i32 1, i32 2000}
!48 = !{!11, !11, i64 0}
!49 = distinct !{!49, !50}
!50 = !{!"llvm.loop.unroll.disable"}
!51 = distinct !{!51, !16}
!52 = distinct !{!52, !16}
!53 = distinct !{!53, !16}
!54 = distinct !{!54, !16}
