; ModuleID = 'Project_CodeNet_C++1400/p02787/s864484413.cpp'
source_filename = "Project_CodeNet_C++1400/p02787/s864484413.cpp"
target datalayout = "e-m:e-i64:64-f80:128-n8:16:32:64-S128"
target triple = "x86_64-unknown-linux-gnu"

%"class.std::ios_base::Init" = type { i8 }
%"class.std::basic_ostream" = type { i32 (...)**, %"class.std::basic_ios" }
%"class.std::basic_ios" = type { %"class.std::ios_base", %"class.std::basic_ostream"*, i8, i8, %"class.std::basic_streambuf"*, %"class.std::ctype"*, %"class.std::num_put"*, %"class.std::num_get"* }
%"class.std::ios_base" = type { i32 (...)**, i64, i64, i32, i32, i32, %"struct.std::ios_base::_Callback_list"*, %"struct.std::ios_base::_Words", [8 x %"struct.std::ios_base::_Words"], i32, %"struct.std::ios_base::_Words"*, %"class.std::locale" }
%"struct.std::ios_base::_Callback_list" = type { %"struct.std::ios_base::_Callback_list"*, void (i32, %"class.std::ios_base"*, i32)*, i32, i32 }
%"struct.std::ios_base::_Words" = type { i8*, i64 }
%"class.std::locale" = type { %"class.std::locale::_Impl"* }
%"class.std::locale::_Impl" = type { i32, %"class.std::locale::facet"**, i64, %"class.std::locale::facet"**, i8** }
%"class.std::locale::facet" = type <{ i32 (...)**, i32, [4 x i8] }>
%"class.std::basic_streambuf" = type { i32 (...)**, i8*, i8*, i8*, i8*, i8*, i8*, %"class.std::locale" }
%"class.std::ctype" = type <{ %"class.std::locale::facet.base", [4 x i8], %struct.__locale_struct*, i8, [7 x i8], i32*, i32*, i16*, i8, [256 x i8], [256 x i8], i8, [6 x i8] }>
%"class.std::locale::facet.base" = type <{ i32 (...)**, i32 }>
%struct.__locale_struct = type { [13 x %struct.__locale_data*], i16*, i32*, i32*, [13 x i8*] }
%struct.__locale_data = type opaque
%"class.std::num_put" = type { %"class.std::locale::facet.base", [4 x i8] }
%"class.std::num_get" = type { %"class.std::locale::facet.base", [4 x i8] }
%"class.std::vector" = type { %"struct.std::_Vector_base" }
%"struct.std::_Vector_base" = type { %"struct.std::_Vector_base<std::vector<int, std::allocator<int> >, std::allocator<std::vector<int, std::allocator<int> > > >::_Vector_impl" }
%"struct.std::_Vector_base<std::vector<int, std::allocator<int> >, std::allocator<std::vector<int, std::allocator<int> > > >::_Vector_impl" = type { %"class.std::vector.0"*, %"class.std::vector.0"*, %"class.std::vector.0"* }
%"class.std::vector.0" = type { %"struct.std::_Vector_base.33" }
%"struct.std::_Vector_base.33" = type { %"struct.std::_Vector_base<int, std::allocator<int> >::_Vector_impl" }
%"struct.std::_Vector_base<int, std::allocator<int> >::_Vector_impl" = type { i32*, i32*, i32* }
%"class.std::vector.1" = type { %"struct.std::_Vector_base.2" }
%"struct.std::_Vector_base.2" = type { %"struct.std::_Vector_base<std::set<std::pair<int, int>, std::less<std::pair<int, int> >, std::allocator<std::pair<int, int> > >, std::allocator<std::set<std::pair<int, int>, std::less<std::pair<int, int> >, std::allocator<std::pair<int, int> > > > >::_Vector_impl" }
%"struct.std::_Vector_base<std::set<std::pair<int, int>, std::less<std::pair<int, int> >, std::allocator<std::pair<int, int> > >, std::allocator<std::set<std::pair<int, int>, std::less<std::pair<int, int> >, std::allocator<std::pair<int, int> > > > >::_Vector_impl" = type { %"class.std::set"*, %"class.std::set"*, %"class.std::set"* }
%"class.std::set" = type { %"class.std::_Rb_tree.37" }
%"class.std::_Rb_tree.37" = type { %"struct.std::_Rb_tree<std::pair<int, int>, std::pair<int, int>, std::_Identity<std::pair<int, int> >, std::less<std::pair<int, int> >, std::allocator<std::pair<int, int> > >::_Rb_tree_impl" }
%"struct.std::_Rb_tree<std::pair<int, int>, std::pair<int, int>, std::_Identity<std::pair<int, int> >, std::less<std::pair<int, int> >, std::allocator<std::pair<int, int> > >::_Rb_tree_impl" = type { %"struct.std::less.41", %"struct.std::_Rb_tree_node_base", i64 }
%"struct.std::less.41" = type { i8 }
%"struct.std::_Rb_tree_node_base" = type { i32, %"struct.std::_Rb_tree_node_base"*, %"struct.std::_Rb_tree_node_base"*, %"struct.std::_Rb_tree_node_base"* }
%"class.std::vector.6" = type { %"struct.std::_Vector_base.7" }
%"struct.std::_Vector_base.7" = type { %"struct.std::_Vector_base<long long, std::allocator<long long> >::_Vector_impl" }
%"struct.std::_Vector_base<long long, std::allocator<long long> >::_Vector_impl" = type { i64*, i64*, i64* }
%"class.std::vector.11" = type { %"struct.std::_Bvector_base" }
%"struct.std::_Bvector_base" = type { %"struct.std::_Bvector_base<std::allocator<bool> >::_Bvector_impl" }
%"struct.std::_Bvector_base<std::allocator<bool> >::_Bvector_impl" = type { %"struct.std::_Bit_iterator", %"struct.std::_Bit_iterator", i64* }
%"struct.std::_Bit_iterator" = type { %"struct.std::_Bit_iterator_base.base", [4 x i8] }
%"struct.std::_Bit_iterator_base.base" = type <{ i64*, i32 }>
%"class.std::map" = type { %"class.std::_Rb_tree" }
%"class.std::_Rb_tree" = type { %"struct.std::_Rb_tree<long long, std::pair<const long long, std::set<long long, std::less<long long>, std::allocator<long long> > >, std::_Select1st<std::pair<const long long, std::set<long long, std::less<long long>, std::allocator<long long> > > >, std::less<long long>, std::allocator<std::pair<const long long, std::set<long long, std::less<long long>, std::allocator<long long> > > > >::_Rb_tree_impl" }
%"struct.std::_Rb_tree<long long, std::pair<const long long, std::set<long long, std::less<long long>, std::allocator<long long> > >, std::_Select1st<std::pair<const long long, std::set<long long, std::less<long long>, std::allocator<long long> > > >, std::less<long long>, std::allocator<std::pair<const long long, std::set<long long, std::less<long long>, std::allocator<long long> > > > >::_Rb_tree_impl" = type { %"struct.std::less", %"struct.std::_Rb_tree_node_base", i64 }
%"struct.std::less" = type { i8 }
%"class.std::map.18" = type { %"class.std::_Rb_tree.19" }
%"class.std::_Rb_tree.19" = type { %"struct.std::_Rb_tree<long long, std::pair<const long long, std::map<long long, long long, std::less<long long>, std::allocator<std::pair<const long long, long long> > > >, std::_Select1st<std::pair<const long long, std::map<long long, long long, std::less<long long>, std::allocator<std::pair<const long long, long long> > > > >, std::less<long long>, std::allocator<std::pair<const long long, std::map<long long, long long, std::less<long long>, std::allocator<std::pair<const long long, long long> > > > > >::_Rb_tree_impl" }
%"struct.std::_Rb_tree<long long, std::pair<const long long, std::map<long long, long long, std::less<long long>, std::allocator<std::pair<const long long, long long> > > >, std::_Select1st<std::pair<const long long, std::map<long long, long long, std::less<long long>, std::allocator<std::pair<const long long, long long> > > > >, std::less<long long>, std::allocator<std::pair<const long long, std::map<long long, long long, std::less<long long>, std::allocator<std::pair<const long long, long long> > > > > >::_Rb_tree_impl" = type { %"struct.std::less", %"struct.std::_Rb_tree_node_base", i64 }
%"class.std::basic_istream" = type { i32 (...)**, i64, %"class.std::basic_ios" }
%"struct.std::piecewise_construct_t" = type { i8 }
%"class.std::allocator" = type { i8 }
%"class.std::allocator.3" = type { i8 }
%"class.std::allocator.8" = type { i8 }
%"struct.std::_Bit_reference" = type { i64*, i64 }
%"struct.std::_Bit_const_iterator" = type { %"struct.std::_Bit_iterator_base.base", [4 x i8] }
%"struct.std::_Bit_iterator_base" = type <{ i64*, i32, [4 x i8] }>
%"class.std::set.23" = type { %"class.std::_Rb_tree.24" }
%"class.std::_Rb_tree.24" = type { %"struct.std::_Rb_tree<long long, long long, std::_Identity<long long>, std::less<long long>, std::allocator<long long> >::_Rb_tree_impl" }
%"struct.std::_Rb_tree<long long, long long, std::_Identity<long long>, std::less<long long>, std::allocator<long long> >::_Rb_tree_impl" = type { %"struct.std::less", %"struct.std::_Rb_tree_node_base", i64 }
%"class.std::initializer_list" = type { i64*, i64 }
%"class.std::map.28" = type { %"class.std::_Rb_tree.29" }
%"class.std::_Rb_tree.29" = type { %"struct.std::_Rb_tree<long long, std::pair<const long long, long long>, std::_Select1st<std::pair<const long long, long long> >, std::less<long long>, std::allocator<std::pair<const long long, long long> > >::_Rb_tree_impl" }
%"struct.std::_Rb_tree<long long, std::pair<const long long, long long>, std::_Select1st<std::pair<const long long, long long> >, std::less<long long>, std::allocator<std::pair<const long long, long long> > >::_Rb_tree_impl" = type { %"struct.std::less", %"struct.std::_Rb_tree_node_base", i64 }
%"struct.std::pair" = type <{ %"struct.std::_Rb_tree_const_iterator", i8, [7 x i8] }>
%"struct.std::_Rb_tree_const_iterator" = type { %"struct.std::_Rb_tree_node_base"* }
%"class.__gnu_cxx::new_allocator.9" = type { i8 }
%"struct.std::pair.56" = type <{ %"struct.std::_Rb_tree_iterator", i8, [7 x i8] }>
%"struct.std::_Rb_tree_iterator" = type { %"struct.std::_Rb_tree_node_base"* }
%"class.std::tuple.60" = type { i8 }
%"class.std::tuple" = type { %"struct.std::_Tuple_impl" }
%"struct.std::_Tuple_impl" = type { %"struct.std::_Head_base" }
%"struct.std::_Head_base" = type { i64* }
%"struct.std::_Rb_tree_const_iterator.59" = type { %"struct.std::_Rb_tree_node_base"* }
%"struct.std::_Rb_tree_iterator.58" = type { %"struct.std::_Rb_tree_node_base"* }
%"struct.std::pair.49" = type { i64, i64 }
%"class.std::tuple.63" = type { %"struct.std::_Tuple_impl.64" }
%"struct.std::_Tuple_impl.64" = type { %"struct.std::_Head_base.65" }
%"struct.std::_Head_base.65" = type { i64* }
%"struct.std::_Rb_tree_const_iterator.67" = type { %"struct.std::_Rb_tree_node_base"* }
%"struct.std::_Rb_tree_iterator.66" = type { %"struct.std::_Rb_tree_node_base"* }
%"struct.std::pair.43" = type { i64, %"class.std::set.23" }
%"struct.std::_Rb_tree_const_iterator.71" = type { %"struct.std::_Rb_tree_node_base"* }
%"struct.std::_Rb_tree_iterator.70" = type { %"struct.std::_Rb_tree_node_base"* }
%"struct.std::pair.46" = type { i64, %"class.std::map.28" }
%"class.std::basic_ifstream" = type { %"class.std::basic_istream.base", %"class.std::basic_filebuf", %"class.std::basic_ios" }
%"class.std::basic_istream.base" = type { i32 (...)**, i64 }
%"class.std::basic_filebuf" = type { %"class.std::basic_streambuf", %union.pthread_mutex_t, %"class.std::__basic_file", i32, %struct.__mbstate_t, %struct.__mbstate_t, %struct.__mbstate_t, i8*, i64, i8, i8, i8, i8, i8*, i8*, i8, %"class.std::codecvt"*, i8*, i64, i8*, i8* }
%union.pthread_mutex_t = type { %"struct.(anonymous union)::__pthread_mutex_s" }
%"struct.(anonymous union)::__pthread_mutex_s" = type { i32, i32, i32, i32, i32, i16, i16, %struct.__pthread_internal_list }
%struct.__pthread_internal_list = type { %struct.__pthread_internal_list*, %struct.__pthread_internal_list* }
%"class.std::__basic_file" = type <{ %struct._IO_FILE*, i8, [7 x i8] }>
%struct._IO_FILE = type { i32, i8*, i8*, i8*, i8*, i8*, i8*, i8*, i8*, i8*, i8*, i8*, %struct._IO_marker*, %struct._IO_FILE*, i32, i32, i64, i16, i8, [1 x i8], i8*, i64, i8*, i8*, i8*, i8*, i64, i32, [20 x i8] }
%struct._IO_marker = type { %struct._IO_marker*, %struct._IO_FILE*, i32 }
%struct.__mbstate_t = type { i32, %union.anon }
%union.anon = type { i32 }
%"class.std::codecvt" = type { %"class.std::__codecvt_abstract_base.base", %struct.__locale_struct* }
%"class.std::__codecvt_abstract_base.base" = type { %"class.std::locale::facet.base" }
%"struct.std::_Rb_tree_node" = type { %"struct.std::_Rb_tree_node_base", %"struct.__gnu_cxx::__aligned_membuf" }
%"struct.__gnu_cxx::__aligned_membuf" = type { [56 x i8] }
%"class.std::allocator.15" = type { i8 }
%"class.__gnu_cxx::new_allocator.16" = type { i8 }
%"struct.std::_Rb_tree_node.44" = type { %"struct.std::_Rb_tree_node_base", %"struct.__gnu_cxx::__aligned_membuf.45" }
%"struct.__gnu_cxx::__aligned_membuf.45" = type { [56 x i8] }
%"class.std::allocator.20" = type { i8 }
%"class.__gnu_cxx::new_allocator.21" = type { i8 }
%"struct.std::_Rb_tree_node.47" = type { %"struct.std::_Rb_tree_node_base", %"struct.__gnu_cxx::__aligned_membuf.48" }
%"struct.__gnu_cxx::__aligned_membuf.48" = type { [16 x i8] }
%"class.std::allocator.30" = type { i8 }
%"class.__gnu_cxx::new_allocator.31" = type { i8 }
%"struct.std::_Rb_tree_node.50" = type { %"struct.std::_Rb_tree_node_base", %"struct.__gnu_cxx::__aligned_membuf.51" }
%"struct.__gnu_cxx::__aligned_membuf.51" = type { [8 x i8] }
%"class.std::allocator.25" = type { i8 }
%"class.__gnu_cxx::new_allocator.26" = type { i8 }
%"class.__gnu_cxx::new_allocator" = type { i8 }
%"class.std::allocator.34" = type { i8 }
%"class.__gnu_cxx::new_allocator.35" = type { i8 }
%"class.__gnu_cxx::new_allocator.4" = type { i8 }
%"struct.std::_Rb_tree_node.52" = type { %"struct.std::_Rb_tree_node_base", %"struct.__gnu_cxx::__aligned_membuf.53" }
%"struct.__gnu_cxx::__aligned_membuf.53" = type { [8 x i8] }
%"class.std::allocator.38" = type { i8 }
%"struct.std::pair.54" = type { i32, i32 }
%"class.__gnu_cxx::new_allocator.39" = type { i8 }
%"class.std::move_iterator" = type { i64* }
%"class.std::allocator.12" = type { i8 }
%"class.__gnu_cxx::new_allocator.13" = type { i8 }
%"struct.std::iterator" = type { i8 }
%"struct.std::_Rb_tree<long long, long long, std::_Identity<long long>, std::less<long long>, std::allocator<long long> >::_Alloc_node" = type { %"class.std::_Rb_tree.24"* }
%"struct.std::pair.55" = type { %"struct.std::_Rb_tree_node_base"*, %"struct.std::_Rb_tree_node_base"* }
%"struct.std::_Identity" = type { i8 }
%"struct.std::_Select1st" = type { i8 }
%"struct.std::_Index_tuple" = type { i8 }
%"struct.std::_Index_tuple.62" = type { i8 }
%"struct.std::_Select1st.68" = type { i8 }
%"struct.std::_Rb_tree<long long, long long, std::_Identity<long long>, std::less<long long>, std::allocator<long long> >::_Reuse_or_alloc_node" = type { %"struct.std::_Rb_tree_node_base"*, %"struct.std::_Rb_tree_node_base"*, %"class.std::_Rb_tree.24"* }
%"struct.std::_Select1st.72" = type { i8 }
%"struct.std::_Rb_tree<long long, std::pair<const long long, long long>, std::_Select1st<std::pair<const long long, long long> >, std::less<long long>, std::allocator<std::pair<const long long, long long> > >::_Reuse_or_alloc_node" = type { %"struct.std::_Rb_tree_node_base"*, %"struct.std::_Rb_tree_node_base"*, %"class.std::_Rb_tree.29"* }

$_ZNSt6vectorIS_IiSaIiEESaIS1_EEC2Ev = comdat any

$_ZNSt6vectorIS_IiSaIiEESaIS1_EED2Ev = comdat any

$_ZNSt6vectorISt3setISt4pairIiiESt4lessIS2_ESaIS2_EESaIS6_EEC2Ev = comdat any

$_ZNSt6vectorISt3setISt4pairIiiESt4lessIS2_ESaIS2_EESaIS6_EED2Ev = comdat any

$_ZNSt6vectorIxSaIxEEC2Ev = comdat any

$_ZNSt6vectorIxSaIxEED2Ev = comdat any

$_ZNSt6vectorIxSaIxEE6resizeEm = comdat any

$_ZNSt6vectorIxSaIxEEixEm = comdat any

$_ZNSt6vectorIbSaIbEEC2Ev = comdat any

$_ZNSt6vectorIbSaIbEED2Ev = comdat any

$_ZNSt6vectorIbSaIbEE5clearEv = comdat any

$_ZNSt6vectorIbSaIbEE6resizeEmb = comdat any

$_ZNSt6vectorIbSaIbEEixEm = comdat any

$_ZNSt14_Bit_referenceaSEb = comdat any

$_ZNSt14_Bit_referenceaSERKS_ = comdat any

$_ZNKSt14_Bit_referencecvbEv = comdat any

$_ZNSt3mapIxSt3setIxSt4lessIxESaIxEES2_SaISt4pairIKxS4_EEEC2Ev = comdat any

$_ZNSt3mapIxSt3setIxSt4lessIxESaIxEES2_SaISt4pairIKxS4_EEED2Ev = comdat any

$_ZNSt3mapIxS_IxxSt4lessIxESaISt4pairIKxxEEES1_SaIS2_IS3_S6_EEEC2Ev = comdat any

$_ZNSt3mapIxS_IxxSt4lessIxESaISt4pairIKxxEEES1_SaIS2_IS3_S6_EEED2Ev = comdat any

$_ZNSt3mapIxS_IxxSt4lessIxESaISt4pairIKxxEEES1_SaIS2_IS3_S6_EEE5clearEv = comdat any

$_ZNSt3mapIxSt3setIxSt4lessIxESaIxEES2_SaISt4pairIKxS4_EEE5clearEv = comdat any

$_ZNSaIxEC2Ev = comdat any

$_ZNSt3setIxSt4lessIxESaIxEEC2ESt16initializer_listIxERKS1_RKS2_ = comdat any

$_ZNSaIxED2Ev = comdat any

$_ZNSt3mapIxxSt4lessIxESaISt4pairIKxxEEEC2Ev = comdat any

$_ZNSt3setIxSt4lessIxESaIxEE6insertERKx = comdat any

$_ZNSt3mapIxxSt4lessIxESaISt4pairIKxxEEEixEOx = comdat any

$_ZNSt3mapIxxSt4lessIxESaISt4pairIKxxEEEixERS3_ = comdat any

$_ZNSt3mapIxSt3setIxSt4lessIxESaIxEES2_SaISt4pairIKxS4_EEEixERS6_ = comdat any

$_ZNSt3setIxSt4lessIxESaIxEEaSERKS3_ = comdat any

$_ZNSt3mapIxS_IxxSt4lessIxESaISt4pairIKxxEEES1_SaIS2_IS3_S6_EEEixERS3_ = comdat any

$_ZNSt3mapIxxSt4lessIxESaISt4pairIKxxEEEaSERKS6_ = comdat any

$_ZNSt3mapIxxSt4lessIxESaISt4pairIKxxEEED2Ev = comdat any

$_ZNSt3setIxSt4lessIxESaIxEED2Ev = comdat any

$_ZNSt6vectorIxSaIxEEC2EmRKxRKS0_ = comdat any

$_Z5chminIxEbRT_S0_ = comdat any

$_ZSt3minIxERKT_S2_S2_ = comdat any

$_ZNSt8_Rb_treeIxSt4pairIKxSt3setIxSt4lessIxESaIxEEESt10_Select1stIS7_ES4_SaIS7_EED2Ev = comdat any

$_ZNSt8_Rb_treeIxSt4pairIKxSt3setIxSt4lessIxESaIxEEESt10_Select1stIS7_ES4_SaIS7_EE8_M_eraseEPSt13_Rb_tree_nodeIS7_E = comdat any

$_ZNSt8_Rb_treeIxSt4pairIKxSt3setIxSt4lessIxESaIxEEESt10_Select1stIS7_ES4_SaIS7_EE8_M_beginEv = comdat any

$_ZNSt8_Rb_treeIxSt4pairIKxSt3setIxSt4lessIxESaIxEEESt10_Select1stIS7_ES4_SaIS7_EE13_Rb_tree_implIS4_Lb1EED2Ev = comdat any

$__clang_call_terminate = comdat any

$_ZNSt8_Rb_treeIxSt4pairIKxSt3setIxSt4lessIxESaIxEEESt10_Select1stIS7_ES4_SaIS7_EE8_S_rightEPSt18_Rb_tree_node_base = comdat any

$_ZNSt8_Rb_treeIxSt4pairIKxSt3setIxSt4lessIxESaIxEEESt10_Select1stIS7_ES4_SaIS7_EE7_S_leftEPSt18_Rb_tree_node_base = comdat any

$_ZNSt8_Rb_treeIxSt4pairIKxSt3setIxSt4lessIxESaIxEEESt10_Select1stIS7_ES4_SaIS7_EE12_M_drop_nodeEPSt13_Rb_tree_nodeIS7_E = comdat any

$_ZNSt8_Rb_treeIxSt4pairIKxSt3setIxSt4lessIxESaIxEEESt10_Select1stIS7_ES4_SaIS7_EE15_M_destroy_nodeEPSt13_Rb_tree_nodeIS7_E = comdat any

$_ZNSt8_Rb_treeIxSt4pairIKxSt3setIxSt4lessIxESaIxEEESt10_Select1stIS7_ES4_SaIS7_EE11_M_put_nodeEPSt13_Rb_tree_nodeIS7_E = comdat any

$_ZNSt16allocator_traitsISaISt13_Rb_tree_nodeISt4pairIKxSt3setIxSt4lessIxESaIxEEEEEE7destroyIS8_EEvRSA_PT_ = comdat any

$_ZNSt8_Rb_treeIxSt4pairIKxSt3setIxSt4lessIxESaIxEEESt10_Select1stIS7_ES4_SaIS7_EE21_M_get_Node_allocatorEv = comdat any

$_ZNSt13_Rb_tree_nodeISt4pairIKxSt3setIxSt4lessIxESaIxEEEE9_M_valptrEv = comdat any

$_ZN9__gnu_cxx13new_allocatorISt13_Rb_tree_nodeISt4pairIKxSt3setIxSt4lessIxESaIxEEEEE7destroyIS9_EEvPT_ = comdat any

$_ZNSt4pairIKxSt3setIxSt4lessIxESaIxEEED2Ev = comdat any

$_ZN9__gnu_cxx16__aligned_membufISt4pairIKxSt3setIxSt4lessIxESaIxEEEE6_M_ptrEv = comdat any

$_ZN9__gnu_cxx16__aligned_membufISt4pairIKxSt3setIxSt4lessIxESaIxEEEE7_M_addrEv = comdat any

$_ZNSt16allocator_traitsISaISt13_Rb_tree_nodeISt4pairIKxSt3setIxSt4lessIxESaIxEEEEEE10deallocateERSA_PS9_m = comdat any

$_ZN9__gnu_cxx13new_allocatorISt13_Rb_tree_nodeISt4pairIKxSt3setIxSt4lessIxESaIxEEEEE10deallocateEPSA_m = comdat any

$_ZNSaISt13_Rb_tree_nodeISt4pairIKxSt3setIxSt4lessIxESaIxEEEEED2Ev = comdat any

$_ZN9__gnu_cxx13new_allocatorISt13_Rb_tree_nodeISt4pairIKxSt3setIxSt4lessIxESaIxEEEEED2Ev = comdat any

$_ZNSt8_Rb_treeIxSt4pairIKxSt3mapIxxSt4lessIxESaIS0_IS1_xEEEESt10_Select1stIS8_ES4_SaIS8_EED2Ev = comdat any

$_ZNSt8_Rb_treeIxSt4pairIKxSt3mapIxxSt4lessIxESaIS0_IS1_xEEEESt10_Select1stIS8_ES4_SaIS8_EE8_M_eraseEPSt13_Rb_tree_nodeIS8_E = comdat any

$_ZNSt8_Rb_treeIxSt4pairIKxSt3mapIxxSt4lessIxESaIS0_IS1_xEEEESt10_Select1stIS8_ES4_SaIS8_EE8_M_beginEv = comdat any

$_ZNSt8_Rb_treeIxSt4pairIKxSt3mapIxxSt4lessIxESaIS0_IS1_xEEEESt10_Select1stIS8_ES4_SaIS8_EE13_Rb_tree_implIS4_Lb1EED2Ev = comdat any

$_ZNSt8_Rb_treeIxSt4pairIKxSt3mapIxxSt4lessIxESaIS0_IS1_xEEEESt10_Select1stIS8_ES4_SaIS8_EE8_S_rightEPSt18_Rb_tree_node_base = comdat any

$_ZNSt8_Rb_treeIxSt4pairIKxSt3mapIxxSt4lessIxESaIS0_IS1_xEEEESt10_Select1stIS8_ES4_SaIS8_EE7_S_leftEPSt18_Rb_tree_node_base = comdat any

$_ZNSt8_Rb_treeIxSt4pairIKxSt3mapIxxSt4lessIxESaIS0_IS1_xEEEESt10_Select1stIS8_ES4_SaIS8_EE12_M_drop_nodeEPSt13_Rb_tree_nodeIS8_E = comdat any

$_ZNSt8_Rb_treeIxSt4pairIKxSt3mapIxxSt4lessIxESaIS0_IS1_xEEEESt10_Select1stIS8_ES4_SaIS8_EE15_M_destroy_nodeEPSt13_Rb_tree_nodeIS8_E = comdat any

$_ZNSt8_Rb_treeIxSt4pairIKxSt3mapIxxSt4lessIxESaIS0_IS1_xEEEESt10_Select1stIS8_ES4_SaIS8_EE11_M_put_nodeEPSt13_Rb_tree_nodeIS8_E = comdat any

$_ZNSt16allocator_traitsISaISt13_Rb_tree_nodeISt4pairIKxSt3mapIxxSt4lessIxESaIS1_IS2_xEEEEEEE7destroyIS9_EEvRSB_PT_ = comdat any

$_ZNSt8_Rb_treeIxSt4pairIKxSt3mapIxxSt4lessIxESaIS0_IS1_xEEEESt10_Select1stIS8_ES4_SaIS8_EE21_M_get_Node_allocatorEv = comdat any

$_ZNSt13_Rb_tree_nodeISt4pairIKxSt3mapIxxSt4lessIxESaIS0_IS1_xEEEEE9_M_valptrEv = comdat any

$_ZN9__gnu_cxx13new_allocatorISt13_Rb_tree_nodeISt4pairIKxSt3mapIxxSt4lessIxESaIS2_IS3_xEEEEEE7destroyISA_EEvPT_ = comdat any

$_ZNSt4pairIKxSt3mapIxxSt4lessIxESaIS_IS0_xEEEED2Ev = comdat any

$_ZN9__gnu_cxx16__aligned_membufISt4pairIKxSt3mapIxxSt4lessIxESaIS1_IS2_xEEEEE6_M_ptrEv = comdat any

$_ZN9__gnu_cxx16__aligned_membufISt4pairIKxSt3mapIxxSt4lessIxESaIS1_IS2_xEEEEE7_M_addrEv = comdat any

$_ZNSt16allocator_traitsISaISt13_Rb_tree_nodeISt4pairIKxSt3mapIxxSt4lessIxESaIS1_IS2_xEEEEEEE10deallocateERSB_PSA_m = comdat any

$_ZN9__gnu_cxx13new_allocatorISt13_Rb_tree_nodeISt4pairIKxSt3mapIxxSt4lessIxESaIS2_IS3_xEEEEEE10deallocateEPSB_m = comdat any

$_ZNSaISt13_Rb_tree_nodeISt4pairIKxSt3mapIxxSt4lessIxESaIS0_IS1_xEEEEEED2Ev = comdat any

$_ZN9__gnu_cxx13new_allocatorISt13_Rb_tree_nodeISt4pairIKxSt3mapIxxSt4lessIxESaIS2_IS3_xEEEEEED2Ev = comdat any

$_ZNSt8_Rb_treeIxSt4pairIKxxESt10_Select1stIS2_ESt4lessIxESaIS2_EED2Ev = comdat any

$_ZNSt8_Rb_treeIxSt4pairIKxxESt10_Select1stIS2_ESt4lessIxESaIS2_EE8_M_eraseEPSt13_Rb_tree_nodeIS2_E = comdat any

$_ZNSt8_Rb_treeIxSt4pairIKxxESt10_Select1stIS2_ESt4lessIxESaIS2_EE8_M_beginEv = comdat any

$_ZNSt8_Rb_treeIxSt4pairIKxxESt10_Select1stIS2_ESt4lessIxESaIS2_EE13_Rb_tree_implIS6_Lb1EED2Ev = comdat any

$_ZNSt8_Rb_treeIxSt4pairIKxxESt10_Select1stIS2_ESt4lessIxESaIS2_EE8_S_rightEPSt18_Rb_tree_node_base = comdat any

$_ZNSt8_Rb_treeIxSt4pairIKxxESt10_Select1stIS2_ESt4lessIxESaIS2_EE7_S_leftEPSt18_Rb_tree_node_base = comdat any

$_ZNSt8_Rb_treeIxSt4pairIKxxESt10_Select1stIS2_ESt4lessIxESaIS2_EE12_M_drop_nodeEPSt13_Rb_tree_nodeIS2_E = comdat any

$_ZNSt8_Rb_treeIxSt4pairIKxxESt10_Select1stIS2_ESt4lessIxESaIS2_EE15_M_destroy_nodeEPSt13_Rb_tree_nodeIS2_E = comdat any

$_ZNSt8_Rb_treeIxSt4pairIKxxESt10_Select1stIS2_ESt4lessIxESaIS2_EE11_M_put_nodeEPSt13_Rb_tree_nodeIS2_E = comdat any

$_ZNSt16allocator_traitsISaISt13_Rb_tree_nodeISt4pairIKxxEEEE7destroyIS3_EEvRS5_PT_ = comdat any

$_ZNSt8_Rb_treeIxSt4pairIKxxESt10_Select1stIS2_ESt4lessIxESaIS2_EE21_M_get_Node_allocatorEv = comdat any

$_ZNSt13_Rb_tree_nodeISt4pairIKxxEE9_M_valptrEv = comdat any

$_ZN9__gnu_cxx13new_allocatorISt13_Rb_tree_nodeISt4pairIKxxEEE7destroyIS4_EEvPT_ = comdat any

$_ZN9__gnu_cxx16__aligned_membufISt4pairIKxxEE6_M_ptrEv = comdat any

$_ZN9__gnu_cxx16__aligned_membufISt4pairIKxxEE7_M_addrEv = comdat any

$_ZNSt16allocator_traitsISaISt13_Rb_tree_nodeISt4pairIKxxEEEE10deallocateERS5_PS4_m = comdat any

$_ZN9__gnu_cxx13new_allocatorISt13_Rb_tree_nodeISt4pairIKxxEEE10deallocateEPS5_m = comdat any

$_ZNSaISt13_Rb_tree_nodeISt4pairIKxxEEED2Ev = comdat any

$_ZN9__gnu_cxx13new_allocatorISt13_Rb_tree_nodeISt4pairIKxxEEED2Ev = comdat any

$_ZNSt8_Rb_treeIxxSt9_IdentityIxESt4lessIxESaIxEED2Ev = comdat any

$_ZNSt8_Rb_treeIxxSt9_IdentityIxESt4lessIxESaIxEE8_M_eraseEPSt13_Rb_tree_nodeIxE = comdat any

$_ZNSt8_Rb_treeIxxSt9_IdentityIxESt4lessIxESaIxEE8_M_beginEv = comdat any

$_ZNSt8_Rb_treeIxxSt9_IdentityIxESt4lessIxESaIxEE13_Rb_tree_implIS3_Lb1EED2Ev = comdat any

$_ZNSt8_Rb_treeIxxSt9_IdentityIxESt4lessIxESaIxEE8_S_rightEPSt18_Rb_tree_node_base = comdat any

$_ZNSt8_Rb_treeIxxSt9_IdentityIxESt4lessIxESaIxEE7_S_leftEPSt18_Rb_tree_node_base = comdat any

$_ZNSt8_Rb_treeIxxSt9_IdentityIxESt4lessIxESaIxEE12_M_drop_nodeEPSt13_Rb_tree_nodeIxE = comdat any

$_ZNSt8_Rb_treeIxxSt9_IdentityIxESt4lessIxESaIxEE15_M_destroy_nodeEPSt13_Rb_tree_nodeIxE = comdat any

$_ZNSt8_Rb_treeIxxSt9_IdentityIxESt4lessIxESaIxEE11_M_put_nodeEPSt13_Rb_tree_nodeIxE = comdat any

$_ZNSt16allocator_traitsISaISt13_Rb_tree_nodeIxEEE7destroyIxEEvRS2_PT_ = comdat any

$_ZNSt8_Rb_treeIxxSt9_IdentityIxESt4lessIxESaIxEE21_M_get_Node_allocatorEv = comdat any

$_ZNSt13_Rb_tree_nodeIxE9_M_valptrEv = comdat any

$_ZN9__gnu_cxx13new_allocatorISt13_Rb_tree_nodeIxEE7destroyIxEEvPT_ = comdat any

$_ZN9__gnu_cxx16__aligned_membufIxE6_M_ptrEv = comdat any

$_ZN9__gnu_cxx16__aligned_membufIxE7_M_addrEv = comdat any

$_ZNSt16allocator_traitsISaISt13_Rb_tree_nodeIxEEE10deallocateERS2_PS1_m = comdat any

$_ZN9__gnu_cxx13new_allocatorISt13_Rb_tree_nodeIxEE10deallocateEPS2_m = comdat any

$_ZN9__gnu_cxx13new_allocatorISt13_Rb_tree_nodeIxEED2Ev = comdat any

$_ZNSt12_Vector_baseISt6vectorIiSaIiEESaIS2_EEC2Ev = comdat any

$_ZNSt12_Vector_baseISt6vectorIiSaIiEESaIS2_EE12_Vector_implC2Ev = comdat any

$_ZNSaISt6vectorIiSaIiEEEC2Ev = comdat any

$_ZN9__gnu_cxx13new_allocatorISt6vectorIiSaIiEEEC2Ev = comdat any

$_ZSt8_DestroyIPSt6vectorIiSaIiEES2_EvT_S4_RSaIT0_E = comdat any

$_ZNSt12_Vector_baseISt6vectorIiSaIiEESaIS2_EE19_M_get_Tp_allocatorEv = comdat any

$_ZNSt12_Vector_baseISt6vectorIiSaIiEESaIS2_EED2Ev = comdat any

$_ZSt8_DestroyIPSt6vectorIiSaIiEEEvT_S4_ = comdat any

$_ZNSt12_Destroy_auxILb0EE9__destroyIPSt6vectorIiSaIiEEEEvT_S6_ = comdat any

$_ZSt8_DestroyISt6vectorIiSaIiEEEvPT_ = comdat any

$_ZSt11__addressofISt6vectorIiSaIiEEEPT_RS3_ = comdat any

$_ZNSt6vectorIiSaIiEED2Ev = comdat any

$_ZSt8_DestroyIPiiEvT_S1_RSaIT0_E = comdat any

$_ZNSt12_Vector_baseIiSaIiEE19_M_get_Tp_allocatorEv = comdat any

$_ZNSt12_Vector_baseIiSaIiEED2Ev = comdat any

$_ZSt8_DestroyIPiEvT_S1_ = comdat any

$_ZNSt12_Destroy_auxILb1EE9__destroyIPiEEvT_S3_ = comdat any

$_ZNSt12_Vector_baseIiSaIiEE13_M_deallocateEPim = comdat any

$_ZNSt12_Vector_baseIiSaIiEE12_Vector_implD2Ev = comdat any

$_ZNSt16allocator_traitsISaIiEE10deallocateERS0_Pim = comdat any

$_ZN9__gnu_cxx13new_allocatorIiE10deallocateEPim = comdat any

$_ZNSaIiED2Ev = comdat any

$_ZN9__gnu_cxx13new_allocatorIiED2Ev = comdat any

$_ZNSt12_Vector_baseISt6vectorIiSaIiEESaIS2_EE13_M_deallocateEPS2_m = comdat any

$_ZNSt12_Vector_baseISt6vectorIiSaIiEESaIS2_EE12_Vector_implD2Ev = comdat any

$_ZNSt16allocator_traitsISaISt6vectorIiSaIiEEEE10deallocateERS3_PS2_m = comdat any

$_ZN9__gnu_cxx13new_allocatorISt6vectorIiSaIiEEE10deallocateEPS3_m = comdat any

$_ZNSaISt6vectorIiSaIiEEED2Ev = comdat any

$_ZN9__gnu_cxx13new_allocatorISt6vectorIiSaIiEEED2Ev = comdat any

$_ZNSt12_Vector_baseISt3setISt4pairIiiESt4lessIS2_ESaIS2_EESaIS6_EEC2Ev = comdat any

$_ZNSt12_Vector_baseISt3setISt4pairIiiESt4lessIS2_ESaIS2_EESaIS6_EE12_Vector_implC2Ev = comdat any

$_ZNSaISt3setISt4pairIiiESt4lessIS1_ESaIS1_EEEC2Ev = comdat any

$_ZN9__gnu_cxx13new_allocatorISt3setISt4pairIiiESt4lessIS3_ESaIS3_EEEC2Ev = comdat any

$_ZSt8_DestroyIPSt3setISt4pairIiiESt4lessIS2_ESaIS2_EES6_EvT_S8_RSaIT0_E = comdat any

$_ZNSt12_Vector_baseISt3setISt4pairIiiESt4lessIS2_ESaIS2_EESaIS6_EE19_M_get_Tp_allocatorEv = comdat any

$_ZNSt12_Vector_baseISt3setISt4pairIiiESt4lessIS2_ESaIS2_EESaIS6_EED2Ev = comdat any

$_ZSt8_DestroyIPSt3setISt4pairIiiESt4lessIS2_ESaIS2_EEEvT_S8_ = comdat any

$_ZNSt12_Destroy_auxILb0EE9__destroyIPSt3setISt4pairIiiESt4lessIS4_ESaIS4_EEEEvT_SA_ = comdat any

$_ZSt8_DestroyISt3setISt4pairIiiESt4lessIS2_ESaIS2_EEEvPT_ = comdat any

$_ZSt11__addressofISt3setISt4pairIiiESt4lessIS2_ESaIS2_EEEPT_RS7_ = comdat any

$_ZNSt3setISt4pairIiiESt4lessIS1_ESaIS1_EED2Ev = comdat any

$_ZNSt8_Rb_treeISt4pairIiiES1_St9_IdentityIS1_ESt4lessIS1_ESaIS1_EED2Ev = comdat any

$_ZNSt8_Rb_treeISt4pairIiiES1_St9_IdentityIS1_ESt4lessIS1_ESaIS1_EE8_M_eraseEPSt13_Rb_tree_nodeIS1_E = comdat any

$_ZNSt8_Rb_treeISt4pairIiiES1_St9_IdentityIS1_ESt4lessIS1_ESaIS1_EE8_M_beginEv = comdat any

$_ZNSt8_Rb_treeISt4pairIiiES1_St9_IdentityIS1_ESt4lessIS1_ESaIS1_EE13_Rb_tree_implIS5_Lb1EED2Ev = comdat any

$_ZNSt8_Rb_treeISt4pairIiiES1_St9_IdentityIS1_ESt4lessIS1_ESaIS1_EE8_S_rightEPSt18_Rb_tree_node_base = comdat any

$_ZNSt8_Rb_treeISt4pairIiiES1_St9_IdentityIS1_ESt4lessIS1_ESaIS1_EE7_S_leftEPSt18_Rb_tree_node_base = comdat any

$_ZNSt8_Rb_treeISt4pairIiiES1_St9_IdentityIS1_ESt4lessIS1_ESaIS1_EE12_M_drop_nodeEPSt13_Rb_tree_nodeIS1_E = comdat any

$_ZNSt8_Rb_treeISt4pairIiiES1_St9_IdentityIS1_ESt4lessIS1_ESaIS1_EE15_M_destroy_nodeEPSt13_Rb_tree_nodeIS1_E = comdat any

$_ZNSt8_Rb_treeISt4pairIiiES1_St9_IdentityIS1_ESt4lessIS1_ESaIS1_EE11_M_put_nodeEPSt13_Rb_tree_nodeIS1_E = comdat any

$_ZNSt16allocator_traitsISaISt13_Rb_tree_nodeISt4pairIiiEEEE7destroyIS2_EEvRS4_PT_ = comdat any

$_ZNSt8_Rb_treeISt4pairIiiES1_St9_IdentityIS1_ESt4lessIS1_ESaIS1_EE21_M_get_Node_allocatorEv = comdat any

$_ZNSt13_Rb_tree_nodeISt4pairIiiEE9_M_valptrEv = comdat any

$_ZN9__gnu_cxx13new_allocatorISt13_Rb_tree_nodeISt4pairIiiEEE7destroyIS3_EEvPT_ = comdat any

$_ZN9__gnu_cxx16__aligned_membufISt4pairIiiEE6_M_ptrEv = comdat any

$_ZN9__gnu_cxx16__aligned_membufISt4pairIiiEE7_M_addrEv = comdat any

$_ZNSt16allocator_traitsISaISt13_Rb_tree_nodeISt4pairIiiEEEE10deallocateERS4_PS3_m = comdat any

$_ZN9__gnu_cxx13new_allocatorISt13_Rb_tree_nodeISt4pairIiiEEE10deallocateEPS4_m = comdat any

$_ZNSaISt13_Rb_tree_nodeISt4pairIiiEEED2Ev = comdat any

$_ZN9__gnu_cxx13new_allocatorISt13_Rb_tree_nodeISt4pairIiiEEED2Ev = comdat any

$_ZNSt12_Vector_baseISt3setISt4pairIiiESt4lessIS2_ESaIS2_EESaIS6_EE13_M_deallocateEPS6_m = comdat any

$_ZNSt12_Vector_baseISt3setISt4pairIiiESt4lessIS2_ESaIS2_EESaIS6_EE12_Vector_implD2Ev = comdat any

$_ZNSt16allocator_traitsISaISt3setISt4pairIiiESt4lessIS2_ESaIS2_EEEE10deallocateERS7_PS6_m = comdat any

$_ZN9__gnu_cxx13new_allocatorISt3setISt4pairIiiESt4lessIS3_ESaIS3_EEE10deallocateEPS7_m = comdat any

$_ZNSaISt3setISt4pairIiiESt4lessIS1_ESaIS1_EEED2Ev = comdat any

$_ZN9__gnu_cxx13new_allocatorISt3setISt4pairIiiESt4lessIS3_ESaIS3_EEED2Ev = comdat any

$_ZNSt12_Vector_baseIxSaIxEEC2Ev = comdat any

$_ZNSt12_Vector_baseIxSaIxEE12_Vector_implC2Ev = comdat any

$_ZN9__gnu_cxx13new_allocatorIxEC2Ev = comdat any

$_ZSt8_DestroyIPxxEvT_S1_RSaIT0_E = comdat any

$_ZNSt12_Vector_baseIxSaIxEE19_M_get_Tp_allocatorEv = comdat any

$_ZNSt12_Vector_baseIxSaIxEED2Ev = comdat any

$_ZSt8_DestroyIPxEvT_S1_ = comdat any

$_ZNSt12_Destroy_auxILb1EE9__destroyIPxEEvT_S3_ = comdat any

$_ZNSt12_Vector_baseIxSaIxEE13_M_deallocateEPxm = comdat any

$_ZNSt12_Vector_baseIxSaIxEE12_Vector_implD2Ev = comdat any

$_ZNSt16allocator_traitsISaIxEE10deallocateERS0_Pxm = comdat any

$_ZN9__gnu_cxx13new_allocatorIxE10deallocateEPxm = comdat any

$_ZN9__gnu_cxx13new_allocatorIxED2Ev = comdat any

$_ZNKSt6vectorIxSaIxEE4sizeEv = comdat any

$_ZNSt6vectorIxSaIxEE17_M_default_appendEm = comdat any

$_ZNSt6vectorIxSaIxEE15_M_erase_at_endEPx = comdat any

$_ZSt27__uninitialized_default_n_aIPxmxET_S1_T0_RSaIT1_E = comdat any

$_ZNKSt6vectorIxSaIxEE12_M_check_lenEmPKc = comdat any

$_ZNSt12_Vector_baseIxSaIxEE11_M_allocateEm = comdat any

$_ZSt34__uninitialized_move_if_noexcept_aIPxS0_SaIxEET0_T_S3_S2_RT1_ = comdat any

$_ZSt25__uninitialized_default_nIPxmET_S1_T0_ = comdat any

$_ZNSt27__uninitialized_default_n_1ILb1EE18__uninit_default_nIPxmEET_S3_T0_ = comdat any

$_ZSt6fill_nIPxmxET_S1_T0_RKT1_ = comdat any

$_ZSt10__fill_n_aIPxmxEN9__gnu_cxx11__enable_ifIXsr11__is_scalarIT1_EE7__valueET_E6__typeES4_T0_RKS3_ = comdat any

$_ZSt12__niter_baseIPxENSt11_Niter_baseIT_E13iterator_typeES2_ = comdat any

$_ZNSt10_Iter_baseIPxLb0EE7_S_baseES0_ = comdat any

$_ZNKSt6vectorIxSaIxEE8max_sizeEv = comdat any

$_ZSt3maxImERKT_S2_S2_ = comdat any

$_ZNSt16allocator_traitsISaIxEE8max_sizeERKS0_ = comdat any

$_ZNKSt12_Vector_baseIxSaIxEE19_M_get_Tp_allocatorEv = comdat any

$_ZNK9__gnu_cxx13new_allocatorIxE8max_sizeEv = comdat any

$_ZNSt16allocator_traitsISaIxEE8allocateERS0_m = comdat any

$_ZN9__gnu_cxx13new_allocatorIxE8allocateEmPKv = comdat any

$_ZSt22__uninitialized_copy_aISt13move_iteratorIPxES1_xET0_T_S4_S3_RSaIT1_E = comdat any

$_ZSt32__make_move_if_noexcept_iteratorIPxSt13move_iteratorIS0_EET0_T_ = comdat any

$_ZSt18uninitialized_copyISt13move_iteratorIPxES1_ET0_T_S4_S3_ = comdat any

$_ZNSt20__uninitialized_copyILb1EE13__uninit_copyISt13move_iteratorIPxES3_EET0_T_S6_S5_ = comdat any

$_ZSt4copyISt13move_iteratorIPxES1_ET0_T_S4_S3_ = comdat any

$_ZSt14__copy_move_a2ILb1EPxS0_ET1_T0_S2_S1_ = comdat any

$_ZSt12__miter_baseISt13move_iteratorIPxEENSt11_Miter_baseIT_E13iterator_typeES4_ = comdat any

$_ZSt13__copy_move_aILb1EPxS0_ET1_T0_S2_S1_ = comdat any

$_ZNSt11__copy_moveILb1ELb1ESt26random_access_iterator_tagE8__copy_mIxEEPT_PKS3_S6_S4_ = comdat any

$_ZNSt10_Iter_baseISt13move_iteratorIPxELb1EE7_S_baseES2_ = comdat any

$_ZNKSt13move_iteratorIPxE4baseEv = comdat any

$_ZNSt13move_iteratorIPxEC2ES0_ = comdat any

$_ZNSt13_Bvector_baseISaIbEEC2Ev = comdat any

$_ZNSt13_Bvector_baseISaIbEE13_Bvector_implC2Ev = comdat any

$_ZNSaImEC2Ev = comdat any

$_ZNSt13_Bit_iteratorC2Ev = comdat any

$_ZNSaImED2Ev = comdat any

$_ZN9__gnu_cxx13new_allocatorImEC2Ev = comdat any

$_ZNSt18_Bit_iterator_baseC2EPmj = comdat any

$_ZN9__gnu_cxx13new_allocatorImED2Ev = comdat any

$_ZNSt13_Bvector_baseISaIbEED2Ev = comdat any

$_ZNSt13_Bvector_baseISaIbEE13_M_deallocateEv = comdat any

$_ZNSt13_Bvector_baseISaIbEE13_Bvector_implD2Ev = comdat any

$_ZNKSt13_Bvector_baseISaIbEE13_Bvector_impl11_M_end_addrEv = comdat any

$_ZNSt16allocator_traitsISaImEE10deallocateERS0_Pmm = comdat any

$_ZSt11__addressofImEPT_RS0_ = comdat any

$_ZN9__gnu_cxx13new_allocatorImE10deallocateEPmm = comdat any

$_ZNSt6vectorIbSaIbEE15_M_erase_at_endESt13_Bit_iterator = comdat any

$_ZNSt6vectorIbSaIbEE5beginEv = comdat any

$_ZNKSt6vectorIbSaIbEE4sizeEv = comdat any

$_ZNKSt13_Bit_iteratorplEl = comdat any

$_ZNSt6vectorIbSaIbEE6insertESt19_Bit_const_iteratormRKb = comdat any

$_ZNSt6vectorIbSaIbEE3endEv = comdat any

$_ZNSt19_Bit_const_iteratorC2ERKSt13_Bit_iterator = comdat any

$_ZStmiRKSt18_Bit_iterator_baseS1_ = comdat any

$_ZNKSt6vectorIbSaIbEE3endEv = comdat any

$_ZNKSt6vectorIbSaIbEE5beginEv = comdat any

$_ZNSt13_Bit_iteratorpLEl = comdat any

$_ZNSt18_Bit_iterator_base7_M_incrEl = comdat any

$_ZNKSt6vectorIbSaIbEE6cbeginEv = comdat any

$_ZNSt6vectorIbSaIbEE14_M_fill_insertESt13_Bit_iteratormb = comdat any

$_ZNKSt19_Bit_const_iterator13_M_const_castEv = comdat any

$_ZNKSt6vectorIbSaIbEE8capacityEv = comdat any

$_ZSt13copy_backwardISt13_Bit_iteratorS0_ET0_T_S2_S1_ = comdat any

$_ZSt4fillSt13_Bit_iteratorS_RKb = comdat any

$_ZNKSt6vectorIbSaIbEE12_M_check_lenEmPKc = comdat any

$_ZNSt13_Bvector_baseISaIbEE11_M_allocateEm = comdat any

$_ZNSt13_Bit_iteratorC2EPmj = comdat any

$_ZNSt6vectorIbSaIbEE15_M_copy_alignedESt19_Bit_const_iteratorS2_St13_Bit_iterator = comdat any

$_ZSt4copyISt13_Bit_iteratorS0_ET0_T_S2_S1_ = comdat any

$_ZNSt13_Bvector_baseISaIbEE8_S_nwordEm = comdat any

$_ZNSt19_Bit_const_iteratorC2EPmj = comdat any

$_ZSt23__copy_move_backward_a2ILb0ESt13_Bit_iteratorS0_ET1_T0_S2_S1_ = comdat any

$_ZSt12__miter_baseISt13_Bit_iteratorENSt11_Miter_baseIT_E13iterator_typeES2_ = comdat any

$_ZSt22__copy_move_backward_aILb0ESt13_Bit_iteratorS0_ET1_T0_S2_S1_ = comdat any

$_ZSt12__niter_baseISt13_Bit_iteratorENSt11_Niter_baseIT_E13iterator_typeES2_ = comdat any

$_ZNSt20__copy_move_backwardILb0ELb0ESt26random_access_iterator_tagE13__copy_move_bISt13_Bit_iteratorS3_EET0_T_S5_S4_ = comdat any

$_ZNSt13_Bit_iteratormmEv = comdat any

$_ZNKSt13_Bit_iteratordeEv = comdat any

$_ZNSt18_Bit_iterator_base12_M_bump_downEv = comdat any

$_ZNSt14_Bit_referenceC2EPmm = comdat any

$_ZNSt10_Iter_baseISt13_Bit_iteratorLb0EE7_S_baseES0_ = comdat any

$_ZSt4fillIPmiEvT_S1_RKT0_ = comdat any

$_ZSt14__fill_bvectorSt13_Bit_iteratorS_b = comdat any

$_ZSt8__fill_aIPmiEN9__gnu_cxx11__enable_ifIXsr11__is_scalarIT0_EE7__valueEvE6__typeET_S6_RKS3_ = comdat any

$_ZSt12__niter_baseIPmENSt11_Niter_baseIT_E13iterator_typeES2_ = comdat any

$_ZNSt10_Iter_baseIPmLb0EE7_S_baseES0_ = comdat any

$_ZNKSt18_Bit_iterator_baseneERKS_ = comdat any

$_ZNSt13_Bit_iteratorppEv = comdat any

$_ZNKSt18_Bit_iterator_baseeqERKS_ = comdat any

$_ZNSt18_Bit_iterator_base10_M_bump_upEv = comdat any

$_ZNKSt6vectorIbSaIbEE8max_sizeEv = comdat any

$_ZNSt16allocator_traitsISaImEE8max_sizeERKS0_ = comdat any

$_ZNKSt13_Bvector_baseISaIbEE20_M_get_Bit_allocatorEv = comdat any

$_ZNK9__gnu_cxx13new_allocatorImE8max_sizeEv = comdat any

$_ZNSt16allocator_traitsISaImEE8allocateERS0_m = comdat any

$_ZN9__gnu_cxx13new_allocatorImE8allocateEmPKv = comdat any

$_ZSt4copyIPmS0_ET0_T_S2_S1_ = comdat any

$_ZSt4copyISt19_Bit_const_iteratorSt13_Bit_iteratorET0_T_S3_S2_ = comdat any

$_ZSt14__copy_move_a2ILb0EPmS0_ET1_T0_S2_S1_ = comdat any

$_ZSt12__miter_baseIPmENSt11_Miter_baseIT_E13iterator_typeES2_ = comdat any

$_ZSt13__copy_move_aILb0EPmS0_ET1_T0_S2_S1_ = comdat any

$_ZNSt11__copy_moveILb0ELb1ESt26random_access_iterator_tagE8__copy_mImEEPT_PKS3_S6_S4_ = comdat any

$_ZSt14__copy_move_a2ILb0ESt19_Bit_const_iteratorSt13_Bit_iteratorET1_T0_S3_S2_ = comdat any

$_ZSt12__miter_baseISt19_Bit_const_iteratorENSt11_Miter_baseIT_E13iterator_typeES2_ = comdat any

$_ZSt13__copy_move_aILb0ESt19_Bit_const_iteratorSt13_Bit_iteratorET1_T0_S3_S2_ = comdat any

$_ZSt12__niter_baseISt19_Bit_const_iteratorENSt11_Niter_baseIT_E13iterator_typeES2_ = comdat any

$_ZNSt11__copy_moveILb0ELb0ESt26random_access_iterator_tagE8__copy_mISt19_Bit_const_iteratorSt13_Bit_iteratorEET0_T_S6_S5_ = comdat any

$_ZNKSt19_Bit_const_iteratordeEv = comdat any

$_ZNSt19_Bit_const_iteratorppEv = comdat any

$_ZNSt10_Iter_baseISt19_Bit_const_iteratorLb0EE7_S_baseES0_ = comdat any

$_ZSt14__copy_move_a2ILb0ESt13_Bit_iteratorS0_ET1_T0_S2_S1_ = comdat any

$_ZSt13__copy_move_aILb0ESt13_Bit_iteratorS0_ET1_T0_S2_S1_ = comdat any

$_ZNSt11__copy_moveILb0ELb0ESt26random_access_iterator_tagE8__copy_mISt13_Bit_iteratorS3_EET0_T_S5_S4_ = comdat any

$_ZNSt8_Rb_treeIxSt4pairIKxSt3setIxSt4lessIxESaIxEEESt10_Select1stIS7_ES4_SaIS7_EEC2Ev = comdat any

$_ZNSt8_Rb_treeIxSt4pairIKxSt3setIxSt4lessIxESaIxEEESt10_Select1stIS7_ES4_SaIS7_EE13_Rb_tree_implIS4_Lb1EEC2Ev = comdat any

$_ZNSaISt13_Rb_tree_nodeISt4pairIKxSt3setIxSt4lessIxESaIxEEEEEC2Ev = comdat any

$_ZNSt8_Rb_treeIxSt4pairIKxSt3setIxSt4lessIxESaIxEEESt10_Select1stIS7_ES4_SaIS7_EE13_Rb_tree_implIS4_Lb1EE13_M_initializeEv = comdat any

$_ZN9__gnu_cxx13new_allocatorISt13_Rb_tree_nodeISt4pairIKxSt3setIxSt4lessIxESaIxEEEEEC2Ev = comdat any

$_ZNSt8_Rb_treeIxSt4pairIKxSt3mapIxxSt4lessIxESaIS0_IS1_xEEEESt10_Select1stIS8_ES4_SaIS8_EEC2Ev = comdat any

$_ZNSt8_Rb_treeIxSt4pairIKxSt3mapIxxSt4lessIxESaIS0_IS1_xEEEESt10_Select1stIS8_ES4_SaIS8_EE13_Rb_tree_implIS4_Lb1EEC2Ev = comdat any

$_ZNSaISt13_Rb_tree_nodeISt4pairIKxSt3mapIxxSt4lessIxESaIS0_IS1_xEEEEEEC2Ev = comdat any

$_ZNSt8_Rb_treeIxSt4pairIKxSt3mapIxxSt4lessIxESaIS0_IS1_xEEEESt10_Select1stIS8_ES4_SaIS8_EE13_Rb_tree_implIS4_Lb1EE13_M_initializeEv = comdat any

$_ZN9__gnu_cxx13new_allocatorISt13_Rb_tree_nodeISt4pairIKxSt3mapIxxSt4lessIxESaIS2_IS3_xEEEEEEC2Ev = comdat any

$_ZNSt8_Rb_treeIxSt4pairIKxSt3mapIxxSt4lessIxESaIS0_IS1_xEEEESt10_Select1stIS8_ES4_SaIS8_EE5clearEv = comdat any

$_ZNSt8_Rb_treeIxSt4pairIKxSt3mapIxxSt4lessIxESaIS0_IS1_xEEEESt10_Select1stIS8_ES4_SaIS8_EE13_Rb_tree_implIS4_Lb1EE8_M_resetEv = comdat any

$_ZNSt8_Rb_treeIxSt4pairIKxSt3setIxSt4lessIxESaIxEEESt10_Select1stIS7_ES4_SaIS7_EE5clearEv = comdat any

$_ZNSt8_Rb_treeIxSt4pairIKxSt3setIxSt4lessIxESaIxEEESt10_Select1stIS7_ES4_SaIS7_EE13_Rb_tree_implIS4_Lb1EE8_M_resetEv = comdat any

$_ZNSaIxEC2ERKS_ = comdat any

$_ZNSt8_Rb_treeIxxSt9_IdentityIxESt4lessIxESaIxEEC2ERKS3_RKS4_ = comdat any

$_ZNSt8_Rb_treeIxxSt9_IdentityIxESt4lessIxESaIxEE16_M_insert_uniqueIPKxEEvT_S9_ = comdat any

$_ZNKSt16initializer_listIxE5beginEv = comdat any

$_ZNKSt16initializer_listIxE3endEv = comdat any

$_ZN9__gnu_cxx13new_allocatorIxEC2ERKS1_ = comdat any

$_ZNSaISt13_Rb_tree_nodeIxEEC2IxEERKSaIT_E = comdat any

$_ZNSt8_Rb_treeIxxSt9_IdentityIxESt4lessIxESaIxEE13_Rb_tree_implIS3_Lb1EEC2ERKS3_OSaISt13_Rb_tree_nodeIxEE = comdat any

$_ZNSaISt13_Rb_tree_nodeIxEED2Ev = comdat any

$_ZN9__gnu_cxx13new_allocatorISt13_Rb_tree_nodeIxEEC2Ev = comdat any

$_ZSt4moveIRSaISt13_Rb_tree_nodeIxEEEONSt16remove_referenceIT_E4typeEOS5_ = comdat any

$_ZNSaISt13_Rb_tree_nodeIxEEC2ERKS1_ = comdat any

$_ZNSt8_Rb_treeIxxSt9_IdentityIxESt4lessIxESaIxEE13_Rb_tree_implIS3_Lb1EE13_M_initializeEv = comdat any

$_ZN9__gnu_cxx13new_allocatorISt13_Rb_tree_nodeIxEEC2ERKS3_ = comdat any

$_ZNSt8_Rb_treeIxxSt9_IdentityIxESt4lessIxESaIxEE11_Alloc_nodeC2ERS5_ = comdat any

$_ZNSt8_Rb_treeIxxSt9_IdentityIxESt4lessIxESaIxEE17_M_insert_unique_IRKxNS5_11_Alloc_nodeEEESt17_Rb_tree_iteratorIxESt23_Rb_tree_const_iteratorIxEOT_RT0_ = comdat any

$_ZNSt8_Rb_treeIxxSt9_IdentityIxESt4lessIxESaIxEE3endEv = comdat any

$_ZNSt23_Rb_tree_const_iteratorIxEC2ERKSt17_Rb_tree_iteratorIxE = comdat any

$_ZNSt8_Rb_treeIxxSt9_IdentityIxESt4lessIxESaIxEE29_M_get_insert_hint_unique_posESt23_Rb_tree_const_iteratorIxERKx = comdat any

$_ZNKSt9_IdentityIxEclERKx = comdat any

$_ZNSt8_Rb_treeIxxSt9_IdentityIxESt4lessIxESaIxEE10_M_insert_IRKxNS5_11_Alloc_nodeEEESt17_Rb_tree_iteratorIxEPSt18_Rb_tree_node_baseSD_OT_RT0_ = comdat any

$_ZSt7forwardIRKxEOT_RNSt16remove_referenceIS2_E4typeE = comdat any

$_ZNSt17_Rb_tree_iteratorIxEC2EPSt18_Rb_tree_node_base = comdat any

$_ZNKSt23_Rb_tree_const_iteratorIxE13_M_const_castEv = comdat any

$_ZNSt8_Rb_treeIxxSt9_IdentityIxESt4lessIxESaIxEE6_M_endEv = comdat any

$_ZNKSt8_Rb_treeIxxSt9_IdentityIxESt4lessIxESaIxEE4sizeEv = comdat any

$_ZNKSt4lessIxEclERKxS2_ = comdat any

$_ZNSt8_Rb_treeIxxSt9_IdentityIxESt4lessIxESaIxEE6_S_keyEPKSt18_Rb_tree_node_base = comdat any

$_ZNSt8_Rb_treeIxxSt9_IdentityIxESt4lessIxESaIxEE12_M_rightmostEv = comdat any

$_ZNSt4pairIPSt18_Rb_tree_node_baseS1_EC2IRS1_vEERKS1_OT_ = comdat any

$_ZNSt8_Rb_treeIxxSt9_IdentityIxESt4lessIxESaIxEE24_M_get_insert_unique_posERKx = comdat any

$_ZNSt8_Rb_treeIxxSt9_IdentityIxESt4lessIxESaIxEE11_M_leftmostEv = comdat any

$_ZNSt4pairIPSt18_Rb_tree_node_baseS1_EC2IRS1_S4_vEEOT_OT0_ = comdat any

$_ZNSt17_Rb_tree_iteratorIxEmmEv = comdat any

$_ZNSt17_Rb_tree_iteratorIxEppEv = comdat any

$_ZNSt4pairIPSt18_Rb_tree_node_baseS1_EC2IRS1_vEEOT_RKS1_ = comdat any

$_ZNSt8_Rb_treeIxxSt9_IdentityIxESt4lessIxESaIxEE8_S_valueEPKSt18_Rb_tree_node_base = comdat any

$_ZNKSt13_Rb_tree_nodeIxE9_M_valptrEv = comdat any

$_ZNK9__gnu_cxx16__aligned_membufIxE6_M_ptrEv = comdat any

$_ZNK9__gnu_cxx16__aligned_membufIxE7_M_addrEv = comdat any

$_ZSt7forwardIRPSt18_Rb_tree_node_baseEOT_RNSt16remove_referenceIS3_E4typeE = comdat any

$_ZNSt8_Rb_treeIxxSt9_IdentityIxESt4lessIxESaIxEE6_S_keyEPKSt13_Rb_tree_nodeIxE = comdat any

$_ZNKSt17_Rb_tree_iteratorIxEeqERKS0_ = comdat any

$_ZNSt8_Rb_treeIxxSt9_IdentityIxESt4lessIxESaIxEE5beginEv = comdat any

$_ZNSt4pairIPSt18_Rb_tree_node_baseS1_EC2IRPSt13_Rb_tree_nodeIxES7_vEEOT_OT0_ = comdat any

$_ZNSt8_Rb_treeIxxSt9_IdentityIxESt4lessIxESaIxEE8_S_valueEPKSt13_Rb_tree_nodeIxE = comdat any

$_ZSt7forwardIRPSt13_Rb_tree_nodeIxEEOT_RNSt16remove_referenceIS4_E4typeE = comdat any

$_ZNKSt8_Rb_treeIxxSt9_IdentityIxESt4lessIxESaIxEE11_Alloc_nodeclIRKxEEPSt13_Rb_tree_nodeIxEOT_ = comdat any

$_ZNSt8_Rb_treeIxxSt9_IdentityIxESt4lessIxESaIxEE14_M_create_nodeIJRKxEEEPSt13_Rb_tree_nodeIxEDpOT_ = comdat any

$_ZNSt8_Rb_treeIxxSt9_IdentityIxESt4lessIxESaIxEE11_M_get_nodeEv = comdat any

$_ZNSt8_Rb_treeIxxSt9_IdentityIxESt4lessIxESaIxEE17_M_construct_nodeIJRKxEEEvPSt13_Rb_tree_nodeIxEDpOT_ = comdat any

$_ZNSt16allocator_traitsISaISt13_Rb_tree_nodeIxEEE8allocateERS2_m = comdat any

$_ZN9__gnu_cxx13new_allocatorISt13_Rb_tree_nodeIxEE8allocateEmPKv = comdat any

$_ZNK9__gnu_cxx13new_allocatorISt13_Rb_tree_nodeIxEE8max_sizeEv = comdat any

$_ZNSt16allocator_traitsISaISt13_Rb_tree_nodeIxEEE9constructIxJRKxEEEvRS2_PT_DpOT0_ = comdat any

$_ZN9__gnu_cxx13new_allocatorISt13_Rb_tree_nodeIxEE9constructIxJRKxEEEvPT_DpOT0_ = comdat any

$_ZNKSt16initializer_listIxE4sizeEv = comdat any

$_ZNSt8_Rb_treeIxSt4pairIKxxESt10_Select1stIS2_ESt4lessIxESaIS2_EEC2Ev = comdat any

$_ZNSt8_Rb_treeIxSt4pairIKxxESt10_Select1stIS2_ESt4lessIxESaIS2_EE13_Rb_tree_implIS6_Lb1EEC2Ev = comdat any

$_ZNSaISt13_Rb_tree_nodeISt4pairIKxxEEEC2Ev = comdat any

$_ZNSt8_Rb_treeIxSt4pairIKxxESt10_Select1stIS2_ESt4lessIxESaIS2_EE13_Rb_tree_implIS6_Lb1EE13_M_initializeEv = comdat any

$_ZN9__gnu_cxx13new_allocatorISt13_Rb_tree_nodeISt4pairIKxxEEEC2Ev = comdat any

$_ZNSt8_Rb_treeIxxSt9_IdentityIxESt4lessIxESaIxEE16_M_insert_uniqueIRKxEESt4pairISt17_Rb_tree_iteratorIxEbEOT_ = comdat any

$_ZNSt4pairISt23_Rb_tree_const_iteratorIxEbEC2IRSt17_Rb_tree_iteratorIxERbvEEOT_OT0_ = comdat any

$_ZNSt4pairISt17_Rb_tree_iteratorIxEbEC2IS1_bvEEOT_OT0_ = comdat any

$_ZSt7forwardISt17_Rb_tree_iteratorIxEEOT_RNSt16remove_referenceIS2_E4typeE = comdat any

$_ZSt7forwardIbEOT_RNSt16remove_referenceIS0_E4typeE = comdat any

$_ZSt7forwardIRSt17_Rb_tree_iteratorIxEEOT_RNSt16remove_referenceIS3_E4typeE = comdat any

$_ZSt7forwardIRbEOT_RNSt16remove_referenceIS1_E4typeE = comdat any

$_ZNSt3mapIxxSt4lessIxESaISt4pairIKxxEEE11lower_boundERS3_ = comdat any

$_ZNKSt17_Rb_tree_iteratorISt4pairIKxxEEeqERKS3_ = comdat any

$_ZNSt3mapIxxSt4lessIxESaISt4pairIKxxEEE3endEv = comdat any

$_ZNKSt3mapIxxSt4lessIxESaISt4pairIKxxEEE8key_compEv = comdat any

$_ZNKSt17_Rb_tree_iteratorISt4pairIKxxEEdeEv = comdat any

$_ZNSt8_Rb_treeIxSt4pairIKxxESt10_Select1stIS2_ESt4lessIxESaIS2_EE22_M_emplace_hint_uniqueIJRKSt21piecewise_construct_tSt5tupleIJOxEESD_IJEEEEESt17_Rb_tree_iteratorIS2_ESt23_Rb_tree_const_iteratorIS2_EDpOT_ = comdat any

$_ZNSt23_Rb_tree_const_iteratorISt4pairIKxxEEC2ERKSt17_Rb_tree_iteratorIS2_E = comdat any

$_ZSt16forward_as_tupleIJxEESt5tupleIJDpOT_EES3_ = comdat any

$_ZSt4moveIRxEONSt16remove_referenceIT_E4typeEOS2_ = comdat any

$_ZNSt8_Rb_treeIxSt4pairIKxxESt10_Select1stIS2_ESt4lessIxESaIS2_EE11lower_boundERS1_ = comdat any

$_ZNSt8_Rb_treeIxSt4pairIKxxESt10_Select1stIS2_ESt4lessIxESaIS2_EE14_M_lower_boundEPSt13_Rb_tree_nodeIS2_ESB_RS1_ = comdat any

$_ZNSt8_Rb_treeIxSt4pairIKxxESt10_Select1stIS2_ESt4lessIxESaIS2_EE6_M_endEv = comdat any

$_ZNSt8_Rb_treeIxSt4pairIKxxESt10_Select1stIS2_ESt4lessIxESaIS2_EE6_S_keyEPKSt13_Rb_tree_nodeIS2_E = comdat any

$_ZNSt17_Rb_tree_iteratorISt4pairIKxxEEC2EPSt18_Rb_tree_node_base = comdat any

$_ZNKSt10_Select1stISt4pairIKxxEEclERKS2_ = comdat any

$_ZNSt8_Rb_treeIxSt4pairIKxxESt10_Select1stIS2_ESt4lessIxESaIS2_EE8_S_valueEPKSt13_Rb_tree_nodeIS2_E = comdat any

$_ZNKSt13_Rb_tree_nodeISt4pairIKxxEE9_M_valptrEv = comdat any

$_ZNK9__gnu_cxx16__aligned_membufISt4pairIKxxEE6_M_ptrEv = comdat any

$_ZNK9__gnu_cxx16__aligned_membufISt4pairIKxxEE7_M_addrEv = comdat any

$_ZNSt8_Rb_treeIxSt4pairIKxxESt10_Select1stIS2_ESt4lessIxESaIS2_EE3endEv = comdat any

$_ZNKSt8_Rb_treeIxSt4pairIKxxESt10_Select1stIS2_ESt4lessIxESaIS2_EE8key_compEv = comdat any

$_ZNSt8_Rb_treeIxSt4pairIKxxESt10_Select1stIS2_ESt4lessIxESaIS2_EE14_M_create_nodeIJRKSt21piecewise_construct_tSt5tupleIJOxEESD_IJEEEEEPSt13_Rb_tree_nodeIS2_EDpOT_ = comdat any

$_ZSt7forwardIRKSt21piecewise_construct_tEOT_RNSt16remove_referenceIS3_E4typeE = comdat any

$_ZSt7forwardISt5tupleIJOxEEEOT_RNSt16remove_referenceIS3_E4typeE = comdat any

$_ZSt7forwardISt5tupleIJEEEOT_RNSt16remove_referenceIS2_E4typeE = comdat any

$_ZNSt8_Rb_treeIxSt4pairIKxxESt10_Select1stIS2_ESt4lessIxESaIS2_EE29_M_get_insert_hint_unique_posESt23_Rb_tree_const_iteratorIS2_ERS1_ = comdat any

$_ZNSt8_Rb_treeIxSt4pairIKxxESt10_Select1stIS2_ESt4lessIxESaIS2_EE14_M_insert_nodeEPSt18_Rb_tree_node_baseSA_PSt13_Rb_tree_nodeIS2_E = comdat any

$_ZNSt8_Rb_treeIxSt4pairIKxxESt10_Select1stIS2_ESt4lessIxESaIS2_EE11_M_get_nodeEv = comdat any

$_ZNSt8_Rb_treeIxSt4pairIKxxESt10_Select1stIS2_ESt4lessIxESaIS2_EE17_M_construct_nodeIJRKSt21piecewise_construct_tSt5tupleIJOxEESD_IJEEEEEvPSt13_Rb_tree_nodeIS2_EDpOT_ = comdat any

$_ZNSt16allocator_traitsISaISt13_Rb_tree_nodeISt4pairIKxxEEEE8allocateERS5_m = comdat any

$_ZN9__gnu_cxx13new_allocatorISt13_Rb_tree_nodeISt4pairIKxxEEE8allocateEmPKv = comdat any

$_ZNK9__gnu_cxx13new_allocatorISt13_Rb_tree_nodeISt4pairIKxxEEE8max_sizeEv = comdat any

$_ZNSt16allocator_traitsISaISt13_Rb_tree_nodeISt4pairIKxxEEEE9constructIS3_JRKSt21piecewise_construct_tSt5tupleIJOxEESB_IJEEEEEvRS5_PT_DpOT0_ = comdat any

$_ZN9__gnu_cxx13new_allocatorISt13_Rb_tree_nodeISt4pairIKxxEEE9constructIS4_JRKSt21piecewise_construct_tSt5tupleIJOxEESB_IJEEEEEvPT_DpOT0_ = comdat any

$_ZNSt5tupleIJOxEEC2EOS1_ = comdat any

$_ZNSt4pairIKxxEC2IJOxEJEEESt21piecewise_construct_tSt5tupleIJDpT_EES5_IJDpT0_EE = comdat any

$_ZNSt11_Tuple_implILm0EJOxEEC2EOS1_ = comdat any

$_ZSt7forwardIOxEOT_RNSt16remove_referenceIS1_E4typeE = comdat any

$_ZNSt11_Tuple_implILm0EJOxEE7_M_headERS1_ = comdat any

$_ZNSt10_Head_baseILm0EOxLb0EEC2IxEEOT_ = comdat any

$_ZNSt10_Head_baseILm0EOxLb0EE7_M_headERS1_ = comdat any

$_ZSt7forwardIxEOT_RNSt16remove_referenceIS0_E4typeE = comdat any

$_ZNSt4pairIKxxEC2IJOxEJLm0EEJEJEEERSt5tupleIJDpT_EERS4_IJDpT1_EESt12_Index_tupleIJXspT0_EEESD_IJXspT2_EEE = comdat any

$_ZSt3getILm0EJOxEERNSt13tuple_elementIXT_ESt5tupleIJDpT0_EEE4typeERS5_ = comdat any

$_ZSt12__get_helperILm0EOxJEERT0_RSt11_Tuple_implIXT_EJS1_DpT1_EE = comdat any

$_ZNKSt23_Rb_tree_const_iteratorISt4pairIKxxEE13_M_const_castEv = comdat any

$_ZNKSt8_Rb_treeIxSt4pairIKxxESt10_Select1stIS2_ESt4lessIxESaIS2_EE4sizeEv = comdat any

$_ZNSt8_Rb_treeIxSt4pairIKxxESt10_Select1stIS2_ESt4lessIxESaIS2_EE6_S_keyEPKSt18_Rb_tree_node_base = comdat any

$_ZNSt8_Rb_treeIxSt4pairIKxxESt10_Select1stIS2_ESt4lessIxESaIS2_EE12_M_rightmostEv = comdat any

$_ZNSt8_Rb_treeIxSt4pairIKxxESt10_Select1stIS2_ESt4lessIxESaIS2_EE24_M_get_insert_unique_posERS1_ = comdat any

$_ZNSt8_Rb_treeIxSt4pairIKxxESt10_Select1stIS2_ESt4lessIxESaIS2_EE11_M_leftmostEv = comdat any

$_ZNSt17_Rb_tree_iteratorISt4pairIKxxEEmmEv = comdat any

$_ZNSt17_Rb_tree_iteratorISt4pairIKxxEEppEv = comdat any

$_ZNSt8_Rb_treeIxSt4pairIKxxESt10_Select1stIS2_ESt4lessIxESaIS2_EE8_S_valueEPKSt18_Rb_tree_node_base = comdat any

$_ZNSt8_Rb_treeIxSt4pairIKxxESt10_Select1stIS2_ESt4lessIxESaIS2_EE5beginEv = comdat any

$_ZNSt4pairIPSt18_Rb_tree_node_baseS1_EC2IRPSt13_Rb_tree_nodeIS_IKxxEES9_vEEOT_OT0_ = comdat any

$_ZSt7forwardIRPSt13_Rb_tree_nodeISt4pairIKxxEEEOT_RNSt16remove_referenceIS7_E4typeE = comdat any

$_ZNSt5tupleIJOxEEC2IJxEvEEDpOT_ = comdat any

$_ZNSt11_Tuple_implILm0EJOxEEC2IxEEOT_ = comdat any

$_ZNSt8_Rb_treeIxSt4pairIKxxESt10_Select1stIS2_ESt4lessIxESaIS2_EE22_M_emplace_hint_uniqueIJRKSt21piecewise_construct_tSt5tupleIJRS1_EESD_IJEEEEESt17_Rb_tree_iteratorIS2_ESt23_Rb_tree_const_iteratorIS2_EDpOT_ = comdat any

$_ZNSt5tupleIJRKxEEC2ES1_ = comdat any

$_ZNSt8_Rb_treeIxSt4pairIKxxESt10_Select1stIS2_ESt4lessIxESaIS2_EE14_M_create_nodeIJRKSt21piecewise_construct_tSt5tupleIJRS1_EESD_IJEEEEEPSt13_Rb_tree_nodeIS2_EDpOT_ = comdat any

$_ZSt7forwardISt5tupleIJRKxEEEOT_RNSt16remove_referenceIS4_E4typeE = comdat any

$_ZNSt8_Rb_treeIxSt4pairIKxxESt10_Select1stIS2_ESt4lessIxESaIS2_EE17_M_construct_nodeIJRKSt21piecewise_construct_tSt5tupleIJRS1_EESD_IJEEEEEvPSt13_Rb_tree_nodeIS2_EDpOT_ = comdat any

$_ZNSt16allocator_traitsISaISt13_Rb_tree_nodeISt4pairIKxxEEEE9constructIS3_JRKSt21piecewise_construct_tSt5tupleIJRS2_EESB_IJEEEEEvRS5_PT_DpOT0_ = comdat any

$_ZN9__gnu_cxx13new_allocatorISt13_Rb_tree_nodeISt4pairIKxxEEE9constructIS4_JRKSt21piecewise_construct_tSt5tupleIJRS3_EESB_IJEEEEEvPT_DpOT0_ = comdat any

$_ZNSt5tupleIJRKxEEC2EOS2_ = comdat any

$_ZNSt4pairIKxxEC2IJRS0_EJEEESt21piecewise_construct_tSt5tupleIJDpT_EES5_IJDpT0_EE = comdat any

$_ZNSt11_Tuple_implILm0EJRKxEEC2EOS2_ = comdat any

$_ZNSt11_Tuple_implILm0EJRKxEE7_M_headERS2_ = comdat any

$_ZNSt10_Head_baseILm0ERKxLb0EEC2ES1_ = comdat any

$_ZNSt10_Head_baseILm0ERKxLb0EE7_M_headERS2_ = comdat any

$_ZNSt4pairIKxxEC2IJRS0_EJLm0EEJEJEEERSt5tupleIJDpT_EERS4_IJDpT1_EESt12_Index_tupleIJXspT0_EEESD_IJXspT2_EEE = comdat any

$_ZSt3getILm0EJRKxEERNSt13tuple_elementIXT_ESt5tupleIJDpT0_EEE4typeERS6_ = comdat any

$_ZSt12__get_helperILm0ERKxJEERT0_RSt11_Tuple_implIXT_EJS2_DpT1_EE = comdat any

$_ZNSt11_Tuple_implILm0EJRKxEEC2ES1_ = comdat any

$_ZNSt3mapIxSt3setIxSt4lessIxESaIxEES2_SaISt4pairIKxS4_EEE11lower_boundERS6_ = comdat any

$_ZNKSt17_Rb_tree_iteratorISt4pairIKxSt3setIxSt4lessIxESaIxEEEEeqERKS8_ = comdat any

$_ZNSt3mapIxSt3setIxSt4lessIxESaIxEES2_SaISt4pairIKxS4_EEE3endEv = comdat any

$_ZNKSt3mapIxSt3setIxSt4lessIxESaIxEES2_SaISt4pairIKxS4_EEE8key_compEv = comdat any

$_ZNKSt17_Rb_tree_iteratorISt4pairIKxSt3setIxSt4lessIxESaIxEEEEdeEv = comdat any

$_ZNSt8_Rb_treeIxSt4pairIKxSt3setIxSt4lessIxESaIxEEESt10_Select1stIS7_ES4_SaIS7_EE22_M_emplace_hint_uniqueIJRKSt21piecewise_construct_tSt5tupleIJRS1_EESG_IJEEEEESt17_Rb_tree_iteratorIS7_ESt23_Rb_tree_const_iteratorIS7_EDpOT_ = comdat any

$_ZNSt23_Rb_tree_const_iteratorISt4pairIKxSt3setIxSt4lessIxESaIxEEEEC2ERKSt17_Rb_tree_iteratorIS7_E = comdat any

$_ZNSt8_Rb_treeIxSt4pairIKxSt3setIxSt4lessIxESaIxEEESt10_Select1stIS7_ES4_SaIS7_EE11lower_boundERS1_ = comdat any

$_ZNSt8_Rb_treeIxSt4pairIKxSt3setIxSt4lessIxESaIxEEESt10_Select1stIS7_ES4_SaIS7_EE14_M_lower_boundEPSt13_Rb_tree_nodeIS7_ESE_RS1_ = comdat any

$_ZNSt8_Rb_treeIxSt4pairIKxSt3setIxSt4lessIxESaIxEEESt10_Select1stIS7_ES4_SaIS7_EE6_M_endEv = comdat any

$_ZNSt8_Rb_treeIxSt4pairIKxSt3setIxSt4lessIxESaIxEEESt10_Select1stIS7_ES4_SaIS7_EE6_S_keyEPKSt13_Rb_tree_nodeIS7_E = comdat any

$_ZNSt17_Rb_tree_iteratorISt4pairIKxSt3setIxSt4lessIxESaIxEEEEC2EPSt18_Rb_tree_node_base = comdat any

$_ZNKSt10_Select1stISt4pairIKxSt3setIxSt4lessIxESaIxEEEEclERKS7_ = comdat any

$_ZNSt8_Rb_treeIxSt4pairIKxSt3setIxSt4lessIxESaIxEEESt10_Select1stIS7_ES4_SaIS7_EE8_S_valueEPKSt13_Rb_tree_nodeIS7_E = comdat any

$_ZNKSt13_Rb_tree_nodeISt4pairIKxSt3setIxSt4lessIxESaIxEEEE9_M_valptrEv = comdat any

$_ZNK9__gnu_cxx16__aligned_membufISt4pairIKxSt3setIxSt4lessIxESaIxEEEE6_M_ptrEv = comdat any

$_ZNK9__gnu_cxx16__aligned_membufISt4pairIKxSt3setIxSt4lessIxESaIxEEEE7_M_addrEv = comdat any

$_ZNSt8_Rb_treeIxSt4pairIKxSt3setIxSt4lessIxESaIxEEESt10_Select1stIS7_ES4_SaIS7_EE3endEv = comdat any

$_ZNKSt8_Rb_treeIxSt4pairIKxSt3setIxSt4lessIxESaIxEEESt10_Select1stIS7_ES4_SaIS7_EE8key_compEv = comdat any

$_ZNSt8_Rb_treeIxSt4pairIKxSt3setIxSt4lessIxESaIxEEESt10_Select1stIS7_ES4_SaIS7_EE14_M_create_nodeIJRKSt21piecewise_construct_tSt5tupleIJRS1_EESG_IJEEEEEPSt13_Rb_tree_nodeIS7_EDpOT_ = comdat any

$_ZNSt8_Rb_treeIxSt4pairIKxSt3setIxSt4lessIxESaIxEEESt10_Select1stIS7_ES4_SaIS7_EE29_M_get_insert_hint_unique_posESt23_Rb_tree_const_iteratorIS7_ERS1_ = comdat any

$_ZNSt8_Rb_treeIxSt4pairIKxSt3setIxSt4lessIxESaIxEEESt10_Select1stIS7_ES4_SaIS7_EE14_M_insert_nodeEPSt18_Rb_tree_node_baseSD_PSt13_Rb_tree_nodeIS7_E = comdat any

$_ZNSt8_Rb_treeIxSt4pairIKxSt3setIxSt4lessIxESaIxEEESt10_Select1stIS7_ES4_SaIS7_EE11_M_get_nodeEv = comdat any

$_ZNSt8_Rb_treeIxSt4pairIKxSt3setIxSt4lessIxESaIxEEESt10_Select1stIS7_ES4_SaIS7_EE17_M_construct_nodeIJRKSt21piecewise_construct_tSt5tupleIJRS1_EESG_IJEEEEEvPSt13_Rb_tree_nodeIS7_EDpOT_ = comdat any

$_ZNSt16allocator_traitsISaISt13_Rb_tree_nodeISt4pairIKxSt3setIxSt4lessIxESaIxEEEEEE8allocateERSA_m = comdat any

$_ZN9__gnu_cxx13new_allocatorISt13_Rb_tree_nodeISt4pairIKxSt3setIxSt4lessIxESaIxEEEEE8allocateEmPKv = comdat any

$_ZNK9__gnu_cxx13new_allocatorISt13_Rb_tree_nodeISt4pairIKxSt3setIxSt4lessIxESaIxEEEEE8max_sizeEv = comdat any

$_ZNSt16allocator_traitsISaISt13_Rb_tree_nodeISt4pairIKxSt3setIxSt4lessIxESaIxEEEEEE9constructIS8_JRKSt21piecewise_construct_tSt5tupleIJRS2_EESG_IJEEEEEvRSA_PT_DpOT0_ = comdat any

$_ZN9__gnu_cxx13new_allocatorISt13_Rb_tree_nodeISt4pairIKxSt3setIxSt4lessIxESaIxEEEEE9constructIS9_JRKSt21piecewise_construct_tSt5tupleIJRS3_EESG_IJEEEEEvPT_DpOT0_ = comdat any

$_ZNSt4pairIKxSt3setIxSt4lessIxESaIxEEEC2IJRS0_EJEEESt21piecewise_construct_tSt5tupleIJDpT_EESA_IJDpT0_EE = comdat any

$_ZNSt4pairIKxSt3setIxSt4lessIxESaIxEEEC2IJRS0_EJLm0EEJEJEEERSt5tupleIJDpT_EERS9_IJDpT1_EESt12_Index_tupleIJXspT0_EEESI_IJXspT2_EEE = comdat any

$_ZNSt3setIxSt4lessIxESaIxEEC2Ev = comdat any

$_ZNSt8_Rb_treeIxxSt9_IdentityIxESt4lessIxESaIxEEC2Ev = comdat any

$_ZNSt8_Rb_treeIxxSt9_IdentityIxESt4lessIxESaIxEE13_Rb_tree_implIS3_Lb1EEC2Ev = comdat any

$_ZNSaISt13_Rb_tree_nodeIxEEC2Ev = comdat any

$_ZNKSt23_Rb_tree_const_iteratorISt4pairIKxSt3setIxSt4lessIxESaIxEEEE13_M_const_castEv = comdat any

$_ZNKSt8_Rb_treeIxSt4pairIKxSt3setIxSt4lessIxESaIxEEESt10_Select1stIS7_ES4_SaIS7_EE4sizeEv = comdat any

$_ZNSt8_Rb_treeIxSt4pairIKxSt3setIxSt4lessIxESaIxEEESt10_Select1stIS7_ES4_SaIS7_EE6_S_keyEPKSt18_Rb_tree_node_base = comdat any

$_ZNSt8_Rb_treeIxSt4pairIKxSt3setIxSt4lessIxESaIxEEESt10_Select1stIS7_ES4_SaIS7_EE12_M_rightmostEv = comdat any

$_ZNSt8_Rb_treeIxSt4pairIKxSt3setIxSt4lessIxESaIxEEESt10_Select1stIS7_ES4_SaIS7_EE24_M_get_insert_unique_posERS1_ = comdat any

$_ZNSt8_Rb_treeIxSt4pairIKxSt3setIxSt4lessIxESaIxEEESt10_Select1stIS7_ES4_SaIS7_EE11_M_leftmostEv = comdat any

$_ZNSt17_Rb_tree_iteratorISt4pairIKxSt3setIxSt4lessIxESaIxEEEEmmEv = comdat any

$_ZNSt17_Rb_tree_iteratorISt4pairIKxSt3setIxSt4lessIxESaIxEEEEppEv = comdat any

$_ZNSt8_Rb_treeIxSt4pairIKxSt3setIxSt4lessIxESaIxEEESt10_Select1stIS7_ES4_SaIS7_EE8_S_valueEPKSt18_Rb_tree_node_base = comdat any

$_ZNSt8_Rb_treeIxSt4pairIKxSt3setIxSt4lessIxESaIxEEESt10_Select1stIS7_ES4_SaIS7_EE5beginEv = comdat any

$_ZNSt4pairIPSt18_Rb_tree_node_baseS1_EC2IRPSt13_Rb_tree_nodeIS_IKxSt3setIxSt4lessIxESaIxEEEESE_vEEOT_OT0_ = comdat any

$_ZSt7forwardIRPSt13_Rb_tree_nodeISt4pairIKxSt3setIxSt4lessIxESaIxEEEEEOT_RNSt16remove_referenceISC_E4typeE = comdat any

$_ZNSt8_Rb_treeIxxSt9_IdentityIxESt4lessIxESaIxEEaSERKS5_ = comdat any

$_ZNSt8_Rb_treeIxxSt9_IdentityIxESt4lessIxESaIxEE20_Reuse_or_alloc_nodeC2ERS5_ = comdat any

$_ZNSt8_Rb_treeIxxSt9_IdentityIxESt4lessIxESaIxEE13_Rb_tree_implIS3_Lb1EE8_M_resetEv = comdat any

$_ZNKSt8_Rb_treeIxxSt9_IdentityIxESt4lessIxESaIxEE7_M_rootEv = comdat any

$_ZNSt8_Rb_treeIxxSt9_IdentityIxESt4lessIxESaIxEE7_M_copyINS5_20_Reuse_or_alloc_nodeEEEPSt13_Rb_tree_nodeIxEPKS9_SA_RT_ = comdat any

$_ZNKSt8_Rb_treeIxxSt9_IdentityIxESt4lessIxESaIxEE8_M_beginEv = comdat any

$_ZNSt8_Rb_treeIxxSt9_IdentityIxESt4lessIxESaIxEE7_M_rootEv = comdat any

$_ZNSt8_Rb_treeIxxSt9_IdentityIxESt4lessIxESaIxEE10_S_minimumEPSt18_Rb_tree_node_base = comdat any

$_ZNSt8_Rb_treeIxxSt9_IdentityIxESt4lessIxESaIxEE10_S_maximumEPSt18_Rb_tree_node_base = comdat any

$_ZNSt8_Rb_treeIxxSt9_IdentityIxESt4lessIxESaIxEE20_Reuse_or_alloc_nodeD2Ev = comdat any

$_ZNSt8_Rb_treeIxxSt9_IdentityIxESt4lessIxESaIxEE13_M_clone_nodeINS5_20_Reuse_or_alloc_nodeEEEPSt13_Rb_tree_nodeIxEPKS9_RT_ = comdat any

$_ZNSt8_Rb_treeIxxSt9_IdentityIxESt4lessIxESaIxEE8_S_rightEPKSt18_Rb_tree_node_base = comdat any

$_ZNSt8_Rb_treeIxxSt9_IdentityIxESt4lessIxESaIxEE7_S_leftEPKSt18_Rb_tree_node_base = comdat any

$_ZNSt8_Rb_treeIxxSt9_IdentityIxESt4lessIxESaIxEE20_Reuse_or_alloc_nodeclIRKxEEPSt13_Rb_tree_nodeIxEOT_ = comdat any

$_ZNSt8_Rb_treeIxxSt9_IdentityIxESt4lessIxESaIxEE20_Reuse_or_alloc_node10_M_extractEv = comdat any

$_ZNSt18_Rb_tree_node_base10_S_minimumEPS_ = comdat any

$_ZNSt18_Rb_tree_node_base10_S_maximumEPS_ = comdat any

$_ZNSt3mapIxS_IxxSt4lessIxESaISt4pairIKxxEEES1_SaIS2_IS3_S6_EEE11lower_boundERS3_ = comdat any

$_ZNKSt17_Rb_tree_iteratorISt4pairIKxSt3mapIxxSt4lessIxESaIS0_IS1_xEEEEEeqERKS9_ = comdat any

$_ZNSt3mapIxS_IxxSt4lessIxESaISt4pairIKxxEEES1_SaIS2_IS3_S6_EEE3endEv = comdat any

$_ZNKSt3mapIxS_IxxSt4lessIxESaISt4pairIKxxEEES1_SaIS2_IS3_S6_EEE8key_compEv = comdat any

$_ZNKSt17_Rb_tree_iteratorISt4pairIKxSt3mapIxxSt4lessIxESaIS0_IS1_xEEEEEdeEv = comdat any

$_ZNSt8_Rb_treeIxSt4pairIKxSt3mapIxxSt4lessIxESaIS0_IS1_xEEEESt10_Select1stIS8_ES4_SaIS8_EE22_M_emplace_hint_uniqueIJRKSt21piecewise_construct_tSt5tupleIJRS1_EESH_IJEEEEESt17_Rb_tree_iteratorIS8_ESt23_Rb_tree_const_iteratorIS8_EDpOT_ = comdat any

$_ZNSt23_Rb_tree_const_iteratorISt4pairIKxSt3mapIxxSt4lessIxESaIS0_IS1_xEEEEEC2ERKSt17_Rb_tree_iteratorIS8_E = comdat any

$_ZNSt8_Rb_treeIxSt4pairIKxSt3mapIxxSt4lessIxESaIS0_IS1_xEEEESt10_Select1stIS8_ES4_SaIS8_EE11lower_boundERS1_ = comdat any

$_ZNSt8_Rb_treeIxSt4pairIKxSt3mapIxxSt4lessIxESaIS0_IS1_xEEEESt10_Select1stIS8_ES4_SaIS8_EE14_M_lower_boundEPSt13_Rb_tree_nodeIS8_ESF_RS1_ = comdat any

$_ZNSt8_Rb_treeIxSt4pairIKxSt3mapIxxSt4lessIxESaIS0_IS1_xEEEESt10_Select1stIS8_ES4_SaIS8_EE6_M_endEv = comdat any

$_ZNSt8_Rb_treeIxSt4pairIKxSt3mapIxxSt4lessIxESaIS0_IS1_xEEEESt10_Select1stIS8_ES4_SaIS8_EE6_S_keyEPKSt13_Rb_tree_nodeIS8_E = comdat any

$_ZNSt17_Rb_tree_iteratorISt4pairIKxSt3mapIxxSt4lessIxESaIS0_IS1_xEEEEEC2EPSt18_Rb_tree_node_base = comdat any

$_ZNKSt10_Select1stISt4pairIKxSt3mapIxxSt4lessIxESaIS0_IS1_xEEEEEclERKS8_ = comdat any

$_ZNSt8_Rb_treeIxSt4pairIKxSt3mapIxxSt4lessIxESaIS0_IS1_xEEEESt10_Select1stIS8_ES4_SaIS8_EE8_S_valueEPKSt13_Rb_tree_nodeIS8_E = comdat any

$_ZNKSt13_Rb_tree_nodeISt4pairIKxSt3mapIxxSt4lessIxESaIS0_IS1_xEEEEE9_M_valptrEv = comdat any

$_ZNK9__gnu_cxx16__aligned_membufISt4pairIKxSt3mapIxxSt4lessIxESaIS1_IS2_xEEEEE6_M_ptrEv = comdat any

$_ZNK9__gnu_cxx16__aligned_membufISt4pairIKxSt3mapIxxSt4lessIxESaIS1_IS2_xEEEEE7_M_addrEv = comdat any

$_ZNSt8_Rb_treeIxSt4pairIKxSt3mapIxxSt4lessIxESaIS0_IS1_xEEEESt10_Select1stIS8_ES4_SaIS8_EE3endEv = comdat any

$_ZNKSt8_Rb_treeIxSt4pairIKxSt3mapIxxSt4lessIxESaIS0_IS1_xEEEESt10_Select1stIS8_ES4_SaIS8_EE8key_compEv = comdat any

$_ZNSt8_Rb_treeIxSt4pairIKxSt3mapIxxSt4lessIxESaIS0_IS1_xEEEESt10_Select1stIS8_ES4_SaIS8_EE14_M_create_nodeIJRKSt21piecewise_construct_tSt5tupleIJRS1_EESH_IJEEEEEPSt13_Rb_tree_nodeIS8_EDpOT_ = comdat any

$_ZNSt8_Rb_treeIxSt4pairIKxSt3mapIxxSt4lessIxESaIS0_IS1_xEEEESt10_Select1stIS8_ES4_SaIS8_EE29_M_get_insert_hint_unique_posESt23_Rb_tree_const_iteratorIS8_ERS1_ = comdat any

$_ZNSt8_Rb_treeIxSt4pairIKxSt3mapIxxSt4lessIxESaIS0_IS1_xEEEESt10_Select1stIS8_ES4_SaIS8_EE14_M_insert_nodeEPSt18_Rb_tree_node_baseSE_PSt13_Rb_tree_nodeIS8_E = comdat any

$_ZNSt8_Rb_treeIxSt4pairIKxSt3mapIxxSt4lessIxESaIS0_IS1_xEEEESt10_Select1stIS8_ES4_SaIS8_EE11_M_get_nodeEv = comdat any

$_ZNSt8_Rb_treeIxSt4pairIKxSt3mapIxxSt4lessIxESaIS0_IS1_xEEEESt10_Select1stIS8_ES4_SaIS8_EE17_M_construct_nodeIJRKSt21piecewise_construct_tSt5tupleIJRS1_EESH_IJEEEEEvPSt13_Rb_tree_nodeIS8_EDpOT_ = comdat any

$_ZNSt16allocator_traitsISaISt13_Rb_tree_nodeISt4pairIKxSt3mapIxxSt4lessIxESaIS1_IS2_xEEEEEEE8allocateERSB_m = comdat any

$_ZN9__gnu_cxx13new_allocatorISt13_Rb_tree_nodeISt4pairIKxSt3mapIxxSt4lessIxESaIS2_IS3_xEEEEEE8allocateEmPKv = comdat any

$_ZNK9__gnu_cxx13new_allocatorISt13_Rb_tree_nodeISt4pairIKxSt3mapIxxSt4lessIxESaIS2_IS3_xEEEEEE8max_sizeEv = comdat any

$_ZNSt16allocator_traitsISaISt13_Rb_tree_nodeISt4pairIKxSt3mapIxxSt4lessIxESaIS1_IS2_xEEEEEEE9constructIS9_JRKSt21piecewise_construct_tSt5tupleIJRS2_EESH_IJEEEEEvRSB_PT_DpOT0_ = comdat any

$_ZN9__gnu_cxx13new_allocatorISt13_Rb_tree_nodeISt4pairIKxSt3mapIxxSt4lessIxESaIS2_IS3_xEEEEEE9constructISA_JRKSt21piecewise_construct_tSt5tupleIJRS3_EESH_IJEEEEEvPT_DpOT0_ = comdat any

$_ZNSt4pairIKxSt3mapIxxSt4lessIxESaIS_IS0_xEEEEC2IJRS0_EJEEESt21piecewise_construct_tSt5tupleIJDpT_EESB_IJDpT0_EE = comdat any

$_ZNSt4pairIKxSt3mapIxxSt4lessIxESaIS_IS0_xEEEEC2IJRS0_EJLm0EEJEJEEERSt5tupleIJDpT_EERSA_IJDpT1_EESt12_Index_tupleIJXspT0_EEESJ_IJXspT2_EEE = comdat any

$_ZNKSt23_Rb_tree_const_iteratorISt4pairIKxSt3mapIxxSt4lessIxESaIS0_IS1_xEEEEE13_M_const_castEv = comdat any

$_ZNKSt8_Rb_treeIxSt4pairIKxSt3mapIxxSt4lessIxESaIS0_IS1_xEEEESt10_Select1stIS8_ES4_SaIS8_EE4sizeEv = comdat any

$_ZNSt8_Rb_treeIxSt4pairIKxSt3mapIxxSt4lessIxESaIS0_IS1_xEEEESt10_Select1stIS8_ES4_SaIS8_EE6_S_keyEPKSt18_Rb_tree_node_base = comdat any

$_ZNSt8_Rb_treeIxSt4pairIKxSt3mapIxxSt4lessIxESaIS0_IS1_xEEEESt10_Select1stIS8_ES4_SaIS8_EE12_M_rightmostEv = comdat any

$_ZNSt8_Rb_treeIxSt4pairIKxSt3mapIxxSt4lessIxESaIS0_IS1_xEEEESt10_Select1stIS8_ES4_SaIS8_EE24_M_get_insert_unique_posERS1_ = comdat any

$_ZNSt8_Rb_treeIxSt4pairIKxSt3mapIxxSt4lessIxESaIS0_IS1_xEEEESt10_Select1stIS8_ES4_SaIS8_EE11_M_leftmostEv = comdat any

$_ZNSt17_Rb_tree_iteratorISt4pairIKxSt3mapIxxSt4lessIxESaIS0_IS1_xEEEEEmmEv = comdat any

$_ZNSt17_Rb_tree_iteratorISt4pairIKxSt3mapIxxSt4lessIxESaIS0_IS1_xEEEEEppEv = comdat any

$_ZNSt8_Rb_treeIxSt4pairIKxSt3mapIxxSt4lessIxESaIS0_IS1_xEEEESt10_Select1stIS8_ES4_SaIS8_EE8_S_valueEPKSt18_Rb_tree_node_base = comdat any

$_ZNSt8_Rb_treeIxSt4pairIKxSt3mapIxxSt4lessIxESaIS0_IS1_xEEEESt10_Select1stIS8_ES4_SaIS8_EE5beginEv = comdat any

$_ZNSt4pairIPSt18_Rb_tree_node_baseS1_EC2IRPSt13_Rb_tree_nodeIS_IKxSt3mapIxxSt4lessIxESaIS_IS5_xEEEEESF_vEEOT_OT0_ = comdat any

$_ZSt7forwardIRPSt13_Rb_tree_nodeISt4pairIKxSt3mapIxxSt4lessIxESaIS1_IS2_xEEEEEEOT_RNSt16remove_referenceISD_E4typeE = comdat any

$_ZNSt8_Rb_treeIxSt4pairIKxxESt10_Select1stIS2_ESt4lessIxESaIS2_EEaSERKS8_ = comdat any

$_ZNSt8_Rb_treeIxSt4pairIKxxESt10_Select1stIS2_ESt4lessIxESaIS2_EE20_Reuse_or_alloc_nodeC2ERS8_ = comdat any

$_ZNSt8_Rb_treeIxSt4pairIKxxESt10_Select1stIS2_ESt4lessIxESaIS2_EE13_Rb_tree_implIS6_Lb1EE8_M_resetEv = comdat any

$_ZNKSt8_Rb_treeIxSt4pairIKxxESt10_Select1stIS2_ESt4lessIxESaIS2_EE7_M_rootEv = comdat any

$_ZNSt8_Rb_treeIxSt4pairIKxxESt10_Select1stIS2_ESt4lessIxESaIS2_EE7_M_copyINS8_20_Reuse_or_alloc_nodeEEEPSt13_Rb_tree_nodeIS2_EPKSC_SD_RT_ = comdat any

$_ZNKSt8_Rb_treeIxSt4pairIKxxESt10_Select1stIS2_ESt4lessIxESaIS2_EE8_M_beginEv = comdat any

$_ZNSt8_Rb_treeIxSt4pairIKxxESt10_Select1stIS2_ESt4lessIxESaIS2_EE7_M_rootEv = comdat any

$_ZNSt8_Rb_treeIxSt4pairIKxxESt10_Select1stIS2_ESt4lessIxESaIS2_EE10_S_minimumEPSt18_Rb_tree_node_base = comdat any

$_ZNSt8_Rb_treeIxSt4pairIKxxESt10_Select1stIS2_ESt4lessIxESaIS2_EE10_S_maximumEPSt18_Rb_tree_node_base = comdat any

$_ZNSt8_Rb_treeIxSt4pairIKxxESt10_Select1stIS2_ESt4lessIxESaIS2_EE20_Reuse_or_alloc_nodeD2Ev = comdat any

$_ZNSt8_Rb_treeIxSt4pairIKxxESt10_Select1stIS2_ESt4lessIxESaIS2_EE13_M_clone_nodeINS8_20_Reuse_or_alloc_nodeEEEPSt13_Rb_tree_nodeIS2_EPKSC_RT_ = comdat any

$_ZNSt8_Rb_treeIxSt4pairIKxxESt10_Select1stIS2_ESt4lessIxESaIS2_EE8_S_rightEPKSt18_Rb_tree_node_base = comdat any

$_ZNSt8_Rb_treeIxSt4pairIKxxESt10_Select1stIS2_ESt4lessIxESaIS2_EE7_S_leftEPKSt18_Rb_tree_node_base = comdat any

$_ZNSt8_Rb_treeIxSt4pairIKxxESt10_Select1stIS2_ESt4lessIxESaIS2_EE20_Reuse_or_alloc_nodeclIRKS2_EEPSt13_Rb_tree_nodeIS2_EOT_ = comdat any

$_ZNSt8_Rb_treeIxSt4pairIKxxESt10_Select1stIS2_ESt4lessIxESaIS2_EE20_Reuse_or_alloc_node10_M_extractEv = comdat any

$_ZNSt8_Rb_treeIxSt4pairIKxxESt10_Select1stIS2_ESt4lessIxESaIS2_EE17_M_construct_nodeIJRKS2_EEEvPSt13_Rb_tree_nodeIS2_EDpOT_ = comdat any

$_ZSt7forwardIRKSt4pairIKxxEEOT_RNSt16remove_referenceIS5_E4typeE = comdat any

$_ZNSt8_Rb_treeIxSt4pairIKxxESt10_Select1stIS2_ESt4lessIxESaIS2_EE14_M_create_nodeIJRKS2_EEEPSt13_Rb_tree_nodeIS2_EDpOT_ = comdat any

$_ZNSt16allocator_traitsISaISt13_Rb_tree_nodeISt4pairIKxxEEEE9constructIS3_JRKS3_EEEvRS5_PT_DpOT0_ = comdat any

$_ZN9__gnu_cxx13new_allocatorISt13_Rb_tree_nodeISt4pairIKxxEEE9constructIS4_JRKS4_EEEvPT_DpOT0_ = comdat any

$_ZNSt12_Vector_baseIxSaIxEEC2EmRKS0_ = comdat any

$_ZNSt6vectorIxSaIxEE18_M_fill_initializeEmRKx = comdat any

$_ZNSt12_Vector_baseIxSaIxEE12_Vector_implC2ERKS0_ = comdat any

$_ZNSt12_Vector_baseIxSaIxEE17_M_create_storageEm = comdat any

$_ZSt24__uninitialized_fill_n_aIPxmxxET_S1_T0_RKT1_RSaIT2_E = comdat any

$_ZSt20uninitialized_fill_nIPxmxET_S1_T0_RKT1_ = comdat any

$_ZNSt22__uninitialized_fill_nILb1EE15__uninit_fill_nIPxmxEET_S3_T0_RKT1_ = comdat any

@_ZStL8__ioinit = internal global %"class.std::ios_base::Init" zeroinitializer, align 1
@__dso_handle = external global i8
@_ZSt4cout = external global %"class.std::basic_ostream", align 8
@.str = private unnamed_addr constant [4 x i8] c"Yes\00", align 1
@.str.1 = private unnamed_addr constant [3 x i8] c"No\00", align 1
@.str.2 = private unnamed_addr constant [4 x i8] c"YES\00", align 1
@.str.3 = private unnamed_addr constant [3 x i8] c"NO\00", align 1
@adjMat = global %"class.std::vector" zeroinitializer, align 8
@adjList = global %"class.std::vector.1" zeroinitializer, align 8
@fac = global %"class.std::vector.6" zeroinitializer, align 8
@finv = global %"class.std::vector.6" zeroinitializer, align 8
@inv = global %"class.std::vector.6" zeroinitializer, align 8
@sieve = global %"class.std::vector.11" zeroinitializer, align 8
@primeFactorSet = global %"class.std::map" zeroinitializer, align 8
@primeFactorMap = global %"class.std::map.18" zeroinitializer, align 8
@_ZSt3cin = external global %"class.std::basic_istream", align 8
@_ZL5INF_L = internal constant i64 1152921504606846976, align 8
@.str.12 = private unnamed_addr constant [10 x i8] c"input.txt\00", align 1
@.str.13 = private unnamed_addr constant [26 x i8] c"vector::_M_default_append\00", align 1
@.str.14 = private unnamed_addr constant [29 x i8] c"vector<bool>::_M_fill_insert\00", align 1
@_ZStL19piecewise_construct = internal constant %"struct.std::piecewise_construct_t" undef, align 1
@llvm.global_ctors = appending global [1 x { i32, void ()*, i8* }] [{ i32, void ()*, i8* } { i32 65535, void ()* @_GLOBAL__sub_I_s864484413.cpp, i8* null }]
@x = common global i32 0
@y = common global i32 0
@x.15 = common global i32 0
@y.16 = common global i32 0
@x.17 = common global i32 0
@y.18 = common global i32 0
@x.19 = common global i32 0
@y.20 = common global i32 0
@x.21 = common global i32 0
@y.22 = common global i32 0
@x.23 = common global i32 0
@y.24 = common global i32 0
@x.25 = common global i32 0
@y.26 = common global i32 0
@x.27 = common global i32 0
@y.28 = common global i32 0
@x.29 = common global i32 0
@y.30 = common global i32 0
@x.31 = common global i32 0
@y.32 = common global i32 0
@x.33 = common global i32 0
@y.34 = common global i32 0
@x.35 = common global i32 0
@y.36 = common global i32 0
@x.37 = common global i32 0
@y.38 = common global i32 0
@x.39 = common global i32 0
@y.40 = common global i32 0
@x.41 = common global i32 0
@y.42 = common global i32 0
@x.43 = common global i32 0
@y.44 = common global i32 0
@x.45 = common global i32 0
@y.46 = common global i32 0
@x.47 = common global i32 0
@y.48 = common global i32 0
@x.49 = common global i32 0
@y.50 = common global i32 0
@x.51 = common global i32 0
@y.52 = common global i32 0
@x.53 = common global i32 0
@y.54 = common global i32 0
@x.55 = common global i32 0
@y.56 = common global i32 0
@x.57 = common global i32 0
@y.58 = common global i32 0
@x.59 = common global i32 0
@y.60 = common global i32 0
@x.61 = common global i32 0
@y.62 = common global i32 0
@x.63 = common global i32 0
@y.64 = common global i32 0
@x.65 = common global i32 0
@y.66 = common global i32 0
@x.67 = common global i32 0
@y.68 = common global i32 0
@x.69 = common global i32 0
@y.70 = common global i32 0
@x.71 = common global i32 0
@y.72 = common global i32 0
@x.73 = common global i32 0
@y.74 = common global i32 0
@x.75 = common global i32 0
@y.76 = common global i32 0
@x.77 = common global i32 0
@y.78 = common global i32 0
@x.79 = common global i32 0
@y.80 = common global i32 0
@x.81 = common global i32 0
@y.82 = common global i32 0
@x.83 = common global i32 0
@y.84 = common global i32 0
@x.85 = common global i32 0
@y.86 = common global i32 0
@x.87 = common global i32 0
@y.88 = common global i32 0
@x.89 = common global i32 0
@y.90 = common global i32 0
@x.91 = common global i32 0
@y.92 = common global i32 0
@x.93 = common global i32 0
@y.94 = common global i32 0
@x.95 = common global i32 0
@y.96 = common global i32 0
@x.97 = common global i32 0
@y.98 = common global i32 0
@x.99 = common global i32 0
@y.100 = common global i32 0
@x.101 = common global i32 0
@y.102 = common global i32 0
@x.103 = common global i32 0
@y.104 = common global i32 0
@x.105 = common global i32 0
@y.106 = common global i32 0
@x.107 = common global i32 0
@y.108 = common global i32 0
@x.109 = common global i32 0
@y.110 = common global i32 0
@x.111 = common global i32 0
@y.112 = common global i32 0
@x.113 = common global i32 0
@y.114 = common global i32 0
@x.115 = common global i32 0
@y.116 = common global i32 0
@x.117 = common global i32 0
@y.118 = common global i32 0
@x.119 = common global i32 0
@y.120 = common global i32 0
@x.121 = common global i32 0
@y.122 = common global i32 0
@x.123 = common global i32 0
@y.124 = common global i32 0
@x.125 = common global i32 0
@y.126 = common global i32 0
@x.127 = common global i32 0
@y.128 = common global i32 0
@x.129 = common global i32 0
@y.130 = common global i32 0
@x.131 = common global i32 0
@y.132 = common global i32 0
@x.133 = common global i32 0
@y.134 = common global i32 0
@x.135 = common global i32 0
@y.136 = common global i32 0
@x.137 = common global i32 0
@y.138 = common global i32 0
@x.139 = common global i32 0
@y.140 = common global i32 0
@x.141 = common global i32 0
@y.142 = common global i32 0
@x.143 = common global i32 0
@y.144 = common global i32 0
@x.145 = common global i32 0
@y.146 = common global i32 0
@x.147 = common global i32 0
@y.148 = common global i32 0
@x.149 = common global i32 0
@y.150 = common global i32 0
@x.151 = common global i32 0
@y.152 = common global i32 0
@x.153 = common global i32 0
@y.154 = common global i32 0
@x.155 = common global i32 0
@y.156 = common global i32 0
@x.157 = common global i32 0
@y.158 = common global i32 0
@x.159 = common global i32 0
@y.160 = common global i32 0
@x.161 = common global i32 0
@y.162 = common global i32 0
@x.163 = common global i32 0
@y.164 = common global i32 0
@x.165 = common global i32 0
@y.166 = common global i32 0
@x.167 = common global i32 0
@y.168 = common global i32 0
@x.169 = common global i32 0
@y.170 = common global i32 0
@x.171 = common global i32 0
@y.172 = common global i32 0
@x.173 = common global i32 0
@y.174 = common global i32 0
@x.175 = common global i32 0
@y.176 = common global i32 0
@x.177 = common global i32 0
@y.178 = common global i32 0
@x.179 = common global i32 0
@y.180 = common global i32 0
@x.181 = common global i32 0
@y.182 = common global i32 0
@x.183 = common global i32 0
@y.184 = common global i32 0
@x.185 = common global i32 0
@y.186 = common global i32 0
@x.187 = common global i32 0
@y.188 = common global i32 0
@x.189 = common global i32 0
@y.190 = common global i32 0
@x.191 = common global i32 0
@y.192 = common global i32 0
@x.193 = common global i32 0
@y.194 = common global i32 0
@x.195 = common global i32 0
@y.196 = common global i32 0
@x.197 = common global i32 0
@y.198 = common global i32 0
@x.199 = common global i32 0
@y.200 = common global i32 0
@x.201 = common global i32 0
@y.202 = common global i32 0
@x.203 = common global i32 0
@y.204 = common global i32 0
@x.205 = common global i32 0
@y.206 = common global i32 0
@x.207 = common global i32 0
@y.208 = common global i32 0
@x.209 = common global i32 0
@y.210 = common global i32 0
@x.211 = common global i32 0
@y.212 = common global i32 0
@x.213 = common global i32 0
@y.214 = common global i32 0
@x.215 = common global i32 0
@y.216 = common global i32 0
@x.217 = common global i32 0
@y.218 = common global i32 0
@x.219 = common global i32 0
@y.220 = common global i32 0
@x.221 = common global i32 0
@y.222 = common global i32 0
@x.223 = common global i32 0
@y.224 = common global i32 0
@x.225 = common global i32 0
@y.226 = common global i32 0
@x.227 = common global i32 0
@y.228 = common global i32 0
@x.229 = common global i32 0
@y.230 = common global i32 0
@x.231 = common global i32 0
@y.232 = common global i32 0
@x.233 = common global i32 0
@y.234 = common global i32 0
@x.235 = common global i32 0
@y.236 = common global i32 0
@x.237 = common global i32 0
@y.238 = common global i32 0
@x.239 = common global i32 0
@y.240 = common global i32 0
@x.241 = common global i32 0
@y.242 = common global i32 0
@x.243 = common global i32 0
@y.244 = common global i32 0
@x.245 = common global i32 0
@y.246 = common global i32 0
@x.247 = common global i32 0
@y.248 = common global i32 0
@x.249 = common global i32 0
@y.250 = common global i32 0
@x.251 = common global i32 0
@y.252 = common global i32 0
@x.253 = common global i32 0
@y.254 = common global i32 0
@x.255 = common global i32 0
@y.256 = common global i32 0
@x.257 = common global i32 0
@y.258 = common global i32 0
@x.259 = common global i32 0
@y.260 = common global i32 0
@x.261 = common global i32 0
@y.262 = common global i32 0
@x.263 = common global i32 0
@y.264 = common global i32 0
@x.265 = common global i32 0
@y.266 = common global i32 0
@x.267 = common global i32 0
@y.268 = common global i32 0
@x.269 = common global i32 0
@y.270 = common global i32 0
@x.271 = common global i32 0
@y.272 = common global i32 0
@x.273 = common global i32 0
@y.274 = common global i32 0
@x.275 = common global i32 0
@y.276 = common global i32 0
@x.277 = common global i32 0
@y.278 = common global i32 0
@x.279 = common global i32 0
@y.280 = common global i32 0
@x.281 = common global i32 0
@y.282 = common global i32 0
@x.283 = common global i32 0
@y.284 = common global i32 0
@x.285 = common global i32 0
@y.286 = common global i32 0
@x.287 = common global i32 0
@y.288 = common global i32 0
@x.289 = common global i32 0
@y.290 = common global i32 0
@x.291 = common global i32 0
@y.292 = common global i32 0
@x.293 = common global i32 0
@y.294 = common global i32 0
@x.295 = common global i32 0
@y.296 = common global i32 0
@x.297 = common global i32 0
@y.298 = common global i32 0
@x.299 = common global i32 0
@y.300 = common global i32 0
@x.301 = common global i32 0
@y.302 = common global i32 0
@x.303 = common global i32 0
@y.304 = common global i32 0
@x.305 = common global i32 0
@y.306 = common global i32 0
@x.307 = common global i32 0
@y.308 = common global i32 0
@x.309 = common global i32 0
@y.310 = common global i32 0
@x.311 = common global i32 0
@y.312 = common global i32 0
@x.313 = common global i32 0
@y.314 = common global i32 0
@x.315 = common global i32 0
@y.316 = common global i32 0
@x.317 = common global i32 0
@y.318 = common global i32 0
@x.319 = common global i32 0
@y.320 = common global i32 0
@x.321 = common global i32 0
@y.322 = common global i32 0
@x.323 = common global i32 0
@y.324 = common global i32 0
@x.325 = common global i32 0
@y.326 = common global i32 0
@x.327 = common global i32 0
@y.328 = common global i32 0
@x.329 = common global i32 0
@y.330 = common global i32 0
@x.331 = common global i32 0
@y.332 = common global i32 0
@x.333 = common global i32 0
@y.334 = common global i32 0
@x.335 = common global i32 0
@y.336 = common global i32 0
@x.337 = common global i32 0
@y.338 = common global i32 0
@x.339 = common global i32 0
@y.340 = common global i32 0
@x.341 = common global i32 0
@y.342 = common global i32 0
@x.343 = common global i32 0
@y.344 = common global i32 0
@x.345 = common global i32 0
@y.346 = common global i32 0
@x.347 = common global i32 0
@y.348 = common global i32 0
@x.349 = common global i32 0
@y.350 = common global i32 0
@x.351 = common global i32 0
@y.352 = common global i32 0
@x.353 = common global i32 0
@y.354 = common global i32 0
@x.355 = common global i32 0
@y.356 = common global i32 0
@x.357 = common global i32 0
@y.358 = common global i32 0
@x.359 = common global i32 0
@y.360 = common global i32 0
@x.361 = common global i32 0
@y.362 = common global i32 0
@x.363 = common global i32 0
@y.364 = common global i32 0
@x.365 = common global i32 0
@y.366 = common global i32 0
@x.367 = common global i32 0
@y.368 = common global i32 0
@x.369 = common global i32 0
@y.370 = common global i32 0
@x.371 = common global i32 0
@y.372 = common global i32 0
@x.373 = common global i32 0
@y.374 = common global i32 0
@x.375 = common global i32 0
@y.376 = common global i32 0
@x.377 = common global i32 0
@y.378 = common global i32 0
@x.379 = common global i32 0
@y.380 = common global i32 0
@x.381 = common global i32 0
@y.382 = common global i32 0
@x.383 = common global i32 0
@y.384 = common global i32 0
@x.385 = common global i32 0
@y.386 = common global i32 0
@x.387 = common global i32 0
@y.388 = common global i32 0
@x.389 = common global i32 0
@y.390 = common global i32 0
@x.391 = common global i32 0
@y.392 = common global i32 0
@x.393 = common global i32 0
@y.394 = common global i32 0
@x.395 = common global i32 0
@y.396 = common global i32 0
@x.397 = common global i32 0
@y.398 = common global i32 0
@x.399 = common global i32 0
@y.400 = common global i32 0
@x.401 = common global i32 0
@y.402 = common global i32 0
@x.403 = common global i32 0
@y.404 = common global i32 0
@x.405 = common global i32 0
@y.406 = common global i32 0
@x.407 = common global i32 0
@y.408 = common global i32 0
@x.409 = common global i32 0
@y.410 = common global i32 0
@x.411 = common global i32 0
@y.412 = common global i32 0
@x.413 = common global i32 0
@y.414 = common global i32 0
@x.415 = common global i32 0
@y.416 = common global i32 0
@x.417 = common global i32 0
@y.418 = common global i32 0
@x.419 = common global i32 0
@y.420 = common global i32 0
@x.421 = common global i32 0
@y.422 = common global i32 0
@x.423 = common global i32 0
@y.424 = common global i32 0
@x.425 = common global i32 0
@y.426 = common global i32 0
@x.427 = common global i32 0
@y.428 = common global i32 0
@x.429 = common global i32 0
@y.430 = common global i32 0
@x.431 = common global i32 0
@y.432 = common global i32 0
@x.433 = common global i32 0
@y.434 = common global i32 0
@x.435 = common global i32 0
@y.436 = common global i32 0
@x.437 = common global i32 0
@y.438 = common global i32 0
@x.439 = common global i32 0
@y.440 = common global i32 0
@x.441 = common global i32 0
@y.442 = common global i32 0
@x.443 = common global i32 0
@y.444 = common global i32 0
@x.445 = common global i32 0
@y.446 = common global i32 0
@x.447 = common global i32 0
@y.448 = common global i32 0
@x.449 = common global i32 0
@y.450 = common global i32 0
@x.451 = common global i32 0
@y.452 = common global i32 0
@x.453 = common global i32 0
@y.454 = common global i32 0
@x.455 = common global i32 0
@y.456 = common global i32 0
@x.457 = common global i32 0
@y.458 = common global i32 0
@x.459 = common global i32 0
@y.460 = common global i32 0
@x.461 = common global i32 0
@y.462 = common global i32 0
@x.463 = common global i32 0
@y.464 = common global i32 0
@x.465 = common global i32 0
@y.466 = common global i32 0
@x.467 = common global i32 0
@y.468 = common global i32 0
@x.469 = common global i32 0
@y.470 = common global i32 0
@x.471 = common global i32 0
@y.472 = common global i32 0
@x.473 = common global i32 0
@y.474 = common global i32 0
@x.475 = common global i32 0
@y.476 = common global i32 0
@x.477 = common global i32 0
@y.478 = common global i32 0
@x.479 = common global i32 0
@y.480 = common global i32 0
@x.481 = common global i32 0
@y.482 = common global i32 0
@x.483 = common global i32 0
@y.484 = common global i32 0
@x.485 = common global i32 0
@y.486 = common global i32 0
@x.487 = common global i32 0
@y.488 = common global i32 0
@x.489 = common global i32 0
@y.490 = common global i32 0
@x.491 = common global i32 0
@y.492 = common global i32 0
@x.493 = common global i32 0
@y.494 = common global i32 0
@x.495 = common global i32 0
@y.496 = common global i32 0
@x.497 = common global i32 0
@y.498 = common global i32 0
@x.499 = common global i32 0
@y.500 = common global i32 0
@x.501 = common global i32 0
@y.502 = common global i32 0
@x.503 = common global i32 0
@y.504 = common global i32 0
@x.505 = common global i32 0
@y.506 = common global i32 0
@x.507 = common global i32 0
@y.508 = common global i32 0
@x.509 = common global i32 0
@y.510 = common global i32 0
@x.511 = common global i32 0
@y.512 = common global i32 0
@x.513 = common global i32 0
@y.514 = common global i32 0
@x.515 = common global i32 0
@y.516 = common global i32 0
@x.517 = common global i32 0
@y.518 = common global i32 0
@x.519 = common global i32 0
@y.520 = common global i32 0
@x.521 = common global i32 0
@y.522 = common global i32 0
@x.523 = common global i32 0
@y.524 = common global i32 0
@x.525 = common global i32 0
@y.526 = common global i32 0
@x.527 = common global i32 0
@y.528 = common global i32 0
@x.529 = common global i32 0
@y.530 = common global i32 0
@x.531 = common global i32 0
@y.532 = common global i32 0
@x.533 = common global i32 0
@y.534 = common global i32 0
@x.535 = common global i32 0
@y.536 = common global i32 0
@x.537 = common global i32 0
@y.538 = common global i32 0
@x.539 = common global i32 0
@y.540 = common global i32 0
@x.541 = common global i32 0
@y.542 = common global i32 0
@x.543 = common global i32 0
@y.544 = common global i32 0
@x.545 = common global i32 0
@y.546 = common global i32 0
@x.547 = common global i32 0
@y.548 = common global i32 0
@x.549 = common global i32 0
@y.550 = common global i32 0
@x.551 = common global i32 0
@y.552 = common global i32 0
@x.553 = common global i32 0
@y.554 = common global i32 0
@x.555 = common global i32 0
@y.556 = common global i32 0
@x.557 = common global i32 0
@y.558 = common global i32 0
@x.559 = common global i32 0
@y.560 = common global i32 0
@x.561 = common global i32 0
@y.562 = common global i32 0
@x.563 = common global i32 0
@y.564 = common global i32 0
@x.565 = common global i32 0
@y.566 = common global i32 0
@x.567 = common global i32 0
@y.568 = common global i32 0
@x.569 = common global i32 0
@y.570 = common global i32 0
@x.571 = common global i32 0
@y.572 = common global i32 0
@x.573 = common global i32 0
@y.574 = common global i32 0
@x.575 = common global i32 0
@y.576 = common global i32 0
@x.577 = common global i32 0
@y.578 = common global i32 0
@x.579 = common global i32 0
@y.580 = common global i32 0
@x.581 = common global i32 0
@y.582 = common global i32 0
@x.583 = common global i32 0
@y.584 = common global i32 0
@x.585 = common global i32 0
@y.586 = common global i32 0
@x.587 = common global i32 0
@y.588 = common global i32 0
@x.589 = common global i32 0
@y.590 = common global i32 0
@x.591 = common global i32 0
@y.592 = common global i32 0
@x.593 = common global i32 0
@y.594 = common global i32 0
@x.595 = common global i32 0
@y.596 = common global i32 0
@x.597 = common global i32 0
@y.598 = common global i32 0
@x.599 = common global i32 0
@y.600 = common global i32 0
@x.601 = common global i32 0
@y.602 = common global i32 0
@x.603 = common global i32 0
@y.604 = common global i32 0
@x.605 = common global i32 0
@y.606 = common global i32 0
@x.607 = common global i32 0
@y.608 = common global i32 0
@x.609 = common global i32 0
@y.610 = common global i32 0
@x.611 = common global i32 0
@y.612 = common global i32 0
@x.613 = common global i32 0
@y.614 = common global i32 0
@x.615 = common global i32 0
@y.616 = common global i32 0
@x.617 = common global i32 0
@y.618 = common global i32 0
@x.619 = common global i32 0
@y.620 = common global i32 0
@x.621 = common global i32 0
@y.622 = common global i32 0
@x.623 = common global i32 0
@y.624 = common global i32 0
@x.625 = common global i32 0
@y.626 = common global i32 0
@x.627 = common global i32 0
@y.628 = common global i32 0
@x.629 = common global i32 0
@y.630 = common global i32 0
@x.631 = common global i32 0
@y.632 = common global i32 0
@x.633 = common global i32 0
@y.634 = common global i32 0
@x.635 = common global i32 0
@y.636 = common global i32 0
@x.637 = common global i32 0
@y.638 = common global i32 0
@x.639 = common global i32 0
@y.640 = common global i32 0
@x.641 = common global i32 0
@y.642 = common global i32 0
@x.643 = common global i32 0
@y.644 = common global i32 0
@x.645 = common global i32 0
@y.646 = common global i32 0
@x.647 = common global i32 0
@y.648 = common global i32 0
@x.649 = common global i32 0
@y.650 = common global i32 0
@x.651 = common global i32 0
@y.652 = common global i32 0
@x.653 = common global i32 0
@y.654 = common global i32 0
@x.655 = common global i32 0
@y.656 = common global i32 0
@x.657 = common global i32 0
@y.658 = common global i32 0
@x.659 = common global i32 0
@y.660 = common global i32 0
@x.661 = common global i32 0
@y.662 = common global i32 0
@x.663 = common global i32 0
@y.664 = common global i32 0
@x.665 = common global i32 0
@y.666 = common global i32 0
@x.667 = common global i32 0
@y.668 = common global i32 0
@x.669 = common global i32 0
@y.670 = common global i32 0
@x.671 = common global i32 0
@y.672 = common global i32 0
@x.673 = common global i32 0
@y.674 = common global i32 0
@x.675 = common global i32 0
@y.676 = common global i32 0
@x.677 = common global i32 0
@y.678 = common global i32 0
@x.679 = common global i32 0
@y.680 = common global i32 0
@x.681 = common global i32 0
@y.682 = common global i32 0
@x.683 = common global i32 0
@y.684 = common global i32 0
@x.685 = common global i32 0
@y.686 = common global i32 0
@x.687 = common global i32 0
@y.688 = common global i32 0
@x.689 = common global i32 0
@y.690 = common global i32 0
@x.691 = common global i32 0
@y.692 = common global i32 0
@x.693 = common global i32 0
@y.694 = common global i32 0
@x.695 = common global i32 0
@y.696 = common global i32 0
@x.697 = common global i32 0
@y.698 = common global i32 0
@x.699 = common global i32 0
@y.700 = common global i32 0
@x.701 = common global i32 0
@y.702 = common global i32 0
@x.703 = common global i32 0
@y.704 = common global i32 0
@x.705 = common global i32 0
@y.706 = common global i32 0
@x.707 = common global i32 0
@y.708 = common global i32 0
@x.709 = common global i32 0
@y.710 = common global i32 0
@x.711 = common global i32 0
@y.712 = common global i32 0
@x.713 = common global i32 0
@y.714 = common global i32 0
@x.715 = common global i32 0
@y.716 = common global i32 0
@x.717 = common global i32 0
@y.718 = common global i32 0
@x.719 = common global i32 0
@y.720 = common global i32 0
@x.721 = common global i32 0
@y.722 = common global i32 0
@x.723 = common global i32 0
@y.724 = common global i32 0
@x.725 = common global i32 0
@y.726 = common global i32 0
@x.727 = common global i32 0
@y.728 = common global i32 0
@x.729 = common global i32 0
@y.730 = common global i32 0
@x.731 = common global i32 0
@y.732 = common global i32 0
@x.733 = common global i32 0
@y.734 = common global i32 0
@x.735 = common global i32 0
@y.736 = common global i32 0
@x.737 = common global i32 0
@y.738 = common global i32 0
@x.739 = common global i32 0
@y.740 = common global i32 0
@x.741 = common global i32 0
@y.742 = common global i32 0
@x.743 = common global i32 0
@y.744 = common global i32 0
@x.745 = common global i32 0
@y.746 = common global i32 0
@x.747 = common global i32 0
@y.748 = common global i32 0
@x.749 = common global i32 0
@y.750 = common global i32 0
@x.751 = common global i32 0
@y.752 = common global i32 0
@x.753 = common global i32 0
@y.754 = common global i32 0
@x.755 = common global i32 0
@y.756 = common global i32 0
@x.757 = common global i32 0
@y.758 = common global i32 0
@x.759 = common global i32 0
@y.760 = common global i32 0
@x.761 = common global i32 0
@y.762 = common global i32 0
@x.763 = common global i32 0
@y.764 = common global i32 0
@x.765 = common global i32 0
@y.766 = common global i32 0
@x.767 = common global i32 0
@y.768 = common global i32 0
@x.769 = common global i32 0
@y.770 = common global i32 0
@x.771 = common global i32 0
@y.772 = common global i32 0
@x.773 = common global i32 0
@y.774 = common global i32 0
@x.775 = common global i32 0
@y.776 = common global i32 0
@x.777 = common global i32 0
@y.778 = common global i32 0
@x.779 = common global i32 0
@y.780 = common global i32 0
@x.781 = common global i32 0
@y.782 = common global i32 0
@x.783 = common global i32 0
@y.784 = common global i32 0
@x.785 = common global i32 0
@y.786 = common global i32 0
@x.787 = common global i32 0
@y.788 = common global i32 0
@x.789 = common global i32 0
@y.790 = common global i32 0
@x.791 = common global i32 0
@y.792 = common global i32 0
@x.793 = common global i32 0
@y.794 = common global i32 0
@x.795 = common global i32 0
@y.796 = common global i32 0
@x.797 = common global i32 0
@y.798 = common global i32 0
@x.799 = common global i32 0
@y.800 = common global i32 0
@x.801 = common global i32 0
@y.802 = common global i32 0
@x.803 = common global i32 0
@y.804 = common global i32 0
@x.805 = common global i32 0
@y.806 = common global i32 0
@x.807 = common global i32 0
@y.808 = common global i32 0
@x.809 = common global i32 0
@y.810 = common global i32 0
@x.811 = common global i32 0
@y.812 = common global i32 0
@x.813 = common global i32 0
@y.814 = common global i32 0
@x.815 = common global i32 0
@y.816 = common global i32 0
@x.817 = common global i32 0
@y.818 = common global i32 0
@x.819 = common global i32 0
@y.820 = common global i32 0
@x.821 = common global i32 0
@y.822 = common global i32 0
@x.823 = common global i32 0
@y.824 = common global i32 0
@x.825 = common global i32 0
@y.826 = common global i32 0
@x.827 = common global i32 0
@y.828 = common global i32 0
@x.829 = common global i32 0
@y.830 = common global i32 0
@x.831 = common global i32 0
@y.832 = common global i32 0
@x.833 = common global i32 0
@y.834 = common global i32 0
@x.835 = common global i32 0
@y.836 = common global i32 0
@x.837 = common global i32 0
@y.838 = common global i32 0
@x.839 = common global i32 0
@y.840 = common global i32 0
@x.841 = common global i32 0
@y.842 = common global i32 0
@x.843 = common global i32 0
@y.844 = common global i32 0
@x.845 = common global i32 0
@y.846 = common global i32 0
@x.847 = common global i32 0
@y.848 = common global i32 0
@x.849 = common global i32 0
@y.850 = common global i32 0
@x.851 = common global i32 0
@y.852 = common global i32 0
@x.853 = common global i32 0
@y.854 = common global i32 0
@x.855 = common global i32 0
@y.856 = common global i32 0
@x.857 = common global i32 0
@y.858 = common global i32 0
@x.859 = common global i32 0
@y.860 = common global i32 0
@x.861 = common global i32 0
@y.862 = common global i32 0
@x.863 = common global i32 0
@y.864 = common global i32 0
@x.865 = common global i32 0
@y.866 = common global i32 0
@x.867 = common global i32 0
@y.868 = common global i32 0
@x.869 = common global i32 0
@y.870 = common global i32 0
@x.871 = common global i32 0
@y.872 = common global i32 0
@x.873 = common global i32 0
@y.874 = common global i32 0
@x.875 = common global i32 0
@y.876 = common global i32 0
@x.877 = common global i32 0
@y.878 = common global i32 0
@x.879 = common global i32 0
@y.880 = common global i32 0
@x.881 = common global i32 0
@y.882 = common global i32 0
@x.883 = common global i32 0
@y.884 = common global i32 0
@x.885 = common global i32 0
@y.886 = common global i32 0
@x.887 = common global i32 0
@y.888 = common global i32 0
@x.889 = common global i32 0
@y.890 = common global i32 0
@x.891 = common global i32 0
@y.892 = common global i32 0
@x.893 = common global i32 0
@y.894 = common global i32 0
@x.895 = common global i32 0
@y.896 = common global i32 0
@x.897 = common global i32 0
@y.898 = common global i32 0
@x.899 = common global i32 0
@y.900 = common global i32 0
@x.901 = common global i32 0
@y.902 = common global i32 0
@x.903 = common global i32 0
@y.904 = common global i32 0
@x.905 = common global i32 0
@y.906 = common global i32 0
@x.907 = common global i32 0
@y.908 = common global i32 0
@x.909 = common global i32 0
@y.910 = common global i32 0
@x.911 = common global i32 0
@y.912 = common global i32 0
@x.913 = common global i32 0
@y.914 = common global i32 0
@x.915 = common global i32 0
@y.916 = common global i32 0
@x.917 = common global i32 0
@y.918 = common global i32 0
@x.919 = common global i32 0
@y.920 = common global i32 0
@x.921 = common global i32 0
@y.922 = common global i32 0
@x.923 = common global i32 0
@y.924 = common global i32 0
@x.925 = common global i32 0
@y.926 = common global i32 0
@x.927 = common global i32 0
@y.928 = common global i32 0
@x.929 = common global i32 0
@y.930 = common global i32 0
@x.931 = common global i32 0
@y.932 = common global i32 0
@x.933 = common global i32 0
@y.934 = common global i32 0
@x.935 = common global i32 0
@y.936 = common global i32 0
@x.937 = common global i32 0
@y.938 = common global i32 0
@x.939 = common global i32 0
@y.940 = common global i32 0
@x.941 = common global i32 0
@y.942 = common global i32 0
@x.943 = common global i32 0
@y.944 = common global i32 0
@x.945 = common global i32 0
@y.946 = common global i32 0
@x.947 = common global i32 0
@y.948 = common global i32 0
@x.949 = common global i32 0
@y.950 = common global i32 0
@x.951 = common global i32 0
@y.952 = common global i32 0
@x.953 = common global i32 0
@y.954 = common global i32 0
@x.955 = common global i32 0
@y.956 = common global i32 0
@x.957 = common global i32 0
@y.958 = common global i32 0
@x.959 = common global i32 0
@y.960 = common global i32 0
@x.961 = common global i32 0
@y.962 = common global i32 0
@x.963 = common global i32 0
@y.964 = common global i32 0
@x.965 = common global i32 0
@y.966 = common global i32 0
@x.967 = common global i32 0
@y.968 = common global i32 0
@x.969 = common global i32 0
@y.970 = common global i32 0
@x.971 = common global i32 0
@y.972 = common global i32 0
@x.973 = common global i32 0
@y.974 = common global i32 0
@x.975 = common global i32 0
@y.976 = common global i32 0
@x.977 = common global i32 0
@y.978 = common global i32 0
@x.979 = common global i32 0
@y.980 = common global i32 0
@x.981 = common global i32 0
@y.982 = common global i32 0
@x.983 = common global i32 0
@y.984 = common global i32 0
@x.985 = common global i32 0
@y.986 = common global i32 0
@x.987 = common global i32 0
@y.988 = common global i32 0
@x.989 = common global i32 0
@y.990 = common global i32 0
@x.991 = common global i32 0
@y.992 = common global i32 0
@x.993 = common global i32 0
@y.994 = common global i32 0
@x.995 = common global i32 0
@y.996 = common global i32 0
@x.997 = common global i32 0
@y.998 = common global i32 0
@x.999 = common global i32 0
@y.1000 = common global i32 0
@x.1001 = common global i32 0
@y.1002 = common global i32 0
@x.1003 = common global i32 0
@y.1004 = common global i32 0
@x.1005 = common global i32 0
@y.1006 = common global i32 0
@x.1007 = common global i32 0
@y.1008 = common global i32 0
@x.1009 = common global i32 0
@y.1010 = common global i32 0
@x.1011 = common global i32 0
@y.1012 = common global i32 0
@x.1013 = common global i32 0
@y.1014 = common global i32 0
@x.1015 = common global i32 0
@y.1016 = common global i32 0
@x.1017 = common global i32 0
@y.1018 = common global i32 0
@x.1019 = common global i32 0
@y.1020 = common global i32 0
@x.1021 = common global i32 0
@y.1022 = common global i32 0
@x.1023 = common global i32 0
@y.1024 = common global i32 0
@x.1025 = common global i32 0
@y.1026 = common global i32 0
@x.1027 = common global i32 0
@y.1028 = common global i32 0
@x.1029 = common global i32 0
@y.1030 = common global i32 0
@x.1031 = common global i32 0
@y.1032 = common global i32 0
@x.1033 = common global i32 0
@y.1034 = common global i32 0
@x.1035 = common global i32 0
@y.1036 = common global i32 0
@x.1037 = common global i32 0
@y.1038 = common global i32 0
@x.1039 = common global i32 0
@y.1040 = common global i32 0
@x.1041 = common global i32 0
@y.1042 = common global i32 0
@x.1043 = common global i32 0
@y.1044 = common global i32 0
@x.1045 = common global i32 0
@y.1046 = common global i32 0
@x.1047 = common global i32 0
@y.1048 = common global i32 0
@x.1049 = common global i32 0
@y.1050 = common global i32 0
@x.1051 = common global i32 0
@y.1052 = common global i32 0
@x.1053 = common global i32 0
@y.1054 = common global i32 0
@x.1055 = common global i32 0
@y.1056 = common global i32 0
@x.1057 = common global i32 0
@y.1058 = common global i32 0
@x.1059 = common global i32 0
@y.1060 = common global i32 0
@x.1061 = common global i32 0
@y.1062 = common global i32 0
@x.1063 = common global i32 0
@y.1064 = common global i32 0
@x.1065 = common global i32 0
@y.1066 = common global i32 0
@x.1067 = common global i32 0
@y.1068 = common global i32 0
@x.1069 = common global i32 0
@y.1070 = common global i32 0
@x.1071 = common global i32 0
@y.1072 = common global i32 0
@x.1073 = common global i32 0
@y.1074 = common global i32 0
@x.1075 = common global i32 0
@y.1076 = common global i32 0
@x.1077 = common global i32 0
@y.1078 = common global i32 0
@x.1079 = common global i32 0
@y.1080 = common global i32 0
@x.1081 = common global i32 0
@y.1082 = common global i32 0
@x.1083 = common global i32 0
@y.1084 = common global i32 0
@x.1085 = common global i32 0
@y.1086 = common global i32 0
@x.1087 = common global i32 0
@y.1088 = common global i32 0
@x.1089 = common global i32 0
@y.1090 = common global i32 0
@x.1091 = common global i32 0
@y.1092 = common global i32 0
@x.1093 = common global i32 0
@y.1094 = common global i32 0
@x.1095 = common global i32 0
@y.1096 = common global i32 0
@x.1097 = common global i32 0
@y.1098 = common global i32 0
@x.1099 = common global i32 0
@y.1100 = common global i32 0
@x.1101 = common global i32 0
@y.1102 = common global i32 0
@x.1103 = common global i32 0
@y.1104 = common global i32 0
@x.1105 = common global i32 0
@y.1106 = common global i32 0
@x.1107 = common global i32 0
@y.1108 = common global i32 0
@x.1109 = common global i32 0
@y.1110 = common global i32 0
@x.1111 = common global i32 0
@y.1112 = common global i32 0
@x.1113 = common global i32 0
@y.1114 = common global i32 0
@x.1115 = common global i32 0
@y.1116 = common global i32 0
@x.1117 = common global i32 0
@y.1118 = common global i32 0
@x.1119 = common global i32 0
@y.1120 = common global i32 0
@x.1121 = common global i32 0
@y.1122 = common global i32 0
@x.1123 = common global i32 0
@y.1124 = common global i32 0
@x.1125 = common global i32 0
@y.1126 = common global i32 0
@x.1127 = common global i32 0
@y.1128 = common global i32 0
@x.1129 = common global i32 0
@y.1130 = common global i32 0
@x.1131 = common global i32 0
@y.1132 = common global i32 0
@x.1133 = common global i32 0
@y.1134 = common global i32 0
@x.1135 = common global i32 0
@y.1136 = common global i32 0
@x.1137 = common global i32 0
@y.1138 = common global i32 0
@x.1139 = common global i32 0
@y.1140 = common global i32 0
@x.1141 = common global i32 0
@y.1142 = common global i32 0
@x.1143 = common global i32 0
@y.1144 = common global i32 0
@x.1145 = common global i32 0
@y.1146 = common global i32 0
@x.1147 = common global i32 0
@y.1148 = common global i32 0
@x.1149 = common global i32 0
@y.1150 = common global i32 0
@x.1151 = common global i32 0
@y.1152 = common global i32 0
@x.1153 = common global i32 0
@y.1154 = common global i32 0
@x.1155 = common global i32 0
@y.1156 = common global i32 0
@x.1157 = common global i32 0
@y.1158 = common global i32 0
@x.1159 = common global i32 0
@y.1160 = common global i32 0
@x.1161 = common global i32 0
@y.1162 = common global i32 0
@x.1163 = common global i32 0
@y.1164 = common global i32 0
@x.1165 = common global i32 0
@y.1166 = common global i32 0
@x.1167 = common global i32 0
@y.1168 = common global i32 0
@x.1169 = common global i32 0
@y.1170 = common global i32 0
@x.1171 = common global i32 0
@y.1172 = common global i32 0
@x.1173 = common global i32 0
@y.1174 = common global i32 0
@x.1175 = common global i32 0
@y.1176 = common global i32 0
@x.1177 = common global i32 0
@y.1178 = common global i32 0
@x.1179 = common global i32 0
@y.1180 = common global i32 0
@x.1181 = common global i32 0
@y.1182 = common global i32 0
@x.1183 = common global i32 0
@y.1184 = common global i32 0
@x.1185 = common global i32 0
@y.1186 = common global i32 0
@x.1187 = common global i32 0
@y.1188 = common global i32 0
@x.1189 = common global i32 0
@y.1190 = common global i32 0
@x.1191 = common global i32 0
@y.1192 = common global i32 0
@x.1193 = common global i32 0
@y.1194 = common global i32 0
@x.1195 = common global i32 0
@y.1196 = common global i32 0
@x.1197 = common global i32 0
@y.1198 = common global i32 0
@x.1199 = common global i32 0
@y.1200 = common global i32 0
@x.1201 = common global i32 0
@y.1202 = common global i32 0
@x.1203 = common global i32 0
@y.1204 = common global i32 0
@x.1205 = common global i32 0
@y.1206 = common global i32 0
@x.1207 = common global i32 0
@y.1208 = common global i32 0
@x.1209 = common global i32 0
@y.1210 = common global i32 0
@x.1211 = common global i32 0
@y.1212 = common global i32 0
@x.1213 = common global i32 0
@y.1214 = common global i32 0
@x.1215 = common global i32 0
@y.1216 = common global i32 0
@x.1217 = common global i32 0
@y.1218 = common global i32 0
@x.1219 = common global i32 0
@y.1220 = common global i32 0
@x.1221 = common global i32 0
@y.1222 = common global i32 0
@x.1223 = common global i32 0
@y.1224 = common global i32 0
@x.1225 = common global i32 0
@y.1226 = common global i32 0
@x.1227 = common global i32 0
@y.1228 = common global i32 0
@x.1229 = common global i32 0
@y.1230 = common global i32 0
@x.1231 = common global i32 0
@y.1232 = common global i32 0
@x.1233 = common global i32 0
@y.1234 = common global i32 0
@x.1235 = common global i32 0
@y.1236 = common global i32 0
@x.1237 = common global i32 0
@y.1238 = common global i32 0
@x.1239 = common global i32 0
@y.1240 = common global i32 0
@x.1241 = common global i32 0
@y.1242 = common global i32 0
@x.1243 = common global i32 0
@y.1244 = common global i32 0
@x.1245 = common global i32 0
@y.1246 = common global i32 0
@x.1247 = common global i32 0
@y.1248 = common global i32 0
@x.1249 = common global i32 0
@y.1250 = common global i32 0
@x.1251 = common global i32 0
@y.1252 = common global i32 0
@x.1253 = common global i32 0
@y.1254 = common global i32 0
@x.1255 = common global i32 0
@y.1256 = common global i32 0
@x.1257 = common global i32 0
@y.1258 = common global i32 0
@x.1259 = common global i32 0
@y.1260 = common global i32 0
@x.1261 = common global i32 0
@y.1262 = common global i32 0
@x.1263 = common global i32 0
@y.1264 = common global i32 0
@x.1265 = common global i32 0
@y.1266 = common global i32 0
@x.1267 = common global i32 0
@y.1268 = common global i32 0
@x.1269 = common global i32 0
@y.1270 = common global i32 0
@x.1271 = common global i32 0
@y.1272 = common global i32 0
@x.1273 = common global i32 0
@y.1274 = common global i32 0
@x.1275 = common global i32 0
@y.1276 = common global i32 0
@x.1277 = common global i32 0
@y.1278 = common global i32 0
@x.1279 = common global i32 0
@y.1280 = common global i32 0
@x.1281 = common global i32 0
@y.1282 = common global i32 0

; Function Attrs: noinline uwtable
define internal void @__cxx_global_var_init() #0 section ".text.startup" {
  call void @_ZNSt8ios_base4InitC1Ev(%"class.std::ios_base::Init"* @_ZStL8__ioinit)
  %1 = call i32 @__cxa_atexit(void (i8*)* bitcast (void (%"class.std::ios_base::Init"*)* @_ZNSt8ios_base4InitD1Ev to void (i8*)*), i8* getelementptr inbounds (%"class.std::ios_base::Init", %"class.std::ios_base::Init"* @_ZStL8__ioinit, i32 0, i32 0), i8* @__dso_handle) #3
  ret void
}

declare void @_ZNSt8ios_base4InitC1Ev(%"class.std::ios_base::Init"*) unnamed_addr #1

; Function Attrs: nounwind
declare void @_ZNSt8ios_base4InitD1Ev(%"class.std::ios_base::Init"*) unnamed_addr #2

; Function Attrs: nounwind
declare i32 @__cxa_atexit(void (i8*)*, i8*, i8*) #3

; Function Attrs: noinline uwtable
define void @_Z8cout_ynlb(i1 zeroext) #0 {
  %2 = alloca i8, align 1
  %3 = zext i1 %0 to i8
  store i8 %3, i8* %2, align 1
  %4 = load i8, i8* %2, align 1
  %5 = trunc i8 %4 to i1
  %6 = select i1 %5, i8* getelementptr inbounds ([4 x i8], [4 x i8]* @.str, i32 0, i32 0), i8* getelementptr inbounds ([3 x i8], [3 x i8]* @.str.1, i32 0, i32 0)
  %7 = call dereferenceable(272) %"class.std::basic_ostream"* @_ZStlsISt11char_traitsIcEERSt13basic_ostreamIcT_ES5_PKc(%"class.std::basic_ostream"* dereferenceable(272) @_ZSt4cout, i8* %6)
  %8 = call dereferenceable(272) %"class.std::basic_ostream"* @_ZNSolsEPFRSoS_E(%"class.std::basic_ostream"* %7, %"class.std::basic_ostream"* (%"class.std::basic_ostream"*)* @_ZSt4endlIcSt11char_traitsIcEERSt13basic_ostreamIT_T0_ES6_)
  ret void
}

declare dereferenceable(272) %"class.std::basic_ostream"* @_ZStlsISt11char_traitsIcEERSt13basic_ostreamIcT_ES5_PKc(%"class.std::basic_ostream"* dereferenceable(272), i8*) #1

declare dereferenceable(272) %"class.std::basic_ostream"* @_ZNSolsEPFRSoS_E(%"class.std::basic_ostream"*, %"class.std::basic_ostream"* (%"class.std::basic_ostream"*)*) #1

declare dereferenceable(272) %"class.std::basic_ostream"* @_ZSt4endlIcSt11char_traitsIcEERSt13basic_ostreamIT_T0_ES6_(%"class.std::basic_ostream"* dereferenceable(272)) #1

; Function Attrs: noinline uwtable
define void @_Z8cout_YNUb(i1 zeroext) #0 {
  %2 = alloca i8, align 1
  %3 = zext i1 %0 to i8
  store i8 %3, i8* %2, align 1
  %4 = load i8, i8* %2, align 1
  %5 = trunc i8 %4 to i1
  %6 = select i1 %5, i8* getelementptr inbounds ([4 x i8], [4 x i8]* @.str.2, i32 0, i32 0), i8* getelementptr inbounds ([3 x i8], [3 x i8]* @.str.3, i32 0, i32 0)
  %7 = call dereferenceable(272) %"class.std::basic_ostream"* @_ZStlsISt11char_traitsIcEERSt13basic_ostreamIcT_ES5_PKc(%"class.std::basic_ostream"* dereferenceable(272) @_ZSt4cout, i8* %6)
  %8 = call dereferenceable(272) %"class.std::basic_ostream"* @_ZNSolsEPFRSoS_E(%"class.std::basic_ostream"* %7, %"class.std::basic_ostream"* (%"class.std::basic_ostream"*)* @_ZSt4endlIcSt11char_traitsIcEERSt13basic_ostreamIT_T0_ES6_)
  ret void
}

; Function Attrs: noinline nounwind uwtable
define i32 @_Z4ctoic(i8 signext) #4 {
  %2 = alloca i1
  %3 = alloca i8*
  %4 = alloca i32*
  %5 = alloca i1
  %6 = alloca i1
  %7 = load i32, i32* @x.19
  %8 = load i32, i32* @y.20
  %9 = sub i32 %7, -1398489493
  %10 = sub i32 %9, 1
  %11 = add i32 %10, -1398489493
  %12 = sub i32 %7, 1
  %13 = mul i32 %7, %11
  %14 = urem i32 %13, 2
  %15 = icmp eq i32 %14, 0
  store i1 %15, i1* %6
  %16 = icmp slt i32 %8, 10
  store i1 %16, i1* %5
  %17 = alloca i32
  store i32 -459153095, i32* %17
  br label %18

; <label>:18:                                     ; preds = %1, %261
  %19 = load i32, i32* %17
  switch i32 %19, label %20 [
    i32 -459153095, label %21
    i32 -1936102262, label %41
    i32 -2058186744, label %77
    i32 -122631460, label %80
    i32 -737034438, label %89
    i32 406475981, label %96
    i32 778597882, label %111
    i32 814776492, label %147
    i32 -2111139223, label %148
    i32 568140984, label %155
    i32 -1391463617, label %164
    i32 408632495, label %179
    i32 413332883, label %208
    i32 -741656084, label %209
    i32 1018045051, label %212
    i32 911091137, label %219
    i32 356010515, label %259
  ]

; <label>:20:                                     ; preds = %18
  br label %261

; <label>:21:                                     ; preds = %18
  %22 = load volatile i1, i1* %6
  %23 = load volatile i1, i1* %5
  %24 = xor i1 %22, true
  %25 = xor i1 %23, true
  %26 = xor i1 true, true
  %27 = and i1 %24, true
  %28 = and i1 %22, %26
  %29 = and i1 %25, true
  %30 = and i1 %23, %26
  %31 = or i1 %27, %28
  %32 = or i1 %29, %30
  %33 = xor i1 %31, %32
  %34 = or i1 %24, %25
  %35 = xor i1 %34, true
  %36 = or i1 true, %26
  %37 = and i1 %35, %36
  %38 = or i1 %33, %37
  %39 = or i1 %22, %23
  %40 = select i1 %38, i32 -1936102262, i32 1018045051
  store i32 %40, i32* %17
  br label %261

; <label>:41:                                     ; preds = %18
  %42 = alloca i32, align 4
  store i32* %42, i32** %4
  %43 = alloca i8, align 1
  store i8* %43, i8** %3
  %44 = load volatile i8*, i8** %3
  store i8 %0, i8* %44, align 1
  %45 = load volatile i8*, i8** %3
  %46 = load i8, i8* %45, align 1
  %47 = sext i8 %46 to i32
  %48 = call i32 @isdigit(i32 %47) #13
  %49 = icmp ne i32 %48, 0
  store i1 %49, i1* %2
  %50 = load i32, i32* @x.19
  %51 = load i32, i32* @y.20
  %52 = add i32 %50, 2103162415
  %53 = sub i32 %52, 1
  %54 = sub i32 %53, 2103162415
  %55 = sub i32 %50, 1
  %56 = mul i32 %50, %54
  %57 = urem i32 %56, 2
  %58 = icmp eq i32 %57, 0
  %59 = icmp slt i32 %51, 10
  %60 = xor i1 %58, true
  %61 = xor i1 %59, true
  %62 = xor i1 false, true
  %63 = and i1 %60, false
  %64 = and i1 %58, %62
  %65 = and i1 %61, false
  %66 = and i1 %59, %62
  %67 = or i1 %63, %64
  %68 = or i1 %65, %66
  %69 = xor i1 %67, %68
  %70 = or i1 %60, %61
  %71 = xor i1 %70, true
  %72 = or i1 false, %62
  %73 = and i1 %71, %72
  %74 = or i1 %69, %73
  %75 = or i1 %58, %59
  %76 = select i1 %74, i32 -2058186744, i32 1018045051
  store i32 %76, i32* %17
  br label %261

; <label>:77:                                     ; preds = %18
  %78 = load volatile i1, i1* %2
  %79 = select i1 %78, i32 -122631460, i32 -737034438
  store i32 %79, i32* %17
  br label %261

; <label>:80:                                     ; preds = %18
  %81 = load volatile i8*, i8** %3
  %82 = load i8, i8* %81, align 1
  %83 = sext i8 %82 to i32
  %84 = sub i32 %83, -684748597
  %85 = sub i32 %84, 48
  %86 = add i32 %85, -684748597
  %87 = sub nsw i32 %83, 48
  %88 = load volatile i32*, i32** %4
  store i32 %86, i32* %88, align 4
  store i32 -741656084, i32* %17
  br label %261

; <label>:89:                                     ; preds = %18
  %90 = load volatile i8*, i8** %3
  %91 = load i8, i8* %90, align 1
  %92 = sext i8 %91 to i32
  %93 = call i32 @islower(i32 %92) #13
  %94 = icmp ne i32 %93, 0
  %95 = select i1 %94, i32 406475981, i32 -2111139223
  store i32 %95, i32* %17
  br label %261

; <label>:96:                                     ; preds = %18
  %97 = load i32, i32* @x.19
  %98 = load i32, i32* @y.20
  %99 = sub i32 0, 1
  %100 = add i32 %97, %99
  %101 = sub i32 %97, 1
  %102 = mul i32 %97, %100
  %103 = urem i32 %102, 2
  %104 = icmp eq i32 %103, 0
  %105 = icmp slt i32 %98, 10
  %106 = and i1 %104, %105
  %107 = xor i1 %104, %105
  %108 = or i1 %106, %107
  %109 = or i1 %104, %105
  %110 = select i1 %108, i32 778597882, i32 911091137
  store i32 %110, i32* %17
  br label %261

; <label>:111:                                    ; preds = %18
  %112 = load volatile i8*, i8** %3
  %113 = load i8, i8* %112, align 1
  %114 = sext i8 %113 to i32
  %115 = sub i32 %114, 65105195
  %116 = sub i32 %115, 97
  %117 = add i32 %116, 65105195
  %118 = sub nsw i32 %114, 97
  %119 = load volatile i32*, i32** %4
  store i32 %117, i32* %119, align 4
  %120 = load i32, i32* @x.19
  %121 = load i32, i32* @y.20
  %122 = sub i32 %120, -827616632
  %123 = sub i32 %122, 1
  %124 = add i32 %123, -827616632
  %125 = sub i32 %120, 1
  %126 = mul i32 %120, %124
  %127 = urem i32 %126, 2
  %128 = icmp eq i32 %127, 0
  %129 = icmp slt i32 %121, 10
  %130 = xor i1 %128, true
  %131 = xor i1 %129, true
  %132 = xor i1 true, true
  %133 = and i1 %130, true
  %134 = and i1 %128, %132
  %135 = and i1 %131, true
  %136 = and i1 %129, %132
  %137 = or i1 %133, %134
  %138 = or i1 %135, %136
  %139 = xor i1 %137, %138
  %140 = or i1 %130, %131
  %141 = xor i1 %140, true
  %142 = or i1 true, %132
  %143 = and i1 %141, %142
  %144 = or i1 %139, %143
  %145 = or i1 %128, %129
  %146 = select i1 %144, i32 814776492, i32 911091137
  store i32 %146, i32* %17
  br label %261

; <label>:147:                                    ; preds = %18
  store i32 -741656084, i32* %17
  br label %261

; <label>:148:                                    ; preds = %18
  %149 = load volatile i8*, i8** %3
  %150 = load i8, i8* %149, align 1
  %151 = sext i8 %150 to i32
  %152 = call i32 @isupper(i32 %151) #13
  %153 = icmp ne i32 %152, 0
  %154 = select i1 %153, i32 568140984, i32 -1391463617
  store i32 %154, i32* %17
  br label %261

; <label>:155:                                    ; preds = %18
  %156 = load volatile i8*, i8** %3
  %157 = load i8, i8* %156, align 1
  %158 = sext i8 %157 to i32
  %159 = add i32 %158, 2098946331
  %160 = sub i32 %159, 65
  %161 = sub i32 %160, 2098946331
  %162 = sub nsw i32 %158, 65
  %163 = load volatile i32*, i32** %4
  store i32 %161, i32* %163, align 4
  store i32 -741656084, i32* %17
  br label %261

; <label>:164:                                    ; preds = %18
  %165 = load i32, i32* @x.19
  %166 = load i32, i32* @y.20
  %167 = sub i32 0, 1
  %168 = add i32 %165, %167
  %169 = sub i32 %165, 1
  %170 = mul i32 %165, %168
  %171 = urem i32 %170, 2
  %172 = icmp eq i32 %171, 0
  %173 = icmp slt i32 %166, 10
  %174 = and i1 %172, %173
  %175 = xor i1 %172, %173
  %176 = or i1 %174, %175
  %177 = or i1 %172, %173
  %178 = select i1 %176, i32 408632495, i32 356010515
  store i32 %178, i32* %17
  br label %261

; <label>:179:                                    ; preds = %18
  %180 = load volatile i32*, i32** %4
  store i32 -1, i32* %180, align 4
  %181 = load i32, i32* @x.19
  %182 = load i32, i32* @y.20
  %183 = sub i32 %181, 660038936
  %184 = sub i32 %183, 1
  %185 = add i32 %184, 660038936
  %186 = sub i32 %181, 1
  %187 = mul i32 %181, %185
  %188 = urem i32 %187, 2
  %189 = icmp eq i32 %188, 0
  %190 = icmp slt i32 %182, 10
  %191 = xor i1 %189, true
  %192 = xor i1 %190, true
  %193 = xor i1 false, true
  %194 = and i1 %191, false
  %195 = and i1 %189, %193
  %196 = and i1 %192, false
  %197 = and i1 %190, %193
  %198 = or i1 %194, %195
  %199 = or i1 %196, %197
  %200 = xor i1 %198, %199
  %201 = or i1 %191, %192
  %202 = xor i1 %201, true
  %203 = or i1 false, %193
  %204 = and i1 %202, %203
  %205 = or i1 %200, %204
  %206 = or i1 %189, %190
  %207 = select i1 %205, i32 413332883, i32 356010515
  store i32 %207, i32* %17
  br label %261

; <label>:208:                                    ; preds = %18
  store i32 -741656084, i32* %17
  br label %261

; <label>:209:                                    ; preds = %18
  %210 = load volatile i32*, i32** %4
  %211 = load i32, i32* %210, align 4
  ret i32 %211

; <label>:212:                                    ; preds = %18
  %213 = alloca i32, align 4
  %214 = alloca i8, align 1
  store i8 %0, i8* %214, align 1
  %215 = load i8, i8* %214, align 1
  %216 = sext i8 %215 to i32
  %217 = call i32 @isdigit(i32 %216) #13
  %218 = icmp ne i32 %217, 0
  store i32 -1936102262, i32* %17
  br label %261

; <label>:219:                                    ; preds = %18
  %220 = load volatile i8*, i8** %3
  %221 = load i8, i8* %220, align 1
  %222 = sext i8 %221 to i32
  %223 = shl i32 %222, 97
  %224 = shl i32 %222, 97
  %225 = sub i32 %222, 155849886
  %226 = sub i32 %225, 97
  %227 = add i32 %226, 155849886
  %228 = sub i32 %222, 97
  %229 = mul i32 %227, 97
  %230 = sub i32 0, -1991325134
  %231 = sub i32 %230, %222
  %232 = add i32 %231, -1991325134
  %233 = sub i32 0, %222
  %234 = sub i32 0, %232
  %235 = sub i32 0, 97
  %236 = add i32 %234, %235
  %237 = sub i32 0, %236
  %238 = add i32 %232, 97
  %239 = sub i32 0, 97
  %240 = add i32 %222, %239
  %241 = sub i32 %222, 97
  %242 = mul i32 %240, 97
  %243 = add i32 %222, 231778951
  %244 = sub i32 %243, 97
  %245 = sub i32 %244, 231778951
  %246 = sub i32 %222, 97
  %247 = mul i32 %245, 97
  %248 = shl i32 %222, 97
  %249 = sub i32 %222, -1687691150
  %250 = sub i32 %249, 97
  %251 = add i32 %250, -1687691150
  %252 = sub i32 %222, 97
  %253 = mul i32 %251, 97
  %254 = add i32 %222, -1946711238
  %255 = sub i32 %254, 97
  %256 = sub i32 %255, -1946711238
  %257 = sub nsw i32 %222, 97
  %258 = load volatile i32*, i32** %4
  store i32 %256, i32* %258, align 4
  store i32 778597882, i32* %17
  br label %261

; <label>:259:                                    ; preds = %18
  %260 = load volatile i32*, i32** %4
  store i32 -1, i32* %260, align 4
  store i32 408632495, i32* %17
  br label %261

; <label>:261:                                    ; preds = %259, %219, %212, %208, %179, %164, %155, %148, %147, %111, %96, %89, %80, %77, %41, %21, %20
  br label %18
}

; Function Attrs: nounwind readonly
declare i32 @isdigit(i32) #5

; Function Attrs: nounwind readonly
declare i32 @islower(i32) #5

; Function Attrs: nounwind readonly
declare i32 @isupper(i32) #5

; Function Attrs: noinline nounwind uwtable
define signext i8 @_Z5itocdi(i32) #4 {
  %2 = alloca i8
  %3 = alloca i32
  %4 = alloca i8, align 1
  %5 = alloca i32, align 4
  %6 = alloca i8, align 1
  store i32 %0, i32* %5, align 4
  %7 = load i32, i32* %5, align 4
  %8 = sub i32 %7, 1284735601
  %9 = add i32 %8, 48
  %10 = add i32 %9, 1284735601
  %11 = add nsw i32 %7, 48
  %12 = trunc i32 %10 to i8
  store i8 %12, i8* %6, align 1
  %13 = load i8, i8* %6, align 1
  %14 = sext i8 %13 to i32
  %15 = call i32 @isdigit(i32 %14) #13
  store i32 %15, i32* %3
  %16 = alloca i32
  store i32 -1238468897, i32* %16
  br label %17

; <label>:17:                                     ; preds = %1, %142
  %18 = load i32, i32* %16
  switch i32 %18, label %19 [
    i32 -1238468897, label %20
    i32 828196113, label %24
    i32 -1179759056, label %26
    i32 -1955724051, label %53
    i32 593387788, label %80
    i32 -1754302878, label %81
    i32 1122927775, label %108
    i32 569515265, label %137
    i32 778552567, label %139
    i32 1872989346, label %140
  ]

; <label>:19:                                     ; preds = %17
  br label %142

; <label>:20:                                     ; preds = %17
  %21 = load volatile i32, i32* %3
  %22 = icmp ne i32 %21, 0
  %23 = select i1 %22, i32 828196113, i32 -1179759056
  store i32 %23, i32* %16
  br label %142

; <label>:24:                                     ; preds = %17
  %25 = load i8, i8* %6, align 1
  store i8 %25, i8* %4, align 1
  store i32 -1754302878, i32* %16
  br label %142

; <label>:26:                                     ; preds = %17
  %27 = load i32, i32* @x.21
  %28 = load i32, i32* @y.22
  %29 = sub i32 0, 1
  %30 = add i32 %27, %29
  %31 = sub i32 %27, 1
  %32 = mul i32 %27, %30
  %33 = urem i32 %32, 2
  %34 = icmp eq i32 %33, 0
  %35 = icmp slt i32 %28, 10
  %36 = xor i1 %34, true
  %37 = xor i1 %35, true
  %38 = xor i1 true, true
  %39 = and i1 %36, true
  %40 = and i1 %34, %38
  %41 = and i1 %37, true
  %42 = and i1 %35, %38
  %43 = or i1 %39, %40
  %44 = or i1 %41, %42
  %45 = xor i1 %43, %44
  %46 = or i1 %36, %37
  %47 = xor i1 %46, true
  %48 = or i1 true, %38
  %49 = and i1 %47, %48
  %50 = or i1 %45, %49
  %51 = or i1 %34, %35
  %52 = select i1 %50, i32 -1955724051, i32 778552567
  store i32 %52, i32* %16
  br label %142

; <label>:53:                                     ; preds = %17
  store i8 0, i8* %4, align 1
  %54 = load i32, i32* @x.21
  %55 = load i32, i32* @y.22
  %56 = sub i32 0, 1
  %57 = add i32 %54, %56
  %58 = sub i32 %54, 1
  %59 = mul i32 %54, %57
  %60 = urem i32 %59, 2
  %61 = icmp eq i32 %60, 0
  %62 = icmp slt i32 %55, 10
  %63 = xor i1 %61, true
  %64 = xor i1 %62, true
  %65 = xor i1 true, true
  %66 = and i1 %63, true
  %67 = and i1 %61, %65
  %68 = and i1 %64, true
  %69 = and i1 %62, %65
  %70 = or i1 %66, %67
  %71 = or i1 %68, %69
  %72 = xor i1 %70, %71
  %73 = or i1 %63, %64
  %74 = xor i1 %73, true
  %75 = or i1 true, %65
  %76 = and i1 %74, %75
  %77 = or i1 %72, %76
  %78 = or i1 %61, %62
  %79 = select i1 %77, i32 593387788, i32 778552567
  store i32 %79, i32* %16
  br label %142

; <label>:80:                                     ; preds = %17
  store i32 -1754302878, i32* %16
  br label %142

; <label>:81:                                     ; preds = %17
  %82 = load i32, i32* @x.21
  %83 = load i32, i32* @y.22
  %84 = sub i32 0, 1
  %85 = add i32 %82, %84
  %86 = sub i32 %82, 1
  %87 = mul i32 %82, %85
  %88 = urem i32 %87, 2
  %89 = icmp eq i32 %88, 0
  %90 = icmp slt i32 %83, 10
  %91 = xor i1 %89, true
  %92 = xor i1 %90, true
  %93 = xor i1 true, true
  %94 = and i1 %91, true
  %95 = and i1 %89, %93
  %96 = and i1 %92, true
  %97 = and i1 %90, %93
  %98 = or i1 %94, %95
  %99 = or i1 %96, %97
  %100 = xor i1 %98, %99
  %101 = or i1 %91, %92
  %102 = xor i1 %101, true
  %103 = or i1 true, %93
  %104 = and i1 %102, %103
  %105 = or i1 %100, %104
  %106 = or i1 %89, %90
  %107 = select i1 %105, i32 1122927775, i32 1872989346
  store i32 %107, i32* %16
  br label %142

; <label>:108:                                    ; preds = %17
  %109 = load i8, i8* %4, align 1
  store i8 %109, i8* %2
  %110 = load i32, i32* @x.21
  %111 = load i32, i32* @y.22
  %112 = sub i32 %110, -140680839
  %113 = sub i32 %112, 1
  %114 = add i32 %113, -140680839
  %115 = sub i32 %110, 1
  %116 = mul i32 %110, %114
  %117 = urem i32 %116, 2
  %118 = icmp eq i32 %117, 0
  %119 = icmp slt i32 %111, 10
  %120 = xor i1 %118, true
  %121 = xor i1 %119, true
  %122 = xor i1 true, true
  %123 = and i1 %120, true
  %124 = and i1 %118, %122
  %125 = and i1 %121, true
  %126 = and i1 %119, %122
  %127 = or i1 %123, %124
  %128 = or i1 %125, %126
  %129 = xor i1 %127, %128
  %130 = or i1 %120, %121
  %131 = xor i1 %130, true
  %132 = or i1 true, %122
  %133 = and i1 %131, %132
  %134 = or i1 %129, %133
  %135 = or i1 %118, %119
  %136 = select i1 %134, i32 569515265, i32 1872989346
  store i32 %136, i32* %16
  br label %142

; <label>:137:                                    ; preds = %17
  %138 = load volatile i8, i8* %2
  ret i8 %138

; <label>:139:                                    ; preds = %17
  store i8 0, i8* %4, align 1
  store i32 -1955724051, i32* %16
  br label %142

; <label>:140:                                    ; preds = %17
  %141 = load i8, i8* %4, align 1
  store i32 1122927775, i32* %16
  br label %142

; <label>:142:                                    ; preds = %140, %139, %108, %81, %80, %53, %26, %24, %20, %19
  br label %17
}

; Function Attrs: noinline nounwind uwtable
define signext i8 @_Z5itocli(i32) #4 {
  %2 = alloca i32
  %3 = alloca i8, align 1
  %4 = alloca i32, align 4
  %5 = alloca i8, align 1
  store i32 %0, i32* %4, align 4
  %6 = load i32, i32* %4, align 4
  %7 = sub i32 %6, -1808001107
  %8 = add i32 %7, 97
  %9 = add i32 %8, -1808001107
  %10 = add nsw i32 %6, 97
  %11 = trunc i32 %9 to i8
  store i8 %11, i8* %5, align 1
  %12 = load i8, i8* %5, align 1
  %13 = sext i8 %12 to i32
  %14 = call i32 @islower(i32 %13) #13
  store i32 %14, i32* %2
  %15 = alloca i32
  store i32 -2117468925, i32* %15
  br label %16

; <label>:16:                                     ; preds = %1, %28
  %17 = load i32, i32* %15
  switch i32 %17, label %18 [
    i32 -2117468925, label %19
    i32 1342240038, label %23
    i32 -1701592480, label %25
    i32 -1831300597, label %26
  ]

; <label>:18:                                     ; preds = %16
  br label %28

; <label>:19:                                     ; preds = %16
  %20 = load volatile i32, i32* %2
  %21 = icmp ne i32 %20, 0
  %22 = select i1 %21, i32 1342240038, i32 -1701592480
  store i32 %22, i32* %15
  br label %28

; <label>:23:                                     ; preds = %16
  %24 = load i8, i8* %5, align 1
  store i8 %24, i8* %3, align 1
  store i32 -1831300597, i32* %15
  br label %28

; <label>:25:                                     ; preds = %16
  store i8 0, i8* %3, align 1
  store i32 -1831300597, i32* %15
  br label %28

; <label>:26:                                     ; preds = %16
  %27 = load i8, i8* %3, align 1
  ret i8 %27

; <label>:28:                                     ; preds = %25, %23, %19, %18
  br label %16
}

; Function Attrs: noinline nounwind uwtable
define signext i8 @_Z5itocui(i32) #4 {
  %2 = alloca i8
  %3 = alloca i32
  %4 = alloca i8, align 1
  %5 = alloca i32, align 4
  %6 = alloca i8, align 1
  store i32 %0, i32* %5, align 4
  %7 = load i32, i32* %5, align 4
  %8 = sub i32 0, %7
  %9 = sub i32 0, 65
  %10 = add i32 %8, %9
  %11 = sub i32 0, %10
  %12 = add nsw i32 %7, 65
  %13 = trunc i32 %11 to i8
  store i8 %13, i8* %6, align 1
  %14 = load i8, i8* %6, align 1
  %15 = sext i8 %14 to i32
  %16 = call i32 @isupper(i32 %15) #13
  store i32 %16, i32* %3
  %17 = alloca i32
  store i32 -1986664234, i32* %17
  br label %18

; <label>:18:                                     ; preds = %1, %122
  %19 = load i32, i32* %17
  switch i32 %19, label %20 [
    i32 -1986664234, label %21
    i32 418907344, label %25
    i32 -427066270, label %27
    i32 -1341987050, label %55
    i32 -898155811, label %71
    i32 -1643216612, label %72
    i32 908563113, label %88
    i32 626359713, label %117
    i32 1486948287, label %119
    i32 1813193834, label %120
  ]

; <label>:20:                                     ; preds = %18
  br label %122

; <label>:21:                                     ; preds = %18
  %22 = load volatile i32, i32* %3
  %23 = icmp ne i32 %22, 0
  %24 = select i1 %23, i32 418907344, i32 -427066270
  store i32 %24, i32* %17
  br label %122

; <label>:25:                                     ; preds = %18
  %26 = load i8, i8* %6, align 1
  store i8 %26, i8* %4, align 1
  store i32 -1643216612, i32* %17
  br label %122

; <label>:27:                                     ; preds = %18
  %28 = load i32, i32* @x.25
  %29 = load i32, i32* @y.26
  %30 = sub i32 %28, -1936868054
  %31 = sub i32 %30, 1
  %32 = add i32 %31, -1936868054
  %33 = sub i32 %28, 1
  %34 = mul i32 %28, %32
  %35 = urem i32 %34, 2
  %36 = icmp eq i32 %35, 0
  %37 = icmp slt i32 %29, 10
  %38 = xor i1 %36, true
  %39 = xor i1 %37, true
  %40 = xor i1 true, true
  %41 = and i1 %38, true
  %42 = and i1 %36, %40
  %43 = and i1 %39, true
  %44 = and i1 %37, %40
  %45 = or i1 %41, %42
  %46 = or i1 %43, %44
  %47 = xor i1 %45, %46
  %48 = or i1 %38, %39
  %49 = xor i1 %48, true
  %50 = or i1 true, %40
  %51 = and i1 %49, %50
  %52 = or i1 %47, %51
  %53 = or i1 %36, %37
  %54 = select i1 %52, i32 -1341987050, i32 1486948287
  store i32 %54, i32* %17
  br label %122

; <label>:55:                                     ; preds = %18
  store i8 0, i8* %4, align 1
  %56 = load i32, i32* @x.25
  %57 = load i32, i32* @y.26
  %58 = add i32 %56, 494139752
  %59 = sub i32 %58, 1
  %60 = sub i32 %59, 494139752
  %61 = sub i32 %56, 1
  %62 = mul i32 %56, %60
  %63 = urem i32 %62, 2
  %64 = icmp eq i32 %63, 0
  %65 = icmp slt i32 %57, 10
  %66 = and i1 %64, %65
  %67 = xor i1 %64, %65
  %68 = or i1 %66, %67
  %69 = or i1 %64, %65
  %70 = select i1 %68, i32 -898155811, i32 1486948287
  store i32 %70, i32* %17
  br label %122

; <label>:71:                                     ; preds = %18
  store i32 -1643216612, i32* %17
  br label %122

; <label>:72:                                     ; preds = %18
  %73 = load i32, i32* @x.25
  %74 = load i32, i32* @y.26
  %75 = add i32 %73, -1767314444
  %76 = sub i32 %75, 1
  %77 = sub i32 %76, -1767314444
  %78 = sub i32 %73, 1
  %79 = mul i32 %73, %77
  %80 = urem i32 %79, 2
  %81 = icmp eq i32 %80, 0
  %82 = icmp slt i32 %74, 10
  %83 = and i1 %81, %82
  %84 = xor i1 %81, %82
  %85 = or i1 %83, %84
  %86 = or i1 %81, %82
  %87 = select i1 %85, i32 908563113, i32 1813193834
  store i32 %87, i32* %17
  br label %122

; <label>:88:                                     ; preds = %18
  %89 = load i8, i8* %4, align 1
  store i8 %89, i8* %2
  %90 = load i32, i32* @x.25
  %91 = load i32, i32* @y.26
  %92 = sub i32 %90, -1702996497
  %93 = sub i32 %92, 1
  %94 = add i32 %93, -1702996497
  %95 = sub i32 %90, 1
  %96 = mul i32 %90, %94
  %97 = urem i32 %96, 2
  %98 = icmp eq i32 %97, 0
  %99 = icmp slt i32 %91, 10
  %100 = xor i1 %98, true
  %101 = xor i1 %99, true
  %102 = xor i1 true, true
  %103 = and i1 %100, true
  %104 = and i1 %98, %102
  %105 = and i1 %101, true
  %106 = and i1 %99, %102
  %107 = or i1 %103, %104
  %108 = or i1 %105, %106
  %109 = xor i1 %107, %108
  %110 = or i1 %100, %101
  %111 = xor i1 %110, true
  %112 = or i1 true, %102
  %113 = and i1 %111, %112
  %114 = or i1 %109, %113
  %115 = or i1 %98, %99
  %116 = select i1 %114, i32 626359713, i32 1813193834
  store i32 %116, i32* %17
  br label %122

; <label>:117:                                    ; preds = %18
  %118 = load volatile i8, i8* %2
  ret i8 %118

; <label>:119:                                    ; preds = %18
  store i8 0, i8* %4, align 1
  store i32 -1341987050, i32* %17
  br label %122

; <label>:120:                                    ; preds = %18
  %121 = load i8, i8* %4, align 1
  store i32 908563113, i32* %17
  br label %122

; <label>:122:                                    ; preds = %120, %119, %88, %72, %71, %55, %27, %25, %21, %20
  br label %18
}

; Function Attrs: noinline uwtable
define internal void @__cxx_global_var_init.4() #0 section ".text.startup" {
  %1 = alloca i1
  %2 = alloca i1
  %3 = load i32, i32* @x.27
  %4 = load i32, i32* @y.28
  %5 = sub i32 0, 1
  %6 = add i32 %3, %5
  %7 = sub i32 %3, 1
  %8 = mul i32 %3, %6
  %9 = urem i32 %8, 2
  %10 = icmp eq i32 %9, 0
  store i1 %10, i1* %2
  %11 = icmp slt i32 %4, 10
  store i1 %11, i1* %1
  %12 = alloca i32
  store i32 -1149716545, i32* %12
  br label %13

; <label>:13:                                     ; preds = %0, %56
  %14 = load i32, i32* %12
  switch i32 %14, label %15 [
    i32 -1149716545, label %16
    i32 -1400520968, label %36
    i32 -918415835, label %53
    i32 131807795, label %54
  ]

; <label>:15:                                     ; preds = %13
  br label %56

; <label>:16:                                     ; preds = %13
  %17 = load volatile i1, i1* %2
  %18 = load volatile i1, i1* %1
  %19 = xor i1 %17, true
  %20 = xor i1 %18, true
  %21 = xor i1 false, true
  %22 = and i1 %19, false
  %23 = and i1 %17, %21
  %24 = and i1 %20, false
  %25 = and i1 %18, %21
  %26 = or i1 %22, %23
  %27 = or i1 %24, %25
  %28 = xor i1 %26, %27
  %29 = or i1 %19, %20
  %30 = xor i1 %29, true
  %31 = or i1 false, %21
  %32 = and i1 %30, %31
  %33 = or i1 %28, %32
  %34 = or i1 %17, %18
  %35 = select i1 %33, i32 -1400520968, i32 131807795
  store i32 %35, i32* %12
  br label %56

; <label>:36:                                     ; preds = %13
  call void @_ZNSt6vectorIS_IiSaIiEESaIS1_EEC2Ev(%"class.std::vector"* @adjMat) #3
  %37 = call i32 @__cxa_atexit(void (i8*)* bitcast (void (%"class.std::vector"*)* @_ZNSt6vectorIS_IiSaIiEESaIS1_EED2Ev to void (i8*)*), i8* bitcast (%"class.std::vector"* @adjMat to i8*), i8* @__dso_handle) #3
  %38 = load i32, i32* @x.27
  %39 = load i32, i32* @y.28
  %40 = add i32 %38, -436812308
  %41 = sub i32 %40, 1
  %42 = sub i32 %41, -436812308
  %43 = sub i32 %38, 1
  %44 = mul i32 %38, %42
  %45 = urem i32 %44, 2
  %46 = icmp eq i32 %45, 0
  %47 = icmp slt i32 %39, 10
  %48 = and i1 %46, %47
  %49 = xor i1 %46, %47
  %50 = or i1 %48, %49
  %51 = or i1 %46, %47
  %52 = select i1 %50, i32 -918415835, i32 131807795
  store i32 %52, i32* %12
  br label %56

; <label>:53:                                     ; preds = %13
  ret void

; <label>:54:                                     ; preds = %13
  call void @_ZNSt6vectorIS_IiSaIiEESaIS1_EEC2Ev(%"class.std::vector"* @adjMat) #3
  %55 = call i32 @__cxa_atexit(void (i8*)* bitcast (void (%"class.std::vector"*)* @_ZNSt6vectorIS_IiSaIiEESaIS1_EED2Ev to void (i8*)*), i8* bitcast (%"class.std::vector"* @adjMat to i8*), i8* @__dso_handle) #3
  store i32 -1400520968, i32* %12
  br label %56

; <label>:56:                                     ; preds = %54, %36, %16, %15
  br label %13
}

; Function Attrs: noinline nounwind uwtable
define linkonce_odr void @_ZNSt6vectorIS_IiSaIiEESaIS1_EEC2Ev(%"class.std::vector"*) unnamed_addr #4 comdat align 2 personality i8* bitcast (i32 (...)* @__gxx_personality_v0 to i8*) {
  %2 = load i32, i32* @x.29
  %3 = load i32, i32* @y.30
  %4 = add i32 %2, 1026998485
  %5 = sub i32 %4, 1
  %6 = sub i32 %5, 1026998485
  %7 = sub i32 %2, 1
  %8 = mul i32 %2, %6
  %9 = urem i32 %8, 2
  %10 = icmp eq i32 %9, 0
  %11 = icmp slt i32 %3, 10
  %12 = and i1 %10, %11
  %13 = xor i1 %10, %11
  %14 = or i1 %12, %13
  %15 = or i1 %10, %11
  br i1 %14, label %16, label %111

; <label>:16:                                     ; preds = %1, %111
  %17 = alloca %"class.std::vector"*, align 8
  store %"class.std::vector"* %0, %"class.std::vector"** %17, align 8
  %18 = load %"class.std::vector"*, %"class.std::vector"** %17, align 8
  %19 = bitcast %"class.std::vector"* %18 to %"struct.std::_Vector_base"*
  %20 = load i32, i32* @x.29
  %21 = load i32, i32* @y.30
  %22 = add i32 %20, 1529158271
  %23 = sub i32 %22, 1
  %24 = sub i32 %23, 1529158271
  %25 = sub i32 %20, 1
  %26 = mul i32 %20, %24
  %27 = urem i32 %26, 2
  %28 = icmp eq i32 %27, 0
  %29 = icmp slt i32 %21, 10
  %30 = xor i1 %28, true
  %31 = xor i1 %29, true
  %32 = xor i1 true, true
  %33 = and i1 %30, true
  %34 = and i1 %28, %32
  %35 = and i1 %31, true
  %36 = and i1 %29, %32
  %37 = or i1 %33, %34
  %38 = or i1 %35, %36
  %39 = xor i1 %37, %38
  %40 = or i1 %30, %31
  %41 = xor i1 %40, true
  %42 = or i1 true, %32
  %43 = and i1 %41, %42
  %44 = or i1 %39, %43
  %45 = or i1 %28, %29
  br i1 %44, label %46, label %111

; <label>:46:                                     ; preds = %16
  invoke void @_ZNSt12_Vector_baseISt6vectorIiSaIiEESaIS2_EEC2Ev(%"struct.std::_Vector_base"* %19)
          to label %47 unwind label %78

; <label>:47:                                     ; preds = %46
  %48 = load i32, i32* @x.29
  %49 = load i32, i32* @y.30
  %50 = add i32 %48, -448635108
  %51 = sub i32 %50, 1
  %52 = sub i32 %51, -448635108
  %53 = sub i32 %48, 1
  %54 = mul i32 %48, %52
  %55 = urem i32 %54, 2
  %56 = icmp eq i32 %55, 0
  %57 = icmp slt i32 %49, 10
  %58 = and i1 %56, %57
  %59 = xor i1 %56, %57
  %60 = or i1 %58, %59
  %61 = or i1 %56, %57
  br i1 %60, label %62, label %115

; <label>:62:                                     ; preds = %47, %115
  %63 = load i32, i32* @x.29
  %64 = load i32, i32* @y.30
  %65 = add i32 %63, -1630977728
  %66 = sub i32 %65, 1
  %67 = sub i32 %66, -1630977728
  %68 = sub i32 %63, 1
  %69 = mul i32 %63, %67
  %70 = urem i32 %69, 2
  %71 = icmp eq i32 %70, 0
  %72 = icmp slt i32 %64, 10
  %73 = and i1 %71, %72
  %74 = xor i1 %71, %72
  %75 = or i1 %73, %74
  %76 = or i1 %71, %72
  br i1 %75, label %77, label %115

; <label>:77:                                     ; preds = %62
  ret void

; <label>:78:                                     ; preds = %46
  %79 = load i32, i32* @x.29
  %80 = load i32, i32* @y.30
  %81 = sub i32 %79, 1400981382
  %82 = sub i32 %81, 1
  %83 = add i32 %82, 1400981382
  %84 = sub i32 %79, 1
  %85 = mul i32 %79, %83
  %86 = urem i32 %85, 2
  %87 = icmp eq i32 %86, 0
  %88 = icmp slt i32 %80, 10
  %89 = and i1 %87, %88
  %90 = xor i1 %87, %88
  %91 = or i1 %89, %90
  %92 = or i1 %87, %88
  br i1 %91, label %93, label %116

; <label>:93:                                     ; preds = %78, %116
  %94 = landingpad { i8*, i32 }
          catch i8* null
  %95 = extractvalue { i8*, i32 } %94, 0
  call void @__clang_call_terminate(i8* %95) #12
  %96 = load i32, i32* @x.29
  %97 = load i32, i32* @y.30
  %98 = sub i32 %96, -990923415
  %99 = sub i32 %98, 1
  %100 = add i32 %99, -990923415
  %101 = sub i32 %96, 1
  %102 = mul i32 %96, %100
  %103 = urem i32 %102, 2
  %104 = icmp eq i32 %103, 0
  %105 = icmp slt i32 %97, 10
  %106 = and i1 %104, %105
  %107 = xor i1 %104, %105
  %108 = or i1 %106, %107
  %109 = or i1 %104, %105
  br i1 %108, label %110, label %116

; <label>:110:                                    ; preds = %93
  unreachable

; <label>:111:                                    ; preds = %16, %1
  %112 = alloca %"class.std::vector"*, align 8
  store %"class.std::vector"* %0, %"class.std::vector"** %112, align 8
  %113 = load %"class.std::vector"*, %"class.std::vector"** %112, align 8
  %114 = bitcast %"class.std::vector"* %113 to %"struct.std::_Vector_base"*
  br label %16

; <label>:115:                                    ; preds = %62, %47
  br label %62

; <label>:116:                                    ; preds = %93, %78
  %117 = landingpad { i8*, i32 }
          catch i8* null
  %118 = extractvalue { i8*, i32 } %117, 0
  call void @__clang_call_terminate(i8* %118) #12
  br label %93
}

; Function Attrs: noinline nounwind uwtable
define linkonce_odr void @_ZNSt6vectorIS_IiSaIiEESaIS1_EED2Ev(%"class.std::vector"*) unnamed_addr #4 comdat align 2 personality i8* bitcast (i32 (...)* @__gxx_personality_v0 to i8*) {
  %2 = load i32, i32* @x.31
  %3 = load i32, i32* @y.32
  %4 = sub i32 0, 1
  %5 = add i32 %2, %4
  %6 = sub i32 %2, 1
  %7 = mul i32 %2, %5
  %8 = urem i32 %7, 2
  %9 = icmp eq i32 %8, 0
  %10 = icmp slt i32 %3, 10
  %11 = and i1 %9, %10
  %12 = xor i1 %9, %10
  %13 = or i1 %11, %12
  %14 = or i1 %9, %10
  br i1 %13, label %15, label %136

; <label>:15:                                     ; preds = %1, %136
  %16 = alloca %"class.std::vector"*, align 8
  %17 = alloca i8*
  %18 = alloca i32
  store %"class.std::vector"* %0, %"class.std::vector"** %16, align 8
  %19 = load %"class.std::vector"*, %"class.std::vector"** %16, align 8
  %20 = bitcast %"class.std::vector"* %19 to %"struct.std::_Vector_base"*
  %21 = getelementptr inbounds %"struct.std::_Vector_base", %"struct.std::_Vector_base"* %20, i32 0, i32 0
  %22 = getelementptr inbounds %"struct.std::_Vector_base<std::vector<int, std::allocator<int> >, std::allocator<std::vector<int, std::allocator<int> > > >::_Vector_impl", %"struct.std::_Vector_base<std::vector<int, std::allocator<int> >, std::allocator<std::vector<int, std::allocator<int> > > >::_Vector_impl"* %21, i32 0, i32 0
  %23 = load %"class.std::vector.0"*, %"class.std::vector.0"** %22, align 8
  %24 = bitcast %"class.std::vector"* %19 to %"struct.std::_Vector_base"*
  %25 = getelementptr inbounds %"struct.std::_Vector_base", %"struct.std::_Vector_base"* %24, i32 0, i32 0
  %26 = getelementptr inbounds %"struct.std::_Vector_base<std::vector<int, std::allocator<int> >, std::allocator<std::vector<int, std::allocator<int> > > >::_Vector_impl", %"struct.std::_Vector_base<std::vector<int, std::allocator<int> >, std::allocator<std::vector<int, std::allocator<int> > > >::_Vector_impl"* %25, i32 0, i32 1
  %27 = load %"class.std::vector.0"*, %"class.std::vector.0"** %26, align 8
  %28 = bitcast %"class.std::vector"* %19 to %"struct.std::_Vector_base"*
  %29 = call dereferenceable(1) %"class.std::allocator"* @_ZNSt12_Vector_baseISt6vectorIiSaIiEESaIS2_EE19_M_get_Tp_allocatorEv(%"struct.std::_Vector_base"* %28) #3
  %30 = load i32, i32* @x.31
  %31 = load i32, i32* @y.32
  %32 = add i32 %30, 1466202231
  %33 = sub i32 %32, 1
  %34 = sub i32 %33, 1466202231
  %35 = sub i32 %30, 1
  %36 = mul i32 %30, %34
  %37 = urem i32 %36, 2
  %38 = icmp eq i32 %37, 0
  %39 = icmp slt i32 %31, 10
  %40 = and i1 %38, %39
  %41 = xor i1 %38, %39
  %42 = or i1 %40, %41
  %43 = or i1 %38, %39
  br i1 %42, label %44, label %136

; <label>:44:                                     ; preds = %15
  invoke void @_ZSt8_DestroyIPSt6vectorIiSaIiEES2_EvT_S4_RSaIT0_E(%"class.std::vector.0"* %23, %"class.std::vector.0"* %27, %"class.std::allocator"* dereferenceable(1) %29)
          to label %45 unwind label %88

; <label>:45:                                     ; preds = %44
  %46 = load i32, i32* @x.31
  %47 = load i32, i32* @y.32
  %48 = sub i32 %46, 8983050
  %49 = sub i32 %48, 1
  %50 = add i32 %49, 8983050
  %51 = sub i32 %46, 1
  %52 = mul i32 %46, %50
  %53 = urem i32 %52, 2
  %54 = icmp eq i32 %53, 0
  %55 = icmp slt i32 %47, 10
  %56 = and i1 %54, %55
  %57 = xor i1 %54, %55
  %58 = or i1 %56, %57
  %59 = or i1 %54, %55
  br i1 %58, label %60, label %151

; <label>:60:                                     ; preds = %45, %151
  %61 = bitcast %"class.std::vector"* %19 to %"struct.std::_Vector_base"*
  call void @_ZNSt12_Vector_baseISt6vectorIiSaIiEESaIS2_EED2Ev(%"struct.std::_Vector_base"* %61) #3
  %62 = load i32, i32* @x.31
  %63 = load i32, i32* @y.32
  %64 = sub i32 0, 1
  %65 = add i32 %62, %64
  %66 = sub i32 %62, 1
  %67 = mul i32 %62, %65
  %68 = urem i32 %67, 2
  %69 = icmp eq i32 %68, 0
  %70 = icmp slt i32 %63, 10
  %71 = xor i1 %69, true
  %72 = xor i1 %70, true
  %73 = xor i1 false, true
  %74 = and i1 %71, false
  %75 = and i1 %69, %73
  %76 = and i1 %72, false
  %77 = and i1 %70, %73
  %78 = or i1 %74, %75
  %79 = or i1 %76, %77
  %80 = xor i1 %78, %79
  %81 = or i1 %71, %72
  %82 = xor i1 %81, true
  %83 = or i1 false, %73
  %84 = and i1 %82, %83
  %85 = or i1 %80, %84
  %86 = or i1 %69, %70
  br i1 %85, label %87, label %151

; <label>:87:                                     ; preds = %60
  ret void

; <label>:88:                                     ; preds = %44
  %89 = landingpad { i8*, i32 }
          catch i8* null
  %90 = extractvalue { i8*, i32 } %89, 0
  store i8* %90, i8** %17, align 8
  %91 = extractvalue { i8*, i32 } %89, 1
  store i32 %91, i32* %18, align 4
  %92 = bitcast %"class.std::vector"* %19 to %"struct.std::_Vector_base"*
  call void @_ZNSt12_Vector_baseISt6vectorIiSaIiEESaIS2_EED2Ev(%"struct.std::_Vector_base"* %92) #3
  br label %93

; <label>:93:                                     ; preds = %88
  %94 = load i32, i32* @x.31
  %95 = load i32, i32* @y.32
  %96 = sub i32 0, 1
  %97 = add i32 %94, %96
  %98 = sub i32 %94, 1
  %99 = mul i32 %94, %97
  %100 = urem i32 %99, 2
  %101 = icmp eq i32 %100, 0
  %102 = icmp slt i32 %95, 10
  %103 = xor i1 %101, true
  %104 = xor i1 %102, true
  %105 = xor i1 false, true
  %106 = and i1 %103, false
  %107 = and i1 %101, %105
  %108 = and i1 %104, false
  %109 = and i1 %102, %105
  %110 = or i1 %106, %107
  %111 = or i1 %108, %109
  %112 = xor i1 %110, %111
  %113 = or i1 %103, %104
  %114 = xor i1 %113, true
  %115 = or i1 false, %105
  %116 = and i1 %114, %115
  %117 = or i1 %112, %116
  %118 = or i1 %101, %102
  br i1 %117, label %119, label %153

; <label>:119:                                    ; preds = %93, %153
  %120 = load i8*, i8** %17, align 8
  call void @__clang_call_terminate(i8* %120) #12
  %121 = load i32, i32* @x.31
  %122 = load i32, i32* @y.32
  %123 = add i32 %121, -1948209188
  %124 = sub i32 %123, 1
  %125 = sub i32 %124, -1948209188
  %126 = sub i32 %121, 1
  %127 = mul i32 %121, %125
  %128 = urem i32 %127, 2
  %129 = icmp eq i32 %128, 0
  %130 = icmp slt i32 %122, 10
  %131 = and i1 %129, %130
  %132 = xor i1 %129, %130
  %133 = or i1 %131, %132
  %134 = or i1 %129, %130
  br i1 %133, label %135, label %153

; <label>:135:                                    ; preds = %119
  unreachable

; <label>:136:                                    ; preds = %15, %1
  %137 = alloca %"class.std::vector"*, align 8
  %138 = alloca i8*
  %139 = alloca i32
  store %"class.std::vector"* %0, %"class.std::vector"** %137, align 8
  %140 = load %"class.std::vector"*, %"class.std::vector"** %137, align 8
  %141 = bitcast %"class.std::vector"* %140 to %"struct.std::_Vector_base"*
  %142 = getelementptr inbounds %"struct.std::_Vector_base", %"struct.std::_Vector_base"* %141, i32 0, i32 0
  %143 = getelementptr inbounds %"struct.std::_Vector_base<std::vector<int, std::allocator<int> >, std::allocator<std::vector<int, std::allocator<int> > > >::_Vector_impl", %"struct.std::_Vector_base<std::vector<int, std::allocator<int> >, std::allocator<std::vector<int, std::allocator<int> > > >::_Vector_impl"* %142, i32 0, i32 0
  %144 = load %"class.std::vector.0"*, %"class.std::vector.0"** %143, align 8
  %145 = bitcast %"class.std::vector"* %140 to %"struct.std::_Vector_base"*
  %146 = getelementptr inbounds %"struct.std::_Vector_base", %"struct.std::_Vector_base"* %145, i32 0, i32 0
  %147 = getelementptr inbounds %"struct.std::_Vector_base<std::vector<int, std::allocator<int> >, std::allocator<std::vector<int, std::allocator<int> > > >::_Vector_impl", %"struct.std::_Vector_base<std::vector<int, std::allocator<int> >, std::allocator<std::vector<int, std::allocator<int> > > >::_Vector_impl"* %146, i32 0, i32 1
  %148 = load %"class.std::vector.0"*, %"class.std::vector.0"** %147, align 8
  %149 = bitcast %"class.std::vector"* %140 to %"struct.std::_Vector_base"*
  %150 = call dereferenceable(1) %"class.std::allocator"* @_ZNSt12_Vector_baseISt6vectorIiSaIiEESaIS2_EE19_M_get_Tp_allocatorEv(%"struct.std::_Vector_base"* %149) #3
  br label %15

; <label>:151:                                    ; preds = %60, %45
  %152 = bitcast %"class.std::vector"* %19 to %"struct.std::_Vector_base"*
  call void @_ZNSt12_Vector_baseISt6vectorIiSaIiEESaIS2_EED2Ev(%"struct.std::_Vector_base"* %152) #3
  br label %60

; <label>:153:                                    ; preds = %119, %93
  %154 = load i8*, i8** %17, align 8
  call void @__clang_call_terminate(i8* %154) #12
  br label %119
}

; Function Attrs: noinline uwtable
define internal void @__cxx_global_var_init.5() #0 section ".text.startup" {
  %1 = alloca i1
  %2 = alloca i1
  %3 = load i32, i32* @x.33
  %4 = load i32, i32* @y.34
  %5 = add i32 %3, -745021736
  %6 = sub i32 %5, 1
  %7 = sub i32 %6, -745021736
  %8 = sub i32 %3, 1
  %9 = mul i32 %3, %7
  %10 = urem i32 %9, 2
  %11 = icmp eq i32 %10, 0
  store i1 %11, i1* %2
  %12 = icmp slt i32 %4, 10
  store i1 %12, i1* %1
  %13 = alloca i32
  store i32 1430405649, i32* %13
  br label %14

; <label>:14:                                     ; preds = %0, %45
  %15 = load i32, i32* %13
  switch i32 %15, label %16 [
    i32 1430405649, label %17
    i32 -1375748538, label %25
    i32 -1363386660, label %42
    i32 147002007, label %43
  ]

; <label>:16:                                     ; preds = %14
  br label %45

; <label>:17:                                     ; preds = %14
  %18 = load volatile i1, i1* %2
  %19 = load volatile i1, i1* %1
  %20 = and i1 %18, %19
  %21 = xor i1 %18, %19
  %22 = or i1 %20, %21
  %23 = or i1 %18, %19
  %24 = select i1 %22, i32 -1375748538, i32 147002007
  store i32 %24, i32* %13
  br label %45

; <label>:25:                                     ; preds = %14
  call void @_ZNSt6vectorISt3setISt4pairIiiESt4lessIS2_ESaIS2_EESaIS6_EEC2Ev(%"class.std::vector.1"* @adjList) #3
  %26 = call i32 @__cxa_atexit(void (i8*)* bitcast (void (%"class.std::vector.1"*)* @_ZNSt6vectorISt3setISt4pairIiiESt4lessIS2_ESaIS2_EESaIS6_EED2Ev to void (i8*)*), i8* bitcast (%"class.std::vector.1"* @adjList to i8*), i8* @__dso_handle) #3
  %27 = load i32, i32* @x.33
  %28 = load i32, i32* @y.34
  %29 = sub i32 %27, -2121390698
  %30 = sub i32 %29, 1
  %31 = add i32 %30, -2121390698
  %32 = sub i32 %27, 1
  %33 = mul i32 %27, %31
  %34 = urem i32 %33, 2
  %35 = icmp eq i32 %34, 0
  %36 = icmp slt i32 %28, 10
  %37 = and i1 %35, %36
  %38 = xor i1 %35, %36
  %39 = or i1 %37, %38
  %40 = or i1 %35, %36
  %41 = select i1 %39, i32 -1363386660, i32 147002007
  store i32 %41, i32* %13
  br label %45

; <label>:42:                                     ; preds = %14
  ret void

; <label>:43:                                     ; preds = %14
  call void @_ZNSt6vectorISt3setISt4pairIiiESt4lessIS2_ESaIS2_EESaIS6_EEC2Ev(%"class.std::vector.1"* @adjList) #3
  %44 = call i32 @__cxa_atexit(void (i8*)* bitcast (void (%"class.std::vector.1"*)* @_ZNSt6vectorISt3setISt4pairIiiESt4lessIS2_ESaIS2_EESaIS6_EED2Ev to void (i8*)*), i8* bitcast (%"class.std::vector.1"* @adjList to i8*), i8* @__dso_handle) #3
  store i32 -1375748538, i32* %13
  br label %45

; <label>:45:                                     ; preds = %43, %25, %17, %16
  br label %14
}

; Function Attrs: noinline nounwind uwtable
define linkonce_odr void @_ZNSt6vectorISt3setISt4pairIiiESt4lessIS2_ESaIS2_EESaIS6_EEC2Ev(%"class.std::vector.1"*) unnamed_addr #4 comdat align 2 personality i8* bitcast (i32 (...)* @__gxx_personality_v0 to i8*) {
  %2 = alloca %"class.std::vector.1"*, align 8
  store %"class.std::vector.1"* %0, %"class.std::vector.1"** %2, align 8
  %3 = load %"class.std::vector.1"*, %"class.std::vector.1"** %2, align 8
  %4 = bitcast %"class.std::vector.1"* %3 to %"struct.std::_Vector_base.2"*
  invoke void @_ZNSt12_Vector_baseISt3setISt4pairIiiESt4lessIS2_ESaIS2_EESaIS6_EEC2Ev(%"struct.std::_Vector_base.2"* %4)
          to label %5 unwind label %6

; <label>:5:                                      ; preds = %1
  ret void

; <label>:6:                                      ; preds = %1
  %7 = load i32, i32* @x.35
  %8 = load i32, i32* @y.36
  %9 = add i32 %7, -654636807
  %10 = sub i32 %9, 1
  %11 = sub i32 %10, -654636807
  %12 = sub i32 %7, 1
  %13 = mul i32 %7, %11
  %14 = urem i32 %13, 2
  %15 = icmp eq i32 %14, 0
  %16 = icmp slt i32 %8, 10
  %17 = and i1 %15, %16
  %18 = xor i1 %15, %16
  %19 = or i1 %17, %18
  %20 = or i1 %15, %16
  br i1 %19, label %21, label %39

; <label>:21:                                     ; preds = %6, %39
  %22 = landingpad { i8*, i32 }
          catch i8* null
  %23 = extractvalue { i8*, i32 } %22, 0
  call void @__clang_call_terminate(i8* %23) #12
  %24 = load i32, i32* @x.35
  %25 = load i32, i32* @y.36
  %26 = sub i32 %24, -1110956543
  %27 = sub i32 %26, 1
  %28 = add i32 %27, -1110956543
  %29 = sub i32 %24, 1
  %30 = mul i32 %24, %28
  %31 = urem i32 %30, 2
  %32 = icmp eq i32 %31, 0
  %33 = icmp slt i32 %25, 10
  %34 = and i1 %32, %33
  %35 = xor i1 %32, %33
  %36 = or i1 %34, %35
  %37 = or i1 %32, %33
  br i1 %36, label %38, label %39

; <label>:38:                                     ; preds = %21
  unreachable

; <label>:39:                                     ; preds = %21, %6
  %40 = landingpad { i8*, i32 }
          catch i8* null
  %41 = extractvalue { i8*, i32 } %40, 0
  call void @__clang_call_terminate(i8* %41) #12
  br label %21
}

; Function Attrs: noinline nounwind uwtable
define linkonce_odr void @_ZNSt6vectorISt3setISt4pairIiiESt4lessIS2_ESaIS2_EESaIS6_EED2Ev(%"class.std::vector.1"*) unnamed_addr #4 comdat align 2 personality i8* bitcast (i32 (...)* @__gxx_personality_v0 to i8*) {
  %2 = load i32, i32* @x.37
  %3 = load i32, i32* @y.38
  %4 = add i32 %2, -595937082
  %5 = sub i32 %4, 1
  %6 = sub i32 %5, -595937082
  %7 = sub i32 %2, 1
  %8 = mul i32 %2, %6
  %9 = urem i32 %8, 2
  %10 = icmp eq i32 %9, 0
  %11 = icmp slt i32 %3, 10
  %12 = xor i1 %10, true
  %13 = xor i1 %11, true
  %14 = xor i1 true, true
  %15 = and i1 %12, true
  %16 = and i1 %10, %14
  %17 = and i1 %13, true
  %18 = and i1 %11, %14
  %19 = or i1 %15, %16
  %20 = or i1 %17, %18
  %21 = xor i1 %19, %20
  %22 = or i1 %12, %13
  %23 = xor i1 %22, true
  %24 = or i1 true, %14
  %25 = and i1 %23, %24
  %26 = or i1 %21, %25
  %27 = or i1 %10, %11
  br i1 %26, label %28, label %67

; <label>:28:                                     ; preds = %1, %67
  %29 = alloca %"class.std::vector.1"*, align 8
  %30 = alloca i8*
  %31 = alloca i32
  store %"class.std::vector.1"* %0, %"class.std::vector.1"** %29, align 8
  %32 = load %"class.std::vector.1"*, %"class.std::vector.1"** %29, align 8
  %33 = bitcast %"class.std::vector.1"* %32 to %"struct.std::_Vector_base.2"*
  %34 = getelementptr inbounds %"struct.std::_Vector_base.2", %"struct.std::_Vector_base.2"* %33, i32 0, i32 0
  %35 = getelementptr inbounds %"struct.std::_Vector_base<std::set<std::pair<int, int>, std::less<std::pair<int, int> >, std::allocator<std::pair<int, int> > >, std::allocator<std::set<std::pair<int, int>, std::less<std::pair<int, int> >, std::allocator<std::pair<int, int> > > > >::_Vector_impl", %"struct.std::_Vector_base<std::set<std::pair<int, int>, std::less<std::pair<int, int> >, std::allocator<std::pair<int, int> > >, std::allocator<std::set<std::pair<int, int>, std::less<std::pair<int, int> >, std::allocator<std::pair<int, int> > > > >::_Vector_impl"* %34, i32 0, i32 0
  %36 = load %"class.std::set"*, %"class.std::set"** %35, align 8
  %37 = bitcast %"class.std::vector.1"* %32 to %"struct.std::_Vector_base.2"*
  %38 = getelementptr inbounds %"struct.std::_Vector_base.2", %"struct.std::_Vector_base.2"* %37, i32 0, i32 0
  %39 = getelementptr inbounds %"struct.std::_Vector_base<std::set<std::pair<int, int>, std::less<std::pair<int, int> >, std::allocator<std::pair<int, int> > >, std::allocator<std::set<std::pair<int, int>, std::less<std::pair<int, int> >, std::allocator<std::pair<int, int> > > > >::_Vector_impl", %"struct.std::_Vector_base<std::set<std::pair<int, int>, std::less<std::pair<int, int> >, std::allocator<std::pair<int, int> > >, std::allocator<std::set<std::pair<int, int>, std::less<std::pair<int, int> >, std::allocator<std::pair<int, int> > > > >::_Vector_impl"* %38, i32 0, i32 1
  %40 = load %"class.std::set"*, %"class.std::set"** %39, align 8
  %41 = bitcast %"class.std::vector.1"* %32 to %"struct.std::_Vector_base.2"*
  %42 = call dereferenceable(1) %"class.std::allocator.3"* @_ZNSt12_Vector_baseISt3setISt4pairIiiESt4lessIS2_ESaIS2_EESaIS6_EE19_M_get_Tp_allocatorEv(%"struct.std::_Vector_base.2"* %41) #3
  %43 = load i32, i32* @x.37
  %44 = load i32, i32* @y.38
  %45 = add i32 %43, 2119856484
  %46 = sub i32 %45, 1
  %47 = sub i32 %46, 2119856484
  %48 = sub i32 %43, 1
  %49 = mul i32 %43, %47
  %50 = urem i32 %49, 2
  %51 = icmp eq i32 %50, 0
  %52 = icmp slt i32 %44, 10
  %53 = and i1 %51, %52
  %54 = xor i1 %51, %52
  %55 = or i1 %53, %54
  %56 = or i1 %51, %52
  br i1 %55, label %57, label %67

; <label>:57:                                     ; preds = %28
  invoke void @_ZSt8_DestroyIPSt3setISt4pairIiiESt4lessIS2_ESaIS2_EES6_EvT_S8_RSaIT0_E(%"class.std::set"* %36, %"class.std::set"* %40, %"class.std::allocator.3"* dereferenceable(1) %42)
          to label %58 unwind label %60

; <label>:58:                                     ; preds = %57
  %59 = bitcast %"class.std::vector.1"* %32 to %"struct.std::_Vector_base.2"*
  call void @_ZNSt12_Vector_baseISt3setISt4pairIiiESt4lessIS2_ESaIS2_EESaIS6_EED2Ev(%"struct.std::_Vector_base.2"* %59) #3
  ret void

; <label>:60:                                     ; preds = %57
  %61 = landingpad { i8*, i32 }
          catch i8* null
  %62 = extractvalue { i8*, i32 } %61, 0
  store i8* %62, i8** %30, align 8
  %63 = extractvalue { i8*, i32 } %61, 1
  store i32 %63, i32* %31, align 4
  %64 = bitcast %"class.std::vector.1"* %32 to %"struct.std::_Vector_base.2"*
  call void @_ZNSt12_Vector_baseISt3setISt4pairIiiESt4lessIS2_ESaIS2_EESaIS6_EED2Ev(%"struct.std::_Vector_base.2"* %64) #3
  br label %65

; <label>:65:                                     ; preds = %60
  %66 = load i8*, i8** %30, align 8
  call void @__clang_call_terminate(i8* %66) #12
  unreachable

; <label>:67:                                     ; preds = %28, %1
  %68 = alloca %"class.std::vector.1"*, align 8
  %69 = alloca i8*
  %70 = alloca i32
  store %"class.std::vector.1"* %0, %"class.std::vector.1"** %68, align 8
  %71 = load %"class.std::vector.1"*, %"class.std::vector.1"** %68, align 8
  %72 = bitcast %"class.std::vector.1"* %71 to %"struct.std::_Vector_base.2"*
  %73 = getelementptr inbounds %"struct.std::_Vector_base.2", %"struct.std::_Vector_base.2"* %72, i32 0, i32 0
  %74 = getelementptr inbounds %"struct.std::_Vector_base<std::set<std::pair<int, int>, std::less<std::pair<int, int> >, std::allocator<std::pair<int, int> > >, std::allocator<std::set<std::pair<int, int>, std::less<std::pair<int, int> >, std::allocator<std::pair<int, int> > > > >::_Vector_impl", %"struct.std::_Vector_base<std::set<std::pair<int, int>, std::less<std::pair<int, int> >, std::allocator<std::pair<int, int> > >, std::allocator<std::set<std::pair<int, int>, std::less<std::pair<int, int> >, std::allocator<std::pair<int, int> > > > >::_Vector_impl"* %73, i32 0, i32 0
  %75 = load %"class.std::set"*, %"class.std::set"** %74, align 8
  %76 = bitcast %"class.std::vector.1"* %71 to %"struct.std::_Vector_base.2"*
  %77 = getelementptr inbounds %"struct.std::_Vector_base.2", %"struct.std::_Vector_base.2"* %76, i32 0, i32 0
  %78 = getelementptr inbounds %"struct.std::_Vector_base<std::set<std::pair<int, int>, std::less<std::pair<int, int> >, std::allocator<std::pair<int, int> > >, std::allocator<std::set<std::pair<int, int>, std::less<std::pair<int, int> >, std::allocator<std::pair<int, int> > > > >::_Vector_impl", %"struct.std::_Vector_base<std::set<std::pair<int, int>, std::less<std::pair<int, int> >, std::allocator<std::pair<int, int> > >, std::allocator<std::set<std::pair<int, int>, std::less<std::pair<int, int> >, std::allocator<std::pair<int, int> > > > >::_Vector_impl"* %77, i32 0, i32 1
  %79 = load %"class.std::set"*, %"class.std::set"** %78, align 8
  %80 = bitcast %"class.std::vector.1"* %71 to %"struct.std::_Vector_base.2"*
  %81 = call dereferenceable(1) %"class.std::allocator.3"* @_ZNSt12_Vector_baseISt3setISt4pairIiiESt4lessIS2_ESaIS2_EESaIS6_EE19_M_get_Tp_allocatorEv(%"struct.std::_Vector_base.2"* %80) #3
  br label %28
}

; Function Attrs: noinline nounwind uwtable
define void @_Z13graphDijkstrav() #4 {
  %1 = alloca i1
  %2 = alloca i1
  %3 = load i32, i32* @x.39
  %4 = load i32, i32* @y.40
  %5 = sub i32 %3, -538413095
  %6 = sub i32 %5, 1
  %7 = add i32 %6, -538413095
  %8 = sub i32 %3, 1
  %9 = mul i32 %3, %7
  %10 = urem i32 %9, 2
  %11 = icmp eq i32 %10, 0
  store i1 %11, i1* %2
  %12 = icmp slt i32 %4, 10
  store i1 %12, i1* %1
  %13 = alloca i32
  store i32 145361527, i32* %13
  br label %14

; <label>:14:                                     ; preds = %0, %55
  %15 = load i32, i32* %13
  switch i32 %15, label %16 [
    i32 145361527, label %17
    i32 -140549250, label %37
    i32 1594103539, label %53
    i32 739675850, label %54
  ]

; <label>:16:                                     ; preds = %14
  br label %55

; <label>:17:                                     ; preds = %14
  %18 = load volatile i1, i1* %2
  %19 = load volatile i1, i1* %1
  %20 = xor i1 %18, true
  %21 = xor i1 %19, true
  %22 = xor i1 true, true
  %23 = and i1 %20, true
  %24 = and i1 %18, %22
  %25 = and i1 %21, true
  %26 = and i1 %19, %22
  %27 = or i1 %23, %24
  %28 = or i1 %25, %26
  %29 = xor i1 %27, %28
  %30 = or i1 %20, %21
  %31 = xor i1 %30, true
  %32 = or i1 true, %22
  %33 = and i1 %31, %32
  %34 = or i1 %29, %33
  %35 = or i1 %18, %19
  %36 = select i1 %34, i32 -140549250, i32 739675850
  store i32 %36, i32* %13
  br label %55

; <label>:37:                                     ; preds = %14
  %38 = load i32, i32* @x.39
  %39 = load i32, i32* @y.40
  %40 = add i32 %38, -1590222045
  %41 = sub i32 %40, 1
  %42 = sub i32 %41, -1590222045
  %43 = sub i32 %38, 1
  %44 = mul i32 %38, %42
  %45 = urem i32 %44, 2
  %46 = icmp eq i32 %45, 0
  %47 = icmp slt i32 %39, 10
  %48 = and i1 %46, %47
  %49 = xor i1 %46, %47
  %50 = or i1 %48, %49
  %51 = or i1 %46, %47
  %52 = select i1 %50, i32 1594103539, i32 739675850
  store i32 %52, i32* %13
  br label %55

; <label>:53:                                     ; preds = %14
  ret void

; <label>:54:                                     ; preds = %14
  store i32 -140549250, i32* %13
  br label %55

; <label>:55:                                     ; preds = %54, %37, %17, %16
  br label %14
}

; Function Attrs: noinline nounwind uwtable
define void @_Z16graphBellmanFordv() #4 {
  %1 = alloca i1
  %2 = alloca i1
  %3 = load i32, i32* @x.41
  %4 = load i32, i32* @y.42
  %5 = sub i32 %3, 1131498238
  %6 = sub i32 %5, 1
  %7 = add i32 %6, 1131498238
  %8 = sub i32 %3, 1
  %9 = mul i32 %3, %7
  %10 = urem i32 %9, 2
  %11 = icmp eq i32 %10, 0
  store i1 %11, i1* %2
  %12 = icmp slt i32 %4, 10
  store i1 %12, i1* %1
  %13 = alloca i32
  store i32 -1670591017, i32* %13
  br label %14

; <label>:14:                                     ; preds = %0, %43
  %15 = load i32, i32* %13
  switch i32 %15, label %16 [
    i32 -1670591017, label %17
    i32 -59005554, label %25
    i32 1160171761, label %41
    i32 2053422662, label %42
  ]

; <label>:16:                                     ; preds = %14
  br label %43

; <label>:17:                                     ; preds = %14
  %18 = load volatile i1, i1* %2
  %19 = load volatile i1, i1* %1
  %20 = and i1 %18, %19
  %21 = xor i1 %18, %19
  %22 = or i1 %20, %21
  %23 = or i1 %18, %19
  %24 = select i1 %22, i32 -59005554, i32 2053422662
  store i32 %24, i32* %13
  br label %43

; <label>:25:                                     ; preds = %14
  %26 = load i32, i32* @x.41
  %27 = load i32, i32* @y.42
  %28 = sub i32 %26, 1266550351
  %29 = sub i32 %28, 1
  %30 = add i32 %29, 1266550351
  %31 = sub i32 %26, 1
  %32 = mul i32 %26, %30
  %33 = urem i32 %32, 2
  %34 = icmp eq i32 %33, 0
  %35 = icmp slt i32 %27, 10
  %36 = and i1 %34, %35
  %37 = xor i1 %34, %35
  %38 = or i1 %36, %37
  %39 = or i1 %34, %35
  %40 = select i1 %38, i32 1160171761, i32 2053422662
  store i32 %40, i32* %13
  br label %43

; <label>:41:                                     ; preds = %14
  ret void

; <label>:42:                                     ; preds = %14
  store i32 -59005554, i32* %13
  br label %43

; <label>:43:                                     ; preds = %42, %25, %17, %16
  br label %14
}

; Function Attrs: noinline nounwind uwtable
define void @_Z18graphWarshallFloydv() #4 {
  ret void
}

; Function Attrs: noinline uwtable
define i64 @_Z3gcdxx(i64, i64) #0 {
  %3 = alloca i64
  %4 = alloca i64
  %5 = alloca i64, align 8
  %6 = alloca i64, align 8
  %7 = alloca i64, align 8
  store i64 %0, i64* %6, align 8
  store i64 %1, i64* %7, align 8
  %8 = load i64, i64* %6, align 8
  %9 = load i64, i64* %7, align 8
  %10 = srem i64 %8, %9
  store i64 %10, i64* %4
  %11 = alloca i32
  store i32 -405585554, i32* %11
  br label %12

; <label>:12:                                     ; preds = %2, %108
  %13 = load i32, i32* %11
  switch i32 %13, label %14 [
    i32 -405585554, label %15
    i32 862659931, label %19
    i32 -256056589, label %34
    i32 -1217222495, label %51
    i32 120202476, label %52
    i32 437025781, label %58
    i32 -926534480, label %73
    i32 1625770236, label %102
    i32 -2035816884, label %104
    i32 -1340720319, label %106
  ]

; <label>:14:                                     ; preds = %12
  br label %108

; <label>:15:                                     ; preds = %12
  %16 = load volatile i64, i64* %4
  %17 = icmp eq i64 %16, 0
  %18 = select i1 %17, i32 862659931, i32 120202476
  store i32 %18, i32* %11
  br label %108

; <label>:19:                                     ; preds = %12
  %20 = load i32, i32* @x.45
  %21 = load i32, i32* @y.46
  %22 = sub i32 0, 1
  %23 = add i32 %20, %22
  %24 = sub i32 %20, 1
  %25 = mul i32 %20, %23
  %26 = urem i32 %25, 2
  %27 = icmp eq i32 %26, 0
  %28 = icmp slt i32 %21, 10
  %29 = and i1 %27, %28
  %30 = xor i1 %27, %28
  %31 = or i1 %29, %30
  %32 = or i1 %27, %28
  %33 = select i1 %31, i32 -256056589, i32 -2035816884
  store i32 %33, i32* %11
  br label %108

; <label>:34:                                     ; preds = %12
  %35 = load i64, i64* %7, align 8
  store i64 %35, i64* %5, align 8
  %36 = load i32, i32* @x.45
  %37 = load i32, i32* @y.46
  %38 = add i32 %36, -1344908282
  %39 = sub i32 %38, 1
  %40 = sub i32 %39, -1344908282
  %41 = sub i32 %36, 1
  %42 = mul i32 %36, %40
  %43 = urem i32 %42, 2
  %44 = icmp eq i32 %43, 0
  %45 = icmp slt i32 %37, 10
  %46 = and i1 %44, %45
  %47 = xor i1 %44, %45
  %48 = or i1 %46, %47
  %49 = or i1 %44, %45
  %50 = select i1 %48, i32 -1217222495, i32 -2035816884
  store i32 %50, i32* %11
  br label %108

; <label>:51:                                     ; preds = %12
  store i32 437025781, i32* %11
  br label %108

; <label>:52:                                     ; preds = %12
  %53 = load i64, i64* %7, align 8
  %54 = load i64, i64* %6, align 8
  %55 = load i64, i64* %7, align 8
  %56 = srem i64 %54, %55
  %57 = call i64 @_Z3gcdxx(i64 %53, i64 %56)
  store i64 %57, i64* %5, align 8
  store i32 437025781, i32* %11
  br label %108

; <label>:58:                                     ; preds = %12
  %59 = load i32, i32* @x.45
  %60 = load i32, i32* @y.46
  %61 = sub i32 0, 1
  %62 = add i32 %59, %61
  %63 = sub i32 %59, 1
  %64 = mul i32 %59, %62
  %65 = urem i32 %64, 2
  %66 = icmp eq i32 %65, 0
  %67 = icmp slt i32 %60, 10
  %68 = and i1 %66, %67
  %69 = xor i1 %66, %67
  %70 = or i1 %68, %69
  %71 = or i1 %66, %67
  %72 = select i1 %70, i32 -926534480, i32 -1340720319
  store i32 %72, i32* %11
  br label %108

; <label>:73:                                     ; preds = %12
  %74 = load i64, i64* %5, align 8
  store i64 %74, i64* %3
  %75 = load i32, i32* @x.45
  %76 = load i32, i32* @y.46
  %77 = sub i32 %75, 1092153765
  %78 = sub i32 %77, 1
  %79 = add i32 %78, 1092153765
  %80 = sub i32 %75, 1
  %81 = mul i32 %75, %79
  %82 = urem i32 %81, 2
  %83 = icmp eq i32 %82, 0
  %84 = icmp slt i32 %76, 10
  %85 = xor i1 %83, true
  %86 = xor i1 %84, true
  %87 = xor i1 true, true
  %88 = and i1 %85, true
  %89 = and i1 %83, %87
  %90 = and i1 %86, true
  %91 = and i1 %84, %87
  %92 = or i1 %88, %89
  %93 = or i1 %90, %91
  %94 = xor i1 %92, %93
  %95 = or i1 %85, %86
  %96 = xor i1 %95, true
  %97 = or i1 true, %87
  %98 = and i1 %96, %97
  %99 = or i1 %94, %98
  %100 = or i1 %83, %84
  %101 = select i1 %99, i32 1625770236, i32 -1340720319
  store i32 %101, i32* %11
  br label %108

; <label>:102:                                    ; preds = %12
  %103 = load volatile i64, i64* %3
  ret i64 %103

; <label>:104:                                    ; preds = %12
  %105 = load i64, i64* %7, align 8
  store i64 %105, i64* %5, align 8
  store i32 -256056589, i32* %11
  br label %108

; <label>:106:                                    ; preds = %12
  %107 = load i64, i64* %5, align 8
  store i32 -926534480, i32* %11
  br label %108

; <label>:108:                                    ; preds = %106, %104, %73, %58, %52, %51, %34, %19, %15, %14
  br label %12
}

; Function Attrs: noinline uwtable
define i64 @_Z3lcmxx(i64, i64) #0 {
  %3 = alloca i64, align 8
  %4 = alloca i64, align 8
  store i64 %0, i64* %3, align 8
  store i64 %1, i64* %4, align 8
  %5 = load i64, i64* %3, align 8
  %6 = load i64, i64* %4, align 8
  %7 = mul nsw i64 %5, %6
  %8 = load i64, i64* %3, align 8
  %9 = load i64, i64* %4, align 8
  %10 = call i64 @_Z3gcdxx(i64 %8, i64 %9)
  %11 = sdiv i64 %7, %10
  ret i64 %11
}

; Function Attrs: noinline nounwind uwtable
define i64 @_Z8divTimesxx(i64, i64) #4 {
  %3 = alloca i64, align 8
  %4 = alloca i64, align 8
  %5 = alloca i64, align 8
  store i64 %0, i64* %3, align 8
  store i64 %1, i64* %4, align 8
  store i64 0, i64* %5, align 8
  %6 = alloca i32
  store i32 -1316961064, i32* %6
  br label %7

; <label>:7:                                      ; preds = %2, %27
  %8 = load i32, i32* %6
  switch i32 %8, label %9 [
    i32 -1316961064, label %10
    i32 586569719, label %16
    i32 1880089424, label %25
  ]

; <label>:9:                                      ; preds = %7
  br label %27

; <label>:10:                                     ; preds = %7
  %11 = load i64, i64* %3, align 8
  %12 = load i64, i64* %4, align 8
  %13 = srem i64 %11, %12
  %14 = icmp eq i64 %13, 0
  %15 = select i1 %14, i32 586569719, i32 1880089424
  store i32 %15, i32* %6
  br label %27

; <label>:16:                                     ; preds = %7
  %17 = load i64, i64* %4, align 8
  %18 = load i64, i64* %3, align 8
  %19 = sdiv i64 %18, %17
  store i64 %19, i64* %3, align 8
  %20 = load i64, i64* %5, align 8
  %21 = sub i64 %20, 8822143677787552177
  %22 = add i64 %21, 1
  %23 = add i64 %22, 8822143677787552177
  %24 = add nsw i64 %20, 1
  store i64 %23, i64* %5, align 8
  store i32 -1316961064, i32* %6
  br label %27

; <label>:25:                                     ; preds = %7
  %26 = load i64, i64* %5, align 8
  ret i64 %26

; <label>:27:                                     ; preds = %16, %10, %9
  br label %7
}

; Function Attrs: noinline uwtable
define i64 @_Z6powModxx(i64, i64) #0 {
  %3 = alloca i64
  %4 = alloca i1
  %5 = alloca i1
  %6 = alloca i64*
  %7 = alloca i64*
  %8 = alloca i64*
  %9 = alloca i64*
  %10 = alloca i1
  %11 = alloca i1
  %12 = load i32, i32* @x.51
  %13 = load i32, i32* @y.52
  %14 = sub i32 0, 1
  %15 = add i32 %12, %14
  %16 = sub i32 %12, 1
  %17 = mul i32 %12, %15
  %18 = urem i32 %17, 2
  %19 = icmp eq i32 %18, 0
  store i1 %19, i1* %11
  %20 = icmp slt i32 %13, 10
  store i1 %20, i1* %10
  %21 = alloca i32
  store i32 1129243277, i32* %21
  br label %22

; <label>:22:                                     ; preds = %2, %347
  %23 = load i32, i32* %21
  switch i32 %23, label %24 [
    i32 1129243277, label %25
    i32 1744589160, label %45
    i32 -513500145, label %70
    i32 1651331487, label %73
    i32 -1710242467, label %75
    i32 565330984, label %103
    i32 -1974427367, label %135
    i32 -171415399, label %138
    i32 -793508815, label %153
    i32 -101225198, label %181
    i32 -964283488, label %222
    i32 -1335927857, label %223
    i32 634809855, label %251
    i32 -2029369334, label %269
    i32 41248668, label %271
    i32 -1430693478, label %278
    i32 -1091605693, label %288
    i32 1962859767, label %344
  ]

; <label>:24:                                     ; preds = %22
  br label %347

; <label>:25:                                     ; preds = %22
  %26 = load volatile i1, i1* %11
  %27 = load volatile i1, i1* %10
  %28 = xor i1 %26, true
  %29 = xor i1 %27, true
  %30 = xor i1 false, true
  %31 = and i1 %28, false
  %32 = and i1 %26, %30
  %33 = and i1 %29, false
  %34 = and i1 %27, %30
  %35 = or i1 %31, %32
  %36 = or i1 %33, %34
  %37 = xor i1 %35, %36
  %38 = or i1 %28, %29
  %39 = xor i1 %38, true
  %40 = or i1 false, %30
  %41 = and i1 %39, %40
  %42 = or i1 %37, %41
  %43 = or i1 %26, %27
  %44 = select i1 %42, i32 1744589160, i32 41248668
  store i32 %44, i32* %21
  br label %347

; <label>:45:                                     ; preds = %22
  %46 = alloca i64, align 8
  store i64* %46, i64** %9
  %47 = alloca i64, align 8
  store i64* %47, i64** %8
  %48 = alloca i64, align 8
  store i64* %48, i64** %7
  %49 = alloca i64, align 8
  store i64* %49, i64** %6
  %50 = load volatile i64*, i64** %8
  store i64 %0, i64* %50, align 8
  %51 = load volatile i64*, i64** %7
  store i64 %1, i64* %51, align 8
  %52 = load volatile i64*, i64** %7
  %53 = load i64, i64* %52, align 8
  %54 = icmp eq i64 %53, 0
  store i1 %54, i1* %5
  %55 = load i32, i32* @x.51
  %56 = load i32, i32* @y.52
  %57 = sub i32 %55, 547023011
  %58 = sub i32 %57, 1
  %59 = add i32 %58, 547023011
  %60 = sub i32 %55, 1
  %61 = mul i32 %55, %59
  %62 = urem i32 %61, 2
  %63 = icmp eq i32 %62, 0
  %64 = icmp slt i32 %56, 10
  %65 = and i1 %63, %64
  %66 = xor i1 %63, %64
  %67 = or i1 %65, %66
  %68 = or i1 %63, %64
  %69 = select i1 %67, i32 -513500145, i32 41248668
  store i32 %69, i32* %21
  br label %347

; <label>:70:                                     ; preds = %22
  %71 = load volatile i1, i1* %5
  %72 = select i1 %71, i32 1651331487, i32 -1710242467
  store i32 %72, i32* %21
  br label %347

; <label>:73:                                     ; preds = %22
  %74 = load volatile i64*, i64** %9
  store i64 1, i64* %74, align 8
  store i32 -1335927857, i32* %21
  br label %347

; <label>:75:                                     ; preds = %22
  %76 = load i32, i32* @x.51
  %77 = load i32, i32* @y.52
  %78 = sub i32 %76, 538470245
  %79 = sub i32 %78, 1
  %80 = add i32 %79, 538470245
  %81 = sub i32 %76, 1
  %82 = mul i32 %76, %80
  %83 = urem i32 %82, 2
  %84 = icmp eq i32 %83, 0
  %85 = icmp slt i32 %77, 10
  %86 = xor i1 %84, true
  %87 = xor i1 %85, true
  %88 = xor i1 false, true
  %89 = and i1 %86, false
  %90 = and i1 %84, %88
  %91 = and i1 %87, false
  %92 = and i1 %85, %88
  %93 = or i1 %89, %90
  %94 = or i1 %91, %92
  %95 = xor i1 %93, %94
  %96 = or i1 %86, %87
  %97 = xor i1 %96, true
  %98 = or i1 false, %88
  %99 = and i1 %97, %98
  %100 = or i1 %95, %99
  %101 = or i1 %84, %85
  %102 = select i1 %100, i32 565330984, i32 -1430693478
  store i32 %102, i32* %21
  br label %347

; <label>:103:                                    ; preds = %22
  %104 = load volatile i64*, i64** %7
  %105 = load i64, i64* %104, align 8
  %106 = srem i64 %105, 2
  %107 = icmp eq i64 %106, 0
  store i1 %107, i1* %4
  %108 = load i32, i32* @x.51
  %109 = load i32, i32* @y.52
  %110 = sub i32 %108, 556713919
  %111 = sub i32 %110, 1
  %112 = add i32 %111, 556713919
  %113 = sub i32 %108, 1
  %114 = mul i32 %108, %112
  %115 = urem i32 %114, 2
  %116 = icmp eq i32 %115, 0
  %117 = icmp slt i32 %109, 10
  %118 = xor i1 %116, true
  %119 = xor i1 %117, true
  %120 = xor i1 true, true
  %121 = and i1 %118, true
  %122 = and i1 %116, %120
  %123 = and i1 %119, true
  %124 = and i1 %117, %120
  %125 = or i1 %121, %122
  %126 = or i1 %123, %124
  %127 = xor i1 %125, %126
  %128 = or i1 %118, %119
  %129 = xor i1 %128, true
  %130 = or i1 true, %120
  %131 = and i1 %129, %130
  %132 = or i1 %127, %131
  %133 = or i1 %116, %117
  %134 = select i1 %132, i32 -1974427367, i32 -1430693478
  store i32 %134, i32* %21
  br label %347

; <label>:135:                                    ; preds = %22
  %136 = load volatile i1, i1* %4
  %137 = select i1 %136, i32 -171415399, i32 -793508815
  store i32 %137, i32* %21
  br label %347

; <label>:138:                                    ; preds = %22
  %139 = load volatile i64*, i64** %8
  %140 = load i64, i64* %139, align 8
  %141 = load volatile i64*, i64** %7
  %142 = load i64, i64* %141, align 8
  %143 = sdiv i64 %142, 2
  %144 = call i64 @_Z6powModxx(i64 %140, i64 %143)
  %145 = load volatile i64*, i64** %6
  store i64 %144, i64* %145, align 8
  %146 = load volatile i64*, i64** %6
  %147 = load i64, i64* %146, align 8
  %148 = load volatile i64*, i64** %6
  %149 = load i64, i64* %148, align 8
  %150 = mul nsw i64 %147, %149
  %151 = srem i64 %150, 1000000007
  %152 = load volatile i64*, i64** %9
  store i64 %151, i64* %152, align 8
  store i32 -1335927857, i32* %21
  br label %347

; <label>:153:                                    ; preds = %22
  %154 = load i32, i32* @x.51
  %155 = load i32, i32* @y.52
  %156 = sub i32 %154, 2093801030
  %157 = sub i32 %156, 1
  %158 = add i32 %157, 2093801030
  %159 = sub i32 %154, 1
  %160 = mul i32 %154, %158
  %161 = urem i32 %160, 2
  %162 = icmp eq i32 %161, 0
  %163 = icmp slt i32 %155, 10
  %164 = xor i1 %162, true
  %165 = xor i1 %163, true
  %166 = xor i1 true, true
  %167 = and i1 %164, true
  %168 = and i1 %162, %166
  %169 = and i1 %165, true
  %170 = and i1 %163, %166
  %171 = or i1 %167, %168
  %172 = or i1 %169, %170
  %173 = xor i1 %171, %172
  %174 = or i1 %164, %165
  %175 = xor i1 %174, true
  %176 = or i1 true, %166
  %177 = and i1 %175, %176
  %178 = or i1 %173, %177
  %179 = or i1 %162, %163
  %180 = select i1 %178, i32 -101225198, i32 -1091605693
  store i32 %180, i32* %21
  br label %347

; <label>:181:                                    ; preds = %22
  %182 = load volatile i64*, i64** %8
  %183 = load i64, i64* %182, align 8
  %184 = load volatile i64*, i64** %8
  %185 = load i64, i64* %184, align 8
  %186 = load volatile i64*, i64** %7
  %187 = load i64, i64* %186, align 8
  %188 = sub i64 %187, 2063646023267566687
  %189 = sub i64 %188, 1
  %190 = add i64 %189, 2063646023267566687
  %191 = sub nsw i64 %187, 1
  %192 = call i64 @_Z6powModxx(i64 %185, i64 %190)
  %193 = mul nsw i64 %183, %192
  %194 = srem i64 %193, 1000000007
  %195 = load volatile i64*, i64** %9
  store i64 %194, i64* %195, align 8
  %196 = load i32, i32* @x.51
  %197 = load i32, i32* @y.52
  %198 = sub i32 0, 1
  %199 = add i32 %196, %198
  %200 = sub i32 %196, 1
  %201 = mul i32 %196, %199
  %202 = urem i32 %201, 2
  %203 = icmp eq i32 %202, 0
  %204 = icmp slt i32 %197, 10
  %205 = xor i1 %203, true
  %206 = xor i1 %204, true
  %207 = xor i1 true, true
  %208 = and i1 %205, true
  %209 = and i1 %203, %207
  %210 = and i1 %206, true
  %211 = and i1 %204, %207
  %212 = or i1 %208, %209
  %213 = or i1 %210, %211
  %214 = xor i1 %212, %213
  %215 = or i1 %205, %206
  %216 = xor i1 %215, true
  %217 = or i1 true, %207
  %218 = and i1 %216, %217
  %219 = or i1 %214, %218
  %220 = or i1 %203, %204
  %221 = select i1 %219, i32 -964283488, i32 -1091605693
  store i32 %221, i32* %21
  br label %347

; <label>:222:                                    ; preds = %22
  store i32 -1335927857, i32* %21
  br label %347

; <label>:223:                                    ; preds = %22
  %224 = load i32, i32* @x.51
  %225 = load i32, i32* @y.52
  %226 = add i32 %224, -470110257
  %227 = sub i32 %226, 1
  %228 = sub i32 %227, -470110257
  %229 = sub i32 %224, 1
  %230 = mul i32 %224, %228
  %231 = urem i32 %230, 2
  %232 = icmp eq i32 %231, 0
  %233 = icmp slt i32 %225, 10
  %234 = xor i1 %232, true
  %235 = xor i1 %233, true
  %236 = xor i1 true, true
  %237 = and i1 %234, true
  %238 = and i1 %232, %236
  %239 = and i1 %235, true
  %240 = and i1 %233, %236
  %241 = or i1 %237, %238
  %242 = or i1 %239, %240
  %243 = xor i1 %241, %242
  %244 = or i1 %234, %235
  %245 = xor i1 %244, true
  %246 = or i1 true, %236
  %247 = and i1 %245, %246
  %248 = or i1 %243, %247
  %249 = or i1 %232, %233
  %250 = select i1 %248, i32 634809855, i32 1962859767
  store i32 %250, i32* %21
  br label %347

; <label>:251:                                    ; preds = %22
  %252 = load volatile i64*, i64** %9
  %253 = load i64, i64* %252, align 8
  store i64 %253, i64* %3
  %254 = load i32, i32* @x.51
  %255 = load i32, i32* @y.52
  %256 = sub i32 %254, 507049598
  %257 = sub i32 %256, 1
  %258 = add i32 %257, 507049598
  %259 = sub i32 %254, 1
  %260 = mul i32 %254, %258
  %261 = urem i32 %260, 2
  %262 = icmp eq i32 %261, 0
  %263 = icmp slt i32 %255, 10
  %264 = and i1 %262, %263
  %265 = xor i1 %262, %263
  %266 = or i1 %264, %265
  %267 = or i1 %262, %263
  %268 = select i1 %266, i32 -2029369334, i32 1962859767
  store i32 %268, i32* %21
  br label %347

; <label>:269:                                    ; preds = %22
  %270 = load volatile i64, i64* %3
  ret i64 %270

; <label>:271:                                    ; preds = %22
  %272 = alloca i64, align 8
  %273 = alloca i64, align 8
  %274 = alloca i64, align 8
  %275 = alloca i64, align 8
  store i64 %0, i64* %273, align 8
  store i64 %1, i64* %274, align 8
  %276 = load i64, i64* %274, align 8
  %277 = icmp eq i64 %276, 0
  store i32 1744589160, i32* %21
  br label %347

; <label>:278:                                    ; preds = %22
  %279 = load volatile i64*, i64** %7
  %280 = load i64, i64* %279, align 8
  %281 = add i64 %280, -6204988150462028875
  %282 = sub i64 %281, 2
  %283 = sub i64 %282, -6204988150462028875
  %284 = sub i64 %280, 2
  %285 = mul i64 %283, 2
  %286 = srem i64 %280, 2
  %287 = icmp eq i64 %286, 0
  store i32 565330984, i32* %21
  br label %347

; <label>:288:                                    ; preds = %22
  %289 = load volatile i64*, i64** %8
  %290 = load i64, i64* %289, align 8
  %291 = load volatile i64*, i64** %8
  %292 = load i64, i64* %291, align 8
  %293 = load volatile i64*, i64** %7
  %294 = load i64, i64* %293, align 8
  %295 = shl i64 %294, 1
  %296 = sub i64 0, -4342483183331517431
  %297 = sub i64 %296, %294
  %298 = add i64 %297, -4342483183331517431
  %299 = sub i64 0, %294
  %300 = sub i64 0, %298
  %301 = sub i64 0, 1
  %302 = add i64 %300, %301
  %303 = sub i64 0, %302
  %304 = add i64 %298, 1
  %305 = sub i64 %294, -8005170005433579011
  %306 = sub i64 %305, 1
  %307 = add i64 %306, -8005170005433579011
  %308 = sub i64 %294, 1
  %309 = mul i64 %307, 1
  %310 = shl i64 %294, 1
  %311 = add i64 %294, -4212347386789240890
  %312 = sub i64 %311, 1
  %313 = sub i64 %312, -4212347386789240890
  %314 = sub nsw i64 %294, 1
  %315 = call i64 @_Z6powModxx(i64 %292, i64 %313)
  %316 = shl i64 %290, %315
  %317 = shl i64 %290, %315
  %318 = sub i64 0, %290
  %319 = add i64 0, %318
  %320 = sub i64 0, %290
  %321 = sub i64 0, %319
  %322 = sub i64 0, %315
  %323 = add i64 %321, %322
  %324 = sub i64 0, %323
  %325 = add i64 %319, %315
  %326 = mul nsw i64 %290, %315
  %327 = shl i64 %326, 1000000007
  %328 = add i64 %326, 5220791368854923885
  %329 = sub i64 %328, 1000000007
  %330 = sub i64 %329, 5220791368854923885
  %331 = sub i64 %326, 1000000007
  %332 = mul i64 %330, 1000000007
  %333 = shl i64 %326, 1000000007
  %334 = shl i64 %326, 1000000007
  %335 = sub i64 0, 1392987294380217698
  %336 = sub i64 %335, %326
  %337 = add i64 %336, 1392987294380217698
  %338 = sub i64 0, %326
  %339 = sub i64 0, 1000000007
  %340 = sub i64 %337, %339
  %341 = add i64 %337, 1000000007
  %342 = srem i64 %326, 1000000007
  %343 = load volatile i64*, i64** %9
  store i64 %342, i64* %343, align 8
  store i32 -101225198, i32* %21
  br label %347

; <label>:344:                                    ; preds = %22
  %345 = load volatile i64*, i64** %9
  %346 = load i64, i64* %345, align 8
  store i32 634809855, i32* %21
  br label %347

; <label>:347:                                    ; preds = %344, %288, %278, %271, %251, %223, %222, %181, %153, %138, %135, %103, %75, %73, %70, %45, %25, %24
  br label %22
}

; Function Attrs: noinline uwtable
define internal void @__cxx_global_var_init.6() #0 section ".text.startup" {
  call void @_ZNSt6vectorIxSaIxEEC2Ev(%"class.std::vector.6"* @fac) #3
  %1 = call i32 @__cxa_atexit(void (i8*)* bitcast (void (%"class.std::vector.6"*)* @_ZNSt6vectorIxSaIxEED2Ev to void (i8*)*), i8* bitcast (%"class.std::vector.6"* @fac to i8*), i8* @__dso_handle) #3
  ret void
}

; Function Attrs: noinline nounwind uwtable
define linkonce_odr void @_ZNSt6vectorIxSaIxEEC2Ev(%"class.std::vector.6"*) unnamed_addr #4 comdat align 2 personality i8* bitcast (i32 (...)* @__gxx_personality_v0 to i8*) {
  %2 = alloca %"class.std::vector.6"*, align 8
  store %"class.std::vector.6"* %0, %"class.std::vector.6"** %2, align 8
  %3 = load %"class.std::vector.6"*, %"class.std::vector.6"** %2, align 8
  %4 = bitcast %"class.std::vector.6"* %3 to %"struct.std::_Vector_base.7"*
  invoke void @_ZNSt12_Vector_baseIxSaIxEEC2Ev(%"struct.std::_Vector_base.7"* %4)
          to label %5 unwind label %6

; <label>:5:                                      ; preds = %1
  ret void

; <label>:6:                                      ; preds = %1
  %7 = load i32, i32* @x.55
  %8 = load i32, i32* @y.56
  %9 = sub i32 0, 1
  %10 = add i32 %7, %9
  %11 = sub i32 %7, 1
  %12 = mul i32 %7, %10
  %13 = urem i32 %12, 2
  %14 = icmp eq i32 %13, 0
  %15 = icmp slt i32 %8, 10
  %16 = xor i1 %14, true
  %17 = xor i1 %15, true
  %18 = xor i1 false, true
  %19 = and i1 %16, false
  %20 = and i1 %14, %18
  %21 = and i1 %17, false
  %22 = and i1 %15, %18
  %23 = or i1 %19, %20
  %24 = or i1 %21, %22
  %25 = xor i1 %23, %24
  %26 = or i1 %16, %17
  %27 = xor i1 %26, true
  %28 = or i1 false, %18
  %29 = and i1 %27, %28
  %30 = or i1 %25, %29
  %31 = or i1 %14, %15
  br i1 %30, label %32, label %62

; <label>:32:                                     ; preds = %6, %62
  %33 = landingpad { i8*, i32 }
          catch i8* null
  %34 = extractvalue { i8*, i32 } %33, 0
  call void @__clang_call_terminate(i8* %34) #12
  %35 = load i32, i32* @x.55
  %36 = load i32, i32* @y.56
  %37 = add i32 %35, 546904365
  %38 = sub i32 %37, 1
  %39 = sub i32 %38, 546904365
  %40 = sub i32 %35, 1
  %41 = mul i32 %35, %39
  %42 = urem i32 %41, 2
  %43 = icmp eq i32 %42, 0
  %44 = icmp slt i32 %36, 10
  %45 = xor i1 %43, true
  %46 = xor i1 %44, true
  %47 = xor i1 false, true
  %48 = and i1 %45, false
  %49 = and i1 %43, %47
  %50 = and i1 %46, false
  %51 = and i1 %44, %47
  %52 = or i1 %48, %49
  %53 = or i1 %50, %51
  %54 = xor i1 %52, %53
  %55 = or i1 %45, %46
  %56 = xor i1 %55, true
  %57 = or i1 false, %47
  %58 = and i1 %56, %57
  %59 = or i1 %54, %58
  %60 = or i1 %43, %44
  br i1 %59, label %61, label %62

; <label>:61:                                     ; preds = %32
  unreachable

; <label>:62:                                     ; preds = %32, %6
  %63 = landingpad { i8*, i32 }
          catch i8* null
  %64 = extractvalue { i8*, i32 } %63, 0
  call void @__clang_call_terminate(i8* %64) #12
  br label %32
}

; Function Attrs: noinline nounwind uwtable
define linkonce_odr void @_ZNSt6vectorIxSaIxEED2Ev(%"class.std::vector.6"*) unnamed_addr #4 comdat align 2 personality i8* bitcast (i32 (...)* @__gxx_personality_v0 to i8*) {
  %2 = alloca %"class.std::vector.6"*, align 8
  %3 = alloca i8*
  %4 = alloca i32
  store %"class.std::vector.6"* %0, %"class.std::vector.6"** %2, align 8
  %5 = load %"class.std::vector.6"*, %"class.std::vector.6"** %2, align 8
  %6 = bitcast %"class.std::vector.6"* %5 to %"struct.std::_Vector_base.7"*
  %7 = getelementptr inbounds %"struct.std::_Vector_base.7", %"struct.std::_Vector_base.7"* %6, i32 0, i32 0
  %8 = getelementptr inbounds %"struct.std::_Vector_base<long long, std::allocator<long long> >::_Vector_impl", %"struct.std::_Vector_base<long long, std::allocator<long long> >::_Vector_impl"* %7, i32 0, i32 0
  %9 = load i64*, i64** %8, align 8
  %10 = bitcast %"class.std::vector.6"* %5 to %"struct.std::_Vector_base.7"*
  %11 = getelementptr inbounds %"struct.std::_Vector_base.7", %"struct.std::_Vector_base.7"* %10, i32 0, i32 0
  %12 = getelementptr inbounds %"struct.std::_Vector_base<long long, std::allocator<long long> >::_Vector_impl", %"struct.std::_Vector_base<long long, std::allocator<long long> >::_Vector_impl"* %11, i32 0, i32 1
  %13 = load i64*, i64** %12, align 8
  %14 = bitcast %"class.std::vector.6"* %5 to %"struct.std::_Vector_base.7"*
  %15 = call dereferenceable(1) %"class.std::allocator.8"* @_ZNSt12_Vector_baseIxSaIxEE19_M_get_Tp_allocatorEv(%"struct.std::_Vector_base.7"* %14) #3
  invoke void @_ZSt8_DestroyIPxxEvT_S1_RSaIT0_E(i64* %9, i64* %13, %"class.std::allocator.8"* dereferenceable(1) %15)
          to label %16 unwind label %18

; <label>:16:                                     ; preds = %1
  %17 = bitcast %"class.std::vector.6"* %5 to %"struct.std::_Vector_base.7"*
  call void @_ZNSt12_Vector_baseIxSaIxEED2Ev(%"struct.std::_Vector_base.7"* %17) #3
  ret void

; <label>:18:                                     ; preds = %1
  %19 = landingpad { i8*, i32 }
          catch i8* null
  %20 = extractvalue { i8*, i32 } %19, 0
  store i8* %20, i8** %3, align 8
  %21 = extractvalue { i8*, i32 } %19, 1
  store i32 %21, i32* %4, align 4
  %22 = bitcast %"class.std::vector.6"* %5 to %"struct.std::_Vector_base.7"*
  call void @_ZNSt12_Vector_baseIxSaIxEED2Ev(%"struct.std::_Vector_base.7"* %22) #3
  br label %23

; <label>:23:                                     ; preds = %18
  %24 = load i8*, i8** %3, align 8
  call void @__clang_call_terminate(i8* %24) #12
  unreachable
}

; Function Attrs: noinline uwtable
define internal void @__cxx_global_var_init.7() #0 section ".text.startup" {
  call void @_ZNSt6vectorIxSaIxEEC2Ev(%"class.std::vector.6"* @finv) #3
  %1 = call i32 @__cxa_atexit(void (i8*)* bitcast (void (%"class.std::vector.6"*)* @_ZNSt6vectorIxSaIxEED2Ev to void (i8*)*), i8* bitcast (%"class.std::vector.6"* @finv to i8*), i8* @__dso_handle) #3
  ret void
}

; Function Attrs: noinline uwtable
define internal void @__cxx_global_var_init.8() #0 section ".text.startup" {
  %1 = alloca i1
  %2 = alloca i1
  %3 = load i32, i32* @x.61
  %4 = load i32, i32* @y.62
  %5 = sub i32 %3, -63791504
  %6 = sub i32 %5, 1
  %7 = add i32 %6, -63791504
  %8 = sub i32 %3, 1
  %9 = mul i32 %3, %7
  %10 = urem i32 %9, 2
  %11 = icmp eq i32 %10, 0
  store i1 %11, i1* %2
  %12 = icmp slt i32 %4, 10
  store i1 %12, i1* %1
  %13 = alloca i32
  store i32 -506135312, i32* %13
  br label %14

; <label>:14:                                     ; preds = %0, %57
  %15 = load i32, i32* %13
  switch i32 %15, label %16 [
    i32 -506135312, label %17
    i32 1048183304, label %25
    i32 -1567132175, label %54
    i32 -1219186895, label %55
  ]

; <label>:16:                                     ; preds = %14
  br label %57

; <label>:17:                                     ; preds = %14
  %18 = load volatile i1, i1* %2
  %19 = load volatile i1, i1* %1
  %20 = and i1 %18, %19
  %21 = xor i1 %18, %19
  %22 = or i1 %20, %21
  %23 = or i1 %18, %19
  %24 = select i1 %22, i32 1048183304, i32 -1219186895
  store i32 %24, i32* %13
  br label %57

; <label>:25:                                     ; preds = %14
  call void @_ZNSt6vectorIxSaIxEEC2Ev(%"class.std::vector.6"* @inv) #3
  %26 = call i32 @__cxa_atexit(void (i8*)* bitcast (void (%"class.std::vector.6"*)* @_ZNSt6vectorIxSaIxEED2Ev to void (i8*)*), i8* bitcast (%"class.std::vector.6"* @inv to i8*), i8* @__dso_handle) #3
  %27 = load i32, i32* @x.61
  %28 = load i32, i32* @y.62
  %29 = add i32 %27, 1019037582
  %30 = sub i32 %29, 1
  %31 = sub i32 %30, 1019037582
  %32 = sub i32 %27, 1
  %33 = mul i32 %27, %31
  %34 = urem i32 %33, 2
  %35 = icmp eq i32 %34, 0
  %36 = icmp slt i32 %28, 10
  %37 = xor i1 %35, true
  %38 = xor i1 %36, true
  %39 = xor i1 false, true
  %40 = and i1 %37, false
  %41 = and i1 %35, %39
  %42 = and i1 %38, false
  %43 = and i1 %36, %39
  %44 = or i1 %40, %41
  %45 = or i1 %42, %43
  %46 = xor i1 %44, %45
  %47 = or i1 %37, %38
  %48 = xor i1 %47, true
  %49 = or i1 false, %39
  %50 = and i1 %48, %49
  %51 = or i1 %46, %50
  %52 = or i1 %35, %36
  %53 = select i1 %51, i32 -1567132175, i32 -1219186895
  store i32 %53, i32* %13
  br label %57

; <label>:54:                                     ; preds = %14
  ret void

; <label>:55:                                     ; preds = %14
  call void @_ZNSt6vectorIxSaIxEEC2Ev(%"class.std::vector.6"* @inv) #3
  %56 = call i32 @__cxa_atexit(void (i8*)* bitcast (void (%"class.std::vector.6"*)* @_ZNSt6vectorIxSaIxEED2Ev to void (i8*)*), i8* bitcast (%"class.std::vector.6"* @inv to i8*), i8* @__dso_handle) #3
  store i32 1048183304, i32* %13
  br label %57

; <label>:57:                                     ; preds = %55, %25, %17, %16
  br label %14
}

; Function Attrs: noinline uwtable
define void @_Z11factModInitv() #0 {
  %1 = alloca i32, align 4
  call void @_ZNSt6vectorIxSaIxEE6resizeEm(%"class.std::vector.6"* @fac, i64 1000009)
  call void @_ZNSt6vectorIxSaIxEE6resizeEm(%"class.std::vector.6"* @finv, i64 1000009)
  call void @_ZNSt6vectorIxSaIxEE6resizeEm(%"class.std::vector.6"* @inv, i64 1000009)
  %2 = call dereferenceable(8) i64* @_ZNSt6vectorIxSaIxEEixEm(%"class.std::vector.6"* @fac, i64 1) #3
  store i64 1, i64* %2, align 8
  %3 = call dereferenceable(8) i64* @_ZNSt6vectorIxSaIxEEixEm(%"class.std::vector.6"* @fac, i64 0) #3
  store i64 1, i64* %3, align 8
  %4 = call dereferenceable(8) i64* @_ZNSt6vectorIxSaIxEEixEm(%"class.std::vector.6"* @finv, i64 1) #3
  store i64 1, i64* %4, align 8
  %5 = call dereferenceable(8) i64* @_ZNSt6vectorIxSaIxEEixEm(%"class.std::vector.6"* @finv, i64 0) #3
  store i64 1, i64* %5, align 8
  %6 = call dereferenceable(8) i64* @_ZNSt6vectorIxSaIxEEixEm(%"class.std::vector.6"* @inv, i64 1) #3
  store i64 1, i64* %6, align 8
  store i32 2, i32* %1, align 4
  %7 = alloca i32
  store i32 1934642196, i32* %7
  br label %8

; <label>:8:                                      ; preds = %0, %189
  %9 = load i32, i32* %7
  switch i32 %9, label %10 [
    i32 1934642196, label %11
    i32 -1767866848, label %15
    i32 -1116264615, label %64
    i32 1634107253, label %91
    i32 -48496311, label %112
    i32 -1050159647, label %113
    i32 -487264009, label %128
    i32 1895257963, label %155
    i32 -1232350920, label %156
    i32 -723163467, label %188
  ]

; <label>:10:                                     ; preds = %8
  br label %189

; <label>:11:                                     ; preds = %8
  %12 = load i32, i32* %1, align 4
  %13 = icmp slt i32 %12, 1000009
  %14 = select i1 %13, i32 -1767866848, i32 -1050159647
  store i32 %14, i32* %7
  br label %189

; <label>:15:                                     ; preds = %8
  %16 = load i32, i32* %1, align 4
  %17 = sub i32 %16, 1671284877
  %18 = sub i32 %17, 1
  %19 = add i32 %18, 1671284877
  %20 = sub nsw i32 %16, 1
  %21 = sext i32 %19 to i64
  %22 = call dereferenceable(8) i64* @_ZNSt6vectorIxSaIxEEixEm(%"class.std::vector.6"* @fac, i64 %21) #3
  %23 = load i64, i64* %22, align 8
  %24 = load i32, i32* %1, align 4
  %25 = sext i32 %24 to i64
  %26 = mul nsw i64 %23, %25
  %27 = srem i64 %26, 1000000007
  %28 = load i32, i32* %1, align 4
  %29 = sext i32 %28 to i64
  %30 = call dereferenceable(8) i64* @_ZNSt6vectorIxSaIxEEixEm(%"class.std::vector.6"* @fac, i64 %29) #3
  store i64 %27, i64* %30, align 8
  %31 = load i32, i32* %1, align 4
  %32 = srem i32 1000000007, %31
  %33 = sext i32 %32 to i64
  %34 = call dereferenceable(8) i64* @_ZNSt6vectorIxSaIxEEixEm(%"class.std::vector.6"* @inv, i64 %33) #3
  %35 = load i64, i64* %34, align 8
  %36 = load i32, i32* %1, align 4
  %37 = sdiv i32 1000000007, %36
  %38 = sext i32 %37 to i64
  %39 = mul nsw i64 %35, %38
  %40 = srem i64 %39, 1000000007
  %41 = sub i64 1000000007, -1488968285080920842
  %42 = sub i64 %41, %40
  %43 = add i64 %42, -1488968285080920842
  %44 = sub nsw i64 1000000007, %40
  %45 = load i32, i32* %1, align 4
  %46 = sext i32 %45 to i64
  %47 = call dereferenceable(8) i64* @_ZNSt6vectorIxSaIxEEixEm(%"class.std::vector.6"* @inv, i64 %46) #3
  store i64 %43, i64* %47, align 8
  %48 = load i32, i32* %1, align 4
  %49 = sub i32 0, 1
  %50 = add i32 %48, %49
  %51 = sub nsw i32 %48, 1
  %52 = sext i32 %50 to i64
  %53 = call dereferenceable(8) i64* @_ZNSt6vectorIxSaIxEEixEm(%"class.std::vector.6"* @finv, i64 %52) #3
  %54 = load i64, i64* %53, align 8
  %55 = load i32, i32* %1, align 4
  %56 = sext i32 %55 to i64
  %57 = call dereferenceable(8) i64* @_ZNSt6vectorIxSaIxEEixEm(%"class.std::vector.6"* @inv, i64 %56) #3
  %58 = load i64, i64* %57, align 8
  %59 = mul nsw i64 %54, %58
  %60 = srem i64 %59, 1000000007
  %61 = load i32, i32* %1, align 4
  %62 = sext i32 %61 to i64
  %63 = call dereferenceable(8) i64* @_ZNSt6vectorIxSaIxEEixEm(%"class.std::vector.6"* @finv, i64 %62) #3
  store i64 %60, i64* %63, align 8
  store i32 -1116264615, i32* %7
  br label %189

; <label>:64:                                     ; preds = %8
  %65 = load i32, i32* @x.63
  %66 = load i32, i32* @y.64
  %67 = sub i32 0, 1
  %68 = add i32 %65, %67
  %69 = sub i32 %65, 1
  %70 = mul i32 %65, %68
  %71 = urem i32 %70, 2
  %72 = icmp eq i32 %71, 0
  %73 = icmp slt i32 %66, 10
  %74 = xor i1 %72, true
  %75 = xor i1 %73, true
  %76 = xor i1 false, true
  %77 = and i1 %74, false
  %78 = and i1 %72, %76
  %79 = and i1 %75, false
  %80 = and i1 %73, %76
  %81 = or i1 %77, %78
  %82 = or i1 %79, %80
  %83 = xor i1 %81, %82
  %84 = or i1 %74, %75
  %85 = xor i1 %84, true
  %86 = or i1 false, %76
  %87 = and i1 %85, %86
  %88 = or i1 %83, %87
  %89 = or i1 %72, %73
  %90 = select i1 %88, i32 1634107253, i32 -1232350920
  store i32 %90, i32* %7
  br label %189

; <label>:91:                                     ; preds = %8
  %92 = load i32, i32* %1, align 4
  %93 = sub i32 0, %92
  %94 = sub i32 0, 1
  %95 = add i32 %93, %94
  %96 = sub i32 0, %95
  %97 = add nsw i32 %92, 1
  store i32 %96, i32* %1, align 4
  %98 = load i32, i32* @x.63
  %99 = load i32, i32* @y.64
  %100 = sub i32 0, 1
  %101 = add i32 %98, %100
  %102 = sub i32 %98, 1
  %103 = mul i32 %98, %101
  %104 = urem i32 %103, 2
  %105 = icmp eq i32 %104, 0
  %106 = icmp slt i32 %99, 10
  %107 = and i1 %105, %106
  %108 = xor i1 %105, %106
  %109 = or i1 %107, %108
  %110 = or i1 %105, %106
  %111 = select i1 %109, i32 -48496311, i32 -1232350920
  store i32 %111, i32* %7
  br label %189

; <label>:112:                                    ; preds = %8
  store i32 1934642196, i32* %7
  br label %189

; <label>:113:                                    ; preds = %8
  %114 = load i32, i32* @x.63
  %115 = load i32, i32* @y.64
  %116 = sub i32 0, 1
  %117 = add i32 %114, %116
  %118 = sub i32 %114, 1
  %119 = mul i32 %114, %117
  %120 = urem i32 %119, 2
  %121 = icmp eq i32 %120, 0
  %122 = icmp slt i32 %115, 10
  %123 = and i1 %121, %122
  %124 = xor i1 %121, %122
  %125 = or i1 %123, %124
  %126 = or i1 %121, %122
  %127 = select i1 %125, i32 -487264009, i32 -723163467
  store i32 %127, i32* %7
  br label %189

; <label>:128:                                    ; preds = %8
  %129 = load i32, i32* @x.63
  %130 = load i32, i32* @y.64
  %131 = sub i32 0, 1
  %132 = add i32 %129, %131
  %133 = sub i32 %129, 1
  %134 = mul i32 %129, %132
  %135 = urem i32 %134, 2
  %136 = icmp eq i32 %135, 0
  %137 = icmp slt i32 %130, 10
  %138 = xor i1 %136, true
  %139 = xor i1 %137, true
  %140 = xor i1 false, true
  %141 = and i1 %138, false
  %142 = and i1 %136, %140
  %143 = and i1 %139, false
  %144 = and i1 %137, %140
  %145 = or i1 %141, %142
  %146 = or i1 %143, %144
  %147 = xor i1 %145, %146
  %148 = or i1 %138, %139
  %149 = xor i1 %148, true
  %150 = or i1 false, %140
  %151 = and i1 %149, %150
  %152 = or i1 %147, %151
  %153 = or i1 %136, %137
  %154 = select i1 %152, i32 1895257963, i32 -723163467
  store i32 %154, i32* %7
  br label %189

; <label>:155:                                    ; preds = %8
  ret void

; <label>:156:                                    ; preds = %8
  %157 = load i32, i32* %1, align 4
  %158 = add i32 0, 109447769
  %159 = sub i32 %158, %157
  %160 = sub i32 %159, 109447769
  %161 = sub i32 0, %157
  %162 = sub i32 0, 1
  %163 = sub i32 %160, %162
  %164 = add i32 %160, 1
  %165 = sub i32 0, %157
  %166 = add i32 0, %165
  %167 = sub i32 0, %157
  %168 = sub i32 %166, 1223304137
  %169 = add i32 %168, 1
  %170 = add i32 %169, 1223304137
  %171 = add i32 %166, 1
  %172 = sub i32 0, 1
  %173 = add i32 %157, %172
  %174 = sub i32 %157, 1
  %175 = mul i32 %173, 1
  %176 = sub i32 0, -489849926
  %177 = sub i32 %176, %157
  %178 = add i32 %177, -489849926
  %179 = sub i32 0, %157
  %180 = add i32 %178, 1856640715
  %181 = add i32 %180, 1
  %182 = sub i32 %181, 1856640715
  %183 = add i32 %178, 1
  %184 = add i32 %157, -1237219443
  %185 = add i32 %184, 1
  %186 = sub i32 %185, -1237219443
  %187 = add nsw i32 %157, 1
  store i32 %186, i32* %1, align 4
  store i32 1634107253, i32* %7
  br label %189

; <label>:188:                                    ; preds = %8
  store i32 -487264009, i32* %7
  br label %189

; <label>:189:                                    ; preds = %188, %156, %128, %113, %112, %91, %64, %15, %11, %10
  br label %8
}

; Function Attrs: noinline uwtable
define linkonce_odr void @_ZNSt6vectorIxSaIxEE6resizeEm(%"class.std::vector.6"*, i64) #0 comdat align 2 {
  %3 = alloca i64
  %4 = alloca i64
  %5 = alloca %"class.std::vector.6"*
  %6 = alloca %"class.std::vector.6"*, align 8
  %7 = alloca i64, align 8
  store %"class.std::vector.6"* %0, %"class.std::vector.6"** %6, align 8
  store i64 %1, i64* %7, align 8
  %8 = load %"class.std::vector.6"*, %"class.std::vector.6"** %6, align 8
  store %"class.std::vector.6"* %8, %"class.std::vector.6"** %5
  %9 = load i64, i64* %7, align 8
  store i64 %9, i64* %4
  %10 = load volatile %"class.std::vector.6"*, %"class.std::vector.6"** %5
  %11 = call i64 @_ZNKSt6vectorIxSaIxEE4sizeEv(%"class.std::vector.6"* %10) #3
  store i64 %11, i64* %3
  %12 = alloca i32
  store i32 179175317, i32* %12
  br label %13

; <label>:13:                                     ; preds = %2, %91
  %14 = load i32, i32* %12
  switch i32 %14, label %15 [
    i32 179175317, label %16
    i32 1398017727, label %21
    i32 -1210681776, label %29
    i32 -1126257785, label %35
    i32 1268847928, label %44
    i32 1400507628, label %60
    i32 391180958, label %88
    i32 813760238, label %89
    i32 1729036378, label %90
  ]

; <label>:15:                                     ; preds = %13
  br label %91

; <label>:16:                                     ; preds = %13
  %17 = load volatile i64, i64* %4
  %18 = load volatile i64, i64* %3
  %19 = icmp ugt i64 %17, %18
  %20 = select i1 %19, i32 1398017727, i32 -1210681776
  store i32 %20, i32* %12
  br label %91

; <label>:21:                                     ; preds = %13
  %22 = load i64, i64* %7, align 8
  %23 = load volatile %"class.std::vector.6"*, %"class.std::vector.6"** %5
  %24 = call i64 @_ZNKSt6vectorIxSaIxEE4sizeEv(%"class.std::vector.6"* %23) #3
  %25 = sub i64 0, %24
  %26 = add i64 %22, %25
  %27 = sub i64 %22, %24
  %28 = load volatile %"class.std::vector.6"*, %"class.std::vector.6"** %5
  call void @_ZNSt6vectorIxSaIxEE17_M_default_appendEm(%"class.std::vector.6"* %28, i64 %26)
  store i32 813760238, i32* %12
  br label %91

; <label>:29:                                     ; preds = %13
  %30 = load i64, i64* %7, align 8
  %31 = load volatile %"class.std::vector.6"*, %"class.std::vector.6"** %5
  %32 = call i64 @_ZNKSt6vectorIxSaIxEE4sizeEv(%"class.std::vector.6"* %31) #3
  %33 = icmp ult i64 %30, %32
  %34 = select i1 %33, i32 -1126257785, i32 1268847928
  store i32 %34, i32* %12
  br label %91

; <label>:35:                                     ; preds = %13
  %36 = load volatile %"class.std::vector.6"*, %"class.std::vector.6"** %5
  %37 = bitcast %"class.std::vector.6"* %36 to %"struct.std::_Vector_base.7"*
  %38 = getelementptr inbounds %"struct.std::_Vector_base.7", %"struct.std::_Vector_base.7"* %37, i32 0, i32 0
  %39 = getelementptr inbounds %"struct.std::_Vector_base<long long, std::allocator<long long> >::_Vector_impl", %"struct.std::_Vector_base<long long, std::allocator<long long> >::_Vector_impl"* %38, i32 0, i32 0
  %40 = load i64*, i64** %39, align 8
  %41 = load i64, i64* %7, align 8
  %42 = getelementptr inbounds i64, i64* %40, i64 %41
  %43 = load volatile %"class.std::vector.6"*, %"class.std::vector.6"** %5
  call void @_ZNSt6vectorIxSaIxEE15_M_erase_at_endEPx(%"class.std::vector.6"* %43, i64* %42) #3
  store i32 1268847928, i32* %12
  br label %91

; <label>:44:                                     ; preds = %13
  %45 = load i32, i32* @x.65
  %46 = load i32, i32* @y.66
  %47 = sub i32 %45, 712535161
  %48 = sub i32 %47, 1
  %49 = add i32 %48, 712535161
  %50 = sub i32 %45, 1
  %51 = mul i32 %45, %49
  %52 = urem i32 %51, 2
  %53 = icmp eq i32 %52, 0
  %54 = icmp slt i32 %46, 10
  %55 = and i1 %53, %54
  %56 = xor i1 %53, %54
  %57 = or i1 %55, %56
  %58 = or i1 %53, %54
  %59 = select i1 %57, i32 1400507628, i32 1729036378
  store i32 %59, i32* %12
  br label %91

; <label>:60:                                     ; preds = %13
  %61 = load i32, i32* @x.65
  %62 = load i32, i32* @y.66
  %63 = sub i32 %61, 1016919404
  %64 = sub i32 %63, 1
  %65 = add i32 %64, 1016919404
  %66 = sub i32 %61, 1
  %67 = mul i32 %61, %65
  %68 = urem i32 %67, 2
  %69 = icmp eq i32 %68, 0
  %70 = icmp slt i32 %62, 10
  %71 = xor i1 %69, true
  %72 = xor i1 %70, true
  %73 = xor i1 true, true
  %74 = and i1 %71, true
  %75 = and i1 %69, %73
  %76 = and i1 %72, true
  %77 = and i1 %70, %73
  %78 = or i1 %74, %75
  %79 = or i1 %76, %77
  %80 = xor i1 %78, %79
  %81 = or i1 %71, %72
  %82 = xor i1 %81, true
  %83 = or i1 true, %73
  %84 = and i1 %82, %83
  %85 = or i1 %80, %84
  %86 = or i1 %69, %70
  %87 = select i1 %85, i32 391180958, i32 1729036378
  store i32 %87, i32* %12
  br label %91

; <label>:88:                                     ; preds = %13
  store i32 813760238, i32* %12
  br label %91

; <label>:89:                                     ; preds = %13
  ret void

; <label>:90:                                     ; preds = %13
  store i32 1400507628, i32* %12
  br label %91

; <label>:91:                                     ; preds = %90, %88, %60, %44, %35, %29, %21, %16, %15
  br label %13
}

; Function Attrs: noinline nounwind uwtable
define linkonce_odr dereferenceable(8) i64* @_ZNSt6vectorIxSaIxEEixEm(%"class.std::vector.6"*, i64) #4 comdat align 2 {
  %3 = alloca %"class.std::vector.6"*, align 8
  %4 = alloca i64, align 8
  store %"class.std::vector.6"* %0, %"class.std::vector.6"** %3, align 8
  store i64 %1, i64* %4, align 8
  %5 = load %"class.std::vector.6"*, %"class.std::vector.6"** %3, align 8
  %6 = bitcast %"class.std::vector.6"* %5 to %"struct.std::_Vector_base.7"*
  %7 = getelementptr inbounds %"struct.std::_Vector_base.7", %"struct.std::_Vector_base.7"* %6, i32 0, i32 0
  %8 = getelementptr inbounds %"struct.std::_Vector_base<long long, std::allocator<long long> >::_Vector_impl", %"struct.std::_Vector_base<long long, std::allocator<long long> >::_Vector_impl"* %7, i32 0, i32 0
  %9 = load i64*, i64** %8, align 8
  %10 = load i64, i64* %4, align 8
  %11 = getelementptr inbounds i64, i64* %9, i64 %10
  ret i64* %11
}

; Function Attrs: noinline nounwind uwtable
define i64 @_Z7factModx(i64) #4 {
  %2 = alloca i64
  %3 = alloca i1
  %4 = alloca i1
  %5 = load i32, i32* @x.69
  %6 = load i32, i32* @y.70
  %7 = sub i32 %5, -180067590
  %8 = sub i32 %7, 1
  %9 = add i32 %8, -180067590
  %10 = sub i32 %5, 1
  %11 = mul i32 %5, %9
  %12 = urem i32 %11, 2
  %13 = icmp eq i32 %12, 0
  store i1 %13, i1* %4
  %14 = icmp slt i32 %6, 10
  store i1 %14, i1* %3
  %15 = alloca i32
  store i32 -1562496990, i32* %15
  br label %16

; <label>:16:                                     ; preds = %1, %112
  %17 = load i32, i32* %15
  switch i32 %17, label %18 [
    i32 -1562496990, label %19
    i32 -1532687645, label %27
    i32 1298976161, label %60
    i32 -941445722, label %62
  ]

; <label>:18:                                     ; preds = %16
  br label %112

; <label>:19:                                     ; preds = %16
  %20 = load volatile i1, i1* %4
  %21 = load volatile i1, i1* %3
  %22 = and i1 %20, %21
  %23 = xor i1 %20, %21
  %24 = or i1 %22, %23
  %25 = or i1 %20, %21
  %26 = select i1 %24, i32 -1532687645, i32 -941445722
  store i32 %26, i32* %15
  br label %112

; <label>:27:                                     ; preds = %16
  %28 = alloca i64, align 8
  store i64 %0, i64* %28, align 8
  %29 = load i64, i64* %28, align 8
  %30 = call dereferenceable(8) i64* @_ZNSt6vectorIxSaIxEEixEm(%"class.std::vector.6"* @fac, i64 %29) #3
  %31 = load i64, i64* %30, align 8
  %32 = srem i64 %31, 1000000007
  store i64 %32, i64* %2
  %33 = load i32, i32* @x.69
  %34 = load i32, i32* @y.70
  %35 = sub i32 %33, 1106054557
  %36 = sub i32 %35, 1
  %37 = add i32 %36, 1106054557
  %38 = sub i32 %33, 1
  %39 = mul i32 %33, %37
  %40 = urem i32 %39, 2
  %41 = icmp eq i32 %40, 0
  %42 = icmp slt i32 %34, 10
  %43 = xor i1 %41, true
  %44 = xor i1 %42, true
  %45 = xor i1 true, true
  %46 = and i1 %43, true
  %47 = and i1 %41, %45
  %48 = and i1 %44, true
  %49 = and i1 %42, %45
  %50 = or i1 %46, %47
  %51 = or i1 %48, %49
  %52 = xor i1 %50, %51
  %53 = or i1 %43, %44
  %54 = xor i1 %53, true
  %55 = or i1 true, %45
  %56 = and i1 %54, %55
  %57 = or i1 %52, %56
  %58 = or i1 %41, %42
  %59 = select i1 %57, i32 1298976161, i32 -941445722
  store i32 %59, i32* %15
  br label %112

; <label>:60:                                     ; preds = %16
  %61 = load volatile i64, i64* %2
  ret i64 %61

; <label>:62:                                     ; preds = %16
  %63 = alloca i64, align 8
  store i64 %0, i64* %63, align 8
  %64 = load i64, i64* %63, align 8
  %65 = call dereferenceable(8) i64* @_ZNSt6vectorIxSaIxEEixEm(%"class.std::vector.6"* @fac, i64 %64) #3
  %66 = load i64, i64* %65, align 8
  %67 = sub i64 0, %66
  %68 = add i64 0, %67
  %69 = sub i64 0, %66
  %70 = sub i64 0, %68
  %71 = sub i64 0, 1000000007
  %72 = add i64 %70, %71
  %73 = sub i64 0, %72
  %74 = add i64 %68, 1000000007
  %75 = sub i64 0, %66
  %76 = add i64 0, %75
  %77 = sub i64 0, %66
  %78 = sub i64 0, 1000000007
  %79 = sub i64 %76, %78
  %80 = add i64 %76, 1000000007
  %81 = add i64 0, 3236204589144169967
  %82 = sub i64 %81, %66
  %83 = sub i64 %82, 3236204589144169967
  %84 = sub i64 0, %66
  %85 = sub i64 0, 1000000007
  %86 = sub i64 %83, %85
  %87 = add i64 %83, 1000000007
  %88 = shl i64 %66, 1000000007
  %89 = shl i64 %66, 1000000007
  %90 = add i64 %66, 4930570070880196221
  %91 = sub i64 %90, 1000000007
  %92 = sub i64 %91, 4930570070880196221
  %93 = sub i64 %66, 1000000007
  %94 = mul i64 %92, 1000000007
  %95 = shl i64 %66, 1000000007
  %96 = add i64 0, 3855553293450089125
  %97 = sub i64 %96, %66
  %98 = sub i64 %97, 3855553293450089125
  %99 = sub i64 0, %66
  %100 = sub i64 0, 1000000007
  %101 = sub i64 %98, %100
  %102 = add i64 %98, 1000000007
  %103 = sub i64 0, 7054935597205754450
  %104 = sub i64 %103, %66
  %105 = add i64 %104, 7054935597205754450
  %106 = sub i64 0, %66
  %107 = add i64 %105, -934457412200967335
  %108 = add i64 %107, 1000000007
  %109 = sub i64 %108, -934457412200967335
  %110 = add i64 %105, 1000000007
  %111 = srem i64 %66, 1000000007
  store i32 -1532687645, i32* %15
  br label %112

; <label>:112:                                    ; preds = %62, %27, %19, %18
  br label %16
}

; Function Attrs: noinline nounwind uwtable
define i64 @_Z10factInvModx(i64) #4 {
  %2 = alloca i64, align 8
  store i64 %0, i64* %2, align 8
  %3 = load i64, i64* %2, align 8
  %4 = call dereferenceable(8) i64* @_ZNSt6vectorIxSaIxEEixEm(%"class.std::vector.6"* @finv, i64 %3) #3
  %5 = load i64, i64* %4, align 8
  %6 = srem i64 %5, 1000000007
  ret i64 %6
}

; Function Attrs: noinline nounwind uwtable
define i64 @_Z7permModxx(i64, i64) #4 {
  %3 = alloca i64
  %4 = alloca i64, align 8
  %5 = alloca i64, align 8
  %6 = alloca i64, align 8
  store i64 %0, i64* %5, align 8
  store i64 %1, i64* %6, align 8
  %7 = load i64, i64* %5, align 8
  store i64 %7, i64* %3
  %8 = alloca i32
  store i32 2049606091, i32* %8
  br label %9

; <label>:9:                                      ; preds = %2, %40
  %10 = load i32, i32* %8
  switch i32 %10, label %11 [
    i32 2049606091, label %12
    i32 678775656, label %16
    i32 -981912150, label %20
    i32 -262924773, label %25
    i32 1077218301, label %26
    i32 -835377729, label %38
  ]

; <label>:11:                                     ; preds = %9
  br label %40

; <label>:12:                                     ; preds = %9
  %13 = load volatile i64, i64* %3
  %14 = icmp slt i64 %13, 0
  %15 = select i1 %14, i32 -262924773, i32 678775656
  store i32 %15, i32* %8
  br label %40

; <label>:16:                                     ; preds = %9
  %17 = load i64, i64* %6, align 8
  %18 = icmp slt i64 %17, 0
  %19 = select i1 %18, i32 -262924773, i32 -981912150
  store i32 %19, i32* %8
  br label %40

; <label>:20:                                     ; preds = %9
  %21 = load i64, i64* %5, align 8
  %22 = load i64, i64* %6, align 8
  %23 = icmp slt i64 %21, %22
  %24 = select i1 %23, i32 -262924773, i32 1077218301
  store i32 %24, i32* %8
  br label %40

; <label>:25:                                     ; preds = %9
  store i64 0, i64* %4, align 8
  store i32 -835377729, i32* %8
  br label %40

; <label>:26:                                     ; preds = %9
  %27 = load i64, i64* %5, align 8
  %28 = call i64 @_Z7factModx(i64 %27)
  %29 = load i64, i64* %5, align 8
  %30 = load i64, i64* %6, align 8
  %31 = sub i64 %29, -3819252055592372077
  %32 = sub i64 %31, %30
  %33 = add i64 %32, -3819252055592372077
  %34 = sub nsw i64 %29, %30
  %35 = call i64 @_Z10factInvModx(i64 %33)
  %36 = mul nsw i64 %28, %35
  %37 = srem i64 %36, 1000000007
  store i64 %37, i64* %4, align 8
  store i32 -835377729, i32* %8
  br label %40

; <label>:38:                                     ; preds = %9
  %39 = load i64, i64* %4, align 8
  ret i64 %39

; <label>:40:                                     ; preds = %26, %25, %20, %16, %12, %11
  br label %9
}

; Function Attrs: noinline nounwind uwtable
define i64 @_Z7combModxx(i64, i64) #4 {
  %3 = alloca i64
  %4 = alloca i64
  %5 = alloca i64, align 8
  %6 = alloca i64, align 8
  %7 = alloca i64, align 8
  %8 = alloca i64, align 8
  %9 = alloca i64, align 8
  %10 = alloca i64, align 8
  store i64 %0, i64* %6, align 8
  store i64 %1, i64* %7, align 8
  %11 = load i64, i64* %6, align 8
  store i64 %11, i64* %4
  %12 = alloca i32
  store i32 -1552376255, i32* %12
  %13 = alloca i64
  br label %14

; <label>:14:                                     ; preds = %2, %216
  %15 = load i32, i32* %12
  switch i32 %15, label %16 [
    i32 -1552376255, label %17
    i32 -1804640696, label %21
    i32 702691511, label %25
    i32 -1220094875, label %30
    i32 428115245, label %31
    i32 -335071116, label %35
    i32 -134852830, label %51
    i32 -958260014, label %61
    i32 451715022, label %76
    i32 -1715228057, label %104
    i32 909977870, label %106
    i32 1688973182, label %112
    i32 -1322644748, label %115
    i32 1776494129, label %125
    i32 295295443, label %153
    i32 -20994155, label %174
    i32 -80350479, label %175
    i32 1062933942, label %182
    i32 946736180, label %188
    i32 2063038759, label %190
    i32 1694089613, label %192
  ]

; <label>:16:                                     ; preds = %14
  br label %216

; <label>:17:                                     ; preds = %14
  %18 = load volatile i64, i64* %4
  %19 = icmp slt i64 %18, 0
  %20 = select i1 %19, i32 -1220094875, i32 -1804640696
  store i32 %20, i32* %12
  br label %216

; <label>:21:                                     ; preds = %14
  %22 = load i64, i64* %7, align 8
  %23 = icmp slt i64 %22, 0
  %24 = select i1 %23, i32 -1220094875, i32 702691511
  store i32 %24, i32* %12
  br label %216

; <label>:25:                                     ; preds = %14
  %26 = load i64, i64* %6, align 8
  %27 = load i64, i64* %7, align 8
  %28 = icmp slt i64 %26, %27
  %29 = select i1 %28, i32 -1220094875, i32 428115245
  store i32 %29, i32* %12
  br label %216

; <label>:30:                                     ; preds = %14
  store i64 0, i64* %5, align 8
  store i32 946736180, i32* %12
  br label %216

; <label>:31:                                     ; preds = %14
  %32 = load i64, i64* %6, align 8
  %33 = icmp slt i64 %32, 1000009
  %34 = select i1 %33, i32 -335071116, i32 -134852830
  store i32 %34, i32* %12
  br label %216

; <label>:35:                                     ; preds = %14
  %36 = load i64, i64* %6, align 8
  %37 = call i64 @_Z7factModx(i64 %36)
  %38 = load i64, i64* %7, align 8
  %39 = call i64 @_Z10factInvModx(i64 %38)
  %40 = load i64, i64* %6, align 8
  %41 = load i64, i64* %7, align 8
  %42 = sub i64 %40, 2256142146350085728
  %43 = sub i64 %42, %41
  %44 = add i64 %43, 2256142146350085728
  %45 = sub nsw i64 %40, %41
  %46 = call i64 @_Z10factInvModx(i64 %44)
  %47 = mul nsw i64 %39, %46
  %48 = srem i64 %47, 1000000007
  %49 = mul nsw i64 %37, %48
  %50 = srem i64 %49, 1000000007
  store i64 %50, i64* %5, align 8
  store i32 946736180, i32* %12
  br label %216

; <label>:51:                                     ; preds = %14
  store i64 1, i64* %8, align 8
  %52 = load i64, i64* %7, align 8
  %53 = load i64, i64* %6, align 8
  %54 = load i64, i64* %7, align 8
  %55 = add i64 %53, -4054049318248037540
  %56 = sub i64 %55, %54
  %57 = sub i64 %56, -4054049318248037540
  %58 = sub nsw i64 %53, %54
  %59 = icmp slt i64 %52, %57
  %60 = select i1 %59, i32 -958260014, i32 909977870
  store i32 %60, i32* %12
  br label %216

; <label>:61:                                     ; preds = %14
  %62 = load i32, i32* @x.75
  %63 = load i32, i32* @y.76
  %64 = sub i32 0, 1
  %65 = add i32 %62, %64
  %66 = sub i32 %62, 1
  %67 = mul i32 %62, %65
  %68 = urem i32 %67, 2
  %69 = icmp eq i32 %68, 0
  %70 = icmp slt i32 %63, 10
  %71 = and i1 %69, %70
  %72 = xor i1 %69, %70
  %73 = or i1 %71, %72
  %74 = or i1 %69, %70
  %75 = select i1 %73, i32 451715022, i32 2063038759
  store i32 %75, i32* %12
  br label %216

; <label>:76:                                     ; preds = %14
  %77 = load i64, i64* %7, align 8
  store i64 %77, i64* %3
  %78 = load i32, i32* @x.75
  %79 = load i32, i32* @y.76
  %80 = sub i32 0, 1
  %81 = add i32 %78, %80
  %82 = sub i32 %78, 1
  %83 = mul i32 %78, %81
  %84 = urem i32 %83, 2
  %85 = icmp eq i32 %84, 0
  %86 = icmp slt i32 %79, 10
  %87 = xor i1 %85, true
  %88 = xor i1 %86, true
  %89 = xor i1 false, true
  %90 = and i1 %87, false
  %91 = and i1 %85, %89
  %92 = and i1 %88, false
  %93 = and i1 %86, %89
  %94 = or i1 %90, %91
  %95 = or i1 %92, %93
  %96 = xor i1 %94, %95
  %97 = or i1 %87, %88
  %98 = xor i1 %97, true
  %99 = or i1 false, %89
  %100 = and i1 %98, %99
  %101 = or i1 %96, %100
  %102 = or i1 %85, %86
  %103 = select i1 %101, i32 -1715228057, i32 2063038759
  store i32 %103, i32* %12
  br label %216

; <label>:104:                                    ; preds = %14
  store i32 1688973182, i32* %12
  %105 = load volatile i64, i64* %3
  store i64 %105, i64* %13
  br label %216

; <label>:106:                                    ; preds = %14
  %107 = load i64, i64* %6, align 8
  %108 = load i64, i64* %7, align 8
  %109 = sub i64 0, %108
  %110 = add i64 %107, %109
  %111 = sub nsw i64 %107, %108
  store i32 1688973182, i32* %12
  store i64 %110, i64* %13
  br label %216

; <label>:112:                                    ; preds = %14
  %113 = load i64, i64* %13
  store i64 %113, i64* %9, align 8
  %114 = load i64, i64* %6, align 8
  store i64 %114, i64* %10, align 8
  store i32 -1322644748, i32* %12
  br label %216

; <label>:115:                                    ; preds = %14
  %116 = load i64, i64* %10, align 8
  %117 = load i64, i64* %6, align 8
  %118 = load i64, i64* %9, align 8
  %119 = sub i64 %117, -4916299343992379889
  %120 = sub i64 %119, %118
  %121 = add i64 %120, -4916299343992379889
  %122 = sub nsw i64 %117, %118
  %123 = icmp sgt i64 %116, %121
  %124 = select i1 %123, i32 1776494129, i32 1062933942
  store i32 %124, i32* %12
  br label %216

; <label>:125:                                    ; preds = %14
  %126 = load i32, i32* @x.75
  %127 = load i32, i32* @y.76
  %128 = sub i32 %126, 1875045493
  %129 = sub i32 %128, 1
  %130 = add i32 %129, 1875045493
  %131 = sub i32 %126, 1
  %132 = mul i32 %126, %130
  %133 = urem i32 %132, 2
  %134 = icmp eq i32 %133, 0
  %135 = icmp slt i32 %127, 10
  %136 = xor i1 %134, true
  %137 = xor i1 %135, true
  %138 = xor i1 true, true
  %139 = and i1 %136, true
  %140 = and i1 %134, %138
  %141 = and i1 %137, true
  %142 = and i1 %135, %138
  %143 = or i1 %139, %140
  %144 = or i1 %141, %142
  %145 = xor i1 %143, %144
  %146 = or i1 %136, %137
  %147 = xor i1 %146, true
  %148 = or i1 true, %138
  %149 = and i1 %147, %148
  %150 = or i1 %145, %149
  %151 = or i1 %134, %135
  %152 = select i1 %150, i32 295295443, i32 1694089613
  store i32 %152, i32* %12
  br label %216

; <label>:153:                                    ; preds = %14
  %154 = load i64, i64* %10, align 8
  %155 = load i64, i64* %8, align 8
  %156 = mul nsw i64 %155, %154
  store i64 %156, i64* %8, align 8
  %157 = load i64, i64* %8, align 8
  %158 = srem i64 %157, 1000000007
  store i64 %158, i64* %8, align 8
  %159 = load i32, i32* @x.75
  %160 = load i32, i32* @y.76
  %161 = add i32 %159, -585563661
  %162 = sub i32 %161, 1
  %163 = sub i32 %162, -585563661
  %164 = sub i32 %159, 1
  %165 = mul i32 %159, %163
  %166 = urem i32 %165, 2
  %167 = icmp eq i32 %166, 0
  %168 = icmp slt i32 %160, 10
  %169 = and i1 %167, %168
  %170 = xor i1 %167, %168
  %171 = or i1 %169, %170
  %172 = or i1 %167, %168
  %173 = select i1 %171, i32 -20994155, i32 1694089613
  store i32 %173, i32* %12
  br label %216

; <label>:174:                                    ; preds = %14
  store i32 -80350479, i32* %12
  br label %216

; <label>:175:                                    ; preds = %14
  %176 = load i64, i64* %10, align 8
  %177 = sub i64 0, %176
  %178 = sub i64 0, -1
  %179 = add i64 %177, %178
  %180 = sub i64 0, %179
  %181 = add nsw i64 %176, -1
  store i64 %180, i64* %10, align 8
  store i32 -1322644748, i32* %12
  br label %216

; <label>:182:                                    ; preds = %14
  %183 = load i64, i64* %8, align 8
  %184 = load i64, i64* %9, align 8
  %185 = call i64 @_Z10factInvModx(i64 %184)
  %186 = mul nsw i64 %183, %185
  %187 = srem i64 %186, 1000000007
  store i64 %187, i64* %5, align 8
  store i32 946736180, i32* %12
  br label %216

; <label>:188:                                    ; preds = %14
  %189 = load i64, i64* %5, align 8
  ret i64 %189

; <label>:190:                                    ; preds = %14
  %191 = load i64, i64* %7, align 8
  store i32 451715022, i32* %12
  br label %216

; <label>:192:                                    ; preds = %14
  %193 = load i64, i64* %10, align 8
  %194 = load i64, i64* %8, align 8
  %195 = add i64 %194, 4225207712985059693
  %196 = sub i64 %195, %193
  %197 = sub i64 %196, 4225207712985059693
  %198 = sub i64 %194, %193
  %199 = mul i64 %197, %193
  %200 = mul nsw i64 %194, %193
  store i64 %200, i64* %8, align 8
  %201 = load i64, i64* %8, align 8
  %202 = sub i64 0, 8186203692217389544
  %203 = sub i64 %202, %201
  %204 = add i64 %203, 8186203692217389544
  %205 = sub i64 0, %201
  %206 = sub i64 %204, 7631328534586767241
  %207 = add i64 %206, 1000000007
  %208 = add i64 %207, 7631328534586767241
  %209 = add i64 %204, 1000000007
  %210 = add i64 %201, 2771888889946342582
  %211 = sub i64 %210, 1000000007
  %212 = sub i64 %211, 2771888889946342582
  %213 = sub i64 %201, 1000000007
  %214 = mul i64 %212, 1000000007
  %215 = srem i64 %201, 1000000007
  store i64 %215, i64* %8, align 8
  store i32 295295443, i32* %12
  br label %216

; <label>:216:                                    ; preds = %192, %190, %182, %175, %174, %153, %125, %115, %112, %106, %104, %76, %61, %51, %35, %31, %30, %25, %21, %17, %16
  br label %14
}

; Function Attrs: noinline uwtable
define internal void @__cxx_global_var_init.9() #0 section ".text.startup" {
  call void @_ZNSt6vectorIbSaIbEEC2Ev(%"class.std::vector.11"* @sieve) #3
  %1 = call i32 @__cxa_atexit(void (i8*)* bitcast (void (%"class.std::vector.11"*)* @_ZNSt6vectorIbSaIbEED2Ev to void (i8*)*), i8* bitcast (%"class.std::vector.11"* @sieve to i8*), i8* @__dso_handle) #3
  ret void
}

; Function Attrs: noinline nounwind uwtable
define linkonce_odr void @_ZNSt6vectorIbSaIbEEC2Ev(%"class.std::vector.11"*) unnamed_addr #4 comdat align 2 personality i8* bitcast (i32 (...)* @__gxx_personality_v0 to i8*) {
  %2 = alloca %"class.std::vector.11"*, align 8
  store %"class.std::vector.11"* %0, %"class.std::vector.11"** %2, align 8
  %3 = load %"class.std::vector.11"*, %"class.std::vector.11"** %2, align 8
  %4 = bitcast %"class.std::vector.11"* %3 to %"struct.std::_Bvector_base"*
  invoke void @_ZNSt13_Bvector_baseISaIbEEC2Ev(%"struct.std::_Bvector_base"* %4)
          to label %5 unwind label %6

; <label>:5:                                      ; preds = %1
  ret void

; <label>:6:                                      ; preds = %1
  %7 = landingpad { i8*, i32 }
          catch i8* null
  %8 = extractvalue { i8*, i32 } %7, 0
  call void @__clang_call_terminate(i8* %8) #12
  unreachable
}

; Function Attrs: noinline nounwind uwtable
define linkonce_odr void @_ZNSt6vectorIbSaIbEED2Ev(%"class.std::vector.11"*) unnamed_addr #4 comdat align 2 {
  %2 = alloca %"class.std::vector.11"*, align 8
  store %"class.std::vector.11"* %0, %"class.std::vector.11"** %2, align 8
  %3 = load %"class.std::vector.11"*, %"class.std::vector.11"** %2, align 8
  %4 = bitcast %"class.std::vector.11"* %3 to %"struct.std::_Bvector_base"*
  call void @_ZNSt13_Bvector_baseISaIbEED2Ev(%"struct.std::_Bvector_base"* %4) #3
  ret void
}

; Function Attrs: noinline uwtable
define void @_Z9sieveInitx(i64) #0 {
  %2 = alloca i1
  %3 = alloca i1
  %4 = alloca i1
  %5 = alloca i1
  %6 = alloca i1
  %7 = alloca i1
  %8 = alloca i1
  %9 = alloca i1
  %10 = alloca i1
  %11 = alloca i1
  %12 = alloca %"struct.std::_Bit_reference"*
  %13 = alloca i32*
  %14 = alloca %"struct.std::_Bit_reference"*
  %15 = alloca i32*
  %16 = alloca %"struct.std::_Bit_reference"*
  %17 = alloca %"struct.std::_Bit_reference"*
  %18 = alloca i32*
  %19 = alloca i32*
  %20 = alloca i32*
  %21 = alloca %"struct.std::_Bit_reference"*
  %22 = alloca %"struct.std::_Bit_reference"*
  %23 = alloca i32*
  %24 = alloca %"struct.std::_Bit_reference"*
  %25 = alloca %"struct.std::_Bit_reference"*
  %26 = alloca i32*
  %27 = alloca i32*
  %28 = alloca i32*
  %29 = alloca %"struct.std::_Bit_reference"*
  %30 = alloca %"struct.std::_Bit_reference"*
  %31 = alloca i32*
  %32 = alloca %"struct.std::_Bit_reference"*
  %33 = alloca %"struct.std::_Bit_reference"*
  %34 = alloca i32*
  %35 = alloca i32*
  %36 = alloca i32*
  %37 = alloca i32*
  %38 = alloca %"struct.std::_Bit_reference"*
  %39 = alloca %"struct.std::_Bit_reference"*
  %40 = alloca i32*
  %41 = alloca i32*
  %42 = alloca i64*
  %43 = alloca i1
  %44 = alloca i1
  %45 = load i32, i32* @x.83
  %46 = load i32, i32* @y.84
  %47 = add i32 %45, 465829234
  %48 = sub i32 %47, 1
  %49 = sub i32 %48, 465829234
  %50 = sub i32 %45, 1
  %51 = mul i32 %45, %49
  %52 = urem i32 %51, 2
  %53 = icmp eq i32 %52, 0
  store i1 %53, i1* %44
  %54 = icmp slt i32 %46, 10
  store i1 %54, i1* %43
  %55 = alloca i32
  store i32 -2135560948, i32* %55
  %56 = alloca i1
  %57 = alloca i1
  %58 = alloca i1
  %59 = alloca i1
  %60 = alloca i1
  br label %61

; <label>:61:                                     ; preds = %1, %2318
  %62 = load i32, i32* %55
  switch i32 %62, label %63 [
    i32 -2135560948, label %64
    i32 753181019, label %84
    i32 1344517318, label %134
    i32 -939551259, label %137
    i32 -844644358, label %165
    i32 -811425934, label %184
    i32 -1723594816, label %187
    i32 1417682809, label %188
    i32 1404869550, label %228
    i32 1172481784, label %233
    i32 -1505295693, label %237
    i32 1812423036, label %244
    i32 -1932818052, label %246
    i32 -1040460078, label %253
    i32 989258446, label %269
    i32 698909769, label %305
    i32 -1025882350, label %307
    i32 1562106424, label %310
    i32 947009404, label %326
    i32 -567666708, label %371
    i32 -2068510501, label %372
    i32 546745345, label %388
    i32 -1964758217, label %422
    i32 -533159858, label %423
    i32 814311432, label %431
    i32 1023104795, label %438
    i32 1355846436, label %453
    i32 -465495377, label %500
    i32 1626309941, label %502
    i32 -812894242, label %505
    i32 438948455, label %532
    i32 1709955845, label %583
    i32 1950156708, label %584
    i32 773363994, label %591
    i32 1721624415, label %619
    i32 -2021848811, label %647
    i32 -752347509, label %648
    i32 584371796, label %656
    i32 519948948, label %657
    i32 1791591247, label %664
    i32 2031629642, label %666
    i32 826016054, label %671
    i32 -1618977995, label %675
    i32 -1652971546, label %703
    i32 -1874239944, label %724
    i32 38342689, label %727
    i32 186819536, label %729
    i32 2014146969, label %744
    i32 -164393221, label %777
    i32 1958209850, label %780
    i32 -950197852, label %800
    i32 360559706, label %829
    i32 807372995, label %857
    i32 -1880620577, label %860
    i32 -1184542816, label %875
    i32 1747513767, label %921
    i32 -1425203850, label %922
    i32 -1691285616, label %929
    i32 -1117879231, label %938
    i32 -466556035, label %945
    i32 1582195900, label %965
    i32 -696393350, label %982
    i32 466049085, label %1009
    i32 1833422543, label %1012
    i32 1747796937, label %1048
    i32 1812411103, label %1056
    i32 -1135726137, label %1057
    i32 -335337212, label %1066
    i32 1535866360, label %1067
    i32 706143760, label %1076
    i32 772704755, label %1078
    i32 1738380735, label %1083
    i32 1430498372, label %1110
    i32 1944400799, label %1139
    i32 -1730016848, label %1140
    i32 -1825471635, label %1147
    i32 -1540398437, label %1174
    i32 468816305, label %1192
    i32 568039084, label %1193
    i32 1200257977, label %1220
    i32 -928387989, label %1252
    i32 -979457317, label %1255
    i32 1165863787, label %1283
    i32 1133430413, label %1318
    i32 1403547569, label %1320
    i32 -274714411, label %1323
    i32 168147324, label %1351
    i32 -2046722317, label %1402
    i32 -375016381, label %1403
    i32 1108679749, label %1411
    i32 -823237853, label %1412
    i32 1876486432, label %1440
    i32 1061127644, label %1464
    i32 -435533749, label %1465
    i32 -597640925, label %1466
    i32 -1800659800, label %1475
    i32 674739064, label %1503
    i32 662112623, label %1531
    i32 -2127138966, label %1532
    i32 -1332186858, label %1539
    i32 -2078858047, label %1553
    i32 -882229456, label %1581
    i32 -301555227, label %1615
    i32 1875079354, label %1616
    i32 -185506106, label %1623
    i32 -1284678181, label %1636
    i32 -1509754493, label %1649
    i32 -445607269, label %1650
    i32 -1995673134, label %1651
    i32 -1104492555, label %1659
    i32 -223560301, label %1674
    i32 1274824955, label %1702
    i32 756011555, label %1703
    i32 -1475885819, label %1737
    i32 1251593834, label %1741
    i32 -159092502, label %1837
    i32 -1386243728, label %1898
    i32 -176325361, label %1933
    i32 812763647, label %1997
    i32 -1969408934, label %2054
    i32 -1473903038, label %2055
    i32 -246335055, label %2061
    i32 1528439780, label %2067
    i32 -1743951801, label %2068
    i32 1895431825, label %2137
    i32 -772133232, label %2138
    i32 2108690218, label %2140
    i32 -463305022, label %2144
    i32 1518368984, label %2150
    i32 -503756739, label %2228
    i32 -1514809380, label %2268
    i32 -2085275579, label %2289
    i32 -1238079287, label %2291
    i32 1359808904, label %2317
  ]

; <label>:63:                                     ; preds = %61
  br label %2318

; <label>:64:                                     ; preds = %61
  %65 = load volatile i1, i1* %44
  %66 = load volatile i1, i1* %43
  %67 = xor i1 %65, true
  %68 = xor i1 %66, true
  %69 = xor i1 false, true
  %70 = and i1 %67, false
  %71 = and i1 %65, %69
  %72 = and i1 %68, false
  %73 = and i1 %66, %69
  %74 = or i1 %70, %71
  %75 = or i1 %72, %73
  %76 = xor i1 %74, %75
  %77 = or i1 %67, %68
  %78 = xor i1 %77, true
  %79 = or i1 false, %69
  %80 = and i1 %78, %79
  %81 = or i1 %76, %80
  %82 = or i1 %65, %66
  %83 = select i1 %81, i32 753181019, i32 756011555
  store i32 %83, i32* %55
  br label %2318

; <label>:84:                                     ; preds = %61
  %85 = alloca i64, align 8
  store i64* %85, i64** %42
  %86 = alloca i32, align 4
  store i32* %86, i32** %41
  %87 = alloca i32, align 4
  store i32* %87, i32** %40
  %88 = alloca %"struct.std::_Bit_reference", align 8
  store %"struct.std::_Bit_reference"* %88, %"struct.std::_Bit_reference"** %39
  %89 = alloca %"struct.std::_Bit_reference", align 8
  store %"struct.std::_Bit_reference"* %89, %"struct.std::_Bit_reference"** %38
  %90 = alloca i32, align 4
  store i32* %90, i32** %37
  %91 = alloca i32, align 4
  store i32* %91, i32** %36
  %92 = alloca i32, align 4
  store i32* %92, i32** %35
  %93 = alloca i32, align 4
  store i32* %93, i32** %34
  %94 = alloca %"struct.std::_Bit_reference", align 8
  store %"struct.std::_Bit_reference"* %94, %"struct.std::_Bit_reference"** %33
  %95 = alloca %"struct.std::_Bit_reference", align 8
  store %"struct.std::_Bit_reference"* %95, %"struct.std::_Bit_reference"** %32
  %96 = alloca i32, align 4
  store i32* %96, i32** %31
  %97 = alloca %"struct.std::_Bit_reference", align 8
  store %"struct.std::_Bit_reference"* %97, %"struct.std::_Bit_reference"** %30
  %98 = alloca %"struct.std::_Bit_reference", align 8
  store %"struct.std::_Bit_reference"* %98, %"struct.std::_Bit_reference"** %29
  %99 = alloca i32, align 4
  store i32* %99, i32** %28
  %100 = alloca i32, align 4
  store i32* %100, i32** %27
  %101 = alloca i32, align 4
  store i32* %101, i32** %26
  %102 = alloca %"struct.std::_Bit_reference", align 8
  store %"struct.std::_Bit_reference"* %102, %"struct.std::_Bit_reference"** %25
  %103 = alloca %"struct.std::_Bit_reference", align 8
  store %"struct.std::_Bit_reference"* %103, %"struct.std::_Bit_reference"** %24
  %104 = alloca i32, align 4
  store i32* %104, i32** %23
  %105 = alloca %"struct.std::_Bit_reference", align 8
  store %"struct.std::_Bit_reference"* %105, %"struct.std::_Bit_reference"** %22
  %106 = alloca %"struct.std::_Bit_reference", align 8
  store %"struct.std::_Bit_reference"* %106, %"struct.std::_Bit_reference"** %21
  %107 = alloca i32, align 4
  store i32* %107, i32** %20
  %108 = alloca i32, align 4
  store i32* %108, i32** %19
  %109 = alloca i32, align 4
  store i32* %109, i32** %18
  %110 = alloca %"struct.std::_Bit_reference", align 8
  store %"struct.std::_Bit_reference"* %110, %"struct.std::_Bit_reference"** %17
  %111 = alloca %"struct.std::_Bit_reference", align 8
  store %"struct.std::_Bit_reference"* %111, %"struct.std::_Bit_reference"** %16
  %112 = alloca i32, align 4
  store i32* %112, i32** %15
  %113 = alloca %"struct.std::_Bit_reference", align 8
  store %"struct.std::_Bit_reference"* %113, %"struct.std::_Bit_reference"** %14
  %114 = alloca i32, align 4
  store i32* %114, i32** %13
  %115 = alloca %"struct.std::_Bit_reference", align 8
  store %"struct.std::_Bit_reference"* %115, %"struct.std::_Bit_reference"** %12
  %116 = load volatile i64*, i64** %42
  store i64 %0, i64* %116, align 8
  call void @_ZNSt6vectorIbSaIbEE5clearEv(%"class.std::vector.11"* @sieve) #3
  %117 = load volatile i64*, i64** %42
  %118 = load i64, i64* %117, align 8
  %119 = icmp slt i64 %118, 0
  store i1 %119, i1* %11
  %120 = load i32, i32* @x.83
  %121 = load i32, i32* @y.84
  %122 = sub i32 0, 1
  %123 = add i32 %120, %122
  %124 = sub i32 %120, 1
  %125 = mul i32 %120, %123
  %126 = urem i32 %125, 2
  %127 = icmp eq i32 %126, 0
  %128 = icmp slt i32 %121, 10
  %129 = and i1 %127, %128
  %130 = xor i1 %127, %128
  %131 = or i1 %129, %130
  %132 = or i1 %127, %128
  %133 = select i1 %131, i32 1344517318, i32 756011555
  store i32 %133, i32* %55
  br label %2318

; <label>:134:                                    ; preds = %61
  %135 = load volatile i1, i1* %11
  %136 = select i1 %135, i32 -1723594816, i32 -939551259
  store i32 %136, i32* %55
  br label %2318

; <label>:137:                                    ; preds = %61
  %138 = load i32, i32* @x.83
  %139 = load i32, i32* @y.84
  %140 = sub i32 %138, 1570060
  %141 = sub i32 %140, 1
  %142 = add i32 %141, 1570060
  %143 = sub i32 %138, 1
  %144 = mul i32 %138, %142
  %145 = urem i32 %144, 2
  %146 = icmp eq i32 %145, 0
  %147 = icmp slt i32 %139, 10
  %148 = xor i1 %146, true
  %149 = xor i1 %147, true
  %150 = xor i1 true, true
  %151 = and i1 %148, true
  %152 = and i1 %146, %150
  %153 = and i1 %149, true
  %154 = and i1 %147, %150
  %155 = or i1 %151, %152
  %156 = or i1 %153, %154
  %157 = xor i1 %155, %156
  %158 = or i1 %148, %149
  %159 = xor i1 %158, true
  %160 = or i1 true, %150
  %161 = and i1 %159, %160
  %162 = or i1 %157, %161
  %163 = or i1 %146, %147
  %164 = select i1 %162, i32 -844644358, i32 -1475885819
  store i32 %164, i32* %55
  br label %2318

; <label>:165:                                    ; preds = %61
  %166 = load volatile i64*, i64** %42
  %167 = load i64, i64* %166, align 8
  %168 = icmp sgt i64 %167, 1073741824
  store i1 %168, i1* %10
  %169 = load i32, i32* @x.83
  %170 = load i32, i32* @y.84
  %171 = sub i32 %169, 1594935546
  %172 = sub i32 %171, 1
  %173 = add i32 %172, 1594935546
  %174 = sub i32 %169, 1
  %175 = mul i32 %169, %173
  %176 = urem i32 %175, 2
  %177 = icmp eq i32 %176, 0
  %178 = icmp slt i32 %170, 10
  %179 = and i1 %177, %178
  %180 = xor i1 %177, %178
  %181 = or i1 %179, %180
  %182 = or i1 %177, %178
  %183 = select i1 %181, i32 -811425934, i32 -1475885819
  store i32 %183, i32* %55
  br label %2318

; <label>:184:                                    ; preds = %61
  %185 = load volatile i1, i1* %10
  %186 = select i1 %185, i32 -1723594816, i32 1417682809
  store i32 %186, i32* %55
  br label %2318

; <label>:187:                                    ; preds = %61
  store i32 -1104492555, i32* %55
  br label %2318

; <label>:188:                                    ; preds = %61
  %189 = load volatile i64*, i64** %42
  %190 = load i64, i64* %189, align 8
  %191 = trunc i64 %190 to i32
  %192 = sub i32 0, %191
  %193 = sub i32 0, 9
  %194 = add i32 %192, %193
  %195 = sub i32 0, %194
  %196 = add nsw i32 %191, 9
  %197 = load volatile i32*, i32** %41
  store i32 %195, i32* %197, align 4
  %198 = load volatile i32*, i32** %41
  %199 = load i32, i32* %198, align 4
  %200 = sitofp i32 %199 to double
  %201 = fadd double %200, 1.000000e-01
  %202 = call double @sqrt(double %201) #3
  %203 = fptosi double %202 to i32
  %204 = load volatile i32*, i32** %40
  store i32 %203, i32* %204, align 4
  %205 = load volatile i32*, i32** %41
  %206 = load i32, i32* %205, align 4
  %207 = sext i32 %206 to i64
  call void @_ZNSt6vectorIbSaIbEE6resizeEmb(%"class.std::vector.11"* @sieve, i64 %207, i1 zeroext false)
  %208 = call { i64*, i64 } @_ZNSt6vectorIbSaIbEEixEm(%"class.std::vector.11"* @sieve, i64 3)
  %209 = load volatile %"struct.std::_Bit_reference"*, %"struct.std::_Bit_reference"** %39
  %210 = bitcast %"struct.std::_Bit_reference"* %209 to { i64*, i64 }*
  %211 = getelementptr inbounds { i64*, i64 }, { i64*, i64 }* %210, i32 0, i32 0
  %212 = extractvalue { i64*, i64 } %208, 0
  store i64* %212, i64** %211, align 8
  %213 = getelementptr inbounds { i64*, i64 }, { i64*, i64 }* %210, i32 0, i32 1
  %214 = extractvalue { i64*, i64 } %208, 1
  store i64 %214, i64* %213, align 8
  %215 = load volatile %"struct.std::_Bit_reference"*, %"struct.std::_Bit_reference"** %39
  %216 = call dereferenceable(16) %"struct.std::_Bit_reference"* @_ZNSt14_Bit_referenceaSEb(%"struct.std::_Bit_reference"* %215, i1 zeroext true) #3
  %217 = call { i64*, i64 } @_ZNSt6vectorIbSaIbEEixEm(%"class.std::vector.11"* @sieve, i64 2)
  %218 = load volatile %"struct.std::_Bit_reference"*, %"struct.std::_Bit_reference"** %38
  %219 = bitcast %"struct.std::_Bit_reference"* %218 to { i64*, i64 }*
  %220 = getelementptr inbounds { i64*, i64 }, { i64*, i64 }* %219, i32 0, i32 0
  %221 = extractvalue { i64*, i64 } %217, 0
  store i64* %221, i64** %220, align 8
  %222 = getelementptr inbounds { i64*, i64 }, { i64*, i64 }* %219, i32 0, i32 1
  %223 = extractvalue { i64*, i64 } %217, 1
  store i64 %223, i64* %222, align 8
  %224 = load volatile %"struct.std::_Bit_reference"*, %"struct.std::_Bit_reference"** %38
  %225 = call dereferenceable(16) %"struct.std::_Bit_reference"* @_ZNSt14_Bit_referenceaSERKS_(%"struct.std::_Bit_reference"* %224, %"struct.std::_Bit_reference"* dereferenceable(16) %216) #3
  %226 = load volatile i32*, i32** %37
  store i32 0, i32* %226, align 4
  %227 = load volatile i32*, i32** %36
  store i32 1, i32* %227, align 4
  store i32 1404869550, i32* %55
  br label %2318

; <label>:228:                                    ; preds = %61
  %229 = load volatile i32*, i32** %36
  %230 = load i32, i32* %229, align 4
  %231 = icmp sle i32 %230, 5
  %232 = select i1 %231, i32 1172481784, i32 1791591247
  store i32 %232, i32* %55
  br label %2318

; <label>:233:                                    ; preds = %61
  %234 = load volatile i32*, i32** %36
  %235 = load i32, i32* %234, align 4
  %236 = load volatile i32*, i32** %35
  store i32 %235, i32* %236, align 4
  store i32 -1505295693, i32* %55
  br label %2318

; <label>:237:                                    ; preds = %61
  %238 = load volatile i32*, i32** %35
  %239 = load i32, i32* %238, align 4
  %240 = load volatile i32*, i32** %40
  %241 = load i32, i32* %240, align 4
  %242 = icmp sle i32 %239, %241
  %243 = select i1 %242, i32 1812423036, i32 584371796
  store i32 %243, i32* %55
  br label %2318

; <label>:244:                                    ; preds = %61
  %245 = load volatile i32*, i32** %34
  store i32 1, i32* %245, align 4
  store i32 -1932818052, i32* %55
  br label %2318

; <label>:246:                                    ; preds = %61
  %247 = load volatile i32*, i32** %34
  %248 = load i32, i32* %247, align 4
  %249 = load volatile i32*, i32** %40
  %250 = load i32, i32* %249, align 4
  %251 = icmp sle i32 %248, %250
  %252 = select i1 %251, i32 -1040460078, i32 -1025882350
  store i32 %252, i32* %55
  store i1 false, i1* %56
  br label %2318

; <label>:253:                                    ; preds = %61
  %254 = load i32, i32* @x.83
  %255 = load i32, i32* @y.84
  %256 = add i32 %254, -1553196239
  %257 = sub i32 %256, 1
  %258 = sub i32 %257, -1553196239
  %259 = sub i32 %254, 1
  %260 = mul i32 %254, %258
  %261 = urem i32 %260, 2
  %262 = icmp eq i32 %261, 0
  %263 = icmp slt i32 %255, 10
  %264 = and i1 %262, %263
  %265 = xor i1 %262, %263
  %266 = or i1 %264, %265
  %267 = or i1 %262, %263
  %268 = select i1 %266, i32 989258446, i32 1251593834
  store i32 %268, i32* %55
  br label %2318

; <label>:269:                                    ; preds = %61
  %270 = load volatile i32*, i32** %34
  %271 = load i32, i32* %270, align 4
  %272 = mul nsw i32 4, %271
  %273 = load volatile i32*, i32** %34
  %274 = load i32, i32* %273, align 4
  %275 = mul nsw i32 %272, %274
  %276 = load volatile i32*, i32** %35
  %277 = load i32, i32* %276, align 4
  %278 = load volatile i32*, i32** %35
  %279 = load i32, i32* %278, align 4
  %280 = mul nsw i32 %277, %279
  %281 = sub i32 0, %275
  %282 = sub i32 0, %280
  %283 = add i32 %281, %282
  %284 = sub i32 0, %283
  %285 = add nsw i32 %275, %280
  %286 = load volatile i32*, i32** %37
  store i32 %284, i32* %286, align 4
  %287 = load volatile i32*, i32** %41
  %288 = load i32, i32* %287, align 4
  %289 = icmp slt i32 %284, %288
  store i1 %289, i1* %9
  %290 = load i32, i32* @x.83
  %291 = load i32, i32* @y.84
  %292 = sub i32 %290, -761869457
  %293 = sub i32 %292, 1
  %294 = add i32 %293, -761869457
  %295 = sub i32 %290, 1
  %296 = mul i32 %290, %294
  %297 = urem i32 %296, 2
  %298 = icmp eq i32 %297, 0
  %299 = icmp slt i32 %291, 10
  %300 = and i1 %298, %299
  %301 = xor i1 %298, %299
  %302 = or i1 %300, %301
  %303 = or i1 %298, %299
  %304 = select i1 %302, i32 698909769, i32 1251593834
  store i32 %304, i32* %55
  br label %2318

; <label>:305:                                    ; preds = %61
  store i32 -1025882350, i32* %55
  %306 = load volatile i1, i1* %9
  store i1 %306, i1* %56
  br label %2318

; <label>:307:                                    ; preds = %61
  %308 = load i1, i1* %56
  %309 = select i1 %308, i32 1562106424, i32 -533159858
  store i32 %309, i32* %55
  br label %2318

; <label>:310:                                    ; preds = %61
  %311 = load i32, i32* @x.83
  %312 = load i32, i32* @y.84
  %313 = sub i32 %311, 1252492874
  %314 = sub i32 %313, 1
  %315 = add i32 %314, 1252492874
  %316 = sub i32 %311, 1
  %317 = mul i32 %311, %315
  %318 = urem i32 %317, 2
  %319 = icmp eq i32 %318, 0
  %320 = icmp slt i32 %312, 10
  %321 = and i1 %319, %320
  %322 = xor i1 %319, %320
  %323 = or i1 %321, %322
  %324 = or i1 %319, %320
  %325 = select i1 %323, i32 947009404, i32 -159092502
  store i32 %325, i32* %55
  br label %2318

; <label>:326:                                    ; preds = %61
  %327 = load volatile i32*, i32** %37
  %328 = load i32, i32* %327, align 4
  %329 = sext i32 %328 to i64
  %330 = call { i64*, i64 } @_ZNSt6vectorIbSaIbEEixEm(%"class.std::vector.11"* @sieve, i64 %329)
  %331 = load volatile %"struct.std::_Bit_reference"*, %"struct.std::_Bit_reference"** %33
  %332 = bitcast %"struct.std::_Bit_reference"* %331 to { i64*, i64 }*
  %333 = getelementptr inbounds { i64*, i64 }, { i64*, i64 }* %332, i32 0, i32 0
  %334 = extractvalue { i64*, i64 } %330, 0
  store i64* %334, i64** %333, align 8
  %335 = getelementptr inbounds { i64*, i64 }, { i64*, i64 }* %332, i32 0, i32 1
  %336 = extractvalue { i64*, i64 } %330, 1
  store i64 %336, i64* %335, align 8
  %337 = load volatile %"struct.std::_Bit_reference"*, %"struct.std::_Bit_reference"** %33
  %338 = call zeroext i1 @_ZNKSt14_Bit_referencecvbEv(%"struct.std::_Bit_reference"* %337) #3
  %339 = xor i1 %338, true
  %340 = and i1 true, %339
  %341 = xor i1 true, true
  %342 = and i1 %338, %341
  %343 = or i1 %340, %342
  %344 = xor i1 %338, true
  %345 = load volatile i32*, i32** %37
  %346 = load i32, i32* %345, align 4
  %347 = sext i32 %346 to i64
  %348 = call { i64*, i64 } @_ZNSt6vectorIbSaIbEEixEm(%"class.std::vector.11"* @sieve, i64 %347)
  %349 = load volatile %"struct.std::_Bit_reference"*, %"struct.std::_Bit_reference"** %32
  %350 = bitcast %"struct.std::_Bit_reference"* %349 to { i64*, i64 }*
  %351 = getelementptr inbounds { i64*, i64 }, { i64*, i64 }* %350, i32 0, i32 0
  %352 = extractvalue { i64*, i64 } %348, 0
  store i64* %352, i64** %351, align 8
  %353 = getelementptr inbounds { i64*, i64 }, { i64*, i64 }* %350, i32 0, i32 1
  %354 = extractvalue { i64*, i64 } %348, 1
  store i64 %354, i64* %353, align 8
  %355 = load volatile %"struct.std::_Bit_reference"*, %"struct.std::_Bit_reference"** %32
  %356 = call dereferenceable(16) %"struct.std::_Bit_reference"* @_ZNSt14_Bit_referenceaSEb(%"struct.std::_Bit_reference"* %355, i1 zeroext %343) #3
  %357 = load i32, i32* @x.83
  %358 = load i32, i32* @y.84
  %359 = sub i32 0, 1
  %360 = add i32 %357, %359
  %361 = sub i32 %357, 1
  %362 = mul i32 %357, %360
  %363 = urem i32 %362, 2
  %364 = icmp eq i32 %363, 0
  %365 = icmp slt i32 %358, 10
  %366 = and i1 %364, %365
  %367 = xor i1 %364, %365
  %368 = or i1 %366, %367
  %369 = or i1 %364, %365
  %370 = select i1 %368, i32 -567666708, i32 -159092502
  store i32 %370, i32* %55
  br label %2318

; <label>:371:                                    ; preds = %61
  store i32 -2068510501, i32* %55
  br label %2318

; <label>:372:                                    ; preds = %61
  %373 = load i32, i32* @x.83
  %374 = load i32, i32* @y.84
  %375 = add i32 %373, 845950181
  %376 = sub i32 %375, 1
  %377 = sub i32 %376, 845950181
  %378 = sub i32 %373, 1
  %379 = mul i32 %373, %377
  %380 = urem i32 %379, 2
  %381 = icmp eq i32 %380, 0
  %382 = icmp slt i32 %374, 10
  %383 = and i1 %381, %382
  %384 = xor i1 %381, %382
  %385 = or i1 %383, %384
  %386 = or i1 %381, %382
  %387 = select i1 %385, i32 546745345, i32 -1386243728
  store i32 %387, i32* %55
  br label %2318

; <label>:388:                                    ; preds = %61
  %389 = load volatile i32*, i32** %34
  %390 = load i32, i32* %389, align 4
  %391 = add i32 %390, 1354632206
  %392 = add i32 %391, 1
  %393 = sub i32 %392, 1354632206
  %394 = add nsw i32 %390, 1
  %395 = load volatile i32*, i32** %34
  store i32 %393, i32* %395, align 4
  %396 = load i32, i32* @x.83
  %397 = load i32, i32* @y.84
  %398 = sub i32 0, 1
  %399 = add i32 %396, %398
  %400 = sub i32 %396, 1
  %401 = mul i32 %396, %399
  %402 = urem i32 %401, 2
  %403 = icmp eq i32 %402, 0
  %404 = icmp slt i32 %397, 10
  %405 = xor i1 %403, true
  %406 = xor i1 %404, true
  %407 = xor i1 true, true
  %408 = and i1 %405, true
  %409 = and i1 %403, %407
  %410 = and i1 %406, true
  %411 = and i1 %404, %407
  %412 = or i1 %408, %409
  %413 = or i1 %410, %411
  %414 = xor i1 %412, %413
  %415 = or i1 %405, %406
  %416 = xor i1 %415, true
  %417 = or i1 true, %407
  %418 = and i1 %416, %417
  %419 = or i1 %414, %418
  %420 = or i1 %403, %404
  %421 = select i1 %419, i32 -1964758217, i32 -1386243728
  store i32 %421, i32* %55
  br label %2318

; <label>:422:                                    ; preds = %61
  store i32 -1932818052, i32* %55
  br label %2318

; <label>:423:                                    ; preds = %61
  %424 = load volatile i32*, i32** %35
  %425 = load i32, i32* %424, align 4
  %426 = sub i32 %425, -1969637944
  %427 = add i32 %426, 1
  %428 = add i32 %427, -1969637944
  %429 = add nsw i32 %425, 1
  %430 = load volatile i32*, i32** %31
  store i32 %428, i32* %430, align 4
  store i32 814311432, i32* %55
  br label %2318

; <label>:431:                                    ; preds = %61
  %432 = load volatile i32*, i32** %31
  %433 = load i32, i32* %432, align 4
  %434 = load volatile i32*, i32** %40
  %435 = load i32, i32* %434, align 4
  %436 = icmp sle i32 %433, %435
  %437 = select i1 %436, i32 1023104795, i32 1626309941
  store i32 %437, i32* %55
  store i1 false, i1* %57
  br label %2318

; <label>:438:                                    ; preds = %61
  %439 = load i32, i32* @x.83
  %440 = load i32, i32* @y.84
  %441 = sub i32 0, 1
  %442 = add i32 %439, %441
  %443 = sub i32 %439, 1
  %444 = mul i32 %439, %442
  %445 = urem i32 %444, 2
  %446 = icmp eq i32 %445, 0
  %447 = icmp slt i32 %440, 10
  %448 = and i1 %446, %447
  %449 = xor i1 %446, %447
  %450 = or i1 %448, %449
  %451 = or i1 %446, %447
  %452 = select i1 %450, i32 1355846436, i32 -176325361
  store i32 %452, i32* %55
  br label %2318

; <label>:453:                                    ; preds = %61
  %454 = load volatile i32*, i32** %31
  %455 = load i32, i32* %454, align 4
  %456 = mul nsw i32 3, %455
  %457 = load volatile i32*, i32** %31
  %458 = load i32, i32* %457, align 4
  %459 = mul nsw i32 %456, %458
  %460 = load volatile i32*, i32** %35
  %461 = load i32, i32* %460, align 4
  %462 = load volatile i32*, i32** %35
  %463 = load i32, i32* %462, align 4
  %464 = mul nsw i32 %461, %463
  %465 = sub i32 %459, 151127476
  %466 = sub i32 %465, %464
  %467 = add i32 %466, 151127476
  %468 = sub nsw i32 %459, %464
  %469 = load volatile i32*, i32** %37
  store i32 %467, i32* %469, align 4
  %470 = load volatile i32*, i32** %41
  %471 = load i32, i32* %470, align 4
  %472 = icmp slt i32 %467, %471
  store i1 %472, i1* %8
  %473 = load i32, i32* @x.83
  %474 = load i32, i32* @y.84
  %475 = sub i32 %473, 1496890032
  %476 = sub i32 %475, 1
  %477 = add i32 %476, 1496890032
  %478 = sub i32 %473, 1
  %479 = mul i32 %473, %477
  %480 = urem i32 %479, 2
  %481 = icmp eq i32 %480, 0
  %482 = icmp slt i32 %474, 10
  %483 = xor i1 %481, true
  %484 = xor i1 %482, true
  %485 = xor i1 true, true
  %486 = and i1 %483, true
  %487 = and i1 %481, %485
  %488 = and i1 %484, true
  %489 = and i1 %482, %485
  %490 = or i1 %486, %487
  %491 = or i1 %488, %489
  %492 = xor i1 %490, %491
  %493 = or i1 %483, %484
  %494 = xor i1 %493, true
  %495 = or i1 true, %485
  %496 = and i1 %494, %495
  %497 = or i1 %492, %496
  %498 = or i1 %481, %482
  %499 = select i1 %497, i32 -465495377, i32 -176325361
  store i32 %499, i32* %55
  br label %2318

; <label>:500:                                    ; preds = %61
  store i32 1626309941, i32* %55
  %501 = load volatile i1, i1* %8
  store i1 %501, i1* %57
  br label %2318

; <label>:502:                                    ; preds = %61
  %503 = load i1, i1* %57
  %504 = select i1 %503, i32 -812894242, i32 773363994
  store i32 %504, i32* %55
  br label %2318

; <label>:505:                                    ; preds = %61
  %506 = load i32, i32* @x.83
  %507 = load i32, i32* @y.84
  %508 = sub i32 0, 1
  %509 = add i32 %506, %508
  %510 = sub i32 %506, 1
  %511 = mul i32 %506, %509
  %512 = urem i32 %511, 2
  %513 = icmp eq i32 %512, 0
  %514 = icmp slt i32 %507, 10
  %515 = xor i1 %513, true
  %516 = xor i1 %514, true
  %517 = xor i1 false, true
  %518 = and i1 %515, false
  %519 = and i1 %513, %517
  %520 = and i1 %516, false
  %521 = and i1 %514, %517
  %522 = or i1 %518, %519
  %523 = or i1 %520, %521
  %524 = xor i1 %522, %523
  %525 = or i1 %515, %516
  %526 = xor i1 %525, true
  %527 = or i1 false, %517
  %528 = and i1 %526, %527
  %529 = or i1 %524, %528
  %530 = or i1 %513, %514
  %531 = select i1 %529, i32 438948455, i32 812763647
  store i32 %531, i32* %55
  br label %2318

; <label>:532:                                    ; preds = %61
  %533 = load volatile i32*, i32** %37
  %534 = load i32, i32* %533, align 4
  %535 = sext i32 %534 to i64
  %536 = call { i64*, i64 } @_ZNSt6vectorIbSaIbEEixEm(%"class.std::vector.11"* @sieve, i64 %535)
  %537 = load volatile %"struct.std::_Bit_reference"*, %"struct.std::_Bit_reference"** %30
  %538 = bitcast %"struct.std::_Bit_reference"* %537 to { i64*, i64 }*
  %539 = getelementptr inbounds { i64*, i64 }, { i64*, i64 }* %538, i32 0, i32 0
  %540 = extractvalue { i64*, i64 } %536, 0
  store i64* %540, i64** %539, align 8
  %541 = getelementptr inbounds { i64*, i64 }, { i64*, i64 }* %538, i32 0, i32 1
  %542 = extractvalue { i64*, i64 } %536, 1
  store i64 %542, i64* %541, align 8
  %543 = load volatile %"struct.std::_Bit_reference"*, %"struct.std::_Bit_reference"** %30
  %544 = call zeroext i1 @_ZNKSt14_Bit_referencecvbEv(%"struct.std::_Bit_reference"* %543) #3
  %545 = xor i1 %544, true
  %546 = and i1 true, %545
  %547 = xor i1 true, true
  %548 = and i1 %544, %547
  %549 = xor i1 true, true
  %550 = and i1 %549, true
  %551 = and i1 true, %547
  %552 = or i1 %546, %548
  %553 = or i1 %550, %551
  %554 = xor i1 %552, %553
  %555 = xor i1 %544, true
  %556 = load volatile i32*, i32** %37
  %557 = load i32, i32* %556, align 4
  %558 = sext i32 %557 to i64
  %559 = call { i64*, i64 } @_ZNSt6vectorIbSaIbEEixEm(%"class.std::vector.11"* @sieve, i64 %558)
  %560 = load volatile %"struct.std::_Bit_reference"*, %"struct.std::_Bit_reference"** %29
  %561 = bitcast %"struct.std::_Bit_reference"* %560 to { i64*, i64 }*
  %562 = getelementptr inbounds { i64*, i64 }, { i64*, i64 }* %561, i32 0, i32 0
  %563 = extractvalue { i64*, i64 } %559, 0
  store i64* %563, i64** %562, align 8
  %564 = getelementptr inbounds { i64*, i64 }, { i64*, i64 }* %561, i32 0, i32 1
  %565 = extractvalue { i64*, i64 } %559, 1
  store i64 %565, i64* %564, align 8
  %566 = load volatile %"struct.std::_Bit_reference"*, %"struct.std::_Bit_reference"** %29
  %567 = call dereferenceable(16) %"struct.std::_Bit_reference"* @_ZNSt14_Bit_referenceaSEb(%"struct.std::_Bit_reference"* %566, i1 zeroext %554) #3
  %568 = load i32, i32* @x.83
  %569 = load i32, i32* @y.84
  %570 = add i32 %568, -1139809962
  %571 = sub i32 %570, 1
  %572 = sub i32 %571, -1139809962
  %573 = sub i32 %568, 1
  %574 = mul i32 %568, %572
  %575 = urem i32 %574, 2
  %576 = icmp eq i32 %575, 0
  %577 = icmp slt i32 %569, 10
  %578 = and i1 %576, %577
  %579 = xor i1 %576, %577
  %580 = or i1 %578, %579
  %581 = or i1 %576, %577
  %582 = select i1 %580, i32 1709955845, i32 812763647
  store i32 %582, i32* %55
  br label %2318

; <label>:583:                                    ; preds = %61
  store i32 1950156708, i32* %55
  br label %2318

; <label>:584:                                    ; preds = %61
  %585 = load volatile i32*, i32** %31
  %586 = load i32, i32* %585, align 4
  %587 = sub i32 0, 2
  %588 = sub i32 %586, %587
  %589 = add nsw i32 %586, 2
  %590 = load volatile i32*, i32** %31
  store i32 %588, i32* %590, align 4
  store i32 814311432, i32* %55
  br label %2318

; <label>:591:                                    ; preds = %61
  %592 = load i32, i32* @x.83
  %593 = load i32, i32* @y.84
  %594 = sub i32 %592, -150364395
  %595 = sub i32 %594, 1
  %596 = add i32 %595, -150364395
  %597 = sub i32 %592, 1
  %598 = mul i32 %592, %596
  %599 = urem i32 %598, 2
  %600 = icmp eq i32 %599, 0
  %601 = icmp slt i32 %593, 10
  %602 = xor i1 %600, true
  %603 = xor i1 %601, true
  %604 = xor i1 false, true
  %605 = and i1 %602, false
  %606 = and i1 %600, %604
  %607 = and i1 %603, false
  %608 = and i1 %601, %604
  %609 = or i1 %605, %606
  %610 = or i1 %607, %608
  %611 = xor i1 %609, %610
  %612 = or i1 %602, %603
  %613 = xor i1 %612, true
  %614 = or i1 false, %604
  %615 = and i1 %613, %614
  %616 = or i1 %611, %615
  %617 = or i1 %600, %601
  %618 = select i1 %616, i32 1721624415, i32 -1969408934
  store i32 %618, i32* %55
  br label %2318

; <label>:619:                                    ; preds = %61
  %620 = load i32, i32* @x.83
  %621 = load i32, i32* @y.84
  %622 = add i32 %620, 1529334324
  %623 = sub i32 %622, 1
  %624 = sub i32 %623, 1529334324
  %625 = sub i32 %620, 1
  %626 = mul i32 %620, %624
  %627 = urem i32 %626, 2
  %628 = icmp eq i32 %627, 0
  %629 = icmp slt i32 %621, 10
  %630 = xor i1 %628, true
  %631 = xor i1 %629, true
  %632 = xor i1 false, true
  %633 = and i1 %630, false
  %634 = and i1 %628, %632
  %635 = and i1 %631, false
  %636 = and i1 %629, %632
  %637 = or i1 %633, %634
  %638 = or i1 %635, %636
  %639 = xor i1 %637, %638
  %640 = or i1 %630, %631
  %641 = xor i1 %640, true
  %642 = or i1 false, %632
  %643 = and i1 %641, %642
  %644 = or i1 %639, %643
  %645 = or i1 %628, %629
  %646 = select i1 %644, i32 -2021848811, i32 -1969408934
  store i32 %646, i32* %55
  br label %2318

; <label>:647:                                    ; preds = %61
  store i32 -752347509, i32* %55
  br label %2318

; <label>:648:                                    ; preds = %61
  %649 = load volatile i32*, i32** %35
  %650 = load i32, i32* %649, align 4
  %651 = add i32 %650, -1005578218
  %652 = add i32 %651, 6
  %653 = sub i32 %652, -1005578218
  %654 = add nsw i32 %650, 6
  %655 = load volatile i32*, i32** %35
  store i32 %653, i32* %655, align 4
  store i32 -1505295693, i32* %55
  br label %2318

; <label>:656:                                    ; preds = %61
  store i32 519948948, i32* %55
  br label %2318

; <label>:657:                                    ; preds = %61
  %658 = load volatile i32*, i32** %36
  %659 = load i32, i32* %658, align 4
  %660 = sub i32 0, 4
  %661 = sub i32 %659, %660
  %662 = add nsw i32 %659, 4
  %663 = load volatile i32*, i32** %36
  store i32 %661, i32* %663, align 4
  store i32 1404869550, i32* %55
  br label %2318

; <label>:664:                                    ; preds = %61
  %665 = load volatile i32*, i32** %28
  store i32 2, i32* %665, align 4
  store i32 2031629642, i32* %55
  br label %2318

; <label>:666:                                    ; preds = %61
  %667 = load volatile i32*, i32** %28
  %668 = load i32, i32* %667, align 4
  %669 = icmp sle i32 %668, 4
  %670 = select i1 %669, i32 826016054, i32 706143760
  store i32 %670, i32* %55
  br label %2318

; <label>:671:                                    ; preds = %61
  %672 = load volatile i32*, i32** %28
  %673 = load i32, i32* %672, align 4
  %674 = load volatile i32*, i32** %27
  store i32 %673, i32* %674, align 4
  store i32 -1618977995, i32* %55
  br label %2318

; <label>:675:                                    ; preds = %61
  %676 = load i32, i32* @x.83
  %677 = load i32, i32* @y.84
  %678 = sub i32 %676, 609343631
  %679 = sub i32 %678, 1
  %680 = add i32 %679, 609343631
  %681 = sub i32 %676, 1
  %682 = mul i32 %676, %680
  %683 = urem i32 %682, 2
  %684 = icmp eq i32 %683, 0
  %685 = icmp slt i32 %677, 10
  %686 = xor i1 %684, true
  %687 = xor i1 %685, true
  %688 = xor i1 false, true
  %689 = and i1 %686, false
  %690 = and i1 %684, %688
  %691 = and i1 %687, false
  %692 = and i1 %685, %688
  %693 = or i1 %689, %690
  %694 = or i1 %691, %692
  %695 = xor i1 %693, %694
  %696 = or i1 %686, %687
  %697 = xor i1 %696, true
  %698 = or i1 false, %688
  %699 = and i1 %697, %698
  %700 = or i1 %695, %699
  %701 = or i1 %684, %685
  %702 = select i1 %700, i32 -1652971546, i32 -1473903038
  store i32 %702, i32* %55
  br label %2318

; <label>:703:                                    ; preds = %61
  %704 = load volatile i32*, i32** %27
  %705 = load i32, i32* %704, align 4
  %706 = load volatile i32*, i32** %40
  %707 = load i32, i32* %706, align 4
  %708 = icmp sle i32 %705, %707
  store i1 %708, i1* %7
  %709 = load i32, i32* @x.83
  %710 = load i32, i32* @y.84
  %711 = add i32 %709, -1658161989
  %712 = sub i32 %711, 1
  %713 = sub i32 %712, -1658161989
  %714 = sub i32 %709, 1
  %715 = mul i32 %709, %713
  %716 = urem i32 %715, 2
  %717 = icmp eq i32 %716, 0
  %718 = icmp slt i32 %710, 10
  %719 = and i1 %717, %718
  %720 = xor i1 %717, %718
  %721 = or i1 %719, %720
  %722 = or i1 %717, %718
  %723 = select i1 %721, i32 -1874239944, i32 -1473903038
  store i32 %723, i32* %55
  br label %2318

; <label>:724:                                    ; preds = %61
  %725 = load volatile i1, i1* %7
  %726 = select i1 %725, i32 38342689, i32 -335337212
  store i32 %726, i32* %55
  br label %2318

; <label>:727:                                    ; preds = %61
  %728 = load volatile i32*, i32** %26
  store i32 1, i32* %728, align 4
  store i32 186819536, i32* %55
  br label %2318

; <label>:729:                                    ; preds = %61
  %730 = load i32, i32* @x.83
  %731 = load i32, i32* @y.84
  %732 = sub i32 0, 1
  %733 = add i32 %730, %732
  %734 = sub i32 %730, 1
  %735 = mul i32 %730, %733
  %736 = urem i32 %735, 2
  %737 = icmp eq i32 %736, 0
  %738 = icmp slt i32 %731, 10
  %739 = and i1 %737, %738
  %740 = xor i1 %737, %738
  %741 = or i1 %739, %740
  %742 = or i1 %737, %738
  %743 = select i1 %741, i32 2014146969, i32 -246335055
  store i32 %743, i32* %55
  br label %2318

; <label>:744:                                    ; preds = %61
  %745 = load volatile i32*, i32** %26
  %746 = load i32, i32* %745, align 4
  %747 = load volatile i32*, i32** %40
  %748 = load i32, i32* %747, align 4
  %749 = icmp sle i32 %746, %748
  store i1 %749, i1* %6
  %750 = load i32, i32* @x.83
  %751 = load i32, i32* @y.84
  %752 = sub i32 %750, 1487423758
  %753 = sub i32 %752, 1
  %754 = add i32 %753, 1487423758
  %755 = sub i32 %750, 1
  %756 = mul i32 %750, %754
  %757 = urem i32 %756, 2
  %758 = icmp eq i32 %757, 0
  %759 = icmp slt i32 %751, 10
  %760 = xor i1 %758, true
  %761 = xor i1 %759, true
  %762 = xor i1 false, true
  %763 = and i1 %760, false
  %764 = and i1 %758, %762
  %765 = and i1 %761, false
  %766 = and i1 %759, %762
  %767 = or i1 %763, %764
  %768 = or i1 %765, %766
  %769 = xor i1 %767, %768
  %770 = or i1 %760, %761
  %771 = xor i1 %770, true
  %772 = or i1 false, %762
  %773 = and i1 %771, %772
  %774 = or i1 %769, %773
  %775 = or i1 %758, %759
  %776 = select i1 %774, i32 -164393221, i32 -246335055
  store i32 %776, i32* %55
  br label %2318

; <label>:777:                                    ; preds = %61
  %778 = load volatile i1, i1* %6
  %779 = select i1 %778, i32 1958209850, i32 -950197852
  store i32 %779, i32* %55
  store i1 false, i1* %58
  br label %2318

; <label>:780:                                    ; preds = %61
  %781 = load volatile i32*, i32** %26
  %782 = load i32, i32* %781, align 4
  %783 = mul nsw i32 3, %782
  %784 = load volatile i32*, i32** %26
  %785 = load i32, i32* %784, align 4
  %786 = mul nsw i32 %783, %785
  %787 = load volatile i32*, i32** %27
  %788 = load i32, i32* %787, align 4
  %789 = load volatile i32*, i32** %27
  %790 = load i32, i32* %789, align 4
  %791 = mul nsw i32 %788, %790
  %792 = add i32 %786, -2120268583
  %793 = add i32 %792, %791
  %794 = sub i32 %793, -2120268583
  %795 = add nsw i32 %786, %791
  %796 = load volatile i32*, i32** %37
  store i32 %794, i32* %796, align 4
  %797 = load volatile i32*, i32** %41
  %798 = load i32, i32* %797, align 4
  %799 = icmp slt i32 %794, %798
  store i32 -950197852, i32* %55
  store i1 %799, i1* %58
  br label %2318

; <label>:800:                                    ; preds = %61
  %801 = load i1, i1* %58
  store i1 %801, i1* %3
  %802 = load i32, i32* @x.83
  %803 = load i32, i32* @y.84
  %804 = sub i32 %802, 1227041513
  %805 = sub i32 %804, 1
  %806 = add i32 %805, 1227041513
  %807 = sub i32 %802, 1
  %808 = mul i32 %802, %806
  %809 = urem i32 %808, 2
  %810 = icmp eq i32 %809, 0
  %811 = icmp slt i32 %803, 10
  %812 = xor i1 %810, true
  %813 = xor i1 %811, true
  %814 = xor i1 true, true
  %815 = and i1 %812, true
  %816 = and i1 %810, %814
  %817 = and i1 %813, true
  %818 = and i1 %811, %814
  %819 = or i1 %815, %816
  %820 = or i1 %817, %818
  %821 = xor i1 %819, %820
  %822 = or i1 %812, %813
  %823 = xor i1 %822, true
  %824 = or i1 true, %814
  %825 = and i1 %823, %824
  %826 = or i1 %821, %825
  %827 = or i1 %810, %811
  %828 = select i1 %826, i32 360559706, i32 1528439780
  store i32 %828, i32* %55
  br label %2318

; <label>:829:                                    ; preds = %61
  %830 = load i32, i32* @x.83
  %831 = load i32, i32* @y.84
  %832 = sub i32 %830, 453033744
  %833 = sub i32 %832, 1
  %834 = add i32 %833, 453033744
  %835 = sub i32 %830, 1
  %836 = mul i32 %830, %834
  %837 = urem i32 %836, 2
  %838 = icmp eq i32 %837, 0
  %839 = icmp slt i32 %831, 10
  %840 = xor i1 %838, true
  %841 = xor i1 %839, true
  %842 = xor i1 true, true
  %843 = and i1 %840, true
  %844 = and i1 %838, %842
  %845 = and i1 %841, true
  %846 = and i1 %839, %842
  %847 = or i1 %843, %844
  %848 = or i1 %845, %846
  %849 = xor i1 %847, %848
  %850 = or i1 %840, %841
  %851 = xor i1 %850, true
  %852 = or i1 true, %842
  %853 = and i1 %851, %852
  %854 = or i1 %849, %853
  %855 = or i1 %838, %839
  %856 = select i1 %854, i32 807372995, i32 1528439780
  store i32 %856, i32* %55
  br label %2318

; <label>:857:                                    ; preds = %61
  %858 = load volatile i1, i1* %3
  %859 = select i1 %858, i32 -1880620577, i32 -1691285616
  store i32 %859, i32* %55
  br label %2318

; <label>:860:                                    ; preds = %61
  %861 = load i32, i32* @x.83
  %862 = load i32, i32* @y.84
  %863 = sub i32 0, 1
  %864 = add i32 %861, %863
  %865 = sub i32 %861, 1
  %866 = mul i32 %861, %864
  %867 = urem i32 %866, 2
  %868 = icmp eq i32 %867, 0
  %869 = icmp slt i32 %862, 10
  %870 = and i1 %868, %869
  %871 = xor i1 %868, %869
  %872 = or i1 %870, %871
  %873 = or i1 %868, %869
  %874 = select i1 %872, i32 -1184542816, i32 -1743951801
  store i32 %874, i32* %55
  br label %2318

; <label>:875:                                    ; preds = %61
  %876 = load volatile i32*, i32** %37
  %877 = load i32, i32* %876, align 4
  %878 = sext i32 %877 to i64
  %879 = call { i64*, i64 } @_ZNSt6vectorIbSaIbEEixEm(%"class.std::vector.11"* @sieve, i64 %878)
  %880 = load volatile %"struct.std::_Bit_reference"*, %"struct.std::_Bit_reference"** %25
  %881 = bitcast %"struct.std::_Bit_reference"* %880 to { i64*, i64 }*
  %882 = getelementptr inbounds { i64*, i64 }, { i64*, i64 }* %881, i32 0, i32 0
  %883 = extractvalue { i64*, i64 } %879, 0
  store i64* %883, i64** %882, align 8
  %884 = getelementptr inbounds { i64*, i64 }, { i64*, i64 }* %881, i32 0, i32 1
  %885 = extractvalue { i64*, i64 } %879, 1
  store i64 %885, i64* %884, align 8
  %886 = load volatile %"struct.std::_Bit_reference"*, %"struct.std::_Bit_reference"** %25
  %887 = call zeroext i1 @_ZNKSt14_Bit_referencecvbEv(%"struct.std::_Bit_reference"* %886) #3
  %888 = xor i1 %887, true
  %889 = and i1 true, %888
  %890 = xor i1 true, true
  %891 = and i1 %887, %890
  %892 = or i1 %889, %891
  %893 = xor i1 %887, true
  %894 = load volatile i32*, i32** %37
  %895 = load i32, i32* %894, align 4
  %896 = sext i32 %895 to i64
  %897 = call { i64*, i64 } @_ZNSt6vectorIbSaIbEEixEm(%"class.std::vector.11"* @sieve, i64 %896)
  %898 = load volatile %"struct.std::_Bit_reference"*, %"struct.std::_Bit_reference"** %24
  %899 = bitcast %"struct.std::_Bit_reference"* %898 to { i64*, i64 }*
  %900 = getelementptr inbounds { i64*, i64 }, { i64*, i64 }* %899, i32 0, i32 0
  %901 = extractvalue { i64*, i64 } %897, 0
  store i64* %901, i64** %900, align 8
  %902 = getelementptr inbounds { i64*, i64 }, { i64*, i64 }* %899, i32 0, i32 1
  %903 = extractvalue { i64*, i64 } %897, 1
  store i64 %903, i64* %902, align 8
  %904 = load volatile %"struct.std::_Bit_reference"*, %"struct.std::_Bit_reference"** %24
  %905 = call dereferenceable(16) %"struct.std::_Bit_reference"* @_ZNSt14_Bit_referenceaSEb(%"struct.std::_Bit_reference"* %904, i1 zeroext %892) #3
  %906 = load i32, i32* @x.83
  %907 = load i32, i32* @y.84
  %908 = add i32 %906, 1281476290
  %909 = sub i32 %908, 1
  %910 = sub i32 %909, 1281476290
  %911 = sub i32 %906, 1
  %912 = mul i32 %906, %910
  %913 = urem i32 %912, 2
  %914 = icmp eq i32 %913, 0
  %915 = icmp slt i32 %907, 10
  %916 = and i1 %914, %915
  %917 = xor i1 %914, %915
  %918 = or i1 %916, %917
  %919 = or i1 %914, %915
  %920 = select i1 %918, i32 1747513767, i32 -1743951801
  store i32 %920, i32* %55
  br label %2318

; <label>:921:                                    ; preds = %61
  store i32 -1425203850, i32* %55
  br label %2318

; <label>:922:                                    ; preds = %61
  %923 = load volatile i32*, i32** %26
  %924 = load i32, i32* %923, align 4
  %925 = sub i32 0, 2
  %926 = sub i32 %924, %925
  %927 = add nsw i32 %924, 2
  %928 = load volatile i32*, i32** %26
  store i32 %926, i32* %928, align 4
  store i32 186819536, i32* %55
  br label %2318

; <label>:929:                                    ; preds = %61
  %930 = load volatile i32*, i32** %27
  %931 = load i32, i32* %930, align 4
  %932 = sub i32 0, %931
  %933 = sub i32 0, 1
  %934 = add i32 %932, %933
  %935 = sub i32 0, %934
  %936 = add nsw i32 %931, 1
  %937 = load volatile i32*, i32** %23
  store i32 %935, i32* %937, align 4
  store i32 -1117879231, i32* %55
  br label %2318

; <label>:938:                                    ; preds = %61
  %939 = load volatile i32*, i32** %23
  %940 = load i32, i32* %939, align 4
  %941 = load volatile i32*, i32** %40
  %942 = load i32, i32* %941, align 4
  %943 = icmp sle i32 %940, %942
  %944 = select i1 %943, i32 -466556035, i32 1582195900
  store i32 %944, i32* %55
  store i1 false, i1* %59
  br label %2318

; <label>:945:                                    ; preds = %61
  %946 = load volatile i32*, i32** %23
  %947 = load i32, i32* %946, align 4
  %948 = mul nsw i32 3, %947
  %949 = load volatile i32*, i32** %23
  %950 = load i32, i32* %949, align 4
  %951 = mul nsw i32 %948, %950
  %952 = load volatile i32*, i32** %27
  %953 = load i32, i32* %952, align 4
  %954 = load volatile i32*, i32** %27
  %955 = load i32, i32* %954, align 4
  %956 = mul nsw i32 %953, %955
  %957 = sub i32 %951, 1055007168
  %958 = sub i32 %957, %956
  %959 = add i32 %958, 1055007168
  %960 = sub nsw i32 %951, %956
  %961 = load volatile i32*, i32** %37
  store i32 %959, i32* %961, align 4
  %962 = load volatile i32*, i32** %41
  %963 = load i32, i32* %962, align 4
  %964 = icmp slt i32 %959, %963
  store i32 1582195900, i32* %55
  store i1 %964, i1* %59
  br label %2318

; <label>:965:                                    ; preds = %61
  %966 = load i1, i1* %59
  store i1 %966, i1* %2
  %967 = load i32, i32* @x.83
  %968 = load i32, i32* @y.84
  %969 = add i32 %967, -1470456919
  %970 = sub i32 %969, 1
  %971 = sub i32 %970, -1470456919
  %972 = sub i32 %967, 1
  %973 = mul i32 %967, %971
  %974 = urem i32 %973, 2
  %975 = icmp eq i32 %974, 0
  %976 = icmp slt i32 %968, 10
  %977 = and i1 %975, %976
  %978 = xor i1 %975, %976
  %979 = or i1 %977, %978
  %980 = or i1 %975, %976
  %981 = select i1 %979, i32 -696393350, i32 1895431825
  store i32 %981, i32* %55
  br label %2318

; <label>:982:                                    ; preds = %61
  %983 = load i32, i32* @x.83
  %984 = load i32, i32* @y.84
  %985 = sub i32 0, 1
  %986 = add i32 %983, %985
  %987 = sub i32 %983, 1
  %988 = mul i32 %983, %986
  %989 = urem i32 %988, 2
  %990 = icmp eq i32 %989, 0
  %991 = icmp slt i32 %984, 10
  %992 = xor i1 %990, true
  %993 = xor i1 %991, true
  %994 = xor i1 false, true
  %995 = and i1 %992, false
  %996 = and i1 %990, %994
  %997 = and i1 %993, false
  %998 = and i1 %991, %994
  %999 = or i1 %995, %996
  %1000 = or i1 %997, %998
  %1001 = xor i1 %999, %1000
  %1002 = or i1 %992, %993
  %1003 = xor i1 %1002, true
  %1004 = or i1 false, %994
  %1005 = and i1 %1003, %1004
  %1006 = or i1 %1001, %1005
  %1007 = or i1 %990, %991
  %1008 = select i1 %1006, i32 466049085, i32 1895431825
  store i32 %1008, i32* %55
  br label %2318

; <label>:1009:                                   ; preds = %61
  %1010 = load volatile i1, i1* %2
  %1011 = select i1 %1010, i32 1833422543, i32 1812411103
  store i32 %1011, i32* %55
  br label %2318

; <label>:1012:                                   ; preds = %61
  %1013 = load volatile i32*, i32** %37
  %1014 = load i32, i32* %1013, align 4
  %1015 = sext i32 %1014 to i64
  %1016 = call { i64*, i64 } @_ZNSt6vectorIbSaIbEEixEm(%"class.std::vector.11"* @sieve, i64 %1015)
  %1017 = load volatile %"struct.std::_Bit_reference"*, %"struct.std::_Bit_reference"** %22
  %1018 = bitcast %"struct.std::_Bit_reference"* %1017 to { i64*, i64 }*
  %1019 = getelementptr inbounds { i64*, i64 }, { i64*, i64 }* %1018, i32 0, i32 0
  %1020 = extractvalue { i64*, i64 } %1016, 0
  store i64* %1020, i64** %1019, align 8
  %1021 = getelementptr inbounds { i64*, i64 }, { i64*, i64 }* %1018, i32 0, i32 1
  %1022 = extractvalue { i64*, i64 } %1016, 1
  store i64 %1022, i64* %1021, align 8
  %1023 = load volatile %"struct.std::_Bit_reference"*, %"struct.std::_Bit_reference"** %22
  %1024 = call zeroext i1 @_ZNKSt14_Bit_referencecvbEv(%"struct.std::_Bit_reference"* %1023) #3
  %1025 = xor i1 %1024, true
  %1026 = and i1 false, %1025
  %1027 = xor i1 false, true
  %1028 = and i1 %1024, %1027
  %1029 = xor i1 true, true
  %1030 = and i1 %1029, false
  %1031 = and i1 true, %1027
  %1032 = or i1 %1026, %1028
  %1033 = or i1 %1030, %1031
  %1034 = xor i1 %1032, %1033
  %1035 = xor i1 %1024, true
  %1036 = load volatile i32*, i32** %37
  %1037 = load i32, i32* %1036, align 4
  %1038 = sext i32 %1037 to i64
  %1039 = call { i64*, i64 } @_ZNSt6vectorIbSaIbEEixEm(%"class.std::vector.11"* @sieve, i64 %1038)
  %1040 = load volatile %"struct.std::_Bit_reference"*, %"struct.std::_Bit_reference"** %21
  %1041 = bitcast %"struct.std::_Bit_reference"* %1040 to { i64*, i64 }*
  %1042 = getelementptr inbounds { i64*, i64 }, { i64*, i64 }* %1041, i32 0, i32 0
  %1043 = extractvalue { i64*, i64 } %1039, 0
  store i64* %1043, i64** %1042, align 8
  %1044 = getelementptr inbounds { i64*, i64 }, { i64*, i64 }* %1041, i32 0, i32 1
  %1045 = extractvalue { i64*, i64 } %1039, 1
  store i64 %1045, i64* %1044, align 8
  %1046 = load volatile %"struct.std::_Bit_reference"*, %"struct.std::_Bit_reference"** %21
  %1047 = call dereferenceable(16) %"struct.std::_Bit_reference"* @_ZNSt14_Bit_referenceaSEb(%"struct.std::_Bit_reference"* %1046, i1 zeroext %1034) #3
  store i32 1747796937, i32* %55
  br label %2318

; <label>:1048:                                   ; preds = %61
  %1049 = load volatile i32*, i32** %23
  %1050 = load i32, i32* %1049, align 4
  %1051 = sub i32 %1050, 374222686
  %1052 = add i32 %1051, 2
  %1053 = add i32 %1052, 374222686
  %1054 = add nsw i32 %1050, 2
  %1055 = load volatile i32*, i32** %23
  store i32 %1053, i32* %1055, align 4
  store i32 -1117879231, i32* %55
  br label %2318

; <label>:1056:                                   ; preds = %61
  store i32 -1135726137, i32* %55
  br label %2318

; <label>:1057:                                   ; preds = %61
  %1058 = load volatile i32*, i32** %27
  %1059 = load i32, i32* %1058, align 4
  %1060 = sub i32 0, %1059
  %1061 = sub i32 0, 6
  %1062 = add i32 %1060, %1061
  %1063 = sub i32 0, %1062
  %1064 = add nsw i32 %1059, 6
  %1065 = load volatile i32*, i32** %27
  store i32 %1063, i32* %1065, align 4
  store i32 -1618977995, i32* %55
  br label %2318

; <label>:1066:                                   ; preds = %61
  store i32 1535866360, i32* %55
  br label %2318

; <label>:1067:                                   ; preds = %61
  %1068 = load volatile i32*, i32** %28
  %1069 = load i32, i32* %1068, align 4
  %1070 = sub i32 0, %1069
  %1071 = sub i32 0, 2
  %1072 = add i32 %1070, %1071
  %1073 = sub i32 0, %1072
  %1074 = add nsw i32 %1069, 2
  %1075 = load volatile i32*, i32** %28
  store i32 %1073, i32* %1075, align 4
  store i32 2031629642, i32* %55
  br label %2318

; <label>:1076:                                   ; preds = %61
  %1077 = load volatile i32*, i32** %20
  store i32 1, i32* %1077, align 4
  store i32 772704755, i32* %55
  br label %2318

; <label>:1078:                                   ; preds = %61
  %1079 = load volatile i32*, i32** %20
  %1080 = load i32, i32* %1079, align 4
  %1081 = icmp sle i32 %1080, 2
  %1082 = select i1 %1081, i32 1738380735, i32 -1800659800
  store i32 %1082, i32* %55
  br label %2318

; <label>:1083:                                   ; preds = %61
  %1084 = load i32, i32* @x.83
  %1085 = load i32, i32* @y.84
  %1086 = sub i32 0, 1
  %1087 = add i32 %1084, %1086
  %1088 = sub i32 %1084, 1
  %1089 = mul i32 %1084, %1087
  %1090 = urem i32 %1089, 2
  %1091 = icmp eq i32 %1090, 0
  %1092 = icmp slt i32 %1085, 10
  %1093 = xor i1 %1091, true
  %1094 = xor i1 %1092, true
  %1095 = xor i1 false, true
  %1096 = and i1 %1093, false
  %1097 = and i1 %1091, %1095
  %1098 = and i1 %1094, false
  %1099 = and i1 %1092, %1095
  %1100 = or i1 %1096, %1097
  %1101 = or i1 %1098, %1099
  %1102 = xor i1 %1100, %1101
  %1103 = or i1 %1093, %1094
  %1104 = xor i1 %1103, true
  %1105 = or i1 false, %1095
  %1106 = and i1 %1104, %1105
  %1107 = or i1 %1102, %1106
  %1108 = or i1 %1091, %1092
  %1109 = select i1 %1107, i32 1430498372, i32 -772133232
  store i32 %1109, i32* %55
  br label %2318

; <label>:1110:                                   ; preds = %61
  %1111 = load volatile i32*, i32** %19
  store i32 3, i32* %1111, align 4
  %1112 = load i32, i32* @x.83
  %1113 = load i32, i32* @y.84
  %1114 = add i32 %1112, 1450636474
  %1115 = sub i32 %1114, 1
  %1116 = sub i32 %1115, 1450636474
  %1117 = sub i32 %1112, 1
  %1118 = mul i32 %1112, %1116
  %1119 = urem i32 %1118, 2
  %1120 = icmp eq i32 %1119, 0
  %1121 = icmp slt i32 %1113, 10
  %1122 = xor i1 %1120, true
  %1123 = xor i1 %1121, true
  %1124 = xor i1 true, true
  %1125 = and i1 %1122, true
  %1126 = and i1 %1120, %1124
  %1127 = and i1 %1123, true
  %1128 = and i1 %1121, %1124
  %1129 = or i1 %1125, %1126
  %1130 = or i1 %1127, %1128
  %1131 = xor i1 %1129, %1130
  %1132 = or i1 %1122, %1123
  %1133 = xor i1 %1132, true
  %1134 = or i1 true, %1124
  %1135 = and i1 %1133, %1134
  %1136 = or i1 %1131, %1135
  %1137 = or i1 %1120, %1121
  %1138 = select i1 %1136, i32 1944400799, i32 -772133232
  store i32 %1138, i32* %55
  br label %2318

; <label>:1139:                                   ; preds = %61
  store i32 -1730016848, i32* %55
  br label %2318

; <label>:1140:                                   ; preds = %61
  %1141 = load volatile i32*, i32** %19
  %1142 = load i32, i32* %1141, align 4
  %1143 = load volatile i32*, i32** %40
  %1144 = load i32, i32* %1143, align 4
  %1145 = icmp sle i32 %1142, %1144
  %1146 = select i1 %1145, i32 -1825471635, i32 -435533749
  store i32 %1146, i32* %55
  br label %2318

; <label>:1147:                                   ; preds = %61
  %1148 = load i32, i32* @x.83
  %1149 = load i32, i32* @y.84
  %1150 = sub i32 0, 1
  %1151 = add i32 %1148, %1150
  %1152 = sub i32 %1148, 1
  %1153 = mul i32 %1148, %1151
  %1154 = urem i32 %1153, 2
  %1155 = icmp eq i32 %1154, 0
  %1156 = icmp slt i32 %1149, 10
  %1157 = xor i1 %1155, true
  %1158 = xor i1 %1156, true
  %1159 = xor i1 true, true
  %1160 = and i1 %1157, true
  %1161 = and i1 %1155, %1159
  %1162 = and i1 %1158, true
  %1163 = and i1 %1156, %1159
  %1164 = or i1 %1160, %1161
  %1165 = or i1 %1162, %1163
  %1166 = xor i1 %1164, %1165
  %1167 = or i1 %1157, %1158
  %1168 = xor i1 %1167, true
  %1169 = or i1 true, %1159
  %1170 = and i1 %1168, %1169
  %1171 = or i1 %1166, %1170
  %1172 = or i1 %1155, %1156
  %1173 = select i1 %1171, i32 -1540398437, i32 2108690218
  store i32 %1173, i32* %55
  br label %2318

; <label>:1174:                                   ; preds = %61
  %1175 = load volatile i32*, i32** %20
  %1176 = load i32, i32* %1175, align 4
  %1177 = load volatile i32*, i32** %18
  store i32 %1176, i32* %1177, align 4
  %1178 = load i32, i32* @x.83
  %1179 = load i32, i32* @y.84
  %1180 = sub i32 0, 1
  %1181 = add i32 %1178, %1180
  %1182 = sub i32 %1178, 1
  %1183 = mul i32 %1178, %1181
  %1184 = urem i32 %1183, 2
  %1185 = icmp eq i32 %1184, 0
  %1186 = icmp slt i32 %1179, 10
  %1187 = and i1 %1185, %1186
  %1188 = xor i1 %1185, %1186
  %1189 = or i1 %1187, %1188
  %1190 = or i1 %1185, %1186
  %1191 = select i1 %1189, i32 468816305, i32 2108690218
  store i32 %1191, i32* %55
  br label %2318

; <label>:1192:                                   ; preds = %61
  store i32 568039084, i32* %55
  br label %2318

; <label>:1193:                                   ; preds = %61
  %1194 = load i32, i32* @x.83
  %1195 = load i32, i32* @y.84
  %1196 = sub i32 0, 1
  %1197 = add i32 %1194, %1196
  %1198 = sub i32 %1194, 1
  %1199 = mul i32 %1194, %1197
  %1200 = urem i32 %1199, 2
  %1201 = icmp eq i32 %1200, 0
  %1202 = icmp slt i32 %1195, 10
  %1203 = xor i1 %1201, true
  %1204 = xor i1 %1202, true
  %1205 = xor i1 true, true
  %1206 = and i1 %1203, true
  %1207 = and i1 %1201, %1205
  %1208 = and i1 %1204, true
  %1209 = and i1 %1202, %1205
  %1210 = or i1 %1206, %1207
  %1211 = or i1 %1208, %1209
  %1212 = xor i1 %1210, %1211
  %1213 = or i1 %1203, %1204
  %1214 = xor i1 %1213, true
  %1215 = or i1 true, %1205
  %1216 = and i1 %1214, %1215
  %1217 = or i1 %1212, %1216
  %1218 = or i1 %1201, %1202
  %1219 = select i1 %1217, i32 1200257977, i32 -463305022
  store i32 %1219, i32* %55
  br label %2318

; <label>:1220:                                   ; preds = %61
  %1221 = load volatile i32*, i32** %18
  %1222 = load i32, i32* %1221, align 4
  %1223 = load volatile i32*, i32** %40
  %1224 = load i32, i32* %1223, align 4
  %1225 = icmp sle i32 %1222, %1224
  store i1 %1225, i1* %5
  %1226 = load i32, i32* @x.83
  %1227 = load i32, i32* @y.84
  %1228 = sub i32 0, 1
  %1229 = add i32 %1226, %1228
  %1230 = sub i32 %1226, 1
  %1231 = mul i32 %1226, %1229
  %1232 = urem i32 %1231, 2
  %1233 = icmp eq i32 %1232, 0
  %1234 = icmp slt i32 %1227, 10
  %1235 = xor i1 %1233, true
  %1236 = xor i1 %1234, true
  %1237 = xor i1 false, true
  %1238 = and i1 %1235, false
  %1239 = and i1 %1233, %1237
  %1240 = and i1 %1236, false
  %1241 = and i1 %1234, %1237
  %1242 = or i1 %1238, %1239
  %1243 = or i1 %1240, %1241
  %1244 = xor i1 %1242, %1243
  %1245 = or i1 %1235, %1236
  %1246 = xor i1 %1245, true
  %1247 = or i1 false, %1237
  %1248 = and i1 %1246, %1247
  %1249 = or i1 %1244, %1248
  %1250 = or i1 %1233, %1234
  %1251 = select i1 %1249, i32 -928387989, i32 -463305022
  store i32 %1251, i32* %55
  br label %2318

; <label>:1252:                                   ; preds = %61
  %1253 = load volatile i1, i1* %5
  %1254 = select i1 %1253, i32 -979457317, i32 1403547569
  store i32 %1254, i32* %55
  store i1 false, i1* %60
  br label %2318

; <label>:1255:                                   ; preds = %61
  %1256 = load i32, i32* @x.83
  %1257 = load i32, i32* @y.84
  %1258 = add i32 %1256, 583864631
  %1259 = sub i32 %1258, 1
  %1260 = sub i32 %1259, 583864631
  %1261 = sub i32 %1256, 1
  %1262 = mul i32 %1256, %1260
  %1263 = urem i32 %1262, 2
  %1264 = icmp eq i32 %1263, 0
  %1265 = icmp slt i32 %1257, 10
  %1266 = xor i1 %1264, true
  %1267 = xor i1 %1265, true
  %1268 = xor i1 false, true
  %1269 = and i1 %1266, false
  %1270 = and i1 %1264, %1268
  %1271 = and i1 %1267, false
  %1272 = and i1 %1265, %1268
  %1273 = or i1 %1269, %1270
  %1274 = or i1 %1271, %1272
  %1275 = xor i1 %1273, %1274
  %1276 = or i1 %1266, %1267
  %1277 = xor i1 %1276, true
  %1278 = or i1 false, %1268
  %1279 = and i1 %1277, %1278
  %1280 = or i1 %1275, %1279
  %1281 = or i1 %1264, %1265
  %1282 = select i1 %1280, i32 1165863787, i32 1518368984
  store i32 %1282, i32* %55
  br label %2318

; <label>:1283:                                   ; preds = %61
  %1284 = load volatile i32*, i32** %18
  %1285 = load i32, i32* %1284, align 4
  %1286 = mul nsw i32 4, %1285
  %1287 = load volatile i32*, i32** %18
  %1288 = load i32, i32* %1287, align 4
  %1289 = mul nsw i32 %1286, %1288
  %1290 = load volatile i32*, i32** %19
  %1291 = load i32, i32* %1290, align 4
  %1292 = load volatile i32*, i32** %19
  %1293 = load i32, i32* %1292, align 4
  %1294 = mul nsw i32 %1291, %1293
  %1295 = sub i32 %1289, 1454888408
  %1296 = add i32 %1295, %1294
  %1297 = add i32 %1296, 1454888408
  %1298 = add nsw i32 %1289, %1294
  %1299 = load volatile i32*, i32** %37
  store i32 %1297, i32* %1299, align 4
  %1300 = load volatile i32*, i32** %41
  %1301 = load i32, i32* %1300, align 4
  %1302 = icmp slt i32 %1297, %1301
  store i1 %1302, i1* %4
  %1303 = load i32, i32* @x.83
  %1304 = load i32, i32* @y.84
  %1305 = add i32 %1303, -1488703772
  %1306 = sub i32 %1305, 1
  %1307 = sub i32 %1306, -1488703772
  %1308 = sub i32 %1303, 1
  %1309 = mul i32 %1303, %1307
  %1310 = urem i32 %1309, 2
  %1311 = icmp eq i32 %1310, 0
  %1312 = icmp slt i32 %1304, 10
  %1313 = and i1 %1311, %1312
  %1314 = xor i1 %1311, %1312
  %1315 = or i1 %1313, %1314
  %1316 = or i1 %1311, %1312
  %1317 = select i1 %1315, i32 1133430413, i32 1518368984
  store i32 %1317, i32* %55
  br label %2318

; <label>:1318:                                   ; preds = %61
  store i32 1403547569, i32* %55
  %1319 = load volatile i1, i1* %4
  store i1 %1319, i1* %60
  br label %2318

; <label>:1320:                                   ; preds = %61
  %1321 = load i1, i1* %60
  %1322 = select i1 %1321, i32 -274714411, i32 1108679749
  store i32 %1322, i32* %55
  br label %2318

; <label>:1323:                                   ; preds = %61
  %1324 = load i32, i32* @x.83
  %1325 = load i32, i32* @y.84
  %1326 = add i32 %1324, 233748509
  %1327 = sub i32 %1326, 1
  %1328 = sub i32 %1327, 233748509
  %1329 = sub i32 %1324, 1
  %1330 = mul i32 %1324, %1328
  %1331 = urem i32 %1330, 2
  %1332 = icmp eq i32 %1331, 0
  %1333 = icmp slt i32 %1325, 10
  %1334 = xor i1 %1332, true
  %1335 = xor i1 %1333, true
  %1336 = xor i1 false, true
  %1337 = and i1 %1334, false
  %1338 = and i1 %1332, %1336
  %1339 = and i1 %1335, false
  %1340 = and i1 %1333, %1336
  %1341 = or i1 %1337, %1338
  %1342 = or i1 %1339, %1340
  %1343 = xor i1 %1341, %1342
  %1344 = or i1 %1334, %1335
  %1345 = xor i1 %1344, true
  %1346 = or i1 false, %1336
  %1347 = and i1 %1345, %1346
  %1348 = or i1 %1343, %1347
  %1349 = or i1 %1332, %1333
  %1350 = select i1 %1348, i32 168147324, i32 -503756739
  store i32 %1350, i32* %55
  br label %2318

; <label>:1351:                                   ; preds = %61
  %1352 = load volatile i32*, i32** %37
  %1353 = load i32, i32* %1352, align 4
  %1354 = sext i32 %1353 to i64
  %1355 = call { i64*, i64 } @_ZNSt6vectorIbSaIbEEixEm(%"class.std::vector.11"* @sieve, i64 %1354)
  %1356 = load volatile %"struct.std::_Bit_reference"*, %"struct.std::_Bit_reference"** %17
  %1357 = bitcast %"struct.std::_Bit_reference"* %1356 to { i64*, i64 }*
  %1358 = getelementptr inbounds { i64*, i64 }, { i64*, i64 }* %1357, i32 0, i32 0
  %1359 = extractvalue { i64*, i64 } %1355, 0
  store i64* %1359, i64** %1358, align 8
  %1360 = getelementptr inbounds { i64*, i64 }, { i64*, i64 }* %1357, i32 0, i32 1
  %1361 = extractvalue { i64*, i64 } %1355, 1
  store i64 %1361, i64* %1360, align 8
  %1362 = load volatile %"struct.std::_Bit_reference"*, %"struct.std::_Bit_reference"** %17
  %1363 = call zeroext i1 @_ZNKSt14_Bit_referencecvbEv(%"struct.std::_Bit_reference"* %1362) #3
  %1364 = xor i1 %1363, true
  %1365 = and i1 false, %1364
  %1366 = xor i1 false, true
  %1367 = and i1 %1363, %1366
  %1368 = xor i1 true, true
  %1369 = and i1 %1368, false
  %1370 = and i1 true, %1366
  %1371 = or i1 %1365, %1367
  %1372 = or i1 %1369, %1370
  %1373 = xor i1 %1371, %1372
  %1374 = xor i1 %1363, true
  %1375 = load volatile i32*, i32** %37
  %1376 = load i32, i32* %1375, align 4
  %1377 = sext i32 %1376 to i64
  %1378 = call { i64*, i64 } @_ZNSt6vectorIbSaIbEEixEm(%"class.std::vector.11"* @sieve, i64 %1377)
  %1379 = load volatile %"struct.std::_Bit_reference"*, %"struct.std::_Bit_reference"** %16
  %1380 = bitcast %"struct.std::_Bit_reference"* %1379 to { i64*, i64 }*
  %1381 = getelementptr inbounds { i64*, i64 }, { i64*, i64 }* %1380, i32 0, i32 0
  %1382 = extractvalue { i64*, i64 } %1378, 0
  store i64* %1382, i64** %1381, align 8
  %1383 = getelementptr inbounds { i64*, i64 }, { i64*, i64 }* %1380, i32 0, i32 1
  %1384 = extractvalue { i64*, i64 } %1378, 1
  store i64 %1384, i64* %1383, align 8
  %1385 = load volatile %"struct.std::_Bit_reference"*, %"struct.std::_Bit_reference"** %16
  %1386 = call dereferenceable(16) %"struct.std::_Bit_reference"* @_ZNSt14_Bit_referenceaSEb(%"struct.std::_Bit_reference"* %1385, i1 zeroext %1373) #3
  %1387 = load i32, i32* @x.83
  %1388 = load i32, i32* @y.84
  %1389 = add i32 %1387, 936099714
  %1390 = sub i32 %1389, 1
  %1391 = sub i32 %1390, 936099714
  %1392 = sub i32 %1387, 1
  %1393 = mul i32 %1387, %1391
  %1394 = urem i32 %1393, 2
  %1395 = icmp eq i32 %1394, 0
  %1396 = icmp slt i32 %1388, 10
  %1397 = and i1 %1395, %1396
  %1398 = xor i1 %1395, %1396
  %1399 = or i1 %1397, %1398
  %1400 = or i1 %1395, %1396
  %1401 = select i1 %1399, i32 -2046722317, i32 -503756739
  store i32 %1401, i32* %55
  br label %2318

; <label>:1402:                                   ; preds = %61
  store i32 -375016381, i32* %55
  br label %2318

; <label>:1403:                                   ; preds = %61
  %1404 = load volatile i32*, i32** %18
  %1405 = load i32, i32* %1404, align 4
  %1406 = sub i32 %1405, 428976595
  %1407 = add i32 %1406, 3
  %1408 = add i32 %1407, 428976595
  %1409 = add nsw i32 %1405, 3
  %1410 = load volatile i32*, i32** %18
  store i32 %1408, i32* %1410, align 4
  store i32 568039084, i32* %55
  br label %2318

; <label>:1411:                                   ; preds = %61
  store i32 -823237853, i32* %55
  br label %2318

; <label>:1412:                                   ; preds = %61
  %1413 = load i32, i32* @x.83
  %1414 = load i32, i32* @y.84
  %1415 = sub i32 %1413, 2039088840
  %1416 = sub i32 %1415, 1
  %1417 = add i32 %1416, 2039088840
  %1418 = sub i32 %1413, 1
  %1419 = mul i32 %1413, %1417
  %1420 = urem i32 %1419, 2
  %1421 = icmp eq i32 %1420, 0
  %1422 = icmp slt i32 %1414, 10
  %1423 = xor i1 %1421, true
  %1424 = xor i1 %1422, true
  %1425 = xor i1 false, true
  %1426 = and i1 %1423, false
  %1427 = and i1 %1421, %1425
  %1428 = and i1 %1424, false
  %1429 = and i1 %1422, %1425
  %1430 = or i1 %1426, %1427
  %1431 = or i1 %1428, %1429
  %1432 = xor i1 %1430, %1431
  %1433 = or i1 %1423, %1424
  %1434 = xor i1 %1433, true
  %1435 = or i1 false, %1425
  %1436 = and i1 %1434, %1435
  %1437 = or i1 %1432, %1436
  %1438 = or i1 %1421, %1422
  %1439 = select i1 %1437, i32 1876486432, i32 -1514809380
  store i32 %1439, i32* %55
  br label %2318

; <label>:1440:                                   ; preds = %61
  %1441 = load volatile i32*, i32** %19
  %1442 = load i32, i32* %1441, align 4
  %1443 = sub i32 0, %1442
  %1444 = sub i32 0, 6
  %1445 = add i32 %1443, %1444
  %1446 = sub i32 0, %1445
  %1447 = add nsw i32 %1442, 6
  %1448 = load volatile i32*, i32** %19
  store i32 %1446, i32* %1448, align 4
  %1449 = load i32, i32* @x.83
  %1450 = load i32, i32* @y.84
  %1451 = add i32 %1449, -1477371835
  %1452 = sub i32 %1451, 1
  %1453 = sub i32 %1452, -1477371835
  %1454 = sub i32 %1449, 1
  %1455 = mul i32 %1449, %1453
  %1456 = urem i32 %1455, 2
  %1457 = icmp eq i32 %1456, 0
  %1458 = icmp slt i32 %1450, 10
  %1459 = and i1 %1457, %1458
  %1460 = xor i1 %1457, %1458
  %1461 = or i1 %1459, %1460
  %1462 = or i1 %1457, %1458
  %1463 = select i1 %1461, i32 1061127644, i32 -1514809380
  store i32 %1463, i32* %55
  br label %2318

; <label>:1464:                                   ; preds = %61
  store i32 -1730016848, i32* %55
  br label %2318

; <label>:1465:                                   ; preds = %61
  store i32 -597640925, i32* %55
  br label %2318

; <label>:1466:                                   ; preds = %61
  %1467 = load volatile i32*, i32** %20
  %1468 = load i32, i32* %1467, align 4
  %1469 = sub i32 0, %1468
  %1470 = sub i32 0, 1
  %1471 = add i32 %1469, %1470
  %1472 = sub i32 0, %1471
  %1473 = add nsw i32 %1468, 1
  %1474 = load volatile i32*, i32** %20
  store i32 %1472, i32* %1474, align 4
  store i32 772704755, i32* %55
  br label %2318

; <label>:1475:                                   ; preds = %61
  %1476 = load i32, i32* @x.83
  %1477 = load i32, i32* @y.84
  %1478 = sub i32 %1476, -951599409
  %1479 = sub i32 %1478, 1
  %1480 = add i32 %1479, -951599409
  %1481 = sub i32 %1476, 1
  %1482 = mul i32 %1476, %1480
  %1483 = urem i32 %1482, 2
  %1484 = icmp eq i32 %1483, 0
  %1485 = icmp slt i32 %1477, 10
  %1486 = xor i1 %1484, true
  %1487 = xor i1 %1485, true
  %1488 = xor i1 true, true
  %1489 = and i1 %1486, true
  %1490 = and i1 %1484, %1488
  %1491 = and i1 %1487, true
  %1492 = and i1 %1485, %1488
  %1493 = or i1 %1489, %1490
  %1494 = or i1 %1491, %1492
  %1495 = xor i1 %1493, %1494
  %1496 = or i1 %1486, %1487
  %1497 = xor i1 %1496, true
  %1498 = or i1 true, %1488
  %1499 = and i1 %1497, %1498
  %1500 = or i1 %1495, %1499
  %1501 = or i1 %1484, %1485
  %1502 = select i1 %1500, i32 674739064, i32 -2085275579
  store i32 %1502, i32* %55
  br label %2318

; <label>:1503:                                   ; preds = %61
  %1504 = load volatile i32*, i32** %15
  store i32 5, i32* %1504, align 4
  %1505 = load i32, i32* @x.83
  %1506 = load i32, i32* @y.84
  %1507 = sub i32 0, 1
  %1508 = add i32 %1505, %1507
  %1509 = sub i32 %1505, 1
  %1510 = mul i32 %1505, %1508
  %1511 = urem i32 %1510, 2
  %1512 = icmp eq i32 %1511, 0
  %1513 = icmp slt i32 %1506, 10
  %1514 = xor i1 %1512, true
  %1515 = xor i1 %1513, true
  %1516 = xor i1 true, true
  %1517 = and i1 %1514, true
  %1518 = and i1 %1512, %1516
  %1519 = and i1 %1515, true
  %1520 = and i1 %1513, %1516
  %1521 = or i1 %1517, %1518
  %1522 = or i1 %1519, %1520
  %1523 = xor i1 %1521, %1522
  %1524 = or i1 %1514, %1515
  %1525 = xor i1 %1524, true
  %1526 = or i1 true, %1516
  %1527 = and i1 %1525, %1526
  %1528 = or i1 %1523, %1527
  %1529 = or i1 %1512, %1513
  %1530 = select i1 %1528, i32 662112623, i32 -2085275579
  store i32 %1530, i32* %55
  br label %2318

; <label>:1531:                                   ; preds = %61
  store i32 -2127138966, i32* %55
  br label %2318

; <label>:1532:                                   ; preds = %61
  %1533 = load volatile i32*, i32** %15
  %1534 = load i32, i32* %1533, align 4
  %1535 = load volatile i32*, i32** %40
  %1536 = load i32, i32* %1535, align 4
  %1537 = icmp sle i32 %1534, %1536
  %1538 = select i1 %1537, i32 -1332186858, i32 -1104492555
  store i32 %1538, i32* %55
  br label %2318

; <label>:1539:                                   ; preds = %61
  %1540 = load volatile i32*, i32** %15
  %1541 = load i32, i32* %1540, align 4
  %1542 = sext i32 %1541 to i64
  %1543 = call { i64*, i64 } @_ZNSt6vectorIbSaIbEEixEm(%"class.std::vector.11"* @sieve, i64 %1542)
  %1544 = load volatile %"struct.std::_Bit_reference"*, %"struct.std::_Bit_reference"** %14
  %1545 = bitcast %"struct.std::_Bit_reference"* %1544 to { i64*, i64 }*
  %1546 = getelementptr inbounds { i64*, i64 }, { i64*, i64 }* %1545, i32 0, i32 0
  %1547 = extractvalue { i64*, i64 } %1543, 0
  store i64* %1547, i64** %1546, align 8
  %1548 = getelementptr inbounds { i64*, i64 }, { i64*, i64 }* %1545, i32 0, i32 1
  %1549 = extractvalue { i64*, i64 } %1543, 1
  store i64 %1549, i64* %1548, align 8
  %1550 = load volatile %"struct.std::_Bit_reference"*, %"struct.std::_Bit_reference"** %14
  %1551 = call zeroext i1 @_ZNKSt14_Bit_referencecvbEv(%"struct.std::_Bit_reference"* %1550) #3
  %1552 = select i1 %1551, i32 -2078858047, i32 -445607269
  store i32 %1552, i32* %55
  br label %2318

; <label>:1553:                                   ; preds = %61
  %1554 = load i32, i32* @x.83
  %1555 = load i32, i32* @y.84
  %1556 = add i32 %1554, 2072327873
  %1557 = sub i32 %1556, 1
  %1558 = sub i32 %1557, 2072327873
  %1559 = sub i32 %1554, 1
  %1560 = mul i32 %1554, %1558
  %1561 = urem i32 %1560, 2
  %1562 = icmp eq i32 %1561, 0
  %1563 = icmp slt i32 %1555, 10
  %1564 = xor i1 %1562, true
  %1565 = xor i1 %1563, true
  %1566 = xor i1 false, true
  %1567 = and i1 %1564, false
  %1568 = and i1 %1562, %1566
  %1569 = and i1 %1565, false
  %1570 = and i1 %1563, %1566
  %1571 = or i1 %1567, %1568
  %1572 = or i1 %1569, %1570
  %1573 = xor i1 %1571, %1572
  %1574 = or i1 %1564, %1565
  %1575 = xor i1 %1574, true
  %1576 = or i1 false, %1566
  %1577 = and i1 %1575, %1576
  %1578 = or i1 %1573, %1577
  %1579 = or i1 %1562, %1563
  %1580 = select i1 %1578, i32 -882229456, i32 -1238079287
  store i32 %1580, i32* %55
  br label %2318

; <label>:1581:                                   ; preds = %61
  %1582 = load volatile i32*, i32** %15
  %1583 = load i32, i32* %1582, align 4
  %1584 = load volatile i32*, i32** %15
  %1585 = load i32, i32* %1584, align 4
  %1586 = mul nsw i32 %1583, %1585
  %1587 = load volatile i32*, i32** %13
  store i32 %1586, i32* %1587, align 4
  %1588 = load i32, i32* @x.83
  %1589 = load i32, i32* @y.84
  %1590 = sub i32 %1588, 283253722
  %1591 = sub i32 %1590, 1
  %1592 = add i32 %1591, 283253722
  %1593 = sub i32 %1588, 1
  %1594 = mul i32 %1588, %1592
  %1595 = urem i32 %1594, 2
  %1596 = icmp eq i32 %1595, 0
  %1597 = icmp slt i32 %1589, 10
  %1598 = xor i1 %1596, true
  %1599 = xor i1 %1597, true
  %1600 = xor i1 true, true
  %1601 = and i1 %1598, true
  %1602 = and i1 %1596, %1600
  %1603 = and i1 %1599, true
  %1604 = and i1 %1597, %1600
  %1605 = or i1 %1601, %1602
  %1606 = or i1 %1603, %1604
  %1607 = xor i1 %1605, %1606
  %1608 = or i1 %1598, %1599
  %1609 = xor i1 %1608, true
  %1610 = or i1 true, %1600
  %1611 = and i1 %1609, %1610
  %1612 = or i1 %1607, %1611
  %1613 = or i1 %1596, %1597
  %1614 = select i1 %1612, i32 -301555227, i32 -1238079287
  store i32 %1614, i32* %55
  br label %2318

; <label>:1615:                                   ; preds = %61
  store i32 1875079354, i32* %55
  br label %2318

; <label>:1616:                                   ; preds = %61
  %1617 = load volatile i32*, i32** %13
  %1618 = load i32, i32* %1617, align 4
  %1619 = load volatile i32*, i32** %41
  %1620 = load i32, i32* %1619, align 4
  %1621 = icmp slt i32 %1618, %1620
  %1622 = select i1 %1621, i32 -185506106, i32 -1509754493
  store i32 %1622, i32* %55
  br label %2318

; <label>:1623:                                   ; preds = %61
  %1624 = load volatile i32*, i32** %13
  %1625 = load i32, i32* %1624, align 4
  %1626 = sext i32 %1625 to i64
  %1627 = call { i64*, i64 } @_ZNSt6vectorIbSaIbEEixEm(%"class.std::vector.11"* @sieve, i64 %1626)
  %1628 = load volatile %"struct.std::_Bit_reference"*, %"struct.std::_Bit_reference"** %12
  %1629 = bitcast %"struct.std::_Bit_reference"* %1628 to { i64*, i64 }*
  %1630 = getelementptr inbounds { i64*, i64 }, { i64*, i64 }* %1629, i32 0, i32 0
  %1631 = extractvalue { i64*, i64 } %1627, 0
  store i64* %1631, i64** %1630, align 8
  %1632 = getelementptr inbounds { i64*, i64 }, { i64*, i64 }* %1629, i32 0, i32 1
  %1633 = extractvalue { i64*, i64 } %1627, 1
  store i64 %1633, i64* %1632, align 8
  %1634 = load volatile %"struct.std::_Bit_reference"*, %"struct.std::_Bit_reference"** %12
  %1635 = call dereferenceable(16) %"struct.std::_Bit_reference"* @_ZNSt14_Bit_referenceaSEb(%"struct.std::_Bit_reference"* %1634, i1 zeroext false) #3
  store i32 -1284678181, i32* %55
  br label %2318

; <label>:1636:                                   ; preds = %61
  %1637 = load volatile i32*, i32** %15
  %1638 = load i32, i32* %1637, align 4
  %1639 = load volatile i32*, i32** %15
  %1640 = load i32, i32* %1639, align 4
  %1641 = mul nsw i32 %1638, %1640
  %1642 = load volatile i32*, i32** %13
  %1643 = load i32, i32* %1642, align 4
  %1644 = add i32 %1643, -952587660
  %1645 = add i32 %1644, %1641
  %1646 = sub i32 %1645, -952587660
  %1647 = add nsw i32 %1643, %1641
  %1648 = load volatile i32*, i32** %13
  store i32 %1646, i32* %1648, align 4
  store i32 1875079354, i32* %55
  br label %2318

; <label>:1649:                                   ; preds = %61
  store i32 -445607269, i32* %55
  br label %2318

; <label>:1650:                                   ; preds = %61
  store i32 -1995673134, i32* %55
  br label %2318

; <label>:1651:                                   ; preds = %61
  %1652 = load volatile i32*, i32** %15
  %1653 = load i32, i32* %1652, align 4
  %1654 = sub i32 %1653, 1997024423
  %1655 = add i32 %1654, 1
  %1656 = add i32 %1655, 1997024423
  %1657 = add nsw i32 %1653, 1
  %1658 = load volatile i32*, i32** %15
  store i32 %1656, i32* %1658, align 4
  store i32 -2127138966, i32* %55
  br label %2318

; <label>:1659:                                   ; preds = %61
  %1660 = load i32, i32* @x.83
  %1661 = load i32, i32* @y.84
  %1662 = sub i32 0, 1
  %1663 = add i32 %1660, %1662
  %1664 = sub i32 %1660, 1
  %1665 = mul i32 %1660, %1663
  %1666 = urem i32 %1665, 2
  %1667 = icmp eq i32 %1666, 0
  %1668 = icmp slt i32 %1661, 10
  %1669 = and i1 %1667, %1668
  %1670 = xor i1 %1667, %1668
  %1671 = or i1 %1669, %1670
  %1672 = or i1 %1667, %1668
  %1673 = select i1 %1671, i32 -223560301, i32 1359808904
  store i32 %1673, i32* %55
  br label %2318

; <label>:1674:                                   ; preds = %61
  %1675 = load i32, i32* @x.83
  %1676 = load i32, i32* @y.84
  %1677 = sub i32 %1675, -1073888793
  %1678 = sub i32 %1677, 1
  %1679 = add i32 %1678, -1073888793
  %1680 = sub i32 %1675, 1
  %1681 = mul i32 %1675, %1679
  %1682 = urem i32 %1681, 2
  %1683 = icmp eq i32 %1682, 0
  %1684 = icmp slt i32 %1676, 10
  %1685 = xor i1 %1683, true
  %1686 = xor i1 %1684, true
  %1687 = xor i1 true, true
  %1688 = and i1 %1685, true
  %1689 = and i1 %1683, %1687
  %1690 = and i1 %1686, true
  %1691 = and i1 %1684, %1687
  %1692 = or i1 %1688, %1689
  %1693 = or i1 %1690, %1691
  %1694 = xor i1 %1692, %1693
  %1695 = or i1 %1685, %1686
  %1696 = xor i1 %1695, true
  %1697 = or i1 true, %1687
  %1698 = and i1 %1696, %1697
  %1699 = or i1 %1694, %1698
  %1700 = or i1 %1683, %1684
  %1701 = select i1 %1699, i32 1274824955, i32 1359808904
  store i32 %1701, i32* %55
  br label %2318

; <label>:1702:                                   ; preds = %61
  ret void

; <label>:1703:                                   ; preds = %61
  %1704 = alloca i64, align 8
  %1705 = alloca i32, align 4
  %1706 = alloca i32, align 4
  %1707 = alloca %"struct.std::_Bit_reference", align 8
  %1708 = alloca %"struct.std::_Bit_reference", align 8
  %1709 = alloca i32, align 4
  %1710 = alloca i32, align 4
  %1711 = alloca i32, align 4
  %1712 = alloca i32, align 4
  %1713 = alloca %"struct.std::_Bit_reference", align 8
  %1714 = alloca %"struct.std::_Bit_reference", align 8
  %1715 = alloca i32, align 4
  %1716 = alloca %"struct.std::_Bit_reference", align 8
  %1717 = alloca %"struct.std::_Bit_reference", align 8
  %1718 = alloca i32, align 4
  %1719 = alloca i32, align 4
  %1720 = alloca i32, align 4
  %1721 = alloca %"struct.std::_Bit_reference", align 8
  %1722 = alloca %"struct.std::_Bit_reference", align 8
  %1723 = alloca i32, align 4
  %1724 = alloca %"struct.std::_Bit_reference", align 8
  %1725 = alloca %"struct.std::_Bit_reference", align 8
  %1726 = alloca i32, align 4
  %1727 = alloca i32, align 4
  %1728 = alloca i32, align 4
  %1729 = alloca %"struct.std::_Bit_reference", align 8
  %1730 = alloca %"struct.std::_Bit_reference", align 8
  %1731 = alloca i32, align 4
  %1732 = alloca %"struct.std::_Bit_reference", align 8
  %1733 = alloca i32, align 4
  %1734 = alloca %"struct.std::_Bit_reference", align 8
  store i64 %0, i64* %1704, align 8
  call void @_ZNSt6vectorIbSaIbEE5clearEv(%"class.std::vector.11"* @sieve) #3
  %1735 = load i64, i64* %1704, align 8
  %1736 = icmp slt i64 %1735, 0
  store i32 753181019, i32* %55
  br label %2318

; <label>:1737:                                   ; preds = %61
  %1738 = load volatile i64*, i64** %42
  %1739 = load i64, i64* %1738, align 8
  %1740 = icmp sgt i64 %1739, 1073741824
  store i32 -844644358, i32* %55
  br label %2318

; <label>:1741:                                   ; preds = %61
  %1742 = load volatile i32*, i32** %34
  %1743 = load i32, i32* %1742, align 4
  %1744 = shl i32 4, %1743
  %1745 = mul nsw i32 4, %1743
  %1746 = load volatile i32*, i32** %34
  %1747 = load i32, i32* %1746, align 4
  %1748 = sub i32 0, %1745
  %1749 = add i32 0, %1748
  %1750 = sub i32 0, %1745
  %1751 = sub i32 0, %1747
  %1752 = sub i32 %1749, %1751
  %1753 = add i32 %1749, %1747
  %1754 = sub i32 0, %1747
  %1755 = add i32 %1745, %1754
  %1756 = sub i32 %1745, %1747
  %1757 = mul i32 %1755, %1747
  %1758 = sub i32 0, %1747
  %1759 = add i32 %1745, %1758
  %1760 = sub i32 %1745, %1747
  %1761 = mul i32 %1759, %1747
  %1762 = sub i32 0, 301715263
  %1763 = sub i32 %1762, %1745
  %1764 = add i32 %1763, 301715263
  %1765 = sub i32 0, %1745
  %1766 = sub i32 %1764, 1841671118
  %1767 = add i32 %1766, %1747
  %1768 = add i32 %1767, 1841671118
  %1769 = add i32 %1764, %1747
  %1770 = sub i32 0, %1747
  %1771 = add i32 %1745, %1770
  %1772 = sub i32 %1745, %1747
  %1773 = mul i32 %1771, %1747
  %1774 = sub i32 %1745, -1964087043
  %1775 = sub i32 %1774, %1747
  %1776 = add i32 %1775, -1964087043
  %1777 = sub i32 %1745, %1747
  %1778 = mul i32 %1776, %1747
  %1779 = sub i32 0, %1745
  %1780 = add i32 0, %1779
  %1781 = sub i32 0, %1745
  %1782 = sub i32 0, %1780
  %1783 = sub i32 0, %1747
  %1784 = add i32 %1782, %1783
  %1785 = sub i32 0, %1784
  %1786 = add i32 %1780, %1747
  %1787 = mul nsw i32 %1745, %1747
  %1788 = load volatile i32*, i32** %35
  %1789 = load i32, i32* %1788, align 4
  %1790 = load volatile i32*, i32** %35
  %1791 = load i32, i32* %1790, align 4
  %1792 = sub i32 0, %1791
  %1793 = add i32 %1789, %1792
  %1794 = sub i32 %1789, %1791
  %1795 = mul i32 %1793, %1791
  %1796 = sub i32 0, -608727039
  %1797 = sub i32 %1796, %1789
  %1798 = add i32 %1797, -608727039
  %1799 = sub i32 0, %1789
  %1800 = sub i32 %1798, 1697679290
  %1801 = add i32 %1800, %1791
  %1802 = add i32 %1801, 1697679290
  %1803 = add i32 %1798, %1791
  %1804 = shl i32 %1789, %1791
  %1805 = sub i32 0, 1454598578
  %1806 = sub i32 %1805, %1789
  %1807 = add i32 %1806, 1454598578
  %1808 = sub i32 0, %1789
  %1809 = sub i32 %1807, -812614537
  %1810 = add i32 %1809, %1791
  %1811 = add i32 %1810, -812614537
  %1812 = add i32 %1807, %1791
  %1813 = mul nsw i32 %1789, %1791
  %1814 = sub i32 %1787, -1891877277
  %1815 = sub i32 %1814, %1813
  %1816 = add i32 %1815, -1891877277
  %1817 = sub i32 %1787, %1813
  %1818 = mul i32 %1816, %1813
  %1819 = add i32 0, 337936215
  %1820 = sub i32 %1819, %1787
  %1821 = sub i32 %1820, 337936215
  %1822 = sub i32 0, %1787
  %1823 = sub i32 0, %1821
  %1824 = sub i32 0, %1813
  %1825 = add i32 %1823, %1824
  %1826 = sub i32 0, %1825
  %1827 = add i32 %1821, %1813
  %1828 = shl i32 %1787, %1813
  %1829 = add i32 %1787, -754044455
  %1830 = add i32 %1829, %1813
  %1831 = sub i32 %1830, -754044455
  %1832 = add nsw i32 %1787, %1813
  %1833 = load volatile i32*, i32** %37
  store i32 %1831, i32* %1833, align 4
  %1834 = load volatile i32*, i32** %41
  %1835 = load i32, i32* %1834, align 4
  %1836 = icmp slt i32 %1831, %1835
  store i32 989258446, i32* %55
  br label %2318

; <label>:1837:                                   ; preds = %61
  %1838 = load volatile i32*, i32** %37
  %1839 = load i32, i32* %1838, align 4
  %1840 = sext i32 %1839 to i64
  %1841 = call { i64*, i64 } @_ZNSt6vectorIbSaIbEEixEm(%"class.std::vector.11"* @sieve, i64 %1840)
  %1842 = load volatile %"struct.std::_Bit_reference"*, %"struct.std::_Bit_reference"** %33
  %1843 = bitcast %"struct.std::_Bit_reference"* %1842 to { i64*, i64 }*
  %1844 = getelementptr inbounds { i64*, i64 }, { i64*, i64 }* %1843, i32 0, i32 0
  %1845 = extractvalue { i64*, i64 } %1841, 0
  store i64* %1845, i64** %1844, align 8
  %1846 = getelementptr inbounds { i64*, i64 }, { i64*, i64 }* %1843, i32 0, i32 1
  %1847 = extractvalue { i64*, i64 } %1841, 1
  store i64 %1847, i64* %1846, align 8
  %1848 = load volatile %"struct.std::_Bit_reference"*, %"struct.std::_Bit_reference"** %33
  %1849 = call zeroext i1 @_ZNKSt14_Bit_referencecvbEv(%"struct.std::_Bit_reference"* %1848) #3
  %1850 = add i1 false, false
  %1851 = sub i1 %1850, %1849
  %1852 = sub i1 %1851, false
  %1853 = sub i1 false, %1849
  %1854 = sub i1 false, %1852
  %1855 = sub i1 false, true
  %1856 = add i1 %1854, %1855
  %1857 = sub i1 false, %1856
  %1858 = add i1 %1852, true
  %1859 = add i1 false, false
  %1860 = sub i1 %1859, %1849
  %1861 = sub i1 %1860, false
  %1862 = sub i1 false, %1849
  %1863 = add i1 %1861, false
  %1864 = add i1 %1863, true
  %1865 = sub i1 %1864, false
  %1866 = add i1 %1861, true
  %1867 = sub i1 false, %1849
  %1868 = add i1 false, %1867
  %1869 = sub i1 false, %1849
  %1870 = sub i1 false, true
  %1871 = sub i1 %1868, %1870
  %1872 = add i1 %1868, true
  %1873 = shl i1 %1849, true
  %1874 = sub i1 %1849, false
  %1875 = sub i1 %1874, true
  %1876 = add i1 %1875, false
  %1877 = sub i1 %1849, true
  %1878 = mul i1 %1876, true
  %1879 = shl i1 %1849, true
  %1880 = xor i1 %1849, true
  %1881 = and i1 true, %1880
  %1882 = xor i1 true, true
  %1883 = and i1 %1849, %1882
  %1884 = or i1 %1881, %1883
  %1885 = xor i1 %1849, true
  %1886 = load volatile i32*, i32** %37
  %1887 = load i32, i32* %1886, align 4
  %1888 = sext i32 %1887 to i64
  %1889 = call { i64*, i64 } @_ZNSt6vectorIbSaIbEEixEm(%"class.std::vector.11"* @sieve, i64 %1888)
  %1890 = load volatile %"struct.std::_Bit_reference"*, %"struct.std::_Bit_reference"** %32
  %1891 = bitcast %"struct.std::_Bit_reference"* %1890 to { i64*, i64 }*
  %1892 = getelementptr inbounds { i64*, i64 }, { i64*, i64 }* %1891, i32 0, i32 0
  %1893 = extractvalue { i64*, i64 } %1889, 0
  store i64* %1893, i64** %1892, align 8
  %1894 = getelementptr inbounds { i64*, i64 }, { i64*, i64 }* %1891, i32 0, i32 1
  %1895 = extractvalue { i64*, i64 } %1889, 1
  store i64 %1895, i64* %1894, align 8
  %1896 = load volatile %"struct.std::_Bit_reference"*, %"struct.std::_Bit_reference"** %32
  %1897 = call dereferenceable(16) %"struct.std::_Bit_reference"* @_ZNSt14_Bit_referenceaSEb(%"struct.std::_Bit_reference"* %1896, i1 zeroext %1884) #3
  store i32 947009404, i32* %55
  br label %2318

; <label>:1898:                                   ; preds = %61
  %1899 = load volatile i32*, i32** %34
  %1900 = load i32, i32* %1899, align 4
  %1901 = sub i32 0, -1554897727
  %1902 = sub i32 %1901, %1900
  %1903 = add i32 %1902, -1554897727
  %1904 = sub i32 0, %1900
  %1905 = add i32 %1903, 1150869909
  %1906 = add i32 %1905, 1
  %1907 = sub i32 %1906, 1150869909
  %1908 = add i32 %1903, 1
  %1909 = sub i32 0, %1900
  %1910 = add i32 0, %1909
  %1911 = sub i32 0, %1900
  %1912 = sub i32 0, %1910
  %1913 = sub i32 0, 1
  %1914 = add i32 %1912, %1913
  %1915 = sub i32 0, %1914
  %1916 = add i32 %1910, 1
  %1917 = sub i32 %1900, -384488707
  %1918 = sub i32 %1917, 1
  %1919 = add i32 %1918, -384488707
  %1920 = sub i32 %1900, 1
  %1921 = mul i32 %1919, 1
  %1922 = shl i32 %1900, 1
  %1923 = shl i32 %1900, 1
  %1924 = sub i32 %1900, 1172184641
  %1925 = sub i32 %1924, 1
  %1926 = add i32 %1925, 1172184641
  %1927 = sub i32 %1900, 1
  %1928 = mul i32 %1926, 1
  %1929 = sub i32 0, 1
  %1930 = sub i32 %1900, %1929
  %1931 = add nsw i32 %1900, 1
  %1932 = load volatile i32*, i32** %34
  store i32 %1930, i32* %1932, align 4
  store i32 546745345, i32* %55
  br label %2318

; <label>:1933:                                   ; preds = %61
  %1934 = load volatile i32*, i32** %31
  %1935 = load i32, i32* %1934, align 4
  %1936 = shl i32 3, %1935
  %1937 = mul nsw i32 3, %1935
  %1938 = load volatile i32*, i32** %31
  %1939 = load i32, i32* %1938, align 4
  %1940 = sub i32 0, %1937
  %1941 = add i32 0, %1940
  %1942 = sub i32 0, %1937
  %1943 = sub i32 0, %1941
  %1944 = sub i32 0, %1939
  %1945 = add i32 %1943, %1944
  %1946 = sub i32 0, %1945
  %1947 = add i32 %1941, %1939
  %1948 = add i32 0, -119452900
  %1949 = sub i32 %1948, %1937
  %1950 = sub i32 %1949, -119452900
  %1951 = sub i32 0, %1937
  %1952 = sub i32 %1950, -1492573467
  %1953 = add i32 %1952, %1939
  %1954 = add i32 %1953, -1492573467
  %1955 = add i32 %1950, %1939
  %1956 = sub i32 0, %1937
  %1957 = add i32 0, %1956
  %1958 = sub i32 0, %1937
  %1959 = sub i32 0, %1957
  %1960 = sub i32 0, %1939
  %1961 = add i32 %1959, %1960
  %1962 = sub i32 0, %1961
  %1963 = add i32 %1957, %1939
  %1964 = mul nsw i32 %1937, %1939
  %1965 = load volatile i32*, i32** %35
  %1966 = load i32, i32* %1965, align 4
  %1967 = load volatile i32*, i32** %35
  %1968 = load i32, i32* %1967, align 4
  %1969 = shl i32 %1966, %1968
  %1970 = add i32 0, 1828607342
  %1971 = sub i32 %1970, %1966
  %1972 = sub i32 %1971, 1828607342
  %1973 = sub i32 0, %1966
  %1974 = sub i32 0, %1972
  %1975 = sub i32 0, %1968
  %1976 = add i32 %1974, %1975
  %1977 = sub i32 0, %1976
  %1978 = add i32 %1972, %1968
  %1979 = sub i32 %1966, -893043155
  %1980 = sub i32 %1979, %1968
  %1981 = add i32 %1980, -893043155
  %1982 = sub i32 %1966, %1968
  %1983 = mul i32 %1981, %1968
  %1984 = sub i32 0, %1968
  %1985 = add i32 %1966, %1984
  %1986 = sub i32 %1966, %1968
  %1987 = mul i32 %1985, %1968
  %1988 = mul nsw i32 %1966, %1968
  %1989 = shl i32 %1964, %1988
  %1990 = sub i32 0, %1988
  %1991 = add i32 %1964, %1990
  %1992 = sub nsw i32 %1964, %1988
  %1993 = load volatile i32*, i32** %37
  store i32 %1991, i32* %1993, align 4
  %1994 = load volatile i32*, i32** %41
  %1995 = load i32, i32* %1994, align 4
  %1996 = icmp slt i32 %1991, %1995
  store i32 1355846436, i32* %55
  br label %2318

; <label>:1997:                                   ; preds = %61
  %1998 = load volatile i32*, i32** %37
  %1999 = load i32, i32* %1998, align 4
  %2000 = sext i32 %1999 to i64
  %2001 = call { i64*, i64 } @_ZNSt6vectorIbSaIbEEixEm(%"class.std::vector.11"* @sieve, i64 %2000)
  %2002 = load volatile %"struct.std::_Bit_reference"*, %"struct.std::_Bit_reference"** %30
  %2003 = bitcast %"struct.std::_Bit_reference"* %2002 to { i64*, i64 }*
  %2004 = getelementptr inbounds { i64*, i64 }, { i64*, i64 }* %2003, i32 0, i32 0
  %2005 = extractvalue { i64*, i64 } %2001, 0
  store i64* %2005, i64** %2004, align 8
  %2006 = getelementptr inbounds { i64*, i64 }, { i64*, i64 }* %2003, i32 0, i32 1
  %2007 = extractvalue { i64*, i64 } %2001, 1
  store i64 %2007, i64* %2006, align 8
  %2008 = load volatile %"struct.std::_Bit_reference"*, %"struct.std::_Bit_reference"** %30
  %2009 = call zeroext i1 @_ZNKSt14_Bit_referencecvbEv(%"struct.std::_Bit_reference"* %2008) #3
  %2010 = sub i1 false, false
  %2011 = sub i1 %2010, %2009
  %2012 = add i1 %2011, false
  %2013 = sub i1 false, %2009
  %2014 = sub i1 false, true
  %2015 = sub i1 %2012, %2014
  %2016 = add i1 %2012, true
  %2017 = shl i1 %2009, true
  %2018 = shl i1 %2009, true
  %2019 = sub i1 false, true
  %2020 = add i1 %2009, %2019
  %2021 = sub i1 %2009, true
  %2022 = mul i1 %2020, true
  %2023 = sub i1 false, true
  %2024 = sub i1 %2023, %2009
  %2025 = add i1 %2024, true
  %2026 = sub i1 false, %2009
  %2027 = sub i1 %2025, true
  %2028 = add i1 %2027, true
  %2029 = add i1 %2028, true
  %2030 = add i1 %2025, true
  %2031 = xor i1 %2009, true
  %2032 = and i1 false, %2031
  %2033 = xor i1 false, true
  %2034 = and i1 %2009, %2033
  %2035 = xor i1 true, true
  %2036 = and i1 %2035, false
  %2037 = and i1 true, %2033
  %2038 = or i1 %2032, %2034
  %2039 = or i1 %2036, %2037
  %2040 = xor i1 %2038, %2039
  %2041 = xor i1 %2009, true
  %2042 = load volatile i32*, i32** %37
  %2043 = load i32, i32* %2042, align 4
  %2044 = sext i32 %2043 to i64
  %2045 = call { i64*, i64 } @_ZNSt6vectorIbSaIbEEixEm(%"class.std::vector.11"* @sieve, i64 %2044)
  %2046 = load volatile %"struct.std::_Bit_reference"*, %"struct.std::_Bit_reference"** %29
  %2047 = bitcast %"struct.std::_Bit_reference"* %2046 to { i64*, i64 }*
  %2048 = getelementptr inbounds { i64*, i64 }, { i64*, i64 }* %2047, i32 0, i32 0
  %2049 = extractvalue { i64*, i64 } %2045, 0
  store i64* %2049, i64** %2048, align 8
  %2050 = getelementptr inbounds { i64*, i64 }, { i64*, i64 }* %2047, i32 0, i32 1
  %2051 = extractvalue { i64*, i64 } %2045, 1
  store i64 %2051, i64* %2050, align 8
  %2052 = load volatile %"struct.std::_Bit_reference"*, %"struct.std::_Bit_reference"** %29
  %2053 = call dereferenceable(16) %"struct.std::_Bit_reference"* @_ZNSt14_Bit_referenceaSEb(%"struct.std::_Bit_reference"* %2052, i1 zeroext %2040) #3
  store i32 438948455, i32* %55
  br label %2318

; <label>:2054:                                   ; preds = %61
  store i32 1721624415, i32* %55
  br label %2318

; <label>:2055:                                   ; preds = %61
  %2056 = load volatile i32*, i32** %27
  %2057 = load i32, i32* %2056, align 4
  %2058 = load volatile i32*, i32** %40
  %2059 = load i32, i32* %2058, align 4
  %2060 = icmp sle i32 %2057, %2059
  store i32 -1652971546, i32* %55
  br label %2318

; <label>:2061:                                   ; preds = %61
  %2062 = load volatile i32*, i32** %26
  %2063 = load i32, i32* %2062, align 4
  %2064 = load volatile i32*, i32** %40
  %2065 = load i32, i32* %2064, align 4
  %2066 = icmp sle i32 %2063, %2065
  store i32 2014146969, i32* %55
  br label %2318

; <label>:2067:                                   ; preds = %61
  store i32 360559706, i32* %55
  br label %2318

; <label>:2068:                                   ; preds = %61
  %2069 = load volatile i32*, i32** %37
  %2070 = load i32, i32* %2069, align 4
  %2071 = sext i32 %2070 to i64
  %2072 = call { i64*, i64 } @_ZNSt6vectorIbSaIbEEixEm(%"class.std::vector.11"* @sieve, i64 %2071)
  %2073 = load volatile %"struct.std::_Bit_reference"*, %"struct.std::_Bit_reference"** %25
  %2074 = bitcast %"struct.std::_Bit_reference"* %2073 to { i64*, i64 }*
  %2075 = getelementptr inbounds { i64*, i64 }, { i64*, i64 }* %2074, i32 0, i32 0
  %2076 = extractvalue { i64*, i64 } %2072, 0
  store i64* %2076, i64** %2075, align 8
  %2077 = getelementptr inbounds { i64*, i64 }, { i64*, i64 }* %2074, i32 0, i32 1
  %2078 = extractvalue { i64*, i64 } %2072, 1
  store i64 %2078, i64* %2077, align 8
  %2079 = load volatile %"struct.std::_Bit_reference"*, %"struct.std::_Bit_reference"** %25
  %2080 = call zeroext i1 @_ZNKSt14_Bit_referencecvbEv(%"struct.std::_Bit_reference"* %2079) #3
  %2081 = sub i1 false, %2080
  %2082 = add i1 false, %2081
  %2083 = sub i1 false, %2080
  %2084 = sub i1 %2082, true
  %2085 = add i1 %2084, true
  %2086 = add i1 %2085, true
  %2087 = add i1 %2082, true
  %2088 = sub i1 false, true
  %2089 = sub i1 %2088, %2080
  %2090 = add i1 %2089, true
  %2091 = sub i1 false, %2080
  %2092 = add i1 %2090, false
  %2093 = add i1 %2092, true
  %2094 = sub i1 %2093, false
  %2095 = add i1 %2090, true
  %2096 = sub i1 false, true
  %2097 = sub i1 %2096, %2080
  %2098 = add i1 %2097, true
  %2099 = sub i1 false, %2080
  %2100 = sub i1 %2098, true
  %2101 = add i1 %2100, true
  %2102 = add i1 %2101, true
  %2103 = add i1 %2098, true
  %2104 = sub i1 %2080, false
  %2105 = sub i1 %2104, true
  %2106 = add i1 %2105, false
  %2107 = sub i1 %2080, true
  %2108 = mul i1 %2106, true
  %2109 = sub i1 %2080, true
  %2110 = sub i1 %2109, true
  %2111 = add i1 %2110, true
  %2112 = sub i1 %2080, true
  %2113 = mul i1 %2111, true
  %2114 = xor i1 %2080, true
  %2115 = and i1 false, %2114
  %2116 = xor i1 false, true
  %2117 = and i1 %2080, %2116
  %2118 = xor i1 true, true
  %2119 = and i1 %2118, false
  %2120 = and i1 true, %2116
  %2121 = or i1 %2115, %2117
  %2122 = or i1 %2119, %2120
  %2123 = xor i1 %2121, %2122
  %2124 = xor i1 %2080, true
  %2125 = load volatile i32*, i32** %37
  %2126 = load i32, i32* %2125, align 4
  %2127 = sext i32 %2126 to i64
  %2128 = call { i64*, i64 } @_ZNSt6vectorIbSaIbEEixEm(%"class.std::vector.11"* @sieve, i64 %2127)
  %2129 = load volatile %"struct.std::_Bit_reference"*, %"struct.std::_Bit_reference"** %24
  %2130 = bitcast %"struct.std::_Bit_reference"* %2129 to { i64*, i64 }*
  %2131 = getelementptr inbounds { i64*, i64 }, { i64*, i64 }* %2130, i32 0, i32 0
  %2132 = extractvalue { i64*, i64 } %2128, 0
  store i64* %2132, i64** %2131, align 8
  %2133 = getelementptr inbounds { i64*, i64 }, { i64*, i64 }* %2130, i32 0, i32 1
  %2134 = extractvalue { i64*, i64 } %2128, 1
  store i64 %2134, i64* %2133, align 8
  %2135 = load volatile %"struct.std::_Bit_reference"*, %"struct.std::_Bit_reference"** %24
  %2136 = call dereferenceable(16) %"struct.std::_Bit_reference"* @_ZNSt14_Bit_referenceaSEb(%"struct.std::_Bit_reference"* %2135, i1 zeroext %2123) #3
  store i32 -1184542816, i32* %55
  br label %2318

; <label>:2137:                                   ; preds = %61
  store i32 -696393350, i32* %55
  br label %2318

; <label>:2138:                                   ; preds = %61
  %2139 = load volatile i32*, i32** %19
  store i32 3, i32* %2139, align 4
  store i32 1430498372, i32* %55
  br label %2318

; <label>:2140:                                   ; preds = %61
  %2141 = load volatile i32*, i32** %20
  %2142 = load i32, i32* %2141, align 4
  %2143 = load volatile i32*, i32** %18
  store i32 %2142, i32* %2143, align 4
  store i32 -1540398437, i32* %55
  br label %2318

; <label>:2144:                                   ; preds = %61
  %2145 = load volatile i32*, i32** %18
  %2146 = load i32, i32* %2145, align 4
  %2147 = load volatile i32*, i32** %40
  %2148 = load i32, i32* %2147, align 4
  %2149 = icmp sle i32 %2146, %2148
  store i32 1200257977, i32* %55
  br label %2318

; <label>:2150:                                   ; preds = %61
  %2151 = load volatile i32*, i32** %18
  %2152 = load i32, i32* %2151, align 4
  %2153 = sub i32 0, %2152
  %2154 = add i32 4, %2153
  %2155 = sub i32 4, %2152
  %2156 = mul i32 %2154, %2152
  %2157 = shl i32 4, %2152
  %2158 = shl i32 4, %2152
  %2159 = sub i32 0, -461181137
  %2160 = sub i32 %2159, 4
  %2161 = add i32 %2160, -461181137
  %2162 = sub i32 0, 4
  %2163 = sub i32 0, %2152
  %2164 = sub i32 %2161, %2163
  %2165 = add i32 %2161, %2152
  %2166 = shl i32 4, %2152
  %2167 = sub i32 0, %2152
  %2168 = add i32 4, %2167
  %2169 = sub i32 4, %2152
  %2170 = mul i32 %2168, %2152
  %2171 = mul nsw i32 4, %2152
  %2172 = load volatile i32*, i32** %18
  %2173 = load i32, i32* %2172, align 4
  %2174 = add i32 0, -1412488811
  %2175 = sub i32 %2174, %2171
  %2176 = sub i32 %2175, -1412488811
  %2177 = sub i32 0, %2171
  %2178 = add i32 %2176, -1485840453
  %2179 = add i32 %2178, %2173
  %2180 = sub i32 %2179, -1485840453
  %2181 = add i32 %2176, %2173
  %2182 = mul nsw i32 %2171, %2173
  %2183 = load volatile i32*, i32** %19
  %2184 = load i32, i32* %2183, align 4
  %2185 = load volatile i32*, i32** %19
  %2186 = load i32, i32* %2185, align 4
  %2187 = sub i32 %2184, 443878347
  %2188 = sub i32 %2187, %2186
  %2189 = add i32 %2188, 443878347
  %2190 = sub i32 %2184, %2186
  %2191 = mul i32 %2189, %2186
  %2192 = add i32 %2184, 651237965
  %2193 = sub i32 %2192, %2186
  %2194 = sub i32 %2193, 651237965
  %2195 = sub i32 %2184, %2186
  %2196 = mul i32 %2194, %2186
  %2197 = sub i32 0, -1806270254
  %2198 = sub i32 %2197, %2184
  %2199 = add i32 %2198, -1806270254
  %2200 = sub i32 0, %2184
  %2201 = sub i32 %2199, 930881112
  %2202 = add i32 %2201, %2186
  %2203 = add i32 %2202, 930881112
  %2204 = add i32 %2199, %2186
  %2205 = shl i32 %2184, %2186
  %2206 = sub i32 0, %2186
  %2207 = add i32 %2184, %2206
  %2208 = sub i32 %2184, %2186
  %2209 = mul i32 %2207, %2186
  %2210 = shl i32 %2184, %2186
  %2211 = add i32 %2184, 878526449
  %2212 = sub i32 %2211, %2186
  %2213 = sub i32 %2212, 878526449
  %2214 = sub i32 %2184, %2186
  %2215 = mul i32 %2213, %2186
  %2216 = mul nsw i32 %2184, %2186
  %2217 = sub i32 0, %2216
  %2218 = add i32 %2182, %2217
  %2219 = sub i32 %2182, %2216
  %2220 = mul i32 %2218, %2216
  %2221 = sub i32 0, %2216
  %2222 = sub i32 %2182, %2221
  %2223 = add nsw i32 %2182, %2216
  %2224 = load volatile i32*, i32** %37
  store i32 %2222, i32* %2224, align 4
  %2225 = load volatile i32*, i32** %41
  %2226 = load i32, i32* %2225, align 4
  %2227 = icmp slt i32 %2222, %2226
  store i32 1165863787, i32* %55
  br label %2318

; <label>:2228:                                   ; preds = %61
  %2229 = load volatile i32*, i32** %37
  %2230 = load i32, i32* %2229, align 4
  %2231 = sext i32 %2230 to i64
  %2232 = call { i64*, i64 } @_ZNSt6vectorIbSaIbEEixEm(%"class.std::vector.11"* @sieve, i64 %2231)
  %2233 = load volatile %"struct.std::_Bit_reference"*, %"struct.std::_Bit_reference"** %17
  %2234 = bitcast %"struct.std::_Bit_reference"* %2233 to { i64*, i64 }*
  %2235 = getelementptr inbounds { i64*, i64 }, { i64*, i64 }* %2234, i32 0, i32 0
  %2236 = extractvalue { i64*, i64 } %2232, 0
  store i64* %2236, i64** %2235, align 8
  %2237 = getelementptr inbounds { i64*, i64 }, { i64*, i64 }* %2234, i32 0, i32 1
  %2238 = extractvalue { i64*, i64 } %2232, 1
  store i64 %2238, i64* %2237, align 8
  %2239 = load volatile %"struct.std::_Bit_reference"*, %"struct.std::_Bit_reference"** %17
  %2240 = call zeroext i1 @_ZNKSt14_Bit_referencecvbEv(%"struct.std::_Bit_reference"* %2239) #3
  %2241 = sub i1 false, true
  %2242 = add i1 %2240, %2241
  %2243 = sub i1 %2240, true
  %2244 = mul i1 %2242, true
  %2245 = xor i1 %2240, true
  %2246 = and i1 false, %2245
  %2247 = xor i1 false, true
  %2248 = and i1 %2240, %2247
  %2249 = xor i1 true, true
  %2250 = and i1 %2249, false
  %2251 = and i1 true, %2247
  %2252 = or i1 %2246, %2248
  %2253 = or i1 %2250, %2251
  %2254 = xor i1 %2252, %2253
  %2255 = xor i1 %2240, true
  %2256 = load volatile i32*, i32** %37
  %2257 = load i32, i32* %2256, align 4
  %2258 = sext i32 %2257 to i64
  %2259 = call { i64*, i64 } @_ZNSt6vectorIbSaIbEEixEm(%"class.std::vector.11"* @sieve, i64 %2258)
  %2260 = load volatile %"struct.std::_Bit_reference"*, %"struct.std::_Bit_reference"** %16
  %2261 = bitcast %"struct.std::_Bit_reference"* %2260 to { i64*, i64 }*
  %2262 = getelementptr inbounds { i64*, i64 }, { i64*, i64 }* %2261, i32 0, i32 0
  %2263 = extractvalue { i64*, i64 } %2259, 0
  store i64* %2263, i64** %2262, align 8
  %2264 = getelementptr inbounds { i64*, i64 }, { i64*, i64 }* %2261, i32 0, i32 1
  %2265 = extractvalue { i64*, i64 } %2259, 1
  store i64 %2265, i64* %2264, align 8
  %2266 = load volatile %"struct.std::_Bit_reference"*, %"struct.std::_Bit_reference"** %16
  %2267 = call dereferenceable(16) %"struct.std::_Bit_reference"* @_ZNSt14_Bit_referenceaSEb(%"struct.std::_Bit_reference"* %2266, i1 zeroext %2254) #3
  store i32 168147324, i32* %55
  br label %2318

; <label>:2268:                                   ; preds = %61
  %2269 = load volatile i32*, i32** %19
  %2270 = load i32, i32* %2269, align 4
  %2271 = add i32 0, 619191926
  %2272 = sub i32 %2271, %2270
  %2273 = sub i32 %2272, 619191926
  %2274 = sub i32 0, %2270
  %2275 = add i32 %2273, -665506187
  %2276 = add i32 %2275, 6
  %2277 = sub i32 %2276, -665506187
  %2278 = add i32 %2273, 6
  %2279 = sub i32 0, 6
  %2280 = add i32 %2270, %2279
  %2281 = sub i32 %2270, 6
  %2282 = mul i32 %2280, 6
  %2283 = shl i32 %2270, 6
  %2284 = add i32 %2270, 1487228727
  %2285 = add i32 %2284, 6
  %2286 = sub i32 %2285, 1487228727
  %2287 = add nsw i32 %2270, 6
  %2288 = load volatile i32*, i32** %19
  store i32 %2286, i32* %2288, align 4
  store i32 1876486432, i32* %55
  br label %2318

; <label>:2289:                                   ; preds = %61
  %2290 = load volatile i32*, i32** %15
  store i32 5, i32* %2290, align 4
  store i32 674739064, i32* %55
  br label %2318

; <label>:2291:                                   ; preds = %61
  %2292 = load volatile i32*, i32** %15
  %2293 = load i32, i32* %2292, align 4
  %2294 = load volatile i32*, i32** %15
  %2295 = load i32, i32* %2294, align 4
  %2296 = shl i32 %2293, %2295
  %2297 = sub i32 0, %2295
  %2298 = add i32 %2293, %2297
  %2299 = sub i32 %2293, %2295
  %2300 = mul i32 %2298, %2295
  %2301 = shl i32 %2293, %2295
  %2302 = sub i32 0, %2295
  %2303 = add i32 %2293, %2302
  %2304 = sub i32 %2293, %2295
  %2305 = mul i32 %2303, %2295
  %2306 = sub i32 0, %2295
  %2307 = add i32 %2293, %2306
  %2308 = sub i32 %2293, %2295
  %2309 = mul i32 %2307, %2295
  %2310 = shl i32 %2293, %2295
  %2311 = sub i32 0, %2295
  %2312 = add i32 %2293, %2311
  %2313 = sub i32 %2293, %2295
  %2314 = mul i32 %2312, %2295
  %2315 = mul nsw i32 %2293, %2295
  %2316 = load volatile i32*, i32** %13
  store i32 %2315, i32* %2316, align 4
  store i32 -882229456, i32* %55
  br label %2318

; <label>:2317:                                   ; preds = %61
  store i32 -223560301, i32* %55
  br label %2318

; <label>:2318:                                   ; preds = %2317, %2291, %2289, %2268, %2228, %2150, %2144, %2140, %2138, %2137, %2068, %2067, %2061, %2055, %2054, %1997, %1933, %1898, %1837, %1741, %1737, %1703, %1674, %1659, %1651, %1650, %1649, %1636, %1623, %1616, %1615, %1581, %1553, %1539, %1532, %1531, %1503, %1475, %1466, %1465, %1464, %1440, %1412, %1411, %1403, %1402, %1351, %1323, %1320, %1318, %1283, %1255, %1252, %1220, %1193, %1192, %1174, %1147, %1140, %1139, %1110, %1083, %1078, %1076, %1067, %1066, %1057, %1056, %1048, %1012, %1009, %982, %965, %945, %938, %929, %922, %921, %875, %860, %857, %829, %800, %780, %777, %744, %729, %727, %724, %703, %675, %671, %666, %664, %657, %656, %648, %647, %619, %591, %584, %583, %532, %505, %502, %500, %453, %438, %431, %423, %422, %388, %372, %371, %326, %310, %307, %305, %269, %253, %246, %244, %237, %233, %228, %188, %187, %184, %165, %137, %134, %84, %64, %63
  br label %61
}

; Function Attrs: noinline nounwind uwtable
define linkonce_odr void @_ZNSt6vectorIbSaIbEE5clearEv(%"class.std::vector.11"*) #4 comdat align 2 personality i8* bitcast (i32 (...)* @__gxx_personality_v0 to i8*) {
  %2 = alloca %"class.std::vector.11"*, align 8
  %3 = alloca %"struct.std::_Bit_iterator", align 8
  store %"class.std::vector.11"* %0, %"class.std::vector.11"** %2, align 8
  %4 = load %"class.std::vector.11"*, %"class.std::vector.11"** %2, align 8
  %5 = call { i64*, i32 } @_ZNSt6vectorIbSaIbEE5beginEv(%"class.std::vector.11"* %4) #3
  %6 = bitcast %"struct.std::_Bit_iterator"* %3 to { i64*, i32 }*
  %7 = getelementptr inbounds { i64*, i32 }, { i64*, i32 }* %6, i32 0, i32 0
  %8 = extractvalue { i64*, i32 } %5, 0
  store i64* %8, i64** %7, align 8
  %9 = getelementptr inbounds { i64*, i32 }, { i64*, i32 }* %6, i32 0, i32 1
  %10 = extractvalue { i64*, i32 } %5, 1
  store i32 %10, i32* %9, align 8
  %11 = bitcast %"struct.std::_Bit_iterator"* %3 to { i64*, i32 }*
  %12 = getelementptr inbounds { i64*, i32 }, { i64*, i32 }* %11, i32 0, i32 0
  %13 = load i64*, i64** %12, align 8
  %14 = getelementptr inbounds { i64*, i32 }, { i64*, i32 }* %11, i32 0, i32 1
  %15 = load i32, i32* %14, align 8
  invoke void @_ZNSt6vectorIbSaIbEE15_M_erase_at_endESt13_Bit_iterator(%"class.std::vector.11"* %4, i64* %13, i32 %15)
          to label %16 unwind label %17

; <label>:16:                                     ; preds = %1
  ret void

; <label>:17:                                     ; preds = %1
  %18 = load i32, i32* @x.85
  %19 = load i32, i32* @y.86
  %20 = sub i32 0, 1
  %21 = add i32 %18, %20
  %22 = sub i32 %18, 1
  %23 = mul i32 %18, %21
  %24 = urem i32 %23, 2
  %25 = icmp eq i32 %24, 0
  %26 = icmp slt i32 %19, 10
  %27 = xor i1 %25, true
  %28 = xor i1 %26, true
  %29 = xor i1 true, true
  %30 = and i1 %27, true
  %31 = and i1 %25, %29
  %32 = and i1 %28, true
  %33 = and i1 %26, %29
  %34 = or i1 %30, %31
  %35 = or i1 %32, %33
  %36 = xor i1 %34, %35
  %37 = or i1 %27, %28
  %38 = xor i1 %37, true
  %39 = or i1 true, %29
  %40 = and i1 %38, %39
  %41 = or i1 %36, %40
  %42 = or i1 %25, %26
  br i1 %41, label %43, label %73

; <label>:43:                                     ; preds = %17, %73
  %44 = landingpad { i8*, i32 }
          catch i8* null
  %45 = extractvalue { i8*, i32 } %44, 0
  call void @__clang_call_terminate(i8* %45) #12
  %46 = load i32, i32* @x.85
  %47 = load i32, i32* @y.86
  %48 = sub i32 %46, -597161025
  %49 = sub i32 %48, 1
  %50 = add i32 %49, -597161025
  %51 = sub i32 %46, 1
  %52 = mul i32 %46, %50
  %53 = urem i32 %52, 2
  %54 = icmp eq i32 %53, 0
  %55 = icmp slt i32 %47, 10
  %56 = xor i1 %54, true
  %57 = xor i1 %55, true
  %58 = xor i1 false, true
  %59 = and i1 %56, false
  %60 = and i1 %54, %58
  %61 = and i1 %57, false
  %62 = and i1 %55, %58
  %63 = or i1 %59, %60
  %64 = or i1 %61, %62
  %65 = xor i1 %63, %64
  %66 = or i1 %56, %57
  %67 = xor i1 %66, true
  %68 = or i1 false, %58
  %69 = and i1 %67, %68
  %70 = or i1 %65, %69
  %71 = or i1 %54, %55
  br i1 %70, label %72, label %73

; <label>:72:                                     ; preds = %43
  unreachable

; <label>:73:                                     ; preds = %43, %17
  %74 = landingpad { i8*, i32 }
          catch i8* null
  %75 = extractvalue { i8*, i32 } %74, 0
  call void @__clang_call_terminate(i8* %75) #12
  br label %43
}

; Function Attrs: nounwind
declare double @sqrt(double) #2

; Function Attrs: noinline uwtable
define linkonce_odr void @_ZNSt6vectorIbSaIbEE6resizeEmb(%"class.std::vector.11"*, i64, i1 zeroext) #0 comdat align 2 {
  %4 = alloca i64
  %5 = alloca i64
  %6 = alloca %"class.std::vector.11"*
  %7 = alloca %"class.std::vector.11"*, align 8
  %8 = alloca i64, align 8
  %9 = alloca i8, align 1
  %10 = alloca %"struct.std::_Bit_iterator", align 8
  %11 = alloca %"struct.std::_Bit_iterator", align 8
  %12 = alloca %"struct.std::_Bit_const_iterator", align 8
  %13 = alloca %"struct.std::_Bit_iterator", align 8
  %14 = alloca %"struct.std::_Bit_iterator", align 8
  store %"class.std::vector.11"* %0, %"class.std::vector.11"** %7, align 8
  store i64 %1, i64* %8, align 8
  %15 = zext i1 %2 to i8
  store i8 %15, i8* %9, align 1
  %16 = load %"class.std::vector.11"*, %"class.std::vector.11"** %7, align 8
  store %"class.std::vector.11"* %16, %"class.std::vector.11"** %6
  %17 = load i64, i64* %8, align 8
  store i64 %17, i64* %5
  %18 = load volatile %"class.std::vector.11"*, %"class.std::vector.11"** %6
  %19 = call i64 @_ZNKSt6vectorIbSaIbEE4sizeEv(%"class.std::vector.11"* %18) #3
  store i64 %19, i64* %4
  %20 = alloca i32
  store i32 271128017, i32* %20
  br label %21

; <label>:21:                                     ; preds = %3, %78
  %22 = load i32, i32* %20
  switch i32 %22, label %23 [
    i32 271128017, label %24
    i32 -1095298306, label %29
    i32 1724464170, label %50
    i32 1260532693, label %77
  ]

; <label>:23:                                     ; preds = %21
  br label %78

; <label>:24:                                     ; preds = %21
  %25 = load volatile i64, i64* %5
  %26 = load volatile i64, i64* %4
  %27 = icmp ult i64 %25, %26
  %28 = select i1 %27, i32 -1095298306, i32 1724464170
  store i32 %28, i32* %20
  br label %78

; <label>:29:                                     ; preds = %21
  %30 = load volatile %"class.std::vector.11"*, %"class.std::vector.11"** %6
  %31 = call { i64*, i32 } @_ZNSt6vectorIbSaIbEE5beginEv(%"class.std::vector.11"* %30) #3
  %32 = bitcast %"struct.std::_Bit_iterator"* %11 to { i64*, i32 }*
  %33 = getelementptr inbounds { i64*, i32 }, { i64*, i32 }* %32, i32 0, i32 0
  %34 = extractvalue { i64*, i32 } %31, 0
  store i64* %34, i64** %33, align 8
  %35 = getelementptr inbounds { i64*, i32 }, { i64*, i32 }* %32, i32 0, i32 1
  %36 = extractvalue { i64*, i32 } %31, 1
  store i32 %36, i32* %35, align 8
  %37 = load i64, i64* %8, align 8
  %38 = call { i64*, i32 } @_ZNKSt13_Bit_iteratorplEl(%"struct.std::_Bit_iterator"* %11, i64 %37)
  %39 = bitcast %"struct.std::_Bit_iterator"* %10 to { i64*, i32 }*
  %40 = getelementptr inbounds { i64*, i32 }, { i64*, i32 }* %39, i32 0, i32 0
  %41 = extractvalue { i64*, i32 } %38, 0
  store i64* %41, i64** %40, align 8
  %42 = getelementptr inbounds { i64*, i32 }, { i64*, i32 }* %39, i32 0, i32 1
  %43 = extractvalue { i64*, i32 } %38, 1
  store i32 %43, i32* %42, align 8
  %44 = bitcast %"struct.std::_Bit_iterator"* %10 to { i64*, i32 }*
  %45 = getelementptr inbounds { i64*, i32 }, { i64*, i32 }* %44, i32 0, i32 0
  %46 = load i64*, i64** %45, align 8
  %47 = getelementptr inbounds { i64*, i32 }, { i64*, i32 }* %44, i32 0, i32 1
  %48 = load i32, i32* %47, align 8
  %49 = load volatile %"class.std::vector.11"*, %"class.std::vector.11"** %6
  call void @_ZNSt6vectorIbSaIbEE15_M_erase_at_endESt13_Bit_iterator(%"class.std::vector.11"* %49, i64* %46, i32 %48)
  store i32 1260532693, i32* %20
  br label %78

; <label>:50:                                     ; preds = %21
  %51 = load volatile %"class.std::vector.11"*, %"class.std::vector.11"** %6
  %52 = call { i64*, i32 } @_ZNSt6vectorIbSaIbEE3endEv(%"class.std::vector.11"* %51) #3
  %53 = bitcast %"struct.std::_Bit_iterator"* %13 to { i64*, i32 }*
  %54 = getelementptr inbounds { i64*, i32 }, { i64*, i32 }* %53, i32 0, i32 0
  %55 = extractvalue { i64*, i32 } %52, 0
  store i64* %55, i64** %54, align 8
  %56 = getelementptr inbounds { i64*, i32 }, { i64*, i32 }* %53, i32 0, i32 1
  %57 = extractvalue { i64*, i32 } %52, 1
  store i32 %57, i32* %56, align 8
  call void @_ZNSt19_Bit_const_iteratorC2ERKSt13_Bit_iterator(%"struct.std::_Bit_const_iterator"* %12, %"struct.std::_Bit_iterator"* dereferenceable(16) %13)
  %58 = load i64, i64* %8, align 8
  %59 = load volatile %"class.std::vector.11"*, %"class.std::vector.11"** %6
  %60 = call i64 @_ZNKSt6vectorIbSaIbEE4sizeEv(%"class.std::vector.11"* %59) #3
  %61 = add i64 %58, 8977698390603049727
  %62 = sub i64 %61, %60
  %63 = sub i64 %62, 8977698390603049727
  %64 = sub i64 %58, %60
  %65 = bitcast %"struct.std::_Bit_const_iterator"* %12 to { i64*, i32 }*
  %66 = getelementptr inbounds { i64*, i32 }, { i64*, i32 }* %65, i32 0, i32 0
  %67 = load i64*, i64** %66, align 8
  %68 = getelementptr inbounds { i64*, i32 }, { i64*, i32 }* %65, i32 0, i32 1
  %69 = load i32, i32* %68, align 8
  %70 = load volatile %"class.std::vector.11"*, %"class.std::vector.11"** %6
  %71 = call { i64*, i32 } @_ZNSt6vectorIbSaIbEE6insertESt19_Bit_const_iteratormRKb(%"class.std::vector.11"* %70, i64* %67, i32 %69, i64 %63, i8* dereferenceable(1) %9)
  %72 = bitcast %"struct.std::_Bit_iterator"* %14 to { i64*, i32 }*
  %73 = getelementptr inbounds { i64*, i32 }, { i64*, i32 }* %72, i32 0, i32 0
  %74 = extractvalue { i64*, i32 } %71, 0
  store i64* %74, i64** %73, align 8
  %75 = getelementptr inbounds { i64*, i32 }, { i64*, i32 }* %72, i32 0, i32 1
  %76 = extractvalue { i64*, i32 } %71, 1
  store i32 %76, i32* %75, align 8
  store i32 1260532693, i32* %20
  br label %78

; <label>:77:                                     ; preds = %21
  ret void

; <label>:78:                                     ; preds = %50, %29, %24, %23
  br label %21
}

; Function Attrs: noinline uwtable
define linkonce_odr { i64*, i64 } @_ZNSt6vectorIbSaIbEEixEm(%"class.std::vector.11"*, i64) #0 comdat align 2 {
  %3 = alloca %"struct.std::_Bit_reference", align 8
  %4 = alloca %"class.std::vector.11"*, align 8
  %5 = alloca i64, align 8
  %6 = alloca %"struct.std::_Bit_iterator", align 8
  store %"class.std::vector.11"* %0, %"class.std::vector.11"** %4, align 8
  store i64 %1, i64* %5, align 8
  %7 = load %"class.std::vector.11"*, %"class.std::vector.11"** %4, align 8
  %8 = bitcast %"class.std::vector.11"* %7 to %"struct.std::_Bvector_base"*
  %9 = getelementptr inbounds %"struct.std::_Bvector_base", %"struct.std::_Bvector_base"* %8, i32 0, i32 0
  %10 = getelementptr inbounds %"struct.std::_Bvector_base<std::allocator<bool> >::_Bvector_impl", %"struct.std::_Bvector_base<std::allocator<bool> >::_Bvector_impl"* %9, i32 0, i32 0
  %11 = bitcast %"struct.std::_Bit_iterator"* %10 to %"struct.std::_Bit_iterator_base"*
  %12 = getelementptr inbounds %"struct.std::_Bit_iterator_base", %"struct.std::_Bit_iterator_base"* %11, i32 0, i32 0
  %13 = load i64*, i64** %12, align 8
  %14 = load i64, i64* %5, align 8
  %15 = udiv i64 %14, 64
  %16 = getelementptr inbounds i64, i64* %13, i64 %15
  %17 = load i64, i64* %5, align 8
  %18 = urem i64 %17, 64
  %19 = trunc i64 %18 to i32
  call void @_ZNSt13_Bit_iteratorC2EPmj(%"struct.std::_Bit_iterator"* %6, i64* %16, i32 %19)
  %20 = call { i64*, i64 } @_ZNKSt13_Bit_iteratordeEv(%"struct.std::_Bit_iterator"* %6)
  %21 = bitcast %"struct.std::_Bit_reference"* %3 to { i64*, i64 }*
  %22 = getelementptr inbounds { i64*, i64 }, { i64*, i64 }* %21, i32 0, i32 0
  %23 = extractvalue { i64*, i64 } %20, 0
  store i64* %23, i64** %22, align 8
  %24 = getelementptr inbounds { i64*, i64 }, { i64*, i64 }* %21, i32 0, i32 1
  %25 = extractvalue { i64*, i64 } %20, 1
  store i64 %25, i64* %24, align 8
  %26 = bitcast %"struct.std::_Bit_reference"* %3 to { i64*, i64 }*
  %27 = load { i64*, i64 }, { i64*, i64 }* %26, align 8
  ret { i64*, i64 } %27
}

; Function Attrs: noinline nounwind uwtable
define linkonce_odr dereferenceable(16) %"struct.std::_Bit_reference"* @_ZNSt14_Bit_referenceaSEb(%"struct.std::_Bit_reference"*, i1 zeroext) #4 comdat align 2 {
  %3 = alloca i1
  %4 = alloca %"struct.std::_Bit_reference"*
  %5 = alloca i1
  %6 = alloca i1
  %7 = load i32, i32* @x.91
  %8 = load i32, i32* @y.92
  %9 = add i32 %7, -784586214
  %10 = sub i32 %9, 1
  %11 = sub i32 %10, -784586214
  %12 = sub i32 %7, 1
  %13 = mul i32 %7, %11
  %14 = urem i32 %13, 2
  %15 = icmp eq i32 %14, 0
  store i1 %15, i1* %6
  %16 = icmp slt i32 %8, 10
  store i1 %16, i1* %5
  %17 = alloca i32
  store i32 -1807154911, i32* %17
  br label %18

; <label>:18:                                     ; preds = %2, %226
  %19 = load i32, i32* %17
  switch i32 %19, label %20 [
    i32 -1807154911, label %21
    i32 695477412, label %41
    i32 1950645840, label %75
    i32 2108335818, label %78
    i32 -1963551582, label %102
    i32 771333858, label %129
    i32 881059965, label %178
    i32 261899083, label %179
    i32 -2108927465, label %181
    i32 86563431, label %188
  ]

; <label>:20:                                     ; preds = %18
  br label %226

; <label>:21:                                     ; preds = %18
  %22 = load volatile i1, i1* %6
  %23 = load volatile i1, i1* %5
  %24 = xor i1 %22, true
  %25 = xor i1 %23, true
  %26 = xor i1 true, true
  %27 = and i1 %24, true
  %28 = and i1 %22, %26
  %29 = and i1 %25, true
  %30 = and i1 %23, %26
  %31 = or i1 %27, %28
  %32 = or i1 %29, %30
  %33 = xor i1 %31, %32
  %34 = or i1 %24, %25
  %35 = xor i1 %34, true
  %36 = or i1 true, %26
  %37 = and i1 %35, %36
  %38 = or i1 %33, %37
  %39 = or i1 %22, %23
  %40 = select i1 %38, i32 695477412, i32 -2108927465
  store i32 %40, i32* %17
  br label %226

; <label>:41:                                     ; preds = %18
  %42 = alloca %"struct.std::_Bit_reference"*, align 8
  %43 = alloca i8, align 1
  store %"struct.std::_Bit_reference"* %0, %"struct.std::_Bit_reference"** %42, align 8
  %44 = zext i1 %1 to i8
  store i8 %44, i8* %43, align 1
  %45 = load %"struct.std::_Bit_reference"*, %"struct.std::_Bit_reference"** %42, align 8
  store %"struct.std::_Bit_reference"* %45, %"struct.std::_Bit_reference"** %4
  %46 = load i8, i8* %43, align 1
  %47 = trunc i8 %46 to i1
  store i1 %47, i1* %3
  %48 = load i32, i32* @x.91
  %49 = load i32, i32* @y.92
  %50 = sub i32 %48, -760635009
  %51 = sub i32 %50, 1
  %52 = add i32 %51, -760635009
  %53 = sub i32 %48, 1
  %54 = mul i32 %48, %52
  %55 = urem i32 %54, 2
  %56 = icmp eq i32 %55, 0
  %57 = icmp slt i32 %49, 10
  %58 = xor i1 %56, true
  %59 = xor i1 %57, true
  %60 = xor i1 false, true
  %61 = and i1 %58, false
  %62 = and i1 %56, %60
  %63 = and i1 %59, false
  %64 = and i1 %57, %60
  %65 = or i1 %61, %62
  %66 = or i1 %63, %64
  %67 = xor i1 %65, %66
  %68 = or i1 %58, %59
  %69 = xor i1 %68, true
  %70 = or i1 false, %60
  %71 = and i1 %69, %70
  %72 = or i1 %67, %71
  %73 = or i1 %56, %57
  %74 = select i1 %72, i32 1950645840, i32 -2108927465
  store i32 %74, i32* %17
  br label %226

; <label>:75:                                     ; preds = %18
  %76 = load volatile i1, i1* %3
  %77 = select i1 %76, i32 2108335818, i32 -1963551582
  store i32 %77, i32* %17
  br label %226

; <label>:78:                                     ; preds = %18
  %79 = load volatile %"struct.std::_Bit_reference"*, %"struct.std::_Bit_reference"** %4
  %80 = getelementptr inbounds %"struct.std::_Bit_reference", %"struct.std::_Bit_reference"* %79, i32 0, i32 1
  %81 = load i64, i64* %80, align 8
  %82 = load volatile %"struct.std::_Bit_reference"*, %"struct.std::_Bit_reference"** %4
  %83 = getelementptr inbounds %"struct.std::_Bit_reference", %"struct.std::_Bit_reference"* %82, i32 0, i32 0
  %84 = load i64*, i64** %83, align 8
  %85 = load i64, i64* %84, align 8
  %86 = xor i64 %85, -1
  %87 = xor i64 %81, -1
  %88 = xor i64 391193747936645252, -1
  %89 = and i64 %86, 391193747936645252
  %90 = and i64 %85, %88
  %91 = and i64 %87, 391193747936645252
  %92 = and i64 %81, %88
  %93 = or i64 %89, %90
  %94 = or i64 %91, %92
  %95 = xor i64 %93, %94
  %96 = or i64 %86, %87
  %97 = xor i64 %96, -1
  %98 = or i64 391193747936645252, %88
  %99 = and i64 %97, %98
  %100 = or i64 %95, %99
  %101 = or i64 %85, %81
  store i64 %100, i64* %84, align 8
  store i32 261899083, i32* %17
  br label %226

; <label>:102:                                    ; preds = %18
  %103 = load i32, i32* @x.91
  %104 = load i32, i32* @y.92
  %105 = sub i32 0, 1
  %106 = add i32 %103, %105
  %107 = sub i32 %103, 1
  %108 = mul i32 %103, %106
  %109 = urem i32 %108, 2
  %110 = icmp eq i32 %109, 0
  %111 = icmp slt i32 %104, 10
  %112 = xor i1 %110, true
  %113 = xor i1 %111, true
  %114 = xor i1 true, true
  %115 = and i1 %112, true
  %116 = and i1 %110, %114
  %117 = and i1 %113, true
  %118 = and i1 %111, %114
  %119 = or i1 %115, %116
  %120 = or i1 %117, %118
  %121 = xor i1 %119, %120
  %122 = or i1 %112, %113
  %123 = xor i1 %122, true
  %124 = or i1 true, %114
  %125 = and i1 %123, %124
  %126 = or i1 %121, %125
  %127 = or i1 %110, %111
  %128 = select i1 %126, i32 771333858, i32 86563431
  store i32 %128, i32* %17
  br label %226

; <label>:129:                                    ; preds = %18
  %130 = load volatile %"struct.std::_Bit_reference"*, %"struct.std::_Bit_reference"** %4
  %131 = getelementptr inbounds %"struct.std::_Bit_reference", %"struct.std::_Bit_reference"* %130, i32 0, i32 1
  %132 = load i64, i64* %131, align 8
  %133 = xor i64 %132, -1
  %134 = and i64 -1, %133
  %135 = xor i64 -1, -1
  %136 = and i64 %132, %135
  %137 = or i64 %134, %136
  %138 = xor i64 %132, -1
  %139 = load volatile %"struct.std::_Bit_reference"*, %"struct.std::_Bit_reference"** %4
  %140 = getelementptr inbounds %"struct.std::_Bit_reference", %"struct.std::_Bit_reference"* %139, i32 0, i32 0
  %141 = load i64*, i64** %140, align 8
  %142 = load i64, i64* %141, align 8
  %143 = xor i64 %142, -1
  %144 = xor i64 %137, -1
  %145 = xor i64 2400181139506110293, -1
  %146 = or i64 %143, %144
  %147 = or i64 2400181139506110293, %145
  %148 = xor i64 %146, -1
  %149 = and i64 %148, %147
  %150 = and i64 %142, %137
  store i64 %149, i64* %141, align 8
  %151 = load i32, i32* @x.91
  %152 = load i32, i32* @y.92
  %153 = add i32 %151, -1593370263
  %154 = sub i32 %153, 1
  %155 = sub i32 %154, -1593370263
  %156 = sub i32 %151, 1
  %157 = mul i32 %151, %155
  %158 = urem i32 %157, 2
  %159 = icmp eq i32 %158, 0
  %160 = icmp slt i32 %152, 10
  %161 = xor i1 %159, true
  %162 = xor i1 %160, true
  %163 = xor i1 false, true
  %164 = and i1 %161, false
  %165 = and i1 %159, %163
  %166 = and i1 %162, false
  %167 = and i1 %160, %163
  %168 = or i1 %164, %165
  %169 = or i1 %166, %167
  %170 = xor i1 %168, %169
  %171 = or i1 %161, %162
  %172 = xor i1 %171, true
  %173 = or i1 false, %163
  %174 = and i1 %172, %173
  %175 = or i1 %170, %174
  %176 = or i1 %159, %160
  %177 = select i1 %175, i32 881059965, i32 86563431
  store i32 %177, i32* %17
  br label %226

; <label>:178:                                    ; preds = %18
  store i32 261899083, i32* %17
  br label %226

; <label>:179:                                    ; preds = %18
  %180 = load volatile %"struct.std::_Bit_reference"*, %"struct.std::_Bit_reference"** %4
  ret %"struct.std::_Bit_reference"* %180

; <label>:181:                                    ; preds = %18
  %182 = alloca %"struct.std::_Bit_reference"*, align 8
  %183 = alloca i8, align 1
  store %"struct.std::_Bit_reference"* %0, %"struct.std::_Bit_reference"** %182, align 8
  %184 = zext i1 %1 to i8
  store i8 %184, i8* %183, align 1
  %185 = load %"struct.std::_Bit_reference"*, %"struct.std::_Bit_reference"** %182, align 8
  %186 = load i8, i8* %183, align 1
  %187 = trunc i8 %186 to i1
  store i32 695477412, i32* %17
  br label %226

; <label>:188:                                    ; preds = %18
  %189 = load volatile %"struct.std::_Bit_reference"*, %"struct.std::_Bit_reference"** %4
  %190 = getelementptr inbounds %"struct.std::_Bit_reference", %"struct.std::_Bit_reference"* %189, i32 0, i32 1
  %191 = load i64, i64* %190, align 8
  %192 = add i64 0, -7946715709116996856
  %193 = sub i64 %192, %191
  %194 = sub i64 %193, -7946715709116996856
  %195 = sub i64 0, %191
  %196 = sub i64 %194, -8054579125613187147
  %197 = add i64 %196, -1
  %198 = add i64 %197, -8054579125613187147
  %199 = add i64 %194, -1
  %200 = sub i64 %191, 4056230191950178484
  %201 = sub i64 %200, -1
  %202 = add i64 %201, 4056230191950178484
  %203 = sub i64 %191, -1
  %204 = mul i64 %202, -1
  %205 = shl i64 %191, -1
  %206 = xor i64 %191, -1
  %207 = and i64 -1, %206
  %208 = xor i64 -1, -1
  %209 = and i64 %191, %208
  %210 = or i64 %207, %209
  %211 = xor i64 %191, -1
  %212 = load volatile %"struct.std::_Bit_reference"*, %"struct.std::_Bit_reference"** %4
  %213 = getelementptr inbounds %"struct.std::_Bit_reference", %"struct.std::_Bit_reference"* %212, i32 0, i32 0
  %214 = load i64*, i64** %213, align 8
  %215 = load i64, i64* %214, align 8
  %216 = shl i64 %215, %210
  %217 = add i64 %215, -6934476377114705237
  %218 = sub i64 %217, %210
  %219 = sub i64 %218, -6934476377114705237
  %220 = sub i64 %215, %210
  %221 = mul i64 %219, %210
  %222 = xor i64 %210, -1
  %223 = xor i64 %215, %222
  %224 = and i64 %223, %215
  %225 = and i64 %215, %210
  store i64 %224, i64* %214, align 8
  store i32 771333858, i32* %17
  br label %226

; <label>:226:                                    ; preds = %188, %181, %178, %129, %102, %78, %75, %41, %21, %20
  br label %18
}

; Function Attrs: noinline nounwind uwtable
define linkonce_odr dereferenceable(16) %"struct.std::_Bit_reference"* @_ZNSt14_Bit_referenceaSERKS_(%"struct.std::_Bit_reference"*, %"struct.std::_Bit_reference"* dereferenceable(16)) #4 comdat align 2 {
  %3 = alloca %"struct.std::_Bit_reference"*, align 8
  %4 = alloca %"struct.std::_Bit_reference"*, align 8
  store %"struct.std::_Bit_reference"* %0, %"struct.std::_Bit_reference"** %3, align 8
  store %"struct.std::_Bit_reference"* %1, %"struct.std::_Bit_reference"** %4, align 8
  %5 = load %"struct.std::_Bit_reference"*, %"struct.std::_Bit_reference"** %3, align 8
  %6 = load %"struct.std::_Bit_reference"*, %"struct.std::_Bit_reference"** %4, align 8
  %7 = call zeroext i1 @_ZNKSt14_Bit_referencecvbEv(%"struct.std::_Bit_reference"* %6) #3
  %8 = call dereferenceable(16) %"struct.std::_Bit_reference"* @_ZNSt14_Bit_referenceaSEb(%"struct.std::_Bit_reference"* %5, i1 zeroext %7) #3
  ret %"struct.std::_Bit_reference"* %8
}

; Function Attrs: noinline nounwind uwtable
define linkonce_odr zeroext i1 @_ZNKSt14_Bit_referencecvbEv(%"struct.std::_Bit_reference"*) #4 comdat align 2 {
  %2 = alloca i1
  %3 = alloca i1
  %4 = alloca i1
  %5 = load i32, i32* @x.95
  %6 = load i32, i32* @y.96
  %7 = add i32 %5, -1901933799
  %8 = sub i32 %7, 1
  %9 = sub i32 %8, -1901933799
  %10 = sub i32 %5, 1
  %11 = mul i32 %5, %9
  %12 = urem i32 %11, 2
  %13 = icmp eq i32 %12, 0
  store i1 %13, i1* %4
  %14 = icmp slt i32 %6, 10
  store i1 %14, i1* %3
  %15 = alloca i32
  store i32 1137370157, i32* %15
  br label %16

; <label>:16:                                     ; preds = %1, %137
  %17 = load i32, i32* %15
  switch i32 %17, label %18 [
    i32 1137370157, label %19
    i32 414693808, label %27
    i32 1829237855, label %72
    i32 -1753154762, label %74
  ]

; <label>:18:                                     ; preds = %16
  br label %137

; <label>:19:                                     ; preds = %16
  %20 = load volatile i1, i1* %4
  %21 = load volatile i1, i1* %3
  %22 = and i1 %20, %21
  %23 = xor i1 %20, %21
  %24 = or i1 %22, %23
  %25 = or i1 %20, %21
  %26 = select i1 %24, i32 414693808, i32 -1753154762
  store i32 %26, i32* %15
  br label %137

; <label>:27:                                     ; preds = %16
  %28 = alloca %"struct.std::_Bit_reference"*, align 8
  store %"struct.std::_Bit_reference"* %0, %"struct.std::_Bit_reference"** %28, align 8
  %29 = load %"struct.std::_Bit_reference"*, %"struct.std::_Bit_reference"** %28, align 8
  %30 = getelementptr inbounds %"struct.std::_Bit_reference", %"struct.std::_Bit_reference"* %29, i32 0, i32 0
  %31 = load i64*, i64** %30, align 8
  %32 = load i64, i64* %31, align 8
  %33 = getelementptr inbounds %"struct.std::_Bit_reference", %"struct.std::_Bit_reference"* %29, i32 0, i32 1
  %34 = load i64, i64* %33, align 8
  %35 = xor i64 %34, -1
  %36 = xor i64 %32, %35
  %37 = and i64 %36, %32
  %38 = and i64 %32, %34
  %39 = icmp ne i64 %37, 0
  %40 = xor i1 %39, true
  %41 = and i1 true, %40
  %42 = xor i1 true, true
  %43 = and i1 %39, %42
  %44 = xor i1 true, true
  %45 = and i1 %44, true
  %46 = and i1 true, %42
  %47 = or i1 %41, %43
  %48 = or i1 %45, %46
  %49 = xor i1 %47, %48
  %50 = xor i1 %39, true
  %51 = xor i1 %49, true
  %52 = and i1 true, %51
  %53 = xor i1 true, true
  %54 = and i1 %49, %53
  %55 = or i1 %52, %54
  %56 = xor i1 %49, true
  store i1 %55, i1* %2
  %57 = load i32, i32* @x.95
  %58 = load i32, i32* @y.96
  %59 = add i32 %57, -1814235523
  %60 = sub i32 %59, 1
  %61 = sub i32 %60, -1814235523
  %62 = sub i32 %57, 1
  %63 = mul i32 %57, %61
  %64 = urem i32 %63, 2
  %65 = icmp eq i32 %64, 0
  %66 = icmp slt i32 %58, 10
  %67 = and i1 %65, %66
  %68 = xor i1 %65, %66
  %69 = or i1 %67, %68
  %70 = or i1 %65, %66
  %71 = select i1 %69, i32 1829237855, i32 -1753154762
  store i32 %71, i32* %15
  br label %137

; <label>:72:                                     ; preds = %16
  %73 = load volatile i1, i1* %2
  ret i1 %73

; <label>:74:                                     ; preds = %16
  %75 = alloca %"struct.std::_Bit_reference"*, align 8
  store %"struct.std::_Bit_reference"* %0, %"struct.std::_Bit_reference"** %75, align 8
  %76 = load %"struct.std::_Bit_reference"*, %"struct.std::_Bit_reference"** %75, align 8
  %77 = getelementptr inbounds %"struct.std::_Bit_reference", %"struct.std::_Bit_reference"* %76, i32 0, i32 0
  %78 = load i64*, i64** %77, align 8
  %79 = load i64, i64* %78, align 8
  %80 = getelementptr inbounds %"struct.std::_Bit_reference", %"struct.std::_Bit_reference"* %76, i32 0, i32 1
  %81 = load i64, i64* %80, align 8
  %82 = add i64 %79, 7289601087191868110
  %83 = sub i64 %82, %81
  %84 = sub i64 %83, 7289601087191868110
  %85 = sub i64 %79, %81
  %86 = mul i64 %84, %81
  %87 = xor i64 %79, -1
  %88 = xor i64 %81, -1
  %89 = xor i64 -2630379468098468947, -1
  %90 = or i64 %87, %88
  %91 = or i64 -2630379468098468947, %89
  %92 = xor i64 %90, -1
  %93 = and i64 %92, %91
  %94 = and i64 %79, %81
  %95 = icmp ne i64 %93, 0
  %96 = sub i1 %95, false
  %97 = sub i1 %96, true
  %98 = add i1 %97, false
  %99 = sub i1 %95, true
  %100 = mul i1 %98, true
  %101 = shl i1 %95, true
  %102 = sub i1 false, true
  %103 = sub i1 %102, %95
  %104 = add i1 %103, true
  %105 = sub i1 false, %95
  %106 = add i1 %104, true
  %107 = add i1 %106, true
  %108 = sub i1 %107, true
  %109 = add i1 %104, true
  %110 = xor i1 %95, true
  %111 = and i1 true, %110
  %112 = xor i1 true, true
  %113 = and i1 %95, %112
  %114 = xor i1 true, true
  %115 = and i1 %114, true
  %116 = and i1 true, %112
  %117 = or i1 %111, %113
  %118 = or i1 %115, %116
  %119 = xor i1 %117, %118
  %120 = xor i1 %95, true
  %121 = shl i1 %119, true
  %122 = sub i1 false, %119
  %123 = add i1 false, %122
  %124 = sub i1 false, %119
  %125 = sub i1 false, %123
  %126 = sub i1 false, true
  %127 = add i1 %125, %126
  %128 = sub i1 false, %127
  %129 = add i1 %123, true
  %130 = shl i1 %119, true
  %131 = xor i1 %119, true
  %132 = and i1 true, %131
  %133 = xor i1 true, true
  %134 = and i1 %119, %133
  %135 = or i1 %132, %134
  %136 = xor i1 %119, true
  store i32 414693808, i32* %15
  br label %137

; <label>:137:                                    ; preds = %74, %27, %19, %18
  br label %16
}

; Function Attrs: noinline uwtable
define internal void @__cxx_global_var_init.10() #0 section ".text.startup" {
  call void @_ZNSt3mapIxSt3setIxSt4lessIxESaIxEES2_SaISt4pairIKxS4_EEEC2Ev(%"class.std::map"* @primeFactorSet) #3
  %1 = call i32 @__cxa_atexit(void (i8*)* bitcast (void (%"class.std::map"*)* @_ZNSt3mapIxSt3setIxSt4lessIxESaIxEES2_SaISt4pairIKxS4_EEED2Ev to void (i8*)*), i8* getelementptr inbounds (%"class.std::map", %"class.std::map"* @primeFactorSet, i32 0, i32 0, i32 0, i32 0, i32 0), i8* @__dso_handle) #3
  ret void
}

; Function Attrs: noinline nounwind uwtable
define linkonce_odr void @_ZNSt3mapIxSt3setIxSt4lessIxESaIxEES2_SaISt4pairIKxS4_EEEC2Ev(%"class.std::map"*) unnamed_addr #4 comdat align 2 personality i8* bitcast (i32 (...)* @__gxx_personality_v0 to i8*) {
  %2 = alloca %"class.std::map"*, align 8
  store %"class.std::map"* %0, %"class.std::map"** %2, align 8
  %3 = load %"class.std::map"*, %"class.std::map"** %2, align 8
  %4 = getelementptr inbounds %"class.std::map", %"class.std::map"* %3, i32 0, i32 0
  invoke void @_ZNSt8_Rb_treeIxSt4pairIKxSt3setIxSt4lessIxESaIxEEESt10_Select1stIS7_ES4_SaIS7_EEC2Ev(%"class.std::_Rb_tree"* %4)
          to label %5 unwind label %34

; <label>:5:                                      ; preds = %1
  %6 = load i32, i32* @x.99
  %7 = load i32, i32* @y.100
  %8 = sub i32 0, 1
  %9 = add i32 %6, %8
  %10 = sub i32 %6, 1
  %11 = mul i32 %6, %9
  %12 = urem i32 %11, 2
  %13 = icmp eq i32 %12, 0
  %14 = icmp slt i32 %7, 10
  %15 = and i1 %13, %14
  %16 = xor i1 %13, %14
  %17 = or i1 %15, %16
  %18 = or i1 %13, %14
  br i1 %17, label %19, label %37

; <label>:19:                                     ; preds = %5, %37
  %20 = load i32, i32* @x.99
  %21 = load i32, i32* @y.100
  %22 = sub i32 0, 1
  %23 = add i32 %20, %22
  %24 = sub i32 %20, 1
  %25 = mul i32 %20, %23
  %26 = urem i32 %25, 2
  %27 = icmp eq i32 %26, 0
  %28 = icmp slt i32 %21, 10
  %29 = and i1 %27, %28
  %30 = xor i1 %27, %28
  %31 = or i1 %29, %30
  %32 = or i1 %27, %28
  br i1 %31, label %33, label %37

; <label>:33:                                     ; preds = %19
  ret void

; <label>:34:                                     ; preds = %1
  %35 = landingpad { i8*, i32 }
          catch i8* null
  %36 = extractvalue { i8*, i32 } %35, 0
  call void @__clang_call_terminate(i8* %36) #12
  unreachable

; <label>:37:                                     ; preds = %19, %5
  br label %19
}

; Function Attrs: noinline nounwind uwtable
define linkonce_odr void @_ZNSt3mapIxSt3setIxSt4lessIxESaIxEES2_SaISt4pairIKxS4_EEED2Ev(%"class.std::map"*) unnamed_addr #4 comdat align 2 {
  %2 = alloca %"class.std::map"*, align 8
  store %"class.std::map"* %0, %"class.std::map"** %2, align 8
  %3 = load %"class.std::map"*, %"class.std::map"** %2, align 8
  %4 = getelementptr inbounds %"class.std::map", %"class.std::map"* %3, i32 0, i32 0
  call void @_ZNSt8_Rb_treeIxSt4pairIKxSt3setIxSt4lessIxESaIxEEESt10_Select1stIS7_ES4_SaIS7_EED2Ev(%"class.std::_Rb_tree"* %4) #3
  ret void
}

; Function Attrs: noinline uwtable
define internal void @__cxx_global_var_init.11() #0 section ".text.startup" {
  call void @_ZNSt3mapIxS_IxxSt4lessIxESaISt4pairIKxxEEES1_SaIS2_IS3_S6_EEEC2Ev(%"class.std::map.18"* @primeFactorMap) #3
  %1 = call i32 @__cxa_atexit(void (i8*)* bitcast (void (%"class.std::map.18"*)* @_ZNSt3mapIxS_IxxSt4lessIxESaISt4pairIKxxEEES1_SaIS2_IS3_S6_EEED2Ev to void (i8*)*), i8* getelementptr inbounds (%"class.std::map.18", %"class.std::map.18"* @primeFactorMap, i32 0, i32 0, i32 0, i32 0, i32 0), i8* @__dso_handle) #3
  ret void
}

; Function Attrs: noinline nounwind uwtable
define linkonce_odr void @_ZNSt3mapIxS_IxxSt4lessIxESaISt4pairIKxxEEES1_SaIS2_IS3_S6_EEEC2Ev(%"class.std::map.18"*) unnamed_addr #4 comdat align 2 personality i8* bitcast (i32 (...)* @__gxx_personality_v0 to i8*) {
  %2 = alloca %"class.std::map.18"*, align 8
  store %"class.std::map.18"* %0, %"class.std::map.18"** %2, align 8
  %3 = load %"class.std::map.18"*, %"class.std::map.18"** %2, align 8
  %4 = getelementptr inbounds %"class.std::map.18", %"class.std::map.18"* %3, i32 0, i32 0
  invoke void @_ZNSt8_Rb_treeIxSt4pairIKxSt3mapIxxSt4lessIxESaIS0_IS1_xEEEESt10_Select1stIS8_ES4_SaIS8_EEC2Ev(%"class.std::_Rb_tree.19"* %4)
          to label %5 unwind label %6

; <label>:5:                                      ; preds = %1
  ret void

; <label>:6:                                      ; preds = %1
  %7 = load i32, i32* @x.105
  %8 = load i32, i32* @y.106
  %9 = sub i32 0, 1
  %10 = add i32 %7, %9
  %11 = sub i32 %7, 1
  %12 = mul i32 %7, %10
  %13 = urem i32 %12, 2
  %14 = icmp eq i32 %13, 0
  %15 = icmp slt i32 %8, 10
  %16 = xor i1 %14, true
  %17 = xor i1 %15, true
  %18 = xor i1 true, true
  %19 = and i1 %16, true
  %20 = and i1 %14, %18
  %21 = and i1 %17, true
  %22 = and i1 %15, %18
  %23 = or i1 %19, %20
  %24 = or i1 %21, %22
  %25 = xor i1 %23, %24
  %26 = or i1 %16, %17
  %27 = xor i1 %26, true
  %28 = or i1 true, %18
  %29 = and i1 %27, %28
  %30 = or i1 %25, %29
  %31 = or i1 %14, %15
  br i1 %30, label %32, label %62

; <label>:32:                                     ; preds = %6, %62
  %33 = landingpad { i8*, i32 }
          catch i8* null
  %34 = extractvalue { i8*, i32 } %33, 0
  call void @__clang_call_terminate(i8* %34) #12
  %35 = load i32, i32* @x.105
  %36 = load i32, i32* @y.106
  %37 = add i32 %35, 1827840296
  %38 = sub i32 %37, 1
  %39 = sub i32 %38, 1827840296
  %40 = sub i32 %35, 1
  %41 = mul i32 %35, %39
  %42 = urem i32 %41, 2
  %43 = icmp eq i32 %42, 0
  %44 = icmp slt i32 %36, 10
  %45 = xor i1 %43, true
  %46 = xor i1 %44, true
  %47 = xor i1 true, true
  %48 = and i1 %45, true
  %49 = and i1 %43, %47
  %50 = and i1 %46, true
  %51 = and i1 %44, %47
  %52 = or i1 %48, %49
  %53 = or i1 %50, %51
  %54 = xor i1 %52, %53
  %55 = or i1 %45, %46
  %56 = xor i1 %55, true
  %57 = or i1 true, %47
  %58 = and i1 %56, %57
  %59 = or i1 %54, %58
  %60 = or i1 %43, %44
  br i1 %59, label %61, label %62

; <label>:61:                                     ; preds = %32
  unreachable

; <label>:62:                                     ; preds = %32, %6
  %63 = landingpad { i8*, i32 }
          catch i8* null
  %64 = extractvalue { i8*, i32 } %63, 0
  call void @__clang_call_terminate(i8* %64) #12
  br label %32
}

; Function Attrs: noinline nounwind uwtable
define linkonce_odr void @_ZNSt3mapIxS_IxxSt4lessIxESaISt4pairIKxxEEES1_SaIS2_IS3_S6_EEED2Ev(%"class.std::map.18"*) unnamed_addr #4 comdat align 2 {
  %2 = alloca %"class.std::map.18"*, align 8
  store %"class.std::map.18"* %0, %"class.std::map.18"** %2, align 8
  %3 = load %"class.std::map.18"*, %"class.std::map.18"** %2, align 8
  %4 = getelementptr inbounds %"class.std::map.18", %"class.std::map.18"* %3, i32 0, i32 0
  call void @_ZNSt8_Rb_treeIxSt4pairIKxSt3mapIxxSt4lessIxESaIS0_IS1_xEEEESt10_Select1stIS8_ES4_SaIS8_EED2Ev(%"class.std::_Rb_tree.19"* %4) #3
  ret void
}

; Function Attrs: noinline nounwind uwtable
define void @_Z15primeFactorInitv() #4 {
  %1 = alloca i1
  %2 = alloca i1
  %3 = load i32, i32* @x.109
  %4 = load i32, i32* @y.110
  %5 = add i32 %3, -1073892328
  %6 = sub i32 %5, 1
  %7 = sub i32 %6, -1073892328
  %8 = sub i32 %3, 1
  %9 = mul i32 %3, %7
  %10 = urem i32 %9, 2
  %11 = icmp eq i32 %10, 0
  store i1 %11, i1* %2
  %12 = icmp slt i32 %4, 10
  store i1 %12, i1* %1
  %13 = alloca i32
  store i32 250909698, i32* %13
  br label %14

; <label>:14:                                     ; preds = %0, %43
  %15 = load i32, i32* %13
  switch i32 %15, label %16 [
    i32 250909698, label %17
    i32 1815067630, label %25
    i32 -1325668895, label %41
    i32 1451059296, label %42
  ]

; <label>:16:                                     ; preds = %14
  br label %43

; <label>:17:                                     ; preds = %14
  %18 = load volatile i1, i1* %2
  %19 = load volatile i1, i1* %1
  %20 = and i1 %18, %19
  %21 = xor i1 %18, %19
  %22 = or i1 %20, %21
  %23 = or i1 %18, %19
  %24 = select i1 %22, i32 1815067630, i32 1451059296
  store i32 %24, i32* %13
  br label %43

; <label>:25:                                     ; preds = %14
  call void @_ZNSt3mapIxS_IxxSt4lessIxESaISt4pairIKxxEEES1_SaIS2_IS3_S6_EEE5clearEv(%"class.std::map.18"* @primeFactorMap) #3
  call void @_ZNSt3mapIxSt3setIxSt4lessIxESaIxEES2_SaISt4pairIKxS4_EEE5clearEv(%"class.std::map"* @primeFactorSet) #3
  %26 = load i32, i32* @x.109
  %27 = load i32, i32* @y.110
  %28 = add i32 %26, -113233032
  %29 = sub i32 %28, 1
  %30 = sub i32 %29, -113233032
  %31 = sub i32 %26, 1
  %32 = mul i32 %26, %30
  %33 = urem i32 %32, 2
  %34 = icmp eq i32 %33, 0
  %35 = icmp slt i32 %27, 10
  %36 = and i1 %34, %35
  %37 = xor i1 %34, %35
  %38 = or i1 %36, %37
  %39 = or i1 %34, %35
  %40 = select i1 %38, i32 -1325668895, i32 1451059296
  store i32 %40, i32* %13
  br label %43

; <label>:41:                                     ; preds = %14
  ret void

; <label>:42:                                     ; preds = %14
  call void @_ZNSt3mapIxS_IxxSt4lessIxESaISt4pairIKxxEEES1_SaIS2_IS3_S6_EEE5clearEv(%"class.std::map.18"* @primeFactorMap) #3
  call void @_ZNSt3mapIxSt3setIxSt4lessIxESaIxEES2_SaISt4pairIKxS4_EEE5clearEv(%"class.std::map"* @primeFactorSet) #3
  store i32 1815067630, i32* %13
  br label %43

; <label>:43:                                     ; preds = %42, %25, %17, %16
  br label %14
}

; Function Attrs: noinline nounwind uwtable
define linkonce_odr void @_ZNSt3mapIxS_IxxSt4lessIxESaISt4pairIKxxEEES1_SaIS2_IS3_S6_EEE5clearEv(%"class.std::map.18"*) #4 comdat align 2 {
  %2 = alloca %"class.std::map.18"*, align 8
  store %"class.std::map.18"* %0, %"class.std::map.18"** %2, align 8
  %3 = load %"class.std::map.18"*, %"class.std::map.18"** %2, align 8
  %4 = getelementptr inbounds %"class.std::map.18", %"class.std::map.18"* %3, i32 0, i32 0
  call void @_ZNSt8_Rb_treeIxSt4pairIKxSt3mapIxxSt4lessIxESaIS0_IS1_xEEEESt10_Select1stIS8_ES4_SaIS8_EE5clearEv(%"class.std::_Rb_tree.19"* %4) #3
  ret void
}

; Function Attrs: noinline nounwind uwtable
define linkonce_odr void @_ZNSt3mapIxSt3setIxSt4lessIxESaIxEES2_SaISt4pairIKxS4_EEE5clearEv(%"class.std::map"*) #4 comdat align 2 {
  %2 = alloca i1
  %3 = alloca i1
  %4 = load i32, i32* @x.113
  %5 = load i32, i32* @y.114
  %6 = sub i32 %4, 2064770907
  %7 = sub i32 %6, 1
  %8 = add i32 %7, 2064770907
  %9 = sub i32 %4, 1
  %10 = mul i32 %4, %8
  %11 = urem i32 %10, 2
  %12 = icmp eq i32 %11, 0
  store i1 %12, i1* %3
  %13 = icmp slt i32 %5, 10
  store i1 %13, i1* %2
  %14 = alloca i32
  store i32 830744930, i32* %14
  br label %15

; <label>:15:                                     ; preds = %1, %62
  %16 = load i32, i32* %14
  switch i32 %16, label %17 [
    i32 830744930, label %18
    i32 495550693, label %38
    i32 584066262, label %57
    i32 -1449898315, label %58
  ]

; <label>:17:                                     ; preds = %15
  br label %62

; <label>:18:                                     ; preds = %15
  %19 = load volatile i1, i1* %3
  %20 = load volatile i1, i1* %2
  %21 = xor i1 %19, true
  %22 = xor i1 %20, true
  %23 = xor i1 true, true
  %24 = and i1 %21, true
  %25 = and i1 %19, %23
  %26 = and i1 %22, true
  %27 = and i1 %20, %23
  %28 = or i1 %24, %25
  %29 = or i1 %26, %27
  %30 = xor i1 %28, %29
  %31 = or i1 %21, %22
  %32 = xor i1 %31, true
  %33 = or i1 true, %23
  %34 = and i1 %32, %33
  %35 = or i1 %30, %34
  %36 = or i1 %19, %20
  %37 = select i1 %35, i32 495550693, i32 -1449898315
  store i32 %37, i32* %14
  br label %62

; <label>:38:                                     ; preds = %15
  %39 = alloca %"class.std::map"*, align 8
  store %"class.std::map"* %0, %"class.std::map"** %39, align 8
  %40 = load %"class.std::map"*, %"class.std::map"** %39, align 8
  %41 = getelementptr inbounds %"class.std::map", %"class.std::map"* %40, i32 0, i32 0
  call void @_ZNSt8_Rb_treeIxSt4pairIKxSt3setIxSt4lessIxESaIxEEESt10_Select1stIS7_ES4_SaIS7_EE5clearEv(%"class.std::_Rb_tree"* %41) #3
  %42 = load i32, i32* @x.113
  %43 = load i32, i32* @y.114
  %44 = sub i32 %42, 1258225528
  %45 = sub i32 %44, 1
  %46 = add i32 %45, 1258225528
  %47 = sub i32 %42, 1
  %48 = mul i32 %42, %46
  %49 = urem i32 %48, 2
  %50 = icmp eq i32 %49, 0
  %51 = icmp slt i32 %43, 10
  %52 = and i1 %50, %51
  %53 = xor i1 %50, %51
  %54 = or i1 %52, %53
  %55 = or i1 %50, %51
  %56 = select i1 %54, i32 584066262, i32 -1449898315
  store i32 %56, i32* %14
  br label %62

; <label>:57:                                     ; preds = %15
  ret void

; <label>:58:                                     ; preds = %15
  %59 = alloca %"class.std::map"*, align 8
  store %"class.std::map"* %0, %"class.std::map"** %59, align 8
  %60 = load %"class.std::map"*, %"class.std::map"** %59, align 8
  %61 = getelementptr inbounds %"class.std::map", %"class.std::map"* %60, i32 0, i32 0
  call void @_ZNSt8_Rb_treeIxSt4pairIKxSt3setIxSt4lessIxESaIxEEESt10_Select1stIS7_ES4_SaIS7_EE5clearEv(%"class.std::_Rb_tree"* %61) #3
  store i32 495550693, i32* %14
  br label %62

; <label>:62:                                     ; preds = %58, %38, %18, %17
  br label %15
}

; Function Attrs: noinline uwtable
define void @_Z11primeFactorx(i64) #0 personality i8* bitcast (i32 (...)* @__gxx_personality_v0 to i8*) {
  %2 = alloca i64, align 8
  %3 = alloca i64, align 8
  %4 = alloca i64, align 8
  %5 = alloca %"class.std::set.23", align 8
  %6 = alloca %"class.std::initializer_list", align 8
  %7 = alloca [2 x i64], align 8
  %8 = alloca %"struct.std::less", align 1
  %9 = alloca %"class.std::allocator.8", align 1
  %10 = alloca i8*
  %11 = alloca i32
  %12 = alloca %"class.std::map.28", align 8
  %13 = alloca i32, align 4
  %14 = alloca i64, align 8
  %15 = alloca i64, align 8
  %16 = alloca %"struct.std::pair", align 8
  %17 = alloca i64, align 8
  %18 = alloca %"struct.std::pair", align 8
  store i64 %0, i64* %2, align 8
  %19 = load i64, i64* %2, align 8
  %20 = icmp slt i64 %19, 0
  br i1 %20, label %53, label %21

; <label>:21:                                     ; preds = %1
  %22 = load i32, i32* @x.115
  %23 = load i32, i32* @y.116
  %24 = add i32 %22, -673750384
  %25 = sub i32 %24, 1
  %26 = sub i32 %25, -673750384
  %27 = sub i32 %22, 1
  %28 = mul i32 %22, %26
  %29 = urem i32 %28, 2
  %30 = icmp eq i32 %29, 0
  %31 = icmp slt i32 %23, 10
  %32 = and i1 %30, %31
  %33 = xor i1 %30, %31
  %34 = or i1 %32, %33
  %35 = or i1 %30, %31
  br i1 %34, label %36, label %410

; <label>:36:                                     ; preds = %21, %410
  %37 = load i64, i64* %2, align 8
  %38 = icmp sgt i64 %37, 1152921504606846976
  %39 = load i32, i32* @x.115
  %40 = load i32, i32* @y.116
  %41 = sub i32 0, 1
  %42 = add i32 %39, %41
  %43 = sub i32 %39, 1
  %44 = mul i32 %39, %42
  %45 = urem i32 %44, 2
  %46 = icmp eq i32 %45, 0
  %47 = icmp slt i32 %40, 10
  %48 = and i1 %46, %47
  %49 = xor i1 %46, %47
  %50 = or i1 %48, %49
  %51 = or i1 %46, %47
  br i1 %50, label %52, label %410

; <label>:52:                                     ; preds = %36
  br i1 %38, label %53, label %54

; <label>:53:                                     ; preds = %52, %1
  br label %351

; <label>:54:                                     ; preds = %52
  %55 = load i64, i64* %2, align 8
  store i64 %55, i64* %3, align 8
  %56 = load i64, i64* %2, align 8
  %57 = sitofp i64 %56 to double
  %58 = fadd double %57, 1.000000e-01
  %59 = call double @sqrt(double %58) #3
  %60 = fptosi double %59 to i64
  store i64 %60, i64* %4, align 8
  %61 = getelementptr inbounds [2 x i64], [2 x i64]* %7, i64 0, i64 0
  store i64 1, i64* %61, align 8
  %62 = getelementptr inbounds i64, i64* %61, i64 1
  %63 = load i64, i64* %2, align 8
  store i64 %63, i64* %62, align 8
  %64 = getelementptr inbounds %"class.std::initializer_list", %"class.std::initializer_list"* %6, i32 0, i32 0
  %65 = getelementptr inbounds [2 x i64], [2 x i64]* %7, i64 0, i64 0
  store i64* %65, i64** %64, align 8
  %66 = getelementptr inbounds %"class.std::initializer_list", %"class.std::initializer_list"* %6, i32 0, i32 1
  store i64 2, i64* %66, align 8
  call void @_ZNSaIxEC2Ev(%"class.std::allocator.8"* %9) #3
  %67 = bitcast %"class.std::initializer_list"* %6 to { i64*, i64 }*
  %68 = getelementptr inbounds { i64*, i64 }, { i64*, i64 }* %67, i32 0, i32 0
  %69 = load i64*, i64** %68, align 8
  %70 = getelementptr inbounds { i64*, i64 }, { i64*, i64 }* %67, i32 0, i32 1
  %71 = load i64, i64* %70, align 8
  invoke void @_ZNSt3setIxSt4lessIxESaIxEEC2ESt16initializer_listIxERKS1_RKS2_(%"class.std::set.23"* %5, i64* %69, i64 %71, %"struct.std::less"* dereferenceable(1) %8, %"class.std::allocator.8"* dereferenceable(1) %9)
          to label %72 unwind label %218

; <label>:72:                                     ; preds = %54
  call void @_ZNSaIxED2Ev(%"class.std::allocator.8"* %9) #3
  call void @_ZNSt3mapIxxSt4lessIxESaISt4pairIKxxEEEC2Ev(%"class.std::map.28"* %12) #3
  store i32 2, i32* %13, align 4
  br label %73

; <label>:73:                                     ; preds = %269, %72
  %74 = load i32, i32* %13, align 4
  %75 = sext i32 %74 to i64
  %76 = load i64, i64* %4, align 8
  %77 = icmp sle i64 %75, %76
  br i1 %77, label %78, label %275

; <label>:78:                                     ; preds = %73
  %79 = load i32, i32* @x.115
  %80 = load i32, i32* @y.116
  %81 = sub i32 0, 1
  %82 = add i32 %79, %81
  %83 = sub i32 %79, 1
  %84 = mul i32 %79, %82
  %85 = urem i32 %84, 2
  %86 = icmp eq i32 %85, 0
  %87 = icmp slt i32 %80, 10
  %88 = xor i1 %86, true
  %89 = xor i1 %87, true
  %90 = xor i1 true, true
  %91 = and i1 %88, true
  %92 = and i1 %86, %90
  %93 = and i1 %89, true
  %94 = and i1 %87, %90
  %95 = or i1 %91, %92
  %96 = or i1 %93, %94
  %97 = xor i1 %95, %96
  %98 = or i1 %88, %89
  %99 = xor i1 %98, true
  %100 = or i1 true, %90
  %101 = and i1 %99, %100
  %102 = or i1 %97, %101
  %103 = or i1 %86, %87
  br i1 %102, label %104, label %413

; <label>:104:                                    ; preds = %78, %413
  store i64 0, i64* %14, align 8
  store i64 1, i64* %15, align 8
  %105 = load i32, i32* @x.115
  %106 = load i32, i32* @y.116
  %107 = sub i32 0, 1
  %108 = add i32 %105, %107
  %109 = sub i32 %105, 1
  %110 = mul i32 %105, %108
  %111 = urem i32 %110, 2
  %112 = icmp eq i32 %111, 0
  %113 = icmp slt i32 %106, 10
  %114 = and i1 %112, %113
  %115 = xor i1 %112, %113
  %116 = or i1 %114, %115
  %117 = or i1 %112, %113
  br i1 %116, label %118, label %413

; <label>:118:                                    ; preds = %104
  br label %119

; <label>:119:                                    ; preds = %217, %118
  %120 = load i32, i32* @x.115
  %121 = load i32, i32* @y.116
  %122 = add i32 %120, 1019411073
  %123 = sub i32 %122, 1
  %124 = sub i32 %123, 1019411073
  %125 = sub i32 %120, 1
  %126 = mul i32 %120, %124
  %127 = urem i32 %126, 2
  %128 = icmp eq i32 %127, 0
  %129 = icmp slt i32 %121, 10
  %130 = and i1 %128, %129
  %131 = xor i1 %128, %129
  %132 = or i1 %130, %131
  %133 = or i1 %128, %129
  br i1 %132, label %134, label %414

; <label>:134:                                    ; preds = %119, %414
  %135 = load i64, i64* %3, align 8
  %136 = load i32, i32* %13, align 4
  %137 = sext i32 %136 to i64
  %138 = srem i64 %135, %137
  %139 = icmp eq i64 %138, 0
  %140 = load i32, i32* @x.115
  %141 = load i32, i32* @y.116
  %142 = add i32 %140, -891945660
  %143 = sub i32 %142, 1
  %144 = sub i32 %143, -891945660
  %145 = sub i32 %140, 1
  %146 = mul i32 %140, %144
  %147 = urem i32 %146, 2
  %148 = icmp eq i32 %147, 0
  %149 = icmp slt i32 %141, 10
  %150 = and i1 %148, %149
  %151 = xor i1 %148, %149
  %152 = or i1 %150, %151
  %153 = or i1 %148, %149
  br i1 %152, label %154, label %414

; <label>:154:                                    ; preds = %134
  br i1 %139, label %155, label %255

; <label>:155:                                    ; preds = %154
  %156 = load i64, i64* %14, align 8
  %157 = sub i64 0, %156
  %158 = sub i64 0, 1
  %159 = add i64 %157, %158
  %160 = sub i64 0, %159
  %161 = add nsw i64 %156, 1
  store i64 %160, i64* %14, align 8
  %162 = load i32, i32* %13, align 4
  %163 = sext i32 %162 to i64
  %164 = load i64, i64* %15, align 8
  %165 = mul nsw i64 %164, %163
  store i64 %165, i64* %15, align 8
  %166 = invoke { %"struct.std::_Rb_tree_node_base"*, i8 } @_ZNSt3setIxSt4lessIxESaIxEE6insertERKx(%"class.std::set.23"* %5, i64* dereferenceable(8) %15)
          to label %167 unwind label %251

; <label>:167:                                    ; preds = %155
  %168 = load i32, i32* @x.115
  %169 = load i32, i32* @y.116
  %170 = sub i32 0, 1
  %171 = add i32 %168, %170
  %172 = sub i32 %168, 1
  %173 = mul i32 %168, %171
  %174 = urem i32 %173, 2
  %175 = icmp eq i32 %174, 0
  %176 = icmp slt i32 %169, 10
  %177 = and i1 %175, %176
  %178 = xor i1 %175, %176
  %179 = or i1 %177, %178
  %180 = or i1 %175, %176
  br i1 %179, label %181, label %446

; <label>:181:                                    ; preds = %167, %446
  %182 = bitcast %"struct.std::pair"* %16 to { %"struct.std::_Rb_tree_node_base"*, i8 }*
  %183 = getelementptr inbounds { %"struct.std::_Rb_tree_node_base"*, i8 }, { %"struct.std::_Rb_tree_node_base"*, i8 }* %182, i32 0, i32 0
  %184 = extractvalue { %"struct.std::_Rb_tree_node_base"*, i8 } %166, 0
  store %"struct.std::_Rb_tree_node_base"* %184, %"struct.std::_Rb_tree_node_base"** %183, align 8
  %185 = getelementptr inbounds { %"struct.std::_Rb_tree_node_base"*, i8 }, { %"struct.std::_Rb_tree_node_base"*, i8 }* %182, i32 0, i32 1
  %186 = extractvalue { %"struct.std::_Rb_tree_node_base"*, i8 } %166, 1
  store i8 %186, i8* %185, align 8
  %187 = load i32, i32* %13, align 4
  %188 = sext i32 %187 to i64
  %189 = load i64, i64* %3, align 8
  %190 = sdiv i64 %189, %188
  store i64 %190, i64* %3, align 8
  %191 = load i32, i32* @x.115
  %192 = load i32, i32* @y.116
  %193 = sub i32 %191, 1991809063
  %194 = sub i32 %193, 1
  %195 = add i32 %194, 1991809063
  %196 = sub i32 %191, 1
  %197 = mul i32 %191, %195
  %198 = urem i32 %197, 2
  %199 = icmp eq i32 %198, 0
  %200 = icmp slt i32 %192, 10
  %201 = xor i1 %199, true
  %202 = xor i1 %200, true
  %203 = xor i1 false, true
  %204 = and i1 %201, false
  %205 = and i1 %199, %203
  %206 = and i1 %202, false
  %207 = and i1 %200, %203
  %208 = or i1 %204, %205
  %209 = or i1 %206, %207
  %210 = xor i1 %208, %209
  %211 = or i1 %201, %202
  %212 = xor i1 %211, true
  %213 = or i1 false, %203
  %214 = and i1 %212, %213
  %215 = or i1 %210, %214
  %216 = or i1 %199, %200
  br i1 %215, label %217, label %446

; <label>:217:                                    ; preds = %181
  br label %119

; <label>:218:                                    ; preds = %54
  %219 = load i32, i32* @x.115
  %220 = load i32, i32* @y.116
  %221 = add i32 %219, 170275005
  %222 = sub i32 %221, 1
  %223 = sub i32 %222, 170275005
  %224 = sub i32 %219, 1
  %225 = mul i32 %219, %223
  %226 = urem i32 %225, 2
  %227 = icmp eq i32 %226, 0
  %228 = icmp slt i32 %220, 10
  %229 = and i1 %227, %228
  %230 = xor i1 %227, %228
  %231 = or i1 %229, %230
  %232 = or i1 %227, %228
  br i1 %231, label %233, label %468

; <label>:233:                                    ; preds = %218, %468
  %234 = landingpad { i8*, i32 }
          cleanup
  %235 = extractvalue { i8*, i32 } %234, 0
  store i8* %235, i8** %10, align 8
  %236 = extractvalue { i8*, i32 } %234, 1
  store i32 %236, i32* %11, align 4
  call void @_ZNSaIxED2Ev(%"class.std::allocator.8"* %9) #3
  %237 = load i32, i32* @x.115
  %238 = load i32, i32* @y.116
  %239 = sub i32 0, 1
  %240 = add i32 %237, %239
  %241 = sub i32 %237, 1
  %242 = mul i32 %237, %240
  %243 = urem i32 %242, 2
  %244 = icmp eq i32 %243, 0
  %245 = icmp slt i32 %238, 10
  %246 = and i1 %244, %245
  %247 = xor i1 %244, %245
  %248 = or i1 %246, %247
  %249 = or i1 %244, %245
  br i1 %248, label %250, label %468

; <label>:250:                                    ; preds = %233
  br label %405

; <label>:251:                                    ; preds = %348, %346, %344, %288, %280, %278, %258, %155
  %252 = landingpad { i8*, i32 }
          cleanup
  %253 = extractvalue { i8*, i32 } %252, 0
  store i8* %253, i8** %10, align 8
  %254 = extractvalue { i8*, i32 } %252, 1
  store i32 %254, i32* %11, align 4
  call void @_ZNSt3mapIxxSt4lessIxESaISt4pairIKxxEEED2Ev(%"class.std::map.28"* %12) #3
  call void @_ZNSt3setIxSt4lessIxESaIxEED2Ev(%"class.std::set.23"* %5) #3
  br label %405

; <label>:255:                                    ; preds = %154
  %256 = load i64, i64* %14, align 8
  %257 = icmp sgt i64 %256, 0
  br i1 %257, label %258, label %264

; <label>:258:                                    ; preds = %255
  %259 = load i64, i64* %14, align 8
  %260 = load i32, i32* %13, align 4
  %261 = sext i32 %260 to i64
  store i64 %261, i64* %17, align 8
  %262 = invoke dereferenceable(8) i64* @_ZNSt3mapIxxSt4lessIxESaISt4pairIKxxEEEixEOx(%"class.std::map.28"* %12, i64* dereferenceable(8) %17)
          to label %263 unwind label %251

; <label>:263:                                    ; preds = %258
  store i64 %259, i64* %262, align 8
  br label %264

; <label>:264:                                    ; preds = %263, %255
  %265 = load i64, i64* %3, align 8
  %266 = icmp eq i64 %265, 1
  br i1 %266, label %267, label %268

; <label>:267:                                    ; preds = %264
  br label %275

; <label>:268:                                    ; preds = %264
  br label %269

; <label>:269:                                    ; preds = %268
  %270 = load i32, i32* %13, align 4
  %271 = add i32 %270, 1771164856
  %272 = add i32 %271, 1
  %273 = sub i32 %272, 1771164856
  %274 = add nsw i32 %270, 1
  store i32 %273, i32* %13, align 4
  br label %73

; <label>:275:                                    ; preds = %267, %73
  %276 = load i64, i64* %3, align 8
  %277 = icmp ne i64 %276, 1
  br i1 %277, label %278, label %288

; <label>:278:                                    ; preds = %275
  %279 = invoke dereferenceable(8) i64* @_ZNSt3mapIxxSt4lessIxESaISt4pairIKxxEEEixERS3_(%"class.std::map.28"* %12, i64* dereferenceable(8) %3)
          to label %280 unwind label %251

; <label>:280:                                    ; preds = %278
  store i64 1, i64* %279, align 8
  %281 = invoke { %"struct.std::_Rb_tree_node_base"*, i8 } @_ZNSt3setIxSt4lessIxESaIxEE6insertERKx(%"class.std::set.23"* %5, i64* dereferenceable(8) %3)
          to label %282 unwind label %251

; <label>:282:                                    ; preds = %280
  %283 = bitcast %"struct.std::pair"* %18 to { %"struct.std::_Rb_tree_node_base"*, i8 }*
  %284 = getelementptr inbounds { %"struct.std::_Rb_tree_node_base"*, i8 }, { %"struct.std::_Rb_tree_node_base"*, i8 }* %283, i32 0, i32 0
  %285 = extractvalue { %"struct.std::_Rb_tree_node_base"*, i8 } %281, 0
  store %"struct.std::_Rb_tree_node_base"* %285, %"struct.std::_Rb_tree_node_base"** %284, align 8
  %286 = getelementptr inbounds { %"struct.std::_Rb_tree_node_base"*, i8 }, { %"struct.std::_Rb_tree_node_base"*, i8 }* %283, i32 0, i32 1
  %287 = extractvalue { %"struct.std::_Rb_tree_node_base"*, i8 } %281, 1
  store i8 %287, i8* %286, align 8
  br label %288

; <label>:288:                                    ; preds = %282, %275
  %289 = invoke dereferenceable(48) %"class.std::set.23"* @_ZNSt3mapIxSt3setIxSt4lessIxESaIxEES2_SaISt4pairIKxS4_EEEixERS6_(%"class.std::map"* @primeFactorSet, i64* dereferenceable(8) %2)
          to label %290 unwind label %251

; <label>:290:                                    ; preds = %288
  %291 = load i32, i32* @x.115
  %292 = load i32, i32* @y.116
  %293 = add i32 %291, 1939886303
  %294 = sub i32 %293, 1
  %295 = sub i32 %294, 1939886303
  %296 = sub i32 %291, 1
  %297 = mul i32 %291, %295
  %298 = urem i32 %297, 2
  %299 = icmp eq i32 %298, 0
  %300 = icmp slt i32 %292, 10
  %301 = xor i1 %299, true
  %302 = xor i1 %300, true
  %303 = xor i1 true, true
  %304 = and i1 %301, true
  %305 = and i1 %299, %303
  %306 = and i1 %302, true
  %307 = and i1 %300, %303
  %308 = or i1 %304, %305
  %309 = or i1 %306, %307
  %310 = xor i1 %308, %309
  %311 = or i1 %301, %302
  %312 = xor i1 %311, true
  %313 = or i1 true, %303
  %314 = and i1 %312, %313
  %315 = or i1 %310, %314
  %316 = or i1 %299, %300
  br i1 %315, label %317, label %472

; <label>:317:                                    ; preds = %290, %472
  %318 = load i32, i32* @x.115
  %319 = load i32, i32* @y.116
  %320 = sub i32 %318, -1740670641
  %321 = sub i32 %320, 1
  %322 = add i32 %321, -1740670641
  %323 = sub i32 %318, 1
  %324 = mul i32 %318, %322
  %325 = urem i32 %324, 2
  %326 = icmp eq i32 %325, 0
  %327 = icmp slt i32 %319, 10
  %328 = xor i1 %326, true
  %329 = xor i1 %327, true
  %330 = xor i1 false, true
  %331 = and i1 %328, false
  %332 = and i1 %326, %330
  %333 = and i1 %329, false
  %334 = and i1 %327, %330
  %335 = or i1 %331, %332
  %336 = or i1 %333, %334
  %337 = xor i1 %335, %336
  %338 = or i1 %328, %329
  %339 = xor i1 %338, true
  %340 = or i1 false, %330
  %341 = and i1 %339, %340
  %342 = or i1 %337, %341
  %343 = or i1 %326, %327
  br i1 %342, label %344, label %472

; <label>:344:                                    ; preds = %317
  %345 = invoke dereferenceable(48) %"class.std::set.23"* @_ZNSt3setIxSt4lessIxESaIxEEaSERKS3_(%"class.std::set.23"* %289, %"class.std::set.23"* dereferenceable(48) %5)
          to label %346 unwind label %251

; <label>:346:                                    ; preds = %344
  %347 = invoke dereferenceable(48) %"class.std::map.28"* @_ZNSt3mapIxS_IxxSt4lessIxESaISt4pairIKxxEEES1_SaIS2_IS3_S6_EEEixERS3_(%"class.std::map.18"* @primeFactorMap, i64* dereferenceable(8) %2)
          to label %348 unwind label %251

; <label>:348:                                    ; preds = %346
  %349 = invoke dereferenceable(48) %"class.std::map.28"* @_ZNSt3mapIxxSt4lessIxESaISt4pairIKxxEEEaSERKS6_(%"class.std::map.28"* %347, %"class.std::map.28"* dereferenceable(48) %12)
          to label %350 unwind label %251

; <label>:350:                                    ; preds = %348
  call void @_ZNSt3mapIxxSt4lessIxESaISt4pairIKxxEEED2Ev(%"class.std::map.28"* %12) #3
  call void @_ZNSt3setIxSt4lessIxESaIxEED2Ev(%"class.std::set.23"* %5) #3
  br label %351

; <label>:351:                                    ; preds = %350, %53
  %352 = load i32, i32* @x.115
  %353 = load i32, i32* @y.116
  %354 = add i32 %352, 747539680
  %355 = sub i32 %354, 1
  %356 = sub i32 %355, 747539680
  %357 = sub i32 %352, 1
  %358 = mul i32 %352, %356
  %359 = urem i32 %358, 2
  %360 = icmp eq i32 %359, 0
  %361 = icmp slt i32 %353, 10
  %362 = xor i1 %360, true
  %363 = xor i1 %361, true
  %364 = xor i1 false, true
  %365 = and i1 %362, false
  %366 = and i1 %360, %364
  %367 = and i1 %363, false
  %368 = and i1 %361, %364
  %369 = or i1 %365, %366
  %370 = or i1 %367, %368
  %371 = xor i1 %369, %370
  %372 = or i1 %362, %363
  %373 = xor i1 %372, true
  %374 = or i1 false, %364
  %375 = and i1 %373, %374
  %376 = or i1 %371, %375
  %377 = or i1 %360, %361
  br i1 %376, label %378, label %473

; <label>:378:                                    ; preds = %351, %473
  %379 = load i32, i32* @x.115
  %380 = load i32, i32* @y.116
  %381 = sub i32 0, 1
  %382 = add i32 %379, %381
  %383 = sub i32 %379, 1
  %384 = mul i32 %379, %382
  %385 = urem i32 %384, 2
  %386 = icmp eq i32 %385, 0
  %387 = icmp slt i32 %380, 10
  %388 = xor i1 %386, true
  %389 = xor i1 %387, true
  %390 = xor i1 true, true
  %391 = and i1 %388, true
  %392 = and i1 %386, %390
  %393 = and i1 %389, true
  %394 = and i1 %387, %390
  %395 = or i1 %391, %392
  %396 = or i1 %393, %394
  %397 = xor i1 %395, %396
  %398 = or i1 %388, %389
  %399 = xor i1 %398, true
  %400 = or i1 true, %390
  %401 = and i1 %399, %400
  %402 = or i1 %397, %401
  %403 = or i1 %386, %387
  br i1 %402, label %404, label %473

; <label>:404:                                    ; preds = %378
  ret void

; <label>:405:                                    ; preds = %251, %250
  %406 = load i8*, i8** %10, align 8
  %407 = load i32, i32* %11, align 4
  %408 = insertvalue { i8*, i32 } undef, i8* %406, 0
  %409 = insertvalue { i8*, i32 } %408, i32 %407, 1
  resume { i8*, i32 } %409

; <label>:410:                                    ; preds = %36, %21
  %411 = load i64, i64* %2, align 8
  %412 = icmp sgt i64 %411, 1152921504606846976
  br label %36

; <label>:413:                                    ; preds = %104, %78
  store i64 0, i64* %14, align 8
  store i64 1, i64* %15, align 8
  br label %104

; <label>:414:                                    ; preds = %134, %119
  %415 = load i64, i64* %3, align 8
  %416 = load i32, i32* %13, align 4
  %417 = sext i32 %416 to i64
  %418 = sub i64 0, %417
  %419 = add i64 %415, %418
  %420 = sub i64 %415, %417
  %421 = mul i64 %419, %417
  %422 = shl i64 %415, %417
  %423 = shl i64 %415, %417
  %424 = shl i64 %415, %417
  %425 = sub i64 0, %417
  %426 = add i64 %415, %425
  %427 = sub i64 %415, %417
  %428 = mul i64 %426, %417
  %429 = add i64 %415, -9037798539912343491
  %430 = sub i64 %429, %417
  %431 = sub i64 %430, -9037798539912343491
  %432 = sub i64 %415, %417
  %433 = mul i64 %431, %417
  %434 = add i64 %415, -5678997956831793238
  %435 = sub i64 %434, %417
  %436 = sub i64 %435, -5678997956831793238
  %437 = sub i64 %415, %417
  %438 = mul i64 %436, %417
  %439 = sub i64 %415, -8217422469942679681
  %440 = sub i64 %439, %417
  %441 = add i64 %440, -8217422469942679681
  %442 = sub i64 %415, %417
  %443 = mul i64 %441, %417
  %444 = srem i64 %415, %417
  %445 = icmp eq i64 %444, 0
  br label %134

; <label>:446:                                    ; preds = %181, %167
  %447 = bitcast %"struct.std::pair"* %16 to { %"struct.std::_Rb_tree_node_base"*, i8 }*
  %448 = getelementptr inbounds { %"struct.std::_Rb_tree_node_base"*, i8 }, { %"struct.std::_Rb_tree_node_base"*, i8 }* %447, i32 0, i32 0
  %449 = extractvalue { %"struct.std::_Rb_tree_node_base"*, i8 } %166, 0
  store %"struct.std::_Rb_tree_node_base"* %449, %"struct.std::_Rb_tree_node_base"** %448, align 8
  %450 = getelementptr inbounds { %"struct.std::_Rb_tree_node_base"*, i8 }, { %"struct.std::_Rb_tree_node_base"*, i8 }* %447, i32 0, i32 1
  %451 = extractvalue { %"struct.std::_Rb_tree_node_base"*, i8 } %166, 1
  store i8 %451, i8* %450, align 8
  %452 = load i32, i32* %13, align 4
  %453 = sext i32 %452 to i64
  %454 = load i64, i64* %3, align 8
  %455 = shl i64 %454, %453
  %456 = add i64 %454, 5240114396008620733
  %457 = sub i64 %456, %453
  %458 = sub i64 %457, 5240114396008620733
  %459 = sub i64 %454, %453
  %460 = mul i64 %458, %453
  %461 = sub i64 0, %454
  %462 = add i64 0, %461
  %463 = sub i64 0, %454
  %464 = sub i64 0, %453
  %465 = sub i64 %462, %464
  %466 = add i64 %462, %453
  %467 = sdiv i64 %454, %453
  store i64 %467, i64* %3, align 8
  br label %181

; <label>:468:                                    ; preds = %233, %218
  %469 = landingpad { i8*, i32 }
          cleanup
  %470 = extractvalue { i8*, i32 } %469, 0
  store i8* %470, i8** %10, align 8
  %471 = extractvalue { i8*, i32 } %469, 1
  store i32 %471, i32* %11, align 4
  call void @_ZNSaIxED2Ev(%"class.std::allocator.8"* %9) #3
  br label %233

; <label>:472:                                    ; preds = %317, %290
  br label %317

; <label>:473:                                    ; preds = %378, %351
  br label %378
}

; Function Attrs: noinline nounwind uwtable
define linkonce_odr void @_ZNSaIxEC2Ev(%"class.std::allocator.8"*) unnamed_addr #4 comdat align 2 {
  %2 = alloca i1
  %3 = alloca i1
  %4 = load i32, i32* @x.117
  %5 = load i32, i32* @y.118
  %6 = sub i32 %4, -1584617755
  %7 = sub i32 %6, 1
  %8 = add i32 %7, -1584617755
  %9 = sub i32 %4, 1
  %10 = mul i32 %4, %8
  %11 = urem i32 %10, 2
  %12 = icmp eq i32 %11, 0
  store i1 %12, i1* %3
  %13 = icmp slt i32 %5, 10
  store i1 %13, i1* %2
  %14 = alloca i32
  store i32 571376725, i32* %14
  br label %15

; <label>:15:                                     ; preds = %1, %62
  %16 = load i32, i32* %14
  switch i32 %16, label %17 [
    i32 571376725, label %18
    i32 1024441105, label %26
    i32 1365621467, label %57
    i32 -93131851, label %58
  ]

; <label>:17:                                     ; preds = %15
  br label %62

; <label>:18:                                     ; preds = %15
  %19 = load volatile i1, i1* %3
  %20 = load volatile i1, i1* %2
  %21 = and i1 %19, %20
  %22 = xor i1 %19, %20
  %23 = or i1 %21, %22
  %24 = or i1 %19, %20
  %25 = select i1 %23, i32 1024441105, i32 -93131851
  store i32 %25, i32* %14
  br label %62

; <label>:26:                                     ; preds = %15
  %27 = alloca %"class.std::allocator.8"*, align 8
  store %"class.std::allocator.8"* %0, %"class.std::allocator.8"** %27, align 8
  %28 = load %"class.std::allocator.8"*, %"class.std::allocator.8"** %27, align 8
  %29 = bitcast %"class.std::allocator.8"* %28 to %"class.__gnu_cxx::new_allocator.9"*
  call void @_ZN9__gnu_cxx13new_allocatorIxEC2Ev(%"class.__gnu_cxx::new_allocator.9"* %29) #3
  %30 = load i32, i32* @x.117
  %31 = load i32, i32* @y.118
  %32 = add i32 %30, 322284080
  %33 = sub i32 %32, 1
  %34 = sub i32 %33, 322284080
  %35 = sub i32 %30, 1
  %36 = mul i32 %30, %34
  %37 = urem i32 %36, 2
  %38 = icmp eq i32 %37, 0
  %39 = icmp slt i32 %31, 10
  %40 = xor i1 %38, true
  %41 = xor i1 %39, true
  %42 = xor i1 false, true
  %43 = and i1 %40, false
  %44 = and i1 %38, %42
  %45 = and i1 %41, false
  %46 = and i1 %39, %42
  %47 = or i1 %43, %44
  %48 = or i1 %45, %46
  %49 = xor i1 %47, %48
  %50 = or i1 %40, %41
  %51 = xor i1 %50, true
  %52 = or i1 false, %42
  %53 = and i1 %51, %52
  %54 = or i1 %49, %53
  %55 = or i1 %38, %39
  %56 = select i1 %54, i32 1365621467, i32 -93131851
  store i32 %56, i32* %14
  br label %62

; <label>:57:                                     ; preds = %15
  ret void

; <label>:58:                                     ; preds = %15
  %59 = alloca %"class.std::allocator.8"*, align 8
  store %"class.std::allocator.8"* %0, %"class.std::allocator.8"** %59, align 8
  %60 = load %"class.std::allocator.8"*, %"class.std::allocator.8"** %59, align 8
  %61 = bitcast %"class.std::allocator.8"* %60 to %"class.__gnu_cxx::new_allocator.9"*
  call void @_ZN9__gnu_cxx13new_allocatorIxEC2Ev(%"class.__gnu_cxx::new_allocator.9"* %61) #3
  store i32 1024441105, i32* %14
  br label %62

; <label>:62:                                     ; preds = %58, %26, %18, %17
  br label %15
}

; Function Attrs: noinline uwtable
define linkonce_odr void @_ZNSt3setIxSt4lessIxESaIxEEC2ESt16initializer_listIxERKS1_RKS2_(%"class.std::set.23"*, i64*, i64, %"struct.std::less"* dereferenceable(1), %"class.std::allocator.8"* dereferenceable(1)) unnamed_addr #0 comdat align 2 personality i8* bitcast (i32 (...)* @__gxx_personality_v0 to i8*) {
  %6 = load i32, i32* @x.119
  %7 = load i32, i32* @y.120
  %8 = sub i32 0, 1
  %9 = add i32 %6, %8
  %10 = sub i32 %6, 1
  %11 = mul i32 %6, %9
  %12 = urem i32 %11, 2
  %13 = icmp eq i32 %12, 0
  %14 = icmp slt i32 %7, 10
  %15 = and i1 %13, %14
  %16 = xor i1 %13, %14
  %17 = or i1 %15, %16
  %18 = or i1 %13, %14
  br i1 %17, label %19, label %149

; <label>:19:                                     ; preds = %5, %149
  %20 = alloca %"class.std::initializer_list", align 8
  %21 = alloca %"class.std::set.23"*, align 8
  %22 = alloca %"struct.std::less"*, align 8
  %23 = alloca %"class.std::allocator.8"*, align 8
  %24 = alloca %"class.std::allocator.8", align 1
  %25 = alloca i8*
  %26 = alloca i32
  %27 = bitcast %"class.std::initializer_list"* %20 to { i64*, i64 }*
  %28 = getelementptr inbounds { i64*, i64 }, { i64*, i64 }* %27, i32 0, i32 0
  store i64* %1, i64** %28, align 8
  %29 = getelementptr inbounds { i64*, i64 }, { i64*, i64 }* %27, i32 0, i32 1
  store i64 %2, i64* %29, align 8
  store %"class.std::set.23"* %0, %"class.std::set.23"** %21, align 8
  store %"struct.std::less"* %3, %"struct.std::less"** %22, align 8
  store %"class.std::allocator.8"* %4, %"class.std::allocator.8"** %23, align 8
  %30 = load %"class.std::set.23"*, %"class.std::set.23"** %21, align 8
  %31 = getelementptr inbounds %"class.std::set.23", %"class.std::set.23"* %30, i32 0, i32 0
  %32 = load %"struct.std::less"*, %"struct.std::less"** %22, align 8
  %33 = load %"class.std::allocator.8"*, %"class.std::allocator.8"** %23, align 8
  call void @_ZNSaIxEC2ERKS_(%"class.std::allocator.8"* %24, %"class.std::allocator.8"* dereferenceable(1) %33) #3
  %34 = load i32, i32* @x.119
  %35 = load i32, i32* @y.120
  %36 = sub i32 %34, -653176223
  %37 = sub i32 %36, 1
  %38 = add i32 %37, -653176223
  %39 = sub i32 %34, 1
  %40 = mul i32 %34, %38
  %41 = urem i32 %40, 2
  %42 = icmp eq i32 %41, 0
  %43 = icmp slt i32 %35, 10
  %44 = xor i1 %42, true
  %45 = xor i1 %43, true
  %46 = xor i1 false, true
  %47 = and i1 %44, false
  %48 = and i1 %42, %46
  %49 = and i1 %45, false
  %50 = and i1 %43, %46
  %51 = or i1 %47, %48
  %52 = or i1 %49, %50
  %53 = xor i1 %51, %52
  %54 = or i1 %44, %45
  %55 = xor i1 %54, true
  %56 = or i1 false, %46
  %57 = and i1 %55, %56
  %58 = or i1 %53, %57
  %59 = or i1 %42, %43
  br i1 %58, label %60, label %149

; <label>:60:                                     ; preds = %19
  invoke void @_ZNSt8_Rb_treeIxxSt9_IdentityIxESt4lessIxESaIxEEC2ERKS3_RKS4_(%"class.std::_Rb_tree.24"* %31, %"struct.std::less"* dereferenceable(1) %32, %"class.std::allocator.8"* dereferenceable(1) %24)
          to label %61 unwind label %66

; <label>:61:                                     ; preds = %60
  call void @_ZNSaIxED2Ev(%"class.std::allocator.8"* %24) #3
  %62 = getelementptr inbounds %"class.std::set.23", %"class.std::set.23"* %30, i32 0, i32 0
  %63 = call i64* @_ZNKSt16initializer_listIxE5beginEv(%"class.std::initializer_list"* %20) #3
  %64 = call i64* @_ZNKSt16initializer_listIxE3endEv(%"class.std::initializer_list"* %20) #3
  invoke void @_ZNSt8_Rb_treeIxxSt9_IdentityIxESt4lessIxESaIxEE16_M_insert_uniqueIPKxEEvT_S9_(%"class.std::_Rb_tree.24"* %62, i64* %63, i64* %64)
          to label %65 unwind label %99

; <label>:65:                                     ; preds = %61
  ret void

; <label>:66:                                     ; preds = %60
  %67 = load i32, i32* @x.119
  %68 = load i32, i32* @y.120
  %69 = sub i32 0, 1
  %70 = add i32 %67, %69
  %71 = sub i32 %67, 1
  %72 = mul i32 %67, %70
  %73 = urem i32 %72, 2
  %74 = icmp eq i32 %73, 0
  %75 = icmp slt i32 %68, 10
  %76 = and i1 %74, %75
  %77 = xor i1 %74, %75
  %78 = or i1 %76, %77
  %79 = or i1 %74, %75
  br i1 %78, label %80, label %164

; <label>:80:                                     ; preds = %66, %164
  %81 = landingpad { i8*, i32 }
          cleanup
  %82 = extractvalue { i8*, i32 } %81, 0
  store i8* %82, i8** %25, align 8
  %83 = extractvalue { i8*, i32 } %81, 1
  store i32 %83, i32* %26, align 4
  call void @_ZNSaIxED2Ev(%"class.std::allocator.8"* %24) #3
  %84 = load i32, i32* @x.119
  %85 = load i32, i32* @y.120
  %86 = add i32 %84, -1184553740
  %87 = sub i32 %86, 1
  %88 = sub i32 %87, -1184553740
  %89 = sub i32 %84, 1
  %90 = mul i32 %84, %88
  %91 = urem i32 %90, 2
  %92 = icmp eq i32 %91, 0
  %93 = icmp slt i32 %85, 10
  %94 = and i1 %92, %93
  %95 = xor i1 %92, %93
  %96 = or i1 %94, %95
  %97 = or i1 %92, %93
  br i1 %96, label %98, label %164

; <label>:98:                                     ; preds = %80
  br label %103

; <label>:99:                                     ; preds = %61
  %100 = landingpad { i8*, i32 }
          cleanup
  %101 = extractvalue { i8*, i32 } %100, 0
  store i8* %101, i8** %25, align 8
  %102 = extractvalue { i8*, i32 } %100, 1
  store i32 %102, i32* %26, align 4
  call void @_ZNSt8_Rb_treeIxxSt9_IdentityIxESt4lessIxESaIxEED2Ev(%"class.std::_Rb_tree.24"* %31) #3
  br label %103

; <label>:103:                                    ; preds = %99, %98
  %104 = load i32, i32* @x.119
  %105 = load i32, i32* @y.120
  %106 = sub i32 0, 1
  %107 = add i32 %104, %106
  %108 = sub i32 %104, 1
  %109 = mul i32 %104, %107
  %110 = urem i32 %109, 2
  %111 = icmp eq i32 %110, 0
  %112 = icmp slt i32 %105, 10
  %113 = xor i1 %111, true
  %114 = xor i1 %112, true
  %115 = xor i1 false, true
  %116 = and i1 %113, false
  %117 = and i1 %111, %115
  %118 = and i1 %114, false
  %119 = and i1 %112, %115
  %120 = or i1 %116, %117
  %121 = or i1 %118, %119
  %122 = xor i1 %120, %121
  %123 = or i1 %113, %114
  %124 = xor i1 %123, true
  %125 = or i1 false, %115
  %126 = and i1 %124, %125
  %127 = or i1 %122, %126
  %128 = or i1 %111, %112
  br i1 %127, label %129, label %168

; <label>:129:                                    ; preds = %103, %168
  %130 = load i8*, i8** %25, align 8
  %131 = load i32, i32* %26, align 4
  %132 = insertvalue { i8*, i32 } undef, i8* %130, 0
  %133 = insertvalue { i8*, i32 } %132, i32 %131, 1
  %134 = load i32, i32* @x.119
  %135 = load i32, i32* @y.120
  %136 = add i32 %134, 2070534797
  %137 = sub i32 %136, 1
  %138 = sub i32 %137, 2070534797
  %139 = sub i32 %134, 1
  %140 = mul i32 %134, %138
  %141 = urem i32 %140, 2
  %142 = icmp eq i32 %141, 0
  %143 = icmp slt i32 %135, 10
  %144 = and i1 %142, %143
  %145 = xor i1 %142, %143
  %146 = or i1 %144, %145
  %147 = or i1 %142, %143
  br i1 %146, label %148, label %168

; <label>:148:                                    ; preds = %129
  resume { i8*, i32 } %133

; <label>:149:                                    ; preds = %19, %5
  %150 = alloca %"class.std::initializer_list", align 8
  %151 = alloca %"class.std::set.23"*, align 8
  %152 = alloca %"struct.std::less"*, align 8
  %153 = alloca %"class.std::allocator.8"*, align 8
  %154 = alloca %"class.std::allocator.8", align 1
  %155 = alloca i8*
  %156 = alloca i32
  %157 = bitcast %"class.std::initializer_list"* %150 to { i64*, i64 }*
  %158 = getelementptr inbounds { i64*, i64 }, { i64*, i64 }* %157, i32 0, i32 0
  store i64* %1, i64** %158, align 8
  %159 = getelementptr inbounds { i64*, i64 }, { i64*, i64 }* %157, i32 0, i32 1
  store i64 %2, i64* %159, align 8
  store %"class.std::set.23"* %0, %"class.std::set.23"** %151, align 8
  store %"struct.std::less"* %3, %"struct.std::less"** %152, align 8
  store %"class.std::allocator.8"* %4, %"class.std::allocator.8"** %153, align 8
  %160 = load %"class.std::set.23"*, %"class.std::set.23"** %151, align 8
  %161 = getelementptr inbounds %"class.std::set.23", %"class.std::set.23"* %160, i32 0, i32 0
  %162 = load %"struct.std::less"*, %"struct.std::less"** %152, align 8
  %163 = load %"class.std::allocator.8"*, %"class.std::allocator.8"** %153, align 8
  call void @_ZNSaIxEC2ERKS_(%"class.std::allocator.8"* %154, %"class.std::allocator.8"* dereferenceable(1) %163) #3
  br label %19

; <label>:164:                                    ; preds = %80, %66
  %165 = landingpad { i8*, i32 }
          cleanup
  %166 = extractvalue { i8*, i32 } %165, 0
  store i8* %166, i8** %25, align 8
  %167 = extractvalue { i8*, i32 } %165, 1
  store i32 %167, i32* %26, align 4
  call void @_ZNSaIxED2Ev(%"class.std::allocator.8"* %24) #3
  br label %80

; <label>:168:                                    ; preds = %129, %103
  %169 = load i8*, i8** %25, align 8
  %170 = load i32, i32* %26, align 4
  %171 = insertvalue { i8*, i32 } undef, i8* %169, 0
  %172 = insertvalue { i8*, i32 } %171, i32 %170, 1
  br label %129
}

declare i32 @__gxx_personality_v0(...)

; Function Attrs: noinline nounwind uwtable
define linkonce_odr void @_ZNSaIxED2Ev(%"class.std::allocator.8"*) unnamed_addr #4 comdat align 2 {
  %2 = alloca i1
  %3 = alloca i1
  %4 = load i32, i32* @x.121
  %5 = load i32, i32* @y.122
  %6 = sub i32 0, 1
  %7 = add i32 %4, %6
  %8 = sub i32 %4, 1
  %9 = mul i32 %4, %7
  %10 = urem i32 %9, 2
  %11 = icmp eq i32 %10, 0
  store i1 %11, i1* %3
  %12 = icmp slt i32 %5, 10
  store i1 %12, i1* %2
  %13 = alloca i32
  store i32 -677824179, i32* %13
  br label %14

; <label>:14:                                     ; preds = %1, %72
  %15 = load i32, i32* %13
  switch i32 %15, label %16 [
    i32 -677824179, label %17
    i32 788141265, label %37
    i32 414547563, label %67
    i32 -1283494324, label %68
  ]

; <label>:16:                                     ; preds = %14
  br label %72

; <label>:17:                                     ; preds = %14
  %18 = load volatile i1, i1* %3
  %19 = load volatile i1, i1* %2
  %20 = xor i1 %18, true
  %21 = xor i1 %19, true
  %22 = xor i1 true, true
  %23 = and i1 %20, true
  %24 = and i1 %18, %22
  %25 = and i1 %21, true
  %26 = and i1 %19, %22
  %27 = or i1 %23, %24
  %28 = or i1 %25, %26
  %29 = xor i1 %27, %28
  %30 = or i1 %20, %21
  %31 = xor i1 %30, true
  %32 = or i1 true, %22
  %33 = and i1 %31, %32
  %34 = or i1 %29, %33
  %35 = or i1 %18, %19
  %36 = select i1 %34, i32 788141265, i32 -1283494324
  store i32 %36, i32* %13
  br label %72

; <label>:37:                                     ; preds = %14
  %38 = alloca %"class.std::allocator.8"*, align 8
  store %"class.std::allocator.8"* %0, %"class.std::allocator.8"** %38, align 8
  %39 = load %"class.std::allocator.8"*, %"class.std::allocator.8"** %38, align 8
  %40 = bitcast %"class.std::allocator.8"* %39 to %"class.__gnu_cxx::new_allocator.9"*
  call void @_ZN9__gnu_cxx13new_allocatorIxED2Ev(%"class.__gnu_cxx::new_allocator.9"* %40) #3
  %41 = load i32, i32* @x.121
  %42 = load i32, i32* @y.122
  %43 = sub i32 0, 1
  %44 = add i32 %41, %43
  %45 = sub i32 %41, 1
  %46 = mul i32 %41, %44
  %47 = urem i32 %46, 2
  %48 = icmp eq i32 %47, 0
  %49 = icmp slt i32 %42, 10
  %50 = xor i1 %48, true
  %51 = xor i1 %49, true
  %52 = xor i1 true, true
  %53 = and i1 %50, true
  %54 = and i1 %48, %52
  %55 = and i1 %51, true
  %56 = and i1 %49, %52
  %57 = or i1 %53, %54
  %58 = or i1 %55, %56
  %59 = xor i1 %57, %58
  %60 = or i1 %50, %51
  %61 = xor i1 %60, true
  %62 = or i1 true, %52
  %63 = and i1 %61, %62
  %64 = or i1 %59, %63
  %65 = or i1 %48, %49
  %66 = select i1 %64, i32 414547563, i32 -1283494324
  store i32 %66, i32* %13
  br label %72

; <label>:67:                                     ; preds = %14
  ret void

; <label>:68:                                     ; preds = %14
  %69 = alloca %"class.std::allocator.8"*, align 8
  store %"class.std::allocator.8"* %0, %"class.std::allocator.8"** %69, align 8
  %70 = load %"class.std::allocator.8"*, %"class.std::allocator.8"** %69, align 8
  %71 = bitcast %"class.std::allocator.8"* %70 to %"class.__gnu_cxx::new_allocator.9"*
  call void @_ZN9__gnu_cxx13new_allocatorIxED2Ev(%"class.__gnu_cxx::new_allocator.9"* %71) #3
  store i32 788141265, i32* %13
  br label %72

; <label>:72:                                     ; preds = %68, %37, %17, %16
  br label %14
}

; Function Attrs: noinline nounwind uwtable
define linkonce_odr void @_ZNSt3mapIxxSt4lessIxESaISt4pairIKxxEEEC2Ev(%"class.std::map.28"*) unnamed_addr #4 comdat align 2 personality i8* bitcast (i32 (...)* @__gxx_personality_v0 to i8*) {
  %2 = load i32, i32* @x.123
  %3 = load i32, i32* @y.124
  %4 = add i32 %2, -1019114263
  %5 = sub i32 %4, 1
  %6 = sub i32 %5, -1019114263
  %7 = sub i32 %2, 1
  %8 = mul i32 %2, %6
  %9 = urem i32 %8, 2
  %10 = icmp eq i32 %9, 0
  %11 = icmp slt i32 %3, 10
  %12 = xor i1 %10, true
  %13 = xor i1 %11, true
  %14 = xor i1 false, true
  %15 = and i1 %12, false
  %16 = and i1 %10, %14
  %17 = and i1 %13, false
  %18 = and i1 %11, %14
  %19 = or i1 %15, %16
  %20 = or i1 %17, %18
  %21 = xor i1 %19, %20
  %22 = or i1 %12, %13
  %23 = xor i1 %22, true
  %24 = or i1 false, %14
  %25 = and i1 %23, %24
  %26 = or i1 %21, %25
  %27 = or i1 %10, %11
  br i1 %26, label %28, label %63

; <label>:28:                                     ; preds = %1, %63
  %29 = alloca %"class.std::map.28"*, align 8
  store %"class.std::map.28"* %0, %"class.std::map.28"** %29, align 8
  %30 = load %"class.std::map.28"*, %"class.std::map.28"** %29, align 8
  %31 = getelementptr inbounds %"class.std::map.28", %"class.std::map.28"* %30, i32 0, i32 0
  %32 = load i32, i32* @x.123
  %33 = load i32, i32* @y.124
  %34 = sub i32 %32, -1293038642
  %35 = sub i32 %34, 1
  %36 = add i32 %35, -1293038642
  %37 = sub i32 %32, 1
  %38 = mul i32 %32, %36
  %39 = urem i32 %38, 2
  %40 = icmp eq i32 %39, 0
  %41 = icmp slt i32 %33, 10
  %42 = xor i1 %40, true
  %43 = xor i1 %41, true
  %44 = xor i1 false, true
  %45 = and i1 %42, false
  %46 = and i1 %40, %44
  %47 = and i1 %43, false
  %48 = and i1 %41, %44
  %49 = or i1 %45, %46
  %50 = or i1 %47, %48
  %51 = xor i1 %49, %50
  %52 = or i1 %42, %43
  %53 = xor i1 %52, true
  %54 = or i1 false, %44
  %55 = and i1 %53, %54
  %56 = or i1 %51, %55
  %57 = or i1 %40, %41
  br i1 %56, label %58, label %63

; <label>:58:                                     ; preds = %28
  invoke void @_ZNSt8_Rb_treeIxSt4pairIKxxESt10_Select1stIS2_ESt4lessIxESaIS2_EEC2Ev(%"class.std::_Rb_tree.29"* %31)
          to label %59 unwind label %60

; <label>:59:                                     ; preds = %58
  ret void

; <label>:60:                                     ; preds = %58
  %61 = landingpad { i8*, i32 }
          catch i8* null
  %62 = extractvalue { i8*, i32 } %61, 0
  call void @__clang_call_terminate(i8* %62) #12
  unreachable

; <label>:63:                                     ; preds = %28, %1
  %64 = alloca %"class.std::map.28"*, align 8
  store %"class.std::map.28"* %0, %"class.std::map.28"** %64, align 8
  %65 = load %"class.std::map.28"*, %"class.std::map.28"** %64, align 8
  %66 = getelementptr inbounds %"class.std::map.28", %"class.std::map.28"* %65, i32 0, i32 0
  br label %28
}

; Function Attrs: noinline uwtable
define linkonce_odr { %"struct.std::_Rb_tree_node_base"*, i8 } @_ZNSt3setIxSt4lessIxESaIxEE6insertERKx(%"class.std::set.23"*, i64* dereferenceable(8)) #0 comdat align 2 {
  %3 = alloca { %"struct.std::_Rb_tree_node_base"*, i8 }
  %4 = alloca i1
  %5 = alloca i1
  %6 = load i32, i32* @x.125
  %7 = load i32, i32* @y.126
  %8 = sub i32 0, 1
  %9 = add i32 %6, %8
  %10 = sub i32 %6, 1
  %11 = mul i32 %6, %9
  %12 = urem i32 %11, 2
  %13 = icmp eq i32 %12, 0
  store i1 %13, i1* %5
  %14 = icmp slt i32 %7, 10
  store i1 %14, i1* %4
  %15 = alloca i32
  store i32 910212155, i32* %15
  br label %16

; <label>:16:                                     ; preds = %2, %80
  %17 = load i32, i32* %15
  switch i32 %17, label %18 [
    i32 910212155, label %19
    i32 1796577317, label %27
    i32 281462217, label %60
    i32 829956594, label %62
  ]

; <label>:18:                                     ; preds = %16
  br label %80

; <label>:19:                                     ; preds = %16
  %20 = load volatile i1, i1* %5
  %21 = load volatile i1, i1* %4
  %22 = and i1 %20, %21
  %23 = xor i1 %20, %21
  %24 = or i1 %22, %23
  %25 = or i1 %20, %21
  %26 = select i1 %24, i32 1796577317, i32 829956594
  store i32 %26, i32* %15
  br label %80

; <label>:27:                                     ; preds = %16
  %28 = alloca %"struct.std::pair", align 8
  %29 = alloca %"class.std::set.23"*, align 8
  %30 = alloca i64*, align 8
  %31 = alloca %"struct.std::pair.56", align 8
  store %"class.std::set.23"* %0, %"class.std::set.23"** %29, align 8
  store i64* %1, i64** %30, align 8
  %32 = load %"class.std::set.23"*, %"class.std::set.23"** %29, align 8
  %33 = getelementptr inbounds %"class.std::set.23", %"class.std::set.23"* %32, i32 0, i32 0
  %34 = load i64*, i64** %30, align 8
  %35 = call { %"struct.std::_Rb_tree_node_base"*, i8 } @_ZNSt8_Rb_treeIxxSt9_IdentityIxESt4lessIxESaIxEE16_M_insert_uniqueIRKxEESt4pairISt17_Rb_tree_iteratorIxEbEOT_(%"class.std::_Rb_tree.24"* %33, i64* dereferenceable(8) %34)
  %36 = bitcast %"struct.std::pair.56"* %31 to { %"struct.std::_Rb_tree_node_base"*, i8 }*
  %37 = getelementptr inbounds { %"struct.std::_Rb_tree_node_base"*, i8 }, { %"struct.std::_Rb_tree_node_base"*, i8 }* %36, i32 0, i32 0
  %38 = extractvalue { %"struct.std::_Rb_tree_node_base"*, i8 } %35, 0
  store %"struct.std::_Rb_tree_node_base"* %38, %"struct.std::_Rb_tree_node_base"** %37, align 8
  %39 = getelementptr inbounds { %"struct.std::_Rb_tree_node_base"*, i8 }, { %"struct.std::_Rb_tree_node_base"*, i8 }* %36, i32 0, i32 1
  %40 = extractvalue { %"struct.std::_Rb_tree_node_base"*, i8 } %35, 1
  store i8 %40, i8* %39, align 8
  %41 = getelementptr inbounds %"struct.std::pair.56", %"struct.std::pair.56"* %31, i32 0, i32 0
  %42 = getelementptr inbounds %"struct.std::pair.56", %"struct.std::pair.56"* %31, i32 0, i32 1
  call void @_ZNSt4pairISt23_Rb_tree_const_iteratorIxEbEC2IRSt17_Rb_tree_iteratorIxERbvEEOT_OT0_(%"struct.std::pair"* %28, %"struct.std::_Rb_tree_iterator"* dereferenceable(8) %41, i8* dereferenceable(1) %42)
  %43 = bitcast %"struct.std::pair"* %28 to { %"struct.std::_Rb_tree_node_base"*, i8 }*
  %44 = load { %"struct.std::_Rb_tree_node_base"*, i8 }, { %"struct.std::_Rb_tree_node_base"*, i8 }* %43, align 8
  store { %"struct.std::_Rb_tree_node_base"*, i8 } %44, { %"struct.std::_Rb_tree_node_base"*, i8 }* %3
  %45 = load i32, i32* @x.125
  %46 = load i32, i32* @y.126
  %47 = sub i32 %45, 1217450644
  %48 = sub i32 %47, 1
  %49 = add i32 %48, 1217450644
  %50 = sub i32 %45, 1
  %51 = mul i32 %45, %49
  %52 = urem i32 %51, 2
  %53 = icmp eq i32 %52, 0
  %54 = icmp slt i32 %46, 10
  %55 = and i1 %53, %54
  %56 = xor i1 %53, %54
  %57 = or i1 %55, %56
  %58 = or i1 %53, %54
  %59 = select i1 %57, i32 281462217, i32 829956594
  store i32 %59, i32* %15
  br label %80

; <label>:60:                                     ; preds = %16
  %61 = load volatile { %"struct.std::_Rb_tree_node_base"*, i8 }, { %"struct.std::_Rb_tree_node_base"*, i8 }* %3
  ret { %"struct.std::_Rb_tree_node_base"*, i8 } %61

; <label>:62:                                     ; preds = %16
  %63 = alloca %"struct.std::pair", align 8
  %64 = alloca %"class.std::set.23"*, align 8
  %65 = alloca i64*, align 8
  %66 = alloca %"struct.std::pair.56", align 8
  store %"class.std::set.23"* %0, %"class.std::set.23"** %64, align 8
  store i64* %1, i64** %65, align 8
  %67 = load %"class.std::set.23"*, %"class.std::set.23"** %64, align 8
  %68 = getelementptr inbounds %"class.std::set.23", %"class.std::set.23"* %67, i32 0, i32 0
  %69 = load i64*, i64** %65, align 8
  %70 = call { %"struct.std::_Rb_tree_node_base"*, i8 } @_ZNSt8_Rb_treeIxxSt9_IdentityIxESt4lessIxESaIxEE16_M_insert_uniqueIRKxEESt4pairISt17_Rb_tree_iteratorIxEbEOT_(%"class.std::_Rb_tree.24"* %68, i64* dereferenceable(8) %69)
  %71 = bitcast %"struct.std::pair.56"* %66 to { %"struct.std::_Rb_tree_node_base"*, i8 }*
  %72 = getelementptr inbounds { %"struct.std::_Rb_tree_node_base"*, i8 }, { %"struct.std::_Rb_tree_node_base"*, i8 }* %71, i32 0, i32 0
  %73 = extractvalue { %"struct.std::_Rb_tree_node_base"*, i8 } %70, 0
  store %"struct.std::_Rb_tree_node_base"* %73, %"struct.std::_Rb_tree_node_base"** %72, align 8
  %74 = getelementptr inbounds { %"struct.std::_Rb_tree_node_base"*, i8 }, { %"struct.std::_Rb_tree_node_base"*, i8 }* %71, i32 0, i32 1
  %75 = extractvalue { %"struct.std::_Rb_tree_node_base"*, i8 } %70, 1
  store i8 %75, i8* %74, align 8
  %76 = getelementptr inbounds %"struct.std::pair.56", %"struct.std::pair.56"* %66, i32 0, i32 0
  %77 = getelementptr inbounds %"struct.std::pair.56", %"struct.std::pair.56"* %66, i32 0, i32 1
  call void @_ZNSt4pairISt23_Rb_tree_const_iteratorIxEbEC2IRSt17_Rb_tree_iteratorIxERbvEEOT_OT0_(%"struct.std::pair"* %63, %"struct.std::_Rb_tree_iterator"* dereferenceable(8) %76, i8* dereferenceable(1) %77)
  %78 = bitcast %"struct.std::pair"* %63 to { %"struct.std::_Rb_tree_node_base"*, i8 }*
  %79 = load { %"struct.std::_Rb_tree_node_base"*, i8 }, { %"struct.std::_Rb_tree_node_base"*, i8 }* %78, align 8
  store i32 1796577317, i32* %15
  br label %80

; <label>:80:                                     ; preds = %62, %27, %19, %18
  br label %16
}

; Function Attrs: noinline uwtable
define linkonce_odr dereferenceable(8) i64* @_ZNSt3mapIxxSt4lessIxESaISt4pairIKxxEEEixEOx(%"class.std::map.28"*, i64* dereferenceable(8)) #0 comdat align 2 {
  %3 = alloca i1
  %4 = alloca i1
  %5 = alloca %"class.std::map.28"*
  %6 = alloca %"class.std::tuple.60"*
  %7 = alloca %"class.std::tuple"*
  %8 = alloca %"struct.std::_Rb_tree_const_iterator.59"*
  %9 = alloca %"struct.std::_Rb_tree_iterator.58"*
  %10 = alloca %"struct.std::less"*
  %11 = alloca %"struct.std::_Rb_tree_iterator.58"*
  %12 = alloca i64**
  %13 = alloca i1
  %14 = alloca i1
  %15 = load i32, i32* @x.127
  %16 = load i32, i32* @y.128
  %17 = sub i32 %15, 1278858841
  %18 = sub i32 %17, 1
  %19 = add i32 %18, 1278858841
  %20 = sub i32 %15, 1
  %21 = mul i32 %15, %19
  %22 = urem i32 %21, 2
  %23 = icmp eq i32 %22, 0
  store i1 %23, i1* %14
  %24 = icmp slt i32 %16, 10
  store i1 %24, i1* %13
  %25 = alloca i32
  store i32 -2072517704, i32* %25
  %26 = alloca i1
  br label %27

; <label>:27:                                     ; preds = %2, %183
  %28 = load i32, i32* %25
  switch i32 %28, label %29 [
    i32 -2072517704, label %30
    i32 1496249402, label %50
    i32 -1497642839, label %88
    i32 -524704241, label %91
    i32 -1119269327, label %100
    i32 -1416217755, label %117
    i32 -190281216, label %133
    i32 -216032854, label %136
    i32 -1059284569, label %161
    i32 286376123, label %165
    i32 -1517269346, label %182
  ]

; <label>:29:                                     ; preds = %27
  br label %183

; <label>:30:                                     ; preds = %27
  %31 = load volatile i1, i1* %14
  %32 = load volatile i1, i1* %13
  %33 = xor i1 %31, true
  %34 = xor i1 %32, true
  %35 = xor i1 false, true
  %36 = and i1 %33, false
  %37 = and i1 %31, %35
  %38 = and i1 %34, false
  %39 = and i1 %32, %35
  %40 = or i1 %36, %37
  %41 = or i1 %38, %39
  %42 = xor i1 %40, %41
  %43 = or i1 %33, %34
  %44 = xor i1 %43, true
  %45 = or i1 false, %35
  %46 = and i1 %44, %45
  %47 = or i1 %42, %46
  %48 = or i1 %31, %32
  %49 = select i1 %47, i32 1496249402, i32 286376123
  store i32 %49, i32* %25
  br label %183

; <label>:50:                                     ; preds = %27
  %51 = alloca %"class.std::map.28"*, align 8
  %52 = alloca i64*, align 8
  store i64** %52, i64*** %12
  %53 = alloca %"struct.std::_Rb_tree_iterator.58", align 8
  store %"struct.std::_Rb_tree_iterator.58"* %53, %"struct.std::_Rb_tree_iterator.58"** %11
  %54 = alloca %"struct.std::_Rb_tree_iterator.58", align 8
  %55 = alloca %"struct.std::less", align 1
  store %"struct.std::less"* %55, %"struct.std::less"** %10
  %56 = alloca %"struct.std::_Rb_tree_iterator.58", align 8
  store %"struct.std::_Rb_tree_iterator.58"* %56, %"struct.std::_Rb_tree_iterator.58"** %9
  %57 = alloca %"struct.std::_Rb_tree_const_iterator.59", align 8
  store %"struct.std::_Rb_tree_const_iterator.59"* %57, %"struct.std::_Rb_tree_const_iterator.59"** %8
  %58 = alloca %"class.std::tuple", align 8
  store %"class.std::tuple"* %58, %"class.std::tuple"** %7
  %59 = alloca %"class.std::tuple.60", align 1
  store %"class.std::tuple.60"* %59, %"class.std::tuple.60"** %6
  store %"class.std::map.28"* %0, %"class.std::map.28"** %51, align 8
  %60 = load volatile i64**, i64*** %12
  store i64* %1, i64** %60, align 8
  %61 = load %"class.std::map.28"*, %"class.std::map.28"** %51, align 8
  store %"class.std::map.28"* %61, %"class.std::map.28"** %5
  %62 = load volatile i64**, i64*** %12
  %63 = load i64*, i64** %62, align 8
  %64 = load volatile %"class.std::map.28"*, %"class.std::map.28"** %5
  %65 = call %"struct.std::_Rb_tree_node_base"* @_ZNSt3mapIxxSt4lessIxESaISt4pairIKxxEEE11lower_boundERS3_(%"class.std::map.28"* %64, i64* dereferenceable(8) %63)
  %66 = load volatile %"struct.std::_Rb_tree_iterator.58"*, %"struct.std::_Rb_tree_iterator.58"** %11
  %67 = getelementptr inbounds %"struct.std::_Rb_tree_iterator.58", %"struct.std::_Rb_tree_iterator.58"* %66, i32 0, i32 0
  store %"struct.std::_Rb_tree_node_base"* %65, %"struct.std::_Rb_tree_node_base"** %67, align 8
  %68 = load volatile %"class.std::map.28"*, %"class.std::map.28"** %5
  %69 = call %"struct.std::_Rb_tree_node_base"* @_ZNSt3mapIxxSt4lessIxESaISt4pairIKxxEEE3endEv(%"class.std::map.28"* %68) #3
  %70 = getelementptr inbounds %"struct.std::_Rb_tree_iterator.58", %"struct.std::_Rb_tree_iterator.58"* %54, i32 0, i32 0
  store %"struct.std::_Rb_tree_node_base"* %69, %"struct.std::_Rb_tree_node_base"** %70, align 8
  %71 = load volatile %"struct.std::_Rb_tree_iterator.58"*, %"struct.std::_Rb_tree_iterator.58"** %11
  %72 = call zeroext i1 @_ZNKSt17_Rb_tree_iteratorISt4pairIKxxEEeqERKS3_(%"struct.std::_Rb_tree_iterator.58"* %71, %"struct.std::_Rb_tree_iterator.58"* dereferenceable(8) %54) #3
  store i1 %72, i1* %4
  %73 = load i32, i32* @x.127
  %74 = load i32, i32* @y.128
  %75 = add i32 %73, -2022789424
  %76 = sub i32 %75, 1
  %77 = sub i32 %76, -2022789424
  %78 = sub i32 %73, 1
  %79 = mul i32 %73, %77
  %80 = urem i32 %79, 2
  %81 = icmp eq i32 %80, 0
  %82 = icmp slt i32 %74, 10
  %83 = and i1 %81, %82
  %84 = xor i1 %81, %82
  %85 = or i1 %83, %84
  %86 = or i1 %81, %82
  %87 = select i1 %85, i32 -1497642839, i32 286376123
  store i32 %87, i32* %25
  br label %183

; <label>:88:                                     ; preds = %27
  %89 = load volatile i1, i1* %4
  %90 = select i1 %89, i32 -1119269327, i32 -524704241
  store i32 %90, i32* %25
  store i1 true, i1* %26
  br label %183

; <label>:91:                                     ; preds = %27
  %92 = load volatile %"class.std::map.28"*, %"class.std::map.28"** %5
  call void @_ZNKSt3mapIxxSt4lessIxESaISt4pairIKxxEEE8key_compEv(%"class.std::map.28"* %92)
  %93 = load volatile i64**, i64*** %12
  %94 = load i64*, i64** %93, align 8
  %95 = load volatile %"struct.std::_Rb_tree_iterator.58"*, %"struct.std::_Rb_tree_iterator.58"** %11
  %96 = call dereferenceable(16) %"struct.std::pair.49"* @_ZNKSt17_Rb_tree_iteratorISt4pairIKxxEEdeEv(%"struct.std::_Rb_tree_iterator.58"* %95) #3
  %97 = getelementptr inbounds %"struct.std::pair.49", %"struct.std::pair.49"* %96, i32 0, i32 0
  %98 = load volatile %"struct.std::less"*, %"struct.std::less"** %10
  %99 = call zeroext i1 @_ZNKSt4lessIxEclERKxS2_(%"struct.std::less"* %98, i64* dereferenceable(8) %94, i64* dereferenceable(8) %97)
  store i32 -1119269327, i32* %25
  store i1 %99, i1* %26
  br label %183

; <label>:100:                                    ; preds = %27
  %101 = load i1, i1* %26
  store i1 %101, i1* %3
  %102 = load i32, i32* @x.127
  %103 = load i32, i32* @y.128
  %104 = sub i32 %102, 1038366273
  %105 = sub i32 %104, 1
  %106 = add i32 %105, 1038366273
  %107 = sub i32 %102, 1
  %108 = mul i32 %102, %106
  %109 = urem i32 %108, 2
  %110 = icmp eq i32 %109, 0
  %111 = icmp slt i32 %103, 10
  %112 = and i1 %110, %111
  %113 = xor i1 %110, %111
  %114 = or i1 %112, %113
  %115 = or i1 %110, %111
  %116 = select i1 %114, i32 -1416217755, i32 -1517269346
  store i32 %116, i32* %25
  br label %183

; <label>:117:                                    ; preds = %27
  %118 = load i32, i32* @x.127
  %119 = load i32, i32* @y.128
  %120 = add i32 %118, -1676535543
  %121 = sub i32 %120, 1
  %122 = sub i32 %121, -1676535543
  %123 = sub i32 %118, 1
  %124 = mul i32 %118, %122
  %125 = urem i32 %124, 2
  %126 = icmp eq i32 %125, 0
  %127 = icmp slt i32 %119, 10
  %128 = and i1 %126, %127
  %129 = xor i1 %126, %127
  %130 = or i1 %128, %129
  %131 = or i1 %126, %127
  %132 = select i1 %130, i32 -190281216, i32 -1517269346
  store i32 %132, i32* %25
  br label %183

; <label>:133:                                    ; preds = %27
  %134 = load volatile i1, i1* %3
  %135 = select i1 %134, i32 -216032854, i32 -1059284569
  store i32 %135, i32* %25
  br label %183

; <label>:136:                                    ; preds = %27
  %137 = load volatile %"class.std::map.28"*, %"class.std::map.28"** %5
  %138 = getelementptr inbounds %"class.std::map.28", %"class.std::map.28"* %137, i32 0, i32 0
  %139 = load volatile %"struct.std::_Rb_tree_iterator.58"*, %"struct.std::_Rb_tree_iterator.58"** %11
  %140 = load volatile %"struct.std::_Rb_tree_const_iterator.59"*, %"struct.std::_Rb_tree_const_iterator.59"** %8
  call void @_ZNSt23_Rb_tree_const_iteratorISt4pairIKxxEEC2ERKSt17_Rb_tree_iteratorIS2_E(%"struct.std::_Rb_tree_const_iterator.59"* %140, %"struct.std::_Rb_tree_iterator.58"* dereferenceable(8) %139) #3
  %141 = load volatile i64**, i64*** %12
  %142 = load i64*, i64** %141, align 8
  %143 = call dereferenceable(8) i64* @_ZSt4moveIRxEONSt16remove_referenceIT_E4typeEOS2_(i64* dereferenceable(8) %142) #3
  %144 = call i64* @_ZSt16forward_as_tupleIJxEESt5tupleIJDpOT_EES3_(i64* dereferenceable(8) %143) #3
  %145 = load volatile %"class.std::tuple"*, %"class.std::tuple"** %7
  %146 = getelementptr inbounds %"class.std::tuple", %"class.std::tuple"* %145, i32 0, i32 0
  %147 = getelementptr inbounds %"struct.std::_Tuple_impl", %"struct.std::_Tuple_impl"* %146, i32 0, i32 0
  %148 = getelementptr inbounds %"struct.std::_Head_base", %"struct.std::_Head_base"* %147, i32 0, i32 0
  store i64* %144, i64** %148, align 8
  %149 = load volatile %"struct.std::_Rb_tree_const_iterator.59"*, %"struct.std::_Rb_tree_const_iterator.59"** %8
  %150 = getelementptr inbounds %"struct.std::_Rb_tree_const_iterator.59", %"struct.std::_Rb_tree_const_iterator.59"* %149, i32 0, i32 0
  %151 = load %"struct.std::_Rb_tree_node_base"*, %"struct.std::_Rb_tree_node_base"** %150, align 8
  %152 = load volatile %"class.std::tuple"*, %"class.std::tuple"** %7
  %153 = load volatile %"class.std::tuple.60"*, %"class.std::tuple.60"** %6
  %154 = call %"struct.std::_Rb_tree_node_base"* @_ZNSt8_Rb_treeIxSt4pairIKxxESt10_Select1stIS2_ESt4lessIxESaIS2_EE22_M_emplace_hint_uniqueIJRKSt21piecewise_construct_tSt5tupleIJOxEESD_IJEEEEESt17_Rb_tree_iteratorIS2_ESt23_Rb_tree_const_iteratorIS2_EDpOT_(%"class.std::_Rb_tree.29"* %138, %"struct.std::_Rb_tree_node_base"* %151, %"struct.std::piecewise_construct_t"* dereferenceable(1) @_ZStL19piecewise_construct, %"class.std::tuple"* dereferenceable(8) %152, %"class.std::tuple.60"* dereferenceable(1) %153)
  %155 = load volatile %"struct.std::_Rb_tree_iterator.58"*, %"struct.std::_Rb_tree_iterator.58"** %9
  %156 = getelementptr inbounds %"struct.std::_Rb_tree_iterator.58", %"struct.std::_Rb_tree_iterator.58"* %155, i32 0, i32 0
  store %"struct.std::_Rb_tree_node_base"* %154, %"struct.std::_Rb_tree_node_base"** %156, align 8
  %157 = load volatile %"struct.std::_Rb_tree_iterator.58"*, %"struct.std::_Rb_tree_iterator.58"** %11
  %158 = bitcast %"struct.std::_Rb_tree_iterator.58"* %157 to i8*
  %159 = load volatile %"struct.std::_Rb_tree_iterator.58"*, %"struct.std::_Rb_tree_iterator.58"** %9
  %160 = bitcast %"struct.std::_Rb_tree_iterator.58"* %159 to i8*
  call void @llvm.memcpy.p0i8.p0i8.i64(i8* %158, i8* %160, i64 8, i32 8, i1 false)
  store i32 -1059284569, i32* %25
  br label %183

; <label>:161:                                    ; preds = %27
  %162 = load volatile %"struct.std::_Rb_tree_iterator.58"*, %"struct.std::_Rb_tree_iterator.58"** %11
  %163 = call dereferenceable(16) %"struct.std::pair.49"* @_ZNKSt17_Rb_tree_iteratorISt4pairIKxxEEdeEv(%"struct.std::_Rb_tree_iterator.58"* %162) #3
  %164 = getelementptr inbounds %"struct.std::pair.49", %"struct.std::pair.49"* %163, i32 0, i32 1
  ret i64* %164

; <label>:165:                                    ; preds = %27
  %166 = alloca %"class.std::map.28"*, align 8
  %167 = alloca i64*, align 8
  %168 = alloca %"struct.std::_Rb_tree_iterator.58", align 8
  %169 = alloca %"struct.std::_Rb_tree_iterator.58", align 8
  %170 = alloca %"struct.std::less", align 1
  %171 = alloca %"struct.std::_Rb_tree_iterator.58", align 8
  %172 = alloca %"struct.std::_Rb_tree_const_iterator.59", align 8
  %173 = alloca %"class.std::tuple", align 8
  %174 = alloca %"class.std::tuple.60", align 1
  store %"class.std::map.28"* %0, %"class.std::map.28"** %166, align 8
  store i64* %1, i64** %167, align 8
  %175 = load %"class.std::map.28"*, %"class.std::map.28"** %166, align 8
  %176 = load i64*, i64** %167, align 8
  %177 = call %"struct.std::_Rb_tree_node_base"* @_ZNSt3mapIxxSt4lessIxESaISt4pairIKxxEEE11lower_boundERS3_(%"class.std::map.28"* %175, i64* dereferenceable(8) %176)
  %178 = getelementptr inbounds %"struct.std::_Rb_tree_iterator.58", %"struct.std::_Rb_tree_iterator.58"* %168, i32 0, i32 0
  store %"struct.std::_Rb_tree_node_base"* %177, %"struct.std::_Rb_tree_node_base"** %178, align 8
  %179 = call %"struct.std::_Rb_tree_node_base"* @_ZNSt3mapIxxSt4lessIxESaISt4pairIKxxEEE3endEv(%"class.std::map.28"* %175) #3
  %180 = getelementptr inbounds %"struct.std::_Rb_tree_iterator.58", %"struct.std::_Rb_tree_iterator.58"* %169, i32 0, i32 0
  store %"struct.std::_Rb_tree_node_base"* %179, %"struct.std::_Rb_tree_node_base"** %180, align 8
  %181 = call zeroext i1 @_ZNKSt17_Rb_tree_iteratorISt4pairIKxxEEeqERKS3_(%"struct.std::_Rb_tree_iterator.58"* %168, %"struct.std::_Rb_tree_iterator.58"* dereferenceable(8) %169) #3
  store i32 1496249402, i32* %25
  br label %183

; <label>:182:                                    ; preds = %27
  store i32 -1416217755, i32* %25
  br label %183

; <label>:183:                                    ; preds = %182, %165, %136, %133, %117, %100, %91, %88, %50, %30, %29
  br label %27
}

; Function Attrs: noinline uwtable
define linkonce_odr dereferenceable(8) i64* @_ZNSt3mapIxxSt4lessIxESaISt4pairIKxxEEEixERS3_(%"class.std::map.28"*, i64* dereferenceable(8)) #0 comdat align 2 {
  %3 = alloca %"class.std::map.28"*
  %4 = alloca %"class.std::map.28"*, align 8
  %5 = alloca i64*, align 8
  %6 = alloca %"struct.std::_Rb_tree_iterator.58", align 8
  %7 = alloca %"struct.std::_Rb_tree_iterator.58", align 8
  %8 = alloca %"struct.std::less", align 1
  %9 = alloca %"struct.std::_Rb_tree_iterator.58", align 8
  %10 = alloca %"struct.std::_Rb_tree_const_iterator.59", align 8
  %11 = alloca %"class.std::tuple.63", align 8
  %12 = alloca %"class.std::tuple.60", align 1
  store %"class.std::map.28"* %0, %"class.std::map.28"** %4, align 8
  store i64* %1, i64** %5, align 8
  %13 = load %"class.std::map.28"*, %"class.std::map.28"** %4, align 8
  store %"class.std::map.28"* %13, %"class.std::map.28"** %3
  %14 = load i64*, i64** %5, align 8
  %15 = load volatile %"class.std::map.28"*, %"class.std::map.28"** %3
  %16 = call %"struct.std::_Rb_tree_node_base"* @_ZNSt3mapIxxSt4lessIxESaISt4pairIKxxEEE11lower_boundERS3_(%"class.std::map.28"* %15, i64* dereferenceable(8) %14)
  %17 = getelementptr inbounds %"struct.std::_Rb_tree_iterator.58", %"struct.std::_Rb_tree_iterator.58"* %6, i32 0, i32 0
  store %"struct.std::_Rb_tree_node_base"* %16, %"struct.std::_Rb_tree_node_base"** %17, align 8
  %18 = load volatile %"class.std::map.28"*, %"class.std::map.28"** %3
  %19 = call %"struct.std::_Rb_tree_node_base"* @_ZNSt3mapIxxSt4lessIxESaISt4pairIKxxEEE3endEv(%"class.std::map.28"* %18) #3
  %20 = getelementptr inbounds %"struct.std::_Rb_tree_iterator.58", %"struct.std::_Rb_tree_iterator.58"* %7, i32 0, i32 0
  store %"struct.std::_Rb_tree_node_base"* %19, %"struct.std::_Rb_tree_node_base"** %20, align 8
  %21 = alloca i32
  store i32 436441924, i32* %21
  %22 = alloca i1
  br label %23

; <label>:23:                                     ; preds = %2, %116
  %24 = load i32, i32* %21
  switch i32 %24, label %25 [
    i32 436441924, label %26
    i32 1111212774, label %29
    i32 -1139260152, label %35
    i32 -817749581, label %38
    i32 2065526807, label %65
    i32 1655900881, label %102
    i32 -592826732, label %103
    i32 -1586857916, label %106
  ]

; <label>:25:                                     ; preds = %23
  br label %116

; <label>:26:                                     ; preds = %23
  %27 = call zeroext i1 @_ZNKSt17_Rb_tree_iteratorISt4pairIKxxEEeqERKS3_(%"struct.std::_Rb_tree_iterator.58"* %6, %"struct.std::_Rb_tree_iterator.58"* dereferenceable(8) %7) #3
  %28 = select i1 %27, i32 -1139260152, i32 1111212774
  store i32 %28, i32* %21
  store i1 true, i1* %22
  br label %116

; <label>:29:                                     ; preds = %23
  %30 = load volatile %"class.std::map.28"*, %"class.std::map.28"** %3
  call void @_ZNKSt3mapIxxSt4lessIxESaISt4pairIKxxEEE8key_compEv(%"class.std::map.28"* %30)
  %31 = load i64*, i64** %5, align 8
  %32 = call dereferenceable(16) %"struct.std::pair.49"* @_ZNKSt17_Rb_tree_iteratorISt4pairIKxxEEdeEv(%"struct.std::_Rb_tree_iterator.58"* %6) #3
  %33 = getelementptr inbounds %"struct.std::pair.49", %"struct.std::pair.49"* %32, i32 0, i32 0
  %34 = call zeroext i1 @_ZNKSt4lessIxEclERKxS2_(%"struct.std::less"* %8, i64* dereferenceable(8) %31, i64* dereferenceable(8) %33)
  store i32 -1139260152, i32* %21
  store i1 %34, i1* %22
  br label %116

; <label>:35:                                     ; preds = %23
  %36 = load i1, i1* %22
  %37 = select i1 %36, i32 -817749581, i32 -592826732
  store i32 %37, i32* %21
  br label %116

; <label>:38:                                     ; preds = %23
  %39 = load i32, i32* @x.129
  %40 = load i32, i32* @y.130
  %41 = sub i32 0, 1
  %42 = add i32 %39, %41
  %43 = sub i32 %39, 1
  %44 = mul i32 %39, %42
  %45 = urem i32 %44, 2
  %46 = icmp eq i32 %45, 0
  %47 = icmp slt i32 %40, 10
  %48 = xor i1 %46, true
  %49 = xor i1 %47, true
  %50 = xor i1 true, true
  %51 = and i1 %48, true
  %52 = and i1 %46, %50
  %53 = and i1 %49, true
  %54 = and i1 %47, %50
  %55 = or i1 %51, %52
  %56 = or i1 %53, %54
  %57 = xor i1 %55, %56
  %58 = or i1 %48, %49
  %59 = xor i1 %58, true
  %60 = or i1 true, %50
  %61 = and i1 %59, %60
  %62 = or i1 %57, %61
  %63 = or i1 %46, %47
  %64 = select i1 %62, i32 2065526807, i32 -1586857916
  store i32 %64, i32* %21
  br label %116

; <label>:65:                                     ; preds = %23
  %66 = load volatile %"class.std::map.28"*, %"class.std::map.28"** %3
  %67 = getelementptr inbounds %"class.std::map.28", %"class.std::map.28"* %66, i32 0, i32 0
  call void @_ZNSt23_Rb_tree_const_iteratorISt4pairIKxxEEC2ERKSt17_Rb_tree_iteratorIS2_E(%"struct.std::_Rb_tree_const_iterator.59"* %10, %"struct.std::_Rb_tree_iterator.58"* dereferenceable(8) %6) #3
  %68 = load i64*, i64** %5, align 8
  call void @_ZNSt5tupleIJRKxEEC2ES1_(%"class.std::tuple.63"* %11, i64* dereferenceable(8) %68)
  %69 = getelementptr inbounds %"struct.std::_Rb_tree_const_iterator.59", %"struct.std::_Rb_tree_const_iterator.59"* %10, i32 0, i32 0
  %70 = load %"struct.std::_Rb_tree_node_base"*, %"struct.std::_Rb_tree_node_base"** %69, align 8
  %71 = call %"struct.std::_Rb_tree_node_base"* @_ZNSt8_Rb_treeIxSt4pairIKxxESt10_Select1stIS2_ESt4lessIxESaIS2_EE22_M_emplace_hint_uniqueIJRKSt21piecewise_construct_tSt5tupleIJRS1_EESD_IJEEEEESt17_Rb_tree_iteratorIS2_ESt23_Rb_tree_const_iteratorIS2_EDpOT_(%"class.std::_Rb_tree.29"* %67, %"struct.std::_Rb_tree_node_base"* %70, %"struct.std::piecewise_construct_t"* dereferenceable(1) @_ZStL19piecewise_construct, %"class.std::tuple.63"* dereferenceable(8) %11, %"class.std::tuple.60"* dereferenceable(1) %12)
  %72 = getelementptr inbounds %"struct.std::_Rb_tree_iterator.58", %"struct.std::_Rb_tree_iterator.58"* %9, i32 0, i32 0
  store %"struct.std::_Rb_tree_node_base"* %71, %"struct.std::_Rb_tree_node_base"** %72, align 8
  %73 = bitcast %"struct.std::_Rb_tree_iterator.58"* %6 to i8*
  %74 = bitcast %"struct.std::_Rb_tree_iterator.58"* %9 to i8*
  call void @llvm.memcpy.p0i8.p0i8.i64(i8* %73, i8* %74, i64 8, i32 8, i1 false)
  %75 = load i32, i32* @x.129
  %76 = load i32, i32* @y.130
  %77 = sub i32 %75, -1405145819
  %78 = sub i32 %77, 1
  %79 = add i32 %78, -1405145819
  %80 = sub i32 %75, 1
  %81 = mul i32 %75, %79
  %82 = urem i32 %81, 2
  %83 = icmp eq i32 %82, 0
  %84 = icmp slt i32 %76, 10
  %85 = xor i1 %83, true
  %86 = xor i1 %84, true
  %87 = xor i1 true, true
  %88 = and i1 %85, true
  %89 = and i1 %83, %87
  %90 = and i1 %86, true
  %91 = and i1 %84, %87
  %92 = or i1 %88, %89
  %93 = or i1 %90, %91
  %94 = xor i1 %92, %93
  %95 = or i1 %85, %86
  %96 = xor i1 %95, true
  %97 = or i1 true, %87
  %98 = and i1 %96, %97
  %99 = or i1 %94, %98
  %100 = or i1 %83, %84
  %101 = select i1 %99, i32 1655900881, i32 -1586857916
  store i32 %101, i32* %21
  br label %116

; <label>:102:                                    ; preds = %23
  store i32 -592826732, i32* %21
  br label %116

; <label>:103:                                    ; preds = %23
  %104 = call dereferenceable(16) %"struct.std::pair.49"* @_ZNKSt17_Rb_tree_iteratorISt4pairIKxxEEdeEv(%"struct.std::_Rb_tree_iterator.58"* %6) #3
  %105 = getelementptr inbounds %"struct.std::pair.49", %"struct.std::pair.49"* %104, i32 0, i32 1
  ret i64* %105

; <label>:106:                                    ; preds = %23
  %107 = load volatile %"class.std::map.28"*, %"class.std::map.28"** %3
  %108 = getelementptr inbounds %"class.std::map.28", %"class.std::map.28"* %107, i32 0, i32 0
  call void @_ZNSt23_Rb_tree_const_iteratorISt4pairIKxxEEC2ERKSt17_Rb_tree_iteratorIS2_E(%"struct.std::_Rb_tree_const_iterator.59"* %10, %"struct.std::_Rb_tree_iterator.58"* dereferenceable(8) %6) #3
  %109 = load i64*, i64** %5, align 8
  call void @_ZNSt5tupleIJRKxEEC2ES1_(%"class.std::tuple.63"* %11, i64* dereferenceable(8) %109)
  %110 = getelementptr inbounds %"struct.std::_Rb_tree_const_iterator.59", %"struct.std::_Rb_tree_const_iterator.59"* %10, i32 0, i32 0
  %111 = load %"struct.std::_Rb_tree_node_base"*, %"struct.std::_Rb_tree_node_base"** %110, align 8
  %112 = call %"struct.std::_Rb_tree_node_base"* @_ZNSt8_Rb_treeIxSt4pairIKxxESt10_Select1stIS2_ESt4lessIxESaIS2_EE22_M_emplace_hint_uniqueIJRKSt21piecewise_construct_tSt5tupleIJRS1_EESD_IJEEEEESt17_Rb_tree_iteratorIS2_ESt23_Rb_tree_const_iteratorIS2_EDpOT_(%"class.std::_Rb_tree.29"* %108, %"struct.std::_Rb_tree_node_base"* %111, %"struct.std::piecewise_construct_t"* dereferenceable(1) @_ZStL19piecewise_construct, %"class.std::tuple.63"* dereferenceable(8) %11, %"class.std::tuple.60"* dereferenceable(1) %12)
  %113 = getelementptr inbounds %"struct.std::_Rb_tree_iterator.58", %"struct.std::_Rb_tree_iterator.58"* %9, i32 0, i32 0
  store %"struct.std::_Rb_tree_node_base"* %112, %"struct.std::_Rb_tree_node_base"** %113, align 8
  %114 = bitcast %"struct.std::_Rb_tree_iterator.58"* %6 to i8*
  %115 = bitcast %"struct.std::_Rb_tree_iterator.58"* %9 to i8*
  call void @llvm.memcpy.p0i8.p0i8.i64(i8* %114, i8* %115, i64 8, i32 8, i1 false)
  store i32 2065526807, i32* %21
  br label %116

; <label>:116:                                    ; preds = %106, %102, %65, %38, %35, %29, %26, %25
  br label %23
}

; Function Attrs: noinline uwtable
define linkonce_odr dereferenceable(48) %"class.std::set.23"* @_ZNSt3mapIxSt3setIxSt4lessIxESaIxEES2_SaISt4pairIKxS4_EEEixERS6_(%"class.std::map"*, i64* dereferenceable(8)) #0 comdat align 2 {
  %3 = alloca i1
  %4 = alloca %"class.std::map"*
  %5 = alloca %"class.std::tuple.60"*
  %6 = alloca %"class.std::tuple.63"*
  %7 = alloca %"struct.std::_Rb_tree_const_iterator.67"*
  %8 = alloca %"struct.std::_Rb_tree_iterator.66"*
  %9 = alloca %"struct.std::less"*
  %10 = alloca %"struct.std::_Rb_tree_iterator.66"*
  %11 = alloca i64**
  %12 = alloca i1
  %13 = alloca i1
  %14 = load i32, i32* @x.131
  %15 = load i32, i32* @y.132
  %16 = sub i32 0, 1
  %17 = add i32 %14, %16
  %18 = sub i32 %14, 1
  %19 = mul i32 %14, %17
  %20 = urem i32 %19, 2
  %21 = icmp eq i32 %20, 0
  store i1 %21, i1* %13
  %22 = icmp slt i32 %15, 10
  store i1 %22, i1* %12
  %23 = alloca i32
  store i32 1467130583, i32* %23
  %24 = alloca i1
  br label %25

; <label>:25:                                     ; preds = %2, %141
  %26 = load i32, i32* %23
  switch i32 %26, label %27 [
    i32 1467130583, label %28
    i32 -1178568946, label %36
    i32 -1400229900, label %85
    i32 475698161, label %88
    i32 -1547019730, label %97
    i32 -1568671096, label %100
    i32 -999298472, label %120
    i32 1821629502, label %124
  ]

; <label>:27:                                     ; preds = %25
  br label %141

; <label>:28:                                     ; preds = %25
  %29 = load volatile i1, i1* %13
  %30 = load volatile i1, i1* %12
  %31 = and i1 %29, %30
  %32 = xor i1 %29, %30
  %33 = or i1 %31, %32
  %34 = or i1 %29, %30
  %35 = select i1 %33, i32 -1178568946, i32 1821629502
  store i32 %35, i32* %23
  br label %141

; <label>:36:                                     ; preds = %25
  %37 = alloca %"class.std::map"*, align 8
  %38 = alloca i64*, align 8
  store i64** %38, i64*** %11
  %39 = alloca %"struct.std::_Rb_tree_iterator.66", align 8
  store %"struct.std::_Rb_tree_iterator.66"* %39, %"struct.std::_Rb_tree_iterator.66"** %10
  %40 = alloca %"struct.std::_Rb_tree_iterator.66", align 8
  %41 = alloca %"struct.std::less", align 1
  store %"struct.std::less"* %41, %"struct.std::less"** %9
  %42 = alloca %"struct.std::_Rb_tree_iterator.66", align 8
  store %"struct.std::_Rb_tree_iterator.66"* %42, %"struct.std::_Rb_tree_iterator.66"** %8
  %43 = alloca %"struct.std::_Rb_tree_const_iterator.67", align 8
  store %"struct.std::_Rb_tree_const_iterator.67"* %43, %"struct.std::_Rb_tree_const_iterator.67"** %7
  %44 = alloca %"class.std::tuple.63", align 8
  store %"class.std::tuple.63"* %44, %"class.std::tuple.63"** %6
  %45 = alloca %"class.std::tuple.60", align 1
  store %"class.std::tuple.60"* %45, %"class.std::tuple.60"** %5
  store %"class.std::map"* %0, %"class.std::map"** %37, align 8
  %46 = load volatile i64**, i64*** %11
  store i64* %1, i64** %46, align 8
  %47 = load %"class.std::map"*, %"class.std::map"** %37, align 8
  store %"class.std::map"* %47, %"class.std::map"** %4
  %48 = load volatile i64**, i64*** %11
  %49 = load i64*, i64** %48, align 8
  %50 = load volatile %"class.std::map"*, %"class.std::map"** %4
  %51 = call %"struct.std::_Rb_tree_node_base"* @_ZNSt3mapIxSt3setIxSt4lessIxESaIxEES2_SaISt4pairIKxS4_EEE11lower_boundERS6_(%"class.std::map"* %50, i64* dereferenceable(8) %49)
  %52 = load volatile %"struct.std::_Rb_tree_iterator.66"*, %"struct.std::_Rb_tree_iterator.66"** %10
  %53 = getelementptr inbounds %"struct.std::_Rb_tree_iterator.66", %"struct.std::_Rb_tree_iterator.66"* %52, i32 0, i32 0
  store %"struct.std::_Rb_tree_node_base"* %51, %"struct.std::_Rb_tree_node_base"** %53, align 8
  %54 = load volatile %"class.std::map"*, %"class.std::map"** %4
  %55 = call %"struct.std::_Rb_tree_node_base"* @_ZNSt3mapIxSt3setIxSt4lessIxESaIxEES2_SaISt4pairIKxS4_EEE3endEv(%"class.std::map"* %54) #3
  %56 = getelementptr inbounds %"struct.std::_Rb_tree_iterator.66", %"struct.std::_Rb_tree_iterator.66"* %40, i32 0, i32 0
  store %"struct.std::_Rb_tree_node_base"* %55, %"struct.std::_Rb_tree_node_base"** %56, align 8
  %57 = load volatile %"struct.std::_Rb_tree_iterator.66"*, %"struct.std::_Rb_tree_iterator.66"** %10
  %58 = call zeroext i1 @_ZNKSt17_Rb_tree_iteratorISt4pairIKxSt3setIxSt4lessIxESaIxEEEEeqERKS8_(%"struct.std::_Rb_tree_iterator.66"* %57, %"struct.std::_Rb_tree_iterator.66"* dereferenceable(8) %40) #3
  store i1 %58, i1* %3
  %59 = load i32, i32* @x.131
  %60 = load i32, i32* @y.132
  %61 = sub i32 0, 1
  %62 = add i32 %59, %61
  %63 = sub i32 %59, 1
  %64 = mul i32 %59, %62
  %65 = urem i32 %64, 2
  %66 = icmp eq i32 %65, 0
  %67 = icmp slt i32 %60, 10
  %68 = xor i1 %66, true
  %69 = xor i1 %67, true
  %70 = xor i1 true, true
  %71 = and i1 %68, true
  %72 = and i1 %66, %70
  %73 = and i1 %69, true
  %74 = and i1 %67, %70
  %75 = or i1 %71, %72
  %76 = or i1 %73, %74
  %77 = xor i1 %75, %76
  %78 = or i1 %68, %69
  %79 = xor i1 %78, true
  %80 = or i1 true, %70
  %81 = and i1 %79, %80
  %82 = or i1 %77, %81
  %83 = or i1 %66, %67
  %84 = select i1 %82, i32 -1400229900, i32 1821629502
  store i32 %84, i32* %23
  br label %141

; <label>:85:                                     ; preds = %25
  %86 = load volatile i1, i1* %3
  %87 = select i1 %86, i32 -1547019730, i32 475698161
  store i32 %87, i32* %23
  store i1 true, i1* %24
  br label %141

; <label>:88:                                     ; preds = %25
  %89 = load volatile %"class.std::map"*, %"class.std::map"** %4
  call void @_ZNKSt3mapIxSt3setIxSt4lessIxESaIxEES2_SaISt4pairIKxS4_EEE8key_compEv(%"class.std::map"* %89)
  %90 = load volatile i64**, i64*** %11
  %91 = load i64*, i64** %90, align 8
  %92 = load volatile %"struct.std::_Rb_tree_iterator.66"*, %"struct.std::_Rb_tree_iterator.66"** %10
  %93 = call dereferenceable(56) %"struct.std::pair.43"* @_ZNKSt17_Rb_tree_iteratorISt4pairIKxSt3setIxSt4lessIxESaIxEEEEdeEv(%"struct.std::_Rb_tree_iterator.66"* %92) #3
  %94 = getelementptr inbounds %"struct.std::pair.43", %"struct.std::pair.43"* %93, i32 0, i32 0
  %95 = load volatile %"struct.std::less"*, %"struct.std::less"** %9
  %96 = call zeroext i1 @_ZNKSt4lessIxEclERKxS2_(%"struct.std::less"* %95, i64* dereferenceable(8) %91, i64* dereferenceable(8) %94)
  store i32 -1547019730, i32* %23
  store i1 %96, i1* %24
  br label %141

; <label>:97:                                     ; preds = %25
  %98 = load i1, i1* %24
  %99 = select i1 %98, i32 -1568671096, i32 -999298472
  store i32 %99, i32* %23
  br label %141

; <label>:100:                                    ; preds = %25
  %101 = load volatile %"class.std::map"*, %"class.std::map"** %4
  %102 = getelementptr inbounds %"class.std::map", %"class.std::map"* %101, i32 0, i32 0
  %103 = load volatile %"struct.std::_Rb_tree_iterator.66"*, %"struct.std::_Rb_tree_iterator.66"** %10
  %104 = load volatile %"struct.std::_Rb_tree_const_iterator.67"*, %"struct.std::_Rb_tree_const_iterator.67"** %7
  call void @_ZNSt23_Rb_tree_const_iteratorISt4pairIKxSt3setIxSt4lessIxESaIxEEEEC2ERKSt17_Rb_tree_iteratorIS7_E(%"struct.std::_Rb_tree_const_iterator.67"* %104, %"struct.std::_Rb_tree_iterator.66"* dereferenceable(8) %103) #3
  %105 = load volatile i64**, i64*** %11
  %106 = load i64*, i64** %105, align 8
  %107 = load volatile %"class.std::tuple.63"*, %"class.std::tuple.63"** %6
  call void @_ZNSt5tupleIJRKxEEC2ES1_(%"class.std::tuple.63"* %107, i64* dereferenceable(8) %106)
  %108 = load volatile %"struct.std::_Rb_tree_const_iterator.67"*, %"struct.std::_Rb_tree_const_iterator.67"** %7
  %109 = getelementptr inbounds %"struct.std::_Rb_tree_const_iterator.67", %"struct.std::_Rb_tree_const_iterator.67"* %108, i32 0, i32 0
  %110 = load %"struct.std::_Rb_tree_node_base"*, %"struct.std::_Rb_tree_node_base"** %109, align 8
  %111 = load volatile %"class.std::tuple.63"*, %"class.std::tuple.63"** %6
  %112 = load volatile %"class.std::tuple.60"*, %"class.std::tuple.60"** %5
  %113 = call %"struct.std::_Rb_tree_node_base"* @_ZNSt8_Rb_treeIxSt4pairIKxSt3setIxSt4lessIxESaIxEEESt10_Select1stIS7_ES4_SaIS7_EE22_M_emplace_hint_uniqueIJRKSt21piecewise_construct_tSt5tupleIJRS1_EESG_IJEEEEESt17_Rb_tree_iteratorIS7_ESt23_Rb_tree_const_iteratorIS7_EDpOT_(%"class.std::_Rb_tree"* %102, %"struct.std::_Rb_tree_node_base"* %110, %"struct.std::piecewise_construct_t"* dereferenceable(1) @_ZStL19piecewise_construct, %"class.std::tuple.63"* dereferenceable(8) %111, %"class.std::tuple.60"* dereferenceable(1) %112)
  %114 = load volatile %"struct.std::_Rb_tree_iterator.66"*, %"struct.std::_Rb_tree_iterator.66"** %8
  %115 = getelementptr inbounds %"struct.std::_Rb_tree_iterator.66", %"struct.std::_Rb_tree_iterator.66"* %114, i32 0, i32 0
  store %"struct.std::_Rb_tree_node_base"* %113, %"struct.std::_Rb_tree_node_base"** %115, align 8
  %116 = load volatile %"struct.std::_Rb_tree_iterator.66"*, %"struct.std::_Rb_tree_iterator.66"** %10
  %117 = bitcast %"struct.std::_Rb_tree_iterator.66"* %116 to i8*
  %118 = load volatile %"struct.std::_Rb_tree_iterator.66"*, %"struct.std::_Rb_tree_iterator.66"** %8
  %119 = bitcast %"struct.std::_Rb_tree_iterator.66"* %118 to i8*
  call void @llvm.memcpy.p0i8.p0i8.i64(i8* %117, i8* %119, i64 8, i32 8, i1 false)
  store i32 -999298472, i32* %23
  br label %141

; <label>:120:                                    ; preds = %25
  %121 = load volatile %"struct.std::_Rb_tree_iterator.66"*, %"struct.std::_Rb_tree_iterator.66"** %10
  %122 = call dereferenceable(56) %"struct.std::pair.43"* @_ZNKSt17_Rb_tree_iteratorISt4pairIKxSt3setIxSt4lessIxESaIxEEEEdeEv(%"struct.std::_Rb_tree_iterator.66"* %121) #3
  %123 = getelementptr inbounds %"struct.std::pair.43", %"struct.std::pair.43"* %122, i32 0, i32 1
  ret %"class.std::set.23"* %123

; <label>:124:                                    ; preds = %25
  %125 = alloca %"class.std::map"*, align 8
  %126 = alloca i64*, align 8
  %127 = alloca %"struct.std::_Rb_tree_iterator.66", align 8
  %128 = alloca %"struct.std::_Rb_tree_iterator.66", align 8
  %129 = alloca %"struct.std::less", align 1
  %130 = alloca %"struct.std::_Rb_tree_iterator.66", align 8
  %131 = alloca %"struct.std::_Rb_tree_const_iterator.67", align 8
  %132 = alloca %"class.std::tuple.63", align 8
  %133 = alloca %"class.std::tuple.60", align 1
  store %"class.std::map"* %0, %"class.std::map"** %125, align 8
  store i64* %1, i64** %126, align 8
  %134 = load %"class.std::map"*, %"class.std::map"** %125, align 8
  %135 = load i64*, i64** %126, align 8
  %136 = call %"struct.std::_Rb_tree_node_base"* @_ZNSt3mapIxSt3setIxSt4lessIxESaIxEES2_SaISt4pairIKxS4_EEE11lower_boundERS6_(%"class.std::map"* %134, i64* dereferenceable(8) %135)
  %137 = getelementptr inbounds %"struct.std::_Rb_tree_iterator.66", %"struct.std::_Rb_tree_iterator.66"* %127, i32 0, i32 0
  store %"struct.std::_Rb_tree_node_base"* %136, %"struct.std::_Rb_tree_node_base"** %137, align 8
  %138 = call %"struct.std::_Rb_tree_node_base"* @_ZNSt3mapIxSt3setIxSt4lessIxESaIxEES2_SaISt4pairIKxS4_EEE3endEv(%"class.std::map"* %134) #3
  %139 = getelementptr inbounds %"struct.std::_Rb_tree_iterator.66", %"struct.std::_Rb_tree_iterator.66"* %128, i32 0, i32 0
  store %"struct.std::_Rb_tree_node_base"* %138, %"struct.std::_Rb_tree_node_base"** %139, align 8
  %140 = call zeroext i1 @_ZNKSt17_Rb_tree_iteratorISt4pairIKxSt3setIxSt4lessIxESaIxEEEEeqERKS8_(%"struct.std::_Rb_tree_iterator.66"* %127, %"struct.std::_Rb_tree_iterator.66"* dereferenceable(8) %128) #3
  store i32 -1178568946, i32* %23
  br label %141

; <label>:141:                                    ; preds = %124, %100, %97, %88, %85, %36, %28, %27
  br label %25
}

; Function Attrs: noinline uwtable
define linkonce_odr dereferenceable(48) %"class.std::set.23"* @_ZNSt3setIxSt4lessIxESaIxEEaSERKS3_(%"class.std::set.23"*, %"class.std::set.23"* dereferenceable(48)) #0 comdat align 2 {
  %3 = alloca %"class.std::set.23"*, align 8
  %4 = alloca %"class.std::set.23"*, align 8
  store %"class.std::set.23"* %0, %"class.std::set.23"** %3, align 8
  store %"class.std::set.23"* %1, %"class.std::set.23"** %4, align 8
  %5 = load %"class.std::set.23"*, %"class.std::set.23"** %3, align 8
  %6 = load %"class.std::set.23"*, %"class.std::set.23"** %4, align 8
  %7 = getelementptr inbounds %"class.std::set.23", %"class.std::set.23"* %6, i32 0, i32 0
  %8 = getelementptr inbounds %"class.std::set.23", %"class.std::set.23"* %5, i32 0, i32 0
  %9 = call dereferenceable(48) %"class.std::_Rb_tree.24"* @_ZNSt8_Rb_treeIxxSt9_IdentityIxESt4lessIxESaIxEEaSERKS5_(%"class.std::_Rb_tree.24"* %8, %"class.std::_Rb_tree.24"* dereferenceable(48) %7)
  ret %"class.std::set.23"* %5
}

; Function Attrs: noinline uwtable
define linkonce_odr dereferenceable(48) %"class.std::map.28"* @_ZNSt3mapIxS_IxxSt4lessIxESaISt4pairIKxxEEES1_SaIS2_IS3_S6_EEEixERS3_(%"class.std::map.18"*, i64* dereferenceable(8)) #0 comdat align 2 {
  %3 = alloca i1
  %4 = alloca %"class.std::map.18"*
  %5 = alloca %"class.std::tuple.60"*
  %6 = alloca %"class.std::tuple.63"*
  %7 = alloca %"struct.std::_Rb_tree_const_iterator.71"*
  %8 = alloca %"struct.std::_Rb_tree_iterator.70"*
  %9 = alloca %"struct.std::less"*
  %10 = alloca %"struct.std::_Rb_tree_iterator.70"*
  %11 = alloca i64**
  %12 = alloca i1
  %13 = alloca i1
  %14 = load i32, i32* @x.135
  %15 = load i32, i32* @y.136
  %16 = add i32 %14, 463510822
  %17 = sub i32 %16, 1
  %18 = sub i32 %17, 463510822
  %19 = sub i32 %14, 1
  %20 = mul i32 %14, %18
  %21 = urem i32 %20, 2
  %22 = icmp eq i32 %21, 0
  store i1 %22, i1* %13
  %23 = icmp slt i32 %15, 10
  store i1 %23, i1* %12
  %24 = alloca i32
  store i32 1909897273, i32* %24
  %25 = alloca i1
  br label %26

; <label>:26:                                     ; preds = %2, %142
  %27 = load i32, i32* %24
  switch i32 %27, label %28 [
    i32 1909897273, label %29
    i32 -284408642, label %37
    i32 105615398, label %86
    i32 265168321, label %89
    i32 1189930662, label %98
    i32 793721517, label %101
    i32 77431366, label %121
    i32 -866664610, label %125
  ]

; <label>:28:                                     ; preds = %26
  br label %142

; <label>:29:                                     ; preds = %26
  %30 = load volatile i1, i1* %13
  %31 = load volatile i1, i1* %12
  %32 = and i1 %30, %31
  %33 = xor i1 %30, %31
  %34 = or i1 %32, %33
  %35 = or i1 %30, %31
  %36 = select i1 %34, i32 -284408642, i32 -866664610
  store i32 %36, i32* %24
  br label %142

; <label>:37:                                     ; preds = %26
  %38 = alloca %"class.std::map.18"*, align 8
  %39 = alloca i64*, align 8
  store i64** %39, i64*** %11
  %40 = alloca %"struct.std::_Rb_tree_iterator.70", align 8
  store %"struct.std::_Rb_tree_iterator.70"* %40, %"struct.std::_Rb_tree_iterator.70"** %10
  %41 = alloca %"struct.std::_Rb_tree_iterator.70", align 8
  %42 = alloca %"struct.std::less", align 1
  store %"struct.std::less"* %42, %"struct.std::less"** %9
  %43 = alloca %"struct.std::_Rb_tree_iterator.70", align 8
  store %"struct.std::_Rb_tree_iterator.70"* %43, %"struct.std::_Rb_tree_iterator.70"** %8
  %44 = alloca %"struct.std::_Rb_tree_const_iterator.71", align 8
  store %"struct.std::_Rb_tree_const_iterator.71"* %44, %"struct.std::_Rb_tree_const_iterator.71"** %7
  %45 = alloca %"class.std::tuple.63", align 8
  store %"class.std::tuple.63"* %45, %"class.std::tuple.63"** %6
  %46 = alloca %"class.std::tuple.60", align 1
  store %"class.std::tuple.60"* %46, %"class.std::tuple.60"** %5
  store %"class.std::map.18"* %0, %"class.std::map.18"** %38, align 8
  %47 = load volatile i64**, i64*** %11
  store i64* %1, i64** %47, align 8
  %48 = load %"class.std::map.18"*, %"class.std::map.18"** %38, align 8
  store %"class.std::map.18"* %48, %"class.std::map.18"** %4
  %49 = load volatile i64**, i64*** %11
  %50 = load i64*, i64** %49, align 8
  %51 = load volatile %"class.std::map.18"*, %"class.std::map.18"** %4
  %52 = call %"struct.std::_Rb_tree_node_base"* @_ZNSt3mapIxS_IxxSt4lessIxESaISt4pairIKxxEEES1_SaIS2_IS3_S6_EEE11lower_boundERS3_(%"class.std::map.18"* %51, i64* dereferenceable(8) %50)
  %53 = load volatile %"struct.std::_Rb_tree_iterator.70"*, %"struct.std::_Rb_tree_iterator.70"** %10
  %54 = getelementptr inbounds %"struct.std::_Rb_tree_iterator.70", %"struct.std::_Rb_tree_iterator.70"* %53, i32 0, i32 0
  store %"struct.std::_Rb_tree_node_base"* %52, %"struct.std::_Rb_tree_node_base"** %54, align 8
  %55 = load volatile %"class.std::map.18"*, %"class.std::map.18"** %4
  %56 = call %"struct.std::_Rb_tree_node_base"* @_ZNSt3mapIxS_IxxSt4lessIxESaISt4pairIKxxEEES1_SaIS2_IS3_S6_EEE3endEv(%"class.std::map.18"* %55) #3
  %57 = getelementptr inbounds %"struct.std::_Rb_tree_iterator.70", %"struct.std::_Rb_tree_iterator.70"* %41, i32 0, i32 0
  store %"struct.std::_Rb_tree_node_base"* %56, %"struct.std::_Rb_tree_node_base"** %57, align 8
  %58 = load volatile %"struct.std::_Rb_tree_iterator.70"*, %"struct.std::_Rb_tree_iterator.70"** %10
  %59 = call zeroext i1 @_ZNKSt17_Rb_tree_iteratorISt4pairIKxSt3mapIxxSt4lessIxESaIS0_IS1_xEEEEEeqERKS9_(%"struct.std::_Rb_tree_iterator.70"* %58, %"struct.std::_Rb_tree_iterator.70"* dereferenceable(8) %41) #3
  store i1 %59, i1* %3
  %60 = load i32, i32* @x.135
  %61 = load i32, i32* @y.136
  %62 = sub i32 0, 1
  %63 = add i32 %60, %62
  %64 = sub i32 %60, 1
  %65 = mul i32 %60, %63
  %66 = urem i32 %65, 2
  %67 = icmp eq i32 %66, 0
  %68 = icmp slt i32 %61, 10
  %69 = xor i1 %67, true
  %70 = xor i1 %68, true
  %71 = xor i1 false, true
  %72 = and i1 %69, false
  %73 = and i1 %67, %71
  %74 = and i1 %70, false
  %75 = and i1 %68, %71
  %76 = or i1 %72, %73
  %77 = or i1 %74, %75
  %78 = xor i1 %76, %77
  %79 = or i1 %69, %70
  %80 = xor i1 %79, true
  %81 = or i1 false, %71
  %82 = and i1 %80, %81
  %83 = or i1 %78, %82
  %84 = or i1 %67, %68
  %85 = select i1 %83, i32 105615398, i32 -866664610
  store i32 %85, i32* %24
  br label %142

; <label>:86:                                     ; preds = %26
  %87 = load volatile i1, i1* %3
  %88 = select i1 %87, i32 1189930662, i32 265168321
  store i32 %88, i32* %24
  store i1 true, i1* %25
  br label %142

; <label>:89:                                     ; preds = %26
  %90 = load volatile %"class.std::map.18"*, %"class.std::map.18"** %4
  call void @_ZNKSt3mapIxS_IxxSt4lessIxESaISt4pairIKxxEEES1_SaIS2_IS3_S6_EEE8key_compEv(%"class.std::map.18"* %90)
  %91 = load volatile i64**, i64*** %11
  %92 = load i64*, i64** %91, align 8
  %93 = load volatile %"struct.std::_Rb_tree_iterator.70"*, %"struct.std::_Rb_tree_iterator.70"** %10
  %94 = call dereferenceable(56) %"struct.std::pair.46"* @_ZNKSt17_Rb_tree_iteratorISt4pairIKxSt3mapIxxSt4lessIxESaIS0_IS1_xEEEEEdeEv(%"struct.std::_Rb_tree_iterator.70"* %93) #3
  %95 = getelementptr inbounds %"struct.std::pair.46", %"struct.std::pair.46"* %94, i32 0, i32 0
  %96 = load volatile %"struct.std::less"*, %"struct.std::less"** %9
  %97 = call zeroext i1 @_ZNKSt4lessIxEclERKxS2_(%"struct.std::less"* %96, i64* dereferenceable(8) %92, i64* dereferenceable(8) %95)
  store i32 1189930662, i32* %24
  store i1 %97, i1* %25
  br label %142

; <label>:98:                                     ; preds = %26
  %99 = load i1, i1* %25
  %100 = select i1 %99, i32 793721517, i32 77431366
  store i32 %100, i32* %24
  br label %142

; <label>:101:                                    ; preds = %26
  %102 = load volatile %"class.std::map.18"*, %"class.std::map.18"** %4
  %103 = getelementptr inbounds %"class.std::map.18", %"class.std::map.18"* %102, i32 0, i32 0
  %104 = load volatile %"struct.std::_Rb_tree_iterator.70"*, %"struct.std::_Rb_tree_iterator.70"** %10
  %105 = load volatile %"struct.std::_Rb_tree_const_iterator.71"*, %"struct.std::_Rb_tree_const_iterator.71"** %7
  call void @_ZNSt23_Rb_tree_const_iteratorISt4pairIKxSt3mapIxxSt4lessIxESaIS0_IS1_xEEEEEC2ERKSt17_Rb_tree_iteratorIS8_E(%"struct.std::_Rb_tree_const_iterator.71"* %105, %"struct.std::_Rb_tree_iterator.70"* dereferenceable(8) %104) #3
  %106 = load volatile i64**, i64*** %11
  %107 = load i64*, i64** %106, align 8
  %108 = load volatile %"class.std::tuple.63"*, %"class.std::tuple.63"** %6
  call void @_ZNSt5tupleIJRKxEEC2ES1_(%"class.std::tuple.63"* %108, i64* dereferenceable(8) %107)
  %109 = load volatile %"struct.std::_Rb_tree_const_iterator.71"*, %"struct.std::_Rb_tree_const_iterator.71"** %7
  %110 = getelementptr inbounds %"struct.std::_Rb_tree_const_iterator.71", %"struct.std::_Rb_tree_const_iterator.71"* %109, i32 0, i32 0
  %111 = load %"struct.std::_Rb_tree_node_base"*, %"struct.std::_Rb_tree_node_base"** %110, align 8
  %112 = load volatile %"class.std::tuple.63"*, %"class.std::tuple.63"** %6
  %113 = load volatile %"class.std::tuple.60"*, %"class.std::tuple.60"** %5
  %114 = call %"struct.std::_Rb_tree_node_base"* @_ZNSt8_Rb_treeIxSt4pairIKxSt3mapIxxSt4lessIxESaIS0_IS1_xEEEESt10_Select1stIS8_ES4_SaIS8_EE22_M_emplace_hint_uniqueIJRKSt21piecewise_construct_tSt5tupleIJRS1_EESH_IJEEEEESt17_Rb_tree_iteratorIS8_ESt23_Rb_tree_const_iteratorIS8_EDpOT_(%"class.std::_Rb_tree.19"* %103, %"struct.std::_Rb_tree_node_base"* %111, %"struct.std::piecewise_construct_t"* dereferenceable(1) @_ZStL19piecewise_construct, %"class.std::tuple.63"* dereferenceable(8) %112, %"class.std::tuple.60"* dereferenceable(1) %113)
  %115 = load volatile %"struct.std::_Rb_tree_iterator.70"*, %"struct.std::_Rb_tree_iterator.70"** %8
  %116 = getelementptr inbounds %"struct.std::_Rb_tree_iterator.70", %"struct.std::_Rb_tree_iterator.70"* %115, i32 0, i32 0
  store %"struct.std::_Rb_tree_node_base"* %114, %"struct.std::_Rb_tree_node_base"** %116, align 8
  %117 = load volatile %"struct.std::_Rb_tree_iterator.70"*, %"struct.std::_Rb_tree_iterator.70"** %10
  %118 = bitcast %"struct.std::_Rb_tree_iterator.70"* %117 to i8*
  %119 = load volatile %"struct.std::_Rb_tree_iterator.70"*, %"struct.std::_Rb_tree_iterator.70"** %8
  %120 = bitcast %"struct.std::_Rb_tree_iterator.70"* %119 to i8*
  call void @llvm.memcpy.p0i8.p0i8.i64(i8* %118, i8* %120, i64 8, i32 8, i1 false)
  store i32 77431366, i32* %24
  br label %142

; <label>:121:                                    ; preds = %26
  %122 = load volatile %"struct.std::_Rb_tree_iterator.70"*, %"struct.std::_Rb_tree_iterator.70"** %10
  %123 = call dereferenceable(56) %"struct.std::pair.46"* @_ZNKSt17_Rb_tree_iteratorISt4pairIKxSt3mapIxxSt4lessIxESaIS0_IS1_xEEEEEdeEv(%"struct.std::_Rb_tree_iterator.70"* %122) #3
  %124 = getelementptr inbounds %"struct.std::pair.46", %"struct.std::pair.46"* %123, i32 0, i32 1
  ret %"class.std::map.28"* %124

; <label>:125:                                    ; preds = %26
  %126 = alloca %"class.std::map.18"*, align 8
  %127 = alloca i64*, align 8
  %128 = alloca %"struct.std::_Rb_tree_iterator.70", align 8
  %129 = alloca %"struct.std::_Rb_tree_iterator.70", align 8
  %130 = alloca %"struct.std::less", align 1
  %131 = alloca %"struct.std::_Rb_tree_iterator.70", align 8
  %132 = alloca %"struct.std::_Rb_tree_const_iterator.71", align 8
  %133 = alloca %"class.std::tuple.63", align 8
  %134 = alloca %"class.std::tuple.60", align 1
  store %"class.std::map.18"* %0, %"class.std::map.18"** %126, align 8
  store i64* %1, i64** %127, align 8
  %135 = load %"class.std::map.18"*, %"class.std::map.18"** %126, align 8
  %136 = load i64*, i64** %127, align 8
  %137 = call %"struct.std::_Rb_tree_node_base"* @_ZNSt3mapIxS_IxxSt4lessIxESaISt4pairIKxxEEES1_SaIS2_IS3_S6_EEE11lower_boundERS3_(%"class.std::map.18"* %135, i64* dereferenceable(8) %136)
  %138 = getelementptr inbounds %"struct.std::_Rb_tree_iterator.70", %"struct.std::_Rb_tree_iterator.70"* %128, i32 0, i32 0
  store %"struct.std::_Rb_tree_node_base"* %137, %"struct.std::_Rb_tree_node_base"** %138, align 8
  %139 = call %"struct.std::_Rb_tree_node_base"* @_ZNSt3mapIxS_IxxSt4lessIxESaISt4pairIKxxEEES1_SaIS2_IS3_S6_EEE3endEv(%"class.std::map.18"* %135) #3
  %140 = getelementptr inbounds %"struct.std::_Rb_tree_iterator.70", %"struct.std::_Rb_tree_iterator.70"* %129, i32 0, i32 0
  store %"struct.std::_Rb_tree_node_base"* %139, %"struct.std::_Rb_tree_node_base"** %140, align 8
  %141 = call zeroext i1 @_ZNKSt17_Rb_tree_iteratorISt4pairIKxSt3mapIxxSt4lessIxESaIS0_IS1_xEEEEEeqERKS9_(%"struct.std::_Rb_tree_iterator.70"* %128, %"struct.std::_Rb_tree_iterator.70"* dereferenceable(8) %129) #3
  store i32 -284408642, i32* %24
  br label %142

; <label>:142:                                    ; preds = %125, %101, %98, %89, %86, %37, %29, %28
  br label %26
}

; Function Attrs: noinline uwtable
define linkonce_odr dereferenceable(48) %"class.std::map.28"* @_ZNSt3mapIxxSt4lessIxESaISt4pairIKxxEEEaSERKS6_(%"class.std::map.28"*, %"class.std::map.28"* dereferenceable(48)) #0 comdat align 2 {
  %3 = alloca %"class.std::map.28"*, align 8
  %4 = alloca %"class.std::map.28"*, align 8
  store %"class.std::map.28"* %0, %"class.std::map.28"** %3, align 8
  store %"class.std::map.28"* %1, %"class.std::map.28"** %4, align 8
  %5 = load %"class.std::map.28"*, %"class.std::map.28"** %3, align 8
  %6 = load %"class.std::map.28"*, %"class.std::map.28"** %4, align 8
  %7 = getelementptr inbounds %"class.std::map.28", %"class.std::map.28"* %6, i32 0, i32 0
  %8 = getelementptr inbounds %"class.std::map.28", %"class.std::map.28"* %5, i32 0, i32 0
  %9 = call dereferenceable(48) %"class.std::_Rb_tree.29"* @_ZNSt8_Rb_treeIxSt4pairIKxxESt10_Select1stIS2_ESt4lessIxESaIS2_EEaSERKS8_(%"class.std::_Rb_tree.29"* %8, %"class.std::_Rb_tree.29"* dereferenceable(48) %7)
  ret %"class.std::map.28"* %5
}

; Function Attrs: noinline nounwind uwtable
define linkonce_odr void @_ZNSt3mapIxxSt4lessIxESaISt4pairIKxxEEED2Ev(%"class.std::map.28"*) unnamed_addr #4 comdat align 2 {
  %2 = alloca %"class.std::map.28"*, align 8
  store %"class.std::map.28"* %0, %"class.std::map.28"** %2, align 8
  %3 = load %"class.std::map.28"*, %"class.std::map.28"** %2, align 8
  %4 = getelementptr inbounds %"class.std::map.28", %"class.std::map.28"* %3, i32 0, i32 0
  call void @_ZNSt8_Rb_treeIxSt4pairIKxxESt10_Select1stIS2_ESt4lessIxESaIS2_EED2Ev(%"class.std::_Rb_tree.29"* %4) #3
  ret void
}

; Function Attrs: noinline nounwind uwtable
define linkonce_odr void @_ZNSt3setIxSt4lessIxESaIxEED2Ev(%"class.std::set.23"*) unnamed_addr #4 comdat align 2 {
  %2 = alloca %"class.std::set.23"*, align 8
  store %"class.std::set.23"* %0, %"class.std::set.23"** %2, align 8
  %3 = load %"class.std::set.23"*, %"class.std::set.23"** %2, align 8
  %4 = getelementptr inbounds %"class.std::set.23", %"class.std::set.23"* %3, i32 0, i32 0
  call void @_ZNSt8_Rb_treeIxxSt9_IdentityIxESt4lessIxESaIxEED2Ev(%"class.std::_Rb_tree.24"* %4) #3
  ret void
}

; Function Attrs: noinline uwtable
define void @_Z5solvev() #0 personality i8* bitcast (i32 (...)* @__gxx_personality_v0 to i8*) {
  %1 = alloca i32, align 4
  %2 = alloca i32, align 4
  %3 = alloca i8*, align 8
  %4 = alloca i32, align 4
  %5 = alloca %"class.std::vector.6", align 8
  %6 = alloca %"class.std::allocator.8", align 1
  %7 = alloca i8*
  %8 = alloca i32
  %9 = alloca i32, align 4
  %10 = alloca i32, align 4
  %11 = alloca i64, align 8
  %12 = alloca i64, align 8
  %13 = call dereferenceable(280) %"class.std::basic_istream"* @_ZNSirsERi(%"class.std::basic_istream"* @_ZSt3cin, i32* dereferenceable(4) %1)
  %14 = call dereferenceable(280) %"class.std::basic_istream"* @_ZNSirsERi(%"class.std::basic_istream"* %13, i32* dereferenceable(4) %2)
  %15 = load i32, i32* %2, align 4
  %16 = zext i32 %15 to i64
  %17 = call i8* @llvm.stacksave()
  store i8* %17, i8** %3, align 8
  %18 = alloca i64, i64 %16, align 16
  %19 = load i32, i32* %2, align 4
  %20 = zext i32 %19 to i64
  %21 = alloca i64, i64 %20, align 16
  store i32 0, i32* %4, align 4
  br label %22

; <label>:22:                                     ; preds = %35, %0
  %23 = load i32, i32* %4, align 4
  %24 = load i32, i32* %2, align 4
  %25 = icmp slt i32 %23, %24
  br i1 %25, label %26, label %40

; <label>:26:                                     ; preds = %22
  %27 = load i32, i32* %4, align 4
  %28 = sext i32 %27 to i64
  %29 = getelementptr inbounds i64, i64* %18, i64 %28
  %30 = call dereferenceable(280) %"class.std::basic_istream"* @_ZNSirsERx(%"class.std::basic_istream"* @_ZSt3cin, i64* dereferenceable(8) %29)
  %31 = load i32, i32* %4, align 4
  %32 = sext i32 %31 to i64
  %33 = getelementptr inbounds i64, i64* %21, i64 %32
  %34 = call dereferenceable(280) %"class.std::basic_istream"* @_ZNSirsERx(%"class.std::basic_istream"* %30, i64* dereferenceable(8) %33)
  br label %35

; <label>:35:                                     ; preds = %26
  %36 = load i32, i32* %4, align 4
  %37 = sub i32 0, 1
  %38 = sub i32 %36, %37
  %39 = add nsw i32 %36, 1
  store i32 %38, i32* %4, align 4
  br label %22

; <label>:40:                                     ; preds = %22
  %41 = load i32, i32* @x.143
  %42 = load i32, i32* @y.144
  %43 = sub i32 %41, 883523730
  %44 = sub i32 %43, 1
  %45 = add i32 %44, 883523730
  %46 = sub i32 %41, 1
  %47 = mul i32 %41, %45
  %48 = urem i32 %47, 2
  %49 = icmp eq i32 %48, 0
  %50 = icmp slt i32 %42, 10
  %51 = and i1 %49, %50
  %52 = xor i1 %49, %50
  %53 = or i1 %51, %52
  %54 = or i1 %49, %50
  br i1 %53, label %55, label %238

; <label>:55:                                     ; preds = %40, %238
  %56 = load i32, i32* %1, align 4
  %57 = sub i32 %56, -236163711
  %58 = add i32 %57, 1
  %59 = add i32 %58, -236163711
  %60 = add nsw i32 %56, 1
  %61 = sext i32 %59 to i64
  call void @_ZNSaIxEC2Ev(%"class.std::allocator.8"* %6) #3
  %62 = load i32, i32* @x.143
  %63 = load i32, i32* @y.144
  %64 = sub i32 0, 1
  %65 = add i32 %62, %64
  %66 = sub i32 %62, 1
  %67 = mul i32 %62, %65
  %68 = urem i32 %67, 2
  %69 = icmp eq i32 %68, 0
  %70 = icmp slt i32 %63, 10
  %71 = and i1 %69, %70
  %72 = xor i1 %69, %70
  %73 = or i1 %71, %72
  %74 = or i1 %69, %70
  br i1 %73, label %75, label %238

; <label>:75:                                     ; preds = %55
  invoke void @_ZNSt6vectorIxSaIxEEC2EmRKxRKS0_(%"class.std::vector.6"* %5, i64 %61, i64* dereferenceable(8) @_ZL5INF_L, %"class.std::allocator.8"* dereferenceable(1) %6)
          to label %76 unwind label %128

; <label>:76:                                     ; preds = %75
  call void @_ZNSaIxED2Ev(%"class.std::allocator.8"* %6) #3
  %77 = call dereferenceable(8) i64* @_ZNSt6vectorIxSaIxEEixEm(%"class.std::vector.6"* %5, i64 0) #3
  store i64 0, i64* %77, align 8
  store i32 0, i32* %9, align 4
  br label %78

; <label>:78:                                     ; preds = %217, %76
  %79 = load i32, i32* %9, align 4
  %80 = load i32, i32* %1, align 4
  %81 = sub i32 0, 1
  %82 = sub i32 %80, %81
  %83 = add nsw i32 %80, 1
  %84 = icmp slt i32 %79, %82
  br i1 %84, label %85, label %223

; <label>:85:                                     ; preds = %78
  store i32 0, i32* %10, align 4
  br label %86

; <label>:86:                                     ; preds = %121, %85
  %87 = load i32, i32* %10, align 4
  %88 = load i32, i32* %2, align 4
  %89 = icmp slt i32 %87, %88
  br i1 %89, label %90, label %176

; <label>:90:                                     ; preds = %86
  %91 = load i32, i32* %9, align 4
  %92 = sext i32 %91 to i64
  %93 = load i32, i32* %10, align 4
  %94 = sext i32 %93 to i64
  %95 = getelementptr inbounds i64, i64* %18, i64 %94
  %96 = load i64, i64* %95, align 8
  %97 = add i64 %92, 7740659039523047060
  %98 = add i64 %97, %96
  %99 = sub i64 %98, 7740659039523047060
  %100 = add nsw i64 %92, %96
  store i64 %99, i64* %11, align 8
  %101 = load i32, i32* %1, align 4
  %102 = sext i32 %101 to i64
  store i64 %102, i64* %12, align 8
  %103 = invoke dereferenceable(8) i64* @_ZSt3minIxERKT_S2_S2_(i64* dereferenceable(8) %11, i64* dereferenceable(8) %12)
          to label %104 unwind label %132

; <label>:104:                                    ; preds = %90
  %105 = load i64, i64* %103, align 8
  %106 = call dereferenceable(8) i64* @_ZNSt6vectorIxSaIxEEixEm(%"class.std::vector.6"* %5, i64 %105) #3
  %107 = load i32, i32* %9, align 4
  %108 = sext i32 %107 to i64
  %109 = call dereferenceable(8) i64* @_ZNSt6vectorIxSaIxEEixEm(%"class.std::vector.6"* %5, i64 %108) #3
  %110 = load i64, i64* %109, align 8
  %111 = load i32, i32* %10, align 4
  %112 = sext i32 %111 to i64
  %113 = getelementptr inbounds i64, i64* %21, i64 %112
  %114 = load i64, i64* %113, align 8
  %115 = sub i64 %110, -3199947968429688987
  %116 = add i64 %115, %114
  %117 = add i64 %116, -3199947968429688987
  %118 = add nsw i64 %110, %114
  %119 = invoke zeroext i1 @_Z5chminIxEbRT_S0_(i64* dereferenceable(8) %106, i64 %117)
          to label %120 unwind label %132

; <label>:120:                                    ; preds = %104
  br label %121

; <label>:121:                                    ; preds = %120
  %122 = load i32, i32* %10, align 4
  %123 = sub i32 0, %122
  %124 = sub i32 0, 1
  %125 = add i32 %123, %124
  %126 = sub i32 0, %125
  %127 = add nsw i32 %122, 1
  store i32 %126, i32* %10, align 4
  br label %86

; <label>:128:                                    ; preds = %75
  %129 = landingpad { i8*, i32 }
          cleanup
  %130 = extractvalue { i8*, i32 } %129, 0
  store i8* %130, i8** %7, align 8
  %131 = extractvalue { i8*, i32 } %129, 1
  store i32 %131, i32* %8, align 4
  call void @_ZNSaIxED2Ev(%"class.std::allocator.8"* %6) #3
  br label %233

; <label>:132:                                    ; preds = %229, %223, %104, %90
  %133 = load i32, i32* @x.143
  %134 = load i32, i32* @y.144
  %135 = sub i32 0, 1
  %136 = add i32 %133, %135
  %137 = sub i32 %133, 1
  %138 = mul i32 %133, %136
  %139 = urem i32 %138, 2
  %140 = icmp eq i32 %139, 0
  %141 = icmp slt i32 %134, 10
  %142 = xor i1 %140, true
  %143 = xor i1 %141, true
  %144 = xor i1 true, true
  %145 = and i1 %142, true
  %146 = and i1 %140, %144
  %147 = and i1 %143, true
  %148 = and i1 %141, %144
  %149 = or i1 %145, %146
  %150 = or i1 %147, %148
  %151 = xor i1 %149, %150
  %152 = or i1 %142, %143
  %153 = xor i1 %152, true
  %154 = or i1 true, %144
  %155 = and i1 %153, %154
  %156 = or i1 %151, %155
  %157 = or i1 %140, %141
  br i1 %156, label %158, label %251

; <label>:158:                                    ; preds = %132, %251
  %159 = landingpad { i8*, i32 }
          cleanup
  %160 = extractvalue { i8*, i32 } %159, 0
  store i8* %160, i8** %7, align 8
  %161 = extractvalue { i8*, i32 } %159, 1
  store i32 %161, i32* %8, align 4
  call void @_ZNSt6vectorIxSaIxEED2Ev(%"class.std::vector.6"* %5) #3
  %162 = load i32, i32* @x.143
  %163 = load i32, i32* @y.144
  %164 = sub i32 0, 1
  %165 = add i32 %162, %164
  %166 = sub i32 %162, 1
  %167 = mul i32 %162, %165
  %168 = urem i32 %167, 2
  %169 = icmp eq i32 %168, 0
  %170 = icmp slt i32 %163, 10
  %171 = and i1 %169, %170
  %172 = xor i1 %169, %170
  %173 = or i1 %171, %172
  %174 = or i1 %169, %170
  br i1 %173, label %175, label %251

; <label>:175:                                    ; preds = %158
  br label %233

; <label>:176:                                    ; preds = %86
  %177 = load i32, i32* @x.143
  %178 = load i32, i32* @y.144
  %179 = sub i32 0, 1
  %180 = add i32 %177, %179
  %181 = sub i32 %177, 1
  %182 = mul i32 %177, %180
  %183 = urem i32 %182, 2
  %184 = icmp eq i32 %183, 0
  %185 = icmp slt i32 %178, 10
  %186 = and i1 %184, %185
  %187 = xor i1 %184, %185
  %188 = or i1 %186, %187
  %189 = or i1 %184, %185
  br i1 %188, label %190, label %255

; <label>:190:                                    ; preds = %176, %255
  %191 = load i32, i32* @x.143
  %192 = load i32, i32* @y.144
  %193 = sub i32 0, 1
  %194 = add i32 %191, %193
  %195 = sub i32 %191, 1
  %196 = mul i32 %191, %194
  %197 = urem i32 %196, 2
  %198 = icmp eq i32 %197, 0
  %199 = icmp slt i32 %192, 10
  %200 = xor i1 %198, true
  %201 = xor i1 %199, true
  %202 = xor i1 true, true
  %203 = and i1 %200, true
  %204 = and i1 %198, %202
  %205 = and i1 %201, true
  %206 = and i1 %199, %202
  %207 = or i1 %203, %204
  %208 = or i1 %205, %206
  %209 = xor i1 %207, %208
  %210 = or i1 %200, %201
  %211 = xor i1 %210, true
  %212 = or i1 true, %202
  %213 = and i1 %211, %212
  %214 = or i1 %209, %213
  %215 = or i1 %198, %199
  br i1 %214, label %216, label %255

; <label>:216:                                    ; preds = %190
  br label %217

; <label>:217:                                    ; preds = %216
  %218 = load i32, i32* %9, align 4
  %219 = add i32 %218, 1592632715
  %220 = add i32 %219, 1
  %221 = sub i32 %220, 1592632715
  %222 = add nsw i32 %218, 1
  store i32 %221, i32* %9, align 4
  br label %78

; <label>:223:                                    ; preds = %78
  %224 = load i32, i32* %1, align 4
  %225 = sext i32 %224 to i64
  %226 = call dereferenceable(8) i64* @_ZNSt6vectorIxSaIxEEixEm(%"class.std::vector.6"* %5, i64 %225) #3
  %227 = load i64, i64* %226, align 8
  %228 = invoke dereferenceable(272) %"class.std::basic_ostream"* @_ZNSolsEx(%"class.std::basic_ostream"* @_ZSt4cout, i64 %227)
          to label %229 unwind label %132

; <label>:229:                                    ; preds = %223
  %230 = invoke dereferenceable(272) %"class.std::basic_ostream"* @_ZNSolsEPFRSoS_E(%"class.std::basic_ostream"* %228, %"class.std::basic_ostream"* (%"class.std::basic_ostream"*)* @_ZSt4endlIcSt11char_traitsIcEERSt13basic_ostreamIT_T0_ES6_)
          to label %231 unwind label %132

; <label>:231:                                    ; preds = %229
  call void @_ZNSt6vectorIxSaIxEED2Ev(%"class.std::vector.6"* %5) #3
  %232 = load i8*, i8** %3, align 8
  call void @llvm.stackrestore(i8* %232)
  ret void

; <label>:233:                                    ; preds = %175, %128
  %234 = load i8*, i8** %7, align 8
  %235 = load i32, i32* %8, align 4
  %236 = insertvalue { i8*, i32 } undef, i8* %234, 0
  %237 = insertvalue { i8*, i32 } %236, i32 %235, 1
  resume { i8*, i32 } %237

; <label>:238:                                    ; preds = %55, %40
  %239 = load i32, i32* %1, align 4
  %240 = shl i32 %239, 1
  %241 = sub i32 %239, -71230819
  %242 = sub i32 %241, 1
  %243 = add i32 %242, -71230819
  %244 = sub i32 %239, 1
  %245 = mul i32 %243, 1
  %246 = add i32 %239, 1292287561
  %247 = add i32 %246, 1
  %248 = sub i32 %247, 1292287561
  %249 = add nsw i32 %239, 1
  %250 = sext i32 %248 to i64
  call void @_ZNSaIxEC2Ev(%"class.std::allocator.8"* %6) #3
  br label %55

; <label>:251:                                    ; preds = %158, %132
  %252 = landingpad { i8*, i32 }
          cleanup
  %253 = extractvalue { i8*, i32 } %252, 0
  store i8* %253, i8** %7, align 8
  %254 = extractvalue { i8*, i32 } %252, 1
  store i32 %254, i32* %8, align 4
  call void @_ZNSt6vectorIxSaIxEED2Ev(%"class.std::vector.6"* %5) #3
  br label %158

; <label>:255:                                    ; preds = %190, %176
  br label %190
}

declare dereferenceable(280) %"class.std::basic_istream"* @_ZNSirsERi(%"class.std::basic_istream"*, i32* dereferenceable(4)) #1

; Function Attrs: nounwind
declare i8* @llvm.stacksave() #3

declare dereferenceable(280) %"class.std::basic_istream"* @_ZNSirsERx(%"class.std::basic_istream"*, i64* dereferenceable(8)) #1

; Function Attrs: noinline uwtable
define linkonce_odr void @_ZNSt6vectorIxSaIxEEC2EmRKxRKS0_(%"class.std::vector.6"*, i64, i64* dereferenceable(8), %"class.std::allocator.8"* dereferenceable(1)) unnamed_addr #0 comdat align 2 personality i8* bitcast (i32 (...)* @__gxx_personality_v0 to i8*) {
  %5 = load i32, i32* @x.145
  %6 = load i32, i32* @y.146
  %7 = sub i32 %5, 1850723529
  %8 = sub i32 %7, 1
  %9 = add i32 %8, 1850723529
  %10 = sub i32 %5, 1
  %11 = mul i32 %5, %9
  %12 = urem i32 %11, 2
  %13 = icmp eq i32 %12, 0
  %14 = icmp slt i32 %6, 10
  %15 = and i1 %13, %14
  %16 = xor i1 %13, %14
  %17 = or i1 %15, %16
  %18 = or i1 %13, %14
  br i1 %17, label %19, label %111

; <label>:19:                                     ; preds = %4, %111
  %20 = alloca %"class.std::vector.6"*, align 8
  %21 = alloca i64, align 8
  %22 = alloca i64*, align 8
  %23 = alloca %"class.std::allocator.8"*, align 8
  %24 = alloca i8*
  %25 = alloca i32
  store %"class.std::vector.6"* %0, %"class.std::vector.6"** %20, align 8
  store i64 %1, i64* %21, align 8
  store i64* %2, i64** %22, align 8
  store %"class.std::allocator.8"* %3, %"class.std::allocator.8"** %23, align 8
  %26 = load %"class.std::vector.6"*, %"class.std::vector.6"** %20, align 8
  %27 = bitcast %"class.std::vector.6"* %26 to %"struct.std::_Vector_base.7"*
  %28 = load i64, i64* %21, align 8
  %29 = load %"class.std::allocator.8"*, %"class.std::allocator.8"** %23, align 8
  call void @_ZNSt12_Vector_baseIxSaIxEEC2EmRKS0_(%"struct.std::_Vector_base.7"* %27, i64 %28, %"class.std::allocator.8"* dereferenceable(1) %29)
  %30 = load i64, i64* %21, align 8
  %31 = load i64*, i64** %22, align 8
  %32 = load i32, i32* @x.145
  %33 = load i32, i32* @y.146
  %34 = add i32 %32, -408450447
  %35 = sub i32 %34, 1
  %36 = sub i32 %35, -408450447
  %37 = sub i32 %32, 1
  %38 = mul i32 %32, %36
  %39 = urem i32 %38, 2
  %40 = icmp eq i32 %39, 0
  %41 = icmp slt i32 %33, 10
  %42 = xor i1 %40, true
  %43 = xor i1 %41, true
  %44 = xor i1 false, true
  %45 = and i1 %42, false
  %46 = and i1 %40, %44
  %47 = and i1 %43, false
  %48 = and i1 %41, %44
  %49 = or i1 %45, %46
  %50 = or i1 %47, %48
  %51 = xor i1 %49, %50
  %52 = or i1 %42, %43
  %53 = xor i1 %52, true
  %54 = or i1 false, %44
  %55 = and i1 %53, %54
  %56 = or i1 %51, %55
  %57 = or i1 %40, %41
  br i1 %56, label %58, label %111

; <label>:58:                                     ; preds = %19
  invoke void @_ZNSt6vectorIxSaIxEE18_M_fill_initializeEmRKx(%"class.std::vector.6"* %26, i64 %30, i64* dereferenceable(8) %31)
          to label %59 unwind label %60

; <label>:59:                                     ; preds = %58
  ret void

; <label>:60:                                     ; preds = %58
  %61 = landingpad { i8*, i32 }
          cleanup
  %62 = extractvalue { i8*, i32 } %61, 0
  store i8* %62, i8** %24, align 8
  %63 = extractvalue { i8*, i32 } %61, 1
  store i32 %63, i32* %25, align 4
  %64 = bitcast %"class.std::vector.6"* %26 to %"struct.std::_Vector_base.7"*
  call void @_ZNSt12_Vector_baseIxSaIxEED2Ev(%"struct.std::_Vector_base.7"* %64) #3
  br label %65

; <label>:65:                                     ; preds = %60
  %66 = load i32, i32* @x.145
  %67 = load i32, i32* @y.146
  %68 = sub i32 0, 1
  %69 = add i32 %66, %68
  %70 = sub i32 %66, 1
  %71 = mul i32 %66, %69
  %72 = urem i32 %71, 2
  %73 = icmp eq i32 %72, 0
  %74 = icmp slt i32 %67, 10
  %75 = and i1 %73, %74
  %76 = xor i1 %73, %74
  %77 = or i1 %75, %76
  %78 = or i1 %73, %74
  br i1 %77, label %79, label %124

; <label>:79:                                     ; preds = %65, %124
  %80 = load i8*, i8** %24, align 8
  %81 = load i32, i32* %25, align 4
  %82 = insertvalue { i8*, i32 } undef, i8* %80, 0
  %83 = insertvalue { i8*, i32 } %82, i32 %81, 1
  %84 = load i32, i32* @x.145
  %85 = load i32, i32* @y.146
  %86 = sub i32 %84, 154314141
  %87 = sub i32 %86, 1
  %88 = add i32 %87, 154314141
  %89 = sub i32 %84, 1
  %90 = mul i32 %84, %88
  %91 = urem i32 %90, 2
  %92 = icmp eq i32 %91, 0
  %93 = icmp slt i32 %85, 10
  %94 = xor i1 %92, true
  %95 = xor i1 %93, true
  %96 = xor i1 true, true
  %97 = and i1 %94, true
  %98 = and i1 %92, %96
  %99 = and i1 %95, true
  %100 = and i1 %93, %96
  %101 = or i1 %97, %98
  %102 = or i1 %99, %100
  %103 = xor i1 %101, %102
  %104 = or i1 %94, %95
  %105 = xor i1 %104, true
  %106 = or i1 true, %96
  %107 = and i1 %105, %106
  %108 = or i1 %103, %107
  %109 = or i1 %92, %93
  br i1 %108, label %110, label %124

; <label>:110:                                    ; preds = %79
  resume { i8*, i32 } %83

; <label>:111:                                    ; preds = %19, %4
  %112 = alloca %"class.std::vector.6"*, align 8
  %113 = alloca i64, align 8
  %114 = alloca i64*, align 8
  %115 = alloca %"class.std::allocator.8"*, align 8
  %116 = alloca i8*
  %117 = alloca i32
  store %"class.std::vector.6"* %0, %"class.std::vector.6"** %112, align 8
  store i64 %1, i64* %113, align 8
  store i64* %2, i64** %114, align 8
  store %"class.std::allocator.8"* %3, %"class.std::allocator.8"** %115, align 8
  %118 = load %"class.std::vector.6"*, %"class.std::vector.6"** %112, align 8
  %119 = bitcast %"class.std::vector.6"* %118 to %"struct.std::_Vector_base.7"*
  %120 = load i64, i64* %113, align 8
  %121 = load %"class.std::allocator.8"*, %"class.std::allocator.8"** %115, align 8
  call void @_ZNSt12_Vector_baseIxSaIxEEC2EmRKS0_(%"struct.std::_Vector_base.7"* %119, i64 %120, %"class.std::allocator.8"* dereferenceable(1) %121)
  %122 = load i64, i64* %113, align 8
  %123 = load i64*, i64** %114, align 8
  br label %19

; <label>:124:                                    ; preds = %79, %65
  %125 = load i8*, i8** %24, align 8
  %126 = load i32, i32* %25, align 4
  %127 = insertvalue { i8*, i32 } undef, i8* %125, 0
  %128 = insertvalue { i8*, i32 } %127, i32 %126, 1
  br label %79
}

; Function Attrs: noinline nounwind uwtable
define linkonce_odr zeroext i1 @_Z5chminIxEbRT_S0_(i64* dereferenceable(8), i64) #4 comdat {
  %3 = alloca i1
  %4 = alloca i64
  %5 = alloca i64
  %6 = alloca i1, align 1
  %7 = alloca i64*, align 8
  %8 = alloca i64, align 8
  store i64* %0, i64** %7, align 8
  store i64 %1, i64* %8, align 8
  %9 = load i64*, i64** %7, align 8
  %10 = load i64, i64* %9, align 8
  store i64 %10, i64* %5
  %11 = load i64, i64* %8, align 8
  store i64 %11, i64* %4
  %12 = alloca i32
  store i32 1794047352, i32* %12
  br label %13

; <label>:13:                                     ; preds = %2, %85
  %14 = load i32, i32* %12
  switch i32 %14, label %15 [
    i32 1794047352, label %16
    i32 -1608508442, label %21
    i32 212530177, label %24
    i32 -96403509, label %25
    i32 -1618728702, label %53
    i32 1967697221, label %81
    i32 549421683, label %83
  ]

; <label>:15:                                     ; preds = %13
  br label %85

; <label>:16:                                     ; preds = %13
  %17 = load volatile i64, i64* %5
  %18 = load volatile i64, i64* %4
  %19 = icmp sgt i64 %17, %18
  %20 = select i1 %19, i32 -1608508442, i32 212530177
  store i32 %20, i32* %12
  br label %85

; <label>:21:                                     ; preds = %13
  %22 = load i64, i64* %8, align 8
  %23 = load i64*, i64** %7, align 8
  store i64 %22, i64* %23, align 8
  store i1 true, i1* %6, align 1
  store i32 -96403509, i32* %12
  br label %85

; <label>:24:                                     ; preds = %13
  store i1 false, i1* %6, align 1
  store i32 -96403509, i32* %12
  br label %85

; <label>:25:                                     ; preds = %13
  %26 = load i32, i32* @x.147
  %27 = load i32, i32* @y.148
  %28 = sub i32 %26, -982979213
  %29 = sub i32 %28, 1
  %30 = add i32 %29, -982979213
  %31 = sub i32 %26, 1
  %32 = mul i32 %26, %30
  %33 = urem i32 %32, 2
  %34 = icmp eq i32 %33, 0
  %35 = icmp slt i32 %27, 10
  %36 = xor i1 %34, true
  %37 = xor i1 %35, true
  %38 = xor i1 true, true
  %39 = and i1 %36, true
  %40 = and i1 %34, %38
  %41 = and i1 %37, true
  %42 = and i1 %35, %38
  %43 = or i1 %39, %40
  %44 = or i1 %41, %42
  %45 = xor i1 %43, %44
  %46 = or i1 %36, %37
  %47 = xor i1 %46, true
  %48 = or i1 true, %38
  %49 = and i1 %47, %48
  %50 = or i1 %45, %49
  %51 = or i1 %34, %35
  %52 = select i1 %50, i32 -1618728702, i32 549421683
  store i32 %52, i32* %12
  br label %85

; <label>:53:                                     ; preds = %13
  %54 = load i1, i1* %6, align 1
  store i1 %54, i1* %3
  %55 = load i32, i32* @x.147
  %56 = load i32, i32* @y.148
  %57 = sub i32 0, 1
  %58 = add i32 %55, %57
  %59 = sub i32 %55, 1
  %60 = mul i32 %55, %58
  %61 = urem i32 %60, 2
  %62 = icmp eq i32 %61, 0
  %63 = icmp slt i32 %56, 10
  %64 = xor i1 %62, true
  %65 = xor i1 %63, true
  %66 = xor i1 false, true
  %67 = and i1 %64, false
  %68 = and i1 %62, %66
  %69 = and i1 %65, false
  %70 = and i1 %63, %66
  %71 = or i1 %67, %68
  %72 = or i1 %69, %70
  %73 = xor i1 %71, %72
  %74 = or i1 %64, %65
  %75 = xor i1 %74, true
  %76 = or i1 false, %66
  %77 = and i1 %75, %76
  %78 = or i1 %73, %77
  %79 = or i1 %62, %63
  %80 = select i1 %78, i32 1967697221, i32 549421683
  store i32 %80, i32* %12
  br label %85

; <label>:81:                                     ; preds = %13
  %82 = load volatile i1, i1* %3
  ret i1 %82

; <label>:83:                                     ; preds = %13
  %84 = load i1, i1* %6, align 1
  store i32 -1618728702, i32* %12
  br label %85

; <label>:85:                                     ; preds = %83, %53, %25, %24, %21, %16, %15
  br label %13
}

; Function Attrs: noinline nounwind uwtable
define linkonce_odr dereferenceable(8) i64* @_ZSt3minIxERKT_S2_S2_(i64* dereferenceable(8), i64* dereferenceable(8)) #4 comdat {
  %3 = alloca i1
  %4 = alloca i64**
  %5 = alloca i64**
  %6 = alloca i64**
  %7 = alloca i1
  %8 = alloca i1
  %9 = load i32, i32* @x.149
  %10 = load i32, i32* @y.150
  %11 = sub i32 %9, -1428583603
  %12 = sub i32 %11, 1
  %13 = add i32 %12, -1428583603
  %14 = sub i32 %9, 1
  %15 = mul i32 %9, %13
  %16 = urem i32 %15, 2
  %17 = icmp eq i32 %16, 0
  store i1 %17, i1* %8
  %18 = icmp slt i32 %10, 10
  store i1 %18, i1* %7
  %19 = alloca i32
  store i32 1114724323, i32* %19
  br label %20

; <label>:20:                                     ; preds = %2, %94
  %21 = load i32, i32* %19
  switch i32 %21, label %22 [
    i32 1114724323, label %23
    i32 514084245, label %43
    i32 60715197, label %71
    i32 266991255, label %74
    i32 -1567821648, label %78
    i32 -694594506, label %82
    i32 2094024893, label %85
  ]

; <label>:22:                                     ; preds = %20
  br label %94

; <label>:23:                                     ; preds = %20
  %24 = load volatile i1, i1* %8
  %25 = load volatile i1, i1* %7
  %26 = xor i1 %24, true
  %27 = xor i1 %25, true
  %28 = xor i1 true, true
  %29 = and i1 %26, true
  %30 = and i1 %24, %28
  %31 = and i1 %27, true
  %32 = and i1 %25, %28
  %33 = or i1 %29, %30
  %34 = or i1 %31, %32
  %35 = xor i1 %33, %34
  %36 = or i1 %26, %27
  %37 = xor i1 %36, true
  %38 = or i1 true, %28
  %39 = and i1 %37, %38
  %40 = or i1 %35, %39
  %41 = or i1 %24, %25
  %42 = select i1 %40, i32 514084245, i32 2094024893
  store i32 %42, i32* %19
  br label %94

; <label>:43:                                     ; preds = %20
  %44 = alloca i64*, align 8
  store i64** %44, i64*** %6
  %45 = alloca i64*, align 8
  store i64** %45, i64*** %5
  %46 = alloca i64*, align 8
  store i64** %46, i64*** %4
  %47 = load volatile i64**, i64*** %5
  store i64* %0, i64** %47, align 8
  %48 = load volatile i64**, i64*** %4
  store i64* %1, i64** %48, align 8
  %49 = load volatile i64**, i64*** %4
  %50 = load i64*, i64** %49, align 8
  %51 = load i64, i64* %50, align 8
  %52 = load volatile i64**, i64*** %5
  %53 = load i64*, i64** %52, align 8
  %54 = load i64, i64* %53, align 8
  %55 = icmp slt i64 %51, %54
  store i1 %55, i1* %3
  %56 = load i32, i32* @x.149
  %57 = load i32, i32* @y.150
  %58 = add i32 %56, -1355346879
  %59 = sub i32 %58, 1
  %60 = sub i32 %59, -1355346879
  %61 = sub i32 %56, 1
  %62 = mul i32 %56, %60
  %63 = urem i32 %62, 2
  %64 = icmp eq i32 %63, 0
  %65 = icmp slt i32 %57, 10
  %66 = and i1 %64, %65
  %67 = xor i1 %64, %65
  %68 = or i1 %66, %67
  %69 = or i1 %64, %65
  %70 = select i1 %68, i32 60715197, i32 2094024893
  store i32 %70, i32* %19
  br label %94

; <label>:71:                                     ; preds = %20
  %72 = load volatile i1, i1* %3
  %73 = select i1 %72, i32 266991255, i32 -1567821648
  store i32 %73, i32* %19
  br label %94

; <label>:74:                                     ; preds = %20
  %75 = load volatile i64**, i64*** %4
  %76 = load i64*, i64** %75, align 8
  %77 = load volatile i64**, i64*** %6
  store i64* %76, i64** %77, align 8
  store i32 -694594506, i32* %19
  br label %94

; <label>:78:                                     ; preds = %20
  %79 = load volatile i64**, i64*** %5
  %80 = load i64*, i64** %79, align 8
  %81 = load volatile i64**, i64*** %6
  store i64* %80, i64** %81, align 8
  store i32 -694594506, i32* %19
  br label %94

; <label>:82:                                     ; preds = %20
  %83 = load volatile i64**, i64*** %6
  %84 = load i64*, i64** %83, align 8
  ret i64* %84

; <label>:85:                                     ; preds = %20
  %86 = alloca i64*, align 8
  %87 = alloca i64*, align 8
  %88 = alloca i64*, align 8
  store i64* %0, i64** %87, align 8
  store i64* %1, i64** %88, align 8
  %89 = load i64*, i64** %88, align 8
  %90 = load i64, i64* %89, align 8
  %91 = load i64*, i64** %87, align 8
  %92 = load i64, i64* %91, align 8
  %93 = icmp slt i64 %90, %92
  store i32 514084245, i32* %19
  br label %94

; <label>:94:                                     ; preds = %85, %78, %74, %71, %43, %23, %22
  br label %20
}

declare dereferenceable(272) %"class.std::basic_ostream"* @_ZNSolsEx(%"class.std::basic_ostream"*, i64) #1

; Function Attrs: nounwind
declare void @llvm.stackrestore(i8*) #3

; Function Attrs: noinline norecurse uwtable
define i32 @main() #6 personality i8* bitcast (i32 (...)* @__gxx_personality_v0 to i8*) {
  %1 = alloca i32, align 4
  %2 = alloca %"class.std::basic_ifstream", align 8
  %3 = alloca i8*
  %4 = alloca i32
  store i32 0, i32* %1, align 4
  call void @_ZNSt14basic_ifstreamIcSt11char_traitsIcEEC1EPKcSt13_Ios_Openmode(%"class.std::basic_ifstream"* %2, i8* getelementptr inbounds ([10 x i8], [10 x i8]* @.str.12, i32 0, i32 0), i32 8)
  %5 = load i8*, i8** bitcast (%"class.std::basic_istream"* @_ZSt3cin to i8**), align 8
  %6 = getelementptr i8, i8* %5, i64 -24
  %7 = bitcast i8* %6 to i64*
  %8 = load i64, i64* %7, align 8
  %9 = getelementptr inbounds i8, i8* bitcast (%"class.std::basic_istream"* @_ZSt3cin to i8*), i64 %8
  %10 = bitcast i8* %9 to %"class.std::basic_ios"*
  %11 = invoke %"class.std::basic_filebuf"* @_ZNKSt14basic_ifstreamIcSt11char_traitsIcEE5rdbufEv(%"class.std::basic_ifstream"* %2)
          to label %12 unwind label %98

; <label>:12:                                     ; preds = %0
  %13 = bitcast %"class.std::basic_filebuf"* %11 to %"class.std::basic_streambuf"*
  %14 = invoke %"class.std::basic_streambuf"* @_ZNSt9basic_iosIcSt11char_traitsIcEE5rdbufEPSt15basic_streambufIcS1_E(%"class.std::basic_ios"* %10, %"class.std::basic_streambuf"* %13)
          to label %15 unwind label %98

; <label>:15:                                     ; preds = %12
  %16 = load i8*, i8** bitcast (%"class.std::basic_istream"* @_ZSt3cin to i8**), align 8
  %17 = getelementptr i8, i8* %16, i64 -24
  %18 = bitcast i8* %17 to i64*
  %19 = load i64, i64* %18, align 8
  %20 = getelementptr inbounds i8, i8* bitcast (%"class.std::basic_istream"* @_ZSt3cin to i8*), i64 %19
  %21 = bitcast i8* %20 to %"class.std::basic_ios"*
  %22 = invoke %"class.std::basic_ostream"* @_ZNSt9basic_iosIcSt11char_traitsIcEE3tieEPSo(%"class.std::basic_ios"* %21, %"class.std::basic_ostream"* null)
          to label %23 unwind label %98

; <label>:23:                                     ; preds = %15
  %24 = invoke zeroext i1 @_ZNSt8ios_base15sync_with_stdioEb(i1 zeroext false)
          to label %25 unwind label %98

; <label>:25:                                     ; preds = %23
  %26 = load i32, i32* @x.151
  %27 = load i32, i32* @y.152
  %28 = add i32 %26, 1618355092
  %29 = sub i32 %28, 1
  %30 = sub i32 %29, 1618355092
  %31 = sub i32 %26, 1
  %32 = mul i32 %26, %30
  %33 = urem i32 %32, 2
  %34 = icmp eq i32 %33, 0
  %35 = icmp slt i32 %27, 10
  %36 = and i1 %34, %35
  %37 = xor i1 %34, %35
  %38 = or i1 %36, %37
  %39 = or i1 %34, %35
  br i1 %38, label %40, label %202

; <label>:40:                                     ; preds = %25, %202
  %41 = load i32, i32* @x.151
  %42 = load i32, i32* @y.152
  %43 = sub i32 0, 1
  %44 = add i32 %41, %43
  %45 = sub i32 %41, 1
  %46 = mul i32 %41, %44
  %47 = urem i32 %46, 2
  %48 = icmp eq i32 %47, 0
  %49 = icmp slt i32 %42, 10
  %50 = and i1 %48, %49
  %51 = xor i1 %48, %49
  %52 = or i1 %50, %51
  %53 = or i1 %48, %49
  br i1 %52, label %54, label %202

; <label>:54:                                     ; preds = %40
  invoke void @_Z5solvev()
          to label %55 unwind label %98

; <label>:55:                                     ; preds = %54
  %56 = load i32, i32* @x.151
  %57 = load i32, i32* @y.152
  %58 = sub i32 0, 1
  %59 = add i32 %56, %58
  %60 = sub i32 %56, 1
  %61 = mul i32 %56, %59
  %62 = urem i32 %61, 2
  %63 = icmp eq i32 %62, 0
  %64 = icmp slt i32 %57, 10
  %65 = and i1 %63, %64
  %66 = xor i1 %63, %64
  %67 = or i1 %65, %66
  %68 = or i1 %63, %64
  br i1 %67, label %69, label %203

; <label>:69:                                     ; preds = %55, %203
  store i32 0, i32* %1, align 4
  call void @_ZNSt14basic_ifstreamIcSt11char_traitsIcEED1Ev(%"class.std::basic_ifstream"* %2) #3
  %70 = load i32, i32* %1, align 4
  %71 = load i32, i32* @x.151
  %72 = load i32, i32* @y.152
  %73 = sub i32 %71, 1910352135
  %74 = sub i32 %73, 1
  %75 = add i32 %74, 1910352135
  %76 = sub i32 %71, 1
  %77 = mul i32 %71, %75
  %78 = urem i32 %77, 2
  %79 = icmp eq i32 %78, 0
  %80 = icmp slt i32 %72, 10
  %81 = xor i1 %79, true
  %82 = xor i1 %80, true
  %83 = xor i1 true, true
  %84 = and i1 %81, true
  %85 = and i1 %79, %83
  %86 = and i1 %82, true
  %87 = and i1 %80, %83
  %88 = or i1 %84, %85
  %89 = or i1 %86, %87
  %90 = xor i1 %88, %89
  %91 = or i1 %81, %82
  %92 = xor i1 %91, true
  %93 = or i1 true, %83
  %94 = and i1 %92, %93
  %95 = or i1 %90, %94
  %96 = or i1 %79, %80
  br i1 %95, label %97, label %203

; <label>:97:                                     ; preds = %69
  ret i32 %70

; <label>:98:                                     ; preds = %54, %23, %15, %12, %0
  %99 = load i32, i32* @x.151
  %100 = load i32, i32* @y.152
  %101 = sub i32 0, 1
  %102 = add i32 %99, %101
  %103 = sub i32 %99, 1
  %104 = mul i32 %99, %102
  %105 = urem i32 %104, 2
  %106 = icmp eq i32 %105, 0
  %107 = icmp slt i32 %100, 10
  %108 = xor i1 %106, true
  %109 = xor i1 %107, true
  %110 = xor i1 false, true
  %111 = and i1 %108, false
  %112 = and i1 %106, %110
  %113 = and i1 %109, false
  %114 = and i1 %107, %110
  %115 = or i1 %111, %112
  %116 = or i1 %113, %114
  %117 = xor i1 %115, %116
  %118 = or i1 %108, %109
  %119 = xor i1 %118, true
  %120 = or i1 false, %110
  %121 = and i1 %119, %120
  %122 = or i1 %117, %121
  %123 = or i1 %106, %107
