; ModuleID = 'Project_CodeNet_C++1400/p02769/s403184636.cpp'
source_filename = "Project_CodeNet_C++1400/p02769/s403184636.cpp"
target datalayout = "e-m:e-p270:32:32-p271:32:32-p272:64:64-i64:64-f80:128-n8:16:32:64-S128"
target triple = "x86_64-pc-linux-gnu"

%"class.std::ios_base::Init" = type { i8 }
%"class.std::basic_istream" = type { i32 (...)**, i64, %"class.std::basic_ios" }
%"class.std::basic_ios" = type { %"class.std::ios_base", %"class.std::basic_ostream"*, i8, i8, %"class.std::basic_streambuf"*, %"class.std::ctype"*, %"class.std::num_put"*, %"class.std::num_get"* }
%"class.std::ios_base" = type { i32 (...)**, i64, i64, i32, i32, i32, %"struct.std::ios_base::_Callback_list"*, %"struct.std::ios_base::_Words", [8 x %"struct.std::ios_base::_Words"], i32, %"struct.std::ios_base::_Words"*, %"class.std::locale" }
%"struct.std::ios_base::_Callback_list" = type { %"struct.std::ios_base::_Callback_list"*, void (i32, %"class.std::ios_base"*, i32)*, i32, i32 }
%"struct.std::ios_base::_Words" = type { i8*, i64 }
%"class.std::locale" = type { %"class.std::locale::_Impl"* }
%"class.std::locale::_Impl" = type { i32, %"class.std::locale::facet"**, i64, %"class.std::locale::facet"**, i8** }
%"class.std::locale::facet" = type <{ i32 (...)**, i32, [4 x i8] }>
%"class.std::basic_ostream" = type { i32 (...)**, %"class.std::basic_ios" }
%"class.std::basic_streambuf" = type { i32 (...)**, i8*, i8*, i8*, i8*, i8*, i8*, %"class.std::locale" }
%"class.std::ctype" = type <{ %"class.std::locale::facet.base", [4 x i8], %struct.__locale_struct*, i8, [7 x i8], i32*, i32*, i16*, i8, [256 x i8], [256 x i8], i8, [6 x i8] }>
%"class.std::locale::facet.base" = type <{ i32 (...)**, i32 }>
%struct.__locale_struct = type { [13 x %struct.__locale_data*], i16*, i32*, i32*, [13 x i8*] }
%struct.__locale_data = type opaque
%"class.std::num_put" = type { %"class.std::locale::facet.base", [4 x i8] }
%"class.std::num_get" = type { %"class.std::locale::facet.base", [4 x i8] }

@_ZStL8__ioinit = internal global %"class.std::ios_base::Init" zeroinitializer, align 1
@__dso_handle = external hidden global i8
@fac = dso_local local_unnamed_addr global [210000 x i64] zeroinitializer, align 16
@finv = dso_local local_unnamed_addr global [210000 x i64] zeroinitializer, align 16
@inv = dso_local local_unnamed_addr global [210000 x i64] zeroinitializer, align 16
@_ZSt3cin = external global %"class.std::basic_istream", align 8
@_ZSt4cout = external global %"class.std::basic_ostream", align 8
@llvm.global_ctors = appending global [1 x { i32, void ()*, i8* }] [{ i32, void ()*, i8* } { i32 65535, void ()* @_GLOBAL__sub_I_s403184636.cpp, i8* null }]

declare void @_ZNSt8ios_base4InitC1Ev(%"class.std::ios_base::Init"* nonnull align 1 dereferenceable(1)) unnamed_addr #0

; Function Attrs: nounwind
declare void @_ZNSt8ios_base4InitD1Ev(%"class.std::ios_base::Init"* nonnull align 1 dereferenceable(1)) unnamed_addr #1

; Function Attrs: nofree nounwind
declare i32 @__cxa_atexit(void (i8*)*, i8*, i8*) local_unnamed_addr #2

; Function Attrs: mustprogress nofree nosync nounwind readnone sspstrong uwtable willreturn
define dso_local i64 @_Z3GCDxx(i64 %0, i64 %1) local_unnamed_addr #3 {
  %3 = icmp eq i64 %1, 0
  br i1 %3, label %9, label %4

4:                                                ; preds = %2, %4
  %5 = phi i64 [ %7, %4 ], [ %1, %2 ]
  %6 = phi i64 [ %5, %4 ], [ %0, %2 ]
  %7 = srem i64 %6, %5
  %8 = icmp eq i64 %7, 0
  br i1 %8, label %9, label %4

9:                                                ; preds = %4, %2
  %10 = phi i64 [ %0, %2 ], [ %5, %4 ]
  ret i64 %10
}

; Function Attrs: mustprogress nofree norecurse nosync nounwind sspstrong uwtable
define dso_local void @_Z7COMinitv() local_unnamed_addr #4 {
  store <2 x i64> <i64 1, i64 1>, <2 x i64>* bitcast ([210000 x i64]* @fac to <2 x i64>*), align 16, !tbaa !5
  store <2 x i64> <i64 1, i64 1>, <2 x i64>* bitcast ([210000 x i64]* @finv to <2 x i64>*), align 16, !tbaa !5
  store i64 1, i64* getelementptr inbounds ([210000 x i64], [210000 x i64]* @inv, i64 0, i64 1), align 8, !tbaa !5
  br label %2

1:                                                ; preds = %2
  ret void

2:                                                ; preds = %0, %2
  %3 = phi i64 [ 1, %0 ], [ %21, %2 ]
  %4 = phi i64 [ 1, %0 ], [ %7, %2 ]
  %5 = phi i64 [ 2, %0 ], [ %23, %2 ]
  %6 = mul nsw i64 %4, %5
  %7 = srem i64 %6, 1000000007
  %8 = getelementptr inbounds [210000 x i64], [210000 x i64]* @fac, i64 0, i64 %5
  store i64 %7, i64* %8, align 8, !tbaa !5
  %9 = trunc i64 %5 to i32
  %10 = urem i32 1000000007, %9
  %11 = zext i32 %10 to i64
  %12 = getelementptr inbounds [210000 x i64], [210000 x i64]* @inv, i64 0, i64 %11
  %13 = load i64, i64* %12, align 8, !tbaa !5
  %14 = udiv i32 1000000007, %9
  %15 = zext i32 %14 to i64
  %16 = mul nsw i64 %13, %15
  %17 = srem i64 %16, 1000000007
  %18 = sub nsw i64 1000000007, %17
  %19 = getelementptr inbounds [210000 x i64], [210000 x i64]* @inv, i64 0, i64 %5
  store i64 %18, i64* %19, align 8, !tbaa !5
  %20 = mul nsw i64 %18, %3
  %21 = srem i64 %20, 1000000007
  %22 = getelementptr inbounds [210000 x i64], [210000 x i64]* @finv, i64 0, i64 %5
  store i64 %21, i64* %22, align 8, !tbaa !5
  %23 = add nuw nsw i64 %5, 1
  %24 = icmp eq i64 %23, 210000
  br i1 %24, label %1, label %2, !llvm.loop !9
}

; Function Attrs: argmemonly mustprogress nofree nosync nounwind willreturn
declare void @llvm.lifetime.start.p0i8(i64 immarg, i8* nocapture) #5

; Function Attrs: argmemonly mustprogress nofree nosync nounwind willreturn
declare void @llvm.lifetime.end.p0i8(i64 immarg, i8* nocapture) #5

; Function Attrs: mustprogress nofree norecurse nosync nounwind readonly sspstrong uwtable willreturn
define dso_local i64 @_Z3COMii(i32 %0, i32 %1) local_unnamed_addr #6 {
  %3 = icmp slt i32 %0, %1
  br i1 %3, label %23, label %4

4:                                                ; preds = %2
  %5 = icmp slt i32 %0, 0
  %6 = icmp slt i32 %1, 0
  %7 = select i1 %5, i1 true, i1 %6
  br i1 %7, label %23, label %8

8:                                                ; preds = %4
  %9 = zext i32 %0 to i64
  %10 = getelementptr inbounds [210000 x i64], [210000 x i64]* @fac, i64 0, i64 %9
  %11 = load i64, i64* %10, align 8, !tbaa !5
  %12 = zext i32 %1 to i64
  %13 = getelementptr inbounds [210000 x i64], [210000 x i64]* @finv, i64 0, i64 %12
  %14 = load i64, i64* %13, align 8, !tbaa !5
  %15 = sub nsw i32 %0, %1
  %16 = sext i32 %15 to i64
  %17 = getelementptr inbounds [210000 x i64], [210000 x i64]* @finv, i64 0, i64 %16
  %18 = load i64, i64* %17, align 8, !tbaa !5
  %19 = mul nsw i64 %18, %14
  %20 = srem i64 %19, 1000000007
  %21 = mul nsw i64 %20, %11
  %22 = srem i64 %21, 1000000007
  br label %23

23:                                               ; preds = %4, %2, %8
  %24 = phi i64 [ %22, %8 ], [ 0, %2 ], [ 0, %4 ]
  ret i64 %24
}

; Function Attrs: mustprogress norecurse sspstrong uwtable
define dso_local i32 @main() local_unnamed_addr #7 {
  %1 = alloca i64, align 8
  %2 = alloca i64, align 8
  %3 = bitcast i64* %1 to i8*
  call void @llvm.lifetime.start.p0i8(i64 8, i8* nonnull %3) #9
  %4 = bitcast i64* %2 to i8*
  call void @llvm.lifetime.start.p0i8(i64 8, i8* nonnull %4) #9
  %5 = call nonnull align 8 dereferenceable(16) %"class.std::basic_istream"* @_ZNSi10_M_extractIxEERSiRT_(%"class.std::basic_istream"* nonnull align 8 dereferenceable(16) @_ZSt3cin, i64* nonnull align 8 dereferenceable(8) %1)
  %6 = call nonnull align 8 dereferenceable(16) %"class.std::basic_istream"* @_ZNSi10_M_extractIxEERSiRT_(%"class.std::basic_istream"* nonnull align 8 dereferenceable(16) %5, i64* nonnull align 8 dereferenceable(8) %2)
  store <2 x i64> <i64 1, i64 1>, <2 x i64>* bitcast ([210000 x i64]* @fac to <2 x i64>*), align 16, !tbaa !5
  store <2 x i64> <i64 1, i64 1>, <2 x i64>* bitcast ([210000 x i64]* @finv to <2 x i64>*), align 16, !tbaa !5
  store i64 1, i64* getelementptr inbounds ([210000 x i64], [210000 x i64]* @inv, i64 0, i64 1), align 8, !tbaa !5
  br label %7

7:                                                ; preds = %7, %0
  %8 = phi i64 [ 1, %0 ], [ %26, %7 ]
  %9 = phi i64 [ 1, %0 ], [ %12, %7 ]
  %10 = phi i64 [ 2, %0 ], [ %28, %7 ]
  %11 = mul nsw i64 %10, %9
  %12 = srem i64 %11, 1000000007
  %13 = getelementptr inbounds [210000 x i64], [210000 x i64]* @fac, i64 0, i64 %10
  store i64 %12, i64* %13, align 8, !tbaa !5
  %14 = trunc i64 %10 to i32
  %15 = urem i32 1000000007, %14
  %16 = zext i32 %15 to i64
  %17 = getelementptr inbounds [210000 x i64], [210000 x i64]* @inv, i64 0, i64 %16
  %18 = load i64, i64* %17, align 8, !tbaa !5
  %19 = udiv i32 1000000007, %14
  %20 = zext i32 %19 to i64
  %21 = mul nsw i64 %18, %20
  %22 = srem i64 %21, 1000000007
  %23 = sub nsw i64 1000000007, %22
  %24 = getelementptr inbounds [210000 x i64], [210000 x i64]* @inv, i64 0, i64 %10
  store i64 %23, i64* %24, align 8, !tbaa !5
  %25 = mul nsw i64 %23, %8
  %26 = srem i64 %25, 1000000007
  %27 = getelementptr inbounds [210000 x i64], [210000 x i64]* @finv, i64 0, i64 %10
  store i64 %26, i64* %27, align 8, !tbaa !5
  %28 = add nuw nsw i64 %10, 1
  %29 = icmp eq i64 %28, 210000
  br i1 %29, label %30, label %7, !llvm.loop !9

30:                                               ; preds = %7
  %31 = load i64, i64* %2, align 8, !tbaa !5
  %32 = icmp ne i64 %31, 1
  %33 = zext i1 %32 to i64
  %34 = load i64, i64* %1, align 8, !tbaa !5
  %35 = add nsw i64 %34, -1
  %36 = icmp slt i64 %31, %35
  %37 = select i1 %36, i64 %31, i64 %35
  %38 = trunc i64 %34 to i32
  %39 = and i64 %34, 4294967295
  %40 = getelementptr inbounds [210000 x i64], [210000 x i64]* @fac, i64 0, i64 %39
  %41 = add i32 %38, -1
  %42 = icmp slt i32 %41, 0
  %43 = zext i32 %41 to i64
  %44 = getelementptr inbounds [210000 x i64], [210000 x i64]* @fac, i64 0, i64 %43
  %45 = icmp slt i64 %37, 1
  %46 = icmp slt i32 %38, 0
  %47 = or i1 %46, %42
  %48 = select i1 %45, i1 true, i1 %47
  br i1 %48, label %49, label %52

49:                                               ; preds = %94, %30
  %50 = phi i64 [ %33, %30 ], [ %98, %94 ]
  %51 = call nonnull align 8 dereferenceable(8) %"class.std::basic_ostream"* @_ZNSo9_M_insertIxEERSoT_(%"class.std::basic_ostream"* nonnull align 8 dereferenceable(8) @_ZSt4cout, i64 %50)
  call void @llvm.lifetime.end.p0i8(i64 8, i8* nonnull %4) #9
  call void @llvm.lifetime.end.p0i8(i64 8, i8* nonnull %3) #9
  ret i32 0

52:                                               ; preds = %30, %94
  %53 = phi i64 [ %99, %94 ], [ 1, %30 ]
  %54 = phi i64 [ %98, %94 ], [ %33, %30 ]
  %55 = trunc i64 %53 to i32
  %56 = icmp slt i32 %38, %55
  %57 = icmp slt i32 %55, 0
  %58 = or i1 %56, %57
  br i1 %58, label %73, label %59

59:                                               ; preds = %52
  %60 = load i64, i64* %40, align 8, !tbaa !5
  %61 = and i64 %53, 4294967295
  %62 = getelementptr inbounds [210000 x i64], [210000 x i64]* @finv, i64 0, i64 %61
  %63 = load i64, i64* %62, align 8, !tbaa !5
  %64 = sub i64 %34, %53
  %65 = shl i64 %64, 32
  %66 = ashr exact i64 %65, 32
  %67 = getelementptr inbounds [210000 x i64], [210000 x i64]* @finv, i64 0, i64 %66
  %68 = load i64, i64* %67, align 8, !tbaa !5
  %69 = mul nsw i64 %68, %63
  %70 = srem i64 %69, 1000000007
  %71 = mul nsw i64 %70, %60
  %72 = srem i64 %71, 1000000007
  br label %73

73:                                               ; preds = %52, %59
  %74 = phi i64 [ %72, %59 ], [ 0, %52 ]
  %75 = xor i64 %53, -1
  %76 = add i64 %34, %75
  %77 = trunc i64 %76 to i32
  %78 = icmp slt i32 %41, %77
  %79 = icmp slt i32 %77, 0
  %80 = or i1 %78, %79
  br i1 %80, label %94, label %81

81:                                               ; preds = %73
  %82 = load i64, i64* %44, align 8, !tbaa !5
  %83 = and i64 %76, 4294967295
  %84 = getelementptr inbounds [210000 x i64], [210000 x i64]* @finv, i64 0, i64 %83
  %85 = load i64, i64* %84, align 8, !tbaa !5
  %86 = sub nsw i32 %41, %77
  %87 = sext i32 %86 to i64
  %88 = getelementptr inbounds [210000 x i64], [210000 x i64]* @finv, i64 0, i64 %87
  %89 = load i64, i64* %88, align 8, !tbaa !5
  %90 = mul nsw i64 %89, %85
  %91 = srem i64 %90, 1000000007
  %92 = mul nsw i64 %91, %82
  %93 = srem i64 %92, 1000000007
  br label %94

94:                                               ; preds = %73, %81
  %95 = phi i64 [ %93, %81 ], [ 0, %73 ]
  %96 = mul nsw i64 %95, %74
  %97 = add nsw i64 %96, %54
  %98 = srem i64 %97, 1000000007
  %99 = add nuw i64 %53, 1
  %100 = icmp eq i64 %53, %37
  br i1 %100, label %49, label %52, !llvm.loop !11
}

declare nonnull align 8 dereferenceable(16) %"class.std::basic_istream"* @_ZNSi10_M_extractIxEERSiRT_(%"class.std::basic_istream"* nonnull align 8 dereferenceable(16), i64* nonnull align 8 dereferenceable(8)) local_unnamed_addr #0

declare nonnull align 8 dereferenceable(8) %"class.std::basic_ostream"* @_ZNSo9_M_insertIxEERSoT_(%"class.std::basic_ostream"* nonnull align 8 dereferenceable(8), i64) local_unnamed_addr #0

; Function Attrs: sspstrong uwtable
define internal void @_GLOBAL__sub_I_s403184636.cpp() #8 section ".text.startup" {
  tail call void @_ZNSt8ios_base4InitC1Ev(%"class.std::ios_base::Init"* nonnull align 1 dereferenceable(1) @_ZStL8__ioinit)
  %1 = tail call i32 @__cxa_atexit(void (i8*)* bitcast (void (%"class.std::ios_base::Init"*)* @_ZNSt8ios_base4InitD1Ev to void (i8*)*), i8* getelementptr inbounds (%"class.std::ios_base::Init", %"class.std::ios_base::Init"* @_ZStL8__ioinit, i64 0, i32 0), i8* nonnull @__dso_handle) #9
  ret void
}

attributes #0 = { "frame-pointer"="none" "no-trapping-math"="true" "stack-protector-buffer-size"="8" "target-cpu"="x86-64" "target-features"="+cx8,+fxsr,+mmx,+sse,+sse2,+x87" "tune-cpu"="generic" }
attributes #1 = { nounwind "frame-pointer"="none" "no-trapping-math"="true" "stack-protector-buffer-size"="8" "target-cpu"="x86-64" "target-features"="+cx8,+fxsr,+mmx,+sse,+sse2,+x87" "tune-cpu"="generic" }
attributes #2 = { nofree nounwind }
attributes #3 = { mustprogress nofree nosync nounwind readnone sspstrong uwtable willreturn "frame-pointer"="none" "min-legal-vector-width"="0" "no-trapping-math"="true" "stack-protector-buffer-size"="8" "target-cpu"="x86-64" "target-features"="+cx8,+fxsr,+mmx,+sse,+sse2,+x87" "tune-cpu"="generic" }
attributes #4 = { mustprogress nofree norecurse nosync nounwind sspstrong uwtable "frame-pointer"="none" "min-legal-vector-width"="0" "no-trapping-math"="true" "stack-protector-buffer-size"="8" "target-cpu"="x86-64" "target-features"="+cx8,+fxsr,+mmx,+sse,+sse2,+x87" "tune-cpu"="generic" }
attributes #5 = { argmemonly mustprogress nofree nosync nounwind willreturn }
attributes #6 = { mustprogress nofree norecurse nosync nounwind readonly sspstrong uwtable willreturn "frame-pointer"="none" "min-legal-vector-width"="0" "no-trapping-math"="true" "stack-protector-buffer-size"="8" "target-cpu"="x86-64" "target-features"="+cx8,+fxsr,+mmx,+sse,+sse2,+x87" "tune-cpu"="generic" }
attributes #7 = { mustprogress norecurse sspstrong uwtable "frame-pointer"="none" "min-legal-vector-width"="0" "no-trapping-math"="true" "stack-protector-buffer-size"="8" "target-cpu"="x86-64" "target-features"="+cx8,+fxsr,+mmx,+sse,+sse2,+x87" "tune-cpu"="generic" }
attributes #8 = { sspstrong uwtable "frame-pointer"="none" "min-legal-vector-width"="0" "no-trapping-math"="true" "stack-protector-buffer-size"="8" "target-cpu"="x86-64" "target-features"="+cx8,+fxsr,+mmx,+sse,+sse2,+x87" "tune-cpu"="generic" }
attributes #9 = { nounwind }

!llvm.module.flags = !{!0, !1, !2, !3}
!llvm.ident = !{!4}

!0 = !{i32 1, !"wchar_size", i32 4}
!1 = !{i32 7, !"PIC Level", i32 2}
!2 = !{i32 7, !"PIE Level", i32 2}
!3 = !{i32 7, !"uwtable", i32 1}
!4 = !{!"clang version 13.0.0"}
!5 = !{!6, !6, i64 0}
!6 = !{!"long long", !7, i64 0}
!7 = !{!"omnipotent char", !8, i64 0}
!8 = !{!"Simple C++ TBAA"}
!9 = distinct !{!9, !10}
!10 = !{!"llvm.loop.mustprogress"}
!11 = distinct !{!11, !10}
