; ModuleID = 'Project_CodeNet_C++1400/p03421/s388926564.cpp'
source_filename = "Project_CodeNet_C++1400/p03421/s388926564.cpp"
target datalayout = "e-m:e-p270:32:32-p271:32:32-p272:64:64-i64:64-f80:128-n8:16:32:64-S128"
target triple = "x86_64-pc-linux-gnu"

%"class.std::ios_base::Init" = type { i8 }
%"class.std::multiset" = type { %"class.std::_Rb_tree" }
%"class.std::_Rb_tree" = type { %"struct.std::_Rb_tree<int, int, std::_Identity<int>, std::greater<int>>::_Rb_tree_impl" }
%"struct.std::_Rb_tree<int, int, std::_Identity<int>, std::greater<int>>::_Rb_tree_impl" = type { %"struct.std::_Rb_tree_key_compare", %"struct.std::_Rb_tree_header" }
%"struct.std::_Rb_tree_key_compare" = type { %"struct.std::greater" }
%"struct.std::greater" = type { i8 }
%"struct.std::_Rb_tree_header" = type { %"struct.std::_Rb_tree_node_base", i64 }
%"struct.std::_Rb_tree_node_base" = type { i32, %"struct.std::_Rb_tree_node_base"*, %"struct.std::_Rb_tree_node_base"*, %"struct.std::_Rb_tree_node_base"* }
%struct._IO_FILE = type { i32, i8*, i8*, i8*, i8*, i8*, i8*, i8*, i8*, i8*, i8*, i8*, %struct._IO_marker*, %struct._IO_FILE*, i32, i32, i64, i16, i8, [1 x i8], i8*, i64, %struct._IO_codecvt*, %struct._IO_wide_data*, %struct._IO_FILE*, i8*, i64, i32, [20 x i8] }
%struct._IO_marker = type opaque
%struct._IO_codecvt = type opaque
%struct._IO_wide_data = type opaque
%"class.std::basic_istream" = type { i32 (...)**, i64, %"class.std::basic_ios" }
%"class.std::basic_ios" = type { %"class.std::ios_base", %"class.std::basic_ostream"*, i8, i8, %"class.std::basic_streambuf"*, %"class.std::ctype"*, %"class.std::num_put"*, %"class.std::num_get"* }
%"class.std::ios_base" = type { i32 (...)**, i64, i64, i32, i32, i32, %"struct.std::ios_base::_Callback_list"*, %"struct.std::ios_base::_Words", [8 x %"struct.std::ios_base::_Words"], i32, %"struct.std::ios_base::_Words"*, %"class.std::locale" }
%"struct.std::ios_base::_Callback_list" = type { %"struct.std::ios_base::_Callback_list"*, void (i32, %"class.std::ios_base"*, i32)*, i32, i32 }
%"struct.std::ios_base::_Words" = type { i8*, i64 }
%"class.std::locale" = type { %"class.std::locale::_Impl"* }
%"class.std::locale::_Impl" = type { i32, %"class.std::locale::facet"**, i64, %"class.std::locale::facet"**, i8** }
%"class.std::locale::facet" = type <{ i32 (...)**, i32, [4 x i8] }>
%"class.std::basic_ostream" = type { i32 (...)**, %"class.std::basic_ios" }
%"class.std::basic_streambuf" = type { i32 (...)**, i8*, i8*, i8*, i8*, i8*, i8*, %"class.std::locale" }
%"class.std::ctype" = type <{ %"class.std::locale::facet.base", [4 x i8], %struct.__locale_struct*, i8, [7 x i8], i32*, i32*, i16*, i8, [256 x i8], [256 x i8], i8, [6 x i8] }>
%"class.std::locale::facet.base" = type <{ i32 (...)**, i32 }>
%struct.__locale_struct = type { [13 x %struct.__locale_data*], i16*, i32*, i32*, [13 x i8*] }
%struct.__locale_data = type opaque
%"class.std::num_put" = type { %"class.std::locale::facet.base", [4 x i8] }
%"class.std::num_get" = type { %"class.std::locale::facet.base", [4 x i8] }
%"struct.std::_Rb_tree_node" = type <{ %"struct.std::_Rb_tree_node_base", %"struct.__gnu_cxx::__aligned_membuf", [4 x i8] }>
%"struct.__gnu_cxx::__aligned_membuf" = type { [4 x i8] }

$__clang_call_terminate = comdat any

$_ZNSt8_Rb_treeIiiSt9_IdentityIiESt7greaterIiESaIiEE8_M_eraseEPSt13_Rb_tree_nodeIiE = comdat any

@_ZStL8__ioinit = internal global %"class.std::ios_base::Init" zeroinitializer, align 1
@__dso_handle = external hidden global i8
@s = dso_local global [500005 x %"class.std::multiset"] zeroinitializer, align 16
@n = dso_local local_unnamed_addr global i32 0, align 4
@a = dso_local local_unnamed_addr global [500005 x i32] zeroinitializer, align 16
@.str = private unnamed_addr constant [6 x i8] c"A.INP\00", align 1
@.str.2 = private unnamed_addr constant [2 x i8] c"r\00", align 1
@stdin = external local_unnamed_addr global %struct._IO_FILE*, align 8
@.str.3 = private unnamed_addr constant [6 x i8] c"A.OUT\00", align 1
@.str.4 = private unnamed_addr constant [2 x i8] c"w\00", align 1
@stdout = external local_unnamed_addr global %struct._IO_FILE*, align 8
@_ZSt3cin = external global %"class.std::basic_istream", align 8
@_ZSt4cout = external global %"class.std::basic_ostream", align 8
@.str.5 = private unnamed_addr constant [2 x i8] c" \00", align 1
@llvm.global_ctors = appending global [1 x { i32, void ()*, i8* }] [{ i32, void ()*, i8* } { i32 65535, void ()* @_GLOBAL__sub_I_s388926564.cpp, i8* null }]

declare void @_ZNSt8ios_base4InitC1Ev(%"class.std::ios_base::Init"* nonnull align 1 dereferenceable(1)) unnamed_addr #0

; Function Attrs: nounwind
declare void @_ZNSt8ios_base4InitD1Ev(%"class.std::ios_base::Init"* nonnull align 1 dereferenceable(1)) unnamed_addr #1

; Function Attrs: nofree nounwind
declare i32 @__cxa_atexit(void (i8*)*, i8*, i8*) local_unnamed_addr #2

; Function Attrs: nounwind sspstrong uwtable
define internal void @__cxx_global_array_dtor(i8* nocapture readnone %0) #3 section ".text.startup" personality i32 (...)* @__gxx_personality_v0 {
  br label %2

2:                                                ; preds = %13, %1
  %3 = phi %"class.std::multiset"* [ getelementptr inbounds ([500005 x %"class.std::multiset"], [500005 x %"class.std::multiset"]* @s, i64 1, i64 0), %1 ], [ %4, %13 ]
  %4 = getelementptr inbounds %"class.std::multiset", %"class.std::multiset"* %3, i64 -1
  %5 = getelementptr inbounds %"class.std::multiset", %"class.std::multiset"* %4, i64 0, i32 0
  %6 = getelementptr inbounds %"class.std::multiset", %"class.std::multiset"* %4, i64 0, i32 0, i32 0, i32 0, i32 0, i32 0
  %7 = getelementptr inbounds i8, i8* %6, i64 16
  %8 = bitcast i8* %7 to %"struct.std::_Rb_tree_node"**
  %9 = load %"struct.std::_Rb_tree_node"*, %"struct.std::_Rb_tree_node"** %8, align 8, !tbaa !5
  invoke void @_ZNSt8_Rb_treeIiiSt9_IdentityIiESt7greaterIiESaIiEE8_M_eraseEPSt13_Rb_tree_nodeIiE(%"class.std::_Rb_tree"* nonnull align 8 dereferenceable(48) %5, %"struct.std::_Rb_tree_node"* %9)
          to label %13 unwind label %10

10:                                               ; preds = %2
  %11 = landingpad { i8*, i32 }
          catch i8* null
  %12 = extractvalue { i8*, i32 } %11, 0
  tail call void @__clang_call_terminate(i8* %12) #11
  unreachable

13:                                               ; preds = %2
  %14 = icmp eq %"class.std::multiset"* %4, getelementptr inbounds ([500005 x %"class.std::multiset"], [500005 x %"class.std::multiset"]* @s, i64 0, i64 0)
  br i1 %14, label %15, label %2

15:                                               ; preds = %13
  ret void
}

; Function Attrs: mustprogress norecurse sspstrong uwtable
define dso_local i32 @main() local_unnamed_addr #4 {
  %1 = alloca i32, align 4
  %2 = alloca i32, align 4
  %3 = alloca i32, align 4
  %4 = tail call %struct._IO_FILE* @fopen(i8* getelementptr inbounds ([6 x i8], [6 x i8]* @.str, i64 0, i64 0), i8* getelementptr inbounds ([2 x i8], [2 x i8]* @.str.2, i64 0, i64 0))
  %5 = icmp eq %struct._IO_FILE* %4, null
  br i1 %5, label %11, label %6

6:                                                ; preds = %0
  %7 = load %struct._IO_FILE*, %struct._IO_FILE** @stdin, align 8, !tbaa !13
  %8 = tail call %struct._IO_FILE* @freopen(i8* getelementptr inbounds ([6 x i8], [6 x i8]* @.str, i64 0, i64 0), i8* getelementptr inbounds ([2 x i8], [2 x i8]* @.str.2, i64 0, i64 0), %struct._IO_FILE* %7)
  %9 = load %struct._IO_FILE*, %struct._IO_FILE** @stdout, align 8, !tbaa !13
  %10 = tail call %struct._IO_FILE* @freopen(i8* getelementptr inbounds ([6 x i8], [6 x i8]* @.str.3, i64 0, i64 0), i8* getelementptr inbounds ([2 x i8], [2 x i8]* @.str.4, i64 0, i64 0), %struct._IO_FILE* %9)
  br label %11

11:                                               ; preds = %6, %0
  %12 = bitcast i32* %1 to i8*
  call void @llvm.lifetime.start.p0i8(i64 4, i8* nonnull %12) #12
  %13 = bitcast i32* %2 to i8*
  call void @llvm.lifetime.start.p0i8(i64 4, i8* nonnull %13) #12
  %14 = bitcast i32* %3 to i8*
  call void @llvm.lifetime.start.p0i8(i64 4, i8* nonnull %14) #12
  %15 = call nonnull align 8 dereferenceable(16) %"class.std::basic_istream"* @_ZNSirsERi(%"class.std::basic_istream"* nonnull align 8 dereferenceable(16) @_ZSt3cin, i32* nonnull align 4 dereferenceable(4) %1)
  %16 = call nonnull align 8 dereferenceable(16) %"class.std::basic_istream"* @_ZNSirsERi(%"class.std::basic_istream"* nonnull align 8 dereferenceable(16) %15, i32* nonnull align 4 dereferenceable(4) %2)
  %17 = call nonnull align 8 dereferenceable(16) %"class.std::basic_istream"* @_ZNSirsERi(%"class.std::basic_istream"* nonnull align 8 dereferenceable(16) %16, i32* nonnull align 4 dereferenceable(4) %3)
  %18 = load i32, i32* %2, align 4, !tbaa !14
  %19 = load i32, i32* %3, align 4, !tbaa !14
  %20 = add nsw i32 %19, %18
  %21 = load i32, i32* %1, align 4, !tbaa !14
  %22 = add nsw i32 %21, 1
  %23 = icmp sgt i32 %20, %22
  br i1 %23, label %30, label %24

24:                                               ; preds = %11
  %25 = sext i32 %18 to i64
  %26 = sext i32 %19 to i64
  %27 = mul nsw i64 %26, %25
  %28 = sext i32 %21 to i64
  %29 = icmp slt i64 %27, %28
  br i1 %29, label %30, label %32

30:                                               ; preds = %24, %11
  %31 = call nonnull align 8 dereferenceable(8) %"class.std::basic_ostream"* @_ZNSolsEi(%"class.std::basic_ostream"* nonnull align 8 dereferenceable(8) @_ZSt4cout, i32 -1)
  br label %68

32:                                               ; preds = %24
  %33 = icmp slt i32 %18, 1
  br i1 %33, label %68, label %34

34:                                               ; preds = %32
  %35 = sub nsw i32 %21, %18
  br label %36

36:                                               ; preds = %34, %52
  %37 = phi i32 [ %54, %52 ], [ %18, %34 ]
  %38 = phi i32 [ %55, %52 ], [ %19, %34 ]
  %39 = phi i32 [ %60, %52 ], [ 1, %34 ]
  %40 = phi i32 [ %58, %52 ], [ 0, %34 ]
  %41 = phi i32 [ %59, %52 ], [ %35, %34 ]
  %42 = add nsw i32 %38, -1
  %43 = icmp sgt i32 %38, %41
  %44 = select i1 %43, i32 %41, i32 %42
  %45 = add i32 %40, 1
  %46 = add i32 %45, %44
  %47 = icmp sgt i32 %46, %40
  br i1 %47, label %62, label %52

48:                                               ; preds = %62
  %49 = load i32, i32* %3, align 4, !tbaa !14
  %50 = load i32, i32* %2, align 4, !tbaa !14
  %51 = add nsw i32 %49, -1
  br label %52

52:                                               ; preds = %48, %36
  %53 = phi i32 [ %51, %48 ], [ %42, %36 ]
  %54 = phi i32 [ %50, %48 ], [ %37, %36 ]
  %55 = phi i32 [ %49, %48 ], [ %38, %36 ]
  %56 = icmp sgt i32 %55, %41
  %57 = select i1 %56, i32 %41, i32 %53
  %58 = add i32 %45, %57
  %59 = sub nsw i32 %41, %57
  %60 = add nuw nsw i32 %39, 1
  %61 = icmp slt i32 %39, %54
  br i1 %61, label %36, label %68, !llvm.loop !16

62:                                               ; preds = %36, %62
  %63 = phi i32 [ %66, %62 ], [ %46, %36 ]
  %64 = call nonnull align 8 dereferenceable(8) %"class.std::basic_ostream"* @_ZNSolsEi(%"class.std::basic_ostream"* nonnull align 8 dereferenceable(8) @_ZSt4cout, i32 %63)
  %65 = call nonnull align 8 dereferenceable(8) %"class.std::basic_ostream"* @_ZSt16__ostream_insertIcSt11char_traitsIcEERSt13basic_ostreamIT_T0_ES6_PKS3_l(%"class.std::basic_ostream"* nonnull align 8 dereferenceable(8) %64, i8* nonnull getelementptr inbounds ([2 x i8], [2 x i8]* @.str.5, i64 0, i64 0), i64 1)
  %66 = add nsw i32 %63, -1
  %67 = icmp sgt i32 %66, %40
  br i1 %67, label %62, label %48, !llvm.loop !18

68:                                               ; preds = %52, %32, %30
  call void @llvm.lifetime.end.p0i8(i64 4, i8* nonnull %14) #12
  call void @llvm.lifetime.end.p0i8(i64 4, i8* nonnull %13) #12
  call void @llvm.lifetime.end.p0i8(i64 4, i8* nonnull %12) #12
  ret i32 0
}

; Function Attrs: nofree nounwind
declare noalias noundef %struct._IO_FILE* @fopen(i8* nocapture noundef readonly, i8* nocapture noundef readonly) local_unnamed_addr #5

declare %struct._IO_FILE* @freopen(i8*, i8*, %struct._IO_FILE*) local_unnamed_addr #0

; Function Attrs: argmemonly mustprogress nofree nosync nounwind willreturn
declare void @llvm.lifetime.start.p0i8(i64 immarg, i8* nocapture) #6

declare nonnull align 8 dereferenceable(16) %"class.std::basic_istream"* @_ZNSirsERi(%"class.std::basic_istream"* nonnull align 8 dereferenceable(16), i32* nonnull align 4 dereferenceable(4)) local_unnamed_addr #0

declare nonnull align 8 dereferenceable(8) %"class.std::basic_ostream"* @_ZNSolsEi(%"class.std::basic_ostream"* nonnull align 8 dereferenceable(8), i32) local_unnamed_addr #0

; Function Attrs: argmemonly mustprogress nofree nosync nounwind willreturn
declare void @llvm.lifetime.end.p0i8(i64 immarg, i8* nocapture) #6

declare i32 @__gxx_personality_v0(...)

; Function Attrs: noinline noreturn nounwind
define linkonce_odr hidden void @__clang_call_terminate(i8* %0) local_unnamed_addr #7 comdat {
  %2 = tail call i8* @__cxa_begin_catch(i8* %0) #12
  tail call void @_ZSt9terminatev() #11
  unreachable
}

declare i8* @__cxa_begin_catch(i8*) local_unnamed_addr

declare void @_ZSt9terminatev() local_unnamed_addr

; Function Attrs: mustprogress sspstrong uwtable
define linkonce_odr dso_local void @_ZNSt8_Rb_treeIiiSt9_IdentityIiESt7greaterIiESaIiEE8_M_eraseEPSt13_Rb_tree_nodeIiE(%"class.std::_Rb_tree"* nonnull align 8 dereferenceable(48) %0, %"struct.std::_Rb_tree_node"* %1) local_unnamed_addr #8 comdat align 2 personality i32 (...)* @__gxx_personality_v0 {
  %3 = icmp eq %"struct.std::_Rb_tree_node"* %1, null
  br i1 %3, label %14, label %4

4:                                                ; preds = %2, %4
  %5 = phi %"struct.std::_Rb_tree_node"* [ %11, %4 ], [ %1, %2 ]
  %6 = getelementptr inbounds %"struct.std::_Rb_tree_node", %"struct.std::_Rb_tree_node"* %5, i64 0, i32 0, i32 3
  %7 = bitcast %"struct.std::_Rb_tree_node_base"** %6 to %"struct.std::_Rb_tree_node"**
  %8 = load %"struct.std::_Rb_tree_node"*, %"struct.std::_Rb_tree_node"** %7, align 8, !tbaa !19
  tail call void @_ZNSt8_Rb_treeIiiSt9_IdentityIiESt7greaterIiESaIiEE8_M_eraseEPSt13_Rb_tree_nodeIiE(%"class.std::_Rb_tree"* nonnull align 8 dereferenceable(48) %0, %"struct.std::_Rb_tree_node"* %8)
  %9 = getelementptr inbounds %"struct.std::_Rb_tree_node", %"struct.std::_Rb_tree_node"* %5, i64 0, i32 0, i32 2
  %10 = bitcast %"struct.std::_Rb_tree_node_base"** %9 to %"struct.std::_Rb_tree_node"**
  %11 = load %"struct.std::_Rb_tree_node"*, %"struct.std::_Rb_tree_node"** %10, align 8, !tbaa !20
  %12 = bitcast %"struct.std::_Rb_tree_node"* %5 to i8*
  tail call void @_ZdlPv(i8* nonnull %12) #12
  %13 = icmp eq %"struct.std::_Rb_tree_node"* %11, null
  br i1 %13, label %14, label %4, !llvm.loop !21

14:                                               ; preds = %4, %2
  ret void
}

; Function Attrs: nobuiltin nounwind
declare void @_ZdlPv(i8*) local_unnamed_addr #9

declare nonnull align 8 dereferenceable(8) %"class.std::basic_ostream"* @_ZSt16__ostream_insertIcSt11char_traitsIcEERSt13basic_ostreamIT_T0_ES6_PKS3_l(%"class.std::basic_ostream"* nonnull align 8 dereferenceable(8), i8*, i64) local_unnamed_addr #0

; Function Attrs: sspstrong uwtable
define internal void @_GLOBAL__sub_I_s388926564.cpp() #10 section ".text.startup" personality i32 (...)* @__gxx_personality_v0 {
  tail call void @_ZNSt8ios_base4InitC1Ev(%"class.std::ios_base::Init"* nonnull align 1 dereferenceable(1) @_ZStL8__ioinit)
  %1 = tail call i32 @__cxa_atexit(void (i8*)* bitcast (void (%"class.std::ios_base::Init"*)* @_ZNSt8ios_base4InitD1Ev to void (i8*)*), i8* getelementptr inbounds (%"class.std::ios_base::Init", %"class.std::ios_base::Init"* @_ZStL8__ioinit, i64 0, i32 0), i8* nonnull @__dso_handle) #12
  br label %2

2:                                                ; preds = %2, %0
  %3 = phi %"class.std::multiset"* [ getelementptr inbounds ([500005 x %"class.std::multiset"], [500005 x %"class.std::multiset"]* @s, i64 0, i64 0), %0 ], [ %59, %2 ]
  %4 = getelementptr inbounds %"class.std::multiset", %"class.std::multiset"* %3, i64 0, i32 0, i32 0, i32 0, i32 0, i32 0
  %5 = getelementptr inbounds i8, i8* %4, i64 8
  %6 = bitcast i8* %5 to i32*
  store i32 0, i32* %6, align 8, !tbaa !22
  %7 = getelementptr inbounds i8, i8* %4, i64 16
  %8 = bitcast i8* %7 to %"struct.std::_Rb_tree_node_base"**
  store %"struct.std::_Rb_tree_node_base"* null, %"struct.std::_Rb_tree_node_base"** %8, align 8, !tbaa !5
  %9 = getelementptr inbounds i8, i8* %4, i64 24
  %10 = bitcast i8* %9 to i8**
  store i8* %5, i8** %10, align 8, !tbaa !23
  %11 = getelementptr inbounds i8, i8* %4, i64 32
  %12 = bitcast i8* %11 to i8**
  store i8* %5, i8** %12, align 8, !tbaa !24
  %13 = getelementptr inbounds i8, i8* %4, i64 40
  %14 = bitcast i8* %13 to i64*
  store i64 0, i64* %14, align 8, !tbaa !25
  %15 = getelementptr inbounds %"class.std::multiset", %"class.std::multiset"* %3, i64 1, i32 0, i32 0, i32 0, i32 0, i32 0
  %16 = getelementptr inbounds i8, i8* %15, i64 8
  %17 = bitcast i8* %16 to i32*
  store i32 0, i32* %17, align 8, !tbaa !22
  %18 = getelementptr inbounds i8, i8* %15, i64 16
  %19 = bitcast i8* %18 to %"struct.std::_Rb_tree_node_base"**
  store %"struct.std::_Rb_tree_node_base"* null, %"struct.std::_Rb_tree_node_base"** %19, align 8, !tbaa !5
  %20 = getelementptr inbounds i8, i8* %15, i64 24
  %21 = bitcast i8* %20 to i8**
  store i8* %16, i8** %21, align 8, !tbaa !23
  %22 = getelementptr inbounds i8, i8* %15, i64 32
  %23 = bitcast i8* %22 to i8**
  store i8* %16, i8** %23, align 8, !tbaa !24
  %24 = getelementptr inbounds i8, i8* %15, i64 40
  %25 = bitcast i8* %24 to i64*
  store i64 0, i64* %25, align 8, !tbaa !25
  %26 = getelementptr inbounds %"class.std::multiset", %"class.std::multiset"* %3, i64 2, i32 0, i32 0, i32 0, i32 0, i32 0
  %27 = getelementptr inbounds i8, i8* %26, i64 8
  %28 = bitcast i8* %27 to i32*
  store i32 0, i32* %28, align 8, !tbaa !22
  %29 = getelementptr inbounds i8, i8* %26, i64 16
  %30 = bitcast i8* %29 to %"struct.std::_Rb_tree_node_base"**
  store %"struct.std::_Rb_tree_node_base"* null, %"struct.std::_Rb_tree_node_base"** %30, align 8, !tbaa !5
  %31 = getelementptr inbounds i8, i8* %26, i64 24
  %32 = bitcast i8* %31 to i8**
  store i8* %27, i8** %32, align 8, !tbaa !23
  %33 = getelementptr inbounds i8, i8* %26, i64 32
  %34 = bitcast i8* %33 to i8**
  store i8* %27, i8** %34, align 8, !tbaa !24
  %35 = getelementptr inbounds i8, i8* %26, i64 40
  %36 = bitcast i8* %35 to i64*
  store i64 0, i64* %36, align 8, !tbaa !25
  %37 = getelementptr inbounds %"class.std::multiset", %"class.std::multiset"* %3, i64 3, i32 0, i32 0, i32 0, i32 0, i32 0
  %38 = getelementptr inbounds i8, i8* %37, i64 8
  %39 = bitcast i8* %38 to i32*
  store i32 0, i32* %39, align 8, !tbaa !22
  %40 = getelementptr inbounds i8, i8* %37, i64 16
  %41 = bitcast i8* %40 to %"struct.std::_Rb_tree_node_base"**
  store %"struct.std::_Rb_tree_node_base"* null, %"struct.std::_Rb_tree_node_base"** %41, align 8, !tbaa !5
  %42 = getelementptr inbounds i8, i8* %37, i64 24
  %43 = bitcast i8* %42 to i8**
  store i8* %38, i8** %43, align 8, !tbaa !23
  %44 = getelementptr inbounds i8, i8* %37, i64 32
  %45 = bitcast i8* %44 to i8**
  store i8* %38, i8** %45, align 8, !tbaa !24
  %46 = getelementptr inbounds i8, i8* %37, i64 40
  %47 = bitcast i8* %46 to i64*
  store i64 0, i64* %47, align 8, !tbaa !25
  %48 = getelementptr inbounds %"class.std::multiset", %"class.std::multiset"* %3, i64 4, i32 0, i32 0, i32 0, i32 0, i32 0
  %49 = getelementptr inbounds i8, i8* %48, i64 8
  %50 = bitcast i8* %49 to i32*
  store i32 0, i32* %50, align 8, !tbaa !22
  %51 = getelementptr inbounds i8, i8* %48, i64 16
  %52 = bitcast i8* %51 to %"struct.std::_Rb_tree_node_base"**
  store %"struct.std::_Rb_tree_node_base"* null, %"struct.std::_Rb_tree_node_base"** %52, align 8, !tbaa !5
  %53 = getelementptr inbounds i8, i8* %48, i64 24
  %54 = bitcast i8* %53 to i8**
  store i8* %49, i8** %54, align 8, !tbaa !23
  %55 = getelementptr inbounds i8, i8* %48, i64 32
  %56 = bitcast i8* %55 to i8**
  store i8* %49, i8** %56, align 8, !tbaa !24
  %57 = getelementptr inbounds i8, i8* %48, i64 40
  %58 = bitcast i8* %57 to i64*
  store i64 0, i64* %58, align 8, !tbaa !25
  %59 = getelementptr inbounds %"class.std::multiset", %"class.std::multiset"* %3, i64 5
  %60 = icmp eq %"class.std::multiset"* %59, getelementptr inbounds ([500005 x %"class.std::multiset"], [500005 x %"class.std::multiset"]* @s, i64 1, i64 0)
  br i1 %60, label %61, label %2

61:                                               ; preds = %2
  %62 = tail call i32 @__cxa_atexit(void (i8*)* nonnull @__cxx_global_array_dtor, i8* null, i8* nonnull @__dso_handle) #12
  ret void
}

attributes #0 = { "frame-pointer"="none" "no-trapping-math"="true" "stack-protector-buffer-size"="8" "target-cpu"="x86-64" "target-features"="+cx8,+fxsr,+mmx,+sse,+sse2,+x87" "tune-cpu"="generic" }
attributes #1 = { nounwind "frame-pointer"="none" "no-trapping-math"="true" "stack-protector-buffer-size"="8" "target-cpu"="x86-64" "target-features"="+cx8,+fxsr,+mmx,+sse,+sse2,+x87" "tune-cpu"="generic" }
attributes #2 = { nofree nounwind }
attributes #3 = { nounwind sspstrong uwtable "frame-pointer"="none" "min-legal-vector-width"="0" "no-trapping-math"="true" "stack-protector-buffer-size"="8" "target-cpu"="x86-64" "target-features"="+cx8,+fxsr,+mmx,+sse,+sse2,+x87" "tune-cpu"="generic" }
attributes #4 = { mustprogress norecurse sspstrong uwtable "frame-pointer"="none" "min-legal-vector-width"="0" "no-trapping-math"="true" "stack-protector-buffer-size"="8" "target-cpu"="x86-64" "target-features"="+cx8,+fxsr,+mmx,+sse,+sse2,+x87" "tune-cpu"="generic" }
attributes #5 = { nofree nounwind "frame-pointer"="none" "no-trapping-math"="true" "stack-protector-buffer-size"="8" "target-cpu"="x86-64" "target-features"="+cx8,+fxsr,+mmx,+sse,+sse2,+x87" "tune-cpu"="generic" }
attributes #6 = { argmemonly mustprogress nofree nosync nounwind willreturn }
attributes #7 = { noinline noreturn nounwind }
attributes #8 = { mustprogress sspstrong uwtable "frame-pointer"="none" "min-legal-vector-width"="0" "no-trapping-math"="true" "stack-protector-buffer-size"="8" "target-cpu"="x86-64" "target-features"="+cx8,+fxsr,+mmx,+sse,+sse2,+x87" "tune-cpu"="generic" }
attributes #9 = { nobuiltin nounwind "frame-pointer"="none" "no-trapping-math"="true" "stack-protector-buffer-size"="8" "target-cpu"="x86-64" "target-features"="+cx8,+fxsr,+mmx,+sse,+sse2,+x87" "tune-cpu"="generic" }
attributes #10 = { sspstrong uwtable "frame-pointer"="none" "min-legal-vector-width"="0" "no-trapping-math"="true" "stack-protector-buffer-size"="8" "target-cpu"="x86-64" "target-features"="+cx8,+fxsr,+mmx,+sse,+sse2,+x87" "tune-cpu"="generic" }
attributes #11 = { noreturn nounwind }
attributes #12 = { nounwind }

!llvm.module.flags = !{!0, !1, !2, !3}
!llvm.ident = !{!4}

!0 = !{i32 1, !"wchar_size", i32 4}
!1 = !{i32 7, !"PIC Level", i32 2}
!2 = !{i32 7, !"PIE Level", i32 2}
!3 = !{i32 7, !"uwtable", i32 1}
!4 = !{!"clang version 13.0.0"}
!5 = !{!6, !11, i64 8}
!6 = !{!"_ZTSSt15_Rb_tree_header", !7, i64 0, !12, i64 32}
!7 = !{!"_ZTSSt18_Rb_tree_node_base", !8, i64 0, !11, i64 8, !11, i64 16, !11, i64 24}
!8 = !{!"_ZTSSt14_Rb_tree_color", !9, i64 0}
!9 = !{!"omnipotent char", !10, i64 0}
!10 = !{!"Simple C++ TBAA"}
!11 = !{!"any pointer", !9, i64 0}
!12 = !{!"long", !9, i64 0}
!13 = !{!11, !11, i64 0}
!14 = !{!15, !15, i64 0}
!15 = !{!"int", !9, i64 0}
!16 = distinct !{!16, !17}
!17 = !{!"llvm.loop.mustprogress"}
!18 = distinct !{!18, !17}
!19 = !{!7, !11, i64 24}
!20 = !{!7, !11, i64 16}
!21 = distinct !{!21, !17}
!22 = !{!6, !8, i64 0}
!23 = !{!6, !11, i64 16}
!24 = !{!6, !11, i64 24}
!25 = !{!6, !12, i64 32}
