; ModuleID = 'Project_CodeNet_C++1400/p02840/s809615985.cpp'
source_filename = "Project_CodeNet_C++1400/p02840/s809615985.cpp"
target datalayout = "e-m:e-p270:32:32-p271:32:32-p272:64:64-i64:64-f80:128-n8:16:32:64-S128"
target triple = "x86_64-pc-linux-gnu"

%"class.std::ios_base::Init" = type { i8 }
%"class.std::basic_istream" = type { i32 (...)**, i64, %"class.std::basic_ios" }
%"class.std::basic_ios" = type { %"class.std::ios_base", %"class.std::basic_ostream"*, i8, i8, %"class.std::basic_streambuf"*, %"class.std::ctype"*, %"class.std::num_put"*, %"class.std::num_get"* }
%"class.std::ios_base" = type { i32 (...)**, i64, i64, i32, i32, i32, %"struct.std::ios_base::_Callback_list"*, %"struct.std::ios_base::_Words", [8 x %"struct.std::ios_base::_Words"], i32, %"struct.std::ios_base::_Words"*, %"class.std::locale" }
%"struct.std::ios_base::_Callback_list" = type { %"struct.std::ios_base::_Callback_list"*, void (i32, %"class.std::ios_base"*, i32)*, i32, i32 }
%"struct.std::ios_base::_Words" = type { i8*, i64 }
%"class.std::locale" = type { %"class.std::locale::_Impl"* }
%"class.std::locale::_Impl" = type { i32, %"class.std::locale::facet"**, i64, %"class.std::locale::facet"**, i8** }
%"class.std::locale::facet" = type <{ i32 (...)**, i32, [4 x i8] }>
%"class.std::basic_ostream" = type { i32 (...)**, %"class.std::basic_ios" }
%"class.std::basic_streambuf" = type { i32 (...)**, i8*, i8*, i8*, i8*, i8*, i8*, %"class.std::locale" }
%"class.std::ctype" = type <{ %"class.std::locale::facet.base", [4 x i8], %struct.__locale_struct*, i8, [7 x i8], i32*, i32*, i16*, i8, [256 x i8], [256 x i8], i8, [6 x i8] }>
%"class.std::locale::facet.base" = type <{ i32 (...)**, i32 }>
%struct.__locale_struct = type { [13 x %struct.__locale_data*], i16*, i32*, i32*, [13 x i8*] }
%struct.__locale_data = type opaque
%"class.std::num_put" = type { %"class.std::locale::facet.base", [4 x i8] }
%"class.std::num_get" = type { %"class.std::locale::facet.base", [4 x i8] }
%"struct.std::piecewise_construct_t" = type { i8 }
%"class.std::tuple.13" = type { %"struct.std::_Tuple_impl.14" }
%"struct.std::_Tuple_impl.14" = type { %"struct.std::_Head_base.15" }
%"struct.std::_Head_base.15" = type { i64* }
%"class.std::tuple.16" = type { i8 }
%"class.std::map" = type { %"class.std::_Rb_tree" }
%"class.std::_Rb_tree" = type { %"struct.std::_Rb_tree<long long, std::pair<const long long, std::vector<std::pair<long long, long long>>>, std::_Select1st<std::pair<const long long, std::vector<std::pair<long long, long long>>>>, std::less<long long>>::_Rb_tree_impl" }
%"struct.std::_Rb_tree<long long, std::pair<const long long, std::vector<std::pair<long long, long long>>>, std::_Select1st<std::pair<const long long, std::vector<std::pair<long long, long long>>>>, std::less<long long>>::_Rb_tree_impl" = type { %"struct.std::_Rb_tree_key_compare", %"struct.std::_Rb_tree_header" }
%"struct.std::_Rb_tree_key_compare" = type { %"struct.std::less" }
%"struct.std::less" = type { i8 }
%"struct.std::_Rb_tree_header" = type { %"struct.std::_Rb_tree_node_base", i64 }
%"struct.std::_Rb_tree_node_base" = type { i32, %"struct.std::_Rb_tree_node_base"*, %"struct.std::_Rb_tree_node_base"*, %"struct.std::_Rb_tree_node_base"* }
%"struct.std::pair.3" = type { i64, %"class.std::vector" }
%"class.std::vector" = type { %"struct.std::_Vector_base" }
%"struct.std::_Vector_base" = type { %"struct.std::_Vector_base<std::pair<long long, long long>, std::allocator<std::pair<long long, long long>>>::_Vector_impl" }
%"struct.std::_Vector_base<std::pair<long long, long long>, std::allocator<std::pair<long long, long long>>>::_Vector_impl" = type { %"struct.std::_Vector_base<std::pair<long long, long long>, std::allocator<std::pair<long long, long long>>>::_Vector_impl_data" }
%"struct.std::_Vector_base<std::pair<long long, long long>, std::allocator<std::pair<long long, long long>>>::_Vector_impl_data" = type { %"struct.std::pair"*, %"struct.std::pair"*, %"struct.std::pair"* }
%"struct.std::pair" = type { i64, i64 }
%"struct.std::_Rb_tree_node" = type { %"struct.std::_Rb_tree_node_base", %"struct.__gnu_cxx::__aligned_membuf" }
%"struct.__gnu_cxx::__aligned_membuf" = type { [32 x i8] }

$__clang_call_terminate = comdat any

$_ZNSt8_Rb_treeIxSt4pairIKxSt6vectorIS0_IxxESaIS3_EEESt10_Select1stIS6_ESt4lessIxESaIS6_EED2Ev = comdat any

$_ZNSt8_Rb_treeIxSt4pairIKxSt6vectorIS0_IxxESaIS3_EEESt10_Select1stIS6_ESt4lessIxESaIS6_EE8_M_eraseEPSt13_Rb_tree_nodeIS6_E = comdat any

$_ZNSt8_Rb_treeIxSt4pairIKxSt6vectorIS0_IxxESaIS3_EEESt10_Select1stIS6_ESt4lessIxESaIS6_EE12_M_drop_nodeEPSt13_Rb_tree_nodeIS6_E = comdat any

$_ZNSt8_Rb_treeIxSt4pairIKxSt6vectorIS0_IxxESaIS3_EEESt10_Select1stIS6_ESt4lessIxESaIS6_EE22_M_emplace_hint_uniqueIJRKSt21piecewise_construct_tSt5tupleIJRS1_EESH_IJEEEEESt17_Rb_tree_iteratorIS6_ESt23_Rb_tree_const_iteratorIS6_EDpOT_ = comdat any

$_ZNSt8_Rb_treeIxSt4pairIKxSt6vectorIS0_IxxESaIS3_EEESt10_Select1stIS6_ESt4lessIxESaIS6_EE29_M_get_insert_hint_unique_posESt23_Rb_tree_const_iteratorIS6_ERS1_ = comdat any

$_ZNSt6vectorISt4pairIxxESaIS1_EEaSERKS3_ = comdat any

$_ZSt16__introsort_loopIN9__gnu_cxx17__normal_iteratorIPSt4pairIxxESt6vectorIS3_SaIS3_EEEElNS0_5__ops15_Iter_less_iterEEvT_SB_T0_T1_ = comdat any

$_ZSt22__final_insertion_sortIN9__gnu_cxx17__normal_iteratorIPSt4pairIxxESt6vectorIS3_SaIS3_EEEENS0_5__ops15_Iter_less_iterEEvT_SB_T0_ = comdat any

$_ZSt13__adjust_heapIN9__gnu_cxx17__normal_iteratorIPSt4pairIxxESt6vectorIS3_SaIS3_EEEElS3_NS0_5__ops15_Iter_less_iterEEvT_T0_SC_T1_T2_ = comdat any

$_ZSt22__move_median_to_firstIN9__gnu_cxx17__normal_iteratorIPSt4pairIxxESt6vectorIS3_SaIS3_EEEENS0_5__ops15_Iter_less_iterEEvT_SB_SB_SB_T0_ = comdat any

@_ZStL8__ioinit = internal global %"class.std::ios_base::Init" zeroinitializer, align 1
@__dso_handle = external hidden global i8
@_ZL2PI = internal global x86_fp80 0xK00000000000000000000, align 16
@_ZSt3cin = external global %"class.std::basic_istream", align 8
@_ZSt4cout = external global %"class.std::basic_ostream", align 8
@_ZStL19piecewise_construct = internal constant %"struct.std::piecewise_construct_t" undef, align 1
@.str = private unnamed_addr constant [26 x i8] c"vector::_M_realloc_insert\00", align 1
@llvm.global_ctors = appending global [1 x { i32, void ()*, i8* }] [{ i32, void ()*, i8* } { i32 65535, void ()* @_GLOBAL__sub_I_s809615985.cpp, i8* null }]

declare void @_ZNSt8ios_base4InitC1Ev(%"class.std::ios_base::Init"* nonnull align 1 dereferenceable(1)) unnamed_addr #0

; Function Attrs: nounwind
declare void @_ZNSt8ios_base4InitD1Ev(%"class.std::ios_base::Init"* nonnull align 1 dereferenceable(1)) unnamed_addr #1

; Function Attrs: nofree nounwind
declare i32 @__cxa_atexit(void (i8*)*, i8*, i8*) local_unnamed_addr #2

; Function Attrs: argmemonly mustprogress nofree nosync nounwind willreturn
declare {}* @llvm.invariant.start.p0i8(i64 immarg, i8* nocapture) #3

; Function Attrs: norecurse sspstrong uwtable
define dso_local i32 @main() local_unnamed_addr #4 personality i8* bitcast (i32 (...)* @__gxx_personality_v0 to i8*) {
  %1 = alloca %"class.std::tuple.13", align 8
  %2 = alloca %"class.std::tuple.16", align 1
  %3 = alloca i64, align 8
  %4 = alloca i64, align 8
  %5 = alloca i64, align 8
  %6 = alloca %"class.std::map", align 8
  %7 = alloca i64, align 8
  %8 = alloca %"struct.std::pair.3", align 8
  %9 = alloca %"class.std::vector", align 8
  %10 = tail call i64 @time(i64* null) #19
  %11 = trunc i64 %10 to i32
  tail call void @srand(i32 %11) #19
  %12 = load i8*, i8** bitcast (%"class.std::basic_istream"* @_ZSt3cin to i8**), align 8, !tbaa !5
  %13 = getelementptr i8, i8* %12, i64 -24
  %14 = bitcast i8* %13 to i64*
  %15 = load i64, i64* %14, align 8
  %16 = add nsw i64 %15, 216
  %17 = getelementptr inbounds i8, i8* bitcast (%"class.std::basic_istream"* @_ZSt3cin to i8*), i64 %16
  %18 = bitcast i8* %17 to %"class.std::basic_ostream"**
  store %"class.std::basic_ostream"* null, %"class.std::basic_ostream"** %18, align 8, !tbaa !8
  %19 = tail call zeroext i1 @_ZNSt8ios_base15sync_with_stdioEb(i1 zeroext false)
  %20 = load i8*, i8** bitcast (%"class.std::basic_ostream"* @_ZSt4cout to i8**), align 8, !tbaa !5
  %21 = getelementptr i8, i8* %20, i64 -24
  %22 = bitcast i8* %21 to i64*
  %23 = load i64, i64* %22, align 8
  %24 = add nsw i64 %23, 24
  %25 = getelementptr inbounds i8, i8* bitcast (%"class.std::basic_ostream"* @_ZSt4cout to i8*), i64 %24
  %26 = bitcast i8* %25 to i32*
  %27 = load i32, i32* %26, align 8, !tbaa !13
  %28 = and i32 %27, -261
  %29 = or i32 %28, 4
  store i32 %29, i32* %26, align 8, !tbaa !21
  %30 = load i64, i64* %22, align 8
  %31 = add nsw i64 %30, 8
  %32 = getelementptr inbounds i8, i8* bitcast (%"class.std::basic_ostream"* @_ZSt4cout to i8*), i64 %31
  %33 = bitcast i8* %32 to i64*
  store i64 12, i64* %33, align 8, !tbaa !22
  %34 = bitcast i64* %3 to i8*
  call void @llvm.lifetime.start.p0i8(i64 8, i8* nonnull %34) #19
  %35 = bitcast i64* %4 to i8*
  call void @llvm.lifetime.start.p0i8(i64 8, i8* nonnull %35) #19
  %36 = bitcast i64* %5 to i8*
  call void @llvm.lifetime.start.p0i8(i64 8, i8* nonnull %36) #19
  %37 = call nonnull align 8 dereferenceable(16) %"class.std::basic_istream"* @_ZNSi10_M_extractIxEERSiRT_(%"class.std::basic_istream"* nonnull align 8 dereferenceable(16) @_ZSt3cin, i64* nonnull align 8 dereferenceable(8) %3)
  %38 = call nonnull align 8 dereferenceable(16) %"class.std::basic_istream"* @_ZNSi10_M_extractIxEERSiRT_(%"class.std::basic_istream"* nonnull align 8 dereferenceable(16) %37, i64* nonnull align 8 dereferenceable(8) %4)
  %39 = call nonnull align 8 dereferenceable(16) %"class.std::basic_istream"* @_ZNSi10_M_extractIxEERSiRT_(%"class.std::basic_istream"* nonnull align 8 dereferenceable(16) %38, i64* nonnull align 8 dereferenceable(8) %5)
  %40 = load i64, i64* %5, align 8, !tbaa !23
  %41 = icmp slt i64 %40, 0
  br i1 %41, label %42, label %46

42:                                               ; preds = %0
  %43 = load i64, i64* %4, align 8, !tbaa !23
  %44 = sub nsw i64 0, %43
  store i64 %44, i64* %4, align 8, !tbaa !23
  %45 = sub nsw i64 0, %40
  store i64 %45, i64* %5, align 8, !tbaa !23
  br label %115

46:                                               ; preds = %0
  %47 = icmp eq i64 %40, 0
  br i1 %47, label %48, label %115

48:                                               ; preds = %46
  %49 = load i64, i64* %4, align 8, !tbaa !23
  %50 = icmp eq i64 %49, 0
  br i1 %50, label %51, label %82

51:                                               ; preds = %48
  %52 = call nonnull align 8 dereferenceable(8) %"class.std::basic_ostream"* @_ZNSolsEi(%"class.std::basic_ostream"* nonnull align 8 dereferenceable(8) @_ZSt4cout, i32 1)
  %53 = bitcast %"class.std::basic_ostream"* %52 to i8**
  %54 = load i8*, i8** %53, align 8, !tbaa !5
  %55 = getelementptr i8, i8* %54, i64 -24
  %56 = bitcast i8* %55 to i64*
  %57 = load i64, i64* %56, align 8
  %58 = bitcast %"class.std::basic_ostream"* %52 to i8*
  %59 = add nsw i64 %57, 240
  %60 = getelementptr inbounds i8, i8* %58, i64 %59
  %61 = bitcast i8* %60 to %"class.std::ctype"**
  %62 = load %"class.std::ctype"*, %"class.std::ctype"** %61, align 8, !tbaa !25
  %63 = icmp eq %"class.std::ctype"* %62, null
  br i1 %63, label %64, label %65

64:                                               ; preds = %51
  call void @_ZSt16__throw_bad_castv() #20
  unreachable

65:                                               ; preds = %51
  %66 = getelementptr inbounds %"class.std::ctype", %"class.std::ctype"* %62, i64 0, i32 8
  %67 = load i8, i8* %66, align 8, !tbaa !26
  %68 = icmp eq i8 %67, 0
  br i1 %68, label %72, label %69

69:                                               ; preds = %65
  %70 = getelementptr inbounds %"class.std::ctype", %"class.std::ctype"* %62, i64 0, i32 9, i64 10
  %71 = load i8, i8* %70, align 1, !tbaa !28
  br label %78

72:                                               ; preds = %65
  call void @_ZNKSt5ctypeIcE13_M_widen_initEv(%"class.std::ctype"* nonnull align 8 dereferenceable(570) %62)
  %73 = bitcast %"class.std::ctype"* %62 to i8 (%"class.std::ctype"*, i8)***
  %74 = load i8 (%"class.std::ctype"*, i8)**, i8 (%"class.std::ctype"*, i8)*** %73, align 8, !tbaa !5
  %75 = getelementptr inbounds i8 (%"class.std::ctype"*, i8)*, i8 (%"class.std::ctype"*, i8)** %74, i64 6
  %76 = load i8 (%"class.std::ctype"*, i8)*, i8 (%"class.std::ctype"*, i8)** %75, align 8
  %77 = call signext i8 %76(%"class.std::ctype"* nonnull align 8 dereferenceable(570) %62, i8 signext 10)
  br label %78

78:                                               ; preds = %69, %72
  %79 = phi i8 [ %71, %69 ], [ %77, %72 ]
  %80 = call nonnull align 8 dereferenceable(8) %"class.std::basic_ostream"* @_ZNSo3putEc(%"class.std::basic_ostream"* nonnull align 8 dereferenceable(8) %52, i8 signext %79)
  %81 = call nonnull align 8 dereferenceable(8) %"class.std::basic_ostream"* @_ZNSo5flushEv(%"class.std::basic_ostream"* nonnull align 8 dereferenceable(8) %80)
  br label %497

82:                                               ; preds = %48
  %83 = load i64, i64* %3, align 8, !tbaa !23
  %84 = add nsw i64 %83, 1
  %85 = call nonnull align 8 dereferenceable(8) %"class.std::basic_ostream"* @_ZNSo9_M_insertIxEERSoT_(%"class.std::basic_ostream"* nonnull align 8 dereferenceable(8) @_ZSt4cout, i64 %84)
  %86 = bitcast %"class.std::basic_ostream"* %85 to i8**
  %87 = load i8*, i8** %86, align 8, !tbaa !5
  %88 = getelementptr i8, i8* %87, i64 -24
  %89 = bitcast i8* %88 to i64*
  %90 = load i64, i64* %89, align 8
  %91 = bitcast %"class.std::basic_ostream"* %85 to i8*
  %92 = add nsw i64 %90, 240
  %93 = getelementptr inbounds i8, i8* %91, i64 %92
  %94 = bitcast i8* %93 to %"class.std::ctype"**
  %95 = load %"class.std::ctype"*, %"class.std::ctype"** %94, align 8, !tbaa !25
  %96 = icmp eq %"class.std::ctype"* %95, null
  br i1 %96, label %97, label %98

97:                                               ; preds = %82
  call void @_ZSt16__throw_bad_castv() #20
  unreachable

98:                                               ; preds = %82
  %99 = getelementptr inbounds %"class.std::ctype", %"class.std::ctype"* %95, i64 0, i32 8
  %100 = load i8, i8* %99, align 8, !tbaa !26
  %101 = icmp eq i8 %100, 0
  br i1 %101, label %105, label %102

102:                                              ; preds = %98
  %103 = getelementptr inbounds %"class.std::ctype", %"class.std::ctype"* %95, i64 0, i32 9, i64 10
  %104 = load i8, i8* %103, align 1, !tbaa !28
  br label %111

105:                                              ; preds = %98
  call void @_ZNKSt5ctypeIcE13_M_widen_initEv(%"class.std::ctype"* nonnull align 8 dereferenceable(570) %95)
  %106 = bitcast %"class.std::ctype"* %95 to i8 (%"class.std::ctype"*, i8)***
  %107 = load i8 (%"class.std::ctype"*, i8)**, i8 (%"class.std::ctype"*, i8)*** %106, align 8, !tbaa !5
  %108 = getelementptr inbounds i8 (%"class.std::ctype"*, i8)*, i8 (%"class.std::ctype"*, i8)** %107, i64 6
  %109 = load i8 (%"class.std::ctype"*, i8)*, i8 (%"class.std::ctype"*, i8)** %108, align 8
  %110 = call signext i8 %109(%"class.std::ctype"* nonnull align 8 dereferenceable(570) %95, i8 signext 10)
  br label %111

111:                                              ; preds = %102, %105
  %112 = phi i8 [ %104, %102 ], [ %110, %105 ]
  %113 = call nonnull align 8 dereferenceable(8) %"class.std::basic_ostream"* @_ZNSo3putEc(%"class.std::basic_ostream"* nonnull align 8 dereferenceable(8) %85, i8 signext %112)
  %114 = call nonnull align 8 dereferenceable(8) %"class.std::basic_ostream"* @_ZNSo5flushEv(%"class.std::basic_ostream"* nonnull align 8 dereferenceable(8) %113)
  br label %497

115:                                              ; preds = %42, %46
  %116 = phi i64 [ %45, %42 ], [ %40, %46 ]
  %117 = getelementptr inbounds %"class.std::map", %"class.std::map"* %6, i64 0, i32 0, i32 0, i32 0, i32 0, i32 0
  call void @llvm.lifetime.start.p0i8(i64 48, i8* nonnull %117) #19
  %118 = getelementptr inbounds i8, i8* %117, i64 8
  %119 = bitcast i8* %118 to i32*
  store i32 0, i32* %119, align 8, !tbaa !29
  %120 = getelementptr inbounds i8, i8* %117, i64 16
  %121 = bitcast i8* %120 to %"struct.std::_Rb_tree_node_base"**
  store %"struct.std::_Rb_tree_node_base"* null, %"struct.std::_Rb_tree_node_base"** %121, align 8, !tbaa !33
  %122 = getelementptr inbounds i8, i8* %117, i64 24
  %123 = bitcast i8* %122 to i8**
  store i8* %118, i8** %123, align 8, !tbaa !34
  %124 = getelementptr inbounds i8, i8* %117, i64 32
  %125 = bitcast i8* %124 to i8**
  store i8* %118, i8** %125, align 8, !tbaa !35
  %126 = getelementptr inbounds i8, i8* %117, i64 40
  %127 = bitcast i8* %126 to i64*
  store i64 0, i64* %127, align 8, !tbaa !36
  %128 = bitcast i64* %7 to i8*
  %129 = bitcast i8* %120 to %"struct.std::_Rb_tree_node"**
  %130 = bitcast i8* %118 to %"struct.std::_Rb_tree_node_base"*
  %131 = getelementptr inbounds %"class.std::map", %"class.std::map"* %6, i64 0, i32 0
  %132 = bitcast %"class.std::tuple.13"* %1 to i8*
  %133 = getelementptr inbounds %"class.std::tuple.13", %"class.std::tuple.13"* %1, i64 0, i32 0, i32 0, i32 0
  %134 = getelementptr inbounds %"class.std::tuple.16", %"class.std::tuple.16"* %2, i64 0, i32 0
  %135 = load i64, i64* %3, align 8, !tbaa !23
  %136 = icmp slt i64 %135, 0
  br i1 %136, label %140, label %154

137:                                              ; preds = %323
  %138 = bitcast i8* %122 to %"struct.std::_Rb_tree_node_base"**
  %139 = load %"struct.std::_Rb_tree_node_base"*, %"struct.std::_Rb_tree_node_base"** %138, align 8, !tbaa !34
  br label %140

140:                                              ; preds = %115, %137
  %141 = phi %"struct.std::_Rb_tree_node_base"* [ %139, %137 ], [ %130, %115 ]
  %142 = bitcast %"struct.std::pair.3"* %8 to i8*
  %143 = getelementptr inbounds %"struct.std::pair.3", %"struct.std::pair.3"* %8, i64 0, i32 0
  %144 = getelementptr inbounds %"struct.std::pair.3", %"struct.std::pair.3"* %8, i64 0, i32 1
  %145 = bitcast %"class.std::vector"* %144 to i8*
  %146 = getelementptr inbounds %"class.std::vector", %"class.std::vector"* %144, i64 0, i32 0, i32 0, i32 0, i32 0
  %147 = getelementptr inbounds %"struct.std::pair.3", %"struct.std::pair.3"* %8, i64 0, i32 1, i32 0, i32 0, i32 0, i32 1
  %148 = getelementptr inbounds %"struct.std::pair.3", %"struct.std::pair.3"* %8, i64 0, i32 1, i32 0, i32 0, i32 0, i32 2
  %149 = bitcast %"class.std::vector"* %9 to i8*
  %150 = getelementptr inbounds %"class.std::vector", %"class.std::vector"* %9, i64 0, i32 0, i32 0, i32 0, i32 0
  %151 = getelementptr inbounds %"class.std::vector", %"class.std::vector"* %9, i64 0, i32 0, i32 0, i32 0, i32 1
  %152 = getelementptr inbounds %"struct.std::pair.3", %"struct.std::pair.3"* %8, i64 0, i32 1, i32 0, i32 0, i32 0, i32 0
  %153 = icmp eq %"struct.std::_Rb_tree_node_base"* %141, %130
  br i1 %153, label %335, label %338

154:                                              ; preds = %115, %326
  %155 = phi i64 [ %328, %326 ], [ %116, %115 ]
  %156 = phi i64 [ %324, %326 ], [ %135, %115 ]
  %157 = phi i64 [ %327, %326 ], [ 0, %115 ]
  %158 = load i64, i64* %4, align 8, !tbaa !23
  %159 = mul nsw i64 %158, %157
  %160 = sdiv i64 %159, %155
  call void @llvm.lifetime.start.p0i8(i64 8, i8* nonnull %128) #19
  %161 = srem i64 %159, %155
  store i64 %161, i64* %7, align 8, !tbaa !23
  %162 = icmp slt i64 %161, 0
  br i1 %162, label %163, label %225

163:                                              ; preds = %154
  %164 = add i64 %155, %161
  %165 = call i64 @llvm.smax.i64(i64 %164, i64 0)
  %166 = lshr i64 %164, 63
  %167 = add nuw nsw i64 %166, 1
  %168 = add i64 %166, %164
  %169 = sub i64 %165, %168
  %170 = udiv i64 %169, %155
  %171 = add i64 %167, %170
  %172 = icmp ult i64 %171, 4
  br i1 %172, label %213, label %173

173:                                              ; preds = %163
  %174 = and i64 %171, -4
  %175 = mul i64 %174, %155
  %176 = add i64 %161, %175
  %177 = insertelement <2 x i64> <i64 poison, i64 0>, i64 %160, i32 0
  %178 = add i64 %174, -4
  %179 = lshr exact i64 %178, 2
  %180 = add nuw nsw i64 %179, 1
  %181 = and i64 %180, 7
  %182 = icmp ult i64 %178, 28
  br i1 %182, label %193, label %183

183:                                              ; preds = %173
  %184 = and i64 %180, 9223372036854775800
  br label %185

185:                                              ; preds = %185, %183
  %186 = phi <2 x i64> [ %177, %183 ], [ %189, %185 ]
  %187 = phi <2 x i64> [ zeroinitializer, %183 ], [ %190, %185 ]
  %188 = phi i64 [ %184, %183 ], [ %191, %185 ]
  %189 = add <2 x i64> %186, <i64 -8, i64 -8>
  %190 = add <2 x i64> %187, <i64 -8, i64 -8>
  %191 = add i64 %188, -8
  %192 = icmp eq i64 %191, 0
  br i1 %192, label %193, label %185, !llvm.loop !37

193:                                              ; preds = %185, %173
  %194 = phi <2 x i64> [ undef, %173 ], [ %189, %185 ]
  %195 = phi <2 x i64> [ undef, %173 ], [ %190, %185 ]
  %196 = phi <2 x i64> [ %177, %173 ], [ %189, %185 ]
  %197 = phi <2 x i64> [ zeroinitializer, %173 ], [ %190, %185 ]
  %198 = icmp eq i64 %181, 0
  br i1 %198, label %207, label %199

199:                                              ; preds = %193, %199
  %200 = phi <2 x i64> [ %203, %199 ], [ %196, %193 ]
  %201 = phi <2 x i64> [ %204, %199 ], [ %197, %193 ]
  %202 = phi i64 [ %205, %199 ], [ %181, %193 ]
  %203 = add <2 x i64> %200, <i64 -1, i64 -1>
  %204 = add <2 x i64> %201, <i64 -1, i64 -1>
  %205 = add i64 %202, -1
  %206 = icmp eq i64 %205, 0
  br i1 %206, label %207, label %199, !llvm.loop !40

207:                                              ; preds = %199, %193
  %208 = phi <2 x i64> [ %194, %193 ], [ %203, %199 ]
  %209 = phi <2 x i64> [ %195, %193 ], [ %204, %199 ]
  %210 = add <2 x i64> %209, %208
  %211 = call i64 @llvm.vector.reduce.add.v2i64(<2 x i64> %210)
  %212 = icmp eq i64 %171, %174
  br i1 %212, label %222, label %213

213:                                              ; preds = %163, %207
  %214 = phi i64 [ %160, %163 ], [ %211, %207 ]
  %215 = phi i64 [ %161, %163 ], [ %176, %207 ]
  br label %216

216:                                              ; preds = %213, %216
  %217 = phi i64 [ %220, %216 ], [ %214, %213 ]
  %218 = phi i64 [ %219, %216 ], [ %215, %213 ]
  %219 = add nsw i64 %218, %155
  %220 = add nsw i64 %217, -1
  %221 = icmp slt i64 %219, 0
  br i1 %221, label %216, label %222, !llvm.loop !42

222:                                              ; preds = %216, %207
  %223 = phi i64 [ %176, %207 ], [ %219, %216 ]
  %224 = phi i64 [ %211, %207 ], [ %220, %216 ]
  store i64 %223, i64* %7, align 8, !tbaa !23
  br label %225

225:                                              ; preds = %222, %154
  %226 = phi i64 [ %223, %222 ], [ %161, %154 ]
  %227 = phi i64 [ %224, %222 ], [ %160, %154 ]
  %228 = add nsw i64 %157, -1
  %229 = mul nsw i64 %228, %157
  %230 = sdiv i64 %229, 2
  %231 = add nsw i64 %227, %230
  %232 = shl i64 %156, 1
  %233 = xor i64 %157, -1
  %234 = add i64 %232, %233
  %235 = mul nsw i64 %234, %157
  %236 = sdiv i64 %235, 2
  %237 = add nsw i64 %227, %236
  %238 = load %"struct.std::_Rb_tree_node"*, %"struct.std::_Rb_tree_node"** %129, align 8, !tbaa !33
  %239 = icmp eq %"struct.std::_Rb_tree_node"* %238, null
  br i1 %239, label %263, label %240

240:                                              ; preds = %225, %240
  %241 = phi %"struct.std::_Rb_tree_node"* [ %253, %240 ], [ %238, %225 ]
  %242 = phi %"struct.std::_Rb_tree_node_base"* [ %250, %240 ], [ %130, %225 ]
  %243 = getelementptr inbounds %"struct.std::_Rb_tree_node", %"struct.std::_Rb_tree_node"* %241, i64 0, i32 1
  %244 = bitcast %"struct.__gnu_cxx::__aligned_membuf"* %243 to i64*
  %245 = load i64, i64* %244, align 8, !tbaa !23
  %246 = icmp slt i64 %245, %226
  %247 = getelementptr inbounds %"struct.std::_Rb_tree_node", %"struct.std::_Rb_tree_node"* %241, i64 0, i32 0, i32 3
  %248 = getelementptr %"struct.std::_Rb_tree_node", %"struct.std::_Rb_tree_node"* %241, i64 0, i32 0
  %249 = getelementptr inbounds %"struct.std::_Rb_tree_node", %"struct.std::_Rb_tree_node"* %241, i64 0, i32 0, i32 2
  %250 = select i1 %246, %"struct.std::_Rb_tree_node_base"* %242, %"struct.std::_Rb_tree_node_base"* %248
  %251 = select i1 %246, %"struct.std::_Rb_tree_node_base"** %247, %"struct.std::_Rb_tree_node_base"** %249
  %252 = bitcast %"struct.std::_Rb_tree_node_base"** %251 to %"struct.std::_Rb_tree_node"**
  %253 = load %"struct.std::_Rb_tree_node"*, %"struct.std::_Rb_tree_node"** %252, align 8, !tbaa !44
  %254 = icmp eq %"struct.std::_Rb_tree_node"* %253, null
  br i1 %254, label %255, label %240, !llvm.loop !45

255:                                              ; preds = %240
  %256 = icmp eq %"struct.std::_Rb_tree_node_base"* %250, %130
  br i1 %256, label %263, label %257

257:                                              ; preds = %255
  %258 = select i1 %246, %"struct.std::_Rb_tree_node_base"* %242, %"struct.std::_Rb_tree_node_base"* %248
  %259 = getelementptr inbounds %"struct.std::_Rb_tree_node_base", %"struct.std::_Rb_tree_node_base"* %258, i64 1
  %260 = bitcast %"struct.std::_Rb_tree_node_base"* %259 to i64*
  %261 = load i64, i64* %260, align 8, !tbaa !23
  %262 = icmp slt i64 %226, %261
  br i1 %262, label %263, label %267

263:                                              ; preds = %257, %255, %225
  %264 = phi %"struct.std::_Rb_tree_node_base"* [ %250, %257 ], [ %130, %255 ], [ %130, %225 ]
  call void @llvm.lifetime.start.p0i8(i64 8, i8* nonnull %132) #19
  store i64* %7, i64** %133, align 8, !tbaa !44
  call void @llvm.lifetime.start.p0i8(i64 1, i8* nonnull %134) #19
  %265 = invoke %"struct.std::_Rb_tree_node_base"* @_ZNSt8_Rb_treeIxSt4pairIKxSt6vectorIS0_IxxESaIS3_EEESt10_Select1stIS6_ESt4lessIxESaIS6_EE22_M_emplace_hint_uniqueIJRKSt21piecewise_construct_tSt5tupleIJRS1_EESH_IJEEEEESt17_Rb_tree_iteratorIS6_ESt23_Rb_tree_const_iteratorIS6_EDpOT_(%"class.std::_Rb_tree"* nonnull align 8 dereferenceable(48) %131, %"struct.std::_Rb_tree_node_base"* %264, %"struct.std::piecewise_construct_t"* nonnull align 1 dereferenceable(1) @_ZStL19piecewise_construct, %"class.std::tuple.13"* nonnull align 8 dereferenceable(8) %1, %"class.std::tuple.16"* nonnull align 1 dereferenceable(1) %2)
          to label %266 unwind label %329

266:                                              ; preds = %263
  call void @llvm.lifetime.end.p0i8(i64 1, i8* nonnull %134) #19
  call void @llvm.lifetime.end.p0i8(i64 8, i8* nonnull %132) #19
  br label %267

267:                                              ; preds = %266, %257
  %268 = phi %"struct.std::_Rb_tree_node_base"* [ %265, %266 ], [ %250, %257 ]
  %269 = getelementptr inbounds %"struct.std::_Rb_tree_node_base", %"struct.std::_Rb_tree_node_base"* %268, i64 1, i32 1
  %270 = getelementptr inbounds %"struct.std::_Rb_tree_node_base"*, %"struct.std::_Rb_tree_node_base"** %269, i64 1
  %271 = bitcast %"struct.std::_Rb_tree_node_base"** %270 to %"struct.std::pair"**
  %272 = load %"struct.std::pair"*, %"struct.std::pair"** %271, align 8, !tbaa !46
  %273 = getelementptr inbounds %"struct.std::_Rb_tree_node_base"*, %"struct.std::_Rb_tree_node_base"** %269, i64 2
  %274 = bitcast %"struct.std::_Rb_tree_node_base"** %273 to %"struct.std::pair"**
  %275 = load %"struct.std::pair"*, %"struct.std::pair"** %274, align 8, !tbaa !48
  %276 = icmp eq %"struct.std::pair"* %272, %275
  br i1 %276, label %281, label %277

277:                                              ; preds = %267
  %278 = getelementptr inbounds %"struct.std::pair", %"struct.std::pair"* %272, i64 0, i32 0
  store i64 %231, i64* %278, align 8, !tbaa !49
  %279 = getelementptr inbounds %"struct.std::pair", %"struct.std::pair"* %272, i64 0, i32 1
  store i64 %237, i64* %279, align 8, !tbaa !51
  %280 = getelementptr inbounds %"struct.std::pair", %"struct.std::pair"* %272, i64 1
  store %"struct.std::pair"* %280, %"struct.std::pair"** %271, align 8, !tbaa !46
  br label %323

281:                                              ; preds = %267
  %282 = bitcast %"struct.std::_Rb_tree_node_base"** %269 to %"struct.std::pair"**
  %283 = load %"struct.std::pair"*, %"struct.std::pair"** %282, align 8, !tbaa !52
  %284 = ptrtoint %"struct.std::pair"* %272 to i64
  %285 = ptrtoint %"struct.std::pair"* %283 to i64
  %286 = sub i64 %284, %285
  %287 = ashr exact i64 %286, 4
  %288 = icmp eq i64 %286, 9223372036854775792
  br i1 %288, label %289, label %291

289:                                              ; preds = %281
  invoke void @_ZSt20__throw_length_errorPKc(i8* getelementptr inbounds ([26 x i8], [26 x i8]* @.str, i64 0, i64 0)) #20
          to label %290 unwind label %331

290:                                              ; preds = %289
  unreachable

291:                                              ; preds = %281
  %292 = icmp eq i64 %286, 0
  %293 = select i1 %292, i64 1, i64 %287
  %294 = add nsw i64 %293, %287
  %295 = icmp ult i64 %294, %287
  %296 = icmp ugt i64 %294, 576460752303423487
  %297 = or i1 %295, %296
  %298 = select i1 %297, i64 576460752303423487, i64 %294
  %299 = shl nuw nsw i64 %298, 4
  %300 = invoke noalias nonnull i8* @_Znwm(i64 %299) #21
          to label %301 unwind label %329

301:                                              ; preds = %291
  %302 = bitcast i8* %300 to %"struct.std::pair"*
  %303 = getelementptr inbounds %"struct.std::pair", %"struct.std::pair"* %302, i64 %287, i32 0
  store i64 %231, i64* %303, align 8, !tbaa !49
  %304 = getelementptr inbounds %"struct.std::pair", %"struct.std::pair"* %302, i64 %287, i32 1
  store i64 %237, i64* %304, align 8, !tbaa !51
  %305 = icmp eq %"struct.std::pair"* %283, %272
  br i1 %305, label %314, label %306

306:                                              ; preds = %301, %306
  %307 = phi %"struct.std::pair"* [ %312, %306 ], [ %302, %301 ]
  %308 = phi %"struct.std::pair"* [ %311, %306 ], [ %283, %301 ]
  %309 = bitcast %"struct.std::pair"* %307 to i8*
  %310 = bitcast %"struct.std::pair"* %308 to i8*
  call void @llvm.memcpy.p0i8.p0i8.i64(i8* noundef nonnull align 8 dereferenceable(16) %309, i8* noundef nonnull align 8 dereferenceable(16) %310, i64 16, i1 false) #19, !alias.scope !53
  %311 = getelementptr inbounds %"struct.std::pair", %"struct.std::pair"* %308, i64 1
  %312 = getelementptr inbounds %"struct.std::pair", %"struct.std::pair"* %307, i64 1
  %313 = icmp eq %"struct.std::pair"* %311, %272
  br i1 %313, label %314, label %306, !llvm.loop !57

314:                                              ; preds = %306, %301
  %315 = phi %"struct.std::pair"* [ %302, %301 ], [ %312, %306 ]
  %316 = getelementptr inbounds %"struct.std::pair", %"struct.std::pair"* %315, i64 1
  %317 = icmp eq %"struct.std::pair"* %283, null
  br i1 %317, label %320, label %318

318:                                              ; preds = %314
  %319 = bitcast %"struct.std::pair"* %283 to i8*
  call void @_ZdlPv(i8* nonnull %319) #19
  br label %320

320:                                              ; preds = %318, %314
  %321 = bitcast %"struct.std::_Rb_tree_node_base"** %269 to i8**
  store i8* %300, i8** %321, align 8, !tbaa !52
  store %"struct.std::pair"* %316, %"struct.std::pair"** %271, align 8, !tbaa !46
  %322 = getelementptr inbounds %"struct.std::pair", %"struct.std::pair"* %302, i64 %298
  store %"struct.std::pair"* %322, %"struct.std::pair"** %274, align 8, !tbaa !48
  br label %323

323:                                              ; preds = %320, %277
  call void @llvm.lifetime.end.p0i8(i64 8, i8* nonnull %128) #19
  %324 = load i64, i64* %3, align 8, !tbaa !23
  %325 = icmp sgt i64 %324, %157
  br i1 %325, label %326, label %137, !llvm.loop !58

326:                                              ; preds = %323
  %327 = add nuw nsw i64 %157, 1
  %328 = load i64, i64* %5, align 8, !tbaa !23
  br label %154

329:                                              ; preds = %263, %291
  %330 = landingpad { i8*, i32 }
          cleanup
  br label %333

331:                                              ; preds = %289
  %332 = landingpad { i8*, i32 }
          cleanup
  br label %333

333:                                              ; preds = %331, %329
  %334 = phi { i8*, i32 } [ %330, %329 ], [ %332, %331 ]
  call void @llvm.lifetime.end.p0i8(i64 8, i8* nonnull %128) #19
  br label %495

335:                                              ; preds = %410, %140
  %336 = phi i64 [ 0, %140 ], [ %401, %410 ]
  %337 = invoke nonnull align 8 dereferenceable(8) %"class.std::basic_ostream"* @_ZNSo9_M_insertIxEERSoT_(%"class.std::basic_ostream"* nonnull align 8 dereferenceable(8) @_ZSt4cout, i64 %336)
          to label %454 unwind label %493

338:                                              ; preds = %140, %410
  %339 = phi i64 [ %401, %410 ], [ 0, %140 ]
  %340 = phi %"struct.std::_Rb_tree_node_base"* [ %411, %410 ], [ %141, %140 ]
  call void @llvm.lifetime.start.p0i8(i64 32, i8* nonnull %142) #19
  %341 = getelementptr inbounds %"struct.std::_Rb_tree_node_base", %"struct.std::_Rb_tree_node_base"* %340, i64 1
  %342 = bitcast %"struct.std::_Rb_tree_node_base"* %341 to i64*
  %343 = load i64, i64* %342, align 8, !tbaa !59
  store i64 %343, i64* %143, align 8, !tbaa !59
  %344 = getelementptr inbounds %"struct.std::_Rb_tree_node_base", %"struct.std::_Rb_tree_node_base"* %340, i64 1, i32 2
  %345 = bitcast %"struct.std::_Rb_tree_node_base"** %344 to %"struct.std::pair"**
  %346 = load %"struct.std::pair"*, %"struct.std::pair"** %345, align 8, !tbaa !46
  %347 = getelementptr inbounds %"struct.std::_Rb_tree_node_base", %"struct.std::_Rb_tree_node_base"* %340, i64 1, i32 1
  %348 = bitcast %"struct.std::_Rb_tree_node_base"** %347 to %"struct.std::pair"**
  %349 = load %"struct.std::pair"*, %"struct.std::pair"** %348, align 8, !tbaa !52
  %350 = ptrtoint %"struct.std::pair"* %346 to i64
  %351 = ptrtoint %"struct.std::pair"* %349 to i64
  %352 = sub i64 %350, %351
  %353 = ashr exact i64 %352, 4
  call void @llvm.memset.p0i8.i64(i8* noundef nonnull align 8 dereferenceable(24) %145, i8 0, i64 24, i1 false) #19
  %354 = icmp eq i64 %352, 0
  br i1 %354, label %365, label %355

355:                                              ; preds = %338
  %356 = icmp ugt i64 %353, 576460752303423487
  br i1 %356, label %357, label %359, !prof !62

357:                                              ; preds = %355
  invoke void @_ZSt28__throw_bad_array_new_lengthv() #20
          to label %358 unwind label %415

358:                                              ; preds = %357
  unreachable

359:                                              ; preds = %355
  %360 = invoke noalias nonnull i8* @_Znwm(i64 %352) #21
          to label %361 unwind label %413

361:                                              ; preds = %359
  %362 = bitcast i8* %360 to %"struct.std::pair"*
  %363 = load %"struct.std::pair"*, %"struct.std::pair"** %348, align 8, !tbaa !44
  %364 = load %"struct.std::pair"*, %"struct.std::pair"** %345, align 8, !tbaa !44
  br label %365

365:                                              ; preds = %361, %338
  %366 = phi %"struct.std::pair"* [ %364, %361 ], [ %346, %338 ]
  %367 = phi %"struct.std::pair"* [ %363, %361 ], [ %349, %338 ]
  %368 = phi %"struct.std::pair"* [ %362, %361 ], [ null, %338 ]
  store %"struct.std::pair"* %368, %"struct.std::pair"** %146, align 8, !tbaa !52
  store %"struct.std::pair"* %368, %"struct.std::pair"** %147, align 8, !tbaa !46
  %369 = getelementptr inbounds %"struct.std::pair", %"struct.std::pair"* %368, i64 %353
  store %"struct.std::pair"* %369, %"struct.std::pair"** %148, align 8, !tbaa !48
  %370 = icmp eq %"struct.std::pair"* %367, %366
  br i1 %370, label %379, label %371

371:                                              ; preds = %365, %371
  %372 = phi %"struct.std::pair"* [ %377, %371 ], [ %368, %365 ]
  %373 = phi %"struct.std::pair"* [ %376, %371 ], [ %367, %365 ]
  %374 = bitcast %"struct.std::pair"* %372 to i8*
  %375 = bitcast %"struct.std::pair"* %373 to i8*
  call void @llvm.memcpy.p0i8.p0i8.i64(i8* noundef nonnull align 8 dereferenceable(16) %374, i8* noundef nonnull align 8 dereferenceable(16) %375, i64 16, i1 false) #19
  %376 = getelementptr inbounds %"struct.std::pair", %"struct.std::pair"* %373, i64 1
  %377 = getelementptr inbounds %"struct.std::pair", %"struct.std::pair"* %372, i64 1
  %378 = icmp eq %"struct.std::pair"* %376, %366
  br i1 %378, label %379, label %371, !llvm.loop !63

379:                                              ; preds = %371, %365
  %380 = phi %"struct.std::pair"* [ %368, %365 ], [ %377, %371 ]
  store %"struct.std::pair"* %380, %"struct.std::pair"** %147, align 8, !tbaa !46
  call void @llvm.lifetime.start.p0i8(i64 24, i8* nonnull %149) #19
  call void @llvm.memset.p0i8.i64(i8* noundef nonnull align 8 dereferenceable(24) %149, i8 0, i64 24, i1 false) #19
  %381 = invoke nonnull align 8 dereferenceable(24) %"class.std::vector"* @_ZNSt6vectorISt4pairIxxESaIS1_EEaSERKS3_(%"class.std::vector"* nonnull align 8 dereferenceable(24) %9, %"class.std::vector"* nonnull align 8 dereferenceable(24) %144)
          to label %382 unwind label %417

382:                                              ; preds = %379
  %383 = load %"struct.std::pair"*, %"struct.std::pair"** %150, align 8, !tbaa !44
  %384 = load %"struct.std::pair"*, %"struct.std::pair"** %151, align 8, !tbaa !44
  %385 = icmp eq %"struct.std::pair"* %383, %384
  br i1 %385, label %399, label %386

386:                                              ; preds = %382
  %387 = ptrtoint %"struct.std::pair"* %384 to i64
  %388 = ptrtoint %"struct.std::pair"* %383 to i64
  %389 = sub i64 %387, %388
  %390 = ashr exact i64 %389, 4
  %391 = call i64 @llvm.ctlz.i64(i64 %390, i1 true) #19, !range !64
  %392 = shl nuw nsw i64 %391, 1
  %393 = xor i64 %392, 126
  invoke void @_ZSt16__introsort_loopIN9__gnu_cxx17__normal_iteratorIPSt4pairIxxESt6vectorIS3_SaIS3_EEEElNS0_5__ops15_Iter_less_iterEEvT_SB_T0_T1_(%"struct.std::pair"* %383, %"struct.std::pair"* %384, i64 %393)
          to label %394 unwind label %419

394:                                              ; preds = %386
  invoke void @_ZSt22__final_insertion_sortIN9__gnu_cxx17__normal_iteratorIPSt4pairIxxESt6vectorIS3_SaIS3_EEEENS0_5__ops15_Iter_less_iterEEvT_SB_T0_(%"struct.std::pair"* %383, %"struct.std::pair"* %384)
          to label %395 unwind label %419

395:                                              ; preds = %394
  %396 = load %"struct.std::pair"*, %"struct.std::pair"** %150, align 8, !tbaa !44
  %397 = load %"struct.std::pair"*, %"struct.std::pair"** %151, align 8, !tbaa !44
  %398 = icmp eq %"struct.std::pair"* %396, %397
  br i1 %398, label %399, label %421

399:                                              ; preds = %421, %382, %395
  %400 = phi %"struct.std::pair"* [ %396, %395 ], [ %383, %382 ], [ %396, %421 ]
  %401 = phi i64 [ %339, %395 ], [ %339, %382 ], [ %435, %421 ]
  %402 = icmp eq %"struct.std::pair"* %400, null
  br i1 %402, label %405, label %403

403:                                              ; preds = %399
  %404 = bitcast %"struct.std::pair"* %400 to i8*
  call void @_ZdlPv(i8* nonnull %404) #19
  br label %405

405:                                              ; preds = %399, %403
  call void @llvm.lifetime.end.p0i8(i64 24, i8* nonnull %149) #19
  %406 = load %"struct.std::pair"*, %"struct.std::pair"** %152, align 8, !tbaa !52
  %407 = icmp eq %"struct.std::pair"* %406, null
  br i1 %407, label %410, label %408

408:                                              ; preds = %405
  %409 = bitcast %"struct.std::pair"* %406 to i8*
  call void @_ZdlPv(i8* nonnull %409) #19
  br label %410

410:                                              ; preds = %405, %408
  call void @llvm.lifetime.end.p0i8(i64 32, i8* nonnull %142) #19
  %411 = call %"struct.std::_Rb_tree_node_base"* @_ZSt18_Rb_tree_incrementPSt18_Rb_tree_node_base(%"struct.std::_Rb_tree_node_base"* %340) #22
  %412 = icmp eq %"struct.std::_Rb_tree_node_base"* %411, %130
  br i1 %412, label %335, label %338

413:                                              ; preds = %359
  %414 = landingpad { i8*, i32 }
          cleanup
  br label %452

415:                                              ; preds = %357
  %416 = landingpad { i8*, i32 }
          cleanup
  br label %452

417:                                              ; preds = %379
  %418 = landingpad { i8*, i32 }
          cleanup
  br label %441

419:                                              ; preds = %394, %386
  %420 = landingpad { i8*, i32 }
          cleanup
  br label %441

421:                                              ; preds = %395, %421
  %422 = phi i64 [ %435, %421 ], [ %339, %395 ]
  %423 = phi i64 [ %438, %421 ], [ -1152921505606846976, %395 ]
  %424 = phi %"struct.std::pair"* [ %439, %421 ], [ %396, %395 ]
  %425 = getelementptr inbounds %"struct.std::pair", %"struct.std::pair"* %424, i64 0, i32 0
  %426 = load i64, i64* %425, align 8
  %427 = getelementptr inbounds %"struct.std::pair", %"struct.std::pair"* %424, i64 0, i32 1
  %428 = load i64, i64* %427, align 8
  %429 = icmp slt i64 %423, %426
  %430 = select i1 %429, i64 %426, i64 %423
  %431 = sub nsw i64 %428, %430
  %432 = add nsw i64 %431, 1
  %433 = icmp slt i64 %431, 0
  %434 = select i1 %433, i64 0, i64 %432
  %435 = add nsw i64 %434, %422
  %436 = add nsw i64 %428, 1
  %437 = icmp slt i64 %428, %430
  %438 = select i1 %437, i64 %430, i64 %436
  %439 = getelementptr inbounds %"struct.std::pair", %"struct.std::pair"* %424, i64 1
  %440 = icmp eq %"struct.std::pair"* %439, %397
  br i1 %440, label %399, label %421

441:                                              ; preds = %419, %417
  %442 = phi { i8*, i32 } [ %420, %419 ], [ %418, %417 ]
  %443 = load %"struct.std::pair"*, %"struct.std::pair"** %150, align 8, !tbaa !52
  %444 = icmp eq %"struct.std::pair"* %443, null
  br i1 %444, label %447, label %445

445:                                              ; preds = %441
  %446 = bitcast %"struct.std::pair"* %443 to i8*
  call void @_ZdlPv(i8* nonnull %446) #19
  br label %447

447:                                              ; preds = %441, %445
  call void @llvm.lifetime.end.p0i8(i64 24, i8* nonnull %149) #19
  %448 = load %"struct.std::pair"*, %"struct.std::pair"** %152, align 8, !tbaa !52
  %449 = icmp eq %"struct.std::pair"* %448, null
  br i1 %449, label %452, label %450

450:                                              ; preds = %447
  %451 = bitcast %"struct.std::pair"* %448 to i8*
  call void @_ZdlPv(i8* nonnull %451) #19
  br label %452

452:                                              ; preds = %413, %415, %450, %447
  %453 = phi { i8*, i32 } [ %442, %447 ], [ %442, %450 ], [ %414, %413 ], [ %416, %415 ]
  call void @llvm.lifetime.end.p0i8(i64 32, i8* nonnull %142) #19
  br label %495

454:                                              ; preds = %335
  %455 = bitcast %"class.std::basic_ostream"* %337 to i8**
  %456 = load i8*, i8** %455, align 8, !tbaa !5
  %457 = getelementptr i8, i8* %456, i64 -24
  %458 = bitcast i8* %457 to i64*
  %459 = load i64, i64* %458, align 8
  %460 = bitcast %"class.std::basic_ostream"* %337 to i8*
  %461 = add nsw i64 %459, 240
  %462 = getelementptr inbounds i8, i8* %460, i64 %461
  %463 = bitcast i8* %462 to %"class.std::ctype"**
  %464 = load %"class.std::ctype"*, %"class.std::ctype"** %463, align 8, !tbaa !25
  %465 = icmp eq %"class.std::ctype"* %464, null
  br i1 %465, label %466, label %468

466:                                              ; preds = %454
  invoke void @_ZSt16__throw_bad_castv() #20
          to label %467 unwind label %493

467:                                              ; preds = %466
  unreachable

468:                                              ; preds = %454
  %469 = getelementptr inbounds %"class.std::ctype", %"class.std::ctype"* %464, i64 0, i32 8
  %470 = load i8, i8* %469, align 8, !tbaa !26
  %471 = icmp eq i8 %470, 0
  br i1 %471, label %475, label %472

472:                                              ; preds = %468
  %473 = getelementptr inbounds %"class.std::ctype", %"class.std::ctype"* %464, i64 0, i32 9, i64 10
  %474 = load i8, i8* %473, align 1, !tbaa !28
  br label %482

475:                                              ; preds = %468
  invoke void @_ZNKSt5ctypeIcE13_M_widen_initEv(%"class.std::ctype"* nonnull align 8 dereferenceable(570) %464)
          to label %476 unwind label %493

476:                                              ; preds = %475
  %477 = bitcast %"class.std::ctype"* %464 to i8 (%"class.std::ctype"*, i8)***
  %478 = load i8 (%"class.std::ctype"*, i8)**, i8 (%"class.std::ctype"*, i8)*** %477, align 8, !tbaa !5
  %479 = getelementptr inbounds i8 (%"class.std::ctype"*, i8)*, i8 (%"class.std::ctype"*, i8)** %478, i64 6
  %480 = load i8 (%"class.std::ctype"*, i8)*, i8 (%"class.std::ctype"*, i8)** %479, align 8
  %481 = invoke signext i8 %480(%"class.std::ctype"* nonnull align 8 dereferenceable(570) %464, i8 signext 10)
          to label %482 unwind label %493

482:                                              ; preds = %476, %472
  %483 = phi i8 [ %474, %472 ], [ %481, %476 ]
  %484 = invoke nonnull align 8 dereferenceable(8) %"class.std::basic_ostream"* @_ZNSo3putEc(%"class.std::basic_ostream"* nonnull align 8 dereferenceable(8) %337, i8 signext %483)
          to label %485 unwind label %493

485:                                              ; preds = %482
  %486 = invoke nonnull align 8 dereferenceable(8) %"class.std::basic_ostream"* @_ZNSo5flushEv(%"class.std::basic_ostream"* nonnull align 8 dereferenceable(8) %484)
          to label %487 unwind label %493

487:                                              ; preds = %485
  %488 = load %"struct.std::_Rb_tree_node"*, %"struct.std::_Rb_tree_node"** %129, align 8, !tbaa !33
  invoke void @_ZNSt8_Rb_treeIxSt4pairIKxSt6vectorIS0_IxxESaIS3_EEESt10_Select1stIS6_ESt4lessIxESaIS6_EE8_M_eraseEPSt13_Rb_tree_nodeIS6_E(%"class.std::_Rb_tree"* nonnull align 8 dereferenceable(48) %131, %"struct.std::_Rb_tree_node"* %488)
          to label %492 unwind label %489

489:                                              ; preds = %487
  %490 = landingpad { i8*, i32 }
          catch i8* null
  %491 = extractvalue { i8*, i32 } %490, 0
  call void @__clang_call_terminate(i8* %491) #23
  unreachable

492:                                              ; preds = %487
  call void @llvm.lifetime.end.p0i8(i64 48, i8* nonnull %117) #19
  br label %497

493:                                              ; preds = %485, %482, %476, %475, %466, %335
  %494 = landingpad { i8*, i32 }
          cleanup
  br label %495

495:                                              ; preds = %452, %493, %333
  %496 = phi { i8*, i32 } [ %334, %333 ], [ %453, %452 ], [ %494, %493 ]
  call void @_ZNSt8_Rb_treeIxSt4pairIKxSt6vectorIS0_IxxESaIS3_EEESt10_Select1stIS6_ESt4lessIxESaIS6_EED2Ev(%"class.std::_Rb_tree"* nonnull align 8 dereferenceable(48) %131) #19
  call void @llvm.lifetime.end.p0i8(i64 48, i8* nonnull %117) #19
  call void @llvm.lifetime.end.p0i8(i64 8, i8* nonnull %36) #19
  call void @llvm.lifetime.end.p0i8(i64 8, i8* nonnull %35) #19
  call void @llvm.lifetime.end.p0i8(i64 8, i8* nonnull %34) #19
  resume { i8*, i32 } %496

497:                                              ; preds = %78, %111, %492
  call void @llvm.lifetime.end.p0i8(i64 8, i8* nonnull %36) #19
  call void @llvm.lifetime.end.p0i8(i64 8, i8* nonnull %35) #19
  call void @llvm.lifetime.end.p0i8(i64 8, i8* nonnull %34) #19
  ret i32 0
}

; Function Attrs: nounwind
declare void @srand(i32) local_unnamed_addr #1

; Function Attrs: nounwind
declare i64 @time(i64*) local_unnamed_addr #1

declare zeroext i1 @_ZNSt8ios_base15sync_with_stdioEb(i1 zeroext) local_unnamed_addr #0

; Function Attrs: argmemonly mustprogress nofree nosync nounwind willreturn
declare void @llvm.lifetime.start.p0i8(i64 immarg, i8* nocapture) #3

declare nonnull align 8 dereferenceable(8) %"class.std::basic_ostream"* @_ZNSolsEi(%"class.std::basic_ostream"* nonnull align 8 dereferenceable(8), i32) local_unnamed_addr #0

declare i32 @__gxx_personality_v0(...)

; Function Attrs: argmemonly mustprogress nofree nosync nounwind willreturn
declare void @llvm.lifetime.end.p0i8(i64 immarg, i8* nocapture) #3

; Function Attrs: argmemonly mustprogress nofree nounwind willreturn
declare void @llvm.memcpy.p0i8.p0i8.i64(i8* noalias nocapture writeonly, i8* noalias nocapture readonly, i64, i1 immarg) #5

; Function Attrs: mustprogress nofree nounwind willreturn
declare x86_fp80 @asinl(x86_fp80) local_unnamed_addr #6

; Function Attrs: noinline noreturn nounwind
define linkonce_odr hidden void @__clang_call_terminate(i8* %0) local_unnamed_addr #7 comdat {
  %2 = tail call i8* @__cxa_begin_catch(i8* %0) #19
  tail call void @_ZSt9terminatev() #23
  unreachable
}

declare i8* @__cxa_begin_catch(i8*) local_unnamed_addr

declare void @_ZSt9terminatev() local_unnamed_addr

; Function Attrs: noreturn
declare void @_ZSt28__throw_bad_array_new_lengthv() local_unnamed_addr #8

; Function Attrs: nobuiltin allocsize(0)
declare nonnull i8* @_Znwm(i64) local_unnamed_addr #9

declare void @__cxa_rethrow() local_unnamed_addr

declare void @__cxa_end_catch() local_unnamed_addr

; Function Attrs: nobuiltin nounwind
declare void @_ZdlPv(i8*) local_unnamed_addr #10

; Function Attrs: nounwind sspstrong uwtable
define linkonce_odr dso_local void @_ZNSt8_Rb_treeIxSt4pairIKxSt6vectorIS0_IxxESaIS3_EEESt10_Select1stIS6_ESt4lessIxESaIS6_EED2Ev(%"class.std::_Rb_tree"* nonnull align 8 dereferenceable(48) %0) unnamed_addr #11 comdat align 2 personality i8* bitcast (i32 (...)* @__gxx_personality_v0 to i8*) {
  %2 = getelementptr inbounds %"class.std::_Rb_tree", %"class.std::_Rb_tree"* %0, i64 0, i32 0, i32 0, i32 0, i32 0
  %3 = getelementptr inbounds i8, i8* %2, i64 16
  %4 = bitcast i8* %3 to %"struct.std::_Rb_tree_node"**
  %5 = load %"struct.std::_Rb_tree_node"*, %"struct.std::_Rb_tree_node"** %4, align 8, !tbaa !33
  invoke void @_ZNSt8_Rb_treeIxSt4pairIKxSt6vectorIS0_IxxESaIS3_EEESt10_Select1stIS6_ESt4lessIxESaIS6_EE8_M_eraseEPSt13_Rb_tree_nodeIS6_E(%"class.std::_Rb_tree"* nonnull align 8 dereferenceable(48) %0, %"struct.std::_Rb_tree_node"* %5)
          to label %6 unwind label %7

6:                                                ; preds = %1
  ret void

7:                                                ; preds = %1
  %8 = landingpad { i8*, i32 }
          catch i8* null
  %9 = extractvalue { i8*, i32 } %8, 0
  tail call void @__clang_call_terminate(i8* %9) #23
  unreachable
}

; Function Attrs: sspstrong uwtable
define linkonce_odr dso_local void @_ZNSt8_Rb_treeIxSt4pairIKxSt6vectorIS0_IxxESaIS3_EEESt10_Select1stIS6_ESt4lessIxESaIS6_EE8_M_eraseEPSt13_Rb_tree_nodeIS6_E(%"class.std::_Rb_tree"* nonnull align 8 dereferenceable(48) %0, %"struct.std::_Rb_tree_node"* %1) local_unnamed_addr #12 comdat align 2 personality i32 (...)* @__gxx_personality_v0 {
  %3 = icmp eq %"struct.std::_Rb_tree_node"* %1, null
  br i1 %3, label %21, label %4

4:                                                ; preds = %2, %18
  %5 = phi %"struct.std::_Rb_tree_node"* [ %11, %18 ], [ %1, %2 ]
  %6 = getelementptr inbounds %"struct.std::_Rb_tree_node", %"struct.std::_Rb_tree_node"* %5, i64 0, i32 0, i32 3
  %7 = bitcast %"struct.std::_Rb_tree_node_base"** %6 to %"struct.std::_Rb_tree_node"**
  %8 = load %"struct.std::_Rb_tree_node"*, %"struct.std::_Rb_tree_node"** %7, align 8, !tbaa !65
  tail call void @_ZNSt8_Rb_treeIxSt4pairIKxSt6vectorIS0_IxxESaIS3_EEESt10_Select1stIS6_ESt4lessIxESaIS6_EE8_M_eraseEPSt13_Rb_tree_nodeIS6_E(%"class.std::_Rb_tree"* nonnull align 8 dereferenceable(48) %0, %"struct.std::_Rb_tree_node"* %8)
  %9 = getelementptr inbounds %"struct.std::_Rb_tree_node", %"struct.std::_Rb_tree_node"* %5, i64 0, i32 0, i32 2
  %10 = bitcast %"struct.std::_Rb_tree_node_base"** %9 to %"struct.std::_Rb_tree_node"**
  %11 = load %"struct.std::_Rb_tree_node"*, %"struct.std::_Rb_tree_node"** %10, align 8, !tbaa !66
  %12 = getelementptr inbounds %"struct.std::_Rb_tree_node", %"struct.std::_Rb_tree_node"* %5, i64 0, i32 1, i32 0, i64 8
  %13 = bitcast i8* %12 to %"struct.std::pair"**
  %14 = load %"struct.std::pair"*, %"struct.std::pair"** %13, align 8, !tbaa !52
  %15 = icmp eq %"struct.std::pair"* %14, null
  br i1 %15, label %18, label %16

16:                                               ; preds = %4
  %17 = bitcast %"struct.std::pair"* %14 to i8*
  tail call void @_ZdlPv(i8* nonnull %17) #19
  br label %18

18:                                               ; preds = %4, %16
  %19 = bitcast %"struct.std::_Rb_tree_node"* %5 to i8*
  tail call void @_ZdlPv(i8* nonnull %19) #19
  %20 = icmp eq %"struct.std::_Rb_tree_node"* %11, null
  br i1 %20, label %21, label %4, !llvm.loop !67

21:                                               ; preds = %18, %2
  ret void
}

; Function Attrs: nounwind sspstrong uwtable
define linkonce_odr dso_local void @_ZNSt8_Rb_treeIxSt4pairIKxSt6vectorIS0_IxxESaIS3_EEESt10_Select1stIS6_ESt4lessIxESaIS6_EE12_M_drop_nodeEPSt13_Rb_tree_nodeIS6_E(%"class.std::_Rb_tree"* nonnull align 8 dereferenceable(48) %0, %"struct.std::_Rb_tree_node"* %1) local_unnamed_addr #11 comdat align 2 personality i32 (...)* @__gxx_personality_v0 {
  %3 = getelementptr inbounds %"struct.std::_Rb_tree_node", %"struct.std::_Rb_tree_node"* %1, i64 0, i32 1, i32 0, i64 8
  %4 = bitcast i8* %3 to %"struct.std::pair"**
  %5 = load %"struct.std::pair"*, %"struct.std::pair"** %4, align 8, !tbaa !52
  %6 = icmp eq %"struct.std::pair"* %5, null
  br i1 %6, label %9, label %7

7:                                                ; preds = %2
  %8 = bitcast %"struct.std::pair"* %5 to i8*
  tail call void @_ZdlPv(i8* nonnull %8) #19
  br label %9

9:                                                ; preds = %2, %7
  %10 = bitcast %"struct.std::_Rb_tree_node"* %1 to i8*
  tail call void @_ZdlPv(i8* %10) #19
  ret void
}

declare nonnull align 8 dereferenceable(16) %"class.std::basic_istream"* @_ZNSi10_M_extractIxEERSiRT_(%"class.std::basic_istream"* nonnull align 8 dereferenceable(16), i64* nonnull align 8 dereferenceable(8)) local_unnamed_addr #0

declare nonnull align 8 dereferenceable(8) %"class.std::basic_ostream"* @_ZNSo3putEc(%"class.std::basic_ostream"* nonnull align 8 dereferenceable(8), i8 signext) local_unnamed_addr #0

declare nonnull align 8 dereferenceable(8) %"class.std::basic_ostream"* @_ZNSo5flushEv(%"class.std::basic_ostream"* nonnull align 8 dereferenceable(8)) local_unnamed_addr #0

; Function Attrs: noreturn
declare void @_ZSt16__throw_bad_castv() local_unnamed_addr #8

declare void @_ZNKSt5ctypeIcE13_M_widen_initEv(%"class.std::ctype"* nonnull align 8 dereferenceable(570)) local_unnamed_addr #0

declare nonnull align 8 dereferenceable(8) %"class.std::basic_ostream"* @_ZNSo9_M_insertIxEERSoT_(%"class.std::basic_ostream"* nonnull align 8 dereferenceable(8), i64) local_unnamed_addr #0

; Function Attrs: sspstrong uwtable
define linkonce_odr dso_local %"struct.std::_Rb_tree_node_base"* @_ZNSt8_Rb_treeIxSt4pairIKxSt6vectorIS0_IxxESaIS3_EEESt10_Select1stIS6_ESt4lessIxESaIS6_EE22_M_emplace_hint_uniqueIJRKSt21piecewise_construct_tSt5tupleIJRS1_EESH_IJEEEEESt17_Rb_tree_iteratorIS6_ESt23_Rb_tree_const_iteratorIS6_EDpOT_(%"class.std::_Rb_tree"* nonnull align 8 dereferenceable(48) %0, %"struct.std::_Rb_tree_node_base"* %1, %"struct.std::piecewise_construct_t"* nonnull align 1 dereferenceable(1) %2, %"class.std::tuple.13"* nonnull align 8 dereferenceable(8) %3, %"class.std::tuple.16"* nonnull align 1 dereferenceable(1) %4) local_unnamed_addr #12 comdat align 2 personality i8* bitcast (i32 (...)* @__gxx_personality_v0 to i8*) {
  %6 = tail call noalias nonnull i8* @_Znwm(i64 64) #21
  %7 = getelementptr inbounds i8, i8* %6, i64 32
  %8 = getelementptr inbounds %"class.std::tuple.13", %"class.std::tuple.13"* %3, i64 0, i32 0, i32 0, i32 0
  %9 = load i64*, i64** %8, align 8, !tbaa !68
  %10 = bitcast i8* %7 to i64*
  %11 = load i64, i64* %9, align 8, !tbaa !23
  store i64 %11, i64* %10, align 8, !tbaa !59
  %12 = getelementptr inbounds i8, i8* %6, i64 40
  tail call void @llvm.memset.p0i8.i64(i8* noundef nonnull align 8 dereferenceable(24) %12, i8 0, i64 24, i1 false) #19
  %13 = invoke { %"struct.std::_Rb_tree_node_base"*, %"struct.std::_Rb_tree_node_base"* } @_ZNSt8_Rb_treeIxSt4pairIKxSt6vectorIS0_IxxESaIS3_EEESt10_Select1stIS6_ESt4lessIxESaIS6_EE29_M_get_insert_hint_unique_posESt23_Rb_tree_const_iteratorIS6_ERS1_(%"class.std::_Rb_tree"* nonnull align 8 dereferenceable(48) %0, %"struct.std::_Rb_tree_node_base"* %1, i64* nonnull align 8 dereferenceable(8) %10)
          to label %14 unwind label %41

14:                                               ; preds = %5
  %15 = extractvalue { %"struct.std::_Rb_tree_node_base"*, %"struct.std::_Rb_tree_node_base"* } %13, 0
  %16 = extractvalue { %"struct.std::_Rb_tree_node_base"*, %"struct.std::_Rb_tree_node_base"* } %13, 1
  %17 = icmp eq %"struct.std::_Rb_tree_node_base"* %16, null
  br i1 %17, label %46, label %18

18:                                               ; preds = %14
  %19 = icmp eq %"struct.std::_Rb_tree_node_base"* %15, null
  br i1 %19, label %20, label %31

20:                                               ; preds = %18
  %21 = getelementptr inbounds %"class.std::_Rb_tree", %"class.std::_Rb_tree"* %0, i64 0, i32 0, i32 0, i32 0, i32 0
  %22 = getelementptr inbounds i8, i8* %21, i64 8
  %23 = bitcast i8* %22 to %"struct.std::_Rb_tree_node_base"*
  %24 = icmp eq %"struct.std::_Rb_tree_node_base"* %16, %23
  br i1 %24, label %31, label %25

25:                                               ; preds = %20
  %26 = getelementptr inbounds %"struct.std::_Rb_tree_node_base", %"struct.std::_Rb_tree_node_base"* %16, i64 1
  %27 = bitcast %"struct.std::_Rb_tree_node_base"* %26 to i64*
  %28 = load i64, i64* %10, align 8, !tbaa !23
  %29 = load i64, i64* %27, align 8, !tbaa !23
  %30 = icmp slt i64 %28, %29
  br label %31

31:                                               ; preds = %18, %25, %20
  %32 = phi i1 [ true, %20 ], [ %30, %25 ], [ true, %18 ]
  %33 = bitcast i8* %6 to %"struct.std::_Rb_tree_node_base"*
  %34 = getelementptr inbounds %"class.std::_Rb_tree", %"class.std::_Rb_tree"* %0, i64 0, i32 0, i32 0, i32 0, i32 0
  %35 = getelementptr inbounds i8, i8* %34, i64 8
  %36 = bitcast i8* %35 to %"struct.std::_Rb_tree_node_base"*
  tail call void @_ZSt29_Rb_tree_insert_and_rebalancebPSt18_Rb_tree_node_baseS0_RS_(i1 zeroext %32, %"struct.std::_Rb_tree_node_base"* nonnull %33, %"struct.std::_Rb_tree_node_base"* nonnull %16, %"struct.std::_Rb_tree_node_base"* nonnull align 8 dereferenceable(32) %36) #19
  %37 = getelementptr inbounds i8, i8* %34, i64 40
  %38 = bitcast i8* %37 to i64*
  %39 = load i64, i64* %38, align 8, !tbaa !36
  %40 = add i64 %39, 1
  store i64 %40, i64* %38, align 8, !tbaa !36
  br label %53

41:                                               ; preds = %5
  %42 = landingpad { i8*, i32 }
          catch i8* null
  %43 = bitcast i8* %6 to %"struct.std::_Rb_tree_node"*
  %44 = extractvalue { i8*, i32 } %42, 0
  %45 = tail call i8* @__cxa_begin_catch(i8* %44) #19
  tail call void @_ZNSt8_Rb_treeIxSt4pairIKxSt6vectorIS0_IxxESaIS3_EEESt10_Select1stIS6_ESt4lessIxESaIS6_EE12_M_drop_nodeEPSt13_Rb_tree_nodeIS6_E(%"class.std::_Rb_tree"* nonnull align 8 dereferenceable(48) %0, %"struct.std::_Rb_tree_node"* nonnull %43) #19
  invoke void @__cxa_rethrow() #20
          to label %61 unwind label %55

46:                                               ; preds = %14
  %47 = bitcast i8* %12 to %"struct.std::pair"**
  %48 = load %"struct.std::pair"*, %"struct.std::pair"** %47, align 8, !tbaa !52
  %49 = icmp eq %"struct.std::pair"* %48, null
  br i1 %49, label %52, label %50

50:                                               ; preds = %46
  %51 = bitcast %"struct.std::pair"* %48 to i8*
  tail call void @_ZdlPv(i8* nonnull %51) #19
  br label %52

52:                                               ; preds = %46, %50
  tail call void @_ZdlPv(i8* nonnull %6) #19
  br label %53

53:                                               ; preds = %52, %31
  %54 = phi %"struct.std::_Rb_tree_node_base"* [ %15, %52 ], [ %33, %31 ]
  ret %"struct.std::_Rb_tree_node_base"* %54

55:                                               ; preds = %41
  %56 = landingpad { i8*, i32 }
          cleanup
  invoke void @__cxa_end_catch()
          to label %57 unwind label %58

57:                                               ; preds = %55
  resume { i8*, i32 } %56

58:                                               ; preds = %55
  %59 = landingpad { i8*, i32 }
          catch i8* null
  %60 = extractvalue { i8*, i32 } %59, 0
  tail call void @__clang_call_terminate(i8* %60) #23
  unreachable

61:                                               ; preds = %41
  unreachable
}

; Function Attrs: sspstrong uwtable
define linkonce_odr dso_local { %"struct.std::_Rb_tree_node_base"*, %"struct.std::_Rb_tree_node_base"* } @_ZNSt8_Rb_treeIxSt4pairIKxSt6vectorIS0_IxxESaIS3_EEESt10_Select1stIS6_ESt4lessIxESaIS6_EE29_M_get_insert_hint_unique_posESt23_Rb_tree_const_iteratorIS6_ERS1_(%"class.std::_Rb_tree"* nonnull align 8 dereferenceable(48) %0, %"struct.std::_Rb_tree_node_base"* %1, i64* nonnull align 8 dereferenceable(8) %2) local_unnamed_addr #12 comdat align 2 {
  %4 = getelementptr inbounds %"class.std::_Rb_tree", %"class.std::_Rb_tree"* %0, i64 0, i32 0, i32 0, i32 0, i32 0
  %5 = getelementptr inbounds i8, i8* %4, i64 8
  %6 = bitcast i8* %5 to %"struct.std::_Rb_tree_node_base"*
  %7 = icmp eq %"struct.std::_Rb_tree_node_base"* %6, %1
  br i1 %7, label %8, label %61

8:                                                ; preds = %3
  %9 = getelementptr inbounds i8, i8* %4, i64 40
  %10 = bitcast i8* %9 to i64*
  %11 = load i64, i64* %10, align 8, !tbaa !36
  %12 = icmp eq i64 %11, 0
  br i1 %12, label %13, label %15

13:                                               ; preds = %8
  %14 = load i64, i64* %2, align 8
  br label %24

15:                                               ; preds = %8
  %16 = getelementptr inbounds i8, i8* %4, i64 32
  %17 = bitcast i8* %16 to %"struct.std::_Rb_tree_node_base"**
  %18 = load %"struct.std::_Rb_tree_node_base"*, %"struct.std::_Rb_tree_node_base"** %17, align 8, !tbaa !44
  %19 = getelementptr inbounds %"struct.std::_Rb_tree_node_base", %"struct.std::_Rb_tree_node_base"* %18, i64 1
  %20 = bitcast %"struct.std::_Rb_tree_node_base"* %19 to i64*
  %21 = load i64, i64* %20, align 8, !tbaa !23
  %22 = load i64, i64* %2, align 8, !tbaa !23
  %23 = icmp slt i64 %21, %22
  br i1 %23, label %174, label %24

24:                                               ; preds = %13, %15
  %25 = phi i64 [ %14, %13 ], [ %22, %15 ]
  %26 = getelementptr inbounds i8, i8* %4, i64 16
  %27 = bitcast i8* %26 to %"struct.std::_Rb_tree_node"**
  %28 = load %"struct.std::_Rb_tree_node"*, %"struct.std::_Rb_tree_node"** %27, align 8, !tbaa !44
  %29 = icmp eq %"struct.std::_Rb_tree_node"* %28, null
  br i1 %29, label %44, label %30

30:                                               ; preds = %24, %30
  %31 = phi %"struct.std::_Rb_tree_node"* [ %40, %30 ], [ %28, %24 ]
  %32 = getelementptr inbounds %"struct.std::_Rb_tree_node", %"struct.std::_Rb_tree_node"* %31, i64 0, i32 1
  %33 = bitcast %"struct.__gnu_cxx::__aligned_membuf"* %32 to i64*
  %34 = load i64, i64* %33, align 8, !tbaa !23
  %35 = icmp slt i64 %25, %34
  %36 = getelementptr inbounds %"struct.std::_Rb_tree_node", %"struct.std::_Rb_tree_node"* %31, i64 0, i32 0, i32 2
  %37 = getelementptr inbounds %"struct.std::_Rb_tree_node", %"struct.std::_Rb_tree_node"* %31, i64 0, i32 0, i32 3
  %38 = select i1 %35, %"struct.std::_Rb_tree_node_base"** %36, %"struct.std::_Rb_tree_node_base"** %37
  %39 = bitcast %"struct.std::_Rb_tree_node_base"** %38 to %"struct.std::_Rb_tree_node"**
  %40 = load %"struct.std::_Rb_tree_node"*, %"struct.std::_Rb_tree_node"** %39, align 8, !tbaa !44
  %41 = icmp eq %"struct.std::_Rb_tree_node"* %40, null
  br i1 %41, label %42, label %30, !llvm.loop !70

42:                                               ; preds = %30
  %43 = getelementptr %"struct.std::_Rb_tree_node", %"struct.std::_Rb_tree_node"* %31, i64 0, i32 0
  br i1 %35, label %44, label %52

44:                                               ; preds = %42, %24
  %45 = phi %"struct.std::_Rb_tree_node_base"* [ %43, %42 ], [ %1, %24 ]
  %46 = getelementptr inbounds i8, i8* %4, i64 24
  %47 = bitcast i8* %46 to %"struct.std::_Rb_tree_node_base"**
  %48 = load %"struct.std::_Rb_tree_node_base"*, %"struct.std::_Rb_tree_node_base"** %47, align 8, !tbaa !34
  %49 = icmp eq %"struct.std::_Rb_tree_node_base"* %45, %48
  br i1 %49, label %174, label %50

50:                                               ; preds = %44
  %51 = tail call %"struct.std::_Rb_tree_node_base"* @_ZSt18_Rb_tree_decrementPSt18_Rb_tree_node_base(%"struct.std::_Rb_tree_node_base"* %45) #22
  br label %52

52:                                               ; preds = %50, %42
  %53 = phi %"struct.std::_Rb_tree_node_base"* [ %45, %50 ], [ %43, %42 ]
  %54 = phi %"struct.std::_Rb_tree_node_base"* [ %51, %50 ], [ %43, %42 ]
  %55 = getelementptr inbounds %"struct.std::_Rb_tree_node_base", %"struct.std::_Rb_tree_node_base"* %54, i64 1
  %56 = bitcast %"struct.std::_Rb_tree_node_base"* %55 to i64*
  %57 = load i64, i64* %56, align 8, !tbaa !23
  %58 = icmp slt i64 %57, %25
  %59 = select i1 %58, %"struct.std::_Rb_tree_node_base"* null, %"struct.std::_Rb_tree_node_base"* %54
  %60 = select i1 %58, %"struct.std::_Rb_tree_node_base"* %53, %"struct.std::_Rb_tree_node_base"* null
  br label %174

61:                                               ; preds = %3
  %62 = getelementptr inbounds %"struct.std::_Rb_tree_node_base", %"struct.std::_Rb_tree_node_base"* %1, i64 1
  %63 = bitcast %"struct.std::_Rb_tree_node_base"* %62 to i64*
  %64 = load i64, i64* %2, align 8, !tbaa !23
  %65 = load i64, i64* %63, align 8, !tbaa !23
  %66 = icmp slt i64 %64, %65
  br i1 %66, label %67, label %118

67:                                               ; preds = %61
  %68 = getelementptr inbounds i8, i8* %4, i64 24
  %69 = bitcast i8* %68 to %"struct.std::_Rb_tree_node_base"**
  %70 = load %"struct.std::_Rb_tree_node_base"*, %"struct.std::_Rb_tree_node_base"** %69, align 8, !tbaa !44
  %71 = icmp eq %"struct.std::_Rb_tree_node_base"* %70, %1
  br i1 %71, label %174, label %72

72:                                               ; preds = %67
  %73 = tail call %"struct.std::_Rb_tree_node_base"* @_ZSt18_Rb_tree_decrementPSt18_Rb_tree_node_base(%"struct.std::_Rb_tree_node_base"* nonnull %1) #22
  %74 = getelementptr inbounds %"struct.std::_Rb_tree_node_base", %"struct.std::_Rb_tree_node_base"* %73, i64 1
  %75 = bitcast %"struct.std::_Rb_tree_node_base"* %74 to i64*
  %76 = load i64, i64* %75, align 8, !tbaa !23
  %77 = icmp slt i64 %76, %64
  br i1 %77, label %78, label %85

78:                                               ; preds = %72
  %79 = getelementptr inbounds %"struct.std::_Rb_tree_node_base", %"struct.std::_Rb_tree_node_base"* %73, i64 0, i32 3
  %80 = bitcast %"struct.std::_Rb_tree_node_base"** %79 to %"struct.std::_Rb_tree_node"**
  %81 = load %"struct.std::_Rb_tree_node"*, %"struct.std::_Rb_tree_node"** %80, align 8, !tbaa !65
  %82 = icmp eq %"struct.std::_Rb_tree_node"* %81, null
  %83 = select i1 %82, %"struct.std::_Rb_tree_node_base"* null, %"struct.std::_Rb_tree_node_base"* %1
  %84 = select i1 %82, %"struct.std::_Rb_tree_node_base"* %73, %"struct.std::_Rb_tree_node_base"* %1
  br label %174

85:                                               ; preds = %72
  %86 = getelementptr inbounds i8, i8* %4, i64 16
  %87 = bitcast i8* %86 to %"struct.std::_Rb_tree_node"**
  %88 = load %"struct.std::_Rb_tree_node"*, %"struct.std::_Rb_tree_node"** %87, align 8, !tbaa !44
  %89 = icmp eq %"struct.std::_Rb_tree_node"* %88, null
  br i1 %89, label %104, label %90

90:                                               ; preds = %85, %90
  %91 = phi %"struct.std::_Rb_tree_node"* [ %100, %90 ], [ %88, %85 ]
  %92 = getelementptr inbounds %"struct.std::_Rb_tree_node", %"struct.std::_Rb_tree_node"* %91, i64 0, i32 1
  %93 = bitcast %"struct.__gnu_cxx::__aligned_membuf"* %92 to i64*
  %94 = load i64, i64* %93, align 8, !tbaa !23
  %95 = icmp slt i64 %64, %94
  %96 = getelementptr inbounds %"struct.std::_Rb_tree_node", %"struct.std::_Rb_tree_node"* %91, i64 0, i32 0, i32 2
  %97 = getelementptr inbounds %"struct.std::_Rb_tree_node", %"struct.std::_Rb_tree_node"* %91, i64 0, i32 0, i32 3
  %98 = select i1 %95, %"struct.std::_Rb_tree_node_base"** %96, %"struct.std::_Rb_tree_node_base"** %97
  %99 = bitcast %"struct.std::_Rb_tree_node_base"** %98 to %"struct.std::_Rb_tree_node"**
  %100 = load %"struct.std::_Rb_tree_node"*, %"struct.std::_Rb_tree_node"** %99, align 8, !tbaa !44
  %101 = icmp eq %"struct.std::_Rb_tree_node"* %100, null
  br i1 %101, label %102, label %90, !llvm.loop !70

102:                                              ; preds = %90
  %103 = getelementptr %"struct.std::_Rb_tree_node", %"struct.std::_Rb_tree_node"* %91, i64 0, i32 0
  br i1 %95, label %104, label %109

104:                                              ; preds = %102, %85
  %105 = phi %"struct.std::_Rb_tree_node_base"* [ %103, %102 ], [ %6, %85 ]
  %106 = icmp eq %"struct.std::_Rb_tree_node_base"* %105, %70
  br i1 %106, label %174, label %107

107:                                              ; preds = %104
  %108 = tail call %"struct.std::_Rb_tree_node_base"* @_ZSt18_Rb_tree_decrementPSt18_Rb_tree_node_base(%"struct.std::_Rb_tree_node_base"* %105) #22
  br label %109

109:                                              ; preds = %107, %102
  %110 = phi %"struct.std::_Rb_tree_node_base"* [ %105, %107 ], [ %103, %102 ]
  %111 = phi %"struct.std::_Rb_tree_node_base"* [ %108, %107 ], [ %103, %102 ]
  %112 = getelementptr inbounds %"struct.std::_Rb_tree_node_base", %"struct.std::_Rb_tree_node_base"* %111, i64 1
  %113 = bitcast %"struct.std::_Rb_tree_node_base"* %112 to i64*
  %114 = load i64, i64* %113, align 8, !tbaa !23
  %115 = icmp slt i64 %114, %64
  %116 = select i1 %115, %"struct.std::_Rb_tree_node_base"* null, %"struct.std::_Rb_tree_node_base"* %111
  %117 = select i1 %115, %"struct.std::_Rb_tree_node_base"* %110, %"struct.std::_Rb_tree_node_base"* null
  br label %174

118:                                              ; preds = %61
  %119 = icmp slt i64 %65, %64
  br i1 %119, label %120, label %174

120:                                              ; preds = %118
  %121 = getelementptr inbounds i8, i8* %4, i64 32
  %122 = bitcast i8* %121 to %"struct.std::_Rb_tree_node_base"**
  %123 = load %"struct.std::_Rb_tree_node_base"*, %"struct.std::_Rb_tree_node_base"** %122, align 8, !tbaa !44
  %124 = icmp eq %"struct.std::_Rb_tree_node_base"* %123, %1
  br i1 %124, label %174, label %125

125:                                              ; preds = %120
  %126 = tail call %"struct.std::_Rb_tree_node_base"* @_ZSt18_Rb_tree_incrementPSt18_Rb_tree_node_base(%"struct.std::_Rb_tree_node_base"* nonnull %1) #22
  %127 = getelementptr inbounds %"struct.std::_Rb_tree_node_base", %"struct.std::_Rb_tree_node_base"* %126, i64 1
  %128 = bitcast %"struct.std::_Rb_tree_node_base"* %127 to i64*
  %129 = load i64, i64* %128, align 8, !tbaa !23
  %130 = icmp slt i64 %64, %129
  br i1 %130, label %131, label %138

131:                                              ; preds = %125
  %132 = getelementptr inbounds %"struct.std::_Rb_tree_node_base", %"struct.std::_Rb_tree_node_base"* %1, i64 0, i32 3
  %133 = bitcast %"struct.std::_Rb_tree_node_base"** %132 to %"struct.std::_Rb_tree_node"**
  %134 = load %"struct.std::_Rb_tree_node"*, %"struct.std::_Rb_tree_node"** %133, align 8, !tbaa !65
  %135 = icmp eq %"struct.std::_Rb_tree_node"* %134, null
  %136 = select i1 %135, %"struct.std::_Rb_tree_node_base"* null, %"struct.std::_Rb_tree_node_base"* %126
  %137 = select i1 %135, %"struct.std::_Rb_tree_node_base"* %1, %"struct.std::_Rb_tree_node_base"* %126
  br label %174

138:                                              ; preds = %125
  %139 = getelementptr inbounds i8, i8* %4, i64 16
  %140 = bitcast i8* %139 to %"struct.std::_Rb_tree_node"**
  %141 = load %"struct.std::_Rb_tree_node"*, %"struct.std::_Rb_tree_node"** %140, align 8, !tbaa !44
  %142 = icmp eq %"struct.std::_Rb_tree_node"* %141, null
  br i1 %142, label %157, label %143

143:                                              ; preds = %138, %143
  %144 = phi %"struct.std::_Rb_tree_node"* [ %153, %143 ], [ %141, %138 ]
  %145 = getelementptr inbounds %"struct.std::_Rb_tree_node", %"struct.std::_Rb_tree_node"* %144, i64 0, i32 1
  %146 = bitcast %"struct.__gnu_cxx::__aligned_membuf"* %145 to i64*
  %147 = load i64, i64* %146, align 8, !tbaa !23
  %148 = icmp slt i64 %64, %147
  %149 = getelementptr inbounds %"struct.std::_Rb_tree_node", %"struct.std::_Rb_tree_node"* %144, i64 0, i32 0, i32 2
  %150 = getelementptr inbounds %"struct.std::_Rb_tree_node", %"struct.std::_Rb_tree_node"* %144, i64 0, i32 0, i32 3
  %151 = select i1 %148, %"struct.std::_Rb_tree_node_base"** %149, %"struct.std::_Rb_tree_node_base"** %150
  %152 = bitcast %"struct.std::_Rb_tree_node_base"** %151 to %"struct.std::_Rb_tree_node"**
  %153 = load %"struct.std::_Rb_tree_node"*, %"struct.std::_Rb_tree_node"** %152, align 8, !tbaa !44
  %154 = icmp eq %"struct.std::_Rb_tree_node"* %153, null
  br i1 %154, label %155, label %143, !llvm.loop !70

155:                                              ; preds = %143
  %156 = getelementptr %"struct.std::_Rb_tree_node", %"struct.std::_Rb_tree_node"* %144, i64 0, i32 0
  br i1 %148, label %157, label %165

157:                                              ; preds = %155, %138
  %158 = phi %"struct.std::_Rb_tree_node_base"* [ %156, %155 ], [ %6, %138 ]
  %159 = getelementptr inbounds i8, i8* %4, i64 24
  %160 = bitcast i8* %159 to %"struct.std::_Rb_tree_node_base"**
  %161 = load %"struct.std::_Rb_tree_node_base"*, %"struct.std::_Rb_tree_node_base"** %160, align 8, !tbaa !34
  %162 = icmp eq %"struct.std::_Rb_tree_node_base"* %158, %161
  br i1 %162, label %174, label %163

163:                                              ; preds = %157
  %164 = tail call %"struct.std::_Rb_tree_node_base"* @_ZSt18_Rb_tree_decrementPSt18_Rb_tree_node_base(%"struct.std::_Rb_tree_node_base"* %158) #22
  br label %165

165:                                              ; preds = %163, %155
  %166 = phi %"struct.std::_Rb_tree_node_base"* [ %158, %163 ], [ %156, %155 ]
  %167 = phi %"struct.std::_Rb_tree_node_base"* [ %164, %163 ], [ %156, %155 ]
  %168 = getelementptr inbounds %"struct.std::_Rb_tree_node_base", %"struct.std::_Rb_tree_node_base"* %167, i64 1
  %169 = bitcast %"struct.std::_Rb_tree_node_base"* %168 to i64*
  %170 = load i64, i64* %169, align 8, !tbaa !23
  %171 = icmp slt i64 %170, %64
  %172 = select i1 %171, %"struct.std::_Rb_tree_node_base"* null, %"struct.std::_Rb_tree_node_base"* %167
  %173 = select i1 %171, %"struct.std::_Rb_tree_node_base"* %166, %"struct.std::_Rb_tree_node_base"* null
  br label %174

174:                                              ; preds = %165, %157, %109, %104, %52, %44, %131, %78, %118, %120, %67, %15
  %175 = phi %"struct.std::_Rb_tree_node_base"* [ null, %15 ], [ %1, %67 ], [ null, %120 ], [ %1, %118 ], [ %83, %78 ], [ %136, %131 ], [ %59, %52 ], [ null, %44 ], [ %116, %109 ], [ null, %104 ], [ %172, %165 ], [ null, %157 ]
  %176 = phi %"struct.std::_Rb_tree_node_base"* [ %18, %15 ], [ %1, %67 ], [ %1, %120 ], [ null, %118 ], [ %84, %78 ], [ %137, %131 ], [ %60, %52 ], [ %45, %44 ], [ %117, %109 ], [ %70, %104 ], [ %173, %165 ], [ %158, %157 ]
  %177 = insertvalue { %"struct.std::_Rb_tree_node_base"*, %"struct.std::_Rb_tree_node_base"* } undef, %"struct.std::_Rb_tree_node_base"* %175, 0
  %178 = insertvalue { %"struct.std::_Rb_tree_node_base"*, %"struct.std::_Rb_tree_node_base"* } %177, %"struct.std::_Rb_tree_node_base"* %176, 1
  ret { %"struct.std::_Rb_tree_node_base"*, %"struct.std::_Rb_tree_node_base"* } %178
}

; Function Attrs: argmemonly mustprogress nofree nounwind willreturn writeonly
declare void @llvm.memset.p0i8.i64(i8* nocapture writeonly, i8, i64, i1 immarg) #13

; Function Attrs: mustprogress nofree nounwind readonly willreturn
declare %"struct.std::_Rb_tree_node_base"* @_ZSt18_Rb_tree_decrementPSt18_Rb_tree_node_base(%"struct.std::_Rb_tree_node_base"*) local_unnamed_addr #14

; Function Attrs: nounwind
declare void @_ZSt29_Rb_tree_insert_and_rebalancebPSt18_Rb_tree_node_baseS0_RS_(i1 zeroext, %"struct.std::_Rb_tree_node_base"*, %"struct.std::_Rb_tree_node_base"*, %"struct.std::_Rb_tree_node_base"* nonnull align 8 dereferenceable(32)) local_unnamed_addr #1

; Function Attrs: noreturn
declare void @_ZSt20__throw_length_errorPKc(i8*) local_unnamed_addr #8

; Function Attrs: mustprogress nofree nounwind readonly willreturn
declare %"struct.std::_Rb_tree_node_base"* @_ZSt18_Rb_tree_incrementPSt18_Rb_tree_node_base(%"struct.std::_Rb_tree_node_base"*) local_unnamed_addr #14

; Function Attrs: sspstrong uwtable
define linkonce_odr dso_local nonnull align 8 dereferenceable(24) %"class.std::vector"* @_ZNSt6vectorISt4pairIxxESaIS1_EEaSERKS3_(%"class.std::vector"* nonnull align 8 dereferenceable(24) %0, %"class.std::vector"* nonnull align 8 dereferenceable(24) %1) local_unnamed_addr #12 comdat align 2 personality i32 (...)* @__gxx_personality_v0 {
  %3 = icmp eq %"class.std::vector"* %1, %0
  br i1 %3, label %94, label %4

4:                                                ; preds = %2
  %5 = getelementptr inbounds %"class.std::vector", %"class.std::vector"* %1, i64 0, i32 0, i32 0, i32 0, i32 1
  %6 = load %"struct.std::pair"*, %"struct.std::pair"** %5, align 8, !tbaa !46
  %7 = getelementptr inbounds %"class.std::vector", %"class.std::vector"* %1, i64 0, i32 0, i32 0, i32 0, i32 0
  %8 = load %"struct.std::pair"*, %"struct.std::pair"** %7, align 8, !tbaa !52
  %9 = ptrtoint %"struct.std::pair"* %6 to i64
  %10 = ptrtoint %"struct.std::pair"* %8 to i64
  %11 = sub i64 %9, %10
  %12 = ashr exact i64 %11, 4
  %13 = getelementptr inbounds %"class.std::vector", %"class.std::vector"* %0, i64 0, i32 0, i32 0, i32 0, i32 2
  %14 = load %"struct.std::pair"*, %"struct.std::pair"** %13, align 8, !tbaa !48
  %15 = getelementptr inbounds %"class.std::vector", %"class.std::vector"* %0, i64 0, i32 0, i32 0, i32 0, i32 0
  %16 = load %"struct.std::pair"*, %"struct.std::pair"** %15, align 8, !tbaa !52
  %17 = ptrtoint %"struct.std::pair"* %14 to i64
  %18 = ptrtoint %"struct.std::pair"* %16 to i64
  %19 = sub i64 %17, %18
  %20 = ashr exact i64 %19, 4
  %21 = icmp ugt i64 %12, %20
  br i1 %21, label %22, label %40

22:                                               ; preds = %4
  %23 = bitcast %"struct.std::pair"* %8 to i8*
  %24 = icmp ugt i64 %12, 576460752303423487
  br i1 %24, label %25, label %26, !prof !62

25:                                               ; preds = %22
  tail call void @_ZSt28__throw_bad_array_new_lengthv() #20
  unreachable

26:                                               ; preds = %22
  %27 = tail call noalias nonnull i8* @_Znwm(i64 %11) #21
  %28 = bitcast i8* %27 to %"struct.std::pair"*
  %29 = icmp eq %"struct.std::pair"* %8, %6
  br i1 %29, label %32, label %30

30:                                               ; preds = %26
  %31 = and i64 %11, -16
  tail call void @llvm.memcpy.p0i8.p0i8.i64(i8* nonnull align 8 %27, i8* align 8 %23, i64 %31, i1 false)
  br label %32

32:                                               ; preds = %26, %30
  %33 = load %"struct.std::pair"*, %"struct.std::pair"** %15, align 8, !tbaa !52
  %34 = icmp eq %"struct.std::pair"* %33, null
  br i1 %34, label %37, label %35

35:                                               ; preds = %32
  %36 = bitcast %"struct.std::pair"* %33 to i8*
  tail call void @_ZdlPv(i8* nonnull %36) #19
  br label %37

37:                                               ; preds = %32, %35
  %38 = bitcast %"class.std::vector"* %0 to i8**
  store i8* %27, i8** %38, align 8, !tbaa !52
  %39 = getelementptr inbounds %"struct.std::pair", %"struct.std::pair"* %28, i64 %12
  store %"struct.std::pair"* %39, %"struct.std::pair"** %13, align 8, !tbaa !48
  br label %90

40:                                               ; preds = %4
  %41 = getelementptr inbounds %"class.std::vector", %"class.std::vector"* %0, i64 0, i32 0, i32 0, i32 0, i32 1
  %42 = load %"struct.std::pair"*, %"struct.std::pair"** %41, align 8, !tbaa !46
  %43 = ptrtoint %"struct.std::pair"* %42 to i64
  %44 = sub i64 %43, %18
  %45 = ashr exact i64 %44, 4
  %46 = icmp ult i64 %45, %12
  br i1 %46, label %62, label %47

47:                                               ; preds = %40
  %48 = icmp sgt i64 %11, 0
  br i1 %48, label %49, label %90

49:                                               ; preds = %47
  %50 = lshr exact i64 %11, 4
  br label %51

51:                                               ; preds = %51, %49
  %52 = phi i64 [ %60, %51 ], [ %50, %49 ]
  %53 = phi %"struct.std::pair"* [ %59, %51 ], [ %16, %49 ]
  %54 = phi %"struct.std::pair"* [ %58, %51 ], [ %8, %49 ]
  %55 = bitcast %"struct.std::pair"* %54 to <2 x i64>*
  %56 = load <2 x i64>, <2 x i64>* %55, align 8, !tbaa !23
  %57 = bitcast %"struct.std::pair"* %53 to <2 x i64>*
  store <2 x i64> %56, <2 x i64>* %57, align 8, !tbaa !23
  %58 = getelementptr inbounds %"struct.std::pair", %"struct.std::pair"* %54, i64 1
  %59 = getelementptr inbounds %"struct.std::pair", %"struct.std::pair"* %53, i64 1
  %60 = add nsw i64 %52, -1
  %61 = icmp sgt i64 %52, 1
  br i1 %61, label %51, label %90, !llvm.loop !71

62:                                               ; preds = %40
  %63 = getelementptr inbounds %"struct.std::pair", %"struct.std::pair"* %8, i64 %45
  %64 = icmp sgt i64 %44, 0
  br i1 %64, label %65, label %78

65:                                               ; preds = %62
  %66 = lshr exact i64 %44, 4
  br label %67

67:                                               ; preds = %67, %65
  %68 = phi i64 [ %76, %67 ], [ %66, %65 ]
  %69 = phi %"struct.std::pair"* [ %75, %67 ], [ %16, %65 ]
  %70 = phi %"struct.std::pair"* [ %74, %67 ], [ %8, %65 ]
  %71 = bitcast %"struct.std::pair"* %70 to <2 x i64>*
  %72 = load <2 x i64>, <2 x i64>* %71, align 8, !tbaa !23
  %73 = bitcast %"struct.std::pair"* %69 to <2 x i64>*
  store <2 x i64> %72, <2 x i64>* %73, align 8, !tbaa !23
  %74 = getelementptr inbounds %"struct.std::pair", %"struct.std::pair"* %70, i64 1
  %75 = getelementptr inbounds %"struct.std::pair", %"struct.std::pair"* %69, i64 1
  %76 = add nsw i64 %68, -1
  %77 = icmp sgt i64 %68, 1
  br i1 %77, label %67, label %78, !llvm.loop !72

78:                                               ; preds = %67, %62
  %79 = icmp eq %"struct.std::pair"* %63, %6
  br i1 %79, label %90, label %80

80:                                               ; preds = %78, %80
  %81 = phi %"struct.std::pair"* [ %86, %80 ], [ %42, %78 ]
  %82 = phi %"struct.std::pair"* [ %85, %80 ], [ %63, %78 ]
  %83 = bitcast %"struct.std::pair"* %81 to i8*
  %84 = bitcast %"struct.std::pair"* %82 to i8*
  tail call void @llvm.memcpy.p0i8.p0i8.i64(i8* noundef nonnull align 8 dereferenceable(16) %83, i8* noundef nonnull align 8 dereferenceable(16) %84, i64 16, i1 false) #19
  %85 = getelementptr inbounds %"struct.std::pair", %"struct.std::pair"* %82, i64 1
  %86 = getelementptr inbounds %"struct.std::pair", %"struct.std::pair"* %81, i64 1
  %87 = icmp eq %"struct.std::pair"* %85, %6
  br i1 %87, label %88, label %80, !llvm.loop !73

88:                                               ; preds = %80
  %89 = load %"struct.std::pair"*, %"struct.std::pair"** %15, align 8, !tbaa !52
  br label %90

90:                                               ; preds = %51, %88, %47, %78, %37
  %91 = phi %"struct.std::pair"* [ %89, %88 ], [ %16, %47 ], [ %16, %78 ], [ %28, %37 ], [ %16, %51 ]
  %92 = getelementptr inbounds %"struct.std::pair", %"struct.std::pair"* %91, i64 %12
  %93 = getelementptr inbounds %"class.std::vector", %"class.std::vector"* %0, i64 0, i32 0, i32 0, i32 0, i32 1
  store %"struct.std::pair"* %92, %"struct.std::pair"** %93, align 8, !tbaa !46
  br label %94

94:                                               ; preds = %90, %2
  ret %"class.std::vector"* %0
}

; Function Attrs: sspstrong uwtable
define linkonce_odr dso_local void @_ZSt16__introsort_loopIN9__gnu_cxx17__normal_iteratorIPSt4pairIxxESt6vectorIS3_SaIS3_EEEElNS0_5__ops15_Iter_less_iterEEvT_SB_T0_T1_(%"struct.std::pair"* %0, %"struct.std::pair"* %1, i64 %2) local_unnamed_addr #12 comdat {
  %4 = ptrtoint %"struct.std::pair"* %0 to i64
  %5 = getelementptr inbounds %"struct.std::pair", %"struct.std::pair"* %0, i64 1
  %6 = getelementptr inbounds %"struct.std::pair", %"struct.std::pair"* %0, i64 0, i32 0
  %7 = getelementptr inbounds %"struct.std::pair", %"struct.std::pair"* %0, i64 0, i32 1
  %8 = ptrtoint %"struct.std::pair"* %1 to i64
  %9 = sub i64 %8, %4
  %10 = icmp sgt i64 %9, 256
  br i1 %10, label %11, label %95

11:                                               ; preds = %3, %90
  %12 = phi i64 [ %93, %90 ], [ %9, %3 ]
  %13 = phi i64 [ %91, %90 ], [ %2, %3 ]
  %14 = phi %"struct.std::pair"* [ %52, %90 ], [ %1, %3 ]
  %15 = icmp eq i64 %13, 0
  br i1 %15, label %16, label %43

16:                                               ; preds = %11
  %17 = lshr exact i64 %12, 4
  %18 = add nsw i64 %17, -2
  %19 = lshr i64 %18, 1
  br label %20

20:                                               ; preds = %20, %16
  %21 = phi i64 [ %19, %16 ], [ %27, %20 ]
  %22 = getelementptr inbounds %"struct.std::pair", %"struct.std::pair"* %0, i64 %21, i32 0
  %23 = load i64, i64* %22, align 8
  %24 = getelementptr inbounds %"struct.std::pair", %"struct.std::pair"* %0, i64 %21, i32 1
  %25 = load i64, i64* %24, align 8
  tail call void @_ZSt13__adjust_heapIN9__gnu_cxx17__normal_iteratorIPSt4pairIxxESt6vectorIS3_SaIS3_EEEElS3_NS0_5__ops15_Iter_less_iterEEvT_T0_SC_T1_T2_(%"struct.std::pair"* %0, i64 %21, i64 %17, i64 %23, i64 %25)
  %26 = icmp eq i64 %21, 0
  %27 = add nsw i64 %21, -1
  br i1 %26, label %28, label %20, !llvm.loop !74

28:                                               ; preds = %20
  %29 = icmp sgt i64 %12, 16
  br i1 %29, label %30, label %95

30:                                               ; preds = %28, %30
  %31 = phi %"struct.std::pair"* [ %32, %30 ], [ %14, %28 ]
  %32 = getelementptr inbounds %"struct.std::pair", %"struct.std::pair"* %31, i64 -1
  %33 = getelementptr inbounds %"struct.std::pair", %"struct.std::pair"* %32, i64 0, i32 0
  %34 = load i64, i64* %33, align 8
  %35 = getelementptr inbounds %"struct.std::pair", %"struct.std::pair"* %31, i64 -1, i32 1
  %36 = load i64, i64* %35, align 8
  %37 = load i64, i64* %6, align 8, !tbaa !23
  store i64 %37, i64* %33, align 8, !tbaa !49
  %38 = load i64, i64* %7, align 8, !tbaa !23
  store i64 %38, i64* %35, align 8, !tbaa !51
  %39 = ptrtoint %"struct.std::pair"* %32 to i64
  %40 = sub i64 %39, %4
  %41 = ashr exact i64 %40, 4
  tail call void @_ZSt13__adjust_heapIN9__gnu_cxx17__normal_iteratorIPSt4pairIxxESt6vectorIS3_SaIS3_EEEElS3_NS0_5__ops15_Iter_less_iterEEvT_T0_SC_T1_T2_(%"struct.std::pair"* nonnull %0, i64 0, i64 %41, i64 %34, i64 %36)
  %42 = icmp sgt i64 %40, 16
  br i1 %42, label %30, label %95, !llvm.loop !75

43:                                               ; preds = %11
  %44 = lshr i64 %12, 5
  %45 = getelementptr inbounds %"struct.std::pair", %"struct.std::pair"* %0, i64 %44
  %46 = getelementptr inbounds %"struct.std::pair", %"struct.std::pair"* %14, i64 -1
  tail call void @_ZSt22__move_median_to_firstIN9__gnu_cxx17__normal_iteratorIPSt4pairIxxESt6vectorIS3_SaIS3_EEEENS0_5__ops15_Iter_less_iterEEvT_SB_SB_SB_T0_(%"struct.std::pair"* %0, %"struct.std::pair"* nonnull %5, %"struct.std::pair"* %45, %"struct.std::pair"* nonnull %46)
  br label %47

47:                                               ; preds = %83, %43
  %48 = phi %"struct.std::pair"* [ %5, %43 ], [ %89, %83 ]
  %49 = phi %"struct.std::pair"* [ %14, %43 ], [ %69, %83 ]
  %50 = load i64, i64* %6, align 8, !tbaa !49
  br label %51

51:                                               ; preds = %63, %47
  %52 = phi %"struct.std::pair"* [ %48, %47 ], [ %64, %63 ]
  %53 = getelementptr inbounds %"struct.std::pair", %"struct.std::pair"* %52, i64 0, i32 0
  %54 = load i64, i64* %53, align 8, !tbaa !49
  %55 = icmp slt i64 %54, %50
  br i1 %55, label %63, label %56

56:                                               ; preds = %51
  %57 = icmp slt i64 %50, %54
  br i1 %57, label %65, label %58

58:                                               ; preds = %56
  %59 = getelementptr inbounds %"struct.std::pair", %"struct.std::pair"* %52, i64 0, i32 1
  %60 = load i64, i64* %59, align 8, !tbaa !51
  %61 = load i64, i64* %7, align 8, !tbaa !51
  %62 = icmp slt i64 %60, %61
  br i1 %62, label %63, label %65

63:                                               ; preds = %58, %51
  %64 = getelementptr inbounds %"struct.std::pair", %"struct.std::pair"* %52, i64 1
  br label %51, !llvm.loop !76

65:                                               ; preds = %58, %56
  %66 = getelementptr inbounds %"struct.std::pair", %"struct.std::pair"* %52, i64 0, i32 0
  br label %67

67:                                               ; preds = %80, %65
  %68 = phi %"struct.std::pair"* [ %49, %65 ], [ %69, %80 ]
  %69 = getelementptr inbounds %"struct.std::pair", %"struct.std::pair"* %68, i64 -1
  %70 = getelementptr inbounds %"struct.std::pair", %"struct.std::pair"* %69, i64 0, i32 0
  %71 = load i64, i64* %70, align 8, !tbaa !49
  %72 = icmp slt i64 %50, %71
  br i1 %72, label %80, label %73

73:                                               ; preds = %67
  %74 = icmp slt i64 %71, %50
  br i1 %74, label %81, label %75

75:                                               ; preds = %73
  %76 = load i64, i64* %7, align 8, !tbaa !51
  %77 = getelementptr inbounds %"struct.std::pair", %"struct.std::pair"* %68, i64 -1, i32 1
  %78 = load i64, i64* %77, align 8, !tbaa !51
  %79 = icmp slt i64 %76, %78
  br i1 %79, label %80, label %81

80:                                               ; preds = %75, %67
  br label %67, !llvm.loop !77

81:                                               ; preds = %75, %73
  %82 = icmp ult %"struct.std::pair"* %52, %69
  br i1 %82, label %83, label %90

83:                                               ; preds = %81
  %84 = getelementptr inbounds %"struct.std::pair", %"struct.std::pair"* %69, i64 0, i32 0
  store i64 %71, i64* %66, align 8, !tbaa !23
  store i64 %54, i64* %84, align 8, !tbaa !23
  %85 = getelementptr inbounds %"struct.std::pair", %"struct.std::pair"* %52, i64 0, i32 1
  %86 = getelementptr inbounds %"struct.std::pair", %"struct.std::pair"* %68, i64 -1, i32 1
  %87 = load i64, i64* %85, align 8, !tbaa !23
  %88 = load i64, i64* %86, align 8, !tbaa !23
  store i64 %88, i64* %85, align 8, !tbaa !23
  store i64 %87, i64* %86, align 8, !tbaa !23
  %89 = getelementptr inbounds %"struct.std::pair", %"struct.std::pair"* %52, i64 1
  br label %47, !llvm.loop !78

90:                                               ; preds = %81
  %91 = add nsw i64 %13, -1
  tail call void @_ZSt16__introsort_loopIN9__gnu_cxx17__normal_iteratorIPSt4pairIxxESt6vectorIS3_SaIS3_EEEElNS0_5__ops15_Iter_less_iterEEvT_SB_T0_T1_(%"struct.std::pair"* %52, %"struct.std::pair"* %14, i64 %91)
  %92 = ptrtoint %"struct.std::pair"* %52 to i64
  %93 = sub i64 %92, %4
  %94 = icmp sgt i64 %93, 256
  br i1 %94, label %11, label %95, !llvm.loop !79

95:                                               ; preds = %90, %30, %3, %28
  ret void
}

; Function Attrs: sspstrong uwtable
define linkonce_odr dso_local void @_ZSt22__final_insertion_sortIN9__gnu_cxx17__normal_iteratorIPSt4pairIxxESt6vectorIS3_SaIS3_EEEENS0_5__ops15_Iter_less_iterEEvT_SB_T0_(%"struct.std::pair"* %0, %"struct.std::pair"* %1) local_unnamed_addr #12 comdat {
  %3 = ptrtoint %"struct.std::pair"* %1 to i64
  %4 = ptrtoint %"struct.std::pair"* %0 to i64
  %5 = sub i64 %3, %4
  %6 = icmp sgt i64 %5, 256
  br i1 %6, label %7, label %149

7:                                                ; preds = %2
  %8 = getelementptr inbounds %"struct.std::pair", %"struct.std::pair"* %0, i64 0, i32 0
  %9 = getelementptr inbounds %"struct.std::pair", %"struct.std::pair"* %0, i64 0, i32 1
  br label %10

10:                                               ; preds = %7, %112
  %11 = phi i64 [ 0, %7 ], [ %115, %112 ]
  %12 = phi i64 [ 1, %7 ], [ %113, %112 ]
  %13 = phi %"struct.std::pair"* [ %0, %7 ], [ %15, %112 ]
  %14 = add i64 %11, 1
  %15 = getelementptr inbounds %"struct.std::pair", %"struct.std::pair"* %0, i64 %12
  %16 = getelementptr inbounds %"struct.std::pair", %"struct.std::pair"* %15, i64 0, i32 0
  %17 = load i64, i64* %16, align 8, !tbaa !49
  %18 = load i64, i64* %8, align 8, !tbaa !49
  %19 = icmp slt i64 %17, %18
  br i1 %19, label %20, label %23

20:                                               ; preds = %10
  %21 = getelementptr inbounds %"struct.std::pair", %"struct.std::pair"* %13, i64 1, i32 1
  %22 = load i64, i64* %21, align 8
  br label %31

23:                                               ; preds = %10
  %24 = icmp slt i64 %18, %17
  %25 = getelementptr inbounds %"struct.std::pair", %"struct.std::pair"* %13, i64 1, i32 1
  %26 = load i64, i64* %25, align 8
  br i1 %24, label %27, label %28

27:                                               ; preds = %28, %23
  br label %90

28:                                               ; preds = %23
  %29 = load i64, i64* %9, align 8, !tbaa !51
  %30 = icmp slt i64 %26, %29
  br i1 %30, label %31, label %27

31:                                               ; preds = %20, %28
  %32 = phi i64 [ %22, %20 ], [ %26, %28 ]
  %33 = getelementptr inbounds %"struct.std::pair", %"struct.std::pair"* %13, i64 2
  %34 = and i64 %14, 3
  %35 = icmp eq i64 %34, 0
  br i1 %35, label %52, label %36

36:                                               ; preds = %31, %36
  %37 = phi i64 [ %49, %36 ], [ %12, %31 ]
  %38 = phi %"struct.std::pair"* [ %42, %36 ], [ %33, %31 ]
  %39 = phi %"struct.std::pair"* [ %41, %36 ], [ %15, %31 ]
  %40 = phi i64 [ %50, %36 ], [ %34, %31 ]
  %41 = getelementptr inbounds %"struct.std::pair", %"struct.std::pair"* %39, i64 -1
  %42 = getelementptr inbounds %"struct.std::pair", %"struct.std::pair"* %38, i64 -1
  %43 = getelementptr inbounds %"struct.std::pair", %"struct.std::pair"* %41, i64 0, i32 0
  %44 = load i64, i64* %43, align 8, !tbaa !23
  %45 = getelementptr inbounds %"struct.std::pair", %"struct.std::pair"* %42, i64 0, i32 0
  store i64 %44, i64* %45, align 8, !tbaa !49
  %46 = getelementptr inbounds %"struct.std::pair", %"struct.std::pair"* %39, i64 -1, i32 1
  %47 = load i64, i64* %46, align 8, !tbaa !23
  %48 = getelementptr inbounds %"struct.std::pair", %"struct.std::pair"* %38, i64 -1, i32 1
  store i64 %47, i64* %48, align 8, !tbaa !51
  %49 = add nsw i64 %37, -1
  %50 = add i64 %40, -1
  %51 = icmp eq i64 %50, 0
  br i1 %51, label %52, label %36, !llvm.loop !80

52:                                               ; preds = %36, %31
  %53 = phi i64 [ %12, %31 ], [ %49, %36 ]
  %54 = phi %"struct.std::pair"* [ %33, %31 ], [ %42, %36 ]
  %55 = phi %"struct.std::pair"* [ %15, %31 ], [ %41, %36 ]
  %56 = icmp ult i64 %11, 3
  br i1 %56, label %89, label %57

57:                                               ; preds = %52, %57
  %58 = phi i64 [ %87, %57 ], [ %53, %52 ]
  %59 = phi %"struct.std::pair"* [ %80, %57 ], [ %54, %52 ]
  %60 = phi %"struct.std::pair"* [ %79, %57 ], [ %55, %52 ]
  %61 = getelementptr inbounds %"struct.std::pair", %"struct.std::pair"* %60, i64 -1, i32 0
  %62 = load i64, i64* %61, align 8, !tbaa !23
  %63 = getelementptr inbounds %"struct.std::pair", %"struct.std::pair"* %59, i64 -1, i32 0
  store i64 %62, i64* %63, align 8, !tbaa !49
  %64 = getelementptr inbounds %"struct.std::pair", %"struct.std::pair"* %60, i64 -1, i32 1
  %65 = load i64, i64* %64, align 8, !tbaa !23
  %66 = getelementptr inbounds %"struct.std::pair", %"struct.std::pair"* %59, i64 -1, i32 1
  store i64 %65, i64* %66, align 8, !tbaa !51
  %67 = getelementptr inbounds %"struct.std::pair", %"struct.std::pair"* %60, i64 -2, i32 0
  %68 = load i64, i64* %67, align 8, !tbaa !23
  %69 = getelementptr inbounds %"struct.std::pair", %"struct.std::pair"* %59, i64 -2, i32 0
  store i64 %68, i64* %69, align 8, !tbaa !49
  %70 = getelementptr inbounds %"struct.std::pair", %"struct.std::pair"* %60, i64 -2, i32 1
  %71 = load i64, i64* %70, align 8, !tbaa !23
  %72 = getelementptr inbounds %"struct.std::pair", %"struct.std::pair"* %59, i64 -2, i32 1
  store i64 %71, i64* %72, align 8, !tbaa !51
  %73 = getelementptr inbounds %"struct.std::pair", %"struct.std::pair"* %60, i64 -3, i32 0
  %74 = load i64, i64* %73, align 8, !tbaa !23
  %75 = getelementptr inbounds %"struct.std::pair", %"struct.std::pair"* %59, i64 -3, i32 0
  store i64 %74, i64* %75, align 8, !tbaa !49
  %76 = getelementptr inbounds %"struct.std::pair", %"struct.std::pair"* %60, i64 -3, i32 1
  %77 = load i64, i64* %76, align 8, !tbaa !23
  %78 = getelementptr inbounds %"struct.std::pair", %"struct.std::pair"* %59, i64 -3, i32 1
  store i64 %77, i64* %78, align 8, !tbaa !51
  %79 = getelementptr inbounds %"struct.std::pair", %"struct.std::pair"* %60, i64 -4
  %80 = getelementptr inbounds %"struct.std::pair", %"struct.std::pair"* %59, i64 -4
  %81 = getelementptr inbounds %"struct.std::pair", %"struct.std::pair"* %79, i64 0, i32 0
  %82 = load i64, i64* %81, align 8, !tbaa !23
  %83 = getelementptr inbounds %"struct.std::pair", %"struct.std::pair"* %80, i64 0, i32 0
  store i64 %82, i64* %83, align 8, !tbaa !49
  %84 = getelementptr inbounds %"struct.std::pair", %"struct.std::pair"* %60, i64 -4, i32 1
  %85 = load i64, i64* %84, align 8, !tbaa !23
  %86 = getelementptr inbounds %"struct.std::pair", %"struct.std::pair"* %59, i64 -4, i32 1
  store i64 %85, i64* %86, align 8, !tbaa !51
  %87 = add nsw i64 %58, -4
  %88 = icmp sgt i64 %58, 4
  br i1 %88, label %57, label %89, !llvm.loop !81

89:                                               ; preds = %57, %52
  store i64 %17, i64* %8, align 8, !tbaa !49
  store i64 %32, i64* %9, align 8, !tbaa !51
  br label %112

90:                                               ; preds = %27, %105
  %91 = phi %"struct.std::pair"* [ %92, %105 ], [ %15, %27 ]
  %92 = getelementptr inbounds %"struct.std::pair", %"struct.std::pair"* %91, i64 -1
  %93 = getelementptr inbounds %"struct.std::pair", %"struct.std::pair"* %92, i64 0, i32 0
  %94 = load i64, i64* %93, align 8, !tbaa !49
  %95 = icmp slt i64 %17, %94
  br i1 %95, label %96, label %99

96:                                               ; preds = %90
  %97 = getelementptr inbounds %"struct.std::pair", %"struct.std::pair"* %91, i64 -1, i32 1
  %98 = load i64, i64* %97, align 8, !tbaa !23
  br label %105

99:                                               ; preds = %90
  %100 = icmp slt i64 %94, %17
  br i1 %100, label %109, label %101

101:                                              ; preds = %99
  %102 = getelementptr inbounds %"struct.std::pair", %"struct.std::pair"* %91, i64 -1, i32 1
  %103 = load i64, i64* %102, align 8, !tbaa !51
  %104 = icmp slt i64 %26, %103
  br i1 %104, label %105, label %109

105:                                              ; preds = %101, %96
  %106 = phi i64 [ %98, %96 ], [ %103, %101 ]
  %107 = getelementptr inbounds %"struct.std::pair", %"struct.std::pair"* %91, i64 0, i32 0
  store i64 %94, i64* %107, align 8, !tbaa !49
  %108 = getelementptr inbounds %"struct.std::pair", %"struct.std::pair"* %91, i64 0, i32 1
  store i64 %106, i64* %108, align 8, !tbaa !51
  br label %90, !llvm.loop !82

109:                                              ; preds = %101, %99
  %110 = getelementptr inbounds %"struct.std::pair", %"struct.std::pair"* %91, i64 0, i32 0
  store i64 %17, i64* %110, align 8, !tbaa !49
  %111 = getelementptr inbounds %"struct.std::pair", %"struct.std::pair"* %91, i64 0, i32 1
  store i64 %26, i64* %111, align 8, !tbaa !51
  br label %112

112:                                              ; preds = %109, %89
  %113 = add nuw nsw i64 %12, 1
  %114 = icmp eq i64 %113, 16
  %115 = add i64 %11, 1
  br i1 %114, label %116, label %10, !llvm.loop !83

116:                                              ; preds = %112
  %117 = getelementptr inbounds %"struct.std::pair", %"struct.std::pair"* %0, i64 16
  %118 = icmp eq %"struct.std::pair"* %117, %1
  br i1 %118, label %222, label %119

119:                                              ; preds = %116, %144
  %120 = phi %"struct.std::pair"* [ %147, %144 ], [ %117, %116 ]
  %121 = getelementptr inbounds %"struct.std::pair", %"struct.std::pair"* %120, i64 0, i32 0
  %122 = load i64, i64* %121, align 8
  %123 = getelementptr inbounds %"struct.std::pair", %"struct.std::pair"* %120, i64 0, i32 1
  %124 = load i64, i64* %123, align 8
  br label %125

125:                                              ; preds = %140, %119
  %126 = phi %"struct.std::pair"* [ %120, %119 ], [ %127, %140 ]
  %127 = getelementptr inbounds %"struct.std::pair", %"struct.std::pair"* %126, i64 -1
  %128 = getelementptr inbounds %"struct.std::pair", %"struct.std::pair"* %127, i64 0, i32 0
  %129 = load i64, i64* %128, align 8, !tbaa !49
  %130 = icmp slt i64 %122, %129
  br i1 %130, label %131, label %134

131:                                              ; preds = %125
  %132 = getelementptr inbounds %"struct.std::pair", %"struct.std::pair"* %126, i64 -1, i32 1
  %133 = load i64, i64* %132, align 8, !tbaa !23
  br label %140

134:                                              ; preds = %125
  %135 = icmp slt i64 %129, %122
  br i1 %135, label %144, label %136

136:                                              ; preds = %134
  %137 = getelementptr inbounds %"struct.std::pair", %"struct.std::pair"* %126, i64 -1, i32 1
  %138 = load i64, i64* %137, align 8, !tbaa !51
  %139 = icmp slt i64 %124, %138
  br i1 %139, label %140, label %144

140:                                              ; preds = %136, %131
  %141 = phi i64 [ %133, %131 ], [ %138, %136 ]
  %142 = getelementptr inbounds %"struct.std::pair", %"struct.std::pair"* %126, i64 0, i32 0
  store i64 %129, i64* %142, align 8, !tbaa !49
  %143 = getelementptr inbounds %"struct.std::pair", %"struct.std::pair"* %126, i64 0, i32 1
  store i64 %141, i64* %143, align 8, !tbaa !51
  br label %125, !llvm.loop !82

144:                                              ; preds = %136, %134
  %145 = getelementptr inbounds %"struct.std::pair", %"struct.std::pair"* %126, i64 0, i32 0
  store i64 %122, i64* %145, align 8, !tbaa !49
  %146 = getelementptr inbounds %"struct.std::pair", %"struct.std::pair"* %126, i64 0, i32 1
  store i64 %124, i64* %146, align 8, !tbaa !51
  %147 = getelementptr inbounds %"struct.std::pair", %"struct.std::pair"* %120, i64 1
  %148 = icmp eq %"struct.std::pair"* %147, %1
  br i1 %148, label %222, label %119, !llvm.loop !84

149:                                              ; preds = %2
  %150 = icmp eq %"struct.std::pair"* %0, %1
  br i1 %150, label %222, label %151

151:                                              ; preds = %149
  %152 = getelementptr inbounds %"struct.std::pair", %"struct.std::pair"* %0, i64 0, i32 0
  %153 = getelementptr inbounds %"struct.std::pair", %"struct.std::pair"* %0, i64 0, i32 1
  %154 = getelementptr inbounds %"struct.std::pair", %"struct.std::pair"* %0, i64 1
  %155 = icmp eq %"struct.std::pair"* %154, %1
  br i1 %155, label %222, label %156

156:                                              ; preds = %151, %219
  %157 = phi %"struct.std::pair"* [ %220, %219 ], [ %154, %151 ]
  %158 = phi %"struct.std::pair"* [ %157, %219 ], [ %0, %151 ]
  %159 = getelementptr inbounds %"struct.std::pair", %"struct.std::pair"* %157, i64 0, i32 0
  %160 = load i64, i64* %159, align 8, !tbaa !49
  %161 = load i64, i64* %152, align 8, !tbaa !49
  %162 = icmp slt i64 %160, %161
  br i1 %162, label %163, label %166

163:                                              ; preds = %156
  %164 = getelementptr inbounds %"struct.std::pair", %"struct.std::pair"* %158, i64 1, i32 1
  %165 = load i64, i64* %164, align 8
  br label %174

166:                                              ; preds = %156
  %167 = icmp slt i64 %161, %160
  %168 = getelementptr inbounds %"struct.std::pair", %"struct.std::pair"* %158, i64 1, i32 1
  %169 = load i64, i64* %168, align 8
  br i1 %167, label %170, label %171

170:                                              ; preds = %171, %166
  br label %197

171:                                              ; preds = %166
  %172 = load i64, i64* %153, align 8, !tbaa !51
  %173 = icmp slt i64 %169, %172
  br i1 %173, label %174, label %170

174:                                              ; preds = %171, %163
  %175 = phi i64 [ %165, %163 ], [ %169, %171 ]
  %176 = ptrtoint %"struct.std::pair"* %157 to i64
  %177 = sub i64 %176, %4
  %178 = icmp sgt i64 %177, 0
  br i1 %178, label %179, label %196

179:                                              ; preds = %174
  %180 = getelementptr inbounds %"struct.std::pair", %"struct.std::pair"* %158, i64 2
  %181 = lshr exact i64 %177, 4
  br label %182

182:                                              ; preds = %182, %179
  %183 = phi i64 [ %194, %182 ], [ %181, %179 ]
  %184 = phi %"struct.std::pair"* [ %187, %182 ], [ %180, %179 ]
  %185 = phi %"struct.std::pair"* [ %186, %182 ], [ %157, %179 ]
  %186 = getelementptr inbounds %"struct.std::pair", %"struct.std::pair"* %185, i64 -1
  %187 = getelementptr inbounds %"struct.std::pair", %"struct.std::pair"* %184, i64 -1
  %188 = getelementptr inbounds %"struct.std::pair", %"struct.std::pair"* %186, i64 0, i32 0
  %189 = load i64, i64* %188, align 8, !tbaa !23
  %190 = getelementptr inbounds %"struct.std::pair", %"struct.std::pair"* %187, i64 0, i32 0
  store i64 %189, i64* %190, align 8, !tbaa !49
  %191 = getelementptr inbounds %"struct.std::pair", %"struct.std::pair"* %185, i64 -1, i32 1
  %192 = load i64, i64* %191, align 8, !tbaa !23
  %193 = getelementptr inbounds %"struct.std::pair", %"struct.std::pair"* %184, i64 -1, i32 1
  store i64 %192, i64* %193, align 8, !tbaa !51
  %194 = add nsw i64 %183, -1
  %195 = icmp sgt i64 %183, 1
  br i1 %195, label %182, label %196, !llvm.loop !81

196:                                              ; preds = %182, %174
  store i64 %160, i64* %152, align 8, !tbaa !49
  store i64 %175, i64* %153, align 8, !tbaa !51
  br label %219

197:                                              ; preds = %170, %212
  %198 = phi %"struct.std::pair"* [ %199, %212 ], [ %157, %170 ]
  %199 = getelementptr inbounds %"struct.std::pair", %"struct.std::pair"* %198, i64 -1
  %200 = getelementptr inbounds %"struct.std::pair", %"struct.std::pair"* %199, i64 0, i32 0
  %201 = load i64, i64* %200, align 8, !tbaa !49
  %202 = icmp slt i64 %160, %201
  br i1 %202, label %203, label %206

203:                                              ; preds = %197
  %204 = getelementptr inbounds %"struct.std::pair", %"struct.std::pair"* %198, i64 -1, i32 1
  %205 = load i64, i64* %204, align 8, !tbaa !23
  br label %212

206:                                              ; preds = %197
  %207 = icmp slt i64 %201, %160
  br i1 %207, label %216, label %208

208:                                              ; preds = %206
  %209 = getelementptr inbounds %"struct.std::pair", %"struct.std::pair"* %198, i64 -1, i32 1
  %210 = load i64, i64* %209, align 8, !tbaa !51
  %211 = icmp slt i64 %169, %210
  br i1 %211, label %212, label %216

212:                                              ; preds = %208, %203
  %213 = phi i64 [ %205, %203 ], [ %210, %208 ]
  %214 = getelementptr inbounds %"struct.std::pair", %"struct.std::pair"* %198, i64 0, i32 0
  store i64 %201, i64* %214, align 8, !tbaa !49
  %215 = getelementptr inbounds %"struct.std::pair", %"struct.std::pair"* %198, i64 0, i32 1
  store i64 %213, i64* %215, align 8, !tbaa !51
  br label %197, !llvm.loop !82

216:                                              ; preds = %208, %206
  %217 = getelementptr inbounds %"struct.std::pair", %"struct.std::pair"* %198, i64 0, i32 0
  store i64 %160, i64* %217, align 8, !tbaa !49
  %218 = getelementptr inbounds %"struct.std::pair", %"struct.std::pair"* %198, i64 0, i32 1
  store i64 %169, i64* %218, align 8, !tbaa !51
  br label %219

219:                                              ; preds = %216, %196
  %220 = getelementptr inbounds %"struct.std::pair", %"struct.std::pair"* %157, i64 1
  %221 = icmp eq %"struct.std::pair"* %220, %1
  br i1 %221, label %222, label %156, !llvm.loop !83

222:                                              ; preds = %219, %144, %151, %149, %116
  ret void
}

; Function Attrs: sspstrong uwtable
define linkonce_odr dso_local void @_ZSt13__adjust_heapIN9__gnu_cxx17__normal_iteratorIPSt4pairIxxESt6vectorIS3_SaIS3_EEEElS3_NS0_5__ops15_Iter_less_iterEEvT_T0_SC_T1_T2_(%"struct.std::pair"* %0, i64 %1, i64 %2, i64 %3, i64 %4) local_unnamed_addr #12 comdat {
  %6 = add nsw i64 %2, -1
  %7 = sdiv i64 %6, 2
  %8 = icmp sgt i64 %7, %1
  br i1 %8, label %9, label %36

9:                                                ; preds = %5, %28
  %10 = phi i64 [ %30, %28 ], [ %1, %5 ]
  %11 = shl i64 %10, 1
  %12 = add i64 %11, 2
  %13 = or i64 %11, 1
  %14 = getelementptr inbounds %"struct.std::pair", %"struct.std::pair"* %0, i64 %12, i32 0
  %15 = load i64, i64* %14, align 8, !tbaa !49
  %16 = getelementptr inbounds %"struct.std::pair", %"struct.std::pair"* %0, i64 %13, i32 0
  %17 = load i64, i64* %16, align 8, !tbaa !49
  %18 = icmp slt i64 %15, %17
  br i1 %18, label %27, label %19

19:                                               ; preds = %9
  %20 = icmp slt i64 %17, %15
  br i1 %20, label %28, label %21

21:                                               ; preds = %19
  %22 = getelementptr inbounds %"struct.std::pair", %"struct.std::pair"* %0, i64 %12, i32 1
  %23 = load i64, i64* %22, align 8, !tbaa !51
  %24 = getelementptr inbounds %"struct.std::pair", %"struct.std::pair"* %0, i64 %13, i32 1
  %25 = load i64, i64* %24, align 8, !tbaa !51
  %26 = icmp slt i64 %23, %25
  br i1 %26, label %27, label %28

27:                                               ; preds = %9, %21
  br label %28

28:                                               ; preds = %19, %21, %27
  %29 = phi i64 [ %17, %27 ], [ %15, %21 ], [ %15, %19 ]
  %30 = phi i64 [ %13, %27 ], [ %12, %21 ], [ %12, %19 ]
  %31 = getelementptr inbounds %"struct.std::pair", %"struct.std::pair"* %0, i64 %10, i32 0
  store i64 %29, i64* %31, align 8, !tbaa !49
  %32 = getelementptr inbounds %"struct.std::pair", %"struct.std::pair"* %0, i64 %30, i32 1
  %33 = load i64, i64* %32, align 8, !tbaa !23
  %34 = getelementptr inbounds %"struct.std::pair", %"struct.std::pair"* %0, i64 %10, i32 1
  store i64 %33, i64* %34, align 8, !tbaa !51
  %35 = icmp slt i64 %30, %7
  br i1 %35, label %9, label %36, !llvm.loop !85

36:                                               ; preds = %28, %5
  %37 = phi i64 [ %1, %5 ], [ %30, %28 ]
  %38 = and i64 %2, 1
  %39 = icmp eq i64 %38, 0
  br i1 %39, label %40, label %52

40:                                               ; preds = %36
  %41 = add nsw i64 %2, -2
  %42 = sdiv i64 %41, 2
  %43 = icmp eq i64 %37, %42
  br i1 %43, label %44, label %52

44:                                               ; preds = %40
  %45 = shl i64 %37, 1
  %46 = or i64 %45, 1
  %47 = getelementptr inbounds %"struct.std::pair", %"struct.std::pair"* %0, i64 %46, i32 0
  %48 = getelementptr inbounds %"struct.std::pair", %"struct.std::pair"* %0, i64 %37, i32 0
  %49 = bitcast i64* %47 to <2 x i64>*
  %50 = load <2 x i64>, <2 x i64>* %49, align 8, !tbaa !23
  %51 = bitcast i64* %48 to <2 x i64>*
  store <2 x i64> %50, <2 x i64>* %51, align 8, !tbaa !23
  br label %52

52:                                               ; preds = %44, %40, %36
  %53 = phi i64 [ %46, %44 ], [ %37, %40 ], [ %37, %36 ]
  %54 = icmp sgt i64 %53, %1
  br i1 %54, label %55, label %76

55:                                               ; preds = %52, %71
  %56 = phi i64 [ %58, %71 ], [ %53, %52 ]
  %57 = add nsw i64 %56, -1
  %58 = sdiv i64 %57, 2
  %59 = getelementptr inbounds %"struct.std::pair", %"struct.std::pair"* %0, i64 %58, i32 0
  %60 = load i64, i64* %59, align 8, !tbaa !49
  %61 = icmp slt i64 %60, %3
  br i1 %61, label %62, label %65

62:                                               ; preds = %55
  %63 = getelementptr inbounds %"struct.std::pair", %"struct.std::pair"* %0, i64 %58, i32 1
  %64 = load i64, i64* %63, align 8, !tbaa !23
  br label %71

65:                                               ; preds = %55
  %66 = icmp sgt i64 %60, %3
  br i1 %66, label %76, label %67

67:                                               ; preds = %65
  %68 = getelementptr inbounds %"struct.std::pair", %"struct.std::pair"* %0, i64 %58, i32 1
  %69 = load i64, i64* %68, align 8, !tbaa !51
  %70 = icmp slt i64 %69, %4
  br i1 %70, label %71, label %76

71:                                               ; preds = %67, %62
  %72 = phi i64 [ %64, %62 ], [ %69, %67 ]
  %73 = getelementptr inbounds %"struct.std::pair", %"struct.std::pair"* %0, i64 %56, i32 0
  store i64 %60, i64* %73, align 8, !tbaa !49
  %74 = getelementptr inbounds %"struct.std::pair", %"struct.std::pair"* %0, i64 %56, i32 1
  store i64 %72, i64* %74, align 8, !tbaa !51
  %75 = icmp sgt i64 %58, %1
  br i1 %75, label %55, label %76, !llvm.loop !86

76:                                               ; preds = %65, %67, %71, %52
  %77 = phi i64 [ %53, %52 ], [ %56, %67 ], [ %58, %71 ], [ %56, %65 ]
  %78 = getelementptr inbounds %"struct.std::pair", %"struct.std::pair"* %0, i64 %77, i32 0
  store i64 %3, i64* %78, align 8, !tbaa !49
  %79 = getelementptr inbounds %"struct.std::pair", %"struct.std::pair"* %0, i64 %77, i32 1
  store i64 %4, i64* %79, align 8, !tbaa !51
  ret void
}

; Function Attrs: mustprogress sspstrong uwtable
define linkonce_odr dso_local void @_ZSt22__move_median_to_firstIN9__gnu_cxx17__normal_iteratorIPSt4pairIxxESt6vectorIS3_SaIS3_EEEENS0_5__ops15_Iter_less_iterEEvT_SB_SB_SB_T0_(%"struct.std::pair"* %0, %"struct.std::pair"* %1, %"struct.std::pair"* %2, %"struct.std::pair"* %3) local_unnamed_addr #15 comdat {
  %5 = getelementptr inbounds %"struct.std::pair", %"struct.std::pair"* %1, i64 0, i32 0
  %6 = load i64, i64* %5, align 8, !tbaa !49
  %7 = getelementptr inbounds %"struct.std::pair", %"struct.std::pair"* %2, i64 0, i32 0
  %8 = load i64, i64* %7, align 8, !tbaa !49
  %9 = icmp slt i64 %6, %8
  br i1 %9, label %18, label %10

10:                                               ; preds = %4
  %11 = icmp slt i64 %8, %6
  br i1 %11, label %49, label %12

12:                                               ; preds = %10
  %13 = getelementptr inbounds %"struct.std::pair", %"struct.std::pair"* %1, i64 0, i32 1
  %14 = load i64, i64* %13, align 8, !tbaa !51
  %15 = getelementptr inbounds %"struct.std::pair", %"struct.std::pair"* %2, i64 0, i32 1
  %16 = load i64, i64* %15, align 8, !tbaa !51
  %17 = icmp slt i64 %14, %16
  br i1 %17, label %18, label %49

18:                                               ; preds = %4, %12
  %19 = getelementptr inbounds %"struct.std::pair", %"struct.std::pair"* %3, i64 0, i32 0
  %20 = load i64, i64* %19, align 8, !tbaa !49
  %21 = icmp slt i64 %8, %20
  br i1 %21, label %30, label %22

22:                                               ; preds = %18
  %23 = icmp slt i64 %20, %8
  br i1 %23, label %33, label %24

24:                                               ; preds = %22
  %25 = getelementptr inbounds %"struct.std::pair", %"struct.std::pair"* %2, i64 0, i32 1
  %26 = load i64, i64* %25, align 8, !tbaa !51
  %27 = getelementptr inbounds %"struct.std::pair", %"struct.std::pair"* %3, i64 0, i32 1
  %28 = load i64, i64* %27, align 8, !tbaa !51
  %29 = icmp slt i64 %26, %28
  br i1 %29, label %30, label %33

30:                                               ; preds = %18, %24
  %31 = getelementptr inbounds %"struct.std::pair", %"struct.std::pair"* %0, i64 0, i32 0
  %32 = load i64, i64* %31, align 8, !tbaa !23
  store i64 %8, i64* %31, align 8, !tbaa !23
  store i64 %32, i64* %7, align 8, !tbaa !23
  br label %80

33:                                               ; preds = %22, %24
  %34 = icmp slt i64 %6, %20
  br i1 %34, label %43, label %35

35:                                               ; preds = %33
  %36 = icmp slt i64 %20, %6
  br i1 %36, label %46, label %37

37:                                               ; preds = %35
  %38 = getelementptr inbounds %"struct.std::pair", %"struct.std::pair"* %1, i64 0, i32 1
  %39 = load i64, i64* %38, align 8, !tbaa !51
  %40 = getelementptr inbounds %"struct.std::pair", %"struct.std::pair"* %3, i64 0, i32 1
  %41 = load i64, i64* %40, align 8, !tbaa !51
  %42 = icmp slt i64 %39, %41
  br i1 %42, label %43, label %46

43:                                               ; preds = %33, %37
  %44 = getelementptr inbounds %"struct.std::pair", %"struct.std::pair"* %0, i64 0, i32 0
  %45 = load i64, i64* %44, align 8, !tbaa !23
  store i64 %20, i64* %44, align 8, !tbaa !23
  store i64 %45, i64* %19, align 8, !tbaa !23
  br label %80

46:                                               ; preds = %35, %37
  %47 = getelementptr inbounds %"struct.std::pair", %"struct.std::pair"* %0, i64 0, i32 0
  %48 = load i64, i64* %47, align 8, !tbaa !23
  store i64 %6, i64* %47, align 8, !tbaa !23
  store i64 %48, i64* %5, align 8, !tbaa !23
  br label %80

49:                                               ; preds = %10, %12
  %50 = getelementptr inbounds %"struct.std::pair", %"struct.std::pair"* %3, i64 0, i32 0
  %51 = load i64, i64* %50, align 8, !tbaa !49
  %52 = icmp slt i64 %6, %51
  br i1 %52, label %61, label %53

53:                                               ; preds = %49
  %54 = icmp slt i64 %51, %6
  br i1 %54, label %64, label %55

55:                                               ; preds = %53
  %56 = getelementptr inbounds %"struct.std::pair", %"struct.std::pair"* %1, i64 0, i32 1
  %57 = load i64, i64* %56, align 8, !tbaa !51
  %58 = getelementptr inbounds %"struct.std::pair", %"struct.std::pair"* %3, i64 0, i32 1
  %59 = load i64, i64* %58, align 8, !tbaa !51
  %60 = icmp slt i64 %57, %59
  br i1 %60, label %61, label %64

61:                                               ; preds = %49, %55
  %62 = getelementptr inbounds %"struct.std::pair", %"struct.std::pair"* %0, i64 0, i32 0
  %63 = load i64, i64* %62, align 8, !tbaa !23
  store i64 %6, i64* %62, align 8, !tbaa !23
  store i64 %63, i64* %5, align 8, !tbaa !23
  br label %80

64:                                               ; preds = %53, %55
  %65 = icmp slt i64 %8, %51
  br i1 %65, label %74, label %66

66:                                               ; preds = %64
  %67 = icmp slt i64 %51, %8
  br i1 %67, label %77, label %68

68:                                               ; preds = %66
  %69 = getelementptr inbounds %"struct.std::pair", %"struct.std::pair"* %2, i64 0, i32 1
  %70 = load i64, i64* %69, align 8, !tbaa !51
  %71 = getelementptr inbounds %"struct.std::pair", %"struct.std::pair"* %3, i64 0, i32 1
  %72 = load i64, i64* %71, align 8, !tbaa !51
  %73 = icmp slt i64 %70, %72
  br i1 %73, label %74, label %77

74:                                               ; preds = %64, %68
  %75 = getelementptr inbounds %"struct.std::pair", %"struct.std::pair"* %0, i64 0, i32 0
  %76 = load i64, i64* %75, align 8, !tbaa !23
  store i64 %51, i64* %75, align 8, !tbaa !23
  store i64 %76, i64* %50, align 8, !tbaa !23
  br label %80

77:                                               ; preds = %66, %68
  %78 = getelementptr inbounds %"struct.std::pair", %"struct.std::pair"* %0, i64 0, i32 0
  %79 = load i64, i64* %78, align 8, !tbaa !23
  store i64 %8, i64* %78, align 8, !tbaa !23
  store i64 %79, i64* %7, align 8, !tbaa !23
  br label %80

80:                                               ; preds = %61, %77, %74, %30, %46, %43
  %81 = phi %"struct.std::pair"* [ %1, %61 ], [ %2, %77 ], [ %3, %74 ], [ %2, %30 ], [ %1, %46 ], [ %3, %43 ]
  %82 = getelementptr inbounds %"struct.std::pair", %"struct.std::pair"* %0, i64 0, i32 1
  %83 = getelementptr inbounds %"struct.std::pair", %"struct.std::pair"* %81, i64 0, i32 1
  %84 = load i64, i64* %82, align 8, !tbaa !23
  %85 = load i64, i64* %83, align 8, !tbaa !23
  store i64 %85, i64* %82, align 8, !tbaa !23
  store i64 %84, i64* %83, align 8, !tbaa !23
  ret void
}

; Function Attrs: mustprogress nofree nosync nounwind readnone speculatable willreturn
declare i64 @llvm.ctlz.i64(i64, i1 immarg) #16

; Function Attrs: sspstrong uwtable
define internal void @_GLOBAL__sub_I_s809615985.cpp() #12 section ".text.startup" {
  tail call void @_ZNSt8ios_base4InitC1Ev(%"class.std::ios_base::Init"* nonnull align 1 dereferenceable(1) @_ZStL8__ioinit)
  %1 = tail call i32 @__cxa_atexit(void (i8*)* bitcast (void (%"class.std::ios_base::Init"*)* @_ZNSt8ios_base4InitD1Ev to void (i8*)*), i8* getelementptr inbounds (%"class.std::ios_base::Init", %"class.std::ios_base::Init"* @_ZStL8__ioinit, i64 0, i32 0), i8* nonnull @__dso_handle) #19
  %2 = tail call x86_fp80 @asinl(x86_fp80 0xK3FFE8000000000000000) #19
  %3 = fmul x86_fp80 %2, 0xK4001C000000000000000
  store x86_fp80 %3, x86_fp80* @_ZL2PI, align 16, !tbaa !87
  %4 = tail call {}* @llvm.invariant.start.p0i8(i64 16, i8* bitcast (x86_fp80* @_ZL2PI to i8*)) #19
  ret void
}

; Function Attrs: nofree nosync nounwind readnone speculatable willreturn
declare i64 @llvm.smax.i64(i64, i64) #17

; Function Attrs: nofree nosync nounwind readnone willreturn
declare i64 @llvm.vector.reduce.add.v2i64(<2 x i64>) #18

attributes #0 = { "frame-pointer"="none" "no-trapping-math"="true" "stack-protector-buffer-size"="8" "target-cpu"="x86-64" "target-features"="+cx8,+fxsr,+mmx,+sse,+sse2,+x87" "tune-cpu"="generic" }
attributes #1 = { nounwind "frame-pointer"="none" "no-trapping-math"="true" "stack-protector-buffer-size"="8" "target-cpu"="x86-64" "target-features"="+cx8,+fxsr,+mmx,+sse,+sse2,+x87" "tune-cpu"="generic" }
attributes #2 = { nofree nounwind }
attributes #3 = { argmemonly mustprogress nofree nosync nounwind willreturn }
attributes #4 = { norecurse sspstrong uwtable "frame-pointer"="none" "min-legal-vector-width"="0" "no-trapping-math"="true" "stack-protector-buffer-size"="8" "target-cpu"="x86-64" "target-features"="+cx8,+fxsr,+mmx,+sse,+sse2,+x87" "tune-cpu"="generic" }
attributes #5 = { argmemonly mustprogress nofree nounwind willreturn }
attributes #6 = { mustprogress nofree nounwind willreturn "frame-pointer"="none" "no-trapping-math"="true" "stack-protector-buffer-size"="8" "target-cpu"="x86-64" "target-features"="+cx8,+fxsr,+mmx,+sse,+sse2,+x87" "tune-cpu"="generic" }
attributes #7 = { noinline noreturn nounwind }
attributes #8 = { noreturn "frame-pointer"="none" "no-trapping-math"="true" "stack-protector-buffer-size"="8" "target-cpu"="x86-64" "target-features"="+cx8,+fxsr,+mmx,+sse,+sse2,+x87" "tune-cpu"="generic" }
attributes #9 = { nobuiltin allocsize(0) "frame-pointer"="none" "no-trapping-math"="true" "stack-protector-buffer-size"="8" "target-cpu"="x86-64" "target-features"="+cx8,+fxsr,+mmx,+sse,+sse2,+x87" "tune-cpu"="generic" }
attributes #10 = { nobuiltin nounwind "frame-pointer"="none" "no-trapping-math"="true" "stack-protector-buffer-size"="8" "target-cpu"="x86-64" "target-features"="+cx8,+fxsr,+mmx,+sse,+sse2,+x87" "tune-cpu"="generic" }
attributes #11 = { nounwind sspstrong uwtable "frame-pointer"="none" "min-legal-vector-width"="0" "no-trapping-math"="true" "stack-protector-buffer-size"="8" "target-cpu"="x86-64" "target-features"="+cx8,+fxsr,+mmx,+sse,+sse2,+x87" "tune-cpu"="generic" }
attributes #12 = { sspstrong uwtable "frame-pointer"="none" "min-legal-vector-width"="0" "no-trapping-math"="true" "stack-protector-buffer-size"="8" "target-cpu"="x86-64" "target-features"="+cx8,+fxsr,+mmx,+sse,+sse2,+x87" "tune-cpu"="generic" }
attributes #13 = { argmemonly mustprogress nofree nounwind willreturn writeonly }
attributes #14 = { mustprogress nofree nounwind readonly willreturn "frame-pointer"="none" "no-trapping-math"="true" "stack-protector-buffer-size"="8" "target-cpu"="x86-64" "target-features"="+cx8,+fxsr,+mmx,+sse,+sse2,+x87" "tune-cpu"="generic" }
attributes #15 = { mustprogress sspstrong uwtable "frame-pointer"="none" "min-legal-vector-width"="0" "no-trapping-math"="true" "stack-protector-buffer-size"="8" "target-cpu"="x86-64" "target-features"="+cx8,+fxsr,+mmx,+sse,+sse2,+x87" "tune-cpu"="generic" }
attributes #16 = { mustprogress nofree nosync nounwind readnone speculatable willreturn }
attributes #17 = { nofree nosync nounwind readnone speculatable willreturn }
attributes #18 = { nofree nosync nounwind readnone willreturn }
attributes #19 = { nounwind }
attributes #20 = { noreturn }
attributes #21 = { allocsize(0) }
attributes #22 = { nounwind readonly willreturn }
attributes #23 = { noreturn nounwind }

!llvm.module.flags = !{!0, !1, !2, !3}
!llvm.ident = !{!4}

!0 = !{i32 1, !"wchar_size", i32 4}
!1 = !{i32 7, !"PIC Level", i32 2}
!2 = !{i32 7, !"PIE Level", i32 2}
!3 = !{i32 7, !"uwtable", i32 1}
!4 = !{!"clang version 13.0.0"}
!5 = !{!6, !6, i64 0}
!6 = !{!"vtable pointer", !7, i64 0}
!7 = !{!"Simple C++ TBAA"}
!8 = !{!9, !10, i64 216}
!9 = !{!"_ZTSSt9basic_iosIcSt11char_traitsIcEE", !10, i64 216, !11, i64 224, !12, i64 225, !10, i64 232, !10, i64 240, !10, i64 248, !10, i64 256}
!10 = !{!"any pointer", !11, i64 0}
!11 = !{!"omnipotent char", !7, i64 0}
!12 = !{!"bool", !11, i64 0}
!13 = !{!14, !16, i64 24}
!14 = !{!"_ZTSSt8ios_base", !15, i64 8, !15, i64 16, !16, i64 24, !17, i64 28, !17, i64 32, !10, i64 40, !18, i64 48, !11, i64 64, !19, i64 192, !10, i64 200, !20, i64 208}
!15 = !{!"long", !11, i64 0}
!16 = !{!"_ZTSSt13_Ios_Fmtflags", !11, i64 0}
!17 = !{!"_ZTSSt12_Ios_Iostate", !11, i64 0}
!18 = !{!"_ZTSNSt8ios_base6_WordsE", !10, i64 0, !15, i64 8}
!19 = !{!"int", !11, i64 0}
!20 = !{!"_ZTSSt6locale", !10, i64 0}
!21 = !{!16, !16, i64 0}
!22 = !{!14, !15, i64 8}
!23 = !{!24, !24, i64 0}
!24 = !{!"long long", !11, i64 0}
!25 = !{!9, !10, i64 240}
!26 = !{!27, !11, i64 56}
!27 = !{!"_ZTSSt5ctypeIcE", !10, i64 16, !12, i64 24, !10, i64 32, !10, i64 40, !10, i64 48, !11, i64 56, !11, i64 57, !11, i64 313, !11, i64 569}
!28 = !{!11, !11, i64 0}
!29 = !{!30, !32, i64 0}
!30 = !{!"_ZTSSt15_Rb_tree_header", !31, i64 0, !15, i64 32}
!31 = !{!"_ZTSSt18_Rb_tree_node_base", !32, i64 0, !10, i64 8, !10, i64 16, !10, i64 24}
!32 = !{!"_ZTSSt14_Rb_tree_color", !11, i64 0}
!33 = !{!30, !10, i64 8}
!34 = !{!30, !10, i64 16}
!35 = !{!30, !10, i64 24}
!36 = !{!30, !15, i64 32}
!37 = distinct !{!37, !38, !39}
!38 = !{!"llvm.loop.mustprogress"}
!39 = !{!"llvm.loop.isvectorized", i32 1}
!40 = distinct !{!40, !41}
!41 = !{!"llvm.loop.unroll.disable"}
!42 = distinct !{!42, !38, !43, !39}
!43 = !{!"llvm.loop.unroll.runtime.disable"}
!44 = !{!10, !10, i64 0}
!45 = distinct !{!45, !38}
!46 = !{!47, !10, i64 8}
!47 = !{!"_ZTSNSt12_Vector_baseISt4pairIxxESaIS1_EE17_Vector_impl_dataE", !10, i64 0, !10, i64 8, !10, i64 16}
!48 = !{!47, !10, i64 16}
!49 = !{!50, !24, i64 0}
!50 = !{!"_ZTSSt4pairIxxE", !24, i64 0, !24, i64 8}
!51 = !{!50, !24, i64 8}
!52 = !{!47, !10, i64 0}
!53 = !{!54, !56}
!54 = distinct !{!54, !55, !"_ZSt19__relocate_object_aISt4pairIxxES1_SaIS1_EEvPT_PT0_RT1_: argument 0"}
!55 = distinct !{!55, !"_ZSt19__relocate_object_aISt4pairIxxES1_SaIS1_EEvPT_PT0_RT1_"}
!56 = distinct !{!56, !55, !"_ZSt19__relocate_object_aISt4pairIxxES1_SaIS1_EEvPT_PT0_RT1_: argument 1"}
!57 = distinct !{!57, !38}
!58 = distinct !{!58, !38}
!59 = !{!60, !24, i64 0}
!60 = !{!"_ZTSSt4pairIKxSt6vectorIS_IxxESaIS2_EEE", !24, i64 0, !61, i64 8}
!61 = !{!"_ZTSSt6vectorISt4pairIxxESaIS1_EE"}
!62 = !{!"branch_weights", i32 1, i32 2000}
!63 = distinct !{!63, !38}
!64 = !{i64 0, i64 65}
!65 = !{!31, !10, i64 24}
!66 = !{!31, !10, i64 16}
!67 = distinct !{!67, !38}
!68 = !{!69, !10, i64 0}
!69 = !{!"_ZTSSt10_Head_baseILm0ERKxLb0EE", !10, i64 0}
!70 = distinct !{!70, !38}
!71 = distinct !{!71, !38}
!72 = distinct !{!72, !38}
!73 = distinct !{!73, !38}
!74 = distinct !{!74, !38}
!75 = distinct !{!75, !38}
!76 = distinct !{!76, !38}
!77 = distinct !{!77, !38}
!78 = distinct !{!78, !38}
!79 = distinct !{!79, !38}
!80 = distinct !{!80, !41}
!81 = distinct !{!81, !38}
!82 = distinct !{!82, !38}
!83 = distinct !{!83, !38}
!84 = distinct !{!84, !38}
!85 = distinct !{!85, !38}
!86 = distinct !{!86, !38}
!87 = !{!88, !88, i64 0}
!88 = !{!"long double", !11, i64 0}
