; ModuleID = 'Project_CodeNet_C++1400/p02703/s841949033.cpp'
source_filename = "Project_CodeNet_C++1400/p02703/s841949033.cpp"
target datalayout = "e-m:e-p270:32:32-p271:32:32-p272:64:64-i64:64-f80:128-n8:16:32:64-S128"
target triple = "x86_64-pc-linux-gnu"

%"class.std::ios_base::Init" = type { i8 }
%"class.std::basic_istream" = type { i32 (...)**, i64, %"class.std::basic_ios" }
%"class.std::basic_ios" = type { %"class.std::ios_base", %"class.std::basic_ostream"*, i8, i8, %"class.std::basic_streambuf"*, %"class.std::ctype"*, %"class.std::num_put"*, %"class.std::num_get"* }
%"class.std::ios_base" = type { i32 (...)**, i64, i64, i32, i32, i32, %"struct.std::ios_base::_Callback_list"*, %"struct.std::ios_base::_Words", [8 x %"struct.std::ios_base::_Words"], i32, %"struct.std::ios_base::_Words"*, %"class.std::locale" }
%"struct.std::ios_base::_Callback_list" = type { %"struct.std::ios_base::_Callback_list"*, void (i32, %"class.std::ios_base"*, i32)*, i32, i32 }
%"struct.std::ios_base::_Words" = type { i8*, i64 }
%"class.std::locale" = type { %"class.std::locale::_Impl"* }
%"class.std::locale::_Impl" = type { i32, %"class.std::locale::facet"**, i64, %"class.std::locale::facet"**, i8** }
%"class.std::locale::facet" = type <{ i32 (...)**, i32, [4 x i8] }>
%"class.std::basic_ostream" = type { i32 (...)**, %"class.std::basic_ios" }
%"class.std::basic_streambuf" = type { i32 (...)**, i8*, i8*, i8*, i8*, i8*, i8*, %"class.std::locale" }
%"class.std::ctype" = type <{ %"class.std::locale::facet.base", [4 x i8], %struct.__locale_struct*, i8, [7 x i8], i32*, i32*, i16*, i8, [256 x i8], [256 x i8], i8, [6 x i8] }>
%"class.std::locale::facet.base" = type <{ i32 (...)**, i32 }>
%struct.__locale_struct = type { [13 x %struct.__locale_data*], i16*, i32*, i32*, [13 x i8*] }
%struct.__locale_data = type opaque
%"class.std::num_put" = type { %"class.std::locale::facet.base", [4 x i8] }
%"class.std::num_get" = type { %"class.std::locale::facet.base", [4 x i8] }
%"class.std::vector" = type { %"struct.std::_Vector_base" }
%"struct.std::_Vector_base" = type { %"struct.std::_Vector_base<std::vector<Edge>, std::allocator<std::vector<Edge>>>::_Vector_impl" }
%"struct.std::_Vector_base<std::vector<Edge>, std::allocator<std::vector<Edge>>>::_Vector_impl" = type { %"struct.std::_Vector_base<std::vector<Edge>, std::allocator<std::vector<Edge>>>::_Vector_impl_data" }
%"struct.std::_Vector_base<std::vector<Edge>, std::allocator<std::vector<Edge>>>::_Vector_impl_data" = type { %"class.std::vector.0"*, %"class.std::vector.0"*, %"class.std::vector.0"* }
%"class.std::vector.0" = type { %"struct.std::_Vector_base.1" }
%"struct.std::_Vector_base.1" = type { %"struct.std::_Vector_base<Edge, std::allocator<Edge>>::_Vector_impl" }
%"struct.std::_Vector_base<Edge, std::allocator<Edge>>::_Vector_impl" = type { %"struct.std::_Vector_base<Edge, std::allocator<Edge>>::_Vector_impl_data" }
%"struct.std::_Vector_base<Edge, std::allocator<Edge>>::_Vector_impl_data" = type { %struct.Edge*, %struct.Edge*, %struct.Edge* }
%struct.Edge = type { i32, i64, i64 }
%"class.std::allocator" = type { i8 }
%"class.std::vector.5" = type { %"struct.std::_Vector_base.6" }
%"struct.std::_Vector_base.6" = type { %"struct.std::_Vector_base<std::pair<long, long>, std::allocator<std::pair<long, long>>>::_Vector_impl" }
%"struct.std::_Vector_base<std::pair<long, long>, std::allocator<std::pair<long, long>>>::_Vector_impl" = type { %"struct.std::_Vector_base<std::pair<long, long>, std::allocator<std::pair<long, long>>>::_Vector_impl_data" }
%"struct.std::_Vector_base<std::pair<long, long>, std::allocator<std::pair<long, long>>>::_Vector_impl_data" = type { %"struct.std::pair"*, %"struct.std::pair"*, %"struct.std::pair"* }
%"struct.std::pair" = type { i64, i64 }
%"class.std::allocator.7" = type { i8 }
%"class.std::vector.10" = type { %"struct.std::_Vector_base.11" }
%"struct.std::_Vector_base.11" = type { %"struct.std::_Vector_base<std::vector<long>, std::allocator<std::vector<long>>>::_Vector_impl" }
%"struct.std::_Vector_base<std::vector<long>, std::allocator<std::vector<long>>>::_Vector_impl" = type { %"struct.std::_Vector_base<std::vector<long>, std::allocator<std::vector<long>>>::_Vector_impl_data" }
%"struct.std::_Vector_base<std::vector<long>, std::allocator<std::vector<long>>>::_Vector_impl_data" = type { %"class.std::vector.15"*, %"class.std::vector.15"*, %"class.std::vector.15"* }
%"class.std::vector.15" = type { %"struct.std::_Vector_base.16" }
%"struct.std::_Vector_base.16" = type { %"struct.std::_Vector_base<long, std::allocator<long>>::_Vector_impl" }
%"struct.std::_Vector_base<long, std::allocator<long>>::_Vector_impl" = type { %"struct.std::_Vector_base<long, std::allocator<long>>::_Vector_impl_data" }
%"struct.std::_Vector_base<long, std::allocator<long>>::_Vector_impl_data" = type { i64*, i64*, i64* }
%"class.std::allocator.17" = type { i8 }
%"class.std::allocator.12" = type { i8 }
%"class.std::priority_queue" = type <{ %"class.std::vector.20", %"struct.std::greater", [7 x i8] }>
%"class.std::vector.20" = type { %"struct.std::_Vector_base.21" }
%"struct.std::_Vector_base.21" = type { %"struct.std::_Vector_base<std::tuple<long, long, int>, std::allocator<std::tuple<long, long, int>>>::_Vector_impl" }
%"struct.std::_Vector_base<std::tuple<long, long, int>, std::allocator<std::tuple<long, long, int>>>::_Vector_impl" = type { %"struct.std::_Vector_base<std::tuple<long, long, int>, std::allocator<std::tuple<long, long, int>>>::_Vector_impl_data" }
%"struct.std::_Vector_base<std::tuple<long, long, int>, std::allocator<std::tuple<long, long, int>>>::_Vector_impl_data" = type { %"class.std::tuple"*, %"class.std::tuple"*, %"class.std::tuple"* }
%"class.std::tuple" = type { %"struct.std::_Tuple_impl" }
%"struct.std::_Tuple_impl" = type { %"struct.std::_Tuple_impl.25", %"struct.std::_Head_base.28" }
%"struct.std::_Tuple_impl.25" = type { %"struct.std::_Tuple_impl.26", %"struct.std::_Head_base.27" }
%"struct.std::_Tuple_impl.26" = type { %"struct.std::_Head_base" }
%"struct.std::_Head_base" = type { i32 }
%"struct.std::_Head_base.27" = type { i64 }
%"struct.std::_Head_base.28" = type { i64 }
%"struct.std::greater" = type { i8 }
%"class.std::tuple.29" = type { %"struct.std::_Tuple_impl.30" }
%"struct.std::_Tuple_impl.30" = type { %"struct.std::_Tuple_impl.31", %"struct.std::_Head_base.35" }
%"struct.std::_Tuple_impl.31" = type { %"struct.std::_Tuple_impl.32", %"struct.std::_Head_base.34" }
%"struct.std::_Tuple_impl.32" = type { %"struct.std::_Head_base.33" }
%"struct.std::_Head_base.33" = type { i32* }
%"struct.std::_Head_base.34" = type { i64* }
%"struct.std::_Head_base.35" = type { i64* }
%"class.__gnu_cxx::new_allocator" = type { i8 }
%"class.__gnu_cxx::new_allocator.8" = type { i8 }
%"class.std::allocator.2" = type { i8 }
%"class.__gnu_cxx::new_allocator.3" = type { i8 }
%"class.__gnu_cxx::new_allocator.18" = type { i8 }
%"class.__gnu_cxx::new_allocator.13" = type { i8 }
%"struct.__gnu_cxx::__ops::_Iter_comp_val" = type { %"struct.std::greater" }
%"class.std::allocator.22" = type { i8 }
%"class.__gnu_cxx::new_allocator.23" = type { i8 }
%"struct.__gnu_cxx::__ops::_Iter_comp_iter" = type { %"struct.std::greater" }

$_ZNSt6vectorIS_I4EdgeSaIS0_EESaIS2_EEC2EmRKS3_ = comdat any

$_ZNSt6vectorISt4pairIllESaIS1_EEC2EmRKS2_ = comdat any

$_ZNSt6vectorI4EdgeSaIS0_EE12emplace_backIJRlS4_S4_EEEvDpOT_ = comdat any

$_ZNSt6vectorIlSaIlEEC2EmRKlRKS0_ = comdat any

$_ZNSt6vectorIS_IlSaIlEESaIS1_EEC2EmRKS1_RKS2_ = comdat any

$_ZNSt14priority_queueISt5tupleIJlliEESt6vectorIS1_SaIS1_EESt7greaterIS1_EE7emplaceIJiRliEEEvDpOT_ = comdat any

$_ZNSt5tupleIJRlS0_RiEEaSIJlliEEENSt9enable_ifIXcl12__assignableIDpRKT_EEERS2_E4typeERKS_IJDpS5_EE = comdat any

$_ZNSt14priority_queueISt5tupleIJlliEESt6vectorIS1_SaIS1_EESt7greaterIS1_EE3popEv = comdat any

$_ZNSt14priority_queueISt5tupleIJlliEESt6vectorIS1_SaIS1_EESt7greaterIS1_EE7emplaceIJRllRiEEEvDpOT_ = comdat any

$_ZNSt6vectorIS_IlSaIlEESaIS1_EED2Ev = comdat any

$_ZNSt6vectorIS_I4EdgeSaIS0_EESaIS2_EED2Ev = comdat any

$__clang_call_terminate = comdat any

$_ZSt13__min_elementIN9__gnu_cxx17__normal_iteratorIPlSt6vectorIlSaIlEEEENS0_5__ops15_Iter_less_iterEET_S9_S9_T0_ = comdat any

$_ZNSt12_Vector_baseISt5tupleIJlliEESaIS1_EED2Ev = comdat any

$_ZNSt6vectorIS_I4EdgeSaIS0_EESaIS2_EE17_S_check_init_lenEmRKS3_ = comdat any

$_ZNSt6vectorIS_I4EdgeSaIS0_EESaIS2_EE21_M_default_initializeEm = comdat any

$_ZNSt12_Vector_baseISt6vectorI4EdgeSaIS1_EESaIS3_EED2Ev = comdat any

$_ZNSt12_Vector_baseISt6vectorI4EdgeSaIS1_EESaIS3_EE17_M_create_storageEm = comdat any

$_ZNSt12_Vector_baseISt6vectorI4EdgeSaIS1_EESaIS3_EE11_M_allocateEm = comdat any

$_ZNSt16allocator_traitsISaISt6vectorI4EdgeSaIS1_EEEE8allocateERS4_m = comdat any

$_ZN9__gnu_cxx13new_allocatorISt6vectorI4EdgeSaIS2_EEE8allocateEmPKv = comdat any

$_ZNSt27__uninitialized_default_n_1ILb0EE18__uninit_default_nIPSt6vectorI4EdgeSaIS3_EEmEET_S7_T0_ = comdat any

$_ZNSt12_Destroy_auxILb0EE9__destroyIPSt6vectorI4EdgeSaIS3_EEEEvT_S7_ = comdat any

$_ZNSt12_Vector_baseI4EdgeSaIS0_EED2Ev = comdat any

$_ZNSt6vectorISt4pairIllESaIS1_EE17_S_check_init_lenEmRKS2_ = comdat any

$_ZNSt6vectorISt4pairIllESaIS1_EE21_M_default_initializeEm = comdat any

$_ZNSt12_Vector_baseISt4pairIllESaIS1_EED2Ev = comdat any

$_ZNSt12_Vector_baseISt4pairIllESaIS1_EE17_M_create_storageEm = comdat any

$_ZNSt12_Vector_baseISt4pairIllESaIS1_EE11_M_allocateEm = comdat any

$_ZNSt16allocator_traitsISaISt4pairIllEEE8allocateERS2_m = comdat any

$_ZN9__gnu_cxx13new_allocatorISt4pairIllEE8allocateEmPKv = comdat any

$_ZNSt27__uninitialized_default_n_1ILb0EE18__uninit_default_nIPSt4pairIllEmEET_S5_T0_ = comdat any

$_ZNSt6vectorI4EdgeSaIS0_EE17_M_realloc_insertIJRlS4_S4_EEEvN9__gnu_cxx17__normal_iteratorIPS0_S2_EEDpOT_ = comdat any

$_ZNKSt6vectorI4EdgeSaIS0_EE12_M_check_lenEmPKc = comdat any

$_ZNSt12_Vector_baseI4EdgeSaIS0_EE11_M_allocateEm = comdat any

$_ZNSt16allocator_traitsISaI4EdgeEE8allocateERS1_m = comdat any

$_ZN9__gnu_cxx13new_allocatorI4EdgeE8allocateEmPKv = comdat any

$_ZNSt6vectorIlSaIlEE17_S_check_init_lenEmRKS0_ = comdat any

$_ZNSt6vectorIlSaIlEE18_M_fill_initializeEmRKl = comdat any

$_ZNSt12_Vector_baseIlSaIlEED2Ev = comdat any

$_ZNSt12_Vector_baseIlSaIlEE17_M_create_storageEm = comdat any

$_ZNSt12_Vector_baseIlSaIlEE11_M_allocateEm = comdat any

$_ZNSt16allocator_traitsISaIlEE8allocateERS0_m = comdat any

$_ZN9__gnu_cxx13new_allocatorIlE8allocateEmPKv = comdat any

$_ZSt10__fill_n_aIPlmlET_S1_T0_RKT1_St26random_access_iterator_tag = comdat any

$_ZNSt6vectorIS_IlSaIlEESaIS1_EE17_S_check_init_lenEmRKS2_ = comdat any

$_ZNSt6vectorIS_IlSaIlEESaIS1_EE18_M_fill_initializeEmRKS1_ = comdat any

$_ZNSt12_Vector_baseISt6vectorIlSaIlEESaIS2_EED2Ev = comdat any

$_ZNSt12_Vector_baseISt6vectorIlSaIlEESaIS2_EE17_M_create_storageEm = comdat any

$_ZNSt12_Vector_baseISt6vectorIlSaIlEESaIS2_EE11_M_allocateEm = comdat any

$_ZNSt16allocator_traitsISaISt6vectorIlSaIlEEEE8allocateERS3_m = comdat any

$_ZN9__gnu_cxx13new_allocatorISt6vectorIlSaIlEEE8allocateEmPKv = comdat any

$_ZNSt22__uninitialized_fill_nILb0EE15__uninit_fill_nIPSt6vectorIlSaIlEEmS4_EET_S6_T0_RKT1_ = comdat any

$_ZNSt6vectorIlSaIlEEC2ERKS1_ = comdat any

$_ZNSt12_Destroy_auxILb0EE9__destroyIPSt6vectorIlSaIlEEEEvT_S6_ = comdat any

$_ZNSt6vectorISt5tupleIJlliEESaIS1_EE12emplace_backIJiRliEEEvDpOT_ = comdat any

$_ZSt9push_heapIN9__gnu_cxx17__normal_iteratorIPSt5tupleIJlliEESt6vectorIS3_SaIS3_EEEESt7greaterIS3_EEvT_SB_T0_ = comdat any

$_ZNSt6vectorISt5tupleIJlliEESaIS1_EE17_M_realloc_insertIJiRliEEEvN9__gnu_cxx17__normal_iteratorIPS1_S3_EEDpOT_ = comdat any

$_ZNKSt6vectorISt5tupleIJlliEESaIS1_EE12_M_check_lenEmPKc = comdat any

$_ZNSt12_Vector_baseISt5tupleIJlliEESaIS1_EE11_M_allocateEm = comdat any

$_ZNSt16allocator_traitsISaISt5tupleIJlliEEEE8allocateERS2_m = comdat any

$_ZN9__gnu_cxx13new_allocatorISt5tupleIJlliEEE8allocateEmPKv = comdat any

$_ZSt14__relocate_a_1IPSt5tupleIJlliEES2_SaIS1_EET0_T_S5_S4_RT1_ = comdat any

$_ZSt11__push_heapIN9__gnu_cxx17__normal_iteratorIPSt5tupleIJlliEESt6vectorIS3_SaIS3_EEEElS3_NS0_5__ops14_Iter_comp_valISt7greaterIS3_EEEEvT_T0_SF_T1_RT2_ = comdat any

$_ZNSt15__tuple_compareISt5tupleIJlliEES1_Lm0ELm3EE6__lessERKS1_S4_ = comdat any

$_ZNSt15__tuple_compareISt5tupleIJlliEES1_Lm1ELm3EE6__lessERKS1_S4_ = comdat any

$_ZNSt11_Tuple_implILm0EJRlS0_RiEE9_M_assignIJlliEEEvRKS_ILm0EJDpT_EE = comdat any

$_ZSt8pop_heapIN9__gnu_cxx17__normal_iteratorIPSt5tupleIJlliEESt6vectorIS3_SaIS3_EEEESt7greaterIS3_EEvT_SB_T0_ = comdat any

$_ZSt10__pop_heapIN9__gnu_cxx17__normal_iteratorIPSt5tupleIJlliEESt6vectorIS3_SaIS3_EEEENS0_5__ops15_Iter_comp_iterISt7greaterIS3_EEEEvT_SE_SE_RT0_ = comdat any

$_ZSt13__adjust_heapIN9__gnu_cxx17__normal_iteratorIPSt5tupleIJlliEESt6vectorIS3_SaIS3_EEEElS3_NS0_5__ops15_Iter_comp_iterISt7greaterIS3_EEEEvT_T0_SF_T1_T2_ = comdat any

$_ZNSt6vectorISt5tupleIJlliEESaIS1_EE12emplace_backIJRllRiEEEvDpOT_ = comdat any

$_ZNSt6vectorISt5tupleIJlliEESaIS1_EE17_M_realloc_insertIJRllRiEEEvN9__gnu_cxx17__normal_iteratorIPS1_S3_EEDpOT_ = comdat any

@_ZStL8__ioinit = internal global %"class.std::ios_base::Init" zeroinitializer, align 1
@__dso_handle = external hidden global i8
@_ZSt3cin = external global %"class.std::basic_istream", align 8
@_ZL4INFL = internal constant i64 4557430888798830399, align 8
@_ZSt4cout = external global %"class.std::basic_ostream", align 8
@.str = private unnamed_addr constant [49 x i8] c"cannot create std::vector larger than max_size()\00", align 1
@.str.1 = private unnamed_addr constant [26 x i8] c"vector::_M_realloc_insert\00", align 1
@llvm.global_ctors = appending global [1 x { i32, void ()*, i8* }] [{ i32, void ()*, i8* } { i32 65535, void ()* @_GLOBAL__sub_I_s841949033.cpp, i8* null }]

; Function Attrs: minsize optsize
declare void @_ZNSt8ios_base4InitC1Ev(%"class.std::ios_base::Init"* nonnull align 1 dereferenceable(1)) unnamed_addr #0

; Function Attrs: minsize nounwind optsize
declare void @_ZNSt8ios_base4InitD1Ev(%"class.std::ios_base::Init"* nonnull align 1 dereferenceable(1)) unnamed_addr #1

; Function Attrs: nofree nounwind
declare i32 @__cxa_atexit(void (i8*)*, i8*, i8*) local_unnamed_addr #2

; Function Attrs: minsize norecurse optsize sspstrong uwtable
define dso_local i32 @main() local_unnamed_addr #3 personality i8* bitcast (i32 (...)* @__gxx_personality_v0 to i8*) {
  %1 = alloca i64, align 8
  %2 = alloca i64, align 8
  %3 = alloca i64, align 8
  %4 = alloca %"class.std::vector", align 8
  %5 = alloca %"class.std::allocator", align 1
  %6 = alloca %"class.std::vector.5", align 8
  %7 = alloca %"class.std::allocator.7", align 1
  %8 = alloca i64, align 8
  %9 = alloca i64, align 8
  %10 = alloca i64, align 8
  %11 = alloca i64, align 8
  %12 = alloca %"class.std::vector.10", align 8
  %13 = alloca %"class.std::vector.15", align 8
  %14 = alloca %"class.std::allocator.17", align 1
  %15 = alloca %"class.std::allocator.12", align 1
  %16 = alloca %"class.std::priority_queue", align 8
  %17 = alloca i32, align 4
  %18 = alloca i32, align 4
  %19 = alloca %"class.std::vector.15", align 8
  %20 = alloca %"class.std::allocator.17", align 1
  %21 = alloca i64, align 8
  %22 = alloca i64, align 8
  %23 = alloca i32, align 4
  %24 = alloca %"class.std::tuple.29", align 8
  %25 = alloca %struct.Edge, align 8
  %26 = alloca i64, align 8
  %27 = alloca i64, align 8
  %28 = bitcast i64* %1 to i8*
  call void @llvm.lifetime.start.p0i8(i64 8, i8* nonnull %28) #19
  %29 = bitcast i64* %2 to i8*
  call void @llvm.lifetime.start.p0i8(i64 8, i8* nonnull %29) #19
  %30 = bitcast i64* %3 to i8*
  call void @llvm.lifetime.start.p0i8(i64 8, i8* nonnull %30) #19
  %31 = call nonnull align 8 dereferenceable(16) %"class.std::basic_istream"* @_ZNSi10_M_extractIlEERSiRT_(%"class.std::basic_istream"* nonnull align 8 dereferenceable(16) @_ZSt3cin, i64* nonnull align 8 dereferenceable(8) %1) #20
  %32 = call nonnull align 8 dereferenceable(16) %"class.std::basic_istream"* @_ZNSi10_M_extractIlEERSiRT_(%"class.std::basic_istream"* nonnull align 8 dereferenceable(16) %31, i64* nonnull align 8 dereferenceable(8) %2) #20
  %33 = call nonnull align 8 dereferenceable(16) %"class.std::basic_istream"* @_ZNSi10_M_extractIlEERSiRT_(%"class.std::basic_istream"* nonnull align 8 dereferenceable(16) %32, i64* nonnull align 8 dereferenceable(8) %3) #20
  %34 = bitcast %"class.std::vector"* %4 to i8*
  call void @llvm.lifetime.start.p0i8(i64 24, i8* nonnull %34) #19
  %35 = load i64, i64* %1, align 8, !tbaa !5
  %36 = getelementptr inbounds %"class.std::allocator", %"class.std::allocator"* %5, i64 0, i32 0
  call void @llvm.lifetime.start.p0i8(i64 1, i8* nonnull %36) #19
  call void @_ZNSt6vectorIS_I4EdgeSaIS0_EESaIS2_EEC2EmRKS3_(%"class.std::vector"* nonnull align 8 dereferenceable(24) %4, i64 %35, %"class.std::allocator"* nonnull align 1 dereferenceable(1) %5) #20
  call void @llvm.lifetime.end.p0i8(i64 1, i8* nonnull %36) #19
  %37 = bitcast %"class.std::vector.5"* %6 to i8*
  call void @llvm.lifetime.start.p0i8(i64 24, i8* nonnull %37) #19
  %38 = load i64, i64* %1, align 8, !tbaa !5
  %39 = getelementptr inbounds %"class.std::allocator.7", %"class.std::allocator.7"* %7, i64 0, i32 0
  call void @llvm.lifetime.start.p0i8(i64 1, i8* nonnull %39) #19
  invoke void @_ZNSt6vectorISt4pairIllESaIS1_EEC2EmRKS2_(%"class.std::vector.5"* nonnull align 8 dereferenceable(24) %6, i64 %38, %"class.std::allocator.7"* nonnull align 1 dereferenceable(1) %7) #20
          to label %40 unwind label %53

40:                                               ; preds = %0
  call void @llvm.lifetime.end.p0i8(i64 1, i8* nonnull %39) #19
  %41 = bitcast i64* %8 to i8*
  call void @llvm.lifetime.start.p0i8(i64 8, i8* nonnull %41) #19
  %42 = bitcast i64* %9 to i8*
  call void @llvm.lifetime.start.p0i8(i64 8, i8* nonnull %42) #19
  %43 = bitcast i64* %10 to i8*
  call void @llvm.lifetime.start.p0i8(i64 8, i8* nonnull %43) #19
  %44 = bitcast i64* %11 to i8*
  call void @llvm.lifetime.start.p0i8(i64 8, i8* nonnull %44) #19
  %45 = getelementptr inbounds %"class.std::vector", %"class.std::vector"* %4, i64 0, i32 0, i32 0, i32 0, i32 0
  br label %46

46:                                               ; preds = %74, %40
  %47 = phi i32 [ 0, %40 ], [ %75, %74 ]
  %48 = load i64, i64* %2, align 8, !tbaa !5
  %49 = trunc i64 %48 to i32
  %50 = icmp slt i32 %47, %49
  br i1 %50, label %55, label %51

51:                                               ; preds = %46
  %52 = getelementptr inbounds %"class.std::vector.5", %"class.std::vector.5"* %6, i64 0, i32 0, i32 0, i32 0, i32 0
  br label %78

53:                                               ; preds = %0
  %54 = landingpad { i8*, i32 }
          cleanup
  call void @llvm.lifetime.end.p0i8(i64 1, i8* nonnull %39) #19
  br label %276

55:                                               ; preds = %46
  %56 = invoke nonnull align 8 dereferenceable(16) %"class.std::basic_istream"* @_ZNSi10_M_extractIlEERSiRT_(%"class.std::basic_istream"* nonnull align 8 dereferenceable(16) @_ZSt3cin, i64* nonnull align 8 dereferenceable(8) %8) #20
          to label %57 unwind label %76

57:                                               ; preds = %55
  %58 = invoke nonnull align 8 dereferenceable(16) %"class.std::basic_istream"* @_ZNSi10_M_extractIlEERSiRT_(%"class.std::basic_istream"* nonnull align 8 dereferenceable(16) %56, i64* nonnull align 8 dereferenceable(8) %9) #20
          to label %59 unwind label %76

59:                                               ; preds = %57
  %60 = invoke nonnull align 8 dereferenceable(16) %"class.std::basic_istream"* @_ZNSi10_M_extractIlEERSiRT_(%"class.std::basic_istream"* nonnull align 8 dereferenceable(16) %58, i64* nonnull align 8 dereferenceable(8) %10) #20
          to label %61 unwind label %76

61:                                               ; preds = %59
  %62 = invoke nonnull align 8 dereferenceable(16) %"class.std::basic_istream"* @_ZNSi10_M_extractIlEERSiRT_(%"class.std::basic_istream"* nonnull align 8 dereferenceable(16) %60, i64* nonnull align 8 dereferenceable(8) %11) #20
          to label %63 unwind label %76

63:                                               ; preds = %61
  %64 = load i64, i64* %8, align 8, !tbaa !5
  %65 = add nsw i64 %64, -1
  store i64 %65, i64* %8, align 8, !tbaa !5
  %66 = load i64, i64* %9, align 8, !tbaa !5
  %67 = add nsw i64 %66, -1
  store i64 %67, i64* %9, align 8, !tbaa !5
  %68 = load %"class.std::vector.0"*, %"class.std::vector.0"** %45, align 8, !tbaa !9
  %69 = getelementptr inbounds %"class.std::vector.0", %"class.std::vector.0"* %68, i64 %65
  invoke void @_ZNSt6vectorI4EdgeSaIS0_EE12emplace_backIJRlS4_S4_EEEvDpOT_(%"class.std::vector.0"* nonnull align 8 dereferenceable(24) %69, i64* nonnull align 8 dereferenceable(8) %9, i64* nonnull align 8 dereferenceable(8) %10, i64* nonnull align 8 dereferenceable(8) %11) #20
          to label %70 unwind label %76

70:                                               ; preds = %63
  %71 = load i64, i64* %9, align 8, !tbaa !5
  %72 = load %"class.std::vector.0"*, %"class.std::vector.0"** %45, align 8, !tbaa !9
  %73 = getelementptr inbounds %"class.std::vector.0", %"class.std::vector.0"* %72, i64 %71
  invoke void @_ZNSt6vectorI4EdgeSaIS0_EE12emplace_backIJRlS4_S4_EEEvDpOT_(%"class.std::vector.0"* nonnull align 8 dereferenceable(24) %73, i64* nonnull align 8 dereferenceable(8) %8, i64* nonnull align 8 dereferenceable(8) %10, i64* nonnull align 8 dereferenceable(8) %11) #20
          to label %74 unwind label %76

74:                                               ; preds = %70
  %75 = add nuw nsw i32 %47, 1
  br label %46, !llvm.loop !12

76:                                               ; preds = %61, %59, %57, %55, %70, %63
  %77 = landingpad { i8*, i32 }
          cleanup
  br label %273

78:                                               ; preds = %51, %96
  %79 = phi i64 [ 0, %51 ], [ %97, %96 ]
  %80 = load i64, i64* %1, align 8, !tbaa !5
  %81 = shl i64 %80, 32
  %82 = ashr exact i64 %81, 32
  %83 = icmp slt i64 %79, %82
  br i1 %83, label %88, label %84

84:                                               ; preds = %78
  %85 = bitcast %"class.std::vector.10"* %12 to i8*
  call void @llvm.lifetime.start.p0i8(i64 24, i8* nonnull %85) #19
  %86 = bitcast %"class.std::vector.15"* %13 to i8*
  call void @llvm.lifetime.start.p0i8(i64 24, i8* nonnull %86) #19
  %87 = getelementptr inbounds %"class.std::allocator.17", %"class.std::allocator.17"* %14, i64 0, i32 0
  call void @llvm.lifetime.start.p0i8(i64 1, i8* nonnull %87) #19
  invoke void @_ZNSt6vectorIlSaIlEEC2EmRKlRKS0_(%"class.std::vector.15"* nonnull align 8 dereferenceable(24) %13, i64 2525, i64* nonnull align 8 dereferenceable(8) @_ZL4INFL, %"class.std::allocator.17"* nonnull align 1 dereferenceable(1) %14) #20
          to label %100 unwind label %152

88:                                               ; preds = %78
  %89 = load %"struct.std::pair"*, %"struct.std::pair"** %52, align 8, !tbaa !14
  %90 = getelementptr inbounds %"struct.std::pair", %"struct.std::pair"* %89, i64 %79, i32 0
  %91 = invoke nonnull align 8 dereferenceable(16) %"class.std::basic_istream"* @_ZNSi10_M_extractIlEERSiRT_(%"class.std::basic_istream"* nonnull align 8 dereferenceable(16) @_ZSt3cin, i64* nonnull align 8 dereferenceable(8) %90) #20
          to label %92 unwind label %98

92:                                               ; preds = %88
  %93 = load %"struct.std::pair"*, %"struct.std::pair"** %52, align 8, !tbaa !14
  %94 = getelementptr inbounds %"struct.std::pair", %"struct.std::pair"* %93, i64 %79, i32 1
  %95 = invoke nonnull align 8 dereferenceable(16) %"class.std::basic_istream"* @_ZNSi10_M_extractIlEERSiRT_(%"class.std::basic_istream"* nonnull align 8 dereferenceable(16) %91, i64* nonnull align 8 dereferenceable(8) %94) #20
          to label %96 unwind label %98

96:                                               ; preds = %92
  %97 = add nuw nsw i64 %79, 1
  br label %78, !llvm.loop !16

98:                                               ; preds = %92, %88
  %99 = landingpad { i8*, i32 }
          cleanup
  br label %273

100:                                              ; preds = %84
  %101 = getelementptr inbounds %"class.std::allocator.12", %"class.std::allocator.12"* %15, i64 0, i32 0
  call void @llvm.lifetime.start.p0i8(i64 1, i8* nonnull %101) #19
  invoke void @_ZNSt6vectorIS_IlSaIlEESaIS1_EEC2EmRKS1_RKS2_(%"class.std::vector.10"* nonnull align 8 dereferenceable(24) %12, i64 %80, %"class.std::vector.15"* nonnull align 8 dereferenceable(24) %13, %"class.std::allocator.12"* nonnull align 1 dereferenceable(1) %15) #20
          to label %102 unwind label %154

102:                                              ; preds = %100
  call void @llvm.lifetime.end.p0i8(i64 1, i8* nonnull %101) #19
  %103 = getelementptr inbounds %"class.std::vector.15", %"class.std::vector.15"* %13, i64 0, i32 0
  call void @_ZNSt12_Vector_baseIlSaIlEED2Ev(%"struct.std::_Vector_base.16"* nonnull align 8 dereferenceable(24) %103) #21
  call void @llvm.lifetime.end.p0i8(i64 1, i8* nonnull %87) #19
  call void @llvm.lifetime.end.p0i8(i64 24, i8* nonnull %86) #19
  %104 = load i64, i64* %3, align 8, !tbaa !5
  %105 = icmp slt i64 %104, 2500
  %106 = select i1 %105, i64 %104, i64 2500
  store i64 %106, i64* %3, align 8, !tbaa !5
  %107 = getelementptr inbounds %"class.std::vector.10", %"class.std::vector.10"* %12, i64 0, i32 0, i32 0, i32 0, i32 0
  %108 = load %"class.std::vector.15"*, %"class.std::vector.15"** %107, align 8, !tbaa !17
  %109 = getelementptr inbounds %"class.std::vector.15", %"class.std::vector.15"* %108, i64 0, i32 0, i32 0, i32 0, i32 0
  %110 = load i64*, i64** %109, align 8, !tbaa !19
  %111 = getelementptr inbounds i64, i64* %110, i64 %106
  store i64 0, i64* %111, align 8, !tbaa !5
  %112 = bitcast %"class.std::priority_queue"* %16 to i8*
  call void @llvm.lifetime.start.p0i8(i64 32, i8* nonnull %112) #19
  call void @llvm.memset.p0i8.i64(i8* noundef nonnull align 8 dereferenceable(24) %112, i8 0, i64 24, i1 false) #19
  %113 = bitcast i32* %17 to i8*
  call void @llvm.lifetime.start.p0i8(i64 4, i8* nonnull %113) #19
  store i32 0, i32* %17, align 4, !tbaa !21
  %114 = bitcast i32* %18 to i8*
  call void @llvm.lifetime.start.p0i8(i64 4, i8* nonnull %114) #19
  store i32 0, i32* %18, align 4, !tbaa !21
  invoke void @_ZNSt14priority_queueISt5tupleIJlliEESt6vectorIS1_SaIS1_EESt7greaterIS1_EE7emplaceIJiRliEEEvDpOT_(%"class.std::priority_queue"* nonnull align 8 dereferenceable(25) %16, i32* nonnull align 4 dereferenceable(4) %17, i64* nonnull align 8 dereferenceable(8) %3, i32* nonnull align 4 dereferenceable(4) %18) #20
          to label %115 unwind label %159

115:                                              ; preds = %102
  call void @llvm.lifetime.end.p0i8(i64 4, i8* nonnull %114) #19
  call void @llvm.lifetime.end.p0i8(i64 4, i8* nonnull %113) #19
  %116 = bitcast %"class.std::vector.15"* %19 to i8*
  call void @llvm.lifetime.start.p0i8(i64 24, i8* nonnull %116) #19
  %117 = load i64, i64* %1, align 8, !tbaa !5
  %118 = getelementptr inbounds %"class.std::allocator.17", %"class.std::allocator.17"* %20, i64 0, i32 0
  call void @llvm.lifetime.start.p0i8(i64 1, i8* nonnull %118) #19
  invoke void @_ZNSt6vectorIlSaIlEEC2EmRKlRKS0_(%"class.std::vector.15"* nonnull align 8 dereferenceable(24) %19, i64 %117, i64* nonnull align 8 dereferenceable(8) @_ZL4INFL, %"class.std::allocator.17"* nonnull align 1 dereferenceable(1) %20) #20
          to label %119 unwind label %161

119:                                              ; preds = %115
  call void @llvm.lifetime.end.p0i8(i64 1, i8* nonnull %118) #19
  %120 = bitcast i64* %21 to i8*
  call void @llvm.lifetime.start.p0i8(i64 8, i8* nonnull %120) #19
  %121 = bitcast i64* %22 to i8*
  call void @llvm.lifetime.start.p0i8(i64 8, i8* nonnull %121) #19
  %122 = bitcast i32* %23 to i8*
  call void @llvm.lifetime.start.p0i8(i64 4, i8* nonnull %122) #19
  %123 = getelementptr inbounds %"class.std::priority_queue", %"class.std::priority_queue"* %16, i64 0, i32 0, i32 0, i32 0, i32 0, i32 1
  %124 = getelementptr inbounds %"class.std::priority_queue", %"class.std::priority_queue"* %16, i64 0, i32 0, i32 0, i32 0, i32 0, i32 0
  %125 = bitcast %"class.std::tuple.29"* %24 to i8*
  %126 = getelementptr inbounds %"class.std::tuple.29", %"class.std::tuple.29"* %24, i64 0, i32 0, i32 0, i32 0, i32 0, i32 0
  %127 = getelementptr inbounds %"class.std::tuple.29", %"class.std::tuple.29"* %24, i64 0, i32 0, i32 0, i32 1, i32 0
  %128 = getelementptr inbounds %"class.std::tuple.29", %"class.std::tuple.29"* %24, i64 0, i32 0, i32 1, i32 0
  %129 = bitcast %struct.Edge* %25 to i8*
  %130 = getelementptr inbounds %struct.Edge, %struct.Edge* %25, i64 0, i32 1
  %131 = getelementptr inbounds %struct.Edge, %struct.Edge* %25, i64 0, i32 0
  %132 = getelementptr inbounds %struct.Edge, %struct.Edge* %25, i64 0, i32 2
  %133 = bitcast i64* %26 to i8*
  %134 = bitcast i64* %27 to i8*
  br label %135

135:                                              ; preds = %183, %119
  %136 = load %"class.std::tuple"*, %"class.std::tuple"** %123, align 8, !tbaa !23
  %137 = load %"class.std::tuple"*, %"class.std::tuple"** %124, align 8, !tbaa !25
  %138 = icmp eq %"class.std::tuple"* %136, %137
  br i1 %138, label %237, label %139

139:                                              ; preds = %135
  call void @llvm.lifetime.start.p0i8(i64 24, i8* nonnull %125) #19
  store i32* %23, i32** %126, align 8, !tbaa !26, !alias.scope !27
  store i64* %22, i64** %127, align 8, !tbaa !26, !alias.scope !27
  store i64* %21, i64** %128, align 8, !tbaa !26, !alias.scope !27
  %140 = call nonnull align 8 dereferenceable(24) %"class.std::tuple.29"* @_ZNSt5tupleIJRlS0_RiEEaSIJlliEEENSt9enable_ifIXcl12__assignableIDpRKT_EEERS2_E4typeERKS_IJDpS5_EE(%"class.std::tuple.29"* nonnull align 8 dereferenceable(24) %24, %"class.std::tuple"* nonnull align 8 dereferenceable(24) %137) #21
  call void @llvm.lifetime.end.p0i8(i64 24, i8* nonnull %125) #19
  invoke void @_ZNSt14priority_queueISt5tupleIJlliEESt6vectorIS1_SaIS1_EESt7greaterIS1_EE3popEv(%"class.std::priority_queue"* nonnull align 8 dereferenceable(25) %16) #20
          to label %141 unwind label %163

141:                                              ; preds = %139
  %142 = load i64, i64* %21, align 8, !tbaa !5
  %143 = load i32, i32* %23, align 4, !tbaa !21
  %144 = sext i32 %143 to i64
  %145 = load %"class.std::vector.15"*, %"class.std::vector.15"** %107, align 8, !tbaa !17
  %146 = load i64, i64* %22, align 8, !tbaa !5
  %147 = getelementptr inbounds %"class.std::vector.15", %"class.std::vector.15"* %145, i64 %144, i32 0, i32 0, i32 0, i32 0
  %148 = load i64*, i64** %147, align 8, !tbaa !19
  %149 = getelementptr inbounds i64, i64* %148, i64 %146
  %150 = load i64, i64* %149, align 8, !tbaa !5
  %151 = icmp sgt i64 %142, %150
  br i1 %151, label %183, label %165

152:                                              ; preds = %84
  %153 = landingpad { i8*, i32 }
          cleanup
  br label %157

154:                                              ; preds = %100
  %155 = landingpad { i8*, i32 }
          cleanup
  call void @llvm.lifetime.end.p0i8(i64 1, i8* nonnull %101) #19
  %156 = getelementptr inbounds %"class.std::vector.15", %"class.std::vector.15"* %13, i64 0, i32 0
  call void @_ZNSt12_Vector_baseIlSaIlEED2Ev(%"struct.std::_Vector_base.16"* nonnull align 8 dereferenceable(24) %156) #21
  br label %157

157:                                              ; preds = %154, %152
  %158 = phi { i8*, i32 } [ %155, %154 ], [ %153, %152 ]
  call void @llvm.lifetime.end.p0i8(i64 1, i8* nonnull %87) #19
  call void @llvm.lifetime.end.p0i8(i64 24, i8* nonnull %86) #19
  br label %271

159:                                              ; preds = %102
  %160 = landingpad { i8*, i32 }
          cleanup
  call void @llvm.lifetime.end.p0i8(i64 4, i8* nonnull %114) #19
  call void @llvm.lifetime.end.p0i8(i64 4, i8* nonnull %113) #19
  br label %268

161:                                              ; preds = %115
  %162 = landingpad { i8*, i32 }
          cleanup
  call void @llvm.lifetime.end.p0i8(i64 1, i8* nonnull %118) #19
  br label %266

163:                                              ; preds = %139
  %164 = landingpad { i8*, i32 }
          cleanup
  br label %263

165:                                              ; preds = %141
  %166 = load %"class.std::vector.0"*, %"class.std::vector.0"** %45, align 8, !tbaa !9
  %167 = getelementptr inbounds %"class.std::vector.0", %"class.std::vector.0"* %166, i64 %144, i32 0, i32 0, i32 0, i32 0
  %168 = load %struct.Edge*, %struct.Edge** %167, align 8, !tbaa !26
  %169 = getelementptr inbounds %"class.std::vector.0", %"class.std::vector.0"* %166, i64 %144, i32 0, i32 0, i32 0, i32 1
  %170 = load %struct.Edge*, %struct.Edge** %169, align 8, !tbaa !26
  br label %171

171:                                              ; preds = %215, %165
  %172 = phi %struct.Edge* [ %168, %165 ], [ %216, %215 ]
  %173 = icmp eq %struct.Edge* %172, %170
  br i1 %173, label %174, label %184

174:                                              ; preds = %171
  %175 = load i64, i64* %22, align 8, !tbaa !5
  %176 = load i32, i32* %23, align 4, !tbaa !21
  %177 = sext i32 %176 to i64
  %178 = load %"struct.std::pair"*, %"struct.std::pair"** %52, align 8, !tbaa !14
  %179 = getelementptr inbounds %"struct.std::pair", %"struct.std::pair"* %178, i64 %177, i32 0
  %180 = load i64, i64* %179, align 8, !tbaa !30
  %181 = add nsw i64 %180, %175
  %182 = icmp slt i64 %181, 2500
  br i1 %182, label %217, label %183

183:                                              ; preds = %174, %217, %234, %141
  br label %135, !llvm.loop !32

184:                                              ; preds = %171
  call void @llvm.lifetime.start.p0i8(i64 24, i8* nonnull %129) #19
  %185 = bitcast %struct.Edge* %172 to i8*
  call void @llvm.memcpy.p0i8.p0i8.i64(i8* noundef nonnull align 8 dereferenceable(24) %129, i8* noundef nonnull align 8 dereferenceable(24) %185, i64 24, i1 false), !tbaa.struct !33
  %186 = load i64, i64* %22, align 8, !tbaa !5
  %187 = load i64, i64* %130, align 8, !tbaa !34
  %188 = icmp slt i64 %186, %187
  br i1 %188, label %215, label %189

189:                                              ; preds = %184
  %190 = load i32, i32* %131, align 8, !tbaa !36
  %191 = sext i32 %190 to i64
  %192 = load %"class.std::vector.15"*, %"class.std::vector.15"** %107, align 8, !tbaa !17
  %193 = sub nsw i64 %186, %187
  %194 = getelementptr inbounds %"class.std::vector.15", %"class.std::vector.15"* %192, i64 %191, i32 0, i32 0, i32 0, i32 0
  %195 = load i64*, i64** %194, align 8, !tbaa !19
  %196 = getelementptr inbounds i64, i64* %195, i64 %193
  %197 = load i64, i64* %196, align 8, !tbaa !5
  %198 = load i32, i32* %23, align 4, !tbaa !21
  %199 = sext i32 %198 to i64
  %200 = getelementptr inbounds %"class.std::vector.15", %"class.std::vector.15"* %192, i64 %199, i32 0, i32 0, i32 0, i32 0
  %201 = load i64*, i64** %200, align 8, !tbaa !19
  %202 = getelementptr inbounds i64, i64* %201, i64 %186
  %203 = load i64, i64* %202, align 8, !tbaa !5
  %204 = load i64, i64* %132, align 8, !tbaa !37
  %205 = add nsw i64 %204, %203
  %206 = icmp sgt i64 %197, %205
  br i1 %206, label %207, label %215

207:                                              ; preds = %189
  store i64 %205, i64* %196, align 8, !tbaa !5
  %208 = load i64, i64* %22, align 8, !tbaa !5
  %209 = load i64, i64* %130, align 8, !tbaa !34
  %210 = sub nsw i64 %208, %209
  %211 = getelementptr inbounds i64, i64* %195, i64 %210
  call void @llvm.lifetime.start.p0i8(i64 8, i8* nonnull %133) #19
  store i64 %210, i64* %26, align 8, !tbaa !5
  invoke void @_ZNSt14priority_queueISt5tupleIJlliEESt6vectorIS1_SaIS1_EESt7greaterIS1_EE7emplaceIJRllRiEEEvDpOT_(%"class.std::priority_queue"* nonnull align 8 dereferenceable(25) %16, i64* nonnull align 8 dereferenceable(8) %211, i64* nonnull align 8 dereferenceable(8) %26, i32* nonnull align 4 dereferenceable(4) %131) #20
          to label %212 unwind label %213

212:                                              ; preds = %207
  call void @llvm.lifetime.end.p0i8(i64 8, i8* nonnull %133) #19
  br label %215

213:                                              ; preds = %207
  %214 = landingpad { i8*, i32 }
          cleanup
  call void @llvm.lifetime.end.p0i8(i64 8, i8* nonnull %133) #19
  call void @llvm.lifetime.end.p0i8(i64 24, i8* nonnull %129) #19
  br label %263

215:                                              ; preds = %212, %189, %184
  call void @llvm.lifetime.end.p0i8(i64 24, i8* nonnull %129) #19
  %216 = getelementptr inbounds %struct.Edge, %struct.Edge* %172, i64 1
  br label %171

217:                                              ; preds = %174
  %218 = load %"class.std::vector.15"*, %"class.std::vector.15"** %107, align 8, !tbaa !17
  %219 = getelementptr inbounds %"class.std::vector.15", %"class.std::vector.15"* %218, i64 %177, i32 0, i32 0, i32 0, i32 0
  %220 = load i64*, i64** %219, align 8, !tbaa !19
  %221 = getelementptr inbounds i64, i64* %220, i64 %181
  %222 = load i64, i64* %221, align 8, !tbaa !5
  %223 = getelementptr inbounds i64, i64* %220, i64 %175
  %224 = load i64, i64* %223, align 8, !tbaa !5
  %225 = getelementptr inbounds %"struct.std::pair", %"struct.std::pair"* %178, i64 %177, i32 1
  %226 = load i64, i64* %225, align 8, !tbaa !38
  %227 = add nsw i64 %226, %224
  %228 = icmp sgt i64 %222, %227
  br i1 %228, label %229, label %183

229:                                              ; preds = %217
  store i64 %227, i64* %221, align 8, !tbaa !5
  %230 = load i64, i64* %22, align 8, !tbaa !5
  %231 = load i64, i64* %179, align 8, !tbaa !30
  %232 = add nsw i64 %231, %230
  %233 = getelementptr inbounds i64, i64* %220, i64 %232
  call void @llvm.lifetime.start.p0i8(i64 8, i8* nonnull %134) #19
  store i64 %232, i64* %27, align 8, !tbaa !5
  invoke void @_ZNSt14priority_queueISt5tupleIJlliEESt6vectorIS1_SaIS1_EESt7greaterIS1_EE7emplaceIJRllRiEEEvDpOT_(%"class.std::priority_queue"* nonnull align 8 dereferenceable(25) %16, i64* nonnull align 8 dereferenceable(8) %233, i64* nonnull align 8 dereferenceable(8) %27, i32* nonnull align 4 dereferenceable(4) %23) #20
          to label %234 unwind label %235

234:                                              ; preds = %229
  call void @llvm.lifetime.end.p0i8(i64 8, i8* nonnull %134) #19
  br label %183

235:                                              ; preds = %229
  %236 = landingpad { i8*, i32 }
          cleanup
  call void @llvm.lifetime.end.p0i8(i64 8, i8* nonnull %134) #19
  br label %263

237:                                              ; preds = %135, %259
  %238 = phi i64 [ %260, %259 ], [ 1, %135 ]
  %239 = load i64, i64* %1, align 8, !tbaa !5
  %240 = shl i64 %239, 32
  %241 = ashr exact i64 %240, 32
  %242 = icmp slt i64 %238, %241
  br i1 %242, label %247, label %243

243:                                              ; preds = %237
  call void @llvm.lifetime.end.p0i8(i64 4, i8* nonnull %122) #19
  call void @llvm.lifetime.end.p0i8(i64 8, i8* nonnull %121) #19
  call void @llvm.lifetime.end.p0i8(i64 8, i8* nonnull %120) #19
  %244 = getelementptr inbounds %"class.std::vector.15", %"class.std::vector.15"* %19, i64 0, i32 0
  call void @_ZNSt12_Vector_baseIlSaIlEED2Ev(%"struct.std::_Vector_base.16"* nonnull align 8 dereferenceable(24) %244) #21
  call void @llvm.lifetime.end.p0i8(i64 24, i8* nonnull %116) #19
  %245 = getelementptr inbounds %"class.std::priority_queue", %"class.std::priority_queue"* %16, i64 0, i32 0, i32 0
  call void @_ZNSt12_Vector_baseISt5tupleIJlliEESaIS1_EED2Ev(%"struct.std::_Vector_base.21"* nonnull align 8 dereferenceable(24) %245) #21
  call void @llvm.lifetime.end.p0i8(i64 32, i8* nonnull %112) #19
  call void @_ZNSt6vectorIS_IlSaIlEESaIS1_EED2Ev(%"class.std::vector.10"* nonnull align 8 dereferenceable(24) %12) #21
  call void @llvm.lifetime.end.p0i8(i64 24, i8* nonnull %85) #19
  call void @llvm.lifetime.end.p0i8(i64 8, i8* nonnull %44) #19
  call void @llvm.lifetime.end.p0i8(i64 8, i8* nonnull %43) #19
  call void @llvm.lifetime.end.p0i8(i64 8, i8* nonnull %42) #19
  call void @llvm.lifetime.end.p0i8(i64 8, i8* nonnull %41) #19
  %246 = getelementptr inbounds %"class.std::vector.5", %"class.std::vector.5"* %6, i64 0, i32 0
  call void @_ZNSt12_Vector_baseISt4pairIllESaIS1_EED2Ev(%"struct.std::_Vector_base.6"* nonnull align 8 dereferenceable(24) %246) #21
  call void @llvm.lifetime.end.p0i8(i64 24, i8* nonnull %37) #19
  call void @_ZNSt6vectorIS_I4EdgeSaIS0_EESaIS2_EED2Ev(%"class.std::vector"* nonnull align 8 dereferenceable(24) %4) #21
  call void @llvm.lifetime.end.p0i8(i64 24, i8* nonnull %34) #19
  call void @llvm.lifetime.end.p0i8(i64 8, i8* nonnull %30) #19
  call void @llvm.lifetime.end.p0i8(i64 8, i8* nonnull %29) #19
  call void @llvm.lifetime.end.p0i8(i64 8, i8* nonnull %28) #19
  ret i32 0

247:                                              ; preds = %237
  %248 = load %"class.std::vector.15"*, %"class.std::vector.15"** %107, align 8, !tbaa !17
  %249 = getelementptr inbounds %"class.std::vector.15", %"class.std::vector.15"* %248, i64 %238, i32 0, i32 0, i32 0, i32 0
  %250 = load i64*, i64** %249, align 8, !tbaa !26
  %251 = getelementptr inbounds %"class.std::vector.15", %"class.std::vector.15"* %248, i64 %238, i32 0, i32 0, i32 0, i32 1
  %252 = load i64*, i64** %251, align 8, !tbaa !26
  %253 = invoke i64* @_ZSt13__min_elementIN9__gnu_cxx17__normal_iteratorIPlSt6vectorIlSaIlEEEENS0_5__ops15_Iter_less_iterEET_S9_S9_T0_(i64* %250, i64* %252) #20
          to label %254 unwind label %261

254:                                              ; preds = %247
  %255 = load i64, i64* %253, align 8, !tbaa !5
  %256 = invoke nonnull align 8 dereferenceable(8) %"class.std::basic_ostream"* @_ZNSo9_M_insertIlEERSoT_(%"class.std::basic_ostream"* nonnull align 8 dereferenceable(8) @_ZSt4cout, i64 %255) #20
          to label %257 unwind label %261

257:                                              ; preds = %254
  %258 = invoke nonnull align 8 dereferenceable(8) %"class.std::basic_ostream"* @_ZStlsISt11char_traitsIcEERSt13basic_ostreamIcT_ES5_c(%"class.std::basic_ostream"* nonnull align 8 dereferenceable(8) %256, i8 signext 10) #20
          to label %259 unwind label %261

259:                                              ; preds = %257
  %260 = add nuw nsw i64 %238, 1
  br label %237, !llvm.loop !39

261:                                              ; preds = %254, %247, %257
  %262 = landingpad { i8*, i32 }
          cleanup
  br label %263

263:                                              ; preds = %261, %235, %213, %163
  %264 = phi { i8*, i32 } [ %214, %213 ], [ %236, %235 ], [ %164, %163 ], [ %262, %261 ]
  call void @llvm.lifetime.end.p0i8(i64 4, i8* nonnull %122) #19
  call void @llvm.lifetime.end.p0i8(i64 8, i8* nonnull %121) #19
  call void @llvm.lifetime.end.p0i8(i64 8, i8* nonnull %120) #19
  %265 = getelementptr inbounds %"class.std::vector.15", %"class.std::vector.15"* %19, i64 0, i32 0
  call void @_ZNSt12_Vector_baseIlSaIlEED2Ev(%"struct.std::_Vector_base.16"* nonnull align 8 dereferenceable(24) %265) #21
  br label %266

266:                                              ; preds = %263, %161
  %267 = phi { i8*, i32 } [ %264, %263 ], [ %162, %161 ]
  call void @llvm.lifetime.end.p0i8(i64 24, i8* nonnull %116) #19
  br label %268

268:                                              ; preds = %266, %159
  %269 = phi { i8*, i32 } [ %267, %266 ], [ %160, %159 ]
  %270 = getelementptr inbounds %"class.std::priority_queue", %"class.std::priority_queue"* %16, i64 0, i32 0, i32 0
  call void @_ZNSt12_Vector_baseISt5tupleIJlliEESaIS1_EED2Ev(%"struct.std::_Vector_base.21"* nonnull align 8 dereferenceable(24) %270) #21
  call void @llvm.lifetime.end.p0i8(i64 32, i8* nonnull %112) #19
  call void @_ZNSt6vectorIS_IlSaIlEESaIS1_EED2Ev(%"class.std::vector.10"* nonnull align 8 dereferenceable(24) %12) #21
  br label %271

271:                                              ; preds = %268, %157
  %272 = phi { i8*, i32 } [ %269, %268 ], [ %158, %157 ]
  call void @llvm.lifetime.end.p0i8(i64 24, i8* nonnull %85) #19
  br label %273

273:                                              ; preds = %271, %98, %76
  %274 = phi { i8*, i32 } [ %77, %76 ], [ %99, %98 ], [ %272, %271 ]
  call void @llvm.lifetime.end.p0i8(i64 8, i8* nonnull %44) #19
  call void @llvm.lifetime.end.p0i8(i64 8, i8* nonnull %43) #19
  call void @llvm.lifetime.end.p0i8(i64 8, i8* nonnull %42) #19
  call void @llvm.lifetime.end.p0i8(i64 8, i8* nonnull %41) #19
  %275 = getelementptr inbounds %"class.std::vector.5", %"class.std::vector.5"* %6, i64 0, i32 0
  call void @_ZNSt12_Vector_baseISt4pairIllESaIS1_EED2Ev(%"struct.std::_Vector_base.6"* nonnull align 8 dereferenceable(24) %275) #21
  br label %276

276:                                              ; preds = %273, %53
  %277 = phi { i8*, i32 } [ %274, %273 ], [ %54, %53 ]
  call void @llvm.lifetime.end.p0i8(i64 24, i8* nonnull %37) #19
  call void @_ZNSt6vectorIS_I4EdgeSaIS0_EESaIS2_EED2Ev(%"class.std::vector"* nonnull align 8 dereferenceable(24) %4) #21
  call void @llvm.lifetime.end.p0i8(i64 24, i8* nonnull %34) #19
  call void @llvm.lifetime.end.p0i8(i64 8, i8* nonnull %30) #19
  call void @llvm.lifetime.end.p0i8(i64 8, i8* nonnull %29) #19
  call void @llvm.lifetime.end.p0i8(i64 8, i8* nonnull %28) #19
  resume { i8*, i32 } %277
}

; Function Attrs: argmemonly mustprogress nofree nosync nounwind willreturn
declare void @llvm.lifetime.start.p0i8(i64 immarg, i8* nocapture) #4

; Function Attrs: minsize optsize sspstrong uwtable
define linkonce_odr dso_local void @_ZNSt6vectorIS_I4EdgeSaIS0_EESaIS2_EEC2EmRKS3_(%"class.std::vector"* nonnull align 8 dereferenceable(24) %0, i64 %1, %"class.std::allocator"* nonnull align 1 dereferenceable(1) %2) unnamed_addr #5 comdat align 2 personality i8* bitcast (i32 (...)* @__gxx_personality_v0 to i8*) {
  %4 = getelementptr inbounds %"class.std::vector", %"class.std::vector"* %0, i64 0, i32 0
  %5 = tail call i64 @_ZNSt6vectorIS_I4EdgeSaIS0_EESaIS2_EE17_S_check_init_lenEmRKS3_(i64 %1, %"class.std::allocator"* nonnull align 1 dereferenceable(1) %2) #20
  %6 = bitcast %"class.std::vector"* %0 to i8*
  tail call void @llvm.memset.p0i8.i64(i8* noundef nonnull align 8 dereferenceable(24) %6, i8 0, i64 24, i1 false) #19
  tail call void @_ZNSt12_Vector_baseISt6vectorI4EdgeSaIS1_EESaIS3_EE17_M_create_storageEm(%"struct.std::_Vector_base"* nonnull align 8 dereferenceable(24) %4, i64 %5) #20
  invoke void @_ZNSt6vectorIS_I4EdgeSaIS0_EESaIS2_EE21_M_default_initializeEm(%"class.std::vector"* nonnull align 8 dereferenceable(24) %0, i64 %1) #20
          to label %7 unwind label %8

7:                                                ; preds = %3
  ret void

8:                                                ; preds = %3
  %9 = landingpad { i8*, i32 }
          cleanup
  tail call void @_ZNSt12_Vector_baseISt6vectorI4EdgeSaIS1_EESaIS3_EED2Ev(%"struct.std::_Vector_base"* nonnull align 8 dereferenceable(24) %4) #21
  resume { i8*, i32 } %9
}

declare i32 @__gxx_personality_v0(...)

; Function Attrs: argmemonly mustprogress nofree nosync nounwind willreturn
declare void @llvm.lifetime.end.p0i8(i64 immarg, i8* nocapture) #4

; Function Attrs: minsize optsize sspstrong uwtable
define linkonce_odr dso_local void @_ZNSt6vectorISt4pairIllESaIS1_EEC2EmRKS2_(%"class.std::vector.5"* nonnull align 8 dereferenceable(24) %0, i64 %1, %"class.std::allocator.7"* nonnull align 1 dereferenceable(1) %2) unnamed_addr #5 comdat align 2 personality i8* bitcast (i32 (...)* @__gxx_personality_v0 to i8*) {
  %4 = getelementptr inbounds %"class.std::vector.5", %"class.std::vector.5"* %0, i64 0, i32 0
  %5 = tail call i64 @_ZNSt6vectorISt4pairIllESaIS1_EE17_S_check_init_lenEmRKS2_(i64 %1, %"class.std::allocator.7"* nonnull align 1 dereferenceable(1) %2) #20
  %6 = bitcast %"class.std::vector.5"* %0 to i8*
  tail call void @llvm.memset.p0i8.i64(i8* noundef nonnull align 8 dereferenceable(24) %6, i8 0, i64 24, i1 false) #19
  tail call void @_ZNSt12_Vector_baseISt4pairIllESaIS1_EE17_M_create_storageEm(%"struct.std::_Vector_base.6"* nonnull align 8 dereferenceable(24) %4, i64 %5) #20
  invoke void @_ZNSt6vectorISt4pairIllESaIS1_EE21_M_default_initializeEm(%"class.std::vector.5"* nonnull align 8 dereferenceable(24) %0, i64 %1) #20
          to label %7 unwind label %8

7:                                                ; preds = %3
  ret void

8:                                                ; preds = %3
  %9 = landingpad { i8*, i32 }
          cleanup
  tail call void @_ZNSt12_Vector_baseISt4pairIllESaIS1_EED2Ev(%"struct.std::_Vector_base.6"* nonnull align 8 dereferenceable(24) %4) #21
  resume { i8*, i32 } %9
}

; Function Attrs: minsize optsize sspstrong uwtable
define linkonce_odr dso_local void @_ZNSt6vectorI4EdgeSaIS0_EE12emplace_backIJRlS4_S4_EEEvDpOT_(%"class.std::vector.0"* nonnull align 8 dereferenceable(24) %0, i64* nonnull align 8 dereferenceable(8) %1, i64* nonnull align 8 dereferenceable(8) %2, i64* nonnull align 8 dereferenceable(8) %3) local_unnamed_addr #5 comdat align 2 {
  %5 = getelementptr inbounds %"class.std::vector.0", %"class.std::vector.0"* %0, i64 0, i32 0, i32 0, i32 0, i32 1
  %6 = load %struct.Edge*, %struct.Edge** %5, align 8, !tbaa !40
  %7 = getelementptr inbounds %"class.std::vector.0", %"class.std::vector.0"* %0, i64 0, i32 0, i32 0, i32 0, i32 2
  %8 = load %struct.Edge*, %struct.Edge** %7, align 8, !tbaa !42
  %9 = icmp eq %struct.Edge* %6, %8
  br i1 %9, label %19, label %10

10:                                               ; preds = %4
  %11 = load i64, i64* %1, align 8, !tbaa !5
  %12 = trunc i64 %11 to i32
  %13 = load i64, i64* %2, align 8, !tbaa !5
  %14 = load i64, i64* %3, align 8, !tbaa !5
  %15 = getelementptr inbounds %struct.Edge, %struct.Edge* %6, i64 0, i32 0
  store i32 %12, i32* %15, align 8, !tbaa !36
  %16 = getelementptr inbounds %struct.Edge, %struct.Edge* %6, i64 0, i32 1
  store i64 %13, i64* %16, align 8, !tbaa !34
  %17 = getelementptr inbounds %struct.Edge, %struct.Edge* %6, i64 0, i32 2
  store i64 %14, i64* %17, align 8, !tbaa !37
  %18 = getelementptr inbounds %struct.Edge, %struct.Edge* %6, i64 1
  store %struct.Edge* %18, %struct.Edge** %5, align 8, !tbaa !40
  br label %20

19:                                               ; preds = %4
  tail call void @_ZNSt6vectorI4EdgeSaIS0_EE17_M_realloc_insertIJRlS4_S4_EEEvN9__gnu_cxx17__normal_iteratorIPS0_S2_EEDpOT_(%"class.std::vector.0"* nonnull align 8 dereferenceable(24) %0, %struct.Edge* %6, i64* nonnull align 8 dereferenceable(8) %1, i64* nonnull align 8 dereferenceable(8) %2, i64* nonnull align 8 dereferenceable(8) %3) #20
  br label %20

20:                                               ; preds = %19, %10
  ret void
}

; Function Attrs: minsize optsize sspstrong uwtable
define linkonce_odr dso_local void @_ZNSt6vectorIlSaIlEEC2EmRKlRKS0_(%"class.std::vector.15"* nonnull align 8 dereferenceable(24) %0, i64 %1, i64* nonnull align 8 dereferenceable(8) %2, %"class.std::allocator.17"* nonnull align 1 dereferenceable(1) %3) unnamed_addr #5 comdat align 2 personality i8* bitcast (i32 (...)* @__gxx_personality_v0 to i8*) {
  %5 = getelementptr inbounds %"class.std::vector.15", %"class.std::vector.15"* %0, i64 0, i32 0
  %6 = tail call i64 @_ZNSt6vectorIlSaIlEE17_S_check_init_lenEmRKS0_(i64 %1, %"class.std::allocator.17"* nonnull align 1 dereferenceable(1) %3) #20
  %7 = bitcast %"class.std::vector.15"* %0 to i8*
  tail call void @llvm.memset.p0i8.i64(i8* noundef nonnull align 8 dereferenceable(24) %7, i8 0, i64 24, i1 false) #19
  tail call void @_ZNSt12_Vector_baseIlSaIlEE17_M_create_storageEm(%"struct.std::_Vector_base.16"* nonnull align 8 dereferenceable(24) %5, i64 %6) #20
  invoke void @_ZNSt6vectorIlSaIlEE18_M_fill_initializeEmRKl(%"class.std::vector.15"* nonnull align 8 dereferenceable(24) %0, i64 %1, i64* nonnull align 8 dereferenceable(8) %2) #20
          to label %8 unwind label %9

8:                                                ; preds = %4
  ret void

9:                                                ; preds = %4
  %10 = landingpad { i8*, i32 }
          cleanup
  tail call void @_ZNSt12_Vector_baseIlSaIlEED2Ev(%"struct.std::_Vector_base.16"* nonnull align 8 dereferenceable(24) %5) #21
  resume { i8*, i32 } %10
}

; Function Attrs: minsize optsize sspstrong uwtable
define linkonce_odr dso_local void @_ZNSt6vectorIS_IlSaIlEESaIS1_EEC2EmRKS1_RKS2_(%"class.std::vector.10"* nonnull align 8 dereferenceable(24) %0, i64 %1, %"class.std::vector.15"* nonnull align 8 dereferenceable(24) %2, %"class.std::allocator.12"* nonnull align 1 dereferenceable(1) %3) unnamed_addr #5 comdat align 2 personality i8* bitcast (i32 (...)* @__gxx_personality_v0 to i8*) {
  %5 = getelementptr inbounds %"class.std::vector.10", %"class.std::vector.10"* %0, i64 0, i32 0
  %6 = tail call i64 @_ZNSt6vectorIS_IlSaIlEESaIS1_EE17_S_check_init_lenEmRKS2_(i64 %1, %"class.std::allocator.12"* nonnull align 1 dereferenceable(1) %3) #20
  %7 = bitcast %"class.std::vector.10"* %0 to i8*
  tail call void @llvm.memset.p0i8.i64(i8* noundef nonnull align 8 dereferenceable(24) %7, i8 0, i64 24, i1 false) #19
  tail call void @_ZNSt12_Vector_baseISt6vectorIlSaIlEESaIS2_EE17_M_create_storageEm(%"struct.std::_Vector_base.11"* nonnull align 8 dereferenceable(24) %5, i64 %6) #20
  invoke void @_ZNSt6vectorIS_IlSaIlEESaIS1_EE18_M_fill_initializeEmRKS1_(%"class.std::vector.10"* nonnull align 8 dereferenceable(24) %0, i64 %1, %"class.std::vector.15"* nonnull align 8 dereferenceable(24) %2) #20
          to label %8 unwind label %9

8:                                                ; preds = %4
  ret void

9:                                                ; preds = %4
  %10 = landingpad { i8*, i32 }
          cleanup
  tail call void @_ZNSt12_Vector_baseISt6vectorIlSaIlEESaIS2_EED2Ev(%"struct.std::_Vector_base.11"* nonnull align 8 dereferenceable(24) %5) #21
  resume { i8*, i32 } %10
}

; Function Attrs: minsize optsize sspstrong uwtable
define linkonce_odr dso_local void @_ZNSt14priority_queueISt5tupleIJlliEESt6vectorIS1_SaIS1_EESt7greaterIS1_EE7emplaceIJiRliEEEvDpOT_(%"class.std::priority_queue"* nonnull align 8 dereferenceable(25) %0, i32* nonnull align 4 dereferenceable(4) %1, i64* nonnull align 8 dereferenceable(8) %2, i32* nonnull align 4 dereferenceable(4) %3) local_unnamed_addr #5 comdat align 2 {
  %5 = getelementptr inbounds %"class.std::priority_queue", %"class.std::priority_queue"* %0, i64 0, i32 0
  tail call void @_ZNSt6vectorISt5tupleIJlliEESaIS1_EE12emplace_backIJiRliEEEvDpOT_(%"class.std::vector.20"* nonnull align 8 dereferenceable(24) %5, i32* nonnull align 4 dereferenceable(4) %1, i64* nonnull align 8 dereferenceable(8) %2, i32* nonnull align 4 dereferenceable(4) %3) #20
  %6 = getelementptr inbounds %"class.std::priority_queue", %"class.std::priority_queue"* %0, i64 0, i32 0, i32 0, i32 0, i32 0, i32 0
  %7 = load %"class.std::tuple"*, %"class.std::tuple"** %6, align 8, !tbaa !26
  %8 = getelementptr inbounds %"class.std::priority_queue", %"class.std::priority_queue"* %0, i64 0, i32 0, i32 0, i32 0, i32 0, i32 1
  %9 = load %"class.std::tuple"*, %"class.std::tuple"** %8, align 8, !tbaa !26
  tail call void @_ZSt9push_heapIN9__gnu_cxx17__normal_iteratorIPSt5tupleIJlliEESt6vectorIS3_SaIS3_EEEESt7greaterIS3_EEvT_SB_T0_(%"class.std::tuple"* %7, %"class.std::tuple"* %9) #20
  ret void
}

; Function Attrs: minsize mustprogress nounwind optsize sspstrong uwtable
define linkonce_odr dso_local nonnull align 8 dereferenceable(24) %"class.std::tuple.29"* @_ZNSt5tupleIJRlS0_RiEEaSIJlliEEENSt9enable_ifIXcl12__assignableIDpRKT_EEERS2_E4typeERKS_IJDpS5_EE(%"class.std::tuple.29"* nonnull align 8 dereferenceable(24) %0, %"class.std::tuple"* nonnull align 8 dereferenceable(24) %1) local_unnamed_addr #6 comdat align 2 personality i8* bitcast (i32 (...)* @__gxx_personality_v0 to i8*) {
  %3 = getelementptr inbounds %"class.std::tuple.29", %"class.std::tuple.29"* %0, i64 0, i32 0
  %4 = getelementptr inbounds %"class.std::tuple", %"class.std::tuple"* %1, i64 0, i32 0
  invoke void @_ZNSt11_Tuple_implILm0EJRlS0_RiEE9_M_assignIJlliEEEvRKS_ILm0EJDpT_EE(%"struct.std::_Tuple_impl.30"* nonnull align 8 dereferenceable(24) %3, %"struct.std::_Tuple_impl"* nonnull align 8 dereferenceable(24) %4) #20
          to label %5 unwind label %6

5:                                                ; preds = %2
  ret %"class.std::tuple.29"* %0

6:                                                ; preds = %2
  %7 = landingpad { i8*, i32 }
          catch i8* null
  %8 = extractvalue { i8*, i32 } %7, 0
  tail call void @__clang_call_terminate(i8* %8) #22
  unreachable
}

; Function Attrs: minsize optsize sspstrong uwtable
define linkonce_odr dso_local void @_ZNSt14priority_queueISt5tupleIJlliEESt6vectorIS1_SaIS1_EESt7greaterIS1_EE3popEv(%"class.std::priority_queue"* nonnull align 8 dereferenceable(25) %0) local_unnamed_addr #5 comdat align 2 {
  %2 = getelementptr inbounds %"class.std::priority_queue", %"class.std::priority_queue"* %0, i64 0, i32 0, i32 0, i32 0, i32 0, i32 0
  %3 = load %"class.std::tuple"*, %"class.std::tuple"** %2, align 8, !tbaa !26
  %4 = getelementptr inbounds %"class.std::priority_queue", %"class.std::priority_queue"* %0, i64 0, i32 0, i32 0, i32 0, i32 0, i32 1
  %5 = load %"class.std::tuple"*, %"class.std::tuple"** %4, align 8, !tbaa !26
  tail call void @_ZSt8pop_heapIN9__gnu_cxx17__normal_iteratorIPSt5tupleIJlliEESt6vectorIS3_SaIS3_EEEESt7greaterIS3_EEvT_SB_T0_(%"class.std::tuple"* %3, %"class.std::tuple"* %5) #20
  %6 = load %"class.std::tuple"*, %"class.std::tuple"** %4, align 8, !tbaa !23
  %7 = getelementptr inbounds %"class.std::tuple", %"class.std::tuple"* %6, i64 -1
  store %"class.std::tuple"* %7, %"class.std::tuple"** %4, align 8, !tbaa !23
  ret void
}

; Function Attrs: argmemonly mustprogress nofree nounwind willreturn
declare void @llvm.memcpy.p0i8.p0i8.i64(i8* noalias nocapture writeonly, i8* noalias nocapture readonly, i64, i1 immarg) #7

; Function Attrs: minsize optsize sspstrong uwtable
define linkonce_odr dso_local void @_ZNSt14priority_queueISt5tupleIJlliEESt6vectorIS1_SaIS1_EESt7greaterIS1_EE7emplaceIJRllRiEEEvDpOT_(%"class.std::priority_queue"* nonnull align 8 dereferenceable(25) %0, i64* nonnull align 8 dereferenceable(8) %1, i64* nonnull align 8 dereferenceable(8) %2, i32* nonnull align 4 dereferenceable(4) %3) local_unnamed_addr #5 comdat align 2 {
  %5 = getelementptr inbounds %"class.std::priority_queue", %"class.std::priority_queue"* %0, i64 0, i32 0
  tail call void @_ZNSt6vectorISt5tupleIJlliEESaIS1_EE12emplace_backIJRllRiEEEvDpOT_(%"class.std::vector.20"* nonnull align 8 dereferenceable(24) %5, i64* nonnull align 8 dereferenceable(8) %1, i64* nonnull align 8 dereferenceable(8) %2, i32* nonnull align 4 dereferenceable(4) %3) #20
  %6 = getelementptr inbounds %"class.std::priority_queue", %"class.std::priority_queue"* %0, i64 0, i32 0, i32 0, i32 0, i32 0, i32 0
  %7 = load %"class.std::tuple"*, %"class.std::tuple"** %6, align 8, !tbaa !26
  %8 = getelementptr inbounds %"class.std::priority_queue", %"class.std::priority_queue"* %0, i64 0, i32 0, i32 0, i32 0, i32 0, i32 1
  %9 = load %"class.std::tuple"*, %"class.std::tuple"** %8, align 8, !tbaa !26
  tail call void @_ZSt9push_heapIN9__gnu_cxx17__normal_iteratorIPSt5tupleIJlliEESt6vectorIS3_SaIS3_EEEESt7greaterIS3_EEvT_SB_T0_(%"class.std::tuple"* %7, %"class.std::tuple"* %9) #20
  ret void
}

; Function Attrs: inlinehint minsize mustprogress optsize sspstrong uwtable
declare nonnull align 8 dereferenceable(8) %"class.std::basic_ostream"* @_ZStlsISt11char_traitsIcEERSt13basic_ostreamIcT_ES5_c(%"class.std::basic_ostream"* nonnull align 8 dereferenceable(8), i8 signext) local_unnamed_addr #8

; Function Attrs: minsize nounwind optsize sspstrong uwtable
define linkonce_odr dso_local void @_ZNSt6vectorIS_IlSaIlEESaIS1_EED2Ev(%"class.std::vector.10"* nonnull align 8 dereferenceable(24) %0) unnamed_addr #9 comdat align 2 personality i8* bitcast (i32 (...)* @__gxx_personality_v0 to i8*) {
  %2 = getelementptr inbounds %"class.std::vector.10", %"class.std::vector.10"* %0, i64 0, i32 0
  %3 = getelementptr inbounds %"class.std::vector.10", %"class.std::vector.10"* %0, i64 0, i32 0, i32 0, i32 0, i32 0
  %4 = load %"class.std::vector.15"*, %"class.std::vector.15"** %3, align 8, !tbaa !17
  %5 = getelementptr inbounds %"class.std::vector.10", %"class.std::vector.10"* %0, i64 0, i32 0, i32 0, i32 0, i32 1
  %6 = load %"class.std::vector.15"*, %"class.std::vector.15"** %5, align 8, !tbaa !43
  invoke void @_ZNSt12_Destroy_auxILb0EE9__destroyIPSt6vectorIlSaIlEEEEvT_S6_(%"class.std::vector.15"* %4, %"class.std::vector.15"* %6) #20
          to label %7 unwind label %8

7:                                                ; preds = %1
  tail call void @_ZNSt12_Vector_baseISt6vectorIlSaIlEESaIS2_EED2Ev(%"struct.std::_Vector_base.11"* nonnull align 8 dereferenceable(24) %2) #21
  ret void

8:                                                ; preds = %1
  %9 = landingpad { i8*, i32 }
          catch i8* null
  %10 = extractvalue { i8*, i32 } %9, 0
  tail call void @_ZNSt12_Vector_baseISt6vectorIlSaIlEESaIS2_EED2Ev(%"struct.std::_Vector_base.11"* nonnull align 8 dereferenceable(24) %2) #21
  tail call void @__clang_call_terminate(i8* %10) #22
  unreachable
}

; Function Attrs: minsize nounwind optsize sspstrong uwtable
define linkonce_odr dso_local void @_ZNSt6vectorIS_I4EdgeSaIS0_EESaIS2_EED2Ev(%"class.std::vector"* nonnull align 8 dereferenceable(24) %0) unnamed_addr #9 comdat align 2 personality i8* bitcast (i32 (...)* @__gxx_personality_v0 to i8*) {
  %2 = getelementptr inbounds %"class.std::vector", %"class.std::vector"* %0, i64 0, i32 0
  %3 = getelementptr inbounds %"class.std::vector", %"class.std::vector"* %0, i64 0, i32 0, i32 0, i32 0, i32 0
  %4 = load %"class.std::vector.0"*, %"class.std::vector.0"** %3, align 8, !tbaa !9
  %5 = getelementptr inbounds %"class.std::vector", %"class.std::vector"* %0, i64 0, i32 0, i32 0, i32 0, i32 1
  %6 = load %"class.std::vector.0"*, %"class.std::vector.0"** %5, align 8, !tbaa !44
  invoke void @_ZNSt12_Destroy_auxILb0EE9__destroyIPSt6vectorI4EdgeSaIS3_EEEEvT_S7_(%"class.std::vector.0"* %4, %"class.std::vector.0"* %6) #20
          to label %7 unwind label %8

7:                                                ; preds = %1
  tail call void @_ZNSt12_Vector_baseISt6vectorI4EdgeSaIS1_EESaIS3_EED2Ev(%"struct.std::_Vector_base"* nonnull align 8 dereferenceable(24) %2) #21
  ret void

8:                                                ; preds = %1
  %9 = landingpad { i8*, i32 }
          catch i8* null
  %10 = extractvalue { i8*, i32 } %9, 0
  tail call void @_ZNSt12_Vector_baseISt6vectorI4EdgeSaIS1_EESaIS3_EED2Ev(%"struct.std::_Vector_base"* nonnull align 8 dereferenceable(24) %2) #21
  tail call void @__clang_call_terminate(i8* %10) #22
  unreachable
}

; Function Attrs: noinline noreturn nounwind
define linkonce_odr hidden void @__clang_call_terminate(i8* %0) local_unnamed_addr #10 comdat {
  %2 = tail call i8* @__cxa_begin_catch(i8* %0) #19
  tail call void @_ZSt9terminatev() #22
  unreachable
}

declare i8* @__cxa_begin_catch(i8*) local_unnamed_addr

declare void @_ZSt9terminatev() local_unnamed_addr

; Function Attrs: minsize mustprogress optsize sspstrong uwtable
define linkonce_odr dso_local i64* @_ZSt13__min_elementIN9__gnu_cxx17__normal_iteratorIPlSt6vectorIlSaIlEEEENS0_5__ops15_Iter_less_iterEET_S9_S9_T0_(i64* %0, i64* %1) local_unnamed_addr #11 comdat {
  %3 = icmp eq i64* %0, %1
  br i1 %3, label %14, label %4

4:                                                ; preds = %2, %9
  %5 = phi i64* [ %7, %9 ], [ %0, %2 ]
  %6 = phi i64* [ %13, %9 ], [ %0, %2 ]
  %7 = getelementptr inbounds i64, i64* %5, i64 1
  %8 = icmp eq i64* %7, %1
  br i1 %8, label %14, label %9

9:                                                ; preds = %4
  %10 = load i64, i64* %7, align 8, !tbaa !5
  %11 = load i64, i64* %6, align 8, !tbaa !5
  %12 = icmp slt i64 %10, %11
  %13 = select i1 %12, i64* %7, i64* %6
  br label %4, !llvm.loop !45

14:                                               ; preds = %4, %2
  %15 = phi i64* [ %0, %2 ], [ %6, %4 ]
  ret i64* %15
}

; Function Attrs: minsize nounwind optsize sspstrong uwtable
define linkonce_odr dso_local void @_ZNSt12_Vector_baseISt5tupleIJlliEESaIS1_EED2Ev(%"struct.std::_Vector_base.21"* nonnull align 8 dereferenceable(24) %0) unnamed_addr #9 comdat align 2 personality i8* bitcast (i32 (...)* @__gxx_personality_v0 to i8*) {
  %2 = getelementptr inbounds %"struct.std::_Vector_base.21", %"struct.std::_Vector_base.21"* %0, i64 0, i32 0, i32 0, i32 0
  %3 = load %"class.std::tuple"*, %"class.std::tuple"** %2, align 8, !tbaa !25
  %4 = icmp eq %"class.std::tuple"* %3, null
  br i1 %4, label %7, label %5

5:                                                ; preds = %1
  %6 = bitcast %"class.std::tuple"* %3 to i8*
  tail call void @_ZdlPv(i8* nonnull %6) #21
  br label %7

7:                                                ; preds = %5, %1
  ret void
}

; Function Attrs: minsize nobuiltin nounwind optsize
declare void @_ZdlPv(i8*) local_unnamed_addr #12

; Function Attrs: minsize optsize
declare nonnull align 8 dereferenceable(16) %"class.std::basic_istream"* @_ZNSi10_M_extractIlEERSiRT_(%"class.std::basic_istream"* nonnull align 8 dereferenceable(16), i64* nonnull align 8 dereferenceable(8)) local_unnamed_addr #0

; Function Attrs: minsize optsize sspstrong uwtable
define linkonce_odr dso_local i64 @_ZNSt6vectorIS_I4EdgeSaIS0_EESaIS2_EE17_S_check_init_lenEmRKS3_(i64 %0, %"class.std::allocator"* nonnull align 1 dereferenceable(1) %1) local_unnamed_addr #5 comdat align 2 personality i32 (...)* @__gxx_personality_v0 {
  %3 = icmp ugt i64 %0, 384307168202282325
  br i1 %3, label %4, label %5

4:                                                ; preds = %2
  tail call void @_ZSt20__throw_length_errorPKc(i8* getelementptr inbounds ([49 x i8], [49 x i8]* @.str, i64 0, i64 0)) #23
  unreachable

5:                                                ; preds = %2
  ret i64 %0
}

; Function Attrs: minsize mustprogress optsize sspstrong uwtable
define linkonce_odr dso_local void @_ZNSt6vectorIS_I4EdgeSaIS0_EESaIS2_EE21_M_default_initializeEm(%"class.std::vector"* nonnull align 8 dereferenceable(24) %0, i64 %1) local_unnamed_addr #11 comdat align 2 {
  %3 = getelementptr inbounds %"class.std::vector", %"class.std::vector"* %0, i64 0, i32 0, i32 0, i32 0, i32 0
  %4 = load %"class.std::vector.0"*, %"class.std::vector.0"** %3, align 8, !tbaa !9
  %5 = tail call %"class.std::vector.0"* @_ZNSt27__uninitialized_default_n_1ILb0EE18__uninit_default_nIPSt6vectorI4EdgeSaIS3_EEmEET_S7_T0_(%"class.std::vector.0"* %4, i64 %1) #20
  %6 = getelementptr inbounds %"class.std::vector", %"class.std::vector"* %0, i64 0, i32 0, i32 0, i32 0, i32 1
  store %"class.std::vector.0"* %5, %"class.std::vector.0"** %6, align 8, !tbaa !44
  ret void
}

; Function Attrs: minsize nounwind optsize sspstrong uwtable
define linkonce_odr dso_local void @_ZNSt12_Vector_baseISt6vectorI4EdgeSaIS1_EESaIS3_EED2Ev(%"struct.std::_Vector_base"* nonnull align 8 dereferenceable(24) %0) unnamed_addr #9 comdat align 2 personality i8* bitcast (i32 (...)* @__gxx_personality_v0 to i8*) {
  %2 = getelementptr inbounds %"struct.std::_Vector_base", %"struct.std::_Vector_base"* %0, i64 0, i32 0, i32 0, i32 0
  %3 = load %"class.std::vector.0"*, %"class.std::vector.0"** %2, align 8, !tbaa !9
  %4 = icmp eq %"class.std::vector.0"* %3, null
  br i1 %4, label %7, label %5

5:                                                ; preds = %1
  %6 = bitcast %"class.std::vector.0"* %3 to i8*
  tail call void @_ZdlPv(i8* nonnull %6) #21
  br label %7

7:                                                ; preds = %5, %1
  ret void
}

; Function Attrs: minsize noreturn optsize
declare void @_ZSt20__throw_length_errorPKc(i8*) local_unnamed_addr #13

; Function Attrs: minsize mustprogress optsize sspstrong uwtable
define linkonce_odr dso_local void @_ZNSt12_Vector_baseISt6vectorI4EdgeSaIS1_EESaIS3_EE17_M_create_storageEm(%"struct.std::_Vector_base"* nonnull align 8 dereferenceable(24) %0, i64 %1) local_unnamed_addr #11 comdat align 2 {
  %3 = tail call %"class.std::vector.0"* @_ZNSt12_Vector_baseISt6vectorI4EdgeSaIS1_EESaIS3_EE11_M_allocateEm(%"struct.std::_Vector_base"* nonnull align 8 dereferenceable(24) %0, i64 %1) #20
  %4 = getelementptr inbounds %"struct.std::_Vector_base", %"struct.std::_Vector_base"* %0, i64 0, i32 0, i32 0, i32 0
  store %"class.std::vector.0"* %3, %"class.std::vector.0"** %4, align 8, !tbaa !9
  %5 = getelementptr inbounds %"struct.std::_Vector_base", %"struct.std::_Vector_base"* %0, i64 0, i32 0, i32 0, i32 1
  store %"class.std::vector.0"* %3, %"class.std::vector.0"** %5, align 8, !tbaa !44
  %6 = getelementptr inbounds %"class.std::vector.0", %"class.std::vector.0"* %3, i64 %1
  %7 = getelementptr inbounds %"struct.std::_Vector_base", %"struct.std::_Vector_base"* %0, i64 0, i32 0, i32 0, i32 2
  store %"class.std::vector.0"* %6, %"class.std::vector.0"** %7, align 8, !tbaa !46
  ret void
}

; Function Attrs: minsize mustprogress optsize sspstrong uwtable
define linkonce_odr dso_local %"class.std::vector.0"* @_ZNSt12_Vector_baseISt6vectorI4EdgeSaIS1_EESaIS3_EE11_M_allocateEm(%"struct.std::_Vector_base"* nonnull align 8 dereferenceable(24) %0, i64 %1) local_unnamed_addr #11 comdat align 2 {
  %3 = icmp eq i64 %1, 0
  br i1 %3, label %7, label %4

4:                                                ; preds = %2
  %5 = bitcast %"struct.std::_Vector_base"* %0 to %"class.std::allocator"*
  %6 = tail call %"class.std::vector.0"* @_ZNSt16allocator_traitsISaISt6vectorI4EdgeSaIS1_EEEE8allocateERS4_m(%"class.std::allocator"* nonnull align 1 dereferenceable(1) %5, i64 %1) #20
  br label %7

7:                                                ; preds = %2, %4
  %8 = phi %"class.std::vector.0"* [ %6, %4 ], [ null, %2 ]
  ret %"class.std::vector.0"* %8
}

; Function Attrs: minsize mustprogress optsize sspstrong uwtable
define linkonce_odr dso_local %"class.std::vector.0"* @_ZNSt16allocator_traitsISaISt6vectorI4EdgeSaIS1_EEEE8allocateERS4_m(%"class.std::allocator"* nonnull align 1 dereferenceable(1) %0, i64 %1) local_unnamed_addr #11 comdat align 2 {
  %3 = bitcast %"class.std::allocator"* %0 to %"class.__gnu_cxx::new_allocator"*
  %4 = tail call %"class.std::vector.0"* @_ZN9__gnu_cxx13new_allocatorISt6vectorI4EdgeSaIS2_EEE8allocateEmPKv(%"class.__gnu_cxx::new_allocator"* nonnull align 1 dereferenceable(1) %3, i64 %1, i8* null) #20
  ret %"class.std::vector.0"* %4
}

; Function Attrs: minsize mustprogress optsize sspstrong uwtable
define linkonce_odr dso_local %"class.std::vector.0"* @_ZN9__gnu_cxx13new_allocatorISt6vectorI4EdgeSaIS2_EEE8allocateEmPKv(%"class.__gnu_cxx::new_allocator"* nonnull align 1 dereferenceable(1) %0, i64 %1, i8* %2) local_unnamed_addr #11 comdat align 2 {
  %4 = icmp ugt i64 %1, 384307168202282325
  br i1 %4, label %5, label %9, !prof !47

5:                                                ; preds = %3
  %6 = icmp ugt i64 %1, 768614336404564650
  br i1 %6, label %7, label %8

7:                                                ; preds = %5
  tail call void @_ZSt28__throw_bad_array_new_lengthv() #23
  unreachable

8:                                                ; preds = %5
  tail call void @_ZSt17__throw_bad_allocv() #23
  unreachable

9:                                                ; preds = %3
  %10 = mul nuw nsw i64 %1, 24
  %11 = tail call noalias nonnull i8* @_Znwm(i64 %10) #24
  %12 = bitcast i8* %11 to %"class.std::vector.0"*
  ret %"class.std::vector.0"* %12
}

; Function Attrs: minsize noreturn optsize
declare void @_ZSt28__throw_bad_array_new_lengthv() local_unnamed_addr #13

; Function Attrs: minsize noreturn optsize
declare void @_ZSt17__throw_bad_allocv() local_unnamed_addr #13

; Function Attrs: minsize nobuiltin optsize allocsize(0)
declare nonnull i8* @_Znwm(i64) local_unnamed_addr #14

; Function Attrs: minsize optsize sspstrong uwtable
define linkonce_odr dso_local %"class.std::vector.0"* @_ZNSt27__uninitialized_default_n_1ILb0EE18__uninit_default_nIPSt6vectorI4EdgeSaIS3_EEmEET_S7_T0_(%"class.std::vector.0"* %0, i64 %1) local_unnamed_addr #5 comdat align 2 personality i8* bitcast (i32 (...)* @__gxx_personality_v0 to i8*) {
  br label %3

3:                                                ; preds = %7, %2
  %4 = phi i64 [ %1, %2 ], [ %9, %7 ]
  %5 = phi %"class.std::vector.0"* [ %0, %2 ], [ %10, %7 ]
  %6 = icmp eq i64 %4, 0
  br i1 %6, label %11, label %7

7:                                                ; preds = %3
  %8 = bitcast %"class.std::vector.0"* %5 to i8*
  tail call void @llvm.memset.p0i8.i64(i8* noundef nonnull align 8 dereferenceable(24) %8, i8 0, i64 24, i1 false) #19
  %9 = add i64 %4, -1
  %10 = getelementptr inbounds %"class.std::vector.0", %"class.std::vector.0"* %5, i64 1
  br label %3, !llvm.loop !48

11:                                               ; preds = %3
  ret %"class.std::vector.0"* %5
}

declare void @__cxa_rethrow() local_unnamed_addr

declare void @__cxa_end_catch() local_unnamed_addr

; Function Attrs: argmemonly mustprogress nofree nounwind willreturn writeonly
declare void @llvm.memset.p0i8.i64(i8* nocapture writeonly, i8, i64, i1 immarg) #15

; Function Attrs: minsize optsize sspstrong uwtable
define linkonce_odr dso_local void @_ZNSt12_Destroy_auxILb0EE9__destroyIPSt6vectorI4EdgeSaIS3_EEEEvT_S7_(%"class.std::vector.0"* %0, %"class.std::vector.0"* %1) local_unnamed_addr #5 comdat align 2 personality i32 (...)* @__gxx_personality_v0 {
  br label %3

3:                                                ; preds = %6, %2
  %4 = phi %"class.std::vector.0"* [ %0, %2 ], [ %8, %6 ]
  %5 = icmp eq %"class.std::vector.0"* %4, %1
  br i1 %5, label %9, label %6

6:                                                ; preds = %3
  %7 = getelementptr inbounds %"class.std::vector.0", %"class.std::vector.0"* %4, i64 0, i32 0
  tail call void @_ZNSt12_Vector_baseI4EdgeSaIS0_EED2Ev(%"struct.std::_Vector_base.1"* nonnull align 8 dereferenceable(24) %7) #21
  %8 = getelementptr inbounds %"class.std::vector.0", %"class.std::vector.0"* %4, i64 1
  br label %3, !llvm.loop !49

9:                                                ; preds = %3
  ret void
}

; Function Attrs: minsize nounwind optsize sspstrong uwtable
define linkonce_odr dso_local void @_ZNSt12_Vector_baseI4EdgeSaIS0_EED2Ev(%"struct.std::_Vector_base.1"* nonnull align 8 dereferenceable(24) %0) unnamed_addr #9 comdat align 2 personality i8* bitcast (i32 (...)* @__gxx_personality_v0 to i8*) {
  %2 = getelementptr inbounds %"struct.std::_Vector_base.1", %"struct.std::_Vector_base.1"* %0, i64 0, i32 0, i32 0, i32 0
  %3 = load %struct.Edge*, %struct.Edge** %2, align 8, !tbaa !50
  %4 = icmp eq %struct.Edge* %3, null
  br i1 %4, label %7, label %5

5:                                                ; preds = %1
  %6 = bitcast %struct.Edge* %3 to i8*
  tail call void @_ZdlPv(i8* nonnull %6) #21
  br label %7

7:                                                ; preds = %5, %1
  ret void
}

; Function Attrs: minsize optsize sspstrong uwtable
define linkonce_odr dso_local i64 @_ZNSt6vectorISt4pairIllESaIS1_EE17_S_check_init_lenEmRKS2_(i64 %0, %"class.std::allocator.7"* nonnull align 1 dereferenceable(1) %1) local_unnamed_addr #5 comdat align 2 {
  %3 = icmp ugt i64 %0, 576460752303423487
  br i1 %3, label %4, label %5

4:                                                ; preds = %2
  tail call void @_ZSt20__throw_length_errorPKc(i8* getelementptr inbounds ([49 x i8], [49 x i8]* @.str, i64 0, i64 0)) #23
  unreachable

5:                                                ; preds = %2
  ret i64 %0
}

; Function Attrs: minsize mustprogress optsize sspstrong uwtable
define linkonce_odr dso_local void @_ZNSt6vectorISt4pairIllESaIS1_EE21_M_default_initializeEm(%"class.std::vector.5"* nonnull align 8 dereferenceable(24) %0, i64 %1) local_unnamed_addr #11 comdat align 2 {
  %3 = getelementptr inbounds %"class.std::vector.5", %"class.std::vector.5"* %0, i64 0, i32 0, i32 0, i32 0, i32 0
  %4 = load %"struct.std::pair"*, %"struct.std::pair"** %3, align 8, !tbaa !14
  %5 = tail call %"struct.std::pair"* @_ZNSt27__uninitialized_default_n_1ILb0EE18__uninit_default_nIPSt4pairIllEmEET_S5_T0_(%"struct.std::pair"* %4, i64 %1) #20
  %6 = getelementptr inbounds %"class.std::vector.5", %"class.std::vector.5"* %0, i64 0, i32 0, i32 0, i32 0, i32 1
  store %"struct.std::pair"* %5, %"struct.std::pair"** %6, align 8, !tbaa !51
  ret void
}

; Function Attrs: minsize nounwind optsize sspstrong uwtable
define linkonce_odr dso_local void @_ZNSt12_Vector_baseISt4pairIllESaIS1_EED2Ev(%"struct.std::_Vector_base.6"* nonnull align 8 dereferenceable(24) %0) unnamed_addr #9 comdat align 2 personality i8* bitcast (i32 (...)* @__gxx_personality_v0 to i8*) {
  %2 = getelementptr inbounds %"struct.std::_Vector_base.6", %"struct.std::_Vector_base.6"* %0, i64 0, i32 0, i32 0, i32 0
  %3 = load %"struct.std::pair"*, %"struct.std::pair"** %2, align 8, !tbaa !14
  %4 = icmp eq %"struct.std::pair"* %3, null
  br i1 %4, label %7, label %5

5:                                                ; preds = %1
  %6 = bitcast %"struct.std::pair"* %3 to i8*
  tail call void @_ZdlPv(i8* nonnull %6) #21
  br label %7

7:                                                ; preds = %5, %1
  ret void
}

; Function Attrs: minsize mustprogress optsize sspstrong uwtable
define linkonce_odr dso_local void @_ZNSt12_Vector_baseISt4pairIllESaIS1_EE17_M_create_storageEm(%"struct.std::_Vector_base.6"* nonnull align 8 dereferenceable(24) %0, i64 %1) local_unnamed_addr #11 comdat align 2 {
  %3 = tail call %"struct.std::pair"* @_ZNSt12_Vector_baseISt4pairIllESaIS1_EE11_M_allocateEm(%"struct.std::_Vector_base.6"* nonnull align 8 dereferenceable(24) %0, i64 %1) #20
  %4 = getelementptr inbounds %"struct.std::_Vector_base.6", %"struct.std::_Vector_base.6"* %0, i64 0, i32 0, i32 0, i32 0
  store %"struct.std::pair"* %3, %"struct.std::pair"** %4, align 8, !tbaa !14
  %5 = getelementptr inbounds %"struct.std::_Vector_base.6", %"struct.std::_Vector_base.6"* %0, i64 0, i32 0, i32 0, i32 1
  store %"struct.std::pair"* %3, %"struct.std::pair"** %5, align 8, !tbaa !51
  %6 = getelementptr inbounds %"struct.std::pair", %"struct.std::pair"* %3, i64 %1
  %7 = getelementptr inbounds %"struct.std::_Vector_base.6", %"struct.std::_Vector_base.6"* %0, i64 0, i32 0, i32 0, i32 2
  store %"struct.std::pair"* %6, %"struct.std::pair"** %7, align 8, !tbaa !52
  ret void
}

; Function Attrs: minsize mustprogress optsize sspstrong uwtable
define linkonce_odr dso_local %"struct.std::pair"* @_ZNSt12_Vector_baseISt4pairIllESaIS1_EE11_M_allocateEm(%"struct.std::_Vector_base.6"* nonnull align 8 dereferenceable(24) %0, i64 %1) local_unnamed_addr #11 comdat align 2 {
  %3 = icmp eq i64 %1, 0
  br i1 %3, label %7, label %4

4:                                                ; preds = %2
  %5 = bitcast %"struct.std::_Vector_base.6"* %0 to %"class.std::allocator.7"*
  %6 = tail call %"struct.std::pair"* @_ZNSt16allocator_traitsISaISt4pairIllEEE8allocateERS2_m(%"class.std::allocator.7"* nonnull align 1 dereferenceable(1) %5, i64 %1) #20
  br label %7

7:                                                ; preds = %2, %4
  %8 = phi %"struct.std::pair"* [ %6, %4 ], [ null, %2 ]
  ret %"struct.std::pair"* %8
}

; Function Attrs: minsize mustprogress optsize sspstrong uwtable
define linkonce_odr dso_local %"struct.std::pair"* @_ZNSt16allocator_traitsISaISt4pairIllEEE8allocateERS2_m(%"class.std::allocator.7"* nonnull align 1 dereferenceable(1) %0, i64 %1) local_unnamed_addr #11 comdat align 2 {
  %3 = bitcast %"class.std::allocator.7"* %0 to %"class.__gnu_cxx::new_allocator.8"*
  %4 = tail call %"struct.std::pair"* @_ZN9__gnu_cxx13new_allocatorISt4pairIllEE8allocateEmPKv(%"class.__gnu_cxx::new_allocator.8"* nonnull align 1 dereferenceable(1) %3, i64 %1, i8* null) #20
  ret %"struct.std::pair"* %4
}

; Function Attrs: minsize mustprogress optsize sspstrong uwtable
define linkonce_odr dso_local %"struct.std::pair"* @_ZN9__gnu_cxx13new_allocatorISt4pairIllEE8allocateEmPKv(%"class.__gnu_cxx::new_allocator.8"* nonnull align 1 dereferenceable(1) %0, i64 %1, i8* %2) local_unnamed_addr #11 comdat align 2 {
  %4 = icmp ugt i64 %1, 576460752303423487
  br i1 %4, label %5, label %9, !prof !47

5:                                                ; preds = %3
  %6 = icmp ugt i64 %1, 1152921504606846975
  br i1 %6, label %7, label %8

7:                                                ; preds = %5
  tail call void @_ZSt28__throw_bad_array_new_lengthv() #23
  unreachable

8:                                                ; preds = %5
  tail call void @_ZSt17__throw_bad_allocv() #23
  unreachable

9:                                                ; preds = %3
  %10 = shl nuw nsw i64 %1, 4
  %11 = tail call noalias nonnull i8* @_Znwm(i64 %10) #24
  %12 = bitcast i8* %11 to %"struct.std::pair"*
  ret %"struct.std::pair"* %12
}

; Function Attrs: minsize optsize sspstrong uwtable
define linkonce_odr dso_local %"struct.std::pair"* @_ZNSt27__uninitialized_default_n_1ILb0EE18__uninit_default_nIPSt4pairIllEmEET_S5_T0_(%"struct.std::pair"* %0, i64 %1) local_unnamed_addr #5 comdat align 2 personality i8* bitcast (i32 (...)* @__gxx_personality_v0 to i8*) {
  br label %3

3:                                                ; preds = %7, %2
  %4 = phi i64 [ %1, %2 ], [ %9, %7 ]
  %5 = phi %"struct.std::pair"* [ %0, %2 ], [ %10, %7 ]
  %6 = icmp eq i64 %4, 0
  br i1 %6, label %11, label %7

7:                                                ; preds = %3
  %8 = bitcast %"struct.std::pair"* %5 to i8*
  tail call void @llvm.memset.p0i8.i64(i8* noundef nonnull align 8 dereferenceable(16) %8, i8 0, i64 16, i1 false) #19
  %9 = add i64 %4, -1
  %10 = getelementptr inbounds %"struct.std::pair", %"struct.std::pair"* %5, i64 1
  br label %3, !llvm.loop !53

11:                                               ; preds = %3
  ret %"struct.std::pair"* %5
}

; Function Attrs: minsize optsize sspstrong uwtable
define linkonce_odr dso_local void @_ZNSt6vectorI4EdgeSaIS0_EE17_M_realloc_insertIJRlS4_S4_EEEvN9__gnu_cxx17__normal_iteratorIPS0_S2_EEDpOT_(%"class.std::vector.0"* nonnull align 8 dereferenceable(24) %0, %struct.Edge* %1, i64* nonnull align 8 dereferenceable(8) %2, i64* nonnull align 8 dereferenceable(8) %3, i64* nonnull align 8 dereferenceable(8) %4) local_unnamed_addr #5 comdat align 2 personality i8* bitcast (i32 (...)* @__gxx_personality_v0 to i8*) {
  %6 = tail call i64 @_ZNKSt6vectorI4EdgeSaIS0_EE12_M_check_lenEmPKc(%"class.std::vector.0"* nonnull align 8 dereferenceable(24) %0, i64 1, i8* getelementptr inbounds ([26 x i8], [26 x i8]* @.str.1, i64 0, i64 0)) #20
  %7 = getelementptr inbounds %"class.std::vector.0", %"class.std::vector.0"* %0, i64 0, i32 0
  %8 = getelementptr inbounds %"class.std::vector.0", %"class.std::vector.0"* %0, i64 0, i32 0, i32 0, i32 0, i32 0
  %9 = load %struct.Edge*, %struct.Edge** %8, align 8, !tbaa !50
  %10 = getelementptr inbounds %"class.std::vector.0", %"class.std::vector.0"* %0, i64 0, i32 0, i32 0, i32 0, i32 1
  %11 = load %struct.Edge*, %struct.Edge** %10, align 8, !tbaa !40
  %12 = ptrtoint %struct.Edge* %1 to i64
  %13 = ptrtoint %struct.Edge* %9 to i64
  %14 = sub i64 %12, %13
  %15 = sdiv exact i64 %14, 24
  %16 = tail call %struct.Edge* @_ZNSt12_Vector_baseI4EdgeSaIS0_EE11_M_allocateEm(%"struct.std::_Vector_base.1"* nonnull align 8 dereferenceable(24) %7, i64 %6) #20
  %17 = load i64, i64* %2, align 8, !tbaa !5
  %18 = trunc i64 %17 to i32
  %19 = load i64, i64* %3, align 8, !tbaa !5
  %20 = load i64, i64* %4, align 8, !tbaa !5
  %21 = getelementptr inbounds %struct.Edge, %struct.Edge* %16, i64 %15, i32 0
  store i32 %18, i32* %21, align 8, !tbaa !36
  %22 = getelementptr inbounds %struct.Edge, %struct.Edge* %16, i64 %15, i32 1
  store i64 %19, i64* %22, align 8, !tbaa !34
  %23 = getelementptr inbounds %struct.Edge, %struct.Edge* %16, i64 %15, i32 2
  store i64 %20, i64* %23, align 8, !tbaa !37
  br label %24

24:                                               ; preds = %28, %5
  %25 = phi %struct.Edge* [ %9, %5 ], [ %31, %28 ]
  %26 = phi %struct.Edge* [ %16, %5 ], [ %32, %28 ]
  %27 = icmp eq %struct.Edge* %25, %1
  br i1 %27, label %33, label %28

28:                                               ; preds = %24
  %29 = bitcast %struct.Edge* %26 to i8*
  %30 = bitcast %struct.Edge* %25 to i8*
  tail call void @llvm.memcpy.p0i8.p0i8.i64(i8* noundef nonnull align 8 dereferenceable(24) %29, i8* noundef nonnull align 8 dereferenceable(24) %30, i64 24, i1 false) #19, !tbaa.struct !33, !alias.scope !54
  %31 = getelementptr inbounds %struct.Edge, %struct.Edge* %25, i64 1
  %32 = getelementptr inbounds %struct.Edge, %struct.Edge* %26, i64 1
  br label %24, !llvm.loop !58

33:                                               ; preds = %24, %38
  %34 = phi %struct.Edge* [ %41, %38 ], [ %1, %24 ]
  %35 = phi %struct.Edge* [ %36, %38 ], [ %26, %24 ]
  %36 = getelementptr inbounds %struct.Edge, %struct.Edge* %35, i64 1
  %37 = icmp eq %struct.Edge* %34, %11
  br i1 %37, label %42, label %38

38:                                               ; preds = %33
  %39 = bitcast %struct.Edge* %36 to i8*
  %40 = bitcast %struct.Edge* %34 to i8*
  tail call void @llvm.memcpy.p0i8.p0i8.i64(i8* noundef nonnull align 8 dereferenceable(24) %39, i8* noundef nonnull align 8 dereferenceable(24) %40, i64 24, i1 false) #19, !tbaa.struct !33, !alias.scope !59
  %41 = getelementptr inbounds %struct.Edge, %struct.Edge* %34, i64 1
  br label %33, !llvm.loop !58

42:                                               ; preds = %33
  %43 = icmp eq %struct.Edge* %9, null
  br i1 %43, label %46, label %44

44:                                               ; preds = %42
  %45 = bitcast %struct.Edge* %9 to i8*
  tail call void @_ZdlPv(i8* nonnull %45) #21
  br label %46

46:                                               ; preds = %42, %44
  %47 = getelementptr inbounds %"class.std::vector.0", %"class.std::vector.0"* %0, i64 0, i32 0, i32 0, i32 0, i32 2
  store %struct.Edge* %16, %struct.Edge** %8, align 8, !tbaa !50
  store %struct.Edge* %36, %struct.Edge** %10, align 8, !tbaa !40
  %48 = getelementptr inbounds %struct.Edge, %struct.Edge* %16, i64 %6
  store %struct.Edge* %48, %struct.Edge** %47, align 8, !tbaa !42
  ret void
}

; Function Attrs: minsize mustprogress optsize sspstrong uwtable
define linkonce_odr dso_local i64 @_ZNKSt6vectorI4EdgeSaIS0_EE12_M_check_lenEmPKc(%"class.std::vector.0"* nonnull align 8 dereferenceable(24) %0, i64 %1, i8* %2) local_unnamed_addr #11 comdat align 2 {
  %4 = getelementptr inbounds %"class.std::vector.0", %"class.std::vector.0"* %0, i64 0, i32 0, i32 0, i32 0, i32 1
  %5 = load %struct.Edge*, %struct.Edge** %4, align 8, !tbaa !40
  %6 = getelementptr inbounds %"class.std::vector.0", %"class.std::vector.0"* %0, i64 0, i32 0, i32 0, i32 0, i32 0
  %7 = load %struct.Edge*, %struct.Edge** %6, align 8, !tbaa !50
  %8 = ptrtoint %struct.Edge* %5 to i64
  %9 = ptrtoint %struct.Edge* %7 to i64
  %10 = sub i64 %8, %9
  %11 = sdiv exact i64 %10, 24
  %12 = sub nsw i64 384307168202282325, %11
  %13 = icmp ult i64 %12, %1
  br i1 %13, label %14, label %15

14:                                               ; preds = %3
  tail call void @_ZSt20__throw_length_errorPKc(i8* %2) #23
  unreachable

15:                                               ; preds = %3
  %16 = icmp ult i64 %11, %1
  %17 = select i1 %16, i64 %1, i64 %11
  %18 = add i64 %17, %11
  %19 = icmp ult i64 %18, %11
  %20 = icmp ugt i64 %18, 384307168202282325
  %21 = or i1 %19, %20
  %22 = select i1 %21, i64 384307168202282325, i64 %18
  ret i64 %22
}

; Function Attrs: minsize mustprogress optsize sspstrong uwtable
define linkonce_odr dso_local %struct.Edge* @_ZNSt12_Vector_baseI4EdgeSaIS0_EE11_M_allocateEm(%"struct.std::_Vector_base.1"* nonnull align 8 dereferenceable(24) %0, i64 %1) local_unnamed_addr #11 comdat align 2 {
  %3 = icmp eq i64 %1, 0
  br i1 %3, label %7, label %4

4:                                                ; preds = %2
  %5 = bitcast %"struct.std::_Vector_base.1"* %0 to %"class.std::allocator.2"*
  %6 = tail call %struct.Edge* @_ZNSt16allocator_traitsISaI4EdgeEE8allocateERS1_m(%"class.std::allocator.2"* nonnull align 1 dereferenceable(1) %5, i64 %1) #20
  br label %7

7:                                                ; preds = %2, %4
  %8 = phi %struct.Edge* [ %6, %4 ], [ null, %2 ]
  ret %struct.Edge* %8
}

; Function Attrs: minsize mustprogress optsize sspstrong uwtable
define linkonce_odr dso_local %struct.Edge* @_ZNSt16allocator_traitsISaI4EdgeEE8allocateERS1_m(%"class.std::allocator.2"* nonnull align 1 dereferenceable(1) %0, i64 %1) local_unnamed_addr #11 comdat align 2 {
  %3 = bitcast %"class.std::allocator.2"* %0 to %"class.__gnu_cxx::new_allocator.3"*
  %4 = tail call %struct.Edge* @_ZN9__gnu_cxx13new_allocatorI4EdgeE8allocateEmPKv(%"class.__gnu_cxx::new_allocator.3"* nonnull align 1 dereferenceable(1) %3, i64 %1, i8* null) #20
  ret %struct.Edge* %4
}

; Function Attrs: minsize mustprogress optsize sspstrong uwtable
define linkonce_odr dso_local %struct.Edge* @_ZN9__gnu_cxx13new_allocatorI4EdgeE8allocateEmPKv(%"class.__gnu_cxx::new_allocator.3"* nonnull align 1 dereferenceable(1) %0, i64 %1, i8* %2) local_unnamed_addr #11 comdat align 2 {
  %4 = icmp ugt i64 %1, 384307168202282325
  br i1 %4, label %5, label %9, !prof !47

5:                                                ; preds = %3
  %6 = icmp ugt i64 %1, 768614336404564650
  br i1 %6, label %7, label %8

7:                                                ; preds = %5
  tail call void @_ZSt28__throw_bad_array_new_lengthv() #23
  unreachable

8:                                                ; preds = %5
  tail call void @_ZSt17__throw_bad_allocv() #23
  unreachable

9:                                                ; preds = %3
  %10 = mul nuw nsw i64 %1, 24
  %11 = tail call noalias nonnull i8* @_Znwm(i64 %10) #24
  %12 = bitcast i8* %11 to %struct.Edge*
  ret %struct.Edge* %12
}

; Function Attrs: minsize optsize sspstrong uwtable
define linkonce_odr dso_local i64 @_ZNSt6vectorIlSaIlEE17_S_check_init_lenEmRKS0_(i64 %0, %"class.std::allocator.17"* nonnull align 1 dereferenceable(1) %1) local_unnamed_addr #5 comdat align 2 {
  %3 = icmp ugt i64 %0, 1152921504606846975
  br i1 %3, label %4, label %5

4:                                                ; preds = %2
  tail call void @_ZSt20__throw_length_errorPKc(i8* getelementptr inbounds ([49 x i8], [49 x i8]* @.str, i64 0, i64 0)) #23
  unreachable

5:                                                ; preds = %2
  ret i64 %0
}

; Function Attrs: minsize mustprogress optsize sspstrong uwtable
define linkonce_odr dso_local void @_ZNSt6vectorIlSaIlEE18_M_fill_initializeEmRKl(%"class.std::vector.15"* nonnull align 8 dereferenceable(24) %0, i64 %1, i64* nonnull align 8 dereferenceable(8) %2) local_unnamed_addr #11 comdat align 2 {
  %4 = getelementptr inbounds %"class.std::vector.15", %"class.std::vector.15"* %0, i64 0, i32 0, i32 0, i32 0, i32 0
  %5 = load i64*, i64** %4, align 8, !tbaa !19
  %6 = tail call i64* @_ZSt10__fill_n_aIPlmlET_S1_T0_RKT1_St26random_access_iterator_tag(i64* %5, i64 %1, i64* nonnull align 8 dereferenceable(8) %2) #20
  %7 = getelementptr inbounds %"class.std::vector.15", %"class.std::vector.15"* %0, i64 0, i32 0, i32 0, i32 0, i32 1
  store i64* %6, i64** %7, align 8, !tbaa !63
  ret void
}

; Function Attrs: minsize nounwind optsize sspstrong uwtable
define linkonce_odr dso_local void @_ZNSt12_Vector_baseIlSaIlEED2Ev(%"struct.std::_Vector_base.16"* nonnull align 8 dereferenceable(24) %0) unnamed_addr #9 comdat align 2 personality i8* bitcast (i32 (...)* @__gxx_personality_v0 to i8*) {
  %2 = getelementptr inbounds %"struct.std::_Vector_base.16", %"struct.std::_Vector_base.16"* %0, i64 0, i32 0, i32 0, i32 0
  %3 = load i64*, i64** %2, align 8, !tbaa !19
  %4 = icmp eq i64* %3, null
  br i1 %4, label %7, label %5

5:                                                ; preds = %1
  %6 = bitcast i64* %3 to i8*
  tail call void @_ZdlPv(i8* nonnull %6) #21
  br label %7

7:                                                ; preds = %5, %1
  ret void
}

; Function Attrs: minsize mustprogress optsize sspstrong uwtable
define linkonce_odr dso_local void @_ZNSt12_Vector_baseIlSaIlEE17_M_create_storageEm(%"struct.std::_Vector_base.16"* nonnull align 8 dereferenceable(24) %0, i64 %1) local_unnamed_addr #11 comdat align 2 {
  %3 = tail call i64* @_ZNSt12_Vector_baseIlSaIlEE11_M_allocateEm(%"struct.std::_Vector_base.16"* nonnull align 8 dereferenceable(24) %0, i64 %1) #20
  %4 = getelementptr inbounds %"struct.std::_Vector_base.16", %"struct.std::_Vector_base.16"* %0, i64 0, i32 0, i32 0, i32 0
  store i64* %3, i64** %4, align 8, !tbaa !19
  %5 = getelementptr inbounds %"struct.std::_Vector_base.16", %"struct.std::_Vector_base.16"* %0, i64 0, i32 0, i32 0, i32 1
  store i64* %3, i64** %5, align 8, !tbaa !63
  %6 = getelementptr inbounds i64, i64* %3, i64 %1
  %7 = getelementptr inbounds %"struct.std::_Vector_base.16", %"struct.std::_Vector_base.16"* %0, i64 0, i32 0, i32 0, i32 2
  store i64* %6, i64** %7, align 8, !tbaa !64
  ret void
}

; Function Attrs: minsize mustprogress optsize sspstrong uwtable
define linkonce_odr dso_local i64* @_ZNSt12_Vector_baseIlSaIlEE11_M_allocateEm(%"struct.std::_Vector_base.16"* nonnull align 8 dereferenceable(24) %0, i64 %1) local_unnamed_addr #11 comdat align 2 {
  %3 = icmp eq i64 %1, 0
  br i1 %3, label %7, label %4

4:                                                ; preds = %2
  %5 = bitcast %"struct.std::_Vector_base.16"* %0 to %"class.std::allocator.17"*
  %6 = tail call i64* @_ZNSt16allocator_traitsISaIlEE8allocateERS0_m(%"class.std::allocator.17"* nonnull align 1 dereferenceable(1) %5, i64 %1) #20
  br label %7

7:                                                ; preds = %2, %4
  %8 = phi i64* [ %6, %4 ], [ null, %2 ]
  ret i64* %8
}

; Function Attrs: minsize mustprogress optsize sspstrong uwtable
define linkonce_odr dso_local i64* @_ZNSt16allocator_traitsISaIlEE8allocateERS0_m(%"class.std::allocator.17"* nonnull align 1 dereferenceable(1) %0, i64 %1) local_unnamed_addr #11 comdat align 2 {
  %3 = bitcast %"class.std::allocator.17"* %0 to %"class.__gnu_cxx::new_allocator.18"*
  %4 = tail call i64* @_ZN9__gnu_cxx13new_allocatorIlE8allocateEmPKv(%"class.__gnu_cxx::new_allocator.18"* nonnull align 1 dereferenceable(1) %3, i64 %1, i8* null) #20
  ret i64* %4
}

; Function Attrs: minsize mustprogress optsize sspstrong uwtable
define linkonce_odr dso_local i64* @_ZN9__gnu_cxx13new_allocatorIlE8allocateEmPKv(%"class.__gnu_cxx::new_allocator.18"* nonnull align 1 dereferenceable(1) %0, i64 %1, i8* %2) local_unnamed_addr #11 comdat align 2 {
  %4 = icmp ugt i64 %1, 1152921504606846975
  br i1 %4, label %5, label %9, !prof !47

5:                                                ; preds = %3
  %6 = icmp ugt i64 %1, 2305843009213693951
  br i1 %6, label %7, label %8

7:                                                ; preds = %5
  tail call void @_ZSt28__throw_bad_array_new_lengthv() #23
  unreachable

8:                                                ; preds = %5
  tail call void @_ZSt17__throw_bad_allocv() #23
  unreachable

9:                                                ; preds = %3
  %10 = shl nuw nsw i64 %1, 3
  %11 = tail call noalias nonnull i8* @_Znwm(i64 %10) #24
  %12 = bitcast i8* %11 to i64*
  ret i64* %12
}

; Function Attrs: inlinehint minsize mustprogress optsize sspstrong uwtable
define linkonce_odr dso_local i64* @_ZSt10__fill_n_aIPlmlET_S1_T0_RKT1_St26random_access_iterator_tag(i64* %0, i64 %1, i64* nonnull align 8 dereferenceable(8) %2) local_unnamed_addr #8 comdat {
  %4 = icmp eq i64 %1, 0
  br i1 %4, label %13, label %5

5:                                                ; preds = %3
  %6 = getelementptr inbounds i64, i64* %0, i64 %1
  %7 = load i64, i64* %2, align 8, !tbaa !5
  br label %8

8:                                                ; preds = %11, %5
  %9 = phi i64* [ %0, %5 ], [ %12, %11 ]
  %10 = icmp eq i64* %9, %6
  br i1 %10, label %13, label %11

11:                                               ; preds = %8
  store i64 %7, i64* %9, align 8, !tbaa !5
  %12 = getelementptr inbounds i64, i64* %9, i64 1
  br label %8, !llvm.loop !65

13:                                               ; preds = %8, %3
  %14 = phi i64* [ %0, %3 ], [ %6, %8 ]
  ret i64* %14
}

; Function Attrs: minsize optsize sspstrong uwtable
define linkonce_odr dso_local i64 @_ZNSt6vectorIS_IlSaIlEESaIS1_EE17_S_check_init_lenEmRKS2_(i64 %0, %"class.std::allocator.12"* nonnull align 1 dereferenceable(1) %1) local_unnamed_addr #5 comdat align 2 {
  %3 = icmp ugt i64 %0, 384307168202282325
  br i1 %3, label %4, label %5

4:                                                ; preds = %2
  tail call void @_ZSt20__throw_length_errorPKc(i8* getelementptr inbounds ([49 x i8], [49 x i8]* @.str, i64 0, i64 0)) #23
  unreachable

5:                                                ; preds = %2
  ret i64 %0
}

; Function Attrs: minsize mustprogress optsize sspstrong uwtable
define linkonce_odr dso_local void @_ZNSt6vectorIS_IlSaIlEESaIS1_EE18_M_fill_initializeEmRKS1_(%"class.std::vector.10"* nonnull align 8 dereferenceable(24) %0, i64 %1, %"class.std::vector.15"* nonnull align 8 dereferenceable(24) %2) local_unnamed_addr #11 comdat align 2 {
  %4 = getelementptr inbounds %"class.std::vector.10", %"class.std::vector.10"* %0, i64 0, i32 0, i32 0, i32 0, i32 0
  %5 = load %"class.std::vector.15"*, %"class.std::vector.15"** %4, align 8, !tbaa !17
  %6 = tail call %"class.std::vector.15"* @_ZNSt22__uninitialized_fill_nILb0EE15__uninit_fill_nIPSt6vectorIlSaIlEEmS4_EET_S6_T0_RKT1_(%"class.std::vector.15"* %5, i64 %1, %"class.std::vector.15"* nonnull align 8 dereferenceable(24) %2) #20
  %7 = getelementptr inbounds %"class.std::vector.10", %"class.std::vector.10"* %0, i64 0, i32 0, i32 0, i32 0, i32 1
  store %"class.std::vector.15"* %6, %"class.std::vector.15"** %7, align 8, !tbaa !43
  ret void
}

; Function Attrs: minsize nounwind optsize sspstrong uwtable
define linkonce_odr dso_local void @_ZNSt12_Vector_baseISt6vectorIlSaIlEESaIS2_EED2Ev(%"struct.std::_Vector_base.11"* nonnull align 8 dereferenceable(24) %0) unnamed_addr #9 comdat align 2 personality i8* bitcast (i32 (...)* @__gxx_personality_v0 to i8*) {
  %2 = getelementptr inbounds %"struct.std::_Vector_base.11", %"struct.std::_Vector_base.11"* %0, i64 0, i32 0, i32 0, i32 0
  %3 = load %"class.std::vector.15"*, %"class.std::vector.15"** %2, align 8, !tbaa !17
  %4 = icmp eq %"class.std::vector.15"* %3, null
  br i1 %4, label %7, label %5

5:                                                ; preds = %1
  %6 = bitcast %"class.std::vector.15"* %3 to i8*
  tail call void @_ZdlPv(i8* nonnull %6) #21
  br label %7

7:                                                ; preds = %5, %1
  ret void
}

; Function Attrs: minsize mustprogress optsize sspstrong uwtable
define linkonce_odr dso_local void @_ZNSt12_Vector_baseISt6vectorIlSaIlEESaIS2_EE17_M_create_storageEm(%"struct.std::_Vector_base.11"* nonnull align 8 dereferenceable(24) %0, i64 %1) local_unnamed_addr #11 comdat align 2 {
  %3 = tail call %"class.std::vector.15"* @_ZNSt12_Vector_baseISt6vectorIlSaIlEESaIS2_EE11_M_allocateEm(%"struct.std::_Vector_base.11"* nonnull align 8 dereferenceable(24) %0, i64 %1) #20
  %4 = getelementptr inbounds %"struct.std::_Vector_base.11", %"struct.std::_Vector_base.11"* %0, i64 0, i32 0, i32 0, i32 0
  store %"class.std::vector.15"* %3, %"class.std::vector.15"** %4, align 8, !tbaa !17
  %5 = getelementptr inbounds %"struct.std::_Vector_base.11", %"struct.std::_Vector_base.11"* %0, i64 0, i32 0, i32 0, i32 1
  store %"class.std::vector.15"* %3, %"class.std::vector.15"** %5, align 8, !tbaa !43
  %6 = getelementptr inbounds %"class.std::vector.15", %"class.std::vector.15"* %3, i64 %1
  %7 = getelementptr inbounds %"struct.std::_Vector_base.11", %"struct.std::_Vector_base.11"* %0, i64 0, i32 0, i32 0, i32 2
  store %"class.std::vector.15"* %6, %"class.std::vector.15"** %7, align 8, !tbaa !66
  ret void
}

; Function Attrs: minsize mustprogress optsize sspstrong uwtable
define linkonce_odr dso_local %"class.std::vector.15"* @_ZNSt12_Vector_baseISt6vectorIlSaIlEESaIS2_EE11_M_allocateEm(%"struct.std::_Vector_base.11"* nonnull align 8 dereferenceable(24) %0, i64 %1) local_unnamed_addr #11 comdat align 2 {
  %3 = icmp eq i64 %1, 0
  br i1 %3, label %7, label %4

4:                                                ; preds = %2
  %5 = bitcast %"struct.std::_Vector_base.11"* %0 to %"class.std::allocator.12"*
  %6 = tail call %"class.std::vector.15"* @_ZNSt16allocator_traitsISaISt6vectorIlSaIlEEEE8allocateERS3_m(%"class.std::allocator.12"* nonnull align 1 dereferenceable(1) %5, i64 %1) #20
  br label %7

7:                                                ; preds = %2, %4
  %8 = phi %"class.std::vector.15"* [ %6, %4 ], [ null, %2 ]
  ret %"class.std::vector.15"* %8
}

; Function Attrs: minsize mustprogress optsize sspstrong uwtable
define linkonce_odr dso_local %"class.std::vector.15"* @_ZNSt16allocator_traitsISaISt6vectorIlSaIlEEEE8allocateERS3_m(%"class.std::allocator.12"* nonnull align 1 dereferenceable(1) %0, i64 %1) local_unnamed_addr #11 comdat align 2 {
  %3 = bitcast %"class.std::allocator.12"* %0 to %"class.__gnu_cxx::new_allocator.13"*
  %4 = tail call %"class.std::vector.15"* @_ZN9__gnu_cxx13new_allocatorISt6vectorIlSaIlEEE8allocateEmPKv(%"class.__gnu_cxx::new_allocator.13"* nonnull align 1 dereferenceable(1) %3, i64 %1, i8* null) #20
  ret %"class.std::vector.15"* %4
}

; Function Attrs: minsize mustprogress optsize sspstrong uwtable
define linkonce_odr dso_local %"class.std::vector.15"* @_ZN9__gnu_cxx13new_allocatorISt6vectorIlSaIlEEE8allocateEmPKv(%"class.__gnu_cxx::new_allocator.13"* nonnull align 1 dereferenceable(1) %0, i64 %1, i8* %2) local_unnamed_addr #11 comdat align 2 {
  %4 = icmp ugt i64 %1, 384307168202282325
  br i1 %4, label %5, label %9, !prof !47

5:                                                ; preds = %3
  %6 = icmp ugt i64 %1, 768614336404564650
  br i1 %6, label %7, label %8

7:                                                ; preds = %5
  tail call void @_ZSt28__throw_bad_array_new_lengthv() #23
  unreachable

8:                                                ; preds = %5
  tail call void @_ZSt17__throw_bad_allocv() #23
  unreachable

9:                                                ; preds = %3
  %10 = mul nuw nsw i64 %1, 24
  %11 = tail call noalias nonnull i8* @_Znwm(i64 %10) #24
  %12 = bitcast i8* %11 to %"class.std::vector.15"*
  ret %"class.std::vector.15"* %12
}

; Function Attrs: minsize mustprogress optsize sspstrong uwtable
define linkonce_odr dso_local %"class.std::vector.15"* @_ZNSt22__uninitialized_fill_nILb0EE15__uninit_fill_nIPSt6vectorIlSaIlEEmS4_EET_S6_T0_RKT1_(%"class.std::vector.15"* %0, i64 %1, %"class.std::vector.15"* nonnull align 8 dereferenceable(24) %2) local_unnamed_addr #11 comdat align 2 personality i8* bitcast (i32 (...)* @__gxx_personality_v0 to i8*) {
  br label %4

4:                                                ; preds = %9, %3
  %5 = phi i64 [ %1, %3 ], [ %10, %9 ]
  %6 = phi %"class.std::vector.15"* [ %0, %3 ], [ %11, %9 ]
  %7 = icmp eq i64 %5, 0
  br i1 %7, label %17, label %8

8:                                                ; preds = %4
  invoke void @_ZNSt6vectorIlSaIlEEC2ERKS1_(%"class.std::vector.15"* nonnull align 8 dereferenceable(24) %6, %"class.std::vector.15"* nonnull align 8 dereferenceable(24) %2) #20
          to label %9 unwind label %12

9:                                                ; preds = %8
  %10 = add i64 %5, -1
  %11 = getelementptr inbounds %"class.std::vector.15", %"class.std::vector.15"* %6, i64 1
  br label %4, !llvm.loop !67

12:                                               ; preds = %8
  %13 = landingpad { i8*, i32 }
          catch i8* null
  %14 = extractvalue { i8*, i32 } %13, 0
  %15 = tail call i8* @__cxa_begin_catch(i8* %14) #19
  invoke void @_ZNSt12_Destroy_auxILb0EE9__destroyIPSt6vectorIlSaIlEEEEvT_S6_(%"class.std::vector.15"* %0, %"class.std::vector.15"* %6) #20
          to label %16 unwind label %18

16:                                               ; preds = %12
  invoke void @__cxa_rethrow() #25
          to label %24 unwind label %18

17:                                               ; preds = %4
  ret %"class.std::vector.15"* %6

18:                                               ; preds = %12, %16
  %19 = landingpad { i8*, i32 }
          cleanup
  invoke void @__cxa_end_catch()
          to label %20 unwind label %21

20:                                               ; preds = %18
  resume { i8*, i32 } %19

21:                                               ; preds = %18
  %22 = landingpad { i8*, i32 }
          catch i8* null
  %23 = extractvalue { i8*, i32 } %22, 0
  tail call void @__clang_call_terminate(i8* %23) #22
  unreachable

24:                                               ; preds = %16
  unreachable
}

; Function Attrs: minsize optsize sspstrong uwtable
define linkonce_odr dso_local void @_ZNSt6vectorIlSaIlEEC2ERKS1_(%"class.std::vector.15"* nonnull align 8 dereferenceable(24) %0, %"class.std::vector.15"* nonnull align 8 dereferenceable(24) %1) unnamed_addr #5 comdat align 2 personality i8* bitcast (i32 (...)* @__gxx_personality_v0 to i8*) {
  %3 = getelementptr inbounds %"class.std::vector.15", %"class.std::vector.15"* %0, i64 0, i32 0
  %4 = getelementptr inbounds %"class.std::vector.15", %"class.std::vector.15"* %1, i64 0, i32 0, i32 0, i32 0, i32 1
  %5 = load i64*, i64** %4, align 8, !tbaa !63
  %6 = getelementptr inbounds %"class.std::vector.15", %"class.std::vector.15"* %1, i64 0, i32 0, i32 0, i32 0, i32 0
  %7 = load i64*, i64** %6, align 8, !tbaa !19
  %8 = ptrtoint i64* %5 to i64
  %9 = ptrtoint i64* %7 to i64
  %10 = sub i64 %8, %9
  %11 = ashr exact i64 %10, 3
  %12 = bitcast %"class.std::vector.15"* %0 to i8*
  tail call void @llvm.memset.p0i8.i64(i8* noundef nonnull align 8 dereferenceable(24) %12, i8 0, i64 24, i1 false) #19
  tail call void @_ZNSt12_Vector_baseIlSaIlEE17_M_create_storageEm(%"struct.std::_Vector_base.16"* nonnull align 8 dereferenceable(24) %3, i64 %11) #20
  %13 = load i64*, i64** %6, align 8, !tbaa !26
  %14 = load i64*, i64** %4, align 8, !tbaa !26
  %15 = getelementptr inbounds %"class.std::vector.15", %"class.std::vector.15"* %0, i64 0, i32 0, i32 0, i32 0, i32 0
  %16 = load i64*, i64** %15, align 8, !tbaa !19
  %17 = ptrtoint i64* %14 to i64
  %18 = ptrtoint i64* %13 to i64
  %19 = sub i64 %17, %18
  %20 = icmp eq i64 %19, 0
  br i1 %20, label %24, label %21

21:                                               ; preds = %2
  %22 = bitcast i64* %16 to i8*
  %23 = bitcast i64* %13 to i8*
  tail call void @llvm.memmove.p0i8.p0i8.i64(i8* align 8 %22, i8* align 8 %23, i64 %19, i1 false) #19
  br label %24

24:                                               ; preds = %21, %2
  %25 = ashr exact i64 %19, 3
  %26 = getelementptr inbounds i64, i64* %16, i64 %25
  %27 = getelementptr inbounds %"class.std::vector.15", %"class.std::vector.15"* %0, i64 0, i32 0, i32 0, i32 0, i32 1
  store i64* %26, i64** %27, align 8, !tbaa !63
  ret void
}

; Function Attrs: argmemonly mustprogress nofree nounwind willreturn
declare void @llvm.memmove.p0i8.p0i8.i64(i8* nocapture writeonly, i8* nocapture readonly, i64, i1 immarg) #7

; Function Attrs: minsize optsize sspstrong uwtable
define linkonce_odr dso_local void @_ZNSt12_Destroy_auxILb0EE9__destroyIPSt6vectorIlSaIlEEEEvT_S6_(%"class.std::vector.15"* %0, %"class.std::vector.15"* %1) local_unnamed_addr #5 comdat align 2 personality i32 (...)* @__gxx_personality_v0 {
  br label %3

3:                                                ; preds = %6, %2
  %4 = phi %"class.std::vector.15"* [ %0, %2 ], [ %8, %6 ]
  %5 = icmp eq %"class.std::vector.15"* %4, %1
  br i1 %5, label %9, label %6

6:                                                ; preds = %3
  %7 = getelementptr inbounds %"class.std::vector.15", %"class.std::vector.15"* %4, i64 0, i32 0
  tail call void @_ZNSt12_Vector_baseIlSaIlEED2Ev(%"struct.std::_Vector_base.16"* nonnull align 8 dereferenceable(24) %7) #21
  %8 = getelementptr inbounds %"class.std::vector.15", %"class.std::vector.15"* %4, i64 1
  br label %3, !llvm.loop !68

9:                                                ; preds = %3
  ret void
}

; Function Attrs: minsize optsize sspstrong uwtable
define linkonce_odr dso_local void @_ZNSt6vectorISt5tupleIJlliEESaIS1_EE12emplace_backIJiRliEEEvDpOT_(%"class.std::vector.20"* nonnull align 8 dereferenceable(24) %0, i32* nonnull align 4 dereferenceable(4) %1, i64* nonnull align 8 dereferenceable(8) %2, i32* nonnull align 4 dereferenceable(4) %3) local_unnamed_addr #5 comdat align 2 personality i32 (...)* @__gxx_personality_v0 {
  %5 = getelementptr inbounds %"class.std::vector.20", %"class.std::vector.20"* %0, i64 0, i32 0, i32 0, i32 0, i32 1
  %6 = load %"class.std::tuple"*, %"class.std::tuple"** %5, align 8, !tbaa !23
  %7 = getelementptr inbounds %"class.std::vector.20", %"class.std::vector.20"* %0, i64 0, i32 0, i32 0, i32 0, i32 2
  %8 = load %"class.std::tuple"*, %"class.std::tuple"** %7, align 8, !tbaa !69
  %9 = icmp eq %"class.std::tuple"* %6, %8
  br i1 %9, label %19, label %10

10:                                               ; preds = %4
  %11 = getelementptr inbounds %"class.std::tuple", %"class.std::tuple"* %6, i64 0, i32 0, i32 0, i32 0, i32 0, i32 0
  %12 = load i32, i32* %3, align 4, !tbaa !21
  store i32 %12, i32* %11, align 8, !tbaa !70
  %13 = getelementptr inbounds %"class.std::tuple", %"class.std::tuple"* %6, i64 0, i32 0, i32 0, i32 1, i32 0
  %14 = load i64, i64* %2, align 8, !tbaa !5
  store i64 %14, i64* %13, align 8, !tbaa !72
  %15 = getelementptr inbounds %"class.std::tuple", %"class.std::tuple"* %6, i64 0, i32 0, i32 1, i32 0
  %16 = load i32, i32* %1, align 4, !tbaa !21
  %17 = sext i32 %16 to i64
  store i64 %17, i64* %15, align 8, !tbaa !74
  %18 = getelementptr inbounds %"class.std::tuple", %"class.std::tuple"* %6, i64 1
  store %"class.std::tuple"* %18, %"class.std::tuple"** %5, align 8, !tbaa !23
  br label %20

19:                                               ; preds = %4
  tail call void @_ZNSt6vectorISt5tupleIJlliEESaIS1_EE17_M_realloc_insertIJiRliEEEvN9__gnu_cxx17__normal_iteratorIPS1_S3_EEDpOT_(%"class.std::vector.20"* nonnull align 8 dereferenceable(24) %0, %"class.std::tuple"* %6, i32* nonnull align 4 dereferenceable(4) %1, i64* nonnull align 8 dereferenceable(8) %2, i32* nonnull align 4 dereferenceable(4) %3) #20
  br label %20

20:                                               ; preds = %19, %10
  ret void
}

; Function Attrs: inlinehint minsize optsize sspstrong uwtable
define linkonce_odr dso_local void @_ZSt9push_heapIN9__gnu_cxx17__normal_iteratorIPSt5tupleIJlliEESt6vectorIS3_SaIS3_EEEESt7greaterIS3_EEvT_SB_T0_(%"class.std::tuple"* %0, %"class.std::tuple"* %1) local_unnamed_addr #16 comdat personality i32 (...)* @__gxx_personality_v0 {
  %3 = alloca %"struct.__gnu_cxx::__ops::_Iter_comp_val", align 1
  %4 = alloca %"class.std::tuple", align 8
  %5 = getelementptr inbounds %"struct.__gnu_cxx::__ops::_Iter_comp_val", %"struct.__gnu_cxx::__ops::_Iter_comp_val"* %3, i64 0, i32 0, i32 0
  call void @llvm.lifetime.start.p0i8(i64 1, i8* nonnull %5) #19
  %6 = getelementptr inbounds %"class.std::tuple", %"class.std::tuple"* %1, i64 -1, i32 0, i32 0, i32 0, i32 0, i32 0
  %7 = load i32, i32* %6, align 8, !tbaa !21
  %8 = getelementptr inbounds %"class.std::tuple", %"class.std::tuple"* %1, i64 -1, i32 0, i32 0, i32 1, i32 0
  %9 = bitcast i64* %8 to <2 x i64>*
  %10 = load <2 x i64>, <2 x i64>* %9, align 8, !tbaa !5
  %11 = ptrtoint %"class.std::tuple"* %1 to i64
  %12 = ptrtoint %"class.std::tuple"* %0 to i64
  %13 = sub i64 %11, %12
  %14 = sdiv exact i64 %13, 24
  %15 = add nsw i64 %14, -1
  %16 = getelementptr inbounds %"class.std::tuple", %"class.std::tuple"* %4, i64 0, i32 0, i32 0, i32 0, i32 0, i32 0
  store i32 %7, i32* %16, align 8, !tbaa !70
  %17 = getelementptr inbounds %"class.std::tuple", %"class.std::tuple"* %4, i64 0, i32 0, i32 0, i32 1, i32 0
  %18 = bitcast i64* %17 to <2 x i64>*
  store <2 x i64> %10, <2 x i64>* %18, align 8, !tbaa !5
  call void @_ZSt11__push_heapIN9__gnu_cxx17__normal_iteratorIPSt5tupleIJlliEESt6vectorIS3_SaIS3_EEEElS3_NS0_5__ops14_Iter_comp_valISt7greaterIS3_EEEEvT_T0_SF_T1_RT2_(%"class.std::tuple"* %0, i64 %15, i64 0, %"class.std::tuple"* nonnull %4, %"struct.__gnu_cxx::__ops::_Iter_comp_val"* nonnull align 1 dereferenceable(1) %3) #20
  call void @llvm.lifetime.end.p0i8(i64 1, i8* nonnull %5) #19
  ret void
}

; Function Attrs: minsize optsize sspstrong uwtable
define linkonce_odr dso_local void @_ZNSt6vectorISt5tupleIJlliEESaIS1_EE17_M_realloc_insertIJiRliEEEvN9__gnu_cxx17__normal_iteratorIPS1_S3_EEDpOT_(%"class.std::vector.20"* nonnull align 8 dereferenceable(24) %0, %"class.std::tuple"* %1, i32* nonnull align 4 dereferenceable(4) %2, i64* nonnull align 8 dereferenceable(8) %3, i32* nonnull align 4 dereferenceable(4) %4) local_unnamed_addr #5 comdat align 2 personality i32 (...)* @__gxx_personality_v0 {
  %6 = tail call i64 @_ZNKSt6vectorISt5tupleIJlliEESaIS1_EE12_M_check_lenEmPKc(%"class.std::vector.20"* nonnull align 8 dereferenceable(24) %0, i64 1, i8* getelementptr inbounds ([26 x i8], [26 x i8]* @.str.1, i64 0, i64 0)) #20
  %7 = getelementptr inbounds %"class.std::vector.20", %"class.std::vector.20"* %0, i64 0, i32 0
  %8 = getelementptr inbounds %"class.std::vector.20", %"class.std::vector.20"* %0, i64 0, i32 0, i32 0, i32 0, i32 0
  %9 = load %"class.std::tuple"*, %"class.std::tuple"** %8, align 8, !tbaa !25
  %10 = getelementptr inbounds %"class.std::vector.20", %"class.std::vector.20"* %0, i64 0, i32 0, i32 0, i32 0, i32 1
  %11 = load %"class.std::tuple"*, %"class.std::tuple"** %10, align 8, !tbaa !23
  %12 = ptrtoint %"class.std::tuple"* %1 to i64
  %13 = ptrtoint %"class.std::tuple"* %9 to i64
  %14 = sub i64 %12, %13
  %15 = sdiv exact i64 %14, 24
  %16 = tail call %"class.std::tuple"* @_ZNSt12_Vector_baseISt5tupleIJlliEESaIS1_EE11_M_allocateEm(%"struct.std::_Vector_base.21"* nonnull align 8 dereferenceable(24) %7, i64 %6) #20
  %17 = getelementptr inbounds %"class.std::tuple", %"class.std::tuple"* %16, i64 %15, i32 0, i32 0, i32 0, i32 0, i32 0
  %18 = load i32, i32* %4, align 4, !tbaa !21
  store i32 %18, i32* %17, align 8, !tbaa !70
  %19 = getelementptr inbounds %"class.std::tuple", %"class.std::tuple"* %16, i64 %15, i32 0, i32 0, i32 1, i32 0
  %20 = load i64, i64* %3, align 8, !tbaa !5
  store i64 %20, i64* %19, align 8, !tbaa !72
  %21 = getelementptr inbounds %"class.std::tuple", %"class.std::tuple"* %16, i64 %15, i32 0, i32 1, i32 0
  %22 = load i32, i32* %2, align 4, !tbaa !21
  %23 = sext i32 %22 to i64
  store i64 %23, i64* %21, align 8, !tbaa !74
  %24 = bitcast %"class.std::vector.20"* %0 to %"class.std::allocator.22"*
  %25 = tail call %"class.std::tuple"* @_ZSt14__relocate_a_1IPSt5tupleIJlliEES2_SaIS1_EET0_T_S5_S4_RT1_(%"class.std::tuple"* %9, %"class.std::tuple"* %1, %"class.std::tuple"* %16, %"class.std::allocator.22"* nonnull align 1 dereferenceable(1) %24) #21
  %26 = getelementptr inbounds %"class.std::tuple", %"class.std::tuple"* %25, i64 1
  %27 = tail call %"class.std::tuple"* @_ZSt14__relocate_a_1IPSt5tupleIJlliEES2_SaIS1_EET0_T_S5_S4_RT1_(%"class.std::tuple"* %1, %"class.std::tuple"* %11, %"class.std::tuple"* nonnull %26, %"class.std::allocator.22"* nonnull align 1 dereferenceable(1) %24) #21
  %28 = icmp eq %"class.std::tuple"* %9, null
  br i1 %28, label %31, label %29

29:                                               ; preds = %5
  %30 = bitcast %"class.std::tuple"* %9 to i8*
  tail call void @_ZdlPv(i8* nonnull %30) #21
  br label %31

31:                                               ; preds = %5, %29
  %32 = getelementptr inbounds %"class.std::vector.20", %"class.std::vector.20"* %0, i64 0, i32 0, i32 0, i32 0, i32 2
  store %"class.std::tuple"* %16, %"class.std::tuple"** %8, align 8, !tbaa !25
  store %"class.std::tuple"* %27, %"class.std::tuple"** %10, align 8, !tbaa !23
  %33 = getelementptr inbounds %"class.std::tuple", %"class.std::tuple"* %16, i64 %6
  store %"class.std::tuple"* %33, %"class.std::tuple"** %32, align 8, !tbaa !69
  ret void
}

; Function Attrs: minsize mustprogress optsize sspstrong uwtable
define linkonce_odr dso_local i64 @_ZNKSt6vectorISt5tupleIJlliEESaIS1_EE12_M_check_lenEmPKc(%"class.std::vector.20"* nonnull align 8 dereferenceable(24) %0, i64 %1, i8* %2) local_unnamed_addr #11 comdat align 2 {
  %4 = getelementptr inbounds %"class.std::vector.20", %"class.std::vector.20"* %0, i64 0, i32 0, i32 0, i32 0, i32 1
  %5 = load %"class.std::tuple"*, %"class.std::tuple"** %4, align 8, !tbaa !23
  %6 = getelementptr inbounds %"class.std::vector.20", %"class.std::vector.20"* %0, i64 0, i32 0, i32 0, i32 0, i32 0
  %7 = load %"class.std::tuple"*, %"class.std::tuple"** %6, align 8, !tbaa !25
  %8 = ptrtoint %"class.std::tuple"* %5 to i64
  %9 = ptrtoint %"class.std::tuple"* %7 to i64
  %10 = sub i64 %8, %9
  %11 = sdiv exact i64 %10, 24
  %12 = sub nsw i64 384307168202282325, %11
  %13 = icmp ult i64 %12, %1
  br i1 %13, label %14, label %15

14:                                               ; preds = %3
  tail call void @_ZSt20__throw_length_errorPKc(i8* %2) #23
  unreachable

15:                                               ; preds = %3
  %16 = icmp ult i64 %11, %1
  %17 = select i1 %16, i64 %1, i64 %11
  %18 = add i64 %17, %11
  %19 = icmp ult i64 %18, %11
  %20 = icmp ugt i64 %18, 384307168202282325
  %21 = or i1 %19, %20
  %22 = select i1 %21, i64 384307168202282325, i64 %18
  ret i64 %22
}

; Function Attrs: minsize mustprogress optsize sspstrong uwtable
define linkonce_odr dso_local %"class.std::tuple"* @_ZNSt12_Vector_baseISt5tupleIJlliEESaIS1_EE11_M_allocateEm(%"struct.std::_Vector_base.21"* nonnull align 8 dereferenceable(24) %0, i64 %1) local_unnamed_addr #11 comdat align 2 {
  %3 = icmp eq i64 %1, 0
  br i1 %3, label %7, label %4

4:                                                ; preds = %2
  %5 = bitcast %"struct.std::_Vector_base.21"* %0 to %"class.std::allocator.22"*
  %6 = tail call %"class.std::tuple"* @_ZNSt16allocator_traitsISaISt5tupleIJlliEEEE8allocateERS2_m(%"class.std::allocator.22"* nonnull align 1 dereferenceable(1) %5, i64 %1) #20
  br label %7

7:                                                ; preds = %2, %4
  %8 = phi %"class.std::tuple"* [ %6, %4 ], [ null, %2 ]
  ret %"class.std::tuple"* %8
}

; Function Attrs: minsize mustprogress optsize sspstrong uwtable
define linkonce_odr dso_local %"class.std::tuple"* @_ZNSt16allocator_traitsISaISt5tupleIJlliEEEE8allocateERS2_m(%"class.std::allocator.22"* nonnull align 1 dereferenceable(1) %0, i64 %1) local_unnamed_addr #11 comdat align 2 {
  %3 = bitcast %"class.std::allocator.22"* %0 to %"class.__gnu_cxx::new_allocator.23"*
  %4 = tail call %"class.std::tuple"* @_ZN9__gnu_cxx13new_allocatorISt5tupleIJlliEEE8allocateEmPKv(%"class.__gnu_cxx::new_allocator.23"* nonnull align 1 dereferenceable(1) %3, i64 %1, i8* null) #20
  ret %"class.std::tuple"* %4
}

; Function Attrs: minsize mustprogress optsize sspstrong uwtable
define linkonce_odr dso_local %"class.std::tuple"* @_ZN9__gnu_cxx13new_allocatorISt5tupleIJlliEEE8allocateEmPKv(%"class.__gnu_cxx::new_allocator.23"* nonnull align 1 dereferenceable(1) %0, i64 %1, i8* %2) local_unnamed_addr #11 comdat align 2 {
  %4 = icmp ugt i64 %1, 384307168202282325
  br i1 %4, label %5, label %9, !prof !47

5:                                                ; preds = %3
  %6 = icmp ugt i64 %1, 768614336404564650
  br i1 %6, label %7, label %8

7:                                                ; preds = %5
  tail call void @_ZSt28__throw_bad_array_new_lengthv() #23
  unreachable

8:                                                ; preds = %5
  tail call void @_ZSt17__throw_bad_allocv() #23
  unreachable

9:                                                ; preds = %3
  %10 = mul nuw nsw i64 %1, 24
  %11 = tail call noalias nonnull i8* @_Znwm(i64 %10) #24
  %12 = bitcast i8* %11 to %"class.std::tuple"*
  ret %"class.std::tuple"* %12
}

; Function Attrs: inlinehint minsize nounwind optsize sspstrong uwtable
define linkonce_odr dso_local %"class.std::tuple"* @_ZSt14__relocate_a_1IPSt5tupleIJlliEES2_SaIS1_EET0_T_S5_S4_RT1_(%"class.std::tuple"* %0, %"class.std::tuple"* %1, %"class.std::tuple"* %2, %"class.std::allocator.22"* nonnull align 1 dereferenceable(1) %3) local_unnamed_addr #17 comdat personality i32 (...)* @__gxx_personality_v0 {
  br label %5

5:                                                ; preds = %9, %4
  %6 = phi %"class.std::tuple"* [ %0, %4 ], [ %18, %9 ]
  %7 = phi %"class.std::tuple"* [ %2, %4 ], [ %19, %9 ]
  %8 = icmp eq %"class.std::tuple"* %6, %1
  br i1 %8, label %20, label %9

9:                                                ; preds = %5
  tail call void @llvm.experimental.noalias.scope.decl(metadata !76)
  tail call void @llvm.experimental.noalias.scope.decl(metadata !79)
  %10 = getelementptr inbounds %"class.std::tuple", %"class.std::tuple"* %6, i64 0, i32 0, i32 0, i32 0, i32 0, i32 0
  %11 = getelementptr inbounds %"class.std::tuple", %"class.std::tuple"* %7, i64 0, i32 0, i32 0, i32 0, i32 0, i32 0
  %12 = load i32, i32* %10, align 8, !tbaa !21, !alias.scope !79, !noalias !76
  store i32 %12, i32* %11, align 8, !tbaa !70, !alias.scope !76, !noalias !79
  %13 = getelementptr inbounds %"class.std::tuple", %"class.std::tuple"* %6, i64 0, i32 0, i32 0, i32 1, i32 0
  %14 = getelementptr inbounds %"class.std::tuple", %"class.std::tuple"* %7, i64 0, i32 0, i32 0, i32 1, i32 0
  %15 = bitcast i64* %13 to <2 x i64>*
  %16 = load <2 x i64>, <2 x i64>* %15, align 8, !tbaa !5, !alias.scope !79, !noalias !76
  %17 = bitcast i64* %14 to <2 x i64>*
  store <2 x i64> %16, <2 x i64>* %17, align 8, !tbaa !5, !alias.scope !76, !noalias !79
  %18 = getelementptr inbounds %"class.std::tuple", %"class.std::tuple"* %6, i64 1
  %19 = getelementptr inbounds %"class.std::tuple", %"class.std::tuple"* %7, i64 1
  br label %5, !llvm.loop !81

20:                                               ; preds = %5
  ret %"class.std::tuple"* %7
}

; Function Attrs: minsize optsize sspstrong uwtable
define linkonce_odr dso_local void @_ZSt11__push_heapIN9__gnu_cxx17__normal_iteratorIPSt5tupleIJlliEESt6vectorIS3_SaIS3_EEEElS3_NS0_5__ops14_Iter_comp_valISt7greaterIS3_EEEEvT_T0_SF_T1_RT2_(%"class.std::tuple"* %0, i64 %1, i64 %2, %"class.std::tuple"* %3, %"struct.__gnu_cxx::__ops::_Iter_comp_val"* nonnull align 1 dereferenceable(1) %4) local_unnamed_addr #5 comdat personality i32 (...)* @__gxx_personality_v0 {
  br label %6

6:                                                ; preds = %14, %5
  %7 = phi i64 [ %1, %5 ], [ %9, %14 ]
  %8 = add nsw i64 %7, -1
  %9 = sdiv i64 %8, 2
  %10 = icmp sgt i64 %7, %2
  br i1 %10, label %11, label %23

11:                                               ; preds = %6
  %12 = getelementptr inbounds %"class.std::tuple", %"class.std::tuple"* %0, i64 %9
  %13 = tail call zeroext i1 @_ZNSt15__tuple_compareISt5tupleIJlliEES1_Lm0ELm3EE6__lessERKS1_S4_(%"class.std::tuple"* nonnull align 8 dereferenceable(24) %3, %"class.std::tuple"* nonnull align 8 dereferenceable(24) %12) #20
  br i1 %13, label %14, label %23

14:                                               ; preds = %11
  %15 = getelementptr inbounds %"class.std::tuple", %"class.std::tuple"* %0, i64 %9, i32 0, i32 0, i32 1, i32 0
  %16 = bitcast i64* %15 to <2 x i64>*
  %17 = load <2 x i64>, <2 x i64>* %16, align 8, !tbaa !5
  %18 = getelementptr inbounds %"class.std::tuple", %"class.std::tuple"* %0, i64 %7, i32 0, i32 0, i32 1, i32 0
  %19 = bitcast i64* %18 to <2 x i64>*
  store <2 x i64> %17, <2 x i64>* %19, align 8, !tbaa !5
  %20 = getelementptr inbounds %"class.std::tuple", %"class.std::tuple"* %12, i64 0, i32 0, i32 0, i32 0, i32 0, i32 0
  %21 = load i32, i32* %20, align 8, !tbaa !21
  %22 = getelementptr inbounds %"class.std::tuple", %"class.std::tuple"* %0, i64 %7, i32 0, i32 0, i32 0, i32 0, i32 0
  store i32 %21, i32* %22, align 8, !tbaa !21
  br label %6, !llvm.loop !82

23:                                               ; preds = %6, %11
  %24 = getelementptr inbounds %"class.std::tuple", %"class.std::tuple"* %3, i64 0, i32 0, i32 1, i32 0
  %25 = load i64, i64* %24, align 8, !tbaa !5
  %26 = getelementptr inbounds %"class.std::tuple", %"class.std::tuple"* %0, i64 %7, i32 0, i32 1, i32 0
  store i64 %25, i64* %26, align 8, !tbaa !5
  %27 = getelementptr inbounds %"class.std::tuple", %"class.std::tuple"* %3, i64 0, i32 0, i32 0, i32 1, i32 0
  %28 = load i64, i64* %27, align 8, !tbaa !5
  %29 = getelementptr inbounds %"class.std::tuple", %"class.std::tuple"* %0, i64 %7, i32 0, i32 0, i32 1, i32 0
  store i64 %28, i64* %29, align 8, !tbaa !5
  %30 = getelementptr inbounds %"class.std::tuple", %"class.std::tuple"* %3, i64 0, i32 0, i32 0, i32 0, i32 0, i32 0
  %31 = load i32, i32* %30, align 8, !tbaa !21
  %32 = getelementptr inbounds %"class.std::tuple", %"class.std::tuple"* %0, i64 %7, i32 0, i32 0, i32 0, i32 0, i32 0
  store i32 %31, i32* %32, align 8, !tbaa !21
  ret void
}

; Function Attrs: minsize mustprogress optsize sspstrong uwtable
define linkonce_odr dso_local zeroext i1 @_ZNSt15__tuple_compareISt5tupleIJlliEES1_Lm0ELm3EE6__lessERKS1_S4_(%"class.std::tuple"* nonnull align 8 dereferenceable(24) %0, %"class.std::tuple"* nonnull align 8 dereferenceable(24) %1) local_unnamed_addr #11 comdat align 2 {
  %3 = getelementptr inbounds %"class.std::tuple", %"class.std::tuple"* %0, i64 0, i32 0, i32 1, i32 0
  %4 = load i64, i64* %3, align 8, !tbaa !5
  %5 = getelementptr inbounds %"class.std::tuple", %"class.std::tuple"* %1, i64 0, i32 0, i32 1, i32 0
  %6 = load i64, i64* %5, align 8, !tbaa !5
  %7 = icmp slt i64 %4, %6
  br i1 %7, label %12, label %8

8:                                                ; preds = %2
  %9 = icmp slt i64 %6, %4
  br i1 %9, label %12, label %10

10:                                               ; preds = %8
  %11 = tail call zeroext i1 @_ZNSt15__tuple_compareISt5tupleIJlliEES1_Lm1ELm3EE6__lessERKS1_S4_(%"class.std::tuple"* nonnull align 8 dereferenceable(24) %0, %"class.std::tuple"* nonnull align 8 dereferenceable(24) %1) #20
  br label %12

12:                                               ; preds = %8, %10, %2
  %13 = phi i1 [ true, %2 ], [ false, %8 ], [ %11, %10 ]
  ret i1 %13
}

; Function Attrs: minsize mustprogress optsize sspstrong uwtable
define linkonce_odr dso_local zeroext i1 @_ZNSt15__tuple_compareISt5tupleIJlliEES1_Lm1ELm3EE6__lessERKS1_S4_(%"class.std::tuple"* nonnull align 8 dereferenceable(24) %0, %"class.std::tuple"* nonnull align 8 dereferenceable(24) %1) local_unnamed_addr #11 comdat align 2 {
  %3 = getelementptr inbounds %"class.std::tuple", %"class.std::tuple"* %0, i64 0, i32 0, i32 0, i32 1, i32 0
  %4 = load i64, i64* %3, align 8, !tbaa !5
  %5 = getelementptr inbounds %"class.std::tuple", %"class.std::tuple"* %1, i64 0, i32 0, i32 0, i32 1, i32 0
  %6 = load i64, i64* %5, align 8, !tbaa !5
  %7 = icmp slt i64 %4, %6
  br i1 %7, label %16, label %8

8:                                                ; preds = %2
  %9 = icmp slt i64 %6, %4
  br i1 %9, label %16, label %10

10:                                               ; preds = %8
  %11 = getelementptr inbounds %"class.std::tuple", %"class.std::tuple"* %0, i64 0, i32 0, i32 0, i32 0, i32 0, i32 0
  %12 = load i32, i32* %11, align 8, !tbaa !21
  %13 = getelementptr inbounds %"class.std::tuple", %"class.std::tuple"* %1, i64 0, i32 0, i32 0, i32 0, i32 0, i32 0
  %14 = load i32, i32* %13, align 8, !tbaa !21
  %15 = icmp slt i32 %12, %14
  br label %16

16:                                               ; preds = %8, %10, %2
  %17 = phi i1 [ true, %2 ], [ false, %8 ], [ %15, %10 ]
  ret i1 %17
}

; Function Attrs: minsize mustprogress optsize sspstrong uwtable
define linkonce_odr dso_local void @_ZNSt11_Tuple_implILm0EJRlS0_RiEE9_M_assignIJlliEEEvRKS_ILm0EJDpT_EE(%"struct.std::_Tuple_impl.30"* nonnull align 8 dereferenceable(24) %0, %"struct.std::_Tuple_impl"* nonnull align 8 dereferenceable(24) %1) local_unnamed_addr #11 comdat align 2 {
  %3 = getelementptr inbounds %"struct.std::_Tuple_impl", %"struct.std::_Tuple_impl"* %1, i64 0, i32 1, i32 0
  %4 = load i64, i64* %3, align 8, !tbaa !5
  %5 = getelementptr inbounds %"struct.std::_Tuple_impl.30", %"struct.std::_Tuple_impl.30"* %0, i64 0, i32 1, i32 0
  %6 = load i64*, i64** %5, align 8, !tbaa !83
  store i64 %4, i64* %6, align 8, !tbaa !5
  %7 = getelementptr inbounds %"struct.std::_Tuple_impl", %"struct.std::_Tuple_impl"* %1, i64 0, i32 0, i32 1, i32 0
  %8 = load i64, i64* %7, align 8, !tbaa !5
  %9 = getelementptr inbounds %"struct.std::_Tuple_impl.30", %"struct.std::_Tuple_impl.30"* %0, i64 0, i32 0, i32 1, i32 0
  %10 = load i64*, i64** %9, align 8, !tbaa !85
  store i64 %8, i64* %10, align 8, !tbaa !5
  %11 = getelementptr inbounds %"struct.std::_Tuple_impl", %"struct.std::_Tuple_impl"* %1, i64 0, i32 0, i32 0, i32 0, i32 0
  %12 = load i32, i32* %11, align 8, !tbaa !21
  %13 = getelementptr inbounds %"struct.std::_Tuple_impl.30", %"struct.std::_Tuple_impl.30"* %0, i64 0, i32 0, i32 0, i32 0, i32 0
  %14 = load i32*, i32** %13, align 8, !tbaa !87
  store i32 %12, i32* %14, align 4, !tbaa !21
  ret void
}

; Function Attrs: inlinehint minsize optsize sspstrong uwtable
define linkonce_odr dso_local void @_ZSt8pop_heapIN9__gnu_cxx17__normal_iteratorIPSt5tupleIJlliEESt6vectorIS3_SaIS3_EEEESt7greaterIS3_EEvT_SB_T0_(%"class.std::tuple"* %0, %"class.std::tuple"* %1) local_unnamed_addr #16 comdat {
  %3 = alloca %"struct.__gnu_cxx::__ops::_Iter_comp_iter", align 1
  %4 = ptrtoint %"class.std::tuple"* %1 to i64
  %5 = ptrtoint %"class.std::tuple"* %0 to i64
  %6 = sub i64 %4, %5
  %7 = icmp sgt i64 %6, 24
  br i1 %7, label %8, label %11

8:                                                ; preds = %2
  %9 = getelementptr inbounds %"struct.__gnu_cxx::__ops::_Iter_comp_iter", %"struct.__gnu_cxx::__ops::_Iter_comp_iter"* %3, i64 0, i32 0, i32 0
  call void @llvm.lifetime.start.p0i8(i64 1, i8* nonnull %9) #19
  %10 = getelementptr inbounds %"class.std::tuple", %"class.std::tuple"* %1, i64 -1
  call void @_ZSt10__pop_heapIN9__gnu_cxx17__normal_iteratorIPSt5tupleIJlliEESt6vectorIS3_SaIS3_EEEENS0_5__ops15_Iter_comp_iterISt7greaterIS3_EEEEvT_SE_SE_RT0_(%"class.std::tuple"* %0, %"class.std::tuple"* nonnull %10, %"class.std::tuple"* nonnull %10, %"struct.__gnu_cxx::__ops::_Iter_comp_iter"* nonnull align 1 dereferenceable(1) %3) #20
  call void @llvm.lifetime.end.p0i8(i64 1, i8* nonnull %9) #19
  br label %11

11:                                               ; preds = %8, %2
  ret void
}

; Function Attrs: inlinehint minsize optsize sspstrong uwtable
define linkonce_odr dso_local void @_ZSt10__pop_heapIN9__gnu_cxx17__normal_iteratorIPSt5tupleIJlliEESt6vectorIS3_SaIS3_EEEENS0_5__ops15_Iter_comp_iterISt7greaterIS3_EEEEvT_SE_SE_RT0_(%"class.std::tuple"* %0, %"class.std::tuple"* %1, %"class.std::tuple"* %2, %"struct.__gnu_cxx::__ops::_Iter_comp_iter"* nonnull align 1 dereferenceable(1) %3) local_unnamed_addr #16 comdat personality i32 (...)* @__gxx_personality_v0 {
  %5 = alloca %"class.std::tuple", align 8
  %6 = getelementptr inbounds %"class.std::tuple", %"class.std::tuple"* %2, i64 0, i32 0, i32 0, i32 0, i32 0, i32 0
  %7 = load i32, i32* %6, align 8, !tbaa !21
  %8 = getelementptr inbounds %"class.std::tuple", %"class.std::tuple"* %2, i64 0, i32 0, i32 0, i32 1, i32 0
  %9 = getelementptr inbounds %"class.std::tuple", %"class.std::tuple"* %2, i64 0, i32 0, i32 1, i32 0
  %10 = bitcast i64* %8 to <2 x i64>*
  %11 = load <2 x i64>, <2 x i64>* %10, align 8, !tbaa !5
  %12 = getelementptr inbounds %"class.std::tuple", %"class.std::tuple"* %0, i64 0, i32 0, i32 1, i32 0
  %13 = load i64, i64* %12, align 8, !tbaa !5
  store i64 %13, i64* %9, align 8, !tbaa !5
  %14 = getelementptr inbounds %"class.std::tuple", %"class.std::tuple"* %0, i64 0, i32 0, i32 0, i32 1, i32 0
  %15 = load i64, i64* %14, align 8, !tbaa !5
  store i64 %15, i64* %8, align 8, !tbaa !5
  %16 = getelementptr inbounds %"class.std::tuple", %"class.std::tuple"* %0, i64 0, i32 0, i32 0, i32 0, i32 0, i32 0
  %17 = load i32, i32* %16, align 8, !tbaa !21
  store i32 %17, i32* %6, align 8, !tbaa !21
  %18 = ptrtoint %"class.std::tuple"* %1 to i64
  %19 = ptrtoint %"class.std::tuple"* %0 to i64
  %20 = sub i64 %18, %19
  %21 = sdiv exact i64 %20, 24
  %22 = getelementptr inbounds %"class.std::tuple", %"class.std::tuple"* %5, i64 0, i32 0, i32 0, i32 0, i32 0, i32 0
  store i32 %7, i32* %22, align 8, !tbaa !70
  %23 = getelementptr inbounds %"class.std::tuple", %"class.std::tuple"* %5, i64 0, i32 0, i32 0, i32 1, i32 0
  %24 = bitcast i64* %23 to <2 x i64>*
  store <2 x i64> %11, <2 x i64>* %24, align 8, !tbaa !5
  call void @_ZSt13__adjust_heapIN9__gnu_cxx17__normal_iteratorIPSt5tupleIJlliEESt6vectorIS3_SaIS3_EEEElS3_NS0_5__ops15_Iter_comp_iterISt7greaterIS3_EEEEvT_T0_SF_T1_T2_(%"class.std::tuple"* %0, i64 0, i64 %21, %"class.std::tuple"* nonnull %5) #20
  ret void
}

; Function Attrs: minsize optsize sspstrong uwtable
define linkonce_odr dso_local void @_ZSt13__adjust_heapIN9__gnu_cxx17__normal_iteratorIPSt5tupleIJlliEESt6vectorIS3_SaIS3_EEEElS3_NS0_5__ops15_Iter_comp_iterISt7greaterIS3_EEEEvT_T0_SF_T1_T2_(%"class.std::tuple"* %0, i64 %1, i64 %2, %"class.std::tuple"* %3) local_unnamed_addr #5 comdat personality i32 (...)* @__gxx_personality_v0 {
  %5 = alloca %"struct.__gnu_cxx::__ops::_Iter_comp_val", align 1
  %6 = alloca %"class.std::tuple", align 8
  %7 = add nsw i64 %2, -1
  %8 = sdiv i64 %7, 2
  br label %9

9:                                                ; preds = %12, %4
  %10 = phi i64 [ %1, %4 ], [ %19, %12 ]
  %11 = icmp slt i64 %10, %8
  br i1 %11, label %12, label %28

12:                                               ; preds = %9
  %13 = shl i64 %10, 1
  %14 = add i64 %13, 2
  %15 = getelementptr inbounds %"class.std::tuple", %"class.std::tuple"* %0, i64 %14
  %16 = or i64 %13, 1
  %17 = getelementptr inbounds %"class.std::tuple", %"class.std::tuple"* %0, i64 %16
  %18 = tail call zeroext i1 @_ZNSt15__tuple_compareISt5tupleIJlliEES1_Lm0ELm3EE6__lessERKS1_S4_(%"class.std::tuple"* nonnull align 8 dereferenceable(24) %17, %"class.std::tuple"* nonnull align 8 dereferenceable(24) %15) #20
  %19 = select i1 %18, i64 %16, i64 %14
  %20 = getelementptr inbounds %"class.std::tuple", %"class.std::tuple"* %0, i64 %19, i32 0, i32 0, i32 1, i32 0
  %21 = bitcast i64* %20 to <2 x i64>*
  %22 = load <2 x i64>, <2 x i64>* %21, align 8, !tbaa !5
  %23 = getelementptr inbounds %"class.std::tuple", %"class.std::tuple"* %0, i64 %10, i32 0, i32 0, i32 1, i32 0
  %24 = bitcast i64* %23 to <2 x i64>*
  store <2 x i64> %22, <2 x i64>* %24, align 8, !tbaa !5
  %25 = getelementptr inbounds %"class.std::tuple", %"class.std::tuple"* %0, i64 %19, i32 0, i32 0, i32 0, i32 0, i32 0
  %26 = load i32, i32* %25, align 8, !tbaa !21
  %27 = getelementptr inbounds %"class.std::tuple", %"class.std::tuple"* %0, i64 %10, i32 0, i32 0, i32 0, i32 0, i32 0
  store i32 %26, i32* %27, align 8, !tbaa !21
  br label %9, !llvm.loop !89

28:                                               ; preds = %9
  %29 = and i64 %2, 1
  %30 = icmp eq i64 %29, 0
  br i1 %30, label %31, label %47

31:                                               ; preds = %28
  %32 = add nsw i64 %2, -2
  %33 = sdiv i64 %32, 2
  %34 = icmp eq i64 %10, %33
  br i1 %34, label %35, label %47

35:                                               ; preds = %31
  %36 = shl i64 %10, 1
  %37 = or i64 %36, 1
  %38 = getelementptr inbounds %"class.std::tuple", %"class.std::tuple"* %0, i64 %37, i32 0, i32 1, i32 0
  %39 = load i64, i64* %38, align 8, !tbaa !5
  %40 = getelementptr inbounds %"class.std::tuple", %"class.std::tuple"* %0, i64 %10, i32 0, i32 1, i32 0
  store i64 %39, i64* %40, align 8, !tbaa !5
  %41 = getelementptr inbounds %"class.std::tuple", %"class.std::tuple"* %0, i64 %37, i32 0, i32 0, i32 1, i32 0
  %42 = load i64, i64* %41, align 8, !tbaa !5
  %43 = getelementptr inbounds %"class.std::tuple", %"class.std::tuple"* %0, i64 %10, i32 0, i32 0, i32 1, i32 0
  store i64 %42, i64* %43, align 8, !tbaa !5
  %44 = getelementptr inbounds %"class.std::tuple", %"class.std::tuple"* %0, i64 %37, i32 0, i32 0, i32 0, i32 0, i32 0
  %45 = load i32, i32* %44, align 8, !tbaa !21
  %46 = getelementptr inbounds %"class.std::tuple", %"class.std::tuple"* %0, i64 %10, i32 0, i32 0, i32 0, i32 0, i32 0
  store i32 %45, i32* %46, align 8, !tbaa !21
  br label %47

47:                                               ; preds = %35, %31, %28
  %48 = phi i64 [ %37, %35 ], [ %10, %31 ], [ %10, %28 ]
  %49 = getelementptr inbounds %"struct.__gnu_cxx::__ops::_Iter_comp_val", %"struct.__gnu_cxx::__ops::_Iter_comp_val"* %5, i64 0, i32 0, i32 0
  call void @llvm.lifetime.start.p0i8(i64 1, i8* nonnull %49) #19
  %50 = getelementptr inbounds %"class.std::tuple", %"class.std::tuple"* %3, i64 0, i32 0, i32 0, i32 0, i32 0, i32 0
  %51 = getelementptr inbounds %"class.std::tuple", %"class.std::tuple"* %6, i64 0, i32 0, i32 0, i32 0, i32 0, i32 0
  %52 = load i32, i32* %50, align 8, !tbaa !21
  store i32 %52, i32* %51, align 8, !tbaa !70
  %53 = getelementptr inbounds %"class.std::tuple", %"class.std::tuple"* %3, i64 0, i32 0, i32 0, i32 1, i32 0
  %54 = getelementptr inbounds %"class.std::tuple", %"class.std::tuple"* %6, i64 0, i32 0, i32 0, i32 1, i32 0
  %55 = bitcast i64* %53 to <2 x i64>*
  %56 = load <2 x i64>, <2 x i64>* %55, align 8, !tbaa !5
  %57 = bitcast i64* %54 to <2 x i64>*
  store <2 x i64> %56, <2 x i64>* %57, align 8, !tbaa !5
  call void @_ZSt11__push_heapIN9__gnu_cxx17__normal_iteratorIPSt5tupleIJlliEESt6vectorIS3_SaIS3_EEEElS3_NS0_5__ops14_Iter_comp_valISt7greaterIS3_EEEEvT_T0_SF_T1_RT2_(%"class.std::tuple"* %0, i64 %48, i64 %1, %"class.std::tuple"* nonnull %6, %"struct.__gnu_cxx::__ops::_Iter_comp_val"* nonnull align 1 dereferenceable(1) %5) #20
  call void @llvm.lifetime.end.p0i8(i64 1, i8* nonnull %49) #19
  ret void
}

; Function Attrs: minsize optsize sspstrong uwtable
define linkonce_odr dso_local void @_ZNSt6vectorISt5tupleIJlliEESaIS1_EE12emplace_backIJRllRiEEEvDpOT_(%"class.std::vector.20"* nonnull align 8 dereferenceable(24) %0, i64* nonnull align 8 dereferenceable(8) %1, i64* nonnull align 8 dereferenceable(8) %2, i32* nonnull align 4 dereferenceable(4) %3) local_unnamed_addr #5 comdat align 2 personality i32 (...)* @__gxx_personality_v0 {
  %5 = getelementptr inbounds %"class.std::vector.20", %"class.std::vector.20"* %0, i64 0, i32 0, i32 0, i32 0, i32 1
  %6 = load %"class.std::tuple"*, %"class.std::tuple"** %5, align 8, !tbaa !23
  %7 = getelementptr inbounds %"class.std::vector.20", %"class.std::vector.20"* %0, i64 0, i32 0, i32 0, i32 0, i32 2
  %8 = load %"class.std::tuple"*, %"class.std::tuple"** %7, align 8, !tbaa !69
  %9 = icmp eq %"class.std::tuple"* %6, %8
  br i1 %9, label %18, label %10

10:                                               ; preds = %4
  %11 = getelementptr inbounds %"class.std::tuple", %"class.std::tuple"* %6, i64 0, i32 0, i32 0, i32 0, i32 0, i32 0
  %12 = load i32, i32* %3, align 4, !tbaa !21
  store i32 %12, i32* %11, align 8, !tbaa !70
  %13 = getelementptr inbounds %"class.std::tuple", %"class.std::tuple"* %6, i64 0, i32 0, i32 0, i32 1, i32 0
  %14 = load i64, i64* %2, align 8, !tbaa !5
  store i64 %14, i64* %13, align 8, !tbaa !72
  %15 = getelementptr inbounds %"class.std::tuple", %"class.std::tuple"* %6, i64 0, i32 0, i32 1, i32 0
  %16 = load i64, i64* %1, align 8, !tbaa !5
  store i64 %16, i64* %15, align 8, !tbaa !74
  %17 = getelementptr inbounds %"class.std::tuple", %"class.std::tuple"* %6, i64 1
  store %"class.std::tuple"* %17, %"class.std::tuple"** %5, align 8, !tbaa !23
  br label %19

18:                                               ; preds = %4
  tail call void @_ZNSt6vectorISt5tupleIJlliEESaIS1_EE17_M_realloc_insertIJRllRiEEEvN9__gnu_cxx17__normal_iteratorIPS1_S3_EEDpOT_(%"class.std::vector.20"* nonnull align 8 dereferenceable(24) %0, %"class.std::tuple"* %6, i64* nonnull align 8 dereferenceable(8) %1, i64* nonnull align 8 dereferenceable(8) %2, i32* nonnull align 4 dereferenceable(4) %3) #20
  br label %19

19:                                               ; preds = %18, %10
  ret void
}

; Function Attrs: minsize optsize sspstrong uwtable
define linkonce_odr dso_local void @_ZNSt6vectorISt5tupleIJlliEESaIS1_EE17_M_realloc_insertIJRllRiEEEvN9__gnu_cxx17__normal_iteratorIPS1_S3_EEDpOT_(%"class.std::vector.20"* nonnull align 8 dereferenceable(24) %0, %"class.std::tuple"* %1, i64* nonnull align 8 dereferenceable(8) %2, i64* nonnull align 8 dereferenceable(8) %3, i32* nonnull align 4 dereferenceable(4) %4) local_unnamed_addr #5 comdat align 2 personality i32 (...)* @__gxx_personality_v0 {
  %6 = tail call i64 @_ZNKSt6vectorISt5tupleIJlliEESaIS1_EE12_M_check_lenEmPKc(%"class.std::vector.20"* nonnull align 8 dereferenceable(24) %0, i64 1, i8* getelementptr inbounds ([26 x i8], [26 x i8]* @.str.1, i64 0, i64 0)) #20
  %7 = getelementptr inbounds %"class.std::vector.20", %"class.std::vector.20"* %0, i64 0, i32 0
  %8 = getelementptr inbounds %"class.std::vector.20", %"class.std::vector.20"* %0, i64 0, i32 0, i32 0, i32 0, i32 0
  %9 = load %"class.std::tuple"*, %"class.std::tuple"** %8, align 8, !tbaa !25
  %10 = getelementptr inbounds %"class.std::vector.20", %"class.std::vector.20"* %0, i64 0, i32 0, i32 0, i32 0, i32 1
  %11 = load %"class.std::tuple"*, %"class.std::tuple"** %10, align 8, !tbaa !23
  %12 = ptrtoint %"class.std::tuple"* %1 to i64
  %13 = ptrtoint %"class.std::tuple"* %9 to i64
  %14 = sub i64 %12, %13
  %15 = sdiv exact i64 %14, 24
  %16 = tail call %"class.std::tuple"* @_ZNSt12_Vector_baseISt5tupleIJlliEESaIS1_EE11_M_allocateEm(%"struct.std::_Vector_base.21"* nonnull align 8 dereferenceable(24) %7, i64 %6) #20
  %17 = getelementptr inbounds %"class.std::tuple", %"class.std::tuple"* %16, i64 %15, i32 0, i32 0, i32 0, i32 0, i32 0
  %18 = load i32, i32* %4, align 4, !tbaa !21
  store i32 %18, i32* %17, align 8, !tbaa !70
  %19 = getelementptr inbounds %"class.std::tuple", %"class.std::tuple"* %16, i64 %15, i32 0, i32 0, i32 1, i32 0
  %20 = load i64, i64* %3, align 8, !tbaa !5
  store i64 %20, i64* %19, align 8, !tbaa !72
  %21 = getelementptr inbounds %"class.std::tuple", %"class.std::tuple"* %16, i64 %15, i32 0, i32 1, i32 0
  %22 = load i64, i64* %2, align 8, !tbaa !5
  store i64 %22, i64* %21, align 8, !tbaa !74
  %23 = bitcast %"class.std::vector.20"* %0 to %"class.std::allocator.22"*
  %24 = tail call %"class.std::tuple"* @_ZSt14__relocate_a_1IPSt5tupleIJlliEES2_SaIS1_EET0_T_S5_S4_RT1_(%"class.std::tuple"* %9, %"class.std::tuple"* %1, %"class.std::tuple"* %16, %"class.std::allocator.22"* nonnull align 1 dereferenceable(1) %23) #21
  %25 = getelementptr inbounds %"class.std::tuple", %"class.std::tuple"* %24, i64 1
  %26 = tail call %"class.std::tuple"* @_ZSt14__relocate_a_1IPSt5tupleIJlliEES2_SaIS1_EET0_T_S5_S4_RT1_(%"class.std::tuple"* %1, %"class.std::tuple"* %11, %"class.std::tuple"* nonnull %25, %"class.std::allocator.22"* nonnull align 1 dereferenceable(1) %23) #21
  %27 = icmp eq %"class.std::tuple"* %9, null
  br i1 %27, label %30, label %28

28:                                               ; preds = %5
  %29 = bitcast %"class.std::tuple"* %9 to i8*
  tail call void @_ZdlPv(i8* nonnull %29) #21
  br label %30

30:                                               ; preds = %5, %28
  %31 = getelementptr inbounds %"class.std::vector.20", %"class.std::vector.20"* %0, i64 0, i32 0, i32 0, i32 0, i32 2
  store %"class.std::tuple"* %16, %"class.std::tuple"** %8, align 8, !tbaa !25
  store %"class.std::tuple"* %26, %"class.std::tuple"** %10, align 8, !tbaa !23
  %32 = getelementptr inbounds %"class.std::tuple", %"class.std::tuple"* %16, i64 %6
  store %"class.std::tuple"* %32, %"class.std::tuple"** %31, align 8, !tbaa !69
  ret void
}

; Function Attrs: minsize optsize
declare nonnull align 8 dereferenceable(8) %"class.std::basic_ostream"* @_ZNSo9_M_insertIlEERSoT_(%"class.std::basic_ostream"* nonnull align 8 dereferenceable(8), i64) local_unnamed_addr #0

; Function Attrs: minsize optsize sspstrong uwtable
define internal void @_GLOBAL__sub_I_s841949033.cpp() #5 section ".text.startup" {
  tail call void @_ZNSt8ios_base4InitC1Ev(%"class.std::ios_base::Init"* nonnull align 1 dereferenceable(1) @_ZStL8__ioinit) #20
  %1 = tail call i32 @__cxa_atexit(void (i8*)* bitcast (void (%"class.std::ios_base::Init"*)* @_ZNSt8ios_base4InitD1Ev to void (i8*)*), i8* getelementptr inbounds (%"class.std::ios_base::Init", %"class.std::ios_base::Init"* @_ZStL8__ioinit, i64 0, i32 0), i8* nonnull @__dso_handle) #19
  ret void
}

; Function Attrs: inaccessiblememonly nofree nosync nounwind willreturn
declare void @llvm.experimental.noalias.scope.decl(metadata) #18

attributes #0 = { minsize optsize "frame-pointer"="none" "no-trapping-math"="true" "stack-protector-buffer-size"="8" "target-cpu"="x86-64" "target-features"="+cx8,+fxsr,+mmx,+sse,+sse2,+x87" "tune-cpu"="generic" }
attributes #1 = { minsize nounwind optsize "frame-pointer"="none" "no-trapping-math"="true" "stack-protector-buffer-size"="8" "target-cpu"="x86-64" "target-features"="+cx8,+fxsr,+mmx,+sse,+sse2,+x87" "tune-cpu"="generic" }
attributes #2 = { nofree nounwind }
attributes #3 = { minsize norecurse optsize sspstrong uwtable "frame-pointer"="none" "min-legal-vector-width"="0" "no-trapping-math"="true" "stack-protector-buffer-size"="8" "target-cpu"="x86-64" "target-features"="+cx8,+fxsr,+mmx,+sse,+sse2,+x87" "tune-cpu"="generic" }
attributes #4 = { argmemonly mustprogress nofree nosync nounwind willreturn }
attributes #5 = { minsize optsize sspstrong uwtable "frame-pointer"="none" "min-legal-vector-width"="0" "no-trapping-math"="true" "stack-protector-buffer-size"="8" "target-cpu"="x86-64" "target-features"="+cx8,+fxsr,+mmx,+sse,+sse2,+x87" "tune-cpu"="generic" }
attributes #6 = { minsize mustprogress nounwind optsize sspstrong uwtable "frame-pointer"="none" "min-legal-vector-width"="0" "no-trapping-math"="true" "stack-protector-buffer-size"="8" "target-cpu"="x86-64" "target-features"="+cx8,+fxsr,+mmx,+sse,+sse2,+x87" "tune-cpu"="generic" }
attributes #7 = { argmemonly mustprogress nofree nounwind willreturn }
attributes #8 = { inlinehint minsize mustprogress optsize sspstrong uwtable "frame-pointer"="none" "min-legal-vector-width"="0" "no-trapping-math"="true" "stack-protector-buffer-size"="8" "target-cpu"="x86-64" "target-features"="+cx8,+fxsr,+mmx,+sse,+sse2,+x87" "tune-cpu"="generic" }
attributes #9 = { minsize nounwind optsize sspstrong uwtable "frame-pointer"="none" "min-legal-vector-width"="0" "no-trapping-math"="true" "stack-protector-buffer-size"="8" "target-cpu"="x86-64" "target-features"="+cx8,+fxsr,+mmx,+sse,+sse2,+x87" "tune-cpu"="generic" }
attributes #10 = { noinline noreturn nounwind }
attributes #11 = { minsize mustprogress optsize sspstrong uwtable "frame-pointer"="none" "min-legal-vector-width"="0" "no-trapping-math"="true" "stack-protector-buffer-size"="8" "target-cpu"="x86-64" "target-features"="+cx8,+fxsr,+mmx,+sse,+sse2,+x87" "tune-cpu"="generic" }
attributes #12 = { minsize nobuiltin nounwind optsize "frame-pointer"="none" "no-trapping-math"="true" "stack-protector-buffer-size"="8" "target-cpu"="x86-64" "target-features"="+cx8,+fxsr,+mmx,+sse,+sse2,+x87" "tune-cpu"="generic" }
attributes #13 = { minsize noreturn optsize "frame-pointer"="none" "no-trapping-math"="true" "stack-protector-buffer-size"="8" "target-cpu"="x86-64" "target-features"="+cx8,+fxsr,+mmx,+sse,+sse2,+x87" "tune-cpu"="generic" }
attributes #14 = { minsize nobuiltin optsize allocsize(0) "frame-pointer"="none" "no-trapping-math"="true" "stack-protector-buffer-size"="8" "target-cpu"="x86-64" "target-features"="+cx8,+fxsr,+mmx,+sse,+sse2,+x87" "tune-cpu"="generic" }
attributes #15 = { argmemonly mustprogress nofree nounwind willreturn writeonly }
attributes #16 = { inlinehint minsize optsize sspstrong uwtable "frame-pointer"="none" "min-legal-vector-width"="0" "no-trapping-math"="true" "stack-protector-buffer-size"="8" "target-cpu"="x86-64" "target-features"="+cx8,+fxsr,+mmx,+sse,+sse2,+x87" "tune-cpu"="generic" }
attributes #17 = { inlinehint minsize nounwind optsize sspstrong uwtable "frame-pointer"="none" "min-legal-vector-width"="0" "no-trapping-math"="true" "stack-protector-buffer-size"="8" "target-cpu"="x86-64" "target-features"="+cx8,+fxsr,+mmx,+sse,+sse2,+x87" "tune-cpu"="generic" }
attributes #18 = { inaccessiblememonly nofree nosync nounwind willreturn }
attributes #19 = { nounwind }
attributes #20 = { minsize optsize }
attributes #21 = { minsize nounwind optsize }
attributes #22 = { noreturn nounwind }
attributes #23 = { minsize noreturn optsize }
attributes #24 = { minsize optsize allocsize(0) }
attributes #25 = { noreturn }

!llvm.module.flags = !{!0, !1, !2, !3}
!llvm.ident = !{!4}

!0 = !{i32 1, !"wchar_size", i32 4}
!1 = !{i32 7, !"PIC Level", i32 2}
!2 = !{i32 7, !"PIE Level", i32 2}
!3 = !{i32 7, !"uwtable", i32 1}
!4 = !{!"clang version 13.0.0"}
!5 = !{!6, !6, i64 0}
!6 = !{!"long", !7, i64 0}
!7 = !{!"omnipotent char", !8, i64 0}
!8 = !{!"Simple C++ TBAA"}
!9 = !{!10, !11, i64 0}
!10 = !{!"_ZTSNSt12_Vector_baseISt6vectorI4EdgeSaIS1_EESaIS3_EE17_Vector_impl_dataE", !11, i64 0, !11, i64 8, !11, i64 16}
!11 = !{!"any pointer", !7, i64 0}
!12 = distinct !{!12, !13}
!13 = !{!"llvm.loop.mustprogress"}
!14 = !{!15, !11, i64 0}
!15 = !{!"_ZTSNSt12_Vector_baseISt4pairIllESaIS1_EE17_Vector_impl_dataE", !11, i64 0, !11, i64 8, !11, i64 16}
!16 = distinct !{!16, !13}
!17 = !{!18, !11, i64 0}
!18 = !{!"_ZTSNSt12_Vector_baseISt6vectorIlSaIlEESaIS2_EE17_Vector_impl_dataE", !11, i64 0, !11, i64 8, !11, i64 16}
!19 = !{!20, !11, i64 0}
!20 = !{!"_ZTSNSt12_Vector_baseIlSaIlEE17_Vector_impl_dataE", !11, i64 0, !11, i64 8, !11, i64 16}
!21 = !{!22, !22, i64 0}
!22 = !{!"int", !7, i64 0}
!23 = !{!24, !11, i64 8}
!24 = !{!"_ZTSNSt12_Vector_baseISt5tupleIJlliEESaIS1_EE17_Vector_impl_dataE", !11, i64 0, !11, i64 8, !11, i64 16}
!25 = !{!24, !11, i64 0}
!26 = !{!11, !11, i64 0}
!27 = !{!28}
!28 = distinct !{!28, !29, !"_ZSt3tieIJlliEESt5tupleIJDpRT_EES3_: argument 0"}
!29 = distinct !{!29, !"_ZSt3tieIJlliEESt5tupleIJDpRT_EES3_"}
!30 = !{!31, !6, i64 0}
!31 = !{!"_ZTSSt4pairIllE", !6, i64 0, !6, i64 8}
!32 = distinct !{!32, !13}
!33 = !{i64 0, i64 4, !21, i64 8, i64 8, !5, i64 16, i64 8, !5}
!34 = !{!35, !6, i64 8}
!35 = !{!"_ZTS4Edge", !22, i64 0, !6, i64 8, !6, i64 16}
!36 = !{!35, !22, i64 0}
!37 = !{!35, !6, i64 16}
!38 = !{!31, !6, i64 8}
!39 = distinct !{!39, !13}
!40 = !{!41, !11, i64 8}
!41 = !{!"_ZTSNSt12_Vector_baseI4EdgeSaIS0_EE17_Vector_impl_dataE", !11, i64 0, !11, i64 8, !11, i64 16}
!42 = !{!41, !11, i64 16}
!43 = !{!18, !11, i64 8}
!44 = !{!10, !11, i64 8}
!45 = distinct !{!45, !13}
!46 = !{!10, !11, i64 16}
!47 = !{!"branch_weights", i32 1, i32 2000}
!48 = distinct !{!48, !13}
!49 = distinct !{!49, !13}
!50 = !{!41, !11, i64 0}
!51 = !{!15, !11, i64 8}
!52 = !{!15, !11, i64 16}
!53 = distinct !{!53, !13}
!54 = !{!55, !57}
!55 = distinct !{!55, !56, !"_ZSt19__relocate_object_aI4EdgeS0_SaIS0_EEvPT_PT0_RT1_: argument 0"}
!56 = distinct !{!56, !"_ZSt19__relocate_object_aI4EdgeS0_SaIS0_EEvPT_PT0_RT1_"}
!57 = distinct !{!57, !56, !"_ZSt19__relocate_object_aI4EdgeS0_SaIS0_EEvPT_PT0_RT1_: argument 1"}
!58 = distinct !{!58, !13}
!59 = !{!60, !62}
!60 = distinct !{!60, !61, !"_ZSt19__relocate_object_aI4EdgeS0_SaIS0_EEvPT_PT0_RT1_: argument 0"}
!61 = distinct !{!61, !"_ZSt19__relocate_object_aI4EdgeS0_SaIS0_EEvPT_PT0_RT1_"}
!62 = distinct !{!62, !61, !"_ZSt19__relocate_object_aI4EdgeS0_SaIS0_EEvPT_PT0_RT1_: argument 1"}
!63 = !{!20, !11, i64 8}
!64 = !{!20, !11, i64 16}
!65 = distinct !{!65, !13}
!66 = !{!18, !11, i64 16}
!67 = distinct !{!67, !13}
!68 = distinct !{!68, !13}
!69 = !{!24, !11, i64 16}
!70 = !{!71, !22, i64 0}
!71 = !{!"_ZTSSt10_Head_baseILm2EiLb0EE", !22, i64 0}
!72 = !{!73, !6, i64 0}
!73 = !{!"_ZTSSt10_Head_baseILm1ElLb0EE", !6, i64 0}
!74 = !{!75, !6, i64 0}
!75 = !{!"_ZTSSt10_Head_baseILm0ElLb0EE", !6, i64 0}
!76 = !{!77}
!77 = distinct !{!77, !78, !"_ZSt19__relocate_object_aISt5tupleIJlliEES1_SaIS1_EEvPT_PT0_RT1_: argument 0"}
!78 = distinct !{!78, !"_ZSt19__relocate_object_aISt5tupleIJlliEES1_SaIS1_EEvPT_PT0_RT1_"}
!79 = !{!80}
!80 = distinct !{!80, !78, !"_ZSt19__relocate_object_aISt5tupleIJlliEES1_SaIS1_EEvPT_PT0_RT1_: argument 1"}
!81 = distinct !{!81, !13}
!82 = distinct !{!82, !13}
!83 = !{!84, !11, i64 0}
!84 = !{!"_ZTSSt10_Head_baseILm0ERlLb0EE", !11, i64 0}
!85 = !{!86, !11, i64 0}
!86 = !{!"_ZTSSt10_Head_baseILm1ERlLb0EE", !11, i64 0}
!87 = !{!88, !11, i64 0}
!88 = !{!"_ZTSSt10_Head_baseILm2ERiLb0EE", !11, i64 0}
!89 = distinct !{!89, !13}
