; ModuleID = 'Project_CodeNet_C++1400/p02703/s968463828.cpp'
source_filename = "Project_CodeNet_C++1400/p02703/s968463828.cpp"
target datalayout = "e-m:e-p270:32:32-p271:32:32-p272:64:64-i64:64-f80:128-n8:16:32:64-S128"
target triple = "x86_64-pc-linux-gnu"

%"class.std::ios_base::Init" = type { i8 }
%"class.std::vector" = type { %"struct.std::_Vector_base" }
%"struct.std::_Vector_base" = type { %"struct.std::_Vector_base<long long, std::allocator<long long>>::_Vector_impl" }
%"struct.std::_Vector_base<long long, std::allocator<long long>>::_Vector_impl" = type { %"struct.std::_Vector_base<long long, std::allocator<long long>>::_Vector_impl_data" }
%"struct.std::_Vector_base<long long, std::allocator<long long>>::_Vector_impl_data" = type { i64*, i64*, i64* }
%"class.std::vector.0" = type { %"struct.std::_Vector_base.1" }
%"struct.std::_Vector_base.1" = type { %"struct.std::_Vector_base<std::vector<edge>, std::allocator<std::vector<edge>>>::_Vector_impl" }
%"struct.std::_Vector_base<std::vector<edge>, std::allocator<std::vector<edge>>>::_Vector_impl" = type { %"struct.std::_Vector_base<std::vector<edge>, std::allocator<std::vector<edge>>>::_Vector_impl_data" }
%"struct.std::_Vector_base<std::vector<edge>, std::allocator<std::vector<edge>>>::_Vector_impl_data" = type { %"class.std::vector.5"*, %"class.std::vector.5"*, %"class.std::vector.5"* }
%"class.std::vector.5" = type { %"struct.std::_Vector_base.6" }
%"struct.std::_Vector_base.6" = type { %"struct.std::_Vector_base<edge, std::allocator<edge>>::_Vector_impl" }
%"struct.std::_Vector_base<edge, std::allocator<edge>>::_Vector_impl" = type { %"struct.std::_Vector_base<edge, std::allocator<edge>>::_Vector_impl_data" }
%"struct.std::_Vector_base<edge, std::allocator<edge>>::_Vector_impl_data" = type { %struct.edge*, %struct.edge*, %struct.edge* }
%struct.edge = type { i64, i64 }
%"class.std::basic_istream" = type { i32 (...)**, i64, %"class.std::basic_ios" }
%"class.std::basic_ios" = type { %"class.std::ios_base", %"class.std::basic_ostream"*, i8, i8, %"class.std::basic_streambuf"*, %"class.std::ctype"*, %"class.std::num_put"*, %"class.std::num_get"* }
%"class.std::ios_base" = type { i32 (...)**, i64, i64, i32, i32, i32, %"struct.std::ios_base::_Callback_list"*, %"struct.std::ios_base::_Words", [8 x %"struct.std::ios_base::_Words"], i32, %"struct.std::ios_base::_Words"*, %"class.std::locale" }
%"struct.std::ios_base::_Callback_list" = type { %"struct.std::ios_base::_Callback_list"*, void (i32, %"class.std::ios_base"*, i32)*, i32, i32 }
%"struct.std::ios_base::_Words" = type { i8*, i64 }
%"class.std::locale" = type { %"class.std::locale::_Impl"* }
%"class.std::locale::_Impl" = type { i32, %"class.std::locale::facet"**, i64, %"class.std::locale::facet"**, i8** }
%"class.std::locale::facet" = type <{ i32 (...)**, i32, [4 x i8] }>
%"class.std::basic_ostream" = type { i32 (...)**, %"class.std::basic_ios" }
%"class.std::basic_streambuf" = type { i32 (...)**, i8*, i8*, i8*, i8*, i8*, i8*, %"class.std::locale" }
%"class.std::ctype" = type <{ %"class.std::locale::facet.base", [4 x i8], %struct.__locale_struct*, i8, [7 x i8], i32*, i32*, i16*, i8, [256 x i8], [256 x i8], i8, [6 x i8] }>
%"class.std::locale::facet.base" = type <{ i32 (...)**, i32 }>
%struct.__locale_struct = type { [13 x %struct.__locale_data*], i16*, i32*, i32*, [13 x i8*] }
%struct.__locale_data = type opaque
%"class.std::num_put" = type { %"class.std::locale::facet.base", [4 x i8] }
%"class.std::num_get" = type { %"class.std::locale::facet.base", [4 x i8] }
%"class.std::allocator" = type { i8 }
%"class.std::allocator.2" = type { i8 }
%"class.std::priority_queue" = type <{ %"class.std::vector.10", %"struct.std::greater", [7 x i8] }>
%"class.std::vector.10" = type { %"struct.std::_Vector_base.11" }
%"struct.std::_Vector_base.11" = type { %"struct.std::_Vector_base<std::pair<long long, long long>, std::allocator<std::pair<long long, long long>>>::_Vector_impl" }
%"struct.std::_Vector_base<std::pair<long long, long long>, std::allocator<std::pair<long long, long long>>>::_Vector_impl" = type { %"struct.std::_Vector_base<std::pair<long long, long long>, std::allocator<std::pair<long long, long long>>>::_Vector_impl_data" }
%"struct.std::_Vector_base<std::pair<long long, long long>, std::allocator<std::pair<long long, long long>>>::_Vector_impl_data" = type { %"struct.std::pair"*, %"struct.std::pair"*, %"struct.std::pair"* }
%"struct.std::pair" = type { i64, i64 }
%"struct.std::greater" = type { i8 }
%"class.__gnu_cxx::new_allocator" = type { i8 }
%"class.__gnu_cxx::new_allocator.3" = type { i8 }
%"class.std::allocator.7" = type { i8 }
%"class.__gnu_cxx::new_allocator.8" = type { i8 }
%"struct.__gnu_cxx::__ops::_Iter_comp_val" = type { %"struct.std::greater" }
%"class.std::allocator.12" = type { i8 }
%"class.__gnu_cxx::new_allocator.13" = type { i8 }
%"struct.__gnu_cxx::__ops::_Iter_comp_iter" = type { %"struct.std::greater" }

$_ZNSt6vectorIxSaIxEED2Ev = comdat any

$_ZNSt6vectorIS_I4edgeSaIS0_EESaIS2_EED2Ev = comdat any

$_ZNSt6vectorIxSaIxEEC2EmRKS0_ = comdat any

$_ZNSt6vectorIS_I4edgeSaIS0_EESaIS2_EEC2EmRKS3_ = comdat any

$_ZNSt6vectorIxSaIxEEC2EmRKxRKS0_ = comdat any

$_ZNSt14priority_queueISt4pairIxxESt6vectorIS1_SaIS1_EESt7greaterIS1_EE4pushEOS1_ = comdat any

$_ZNSt14priority_queueISt4pairIxxESt6vectorIS1_SaIS1_EESt7greaterIS1_EE3popEv = comdat any

$_ZNSt12_Vector_baseISt4pairIxxESaIS1_EED2Ev = comdat any

$__clang_call_terminate = comdat any

$_ZNSt12_Vector_baseIxSaIxEED2Ev = comdat any

$_ZNSt12_Vector_baseISt6vectorI4edgeSaIS1_EESaIS3_EED2Ev = comdat any

$_ZNSt12_Destroy_auxILb0EE9__destroyIPSt6vectorI4edgeSaIS3_EEEEvT_S7_ = comdat any

$_ZNSt12_Vector_baseI4edgeSaIS0_EED2Ev = comdat any

$_ZNSt6vectorIxSaIxEE17_S_check_init_lenEmRKS0_ = comdat any

$_ZNSt6vectorIxSaIxEE21_M_default_initializeEm = comdat any

$_ZNSt12_Vector_baseIxSaIxEE17_M_create_storageEm = comdat any

$_ZNSt12_Vector_baseIxSaIxEE11_M_allocateEm = comdat any

$_ZNSt16allocator_traitsISaIxEE8allocateERS0_m = comdat any

$_ZN9__gnu_cxx13new_allocatorIxE8allocateEmPKv = comdat any

$_ZNSt27__uninitialized_default_n_1ILb1EE18__uninit_default_nIPxmEET_S3_T0_ = comdat any

$_ZSt10__fill_n_aIPxmxET_S1_T0_RKT1_St26random_access_iterator_tag = comdat any

$_ZNSt6vectorIxSaIxEE14_M_move_assignEOS1_St17integral_constantIbLb1EE = comdat any

$_ZNSt12_Vector_baseIxSaIxEE17_Vector_impl_data12_M_swap_dataERS2_ = comdat any

$_ZNSt6vectorIS_I4edgeSaIS0_EESaIS2_EE17_S_check_init_lenEmRKS3_ = comdat any

$_ZNSt6vectorIS_I4edgeSaIS0_EESaIS2_EE21_M_default_initializeEm = comdat any

$_ZNSt12_Vector_baseISt6vectorI4edgeSaIS1_EESaIS3_EE17_M_create_storageEm = comdat any

$_ZNSt12_Vector_baseISt6vectorI4edgeSaIS1_EESaIS3_EE11_M_allocateEm = comdat any

$_ZNSt16allocator_traitsISaISt6vectorI4edgeSaIS1_EEEE8allocateERS4_m = comdat any

$_ZN9__gnu_cxx13new_allocatorISt6vectorI4edgeSaIS2_EEE8allocateEmPKv = comdat any

$_ZNSt27__uninitialized_default_n_1ILb0EE18__uninit_default_nIPSt6vectorI4edgeSaIS3_EEmEET_S7_T0_ = comdat any

$_ZNSt6vectorIS_I4edgeSaIS0_EESaIS2_EE14_M_move_assignEOS4_St17integral_constantIbLb1EE = comdat any

$_ZNSt12_Vector_baseISt6vectorI4edgeSaIS1_EESaIS3_EE17_Vector_impl_data12_M_swap_dataERS6_ = comdat any

$_ZNSt6vectorI4edgeSaIS0_EE12emplace_backIJS0_EEEvDpOT_ = comdat any

$_ZNSt6vectorI4edgeSaIS0_EE17_M_realloc_insertIJS0_EEEvN9__gnu_cxx17__normal_iteratorIPS0_S2_EEDpOT_ = comdat any

$_ZNKSt6vectorI4edgeSaIS0_EE12_M_check_lenEmPKc = comdat any

$_ZNSt12_Vector_baseI4edgeSaIS0_EE11_M_allocateEm = comdat any

$_ZNSt16allocator_traitsISaI4edgeEE8allocateERS1_m = comdat any

$_ZN9__gnu_cxx13new_allocatorI4edgeE8allocateEmPKv = comdat any

$_ZNSt6vectorIxSaIxEE18_M_fill_initializeEmRKx = comdat any

$_ZSt9push_heapIN9__gnu_cxx17__normal_iteratorIPSt4pairIxxESt6vectorIS3_SaIS3_EEEESt7greaterIS3_EEvT_SB_T0_ = comdat any

$_ZNSt6vectorISt4pairIxxESaIS1_EE12emplace_backIJS1_EEEvDpOT_ = comdat any

$_ZNSt6vectorISt4pairIxxESaIS1_EE17_M_realloc_insertIJS1_EEEvN9__gnu_cxx17__normal_iteratorIPS1_S3_EEDpOT_ = comdat any

$_ZNKSt6vectorISt4pairIxxESaIS1_EE12_M_check_lenEmPKc = comdat any

$_ZNSt12_Vector_baseISt4pairIxxESaIS1_EE11_M_allocateEm = comdat any

$_ZNSt16allocator_traitsISaISt4pairIxxEEE8allocateERS2_m = comdat any

$_ZN9__gnu_cxx13new_allocatorISt4pairIxxEE8allocateEmPKv = comdat any

$_ZSt11__push_heapIN9__gnu_cxx17__normal_iteratorIPSt4pairIxxESt6vectorIS3_SaIS3_EEEElS3_NS0_5__ops14_Iter_comp_valISt7greaterIS3_EEEEvT_T0_SF_T1_RT2_ = comdat any

$_ZStltIxxEbRKSt4pairIT_T0_ES5_ = comdat any

$_ZSt8pop_heapIN9__gnu_cxx17__normal_iteratorIPSt4pairIxxESt6vectorIS3_SaIS3_EEEESt7greaterIS3_EEvT_SB_T0_ = comdat any

$_ZSt10__pop_heapIN9__gnu_cxx17__normal_iteratorIPSt4pairIxxESt6vectorIS3_SaIS3_EEEENS0_5__ops15_Iter_comp_iterISt7greaterIS3_EEEEvT_SE_SE_RT0_ = comdat any

$_ZSt13__adjust_heapIN9__gnu_cxx17__normal_iteratorIPSt4pairIxxESt6vectorIS3_SaIS3_EEEElS3_NS0_5__ops15_Iter_comp_iterISt7greaterIS3_EEEEvT_T0_SF_T1_T2_ = comdat any

@_ZStL8__ioinit = internal global %"class.std::ios_base::Init" zeroinitializer, align 1
@__dso_handle = external hidden global i8
@N = dso_local global i64 0, align 8
@M = dso_local global i64 0, align 8
@S = dso_local global i64 0, align 8
@U = dso_local global %"class.std::vector" zeroinitializer, align 8
@V = dso_local global %"class.std::vector" zeroinitializer, align 8
@A = dso_local global %"class.std::vector" zeroinitializer, align 8
@B = dso_local global %"class.std::vector" zeroinitializer, align 8
@C = dso_local global %"class.std::vector" zeroinitializer, align 8
@D = dso_local global %"class.std::vector" zeroinitializer, align 8
@Amax = dso_local local_unnamed_addr global i64 0, align 8
@Cmax = dso_local local_unnamed_addr global i64 0, align 8
@Nn = dso_local local_unnamed_addr global i64 0, align 8
@e = dso_local global %"class.std::vector.0" zeroinitializer, align 8
@_ZSt3cin = external global %"class.std::basic_istream", align 8
@_ZSt4cout = external global %"class.std::basic_ostream", align 8
@.str = private unnamed_addr constant [49 x i8] c"cannot create std::vector larger than max_size()\00", align 1
@.str.8 = private unnamed_addr constant [26 x i8] c"vector::_M_realloc_insert\00", align 1
@llvm.global_ctors = appending global [1 x { i32, void ()*, i8* }] [{ i32, void ()*, i8* } { i32 65535, void ()* @_GLOBAL__sub_I_s968463828.cpp, i8* null }]

; Function Attrs: minsize optsize
declare void @_ZNSt8ios_base4InitC1Ev(%"class.std::ios_base::Init"* nonnull align 1 dereferenceable(1)) unnamed_addr #0

; Function Attrs: minsize nounwind optsize
declare void @_ZNSt8ios_base4InitD1Ev(%"class.std::ios_base::Init"* nonnull align 1 dereferenceable(1)) unnamed_addr #1

; Function Attrs: nofree nounwind
declare i32 @__cxa_atexit(void (i8*)*, i8*, i8*) local_unnamed_addr #2

; Function Attrs: minsize mustprogress nofree norecurse nosync nounwind optsize readnone sspstrong uwtable willreturn
define dso_local i64 @_Z3modxx(i64 %0, i64 %1) local_unnamed_addr #3 {
  %3 = srem i64 %0, %1
  %4 = icmp slt i64 %3, 0
  %5 = select i1 %4, i64 %1, i64 0
  %6 = add nsw i64 %5, %3
  ret i64 %6
}

; Function Attrs: argmemonly mustprogress nofree nosync nounwind willreturn
declare void @llvm.lifetime.start.p0i8(i64 immarg, i8* nocapture) #4

; Function Attrs: argmemonly mustprogress nofree nosync nounwind willreturn
declare void @llvm.lifetime.end.p0i8(i64 immarg, i8* nocapture) #4

; Function Attrs: minsize mustprogress nofree norecurse nosync nounwind optsize readnone sspstrong uwtable willreturn
define dso_local i64 @_Z6modpowxxx(i64 %0, i64 %1, i64 %2) local_unnamed_addr #3 {
  br label %4

4:                                                ; preds = %15, %3
  %5 = phi i64 [ %1, %3 ], [ %19, %15 ]
  %6 = phi i64 [ %0, %3 ], [ %18, %15 ]
  %7 = phi i64 [ 1, %3 ], [ %16, %15 ]
  %8 = icmp sgt i64 %5, 0
  br i1 %8, label %9, label %20

9:                                                ; preds = %4
  %10 = and i64 %5, 1
  %11 = icmp eq i64 %10, 0
  br i1 %11, label %15, label %12

12:                                               ; preds = %9
  %13 = mul nsw i64 %7, %6
  %14 = srem i64 %13, %2
  br label %15

15:                                               ; preds = %12, %9
  %16 = phi i64 [ %14, %12 ], [ %7, %9 ]
  %17 = mul nsw i64 %6, %6
  %18 = srem i64 %17, %2
  %19 = lshr i64 %5, 1
  br label %4, !llvm.loop !5

20:                                               ; preds = %4
  ret i64 %7
}

; Function Attrs: minsize mustprogress nofree norecurse nosync nounwind optsize readnone sspstrong uwtable willreturn
define dso_local i64 @_Z6modinvxx(i64 %0, i64 %1) local_unnamed_addr #3 {
  %3 = add nsw i64 %1, -2
  %4 = tail call i64 @_Z6modpowxxx(i64 %0, i64 %3, i64 %1) #20
  ret i64 %4
}

; Function Attrs: minsize mustprogress nofree nosync nounwind optsize readnone sspstrong uwtable willreturn
define dso_local i64 @_Z3gcdxx(i64 %0, i64 %1) local_unnamed_addr #5 {
  br label %3

3:                                                ; preds = %3, %2
  %4 = phi i64 [ %0, %2 ], [ %5, %3 ]
  %5 = phi i64 [ %1, %2 ], [ %6, %3 ]
  %6 = srem i64 %4, %5
  %7 = icmp eq i64 %6, 0
  br i1 %7, label %8, label %3

8:                                                ; preds = %3
  ret i64 %5
}

; Function Attrs: minsize mustprogress nofree norecurse nosync nounwind optsize readnone sspstrong uwtable willreturn
define dso_local zeroext i1 @_Z8is_primex(i64 %0) local_unnamed_addr #3 {
  switch i64 %0, label %3 [
    i64 1, label %18
    i64 2, label %2
  ]

2:                                                ; preds = %1
  br label %18

3:                                                ; preds = %1, %9
  %4 = phi i64 [ %12, %9 ], [ 2, %1 ]
  %5 = phi i8 [ %11, %9 ], [ 1, %1 ]
  %6 = mul nsw i64 %4, %4
  %7 = icmp slt i64 %6, %0
  %8 = srem i64 %0, %4
  br i1 %7, label %9, label %13

9:                                                ; preds = %3
  %10 = icmp eq i64 %8, 0
  %11 = select i1 %10, i8 0, i8 %5
  %12 = add nuw nsw i64 %4, 1
  br label %3, !llvm.loop !7

13:                                               ; preds = %3
  %14 = icmp ne i64 %8, 0
  %15 = and i8 %5, 1
  %16 = icmp ne i8 %15, 0
  %17 = select i1 %14, i1 %16, i1 false
  br label %18

18:                                               ; preds = %1, %13, %2
  %19 = phi i1 [ true, %2 ], [ %17, %13 ], [ false, %1 ]
  ret i1 %19
}

; Function Attrs: minsize nounwind optsize sspstrong uwtable
define linkonce_odr dso_local void @_ZNSt6vectorIxSaIxEED2Ev(%"class.std::vector"* nonnull align 8 dereferenceable(24) %0) unnamed_addr #6 comdat align 2 personality i8* bitcast (i32 (...)* @__gxx_personality_v0 to i8*) {
  %2 = getelementptr inbounds %"class.std::vector", %"class.std::vector"* %0, i64 0, i32 0
  tail call void @_ZNSt12_Vector_baseIxSaIxEED2Ev(%"struct.std::_Vector_base"* nonnull align 8 dereferenceable(24) %2) #21
  ret void
}

; Function Attrs: minsize nounwind optsize sspstrong uwtable
define linkonce_odr dso_local void @_ZNSt6vectorIS_I4edgeSaIS0_EESaIS2_EED2Ev(%"class.std::vector.0"* nonnull align 8 dereferenceable(24) %0) unnamed_addr #6 comdat align 2 personality i8* bitcast (i32 (...)* @__gxx_personality_v0 to i8*) {
  %2 = getelementptr inbounds %"class.std::vector.0", %"class.std::vector.0"* %0, i64 0, i32 0
  %3 = getelementptr inbounds %"class.std::vector.0", %"class.std::vector.0"* %0, i64 0, i32 0, i32 0, i32 0, i32 0
  %4 = load %"class.std::vector.5"*, %"class.std::vector.5"** %3, align 8, !tbaa !8
  %5 = getelementptr inbounds %"class.std::vector.0", %"class.std::vector.0"* %0, i64 0, i32 0, i32 0, i32 0, i32 1
  %6 = load %"class.std::vector.5"*, %"class.std::vector.5"** %5, align 8, !tbaa !13
  invoke void @_ZNSt12_Destroy_auxILb0EE9__destroyIPSt6vectorI4edgeSaIS3_EEEEvT_S7_(%"class.std::vector.5"* %4, %"class.std::vector.5"* %6) #20
          to label %7 unwind label %8

7:                                                ; preds = %1
  tail call void @_ZNSt12_Vector_baseISt6vectorI4edgeSaIS1_EESaIS3_EED2Ev(%"struct.std::_Vector_base.1"* nonnull align 8 dereferenceable(24) %2) #21
  ret void

8:                                                ; preds = %1
  %9 = landingpad { i8*, i32 }
          catch i8* null
  %10 = extractvalue { i8*, i32 } %9, 0
  tail call void @_ZNSt12_Vector_baseISt6vectorI4edgeSaIS1_EESaIS3_EED2Ev(%"struct.std::_Vector_base.1"* nonnull align 8 dereferenceable(24) %2) #21
  tail call void @__clang_call_terminate(i8* %10) #22
  unreachable
}

; Function Attrs: minsize mustprogress nofree norecurse nosync nounwind optsize readonly sspstrong uwtable willreturn
define dso_local i64 @_Z5statexx(i64 %0, i64 %1) local_unnamed_addr #7 {
  %3 = load i64, i64* @Cmax, align 8, !tbaa !14
  %4 = add nsw i64 %3, 1
  %5 = mul nsw i64 %4, %0
  %6 = add nsw i64 %5, %1
  ret i64 %6
}

; Function Attrs: minsize norecurse optsize sspstrong uwtable
define dso_local i32 @main() local_unnamed_addr #8 personality i8* bitcast (i32 (...)* @__gxx_personality_v0 to i8*) {
  %1 = alloca %"class.std::vector", align 8
  %2 = alloca %"class.std::allocator", align 1
  %3 = alloca %"class.std::vector", align 8
  %4 = alloca %"class.std::allocator", align 1
  %5 = alloca %"class.std::vector", align 8
  %6 = alloca %"class.std::allocator", align 1
  %7 = alloca %"class.std::vector", align 8
  %8 = alloca %"class.std::allocator", align 1
  %9 = alloca %"class.std::vector", align 8
  %10 = alloca %"class.std::allocator", align 1
  %11 = alloca %"class.std::vector", align 8
  %12 = alloca %"class.std::allocator", align 1
  %13 = alloca %"class.std::vector.0", align 8
  %14 = alloca %"class.std::allocator.2", align 1
  %15 = alloca %struct.edge, align 8
  %16 = alloca %struct.edge, align 8
  %17 = alloca %struct.edge, align 8
  %18 = alloca %"class.std::vector", align 8
  %19 = alloca i64, align 8
  %20 = alloca %"class.std::allocator", align 1
  %21 = alloca %"class.std::priority_queue", align 8
  %22 = alloca %"struct.std::pair", align 8
  %23 = alloca %"struct.std::pair", align 8
  %24 = tail call nonnull align 8 dereferenceable(16) %"class.std::basic_istream"* @_ZNSi10_M_extractIxEERSiRT_(%"class.std::basic_istream"* nonnull align 8 dereferenceable(16) @_ZSt3cin, i64* nonnull align 8 dereferenceable(8) @N) #20
  %25 = tail call nonnull align 8 dereferenceable(16) %"class.std::basic_istream"* @_ZNSi10_M_extractIxEERSiRT_(%"class.std::basic_istream"* nonnull align 8 dereferenceable(16) %24, i64* nonnull align 8 dereferenceable(8) @M) #20
  %26 = tail call nonnull align 8 dereferenceable(16) %"class.std::basic_istream"* @_ZNSi10_M_extractIxEERSiRT_(%"class.std::basic_istream"* nonnull align 8 dereferenceable(16) %25, i64* nonnull align 8 dereferenceable(8) @S) #20
  %27 = bitcast %"class.std::vector"* %1 to i8*
  call void @llvm.lifetime.start.p0i8(i64 24, i8* nonnull %27) #23
  %28 = load i64, i64* @M, align 8, !tbaa !14
  %29 = getelementptr inbounds %"class.std::allocator", %"class.std::allocator"* %2, i64 0, i32 0
  call void @llvm.lifetime.start.p0i8(i64 1, i8* nonnull %29) #23
  call void @_ZNSt6vectorIxSaIxEEC2EmRKS0_(%"class.std::vector"* nonnull align 8 dereferenceable(24) %1, i64 %28, %"class.std::allocator"* nonnull align 1 dereferenceable(1) %2) #20
  call void @_ZNSt6vectorIxSaIxEE14_M_move_assignEOS1_St17integral_constantIbLb1EE(%"class.std::vector"* nonnull align 8 dereferenceable(24) @U, %"class.std::vector"* nonnull align 8 dereferenceable(24) %1) #21
  %30 = getelementptr inbounds %"class.std::vector", %"class.std::vector"* %1, i64 0, i32 0
  call void @_ZNSt12_Vector_baseIxSaIxEED2Ev(%"struct.std::_Vector_base"* nonnull align 8 dereferenceable(24) %30) #21
  call void @llvm.lifetime.end.p0i8(i64 1, i8* nonnull %29) #23
  call void @llvm.lifetime.end.p0i8(i64 24, i8* nonnull %27) #23
  %31 = bitcast %"class.std::vector"* %3 to i8*
  call void @llvm.lifetime.start.p0i8(i64 24, i8* nonnull %31) #23
  %32 = load i64, i64* @M, align 8, !tbaa !14
  %33 = getelementptr inbounds %"class.std::allocator", %"class.std::allocator"* %4, i64 0, i32 0
  call void @llvm.lifetime.start.p0i8(i64 1, i8* nonnull %33) #23
  call void @_ZNSt6vectorIxSaIxEEC2EmRKS0_(%"class.std::vector"* nonnull align 8 dereferenceable(24) %3, i64 %32, %"class.std::allocator"* nonnull align 1 dereferenceable(1) %4) #20
  call void @_ZNSt6vectorIxSaIxEE14_M_move_assignEOS1_St17integral_constantIbLb1EE(%"class.std::vector"* nonnull align 8 dereferenceable(24) @V, %"class.std::vector"* nonnull align 8 dereferenceable(24) %3) #21
  %34 = getelementptr inbounds %"class.std::vector", %"class.std::vector"* %3, i64 0, i32 0
  call void @_ZNSt12_Vector_baseIxSaIxEED2Ev(%"struct.std::_Vector_base"* nonnull align 8 dereferenceable(24) %34) #21
  call void @llvm.lifetime.end.p0i8(i64 1, i8* nonnull %33) #23
  call void @llvm.lifetime.end.p0i8(i64 24, i8* nonnull %31) #23
  %35 = bitcast %"class.std::vector"* %5 to i8*
  call void @llvm.lifetime.start.p0i8(i64 24, i8* nonnull %35) #23
  %36 = load i64, i64* @M, align 8, !tbaa !14
  %37 = getelementptr inbounds %"class.std::allocator", %"class.std::allocator"* %6, i64 0, i32 0
  call void @llvm.lifetime.start.p0i8(i64 1, i8* nonnull %37) #23
  call void @_ZNSt6vectorIxSaIxEEC2EmRKS0_(%"class.std::vector"* nonnull align 8 dereferenceable(24) %5, i64 %36, %"class.std::allocator"* nonnull align 1 dereferenceable(1) %6) #20
  call void @_ZNSt6vectorIxSaIxEE14_M_move_assignEOS1_St17integral_constantIbLb1EE(%"class.std::vector"* nonnull align 8 dereferenceable(24) @A, %"class.std::vector"* nonnull align 8 dereferenceable(24) %5) #21
  %38 = getelementptr inbounds %"class.std::vector", %"class.std::vector"* %5, i64 0, i32 0
  call void @_ZNSt12_Vector_baseIxSaIxEED2Ev(%"struct.std::_Vector_base"* nonnull align 8 dereferenceable(24) %38) #21
  call void @llvm.lifetime.end.p0i8(i64 1, i8* nonnull %37) #23
  call void @llvm.lifetime.end.p0i8(i64 24, i8* nonnull %35) #23
  %39 = bitcast %"class.std::vector"* %7 to i8*
  call void @llvm.lifetime.start.p0i8(i64 24, i8* nonnull %39) #23
  %40 = load i64, i64* @M, align 8, !tbaa !14
  %41 = getelementptr inbounds %"class.std::allocator", %"class.std::allocator"* %8, i64 0, i32 0
  call void @llvm.lifetime.start.p0i8(i64 1, i8* nonnull %41) #23
  call void @_ZNSt6vectorIxSaIxEEC2EmRKS0_(%"class.std::vector"* nonnull align 8 dereferenceable(24) %7, i64 %40, %"class.std::allocator"* nonnull align 1 dereferenceable(1) %8) #20
  call void @_ZNSt6vectorIxSaIxEE14_M_move_assignEOS1_St17integral_constantIbLb1EE(%"class.std::vector"* nonnull align 8 dereferenceable(24) @B, %"class.std::vector"* nonnull align 8 dereferenceable(24) %7) #21
  %42 = getelementptr inbounds %"class.std::vector", %"class.std::vector"* %7, i64 0, i32 0
  call void @_ZNSt12_Vector_baseIxSaIxEED2Ev(%"struct.std::_Vector_base"* nonnull align 8 dereferenceable(24) %42) #21
  call void @llvm.lifetime.end.p0i8(i64 1, i8* nonnull %41) #23
  call void @llvm.lifetime.end.p0i8(i64 24, i8* nonnull %39) #23
  %43 = bitcast %"class.std::vector"* %9 to i8*
  call void @llvm.lifetime.start.p0i8(i64 24, i8* nonnull %43) #23
  %44 = load i64, i64* @N, align 8, !tbaa !14
  %45 = getelementptr inbounds %"class.std::allocator", %"class.std::allocator"* %10, i64 0, i32 0
  call void @llvm.lifetime.start.p0i8(i64 1, i8* nonnull %45) #23
  call void @_ZNSt6vectorIxSaIxEEC2EmRKS0_(%"class.std::vector"* nonnull align 8 dereferenceable(24) %9, i64 %44, %"class.std::allocator"* nonnull align 1 dereferenceable(1) %10) #20
  call void @_ZNSt6vectorIxSaIxEE14_M_move_assignEOS1_St17integral_constantIbLb1EE(%"class.std::vector"* nonnull align 8 dereferenceable(24) @C, %"class.std::vector"* nonnull align 8 dereferenceable(24) %9) #21
  %46 = getelementptr inbounds %"class.std::vector", %"class.std::vector"* %9, i64 0, i32 0
  call void @_ZNSt12_Vector_baseIxSaIxEED2Ev(%"struct.std::_Vector_base"* nonnull align 8 dereferenceable(24) %46) #21
  call void @llvm.lifetime.end.p0i8(i64 1, i8* nonnull %45) #23
  call void @llvm.lifetime.end.p0i8(i64 24, i8* nonnull %43) #23
  %47 = bitcast %"class.std::vector"* %11 to i8*
  call void @llvm.lifetime.start.p0i8(i64 24, i8* nonnull %47) #23
  %48 = load i64, i64* @N, align 8, !tbaa !14
  %49 = getelementptr inbounds %"class.std::allocator", %"class.std::allocator"* %12, i64 0, i32 0
  call void @llvm.lifetime.start.p0i8(i64 1, i8* nonnull %49) #23
  call void @_ZNSt6vectorIxSaIxEEC2EmRKS0_(%"class.std::vector"* nonnull align 8 dereferenceable(24) %11, i64 %48, %"class.std::allocator"* nonnull align 1 dereferenceable(1) %12) #20
  call void @_ZNSt6vectorIxSaIxEE14_M_move_assignEOS1_St17integral_constantIbLb1EE(%"class.std::vector"* nonnull align 8 dereferenceable(24) @D, %"class.std::vector"* nonnull align 8 dereferenceable(24) %11) #21
  %50 = getelementptr inbounds %"class.std::vector", %"class.std::vector"* %11, i64 0, i32 0
  call void @_ZNSt12_Vector_baseIxSaIxEED2Ev(%"struct.std::_Vector_base"* nonnull align 8 dereferenceable(24) %50) #21
  call void @llvm.lifetime.end.p0i8(i64 1, i8* nonnull %49) #23
  call void @llvm.lifetime.end.p0i8(i64 24, i8* nonnull %47) #23
  store i64 0, i64* @Amax, align 8, !tbaa !14
  br label %51

51:                                               ; preds = %55, %0
  %52 = phi i64 [ 0, %0 ], [ %74, %55 ]
  %53 = load i64, i64* @M, align 8, !tbaa !14
  %54 = icmp slt i64 %52, %53
  br i1 %54, label %55, label %75

55:                                               ; preds = %51
  %56 = load i64*, i64** getelementptr inbounds (%"class.std::vector", %"class.std::vector"* @U, i64 0, i32 0, i32 0, i32 0, i32 0), align 8, !tbaa !16
  %57 = getelementptr inbounds i64, i64* %56, i64 %52
  %58 = call nonnull align 8 dereferenceable(16) %"class.std::basic_istream"* @_ZNSi10_M_extractIxEERSiRT_(%"class.std::basic_istream"* nonnull align 8 dereferenceable(16) @_ZSt3cin, i64* nonnull align 8 dereferenceable(8) %57) #20
  %59 = load i64*, i64** getelementptr inbounds (%"class.std::vector", %"class.std::vector"* @V, i64 0, i32 0, i32 0, i32 0, i32 0), align 8, !tbaa !16
  %60 = getelementptr inbounds i64, i64* %59, i64 %52
  %61 = call nonnull align 8 dereferenceable(16) %"class.std::basic_istream"* @_ZNSi10_M_extractIxEERSiRT_(%"class.std::basic_istream"* nonnull align 8 dereferenceable(16) %58, i64* nonnull align 8 dereferenceable(8) %60) #20
  %62 = load i64*, i64** getelementptr inbounds (%"class.std::vector", %"class.std::vector"* @A, i64 0, i32 0, i32 0, i32 0, i32 0), align 8, !tbaa !16
  %63 = getelementptr inbounds i64, i64* %62, i64 %52
  %64 = call nonnull align 8 dereferenceable(16) %"class.std::basic_istream"* @_ZNSi10_M_extractIxEERSiRT_(%"class.std::basic_istream"* nonnull align 8 dereferenceable(16) %61, i64* nonnull align 8 dereferenceable(8) %63) #20
  %65 = load i64*, i64** getelementptr inbounds (%"class.std::vector", %"class.std::vector"* @B, i64 0, i32 0, i32 0, i32 0, i32 0), align 8, !tbaa !16
  %66 = getelementptr inbounds i64, i64* %65, i64 %52
  %67 = call nonnull align 8 dereferenceable(16) %"class.std::basic_istream"* @_ZNSi10_M_extractIxEERSiRT_(%"class.std::basic_istream"* nonnull align 8 dereferenceable(16) %64, i64* nonnull align 8 dereferenceable(8) %66) #20
  %68 = load i64*, i64** getelementptr inbounds (%"class.std::vector", %"class.std::vector"* @A, i64 0, i32 0, i32 0, i32 0, i32 0), align 8, !tbaa !16
  %69 = getelementptr inbounds i64, i64* %68, i64 %52
  %70 = load i64, i64* @Amax, align 8
  %71 = load i64, i64* %69, align 8
  %72 = icmp slt i64 %70, %71
  %73 = select i1 %72, i64 %71, i64 %70
  store i64 %73, i64* @Amax, align 8, !tbaa !14
  %74 = add nuw nsw i64 %52, 1
  br label %51, !llvm.loop !18

75:                                               ; preds = %51, %96
  %76 = phi i64 [ %103, %96 ], [ 0, %51 ]
  %77 = load i64, i64* @N, align 8, !tbaa !14
  %78 = icmp slt i64 %76, %77
  br i1 %78, label %96, label %79

79:                                               ; preds = %75
  %80 = load i64, i64* @Amax, align 8, !tbaa !14
  %81 = add nsw i64 %77, -1
  %82 = mul nsw i64 %80, %81
  store i64 %82, i64* @Cmax, align 8, !tbaa !14
  %83 = load i64, i64* @S, align 8
  %84 = icmp slt i64 %82, %83
  %85 = select i1 %84, i64 %82, i64 %83
  store i64 %85, i64* @S, align 8, !tbaa !14
  %86 = add nsw i64 %82, 1
  %87 = mul nsw i64 %86, %77
  store i64 %87, i64* @Nn, align 8, !tbaa !14
  %88 = bitcast %"class.std::vector.0"* %13 to i8*
  call void @llvm.lifetime.start.p0i8(i64 24, i8* nonnull %88) #23
  %89 = getelementptr inbounds %"class.std::allocator.2", %"class.std::allocator.2"* %14, i64 0, i32 0
  call void @llvm.lifetime.start.p0i8(i64 1, i8* nonnull %89) #23
  call void @_ZNSt6vectorIS_I4edgeSaIS0_EESaIS2_EEC2EmRKS3_(%"class.std::vector.0"* nonnull align 8 dereferenceable(24) %13, i64 %87, %"class.std::allocator.2"* nonnull align 1 dereferenceable(1) %14) #20
  call void @_ZNSt6vectorIS_I4edgeSaIS0_EESaIS2_EE14_M_move_assignEOS4_St17integral_constantIbLb1EE(%"class.std::vector.0"* nonnull align 8 dereferenceable(24) @e, %"class.std::vector.0"* nonnull align 8 dereferenceable(24) %13) #21
  call void @_ZNSt6vectorIS_I4edgeSaIS0_EESaIS2_EED2Ev(%"class.std::vector.0"* nonnull align 8 dereferenceable(24) %13) #21
  call void @llvm.lifetime.end.p0i8(i64 1, i8* nonnull %89) #23
  call void @llvm.lifetime.end.p0i8(i64 24, i8* nonnull %88) #23
  %90 = bitcast %struct.edge* %15 to i8*
  %91 = getelementptr inbounds %struct.edge, %struct.edge* %15, i64 0, i32 0
  %92 = getelementptr inbounds %struct.edge, %struct.edge* %15, i64 0, i32 1
  %93 = bitcast %struct.edge* %16 to i8*
  %94 = getelementptr inbounds %struct.edge, %struct.edge* %16, i64 0, i32 0
  %95 = getelementptr inbounds %struct.edge, %struct.edge* %16, i64 0, i32 1
  br label %104

96:                                               ; preds = %75
  %97 = load i64*, i64** getelementptr inbounds (%"class.std::vector", %"class.std::vector"* @C, i64 0, i32 0, i32 0, i32 0, i32 0), align 8, !tbaa !16
  %98 = getelementptr inbounds i64, i64* %97, i64 %76
  %99 = call nonnull align 8 dereferenceable(16) %"class.std::basic_istream"* @_ZNSi10_M_extractIxEERSiRT_(%"class.std::basic_istream"* nonnull align 8 dereferenceable(16) @_ZSt3cin, i64* nonnull align 8 dereferenceable(8) %98) #20
  %100 = load i64*, i64** getelementptr inbounds (%"class.std::vector", %"class.std::vector"* @D, i64 0, i32 0, i32 0, i32 0, i32 0), align 8, !tbaa !16
  %101 = getelementptr inbounds i64, i64* %100, i64 %76
  %102 = call nonnull align 8 dereferenceable(16) %"class.std::basic_istream"* @_ZNSi10_M_extractIxEERSiRT_(%"class.std::basic_istream"* nonnull align 8 dereferenceable(16) %99, i64* nonnull align 8 dereferenceable(8) %101) #20
  %103 = add nuw nsw i64 %76, 1
  br label %75, !llvm.loop !19

104:                                              ; preds = %120, %79
  %105 = phi i64 [ 0, %79 ], [ %121, %120 ]
  %106 = load i64, i64* @M, align 8, !tbaa !14
  %107 = icmp slt i64 %105, %106
  br i1 %107, label %112, label %108

108:                                              ; preds = %104
  %109 = bitcast %struct.edge* %17 to i8*
  %110 = getelementptr inbounds %struct.edge, %struct.edge* %17, i64 0, i32 0
  %111 = getelementptr inbounds %struct.edge, %struct.edge* %17, i64 0, i32 1
  br label %169

112:                                              ; preds = %104
  %113 = load i64*, i64** getelementptr inbounds (%"class.std::vector", %"class.std::vector"* @A, i64 0, i32 0, i32 0, i32 0, i32 0), align 8, !tbaa !16
  %114 = getelementptr inbounds i64, i64* %113, i64 %105
  %115 = load i64, i64* %114, align 8, !tbaa !14
  br label %116

116:                                              ; preds = %122, %112
  %117 = phi i64 [ %115, %112 ], [ %168, %122 ]
  %118 = load i64, i64* @Cmax, align 8, !tbaa !14
  %119 = icmp sgt i64 %117, %118
  br i1 %119, label %120, label %122

120:                                              ; preds = %116
  %121 = add nuw nsw i64 %105, 1
  br label %104, !llvm.loop !20

122:                                              ; preds = %116
  %123 = load i64*, i64** getelementptr inbounds (%"class.std::vector", %"class.std::vector"* @U, i64 0, i32 0, i32 0, i32 0, i32 0), align 8, !tbaa !16
  %124 = getelementptr inbounds i64, i64* %123, i64 %105
  %125 = load i64, i64* %124, align 8, !tbaa !14
  %126 = add nsw i64 %125, -1
  %127 = add nsw i64 %118, 1
  %128 = mul nsw i64 %126, %127
  %129 = add nsw i64 %128, %117
  %130 = load %"class.std::vector.5"*, %"class.std::vector.5"** getelementptr inbounds (%"class.std::vector.0", %"class.std::vector.0"* @e, i64 0, i32 0, i32 0, i32 0, i32 0), align 8, !tbaa !8
  %131 = getelementptr inbounds %"class.std::vector.5", %"class.std::vector.5"* %130, i64 %129
  call void @llvm.lifetime.start.p0i8(i64 16, i8* nonnull %90) #23
  %132 = load i64*, i64** getelementptr inbounds (%"class.std::vector", %"class.std::vector"* @V, i64 0, i32 0, i32 0, i32 0, i32 0), align 8, !tbaa !16
  %133 = getelementptr inbounds i64, i64* %132, i64 %105
  %134 = load i64, i64* %133, align 8, !tbaa !14
  %135 = add nsw i64 %134, -1
  %136 = load i64*, i64** getelementptr inbounds (%"class.std::vector", %"class.std::vector"* @A, i64 0, i32 0, i32 0, i32 0, i32 0), align 8, !tbaa !16
  %137 = getelementptr inbounds i64, i64* %136, i64 %105
  %138 = load i64, i64* %137, align 8, !tbaa !14
  %139 = sub i64 %117, %138
  %140 = mul nsw i64 %135, %127
  %141 = add nsw i64 %139, %140
  store i64 %141, i64* %91, align 8, !tbaa !21
  %142 = load i64*, i64** getelementptr inbounds (%"class.std::vector", %"class.std::vector"* @B, i64 0, i32 0, i32 0, i32 0, i32 0), align 8, !tbaa !16
  %143 = getelementptr inbounds i64, i64* %142, i64 %105
  %144 = load i64, i64* %143, align 8, !tbaa !14
  store i64 %144, i64* %92, align 8, !tbaa !23
  call void @_ZNSt6vectorI4edgeSaIS0_EE12emplace_backIJS0_EEEvDpOT_(%"class.std::vector.5"* nonnull align 8 dereferenceable(24) %131, %struct.edge* nonnull align 8 dereferenceable(16) %15) #20
  call void @llvm.lifetime.end.p0i8(i64 16, i8* nonnull %90) #23
  %145 = load i64*, i64** getelementptr inbounds (%"class.std::vector", %"class.std::vector"* @V, i64 0, i32 0, i32 0, i32 0, i32 0), align 8, !tbaa !16
  %146 = getelementptr inbounds i64, i64* %145, i64 %105
  %147 = load i64, i64* %146, align 8, !tbaa !14
  %148 = add nsw i64 %147, -1
  %149 = load i64, i64* @Cmax, align 8, !tbaa !14
  %150 = add nsw i64 %149, 1
  %151 = mul nsw i64 %150, %148
  %152 = add nsw i64 %151, %117
  %153 = load %"class.std::vector.5"*, %"class.std::vector.5"** getelementptr inbounds (%"class.std::vector.0", %"class.std::vector.0"* @e, i64 0, i32 0, i32 0, i32 0, i32 0), align 8, !tbaa !8
  %154 = getelementptr inbounds %"class.std::vector.5", %"class.std::vector.5"* %153, i64 %152
  call void @llvm.lifetime.start.p0i8(i64 16, i8* nonnull %93) #23
  %155 = load i64*, i64** getelementptr inbounds (%"class.std::vector", %"class.std::vector"* @U, i64 0, i32 0, i32 0, i32 0, i32 0), align 8, !tbaa !16
  %156 = getelementptr inbounds i64, i64* %155, i64 %105
  %157 = load i64, i64* %156, align 8, !tbaa !14
  %158 = add nsw i64 %157, -1
  %159 = load i64*, i64** getelementptr inbounds (%"class.std::vector", %"class.std::vector"* @A, i64 0, i32 0, i32 0, i32 0, i32 0), align 8, !tbaa !16
  %160 = getelementptr inbounds i64, i64* %159, i64 %105
  %161 = load i64, i64* %160, align 8, !tbaa !14
  %162 = sub i64 %117, %161
  %163 = mul nsw i64 %158, %150
  %164 = add nsw i64 %162, %163
  store i64 %164, i64* %94, align 8, !tbaa !21
  %165 = load i64*, i64** getelementptr inbounds (%"class.std::vector", %"class.std::vector"* @B, i64 0, i32 0, i32 0, i32 0, i32 0), align 8, !tbaa !16
  %166 = getelementptr inbounds i64, i64* %165, i64 %105
  %167 = load i64, i64* %166, align 8, !tbaa !14
  store i64 %167, i64* %95, align 8, !tbaa !23
  call void @_ZNSt6vectorI4edgeSaIS0_EE12emplace_backIJS0_EEEvDpOT_(%"class.std::vector.5"* nonnull align 8 dereferenceable(24) %154, %struct.edge* nonnull align 8 dereferenceable(16) %16) #20
  call void @llvm.lifetime.end.p0i8(i64 16, i8* nonnull %93) #23
  %168 = add nsw i64 %117, 1
  br label %116, !llvm.loop !24

169:                                              ; preds = %108, %187
  %170 = phi i64 [ %188, %187 ], [ 0, %108 ]
  %171 = load i64, i64* @N, align 8, !tbaa !14
  %172 = icmp slt i64 %170, %171
  br i1 %172, label %183, label %173

173:                                              ; preds = %169
  %174 = bitcast %"class.std::vector"* %18 to i8*
  call void @llvm.lifetime.start.p0i8(i64 24, i8* nonnull %174) #23
  %175 = load i64, i64* @Nn, align 8, !tbaa !14
  %176 = bitcast i64* %19 to i8*
  call void @llvm.lifetime.start.p0i8(i64 8, i8* nonnull %176) #23
  store i64 1000000000000000000, i64* %19, align 8, !tbaa !14
  %177 = getelementptr inbounds %"class.std::allocator", %"class.std::allocator"* %20, i64 0, i32 0
  call void @llvm.lifetime.start.p0i8(i64 1, i8* nonnull %177) #23
  call void @_ZNSt6vectorIxSaIxEEC2EmRKxRKS0_(%"class.std::vector"* nonnull align 8 dereferenceable(24) %18, i64 %175, i64* nonnull align 8 dereferenceable(8) %19, %"class.std::allocator"* nonnull align 1 dereferenceable(1) %20) #20
  call void @llvm.lifetime.end.p0i8(i64 1, i8* nonnull %177) #23
  call void @llvm.lifetime.end.p0i8(i64 8, i8* nonnull %176) #23
  %178 = bitcast %"class.std::priority_queue"* %21 to i8*
  call void @llvm.lifetime.start.p0i8(i64 32, i8* nonnull %178) #23
  call void @llvm.memset.p0i8.i64(i8* noundef nonnull align 8 dereferenceable(24) %178, i8 0, i64 24, i1 false) #23
  %179 = bitcast %"struct.std::pair"* %22 to i8*
  call void @llvm.lifetime.start.p0i8(i64 16, i8* nonnull %179) #23
  %180 = load i64, i64* @S, align 8, !tbaa !14
  %181 = getelementptr inbounds %"struct.std::pair", %"struct.std::pair"* %22, i64 0, i32 0
  store i64 0, i64* %181, align 8, !tbaa !25
  %182 = getelementptr inbounds %"struct.std::pair", %"struct.std::pair"* %22, i64 0, i32 1
  store i64 %180, i64* %182, align 8, !tbaa !27
  invoke void @_ZNSt14priority_queueISt4pairIxxESt6vectorIS1_SaIS1_EESt7greaterIS1_EE4pushEOS1_(%"class.std::priority_queue"* nonnull align 8 dereferenceable(25) %21, %"struct.std::pair"* nonnull align 8 dereferenceable(16) %22) #20
          to label %206 unwind label %231

183:                                              ; preds = %169, %189
  %184 = phi i64 [ %205, %189 ], [ 0, %169 ]
  %185 = load i64, i64* @Cmax, align 8, !tbaa !14
  %186 = icmp slt i64 %184, %185
  br i1 %186, label %189, label %187

187:                                              ; preds = %183
  %188 = add nuw nsw i64 %170, 1
  br label %169, !llvm.loop !28

189:                                              ; preds = %183
  %190 = add nsw i64 %185, 1
  %191 = mul nsw i64 %190, %170
  %192 = add nsw i64 %191, %184
  %193 = load %"class.std::vector.5"*, %"class.std::vector.5"** getelementptr inbounds (%"class.std::vector.0", %"class.std::vector.0"* @e, i64 0, i32 0, i32 0, i32 0, i32 0), align 8, !tbaa !8
  %194 = getelementptr inbounds %"class.std::vector.5", %"class.std::vector.5"* %193, i64 %192
  call void @llvm.lifetime.start.p0i8(i64 16, i8* nonnull %109) #23
  %195 = load i64*, i64** getelementptr inbounds (%"class.std::vector", %"class.std::vector"* @C, i64 0, i32 0, i32 0, i32 0, i32 0), align 8, !tbaa !16
  %196 = getelementptr inbounds i64, i64* %195, i64 %170
  %197 = load i64, i64* %196, align 8, !tbaa !14
  %198 = add nsw i64 %197, %184
  %199 = icmp slt i64 %185, %198
  %200 = select i1 %199, i64 %185, i64 %198
  %201 = add nsw i64 %200, %191
  store i64 %201, i64* %110, align 8, !tbaa !21
  %202 = load i64*, i64** getelementptr inbounds (%"class.std::vector", %"class.std::vector"* @D, i64 0, i32 0, i32 0, i32 0, i32 0), align 8, !tbaa !16
  %203 = getelementptr inbounds i64, i64* %202, i64 %170
  %204 = load i64, i64* %203, align 8, !tbaa !14
  store i64 %204, i64* %111, align 8, !tbaa !23
  call void @_ZNSt6vectorI4edgeSaIS0_EE12emplace_backIJS0_EEEvDpOT_(%"class.std::vector.5"* nonnull align 8 dereferenceable(24) %194, %struct.edge* nonnull align 8 dereferenceable(16) %17) #20
  call void @llvm.lifetime.end.p0i8(i64 16, i8* nonnull %109) #23
  %205 = add nuw nsw i64 %184, 1
  br label %183, !llvm.loop !29

206:                                              ; preds = %173
  call void @llvm.lifetime.end.p0i8(i64 16, i8* nonnull %179) #23
  %207 = load i64, i64* @S, align 8, !tbaa !14
  %208 = getelementptr inbounds %"class.std::vector", %"class.std::vector"* %18, i64 0, i32 0, i32 0, i32 0, i32 0
  %209 = load i64*, i64** %208, align 8, !tbaa !16
  %210 = getelementptr inbounds i64, i64* %209, i64 %207
  store i64 0, i64* %210, align 8, !tbaa !14
  %211 = getelementptr inbounds %"class.std::priority_queue", %"class.std::priority_queue"* %21, i64 0, i32 0, i32 0, i32 0, i32 0, i32 0
  %212 = getelementptr inbounds %"class.std::priority_queue", %"class.std::priority_queue"* %21, i64 0, i32 0, i32 0, i32 0, i32 0, i32 1
  %213 = bitcast %"struct.std::pair"* %23 to i8*
  %214 = getelementptr inbounds %"struct.std::pair", %"struct.std::pair"* %23, i64 0, i32 0
  %215 = getelementptr inbounds %"struct.std::pair", %"struct.std::pair"* %23, i64 0, i32 1
  br label %216

216:                                              ; preds = %230, %206
  %217 = load %"struct.std::pair"*, %"struct.std::pair"** %211, align 8, !tbaa !30
  %218 = load %"struct.std::pair"*, %"struct.std::pair"** %212, align 8, !tbaa !30
  %219 = icmp eq %"struct.std::pair"* %217, %218
  br i1 %219, label %262, label %220

220:                                              ; preds = %216
  %221 = getelementptr inbounds %"struct.std::pair", %"struct.std::pair"* %217, i64 0, i32 0
  %222 = load i64, i64* %221, align 8
  %223 = getelementptr inbounds %"struct.std::pair", %"struct.std::pair"* %217, i64 0, i32 1
  %224 = load i64, i64* %223, align 8
  invoke void @_ZNSt14priority_queueISt4pairIxxESt6vectorIS1_SaIS1_EESt7greaterIS1_EE3popEv(%"class.std::priority_queue"* nonnull align 8 dereferenceable(25) %21) #20
          to label %225 unwind label %233

225:                                              ; preds = %220
  %226 = load i64*, i64** %208, align 8, !tbaa !16
  %227 = getelementptr inbounds i64, i64* %226, i64 %224
  %228 = load i64, i64* %227, align 8, !tbaa !14
  %229 = icmp slt i64 %228, %222
  br i1 %229, label %230, label %235

230:                                              ; preds = %241, %225
  br label %216, !llvm.loop !31

231:                                              ; preds = %173
  %232 = landingpad { i8*, i32 }
          cleanup
  call void @llvm.lifetime.end.p0i8(i64 16, i8* nonnull %179) #23
  br label %293

233:                                              ; preds = %220
  %234 = landingpad { i8*, i32 }
          cleanup
  br label %293

235:                                              ; preds = %225
  %236 = load %"class.std::vector.5"*, %"class.std::vector.5"** getelementptr inbounds (%"class.std::vector.0", %"class.std::vector.0"* @e, i64 0, i32 0, i32 0, i32 0, i32 0), align 8, !tbaa !8
  %237 = getelementptr inbounds %"class.std::vector.5", %"class.std::vector.5"* %236, i64 %224, i32 0, i32 0, i32 0, i32 0
  %238 = load %struct.edge*, %struct.edge** %237, align 8, !tbaa !30
  %239 = getelementptr inbounds %"class.std::vector.5", %"class.std::vector.5"* %236, i64 %224, i32 0, i32 0, i32 0, i32 1
  %240 = load %struct.edge*, %struct.edge** %239, align 8, !tbaa !30
  br label %241

241:                                              ; preds = %260, %235
  %242 = phi %struct.edge* [ %238, %235 ], [ %261, %260 ]
  %243 = icmp eq %struct.edge* %242, %240
  br i1 %243, label %230, label %244, !llvm.loop !31

244:                                              ; preds = %241
  %245 = getelementptr inbounds %struct.edge, %struct.edge* %242, i64 0, i32 0
  %246 = load i64, i64* %245, align 8, !tbaa.struct !32
  %247 = getelementptr inbounds %struct.edge, %struct.edge* %242, i64 0, i32 1
  %248 = load i64, i64* %247, align 8, !tbaa.struct !33
  %249 = load i64*, i64** %208, align 8, !tbaa !16
  %250 = getelementptr inbounds i64, i64* %249, i64 %246
  %251 = load i64, i64* %250, align 8, !tbaa !14
  %252 = getelementptr inbounds i64, i64* %249, i64 %224
  %253 = load i64, i64* %252, align 8, !tbaa !14
  %254 = add nsw i64 %253, %248
  %255 = icmp sgt i64 %251, %254
  br i1 %255, label %256, label %260

256:                                              ; preds = %244
  store i64 %254, i64* %250, align 8, !tbaa !14
  call void @llvm.lifetime.start.p0i8(i64 16, i8* nonnull %213) #23
  store i64 %254, i64* %214, align 8, !tbaa !25
  store i64 %246, i64* %215, align 8, !tbaa !27
  invoke void @_ZNSt14priority_queueISt4pairIxxESt6vectorIS1_SaIS1_EESt7greaterIS1_EE4pushEOS1_(%"class.std::priority_queue"* nonnull align 8 dereferenceable(25) %21, %"struct.std::pair"* nonnull align 8 dereferenceable(16) %23) #20
          to label %257 unwind label %258

257:                                              ; preds = %256
  call void @llvm.lifetime.end.p0i8(i64 16, i8* nonnull %213) #23
  br label %260

258:                                              ; preds = %256
  %259 = landingpad { i8*, i32 }
          cleanup
  call void @llvm.lifetime.end.p0i8(i64 16, i8* nonnull %213) #23
  br label %293

260:                                              ; preds = %244, %257
  %261 = getelementptr inbounds %struct.edge, %struct.edge* %242, i64 1
  br label %241

262:                                              ; preds = %216, %289
  %263 = phi i64 [ %290, %289 ], [ 1, %216 ]
  %264 = load i64, i64* @N, align 8, !tbaa !14
  %265 = icmp slt i64 %263, %264
  br i1 %265, label %266, label %271

266:                                              ; preds = %262
  %267 = load i64, i64* @Cmax, align 8, !tbaa !14
  %268 = add nsw i64 %267, 1
  %269 = mul nsw i64 %268, %263
  %270 = load i64*, i64** %208, align 8
  br label %274

271:                                              ; preds = %262
  %272 = getelementptr inbounds %"class.std::priority_queue", %"class.std::priority_queue"* %21, i64 0, i32 0, i32 0
  call void @_ZNSt12_Vector_baseISt4pairIxxESaIS1_EED2Ev(%"struct.std::_Vector_base.11"* nonnull align 8 dereferenceable(24) %272) #21
  call void @llvm.lifetime.end.p0i8(i64 32, i8* nonnull %178) #23
  %273 = getelementptr inbounds %"class.std::vector", %"class.std::vector"* %18, i64 0, i32 0
  call void @_ZNSt12_Vector_baseIxSaIxEED2Ev(%"struct.std::_Vector_base"* nonnull align 8 dereferenceable(24) %273) #21
  call void @llvm.lifetime.end.p0i8(i64 24, i8* nonnull %174) #23
  ret i32 0

274:                                              ; preds = %266, %280
  %275 = phi i64 [ %285, %280 ], [ 1000000000000000000, %266 ]
  %276 = phi i64 [ %286, %280 ], [ 0, %266 ]
  %277 = icmp sgt i64 %276, %267
  br i1 %277, label %278, label %280

278:                                              ; preds = %274
  %279 = invoke nonnull align 8 dereferenceable(8) %"class.std::basic_ostream"* @_ZNSo9_M_insertIxEERSoT_(%"class.std::basic_ostream"* nonnull align 8 dereferenceable(8) @_ZSt4cout, i64 %275) #20
          to label %287 unwind label %291

280:                                              ; preds = %274
  %281 = add nsw i64 %269, %276
  %282 = getelementptr inbounds i64, i64* %270, i64 %281
  %283 = load i64, i64* %282, align 8, !tbaa !14
  %284 = icmp slt i64 %275, %283
  %285 = select i1 %284, i64 %275, i64 %283
  %286 = add nuw nsw i64 %276, 1
  br label %274, !llvm.loop !34

287:                                              ; preds = %278
  %288 = invoke nonnull align 8 dereferenceable(8) %"class.std::basic_ostream"* @_ZSt4endlIcSt11char_traitsIcEERSt13basic_ostreamIT_T0_ES6_(%"class.std::basic_ostream"* nonnull align 8 dereferenceable(8) %279) #20
          to label %289 unwind label %291

289:                                              ; preds = %287
  %290 = add nuw nsw i64 %263, 1
  br label %262, !llvm.loop !35

291:                                              ; preds = %287, %278
  %292 = landingpad { i8*, i32 }
          cleanup
  br label %293

293:                                              ; preds = %233, %258, %291, %231
  %294 = phi { i8*, i32 } [ %292, %291 ], [ %232, %231 ], [ %259, %258 ], [ %234, %233 ]
  %295 = getelementptr inbounds %"class.std::priority_queue", %"class.std::priority_queue"* %21, i64 0, i32 0, i32 0
  call void @_ZNSt12_Vector_baseISt4pairIxxESaIS1_EED2Ev(%"struct.std::_Vector_base.11"* nonnull align 8 dereferenceable(24) %295) #21
  call void @llvm.lifetime.end.p0i8(i64 32, i8* nonnull %178) #23
  %296 = getelementptr inbounds %"class.std::vector", %"class.std::vector"* %18, i64 0, i32 0
  call void @_ZNSt12_Vector_baseIxSaIxEED2Ev(%"struct.std::_Vector_base"* nonnull align 8 dereferenceable(24) %296) #21
  call void @llvm.lifetime.end.p0i8(i64 24, i8* nonnull %174) #23
  resume { i8*, i32 } %294
}

; Function Attrs: minsize optsize sspstrong uwtable
define linkonce_odr dso_local void @_ZNSt6vectorIxSaIxEEC2EmRKS0_(%"class.std::vector"* nonnull align 8 dereferenceable(24) %0, i64 %1, %"class.std::allocator"* nonnull align 1 dereferenceable(1) %2) unnamed_addr #9 comdat align 2 personality i8* bitcast (i32 (...)* @__gxx_personality_v0 to i8*) {
  %4 = getelementptr inbounds %"class.std::vector", %"class.std::vector"* %0, i64 0, i32 0
  %5 = tail call i64 @_ZNSt6vectorIxSaIxEE17_S_check_init_lenEmRKS0_(i64 %1, %"class.std::allocator"* nonnull align 1 dereferenceable(1) %2) #20
  %6 = bitcast %"class.std::vector"* %0 to i8*
  tail call void @llvm.memset.p0i8.i64(i8* noundef nonnull align 8 dereferenceable(24) %6, i8 0, i64 24, i1 false) #23
  tail call void @_ZNSt12_Vector_baseIxSaIxEE17_M_create_storageEm(%"struct.std::_Vector_base"* nonnull align 8 dereferenceable(24) %4, i64 %5) #20
  invoke void @_ZNSt6vectorIxSaIxEE21_M_default_initializeEm(%"class.std::vector"* nonnull align 8 dereferenceable(24) %0, i64 %1) #20
          to label %7 unwind label %8

7:                                                ; preds = %3
  ret void

8:                                                ; preds = %3
  %9 = landingpad { i8*, i32 }
          cleanup
  tail call void @_ZNSt12_Vector_baseIxSaIxEED2Ev(%"struct.std::_Vector_base"* nonnull align 8 dereferenceable(24) %4) #21
  resume { i8*, i32 } %9
}

declare i32 @__gxx_personality_v0(...)

; Function Attrs: minsize optsize sspstrong uwtable
define linkonce_odr dso_local void @_ZNSt6vectorIS_I4edgeSaIS0_EESaIS2_EEC2EmRKS3_(%"class.std::vector.0"* nonnull align 8 dereferenceable(24) %0, i64 %1, %"class.std::allocator.2"* nonnull align 1 dereferenceable(1) %2) unnamed_addr #9 comdat align 2 personality i8* bitcast (i32 (...)* @__gxx_personality_v0 to i8*) {
  %4 = getelementptr inbounds %"class.std::vector.0", %"class.std::vector.0"* %0, i64 0, i32 0
  %5 = tail call i64 @_ZNSt6vectorIS_I4edgeSaIS0_EESaIS2_EE17_S_check_init_lenEmRKS3_(i64 %1, %"class.std::allocator.2"* nonnull align 1 dereferenceable(1) %2) #20
  %6 = bitcast %"class.std::vector.0"* %0 to i8*
  tail call void @llvm.memset.p0i8.i64(i8* noundef nonnull align 8 dereferenceable(24) %6, i8 0, i64 24, i1 false) #23
  tail call void @_ZNSt12_Vector_baseISt6vectorI4edgeSaIS1_EESaIS3_EE17_M_create_storageEm(%"struct.std::_Vector_base.1"* nonnull align 8 dereferenceable(24) %4, i64 %5) #20
  invoke void @_ZNSt6vectorIS_I4edgeSaIS0_EESaIS2_EE21_M_default_initializeEm(%"class.std::vector.0"* nonnull align 8 dereferenceable(24) %0, i64 %1) #20
          to label %7 unwind label %8

7:                                                ; preds = %3
  ret void

8:                                                ; preds = %3
  %9 = landingpad { i8*, i32 }
          cleanup
  tail call void @_ZNSt12_Vector_baseISt6vectorI4edgeSaIS1_EESaIS3_EED2Ev(%"struct.std::_Vector_base.1"* nonnull align 8 dereferenceable(24) %4) #21
  resume { i8*, i32 } %9
}

; Function Attrs: minsize optsize sspstrong uwtable
define linkonce_odr dso_local void @_ZNSt6vectorIxSaIxEEC2EmRKxRKS0_(%"class.std::vector"* nonnull align 8 dereferenceable(24) %0, i64 %1, i64* nonnull align 8 dereferenceable(8) %2, %"class.std::allocator"* nonnull align 1 dereferenceable(1) %3) unnamed_addr #9 comdat align 2 personality i8* bitcast (i32 (...)* @__gxx_personality_v0 to i8*) {
  %5 = getelementptr inbounds %"class.std::vector", %"class.std::vector"* %0, i64 0, i32 0
  %6 = tail call i64 @_ZNSt6vectorIxSaIxEE17_S_check_init_lenEmRKS0_(i64 %1, %"class.std::allocator"* nonnull align 1 dereferenceable(1) %3) #20
  %7 = bitcast %"class.std::vector"* %0 to i8*
  tail call void @llvm.memset.p0i8.i64(i8* noundef nonnull align 8 dereferenceable(24) %7, i8 0, i64 24, i1 false) #23
  tail call void @_ZNSt12_Vector_baseIxSaIxEE17_M_create_storageEm(%"struct.std::_Vector_base"* nonnull align 8 dereferenceable(24) %5, i64 %6) #20
  invoke void @_ZNSt6vectorIxSaIxEE18_M_fill_initializeEmRKx(%"class.std::vector"* nonnull align 8 dereferenceable(24) %0, i64 %1, i64* nonnull align 8 dereferenceable(8) %2) #20
          to label %8 unwind label %9

8:                                                ; preds = %4
  ret void

9:                                                ; preds = %4
  %10 = landingpad { i8*, i32 }
          cleanup
  tail call void @_ZNSt12_Vector_baseIxSaIxEED2Ev(%"struct.std::_Vector_base"* nonnull align 8 dereferenceable(24) %5) #21
  resume { i8*, i32 } %10
}

; Function Attrs: minsize optsize sspstrong uwtable
define linkonce_odr dso_local void @_ZNSt14priority_queueISt4pairIxxESt6vectorIS1_SaIS1_EESt7greaterIS1_EE4pushEOS1_(%"class.std::priority_queue"* nonnull align 8 dereferenceable(25) %0, %"struct.std::pair"* nonnull align 8 dereferenceable(16) %1) local_unnamed_addr #9 comdat align 2 {
  %3 = getelementptr inbounds %"class.std::priority_queue", %"class.std::priority_queue"* %0, i64 0, i32 0
  tail call void @_ZNSt6vectorISt4pairIxxESaIS1_EE12emplace_backIJS1_EEEvDpOT_(%"class.std::vector.10"* nonnull align 8 dereferenceable(24) %3, %"struct.std::pair"* nonnull align 8 dereferenceable(16) %1) #20
  %4 = getelementptr inbounds %"class.std::priority_queue", %"class.std::priority_queue"* %0, i64 0, i32 0, i32 0, i32 0, i32 0, i32 0
  %5 = load %"struct.std::pair"*, %"struct.std::pair"** %4, align 8, !tbaa !30
  %6 = getelementptr inbounds %"class.std::priority_queue", %"class.std::priority_queue"* %0, i64 0, i32 0, i32 0, i32 0, i32 0, i32 1
  %7 = load %"struct.std::pair"*, %"struct.std::pair"** %6, align 8, !tbaa !30
  tail call void @_ZSt9push_heapIN9__gnu_cxx17__normal_iteratorIPSt4pairIxxESt6vectorIS3_SaIS3_EEEESt7greaterIS3_EEvT_SB_T0_(%"struct.std::pair"* %5, %"struct.std::pair"* %7) #20
  ret void
}

; Function Attrs: argmemonly mustprogress nofree nounwind willreturn
declare void @llvm.memcpy.p0i8.p0i8.i64(i8* noalias nocapture writeonly, i8* noalias nocapture readonly, i64, i1 immarg) #10

; Function Attrs: minsize optsize sspstrong uwtable
define linkonce_odr dso_local void @_ZNSt14priority_queueISt4pairIxxESt6vectorIS1_SaIS1_EESt7greaterIS1_EE3popEv(%"class.std::priority_queue"* nonnull align 8 dereferenceable(25) %0) local_unnamed_addr #9 comdat align 2 {
  %2 = getelementptr inbounds %"class.std::priority_queue", %"class.std::priority_queue"* %0, i64 0, i32 0, i32 0, i32 0, i32 0, i32 0
  %3 = load %"struct.std::pair"*, %"struct.std::pair"** %2, align 8, !tbaa !30
  %4 = getelementptr inbounds %"class.std::priority_queue", %"class.std::priority_queue"* %0, i64 0, i32 0, i32 0, i32 0, i32 0, i32 1
  %5 = load %"struct.std::pair"*, %"struct.std::pair"** %4, align 8, !tbaa !30
  tail call void @_ZSt8pop_heapIN9__gnu_cxx17__normal_iteratorIPSt4pairIxxESt6vectorIS3_SaIS3_EEEESt7greaterIS3_EEvT_SB_T0_(%"struct.std::pair"* %3, %"struct.std::pair"* %5) #20
  %6 = load %"struct.std::pair"*, %"struct.std::pair"** %4, align 8, !tbaa !36
  %7 = getelementptr inbounds %"struct.std::pair", %"struct.std::pair"* %6, i64 -1
  store %"struct.std::pair"* %7, %"struct.std::pair"** %4, align 8, !tbaa !36
  ret void
}

; Function Attrs: inlinehint minsize mustprogress optsize sspstrong uwtable
declare nonnull align 8 dereferenceable(8) %"class.std::basic_ostream"* @_ZSt4endlIcSt11char_traitsIcEERSt13basic_ostreamIT_T0_ES6_(%"class.std::basic_ostream"* nonnull align 8 dereferenceable(8)) local_unnamed_addr #11

; Function Attrs: minsize nounwind optsize sspstrong uwtable
define linkonce_odr dso_local void @_ZNSt12_Vector_baseISt4pairIxxESaIS1_EED2Ev(%"struct.std::_Vector_base.11"* nonnull align 8 dereferenceable(24) %0) unnamed_addr #6 comdat align 2 personality i8* bitcast (i32 (...)* @__gxx_personality_v0 to i8*) {
  %2 = getelementptr inbounds %"struct.std::_Vector_base.11", %"struct.std::_Vector_base.11"* %0, i64 0, i32 0, i32 0, i32 0
  %3 = load %"struct.std::pair"*, %"struct.std::pair"** %2, align 8, !tbaa !38
  %4 = icmp eq %"struct.std::pair"* %3, null
  br i1 %4, label %7, label %5

5:                                                ; preds = %1
  %6 = bitcast %"struct.std::pair"* %3 to i8*
  tail call void @_ZdlPv(i8* nonnull %6) #21
  br label %7

7:                                                ; preds = %5, %1
  ret void
}

; Function Attrs: noinline noreturn nounwind
define linkonce_odr hidden void @__clang_call_terminate(i8* %0) local_unnamed_addr #12 comdat {
  %2 = tail call i8* @__cxa_begin_catch(i8* %0) #23
  tail call void @_ZSt9terminatev() #22
  unreachable
}

declare i8* @__cxa_begin_catch(i8*) local_unnamed_addr

declare void @_ZSt9terminatev() local_unnamed_addr

; Function Attrs: minsize nobuiltin nounwind optsize
declare void @_ZdlPv(i8*) local_unnamed_addr #13

; Function Attrs: minsize nounwind optsize sspstrong uwtable
define linkonce_odr dso_local void @_ZNSt12_Vector_baseIxSaIxEED2Ev(%"struct.std::_Vector_base"* nonnull align 8 dereferenceable(24) %0) unnamed_addr #6 comdat align 2 personality i8* bitcast (i32 (...)* @__gxx_personality_v0 to i8*) {
  %2 = getelementptr inbounds %"struct.std::_Vector_base", %"struct.std::_Vector_base"* %0, i64 0, i32 0, i32 0, i32 0
  %3 = load i64*, i64** %2, align 8, !tbaa !16
  %4 = icmp eq i64* %3, null
  br i1 %4, label %7, label %5

5:                                                ; preds = %1
  %6 = bitcast i64* %3 to i8*
  tail call void @_ZdlPv(i8* nonnull %6) #21
  br label %7

7:                                                ; preds = %5, %1
  ret void
}

; Function Attrs: minsize nounwind optsize sspstrong uwtable
define linkonce_odr dso_local void @_ZNSt12_Vector_baseISt6vectorI4edgeSaIS1_EESaIS3_EED2Ev(%"struct.std::_Vector_base.1"* nonnull align 8 dereferenceable(24) %0) unnamed_addr #6 comdat align 2 personality i8* bitcast (i32 (...)* @__gxx_personality_v0 to i8*) {
  %2 = getelementptr inbounds %"struct.std::_Vector_base.1", %"struct.std::_Vector_base.1"* %0, i64 0, i32 0, i32 0, i32 0
  %3 = load %"class.std::vector.5"*, %"class.std::vector.5"** %2, align 8, !tbaa !8
  %4 = icmp eq %"class.std::vector.5"* %3, null
  br i1 %4, label %7, label %5

5:                                                ; preds = %1
  %6 = bitcast %"class.std::vector.5"* %3 to i8*
  tail call void @_ZdlPv(i8* nonnull %6) #21
  br label %7

7:                                                ; preds = %5, %1
  ret void
}

; Function Attrs: minsize optsize sspstrong uwtable
define linkonce_odr dso_local void @_ZNSt12_Destroy_auxILb0EE9__destroyIPSt6vectorI4edgeSaIS3_EEEEvT_S7_(%"class.std::vector.5"* %0, %"class.std::vector.5"* %1) local_unnamed_addr #9 comdat align 2 personality i32 (...)* @__gxx_personality_v0 {
  br label %3

3:                                                ; preds = %6, %2
  %4 = phi %"class.std::vector.5"* [ %0, %2 ], [ %8, %6 ]
  %5 = icmp eq %"class.std::vector.5"* %4, %1
  br i1 %5, label %9, label %6

6:                                                ; preds = %3
  %7 = getelementptr inbounds %"class.std::vector.5", %"class.std::vector.5"* %4, i64 0, i32 0
  tail call void @_ZNSt12_Vector_baseI4edgeSaIS0_EED2Ev(%"struct.std::_Vector_base.6"* nonnull align 8 dereferenceable(24) %7) #21
  %8 = getelementptr inbounds %"class.std::vector.5", %"class.std::vector.5"* %4, i64 1
  br label %3, !llvm.loop !39

9:                                                ; preds = %3
  ret void
}

; Function Attrs: minsize nounwind optsize sspstrong uwtable
define linkonce_odr dso_local void @_ZNSt12_Vector_baseI4edgeSaIS0_EED2Ev(%"struct.std::_Vector_base.6"* nonnull align 8 dereferenceable(24) %0) unnamed_addr #6 comdat align 2 personality i8* bitcast (i32 (...)* @__gxx_personality_v0 to i8*) {
  %2 = getelementptr inbounds %"struct.std::_Vector_base.6", %"struct.std::_Vector_base.6"* %0, i64 0, i32 0, i32 0, i32 0
  %3 = load %struct.edge*, %struct.edge** %2, align 8, !tbaa !40
  %4 = icmp eq %struct.edge* %3, null
  br i1 %4, label %7, label %5

5:                                                ; preds = %1
  %6 = bitcast %struct.edge* %3 to i8*
  tail call void @_ZdlPv(i8* nonnull %6) #21
  br label %7

7:                                                ; preds = %5, %1
  ret void
}

; Function Attrs: minsize optsize
declare nonnull align 8 dereferenceable(16) %"class.std::basic_istream"* @_ZNSi10_M_extractIxEERSiRT_(%"class.std::basic_istream"* nonnull align 8 dereferenceable(16), i64* nonnull align 8 dereferenceable(8)) local_unnamed_addr #0

; Function Attrs: minsize optsize sspstrong uwtable
define linkonce_odr dso_local i64 @_ZNSt6vectorIxSaIxEE17_S_check_init_lenEmRKS0_(i64 %0, %"class.std::allocator"* nonnull align 1 dereferenceable(1) %1) local_unnamed_addr #9 comdat align 2 personality i32 (...)* @__gxx_personality_v0 {
  %3 = icmp ugt i64 %0, 1152921504606846975
  br i1 %3, label %4, label %5

4:                                                ; preds = %2
  tail call void @_ZSt20__throw_length_errorPKc(i8* getelementptr inbounds ([49 x i8], [49 x i8]* @.str, i64 0, i64 0)) #24
  unreachable

5:                                                ; preds = %2
  ret i64 %0
}

; Function Attrs: minsize mustprogress optsize sspstrong uwtable
define linkonce_odr dso_local void @_ZNSt6vectorIxSaIxEE21_M_default_initializeEm(%"class.std::vector"* nonnull align 8 dereferenceable(24) %0, i64 %1) local_unnamed_addr #14 comdat align 2 {
  %3 = getelementptr inbounds %"class.std::vector", %"class.std::vector"* %0, i64 0, i32 0, i32 0, i32 0, i32 0
  %4 = load i64*, i64** %3, align 8, !tbaa !16
  %5 = tail call i64* @_ZNSt27__uninitialized_default_n_1ILb1EE18__uninit_default_nIPxmEET_S3_T0_(i64* %4, i64 %1) #20
  %6 = getelementptr inbounds %"class.std::vector", %"class.std::vector"* %0, i64 0, i32 0, i32 0, i32 0, i32 1
  store i64* %5, i64** %6, align 8, !tbaa !42
  ret void
}

; Function Attrs: minsize noreturn optsize
declare void @_ZSt20__throw_length_errorPKc(i8*) local_unnamed_addr #15

; Function Attrs: minsize mustprogress optsize sspstrong uwtable
define linkonce_odr dso_local void @_ZNSt12_Vector_baseIxSaIxEE17_M_create_storageEm(%"struct.std::_Vector_base"* nonnull align 8 dereferenceable(24) %0, i64 %1) local_unnamed_addr #14 comdat align 2 {
  %3 = tail call i64* @_ZNSt12_Vector_baseIxSaIxEE11_M_allocateEm(%"struct.std::_Vector_base"* nonnull align 8 dereferenceable(24) %0, i64 %1) #20
  %4 = getelementptr inbounds %"struct.std::_Vector_base", %"struct.std::_Vector_base"* %0, i64 0, i32 0, i32 0, i32 0
  store i64* %3, i64** %4, align 8, !tbaa !16
  %5 = getelementptr inbounds %"struct.std::_Vector_base", %"struct.std::_Vector_base"* %0, i64 0, i32 0, i32 0, i32 1
  store i64* %3, i64** %5, align 8, !tbaa !42
  %6 = getelementptr inbounds i64, i64* %3, i64 %1
  %7 = getelementptr inbounds %"struct.std::_Vector_base", %"struct.std::_Vector_base"* %0, i64 0, i32 0, i32 0, i32 2
  store i64* %6, i64** %7, align 8, !tbaa !43
  ret void
}

; Function Attrs: minsize mustprogress optsize sspstrong uwtable
define linkonce_odr dso_local i64* @_ZNSt12_Vector_baseIxSaIxEE11_M_allocateEm(%"struct.std::_Vector_base"* nonnull align 8 dereferenceable(24) %0, i64 %1) local_unnamed_addr #14 comdat align 2 {
  %3 = icmp eq i64 %1, 0
  br i1 %3, label %7, label %4

4:                                                ; preds = %2
  %5 = bitcast %"struct.std::_Vector_base"* %0 to %"class.std::allocator"*
  %6 = tail call i64* @_ZNSt16allocator_traitsISaIxEE8allocateERS0_m(%"class.std::allocator"* nonnull align 1 dereferenceable(1) %5, i64 %1) #20
  br label %7

7:                                                ; preds = %2, %4
  %8 = phi i64* [ %6, %4 ], [ null, %2 ]
  ret i64* %8
}

; Function Attrs: minsize mustprogress optsize sspstrong uwtable
define linkonce_odr dso_local i64* @_ZNSt16allocator_traitsISaIxEE8allocateERS0_m(%"class.std::allocator"* nonnull align 1 dereferenceable(1) %0, i64 %1) local_unnamed_addr #14 comdat align 2 {
  %3 = bitcast %"class.std::allocator"* %0 to %"class.__gnu_cxx::new_allocator"*
  %4 = tail call i64* @_ZN9__gnu_cxx13new_allocatorIxE8allocateEmPKv(%"class.__gnu_cxx::new_allocator"* nonnull align 1 dereferenceable(1) %3, i64 %1, i8* null) #20
  ret i64* %4
}

; Function Attrs: minsize mustprogress optsize sspstrong uwtable
define linkonce_odr dso_local i64* @_ZN9__gnu_cxx13new_allocatorIxE8allocateEmPKv(%"class.__gnu_cxx::new_allocator"* nonnull align 1 dereferenceable(1) %0, i64 %1, i8* %2) local_unnamed_addr #14 comdat align 2 {
  %4 = icmp ugt i64 %1, 1152921504606846975
  br i1 %4, label %5, label %9, !prof !44

5:                                                ; preds = %3
  %6 = icmp ugt i64 %1, 2305843009213693951
  br i1 %6, label %7, label %8

7:                                                ; preds = %5
  tail call void @_ZSt28__throw_bad_array_new_lengthv() #24
  unreachable

8:                                                ; preds = %5
  tail call void @_ZSt17__throw_bad_allocv() #24
  unreachable

9:                                                ; preds = %3
  %10 = shl nuw nsw i64 %1, 3
  %11 = tail call noalias nonnull i8* @_Znwm(i64 %10) #25
  %12 = bitcast i8* %11 to i64*
  ret i64* %12
}

; Function Attrs: minsize noreturn optsize
declare void @_ZSt28__throw_bad_array_new_lengthv() local_unnamed_addr #15

; Function Attrs: minsize noreturn optsize
declare void @_ZSt17__throw_bad_allocv() local_unnamed_addr #15

; Function Attrs: minsize nobuiltin optsize allocsize(0)
declare nonnull i8* @_Znwm(i64) local_unnamed_addr #16

; Function Attrs: minsize mustprogress optsize sspstrong uwtable
define linkonce_odr dso_local i64* @_ZNSt27__uninitialized_default_n_1ILb1EE18__uninit_default_nIPxmEET_S3_T0_(i64* %0, i64 %1) local_unnamed_addr #14 comdat align 2 {
  %3 = icmp eq i64 %1, 0
  br i1 %3, label %8, label %4

4:                                                ; preds = %2
  store i64 0, i64* %0, align 8, !tbaa !14
  %5 = getelementptr inbounds i64, i64* %0, i64 1
  %6 = add i64 %1, -1
  %7 = tail call i64* @_ZSt10__fill_n_aIPxmxET_S1_T0_RKT1_St26random_access_iterator_tag(i64* nonnull %5, i64 %6, i64* nonnull align 8 dereferenceable(8) %0) #20
  br label %8

8:                                                ; preds = %4, %2
  %9 = phi i64* [ %7, %4 ], [ %0, %2 ]
  ret i64* %9
}

; Function Attrs: inlinehint minsize mustprogress optsize sspstrong uwtable
define linkonce_odr dso_local i64* @_ZSt10__fill_n_aIPxmxET_S1_T0_RKT1_St26random_access_iterator_tag(i64* %0, i64 %1, i64* nonnull align 8 dereferenceable(8) %2) local_unnamed_addr #11 comdat {
  %4 = icmp eq i64 %1, 0
  br i1 %4, label %13, label %5

5:                                                ; preds = %3
  %6 = getelementptr inbounds i64, i64* %0, i64 %1
  %7 = load i64, i64* %2, align 8, !tbaa !14
  br label %8

8:                                                ; preds = %11, %5
  %9 = phi i64* [ %0, %5 ], [ %12, %11 ]
  %10 = icmp eq i64* %9, %6
  br i1 %10, label %13, label %11

11:                                               ; preds = %8
  store i64 %7, i64* %9, align 8, !tbaa !14
  %12 = getelementptr inbounds i64, i64* %9, i64 1
  br label %8, !llvm.loop !45

13:                                               ; preds = %8, %3
  %14 = phi i64* [ %0, %3 ], [ %6, %8 ]
  ret i64* %14
}

; Function Attrs: minsize nounwind optsize sspstrong uwtable
define linkonce_odr dso_local void @_ZNSt6vectorIxSaIxEE14_M_move_assignEOS1_St17integral_constantIbLb1EE(%"class.std::vector"* nonnull align 8 dereferenceable(24) %0, %"class.std::vector"* nonnull align 8 dereferenceable(24) %1) local_unnamed_addr #6 comdat align 2 personality i8* bitcast (i32 (...)* @__gxx_personality_v0 to i8*) {
  %3 = alloca %"class.std::vector", align 16
  %4 = bitcast %"class.std::vector"* %3 to i8*
  call void @llvm.lifetime.start.p0i8(i64 24, i8* nonnull %4) #23
  %5 = getelementptr inbounds %"class.std::vector", %"class.std::vector"* %0, i64 0, i32 0, i32 0, i32 0
  %6 = getelementptr inbounds %"class.std::vector", %"class.std::vector"* %1, i64 0, i32 0, i32 0, i32 0
  tail call void @_ZNSt12_Vector_baseIxSaIxEE17_Vector_impl_data12_M_swap_dataERS2_(%"struct.std::_Vector_base<long long, std::allocator<long long>>::_Vector_impl_data"* nonnull align 8 dereferenceable(24) %5, %"struct.std::_Vector_base<long long, std::allocator<long long>>::_Vector_impl_data"* nonnull align 8 dereferenceable(24) %6) #21
  %7 = getelementptr inbounds %"class.std::vector", %"class.std::vector"* %3, i64 0, i32 0, i32 0, i32 0, i32 2
  %8 = bitcast %"class.std::vector"* %1 to <2 x i64*>*
  %9 = load <2 x i64*>, <2 x i64*>* %8, align 8, !tbaa !30
  %10 = bitcast %"class.std::vector"* %3 to <2 x i64*>*
  store <2 x i64*> %9, <2 x i64*>* %10, align 16, !tbaa !30
  %11 = getelementptr inbounds %"class.std::vector", %"class.std::vector"* %1, i64 0, i32 0, i32 0, i32 0, i32 2
  %12 = load i64*, i64** %11, align 8, !tbaa !43
  store i64* %12, i64** %7, align 16, !tbaa !43
  %13 = getelementptr inbounds %"class.std::vector", %"class.std::vector"* %3, i64 0, i32 0
  %14 = bitcast %"class.std::vector"* %1 to i8*
  call void @llvm.memset.p0i8.i64(i8* noundef nonnull align 8 dereferenceable(24) %14, i8 0, i64 24, i1 false)
  call void @_ZNSt12_Vector_baseIxSaIxEED2Ev(%"struct.std::_Vector_base"* nonnull align 8 dereferenceable(24) %13) #21
  call void @llvm.lifetime.end.p0i8(i64 24, i8* nonnull %4) #23
  ret void
}

; Function Attrs: minsize nounwind optsize sspstrong uwtable
define linkonce_odr dso_local void @_ZNSt12_Vector_baseIxSaIxEE17_Vector_impl_data12_M_swap_dataERS2_(%"struct.std::_Vector_base<long long, std::allocator<long long>>::_Vector_impl_data"* nonnull align 8 dereferenceable(24) %0, %"struct.std::_Vector_base<long long, std::allocator<long long>>::_Vector_impl_data"* nonnull align 8 dereferenceable(24) %1) local_unnamed_addr #6 comdat align 2 {
  %3 = bitcast %"struct.std::_Vector_base<long long, std::allocator<long long>>::_Vector_impl_data"* %0 to <2 x i64*>*
  %4 = load <2 x i64*>, <2 x i64*>* %3, align 8, !tbaa !30
  %5 = getelementptr inbounds %"struct.std::_Vector_base<long long, std::allocator<long long>>::_Vector_impl_data", %"struct.std::_Vector_base<long long, std::allocator<long long>>::_Vector_impl_data"* %0, i64 0, i32 2
  %6 = load i64*, i64** %5, align 8, !tbaa !43
  %7 = bitcast %"struct.std::_Vector_base<long long, std::allocator<long long>>::_Vector_impl_data"* %1 to <2 x i64*>*
  %8 = load <2 x i64*>, <2 x i64*>* %7, align 8, !tbaa !30
  %9 = bitcast %"struct.std::_Vector_base<long long, std::allocator<long long>>::_Vector_impl_data"* %0 to <2 x i64*>*
  store <2 x i64*> %8, <2 x i64*>* %9, align 8, !tbaa !30
  %10 = getelementptr inbounds %"struct.std::_Vector_base<long long, std::allocator<long long>>::_Vector_impl_data", %"struct.std::_Vector_base<long long, std::allocator<long long>>::_Vector_impl_data"* %1, i64 0, i32 2
  %11 = load i64*, i64** %10, align 8, !tbaa !43
  store i64* %11, i64** %5, align 8, !tbaa !43
  %12 = bitcast %"struct.std::_Vector_base<long long, std::allocator<long long>>::_Vector_impl_data"* %1 to <2 x i64*>*
  store <2 x i64*> %4, <2 x i64*>* %12, align 8, !tbaa !30
  store i64* %6, i64** %10, align 8, !tbaa !43
  ret void
}

; Function Attrs: minsize optsize sspstrong uwtable
define linkonce_odr dso_local i64 @_ZNSt6vectorIS_I4edgeSaIS0_EESaIS2_EE17_S_check_init_lenEmRKS3_(i64 %0, %"class.std::allocator.2"* nonnull align 1 dereferenceable(1) %1) local_unnamed_addr #9 comdat align 2 {
  %3 = icmp ugt i64 %0, 384307168202282325
  br i1 %3, label %4, label %5

4:                                                ; preds = %2
  tail call void @_ZSt20__throw_length_errorPKc(i8* getelementptr inbounds ([49 x i8], [49 x i8]* @.str, i64 0, i64 0)) #24
  unreachable

5:                                                ; preds = %2
  ret i64 %0
}

; Function Attrs: minsize mustprogress optsize sspstrong uwtable
define linkonce_odr dso_local void @_ZNSt6vectorIS_I4edgeSaIS0_EESaIS2_EE21_M_default_initializeEm(%"class.std::vector.0"* nonnull align 8 dereferenceable(24) %0, i64 %1) local_unnamed_addr #14 comdat align 2 {
  %3 = getelementptr inbounds %"class.std::vector.0", %"class.std::vector.0"* %0, i64 0, i32 0, i32 0, i32 0, i32 0
  %4 = load %"class.std::vector.5"*, %"class.std::vector.5"** %3, align 8, !tbaa !8
  %5 = tail call %"class.std::vector.5"* @_ZNSt27__uninitialized_default_n_1ILb0EE18__uninit_default_nIPSt6vectorI4edgeSaIS3_EEmEET_S7_T0_(%"class.std::vector.5"* %4, i64 %1) #20
  %6 = getelementptr inbounds %"class.std::vector.0", %"class.std::vector.0"* %0, i64 0, i32 0, i32 0, i32 0, i32 1
  store %"class.std::vector.5"* %5, %"class.std::vector.5"** %6, align 8, !tbaa !13
  ret void
}

; Function Attrs: minsize mustprogress optsize sspstrong uwtable
define linkonce_odr dso_local void @_ZNSt12_Vector_baseISt6vectorI4edgeSaIS1_EESaIS3_EE17_M_create_storageEm(%"struct.std::_Vector_base.1"* nonnull align 8 dereferenceable(24) %0, i64 %1) local_unnamed_addr #14 comdat align 2 {
  %3 = tail call %"class.std::vector.5"* @_ZNSt12_Vector_baseISt6vectorI4edgeSaIS1_EESaIS3_EE11_M_allocateEm(%"struct.std::_Vector_base.1"* nonnull align 8 dereferenceable(24) %0, i64 %1) #20
  %4 = getelementptr inbounds %"struct.std::_Vector_base.1", %"struct.std::_Vector_base.1"* %0, i64 0, i32 0, i32 0, i32 0
  store %"class.std::vector.5"* %3, %"class.std::vector.5"** %4, align 8, !tbaa !8
  %5 = getelementptr inbounds %"struct.std::_Vector_base.1", %"struct.std::_Vector_base.1"* %0, i64 0, i32 0, i32 0, i32 1
  store %"class.std::vector.5"* %3, %"class.std::vector.5"** %5, align 8, !tbaa !13
  %6 = getelementptr inbounds %"class.std::vector.5", %"class.std::vector.5"* %3, i64 %1
  %7 = getelementptr inbounds %"struct.std::_Vector_base.1", %"struct.std::_Vector_base.1"* %0, i64 0, i32 0, i32 0, i32 2
  store %"class.std::vector.5"* %6, %"class.std::vector.5"** %7, align 8, !tbaa !46
  ret void
}

; Function Attrs: minsize mustprogress optsize sspstrong uwtable
define linkonce_odr dso_local %"class.std::vector.5"* @_ZNSt12_Vector_baseISt6vectorI4edgeSaIS1_EESaIS3_EE11_M_allocateEm(%"struct.std::_Vector_base.1"* nonnull align 8 dereferenceable(24) %0, i64 %1) local_unnamed_addr #14 comdat align 2 {
  %3 = icmp eq i64 %1, 0
  br i1 %3, label %7, label %4

4:                                                ; preds = %2
  %5 = bitcast %"struct.std::_Vector_base.1"* %0 to %"class.std::allocator.2"*
  %6 = tail call %"class.std::vector.5"* @_ZNSt16allocator_traitsISaISt6vectorI4edgeSaIS1_EEEE8allocateERS4_m(%"class.std::allocator.2"* nonnull align 1 dereferenceable(1) %5, i64 %1) #20
  br label %7

7:                                                ; preds = %2, %4
  %8 = phi %"class.std::vector.5"* [ %6, %4 ], [ null, %2 ]
  ret %"class.std::vector.5"* %8
}

; Function Attrs: minsize mustprogress optsize sspstrong uwtable
define linkonce_odr dso_local %"class.std::vector.5"* @_ZNSt16allocator_traitsISaISt6vectorI4edgeSaIS1_EEEE8allocateERS4_m(%"class.std::allocator.2"* nonnull align 1 dereferenceable(1) %0, i64 %1) local_unnamed_addr #14 comdat align 2 {
  %3 = bitcast %"class.std::allocator.2"* %0 to %"class.__gnu_cxx::new_allocator.3"*
  %4 = tail call %"class.std::vector.5"* @_ZN9__gnu_cxx13new_allocatorISt6vectorI4edgeSaIS2_EEE8allocateEmPKv(%"class.__gnu_cxx::new_allocator.3"* nonnull align 1 dereferenceable(1) %3, i64 %1, i8* null) #20
  ret %"class.std::vector.5"* %4
}

; Function Attrs: minsize mustprogress optsize sspstrong uwtable
define linkonce_odr dso_local %"class.std::vector.5"* @_ZN9__gnu_cxx13new_allocatorISt6vectorI4edgeSaIS2_EEE8allocateEmPKv(%"class.__gnu_cxx::new_allocator.3"* nonnull align 1 dereferenceable(1) %0, i64 %1, i8* %2) local_unnamed_addr #14 comdat align 2 {
  %4 = icmp ugt i64 %1, 384307168202282325
  br i1 %4, label %5, label %9, !prof !44

5:                                                ; preds = %3
  %6 = icmp ugt i64 %1, 768614336404564650
  br i1 %6, label %7, label %8

7:                                                ; preds = %5
  tail call void @_ZSt28__throw_bad_array_new_lengthv() #24
  unreachable

8:                                                ; preds = %5
  tail call void @_ZSt17__throw_bad_allocv() #24
  unreachable

9:                                                ; preds = %3
  %10 = mul nuw nsw i64 %1, 24
  %11 = tail call noalias nonnull i8* @_Znwm(i64 %10) #25
  %12 = bitcast i8* %11 to %"class.std::vector.5"*
  ret %"class.std::vector.5"* %12
}

; Function Attrs: minsize optsize sspstrong uwtable
define linkonce_odr dso_local %"class.std::vector.5"* @_ZNSt27__uninitialized_default_n_1ILb0EE18__uninit_default_nIPSt6vectorI4edgeSaIS3_EEmEET_S7_T0_(%"class.std::vector.5"* %0, i64 %1) local_unnamed_addr #9 comdat align 2 personality i8* bitcast (i32 (...)* @__gxx_personality_v0 to i8*) {
  br label %3

3:                                                ; preds = %7, %2
  %4 = phi i64 [ %1, %2 ], [ %9, %7 ]
  %5 = phi %"class.std::vector.5"* [ %0, %2 ], [ %10, %7 ]
  %6 = icmp eq i64 %4, 0
  br i1 %6, label %11, label %7

7:                                                ; preds = %3
  %8 = bitcast %"class.std::vector.5"* %5 to i8*
  tail call void @llvm.memset.p0i8.i64(i8* noundef nonnull align 8 dereferenceable(24) %8, i8 0, i64 24, i1 false) #23
  %9 = add i64 %4, -1
  %10 = getelementptr inbounds %"class.std::vector.5", %"class.std::vector.5"* %5, i64 1
  br label %3, !llvm.loop !47

11:                                               ; preds = %3
  ret %"class.std::vector.5"* %5
}

; Function Attrs: argmemonly mustprogress nofree nounwind willreturn writeonly
declare void @llvm.memset.p0i8.i64(i8* nocapture writeonly, i8, i64, i1 immarg) #17

; Function Attrs: minsize nounwind optsize sspstrong uwtable
define linkonce_odr dso_local void @_ZNSt6vectorIS_I4edgeSaIS0_EESaIS2_EE14_M_move_assignEOS4_St17integral_constantIbLb1EE(%"class.std::vector.0"* nonnull align 8 dereferenceable(24) %0, %"class.std::vector.0"* nonnull align 8 dereferenceable(24) %1) local_unnamed_addr #6 comdat align 2 personality i8* bitcast (i32 (...)* @__gxx_personality_v0 to i8*) {
  %3 = alloca %"class.std::vector.0", align 16
  %4 = bitcast %"class.std::vector.0"* %3 to i8*
  call void @llvm.lifetime.start.p0i8(i64 24, i8* nonnull %4) #23
  %5 = getelementptr inbounds %"class.std::vector.0", %"class.std::vector.0"* %0, i64 0, i32 0, i32 0, i32 0
  %6 = getelementptr inbounds %"class.std::vector.0", %"class.std::vector.0"* %1, i64 0, i32 0, i32 0, i32 0
  tail call void @_ZNSt12_Vector_baseISt6vectorI4edgeSaIS1_EESaIS3_EE17_Vector_impl_data12_M_swap_dataERS6_(%"struct.std::_Vector_base<std::vector<edge>, std::allocator<std::vector<edge>>>::_Vector_impl_data"* nonnull align 8 dereferenceable(24) %5, %"struct.std::_Vector_base<std::vector<edge>, std::allocator<std::vector<edge>>>::_Vector_impl_data"* nonnull align 8 dereferenceable(24) %6) #21
  %7 = getelementptr inbounds %"class.std::vector.0", %"class.std::vector.0"* %3, i64 0, i32 0, i32 0, i32 0, i32 2
  %8 = bitcast %"class.std::vector.0"* %1 to <2 x %"class.std::vector.5"*>*
  %9 = load <2 x %"class.std::vector.5"*>, <2 x %"class.std::vector.5"*>* %8, align 8, !tbaa !30
  %10 = bitcast %"class.std::vector.0"* %3 to <2 x %"class.std::vector.5"*>*
  store <2 x %"class.std::vector.5"*> %9, <2 x %"class.std::vector.5"*>* %10, align 16, !tbaa !30
  %11 = getelementptr inbounds %"class.std::vector.0", %"class.std::vector.0"* %1, i64 0, i32 0, i32 0, i32 0, i32 2
  %12 = load %"class.std::vector.5"*, %"class.std::vector.5"** %11, align 8, !tbaa !46
  store %"class.std::vector.5"* %12, %"class.std::vector.5"** %7, align 16, !tbaa !46
  %13 = bitcast %"class.std::vector.0"* %1 to i8*
  call void @llvm.memset.p0i8.i64(i8* noundef nonnull align 8 dereferenceable(24) %13, i8 0, i64 24, i1 false)
  call void @_ZNSt6vectorIS_I4edgeSaIS0_EESaIS2_EED2Ev(%"class.std::vector.0"* nonnull align 8 dereferenceable(24) %3) #21
  call void @llvm.lifetime.end.p0i8(i64 24, i8* nonnull %4) #23
  ret void
}

; Function Attrs: minsize nounwind optsize sspstrong uwtable
define linkonce_odr dso_local void @_ZNSt12_Vector_baseISt6vectorI4edgeSaIS1_EESaIS3_EE17_Vector_impl_data12_M_swap_dataERS6_(%"struct.std::_Vector_base<std::vector<edge>, std::allocator<std::vector<edge>>>::_Vector_impl_data"* nonnull align 8 dereferenceable(24) %0, %"struct.std::_Vector_base<std::vector<edge>, std::allocator<std::vector<edge>>>::_Vector_impl_data"* nonnull align 8 dereferenceable(24) %1) local_unnamed_addr #6 comdat align 2 {
  %3 = bitcast %"struct.std::_Vector_base<std::vector<edge>, std::allocator<std::vector<edge>>>::_Vector_impl_data"* %0 to <2 x %"class.std::vector.5"*>*
  %4 = load <2 x %"class.std::vector.5"*>, <2 x %"class.std::vector.5"*>* %3, align 8, !tbaa !30
  %5 = getelementptr inbounds %"struct.std::_Vector_base<std::vector<edge>, std::allocator<std::vector<edge>>>::_Vector_impl_data", %"struct.std::_Vector_base<std::vector<edge>, std::allocator<std::vector<edge>>>::_Vector_impl_data"* %0, i64 0, i32 2
  %6 = load %"class.std::vector.5"*, %"class.std::vector.5"** %5, align 8, !tbaa !46
  %7 = bitcast %"struct.std::_Vector_base<std::vector<edge>, std::allocator<std::vector<edge>>>::_Vector_impl_data"* %1 to <2 x %"class.std::vector.5"*>*
  %8 = load <2 x %"class.std::vector.5"*>, <2 x %"class.std::vector.5"*>* %7, align 8, !tbaa !30
  %9 = bitcast %"struct.std::_Vector_base<std::vector<edge>, std::allocator<std::vector<edge>>>::_Vector_impl_data"* %0 to <2 x %"class.std::vector.5"*>*
  store <2 x %"class.std::vector.5"*> %8, <2 x %"class.std::vector.5"*>* %9, align 8, !tbaa !30
  %10 = getelementptr inbounds %"struct.std::_Vector_base<std::vector<edge>, std::allocator<std::vector<edge>>>::_Vector_impl_data", %"struct.std::_Vector_base<std::vector<edge>, std::allocator<std::vector<edge>>>::_Vector_impl_data"* %1, i64 0, i32 2
  %11 = load %"class.std::vector.5"*, %"class.std::vector.5"** %10, align 8, !tbaa !46
  store %"class.std::vector.5"* %11, %"class.std::vector.5"** %5, align 8, !tbaa !46
  %12 = bitcast %"struct.std::_Vector_base<std::vector<edge>, std::allocator<std::vector<edge>>>::_Vector_impl_data"* %1 to <2 x %"class.std::vector.5"*>*
  store <2 x %"class.std::vector.5"*> %4, <2 x %"class.std::vector.5"*>* %12, align 8, !tbaa !30
  store %"class.std::vector.5"* %6, %"class.std::vector.5"** %10, align 8, !tbaa !46
  ret void
}

; Function Attrs: minsize optsize sspstrong uwtable
define linkonce_odr dso_local void @_ZNSt6vectorI4edgeSaIS0_EE12emplace_backIJS0_EEEvDpOT_(%"class.std::vector.5"* nonnull align 8 dereferenceable(24) %0, %struct.edge* nonnull align 8 dereferenceable(16) %1) local_unnamed_addr #9 comdat align 2 {
  %3 = getelementptr inbounds %"class.std::vector.5", %"class.std::vector.5"* %0, i64 0, i32 0, i32 0, i32 0, i32 1
  %4 = load %struct.edge*, %struct.edge** %3, align 8, !tbaa !48
  %5 = getelementptr inbounds %"class.std::vector.5", %"class.std::vector.5"* %0, i64 0, i32 0, i32 0, i32 0, i32 2
  %6 = load %struct.edge*, %struct.edge** %5, align 8, !tbaa !49
  %7 = icmp eq %struct.edge* %4, %6
  br i1 %7, label %13, label %8

8:                                                ; preds = %2
  %9 = bitcast %struct.edge* %4 to i8*
  %10 = bitcast %struct.edge* %1 to i8*
  tail call void @llvm.memcpy.p0i8.p0i8.i64(i8* noundef nonnull align 8 dereferenceable(16) %9, i8* noundef nonnull align 8 dereferenceable(16) %10, i64 16, i1 false) #23, !tbaa.struct !32
  %11 = load %struct.edge*, %struct.edge** %3, align 8, !tbaa !48
  %12 = getelementptr inbounds %struct.edge, %struct.edge* %11, i64 1
  store %struct.edge* %12, %struct.edge** %3, align 8, !tbaa !48
  br label %14

13:                                               ; preds = %2
  tail call void @_ZNSt6vectorI4edgeSaIS0_EE17_M_realloc_insertIJS0_EEEvN9__gnu_cxx17__normal_iteratorIPS0_S2_EEDpOT_(%"class.std::vector.5"* nonnull align 8 dereferenceable(24) %0, %struct.edge* %4, %struct.edge* nonnull align 8 dereferenceable(16) %1) #20
  br label %14

14:                                               ; preds = %13, %8
  ret void
}

; Function Attrs: minsize optsize sspstrong uwtable
define linkonce_odr dso_local void @_ZNSt6vectorI4edgeSaIS0_EE17_M_realloc_insertIJS0_EEEvN9__gnu_cxx17__normal_iteratorIPS0_S2_EEDpOT_(%"class.std::vector.5"* nonnull align 8 dereferenceable(24) %0, %struct.edge* %1, %struct.edge* nonnull align 8 dereferenceable(16) %2) local_unnamed_addr #9 comdat align 2 {
  %4 = tail call i64 @_ZNKSt6vectorI4edgeSaIS0_EE12_M_check_lenEmPKc(%"class.std::vector.5"* nonnull align 8 dereferenceable(24) %0, i64 1, i8* getelementptr inbounds ([26 x i8], [26 x i8]* @.str.8, i64 0, i64 0)) #20
  %5 = getelementptr inbounds %"class.std::vector.5", %"class.std::vector.5"* %0, i64 0, i32 0
  %6 = getelementptr inbounds %"class.std::vector.5", %"class.std::vector.5"* %0, i64 0, i32 0, i32 0, i32 0, i32 0
  %7 = load %struct.edge*, %struct.edge** %6, align 8, !tbaa !40
  %8 = getelementptr inbounds %"class.std::vector.5", %"class.std::vector.5"* %0, i64 0, i32 0, i32 0, i32 0, i32 1
  %9 = load %struct.edge*, %struct.edge** %8, align 8, !tbaa !48
  %10 = ptrtoint %struct.edge* %1 to i64
  %11 = ptrtoint %struct.edge* %7 to i64
  %12 = sub i64 %10, %11
  %13 = ashr exact i64 %12, 4
  %14 = tail call %struct.edge* @_ZNSt12_Vector_baseI4edgeSaIS0_EE11_M_allocateEm(%"struct.std::_Vector_base.6"* nonnull align 8 dereferenceable(24) %5, i64 %4) #20
  %15 = getelementptr inbounds %struct.edge, %struct.edge* %14, i64 %13
  %16 = bitcast %struct.edge* %15 to i8*
  %17 = bitcast %struct.edge* %2 to i8*
  tail call void @llvm.memcpy.p0i8.p0i8.i64(i8* noundef nonnull align 8 dereferenceable(16) %16, i8* noundef nonnull align 8 dereferenceable(16) %17, i64 16, i1 false) #23, !tbaa.struct !32
  %18 = icmp sgt i64 %12, 0
  br i1 %18, label %19, label %22

19:                                               ; preds = %3
  %20 = bitcast %struct.edge* %14 to i8*
  %21 = bitcast %struct.edge* %7 to i8*
  tail call void @llvm.memmove.p0i8.p0i8.i64(i8* align 8 %20, i8* align 8 %21, i64 %12, i1 false) #23
  br label %22

22:                                               ; preds = %3, %19
  %23 = getelementptr inbounds %struct.edge, %struct.edge* %15, i64 1
  %24 = ptrtoint %struct.edge* %9 to i64
  %25 = sub i64 %24, %10
  %26 = icmp sgt i64 %25, 0
  br i1 %26, label %27, label %30

27:                                               ; preds = %22
  %28 = bitcast %struct.edge* %23 to i8*
  %29 = bitcast %struct.edge* %1 to i8*
  tail call void @llvm.memmove.p0i8.p0i8.i64(i8* nonnull align 8 %28, i8* align 8 %29, i64 %25, i1 false) #23
  br label %30

30:                                               ; preds = %22, %27
  %31 = icmp eq %struct.edge* %7, null
  br i1 %31, label %34, label %32

32:                                               ; preds = %30
  %33 = bitcast %struct.edge* %7 to i8*
  tail call void @_ZdlPv(i8* nonnull %33) #21
  br label %34

34:                                               ; preds = %30, %32
  %35 = getelementptr inbounds %"class.std::vector.5", %"class.std::vector.5"* %0, i64 0, i32 0, i32 0, i32 0, i32 2
  %36 = ashr exact i64 %25, 4
  %37 = getelementptr inbounds %struct.edge, %struct.edge* %23, i64 %36
  store %struct.edge* %14, %struct.edge** %6, align 8, !tbaa !40
  store %struct.edge* %37, %struct.edge** %8, align 8, !tbaa !48
  %38 = getelementptr inbounds %struct.edge, %struct.edge* %14, i64 %4
  store %struct.edge* %38, %struct.edge** %35, align 8, !tbaa !49
  ret void
}

; Function Attrs: minsize mustprogress optsize sspstrong uwtable
define linkonce_odr dso_local i64 @_ZNKSt6vectorI4edgeSaIS0_EE12_M_check_lenEmPKc(%"class.std::vector.5"* nonnull align 8 dereferenceable(24) %0, i64 %1, i8* %2) local_unnamed_addr #14 comdat align 2 {
  %4 = getelementptr inbounds %"class.std::vector.5", %"class.std::vector.5"* %0, i64 0, i32 0, i32 0, i32 0, i32 1
  %5 = load %struct.edge*, %struct.edge** %4, align 8, !tbaa !48
  %6 = getelementptr inbounds %"class.std::vector.5", %"class.std::vector.5"* %0, i64 0, i32 0, i32 0, i32 0, i32 0
  %7 = load %struct.edge*, %struct.edge** %6, align 8, !tbaa !40
  %8 = ptrtoint %struct.edge* %5 to i64
  %9 = ptrtoint %struct.edge* %7 to i64
  %10 = sub i64 %8, %9
  %11 = ashr exact i64 %10, 4
  %12 = sub nsw i64 576460752303423487, %11
  %13 = icmp ult i64 %12, %1
  br i1 %13, label %14, label %15

14:                                               ; preds = %3
  tail call void @_ZSt20__throw_length_errorPKc(i8* %2) #24
  unreachable

15:                                               ; preds = %3
  %16 = icmp ult i64 %11, %1
  %17 = select i1 %16, i64 %1, i64 %11
  %18 = add i64 %17, %11
  %19 = icmp ult i64 %18, %11
  %20 = icmp ugt i64 %18, 576460752303423487
  %21 = or i1 %19, %20
  %22 = select i1 %21, i64 576460752303423487, i64 %18
  ret i64 %22
}

; Function Attrs: minsize mustprogress optsize sspstrong uwtable
define linkonce_odr dso_local %struct.edge* @_ZNSt12_Vector_baseI4edgeSaIS0_EE11_M_allocateEm(%"struct.std::_Vector_base.6"* nonnull align 8 dereferenceable(24) %0, i64 %1) local_unnamed_addr #14 comdat align 2 {
  %3 = icmp eq i64 %1, 0
  br i1 %3, label %7, label %4

4:                                                ; preds = %2
  %5 = bitcast %"struct.std::_Vector_base.6"* %0 to %"class.std::allocator.7"*
  %6 = tail call %struct.edge* @_ZNSt16allocator_traitsISaI4edgeEE8allocateERS1_m(%"class.std::allocator.7"* nonnull align 1 dereferenceable(1) %5, i64 %1) #20
  br label %7

7:                                                ; preds = %2, %4
  %8 = phi %struct.edge* [ %6, %4 ], [ null, %2 ]
  ret %struct.edge* %8
}

; Function Attrs: minsize mustprogress optsize sspstrong uwtable
define linkonce_odr dso_local %struct.edge* @_ZNSt16allocator_traitsISaI4edgeEE8allocateERS1_m(%"class.std::allocator.7"* nonnull align 1 dereferenceable(1) %0, i64 %1) local_unnamed_addr #14 comdat align 2 {
  %3 = bitcast %"class.std::allocator.7"* %0 to %"class.__gnu_cxx::new_allocator.8"*
  %4 = tail call %struct.edge* @_ZN9__gnu_cxx13new_allocatorI4edgeE8allocateEmPKv(%"class.__gnu_cxx::new_allocator.8"* nonnull align 1 dereferenceable(1) %3, i64 %1, i8* null) #20
  ret %struct.edge* %4
}

; Function Attrs: minsize mustprogress optsize sspstrong uwtable
define linkonce_odr dso_local %struct.edge* @_ZN9__gnu_cxx13new_allocatorI4edgeE8allocateEmPKv(%"class.__gnu_cxx::new_allocator.8"* nonnull align 1 dereferenceable(1) %0, i64 %1, i8* %2) local_unnamed_addr #14 comdat align 2 {
  %4 = icmp ugt i64 %1, 576460752303423487
  br i1 %4, label %5, label %9, !prof !44

5:                                                ; preds = %3
  %6 = icmp ugt i64 %1, 1152921504606846975
  br i1 %6, label %7, label %8

7:                                                ; preds = %5
  tail call void @_ZSt28__throw_bad_array_new_lengthv() #24
  unreachable

8:                                                ; preds = %5
  tail call void @_ZSt17__throw_bad_allocv() #24
  unreachable

9:                                                ; preds = %3
  %10 = shl nuw nsw i64 %1, 4
  %11 = tail call noalias nonnull i8* @_Znwm(i64 %10) #25
  %12 = bitcast i8* %11 to %struct.edge*
  ret %struct.edge* %12
}

; Function Attrs: argmemonly mustprogress nofree nounwind willreturn
declare void @llvm.memmove.p0i8.p0i8.i64(i8* nocapture writeonly, i8* nocapture readonly, i64, i1 immarg) #10

; Function Attrs: minsize mustprogress optsize sspstrong uwtable
define linkonce_odr dso_local void @_ZNSt6vectorIxSaIxEE18_M_fill_initializeEmRKx(%"class.std::vector"* nonnull align 8 dereferenceable(24) %0, i64 %1, i64* nonnull align 8 dereferenceable(8) %2) local_unnamed_addr #14 comdat align 2 {
  %4 = getelementptr inbounds %"class.std::vector", %"class.std::vector"* %0, i64 0, i32 0, i32 0, i32 0, i32 0
  %5 = load i64*, i64** %4, align 8, !tbaa !16
  %6 = tail call i64* @_ZSt10__fill_n_aIPxmxET_S1_T0_RKT1_St26random_access_iterator_tag(i64* %5, i64 %1, i64* nonnull align 8 dereferenceable(8) %2) #20
  %7 = getelementptr inbounds %"class.std::vector", %"class.std::vector"* %0, i64 0, i32 0, i32 0, i32 0, i32 1
  store i64* %6, i64** %7, align 8, !tbaa !42
  ret void
}

; Function Attrs: inlinehint minsize optsize sspstrong uwtable
define linkonce_odr dso_local void @_ZSt9push_heapIN9__gnu_cxx17__normal_iteratorIPSt4pairIxxESt6vectorIS3_SaIS3_EEEESt7greaterIS3_EEvT_SB_T0_(%"struct.std::pair"* %0, %"struct.std::pair"* %1) local_unnamed_addr #18 comdat {
  %3 = alloca %"struct.__gnu_cxx::__ops::_Iter_comp_val", align 1
  %4 = getelementptr inbounds %"struct.__gnu_cxx::__ops::_Iter_comp_val", %"struct.__gnu_cxx::__ops::_Iter_comp_val"* %3, i64 0, i32 0, i32 0
  call void @llvm.lifetime.start.p0i8(i64 1, i8* nonnull %4) #23
  %5 = getelementptr inbounds %"struct.std::pair", %"struct.std::pair"* %1, i64 -1, i32 0
  %6 = load i64, i64* %5, align 8
  %7 = getelementptr inbounds %"struct.std::pair", %"struct.std::pair"* %1, i64 -1, i32 1
  %8 = load i64, i64* %7, align 8
  %9 = ptrtoint %"struct.std::pair"* %1 to i64
  %10 = ptrtoint %"struct.std::pair"* %0 to i64
  %11 = sub i64 %9, %10
  %12 = ashr exact i64 %11, 4
  %13 = add nsw i64 %12, -1
  call void @_ZSt11__push_heapIN9__gnu_cxx17__normal_iteratorIPSt4pairIxxESt6vectorIS3_SaIS3_EEEElS3_NS0_5__ops14_Iter_comp_valISt7greaterIS3_EEEEvT_T0_SF_T1_RT2_(%"struct.std::pair"* %0, i64 %13, i64 0, i64 %6, i64 %8, %"struct.__gnu_cxx::__ops::_Iter_comp_val"* nonnull align 1 dereferenceable(1) %3) #20
  call void @llvm.lifetime.end.p0i8(i64 1, i8* nonnull %4) #23
  ret void
}

; Function Attrs: minsize optsize sspstrong uwtable
define linkonce_odr dso_local void @_ZNSt6vectorISt4pairIxxESaIS1_EE12emplace_backIJS1_EEEvDpOT_(%"class.std::vector.10"* nonnull align 8 dereferenceable(24) %0, %"struct.std::pair"* nonnull align 8 dereferenceable(16) %1) local_unnamed_addr #9 comdat align 2 {
  %3 = getelementptr inbounds %"class.std::vector.10", %"class.std::vector.10"* %0, i64 0, i32 0, i32 0, i32 0, i32 1
  %4 = load %"struct.std::pair"*, %"struct.std::pair"** %3, align 8, !tbaa !36
  %5 = getelementptr inbounds %"class.std::vector.10", %"class.std::vector.10"* %0, i64 0, i32 0, i32 0, i32 0, i32 2
  %6 = load %"struct.std::pair"*, %"struct.std::pair"** %5, align 8, !tbaa !50
  %7 = icmp eq %"struct.std::pair"* %4, %6
  br i1 %7, label %13, label %8

8:                                                ; preds = %2
  %9 = bitcast %"struct.std::pair"* %4 to i8*
  %10 = bitcast %"struct.std::pair"* %1 to i8*
  tail call void @llvm.memcpy.p0i8.p0i8.i64(i8* noundef nonnull align 8 dereferenceable(16) %9, i8* noundef nonnull align 8 dereferenceable(16) %10, i64 16, i1 false) #23
  %11 = load %"struct.std::pair"*, %"struct.std::pair"** %3, align 8, !tbaa !36
  %12 = getelementptr inbounds %"struct.std::pair", %"struct.std::pair"* %11, i64 1
  store %"struct.std::pair"* %12, %"struct.std::pair"** %3, align 8, !tbaa !36
  br label %14

13:                                               ; preds = %2
  tail call void @_ZNSt6vectorISt4pairIxxESaIS1_EE17_M_realloc_insertIJS1_EEEvN9__gnu_cxx17__normal_iteratorIPS1_S3_EEDpOT_(%"class.std::vector.10"* nonnull align 8 dereferenceable(24) %0, %"struct.std::pair"* %4, %"struct.std::pair"* nonnull align 8 dereferenceable(16) %1) #20
  br label %14

14:                                               ; preds = %13, %8
  ret void
}

; Function Attrs: minsize optsize sspstrong uwtable
define linkonce_odr dso_local void @_ZNSt6vectorISt4pairIxxESaIS1_EE17_M_realloc_insertIJS1_EEEvN9__gnu_cxx17__normal_iteratorIPS1_S3_EEDpOT_(%"class.std::vector.10"* nonnull align 8 dereferenceable(24) %0, %"struct.std::pair"* %1, %"struct.std::pair"* nonnull align 8 dereferenceable(16) %2) local_unnamed_addr #9 comdat align 2 {
  %4 = tail call i64 @_ZNKSt6vectorISt4pairIxxESaIS1_EE12_M_check_lenEmPKc(%"class.std::vector.10"* nonnull align 8 dereferenceable(24) %0, i64 1, i8* getelementptr inbounds ([26 x i8], [26 x i8]* @.str.8, i64 0, i64 0)) #20
  %5 = getelementptr inbounds %"class.std::vector.10", %"class.std::vector.10"* %0, i64 0, i32 0
  %6 = getelementptr inbounds %"class.std::vector.10", %"class.std::vector.10"* %0, i64 0, i32 0, i32 0, i32 0, i32 0
  %7 = load %"struct.std::pair"*, %"struct.std::pair"** %6, align 8, !tbaa !38
  %8 = getelementptr inbounds %"class.std::vector.10", %"class.std::vector.10"* %0, i64 0, i32 0, i32 0, i32 0, i32 1
  %9 = load %"struct.std::pair"*, %"struct.std::pair"** %8, align 8, !tbaa !36
  %10 = ptrtoint %"struct.std::pair"* %1 to i64
  %11 = ptrtoint %"struct.std::pair"* %7 to i64
  %12 = sub i64 %10, %11
  %13 = ashr exact i64 %12, 4
  %14 = tail call %"struct.std::pair"* @_ZNSt12_Vector_baseISt4pairIxxESaIS1_EE11_M_allocateEm(%"struct.std::_Vector_base.11"* nonnull align 8 dereferenceable(24) %5, i64 %4) #20
  %15 = getelementptr inbounds %"struct.std::pair", %"struct.std::pair"* %14, i64 %13
  %16 = bitcast %"struct.std::pair"* %15 to i8*
  %17 = bitcast %"struct.std::pair"* %2 to i8*
  tail call void @llvm.memcpy.p0i8.p0i8.i64(i8* noundef nonnull align 8 dereferenceable(16) %16, i8* noundef nonnull align 8 dereferenceable(16) %17, i64 16, i1 false) #23
  br label %18

18:                                               ; preds = %22, %3
  %19 = phi %"struct.std::pair"* [ %7, %3 ], [ %25, %22 ]
  %20 = phi %"struct.std::pair"* [ %14, %3 ], [ %26, %22 ]
  %21 = icmp eq %"struct.std::pair"* %19, %1
  br i1 %21, label %27, label %22

22:                                               ; preds = %18
  %23 = bitcast %"struct.std::pair"* %20 to i8*
  %24 = bitcast %"struct.std::pair"* %19 to i8*
  tail call void @llvm.memcpy.p0i8.p0i8.i64(i8* noundef nonnull align 8 dereferenceable(16) %23, i8* noundef nonnull align 8 dereferenceable(16) %24, i64 16, i1 false) #23, !alias.scope !51
  %25 = getelementptr inbounds %"struct.std::pair", %"struct.std::pair"* %19, i64 1
  %26 = getelementptr inbounds %"struct.std::pair", %"struct.std::pair"* %20, i64 1
  br label %18, !llvm.loop !55

27:                                               ; preds = %18, %32
  %28 = phi %"struct.std::pair"* [ %35, %32 ], [ %1, %18 ]
  %29 = phi %"struct.std::pair"* [ %30, %32 ], [ %20, %18 ]
  %30 = getelementptr inbounds %"struct.std::pair", %"struct.std::pair"* %29, i64 1
  %31 = icmp eq %"struct.std::pair"* %28, %9
  br i1 %31, label %36, label %32

32:                                               ; preds = %27
  %33 = bitcast %"struct.std::pair"* %30 to i8*
  %34 = bitcast %"struct.std::pair"* %28 to i8*
  tail call void @llvm.memcpy.p0i8.p0i8.i64(i8* noundef nonnull align 8 dereferenceable(16) %33, i8* noundef nonnull align 8 dereferenceable(16) %34, i64 16, i1 false) #23, !alias.scope !56
  %35 = getelementptr inbounds %"struct.std::pair", %"struct.std::pair"* %28, i64 1
  br label %27, !llvm.loop !55

36:                                               ; preds = %27
  %37 = icmp eq %"struct.std::pair"* %7, null
  br i1 %37, label %40, label %38

38:                                               ; preds = %36
  %39 = bitcast %"struct.std::pair"* %7 to i8*
  tail call void @_ZdlPv(i8* nonnull %39) #21
  br label %40

40:                                               ; preds = %36, %38
  %41 = getelementptr inbounds %"class.std::vector.10", %"class.std::vector.10"* %0, i64 0, i32 0, i32 0, i32 0, i32 2
  store %"struct.std::pair"* %14, %"struct.std::pair"** %6, align 8, !tbaa !38
  store %"struct.std::pair"* %30, %"struct.std::pair"** %8, align 8, !tbaa !36
  %42 = getelementptr inbounds %"struct.std::pair", %"struct.std::pair"* %14, i64 %4
  store %"struct.std::pair"* %42, %"struct.std::pair"** %41, align 8, !tbaa !50
  ret void
}

; Function Attrs: minsize mustprogress optsize sspstrong uwtable
define linkonce_odr dso_local i64 @_ZNKSt6vectorISt4pairIxxESaIS1_EE12_M_check_lenEmPKc(%"class.std::vector.10"* nonnull align 8 dereferenceable(24) %0, i64 %1, i8* %2) local_unnamed_addr #14 comdat align 2 {
  %4 = getelementptr inbounds %"class.std::vector.10", %"class.std::vector.10"* %0, i64 0, i32 0, i32 0, i32 0, i32 1
  %5 = load %"struct.std::pair"*, %"struct.std::pair"** %4, align 8, !tbaa !36
  %6 = getelementptr inbounds %"class.std::vector.10", %"class.std::vector.10"* %0, i64 0, i32 0, i32 0, i32 0, i32 0
  %7 = load %"struct.std::pair"*, %"struct.std::pair"** %6, align 8, !tbaa !38
  %8 = ptrtoint %"struct.std::pair"* %5 to i64
  %9 = ptrtoint %"struct.std::pair"* %7 to i64
  %10 = sub i64 %8, %9
  %11 = ashr exact i64 %10, 4
  %12 = sub nsw i64 576460752303423487, %11
  %13 = icmp ult i64 %12, %1
  br i1 %13, label %14, label %15

14:                                               ; preds = %3
  tail call void @_ZSt20__throw_length_errorPKc(i8* %2) #24
  unreachable

15:                                               ; preds = %3
  %16 = icmp ult i64 %11, %1
  %17 = select i1 %16, i64 %1, i64 %11
  %18 = add i64 %17, %11
  %19 = icmp ult i64 %18, %11
  %20 = icmp ugt i64 %18, 576460752303423487
  %21 = or i1 %19, %20
  %22 = select i1 %21, i64 576460752303423487, i64 %18
  ret i64 %22
}

; Function Attrs: minsize mustprogress optsize sspstrong uwtable
define linkonce_odr dso_local %"struct.std::pair"* @_ZNSt12_Vector_baseISt4pairIxxESaIS1_EE11_M_allocateEm(%"struct.std::_Vector_base.11"* nonnull align 8 dereferenceable(24) %0, i64 %1) local_unnamed_addr #14 comdat align 2 {
  %3 = icmp eq i64 %1, 0
  br i1 %3, label %7, label %4

4:                                                ; preds = %2
  %5 = bitcast %"struct.std::_Vector_base.11"* %0 to %"class.std::allocator.12"*
  %6 = tail call %"struct.std::pair"* @_ZNSt16allocator_traitsISaISt4pairIxxEEE8allocateERS2_m(%"class.std::allocator.12"* nonnull align 1 dereferenceable(1) %5, i64 %1) #20
  br label %7

7:                                                ; preds = %2, %4
  %8 = phi %"struct.std::pair"* [ %6, %4 ], [ null, %2 ]
  ret %"struct.std::pair"* %8
}

; Function Attrs: minsize mustprogress optsize sspstrong uwtable
define linkonce_odr dso_local %"struct.std::pair"* @_ZNSt16allocator_traitsISaISt4pairIxxEEE8allocateERS2_m(%"class.std::allocator.12"* nonnull align 1 dereferenceable(1) %0, i64 %1) local_unnamed_addr #14 comdat align 2 {
  %3 = bitcast %"class.std::allocator.12"* %0 to %"class.__gnu_cxx::new_allocator.13"*
  %4 = tail call %"struct.std::pair"* @_ZN9__gnu_cxx13new_allocatorISt4pairIxxEE8allocateEmPKv(%"class.__gnu_cxx::new_allocator.13"* nonnull align 1 dereferenceable(1) %3, i64 %1, i8* null) #20
  ret %"struct.std::pair"* %4
}

; Function Attrs: minsize mustprogress optsize sspstrong uwtable
define linkonce_odr dso_local %"struct.std::pair"* @_ZN9__gnu_cxx13new_allocatorISt4pairIxxEE8allocateEmPKv(%"class.__gnu_cxx::new_allocator.13"* nonnull align 1 dereferenceable(1) %0, i64 %1, i8* %2) local_unnamed_addr #14 comdat align 2 {
  %4 = icmp ugt i64 %1, 576460752303423487
  br i1 %4, label %5, label %9, !prof !44

5:                                                ; preds = %3
  %6 = icmp ugt i64 %1, 1152921504606846975
  br i1 %6, label %7, label %8

7:                                                ; preds = %5
  tail call void @_ZSt28__throw_bad_array_new_lengthv() #24
  unreachable

8:                                                ; preds = %5
  tail call void @_ZSt17__throw_bad_allocv() #24
  unreachable

9:                                                ; preds = %3
  %10 = shl nuw nsw i64 %1, 4
  %11 = tail call noalias nonnull i8* @_Znwm(i64 %10) #25
  %12 = bitcast i8* %11 to %"struct.std::pair"*
  ret %"struct.std::pair"* %12
}

; Function Attrs: minsize optsize sspstrong uwtable
define linkonce_odr dso_local void @_ZSt11__push_heapIN9__gnu_cxx17__normal_iteratorIPSt4pairIxxESt6vectorIS3_SaIS3_EEEElS3_NS0_5__ops14_Iter_comp_valISt7greaterIS3_EEEEvT_T0_SF_T1_RT2_(%"struct.std::pair"* %0, i64 %1, i64 %2, i64 %3, i64 %4, %"struct.__gnu_cxx::__ops::_Iter_comp_val"* nonnull align 1 dereferenceable(1) %5) local_unnamed_addr #9 comdat {
  br label %7

7:                                                ; preds = %25, %6
  %8 = phi i64 [ %1, %6 ], [ %10, %25 ]
  %9 = add nsw i64 %8, -1
  %10 = sdiv i64 %9, 2
  %11 = icmp sgt i64 %8, %2
  br i1 %11, label %12, label %29

12:                                               ; preds = %7
  %13 = getelementptr inbounds %"struct.std::pair", %"struct.std::pair"* %0, i64 %10, i32 0
  %14 = load i64, i64* %13, align 8, !tbaa !25
  %15 = icmp sgt i64 %14, %3
  br i1 %15, label %16, label %19

16:                                               ; preds = %12
  %17 = getelementptr inbounds %"struct.std::pair", %"struct.std::pair"* %0, i64 %10, i32 1
  %18 = load i64, i64* %17, align 8, !tbaa !14
  br label %25

19:                                               ; preds = %12
  %20 = icmp slt i64 %14, %3
  br i1 %20, label %29, label %21

21:                                               ; preds = %19
  %22 = getelementptr inbounds %"struct.std::pair", %"struct.std::pair"* %0, i64 %10, i32 1
  %23 = load i64, i64* %22, align 8, !tbaa !27
  %24 = icmp sgt i64 %23, %4
  br i1 %24, label %25, label %29

25:                                               ; preds = %16, %21
  %26 = phi i64 [ %18, %16 ], [ %23, %21 ]
  %27 = getelementptr inbounds %"struct.std::pair", %"struct.std::pair"* %0, i64 %8, i32 0
  store i64 %14, i64* %27, align 8, !tbaa !25
  %28 = getelementptr inbounds %"struct.std::pair", %"struct.std::pair"* %0, i64 %8, i32 1
  store i64 %26, i64* %28, align 8, !tbaa !27
  br label %7, !llvm.loop !60

29:                                               ; preds = %19, %7, %21
  %30 = getelementptr inbounds %"struct.std::pair", %"struct.std::pair"* %0, i64 %8, i32 0
  store i64 %3, i64* %30, align 8, !tbaa !25
  %31 = getelementptr inbounds %"struct.std::pair", %"struct.std::pair"* %0, i64 %8, i32 1
  store i64 %4, i64* %31, align 8, !tbaa !27
  ret void
}

; Function Attrs: inlinehint minsize mustprogress nounwind optsize sspstrong uwtable
define linkonce_odr dso_local zeroext i1 @_ZStltIxxEbRKSt4pairIT_T0_ES5_(%"struct.std::pair"* nonnull align 8 dereferenceable(16) %0, %"struct.std::pair"* nonnull align 8 dereferenceable(16) %1) local_unnamed_addr #19 comdat {
  %3 = getelementptr inbounds %"struct.std::pair", %"struct.std::pair"* %0, i64 0, i32 0
  %4 = load i64, i64* %3, align 8, !tbaa !25
  %5 = getelementptr inbounds %"struct.std::pair", %"struct.std::pair"* %1, i64 0, i32 0
  %6 = load i64, i64* %5, align 8, !tbaa !25
  %7 = icmp slt i64 %4, %6
  br i1 %7, label %16, label %8

8:                                                ; preds = %2
  %9 = icmp slt i64 %6, %4
  br i1 %9, label %16, label %10

10:                                               ; preds = %8
  %11 = getelementptr inbounds %"struct.std::pair", %"struct.std::pair"* %0, i64 0, i32 1
  %12 = load i64, i64* %11, align 8, !tbaa !27
  %13 = getelementptr inbounds %"struct.std::pair", %"struct.std::pair"* %1, i64 0, i32 1
  %14 = load i64, i64* %13, align 8, !tbaa !27
  %15 = icmp slt i64 %12, %14
  br label %16

16:                                               ; preds = %8, %10, %2
  %17 = phi i1 [ true, %2 ], [ false, %8 ], [ %15, %10 ]
  ret i1 %17
}

; Function Attrs: inlinehint minsize optsize sspstrong uwtable
define linkonce_odr dso_local void @_ZSt8pop_heapIN9__gnu_cxx17__normal_iteratorIPSt4pairIxxESt6vectorIS3_SaIS3_EEEESt7greaterIS3_EEvT_SB_T0_(%"struct.std::pair"* %0, %"struct.std::pair"* %1) local_unnamed_addr #18 comdat {
  %3 = alloca %"struct.__gnu_cxx::__ops::_Iter_comp_iter", align 1
  %4 = ptrtoint %"struct.std::pair"* %1 to i64
  %5 = ptrtoint %"struct.std::pair"* %0 to i64
  %6 = sub i64 %4, %5
  %7 = icmp sgt i64 %6, 16
  br i1 %7, label %8, label %11

8:                                                ; preds = %2
  %9 = getelementptr inbounds %"struct.__gnu_cxx::__ops::_Iter_comp_iter", %"struct.__gnu_cxx::__ops::_Iter_comp_iter"* %3, i64 0, i32 0, i32 0
  call void @llvm.lifetime.start.p0i8(i64 1, i8* nonnull %9) #23
  %10 = getelementptr inbounds %"struct.std::pair", %"struct.std::pair"* %1, i64 -1
  call void @_ZSt10__pop_heapIN9__gnu_cxx17__normal_iteratorIPSt4pairIxxESt6vectorIS3_SaIS3_EEEENS0_5__ops15_Iter_comp_iterISt7greaterIS3_EEEEvT_SE_SE_RT0_(%"struct.std::pair"* %0, %"struct.std::pair"* nonnull %10, %"struct.std::pair"* nonnull %10, %"struct.__gnu_cxx::__ops::_Iter_comp_iter"* nonnull align 1 dereferenceable(1) %3) #20
  call void @llvm.lifetime.end.p0i8(i64 1, i8* nonnull %9) #23
  br label %11

11:                                               ; preds = %8, %2
  ret void
}

; Function Attrs: inlinehint minsize mustprogress optsize sspstrong uwtable
define linkonce_odr dso_local void @_ZSt10__pop_heapIN9__gnu_cxx17__normal_iteratorIPSt4pairIxxESt6vectorIS3_SaIS3_EEEENS0_5__ops15_Iter_comp_iterISt7greaterIS3_EEEEvT_SE_SE_RT0_(%"struct.std::pair"* %0, %"struct.std::pair"* %1, %"struct.std::pair"* %2, %"struct.__gnu_cxx::__ops::_Iter_comp_iter"* nonnull align 1 dereferenceable(1) %3) local_unnamed_addr #11 comdat {
  %5 = getelementptr inbounds %"struct.std::pair", %"struct.std::pair"* %2, i64 0, i32 0
  %6 = load i64, i64* %5, align 8
  %7 = getelementptr inbounds %"struct.std::pair", %"struct.std::pair"* %2, i64 0, i32 1
  %8 = load i64, i64* %7, align 8
  %9 = getelementptr inbounds %"struct.std::pair", %"struct.std::pair"* %0, i64 0, i32 0
  %10 = load i64, i64* %9, align 8, !tbaa !14
  store i64 %10, i64* %5, align 8, !tbaa !25
  %11 = getelementptr inbounds %"struct.std::pair", %"struct.std::pair"* %0, i64 0, i32 1
  %12 = load i64, i64* %11, align 8, !tbaa !14
  store i64 %12, i64* %7, align 8, !tbaa !27
  %13 = ptrtoint %"struct.std::pair"* %1 to i64
  %14 = ptrtoint %"struct.std::pair"* %0 to i64
  %15 = sub i64 %13, %14
  %16 = ashr exact i64 %15, 4
  tail call void @_ZSt13__adjust_heapIN9__gnu_cxx17__normal_iteratorIPSt4pairIxxESt6vectorIS3_SaIS3_EEEElS3_NS0_5__ops15_Iter_comp_iterISt7greaterIS3_EEEEvT_T0_SF_T1_T2_(%"struct.std::pair"* %0, i64 0, i64 %16, i64 %6, i64 %8) #20
  ret void
}

; Function Attrs: minsize optsize sspstrong uwtable
define linkonce_odr dso_local void @_ZSt13__adjust_heapIN9__gnu_cxx17__normal_iteratorIPSt4pairIxxESt6vectorIS3_SaIS3_EEEElS3_NS0_5__ops15_Iter_comp_iterISt7greaterIS3_EEEEvT_T0_SF_T1_T2_(%"struct.std::pair"* %0, i64 %1, i64 %2, i64 %3, i64 %4) local_unnamed_addr #9 comdat {
  %6 = alloca %"struct.__gnu_cxx::__ops::_Iter_comp_val", align 1
  %7 = add nsw i64 %2, -1
  %8 = sdiv i64 %7, 2
  br label %9

9:                                                ; preds = %12, %5
  %10 = phi i64 [ %1, %5 ], [ %19, %12 ]
  %11 = icmp slt i64 %10, %8
  br i1 %11, label %12, label %25

12:                                               ; preds = %9
  %13 = shl i64 %10, 1
  %14 = add i64 %13, 2
  %15 = getelementptr inbounds %"struct.std::pair", %"struct.std::pair"* %0, i64 %14
  %16 = or i64 %13, 1
  %17 = getelementptr inbounds %"struct.std::pair", %"struct.std::pair"* %0, i64 %16
  %18 = tail call zeroext i1 @_ZStltIxxEbRKSt4pairIT_T0_ES5_(%"struct.std::pair"* nonnull align 8 dereferenceable(16) %17, %"struct.std::pair"* nonnull align 8 dereferenceable(16) %15) #20
  %19 = select i1 %18, i64 %16, i64 %14
  %20 = getelementptr inbounds %"struct.std::pair", %"struct.std::pair"* %0, i64 %19, i32 0
  %21 = getelementptr inbounds %"struct.std::pair", %"struct.std::pair"* %0, i64 %10, i32 0
  %22 = bitcast i64* %20 to <2 x i64>*
  %23 = load <2 x i64>, <2 x i64>* %22, align 8, !tbaa !14
  %24 = bitcast i64* %21 to <2 x i64>*
  store <2 x i64> %23, <2 x i64>* %24, align 8, !tbaa !14
  br label %9, !llvm.loop !61

25:                                               ; preds = %9
  %26 = and i64 %2, 1
  %27 = icmp eq i64 %26, 0
  br i1 %27, label %28, label %40

28:                                               ; preds = %25
  %29 = add nsw i64 %2, -2
  %30 = sdiv i64 %29, 2
  %31 = icmp eq i64 %10, %30
  br i1 %31, label %32, label %40

32:                                               ; preds = %28
  %33 = shl i64 %10, 1
  %34 = or i64 %33, 1
  %35 = getelementptr inbounds %"struct.std::pair", %"struct.std::pair"* %0, i64 %34, i32 0
  %36 = getelementptr inbounds %"struct.std::pair", %"struct.std::pair"* %0, i64 %10, i32 0
  %37 = bitcast i64* %35 to <2 x i64>*
  %38 = load <2 x i64>, <2 x i64>* %37, align 8, !tbaa !14
  %39 = bitcast i64* %36 to <2 x i64>*
  store <2 x i64> %38, <2 x i64>* %39, align 8, !tbaa !14
  br label %40

40:                                               ; preds = %32, %28, %25
  %41 = phi i64 [ %34, %32 ], [ %10, %28 ], [ %10, %25 ]
  %42 = getelementptr inbounds %"struct.__gnu_cxx::__ops::_Iter_comp_val", %"struct.__gnu_cxx::__ops::_Iter_comp_val"* %6, i64 0, i32 0, i32 0
  call void @llvm.lifetime.start.p0i8(i64 1, i8* nonnull %42) #23
  call void @_ZSt11__push_heapIN9__gnu_cxx17__normal_iteratorIPSt4pairIxxESt6vectorIS3_SaIS3_EEEElS3_NS0_5__ops14_Iter_comp_valISt7greaterIS3_EEEEvT_T0_SF_T1_RT2_(%"struct.std::pair"* %0, i64 %41, i64 %1, i64 %3, i64 %4, %"struct.__gnu_cxx::__ops::_Iter_comp_val"* nonnull align 1 dereferenceable(1) %6) #20
  call void @llvm.lifetime.end.p0i8(i64 1, i8* nonnull %42) #23
  ret void
}

; Function Attrs: minsize optsize
declare nonnull align 8 dereferenceable(8) %"class.std::basic_ostream"* @_ZNSo9_M_insertIxEERSoT_(%"class.std::basic_ostream"* nonnull align 8 dereferenceable(8), i64) local_unnamed_addr #0

; Function Attrs: minsize optsize sspstrong uwtable
define internal void @_GLOBAL__sub_I_s968463828.cpp() #9 section ".text.startup" {
  tail call void @_ZNSt8ios_base4InitC1Ev(%"class.std::ios_base::Init"* nonnull align 1 dereferenceable(1) @_ZStL8__ioinit) #20
  %1 = tail call i32 @__cxa_atexit(void (i8*)* bitcast (void (%"class.std::ios_base::Init"*)* @_ZNSt8ios_base4InitD1Ev to void (i8*)*), i8* getelementptr inbounds (%"class.std::ios_base::Init", %"class.std::ios_base::Init"* @_ZStL8__ioinit, i64 0, i32 0), i8* nonnull @__dso_handle) #23
  tail call void @llvm.memset.p0i8.i64(i8* noundef nonnull align 8 dereferenceable(24) bitcast (%"class.std::vector"* @U to i8*), i8 0, i64 24, i1 false) #23
  %2 = tail call i32 @__cxa_atexit(void (i8*)* bitcast (void (%"class.std::vector"*)* @_ZNSt6vectorIxSaIxEED2Ev to void (i8*)*), i8* bitcast (%"class.std::vector"* @U to i8*), i8* nonnull @__dso_handle) #23
  tail call void @llvm.memset.p0i8.i64(i8* noundef nonnull align 8 dereferenceable(24) bitcast (%"class.std::vector"* @V to i8*), i8 0, i64 24, i1 false) #23
  %3 = tail call i32 @__cxa_atexit(void (i8*)* bitcast (void (%"class.std::vector"*)* @_ZNSt6vectorIxSaIxEED2Ev to void (i8*)*), i8* bitcast (%"class.std::vector"* @V to i8*), i8* nonnull @__dso_handle) #23
  tail call void @llvm.memset.p0i8.i64(i8* noundef nonnull align 8 dereferenceable(24) bitcast (%"class.std::vector"* @A to i8*), i8 0, i64 24, i1 false) #23
  %4 = tail call i32 @__cxa_atexit(void (i8*)* bitcast (void (%"class.std::vector"*)* @_ZNSt6vectorIxSaIxEED2Ev to void (i8*)*), i8* bitcast (%"class.std::vector"* @A to i8*), i8* nonnull @__dso_handle) #23
  tail call void @llvm.memset.p0i8.i64(i8* noundef nonnull align 8 dereferenceable(24) bitcast (%"class.std::vector"* @B to i8*), i8 0, i64 24, i1 false) #23
  %5 = tail call i32 @__cxa_atexit(void (i8*)* bitcast (void (%"class.std::vector"*)* @_ZNSt6vectorIxSaIxEED2Ev to void (i8*)*), i8* bitcast (%"class.std::vector"* @B to i8*), i8* nonnull @__dso_handle) #23
  tail call void @llvm.memset.p0i8.i64(i8* noundef nonnull align 8 dereferenceable(24) bitcast (%"class.std::vector"* @C to i8*), i8 0, i64 24, i1 false) #23
  %6 = tail call i32 @__cxa_atexit(void (i8*)* bitcast (void (%"class.std::vector"*)* @_ZNSt6vectorIxSaIxEED2Ev to void (i8*)*), i8* bitcast (%"class.std::vector"* @C to i8*), i8* nonnull @__dso_handle) #23
  tail call void @llvm.memset.p0i8.i64(i8* noundef nonnull align 8 dereferenceable(24) bitcast (%"class.std::vector"* @D to i8*), i8 0, i64 24, i1 false) #23
  %7 = tail call i32 @__cxa_atexit(void (i8*)* bitcast (void (%"class.std::vector"*)* @_ZNSt6vectorIxSaIxEED2Ev to void (i8*)*), i8* bitcast (%"class.std::vector"* @D to i8*), i8* nonnull @__dso_handle) #23
  tail call void @llvm.memset.p0i8.i64(i8* noundef nonnull align 8 dereferenceable(24) bitcast (%"class.std::vector.0"* @e to i8*), i8 0, i64 24, i1 false) #23
  %8 = tail call i32 @__cxa_atexit(void (i8*)* bitcast (void (%"class.std::vector.0"*)* @_ZNSt6vectorIS_I4edgeSaIS0_EESaIS2_EED2Ev to void (i8*)*), i8* bitcast (%"class.std::vector.0"* @e to i8*), i8* nonnull @__dso_handle) #23
  ret void
}

attributes #0 = { minsize optsize "frame-pointer"="none" "no-trapping-math"="true" "stack-protector-buffer-size"="8" "target-cpu"="x86-64" "target-features"="+cx8,+fxsr,+mmx,+sse,+sse2,+x87" "tune-cpu"="generic" }
attributes #1 = { minsize nounwind optsize "frame-pointer"="none" "no-trapping-math"="true" "stack-protector-buffer-size"="8" "target-cpu"="x86-64" "target-features"="+cx8,+fxsr,+mmx,+sse,+sse2,+x87" "tune-cpu"="generic" }
attributes #2 = { nofree nounwind }
attributes #3 = { minsize mustprogress nofree norecurse nosync nounwind optsize readnone sspstrong uwtable willreturn "frame-pointer"="none" "min-legal-vector-width"="0" "no-trapping-math"="true" "stack-protector-buffer-size"="8" "target-cpu"="x86-64" "target-features"="+cx8,+fxsr,+mmx,+sse,+sse2,+x87" "tune-cpu"="generic" }
attributes #4 = { argmemonly mustprogress nofree nosync nounwind willreturn }
attributes #5 = { minsize mustprogress nofree nosync nounwind optsize readnone sspstrong uwtable willreturn "frame-pointer"="none" "min-legal-vector-width"="0" "no-trapping-math"="true" "stack-protector-buffer-size"="8" "target-cpu"="x86-64" "target-features"="+cx8,+fxsr,+mmx,+sse,+sse2,+x87" "tune-cpu"="generic" }
attributes #6 = { minsize nounwind optsize sspstrong uwtable "frame-pointer"="none" "min-legal-vector-width"="0" "no-trapping-math"="true" "stack-protector-buffer-size"="8" "target-cpu"="x86-64" "target-features"="+cx8,+fxsr,+mmx,+sse,+sse2,+x87" "tune-cpu"="generic" }
attributes #7 = { minsize mustprogress nofree norecurse nosync nounwind optsize readonly sspstrong uwtable willreturn "frame-pointer"="none" "min-legal-vector-width"="0" "no-trapping-math"="true" "stack-protector-buffer-size"="8" "target-cpu"="x86-64" "target-features"="+cx8,+fxsr,+mmx,+sse,+sse2,+x87" "tune-cpu"="generic" }
attributes #8 = { minsize norecurse optsize sspstrong uwtable "frame-pointer"="none" "min-legal-vector-width"="0" "no-trapping-math"="true" "stack-protector-buffer-size"="8" "target-cpu"="x86-64" "target-features"="+cx8,+fxsr,+mmx,+sse,+sse2,+x87" "tune-cpu"="generic" }
attributes #9 = { minsize optsize sspstrong uwtable "frame-pointer"="none" "min-legal-vector-width"="0" "no-trapping-math"="true" "stack-protector-buffer-size"="8" "target-cpu"="x86-64" "target-features"="+cx8,+fxsr,+mmx,+sse,+sse2,+x87" "tune-cpu"="generic" }
attributes #10 = { argmemonly mustprogress nofree nounwind willreturn }
attributes #11 = { inlinehint minsize mustprogress optsize sspstrong uwtable "frame-pointer"="none" "min-legal-vector-width"="0" "no-trapping-math"="true" "stack-protector-buffer-size"="8" "target-cpu"="x86-64" "target-features"="+cx8,+fxsr,+mmx,+sse,+sse2,+x87" "tune-cpu"="generic" }
attributes #12 = { noinline noreturn nounwind }
attributes #13 = { minsize nobuiltin nounwind optsize "frame-pointer"="none" "no-trapping-math"="true" "stack-protector-buffer-size"="8" "target-cpu"="x86-64" "target-features"="+cx8,+fxsr,+mmx,+sse,+sse2,+x87" "tune-cpu"="generic" }
attributes #14 = { minsize mustprogress optsize sspstrong uwtable "frame-pointer"="none" "min-legal-vector-width"="0" "no-trapping-math"="true" "stack-protector-buffer-size"="8" "target-cpu"="x86-64" "target-features"="+cx8,+fxsr,+mmx,+sse,+sse2,+x87" "tune-cpu"="generic" }
attributes #15 = { minsize noreturn optsize "frame-pointer"="none" "no-trapping-math"="true" "stack-protector-buffer-size"="8" "target-cpu"="x86-64" "target-features"="+cx8,+fxsr,+mmx,+sse,+sse2,+x87" "tune-cpu"="generic" }
attributes #16 = { minsize nobuiltin optsize allocsize(0) "frame-pointer"="none" "no-trapping-math"="true" "stack-protector-buffer-size"="8" "target-cpu"="x86-64" "target-features"="+cx8,+fxsr,+mmx,+sse,+sse2,+x87" "tune-cpu"="generic" }
attributes #17 = { argmemonly mustprogress nofree nounwind willreturn writeonly }
attributes #18 = { inlinehint minsize optsize sspstrong uwtable "frame-pointer"="none" "min-legal-vector-width"="0" "no-trapping-math"="true" "stack-protector-buffer-size"="8" "target-cpu"="x86-64" "target-features"="+cx8,+fxsr,+mmx,+sse,+sse2,+x87" "tune-cpu"="generic" }
attributes #19 = { inlinehint minsize mustprogress nounwind optsize sspstrong uwtable "frame-pointer"="none" "min-legal-vector-width"="0" "no-trapping-math"="true" "stack-protector-buffer-size"="8" "target-cpu"="x86-64" "target-features"="+cx8,+fxsr,+mmx,+sse,+sse2,+x87" "tune-cpu"="generic" }
attributes #20 = { minsize optsize }
attributes #21 = { minsize nounwind optsize }
attributes #22 = { noreturn nounwind }
attributes #23 = { nounwind }
attributes #24 = { minsize noreturn optsize }
attributes #25 = { minsize optsize allocsize(0) }

!llvm.module.flags = !{!0, !1, !2, !3}
!llvm.ident = !{!4}

!0 = !{i32 1, !"wchar_size", i32 4}
!1 = !{i32 7, !"PIC Level", i32 2}
!2 = !{i32 7, !"PIE Level", i32 2}
!3 = !{i32 7, !"uwtable", i32 1}
!4 = !{!"clang version 13.0.0"}
!5 = distinct !{!5, !6}
!6 = !{!"llvm.loop.mustprogress"}
!7 = distinct !{!7, !6}
!8 = !{!9, !10, i64 0}
!9 = !{!"_ZTSNSt12_Vector_baseISt6vectorI4edgeSaIS1_EESaIS3_EE17_Vector_impl_dataE", !10, i64 0, !10, i64 8, !10, i64 16}
!10 = !{!"any pointer", !11, i64 0}
!11 = !{!"omnipotent char", !12, i64 0}
!12 = !{!"Simple C++ TBAA"}
!13 = !{!9, !10, i64 8}
!14 = !{!15, !15, i64 0}
!15 = !{!"long long", !11, i64 0}
!16 = !{!17, !10, i64 0}
!17 = !{!"_ZTSNSt12_Vector_baseIxSaIxEE17_Vector_impl_dataE", !10, i64 0, !10, i64 8, !10, i64 16}
!18 = distinct !{!18, !6}
!19 = distinct !{!19, !6}
!20 = distinct !{!20, !6}
!21 = !{!22, !15, i64 0}
!22 = !{!"_ZTS4edge", !15, i64 0, !15, i64 8}
!23 = !{!22, !15, i64 8}
!24 = distinct !{!24, !6}
!25 = !{!26, !15, i64 0}
!26 = !{!"_ZTSSt4pairIxxE", !15, i64 0, !15, i64 8}
!27 = !{!26, !15, i64 8}
!28 = distinct !{!28, !6}
!29 = distinct !{!29, !6}
!30 = !{!10, !10, i64 0}
!31 = distinct !{!31, !6}
!32 = !{i64 0, i64 8, !14, i64 8, i64 8, !14}
!33 = !{i64 0, i64 8, !14}
!34 = distinct !{!34, !6}
!35 = distinct !{!35, !6}
!36 = !{!37, !10, i64 8}
!37 = !{!"_ZTSNSt12_Vector_baseISt4pairIxxESaIS1_EE17_Vector_impl_dataE", !10, i64 0, !10, i64 8, !10, i64 16}
!38 = !{!37, !10, i64 0}
!39 = distinct !{!39, !6}
!40 = !{!41, !10, i64 0}
!41 = !{!"_ZTSNSt12_Vector_baseI4edgeSaIS0_EE17_Vector_impl_dataE", !10, i64 0, !10, i64 8, !10, i64 16}
!42 = !{!17, !10, i64 8}
!43 = !{!17, !10, i64 16}
!44 = !{!"branch_weights", i32 1, i32 2000}
!45 = distinct !{!45, !6}
!46 = !{!9, !10, i64 16}
!47 = distinct !{!47, !6}
!48 = !{!41, !10, i64 8}
!49 = !{!41, !10, i64 16}
!50 = !{!37, !10, i64 16}
!51 = !{!52, !54}
!52 = distinct !{!52, !53, !"_ZSt19__relocate_object_aISt4pairIxxES1_SaIS1_EEvPT_PT0_RT1_: argument 0"}
!53 = distinct !{!53, !"_ZSt19__relocate_object_aISt4pairIxxES1_SaIS1_EEvPT_PT0_RT1_"}
!54 = distinct !{!54, !53, !"_ZSt19__relocate_object_aISt4pairIxxES1_SaIS1_EEvPT_PT0_RT1_: argument 1"}
!55 = distinct !{!55, !6}
!56 = !{!57, !59}
!57 = distinct !{!57, !58, !"_ZSt19__relocate_object_aISt4pairIxxES1_SaIS1_EEvPT_PT0_RT1_: argument 0"}
!58 = distinct !{!58, !"_ZSt19__relocate_object_aISt4pairIxxES1_SaIS1_EEvPT_PT0_RT1_"}
!59 = distinct !{!59, !58, !"_ZSt19__relocate_object_aISt4pairIxxES1_SaIS1_EEvPT_PT0_RT1_: argument 1"}
!60 = distinct !{!60, !6}
!61 = distinct !{!61, !6}
