; ModuleID = 'Project_CodeNet_C++1400/p03503/s089524959.cpp'
source_filename = "Project_CodeNet_C++1400/p03503/s089524959.cpp"
target datalayout = "e-m:e-p270:32:32-p271:32:32-p272:64:64-i64:64-f80:128-n8:16:32:64-S128"
target triple = "x86_64-pc-linux-gnu"

%"class.std::ios_base::Init" = type { i8 }
%"class.std::basic_istream" = type { i32 (...)**, i64, %"class.std::basic_ios" }
%"class.std::basic_ios" = type { %"class.std::ios_base", %"class.std::basic_ostream"*, i8, i8, %"class.std::basic_streambuf"*, %"class.std::ctype"*, %"class.std::num_put"*, %"class.std::num_get"* }
%"class.std::ios_base" = type { i32 (...)**, i64, i64, i32, i32, i32, %"struct.std::ios_base::_Callback_list"*, %"struct.std::ios_base::_Words", [8 x %"struct.std::ios_base::_Words"], i32, %"struct.std::ios_base::_Words"*, %"class.std::locale" }
%"struct.std::ios_base::_Callback_list" = type { %"struct.std::ios_base::_Callback_list"*, void (i32, %"class.std::ios_base"*, i32)*, i32, i32 }
%"struct.std::ios_base::_Words" = type { i8*, i64 }
%"class.std::locale" = type { %"class.std::locale::_Impl"* }
%"class.std::locale::_Impl" = type { i32, %"class.std::locale::facet"**, i64, %"class.std::locale::facet"**, i8** }
%"class.std::locale::facet" = type <{ i32 (...)**, i32, [4 x i8] }>
%"class.std::basic_ostream" = type { i32 (...)**, %"class.std::basic_ios" }
%"class.std::basic_streambuf" = type { i32 (...)**, i8*, i8*, i8*, i8*, i8*, i8*, %"class.std::locale" }
%"class.std::ctype" = type <{ %"class.std::locale::facet.base", [4 x i8], %struct.__locale_struct*, i8, [7 x i8], i32*, i32*, i16*, i8, [256 x i8], [256 x i8], i8, [6 x i8] }>
%"class.std::locale::facet.base" = type <{ i32 (...)**, i32 }>
%struct.__locale_struct = type { [13 x %struct.__locale_data*], i16*, i32*, i32*, [13 x i8*] }
%struct.__locale_data = type opaque
%"class.std::num_put" = type { %"class.std::locale::facet.base", [4 x i8] }
%"class.std::num_get" = type { %"class.std::locale::facet.base", [4 x i8] }

@_ZStL8__ioinit = internal global %"class.std::ios_base::Init" zeroinitializer, align 1
@__dso_handle = external hidden global i8
@dx = dso_local local_unnamed_addr global [4 x i32] [i32 0, i32 1, i32 0, i32 -1], align 16
@dy = dso_local local_unnamed_addr global [4 x i32] [i32 1, i32 0, i32 -1, i32 0], align 16
@_ZSt3cin = external global %"class.std::basic_istream", align 8
@_ZSt4cout = external global %"class.std::basic_ostream", align 8
@llvm.global_ctors = appending global [1 x { i32, void ()*, i8* }] [{ i32, void ()*, i8* } { i32 65535, void ()* @_GLOBAL__sub_I_s089524959.cpp, i8* null }]

; Function Attrs: minsize optsize
declare void @_ZNSt8ios_base4InitC1Ev(%"class.std::ios_base::Init"* nonnull align 1 dereferenceable(1)) unnamed_addr #0

; Function Attrs: minsize nounwind optsize
declare void @_ZNSt8ios_base4InitD1Ev(%"class.std::ios_base::Init"* nonnull align 1 dereferenceable(1)) unnamed_addr #1

; Function Attrs: nofree nounwind
declare i32 @__cxa_atexit(void (i8*)*, i8*, i8*) local_unnamed_addr #2

; Function Attrs: minsize mustprogress nofree nosync nounwind optsize readnone sspstrong uwtable willreturn
define dso_local i32 @_Z5digitx(i64 %0) local_unnamed_addr #3 {
  br label %2

2:                                                ; preds = %7, %1
  %3 = phi i32 [ 1, %1 ], [ %9, %7 ]
  %4 = phi i64 [ %0, %1 ], [ %8, %7 ]
  %5 = add i64 %4, 9
  %6 = icmp ult i64 %5, 19
  br i1 %6, label %10, label %7

7:                                                ; preds = %2
  %8 = sdiv i64 %4, 10
  %9 = add i32 %3, 1
  br label %2

10:                                               ; preds = %2
  ret i32 %3
}

; Function Attrs: minsize mustprogress nofree nosync nounwind optsize readnone sspstrong uwtable willreturn
define dso_local i64 @_Z3gcdxx(i64 %0, i64 %1) local_unnamed_addr #3 {
  br label %3

3:                                                ; preds = %10, %2
  %4 = phi i64 [ %0, %2 ], [ %8, %10 ]
  %5 = phi i64 [ %1, %2 ], [ %11, %10 ]
  %6 = icmp slt i64 %4, %5
  %7 = select i1 %6, i64 %5, i64 %4
  %8 = select i1 %6, i64 %4, i64 %5
  %9 = icmp eq i64 %8, 0
  br i1 %9, label %12, label %10

10:                                               ; preds = %3
  %11 = srem i64 %7, %8
  br label %3

12:                                               ; preds = %3
  ret i64 %7
}

; Function Attrs: minsize mustprogress nofree norecurse nosync nounwind optsize readnone sspstrong uwtable willreturn
define dso_local zeroext i1 @_Z8is_primex(i64 %0) local_unnamed_addr #4 {
  %2 = icmp eq i64 %0, 1
  br i1 %2, label %11, label %3

3:                                                ; preds = %1, %7
  %4 = phi i64 [ %10, %7 ], [ 2, %1 ]
  %5 = mul nsw i64 %4, %4
  %6 = icmp sgt i64 %5, %0
  br i1 %6, label %11, label %7

7:                                                ; preds = %3
  %8 = srem i64 %0, %4
  %9 = icmp eq i64 %8, 0
  %10 = add nuw nsw i64 %4, 1
  br i1 %9, label %11, label %3, !llvm.loop !5

11:                                               ; preds = %3, %7, %1
  %12 = phi i1 [ false, %1 ], [ %6, %7 ], [ %6, %3 ]
  ret i1 %12
}

; Function Attrs: argmemonly mustprogress nofree nosync nounwind willreturn
declare void @llvm.lifetime.start.p0i8(i64 immarg, i8* nocapture) #5

; Function Attrs: argmemonly mustprogress nofree nosync nounwind willreturn
declare void @llvm.lifetime.end.p0i8(i64 immarg, i8* nocapture) #5

; Function Attrs: minsize mustprogress nofree nosync nounwind optsize readnone sspstrong uwtable willreturn
define dso_local i64 @_Z3lcmxx(i64 %0, i64 %1) local_unnamed_addr #3 {
  %3 = mul nsw i64 %1, %0
  %4 = icmp eq i64 %3, 0
  br i1 %4, label %9, label %5

5:                                                ; preds = %2
  %6 = tail call i64 @_Z3gcdxx(i64 %0, i64 %1) #10
  %7 = sdiv i64 %0, %6
  %8 = mul nsw i64 %7, %1
  br label %9

9:                                                ; preds = %2, %5
  %10 = phi i64 [ %8, %5 ], [ 0, %2 ]
  ret i64 %10
}

; Function Attrs: minsize mustprogress nofree norecurse nosync nounwind optsize readnone sspstrong uwtable willreturn
define dso_local double @_Z14DegreeToRadiand(double %0) local_unnamed_addr #4 {
  %2 = fmul double %0, 0x400921FB54442D18
  %3 = fdiv double %2, 1.800000e+02
  ret double %3
}

; Function Attrs: minsize mustprogress norecurse optsize sspstrong uwtable
define dso_local i32 @main() local_unnamed_addr #6 {
  %1 = alloca i32, align 4
  %2 = alloca [100 x [14 x i32]], align 16
  %3 = alloca [100 x [15 x i32]], align 16
  %4 = bitcast i32* %1 to i8*
  call void @llvm.lifetime.start.p0i8(i64 4, i8* nonnull %4) #11
  %5 = call nonnull align 8 dereferenceable(16) %"class.std::basic_istream"* @_ZNSirsERi(%"class.std::basic_istream"* nonnull align 8 dereferenceable(16) @_ZSt3cin, i32* nonnull align 4 dereferenceable(4) %1) #10
  %6 = bitcast [100 x [14 x i32]]* %2 to i8*
  call void @llvm.lifetime.start.p0i8(i64 5600, i8* nonnull %6) #11
  %7 = bitcast [100 x [15 x i32]]* %3 to i8*
  call void @llvm.lifetime.start.p0i8(i64 6000, i8* nonnull %7) #11
  br label %8

8:                                                ; preds = %16, %0
  %9 = phi i64 [ %17, %16 ], [ 0, %0 ]
  %10 = load i32, i32* %1, align 4, !tbaa !7
  %11 = sext i32 %10 to i64
  %12 = icmp slt i64 %9, %11
  br i1 %12, label %13, label %22

13:                                               ; preds = %8, %18
  %14 = phi i64 [ %21, %18 ], [ 0, %8 ]
  %15 = icmp eq i64 %14, 10
  br i1 %15, label %16, label %18

16:                                               ; preds = %13
  %17 = add nuw nsw i64 %9, 1
  br label %8, !llvm.loop !11

18:                                               ; preds = %13
  %19 = getelementptr inbounds [100 x [14 x i32]], [100 x [14 x i32]]* %2, i64 0, i64 %9, i64 %14
  %20 = call nonnull align 8 dereferenceable(16) %"class.std::basic_istream"* @_ZNSirsERi(%"class.std::basic_istream"* nonnull align 8 dereferenceable(16) @_ZSt3cin, i32* nonnull align 4 dereferenceable(4) %19) #10
  %21 = add nuw nsw i64 %14, 1
  br label %13, !llvm.loop !12

22:                                               ; preds = %8, %33
  %23 = phi i32 [ %35, %33 ], [ %10, %8 ]
  %24 = phi i64 [ %34, %33 ], [ 0, %8 ]
  %25 = sext i32 %23 to i64
  %26 = icmp slt i64 %24, %25
  br i1 %26, label %30, label %27

27:                                               ; preds = %22
  %28 = call i32 @llvm.smax.i32(i32 %23, i32 0)
  %29 = zext i32 %28 to i64
  br label %40

30:                                               ; preds = %22, %36
  %31 = phi i64 [ %39, %36 ], [ 0, %22 ]
  %32 = icmp eq i64 %31, 11
  br i1 %32, label %33, label %36

33:                                               ; preds = %30
  %34 = add nuw nsw i64 %24, 1
  %35 = load i32, i32* %1, align 4, !tbaa !7
  br label %22, !llvm.loop !13

36:                                               ; preds = %30
  %37 = getelementptr inbounds [100 x [15 x i32]], [100 x [15 x i32]]* %3, i64 0, i64 %24, i64 %31
  %38 = call nonnull align 8 dereferenceable(16) %"class.std::basic_istream"* @_ZNSirsERi(%"class.std::basic_istream"* nonnull align 8 dereferenceable(16) @_ZSt3cin, i32* nonnull align 4 dereferenceable(4) %37) #10
  %39 = add nuw nsw i64 %31, 1
  br label %30, !llvm.loop !14

40:                                               ; preds = %27, %51
  %41 = phi i32 [ %53, %51 ], [ -1000000000, %27 ]
  %42 = phi i32 [ %54, %51 ], [ 1, %27 ]
  %43 = icmp eq i32 %42, 1024
  br i1 %43, label %44, label %47

44:                                               ; preds = %40
  %45 = call nonnull align 8 dereferenceable(8) %"class.std::basic_ostream"* @_ZNSolsEi(%"class.std::basic_ostream"* nonnull align 8 dereferenceable(8) @_ZSt4cout, i32 %41) #10
  %46 = call nonnull align 8 dereferenceable(8) %"class.std::basic_ostream"* @_ZSt4endlIcSt11char_traitsIcEERSt13basic_ostreamIT_T0_ES6_(%"class.std::basic_ostream"* nonnull align 8 dereferenceable(8) %45) #10
  call void @llvm.lifetime.end.p0i8(i64 6000, i8* nonnull %7) #11
  call void @llvm.lifetime.end.p0i8(i64 5600, i8* nonnull %6) #11
  call void @llvm.lifetime.end.p0i8(i64 4, i8* nonnull %4) #11
  ret i32 0

47:                                               ; preds = %40, %59
  %48 = phi i64 [ %64, %59 ], [ 0, %40 ]
  %49 = phi i32 [ %63, %59 ], [ 0, %40 ]
  %50 = icmp eq i64 %48, %29
  br i1 %50, label %51, label %55

51:                                               ; preds = %47
  %52 = icmp slt i32 %41, %49
  %53 = select i1 %52, i32 %49, i32 %41
  %54 = add nuw nsw i32 %42, 1
  br label %40, !llvm.loop !15

55:                                               ; preds = %47, %76
  %56 = phi i64 [ %78, %76 ], [ 0, %47 ]
  %57 = phi i32 [ %77, %76 ], [ 0, %47 ]
  %58 = icmp eq i64 %56, 10
  br i1 %58, label %59, label %65

59:                                               ; preds = %55
  %60 = sext i32 %57 to i64
  %61 = getelementptr inbounds [100 x [15 x i32]], [100 x [15 x i32]]* %3, i64 0, i64 %48, i64 %60
  %62 = load i32, i32* %61, align 4, !tbaa !7
  %63 = add nsw i32 %62, %49
  %64 = add nuw nsw i64 %48, 1
  br label %47, !llvm.loop !16

65:                                               ; preds = %55
  %66 = trunc i64 %56 to i32
  %67 = shl nuw nsw i32 1, %66
  %68 = and i32 %67, %42
  %69 = icmp eq i32 %68, 0
  br i1 %69, label %76, label %70

70:                                               ; preds = %65
  %71 = getelementptr inbounds [100 x [14 x i32]], [100 x [14 x i32]]* %2, i64 0, i64 %48, i64 %56
  %72 = load i32, i32* %71, align 4, !tbaa !7
  %73 = icmp ne i32 %72, 0
  %74 = zext i1 %73 to i32
  %75 = add nsw i32 %57, %74
  br label %76

76:                                               ; preds = %70, %65
  %77 = phi i32 [ %57, %65 ], [ %75, %70 ]
  %78 = add nuw nsw i64 %56, 1
  br label %55, !llvm.loop !17
}

; Function Attrs: minsize optsize
declare nonnull align 8 dereferenceable(16) %"class.std::basic_istream"* @_ZNSirsERi(%"class.std::basic_istream"* nonnull align 8 dereferenceable(16), i32* nonnull align 4 dereferenceable(4)) local_unnamed_addr #0

; Function Attrs: minsize optsize
declare nonnull align 8 dereferenceable(8) %"class.std::basic_ostream"* @_ZNSolsEi(%"class.std::basic_ostream"* nonnull align 8 dereferenceable(8), i32) local_unnamed_addr #0

; Function Attrs: inlinehint minsize mustprogress optsize sspstrong uwtable
declare nonnull align 8 dereferenceable(8) %"class.std::basic_ostream"* @_ZSt4endlIcSt11char_traitsIcEERSt13basic_ostreamIT_T0_ES6_(%"class.std::basic_ostream"* nonnull align 8 dereferenceable(8)) local_unnamed_addr #7

; Function Attrs: minsize optsize sspstrong uwtable
define internal void @_GLOBAL__sub_I_s089524959.cpp() #8 section ".text.startup" {
  tail call void @_ZNSt8ios_base4InitC1Ev(%"class.std::ios_base::Init"* nonnull align 1 dereferenceable(1) @_ZStL8__ioinit) #10
  %1 = tail call i32 @__cxa_atexit(void (i8*)* bitcast (void (%"class.std::ios_base::Init"*)* @_ZNSt8ios_base4InitD1Ev to void (i8*)*), i8* getelementptr inbounds (%"class.std::ios_base::Init", %"class.std::ios_base::Init"* @_ZStL8__ioinit, i64 0, i32 0), i8* nonnull @__dso_handle) #11
  ret void
}

; Function Attrs: nofree nosync nounwind readnone speculatable willreturn
declare i32 @llvm.smax.i32(i32, i32) #9

attributes #0 = { minsize optsize "frame-pointer"="none" "no-trapping-math"="true" "stack-protector-buffer-size"="8" "target-cpu"="x86-64" "target-features"="+cx8,+fxsr,+mmx,+sse,+sse2,+x87" "tune-cpu"="generic" }
attributes #1 = { minsize nounwind optsize "frame-pointer"="none" "no-trapping-math"="true" "stack-protector-buffer-size"="8" "target-cpu"="x86-64" "target-features"="+cx8,+fxsr,+mmx,+sse,+sse2,+x87" "tune-cpu"="generic" }
attributes #2 = { nofree nounwind }
attributes #3 = { minsize mustprogress nofree nosync nounwind optsize readnone sspstrong uwtable willreturn "frame-pointer"="none" "min-legal-vector-width"="0" "no-trapping-math"="true" "stack-protector-buffer-size"="8" "target-cpu"="x86-64" "target-features"="+cx8,+fxsr,+mmx,+sse,+sse2,+x87" "tune-cpu"="generic" }
attributes #4 = { minsize mustprogress nofree norecurse nosync nounwind optsize readnone sspstrong uwtable willreturn "frame-pointer"="none" "min-legal-vector-width"="0" "no-trapping-math"="true" "stack-protector-buffer-size"="8" "target-cpu"="x86-64" "target-features"="+cx8,+fxsr,+mmx,+sse,+sse2,+x87" "tune-cpu"="generic" }
attributes #5 = { argmemonly mustprogress nofree nosync nounwind willreturn }
attributes #6 = { minsize mustprogress norecurse optsize sspstrong uwtable "frame-pointer"="none" "min-legal-vector-width"="0" "no-trapping-math"="true" "stack-protector-buffer-size"="8" "target-cpu"="x86-64" "target-features"="+cx8,+fxsr,+mmx,+sse,+sse2,+x87" "tune-cpu"="generic" }
attributes #7 = { inlinehint minsize mustprogress optsize sspstrong uwtable "frame-pointer"="none" "min-legal-vector-width"="0" "no-trapping-math"="true" "stack-protector-buffer-size"="8" "target-cpu"="x86-64" "target-features"="+cx8,+fxsr,+mmx,+sse,+sse2,+x87" "tune-cpu"="generic" }
attributes #8 = { minsize optsize sspstrong uwtable "frame-pointer"="none" "min-legal-vector-width"="0" "no-trapping-math"="true" "stack-protector-buffer-size"="8" "target-cpu"="x86-64" "target-features"="+cx8,+fxsr,+mmx,+sse,+sse2,+x87" "tune-cpu"="generic" }
attributes #9 = { nofree nosync nounwind readnone speculatable willreturn }
attributes #10 = { minsize optsize }
attributes #11 = { nounwind }

!llvm.module.flags = !{!0, !1, !2, !3}
!llvm.ident = !{!4}

!0 = !{i32 1, !"wchar_size", i32 4}
!1 = !{i32 7, !"PIC Level", i32 2}
!2 = !{i32 7, !"PIE Level", i32 2}
!3 = !{i32 7, !"uwtable", i32 1}
!4 = !{!"clang version 13.0.0"}
!5 = distinct !{!5, !6}
!6 = !{!"llvm.loop.mustprogress"}
!7 = !{!8, !8, i64 0}
!8 = !{!"int", !9, i64 0}
!9 = !{!"omnipotent char", !10, i64 0}
!10 = !{!"Simple C++ TBAA"}
!11 = distinct !{!11, !6}
!12 = distinct !{!12, !6}
!13 = distinct !{!13, !6}
!14 = distinct !{!14, !6}
!15 = distinct !{!15, !6}
!16 = distinct !{!16, !6}
!17 = distinct !{!17, !6}
