; ModuleID = 'Project_CodeNet_C++1400/p02840/s361296154.cpp'
source_filename = "Project_CodeNet_C++1400/p02840/s361296154.cpp"
target datalayout = "e-m:e-p270:32:32-p271:32:32-p272:64:64-i64:64-f80:128-n8:16:32:64-S128"
target triple = "x86_64-pc-linux-gnu"

%"class.std::ios_base::Init" = type { i8 }
%"class.std::basic_istream" = type { i32 (...)**, i64, %"class.std::basic_ios" }
%"class.std::basic_ios" = type { %"class.std::ios_base", %"class.std::basic_ostream"*, i8, i8, %"class.std::basic_streambuf"*, %"class.std::ctype"*, %"class.std::num_put"*, %"class.std::num_get"* }
%"class.std::ios_base" = type { i32 (...)**, i64, i64, i32, i32, i32, %"struct.std::ios_base::_Callback_list"*, %"struct.std::ios_base::_Words", [8 x %"struct.std::ios_base::_Words"], i32, %"struct.std::ios_base::_Words"*, %"class.std::locale" }
%"struct.std::ios_base::_Callback_list" = type { %"struct.std::ios_base::_Callback_list"*, void (i32, %"class.std::ios_base"*, i32)*, i32, i32 }
%"struct.std::ios_base::_Words" = type { i8*, i64 }
%"class.std::locale" = type { %"class.std::locale::_Impl"* }
%"class.std::locale::_Impl" = type { i32, %"class.std::locale::facet"**, i64, %"class.std::locale::facet"**, i8** }
%"class.std::locale::facet" = type <{ i32 (...)**, i32, [4 x i8] }>
%"class.std::basic_ostream" = type { i32 (...)**, %"class.std::basic_ios" }
%"class.std::basic_streambuf" = type { i32 (...)**, i8*, i8*, i8*, i8*, i8*, i8*, %"class.std::locale" }
%"class.std::ctype" = type <{ %"class.std::locale::facet.base", [4 x i8], %struct.__locale_struct*, i8, [7 x i8], i32*, i32*, i16*, i8, [256 x i8], [256 x i8], i8, [6 x i8] }>
%"class.std::locale::facet.base" = type <{ i32 (...)**, i32 }>
%struct.__locale_struct = type { [13 x %struct.__locale_data*], i16*, i32*, i32*, [13 x i8*] }
%struct.__locale_data = type opaque
%"class.std::num_put" = type { %"class.std::locale::facet.base", [4 x i8] }
%"class.std::num_get" = type { %"class.std::locale::facet.base", [4 x i8] }
%"struct.std::piecewise_construct_t" = type { i8 }
%"class.std::map" = type { %"class.std::_Rb_tree" }
%"class.std::_Rb_tree" = type { %"struct.std::_Rb_tree<long long, std::pair<const long long, std::multiset<std::pair<long long, long long>>>, std::_Select1st<std::pair<const long long, std::multiset<std::pair<long long, long long>>>>, std::less<long long>>::_Rb_tree_impl" }
%"struct.std::_Rb_tree<long long, std::pair<const long long, std::multiset<std::pair<long long, long long>>>, std::_Select1st<std::pair<const long long, std::multiset<std::pair<long long, long long>>>>, std::less<long long>>::_Rb_tree_impl" = type { %"struct.std::_Rb_tree_key_compare", %"struct.std::_Rb_tree_header" }
%"struct.std::_Rb_tree_key_compare" = type { %"struct.std::less" }
%"struct.std::less" = type { i8 }
%"struct.std::_Rb_tree_header" = type { %"struct.std::_Rb_tree_node_base", i64 }
%"struct.std::_Rb_tree_node_base" = type { i32, %"struct.std::_Rb_tree_node_base"*, %"struct.std::_Rb_tree_node_base"*, %"struct.std::_Rb_tree_node_base"* }
%"class.std::vector" = type { %"struct.std::_Vector_base" }
%"struct.std::_Vector_base" = type { %"struct.std::_Vector_base<std::pair<long long, long long>, std::allocator<std::pair<long long, long long>>>::_Vector_impl" }
%"struct.std::_Vector_base<std::pair<long long, long long>, std::allocator<std::pair<long long, long long>>>::_Vector_impl" = type { %"struct.std::_Vector_base<std::pair<long long, long long>, std::allocator<std::pair<long long, long long>>>::_Vector_impl_data" }
%"struct.std::_Vector_base<std::pair<long long, long long>, std::allocator<std::pair<long long, long long>>>::_Vector_impl_data" = type { %"struct.std::pair"*, %"struct.std::pair"*, %"struct.std::pair"* }
%"struct.std::pair" = type { i64, i64 }
%"class.std::multiset" = type { %"class.std::_Rb_tree.3" }
%"class.std::_Rb_tree.3" = type { %"struct.std::_Rb_tree<std::pair<long long, long long>, std::pair<long long, long long>, std::_Identity<std::pair<long long, long long>>, std::less<std::pair<long long, long long>>>::_Rb_tree_impl" }
%"struct.std::_Rb_tree<std::pair<long long, long long>, std::pair<long long, long long>, std::_Identity<std::pair<long long, long long>>, std::less<std::pair<long long, long long>>>::_Rb_tree_impl" = type { %"struct.std::_Rb_tree_key_compare.7", %"struct.std::_Rb_tree_header" }
%"struct.std::_Rb_tree_key_compare.7" = type { %"struct.std::less.8" }
%"struct.std::less.8" = type { i8 }
%"class.std::tuple" = type { %"struct.std::_Tuple_impl" }
%"struct.std::_Tuple_impl" = type { %"struct.std::_Head_base" }
%"struct.std::_Head_base" = type { i64* }
%"class.std::tuple.19" = type { i8 }
%"struct.std::_Rb_tree_const_iterator" = type { %"struct.std::_Rb_tree_node_base"* }
%"struct.std::_Rb_tree_node" = type { %"struct.std::_Rb_tree_node_base", %"struct.__gnu_cxx::__aligned_membuf" }
%"struct.__gnu_cxx::__aligned_membuf" = type { [16 x i8] }
%"struct.std::_Rb_tree_node.16" = type { %"struct.std::_Rb_tree_node_base", %"struct.__gnu_cxx::__aligned_membuf.17" }
%"struct.__gnu_cxx::__aligned_membuf.17" = type { [56 x i8] }
%"class.std::allocator" = type { i8 }
%"class.__gnu_cxx::new_allocator" = type { i8 }
%"class.std::allocator.0" = type { i8 }
%"class.__gnu_cxx::new_allocator.1" = type { i8 }
%"struct.std::_Rb_tree<std::pair<long long, long long>, std::pair<long long, long long>, std::_Identity<std::pair<long long, long long>>, std::less<std::pair<long long, long long>>>::_Alloc_node" = type { %"class.std::_Rb_tree.3"* }
%"class.std::allocator.4" = type { i8 }
%"class.__gnu_cxx::new_allocator.5" = type { i8 }

$_ZNSt3mapIxSt8multisetISt4pairIxxESt4lessIS2_ESaIS2_EES3_IxESaIS1_IKxS6_EEEixERS8_ = comdat any

$_ZSt4prevISt23_Rb_tree_const_iteratorISt4pairIxxEEET_S4_NSt15iterator_traitsIS4_E15difference_typeE = comdat any

$_ZNSt6vectorISt4pairIxxESaIS1_EE9push_backERKS1_ = comdat any

$_ZNSt23_Rb_tree_const_iteratorISt4pairIxxEEppEv = comdat any

$__clang_call_terminate = comdat any

$_ZNSt8_Rb_treeISt4pairIxxES1_St9_IdentityIS1_ESt4lessIS1_ESaIS1_EEaSEOS7_ = comdat any

$_ZNSt8_Rb_treeISt4pairIxxES1_St9_IdentityIS1_ESt4lessIS1_ESaIS1_EE14_M_move_assignERS7_St17integral_constantIbLb1EE = comdat any

$_ZNSt8_Rb_treeISt4pairIxxES1_St9_IdentityIS1_ESt4lessIS1_ESaIS1_EE5clearEv = comdat any

$_ZNSt8_Rb_treeISt4pairIxxES1_St9_IdentityIS1_ESt4lessIS1_ESaIS1_EE8_M_eraseEPSt13_Rb_tree_nodeIS1_E = comdat any

$_ZNSt15_Rb_tree_header12_M_move_dataERS_ = comdat any

$_ZNSt8_Rb_treeISt4pairIxxES1_St9_IdentityIS1_ESt4lessIS1_ESaIS1_EED2Ev = comdat any

$_ZNSt8_Rb_treeIxSt4pairIKxSt8multisetIS0_IxxESt4lessIS3_ESaIS3_EEESt10_Select1stIS8_ES4_IxESaIS8_EED2Ev = comdat any

$_ZNSt8_Rb_treeIxSt4pairIKxSt8multisetIS0_IxxESt4lessIS3_ESaIS3_EEESt10_Select1stIS8_ES4_IxESaIS8_EE8_M_eraseEPSt13_Rb_tree_nodeIS8_E = comdat any

$_ZNSt8_Rb_treeIxSt4pairIKxSt8multisetIS0_IxxESt4lessIS3_ESaIS3_EEESt10_Select1stIS8_ES4_IxESaIS8_EE12_M_drop_nodeEPSt13_Rb_tree_nodeIS8_E = comdat any

$_ZNSt12_Vector_baseISt4pairIxxESaIS1_EED2Ev = comdat any

$_ZNSt8_Rb_treeIxSt4pairIKxSt8multisetIS0_IxxESt4lessIS3_ESaIS3_EEESt10_Select1stIS8_ES4_IxESaIS8_EE4findERS1_ = comdat any

$_ZNSt8_Rb_treeIxSt4pairIKxSt8multisetIS0_IxxESt4lessIS3_ESaIS3_EEESt10_Select1stIS8_ES4_IxESaIS8_EE14_M_lower_boundEPSt13_Rb_tree_nodeIS8_EPSt18_Rb_tree_node_baseRS1_ = comdat any

$_ZNSt8_Rb_treeIxSt4pairIKxSt8multisetIS0_IxxESt4lessIS3_ESaIS3_EEESt10_Select1stIS8_ES4_IxESaIS8_EE22_M_emplace_hint_uniqueIJRKSt21piecewise_construct_tSt5tupleIJRS1_EESI_IJEEEEESt17_Rb_tree_iteratorIS8_ESt23_Rb_tree_const_iteratorIS8_EDpOT_ = comdat any

$_ZNSt8_Rb_treeIxSt4pairIKxSt8multisetIS0_IxxESt4lessIS3_ESaIS3_EEESt10_Select1stIS8_ES4_IxESaIS8_EE11lower_boundERS1_ = comdat any

$_ZNSt8_Rb_treeIxSt4pairIKxSt8multisetIS0_IxxESt4lessIS3_ESaIS3_EEESt10_Select1stIS8_ES4_IxESaIS8_EE14_M_create_nodeIJRKSt21piecewise_construct_tSt5tupleIJRS1_EESI_IJEEEEEPSt13_Rb_tree_nodeIS8_EDpOT_ = comdat any

$_ZNSt8_Rb_treeIxSt4pairIKxSt8multisetIS0_IxxESt4lessIS3_ESaIS3_EEESt10_Select1stIS8_ES4_IxESaIS8_EE29_M_get_insert_hint_unique_posESt23_Rb_tree_const_iteratorIS8_ERS1_ = comdat any

$_ZNSt8_Rb_treeIxSt4pairIKxSt8multisetIS0_IxxESt4lessIS3_ESaIS3_EEESt10_Select1stIS8_ES4_IxESaIS8_EE14_M_insert_nodeEPSt18_Rb_tree_node_baseSF_PSt13_Rb_tree_nodeIS8_E = comdat any

$_ZNSt8_Rb_treeIxSt4pairIKxSt8multisetIS0_IxxESt4lessIS3_ESaIS3_EEESt10_Select1stIS8_ES4_IxESaIS8_EE11_M_get_nodeEv = comdat any

$_ZNSt16allocator_traitsISaISt13_Rb_tree_nodeISt4pairIKxSt8multisetIS1_IxxESt4lessIS4_ESaIS4_EEEEEE8allocateERSB_m = comdat any

$_ZN9__gnu_cxx13new_allocatorISt13_Rb_tree_nodeISt4pairIKxSt8multisetIS2_IxxESt4lessIS5_ESaIS5_EEEEE8allocateEmPKv = comdat any

$_ZNSt8_Rb_treeIxSt4pairIKxSt8multisetIS0_IxxESt4lessIS3_ESaIS3_EEESt10_Select1stIS8_ES4_IxESaIS8_EE24_M_get_insert_unique_posERS1_ = comdat any

$_ZNSt8_Rb_treeISt4pairIxxES1_St9_IdentityIS1_ESt4lessIS1_ESaIS1_EE11upper_boundERKS1_ = comdat any

$_ZNSt8_Rb_treeISt4pairIxxES1_St9_IdentityIS1_ESt4lessIS1_ESaIS1_EE14_M_upper_boundEPSt13_Rb_tree_nodeIS1_EPSt18_Rb_tree_node_baseRKS1_ = comdat any

$_ZStltIxxEbRKSt4pairIT_T0_ES5_ = comdat any

$_ZSt9__advanceISt23_Rb_tree_const_iteratorISt4pairIxxEElEvRT_T0_St26bidirectional_iterator_tag = comdat any

$_ZNSt23_Rb_tree_const_iteratorISt4pairIxxEEmmEv = comdat any

$_ZNSt6vectorISt4pairIxxESaIS1_EE17_M_realloc_insertIJRKS1_EEEvN9__gnu_cxx17__normal_iteratorIPS1_S3_EEDpOT_ = comdat any

$_ZNKSt6vectorISt4pairIxxESaIS1_EE12_M_check_lenEmPKc = comdat any

$_ZNSt12_Vector_baseISt4pairIxxESaIS1_EE11_M_allocateEm = comdat any

$_ZNSt16allocator_traitsISaISt4pairIxxEEE8allocateERS2_m = comdat any

$_ZN9__gnu_cxx13new_allocatorISt4pairIxxEE8allocateEmPKv = comdat any

$_ZNSt8_Rb_treeISt4pairIxxES1_St9_IdentityIS1_ESt4lessIS1_ESaIS1_EE5eraseERKS1_ = comdat any

$_ZNSt8_Rb_treeISt4pairIxxES1_St9_IdentityIS1_ESt4lessIS1_ESaIS1_EE11equal_rangeERKS1_ = comdat any

$_ZNSt8_Rb_treeISt4pairIxxES1_St9_IdentityIS1_ESt4lessIS1_ESaIS1_EE12_M_erase_auxESt23_Rb_tree_const_iteratorIS1_ES9_ = comdat any

$_ZNSt8_Rb_treeISt4pairIxxES1_St9_IdentityIS1_ESt4lessIS1_ESaIS1_EE14_M_lower_boundEPSt13_Rb_tree_nodeIS1_EPSt18_Rb_tree_node_baseRKS1_ = comdat any

$_ZNSt8_Rb_treeISt4pairIxxES1_St9_IdentityIS1_ESt4lessIS1_ESaIS1_EE12_M_erase_auxESt23_Rb_tree_const_iteratorIS1_E = comdat any

$_ZNSt8_Rb_treeISt4pairIxxES1_St9_IdentityIS1_ESt4lessIS1_ESaIS1_EE15_M_insert_equalIS1_EESt17_Rb_tree_iteratorIS1_EOT_ = comdat any

$_ZNSt8_Rb_treeISt4pairIxxES1_St9_IdentityIS1_ESt4lessIS1_ESaIS1_EE23_M_get_insert_equal_posERKS1_ = comdat any

$_ZNSt8_Rb_treeISt4pairIxxES1_St9_IdentityIS1_ESt4lessIS1_ESaIS1_EE10_M_insert_IS1_NS7_11_Alloc_nodeEEESt17_Rb_tree_iteratorIS1_EPSt18_Rb_tree_node_baseSD_OT_RT0_ = comdat any

$_ZNKSt8_Rb_treeISt4pairIxxES1_St9_IdentityIS1_ESt4lessIS1_ESaIS1_EE11_Alloc_nodeclIS1_EEPSt13_Rb_tree_nodeIS1_EOT_ = comdat any

$_ZNSt8_Rb_treeISt4pairIxxES1_St9_IdentityIS1_ESt4lessIS1_ESaIS1_EE11_M_get_nodeEv = comdat any

$_ZNSt16allocator_traitsISaISt13_Rb_tree_nodeISt4pairIxxEEEE8allocateERS4_m = comdat any

$_ZN9__gnu_cxx13new_allocatorISt13_Rb_tree_nodeISt4pairIxxEEE8allocateEmPKv = comdat any

@_ZStL8__ioinit = internal global %"class.std::ios_base::Init" zeroinitializer, align 1
@__dso_handle = external hidden global i8
@_ZSt3cin = external global %"class.std::basic_istream", align 8
@_ZSt4cout = external global %"class.std::basic_ostream", align 8
@_ZStL19piecewise_construct = internal constant %"struct.std::piecewise_construct_t" undef, align 1
@.str = private unnamed_addr constant [26 x i8] c"vector::_M_realloc_insert\00", align 1
@llvm.global_ctors = appending global [1 x { i32, void ()*, i8* }] [{ i32, void ()*, i8* } { i32 65535, void ()* @_GLOBAL__sub_I_s361296154.cpp, i8* null }]

; Function Attrs: minsize optsize
declare void @_ZNSt8ios_base4InitC1Ev(%"class.std::ios_base::Init"* nonnull align 1 dereferenceable(1)) unnamed_addr #0

; Function Attrs: minsize nounwind optsize
declare void @_ZNSt8ios_base4InitD1Ev(%"class.std::ios_base::Init"* nonnull align 1 dereferenceable(1)) unnamed_addr #1

; Function Attrs: nofree nounwind
declare i32 @__cxa_atexit(void (i8*)*, i8*, i8*) local_unnamed_addr #2

; Function Attrs: minsize norecurse optsize sspstrong uwtable
define dso_local i32 @main() local_unnamed_addr #3 personality i8* bitcast (i32 (...)* @__gxx_personality_v0 to i8*) {
  %1 = alloca i64, align 8
  %2 = alloca i64, align 8
  %3 = alloca i64, align 8
  %4 = alloca %"class.std::map", align 8
  %5 = alloca i64, align 8
  %6 = alloca %"class.std::vector", align 8
  %7 = alloca %"struct.std::pair", align 8
  %8 = alloca %"class.std::multiset", align 8
  %9 = alloca %"struct.std::pair", align 8
  %10 = bitcast i64* %1 to i8*
  call void @llvm.lifetime.start.p0i8(i64 8, i8* nonnull %10) #19
  %11 = call nonnull align 8 dereferenceable(16) %"class.std::basic_istream"* @_ZNSi10_M_extractIxEERSiRT_(%"class.std::basic_istream"* nonnull align 8 dereferenceable(16) @_ZSt3cin, i64* nonnull align 8 dereferenceable(8) %1) #20
  %12 = bitcast i64* %2 to i8*
  call void @llvm.lifetime.start.p0i8(i64 8, i8* nonnull %12) #19
  %13 = bitcast i64* %3 to i8*
  call void @llvm.lifetime.start.p0i8(i64 8, i8* nonnull %13) #19
  %14 = call nonnull align 8 dereferenceable(16) %"class.std::basic_istream"* @_ZNSi10_M_extractIxEERSiRT_(%"class.std::basic_istream"* nonnull align 8 dereferenceable(16) @_ZSt3cin, i64* nonnull align 8 dereferenceable(8) %2) #20
  %15 = call nonnull align 8 dereferenceable(16) %"class.std::basic_istream"* @_ZNSi10_M_extractIxEERSiRT_(%"class.std::basic_istream"* nonnull align 8 dereferenceable(16) %14, i64* nonnull align 8 dereferenceable(8) %3) #20
  %16 = load i64, i64* %3, align 8, !tbaa !5
  %17 = icmp eq i64 %16, 0
  %18 = load i64, i64* %2, align 8
  %19 = icmp eq i64 %18, 0
  %20 = select i1 %17, i1 %19, i1 false
  br i1 %20, label %21, label %24

21:                                               ; preds = %0
  %22 = call nonnull align 8 dereferenceable(8) %"class.std::basic_ostream"* @_ZNSolsEi(%"class.std::basic_ostream"* nonnull align 8 dereferenceable(8) @_ZSt4cout, i32 1) #20
  %23 = call nonnull align 8 dereferenceable(8) %"class.std::basic_ostream"* @_ZSt4endlIcSt11char_traitsIcEERSt13basic_ostreamIT_T0_ES6_(%"class.std::basic_ostream"* nonnull align 8 dereferenceable(8) %22) #20
  br label %246

24:                                               ; preds = %0
  br i1 %17, label %25, label %30

25:                                               ; preds = %24
  %26 = load i64, i64* %1, align 8, !tbaa !5
  %27 = add nsw i64 %26, 1
  %28 = call nonnull align 8 dereferenceable(8) %"class.std::basic_ostream"* @_ZNSo9_M_insertIxEERSoT_(%"class.std::basic_ostream"* nonnull align 8 dereferenceable(8) @_ZSt4cout, i64 %27) #20
  %29 = call nonnull align 8 dereferenceable(8) %"class.std::basic_ostream"* @_ZSt4endlIcSt11char_traitsIcEERSt13basic_ostreamIT_T0_ES6_(%"class.std::basic_ostream"* nonnull align 8 dereferenceable(8) %28) #20
  br label %246

30:                                               ; preds = %24
  br i1 %19, label %31, label %39

31:                                               ; preds = %30
  %32 = load i64, i64* %1, align 8, !tbaa !5
  %33 = add nsw i64 %32, -1
  %34 = mul nsw i64 %33, %32
  %35 = sdiv i64 %34, 2
  %36 = add nsw i64 %35, 1
  %37 = call nonnull align 8 dereferenceable(8) %"class.std::basic_ostream"* @_ZNSo9_M_insertIxEERSoT_(%"class.std::basic_ostream"* nonnull align 8 dereferenceable(8) @_ZSt4cout, i64 %36) #20
  %38 = call nonnull align 8 dereferenceable(8) %"class.std::basic_ostream"* @_ZSt4endlIcSt11char_traitsIcEERSt13basic_ostreamIT_T0_ES6_(%"class.std::basic_ostream"* nonnull align 8 dereferenceable(8) %37) #20
  br label %246

39:                                               ; preds = %30
  %40 = icmp slt i64 %16, 0
  br i1 %40, label %41, label %44

41:                                               ; preds = %39
  %42 = sub nsw i64 0, %18
  store i64 %42, i64* %2, align 8, !tbaa !5
  %43 = sub nsw i64 0, %16
  store i64 %43, i64* %3, align 8, !tbaa !5
  br label %44

44:                                               ; preds = %41, %39
  %45 = getelementptr inbounds %"class.std::map", %"class.std::map"* %4, i64 0, i32 0, i32 0, i32 0, i32 0, i32 0
  call void @llvm.lifetime.start.p0i8(i64 48, i8* nonnull %45) #19
  %46 = getelementptr inbounds i8, i8* %45, i64 8
  %47 = bitcast i8* %46 to i32*
  store i32 0, i32* %47, align 8, !tbaa !9
  %48 = getelementptr inbounds i8, i8* %45, i64 16
  %49 = bitcast i8* %48 to %"struct.std::_Rb_tree_node_base"**
  store %"struct.std::_Rb_tree_node_base"* null, %"struct.std::_Rb_tree_node_base"** %49, align 8, !tbaa !15
  %50 = getelementptr inbounds i8, i8* %45, i64 24
  %51 = bitcast i8* %50 to i8**
  store i8* %46, i8** %51, align 8, !tbaa !16
  %52 = getelementptr inbounds i8, i8* %45, i64 32
  %53 = bitcast i8* %52 to i8**
  store i8* %46, i8** %53, align 8, !tbaa !17
  %54 = getelementptr inbounds i8, i8* %45, i64 40
  %55 = bitcast i8* %54 to i64*
  store i64 0, i64* %55, align 8, !tbaa !18
  %56 = load i64, i64* %1, align 8, !tbaa !5
  %57 = trunc i64 %56 to i32
  %58 = add i32 %57, 1
  %59 = bitcast i64* %5 to i8*
  %60 = bitcast %"class.std::vector"* %6 to i8*
  %61 = getelementptr inbounds %"class.std::map", %"class.std::map"* %4, i64 0, i32 0
  %62 = bitcast i8* %46 to %"struct.std::_Rb_tree_node_base"*
  %63 = bitcast %"struct.std::pair"* %7 to i8*
  %64 = getelementptr inbounds %"struct.std::pair", %"struct.std::pair"* %7, i64 0, i32 0
  %65 = getelementptr inbounds %"struct.std::pair", %"struct.std::pair"* %7, i64 0, i32 1
  %66 = getelementptr inbounds %"class.std::multiset", %"class.std::multiset"* %8, i64 0, i32 0, i32 0, i32 0, i32 0, i32 0
  %67 = getelementptr inbounds i8, i8* %66, i64 8
  %68 = getelementptr inbounds i8, i8* %66, i64 24
  %69 = bitcast i8* %68 to i8**
  %70 = getelementptr inbounds i8, i8* %66, i64 32
  %71 = bitcast i8* %70 to i8**
  %72 = getelementptr inbounds i8, i8* %66, i64 40
  %73 = bitcast i8* %72 to i64*
  %74 = getelementptr inbounds %"class.std::multiset", %"class.std::multiset"* %8, i64 0, i32 0
  %75 = getelementptr inbounds %"class.std::vector", %"class.std::vector"* %6, i64 0, i32 0, i32 0, i32 0, i32 1
  %76 = getelementptr inbounds %"class.std::vector", %"class.std::vector"* %6, i64 0, i32 0, i32 0, i32 0, i32 0
  %77 = bitcast %"struct.std::pair"* %9 to i8*
  %78 = getelementptr inbounds %"struct.std::pair", %"struct.std::pair"* %9, i64 0, i32 0
  %79 = getelementptr inbounds %"struct.std::pair", %"struct.std::pair"* %9, i64 0, i32 1
  %80 = getelementptr inbounds %"class.std::vector", %"class.std::vector"* %6, i64 0, i32 0
  %81 = call i32 @llvm.smax.i32(i32 %58, i32 0)
  %82 = zext i32 %81 to i64
  %83 = getelementptr inbounds %"class.std::multiset", %"class.std::multiset"* %8, i64 0, i32 0, i32 0, i32 0, i32 0, i32 0
  br label %84

84:                                               ; preds = %205, %44
  %85 = phi i64 [ %206, %205 ], [ 0, %44 ]
  %86 = icmp eq i64 %85, %82
  br i1 %86, label %87, label %91

87:                                               ; preds = %84
  %88 = bitcast i8* %50 to %"struct.std::_Rb_tree_node_base"**
  %89 = load %"struct.std::_Rb_tree_node_base"*, %"struct.std::_Rb_tree_node_base"** %88, align 8, !tbaa !16
  %90 = load i64, i64* %3, align 8
  br label %213

91:                                               ; preds = %84
  %92 = load i64, i64* %2, align 8, !tbaa !5
  %93 = mul nsw i64 %92, %85
  %94 = add nsw i64 %85, -1
  %95 = mul nsw i64 %94, %85
  %96 = sdiv i64 %95, 2
  %97 = load i64, i64* %3, align 8, !tbaa !5
  %98 = mul nsw i64 %97, %96
  %99 = add nsw i64 %98, %93
  %100 = load i64, i64* %1, align 8, !tbaa !5
  %101 = add nsw i64 %100, -1
  %102 = mul nsw i64 %101, %100
  %103 = sdiv i64 %102, 2
  %104 = sub nsw i64 %100, %85
  %105 = add nsw i64 %104, -1
  %106 = mul nsw i64 %105, %104
  %107 = sdiv i64 %106, -2
  %108 = add nsw i64 %107, %103
  %109 = mul nsw i64 %108, %97
  %110 = add nsw i64 %109, %93
  call void @llvm.lifetime.start.p0i8(i64 8, i8* nonnull %59) #19
  %111 = srem i64 %99, %97
  %112 = icmp slt i64 %111, 0
  %113 = select i1 %112, i64 %97, i64 0
  %114 = add nsw i64 %111, %113
  store i64 %114, i64* %5, align 8, !tbaa !5
  call void @llvm.lifetime.start.p0i8(i64 24, i8* nonnull %60) #19
  call void @llvm.memset.p0i8.i64(i8* noundef nonnull align 8 dereferenceable(24) %60, i8 0, i64 24, i1 false) #19
  %115 = invoke %"struct.std::_Rb_tree_node_base"* @_ZNSt8_Rb_treeIxSt4pairIKxSt8multisetIS0_IxxESt4lessIS3_ESaIS3_EEESt10_Select1stIS8_ES4_IxESaIS8_EE4findERS1_(%"class.std::_Rb_tree"* nonnull align 8 dereferenceable(48) %61, i64* nonnull align 8 dereferenceable(8) %5) #20
          to label %116 unwind label %137

116:                                              ; preds = %91
  %117 = icmp eq %"struct.std::_Rb_tree_node_base"* %115, %62
  br i1 %117, label %167, label %118

118:                                              ; preds = %116
  %119 = invoke nonnull align 8 dereferenceable(48) %"class.std::multiset"* @_ZNSt3mapIxSt8multisetISt4pairIxxESt4lessIS2_ESaIS2_EES3_IxESaIS1_IKxS6_EEEixERS8_(%"class.std::map"* nonnull align 8 dereferenceable(48) %4, i64* nonnull align 8 dereferenceable(8) %5) #20
          to label %120 unwind label %141

120:                                              ; preds = %118
  call void @llvm.lifetime.start.p0i8(i64 16, i8* nonnull %63) #19
  store i64 %110, i64* %64, align 8, !tbaa !19
  store i64 1000000000000000000, i64* %65, align 8, !tbaa !21
  %121 = getelementptr inbounds %"class.std::multiset", %"class.std::multiset"* %119, i64 0, i32 0
  %122 = invoke %"struct.std::_Rb_tree_node_base"* @_ZNSt8_Rb_treeISt4pairIxxES1_St9_IdentityIS1_ESt4lessIS1_ESaIS1_EE11upper_boundERKS1_(%"class.std::_Rb_tree.3"* nonnull align 8 dereferenceable(48) %121, %"struct.std::pair"* nonnull align 8 dereferenceable(16) %7) #20
          to label %123 unwind label %143

123:                                              ; preds = %120
  call void @llvm.lifetime.end.p0i8(i64 16, i8* nonnull %63) #19
  br label %124

124:                                              ; preds = %161, %123
  %125 = phi %"struct.std::_Rb_tree_node_base"* [ %148, %161 ], [ %122, %123 ]
  %126 = phi i64 [ %166, %161 ], [ %110, %123 ]
  %127 = phi i64 [ %164, %161 ], [ %99, %123 ]
  br label %128

128:                                              ; preds = %124, %149
  %129 = phi %"struct.std::_Rb_tree_node_base"* [ %148, %149 ], [ %125, %124 ]
  %130 = invoke nonnull align 8 dereferenceable(48) %"class.std::multiset"* @_ZNSt3mapIxSt8multisetISt4pairIxxESt4lessIS2_ESaIS2_EES3_IxESaIS1_IKxS6_EEEixERS8_(%"class.std::map"* nonnull align 8 dereferenceable(48) %4, i64* nonnull align 8 dereferenceable(8) %5) #20
          to label %131 unwind label %145

131:                                              ; preds = %128
  %132 = getelementptr inbounds %"class.std::multiset", %"class.std::multiset"* %130, i64 0, i32 0, i32 0, i32 0, i32 0, i32 0
  %133 = getelementptr inbounds i8, i8* %132, i64 24
  %134 = bitcast i8* %133 to %"struct.std::_Rb_tree_node_base"**
  %135 = load %"struct.std::_Rb_tree_node_base"*, %"struct.std::_Rb_tree_node_base"** %134, align 8, !tbaa !16
  %136 = icmp eq %"struct.std::_Rb_tree_node_base"* %129, %135
  br i1 %136, label %174, label %147

137:                                              ; preds = %91
  %138 = landingpad { i8*, i32 }
          cleanup
  br label %211

139:                                              ; preds = %161
  %140 = landingpad { i8*, i32 }
          cleanup
  br label %211

141:                                              ; preds = %118
  %142 = landingpad { i8*, i32 }
          cleanup
  br label %211

143:                                              ; preds = %120
  %144 = landingpad { i8*, i32 }
          cleanup
  call void @llvm.lifetime.end.p0i8(i64 16, i8* nonnull %63) #19
  br label %211

145:                                              ; preds = %128
  %146 = landingpad { i8*, i32 }
          cleanup
  br label %211

147:                                              ; preds = %131
  %148 = invoke %"struct.std::_Rb_tree_node_base"* @_ZSt4prevISt23_Rb_tree_const_iteratorISt4pairIxxEEET_S4_NSt15iterator_traitsIS4_E15difference_typeE(%"struct.std::_Rb_tree_node_base"* %129, i64 1) #20
          to label %149 unwind label %154

149:                                              ; preds = %147
  %150 = getelementptr inbounds %"struct.std::_Rb_tree_node_base", %"struct.std::_Rb_tree_node_base"* %148, i64 1
  %151 = bitcast %"struct.std::_Rb_tree_node_base"* %150 to i64*
  %152 = load i64, i64* %151, align 8, !tbaa !19
  %153 = icmp sgt i64 %152, %126
  br i1 %153, label %128, label %156, !llvm.loop !22

154:                                              ; preds = %147
  %155 = landingpad { i8*, i32 }
          cleanup
  br label %211

156:                                              ; preds = %149
  %157 = getelementptr inbounds %"struct.std::_Rb_tree_node_base", %"struct.std::_Rb_tree_node_base"* %148, i64 1, i32 1
  %158 = bitcast %"struct.std::_Rb_tree_node_base"** %157 to i64*
  %159 = load i64, i64* %158, align 8, !tbaa !21
  %160 = icmp slt i64 %159, %127
  br i1 %160, label %174, label %161

161:                                              ; preds = %156
  %162 = bitcast %"struct.std::_Rb_tree_node_base"* %150 to %"struct.std::pair"*
  %163 = icmp slt i64 %152, %127
  %164 = select i1 %163, i64 %152, i64 %127
  %165 = icmp slt i64 %126, %159
  %166 = select i1 %165, i64 %159, i64 %126
  invoke void @_ZNSt6vectorISt4pairIxxESaIS1_EE9push_backERKS1_(%"class.std::vector"* nonnull align 8 dereferenceable(24) %6, %"struct.std::pair"* nonnull align 8 dereferenceable(16) %162) #20
          to label %124 unwind label %139, !llvm.loop !22

167:                                              ; preds = %116
  call void @llvm.lifetime.start.p0i8(i64 48, i8* nonnull %66) #19
  call void @llvm.memset.p0i8.i64(i8* noundef nonnull align 8 dereferenceable(24) %83, i8 0, i64 24, i1 false)
  store i8* %67, i8** %69, align 8, !tbaa !16
  store i8* %67, i8** %71, align 8, !tbaa !17
  store i64 0, i64* %73, align 8, !tbaa !18
  %168 = invoke nonnull align 8 dereferenceable(48) %"class.std::multiset"* @_ZNSt3mapIxSt8multisetISt4pairIxxESt4lessIS2_ESaIS2_EES3_IxESaIS1_IKxS6_EEEixERS8_(%"class.std::map"* nonnull align 8 dereferenceable(48) %4, i64* nonnull align 8 dereferenceable(8) %5) #20
          to label %169 unwind label %172

169:                                              ; preds = %167
  %170 = getelementptr inbounds %"class.std::multiset", %"class.std::multiset"* %168, i64 0, i32 0
  %171 = call nonnull align 8 dereferenceable(48) %"class.std::_Rb_tree.3"* @_ZNSt8_Rb_treeISt4pairIxxES1_St9_IdentityIS1_ESt4lessIS1_ESaIS1_EEaSEOS7_(%"class.std::_Rb_tree.3"* nonnull align 8 dereferenceable(48) %170, %"class.std::_Rb_tree.3"* nonnull align 8 dereferenceable(48) %74) #21
  call void @_ZNSt8_Rb_treeISt4pairIxxES1_St9_IdentityIS1_ESt4lessIS1_ESaIS1_EED2Ev(%"class.std::_Rb_tree.3"* nonnull align 8 dereferenceable(48) %74) #21
  call void @llvm.lifetime.end.p0i8(i64 48, i8* nonnull %66) #19
  br label %174

172:                                              ; preds = %167
  %173 = landingpad { i8*, i32 }
          cleanup
  call void @_ZNSt8_Rb_treeISt4pairIxxES1_St9_IdentityIS1_ESt4lessIS1_ESaIS1_EED2Ev(%"class.std::_Rb_tree.3"* nonnull align 8 dereferenceable(48) %74) #21
  call void @llvm.lifetime.end.p0i8(i64 48, i8* nonnull %66) #19
  br label %211

174:                                              ; preds = %156, %131, %169
  %175 = phi i64 [ %110, %169 ], [ %126, %131 ], [ %126, %156 ]
  %176 = phi i64 [ %99, %169 ], [ %127, %131 ], [ %127, %156 ]
  %177 = load %"struct.std::pair"*, %"struct.std::pair"** %75, align 8, !tbaa !24
  %178 = load %"struct.std::pair"*, %"struct.std::pair"** %76, align 8, !tbaa !26
  %179 = ptrtoint %"struct.std::pair"* %177 to i64
  %180 = ptrtoint %"struct.std::pair"* %178 to i64
  %181 = sub i64 %179, %180
  %182 = lshr exact i64 %181, 4
  %183 = trunc i64 %182 to i32
  %184 = call i32 @llvm.smax.i32(i32 %183, i32 0)
  %185 = zext i32 %184 to i64
  br label %186

186:                                              ; preds = %198, %174
  %187 = phi i64 [ %199, %198 ], [ 0, %174 ]
  %188 = icmp eq i64 %187, %185
  br i1 %188, label %189, label %191

189:                                              ; preds = %186
  %190 = invoke nonnull align 8 dereferenceable(48) %"class.std::multiset"* @_ZNSt3mapIxSt8multisetISt4pairIxxESt4lessIS2_ESaIS2_EES3_IxESaIS1_IKxS6_EEEixERS8_(%"class.std::map"* nonnull align 8 dereferenceable(48) %4, i64* nonnull align 8 dereferenceable(8) %5) #20
          to label %202 unwind label %207

191:                                              ; preds = %186
  %192 = invoke nonnull align 8 dereferenceable(48) %"class.std::multiset"* @_ZNSt3mapIxSt8multisetISt4pairIxxESt4lessIS2_ESaIS2_EES3_IxESaIS1_IKxS6_EEEixERS8_(%"class.std::map"* nonnull align 8 dereferenceable(48) %4, i64* nonnull align 8 dereferenceable(8) %5) #20
          to label %193 unwind label %200

193:                                              ; preds = %191
  %194 = load %"struct.std::pair"*, %"struct.std::pair"** %76, align 8, !tbaa !26
  %195 = getelementptr inbounds %"struct.std::pair", %"struct.std::pair"* %194, i64 %187
  %196 = getelementptr inbounds %"class.std::multiset", %"class.std::multiset"* %192, i64 0, i32 0
  %197 = invoke i64 @_ZNSt8_Rb_treeISt4pairIxxES1_St9_IdentityIS1_ESt4lessIS1_ESaIS1_EE5eraseERKS1_(%"class.std::_Rb_tree.3"* nonnull align 8 dereferenceable(48) %196, %"struct.std::pair"* nonnull align 8 dereferenceable(16) %195) #20
          to label %198 unwind label %200

198:                                              ; preds = %193
  %199 = add nuw nsw i64 %187, 1
  br label %186, !llvm.loop !27

200:                                              ; preds = %193, %191
  %201 = landingpad { i8*, i32 }
          cleanup
  br label %211

202:                                              ; preds = %189
  call void @llvm.lifetime.start.p0i8(i64 16, i8* nonnull %77) #19
  store i64 %176, i64* %78, align 8
  store i64 %175, i64* %79, align 8
  %203 = getelementptr inbounds %"class.std::multiset", %"class.std::multiset"* %190, i64 0, i32 0
  %204 = invoke %"struct.std::_Rb_tree_node_base"* @_ZNSt8_Rb_treeISt4pairIxxES1_St9_IdentityIS1_ESt4lessIS1_ESaIS1_EE15_M_insert_equalIS1_EESt17_Rb_tree_iteratorIS1_EOT_(%"class.std::_Rb_tree.3"* nonnull align 8 dereferenceable(48) %203, %"struct.std::pair"* nonnull align 8 dereferenceable(16) %9) #20
          to label %205 unwind label %209

205:                                              ; preds = %202
  call void @llvm.lifetime.end.p0i8(i64 16, i8* nonnull %77) #19
  call void @_ZNSt12_Vector_baseISt4pairIxxESaIS1_EED2Ev(%"struct.std::_Vector_base"* nonnull align 8 dereferenceable(24) %80) #21
  call void @llvm.lifetime.end.p0i8(i64 24, i8* nonnull %60) #19
  call void @llvm.lifetime.end.p0i8(i64 8, i8* nonnull %59) #19
  %206 = add nuw nsw i64 %85, 1
  br label %84, !llvm.loop !28

207:                                              ; preds = %189
  %208 = landingpad { i8*, i32 }
          cleanup
  br label %211

209:                                              ; preds = %202
  %210 = landingpad { i8*, i32 }
          cleanup
  call void @llvm.lifetime.end.p0i8(i64 16, i8* nonnull %77) #19
  br label %211

211:                                              ; preds = %139, %141, %143, %145, %154, %209, %207, %200, %172, %137
  %212 = phi { i8*, i32 } [ %201, %200 ], [ %210, %209 ], [ %208, %207 ], [ %173, %172 ], [ %138, %137 ], [ %155, %154 ], [ %146, %145 ], [ %144, %143 ], [ %140, %139 ], [ %142, %141 ]
  call void @_ZNSt12_Vector_baseISt4pairIxxESaIS1_EED2Ev(%"struct.std::_Vector_base"* nonnull align 8 dereferenceable(24) %80) #21
  call void @llvm.lifetime.end.p0i8(i64 24, i8* nonnull %60) #19
  call void @llvm.lifetime.end.p0i8(i64 8, i8* nonnull %59) #19
  br label %249

213:                                              ; preds = %229, %87
  %214 = phi %"struct.std::_Rb_tree_node_base"* [ %89, %87 ], [ %230, %229 ]
  %215 = phi i64 [ 0, %87 ], [ %227, %229 ]
  %216 = icmp eq %"struct.std::_Rb_tree_node_base"* %214, %62
  br i1 %216, label %217, label %219

217:                                              ; preds = %213
  %218 = invoke nonnull align 8 dereferenceable(8) %"class.std::basic_ostream"* @_ZNSo9_M_insertIxEERSoT_(%"class.std::basic_ostream"* nonnull align 8 dereferenceable(8) @_ZSt4cout, i64 %215) #20
          to label %243 unwind label %247

219:                                              ; preds = %213
  %220 = getelementptr inbounds %"struct.std::_Rb_tree_node_base", %"struct.std::_Rb_tree_node_base"* %214, i64 1, i32 1
  %221 = getelementptr inbounds %"struct.std::_Rb_tree_node_base"*, %"struct.std::_Rb_tree_node_base"** %220, i64 3
  %222 = load %"struct.std::_Rb_tree_node_base"*, %"struct.std::_Rb_tree_node_base"** %221, align 8, !tbaa !16
  %223 = getelementptr inbounds %"struct.std::_Rb_tree_node_base"*, %"struct.std::_Rb_tree_node_base"** %220, i64 1
  %224 = bitcast %"struct.std::_Rb_tree_node_base"** %223 to %"struct.std::_Rb_tree_node_base"*
  br label %225

225:                                              ; preds = %231, %219
  %226 = phi %"struct.std::_Rb_tree_node_base"* [ %222, %219 ], [ %242, %231 ]
  %227 = phi i64 [ %215, %219 ], [ %241, %231 ]
  %228 = icmp eq %"struct.std::_Rb_tree_node_base"* %226, %224
  br i1 %228, label %229, label %231

229:                                              ; preds = %225
  %230 = call %"struct.std::_Rb_tree_node_base"* @_ZSt18_Rb_tree_incrementPSt18_Rb_tree_node_base(%"struct.std::_Rb_tree_node_base"* %214) #22
  br label %213, !llvm.loop !29

231:                                              ; preds = %225
  %232 = getelementptr inbounds %"struct.std::_Rb_tree_node_base", %"struct.std::_Rb_tree_node_base"* %226, i64 1
  %233 = bitcast %"struct.std::_Rb_tree_node_base"* %232 to i64*
  %234 = load i64, i64* %233, align 8
  %235 = getelementptr inbounds %"struct.std::_Rb_tree_node_base", %"struct.std::_Rb_tree_node_base"* %226, i64 1, i32 1
  %236 = bitcast %"struct.std::_Rb_tree_node_base"** %235 to i64*
  %237 = load i64, i64* %236, align 8
  %238 = sub nsw i64 %237, %234
  %239 = sdiv i64 %238, %90
  %240 = add i64 %227, 1
  %241 = add i64 %240, %239
  %242 = call %"struct.std::_Rb_tree_node_base"* @_ZSt18_Rb_tree_incrementPKSt18_Rb_tree_node_base(%"struct.std::_Rb_tree_node_base"* %226) #22
  br label %225

243:                                              ; preds = %217
  %244 = invoke nonnull align 8 dereferenceable(8) %"class.std::basic_ostream"* @_ZSt4endlIcSt11char_traitsIcEERSt13basic_ostreamIT_T0_ES6_(%"class.std::basic_ostream"* nonnull align 8 dereferenceable(8) %218) #20
          to label %245 unwind label %247

245:                                              ; preds = %243
  call void @_ZNSt8_Rb_treeIxSt4pairIKxSt8multisetIS0_IxxESt4lessIS3_ESaIS3_EEESt10_Select1stIS8_ES4_IxESaIS8_EED2Ev(%"class.std::_Rb_tree"* nonnull align 8 dereferenceable(48) %61) #21
  call void @llvm.lifetime.end.p0i8(i64 48, i8* nonnull %45) #19
  br label %246

246:                                              ; preds = %245, %31, %25, %21
  call void @llvm.lifetime.end.p0i8(i64 8, i8* nonnull %13) #19
  call void @llvm.lifetime.end.p0i8(i64 8, i8* nonnull %12) #19
  call void @llvm.lifetime.end.p0i8(i64 8, i8* nonnull %10) #19
  ret i32 0

247:                                              ; preds = %243, %217
  %248 = landingpad { i8*, i32 }
          cleanup
  br label %249

249:                                              ; preds = %247, %211
  %250 = phi { i8*, i32 } [ %212, %211 ], [ %248, %247 ]
  call void @_ZNSt8_Rb_treeIxSt4pairIKxSt8multisetIS0_IxxESt4lessIS3_ESaIS3_EEESt10_Select1stIS8_ES4_IxESaIS8_EED2Ev(%"class.std::_Rb_tree"* nonnull align 8 dereferenceable(48) %61) #21
  call void @llvm.lifetime.end.p0i8(i64 48, i8* nonnull %45) #19
  call void @llvm.lifetime.end.p0i8(i64 8, i8* nonnull %13) #19
  call void @llvm.lifetime.end.p0i8(i64 8, i8* nonnull %12) #19
  call void @llvm.lifetime.end.p0i8(i64 8, i8* nonnull %10) #19
  resume { i8*, i32 } %250
}

; Function Attrs: argmemonly mustprogress nofree nosync nounwind willreturn
declare void @llvm.lifetime.start.p0i8(i64 immarg, i8* nocapture) #4

; Function Attrs: minsize optsize
declare nonnull align 8 dereferenceable(8) %"class.std::basic_ostream"* @_ZNSolsEi(%"class.std::basic_ostream"* nonnull align 8 dereferenceable(8), i32) local_unnamed_addr #0

; Function Attrs: inlinehint minsize mustprogress optsize sspstrong uwtable
declare nonnull align 8 dereferenceable(8) %"class.std::basic_ostream"* @_ZSt4endlIcSt11char_traitsIcEERSt13basic_ostreamIT_T0_ES6_(%"class.std::basic_ostream"* nonnull align 8 dereferenceable(8)) local_unnamed_addr #5

declare i32 @__gxx_personality_v0(...)

; Function Attrs: argmemonly mustprogress nofree nosync nounwind willreturn
declare void @llvm.lifetime.end.p0i8(i64 immarg, i8* nocapture) #4

; Function Attrs: minsize optsize sspstrong uwtable
define linkonce_odr dso_local nonnull align 8 dereferenceable(48) %"class.std::multiset"* @_ZNSt3mapIxSt8multisetISt4pairIxxESt4lessIS2_ESaIS2_EES3_IxESaIS1_IKxS6_EEEixERS8_(%"class.std::map"* nonnull align 8 dereferenceable(48) %0, i64* nonnull align 8 dereferenceable(8) %1) local_unnamed_addr #6 comdat align 2 personality i32 (...)* @__gxx_personality_v0 {
  %3 = alloca %"class.std::tuple", align 8
  %4 = alloca %"class.std::tuple.19", align 1
  %5 = getelementptr inbounds %"class.std::map", %"class.std::map"* %0, i64 0, i32 0
  %6 = tail call %"struct.std::_Rb_tree_node_base"* @_ZNSt8_Rb_treeIxSt4pairIKxSt8multisetIS0_IxxESt4lessIS3_ESaIS3_EEESt10_Select1stIS8_ES4_IxESaIS8_EE11lower_boundERS1_(%"class.std::_Rb_tree"* nonnull align 8 dereferenceable(48) %5, i64* nonnull align 8 dereferenceable(8) %1) #20
  %7 = getelementptr inbounds %"class.std::map", %"class.std::map"* %0, i64 0, i32 0, i32 0, i32 0, i32 0, i32 0
  %8 = getelementptr inbounds i8, i8* %7, i64 8
  %9 = bitcast i8* %8 to %"struct.std::_Rb_tree_node_base"*
  %10 = icmp eq %"struct.std::_Rb_tree_node_base"* %6, %9
  br i1 %10, label %17, label %11

11:                                               ; preds = %2
  %12 = getelementptr inbounds %"struct.std::_Rb_tree_node_base", %"struct.std::_Rb_tree_node_base"* %6, i64 1
  %13 = bitcast %"struct.std::_Rb_tree_node_base"* %12 to i64*
  %14 = load i64, i64* %1, align 8, !tbaa !5
  %15 = load i64, i64* %13, align 8, !tbaa !5
  %16 = icmp slt i64 %14, %15
  br i1 %16, label %17, label %22

17:                                               ; preds = %2, %11
  %18 = bitcast %"class.std::tuple"* %3 to i8*
  call void @llvm.lifetime.start.p0i8(i64 8, i8* nonnull %18) #19
  %19 = getelementptr inbounds %"class.std::tuple", %"class.std::tuple"* %3, i64 0, i32 0, i32 0, i32 0
  store i64* %1, i64** %19, align 8, !tbaa !30
  %20 = getelementptr inbounds %"class.std::tuple.19", %"class.std::tuple.19"* %4, i64 0, i32 0
  call void @llvm.lifetime.start.p0i8(i64 1, i8* nonnull %20) #19
  %21 = call %"struct.std::_Rb_tree_node_base"* @_ZNSt8_Rb_treeIxSt4pairIKxSt8multisetIS0_IxxESt4lessIS3_ESaIS3_EEESt10_Select1stIS8_ES4_IxESaIS8_EE22_M_emplace_hint_uniqueIJRKSt21piecewise_construct_tSt5tupleIJRS1_EESI_IJEEEEESt17_Rb_tree_iteratorIS8_ESt23_Rb_tree_const_iteratorIS8_EDpOT_(%"class.std::_Rb_tree"* nonnull align 8 dereferenceable(48) %5, %"struct.std::_Rb_tree_node_base"* %6, %"struct.std::piecewise_construct_t"* nonnull align 1 dereferenceable(1) @_ZStL19piecewise_construct, %"class.std::tuple"* nonnull align 8 dereferenceable(8) %3, %"class.std::tuple.19"* nonnull align 1 dereferenceable(1) %4) #20
  call void @llvm.lifetime.end.p0i8(i64 1, i8* nonnull %20) #19
  call void @llvm.lifetime.end.p0i8(i64 8, i8* nonnull %18) #19
  br label %22

22:                                               ; preds = %17, %11
  %23 = phi %"struct.std::_Rb_tree_node_base"* [ %21, %17 ], [ %6, %11 ]
  %24 = getelementptr inbounds %"struct.std::_Rb_tree_node_base", %"struct.std::_Rb_tree_node_base"* %23, i64 1, i32 1
  %25 = bitcast %"struct.std::_Rb_tree_node_base"** %24 to %"class.std::multiset"*
  ret %"class.std::multiset"* %25
}

; Function Attrs: inlinehint minsize mustprogress optsize sspstrong uwtable
define linkonce_odr dso_local %"struct.std::_Rb_tree_node_base"* @_ZSt4prevISt23_Rb_tree_const_iteratorISt4pairIxxEEET_S4_NSt15iterator_traitsIS4_E15difference_typeE(%"struct.std::_Rb_tree_node_base"* %0, i64 %1) local_unnamed_addr #5 comdat {
  %3 = alloca %"struct.std::_Rb_tree_const_iterator", align 8
  %4 = getelementptr inbounds %"struct.std::_Rb_tree_const_iterator", %"struct.std::_Rb_tree_const_iterator"* %3, i64 0, i32 0
  store %"struct.std::_Rb_tree_node_base"* %0, %"struct.std::_Rb_tree_node_base"** %4, align 8
  %5 = sub nsw i64 0, %1
  call void @_ZSt9__advanceISt23_Rb_tree_const_iteratorISt4pairIxxEElEvRT_T0_St26bidirectional_iterator_tag(%"struct.std::_Rb_tree_const_iterator"* nonnull align 8 dereferenceable(8) %3, i64 %5) #20
  %6 = load %"struct.std::_Rb_tree_node_base"*, %"struct.std::_Rb_tree_node_base"** %4, align 8, !tbaa.struct !31
  ret %"struct.std::_Rb_tree_node_base"* %6
}

; Function Attrs: argmemonly mustprogress nofree nounwind willreturn
declare void @llvm.memcpy.p0i8.p0i8.i64(i8* noalias nocapture writeonly, i8* noalias nocapture readonly, i64, i1 immarg) #7

; Function Attrs: minsize optsize sspstrong uwtable
define linkonce_odr dso_local void @_ZNSt6vectorISt4pairIxxESaIS1_EE9push_backERKS1_(%"class.std::vector"* nonnull align 8 dereferenceable(24) %0, %"struct.std::pair"* nonnull align 8 dereferenceable(16) %1) local_unnamed_addr #6 comdat align 2 {
  %3 = getelementptr inbounds %"class.std::vector", %"class.std::vector"* %0, i64 0, i32 0, i32 0, i32 0, i32 1
  %4 = load %"struct.std::pair"*, %"struct.std::pair"** %3, align 8, !tbaa !24
  %5 = getelementptr inbounds %"class.std::vector", %"class.std::vector"* %0, i64 0, i32 0, i32 0, i32 0, i32 2
  %6 = load %"struct.std::pair"*, %"struct.std::pair"** %5, align 8, !tbaa !32
  %7 = icmp eq %"struct.std::pair"* %4, %6
  br i1 %7, label %13, label %8

8:                                                ; preds = %2
  %9 = bitcast %"struct.std::pair"* %4 to i8*
  %10 = bitcast %"struct.std::pair"* %1 to i8*
  tail call void @llvm.memcpy.p0i8.p0i8.i64(i8* noundef nonnull align 8 dereferenceable(16) %9, i8* noundef nonnull align 8 dereferenceable(16) %10, i64 16, i1 false) #19
  %11 = load %"struct.std::pair"*, %"struct.std::pair"** %3, align 8, !tbaa !24
  %12 = getelementptr inbounds %"struct.std::pair", %"struct.std::pair"* %11, i64 1
  store %"struct.std::pair"* %12, %"struct.std::pair"** %3, align 8, !tbaa !24
  br label %14

13:                                               ; preds = %2
  tail call void @_ZNSt6vectorISt4pairIxxESaIS1_EE17_M_realloc_insertIJRKS1_EEEvN9__gnu_cxx17__normal_iteratorIPS1_S3_EEDpOT_(%"class.std::vector"* nonnull align 8 dereferenceable(24) %0, %"struct.std::pair"* %4, %"struct.std::pair"* nonnull align 8 dereferenceable(16) %1) #20
  br label %14

14:                                               ; preds = %13, %8
  ret void
}

; Function Attrs: argmemonly mustprogress nofree nounwind willreturn writeonly
declare void @llvm.memset.p0i8.i64(i8* nocapture writeonly, i8, i64, i1 immarg) #8

; Function Attrs: minsize mustprogress nounwind optsize sspstrong uwtable
define linkonce_odr dso_local nonnull align 8 dereferenceable(8) %"struct.std::_Rb_tree_const_iterator"* @_ZNSt23_Rb_tree_const_iteratorISt4pairIxxEEppEv(%"struct.std::_Rb_tree_const_iterator"* nonnull align 8 dereferenceable(8) %0) local_unnamed_addr #9 comdat align 2 {
  %2 = getelementptr inbounds %"struct.std::_Rb_tree_const_iterator", %"struct.std::_Rb_tree_const_iterator"* %0, i64 0, i32 0
  %3 = load %"struct.std::_Rb_tree_node_base"*, %"struct.std::_Rb_tree_node_base"** %2, align 8, !tbaa !33
  %4 = tail call %"struct.std::_Rb_tree_node_base"* @_ZSt18_Rb_tree_incrementPKSt18_Rb_tree_node_base(%"struct.std::_Rb_tree_node_base"* %3) #22
  store %"struct.std::_Rb_tree_node_base"* %4, %"struct.std::_Rb_tree_node_base"** %2, align 8, !tbaa !33
  ret %"struct.std::_Rb_tree_const_iterator"* %0
}

; Function Attrs: noinline noreturn nounwind
define linkonce_odr hidden void @__clang_call_terminate(i8* %0) local_unnamed_addr #10 comdat {
  %2 = tail call i8* @__cxa_begin_catch(i8* %0) #19
  tail call void @_ZSt9terminatev() #23
  unreachable
}

declare i8* @__cxa_begin_catch(i8*) local_unnamed_addr

declare void @_ZSt9terminatev() local_unnamed_addr

; Function Attrs: inlinehint minsize mustprogress nounwind optsize sspstrong uwtable
define linkonce_odr dso_local nonnull align 8 dereferenceable(48) %"class.std::_Rb_tree.3"* @_ZNSt8_Rb_treeISt4pairIxxES1_St9_IdentityIS1_ESt4lessIS1_ESaIS1_EEaSEOS7_(%"class.std::_Rb_tree.3"* nonnull align 8 dereferenceable(48) %0, %"class.std::_Rb_tree.3"* nonnull align 8 dereferenceable(48) %1) local_unnamed_addr #11 comdat align 2 personality i8* bitcast (i32 (...)* @__gxx_personality_v0 to i8*) {
  invoke void @_ZNSt8_Rb_treeISt4pairIxxES1_St9_IdentityIS1_ESt4lessIS1_ESaIS1_EE14_M_move_assignERS7_St17integral_constantIbLb1EE(%"class.std::_Rb_tree.3"* nonnull align 8 dereferenceable(48) %0, %"class.std::_Rb_tree.3"* nonnull align 8 dereferenceable(48) %1) #20
          to label %3 unwind label %4

3:                                                ; preds = %2
  ret %"class.std::_Rb_tree.3"* %0

4:                                                ; preds = %2
  %5 = landingpad { i8*, i32 }
          catch i8* null
  %6 = extractvalue { i8*, i32 } %5, 0
  tail call void @__clang_call_terminate(i8* %6) #23
  unreachable
}

; Function Attrs: inlinehint minsize mustprogress optsize sspstrong uwtable
define linkonce_odr dso_local void @_ZNSt8_Rb_treeISt4pairIxxES1_St9_IdentityIS1_ESt4lessIS1_ESaIS1_EE14_M_move_assignERS7_St17integral_constantIbLb1EE(%"class.std::_Rb_tree.3"* nonnull align 8 dereferenceable(48) %0, %"class.std::_Rb_tree.3"* nonnull align 8 dereferenceable(48) %1) local_unnamed_addr #5 comdat align 2 {
  tail call void @_ZNSt8_Rb_treeISt4pairIxxES1_St9_IdentityIS1_ESt4lessIS1_ESaIS1_EE5clearEv(%"class.std::_Rb_tree.3"* nonnull align 8 dereferenceable(48) %0) #21
  %3 = getelementptr inbounds %"class.std::_Rb_tree.3", %"class.std::_Rb_tree.3"* %1, i64 0, i32 0, i32 0, i32 0, i32 0
  %4 = getelementptr inbounds i8, i8* %3, i64 16
  %5 = bitcast i8* %4 to %"struct.std::_Rb_tree_node_base"**
  %6 = load %"struct.std::_Rb_tree_node_base"*, %"struct.std::_Rb_tree_node_base"** %5, align 8, !tbaa !30
  %7 = icmp eq %"struct.std::_Rb_tree_node_base"* %6, null
  br i1 %7, label %14, label %8

8:                                                ; preds = %2
  %9 = getelementptr inbounds %"class.std::_Rb_tree.3", %"class.std::_Rb_tree.3"* %0, i64 0, i32 0, i32 0, i32 0, i32 0
  %10 = getelementptr inbounds i8, i8* %9, i64 8
  %11 = bitcast i8* %10 to %"struct.std::_Rb_tree_header"*
  %12 = getelementptr inbounds i8, i8* %3, i64 8
  %13 = bitcast i8* %12 to %"struct.std::_Rb_tree_header"*
  tail call void @_ZNSt15_Rb_tree_header12_M_move_dataERS_(%"struct.std::_Rb_tree_header"* nonnull align 8 dereferenceable(40) %11, %"struct.std::_Rb_tree_header"* nonnull align 8 dereferenceable(40) %13) #20
  br label %14

14:                                               ; preds = %8, %2
  ret void
}

; Function Attrs: minsize mustprogress nounwind optsize sspstrong uwtable
define linkonce_odr dso_local void @_ZNSt8_Rb_treeISt4pairIxxES1_St9_IdentityIS1_ESt4lessIS1_ESaIS1_EE5clearEv(%"class.std::_Rb_tree.3"* nonnull align 8 dereferenceable(48) %0) local_unnamed_addr #9 comdat align 2 personality i8* bitcast (i32 (...)* @__gxx_personality_v0 to i8*) {
  %2 = getelementptr inbounds %"class.std::_Rb_tree.3", %"class.std::_Rb_tree.3"* %0, i64 0, i32 0, i32 0, i32 0, i32 0
  %3 = getelementptr inbounds i8, i8* %2, i64 16
  %4 = bitcast i8* %3 to %"struct.std::_Rb_tree_node"**
  %5 = load %"struct.std::_Rb_tree_node"*, %"struct.std::_Rb_tree_node"** %4, align 8, !tbaa !15
  invoke void @_ZNSt8_Rb_treeISt4pairIxxES1_St9_IdentityIS1_ESt4lessIS1_ESaIS1_EE8_M_eraseEPSt13_Rb_tree_nodeIS1_E(%"class.std::_Rb_tree.3"* nonnull align 8 dereferenceable(48) %0, %"struct.std::_Rb_tree_node"* %5) #20
          to label %6 unwind label %15

6:                                                ; preds = %1
  %7 = getelementptr inbounds i8, i8* %2, i64 8
  %8 = bitcast i8* %3 to %"struct.std::_Rb_tree_node_base"**
  store %"struct.std::_Rb_tree_node_base"* null, %"struct.std::_Rb_tree_node_base"** %8, align 8, !tbaa !15
  %9 = getelementptr inbounds i8, i8* %2, i64 24
  %10 = bitcast i8* %9 to i8**
  store i8* %7, i8** %10, align 8, !tbaa !16
  %11 = getelementptr inbounds i8, i8* %2, i64 32
  %12 = bitcast i8* %11 to i8**
  store i8* %7, i8** %12, align 8, !tbaa !17
  %13 = getelementptr inbounds i8, i8* %2, i64 40
  %14 = bitcast i8* %13 to i64*
  store i64 0, i64* %14, align 8, !tbaa !18
  ret void

15:                                               ; preds = %1
  %16 = landingpad { i8*, i32 }
          catch i8* null
  %17 = extractvalue { i8*, i32 } %16, 0
  tail call void @__clang_call_terminate(i8* %17) #23
  unreachable
}

; Function Attrs: minsize mustprogress optsize sspstrong uwtable
define linkonce_odr dso_local void @_ZNSt8_Rb_treeISt4pairIxxES1_St9_IdentityIS1_ESt4lessIS1_ESaIS1_EE8_M_eraseEPSt13_Rb_tree_nodeIS1_E(%"class.std::_Rb_tree.3"* nonnull align 8 dereferenceable(48) %0, %"struct.std::_Rb_tree_node"* %1) local_unnamed_addr #12 comdat align 2 personality i32 (...)* @__gxx_personality_v0 {
  br label %3

3:                                                ; preds = %6, %2
  %4 = phi %"struct.std::_Rb_tree_node"* [ %1, %2 ], [ %12, %6 ]
  %5 = icmp eq %"struct.std::_Rb_tree_node"* %4, null
  br i1 %5, label %14, label %6

6:                                                ; preds = %3
  %7 = getelementptr inbounds %"struct.std::_Rb_tree_node", %"struct.std::_Rb_tree_node"* %4, i64 0, i32 0, i32 3
  %8 = bitcast %"struct.std::_Rb_tree_node_base"** %7 to %"struct.std::_Rb_tree_node"**
  %9 = load %"struct.std::_Rb_tree_node"*, %"struct.std::_Rb_tree_node"** %8, align 8, !tbaa !35
  tail call void @_ZNSt8_Rb_treeISt4pairIxxES1_St9_IdentityIS1_ESt4lessIS1_ESaIS1_EE8_M_eraseEPSt13_Rb_tree_nodeIS1_E(%"class.std::_Rb_tree.3"* nonnull align 8 dereferenceable(48) %0, %"struct.std::_Rb_tree_node"* %9) #20
  %10 = getelementptr inbounds %"struct.std::_Rb_tree_node", %"struct.std::_Rb_tree_node"* %4, i64 0, i32 0, i32 2
  %11 = bitcast %"struct.std::_Rb_tree_node_base"** %10 to %"struct.std::_Rb_tree_node"**
  %12 = load %"struct.std::_Rb_tree_node"*, %"struct.std::_Rb_tree_node"** %11, align 8, !tbaa !36
  %13 = bitcast %"struct.std::_Rb_tree_node"* %4 to i8*
  tail call void @_ZdlPv(i8* nonnull %13) #21
  br label %3, !llvm.loop !37

14:                                               ; preds = %3
  ret void
}

; Function Attrs: minsize nobuiltin nounwind optsize
declare void @_ZdlPv(i8*) local_unnamed_addr #13

; Function Attrs: minsize mustprogress nounwind optsize sspstrong uwtable
define linkonce_odr dso_local void @_ZNSt15_Rb_tree_header12_M_move_dataERS_(%"struct.std::_Rb_tree_header"* nonnull align 8 dereferenceable(40) %0, %"struct.std::_Rb_tree_header"* nonnull align 8 dereferenceable(40) %1) local_unnamed_addr #9 comdat align 2 {
  %3 = getelementptr inbounds %"struct.std::_Rb_tree_header", %"struct.std::_Rb_tree_header"* %1, i64 0, i32 0, i32 0
  %4 = load i32, i32* %3, align 8, !tbaa !9
  %5 = getelementptr inbounds %"struct.std::_Rb_tree_header", %"struct.std::_Rb_tree_header"* %0, i64 0, i32 0
  %6 = getelementptr inbounds %"struct.std::_Rb_tree_header", %"struct.std::_Rb_tree_header"* %0, i64 0, i32 0, i32 0
  store i32 %4, i32* %6, align 8, !tbaa !9
  %7 = getelementptr inbounds %"struct.std::_Rb_tree_header", %"struct.std::_Rb_tree_header"* %1, i64 0, i32 0, i32 1
  %8 = load %"struct.std::_Rb_tree_node_base"*, %"struct.std::_Rb_tree_node_base"** %7, align 8, !tbaa !15
  %9 = getelementptr inbounds %"struct.std::_Rb_tree_header", %"struct.std::_Rb_tree_header"* %0, i64 0, i32 0, i32 1
  store %"struct.std::_Rb_tree_node_base"* %8, %"struct.std::_Rb_tree_node_base"** %9, align 8, !tbaa !15
  %10 = getelementptr inbounds %"struct.std::_Rb_tree_header", %"struct.std::_Rb_tree_header"* %1, i64 0, i32 0, i32 2
  %11 = getelementptr inbounds %"struct.std::_Rb_tree_header", %"struct.std::_Rb_tree_header"* %0, i64 0, i32 0, i32 2
  %12 = getelementptr inbounds %"struct.std::_Rb_tree_header", %"struct.std::_Rb_tree_header"* %1, i64 0, i32 0, i32 3
  %13 = bitcast %"struct.std::_Rb_tree_node_base"** %10 to <2 x %"struct.std::_Rb_tree_node_base"*>*
  %14 = load <2 x %"struct.std::_Rb_tree_node_base"*>, <2 x %"struct.std::_Rb_tree_node_base"*>* %13, align 8, !tbaa !30
  %15 = bitcast %"struct.std::_Rb_tree_node_base"** %11 to <2 x %"struct.std::_Rb_tree_node_base"*>*
  store <2 x %"struct.std::_Rb_tree_node_base"*> %14, <2 x %"struct.std::_Rb_tree_node_base"*>* %15, align 8, !tbaa !30
  %16 = getelementptr inbounds %"struct.std::_Rb_tree_node_base", %"struct.std::_Rb_tree_node_base"* %8, i64 0, i32 1
  store %"struct.std::_Rb_tree_node_base"* %5, %"struct.std::_Rb_tree_node_base"** %16, align 8, !tbaa !38
  %17 = getelementptr inbounds %"struct.std::_Rb_tree_header", %"struct.std::_Rb_tree_header"* %1, i64 0, i32 1
  %18 = load i64, i64* %17, align 8, !tbaa !18
  %19 = getelementptr inbounds %"struct.std::_Rb_tree_header", %"struct.std::_Rb_tree_header"* %0, i64 0, i32 1
  store i64 %18, i64* %19, align 8, !tbaa !18
  %20 = getelementptr inbounds %"struct.std::_Rb_tree_header", %"struct.std::_Rb_tree_header"* %1, i64 0, i32 0
  store %"struct.std::_Rb_tree_node_base"* null, %"struct.std::_Rb_tree_node_base"** %7, align 8, !tbaa !15
  store %"struct.std::_Rb_tree_node_base"* %20, %"struct.std::_Rb_tree_node_base"** %10, align 8, !tbaa !16
  store %"struct.std::_Rb_tree_node_base"* %20, %"struct.std::_Rb_tree_node_base"** %12, align 8, !tbaa !17
  store i64 0, i64* %17, align 8, !tbaa !18
  ret void
}

; Function Attrs: minsize nounwind optsize sspstrong uwtable
define linkonce_odr dso_local void @_ZNSt8_Rb_treeISt4pairIxxES1_St9_IdentityIS1_ESt4lessIS1_ESaIS1_EED2Ev(%"class.std::_Rb_tree.3"* nonnull align 8 dereferenceable(48) %0) unnamed_addr #14 comdat align 2 personality i8* bitcast (i32 (...)* @__gxx_personality_v0 to i8*) {
  %2 = getelementptr inbounds %"class.std::_Rb_tree.3", %"class.std::_Rb_tree.3"* %0, i64 0, i32 0, i32 0, i32 0, i32 0
  %3 = getelementptr inbounds i8, i8* %2, i64 16
  %4 = bitcast i8* %3 to %"struct.std::_Rb_tree_node"**
  %5 = load %"struct.std::_Rb_tree_node"*, %"struct.std::_Rb_tree_node"** %4, align 8, !tbaa !15
  invoke void @_ZNSt8_Rb_treeISt4pairIxxES1_St9_IdentityIS1_ESt4lessIS1_ESaIS1_EE8_M_eraseEPSt13_Rb_tree_nodeIS1_E(%"class.std::_Rb_tree.3"* nonnull align 8 dereferenceable(48) %0, %"struct.std::_Rb_tree_node"* %5) #20
          to label %6 unwind label %7

6:                                                ; preds = %1
  ret void

7:                                                ; preds = %1
  %8 = landingpad { i8*, i32 }
          catch i8* null
  %9 = extractvalue { i8*, i32 } %8, 0
  tail call void @__clang_call_terminate(i8* %9) #23
  unreachable
}

; Function Attrs: minsize nounwind optsize sspstrong uwtable
define linkonce_odr dso_local void @_ZNSt8_Rb_treeIxSt4pairIKxSt8multisetIS0_IxxESt4lessIS3_ESaIS3_EEESt10_Select1stIS8_ES4_IxESaIS8_EED2Ev(%"class.std::_Rb_tree"* nonnull align 8 dereferenceable(48) %0) unnamed_addr #14 comdat align 2 personality i8* bitcast (i32 (...)* @__gxx_personality_v0 to i8*) {
  %2 = getelementptr inbounds %"class.std::_Rb_tree", %"class.std::_Rb_tree"* %0, i64 0, i32 0, i32 0, i32 0, i32 0
  %3 = getelementptr inbounds i8, i8* %2, i64 16
  %4 = bitcast i8* %3 to %"struct.std::_Rb_tree_node.16"**
  %5 = load %"struct.std::_Rb_tree_node.16"*, %"struct.std::_Rb_tree_node.16"** %4, align 8, !tbaa !15
  invoke void @_ZNSt8_Rb_treeIxSt4pairIKxSt8multisetIS0_IxxESt4lessIS3_ESaIS3_EEESt10_Select1stIS8_ES4_IxESaIS8_EE8_M_eraseEPSt13_Rb_tree_nodeIS8_E(%"class.std::_Rb_tree"* nonnull align 8 dereferenceable(48) %0, %"struct.std::_Rb_tree_node.16"* %5) #20
          to label %6 unwind label %7

6:                                                ; preds = %1
  ret void

7:                                                ; preds = %1
  %8 = landingpad { i8*, i32 }
          catch i8* null
  %9 = extractvalue { i8*, i32 } %8, 0
  tail call void @__clang_call_terminate(i8* %9) #23
  unreachable
}

; Function Attrs: minsize mustprogress optsize sspstrong uwtable
define linkonce_odr dso_local void @_ZNSt8_Rb_treeIxSt4pairIKxSt8multisetIS0_IxxESt4lessIS3_ESaIS3_EEESt10_Select1stIS8_ES4_IxESaIS8_EE8_M_eraseEPSt13_Rb_tree_nodeIS8_E(%"class.std::_Rb_tree"* nonnull align 8 dereferenceable(48) %0, %"struct.std::_Rb_tree_node.16"* %1) local_unnamed_addr #12 comdat align 2 {
  br label %3

3:                                                ; preds = %6, %2
  %4 = phi %"struct.std::_Rb_tree_node.16"* [ %1, %2 ], [ %12, %6 ]
  %5 = icmp eq %"struct.std::_Rb_tree_node.16"* %4, null
  br i1 %5, label %13, label %6

6:                                                ; preds = %3
  %7 = getelementptr inbounds %"struct.std::_Rb_tree_node.16", %"struct.std::_Rb_tree_node.16"* %4, i64 0, i32 0, i32 3
  %8 = bitcast %"struct.std::_Rb_tree_node_base"** %7 to %"struct.std::_Rb_tree_node.16"**
  %9 = load %"struct.std::_Rb_tree_node.16"*, %"struct.std::_Rb_tree_node.16"** %8, align 8, !tbaa !35
  tail call void @_ZNSt8_Rb_treeIxSt4pairIKxSt8multisetIS0_IxxESt4lessIS3_ESaIS3_EEESt10_Select1stIS8_ES4_IxESaIS8_EE8_M_eraseEPSt13_Rb_tree_nodeIS8_E(%"class.std::_Rb_tree"* nonnull align 8 dereferenceable(48) %0, %"struct.std::_Rb_tree_node.16"* %9) #20
  %10 = getelementptr inbounds %"struct.std::_Rb_tree_node.16", %"struct.std::_Rb_tree_node.16"* %4, i64 0, i32 0, i32 2
  %11 = bitcast %"struct.std::_Rb_tree_node_base"** %10 to %"struct.std::_Rb_tree_node.16"**
  %12 = load %"struct.std::_Rb_tree_node.16"*, %"struct.std::_Rb_tree_node.16"** %11, align 8, !tbaa !36
  tail call void @_ZNSt8_Rb_treeIxSt4pairIKxSt8multisetIS0_IxxESt4lessIS3_ESaIS3_EEESt10_Select1stIS8_ES4_IxESaIS8_EE12_M_drop_nodeEPSt13_Rb_tree_nodeIS8_E(%"class.std::_Rb_tree"* nonnull align 8 dereferenceable(48) %0, %"struct.std::_Rb_tree_node.16"* nonnull %4) #21
  br label %3, !llvm.loop !39

13:                                               ; preds = %3
  ret void
}

; Function Attrs: minsize nounwind optsize sspstrong uwtable
define linkonce_odr dso_local void @_ZNSt8_Rb_treeIxSt4pairIKxSt8multisetIS0_IxxESt4lessIS3_ESaIS3_EEESt10_Select1stIS8_ES4_IxESaIS8_EE12_M_drop_nodeEPSt13_Rb_tree_nodeIS8_E(%"class.std::_Rb_tree"* nonnull align 8 dereferenceable(48) %0, %"struct.std::_Rb_tree_node.16"* %1) local_unnamed_addr #14 comdat align 2 personality i32 (...)* @__gxx_personality_v0 {
  %3 = getelementptr inbounds %"struct.std::_Rb_tree_node.16", %"struct.std::_Rb_tree_node.16"* %1, i64 0, i32 1, i32 0, i64 8
  %4 = bitcast i8* %3 to %"class.std::_Rb_tree.3"*
  tail call void @_ZNSt8_Rb_treeISt4pairIxxES1_St9_IdentityIS1_ESt4lessIS1_ESaIS1_EED2Ev(%"class.std::_Rb_tree.3"* nonnull align 8 dereferenceable(48) %4) #21
  %5 = bitcast %"struct.std::_Rb_tree_node.16"* %1 to i8*
  tail call void @_ZdlPv(i8* %5) #21
  ret void
}

; Function Attrs: minsize optsize
declare nonnull align 8 dereferenceable(16) %"class.std::basic_istream"* @_ZNSi10_M_extractIxEERSiRT_(%"class.std::basic_istream"* nonnull align 8 dereferenceable(16), i64* nonnull align 8 dereferenceable(8)) local_unnamed_addr #0

; Function Attrs: minsize optsize
declare nonnull align 8 dereferenceable(8) %"class.std::basic_ostream"* @_ZNSo9_M_insertIxEERSoT_(%"class.std::basic_ostream"* nonnull align 8 dereferenceable(8), i64) local_unnamed_addr #0

; Function Attrs: minsize nounwind optsize sspstrong uwtable
define linkonce_odr dso_local void @_ZNSt12_Vector_baseISt4pairIxxESaIS1_EED2Ev(%"struct.std::_Vector_base"* nonnull align 8 dereferenceable(24) %0) unnamed_addr #14 comdat align 2 personality i8* bitcast (i32 (...)* @__gxx_personality_v0 to i8*) {
  %2 = getelementptr inbounds %"struct.std::_Vector_base", %"struct.std::_Vector_base"* %0, i64 0, i32 0, i32 0, i32 0
  %3 = load %"struct.std::pair"*, %"struct.std::pair"** %2, align 8, !tbaa !26
  %4 = icmp eq %"struct.std::pair"* %3, null
  br i1 %4, label %7, label %5

5:                                                ; preds = %1
  %6 = bitcast %"struct.std::pair"* %3 to i8*
  tail call void @_ZdlPv(i8* nonnull %6) #21
  br label %7

7:                                                ; preds = %5, %1
  ret void
}

; Function Attrs: minsize optsize sspstrong uwtable
define linkonce_odr dso_local %"struct.std::_Rb_tree_node_base"* @_ZNSt8_Rb_treeIxSt4pairIKxSt8multisetIS0_IxxESt4lessIS3_ESaIS3_EEESt10_Select1stIS8_ES4_IxESaIS8_EE4findERS1_(%"class.std::_Rb_tree"* nonnull align 8 dereferenceable(48) %0, i64* nonnull align 8 dereferenceable(8) %1) local_unnamed_addr #6 comdat align 2 {
  %3 = getelementptr inbounds %"class.std::_Rb_tree", %"class.std::_Rb_tree"* %0, i64 0, i32 0, i32 0, i32 0, i32 0
  %4 = getelementptr inbounds i8, i8* %3, i64 16
  %5 = bitcast i8* %4 to %"struct.std::_Rb_tree_node.16"**
  %6 = load %"struct.std::_Rb_tree_node.16"*, %"struct.std::_Rb_tree_node.16"** %5, align 8, !tbaa !15
  %7 = getelementptr inbounds i8, i8* %3, i64 8
  %8 = bitcast i8* %7 to %"struct.std::_Rb_tree_node_base"*
  %9 = tail call %"struct.std::_Rb_tree_node_base"* @_ZNSt8_Rb_treeIxSt4pairIKxSt8multisetIS0_IxxESt4lessIS3_ESaIS3_EEESt10_Select1stIS8_ES4_IxESaIS8_EE14_M_lower_boundEPSt13_Rb_tree_nodeIS8_EPSt18_Rb_tree_node_baseRS1_(%"class.std::_Rb_tree"* nonnull align 8 dereferenceable(48) %0, %"struct.std::_Rb_tree_node.16"* %6, %"struct.std::_Rb_tree_node_base"* nonnull %8, i64* nonnull align 8 dereferenceable(8) %1) #20
  %10 = icmp eq %"struct.std::_Rb_tree_node_base"* %9, %8
  br i1 %10, label %18, label %11

11:                                               ; preds = %2
  %12 = getelementptr inbounds %"struct.std::_Rb_tree_node_base", %"struct.std::_Rb_tree_node_base"* %9, i64 1
  %13 = bitcast %"struct.std::_Rb_tree_node_base"* %12 to i64*
  %14 = load i64, i64* %1, align 8, !tbaa !5
  %15 = load i64, i64* %13, align 8, !tbaa !5
  %16 = icmp slt i64 %14, %15
  %17 = select i1 %16, %"struct.std::_Rb_tree_node_base"* %8, %"struct.std::_Rb_tree_node_base"* %9
  br label %18

18:                                               ; preds = %11, %2
  %19 = phi %"struct.std::_Rb_tree_node_base"* [ %8, %2 ], [ %17, %11 ]
  ret %"struct.std::_Rb_tree_node_base"* %19
}

; Function Attrs: minsize optsize sspstrong uwtable
define linkonce_odr dso_local %"struct.std::_Rb_tree_node_base"* @_ZNSt8_Rb_treeIxSt4pairIKxSt8multisetIS0_IxxESt4lessIS3_ESaIS3_EEESt10_Select1stIS8_ES4_IxESaIS8_EE14_M_lower_boundEPSt13_Rb_tree_nodeIS8_EPSt18_Rb_tree_node_baseRS1_(%"class.std::_Rb_tree"* nonnull align 8 dereferenceable(48) %0, %"struct.std::_Rb_tree_node.16"* %1, %"struct.std::_Rb_tree_node_base"* %2, i64* nonnull align 8 dereferenceable(8) %3) local_unnamed_addr #6 comdat align 2 {
  %5 = load i64, i64* %3, align 8
  br label %6

6:                                                ; preds = %10, %4
  %7 = phi %"struct.std::_Rb_tree_node_base"* [ %2, %4 ], [ %18, %10 ]
  %8 = phi %"struct.std::_Rb_tree_node.16"* [ %1, %4 ], [ %21, %10 ]
  %9 = icmp eq %"struct.std::_Rb_tree_node.16"* %8, null
  br i1 %9, label %22, label %10

10:                                               ; preds = %6
  %11 = getelementptr inbounds %"struct.std::_Rb_tree_node.16", %"struct.std::_Rb_tree_node.16"* %8, i64 0, i32 1
  %12 = bitcast %"struct.__gnu_cxx::__aligned_membuf.17"* %11 to i64*
  %13 = load i64, i64* %12, align 8, !tbaa !5
  %14 = icmp slt i64 %13, %5
  %15 = getelementptr inbounds %"struct.std::_Rb_tree_node.16", %"struct.std::_Rb_tree_node.16"* %8, i64 0, i32 0, i32 3
  %16 = getelementptr %"struct.std::_Rb_tree_node.16", %"struct.std::_Rb_tree_node.16"* %8, i64 0, i32 0
  %17 = getelementptr inbounds %"struct.std::_Rb_tree_node.16", %"struct.std::_Rb_tree_node.16"* %8, i64 0, i32 0, i32 2
  %18 = select i1 %14, %"struct.std::_Rb_tree_node_base"* %7, %"struct.std::_Rb_tree_node_base"* %16
  %19 = select i1 %14, %"struct.std::_Rb_tree_node_base"** %15, %"struct.std::_Rb_tree_node_base"** %17
  %20 = bitcast %"struct.std::_Rb_tree_node_base"** %19 to %"struct.std::_Rb_tree_node.16"**
  %21 = load %"struct.std::_Rb_tree_node.16"*, %"struct.std::_Rb_tree_node.16"** %20, align 8, !tbaa !30
  br label %6, !llvm.loop !40

22:                                               ; preds = %6
  ret %"struct.std::_Rb_tree_node_base"* %7
}

; Function Attrs: minsize optsize sspstrong uwtable
define linkonce_odr dso_local %"struct.std::_Rb_tree_node_base"* @_ZNSt8_Rb_treeIxSt4pairIKxSt8multisetIS0_IxxESt4lessIS3_ESaIS3_EEESt10_Select1stIS8_ES4_IxESaIS8_EE22_M_emplace_hint_uniqueIJRKSt21piecewise_construct_tSt5tupleIJRS1_EESI_IJEEEEESt17_Rb_tree_iteratorIS8_ESt23_Rb_tree_const_iteratorIS8_EDpOT_(%"class.std::_Rb_tree"* nonnull align 8 dereferenceable(48) %0, %"struct.std::_Rb_tree_node_base"* %1, %"struct.std::piecewise_construct_t"* nonnull align 1 dereferenceable(1) %2, %"class.std::tuple"* nonnull align 8 dereferenceable(8) %3, %"class.std::tuple.19"* nonnull align 1 dereferenceable(1) %4) local_unnamed_addr #6 comdat align 2 personality i8* bitcast (i32 (...)* @__gxx_personality_v0 to i8*) {
  %6 = tail call %"struct.std::_Rb_tree_node.16"* @_ZNSt8_Rb_treeIxSt4pairIKxSt8multisetIS0_IxxESt4lessIS3_ESaIS3_EEESt10_Select1stIS8_ES4_IxESaIS8_EE14_M_create_nodeIJRKSt21piecewise_construct_tSt5tupleIJRS1_EESI_IJEEEEEPSt13_Rb_tree_nodeIS8_EDpOT_(%"class.std::_Rb_tree"* nonnull align 8 dereferenceable(48) %0, %"struct.std::piecewise_construct_t"* nonnull align 1 dereferenceable(1) %2, %"class.std::tuple"* nonnull align 8 dereferenceable(8) %3, %"class.std::tuple.19"* nonnull align 1 dereferenceable(1) %4) #20
  %7 = getelementptr inbounds %"struct.std::_Rb_tree_node.16", %"struct.std::_Rb_tree_node.16"* %6, i64 0, i32 1
  %8 = bitcast %"struct.__gnu_cxx::__aligned_membuf.17"* %7 to i64*
  %9 = invoke { %"struct.std::_Rb_tree_node_base"*, %"struct.std::_Rb_tree_node_base"* } @_ZNSt8_Rb_treeIxSt4pairIKxSt8multisetIS0_IxxESt4lessIS3_ESaIS3_EEESt10_Select1stIS8_ES4_IxESaIS8_EE29_M_get_insert_hint_unique_posESt23_Rb_tree_const_iteratorIS8_ERS1_(%"class.std::_Rb_tree"* nonnull align 8 dereferenceable(48) %0, %"struct.std::_Rb_tree_node_base"* %1, i64* nonnull align 8 dereferenceable(8) %8) #20
          to label %10 unwind label %16

10:                                               ; preds = %5
  %11 = extractvalue { %"struct.std::_Rb_tree_node_base"*, %"struct.std::_Rb_tree_node_base"* } %9, 0
  %12 = extractvalue { %"struct.std::_Rb_tree_node_base"*, %"struct.std::_Rb_tree_node_base"* } %9, 1
  %13 = icmp eq %"struct.std::_Rb_tree_node_base"* %12, null
  br i1 %13, label %20, label %14

14:                                               ; preds = %10
  %15 = invoke %"struct.std::_Rb_tree_node_base"* @_ZNSt8_Rb_treeIxSt4pairIKxSt8multisetIS0_IxxESt4lessIS3_ESaIS3_EEESt10_Select1stIS8_ES4_IxESaIS8_EE14_M_insert_nodeEPSt18_Rb_tree_node_baseSF_PSt13_Rb_tree_nodeIS8_E(%"class.std::_Rb_tree"* nonnull align 8 dereferenceable(48) %0, %"struct.std::_Rb_tree_node_base"* %11, %"struct.std::_Rb_tree_node_base"* nonnull %12, %"struct.std::_Rb_tree_node.16"* %6) #20
          to label %21 unwind label %16

16:                                               ; preds = %14, %5
  %17 = landingpad { i8*, i32 }
          catch i8* null
  %18 = extractvalue { i8*, i32 } %17, 0
  %19 = tail call i8* @__cxa_begin_catch(i8* %18) #19
  tail call void @_ZNSt8_Rb_treeIxSt4pairIKxSt8multisetIS0_IxxESt4lessIS3_ESaIS3_EEESt10_Select1stIS8_ES4_IxESaIS8_EE12_M_drop_nodeEPSt13_Rb_tree_nodeIS8_E(%"class.std::_Rb_tree"* nonnull align 8 dereferenceable(48) %0, %"struct.std::_Rb_tree_node.16"* %6) #21
  invoke void @__cxa_rethrow() #24
          to label %29 unwind label %23

20:                                               ; preds = %10
  tail call void @_ZNSt8_Rb_treeIxSt4pairIKxSt8multisetIS0_IxxESt4lessIS3_ESaIS3_EEESt10_Select1stIS8_ES4_IxESaIS8_EE12_M_drop_nodeEPSt13_Rb_tree_nodeIS8_E(%"class.std::_Rb_tree"* nonnull align 8 dereferenceable(48) %0, %"struct.std::_Rb_tree_node.16"* %6) #21
  br label %21

21:                                               ; preds = %14, %20
  %22 = phi %"struct.std::_Rb_tree_node_base"* [ %11, %20 ], [ %15, %14 ]
  ret %"struct.std::_Rb_tree_node_base"* %22

23:                                               ; preds = %16
  %24 = landingpad { i8*, i32 }
          cleanup
  invoke void @__cxa_end_catch()
          to label %25 unwind label %26

25:                                               ; preds = %23
  resume { i8*, i32 } %24

26:                                               ; preds = %23
  %27 = landingpad { i8*, i32 }
          catch i8* null
  %28 = extractvalue { i8*, i32 } %27, 0
  tail call void @__clang_call_terminate(i8* %28) #23
  unreachable

29:                                               ; preds = %16
  unreachable
}

; Function Attrs: minsize mustprogress optsize sspstrong uwtable
define linkonce_odr dso_local %"struct.std::_Rb_tree_node_base"* @_ZNSt8_Rb_treeIxSt4pairIKxSt8multisetIS0_IxxESt4lessIS3_ESaIS3_EEESt10_Select1stIS8_ES4_IxESaIS8_EE11lower_boundERS1_(%"class.std::_Rb_tree"* nonnull align 8 dereferenceable(48) %0, i64* nonnull align 8 dereferenceable(8) %1) local_unnamed_addr #12 comdat align 2 {
  %3 = getelementptr inbounds %"class.std::_Rb_tree", %"class.std::_Rb_tree"* %0, i64 0, i32 0, i32 0, i32 0, i32 0
  %4 = getelementptr inbounds i8, i8* %3, i64 16
  %5 = bitcast i8* %4 to %"struct.std::_Rb_tree_node.16"**
  %6 = load %"struct.std::_Rb_tree_node.16"*, %"struct.std::_Rb_tree_node.16"** %5, align 8, !tbaa !15
  %7 = getelementptr inbounds i8, i8* %3, i64 8
  %8 = bitcast i8* %7 to %"struct.std::_Rb_tree_node_base"*
  %9 = tail call %"struct.std::_Rb_tree_node_base"* @_ZNSt8_Rb_treeIxSt4pairIKxSt8multisetIS0_IxxESt4lessIS3_ESaIS3_EEESt10_Select1stIS8_ES4_IxESaIS8_EE14_M_lower_boundEPSt13_Rb_tree_nodeIS8_EPSt18_Rb_tree_node_baseRS1_(%"class.std::_Rb_tree"* nonnull align 8 dereferenceable(48) %0, %"struct.std::_Rb_tree_node.16"* %6, %"struct.std::_Rb_tree_node_base"* nonnull %8, i64* nonnull align 8 dereferenceable(8) %1) #20
  ret %"struct.std::_Rb_tree_node_base"* %9
}

; Function Attrs: minsize optsize sspstrong uwtable
define linkonce_odr dso_local %"struct.std::_Rb_tree_node.16"* @_ZNSt8_Rb_treeIxSt4pairIKxSt8multisetIS0_IxxESt4lessIS3_ESaIS3_EEESt10_Select1stIS8_ES4_IxESaIS8_EE14_M_create_nodeIJRKSt21piecewise_construct_tSt5tupleIJRS1_EESI_IJEEEEEPSt13_Rb_tree_nodeIS8_EDpOT_(%"class.std::_Rb_tree"* nonnull align 8 dereferenceable(48) %0, %"struct.std::piecewise_construct_t"* nonnull align 1 dereferenceable(1) %1, %"class.std::tuple"* nonnull align 8 dereferenceable(8) %2, %"class.std::tuple.19"* nonnull align 1 dereferenceable(1) %3) local_unnamed_addr #6 comdat align 2 personality i32 (...)* @__gxx_personality_v0 {
  %5 = tail call %"struct.std::_Rb_tree_node.16"* @_ZNSt8_Rb_treeIxSt4pairIKxSt8multisetIS0_IxxESt4lessIS3_ESaIS3_EEESt10_Select1stIS8_ES4_IxESaIS8_EE11_M_get_nodeEv(%"class.std::_Rb_tree"* nonnull align 8 dereferenceable(48) %0) #20
  %6 = getelementptr inbounds %"struct.std::_Rb_tree_node.16", %"struct.std::_Rb_tree_node.16"* %5, i64 0, i32 1
  %7 = getelementptr inbounds %"class.std::tuple", %"class.std::tuple"* %2, i64 0, i32 0, i32 0, i32 0
  %8 = load i64*, i64** %7, align 8, !tbaa !41
  %9 = bitcast %"struct.__gnu_cxx::__aligned_membuf.17"* %6 to i64*
  %10 = load i64, i64* %8, align 8, !tbaa !5
  store i64 %10, i64* %9, align 8, !tbaa !43
  %11 = getelementptr inbounds %"struct.std::_Rb_tree_node.16", %"struct.std::_Rb_tree_node.16"* %5, i64 0, i32 1, i32 0, i64 8
  %12 = getelementptr inbounds %"struct.std::_Rb_tree_node.16", %"struct.std::_Rb_tree_node.16"* %5, i64 0, i32 1, i32 0, i64 16
  %13 = getelementptr inbounds %"struct.std::_Rb_tree_node.16", %"struct.std::_Rb_tree_node.16"* %5, i64 0, i32 1, i32 0, i64 32
  %14 = bitcast i8* %13 to i8**
  tail call void @llvm.memset.p0i8.i64(i8* noundef nonnull align 8 dereferenceable(24) %11, i8 0, i64 24, i1 false) #19
  store i8* %12, i8** %14, align 8, !tbaa !16
  %15 = getelementptr inbounds %"struct.std::_Rb_tree_node.16", %"struct.std::_Rb_tree_node.16"* %5, i64 0, i32 1, i32 0, i64 40
  %16 = bitcast i8* %15 to i8**
  store i8* %12, i8** %16, align 8, !tbaa !17
  %17 = getelementptr inbounds %"struct.std::_Rb_tree_node.16", %"struct.std::_Rb_tree_node.16"* %5, i64 0, i32 1, i32 0, i64 48
  %18 = bitcast i8* %17 to i64*
  store i64 0, i64* %18, align 8, !tbaa !18
  ret %"struct.std::_Rb_tree_node.16"* %5
}

; Function Attrs: minsize optsize sspstrong uwtable
define linkonce_odr dso_local { %"struct.std::_Rb_tree_node_base"*, %"struct.std::_Rb_tree_node_base"* } @_ZNSt8_Rb_treeIxSt4pairIKxSt8multisetIS0_IxxESt4lessIS3_ESaIS3_EEESt10_Select1stIS8_ES4_IxESaIS8_EE29_M_get_insert_hint_unique_posESt23_Rb_tree_const_iteratorIS8_ERS1_(%"class.std::_Rb_tree"* nonnull align 8 dereferenceable(48) %0, %"struct.std::_Rb_tree_node_base"* %1, i64* nonnull align 8 dereferenceable(8) %2) local_unnamed_addr #6 comdat align 2 {
  %4 = getelementptr inbounds %"class.std::_Rb_tree", %"class.std::_Rb_tree"* %0, i64 0, i32 0, i32 0, i32 0, i32 0
  %5 = getelementptr inbounds i8, i8* %4, i64 8
  %6 = bitcast i8* %5 to %"struct.std::_Rb_tree_node_base"*
  %7 = icmp eq %"struct.std::_Rb_tree_node_base"* %6, %1
  br i1 %7, label %8, label %26

8:                                                ; preds = %3
  %9 = getelementptr inbounds i8, i8* %4, i64 40
  %10 = bitcast i8* %9 to i64*
  %11 = load i64, i64* %10, align 8, !tbaa !18
  %12 = icmp eq i64 %11, 0
  br i1 %12, label %22, label %13

13:                                               ; preds = %8
  %14 = getelementptr inbounds i8, i8* %4, i64 32
  %15 = bitcast i8* %14 to %"struct.std::_Rb_tree_node_base"**
  %16 = load %"struct.std::_Rb_tree_node_base"*, %"struct.std::_Rb_tree_node_base"** %15, align 8, !tbaa !30
  %17 = getelementptr inbounds %"struct.std::_Rb_tree_node_base", %"struct.std::_Rb_tree_node_base"* %16, i64 1
  %18 = bitcast %"struct.std::_Rb_tree_node_base"* %17 to i64*
  %19 = load i64, i64* %18, align 8, !tbaa !5
  %20 = load i64, i64* %2, align 8, !tbaa !5
  %21 = icmp slt i64 %19, %20
  br i1 %21, label %78, label %22

22:                                               ; preds = %13, %8
  %23 = tail call { %"struct.std::_Rb_tree_node_base"*, %"struct.std::_Rb_tree_node_base"* } @_ZNSt8_Rb_treeIxSt4pairIKxSt8multisetIS0_IxxESt4lessIS3_ESaIS3_EEESt10_Select1stIS8_ES4_IxESaIS8_EE24_M_get_insert_unique_posERS1_(%"class.std::_Rb_tree"* nonnull align 8 dereferenceable(48) %0, i64* nonnull align 8 dereferenceable(8) %2) #20
  %24 = extractvalue { %"struct.std::_Rb_tree_node_base"*, %"struct.std::_Rb_tree_node_base"* } %23, 0
  %25 = extractvalue { %"struct.std::_Rb_tree_node_base"*, %"struct.std::_Rb_tree_node_base"* } %23, 1
  br label %78

26:                                               ; preds = %3
  %27 = getelementptr inbounds %"struct.std::_Rb_tree_node_base", %"struct.std::_Rb_tree_node_base"* %1, i64 1
  %28 = bitcast %"struct.std::_Rb_tree_node_base"* %27 to i64*
  %29 = load i64, i64* %2, align 8, !tbaa !5
  %30 = load i64, i64* %28, align 8, !tbaa !5
  %31 = icmp slt i64 %29, %30
  br i1 %31, label %32, label %54

32:                                               ; preds = %26
  %33 = getelementptr inbounds i8, i8* %4, i64 24
  %34 = bitcast i8* %33 to %"struct.std::_Rb_tree_node_base"**
  %35 = load %"struct.std::_Rb_tree_node_base"*, %"struct.std::_Rb_tree_node_base"** %34, align 8, !tbaa !30
  %36 = icmp eq %"struct.std::_Rb_tree_node_base"* %35, %1
  br i1 %36, label %78, label %37

37:                                               ; preds = %32
  %38 = tail call %"struct.std::_Rb_tree_node_base"* @_ZSt18_Rb_tree_decrementPSt18_Rb_tree_node_base(%"struct.std::_Rb_tree_node_base"* nonnull %1) #22
  %39 = getelementptr inbounds %"struct.std::_Rb_tree_node_base", %"struct.std::_Rb_tree_node_base"* %38, i64 1
  %40 = bitcast %"struct.std::_Rb_tree_node_base"* %39 to i64*
  %41 = load i64, i64* %40, align 8, !tbaa !5
  %42 = icmp slt i64 %41, %29
  br i1 %42, label %43, label %50

43:                                               ; preds = %37
  %44 = getelementptr inbounds %"struct.std::_Rb_tree_node_base", %"struct.std::_Rb_tree_node_base"* %38, i64 0, i32 3
  %45 = bitcast %"struct.std::_Rb_tree_node_base"** %44 to %"struct.std::_Rb_tree_node.16"**
  %46 = load %"struct.std::_Rb_tree_node.16"*, %"struct.std::_Rb_tree_node.16"** %45, align 8, !tbaa !35
  %47 = icmp eq %"struct.std::_Rb_tree_node.16"* %46, null
  %48 = select i1 %47, %"struct.std::_Rb_tree_node_base"* null, %"struct.std::_Rb_tree_node_base"* %1
  %49 = select i1 %47, %"struct.std::_Rb_tree_node_base"* %38, %"struct.std::_Rb_tree_node_base"* %1
  br label %78

50:                                               ; preds = %37
  %51 = tail call { %"struct.std::_Rb_tree_node_base"*, %"struct.std::_Rb_tree_node_base"* } @_ZNSt8_Rb_treeIxSt4pairIKxSt8multisetIS0_IxxESt4lessIS3_ESaIS3_EEESt10_Select1stIS8_ES4_IxESaIS8_EE24_M_get_insert_unique_posERS1_(%"class.std::_Rb_tree"* nonnull align 8 dereferenceable(48) %0, i64* nonnull align 8 dereferenceable(8) %2) #20
  %52 = extractvalue { %"struct.std::_Rb_tree_node_base"*, %"struct.std::_Rb_tree_node_base"* } %51, 0
  %53 = extractvalue { %"struct.std::_Rb_tree_node_base"*, %"struct.std::_Rb_tree_node_base"* } %51, 1
  br label %78

54:                                               ; preds = %26
  %55 = icmp slt i64 %30, %29
  br i1 %55, label %56, label %78

56:                                               ; preds = %54
  %57 = getelementptr inbounds i8, i8* %4, i64 32
  %58 = bitcast i8* %57 to %"struct.std::_Rb_tree_node_base"**
  %59 = load %"struct.std::_Rb_tree_node_base"*, %"struct.std::_Rb_tree_node_base"** %58, align 8, !tbaa !30
  %60 = icmp eq %"struct.std::_Rb_tree_node_base"* %59, %1
  br i1 %60, label %78, label %61

61:                                               ; preds = %56
  %62 = tail call %"struct.std::_Rb_tree_node_base"* @_ZSt18_Rb_tree_incrementPSt18_Rb_tree_node_base(%"struct.std::_Rb_tree_node_base"* nonnull %1) #22
  %63 = getelementptr inbounds %"struct.std::_Rb_tree_node_base", %"struct.std::_Rb_tree_node_base"* %62, i64 1
  %64 = bitcast %"struct.std::_Rb_tree_node_base"* %63 to i64*
  %65 = load i64, i64* %64, align 8, !tbaa !5
  %66 = icmp slt i64 %29, %65
  br i1 %66, label %67, label %74

67:                                               ; preds = %61
  %68 = getelementptr inbounds %"struct.std::_Rb_tree_node_base", %"struct.std::_Rb_tree_node_base"* %1, i64 0, i32 3
  %69 = bitcast %"struct.std::_Rb_tree_node_base"** %68 to %"struct.std::_Rb_tree_node.16"**
  %70 = load %"struct.std::_Rb_tree_node.16"*, %"struct.std::_Rb_tree_node.16"** %69, align 8, !tbaa !35
  %71 = icmp eq %"struct.std::_Rb_tree_node.16"* %70, null
  %72 = select i1 %71, %"struct.std::_Rb_tree_node_base"* null, %"struct.std::_Rb_tree_node_base"* %62
  %73 = select i1 %71, %"struct.std::_Rb_tree_node_base"* %1, %"struct.std::_Rb_tree_node_base"* %62
  br label %78

74:                                               ; preds = %61
  %75 = tail call { %"struct.std::_Rb_tree_node_base"*, %"struct.std::_Rb_tree_node_base"* } @_ZNSt8_Rb_treeIxSt4pairIKxSt8multisetIS0_IxxESt4lessIS3_ESaIS3_EEESt10_Select1stIS8_ES4_IxESaIS8_EE24_M_get_insert_unique_posERS1_(%"class.std::_Rb_tree"* nonnull align 8 dereferenceable(48) %0, i64* nonnull align 8 dereferenceable(8) %2) #20
  %76 = extractvalue { %"struct.std::_Rb_tree_node_base"*, %"struct.std::_Rb_tree_node_base"* } %75, 0
  %77 = extractvalue { %"struct.std::_Rb_tree_node_base"*, %"struct.std::_Rb_tree_node_base"* } %75, 1
  br label %78

78:                                               ; preds = %67, %43, %54, %74, %56, %50, %32, %13, %22
  %79 = phi %"struct.std::_Rb_tree_node_base"* [ %24, %22 ], [ null, %13 ], [ %52, %50 ], [ %1, %32 ], [ %76, %74 ], [ null, %56 ], [ %1, %54 ], [ %48, %43 ], [ %72, %67 ]
  %80 = phi %"struct.std::_Rb_tree_node_base"* [ %25, %22 ], [ %16, %13 ], [ %53, %50 ], [ %1, %32 ], [ %77, %74 ], [ %1, %56 ], [ null, %54 ], [ %49, %43 ], [ %73, %67 ]
  %81 = insertvalue { %"struct.std::_Rb_tree_node_base"*, %"struct.std::_Rb_tree_node_base"* } undef, %"struct.std::_Rb_tree_node_base"* %79, 0
  %82 = insertvalue { %"struct.std::_Rb_tree_node_base"*, %"struct.std::_Rb_tree_node_base"* } %81, %"struct.std::_Rb_tree_node_base"* %80, 1
  ret { %"struct.std::_Rb_tree_node_base"*, %"struct.std::_Rb_tree_node_base"* } %82
}

; Function Attrs: minsize optsize sspstrong uwtable
define linkonce_odr dso_local %"struct.std::_Rb_tree_node_base"* @_ZNSt8_Rb_treeIxSt4pairIKxSt8multisetIS0_IxxESt4lessIS3_ESaIS3_EEESt10_Select1stIS8_ES4_IxESaIS8_EE14_M_insert_nodeEPSt18_Rb_tree_node_baseSF_PSt13_Rb_tree_nodeIS8_E(%"class.std::_Rb_tree"* nonnull align 8 dereferenceable(48) %0, %"struct.std::_Rb_tree_node_base"* %1, %"struct.std::_Rb_tree_node_base"* %2, %"struct.std::_Rb_tree_node.16"* %3) local_unnamed_addr #6 comdat align 2 {
  %5 = icmp eq %"struct.std::_Rb_tree_node_base"* %1, null
  br i1 %5, label %6, label %19

6:                                                ; preds = %4
  %7 = getelementptr inbounds %"class.std::_Rb_tree", %"class.std::_Rb_tree"* %0, i64 0, i32 0, i32 0, i32 0, i32 0
  %8 = getelementptr inbounds i8, i8* %7, i64 8
  %9 = bitcast i8* %8 to %"struct.std::_Rb_tree_node_base"*
  %10 = icmp eq %"struct.std::_Rb_tree_node_base"* %9, %2
  br i1 %10, label %19, label %11

11:                                               ; preds = %6
  %12 = getelementptr inbounds %"struct.std::_Rb_tree_node.16", %"struct.std::_Rb_tree_node.16"* %3, i64 0, i32 1
  %13 = bitcast %"struct.__gnu_cxx::__aligned_membuf.17"* %12 to i64*
  %14 = getelementptr inbounds %"struct.std::_Rb_tree_node_base", %"struct.std::_Rb_tree_node_base"* %2, i64 1
  %15 = bitcast %"struct.std::_Rb_tree_node_base"* %14 to i64*
  %16 = load i64, i64* %13, align 8, !tbaa !5
  %17 = load i64, i64* %15, align 8, !tbaa !5
  %18 = icmp slt i64 %16, %17
  br label %19

19:                                               ; preds = %4, %11, %6
  %20 = phi i1 [ true, %6 ], [ %18, %11 ], [ true, %4 ]
  %21 = getelementptr %"struct.std::_Rb_tree_node.16", %"struct.std::_Rb_tree_node.16"* %3, i64 0, i32 0
  %22 = getelementptr inbounds %"class.std::_Rb_tree", %"class.std::_Rb_tree"* %0, i64 0, i32 0, i32 0, i32 0, i32 0
  %23 = getelementptr inbounds i8, i8* %22, i64 8
  %24 = bitcast i8* %23 to %"struct.std::_Rb_tree_node_base"*
  tail call void @_ZSt29_Rb_tree_insert_and_rebalancebPSt18_Rb_tree_node_baseS0_RS_(i1 zeroext %20, %"struct.std::_Rb_tree_node_base"* %21, %"struct.std::_Rb_tree_node_base"* %2, %"struct.std::_Rb_tree_node_base"* nonnull align 8 dereferenceable(32) %24) #21
  %25 = getelementptr inbounds i8, i8* %22, i64 40
  %26 = bitcast i8* %25 to i64*
  %27 = load i64, i64* %26, align 8, !tbaa !18
  %28 = add i64 %27, 1
  store i64 %28, i64* %26, align 8, !tbaa !18
  ret %"struct.std::_Rb_tree_node_base"* %21
}

declare void @__cxa_rethrow() local_unnamed_addr

declare void @__cxa_end_catch() local_unnamed_addr

; Function Attrs: minsize mustprogress optsize sspstrong uwtable
define linkonce_odr dso_local %"struct.std::_Rb_tree_node.16"* @_ZNSt8_Rb_treeIxSt4pairIKxSt8multisetIS0_IxxESt4lessIS3_ESaIS3_EEESt10_Select1stIS8_ES4_IxESaIS8_EE11_M_get_nodeEv(%"class.std::_Rb_tree"* nonnull align 8 dereferenceable(48) %0) local_unnamed_addr #12 comdat align 2 {
  %2 = bitcast %"class.std::_Rb_tree"* %0 to %"class.std::allocator"*
  %3 = tail call %"struct.std::_Rb_tree_node.16"* @_ZNSt16allocator_traitsISaISt13_Rb_tree_nodeISt4pairIKxSt8multisetIS1_IxxESt4lessIS4_ESaIS4_EEEEEE8allocateERSB_m(%"class.std::allocator"* nonnull align 1 dereferenceable(1) %2, i64 1) #20
  ret %"struct.std::_Rb_tree_node.16"* %3
}

; Function Attrs: minsize mustprogress optsize sspstrong uwtable
define linkonce_odr dso_local %"struct.std::_Rb_tree_node.16"* @_ZNSt16allocator_traitsISaISt13_Rb_tree_nodeISt4pairIKxSt8multisetIS1_IxxESt4lessIS4_ESaIS4_EEEEEE8allocateERSB_m(%"class.std::allocator"* nonnull align 1 dereferenceable(1) %0, i64 %1) local_unnamed_addr #12 comdat align 2 {
  %3 = bitcast %"class.std::allocator"* %0 to %"class.__gnu_cxx::new_allocator"*
  %4 = tail call %"struct.std::_Rb_tree_node.16"* @_ZN9__gnu_cxx13new_allocatorISt13_Rb_tree_nodeISt4pairIKxSt8multisetIS2_IxxESt4lessIS5_ESaIS5_EEEEE8allocateEmPKv(%"class.__gnu_cxx::new_allocator"* nonnull align 1 dereferenceable(1) %3, i64 %1, i8* null) #20
  ret %"struct.std::_Rb_tree_node.16"* %4
}

; Function Attrs: minsize mustprogress optsize sspstrong uwtable
define linkonce_odr dso_local %"struct.std::_Rb_tree_node.16"* @_ZN9__gnu_cxx13new_allocatorISt13_Rb_tree_nodeISt4pairIKxSt8multisetIS2_IxxESt4lessIS5_ESaIS5_EEEEE8allocateEmPKv(%"class.__gnu_cxx::new_allocator"* nonnull align 1 dereferenceable(1) %0, i64 %1, i8* %2) local_unnamed_addr #12 comdat align 2 {
  %4 = icmp ugt i64 %1, 104811045873349725
  br i1 %4, label %5, label %9, !prof !48

5:                                                ; preds = %3
  %6 = icmp ugt i64 %1, 209622091746699450
  br i1 %6, label %7, label %8

7:                                                ; preds = %5
  tail call void @_ZSt28__throw_bad_array_new_lengthv() #25
  unreachable

8:                                                ; preds = %5
  tail call void @_ZSt17__throw_bad_allocv() #25
  unreachable

9:                                                ; preds = %3
  %10 = mul nuw nsw i64 %1, 88
  %11 = tail call noalias nonnull i8* @_Znwm(i64 %10) #26
  %12 = bitcast i8* %11 to %"struct.std::_Rb_tree_node.16"*
  ret %"struct.std::_Rb_tree_node.16"* %12
}

; Function Attrs: minsize noreturn optsize
declare void @_ZSt28__throw_bad_array_new_lengthv() local_unnamed_addr #15

; Function Attrs: minsize noreturn optsize
declare void @_ZSt17__throw_bad_allocv() local_unnamed_addr #15

; Function Attrs: minsize nobuiltin optsize allocsize(0)
declare nonnull i8* @_Znwm(i64) local_unnamed_addr #16

; Function Attrs: minsize optsize sspstrong uwtable
define linkonce_odr dso_local { %"struct.std::_Rb_tree_node_base"*, %"struct.std::_Rb_tree_node_base"* } @_ZNSt8_Rb_treeIxSt4pairIKxSt8multisetIS0_IxxESt4lessIS3_ESaIS3_EEESt10_Select1stIS8_ES4_IxESaIS8_EE24_M_get_insert_unique_posERS1_(%"class.std::_Rb_tree"* nonnull align 8 dereferenceable(48) %0, i64* nonnull align 8 dereferenceable(8) %1) local_unnamed_addr #6 comdat align 2 {
  %3 = getelementptr inbounds %"class.std::_Rb_tree", %"class.std::_Rb_tree"* %0, i64 0, i32 0, i32 0, i32 0, i32 0
  %4 = getelementptr inbounds i8, i8* %3, i64 16
  %5 = bitcast i8* %4 to %"struct.std::_Rb_tree_node.16"**
  %6 = getelementptr inbounds i8, i8* %3, i64 8
  %7 = bitcast i8* %6 to %"struct.std::_Rb_tree_node_base"*
  %8 = load i64, i64* %1, align 8
  br label %9

9:                                                ; preds = %15, %2
  %10 = phi %"struct.std::_Rb_tree_node.16"** [ %5, %2 ], [ %24, %15 ]
  %11 = phi %"struct.std::_Rb_tree_node_base"* [ %7, %2 ], [ %16, %15 ]
  %12 = phi i1 [ true, %2 ], [ %20, %15 ]
  %13 = load %"struct.std::_Rb_tree_node.16"*, %"struct.std::_Rb_tree_node.16"** %10, align 8, !tbaa !30
  %14 = icmp eq %"struct.std::_Rb_tree_node.16"* %13, null
  br i1 %14, label %25, label %15

15:                                               ; preds = %9
  %16 = getelementptr %"struct.std::_Rb_tree_node.16", %"struct.std::_Rb_tree_node.16"* %13, i64 0, i32 0
  %17 = getelementptr inbounds %"struct.std::_Rb_tree_node.16", %"struct.std::_Rb_tree_node.16"* %13, i64 0, i32 1
  %18 = bitcast %"struct.__gnu_cxx::__aligned_membuf.17"* %17 to i64*
  %19 = load i64, i64* %18, align 8, !tbaa !5
  %20 = icmp slt i64 %8, %19
  %21 = getelementptr inbounds %"struct.std::_Rb_tree_node.16", %"struct.std::_Rb_tree_node.16"* %13, i64 0, i32 0, i32 2
  %22 = getelementptr inbounds %"struct.std::_Rb_tree_node.16", %"struct.std::_Rb_tree_node.16"* %13, i64 0, i32 0, i32 3
  %23 = select i1 %20, %"struct.std::_Rb_tree_node_base"** %21, %"struct.std::_Rb_tree_node_base"** %22
  %24 = bitcast %"struct.std::_Rb_tree_node_base"** %23 to %"struct.std::_Rb_tree_node.16"**
  br label %9, !llvm.loop !49

25:                                               ; preds = %9
  br i1 %12, label %26, label %33

26:                                               ; preds = %25
  %27 = getelementptr inbounds i8, i8* %3, i64 24
  %28 = bitcast i8* %27 to %"struct.std::_Rb_tree_node_base"**
  %29 = load %"struct.std::_Rb_tree_node_base"*, %"struct.std::_Rb_tree_node_base"** %28, align 8, !tbaa !16
  %30 = icmp eq %"struct.std::_Rb_tree_node_base"* %11, %29
  br i1 %30, label %41, label %31

31:                                               ; preds = %26
  %32 = tail call %"struct.std::_Rb_tree_node_base"* @_ZSt18_Rb_tree_decrementPSt18_Rb_tree_node_base(%"struct.std::_Rb_tree_node_base"* %11) #22
  br label %33

33:                                               ; preds = %31, %25
  %34 = phi %"struct.std::_Rb_tree_node_base"* [ %32, %31 ], [ %11, %25 ]
  %35 = getelementptr inbounds %"struct.std::_Rb_tree_node_base", %"struct.std::_Rb_tree_node_base"* %34, i64 1
  %36 = bitcast %"struct.std::_Rb_tree_node_base"* %35 to i64*
  %37 = load i64, i64* %36, align 8, !tbaa !5
  %38 = icmp slt i64 %37, %8
  %39 = select i1 %38, %"struct.std::_Rb_tree_node_base"* null, %"struct.std::_Rb_tree_node_base"* %34
  %40 = select i1 %38, %"struct.std::_Rb_tree_node_base"* %11, %"struct.std::_Rb_tree_node_base"* null
  br label %41

41:                                               ; preds = %26, %33
  %42 = phi %"struct.std::_Rb_tree_node_base"* [ %39, %33 ], [ null, %26 ]
  %43 = phi %"struct.std::_Rb_tree_node_base"* [ %40, %33 ], [ %11, %26 ]
  %44 = insertvalue { %"struct.std::_Rb_tree_node_base"*, %"struct.std::_Rb_tree_node_base"* } undef, %"struct.std::_Rb_tree_node_base"* %42, 0
  %45 = insertvalue { %"struct.std::_Rb_tree_node_base"*, %"struct.std::_Rb_tree_node_base"* } %44, %"struct.std::_Rb_tree_node_base"* %43, 1
  ret { %"struct.std::_Rb_tree_node_base"*, %"struct.std::_Rb_tree_node_base"* } %45
}

; Function Attrs: minsize mustprogress nofree nounwind optsize readonly willreturn
declare %"struct.std::_Rb_tree_node_base"* @_ZSt18_Rb_tree_decrementPSt18_Rb_tree_node_base(%"struct.std::_Rb_tree_node_base"*) local_unnamed_addr #17

; Function Attrs: minsize mustprogress nofree nounwind optsize readonly willreturn
declare %"struct.std::_Rb_tree_node_base"* @_ZSt18_Rb_tree_incrementPSt18_Rb_tree_node_base(%"struct.std::_Rb_tree_node_base"*) local_unnamed_addr #17

; Function Attrs: minsize nounwind optsize
declare void @_ZSt29_Rb_tree_insert_and_rebalancebPSt18_Rb_tree_node_baseS0_RS_(i1 zeroext, %"struct.std::_Rb_tree_node_base"*, %"struct.std::_Rb_tree_node_base"*, %"struct.std::_Rb_tree_node_base"* nonnull align 8 dereferenceable(32)) local_unnamed_addr #1

; Function Attrs: minsize mustprogress optsize sspstrong uwtable
define linkonce_odr dso_local %"struct.std::_Rb_tree_node_base"* @_ZNSt8_Rb_treeISt4pairIxxES1_St9_IdentityIS1_ESt4lessIS1_ESaIS1_EE11upper_boundERKS1_(%"class.std::_Rb_tree.3"* nonnull align 8 dereferenceable(48) %0, %"struct.std::pair"* nonnull align 8 dereferenceable(16) %1) local_unnamed_addr #12 comdat align 2 {
  %3 = getelementptr inbounds %"class.std::_Rb_tree.3", %"class.std::_Rb_tree.3"* %0, i64 0, i32 0, i32 0, i32 0, i32 0
  %4 = getelementptr inbounds i8, i8* %3, i64 16
  %5 = bitcast i8* %4 to %"struct.std::_Rb_tree_node"**
  %6 = load %"struct.std::_Rb_tree_node"*, %"struct.std::_Rb_tree_node"** %5, align 8, !tbaa !15
  %7 = getelementptr inbounds i8, i8* %3, i64 8
  %8 = bitcast i8* %7 to %"struct.std::_Rb_tree_node_base"*
  %9 = tail call %"struct.std::_Rb_tree_node_base"* @_ZNSt8_Rb_treeISt4pairIxxES1_St9_IdentityIS1_ESt4lessIS1_ESaIS1_EE14_M_upper_boundEPSt13_Rb_tree_nodeIS1_EPSt18_Rb_tree_node_baseRKS1_(%"class.std::_Rb_tree.3"* nonnull align 8 dereferenceable(48) %0, %"struct.std::_Rb_tree_node"* %6, %"struct.std::_Rb_tree_node_base"* nonnull %8, %"struct.std::pair"* nonnull align 8 dereferenceable(16) %1) #20
  ret %"struct.std::_Rb_tree_node_base"* %9
}

; Function Attrs: minsize optsize sspstrong uwtable
define linkonce_odr dso_local %"struct.std::_Rb_tree_node_base"* @_ZNSt8_Rb_treeISt4pairIxxES1_St9_IdentityIS1_ESt4lessIS1_ESaIS1_EE14_M_upper_boundEPSt13_Rb_tree_nodeIS1_EPSt18_Rb_tree_node_baseRKS1_(%"class.std::_Rb_tree.3"* nonnull align 8 dereferenceable(48) %0, %"struct.std::_Rb_tree_node"* %1, %"struct.std::_Rb_tree_node_base"* %2, %"struct.std::pair"* nonnull align 8 dereferenceable(16) %3) local_unnamed_addr #6 comdat align 2 {
  br label %5

5:                                                ; preds = %9, %4
  %6 = phi %"struct.std::_Rb_tree_node_base"* [ %2, %4 ], [ %16, %9 ]
  %7 = phi %"struct.std::_Rb_tree_node"* [ %1, %4 ], [ %19, %9 ]
  %8 = icmp eq %"struct.std::_Rb_tree_node"* %7, null
  br i1 %8, label %20, label %9

9:                                                ; preds = %5
  %10 = getelementptr inbounds %"struct.std::_Rb_tree_node", %"struct.std::_Rb_tree_node"* %7, i64 0, i32 1
  %11 = bitcast %"struct.__gnu_cxx::__aligned_membuf"* %10 to %"struct.std::pair"*
  %12 = tail call zeroext i1 @_ZStltIxxEbRKSt4pairIT_T0_ES5_(%"struct.std::pair"* nonnull align 8 dereferenceable(16) %3, %"struct.std::pair"* nonnull align 8 dereferenceable(16) %11) #20
  %13 = getelementptr %"struct.std::_Rb_tree_node", %"struct.std::_Rb_tree_node"* %7, i64 0, i32 0
  %14 = getelementptr inbounds %"struct.std::_Rb_tree_node", %"struct.std::_Rb_tree_node"* %7, i64 0, i32 0, i32 2
  %15 = getelementptr inbounds %"struct.std::_Rb_tree_node", %"struct.std::_Rb_tree_node"* %7, i64 0, i32 0, i32 3
  %16 = select i1 %12, %"struct.std::_Rb_tree_node_base"* %13, %"struct.std::_Rb_tree_node_base"* %6
  %17 = select i1 %12, %"struct.std::_Rb_tree_node_base"** %14, %"struct.std::_Rb_tree_node_base"** %15
  %18 = bitcast %"struct.std::_Rb_tree_node_base"** %17 to %"struct.std::_Rb_tree_node"**
  %19 = load %"struct.std::_Rb_tree_node"*, %"struct.std::_Rb_tree_node"** %18, align 8, !tbaa !30
  br label %5, !llvm.loop !50

20:                                               ; preds = %5
  ret %"struct.std::_Rb_tree_node_base"* %6
}

; Function Attrs: inlinehint minsize mustprogress nounwind optsize sspstrong uwtable
define linkonce_odr dso_local zeroext i1 @_ZStltIxxEbRKSt4pairIT_T0_ES5_(%"struct.std::pair"* nonnull align 8 dereferenceable(16) %0, %"struct.std::pair"* nonnull align 8 dereferenceable(16) %1) local_unnamed_addr #11 comdat {
  %3 = getelementptr inbounds %"struct.std::pair", %"struct.std::pair"* %0, i64 0, i32 0
  %4 = load i64, i64* %3, align 8, !tbaa !19
  %5 = getelementptr inbounds %"struct.std::pair", %"struct.std::pair"* %1, i64 0, i32 0
  %6 = load i64, i64* %5, align 8, !tbaa !19
  %7 = icmp slt i64 %4, %6
  br i1 %7, label %16, label %8

8:                                                ; preds = %2
  %9 = icmp slt i64 %6, %4
  br i1 %9, label %16, label %10

10:                                               ; preds = %8
  %11 = getelementptr inbounds %"struct.std::pair", %"struct.std::pair"* %0, i64 0, i32 1
  %12 = load i64, i64* %11, align 8, !tbaa !21
  %13 = getelementptr inbounds %"struct.std::pair", %"struct.std::pair"* %1, i64 0, i32 1
  %14 = load i64, i64* %13, align 8, !tbaa !21
  %15 = icmp slt i64 %12, %14
  br label %16

16:                                               ; preds = %8, %10, %2
  %17 = phi i1 [ true, %2 ], [ false, %8 ], [ %15, %10 ]
  ret i1 %17
}

; Function Attrs: inlinehint minsize mustprogress nounwind optsize sspstrong uwtable
define linkonce_odr dso_local void @_ZSt9__advanceISt23_Rb_tree_const_iteratorISt4pairIxxEElEvRT_T0_St26bidirectional_iterator_tag(%"struct.std::_Rb_tree_const_iterator"* nonnull align 8 dereferenceable(8) %0, i64 %1) local_unnamed_addr #11 comdat {
  %3 = icmp sgt i64 %1, 0
  br i1 %3, label %4, label %10

4:                                                ; preds = %2, %7
  %5 = phi i64 [ %8, %7 ], [ %1, %2 ]
  %6 = icmp eq i64 %5, 0
  br i1 %6, label %16, label %7

7:                                                ; preds = %4
  %8 = add nsw i64 %5, -1
  %9 = tail call nonnull align 8 dereferenceable(8) %"struct.std::_Rb_tree_const_iterator"* @_ZNSt23_Rb_tree_const_iteratorISt4pairIxxEEppEv(%"struct.std::_Rb_tree_const_iterator"* nonnull align 8 dereferenceable(8) %0) #21
  br label %4, !llvm.loop !51

10:                                               ; preds = %2, %13
  %11 = phi i64 [ %14, %13 ], [ %1, %2 ]
  %12 = icmp eq i64 %11, 0
  br i1 %12, label %16, label %13

13:                                               ; preds = %10
  %14 = add nsw i64 %11, 1
  %15 = tail call nonnull align 8 dereferenceable(8) %"struct.std::_Rb_tree_const_iterator"* @_ZNSt23_Rb_tree_const_iteratorISt4pairIxxEEmmEv(%"struct.std::_Rb_tree_const_iterator"* nonnull align 8 dereferenceable(8) %0) #21
  br label %10, !llvm.loop !52

16:                                               ; preds = %10, %4
  ret void
}

; Function Attrs: minsize mustprogress nounwind optsize sspstrong uwtable
define linkonce_odr dso_local nonnull align 8 dereferenceable(8) %"struct.std::_Rb_tree_const_iterator"* @_ZNSt23_Rb_tree_const_iteratorISt4pairIxxEEmmEv(%"struct.std::_Rb_tree_const_iterator"* nonnull align 8 dereferenceable(8) %0) local_unnamed_addr #9 comdat align 2 {
  %2 = getelementptr inbounds %"struct.std::_Rb_tree_const_iterator", %"struct.std::_Rb_tree_const_iterator"* %0, i64 0, i32 0
  %3 = load %"struct.std::_Rb_tree_node_base"*, %"struct.std::_Rb_tree_node_base"** %2, align 8, !tbaa !33
  %4 = tail call %"struct.std::_Rb_tree_node_base"* @_ZSt18_Rb_tree_decrementPKSt18_Rb_tree_node_base(%"struct.std::_Rb_tree_node_base"* %3) #22
  store %"struct.std::_Rb_tree_node_base"* %4, %"struct.std::_Rb_tree_node_base"** %2, align 8, !tbaa !33
  ret %"struct.std::_Rb_tree_const_iterator"* %0
}

; Function Attrs: minsize mustprogress nofree nounwind optsize readonly willreturn
declare %"struct.std::_Rb_tree_node_base"* @_ZSt18_Rb_tree_decrementPKSt18_Rb_tree_node_base(%"struct.std::_Rb_tree_node_base"*) local_unnamed_addr #17

; Function Attrs: minsize optsize sspstrong uwtable
define linkonce_odr dso_local void @_ZNSt6vectorISt4pairIxxESaIS1_EE17_M_realloc_insertIJRKS1_EEEvN9__gnu_cxx17__normal_iteratorIPS1_S3_EEDpOT_(%"class.std::vector"* nonnull align 8 dereferenceable(24) %0, %"struct.std::pair"* %1, %"struct.std::pair"* nonnull align 8 dereferenceable(16) %2) local_unnamed_addr #6 comdat align 2 {
  %4 = tail call i64 @_ZNKSt6vectorISt4pairIxxESaIS1_EE12_M_check_lenEmPKc(%"class.std::vector"* nonnull align 8 dereferenceable(24) %0, i64 1, i8* getelementptr inbounds ([26 x i8], [26 x i8]* @.str, i64 0, i64 0)) #20
  %5 = getelementptr inbounds %"class.std::vector", %"class.std::vector"* %0, i64 0, i32 0
  %6 = getelementptr inbounds %"class.std::vector", %"class.std::vector"* %0, i64 0, i32 0, i32 0, i32 0, i32 0
  %7 = load %"struct.std::pair"*, %"struct.std::pair"** %6, align 8, !tbaa !26
  %8 = getelementptr inbounds %"class.std::vector", %"class.std::vector"* %0, i64 0, i32 0, i32 0, i32 0, i32 1
  %9 = load %"struct.std::pair"*, %"struct.std::pair"** %8, align 8, !tbaa !24
  %10 = ptrtoint %"struct.std::pair"* %1 to i64
  %11 = ptrtoint %"struct.std::pair"* %7 to i64
  %12 = sub i64 %10, %11
  %13 = ashr exact i64 %12, 4
  %14 = tail call %"struct.std::pair"* @_ZNSt12_Vector_baseISt4pairIxxESaIS1_EE11_M_allocateEm(%"struct.std::_Vector_base"* nonnull align 8 dereferenceable(24) %5, i64 %4) #20
  %15 = getelementptr inbounds %"struct.std::pair", %"struct.std::pair"* %14, i64 %13
  %16 = bitcast %"struct.std::pair"* %15 to i8*
  %17 = bitcast %"struct.std::pair"* %2 to i8*
  tail call void @llvm.memcpy.p0i8.p0i8.i64(i8* noundef nonnull align 8 dereferenceable(16) %16, i8* noundef nonnull align 8 dereferenceable(16) %17, i64 16, i1 false) #19
  br label %18

18:                                               ; preds = %22, %3
  %19 = phi %"struct.std::pair"* [ %7, %3 ], [ %25, %22 ]
  %20 = phi %"struct.std::pair"* [ %14, %3 ], [ %26, %22 ]
  %21 = icmp eq %"struct.std::pair"* %19, %1
  br i1 %21, label %27, label %22

22:                                               ; preds = %18
  %23 = bitcast %"struct.std::pair"* %20 to i8*
  %24 = bitcast %"struct.std::pair"* %19 to i8*
  tail call void @llvm.memcpy.p0i8.p0i8.i64(i8* noundef nonnull align 8 dereferenceable(16) %23, i8* noundef nonnull align 8 dereferenceable(16) %24, i64 16, i1 false) #19, !alias.scope !53
  %25 = getelementptr inbounds %"struct.std::pair", %"struct.std::pair"* %19, i64 1
  %26 = getelementptr inbounds %"struct.std::pair", %"struct.std::pair"* %20, i64 1
  br label %18, !llvm.loop !57

27:                                               ; preds = %18, %32
  %28 = phi %"struct.std::pair"* [ %35, %32 ], [ %1, %18 ]
  %29 = phi %"struct.std::pair"* [ %30, %32 ], [ %20, %18 ]
  %30 = getelementptr inbounds %"struct.std::pair", %"struct.std::pair"* %29, i64 1
  %31 = icmp eq %"struct.std::pair"* %28, %9
  br i1 %31, label %36, label %32

32:                                               ; preds = %27
  %33 = bitcast %"struct.std::pair"* %30 to i8*
  %34 = bitcast %"struct.std::pair"* %28 to i8*
  tail call void @llvm.memcpy.p0i8.p0i8.i64(i8* noundef nonnull align 8 dereferenceable(16) %33, i8* noundef nonnull align 8 dereferenceable(16) %34, i64 16, i1 false) #19, !alias.scope !58
  %35 = getelementptr inbounds %"struct.std::pair", %"struct.std::pair"* %28, i64 1
  br label %27, !llvm.loop !57

36:                                               ; preds = %27
  %37 = icmp eq %"struct.std::pair"* %7, null
  br i1 %37, label %40, label %38

38:                                               ; preds = %36
  %39 = bitcast %"struct.std::pair"* %7 to i8*
  tail call void @_ZdlPv(i8* nonnull %39) #21
  br label %40

40:                                               ; preds = %36, %38
  %41 = getelementptr inbounds %"class.std::vector", %"class.std::vector"* %0, i64 0, i32 0, i32 0, i32 0, i32 2
  store %"struct.std::pair"* %14, %"struct.std::pair"** %6, align 8, !tbaa !26
  store %"struct.std::pair"* %30, %"struct.std::pair"** %8, align 8, !tbaa !24
  %42 = getelementptr inbounds %"struct.std::pair", %"struct.std::pair"* %14, i64 %4
  store %"struct.std::pair"* %42, %"struct.std::pair"** %41, align 8, !tbaa !32
  ret void
}

; Function Attrs: minsize mustprogress optsize sspstrong uwtable
define linkonce_odr dso_local i64 @_ZNKSt6vectorISt4pairIxxESaIS1_EE12_M_check_lenEmPKc(%"class.std::vector"* nonnull align 8 dereferenceable(24) %0, i64 %1, i8* %2) local_unnamed_addr #12 comdat align 2 personality i32 (...)* @__gxx_personality_v0 {
  %4 = getelementptr inbounds %"class.std::vector", %"class.std::vector"* %0, i64 0, i32 0, i32 0, i32 0, i32 1
  %5 = load %"struct.std::pair"*, %"struct.std::pair"** %4, align 8, !tbaa !24
  %6 = getelementptr inbounds %"class.std::vector", %"class.std::vector"* %0, i64 0, i32 0, i32 0, i32 0, i32 0
  %7 = load %"struct.std::pair"*, %"struct.std::pair"** %6, align 8, !tbaa !26
  %8 = ptrtoint %"struct.std::pair"* %5 to i64
  %9 = ptrtoint %"struct.std::pair"* %7 to i64
  %10 = sub i64 %8, %9
  %11 = ashr exact i64 %10, 4
  %12 = sub nsw i64 576460752303423487, %11
  %13 = icmp ult i64 %12, %1
  br i1 %13, label %14, label %15

14:                                               ; preds = %3
  tail call void @_ZSt20__throw_length_errorPKc(i8* %2) #25
  unreachable

15:                                               ; preds = %3
  %16 = icmp ult i64 %11, %1
  %17 = select i1 %16, i64 %1, i64 %11
  %18 = add i64 %17, %11
  %19 = icmp ult i64 %18, %11
  %20 = icmp ugt i64 %18, 576460752303423487
  %21 = or i1 %19, %20
  %22 = select i1 %21, i64 576460752303423487, i64 %18
  ret i64 %22
}

; Function Attrs: minsize mustprogress optsize sspstrong uwtable
define linkonce_odr dso_local %"struct.std::pair"* @_ZNSt12_Vector_baseISt4pairIxxESaIS1_EE11_M_allocateEm(%"struct.std::_Vector_base"* nonnull align 8 dereferenceable(24) %0, i64 %1) local_unnamed_addr #12 comdat align 2 {
  %3 = icmp eq i64 %1, 0
  br i1 %3, label %7, label %4

4:                                                ; preds = %2
  %5 = bitcast %"struct.std::_Vector_base"* %0 to %"class.std::allocator.0"*
  %6 = tail call %"struct.std::pair"* @_ZNSt16allocator_traitsISaISt4pairIxxEEE8allocateERS2_m(%"class.std::allocator.0"* nonnull align 1 dereferenceable(1) %5, i64 %1) #20
  br label %7

7:                                                ; preds = %2, %4
  %8 = phi %"struct.std::pair"* [ %6, %4 ], [ null, %2 ]
  ret %"struct.std::pair"* %8
}

; Function Attrs: minsize noreturn optsize
declare void @_ZSt20__throw_length_errorPKc(i8*) local_unnamed_addr #15

; Function Attrs: minsize mustprogress optsize sspstrong uwtable
define linkonce_odr dso_local %"struct.std::pair"* @_ZNSt16allocator_traitsISaISt4pairIxxEEE8allocateERS2_m(%"class.std::allocator.0"* nonnull align 1 dereferenceable(1) %0, i64 %1) local_unnamed_addr #12 comdat align 2 {
  %3 = bitcast %"class.std::allocator.0"* %0 to %"class.__gnu_cxx::new_allocator.1"*
  %4 = tail call %"struct.std::pair"* @_ZN9__gnu_cxx13new_allocatorISt4pairIxxEE8allocateEmPKv(%"class.__gnu_cxx::new_allocator.1"* nonnull align 1 dereferenceable(1) %3, i64 %1, i8* null) #20
  ret %"struct.std::pair"* %4
}

; Function Attrs: minsize mustprogress optsize sspstrong uwtable
define linkonce_odr dso_local %"struct.std::pair"* @_ZN9__gnu_cxx13new_allocatorISt4pairIxxEE8allocateEmPKv(%"class.__gnu_cxx::new_allocator.1"* nonnull align 1 dereferenceable(1) %0, i64 %1, i8* %2) local_unnamed_addr #12 comdat align 2 {
  %4 = icmp ugt i64 %1, 576460752303423487
  br i1 %4, label %5, label %9, !prof !48

5:                                                ; preds = %3
  %6 = icmp ugt i64 %1, 1152921504606846975
  br i1 %6, label %7, label %8

7:                                                ; preds = %5
  tail call void @_ZSt28__throw_bad_array_new_lengthv() #25
  unreachable

8:                                                ; preds = %5
  tail call void @_ZSt17__throw_bad_allocv() #25
  unreachable

9:                                                ; preds = %3
  %10 = shl nuw nsw i64 %1, 4
  %11 = tail call noalias nonnull i8* @_Znwm(i64 %10) #26
  %12 = bitcast i8* %11 to %"struct.std::pair"*
  ret %"struct.std::pair"* %12
}

; Function Attrs: minsize optsize sspstrong uwtable
define linkonce_odr dso_local i64 @_ZNSt8_Rb_treeISt4pairIxxES1_St9_IdentityIS1_ESt4lessIS1_ESaIS1_EE5eraseERKS1_(%"class.std::_Rb_tree.3"* nonnull align 8 dereferenceable(48) %0, %"struct.std::pair"* nonnull align 8 dereferenceable(16) %1) local_unnamed_addr #6 comdat align 2 {
  %3 = tail call { %"struct.std::_Rb_tree_node_base"*, %"struct.std::_Rb_tree_node_base"* } @_ZNSt8_Rb_treeISt4pairIxxES1_St9_IdentityIS1_ESt4lessIS1_ESaIS1_EE11equal_rangeERKS1_(%"class.std::_Rb_tree.3"* nonnull align 8 dereferenceable(48) %0, %"struct.std::pair"* nonnull align 8 dereferenceable(16) %1) #20
  %4 = extractvalue { %"struct.std::_Rb_tree_node_base"*, %"struct.std::_Rb_tree_node_base"* } %3, 0
  %5 = extractvalue { %"struct.std::_Rb_tree_node_base"*, %"struct.std::_Rb_tree_node_base"* } %3, 1
  %6 = getelementptr inbounds %"class.std::_Rb_tree.3", %"class.std::_Rb_tree.3"* %0, i64 0, i32 0, i32 0, i32 0, i32 0
  %7 = getelementptr inbounds i8, i8* %6, i64 40
  %8 = bitcast i8* %7 to i64*
  %9 = load i64, i64* %8, align 8, !tbaa !18
  tail call void @_ZNSt8_Rb_treeISt4pairIxxES1_St9_IdentityIS1_ESt4lessIS1_ESaIS1_EE12_M_erase_auxESt23_Rb_tree_const_iteratorIS1_ES9_(%"class.std::_Rb_tree.3"* nonnull align 8 dereferenceable(48) %0, %"struct.std::_Rb_tree_node_base"* %4, %"struct.std::_Rb_tree_node_base"* %5) #20
  %10 = load i64, i64* %8, align 8, !tbaa !18
  %11 = sub i64 %9, %10
  ret i64 %11
}

; Function Attrs: minsize optsize sspstrong uwtable
define linkonce_odr dso_local { %"struct.std::_Rb_tree_node_base"*, %"struct.std::_Rb_tree_node_base"* } @_ZNSt8_Rb_treeISt4pairIxxES1_St9_IdentityIS1_ESt4lessIS1_ESaIS1_EE11equal_rangeERKS1_(%"class.std::_Rb_tree.3"* nonnull align 8 dereferenceable(48) %0, %"struct.std::pair"* nonnull align 8 dereferenceable(16) %1) local_unnamed_addr #6 comdat align 2 {
  %3 = getelementptr inbounds %"class.std::_Rb_tree.3", %"class.std::_Rb_tree.3"* %0, i64 0, i32 0, i32 0, i32 0, i32 0
  %4 = getelementptr inbounds i8, i8* %3, i64 16
  %5 = bitcast i8* %4 to %"struct.std::_Rb_tree_node"**
  %6 = getelementptr inbounds i8, i8* %3, i64 8
  %7 = bitcast i8* %6 to %"struct.std::_Rb_tree_node_base"*
  br label %8

8:                                                ; preds = %31, %2
  %9 = phi %"struct.std::_Rb_tree_node_base"* [ %7, %2 ], [ %32, %31 ]
  %10 = phi %"struct.std::_Rb_tree_node"** [ %5, %2 ], [ %34, %31 ]
  %11 = load %"struct.std::_Rb_tree_node"*, %"struct.std::_Rb_tree_node"** %10, align 8, !tbaa !30
  %12 = icmp eq %"struct.std::_Rb_tree_node"* %11, null
  br i1 %12, label %35, label %13

13:                                               ; preds = %8
  %14 = getelementptr inbounds %"struct.std::_Rb_tree_node", %"struct.std::_Rb_tree_node"* %11, i64 0, i32 1
  %15 = bitcast %"struct.__gnu_cxx::__aligned_membuf"* %14 to %"struct.std::pair"*
  %16 = tail call zeroext i1 @_ZStltIxxEbRKSt4pairIT_T0_ES5_(%"struct.std::pair"* nonnull align 8 dereferenceable(16) %15, %"struct.std::pair"* nonnull align 8 dereferenceable(16) %1) #20
  br i1 %16, label %17, label %19

17:                                               ; preds = %13
  %18 = getelementptr inbounds %"struct.std::_Rb_tree_node", %"struct.std::_Rb_tree_node"* %11, i64 0, i32 0, i32 3
  br label %31

19:                                               ; preds = %13
  %20 = tail call zeroext i1 @_ZStltIxxEbRKSt4pairIT_T0_ES5_(%"struct.std::pair"* nonnull align 8 dereferenceable(16) %1, %"struct.std::pair"* nonnull align 8 dereferenceable(16) %15) #20
  %21 = getelementptr %"struct.std::_Rb_tree_node", %"struct.std::_Rb_tree_node"* %11, i64 0, i32 0
  %22 = getelementptr inbounds %"struct.std::_Rb_tree_node", %"struct.std::_Rb_tree_node"* %11, i64 0, i32 0, i32 2
  br i1 %20, label %31, label %23

23:                                               ; preds = %19
  %24 = bitcast %"struct.std::_Rb_tree_node_base"** %22 to %"struct.std::_Rb_tree_node"**
  %25 = load %"struct.std::_Rb_tree_node"*, %"struct.std::_Rb_tree_node"** %24, align 8, !tbaa !36
  %26 = getelementptr inbounds %"struct.std::_Rb_tree_node", %"struct.std::_Rb_tree_node"* %11, i64 0, i32 0, i32 3
  %27 = bitcast %"struct.std::_Rb_tree_node_base"** %26 to %"struct.std::_Rb_tree_node"**
  %28 = load %"struct.std::_Rb_tree_node"*, %"struct.std::_Rb_tree_node"** %27, align 8, !tbaa !35
  %29 = tail call %"struct.std::_Rb_tree_node_base"* @_ZNSt8_Rb_treeISt4pairIxxES1_St9_IdentityIS1_ESt4lessIS1_ESaIS1_EE14_M_lower_boundEPSt13_Rb_tree_nodeIS1_EPSt18_Rb_tree_node_baseRKS1_(%"class.std::_Rb_tree.3"* nonnull align 8 dereferenceable(48) %0, %"struct.std::_Rb_tree_node"* %25, %"struct.std::_Rb_tree_node_base"* %21, %"struct.std::pair"* nonnull align 8 dereferenceable(16) %1) #20
  %30 = tail call %"struct.std::_Rb_tree_node_base"* @_ZNSt8_Rb_treeISt4pairIxxES1_St9_IdentityIS1_ESt4lessIS1_ESaIS1_EE14_M_upper_boundEPSt13_Rb_tree_nodeIS1_EPSt18_Rb_tree_node_baseRKS1_(%"class.std::_Rb_tree.3"* nonnull align 8 dereferenceable(48) %0, %"struct.std::_Rb_tree_node"* %28, %"struct.std::_Rb_tree_node_base"* %9, %"struct.std::pair"* nonnull align 8 dereferenceable(16) %1) #20
  br label %35

31:                                               ; preds = %19, %17
  %32 = phi %"struct.std::_Rb_tree_node_base"* [ %9, %17 ], [ %21, %19 ]
  %33 = phi %"struct.std::_Rb_tree_node_base"** [ %18, %17 ], [ %22, %19 ]
  %34 = bitcast %"struct.std::_Rb_tree_node_base"** %33 to %"struct.std::_Rb_tree_node"**
  br label %8, !llvm.loop !62

35:                                               ; preds = %8, %23
  %36 = phi %"struct.std::_Rb_tree_node_base"* [ %29, %23 ], [ %9, %8 ]
  %37 = phi %"struct.std::_Rb_tree_node_base"* [ %30, %23 ], [ %9, %8 ]
  %38 = insertvalue { %"struct.std::_Rb_tree_node_base"*, %"struct.std::_Rb_tree_node_base"* } undef, %"struct.std::_Rb_tree_node_base"* %36, 0
  %39 = insertvalue { %"struct.std::_Rb_tree_node_base"*, %"struct.std::_Rb_tree_node_base"* } %38, %"struct.std::_Rb_tree_node_base"* %37, 1
  ret { %"struct.std::_Rb_tree_node_base"*, %"struct.std::_Rb_tree_node_base"* } %39
}

; Function Attrs: minsize optsize sspstrong uwtable
define linkonce_odr dso_local void @_ZNSt8_Rb_treeISt4pairIxxES1_St9_IdentityIS1_ESt4lessIS1_ESaIS1_EE12_M_erase_auxESt23_Rb_tree_const_iteratorIS1_ES9_(%"class.std::_Rb_tree.3"* nonnull align 8 dereferenceable(48) %0, %"struct.std::_Rb_tree_node_base"* %1, %"struct.std::_Rb_tree_node_base"* %2) local_unnamed_addr #6 comdat align 2 {
  %4 = getelementptr inbounds %"class.std::_Rb_tree.3", %"class.std::_Rb_tree.3"* %0, i64 0, i32 0, i32 0, i32 0, i32 0
  %5 = getelementptr inbounds i8, i8* %4, i64 24
  %6 = bitcast i8* %5 to %"struct.std::_Rb_tree_node_base"**
  %7 = load %"struct.std::_Rb_tree_node_base"*, %"struct.std::_Rb_tree_node_base"** %6, align 8, !tbaa !16
  %8 = icmp eq %"struct.std::_Rb_tree_node_base"* %7, %1
  br i1 %8, label %9, label %13

9:                                                ; preds = %3
  %10 = getelementptr inbounds i8, i8* %4, i64 8
  %11 = bitcast i8* %10 to %"struct.std::_Rb_tree_node_base"*
  %12 = icmp eq %"struct.std::_Rb_tree_node_base"* %11, %2
  br i1 %12, label %14, label %13

13:                                               ; preds = %3, %9
  br label %15

14:                                               ; preds = %9
  tail call void @_ZNSt8_Rb_treeISt4pairIxxES1_St9_IdentityIS1_ESt4lessIS1_ESaIS1_EE5clearEv(%"class.std::_Rb_tree.3"* nonnull align 8 dereferenceable(48) %0) #21
  br label %20

15:                                               ; preds = %13, %18
  %16 = phi %"struct.std::_Rb_tree_node_base"* [ %19, %18 ], [ %1, %13 ]
  %17 = icmp eq %"struct.std::_Rb_tree_node_base"* %16, %2
  br i1 %17, label %20, label %18

18:                                               ; preds = %15
  %19 = tail call %"struct.std::_Rb_tree_node_base"* @_ZSt18_Rb_tree_incrementPKSt18_Rb_tree_node_base(%"struct.std::_Rb_tree_node_base"* %16) #22
  tail call void @_ZNSt8_Rb_treeISt4pairIxxES1_St9_IdentityIS1_ESt4lessIS1_ESaIS1_EE12_M_erase_auxESt23_Rb_tree_const_iteratorIS1_E(%"class.std::_Rb_tree.3"* nonnull align 8 dereferenceable(48) %0, %"struct.std::_Rb_tree_node_base"* %16) #20
  br label %15, !llvm.loop !63

20:                                               ; preds = %15, %14
  ret void
}

; Function Attrs: minsize optsize sspstrong uwtable
define linkonce_odr dso_local %"struct.std::_Rb_tree_node_base"* @_ZNSt8_Rb_treeISt4pairIxxES1_St9_IdentityIS1_ESt4lessIS1_ESaIS1_EE14_M_lower_boundEPSt13_Rb_tree_nodeIS1_EPSt18_Rb_tree_node_baseRKS1_(%"class.std::_Rb_tree.3"* nonnull align 8 dereferenceable(48) %0, %"struct.std::_Rb_tree_node"* %1, %"struct.std::_Rb_tree_node_base"* %2, %"struct.std::pair"* nonnull align 8 dereferenceable(16) %3) local_unnamed_addr #6 comdat align 2 {
  br label %5

5:                                                ; preds = %9, %4
  %6 = phi %"struct.std::_Rb_tree_node_base"* [ %2, %4 ], [ %16, %9 ]
  %7 = phi %"struct.std::_Rb_tree_node"* [ %1, %4 ], [ %19, %9 ]
  %8 = icmp eq %"struct.std::_Rb_tree_node"* %7, null
  br i1 %8, label %20, label %9

9:                                                ; preds = %5
  %10 = getelementptr inbounds %"struct.std::_Rb_tree_node", %"struct.std::_Rb_tree_node"* %7, i64 0, i32 1
  %11 = bitcast %"struct.__gnu_cxx::__aligned_membuf"* %10 to %"struct.std::pair"*
  %12 = tail call zeroext i1 @_ZStltIxxEbRKSt4pairIT_T0_ES5_(%"struct.std::pair"* nonnull align 8 dereferenceable(16) %11, %"struct.std::pair"* nonnull align 8 dereferenceable(16) %3) #20
  %13 = getelementptr inbounds %"struct.std::_Rb_tree_node", %"struct.std::_Rb_tree_node"* %7, i64 0, i32 0, i32 3
  %14 = getelementptr %"struct.std::_Rb_tree_node", %"struct.std::_Rb_tree_node"* %7, i64 0, i32 0
  %15 = getelementptr inbounds %"struct.std::_Rb_tree_node", %"struct.std::_Rb_tree_node"* %7, i64 0, i32 0, i32 2
  %16 = select i1 %12, %"struct.std::_Rb_tree_node_base"* %6, %"struct.std::_Rb_tree_node_base"* %14
  %17 = select i1 %12, %"struct.std::_Rb_tree_node_base"** %13, %"struct.std::_Rb_tree_node_base"** %15
  %18 = bitcast %"struct.std::_Rb_tree_node_base"** %17 to %"struct.std::_Rb_tree_node"**
  %19 = load %"struct.std::_Rb_tree_node"*, %"struct.std::_Rb_tree_node"** %18, align 8, !tbaa !30
  br label %5, !llvm.loop !64

20:                                               ; preds = %5
  ret %"struct.std::_Rb_tree_node_base"* %6
}

; Function Attrs: minsize mustprogress nounwind optsize sspstrong uwtable
define linkonce_odr dso_local void @_ZNSt8_Rb_treeISt4pairIxxES1_St9_IdentityIS1_ESt4lessIS1_ESaIS1_EE12_M_erase_auxESt23_Rb_tree_const_iteratorIS1_E(%"class.std::_Rb_tree.3"* nonnull align 8 dereferenceable(48) %0, %"struct.std::_Rb_tree_node_base"* %1) local_unnamed_addr #9 comdat align 2 personality i32 (...)* @__gxx_personality_v0 {
  %3 = getelementptr inbounds %"class.std::_Rb_tree.3", %"class.std::_Rb_tree.3"* %0, i64 0, i32 0, i32 0, i32 0, i32 0
  %4 = getelementptr inbounds i8, i8* %3, i64 8
  %5 = bitcast i8* %4 to %"struct.std::_Rb_tree_node_base"*
  %6 = tail call %"struct.std::_Rb_tree_node_base"* @_ZSt28_Rb_tree_rebalance_for_erasePSt18_Rb_tree_node_baseRS_(%"struct.std::_Rb_tree_node_base"* %1, %"struct.std::_Rb_tree_node_base"* nonnull align 8 dereferenceable(32) %5) #21
  %7 = bitcast %"struct.std::_Rb_tree_node_base"* %6 to i8*
  tail call void @_ZdlPv(i8* %7) #21
  %8 = getelementptr inbounds i8, i8* %3, i64 40
  %9 = bitcast i8* %8 to i64*
  %10 = load i64, i64* %9, align 8, !tbaa !18
  %11 = add i64 %10, -1
  store i64 %11, i64* %9, align 8, !tbaa !18
  ret void
}

; Function Attrs: minsize nounwind optsize
declare %"struct.std::_Rb_tree_node_base"* @_ZSt28_Rb_tree_rebalance_for_erasePSt18_Rb_tree_node_baseRS_(%"struct.std::_Rb_tree_node_base"*, %"struct.std::_Rb_tree_node_base"* nonnull align 8 dereferenceable(32)) local_unnamed_addr #1

; Function Attrs: minsize mustprogress nofree nounwind optsize readonly willreturn
declare %"struct.std::_Rb_tree_node_base"* @_ZSt18_Rb_tree_incrementPKSt18_Rb_tree_node_base(%"struct.std::_Rb_tree_node_base"*) local_unnamed_addr #17

; Function Attrs: minsize optsize sspstrong uwtable
define linkonce_odr dso_local %"struct.std::_Rb_tree_node_base"* @_ZNSt8_Rb_treeISt4pairIxxES1_St9_IdentityIS1_ESt4lessIS1_ESaIS1_EE15_M_insert_equalIS1_EESt17_Rb_tree_iteratorIS1_EOT_(%"class.std::_Rb_tree.3"* nonnull align 8 dereferenceable(48) %0, %"struct.std::pair"* nonnull align 8 dereferenceable(16) %1) local_unnamed_addr #6 comdat align 2 {
  %3 = alloca %"struct.std::_Rb_tree<std::pair<long long, long long>, std::pair<long long, long long>, std::_Identity<std::pair<long long, long long>>, std::less<std::pair<long long, long long>>>::_Alloc_node", align 8
  %4 = tail call { %"struct.std::_Rb_tree_node_base"*, %"struct.std::_Rb_tree_node_base"* } @_ZNSt8_Rb_treeISt4pairIxxES1_St9_IdentityIS1_ESt4lessIS1_ESaIS1_EE23_M_get_insert_equal_posERKS1_(%"class.std::_Rb_tree.3"* nonnull align 8 dereferenceable(48) %0, %"struct.std::pair"* nonnull align 8 dereferenceable(16) %1) #20
  %5 = extractvalue { %"struct.std::_Rb_tree_node_base"*, %"struct.std::_Rb_tree_node_base"* } %4, 0
  %6 = extractvalue { %"struct.std::_Rb_tree_node_base"*, %"struct.std::_Rb_tree_node_base"* } %4, 1
  %7 = bitcast %"struct.std::_Rb_tree<std::pair<long long, long long>, std::pair<long long, long long>, std::_Identity<std::pair<long long, long long>>, std::less<std::pair<long long, long long>>>::_Alloc_node"* %3 to i8*
  call void @llvm.lifetime.start.p0i8(i64 8, i8* nonnull %7) #19
  %8 = getelementptr inbounds %"struct.std::_Rb_tree<std::pair<long long, long long>, std::pair<long long, long long>, std::_Identity<std::pair<long long, long long>>, std::less<std::pair<long long, long long>>>::_Alloc_node", %"struct.std::_Rb_tree<std::pair<long long, long long>, std::pair<long long, long long>, std::_Identity<std::pair<long long, long long>>, std::less<std::pair<long long, long long>>>::_Alloc_node"* %3, i64 0, i32 0
  store %"class.std::_Rb_tree.3"* %0, %"class.std::_Rb_tree.3"** %8, align 8, !tbaa !30
  %9 = call %"struct.std::_Rb_tree_node_base"* @_ZNSt8_Rb_treeISt4pairIxxES1_St9_IdentityIS1_ESt4lessIS1_ESaIS1_EE10_M_insert_IS1_NS7_11_Alloc_nodeEEESt17_Rb_tree_iteratorIS1_EPSt18_Rb_tree_node_baseSD_OT_RT0_(%"class.std::_Rb_tree.3"* nonnull align 8 dereferenceable(48) %0, %"struct.std::_Rb_tree_node_base"* %5, %"struct.std::_Rb_tree_node_base"* %6, %"struct.std::pair"* nonnull align 8 dereferenceable(16) %1, %"struct.std::_Rb_tree<std::pair<long long, long long>, std::pair<long long, long long>, std::_Identity<std::pair<long long, long long>>, std::less<std::pair<long long, long long>>>::_Alloc_node"* nonnull align 8 dereferenceable(8) %3) #20
  call void @llvm.lifetime.end.p0i8(i64 8, i8* nonnull %7) #19
  ret %"struct.std::_Rb_tree_node_base"* %9
}

; Function Attrs: minsize optsize sspstrong uwtable
define linkonce_odr dso_local { %"struct.std::_Rb_tree_node_base"*, %"struct.std::_Rb_tree_node_base"* } @_ZNSt8_Rb_treeISt4pairIxxES1_St9_IdentityIS1_ESt4lessIS1_ESaIS1_EE23_M_get_insert_equal_posERKS1_(%"class.std::_Rb_tree.3"* nonnull align 8 dereferenceable(48) %0, %"struct.std::pair"* nonnull align 8 dereferenceable(16) %1) local_unnamed_addr #6 comdat align 2 {
  %3 = getelementptr inbounds %"class.std::_Rb_tree.3", %"class.std::_Rb_tree.3"* %0, i64 0, i32 0, i32 0, i32 0, i32 0
  %4 = getelementptr inbounds i8, i8* %3, i64 16
  %5 = bitcast i8* %4 to %"struct.std::_Rb_tree_node"**
  %6 = getelementptr inbounds i8, i8* %3, i64 8
  %7 = bitcast i8* %6 to %"struct.std::_Rb_tree_node_base"*
  br label %8

8:                                                ; preds = %13, %2
  %9 = phi %"struct.std::_Rb_tree_node"** [ %5, %2 ], [ %21, %13 ]
  %10 = phi %"struct.std::_Rb_tree_node_base"* [ %7, %2 ], [ %14, %13 ]
  %11 = load %"struct.std::_Rb_tree_node"*, %"struct.std::_Rb_tree_node"** %9, align 8, !tbaa !30
  %12 = icmp eq %"struct.std::_Rb_tree_node"* %11, null
  br i1 %12, label %22, label %13

13:                                               ; preds = %8
  %14 = getelementptr %"struct.std::_Rb_tree_node", %"struct.std::_Rb_tree_node"* %11, i64 0, i32 0
  %15 = getelementptr inbounds %"struct.std::_Rb_tree_node", %"struct.std::_Rb_tree_node"* %11, i64 0, i32 1
  %16 = bitcast %"struct.__gnu_cxx::__aligned_membuf"* %15 to %"struct.std::pair"*
  %17 = tail call zeroext i1 @_ZStltIxxEbRKSt4pairIT_T0_ES5_(%"struct.std::pair"* nonnull align 8 dereferenceable(16) %1, %"struct.std::pair"* nonnull align 8 dereferenceable(16) %16) #20
  %18 = getelementptr inbounds %"struct.std::_Rb_tree_node", %"struct.std::_Rb_tree_node"* %11, i64 0, i32 0, i32 2
  %19 = getelementptr inbounds %"struct.std::_Rb_tree_node", %"struct.std::_Rb_tree_node"* %11, i64 0, i32 0, i32 3
  %20 = select i1 %17, %"struct.std::_Rb_tree_node_base"** %18, %"struct.std::_Rb_tree_node_base"** %19
  %21 = bitcast %"struct.std::_Rb_tree_node_base"** %20 to %"struct.std::_Rb_tree_node"**
  br label %8, !llvm.loop !65

22:                                               ; preds = %8
  %23 = insertvalue { %"struct.std::_Rb_tree_node_base"*, %"struct.std::_Rb_tree_node_base"* } { %"struct.std::_Rb_tree_node_base"* null, %"struct.std::_Rb_tree_node_base"* undef }, %"struct.std::_Rb_tree_node_base"* %10, 1
  ret { %"struct.std::_Rb_tree_node_base"*, %"struct.std::_Rb_tree_node_base"* } %23
}

; Function Attrs: minsize optsize sspstrong uwtable
define linkonce_odr dso_local %"struct.std::_Rb_tree_node_base"* @_ZNSt8_Rb_treeISt4pairIxxES1_St9_IdentityIS1_ESt4lessIS1_ESaIS1_EE10_M_insert_IS1_NS7_11_Alloc_nodeEEESt17_Rb_tree_iteratorIS1_EPSt18_Rb_tree_node_baseSD_OT_RT0_(%"class.std::_Rb_tree.3"* nonnull align 8 dereferenceable(48) %0, %"struct.std::_Rb_tree_node_base"* %1, %"struct.std::_Rb_tree_node_base"* %2, %"struct.std::pair"* nonnull align 8 dereferenceable(16) %3, %"struct.std::_Rb_tree<std::pair<long long, long long>, std::pair<long long, long long>, std::_Identity<std::pair<long long, long long>>, std::less<std::pair<long long, long long>>>::_Alloc_node"* nonnull align 8 dereferenceable(8) %4) local_unnamed_addr #6 comdat align 2 {
  %6 = icmp eq %"struct.std::_Rb_tree_node_base"* %1, null
  br i1 %6, label %7, label %16

7:                                                ; preds = %5
  %8 = getelementptr inbounds %"class.std::_Rb_tree.3", %"class.std::_Rb_tree.3"* %0, i64 0, i32 0, i32 0, i32 0, i32 0
  %9 = getelementptr inbounds i8, i8* %8, i64 8
  %10 = bitcast i8* %9 to %"struct.std::_Rb_tree_node_base"*
  %11 = icmp eq %"struct.std::_Rb_tree_node_base"* %10, %2
  br i1 %11, label %16, label %12

12:                                               ; preds = %7
  %13 = getelementptr inbounds %"struct.std::_Rb_tree_node_base", %"struct.std::_Rb_tree_node_base"* %2, i64 1
  %14 = bitcast %"struct.std::_Rb_tree_node_base"* %13 to %"struct.std::pair"*
  %15 = tail call zeroext i1 @_ZStltIxxEbRKSt4pairIT_T0_ES5_(%"struct.std::pair"* nonnull align 8 dereferenceable(16) %3, %"struct.std::pair"* nonnull align 8 dereferenceable(16) %14) #20
  br label %16

16:                                               ; preds = %5, %12, %7
  %17 = phi i1 [ true, %7 ], [ %15, %12 ], [ true, %5 ]
  %18 = tail call %"struct.std::_Rb_tree_node"* @_ZNKSt8_Rb_treeISt4pairIxxES1_St9_IdentityIS1_ESt4lessIS1_ESaIS1_EE11_Alloc_nodeclIS1_EEPSt13_Rb_tree_nodeIS1_EOT_(%"struct.std::_Rb_tree<std::pair<long long, long long>, std::pair<long long, long long>, std::_Identity<std::pair<long long, long long>>, std::less<std::pair<long long, long long>>>::_Alloc_node"* nonnull align 8 dereferenceable(8) %4, %"struct.std::pair"* nonnull align 8 dereferenceable(16) %3) #20
  %19 = getelementptr %"struct.std::_Rb_tree_node", %"struct.std::_Rb_tree_node"* %18, i64 0, i32 0
  %20 = getelementptr inbounds %"class.std::_Rb_tree.3", %"class.std::_Rb_tree.3"* %0, i64 0, i32 0, i32 0, i32 0, i32 0
  %21 = getelementptr inbounds i8, i8* %20, i64 8
  %22 = bitcast i8* %21 to %"struct.std::_Rb_tree_node_base"*
  tail call void @_ZSt29_Rb_tree_insert_and_rebalancebPSt18_Rb_tree_node_baseS0_RS_(i1 zeroext %17, %"struct.std::_Rb_tree_node_base"* %19, %"struct.std::_Rb_tree_node_base"* %2, %"struct.std::_Rb_tree_node_base"* nonnull align 8 dereferenceable(32) %22) #21
  %23 = getelementptr inbounds i8, i8* %20, i64 40
  %24 = bitcast i8* %23 to i64*
  %25 = load i64, i64* %24, align 8, !tbaa !18
  %26 = add i64 %25, 1
  store i64 %26, i64* %24, align 8, !tbaa !18
  ret %"struct.std::_Rb_tree_node_base"* %19
}

; Function Attrs: minsize mustprogress optsize sspstrong uwtable
define linkonce_odr dso_local %"struct.std::_Rb_tree_node"* @_ZNKSt8_Rb_treeISt4pairIxxES1_St9_IdentityIS1_ESt4lessIS1_ESaIS1_EE11_Alloc_nodeclIS1_EEPSt13_Rb_tree_nodeIS1_EOT_(%"struct.std::_Rb_tree<std::pair<long long, long long>, std::pair<long long, long long>, std::_Identity<std::pair<long long, long long>>, std::less<std::pair<long long, long long>>>::_Alloc_node"* nonnull align 8 dereferenceable(8) %0, %"struct.std::pair"* nonnull align 8 dereferenceable(16) %1) local_unnamed_addr #12 comdat align 2 {
  %3 = getelementptr inbounds %"struct.std::_Rb_tree<std::pair<long long, long long>, std::pair<long long, long long>, std::_Identity<std::pair<long long, long long>>, std::less<std::pair<long long, long long>>>::_Alloc_node", %"struct.std::_Rb_tree<std::pair<long long, long long>, std::pair<long long, long long>, std::_Identity<std::pair<long long, long long>>, std::less<std::pair<long long, long long>>>::_Alloc_node"* %0, i64 0, i32 0
  %4 = load %"class.std::_Rb_tree.3"*, %"class.std::_Rb_tree.3"** %3, align 8, !tbaa !66
  %5 = tail call %"struct.std::_Rb_tree_node"* @_ZNSt8_Rb_treeISt4pairIxxES1_St9_IdentityIS1_ESt4lessIS1_ESaIS1_EE11_M_get_nodeEv(%"class.std::_Rb_tree.3"* nonnull align 8 dereferenceable(48) %4) #20
  %6 = getelementptr inbounds %"struct.std::_Rb_tree_node", %"struct.std::_Rb_tree_node"* %5, i64 0, i32 1, i32 0, i64 0
  %7 = bitcast %"struct.std::pair"* %1 to i8*
  tail call void @llvm.memcpy.p0i8.p0i8.i64(i8* noundef nonnull align 8 dereferenceable(16) %6, i8* noundef nonnull align 8 dereferenceable(16) %7, i64 16, i1 false) #19
  ret %"struct.std::_Rb_tree_node"* %5
}

; Function Attrs: minsize mustprogress optsize sspstrong uwtable
define linkonce_odr dso_local %"struct.std::_Rb_tree_node"* @_ZNSt8_Rb_treeISt4pairIxxES1_St9_IdentityIS1_ESt4lessIS1_ESaIS1_EE11_M_get_nodeEv(%"class.std::_Rb_tree.3"* nonnull align 8 dereferenceable(48) %0) local_unnamed_addr #12 comdat align 2 {
  %2 = bitcast %"class.std::_Rb_tree.3"* %0 to %"class.std::allocator.4"*
  %3 = tail call %"struct.std::_Rb_tree_node"* @_ZNSt16allocator_traitsISaISt13_Rb_tree_nodeISt4pairIxxEEEE8allocateERS4_m(%"class.std::allocator.4"* nonnull align 1 dereferenceable(1) %2, i64 1) #20
  ret %"struct.std::_Rb_tree_node"* %3
}

; Function Attrs: minsize mustprogress optsize sspstrong uwtable
define linkonce_odr dso_local %"struct.std::_Rb_tree_node"* @_ZNSt16allocator_traitsISaISt13_Rb_tree_nodeISt4pairIxxEEEE8allocateERS4_m(%"class.std::allocator.4"* nonnull align 1 dereferenceable(1) %0, i64 %1) local_unnamed_addr #12 comdat align 2 {
  %3 = bitcast %"class.std::allocator.4"* %0 to %"class.__gnu_cxx::new_allocator.5"*
  %4 = tail call %"struct.std::_Rb_tree_node"* @_ZN9__gnu_cxx13new_allocatorISt13_Rb_tree_nodeISt4pairIxxEEE8allocateEmPKv(%"class.__gnu_cxx::new_allocator.5"* nonnull align 1 dereferenceable(1) %3, i64 %1, i8* null) #20
  ret %"struct.std::_Rb_tree_node"* %4
}

; Function Attrs: minsize mustprogress optsize sspstrong uwtable
define linkonce_odr dso_local %"struct.std::_Rb_tree_node"* @_ZN9__gnu_cxx13new_allocatorISt13_Rb_tree_nodeISt4pairIxxEEE8allocateEmPKv(%"class.__gnu_cxx::new_allocator.5"* nonnull align 1 dereferenceable(1) %0, i64 %1, i8* %2) local_unnamed_addr #12 comdat align 2 {
  %4 = icmp ugt i64 %1, 192153584101141162
  br i1 %4, label %5, label %9, !prof !48

5:                                                ; preds = %3
  %6 = icmp ugt i64 %1, 384307168202282325
  br i1 %6, label %7, label %8

7:                                                ; preds = %5
  tail call void @_ZSt28__throw_bad_array_new_lengthv() #25
  unreachable

8:                                                ; preds = %5
  tail call void @_ZSt17__throw_bad_allocv() #25
  unreachable

9:                                                ; preds = %3
  %10 = mul nuw nsw i64 %1, 48
  %11 = tail call noalias nonnull i8* @_Znwm(i64 %10) #26
  %12 = bitcast i8* %11 to %"struct.std::_Rb_tree_node"*
  ret %"struct.std::_Rb_tree_node"* %12
}

; Function Attrs: minsize optsize sspstrong uwtable
define internal void @_GLOBAL__sub_I_s361296154.cpp() #6 section ".text.startup" {
  tail call void @_ZNSt8ios_base4InitC1Ev(%"class.std::ios_base::Init"* nonnull align 1 dereferenceable(1) @_ZStL8__ioinit) #20
  %1 = tail call i32 @__cxa_atexit(void (i8*)* bitcast (void (%"class.std::ios_base::Init"*)* @_ZNSt8ios_base4InitD1Ev to void (i8*)*), i8* getelementptr inbounds (%"class.std::ios_base::Init", %"class.std::ios_base::Init"* @_ZStL8__ioinit, i64 0, i32 0), i8* nonnull @__dso_handle) #19
  ret void
}

; Function Attrs: nofree nosync nounwind readnone speculatable willreturn
declare i32 @llvm.smax.i32(i32, i32) #18

attributes #0 = { minsize optsize "frame-pointer"="none" "no-trapping-math"="true" "stack-protector-buffer-size"="8" "target-cpu"="x86-64" "target-features"="+cx8,+fxsr,+mmx,+sse,+sse2,+x87" "tune-cpu"="generic" }
attributes #1 = { minsize nounwind optsize "frame-pointer"="none" "no-trapping-math"="true" "stack-protector-buffer-size"="8" "target-cpu"="x86-64" "target-features"="+cx8,+fxsr,+mmx,+sse,+sse2,+x87" "tune-cpu"="generic" }
attributes #2 = { nofree nounwind }
attributes #3 = { minsize norecurse optsize sspstrong uwtable "frame-pointer"="none" "min-legal-vector-width"="0" "no-trapping-math"="true" "stack-protector-buffer-size"="8" "target-cpu"="x86-64" "target-features"="+cx8,+fxsr,+mmx,+sse,+sse2,+x87" "tune-cpu"="generic" }
attributes #4 = { argmemonly mustprogress nofree nosync nounwind willreturn }
attributes #5 = { inlinehint minsize mustprogress optsize sspstrong uwtable "frame-pointer"="none" "min-legal-vector-width"="0" "no-trapping-math"="true" "stack-protector-buffer-size"="8" "target-cpu"="x86-64" "target-features"="+cx8,+fxsr,+mmx,+sse,+sse2,+x87" "tune-cpu"="generic" }
attributes #6 = { minsize optsize sspstrong uwtable "frame-pointer"="none" "min-legal-vector-width"="0" "no-trapping-math"="true" "stack-protector-buffer-size"="8" "target-cpu"="x86-64" "target-features"="+cx8,+fxsr,+mmx,+sse,+sse2,+x87" "tune-cpu"="generic" }
attributes #7 = { argmemonly mustprogress nofree nounwind willreturn }
attributes #8 = { argmemonly mustprogress nofree nounwind willreturn writeonly }
attributes #9 = { minsize mustprogress nounwind optsize sspstrong uwtable "frame-pointer"="none" "min-legal-vector-width"="0" "no-trapping-math"="true" "stack-protector-buffer-size"="8" "target-cpu"="x86-64" "target-features"="+cx8,+fxsr,+mmx,+sse,+sse2,+x87" "tune-cpu"="generic" }
attributes #10 = { noinline noreturn nounwind }
attributes #11 = { inlinehint minsize mustprogress nounwind optsize sspstrong uwtable "frame-pointer"="none" "min-legal-vector-width"="0" "no-trapping-math"="true" "stack-protector-buffer-size"="8" "target-cpu"="x86-64" "target-features"="+cx8,+fxsr,+mmx,+sse,+sse2,+x87" "tune-cpu"="generic" }
attributes #12 = { minsize mustprogress optsize sspstrong uwtable "frame-pointer"="none" "min-legal-vector-width"="0" "no-trapping-math"="true" "stack-protector-buffer-size"="8" "target-cpu"="x86-64" "target-features"="+cx8,+fxsr,+mmx,+sse,+sse2,+x87" "tune-cpu"="generic" }
attributes #13 = { minsize nobuiltin nounwind optsize "frame-pointer"="none" "no-trapping-math"="true" "stack-protector-buffer-size"="8" "target-cpu"="x86-64" "target-features"="+cx8,+fxsr,+mmx,+sse,+sse2,+x87" "tune-cpu"="generic" }
attributes #14 = { minsize nounwind optsize sspstrong uwtable "frame-pointer"="none" "min-legal-vector-width"="0" "no-trapping-math"="true" "stack-protector-buffer-size"="8" "target-cpu"="x86-64" "target-features"="+cx8,+fxsr,+mmx,+sse,+sse2,+x87" "tune-cpu"="generic" }
attributes #15 = { minsize noreturn optsize "frame-pointer"="none" "no-trapping-math"="true" "stack-protector-buffer-size"="8" "target-cpu"="x86-64" "target-features"="+cx8,+fxsr,+mmx,+sse,+sse2,+x87" "tune-cpu"="generic" }
attributes #16 = { minsize nobuiltin optsize allocsize(0) "frame-pointer"="none" "no-trapping-math"="true" "stack-protector-buffer-size"="8" "target-cpu"="x86-64" "target-features"="+cx8,+fxsr,+mmx,+sse,+sse2,+x87" "tune-cpu"="generic" }
attributes #17 = { minsize mustprogress nofree nounwind optsize readonly willreturn "frame-pointer"="none" "no-trapping-math"="true" "stack-protector-buffer-size"="8" "target-cpu"="x86-64" "target-features"="+cx8,+fxsr,+mmx,+sse,+sse2,+x87" "tune-cpu"="generic" }
attributes #18 = { nofree nosync nounwind readnone speculatable willreturn }
attributes #19 = { nounwind }
attributes #20 = { minsize optsize }
attributes #21 = { minsize nounwind optsize }
attributes #22 = { minsize nounwind optsize readonly willreturn }
attributes #23 = { noreturn nounwind }
attributes #24 = { noreturn }
attributes #25 = { minsize noreturn optsize }
attributes #26 = { minsize optsize allocsize(0) }

!llvm.module.flags = !{!0, !1, !2, !3}
!llvm.ident = !{!4}

!0 = !{i32 1, !"wchar_size", i32 4}
!1 = !{i32 7, !"PIC Level", i32 2}
!2 = !{i32 7, !"PIE Level", i32 2}
!3 = !{i32 7, !"uwtable", i32 1}
!4 = !{!"clang version 13.0.0"}
!5 = !{!6, !6, i64 0}
!6 = !{!"long long", !7, i64 0}
!7 = !{!"omnipotent char", !8, i64 0}
!8 = !{!"Simple C++ TBAA"}
!9 = !{!10, !12, i64 0}
!10 = !{!"_ZTSSt15_Rb_tree_header", !11, i64 0, !14, i64 32}
!11 = !{!"_ZTSSt18_Rb_tree_node_base", !12, i64 0, !13, i64 8, !13, i64 16, !13, i64 24}
!12 = !{!"_ZTSSt14_Rb_tree_color", !7, i64 0}
!13 = !{!"any pointer", !7, i64 0}
!14 = !{!"long", !7, i64 0}
!15 = !{!10, !13, i64 8}
!16 = !{!10, !13, i64 16}
!17 = !{!10, !13, i64 24}
!18 = !{!10, !14, i64 32}
!19 = !{!20, !6, i64 0}
!20 = !{!"_ZTSSt4pairIxxE", !6, i64 0, !6, i64 8}
!21 = !{!20, !6, i64 8}
!22 = distinct !{!22, !23}
!23 = !{!"llvm.loop.mustprogress"}
!24 = !{!25, !13, i64 8}
!25 = !{!"_ZTSNSt12_Vector_baseISt4pairIxxESaIS1_EE17_Vector_impl_dataE", !13, i64 0, !13, i64 8, !13, i64 16}
!26 = !{!25, !13, i64 0}
!27 = distinct !{!27, !23}
!28 = distinct !{!28, !23}
!29 = distinct !{!29, !23}
!30 = !{!13, !13, i64 0}
!31 = !{i64 0, i64 8, !30}
!32 = !{!25, !13, i64 16}
!33 = !{!34, !13, i64 0}
!34 = !{!"_ZTSSt23_Rb_tree_const_iteratorISt4pairIxxEE", !13, i64 0}
!35 = !{!11, !13, i64 24}
!36 = !{!11, !13, i64 16}
!37 = distinct !{!37, !23}
!38 = !{!11, !13, i64 8}
!39 = distinct !{!39, !23}
!40 = distinct !{!40, !23}
!41 = !{!42, !13, i64 0}
!42 = !{!"_ZTSSt10_Head_baseILm0ERKxLb0EE", !13, i64 0}
!43 = !{!44, !6, i64 0}
!44 = !{!"_ZTSSt4pairIKxSt8multisetIS_IxxESt4lessIS2_ESaIS2_EEE", !6, i64 0, !45, i64 8}
!45 = !{!"_ZTSSt8multisetISt4pairIxxESt4lessIS1_ESaIS1_EE", !46, i64 0}
!46 = !{!"_ZTSSt8_Rb_treeISt4pairIxxES1_St9_IdentityIS1_ESt4lessIS1_ESaIS1_EE", !47, i64 0}
!47 = !{!"_ZTSNSt8_Rb_treeISt4pairIxxES1_St9_IdentityIS1_ESt4lessIS1_ESaIS1_EE13_Rb_tree_implIS5_Lb1EEE"}
!48 = !{!"branch_weights", i32 1, i32 2000}
!49 = distinct !{!49, !23}
!50 = distinct !{!50, !23}
!51 = distinct !{!51, !23}
!52 = distinct !{!52, !23}
!53 = !{!54, !56}
!54 = distinct !{!54, !55, !"_ZSt19__relocate_object_aISt4pairIxxES1_SaIS1_EEvPT_PT0_RT1_: argument 0"}
!55 = distinct !{!55, !"_ZSt19__relocate_object_aISt4pairIxxES1_SaIS1_EEvPT_PT0_RT1_"}
!56 = distinct !{!56, !55, !"_ZSt19__relocate_object_aISt4pairIxxES1_SaIS1_EEvPT_PT0_RT1_: argument 1"}
!57 = distinct !{!57, !23}
!58 = !{!59, !61}
!59 = distinct !{!59, !60, !"_ZSt19__relocate_object_aISt4pairIxxES1_SaIS1_EEvPT_PT0_RT1_: argument 0"}
!60 = distinct !{!60, !"_ZSt19__relocate_object_aISt4pairIxxES1_SaIS1_EEvPT_PT0_RT1_"}
!61 = distinct !{!61, !60, !"_ZSt19__relocate_object_aISt4pairIxxES1_SaIS1_EEvPT_PT0_RT1_: argument 1"}
!62 = distinct !{!62, !23}
!63 = distinct !{!63, !23}
!64 = distinct !{!64, !23}
!65 = distinct !{!65, !23}
!66 = !{!67, !13, i64 0}
!67 = !{!"_ZTSNSt8_Rb_treeISt4pairIxxES1_St9_IdentityIS1_ESt4lessIS1_ESaIS1_EE11_Alloc_nodeE", !13, i64 0}
