; ModuleID = 'Project_CodeNet_C++1400/p02840/s812748408.cpp'
source_filename = "Project_CodeNet_C++1400/p02840/s812748408.cpp"
target datalayout = "e-m:e-p270:32:32-p271:32:32-p272:64:64-i64:64-f80:128-n8:16:32:64-S128"
target triple = "x86_64-pc-linux-gnu"

%"class.std::ios_base::Init" = type { i8 }
%"class.std::basic_istream" = type { i32 (...)**, i64, %"class.std::basic_ios" }
%"class.std::basic_ios" = type { %"class.std::ios_base", %"class.std::basic_ostream"*, i8, i8, %"class.std::basic_streambuf"*, %"class.std::ctype"*, %"class.std::num_put"*, %"class.std::num_get"* }
%"class.std::ios_base" = type { i32 (...)**, i64, i64, i32, i32, i32, %"struct.std::ios_base::_Callback_list"*, %"struct.std::ios_base::_Words", [8 x %"struct.std::ios_base::_Words"], i32, %"struct.std::ios_base::_Words"*, %"class.std::locale" }
%"struct.std::ios_base::_Callback_list" = type { %"struct.std::ios_base::_Callback_list"*, void (i32, %"class.std::ios_base"*, i32)*, i32, i32 }
%"struct.std::ios_base::_Words" = type { i8*, i64 }
%"class.std::locale" = type { %"class.std::locale::_Impl"* }
%"class.std::locale::_Impl" = type { i32, %"class.std::locale::facet"**, i64, %"class.std::locale::facet"**, i8** }
%"class.std::locale::facet" = type <{ i32 (...)**, i32, [4 x i8] }>
%"class.std::basic_ostream" = type { i32 (...)**, %"class.std::basic_ios" }
%"class.std::basic_streambuf" = type { i32 (...)**, i8*, i8*, i8*, i8*, i8*, i8*, %"class.std::locale" }
%"class.std::ctype" = type <{ %"class.std::locale::facet.base", [4 x i8], %struct.__locale_struct*, i8, [7 x i8], i32*, i32*, i16*, i8, [256 x i8], [256 x i8], i8, [6 x i8] }>
%"class.std::locale::facet.base" = type <{ i32 (...)**, i32 }>
%struct.__locale_struct = type { [13 x %struct.__locale_data*], i16*, i32*, i32*, [13 x i8*] }
%struct.__locale_data = type opaque
%"class.std::num_put" = type { %"class.std::locale::facet.base", [4 x i8] }
%"class.std::num_get" = type { %"class.std::locale::facet.base", [4 x i8] }
%"class.std::vector" = type { %"struct.std::_Vector_base" }
%"struct.std::_Vector_base" = type { %"struct.std::_Vector_base<std::pair<long long, long long>, std::allocator<std::pair<long long, long long>>>::_Vector_impl" }
%"struct.std::_Vector_base<std::pair<long long, long long>, std::allocator<std::pair<long long, long long>>>::_Vector_impl" = type { %"struct.std::_Vector_base<std::pair<long long, long long>, std::allocator<std::pair<long long, long long>>>::_Vector_impl_data" }
%"struct.std::_Vector_base<std::pair<long long, long long>, std::allocator<std::pair<long long, long long>>>::_Vector_impl_data" = type { %"struct.std::pair"*, %"struct.std::pair"*, %"struct.std::pair"* }
%"struct.std::pair" = type { i64, i64 }
%"class.std::vector.0" = type { %"struct.std::_Vector_base.1" }
%"struct.std::_Vector_base.1" = type { %"struct.std::_Vector_base<long long, std::allocator<long long>>::_Vector_impl" }
%"struct.std::_Vector_base<long long, std::allocator<long long>>::_Vector_impl" = type { %"struct.std::_Vector_base<long long, std::allocator<long long>>::_Vector_impl_data" }
%"struct.std::_Vector_base<long long, std::allocator<long long>>::_Vector_impl_data" = type { i64*, i64*, i64* }
%"class.std::allocator.2" = type { i8 }
%"class.__gnu_cxx::new_allocator.3" = type { i8 }
%"struct.__gnu_cxx::__ops::_Iter_less_iter" = type { i8 }
%"struct.__gnu_cxx::__ops::_Iter_less_val" = type { i8 }
%"class.std::allocator" = type { i8 }
%"class.__gnu_cxx::new_allocator" = type { i8 }

$_ZNSt6vectorIxSaIxEE9push_backERKx = comdat any

$_ZNSt6vectorIxSaIxEE5eraseEN9__gnu_cxx17__normal_iteratorIPKxS1_EES6_ = comdat any

$_ZNSt6vectorIxSaIxEEC2EmRKxRKS0_ = comdat any

$_ZNSt6vectorISt4pairIxxESaIS1_EEC2ERKS3_ = comdat any

$_ZNSt12_Vector_baseIxSaIxEED2Ev = comdat any

$_ZNSt6vectorIxSaIxEE17_M_realloc_insertIJRKxEEEvN9__gnu_cxx17__normal_iteratorIPxS1_EEDpOT_ = comdat any

$_ZNKSt6vectorIxSaIxEE12_M_check_lenEmPKc = comdat any

$_ZNSt12_Vector_baseIxSaIxEE11_M_allocateEm = comdat any

$_ZNSt16allocator_traitsISaIxEE8allocateERS0_m = comdat any

$_ZN9__gnu_cxx13new_allocatorIxE8allocateEmPKv = comdat any

$_ZNSt6vectorIxSaIxEE12emplace_backIJxEEEvDpOT_ = comdat any

$_ZNSt6vectorIxSaIxEE17_M_realloc_insertIJxEEEvN9__gnu_cxx17__normal_iteratorIPxS1_EEDpOT_ = comdat any

$_ZSt6__sortIN9__gnu_cxx17__normal_iteratorIPxSt6vectorIxSaIxEEEENS0_5__ops15_Iter_less_iterEEvT_S9_T0_ = comdat any

$_ZSt16__introsort_loopIN9__gnu_cxx17__normal_iteratorIPxSt6vectorIxSaIxEEEElNS0_5__ops15_Iter_less_iterEEvT_S9_T0_T1_ = comdat any

$_ZSt22__final_insertion_sortIN9__gnu_cxx17__normal_iteratorIPxSt6vectorIxSaIxEEEENS0_5__ops15_Iter_less_iterEEvT_S9_T0_ = comdat any

$_ZSt14__partial_sortIN9__gnu_cxx17__normal_iteratorIPxSt6vectorIxSaIxEEEENS0_5__ops15_Iter_less_iterEEvT_S9_S9_T0_ = comdat any

$_ZSt27__unguarded_partition_pivotIN9__gnu_cxx17__normal_iteratorIPxSt6vectorIxSaIxEEEENS0_5__ops15_Iter_less_iterEET_S9_S9_T0_ = comdat any

$_ZSt13__heap_selectIN9__gnu_cxx17__normal_iteratorIPxSt6vectorIxSaIxEEEENS0_5__ops15_Iter_less_iterEEvT_S9_S9_T0_ = comdat any

$_ZSt11__sort_heapIN9__gnu_cxx17__normal_iteratorIPxSt6vectorIxSaIxEEEENS0_5__ops15_Iter_less_iterEEvT_S9_RT0_ = comdat any

$_ZSt11__make_heapIN9__gnu_cxx17__normal_iteratorIPxSt6vectorIxSaIxEEEENS0_5__ops15_Iter_less_iterEEvT_S9_RT0_ = comdat any

$_ZSt10__pop_heapIN9__gnu_cxx17__normal_iteratorIPxSt6vectorIxSaIxEEEENS0_5__ops15_Iter_less_iterEEvT_S9_S9_RT0_ = comdat any

$_ZSt13__adjust_heapIN9__gnu_cxx17__normal_iteratorIPxSt6vectorIxSaIxEEEElxNS0_5__ops15_Iter_less_iterEEvT_T0_SA_T1_T2_ = comdat any

$_ZSt11__push_heapIN9__gnu_cxx17__normal_iteratorIPxSt6vectorIxSaIxEEEElxNS0_5__ops14_Iter_less_valEEvT_T0_SA_T1_RT2_ = comdat any

$_ZSt22__move_median_to_firstIN9__gnu_cxx17__normal_iteratorIPxSt6vectorIxSaIxEEEENS0_5__ops15_Iter_less_iterEEvT_S9_S9_S9_T0_ = comdat any

$_ZSt21__unguarded_partitionIN9__gnu_cxx17__normal_iteratorIPxSt6vectorIxSaIxEEEENS0_5__ops15_Iter_less_iterEET_S9_S9_S9_T0_ = comdat any

$_ZSt16__insertion_sortIN9__gnu_cxx17__normal_iteratorIPxSt6vectorIxSaIxEEEENS0_5__ops15_Iter_less_iterEEvT_S9_T0_ = comdat any

$_ZSt26__unguarded_insertion_sortIN9__gnu_cxx17__normal_iteratorIPxSt6vectorIxSaIxEEEENS0_5__ops15_Iter_less_iterEEvT_S9_T0_ = comdat any

$_ZSt25__unguarded_linear_insertIN9__gnu_cxx17__normal_iteratorIPxSt6vectorIxSaIxEEEENS0_5__ops14_Val_less_iterEEvT_T0_ = comdat any

$_ZSt8__uniqueIN9__gnu_cxx17__normal_iteratorIPxSt6vectorIxSaIxEEEENS0_5__ops19_Iter_equal_to_iterEET_S9_S9_T0_ = comdat any

$_ZSt15__adjacent_findIN9__gnu_cxx17__normal_iteratorIPxSt6vectorIxSaIxEEEENS0_5__ops19_Iter_equal_to_iterEET_S9_S9_T0_ = comdat any

$_ZNSt6vectorIxSaIxEE8_M_eraseEN9__gnu_cxx17__normal_iteratorIPxS1_EES5_ = comdat any

$_ZNSt6vectorIxSaIxEE17_S_check_init_lenEmRKS0_ = comdat any

$_ZNSt6vectorIxSaIxEE18_M_fill_initializeEmRKx = comdat any

$_ZNSt12_Vector_baseIxSaIxEE17_M_create_storageEm = comdat any

$_ZSt10__fill_n_aIPxmxET_S1_T0_RKT1_St26random_access_iterator_tag = comdat any

$_ZSt13__lower_boundIN9__gnu_cxx17__normal_iteratorIPxSt6vectorIxSaIxEEEExNS0_5__ops14_Iter_less_valEET_S9_S9_RKT0_T1_ = comdat any

$_ZNSt12_Vector_baseISt4pairIxxESaIS1_EED2Ev = comdat any

$_ZNSt6vectorISt4pairIxxESaIS1_EE12emplace_backIJS1_EEEvDpOT_ = comdat any

$_ZNSt6vectorISt4pairIxxESaIS1_EE17_M_realloc_insertIJS1_EEEvN9__gnu_cxx17__normal_iteratorIPS1_S3_EEDpOT_ = comdat any

$_ZNKSt6vectorISt4pairIxxESaIS1_EE12_M_check_lenEmPKc = comdat any

$_ZNSt12_Vector_baseISt4pairIxxESaIS1_EE11_M_allocateEm = comdat any

$_ZNSt16allocator_traitsISaISt4pairIxxEEE8allocateERS2_m = comdat any

$_ZN9__gnu_cxx13new_allocatorISt4pairIxxEE8allocateEmPKv = comdat any

$_ZNSt12_Vector_baseISt4pairIxxESaIS1_EE17_M_create_storageEm = comdat any

@_ZStL8__ioinit = internal global %"class.std::ios_base::Init" zeroinitializer, align 1
@__dso_handle = external hidden global i8
@_ZSt3cin = external global %"class.std::basic_istream", align 8
@_ZSt4cout = external global %"class.std::basic_ostream", align 8
@.str = private unnamed_addr constant [26 x i8] c"vector::_M_realloc_insert\00", align 1
@.str.1 = private unnamed_addr constant [49 x i8] c"cannot create std::vector larger than max_size()\00", align 1
@llvm.global_ctors = appending global [1 x { i32, void ()*, i8* }] [{ i32, void ()*, i8* } { i32 65535, void ()* @_GLOBAL__sub_I_s812748408.cpp, i8* null }]

; Function Attrs: minsize optsize
declare void @_ZNSt8ios_base4InitC1Ev(%"class.std::ios_base::Init"* nonnull align 1 dereferenceable(1)) unnamed_addr #0

; Function Attrs: minsize nounwind optsize
declare void @_ZNSt8ios_base4InitD1Ev(%"class.std::ios_base::Init"* nonnull align 1 dereferenceable(1)) unnamed_addr #1

; Function Attrs: nofree nounwind
declare i32 @__cxa_atexit(void (i8*)*, i8*, i8*) local_unnamed_addr #2

; Function Attrs: minsize optsize sspstrong uwtable
define dso_local i64 @_Z5solveSt6vectorISt4pairIxxESaIS1_EE(%"class.std::vector"* nocapture readonly %0) local_unnamed_addr #3 personality i8* bitcast (i32 (...)* @__gxx_personality_v0 to i8*) {
  %2 = alloca %"class.std::vector.0", align 8
  %3 = alloca i64, align 8
  %4 = alloca %"class.std::vector.0", align 8
  %5 = alloca i64, align 8
  %6 = alloca %"class.std::allocator.2", align 1
  %7 = alloca i64, align 8
  %8 = bitcast %"class.std::vector.0"* %2 to i8*
  call void @llvm.lifetime.start.p0i8(i64 24, i8* nonnull %8) #19
  call void @llvm.memset.p0i8.i64(i8* noundef nonnull align 8 dereferenceable(24) %8, i8 0, i64 24, i1 false) #19
  %9 = getelementptr inbounds %"class.std::vector", %"class.std::vector"* %0, i64 0, i32 0, i32 0, i32 0, i32 1
  %10 = load %"struct.std::pair"*, %"struct.std::pair"** %9, align 8, !tbaa !5
  %11 = getelementptr inbounds %"class.std::vector", %"class.std::vector"* %0, i64 0, i32 0, i32 0, i32 0, i32 0
  %12 = load %"struct.std::pair"*, %"struct.std::pair"** %11, align 8, !tbaa !10
  %13 = ptrtoint %"struct.std::pair"* %10 to i64
  %14 = ptrtoint %"struct.std::pair"* %12 to i64
  %15 = sub i64 %13, %14
  %16 = ashr exact i64 %15, 4
  %17 = bitcast i64* %3 to i8*
  %18 = call i64 @llvm.smax.i64(i64 %16, i64 0)
  br label %19

19:                                               ; preds = %37, %1
  %20 = phi i64 [ 0, %1 ], [ %38, %37 ]
  %21 = icmp eq i64 %20, %18
  br i1 %21, label %22, label %27

22:                                               ; preds = %19
  %23 = getelementptr inbounds %"class.std::vector.0", %"class.std::vector.0"* %2, i64 0, i32 0, i32 0, i32 0, i32 0
  %24 = load i64*, i64** %23, align 8, !tbaa !11
  %25 = getelementptr inbounds %"class.std::vector.0", %"class.std::vector.0"* %2, i64 0, i32 0, i32 0, i32 0, i32 1
  %26 = load i64*, i64** %25, align 8, !tbaa !11
  invoke void @_ZSt6__sortIN9__gnu_cxx17__normal_iteratorIPxSt6vectorIxSaIxEEEENS0_5__ops15_Iter_less_iterEEvT_S9_T0_(i64* %24, i64* %26) #20
          to label %43 unwind label %75

27:                                               ; preds = %19
  %28 = load %"struct.std::pair"*, %"struct.std::pair"** %11, align 8, !tbaa !10
  %29 = getelementptr inbounds %"struct.std::pair", %"struct.std::pair"* %28, i64 %20, i32 0
  invoke void @_ZNSt6vectorIxSaIxEE9push_backERKx(%"class.std::vector.0"* nonnull align 8 dereferenceable(24) %2, i64* nonnull align 8 dereferenceable(8) %29) #20
          to label %30 unwind label %39

30:                                               ; preds = %27
  call void @llvm.lifetime.start.p0i8(i64 8, i8* nonnull %17) #19
  %31 = load %"struct.std::pair"*, %"struct.std::pair"** %11, align 8, !tbaa !10
  %32 = getelementptr inbounds %"struct.std::pair", %"struct.std::pair"* %31, i64 %20, i32 0
  %33 = load i64, i64* %32, align 8, !tbaa !12
  %34 = getelementptr inbounds %"struct.std::pair", %"struct.std::pair"* %31, i64 %20, i32 1
  %35 = load i64, i64* %34, align 8, !tbaa !15
  %36 = add nsw i64 %35, %33
  store i64 %36, i64* %3, align 8, !tbaa !16
  invoke void @_ZNSt6vectorIxSaIxEE12emplace_backIJxEEEvDpOT_(%"class.std::vector.0"* nonnull align 8 dereferenceable(24) %2, i64* nonnull align 8 dereferenceable(8) %3) #20
          to label %37 unwind label %41

37:                                               ; preds = %30
  call void @llvm.lifetime.end.p0i8(i64 8, i8* nonnull %17) #19
  %38 = add nuw nsw i64 %20, 1
  br label %19, !llvm.loop !17

39:                                               ; preds = %27
  %40 = landingpad { i8*, i32 }
          cleanup
  br label %159

41:                                               ; preds = %30
  %42 = landingpad { i8*, i32 }
          cleanup
  call void @llvm.lifetime.end.p0i8(i64 8, i8* nonnull %17) #19
  br label %159

43:                                               ; preds = %22
  %44 = load i64*, i64** %23, align 8, !tbaa !11
  %45 = load i64*, i64** %25, align 8, !tbaa !11
  %46 = invoke i64* @_ZSt8__uniqueIN9__gnu_cxx17__normal_iteratorIPxSt6vectorIxSaIxEEEENS0_5__ops19_Iter_equal_to_iterEET_S9_S9_T0_(i64* %44, i64* %45) #20
          to label %47 unwind label %77

47:                                               ; preds = %43
  %48 = load i64*, i64** %25, align 8, !tbaa !11
  %49 = invoke i64* @_ZNSt6vectorIxSaIxEE5eraseEN9__gnu_cxx17__normal_iteratorIPKxS1_EES6_(%"class.std::vector.0"* nonnull align 8 dereferenceable(24) %2, i64* %46, i64* %48) #20
          to label %50 unwind label %79

50:                                               ; preds = %47
  %51 = bitcast %"class.std::vector.0"* %4 to i8*
  call void @llvm.lifetime.start.p0i8(i64 24, i8* nonnull %51) #19
  %52 = load i64*, i64** %25, align 8, !tbaa !19
  %53 = load i64*, i64** %23, align 8, !tbaa !21
  %54 = ptrtoint i64* %52 to i64
  %55 = ptrtoint i64* %53 to i64
  %56 = sub i64 %54, %55
  %57 = ashr exact i64 %56, 3
  %58 = add nsw i64 %57, 100
  %59 = bitcast i64* %5 to i8*
  call void @llvm.lifetime.start.p0i8(i64 8, i8* nonnull %59) #19
  store i64 0, i64* %5, align 8, !tbaa !16
  %60 = getelementptr inbounds %"class.std::allocator.2", %"class.std::allocator.2"* %6, i64 0, i32 0
  call void @llvm.lifetime.start.p0i8(i64 1, i8* nonnull %60) #19
  invoke void @_ZNSt6vectorIxSaIxEEC2EmRKxRKS0_(%"class.std::vector.0"* nonnull align 8 dereferenceable(24) %4, i64 %58, i64* nonnull align 8 dereferenceable(8) %5, %"class.std::allocator.2"* nonnull align 1 dereferenceable(1) %6) #20
          to label %61 unwind label %81

61:                                               ; preds = %50
  call void @llvm.lifetime.end.p0i8(i64 1, i8* nonnull %60) #19
  call void @llvm.lifetime.end.p0i8(i64 8, i8* nonnull %59) #19
  %62 = bitcast i64* %7 to i8*
  %63 = getelementptr inbounds %"class.std::vector.0", %"class.std::vector.0"* %4, i64 0, i32 0, i32 0, i32 0, i32 0
  br label %64

64:                                               ; preds = %99, %61
  %65 = phi i64 [ 0, %61 ], [ %116, %99 ]
  %66 = icmp eq i64 %65, %18
  br i1 %66, label %67, label %83

67:                                               ; preds = %64
  %68 = getelementptr inbounds %"class.std::vector.0", %"class.std::vector.0"* %4, i64 0, i32 0, i32 0, i32 0, i32 1
  %69 = load i64*, i64** %68, align 8, !tbaa !19
  %70 = load i64*, i64** %63, align 8, !tbaa !21
  %71 = ptrtoint i64* %69 to i64
  %72 = ptrtoint i64* %70 to i64
  %73 = sub i64 %71, %72
  %74 = ashr exact i64 %73, 3
  br label %124

75:                                               ; preds = %22
  %76 = landingpad { i8*, i32 }
          cleanup
  br label %159

77:                                               ; preds = %43
  %78 = landingpad { i8*, i32 }
          cleanup
  br label %159

79:                                               ; preds = %47
  %80 = landingpad { i8*, i32 }
          cleanup
  br label %159

81:                                               ; preds = %50
  %82 = landingpad { i8*, i32 }
          cleanup
  call void @llvm.lifetime.end.p0i8(i64 1, i8* nonnull %60) #19
  call void @llvm.lifetime.end.p0i8(i64 8, i8* nonnull %59) #19
  br label %157

83:                                               ; preds = %64
  %84 = load i64*, i64** %23, align 8, !tbaa !11
  %85 = load i64*, i64** %25, align 8, !tbaa !11
  %86 = load %"struct.std::pair"*, %"struct.std::pair"** %11, align 8, !tbaa !10
  %87 = getelementptr inbounds %"struct.std::pair", %"struct.std::pair"* %86, i64 %65, i32 0
  %88 = invoke i64* @_ZSt13__lower_boundIN9__gnu_cxx17__normal_iteratorIPxSt6vectorIxSaIxEEEExNS0_5__ops14_Iter_less_valEET_S9_S9_RKT0_T1_(i64* %84, i64* %85, i64* nonnull align 8 dereferenceable(8) %87) #20
          to label %89 unwind label %117

89:                                               ; preds = %83
  %90 = load i64*, i64** %23, align 8, !tbaa !11
  %91 = load i64*, i64** %25, align 8, !tbaa !11
  call void @llvm.lifetime.start.p0i8(i64 8, i8* nonnull %62) #19
  %92 = load %"struct.std::pair"*, %"struct.std::pair"** %11, align 8, !tbaa !10
  %93 = getelementptr inbounds %"struct.std::pair", %"struct.std::pair"* %92, i64 %65, i32 0
  %94 = load i64, i64* %93, align 8, !tbaa !12
  %95 = getelementptr inbounds %"struct.std::pair", %"struct.std::pair"* %92, i64 %65, i32 1
  %96 = load i64, i64* %95, align 8, !tbaa !15
  %97 = add nsw i64 %96, %94
  store i64 %97, i64* %7, align 8, !tbaa !16
  %98 = invoke i64* @_ZSt13__lower_boundIN9__gnu_cxx17__normal_iteratorIPxSt6vectorIxSaIxEEEExNS0_5__ops14_Iter_less_valEET_S9_S9_RKT0_T1_(i64* %90, i64* %91, i64* nonnull align 8 dereferenceable(8) %7) #20
          to label %99 unwind label %119

99:                                               ; preds = %89
  %100 = ptrtoint i64* %88 to i64
  %101 = ptrtoint i64* %90 to i64
  %102 = sub i64 %100, %101
  %103 = ashr exact i64 %102, 3
  %104 = load i64*, i64** %23, align 8, !tbaa !11
  %105 = ptrtoint i64* %98 to i64
  %106 = ptrtoint i64* %104 to i64
  %107 = sub i64 %105, %106
  %108 = ashr exact i64 %107, 3
  call void @llvm.lifetime.end.p0i8(i64 8, i8* nonnull %62) #19
  %109 = load i64*, i64** %63, align 8, !tbaa !21
  %110 = getelementptr inbounds i64, i64* %109, i64 %103
  %111 = load i64, i64* %110, align 8, !tbaa !16
  %112 = add nsw i64 %111, 1
  store i64 %112, i64* %110, align 8, !tbaa !16
  %113 = getelementptr inbounds i64, i64* %109, i64 %108
  %114 = load i64, i64* %113, align 8, !tbaa !16
  %115 = add nsw i64 %114, -1
  store i64 %115, i64* %113, align 8, !tbaa !16
  %116 = add nuw nsw i64 %65, 1
  br label %64, !llvm.loop !22

117:                                              ; preds = %83
  %118 = landingpad { i8*, i32 }
          cleanup
  br label %121

119:                                              ; preds = %89
  %120 = landingpad { i8*, i32 }
          cleanup
  call void @llvm.lifetime.end.p0i8(i64 8, i8* nonnull %62) #19
  br label %121

121:                                              ; preds = %119, %117
  %122 = phi { i8*, i32 } [ %120, %119 ], [ %118, %117 ]
  %123 = getelementptr inbounds %"class.std::vector.0", %"class.std::vector.0"* %4, i64 0, i32 0
  call void @_ZNSt12_Vector_baseIxSaIxEED2Ev(%"struct.std::_Vector_base.1"* nonnull align 8 dereferenceable(24) %123) #21
  br label %157

124:                                              ; preds = %67, %130
  %125 = phi i64 [ %137, %130 ], [ 1, %67 ]
  %126 = icmp ult i64 %125, %74
  br i1 %126, label %130, label %127

127:                                              ; preds = %124
  %128 = add nsw i64 %74, -1
  %129 = load i64*, i64** %23, align 8
  br label %138

130:                                              ; preds = %124
  %131 = add nsw i64 %125, -1
  %132 = getelementptr inbounds i64, i64* %70, i64 %131
  %133 = load i64, i64* %132, align 8, !tbaa !16
  %134 = getelementptr inbounds i64, i64* %70, i64 %125
  %135 = load i64, i64* %134, align 8, !tbaa !16
  %136 = add nsw i64 %135, %133
  store i64 %136, i64* %134, align 8, !tbaa !16
  %137 = add nuw nsw i64 %125, 1
  br label %124, !llvm.loop !23

138:                                              ; preds = %127, %145
  %139 = phi i64 [ %156, %145 ], [ 0, %127 ]
  %140 = phi i64 [ %149, %145 ], [ 0, %127 ]
  %141 = icmp eq i64 %140, %128
  br i1 %141, label %142, label %145

142:                                              ; preds = %138
  %143 = getelementptr inbounds %"class.std::vector.0", %"class.std::vector.0"* %4, i64 0, i32 0
  call void @_ZNSt12_Vector_baseIxSaIxEED2Ev(%"struct.std::_Vector_base.1"* nonnull align 8 dereferenceable(24) %143) #21
  call void @llvm.lifetime.end.p0i8(i64 24, i8* nonnull %51) #19
  %144 = getelementptr inbounds %"class.std::vector.0", %"class.std::vector.0"* %2, i64 0, i32 0
  call void @_ZNSt12_Vector_baseIxSaIxEED2Ev(%"struct.std::_Vector_base.1"* nonnull align 8 dereferenceable(24) %144) #21
  call void @llvm.lifetime.end.p0i8(i64 24, i8* nonnull %8) #19
  ret i64 %139

145:                                              ; preds = %138
  %146 = getelementptr inbounds i64, i64* %70, i64 %140
  %147 = load i64, i64* %146, align 8, !tbaa !16
  %148 = icmp sgt i64 %147, 0
  %149 = add nuw i64 %140, 1
  %150 = getelementptr inbounds i64, i64* %129, i64 %149
  %151 = load i64, i64* %150, align 8, !tbaa !16
  %152 = getelementptr inbounds i64, i64* %129, i64 %140
  %153 = load i64, i64* %152, align 8, !tbaa !16
  %154 = sub nsw i64 %151, %153
  %155 = select i1 %148, i64 %154, i64 0
  %156 = add nsw i64 %155, %139
  br label %138, !llvm.loop !24

157:                                              ; preds = %121, %81
  %158 = phi { i8*, i32 } [ %122, %121 ], [ %82, %81 ]
  call void @llvm.lifetime.end.p0i8(i64 24, i8* nonnull %51) #19
  br label %159

159:                                              ; preds = %77, %79, %39, %41, %157, %75
  %160 = phi { i8*, i32 } [ %158, %157 ], [ %76, %75 ], [ %42, %41 ], [ %40, %39 ], [ %80, %79 ], [ %78, %77 ]
  %161 = getelementptr inbounds %"class.std::vector.0", %"class.std::vector.0"* %2, i64 0, i32 0
  call void @_ZNSt12_Vector_baseIxSaIxEED2Ev(%"struct.std::_Vector_base.1"* nonnull align 8 dereferenceable(24) %161) #21
  call void @llvm.lifetime.end.p0i8(i64 24, i8* nonnull %8) #19
  resume { i8*, i32 } %160
}

; Function Attrs: argmemonly mustprogress nofree nosync nounwind willreturn
declare void @llvm.lifetime.start.p0i8(i64 immarg, i8* nocapture) #4

; Function Attrs: minsize optsize sspstrong uwtable
define linkonce_odr dso_local void @_ZNSt6vectorIxSaIxEE9push_backERKx(%"class.std::vector.0"* nonnull align 8 dereferenceable(24) %0, i64* nonnull align 8 dereferenceable(8) %1) local_unnamed_addr #3 comdat align 2 {
  %3 = getelementptr inbounds %"class.std::vector.0", %"class.std::vector.0"* %0, i64 0, i32 0, i32 0, i32 0, i32 1
  %4 = load i64*, i64** %3, align 8, !tbaa !19
  %5 = getelementptr inbounds %"class.std::vector.0", %"class.std::vector.0"* %0, i64 0, i32 0, i32 0, i32 0, i32 2
  %6 = load i64*, i64** %5, align 8, !tbaa !25
  %7 = icmp eq i64* %4, %6
  br i1 %7, label %11, label %8

8:                                                ; preds = %2
  %9 = load i64, i64* %1, align 8, !tbaa !16
  store i64 %9, i64* %4, align 8, !tbaa !16
  %10 = getelementptr inbounds i64, i64* %4, i64 1
  store i64* %10, i64** %3, align 8, !tbaa !19
  br label %12

11:                                               ; preds = %2
  tail call void @_ZNSt6vectorIxSaIxEE17_M_realloc_insertIJRKxEEEvN9__gnu_cxx17__normal_iteratorIPxS1_EEDpOT_(%"class.std::vector.0"* nonnull align 8 dereferenceable(24) %0, i64* %4, i64* nonnull align 8 dereferenceable(8) %1) #20
  br label %12

12:                                               ; preds = %11, %8
  ret void
}

declare i32 @__gxx_personality_v0(...)

; Function Attrs: argmemonly mustprogress nofree nosync nounwind willreturn
declare void @llvm.lifetime.end.p0i8(i64 immarg, i8* nocapture) #4

; Function Attrs: minsize optsize sspstrong uwtable
define linkonce_odr dso_local i64* @_ZNSt6vectorIxSaIxEE5eraseEN9__gnu_cxx17__normal_iteratorIPKxS1_EES6_(%"class.std::vector.0"* nonnull align 8 dereferenceable(24) %0, i64* %1, i64* %2) local_unnamed_addr #3 comdat align 2 {
  %4 = getelementptr inbounds %"class.std::vector.0", %"class.std::vector.0"* %0, i64 0, i32 0, i32 0, i32 0, i32 0
  %5 = load i64*, i64** %4, align 8, !tbaa !11
  %6 = ptrtoint i64* %1 to i64
  %7 = ptrtoint i64* %5 to i64
  %8 = sub i64 %6, %7
  %9 = ashr exact i64 %8, 3
  %10 = getelementptr inbounds i64, i64* %5, i64 %9
  %11 = ptrtoint i64* %2 to i64
  %12 = sub i64 %11, %7
  %13 = ashr exact i64 %12, 3
  %14 = getelementptr inbounds i64, i64* %5, i64 %13
  %15 = tail call i64* @_ZNSt6vectorIxSaIxEE8_M_eraseEN9__gnu_cxx17__normal_iteratorIPxS1_EES5_(%"class.std::vector.0"* nonnull align 8 dereferenceable(24) %0, i64* %10, i64* %14) #20
  ret i64* %15
}

; Function Attrs: minsize optsize sspstrong uwtable
define linkonce_odr dso_local void @_ZNSt6vectorIxSaIxEEC2EmRKxRKS0_(%"class.std::vector.0"* nonnull align 8 dereferenceable(24) %0, i64 %1, i64* nonnull align 8 dereferenceable(8) %2, %"class.std::allocator.2"* nonnull align 1 dereferenceable(1) %3) unnamed_addr #3 comdat align 2 personality i8* bitcast (i32 (...)* @__gxx_personality_v0 to i8*) {
  %5 = getelementptr inbounds %"class.std::vector.0", %"class.std::vector.0"* %0, i64 0, i32 0
  %6 = tail call i64 @_ZNSt6vectorIxSaIxEE17_S_check_init_lenEmRKS0_(i64 %1, %"class.std::allocator.2"* nonnull align 1 dereferenceable(1) %3) #20
  %7 = bitcast %"class.std::vector.0"* %0 to i8*
  tail call void @llvm.memset.p0i8.i64(i8* noundef nonnull align 8 dereferenceable(24) %7, i8 0, i64 24, i1 false) #19
  tail call void @_ZNSt12_Vector_baseIxSaIxEE17_M_create_storageEm(%"struct.std::_Vector_base.1"* nonnull align 8 dereferenceable(24) %5, i64 %6) #20
  invoke void @_ZNSt6vectorIxSaIxEE18_M_fill_initializeEmRKx(%"class.std::vector.0"* nonnull align 8 dereferenceable(24) %0, i64 %1, i64* nonnull align 8 dereferenceable(8) %2) #20
          to label %8 unwind label %9

8:                                                ; preds = %4
  ret void

9:                                                ; preds = %4
  %10 = landingpad { i8*, i32 }
          cleanup
  tail call void @_ZNSt12_Vector_baseIxSaIxEED2Ev(%"struct.std::_Vector_base.1"* nonnull align 8 dereferenceable(24) %5) #21
  resume { i8*, i32 } %10
}

; Function Attrs: minsize norecurse optsize sspstrong uwtable
define dso_local i32 @main() local_unnamed_addr #5 personality i8* bitcast (i32 (...)* @__gxx_personality_v0 to i8*) {
  %1 = alloca i64, align 8
  %2 = alloca i64, align 8
  %3 = alloca i64, align 8
  %4 = alloca %"class.std::vector", align 8
  %5 = alloca %"class.std::vector.0", align 8
  %6 = alloca i64, align 8
  %7 = alloca %"struct.std::pair", align 8
  %8 = alloca i64, align 8
  %9 = alloca %"struct.std::pair", align 8
  %10 = alloca %"class.std::vector", align 8
  %11 = bitcast i64* %1 to i8*
  call void @llvm.lifetime.start.p0i8(i64 8, i8* nonnull %11) #19
  %12 = bitcast i64* %2 to i8*
  call void @llvm.lifetime.start.p0i8(i64 8, i8* nonnull %12) #19
  %13 = bitcast i64* %3 to i8*
  call void @llvm.lifetime.start.p0i8(i64 8, i8* nonnull %13) #19
  %14 = call nonnull align 8 dereferenceable(16) %"class.std::basic_istream"* @_ZNSi10_M_extractIxEERSiRT_(%"class.std::basic_istream"* nonnull align 8 dereferenceable(16) @_ZSt3cin, i64* nonnull align 8 dereferenceable(8) %1) #20
  %15 = call nonnull align 8 dereferenceable(16) %"class.std::basic_istream"* @_ZNSi10_M_extractIxEERSiRT_(%"class.std::basic_istream"* nonnull align 8 dereferenceable(16) %14, i64* nonnull align 8 dereferenceable(8) %2) #20
  %16 = call nonnull align 8 dereferenceable(16) %"class.std::basic_istream"* @_ZNSi10_M_extractIxEERSiRT_(%"class.std::basic_istream"* nonnull align 8 dereferenceable(16) %15, i64* nonnull align 8 dereferenceable(8) %3) #20
  %17 = load i64, i64* %3, align 8, !tbaa !16
  %18 = icmp slt i64 %17, 0
  br i1 %18, label %19, label %26

19:                                               ; preds = %0
  %20 = sub nsw i64 0, %17
  store i64 %20, i64* %3, align 8, !tbaa !16
  %21 = load i64, i64* %1, align 8, !tbaa !16
  %22 = add nsw i64 %21, -1
  %23 = mul i64 %22, %17
  %24 = load i64, i64* %2, align 8, !tbaa !16
  %25 = add i64 %23, %24
  store i64 %25, i64* %2, align 8, !tbaa !16
  br label %39

26:                                               ; preds = %0
  %27 = icmp eq i64 %17, 0
  br i1 %27, label %28, label %39

28:                                               ; preds = %26
  %29 = load i64, i64* %2, align 8, !tbaa !16
  %30 = icmp eq i64 %29, 0
  br i1 %30, label %31, label %34

31:                                               ; preds = %28
  %32 = call nonnull align 8 dereferenceable(8) %"class.std::basic_ostream"* @_ZNSolsEi(%"class.std::basic_ostream"* nonnull align 8 dereferenceable(8) @_ZSt4cout, i32 1) #20
  %33 = call nonnull align 8 dereferenceable(8) %"class.std::basic_ostream"* @_ZSt4endlIcSt11char_traitsIcEERSt13basic_ostreamIT_T0_ES6_(%"class.std::basic_ostream"* nonnull align 8 dereferenceable(8) %32) #20
  br label %211

34:                                               ; preds = %28
  %35 = load i64, i64* %1, align 8, !tbaa !16
  %36 = add nsw i64 %35, 1
  %37 = call nonnull align 8 dereferenceable(8) %"class.std::basic_ostream"* @_ZNSo9_M_insertIxEERSoT_(%"class.std::basic_ostream"* nonnull align 8 dereferenceable(8) @_ZSt4cout, i64 %36) #20
  %38 = call nonnull align 8 dereferenceable(8) %"class.std::basic_ostream"* @_ZSt4endlIcSt11char_traitsIcEERSt13basic_ostreamIT_T0_ES6_(%"class.std::basic_ostream"* nonnull align 8 dereferenceable(8) %37) #20
  br label %211

39:                                               ; preds = %26, %19
  %40 = bitcast %"class.std::vector"* %4 to i8*
  call void @llvm.lifetime.start.p0i8(i64 24, i8* nonnull %40) #19
  call void @llvm.memset.p0i8.i64(i8* noundef nonnull align 8 dereferenceable(24) %40, i8 0, i64 24, i1 false) #19
  %41 = bitcast %"class.std::vector.0"* %5 to i8*
  call void @llvm.lifetime.start.p0i8(i64 24, i8* nonnull %41) #19
  call void @llvm.memset.p0i8.i64(i8* noundef nonnull align 8 dereferenceable(24) %41, i8 0, i64 24, i1 false) #19
  %42 = bitcast i64* %6 to i8*
  %43 = bitcast %"struct.std::pair"* %7 to i8*
  %44 = getelementptr inbounds %"struct.std::pair", %"struct.std::pair"* %7, i64 0, i32 0
  %45 = getelementptr inbounds %"struct.std::pair", %"struct.std::pair"* %7, i64 0, i32 1
  br label %46

46:                                               ; preds = %80, %39
  %47 = phi i64 [ 0, %39 ], [ %81, %80 ]
  %48 = load i64, i64* %1, align 8, !tbaa !16
  %49 = icmp sgt i64 %47, %48
  br i1 %49, label %50, label %55

50:                                               ; preds = %46
  %51 = getelementptr inbounds %"class.std::vector.0", %"class.std::vector.0"* %5, i64 0, i32 0, i32 0, i32 0, i32 0
  %52 = load i64*, i64** %51, align 8, !tbaa !11
  %53 = getelementptr inbounds %"class.std::vector.0", %"class.std::vector.0"* %5, i64 0, i32 0, i32 0, i32 0, i32 1
  %54 = load i64*, i64** %53, align 8, !tbaa !11
  invoke void @_ZSt6__sortIN9__gnu_cxx17__normal_iteratorIPxSt6vectorIxSaIxEEEENS0_5__ops15_Iter_less_iterEEvT_S9_T0_(i64* %52, i64* %54) #20
          to label %88 unwind label %131

55:                                               ; preds = %46
  %56 = load i64, i64* %2, align 8, !tbaa !16
  %57 = mul nsw i64 %56, %47
  %58 = add nsw i64 %47, -1
  %59 = mul nsw i64 %58, %47
  %60 = sdiv i64 %59, 2
  %61 = shl nsw i64 %48, 1
  %62 = xor i64 %47, -1
  %63 = add i64 %61, %62
  %64 = mul nsw i64 %63, %47
  %65 = sdiv i64 %64, 2
  %66 = sub nsw i64 1, %60
  %67 = add i64 %66, %65
  call void @llvm.lifetime.start.p0i8(i64 8, i8* nonnull %42) #19
  %68 = load i64, i64* %3, align 8, !tbaa !16
  %69 = srem i64 %57, %68
  %70 = icmp slt i64 %69, 0
  br i1 %70, label %71, label %74

71:                                               ; preds = %55
  %72 = add nsw i64 %69, %68
  %73 = srem i64 %72, %68
  br label %74

74:                                               ; preds = %71, %55
  %75 = phi i64 [ %73, %71 ], [ %69, %55 ]
  store i64 %75, i64* %6, align 8, !tbaa !16
  invoke void @_ZNSt6vectorIxSaIxEE9push_backERKx(%"class.std::vector.0"* nonnull align 8 dereferenceable(24) %5, i64* nonnull align 8 dereferenceable(8) %6) #20
          to label %76 unwind label %82

76:                                               ; preds = %74
  call void @llvm.lifetime.start.p0i8(i64 16, i8* nonnull %43) #19
  %77 = load i64, i64* %3, align 8, !tbaa !16
  %78 = mul nsw i64 %77, %60
  %79 = add nsw i64 %78, %57
  store i64 %79, i64* %44, align 8, !tbaa !12
  store i64 %67, i64* %45, align 8, !tbaa !15
  invoke void @_ZNSt6vectorISt4pairIxxESaIS1_EE12emplace_backIJS1_EEEvDpOT_(%"class.std::vector"* nonnull align 8 dereferenceable(24) %4, %"struct.std::pair"* nonnull align 8 dereferenceable(16) %7) #20
          to label %80 unwind label %84

80:                                               ; preds = %76
  call void @llvm.lifetime.end.p0i8(i64 16, i8* nonnull %43) #19
  call void @llvm.lifetime.end.p0i8(i64 8, i8* nonnull %42) #19
  %81 = add nuw nsw i64 %47, 1
  br label %46, !llvm.loop !26

82:                                               ; preds = %74
  %83 = landingpad { i8*, i32 }
          cleanup
  br label %86

84:                                               ; preds = %76
  %85 = landingpad { i8*, i32 }
          cleanup
  call void @llvm.lifetime.end.p0i8(i64 16, i8* nonnull %43) #19
  br label %86

86:                                               ; preds = %84, %82
  %87 = phi { i8*, i32 } [ %85, %84 ], [ %83, %82 ]
  call void @llvm.lifetime.end.p0i8(i64 8, i8* nonnull %42) #19
  br label %223

88:                                               ; preds = %50
  %89 = load i64*, i64** %51, align 8, !tbaa !11
  %90 = load i64*, i64** %53, align 8, !tbaa !11
  %91 = invoke i64* @_ZSt8__uniqueIN9__gnu_cxx17__normal_iteratorIPxSt6vectorIxSaIxEEEENS0_5__ops19_Iter_equal_to_iterEET_S9_S9_T0_(i64* %89, i64* %90) #20
          to label %92 unwind label %133

92:                                               ; preds = %88
  %93 = load i64*, i64** %53, align 8, !tbaa !11
  %94 = invoke i64* @_ZNSt6vectorIxSaIxEE5eraseEN9__gnu_cxx17__normal_iteratorIPKxS1_EES6_(%"class.std::vector.0"* nonnull align 8 dereferenceable(24) %5, i64* %91, i64* %93) #20
          to label %95 unwind label %135

95:                                               ; preds = %92
  %96 = load i64*, i64** %53, align 8, !tbaa !19
  %97 = load i64*, i64** %51, align 8, !tbaa !21
  %98 = ptrtoint i64* %96 to i64
  %99 = ptrtoint i64* %97 to i64
  %100 = sub i64 %98, %99
  %101 = ashr exact i64 %100, 3
  %102 = add nsw i64 %101, 5
  %103 = call i8* @llvm.stacksave()
  %104 = alloca %"class.std::vector", i64 %102, align 16
  %105 = icmp eq i64 %102, 0
  br i1 %105, label %113, label %106

106:                                              ; preds = %95
  %107 = bitcast %"class.std::vector"* %104 to i8*
  %108 = mul i64 %101, 24
  %109 = add i64 %108, 96
  %110 = urem i64 %109, 24
  %111 = sub i64 %109, %110
  %112 = add i64 %111, 24
  call void @llvm.memset.p0i8.i64(i8* nonnull align 16 %107, i8 0, i64 %112, i1 false)
  br label %113

113:                                              ; preds = %106, %95
  %114 = getelementptr inbounds %"class.std::vector", %"class.std::vector"* %4, i64 0, i32 0, i32 0, i32 0, i32 1
  %115 = getelementptr inbounds %"class.std::vector", %"class.std::vector"* %4, i64 0, i32 0, i32 0, i32 0, i32 0
  %116 = bitcast i64* %8 to i8*
  %117 = bitcast %"struct.std::pair"* %9 to i8*
  %118 = getelementptr inbounds %"struct.std::pair", %"struct.std::pair"* %9, i64 0, i32 0
  %119 = getelementptr inbounds %"struct.std::pair", %"struct.std::pair"* %9, i64 0, i32 1
  br label %120

120:                                              ; preds = %167, %113
  %121 = phi i64 [ 0, %113 ], [ %168, %167 ]
  %122 = load %"struct.std::pair"*, %"struct.std::pair"** %114, align 8, !tbaa !5
  %123 = load %"struct.std::pair"*, %"struct.std::pair"** %115, align 8, !tbaa !10
  %124 = ptrtoint %"struct.std::pair"* %122 to i64
  %125 = ptrtoint %"struct.std::pair"* %123 to i64
  %126 = sub i64 %124, %125
  %127 = ashr exact i64 %126, 4
  %128 = icmp ult i64 %121, %127
  br i1 %128, label %137, label %129

129:                                              ; preds = %120
  %130 = getelementptr inbounds %"class.std::vector", %"class.std::vector"* %10, i64 0, i32 0
  br label %175

131:                                              ; preds = %50
  %132 = landingpad { i8*, i32 }
          cleanup
  br label %223

133:                                              ; preds = %88
  %134 = landingpad { i8*, i32 }
          cleanup
  br label %223

135:                                              ; preds = %92
  %136 = landingpad { i8*, i32 }
          cleanup
  br label %223

137:                                              ; preds = %120
  call void @llvm.lifetime.start.p0i8(i64 8, i8* nonnull %116) #19
  %138 = getelementptr inbounds %"struct.std::pair", %"struct.std::pair"* %123, i64 %121, i32 0
  %139 = load i64, i64* %138, align 8, !tbaa !12
  %140 = load i64, i64* %3, align 8, !tbaa !16
  %141 = srem i64 %139, %140
  %142 = icmp slt i64 %141, 0
  br i1 %142, label %143, label %146

143:                                              ; preds = %137
  %144 = add nsw i64 %141, %140
  %145 = srem i64 %144, %140
  br label %146

146:                                              ; preds = %143, %137
  %147 = phi i64 [ %145, %143 ], [ %141, %137 ]
  store i64 %147, i64* %8, align 8, !tbaa !16
  %148 = load i64*, i64** %51, align 8, !tbaa !11
  %149 = load i64*, i64** %53, align 8, !tbaa !11
  %150 = invoke i64* @_ZSt13__lower_boundIN9__gnu_cxx17__normal_iteratorIPxSt6vectorIxSaIxEEEExNS0_5__ops14_Iter_less_valEET_S9_S9_RKT0_T1_(i64* %148, i64* %149, i64* nonnull align 8 dereferenceable(8) %8) #20
          to label %151 unwind label %169

151:                                              ; preds = %146
  %152 = load i64*, i64** %51, align 8, !tbaa !11
  %153 = ptrtoint i64* %150 to i64
  %154 = ptrtoint i64* %152 to i64
  %155 = sub i64 %153, %154
  %156 = ashr exact i64 %155, 3
  %157 = load %"struct.std::pair"*, %"struct.std::pair"** %115, align 8, !tbaa !10
  %158 = getelementptr inbounds %"struct.std::pair", %"struct.std::pair"* %157, i64 %121, i32 0
  %159 = load i64, i64* %158, align 8, !tbaa !12
  %160 = load i64, i64* %8, align 8, !tbaa !16
  %161 = sub nsw i64 %159, %160
  %162 = load i64, i64* %3, align 8, !tbaa !16
  %163 = sdiv i64 %161, %162
  %164 = getelementptr inbounds %"class.std::vector", %"class.std::vector"* %104, i64 %156
  call void @llvm.lifetime.start.p0i8(i64 16, i8* nonnull %117) #19
  %165 = getelementptr inbounds %"struct.std::pair", %"struct.std::pair"* %157, i64 %121, i32 1
  store i64 %163, i64* %118, align 8, !tbaa !12
  %166 = load i64, i64* %165, align 8, !tbaa !16
  store i64 %166, i64* %119, align 8, !tbaa !15
  invoke void @_ZNSt6vectorISt4pairIxxESaIS1_EE12emplace_backIJS1_EEEvDpOT_(%"class.std::vector"* nonnull align 8 dereferenceable(24) %164, %"struct.std::pair"* nonnull align 8 dereferenceable(16) %9) #20
          to label %167 unwind label %171

167:                                              ; preds = %151
  call void @llvm.lifetime.end.p0i8(i64 16, i8* nonnull %117) #19
  call void @llvm.lifetime.end.p0i8(i64 8, i8* nonnull %116) #19
  %168 = add nuw nsw i64 %121, 1
  br label %120, !llvm.loop !27

169:                                              ; preds = %146
  %170 = landingpad { i8*, i32 }
          cleanup
  br label %173

171:                                              ; preds = %151
  %172 = landingpad { i8*, i32 }
          cleanup
  call void @llvm.lifetime.end.p0i8(i64 16, i8* nonnull %117) #19
  br label %173

173:                                              ; preds = %171, %169
  %174 = phi { i8*, i32 } [ %172, %171 ], [ %170, %169 ]
  call void @llvm.lifetime.end.p0i8(i64 8, i8* nonnull %116) #19
  br label %214

175:                                              ; preds = %129, %191
  %176 = phi i64 [ %192, %191 ], [ 0, %129 ]
  %177 = phi i64 [ %193, %191 ], [ 0, %129 ]
  %178 = load i64*, i64** %53, align 8, !tbaa !19
  %179 = load i64*, i64** %51, align 8, !tbaa !21
  %180 = ptrtoint i64* %178 to i64
  %181 = ptrtoint i64* %179 to i64
  %182 = sub i64 %180, %181
  %183 = ashr exact i64 %182, 3
  %184 = icmp ult i64 %177, %183
  br i1 %184, label %187, label %185

185:                                              ; preds = %175
  %186 = invoke nonnull align 8 dereferenceable(8) %"class.std::basic_ostream"* @_ZNSo9_M_insertIxEERSoT_(%"class.std::basic_ostream"* nonnull align 8 dereferenceable(8) @_ZSt4cout, i64 %176) #20
          to label %198 unwind label %212

187:                                              ; preds = %175
  %188 = getelementptr inbounds %"class.std::vector", %"class.std::vector"* %104, i64 %177
  invoke void @_ZNSt6vectorISt4pairIxxESaIS1_EEC2ERKS3_(%"class.std::vector"* nonnull align 8 dereferenceable(24) %10, %"class.std::vector"* nonnull align 8 dereferenceable(24) %188) #20
          to label %189 unwind label %194

189:                                              ; preds = %187
  %190 = invoke i64 @_Z5solveSt6vectorISt4pairIxxESaIS1_EE(%"class.std::vector"* nonnull %10) #20
          to label %191 unwind label %196

191:                                              ; preds = %189
  %192 = add nsw i64 %190, %176
  call void @_ZNSt12_Vector_baseISt4pairIxxESaIS1_EED2Ev(%"struct.std::_Vector_base"* nonnull align 8 dereferenceable(24) %130) #21
  %193 = add nuw nsw i64 %177, 1
  br label %175, !llvm.loop !28

194:                                              ; preds = %187
  %195 = landingpad { i8*, i32 }
          cleanup
  br label %214

196:                                              ; preds = %189
  %197 = landingpad { i8*, i32 }
          cleanup
  call void @_ZNSt12_Vector_baseISt4pairIxxESaIS1_EED2Ev(%"struct.std::_Vector_base"* nonnull align 8 dereferenceable(24) %130) #21
  br label %214

198:                                              ; preds = %185
  %199 = invoke nonnull align 8 dereferenceable(8) %"class.std::basic_ostream"* @_ZSt4endlIcSt11char_traitsIcEERSt13basic_ostreamIT_T0_ES6_(%"class.std::basic_ostream"* nonnull align 8 dereferenceable(8) %186) #20
          to label %200 unwind label %212

200:                                              ; preds = %198
  br i1 %105, label %208, label %201

201:                                              ; preds = %200
  %202 = getelementptr inbounds %"class.std::vector", %"class.std::vector"* %104, i64 %102
  br label %203

203:                                              ; preds = %201, %203
  %204 = phi %"class.std::vector"* [ %205, %203 ], [ %202, %201 ]
  %205 = getelementptr inbounds %"class.std::vector", %"class.std::vector"* %204, i64 -1
  %206 = getelementptr inbounds %"class.std::vector", %"class.std::vector"* %205, i64 0, i32 0
  call void @_ZNSt12_Vector_baseISt4pairIxxESaIS1_EED2Ev(%"struct.std::_Vector_base"* nonnull align 8 dereferenceable(24) %206) #21
  %207 = icmp eq %"class.std::vector"* %205, %104
  br i1 %207, label %208, label %203

208:                                              ; preds = %203, %200
  call void @llvm.stackrestore(i8* %103)
  %209 = getelementptr inbounds %"class.std::vector.0", %"class.std::vector.0"* %5, i64 0, i32 0
  call void @_ZNSt12_Vector_baseIxSaIxEED2Ev(%"struct.std::_Vector_base.1"* nonnull align 8 dereferenceable(24) %209) #21
  call void @llvm.lifetime.end.p0i8(i64 24, i8* nonnull %41) #19
  %210 = getelementptr inbounds %"class.std::vector", %"class.std::vector"* %4, i64 0, i32 0
  call void @_ZNSt12_Vector_baseISt4pairIxxESaIS1_EED2Ev(%"struct.std::_Vector_base"* nonnull align 8 dereferenceable(24) %210) #21
  call void @llvm.lifetime.end.p0i8(i64 24, i8* nonnull %40) #19
  br label %211

211:                                              ; preds = %31, %34, %208
  call void @llvm.lifetime.end.p0i8(i64 8, i8* nonnull %13) #19
  call void @llvm.lifetime.end.p0i8(i64 8, i8* nonnull %12) #19
  call void @llvm.lifetime.end.p0i8(i64 8, i8* nonnull %11) #19
  ret i32 0

212:                                              ; preds = %198, %185
  %213 = landingpad { i8*, i32 }
          cleanup
  br label %214

214:                                              ; preds = %212, %196, %194, %173
  %215 = phi { i8*, i32 } [ %174, %173 ], [ %213, %212 ], [ %197, %196 ], [ %195, %194 ]
  br i1 %105, label %223, label %216

216:                                              ; preds = %214
  %217 = getelementptr inbounds %"class.std::vector", %"class.std::vector"* %104, i64 %102
  br label %218

218:                                              ; preds = %216, %218
  %219 = phi %"class.std::vector"* [ %220, %218 ], [ %217, %216 ]
  %220 = getelementptr inbounds %"class.std::vector", %"class.std::vector"* %219, i64 -1
  %221 = getelementptr inbounds %"class.std::vector", %"class.std::vector"* %220, i64 0, i32 0
  call void @_ZNSt12_Vector_baseISt4pairIxxESaIS1_EED2Ev(%"struct.std::_Vector_base"* nonnull align 8 dereferenceable(24) %221) #21
  %222 = icmp eq %"class.std::vector"* %220, %104
  br i1 %222, label %223, label %218

223:                                              ; preds = %218, %133, %135, %214, %131, %86
  %224 = phi { i8*, i32 } [ %87, %86 ], [ %215, %214 ], [ %132, %131 ], [ %136, %135 ], [ %134, %133 ], [ %215, %218 ]
  %225 = getelementptr inbounds %"class.std::vector.0", %"class.std::vector.0"* %5, i64 0, i32 0
  call void @_ZNSt12_Vector_baseIxSaIxEED2Ev(%"struct.std::_Vector_base.1"* nonnull align 8 dereferenceable(24) %225) #21
  call void @llvm.lifetime.end.p0i8(i64 24, i8* nonnull %41) #19
  %226 = getelementptr inbounds %"class.std::vector", %"class.std::vector"* %4, i64 0, i32 0
  call void @_ZNSt12_Vector_baseISt4pairIxxESaIS1_EED2Ev(%"struct.std::_Vector_base"* nonnull align 8 dereferenceable(24) %226) #21
  call void @llvm.lifetime.end.p0i8(i64 24, i8* nonnull %40) #19
  call void @llvm.lifetime.end.p0i8(i64 8, i8* nonnull %13) #19
  call void @llvm.lifetime.end.p0i8(i64 8, i8* nonnull %12) #19
  call void @llvm.lifetime.end.p0i8(i64 8, i8* nonnull %11) #19
  resume { i8*, i32 } %224
}

; Function Attrs: minsize optsize
declare nonnull align 8 dereferenceable(8) %"class.std::basic_ostream"* @_ZNSolsEi(%"class.std::basic_ostream"* nonnull align 8 dereferenceable(8), i32) local_unnamed_addr #0

; Function Attrs: inlinehint minsize mustprogress optsize sspstrong uwtable
declare nonnull align 8 dereferenceable(8) %"class.std::basic_ostream"* @_ZSt4endlIcSt11char_traitsIcEERSt13basic_ostreamIT_T0_ES6_(%"class.std::basic_ostream"* nonnull align 8 dereferenceable(8)) local_unnamed_addr #6

; Function Attrs: mustprogress nofree nosync nounwind willreturn
declare i8* @llvm.stacksave() #7

; Function Attrs: minsize optsize sspstrong uwtable
define linkonce_odr dso_local void @_ZNSt6vectorISt4pairIxxESaIS1_EEC2ERKS3_(%"class.std::vector"* nonnull align 8 dereferenceable(24) %0, %"class.std::vector"* nonnull align 8 dereferenceable(24) %1) unnamed_addr #3 comdat align 2 personality i8* bitcast (i32 (...)* @__gxx_personality_v0 to i8*) {
  %3 = getelementptr inbounds %"class.std::vector", %"class.std::vector"* %0, i64 0, i32 0
  %4 = getelementptr inbounds %"class.std::vector", %"class.std::vector"* %1, i64 0, i32 0, i32 0, i32 0, i32 1
  %5 = load %"struct.std::pair"*, %"struct.std::pair"** %4, align 8, !tbaa !5
  %6 = getelementptr inbounds %"class.std::vector", %"class.std::vector"* %1, i64 0, i32 0, i32 0, i32 0, i32 0
  %7 = load %"struct.std::pair"*, %"struct.std::pair"** %6, align 8, !tbaa !10
  %8 = ptrtoint %"struct.std::pair"* %5 to i64
  %9 = ptrtoint %"struct.std::pair"* %7 to i64
  %10 = sub i64 %8, %9
  %11 = ashr exact i64 %10, 4
  %12 = bitcast %"class.std::vector"* %0 to i8*
  tail call void @llvm.memset.p0i8.i64(i8* noundef nonnull align 8 dereferenceable(24) %12, i8 0, i64 24, i1 false) #19
  tail call void @_ZNSt12_Vector_baseISt4pairIxxESaIS1_EE17_M_create_storageEm(%"struct.std::_Vector_base"* nonnull align 8 dereferenceable(24) %3, i64 %11) #20
  %13 = load %"struct.std::pair"*, %"struct.std::pair"** %6, align 8, !tbaa !11
  %14 = load %"struct.std::pair"*, %"struct.std::pair"** %4, align 8, !tbaa !11
  %15 = getelementptr inbounds %"class.std::vector", %"class.std::vector"* %0, i64 0, i32 0, i32 0, i32 0, i32 0
  %16 = load %"struct.std::pair"*, %"struct.std::pair"** %15, align 8, !tbaa !10
  br label %17

17:                                               ; preds = %21, %2
  %18 = phi %"struct.std::pair"* [ %13, %2 ], [ %24, %21 ]
  %19 = phi %"struct.std::pair"* [ %16, %2 ], [ %25, %21 ]
  %20 = icmp eq %"struct.std::pair"* %18, %14
  br i1 %20, label %26, label %21

21:                                               ; preds = %17
  %22 = bitcast %"struct.std::pair"* %19 to i8*
  %23 = bitcast %"struct.std::pair"* %18 to i8*
  tail call void @llvm.memcpy.p0i8.p0i8.i64(i8* noundef nonnull align 8 dereferenceable(16) %22, i8* noundef nonnull align 8 dereferenceable(16) %23, i64 16, i1 false) #19
  %24 = getelementptr inbounds %"struct.std::pair", %"struct.std::pair"* %18, i64 1
  %25 = getelementptr inbounds %"struct.std::pair", %"struct.std::pair"* %19, i64 1
  br label %17, !llvm.loop !29

26:                                               ; preds = %17
  %27 = getelementptr inbounds %"class.std::vector", %"class.std::vector"* %0, i64 0, i32 0, i32 0, i32 0, i32 1
  store %"struct.std::pair"* %19, %"struct.std::pair"** %27, align 8, !tbaa !5
  ret void
}

; Function Attrs: mustprogress nofree nosync nounwind willreturn
declare void @llvm.stackrestore(i8*) #7

; Function Attrs: minsize nounwind optsize sspstrong uwtable
define linkonce_odr dso_local void @_ZNSt12_Vector_baseIxSaIxEED2Ev(%"struct.std::_Vector_base.1"* nonnull align 8 dereferenceable(24) %0) unnamed_addr #8 comdat align 2 personality i8* bitcast (i32 (...)* @__gxx_personality_v0 to i8*) {
  %2 = getelementptr inbounds %"struct.std::_Vector_base.1", %"struct.std::_Vector_base.1"* %0, i64 0, i32 0, i32 0, i32 0
  %3 = load i64*, i64** %2, align 8, !tbaa !21
  %4 = icmp eq i64* %3, null
  br i1 %4, label %7, label %5

5:                                                ; preds = %1
  %6 = bitcast i64* %3 to i8*
  tail call void @_ZdlPv(i8* nonnull %6) #21
  br label %7

7:                                                ; preds = %5, %1
  ret void
}

; Function Attrs: minsize nobuiltin nounwind optsize
declare void @_ZdlPv(i8*) local_unnamed_addr #9

; Function Attrs: minsize optsize sspstrong uwtable
define linkonce_odr dso_local void @_ZNSt6vectorIxSaIxEE17_M_realloc_insertIJRKxEEEvN9__gnu_cxx17__normal_iteratorIPxS1_EEDpOT_(%"class.std::vector.0"* nonnull align 8 dereferenceable(24) %0, i64* %1, i64* nonnull align 8 dereferenceable(8) %2) local_unnamed_addr #3 comdat align 2 {
  %4 = tail call i64 @_ZNKSt6vectorIxSaIxEE12_M_check_lenEmPKc(%"class.std::vector.0"* nonnull align 8 dereferenceable(24) %0, i64 1, i8* getelementptr inbounds ([26 x i8], [26 x i8]* @.str, i64 0, i64 0)) #20
  %5 = getelementptr inbounds %"class.std::vector.0", %"class.std::vector.0"* %0, i64 0, i32 0
  %6 = getelementptr inbounds %"class.std::vector.0", %"class.std::vector.0"* %0, i64 0, i32 0, i32 0, i32 0, i32 0
  %7 = load i64*, i64** %6, align 8, !tbaa !21
  %8 = getelementptr inbounds %"class.std::vector.0", %"class.std::vector.0"* %0, i64 0, i32 0, i32 0, i32 0, i32 1
  %9 = load i64*, i64** %8, align 8, !tbaa !19
  %10 = ptrtoint i64* %1 to i64
  %11 = ptrtoint i64* %7 to i64
  %12 = sub i64 %10, %11
  %13 = ashr exact i64 %12, 3
  %14 = tail call i64* @_ZNSt12_Vector_baseIxSaIxEE11_M_allocateEm(%"struct.std::_Vector_base.1"* nonnull align 8 dereferenceable(24) %5, i64 %4) #20
  %15 = getelementptr inbounds i64, i64* %14, i64 %13
  %16 = load i64, i64* %2, align 8, !tbaa !16
  store i64 %16, i64* %15, align 8, !tbaa !16
  %17 = icmp sgt i64 %12, 0
  br i1 %17, label %18, label %21

18:                                               ; preds = %3
  %19 = bitcast i64* %14 to i8*
  %20 = bitcast i64* %7 to i8*
  tail call void @llvm.memmove.p0i8.p0i8.i64(i8* align 8 %19, i8* align 8 %20, i64 %12, i1 false) #19
  br label %21

21:                                               ; preds = %3, %18
  %22 = getelementptr inbounds i64, i64* %15, i64 1
  %23 = ptrtoint i64* %9 to i64
  %24 = sub i64 %23, %10
  %25 = icmp sgt i64 %24, 0
  br i1 %25, label %26, label %29

26:                                               ; preds = %21
  %27 = bitcast i64* %22 to i8*
  %28 = bitcast i64* %1 to i8*
  tail call void @llvm.memmove.p0i8.p0i8.i64(i8* nonnull align 8 %27, i8* align 8 %28, i64 %24, i1 false) #19
  br label %29

29:                                               ; preds = %21, %26
  %30 = icmp eq i64* %7, null
  br i1 %30, label %33, label %31

31:                                               ; preds = %29
  %32 = bitcast i64* %7 to i8*
  tail call void @_ZdlPv(i8* nonnull %32) #21
  br label %33

33:                                               ; preds = %29, %31
  %34 = getelementptr inbounds %"class.std::vector.0", %"class.std::vector.0"* %0, i64 0, i32 0, i32 0, i32 0, i32 2
  %35 = ashr exact i64 %24, 3
  %36 = getelementptr inbounds i64, i64* %22, i64 %35
  store i64* %14, i64** %6, align 8, !tbaa !21
  store i64* %36, i64** %8, align 8, !tbaa !19
  %37 = getelementptr inbounds i64, i64* %14, i64 %4
  store i64* %37, i64** %34, align 8, !tbaa !25
  ret void
}

; Function Attrs: minsize mustprogress optsize sspstrong uwtable
define linkonce_odr dso_local i64 @_ZNKSt6vectorIxSaIxEE12_M_check_lenEmPKc(%"class.std::vector.0"* nonnull align 8 dereferenceable(24) %0, i64 %1, i8* %2) local_unnamed_addr #10 comdat align 2 personality i32 (...)* @__gxx_personality_v0 {
  %4 = getelementptr inbounds %"class.std::vector.0", %"class.std::vector.0"* %0, i64 0, i32 0, i32 0, i32 0, i32 1
  %5 = load i64*, i64** %4, align 8, !tbaa !19
  %6 = getelementptr inbounds %"class.std::vector.0", %"class.std::vector.0"* %0, i64 0, i32 0, i32 0, i32 0, i32 0
  %7 = load i64*, i64** %6, align 8, !tbaa !21
  %8 = ptrtoint i64* %5 to i64
  %9 = ptrtoint i64* %7 to i64
  %10 = sub i64 %8, %9
  %11 = ashr exact i64 %10, 3
  %12 = sub nsw i64 1152921504606846975, %11
  %13 = icmp ult i64 %12, %1
  br i1 %13, label %14, label %15

14:                                               ; preds = %3
  tail call void @_ZSt20__throw_length_errorPKc(i8* %2) #22
  unreachable

15:                                               ; preds = %3
  %16 = icmp ult i64 %11, %1
  %17 = select i1 %16, i64 %1, i64 %11
  %18 = add i64 %17, %11
  %19 = icmp ult i64 %18, %11
  %20 = icmp ugt i64 %18, 1152921504606846975
  %21 = or i1 %19, %20
  %22 = select i1 %21, i64 1152921504606846975, i64 %18
  ret i64 %22
}

; Function Attrs: minsize mustprogress optsize sspstrong uwtable
define linkonce_odr dso_local i64* @_ZNSt12_Vector_baseIxSaIxEE11_M_allocateEm(%"struct.std::_Vector_base.1"* nonnull align 8 dereferenceable(24) %0, i64 %1) local_unnamed_addr #10 comdat align 2 {
  %3 = icmp eq i64 %1, 0
  br i1 %3, label %7, label %4

4:                                                ; preds = %2
  %5 = bitcast %"struct.std::_Vector_base.1"* %0 to %"class.std::allocator.2"*
  %6 = tail call i64* @_ZNSt16allocator_traitsISaIxEE8allocateERS0_m(%"class.std::allocator.2"* nonnull align 1 dereferenceable(1) %5, i64 %1) #20
  br label %7

7:                                                ; preds = %2, %4
  %8 = phi i64* [ %6, %4 ], [ null, %2 ]
  ret i64* %8
}

; Function Attrs: minsize noreturn optsize
declare void @_ZSt20__throw_length_errorPKc(i8*) local_unnamed_addr #11

; Function Attrs: minsize mustprogress optsize sspstrong uwtable
define linkonce_odr dso_local i64* @_ZNSt16allocator_traitsISaIxEE8allocateERS0_m(%"class.std::allocator.2"* nonnull align 1 dereferenceable(1) %0, i64 %1) local_unnamed_addr #10 comdat align 2 {
  %3 = bitcast %"class.std::allocator.2"* %0 to %"class.__gnu_cxx::new_allocator.3"*
  %4 = tail call i64* @_ZN9__gnu_cxx13new_allocatorIxE8allocateEmPKv(%"class.__gnu_cxx::new_allocator.3"* nonnull align 1 dereferenceable(1) %3, i64 %1, i8* null) #20
  ret i64* %4
}

; Function Attrs: minsize mustprogress optsize sspstrong uwtable
define linkonce_odr dso_local i64* @_ZN9__gnu_cxx13new_allocatorIxE8allocateEmPKv(%"class.__gnu_cxx::new_allocator.3"* nonnull align 1 dereferenceable(1) %0, i64 %1, i8* %2) local_unnamed_addr #10 comdat align 2 {
  %4 = icmp ugt i64 %1, 1152921504606846975
  br i1 %4, label %5, label %9, !prof !30

5:                                                ; preds = %3
  %6 = icmp ugt i64 %1, 2305843009213693951
  br i1 %6, label %7, label %8

7:                                                ; preds = %5
  tail call void @_ZSt28__throw_bad_array_new_lengthv() #22
  unreachable

8:                                                ; preds = %5
  tail call void @_ZSt17__throw_bad_allocv() #22
  unreachable

9:                                                ; preds = %3
  %10 = shl nuw nsw i64 %1, 3
  %11 = tail call noalias nonnull i8* @_Znwm(i64 %10) #23
  %12 = bitcast i8* %11 to i64*
  ret i64* %12
}

; Function Attrs: minsize noreturn optsize
declare void @_ZSt28__throw_bad_array_new_lengthv() local_unnamed_addr #11

; Function Attrs: minsize noreturn optsize
declare void @_ZSt17__throw_bad_allocv() local_unnamed_addr #11

; Function Attrs: minsize nobuiltin optsize allocsize(0)
declare nonnull i8* @_Znwm(i64) local_unnamed_addr #12

; Function Attrs: argmemonly mustprogress nofree nounwind willreturn
declare void @llvm.memmove.p0i8.p0i8.i64(i8* nocapture writeonly, i8* nocapture readonly, i64, i1 immarg) #13

; Function Attrs: minsize optsize sspstrong uwtable
define linkonce_odr dso_local void @_ZNSt6vectorIxSaIxEE12emplace_backIJxEEEvDpOT_(%"class.std::vector.0"* nonnull align 8 dereferenceable(24) %0, i64* nonnull align 8 dereferenceable(8) %1) local_unnamed_addr #3 comdat align 2 {
  %3 = getelementptr inbounds %"class.std::vector.0", %"class.std::vector.0"* %0, i64 0, i32 0, i32 0, i32 0, i32 1
  %4 = load i64*, i64** %3, align 8, !tbaa !19
  %5 = getelementptr inbounds %"class.std::vector.0", %"class.std::vector.0"* %0, i64 0, i32 0, i32 0, i32 0, i32 2
  %6 = load i64*, i64** %5, align 8, !tbaa !25
  %7 = icmp eq i64* %4, %6
  br i1 %7, label %11, label %8

8:                                                ; preds = %2
  %9 = load i64, i64* %1, align 8, !tbaa !16
  store i64 %9, i64* %4, align 8, !tbaa !16
  %10 = getelementptr inbounds i64, i64* %4, i64 1
  store i64* %10, i64** %3, align 8, !tbaa !19
  br label %12

11:                                               ; preds = %2
  tail call void @_ZNSt6vectorIxSaIxEE17_M_realloc_insertIJxEEEvN9__gnu_cxx17__normal_iteratorIPxS1_EEDpOT_(%"class.std::vector.0"* nonnull align 8 dereferenceable(24) %0, i64* %4, i64* nonnull align 8 dereferenceable(8) %1) #20
  br label %12

12:                                               ; preds = %11, %8
  ret void
}

; Function Attrs: minsize optsize sspstrong uwtable
define linkonce_odr dso_local void @_ZNSt6vectorIxSaIxEE17_M_realloc_insertIJxEEEvN9__gnu_cxx17__normal_iteratorIPxS1_EEDpOT_(%"class.std::vector.0"* nonnull align 8 dereferenceable(24) %0, i64* %1, i64* nonnull align 8 dereferenceable(8) %2) local_unnamed_addr #3 comdat align 2 {
  %4 = tail call i64 @_ZNKSt6vectorIxSaIxEE12_M_check_lenEmPKc(%"class.std::vector.0"* nonnull align 8 dereferenceable(24) %0, i64 1, i8* getelementptr inbounds ([26 x i8], [26 x i8]* @.str, i64 0, i64 0)) #20
  %5 = getelementptr inbounds %"class.std::vector.0", %"class.std::vector.0"* %0, i64 0, i32 0
  %6 = getelementptr inbounds %"class.std::vector.0", %"class.std::vector.0"* %0, i64 0, i32 0, i32 0, i32 0, i32 0
  %7 = load i64*, i64** %6, align 8, !tbaa !21
  %8 = getelementptr inbounds %"class.std::vector.0", %"class.std::vector.0"* %0, i64 0, i32 0, i32 0, i32 0, i32 1
  %9 = load i64*, i64** %8, align 8, !tbaa !19
  %10 = ptrtoint i64* %1 to i64
  %11 = ptrtoint i64* %7 to i64
  %12 = sub i64 %10, %11
  %13 = ashr exact i64 %12, 3
  %14 = tail call i64* @_ZNSt12_Vector_baseIxSaIxEE11_M_allocateEm(%"struct.std::_Vector_base.1"* nonnull align 8 dereferenceable(24) %5, i64 %4) #20
  %15 = getelementptr inbounds i64, i64* %14, i64 %13
  %16 = load i64, i64* %2, align 8, !tbaa !16
  store i64 %16, i64* %15, align 8, !tbaa !16
  %17 = icmp sgt i64 %12, 0
  br i1 %17, label %18, label %21

18:                                               ; preds = %3
  %19 = bitcast i64* %14 to i8*
  %20 = bitcast i64* %7 to i8*
  tail call void @llvm.memmove.p0i8.p0i8.i64(i8* align 8 %19, i8* align 8 %20, i64 %12, i1 false) #19
  br label %21

21:                                               ; preds = %3, %18
  %22 = getelementptr inbounds i64, i64* %15, i64 1
  %23 = ptrtoint i64* %9 to i64
  %24 = sub i64 %23, %10
  %25 = icmp sgt i64 %24, 0
  br i1 %25, label %26, label %29

26:                                               ; preds = %21
  %27 = bitcast i64* %22 to i8*
  %28 = bitcast i64* %1 to i8*
  tail call void @llvm.memmove.p0i8.p0i8.i64(i8* nonnull align 8 %27, i8* align 8 %28, i64 %24, i1 false) #19
  br label %29

29:                                               ; preds = %21, %26
  %30 = icmp eq i64* %7, null
  br i1 %30, label %33, label %31

31:                                               ; preds = %29
  %32 = bitcast i64* %7 to i8*
  tail call void @_ZdlPv(i8* nonnull %32) #21
  br label %33

33:                                               ; preds = %29, %31
  %34 = getelementptr inbounds %"class.std::vector.0", %"class.std::vector.0"* %0, i64 0, i32 0, i32 0, i32 0, i32 2
  %35 = ashr exact i64 %24, 3
  %36 = getelementptr inbounds i64, i64* %22, i64 %35
  store i64* %14, i64** %6, align 8, !tbaa !21
  store i64* %36, i64** %8, align 8, !tbaa !19
  %37 = getelementptr inbounds i64, i64* %14, i64 %4
  store i64* %37, i64** %34, align 8, !tbaa !25
  ret void
}

; Function Attrs: inlinehint minsize mustprogress optsize sspstrong uwtable
define linkonce_odr dso_local void @_ZSt6__sortIN9__gnu_cxx17__normal_iteratorIPxSt6vectorIxSaIxEEEENS0_5__ops15_Iter_less_iterEEvT_S9_T0_(i64* %0, i64* %1) local_unnamed_addr #6 comdat {
  %3 = icmp eq i64* %0, %1
  br i1 %3, label %12, label %4

4:                                                ; preds = %2
  %5 = ptrtoint i64* %1 to i64
  %6 = ptrtoint i64* %0 to i64
  %7 = sub i64 %5, %6
  %8 = ashr exact i64 %7, 3
  %9 = tail call i64 @llvm.ctlz.i64(i64 %8, i1 true) #19, !range !31
  %10 = shl nuw nsw i64 %9, 1
  %11 = xor i64 %10, 126
  tail call void @_ZSt16__introsort_loopIN9__gnu_cxx17__normal_iteratorIPxSt6vectorIxSaIxEEEElNS0_5__ops15_Iter_less_iterEEvT_S9_T0_T1_(i64* %0, i64* %1, i64 %11) #20
  tail call void @_ZSt22__final_insertion_sortIN9__gnu_cxx17__normal_iteratorIPxSt6vectorIxSaIxEEEENS0_5__ops15_Iter_less_iterEEvT_S9_T0_(i64* %0, i64* %1) #20
  br label %12

12:                                               ; preds = %4, %2
  ret void
}

; Function Attrs: argmemonly mustprogress nofree nounwind willreturn
declare void @llvm.memcpy.p0i8.p0i8.i64(i8* noalias nocapture writeonly, i8* noalias nocapture readonly, i64, i1 immarg) #13

; Function Attrs: minsize mustprogress optsize sspstrong uwtable
define linkonce_odr dso_local void @_ZSt16__introsort_loopIN9__gnu_cxx17__normal_iteratorIPxSt6vectorIxSaIxEEEElNS0_5__ops15_Iter_less_iterEEvT_S9_T0_T1_(i64* %0, i64* %1, i64 %2) local_unnamed_addr #10 comdat {
  %4 = ptrtoint i64* %0 to i64
  br label %5

5:                                                ; preds = %14, %3
  %6 = phi i64* [ %1, %3 ], [ %16, %14 ]
  %7 = phi i64 [ %2, %3 ], [ %15, %14 ]
  %8 = ptrtoint i64* %6 to i64
  %9 = sub i64 %8, %4
  %10 = icmp sgt i64 %9, 128
  br i1 %10, label %11, label %17

11:                                               ; preds = %5
  %12 = icmp eq i64 %7, 0
  br i1 %12, label %13, label %14

13:                                               ; preds = %11
  tail call void @_ZSt14__partial_sortIN9__gnu_cxx17__normal_iteratorIPxSt6vectorIxSaIxEEEENS0_5__ops15_Iter_less_iterEEvT_S9_S9_T0_(i64* %0, i64* %6, i64* %6) #20
  br label %17

14:                                               ; preds = %11
  %15 = add nsw i64 %7, -1
  %16 = tail call i64* @_ZSt27__unguarded_partition_pivotIN9__gnu_cxx17__normal_iteratorIPxSt6vectorIxSaIxEEEENS0_5__ops15_Iter_less_iterEET_S9_S9_T0_(i64* %0, i64* %6) #20
  tail call void @_ZSt16__introsort_loopIN9__gnu_cxx17__normal_iteratorIPxSt6vectorIxSaIxEEEElNS0_5__ops15_Iter_less_iterEEvT_S9_T0_T1_(i64* %16, i64* %6, i64 %15) #20
  br label %5, !llvm.loop !32

17:                                               ; preds = %5, %13
  ret void
}

; Function Attrs: minsize optsize sspstrong uwtable
define linkonce_odr dso_local void @_ZSt22__final_insertion_sortIN9__gnu_cxx17__normal_iteratorIPxSt6vectorIxSaIxEEEENS0_5__ops15_Iter_less_iterEEvT_S9_T0_(i64* %0, i64* %1) local_unnamed_addr #3 comdat {
  %3 = ptrtoint i64* %1 to i64
  %4 = ptrtoint i64* %0 to i64
  %5 = sub i64 %3, %4
  %6 = icmp sgt i64 %5, 128
  br i1 %6, label %7, label %9

7:                                                ; preds = %2
  %8 = getelementptr inbounds i64, i64* %0, i64 16
  tail call void @_ZSt16__insertion_sortIN9__gnu_cxx17__normal_iteratorIPxSt6vectorIxSaIxEEEENS0_5__ops15_Iter_less_iterEEvT_S9_T0_(i64* %0, i64* nonnull %8) #20
  tail call void @_ZSt26__unguarded_insertion_sortIN9__gnu_cxx17__normal_iteratorIPxSt6vectorIxSaIxEEEENS0_5__ops15_Iter_less_iterEEvT_S9_T0_(i64* nonnull %8, i64* %1) #20
  br label %10

9:                                                ; preds = %2
  tail call void @_ZSt16__insertion_sortIN9__gnu_cxx17__normal_iteratorIPxSt6vectorIxSaIxEEEENS0_5__ops15_Iter_less_iterEEvT_S9_T0_(i64* %0, i64* %1) #20
  br label %10

10:                                               ; preds = %9, %7
  ret void
}

; Function Attrs: inlinehint minsize mustprogress optsize sspstrong uwtable
define linkonce_odr dso_local void @_ZSt14__partial_sortIN9__gnu_cxx17__normal_iteratorIPxSt6vectorIxSaIxEEEENS0_5__ops15_Iter_less_iterEEvT_S9_S9_T0_(i64* %0, i64* %1, i64* %2) local_unnamed_addr #6 comdat {
  %4 = alloca %"struct.__gnu_cxx::__ops::_Iter_less_iter", align 1
  tail call void @_ZSt13__heap_selectIN9__gnu_cxx17__normal_iteratorIPxSt6vectorIxSaIxEEEENS0_5__ops15_Iter_less_iterEEvT_S9_S9_T0_(i64* %0, i64* %1, i64* %2) #20
  call void @_ZSt11__sort_heapIN9__gnu_cxx17__normal_iteratorIPxSt6vectorIxSaIxEEEENS0_5__ops15_Iter_less_iterEEvT_S9_RT0_(i64* %0, i64* %1, %"struct.__gnu_cxx::__ops::_Iter_less_iter"* nonnull align 1 dereferenceable(1) %4) #20
  ret void
}

; Function Attrs: inlinehint minsize optsize sspstrong uwtable
define linkonce_odr dso_local i64* @_ZSt27__unguarded_partition_pivotIN9__gnu_cxx17__normal_iteratorIPxSt6vectorIxSaIxEEEENS0_5__ops15_Iter_less_iterEET_S9_S9_T0_(i64* %0, i64* %1) local_unnamed_addr #14 comdat {
  %3 = ptrtoint i64* %1 to i64
  %4 = ptrtoint i64* %0 to i64
  %5 = sub i64 %3, %4
  %6 = ashr exact i64 %5, 3
  %7 = sdiv i64 %6, 2
  %8 = getelementptr inbounds i64, i64* %0, i64 %7
  %9 = getelementptr inbounds i64, i64* %0, i64 1
  %10 = getelementptr inbounds i64, i64* %1, i64 -1
  tail call void @_ZSt22__move_median_to_firstIN9__gnu_cxx17__normal_iteratorIPxSt6vectorIxSaIxEEEENS0_5__ops15_Iter_less_iterEEvT_S9_S9_S9_T0_(i64* %0, i64* nonnull %9, i64* %8, i64* nonnull %10) #20
  %11 = tail call i64* @_ZSt21__unguarded_partitionIN9__gnu_cxx17__normal_iteratorIPxSt6vectorIxSaIxEEEENS0_5__ops15_Iter_less_iterEET_S9_S9_S9_T0_(i64* nonnull %9, i64* %1, i64* %0) #20
  ret i64* %11
}

; Function Attrs: minsize mustprogress optsize sspstrong uwtable
define linkonce_odr dso_local void @_ZSt13__heap_selectIN9__gnu_cxx17__normal_iteratorIPxSt6vectorIxSaIxEEEENS0_5__ops15_Iter_less_iterEEvT_S9_S9_T0_(i64* %0, i64* %1, i64* %2) local_unnamed_addr #10 comdat {
  %4 = alloca %"struct.__gnu_cxx::__ops::_Iter_less_iter", align 1
  call void @_ZSt11__make_heapIN9__gnu_cxx17__normal_iteratorIPxSt6vectorIxSaIxEEEENS0_5__ops15_Iter_less_iterEEvT_S9_RT0_(i64* %0, i64* %1, %"struct.__gnu_cxx::__ops::_Iter_less_iter"* nonnull align 1 dereferenceable(1) %4) #20
  br label %5

5:                                                ; preds = %14, %3
  %6 = phi i64* [ %1, %3 ], [ %15, %14 ]
  %7 = icmp ult i64* %6, %2
  br i1 %7, label %9, label %8

8:                                                ; preds = %5
  ret void

9:                                                ; preds = %5
  %10 = load i64, i64* %6, align 8, !tbaa !16
  %11 = load i64, i64* %0, align 8, !tbaa !16
  %12 = icmp slt i64 %10, %11
  br i1 %12, label %13, label %14

13:                                               ; preds = %9
  call void @_ZSt10__pop_heapIN9__gnu_cxx17__normal_iteratorIPxSt6vectorIxSaIxEEEENS0_5__ops15_Iter_less_iterEEvT_S9_S9_RT0_(i64* nonnull %0, i64* %1, i64* nonnull %6, %"struct.__gnu_cxx::__ops::_Iter_less_iter"* nonnull align 1 dereferenceable(1) %4) #20
  br label %14

14:                                               ; preds = %9, %13
  %15 = getelementptr inbounds i64, i64* %6, i64 1
  br label %5, !llvm.loop !33
}

; Function Attrs: minsize mustprogress optsize sspstrong uwtable
define linkonce_odr dso_local void @_ZSt11__sort_heapIN9__gnu_cxx17__normal_iteratorIPxSt6vectorIxSaIxEEEENS0_5__ops15_Iter_less_iterEEvT_S9_RT0_(i64* %0, i64* %1, %"struct.__gnu_cxx::__ops::_Iter_less_iter"* nonnull align 1 dereferenceable(1) %2) local_unnamed_addr #10 comdat {
  %4 = ptrtoint i64* %0 to i64
  br label %5

5:                                                ; preds = %10, %3
  %6 = phi i64* [ %1, %3 ], [ %11, %10 ]
  %7 = ptrtoint i64* %6 to i64
  %8 = sub i64 %7, %4
  %9 = icmp sgt i64 %8, 8
  br i1 %9, label %10, label %12

10:                                               ; preds = %5
  %11 = getelementptr inbounds i64, i64* %6, i64 -1
  tail call void @_ZSt10__pop_heapIN9__gnu_cxx17__normal_iteratorIPxSt6vectorIxSaIxEEEENS0_5__ops15_Iter_less_iterEEvT_S9_S9_RT0_(i64* %0, i64* nonnull %11, i64* nonnull %11, %"struct.__gnu_cxx::__ops::_Iter_less_iter"* nonnull align 1 dereferenceable(1) %2) #20
  br label %5, !llvm.loop !34

12:                                               ; preds = %5
  ret void
}

; Function Attrs: minsize optsize sspstrong uwtable
define linkonce_odr dso_local void @_ZSt11__make_heapIN9__gnu_cxx17__normal_iteratorIPxSt6vectorIxSaIxEEEENS0_5__ops15_Iter_less_iterEEvT_S9_RT0_(i64* %0, i64* %1, %"struct.__gnu_cxx::__ops::_Iter_less_iter"* nonnull align 1 dereferenceable(1) %2) local_unnamed_addr #3 comdat {
  %4 = ptrtoint i64* %1 to i64
  %5 = ptrtoint i64* %0 to i64
  %6 = sub i64 %4, %5
  %7 = ashr exact i64 %6, 3
  %8 = icmp slt i64 %6, 16
  br i1 %8, label %18, label %9

9:                                                ; preds = %3
  %10 = add nsw i64 %7, -2
  %11 = lshr i64 %10, 1
  br label %12

12:                                               ; preds = %12, %9
  %13 = phi i64 [ %11, %9 ], [ %17, %12 ]
  %14 = getelementptr inbounds i64, i64* %0, i64 %13
  %15 = load i64, i64* %14, align 8, !tbaa !16
  tail call void @_ZSt13__adjust_heapIN9__gnu_cxx17__normal_iteratorIPxSt6vectorIxSaIxEEEElxNS0_5__ops15_Iter_less_iterEEvT_T0_SA_T1_T2_(i64* %0, i64 %13, i64 %7, i64 %15) #20
  %16 = icmp eq i64 %13, 0
  %17 = add nsw i64 %13, -1
  br i1 %16, label %18, label %12, !llvm.loop !35

18:                                               ; preds = %12, %3
  ret void
}

; Function Attrs: inlinehint minsize mustprogress optsize sspstrong uwtable
define linkonce_odr dso_local void @_ZSt10__pop_heapIN9__gnu_cxx17__normal_iteratorIPxSt6vectorIxSaIxEEEENS0_5__ops15_Iter_less_iterEEvT_S9_S9_RT0_(i64* %0, i64* %1, i64* %2, %"struct.__gnu_cxx::__ops::_Iter_less_iter"* nonnull align 1 dereferenceable(1) %3) local_unnamed_addr #6 comdat {
  %5 = load i64, i64* %2, align 8, !tbaa !16
  %6 = load i64, i64* %0, align 8, !tbaa !16
  store i64 %6, i64* %2, align 8, !tbaa !16
  %7 = ptrtoint i64* %1 to i64
  %8 = ptrtoint i64* %0 to i64
  %9 = sub i64 %7, %8
  %10 = ashr exact i64 %9, 3
  tail call void @_ZSt13__adjust_heapIN9__gnu_cxx17__normal_iteratorIPxSt6vectorIxSaIxEEEElxNS0_5__ops15_Iter_less_iterEEvT_T0_SA_T1_T2_(i64* nonnull %0, i64 0, i64 %10, i64 %5) #20
  ret void
}

; Function Attrs: minsize optsize sspstrong uwtable
define linkonce_odr dso_local void @_ZSt13__adjust_heapIN9__gnu_cxx17__normal_iteratorIPxSt6vectorIxSaIxEEEElxNS0_5__ops15_Iter_less_iterEEvT_T0_SA_T1_T2_(i64* %0, i64 %1, i64 %2, i64 %3) local_unnamed_addr #3 comdat {
  %5 = alloca %"struct.__gnu_cxx::__ops::_Iter_less_val", align 1
  %6 = add nsw i64 %2, -1
  %7 = sdiv i64 %6, 2
  br label %8

8:                                                ; preds = %11, %4
  %9 = phi i64 [ %1, %4 ], [ %20, %11 ]
  %10 = icmp slt i64 %9, %7
  br i1 %10, label %11, label %24

11:                                               ; preds = %8
  %12 = shl i64 %9, 1
  %13 = add i64 %12, 2
  %14 = getelementptr inbounds i64, i64* %0, i64 %13
  %15 = or i64 %12, 1
  %16 = getelementptr inbounds i64, i64* %0, i64 %15
  %17 = load i64, i64* %14, align 8, !tbaa !16
  %18 = load i64, i64* %16, align 8, !tbaa !16
  %19 = icmp slt i64 %17, %18
  %20 = select i1 %19, i64 %15, i64 %13
  %21 = getelementptr inbounds i64, i64* %0, i64 %20
  %22 = load i64, i64* %21, align 8, !tbaa !16
  %23 = getelementptr inbounds i64, i64* %0, i64 %9
  store i64 %22, i64* %23, align 8, !tbaa !16
  br label %8, !llvm.loop !36

24:                                               ; preds = %8
  %25 = and i64 %2, 1
  %26 = icmp eq i64 %25, 0
  br i1 %26, label %27, label %37

27:                                               ; preds = %24
  %28 = add nsw i64 %2, -2
  %29 = sdiv i64 %28, 2
  %30 = icmp eq i64 %9, %29
  br i1 %30, label %31, label %37

31:                                               ; preds = %27
  %32 = shl i64 %9, 1
  %33 = or i64 %32, 1
  %34 = getelementptr inbounds i64, i64* %0, i64 %33
  %35 = load i64, i64* %34, align 8, !tbaa !16
  %36 = getelementptr inbounds i64, i64* %0, i64 %9
  store i64 %35, i64* %36, align 8, !tbaa !16
  br label %37

37:                                               ; preds = %31, %27, %24
  %38 = phi i64 [ %33, %31 ], [ %9, %27 ], [ %9, %24 ]
  %39 = getelementptr inbounds %"struct.__gnu_cxx::__ops::_Iter_less_val", %"struct.__gnu_cxx::__ops::_Iter_less_val"* %5, i64 0, i32 0
  call void @llvm.lifetime.start.p0i8(i64 1, i8* nonnull %39) #19
  call void @_ZSt11__push_heapIN9__gnu_cxx17__normal_iteratorIPxSt6vectorIxSaIxEEEElxNS0_5__ops14_Iter_less_valEEvT_T0_SA_T1_RT2_(i64* %0, i64 %38, i64 %1, i64 %3, %"struct.__gnu_cxx::__ops::_Iter_less_val"* nonnull align 1 dereferenceable(1) %5) #20
  call void @llvm.lifetime.end.p0i8(i64 1, i8* nonnull %39) #19
  ret void
}

; Function Attrs: minsize optsize sspstrong uwtable
define linkonce_odr dso_local void @_ZSt11__push_heapIN9__gnu_cxx17__normal_iteratorIPxSt6vectorIxSaIxEEEElxNS0_5__ops14_Iter_less_valEEvT_T0_SA_T1_RT2_(i64* %0, i64 %1, i64 %2, i64 %3, %"struct.__gnu_cxx::__ops::_Iter_less_val"* nonnull align 1 dereferenceable(1) %4) local_unnamed_addr #3 comdat {
  br label %6

6:                                                ; preds = %15, %5
  %7 = phi i64 [ %1, %5 ], [ %9, %15 ]
  %8 = add nsw i64 %7, -1
  %9 = sdiv i64 %8, 2
  %10 = icmp sgt i64 %7, %2
  br i1 %10, label %11, label %17

11:                                               ; preds = %6
  %12 = getelementptr inbounds i64, i64* %0, i64 %9
  %13 = load i64, i64* %12, align 8, !tbaa !16
  %14 = icmp slt i64 %13, %3
  br i1 %14, label %15, label %17

15:                                               ; preds = %11
  %16 = getelementptr inbounds i64, i64* %0, i64 %7
  store i64 %13, i64* %16, align 8, !tbaa !16
  br label %6, !llvm.loop !37

17:                                               ; preds = %6, %11
  %18 = getelementptr inbounds i64, i64* %0, i64 %7
  store i64 %3, i64* %18, align 8, !tbaa !16
  ret void
}

; Function Attrs: minsize mustprogress optsize sspstrong uwtable
define linkonce_odr dso_local void @_ZSt22__move_median_to_firstIN9__gnu_cxx17__normal_iteratorIPxSt6vectorIxSaIxEEEENS0_5__ops15_Iter_less_iterEEvT_S9_S9_S9_T0_(i64* %0, i64* %1, i64* %2, i64* %3) local_unnamed_addr #10 comdat {
  %5 = load i64, i64* %1, align 8, !tbaa !16
  %6 = load i64, i64* %2, align 8, !tbaa !16
  %7 = icmp slt i64 %5, %6
  %8 = load i64, i64* %3, align 8, !tbaa !16
  br i1 %7, label %9, label %18

9:                                                ; preds = %4
  %10 = icmp slt i64 %6, %8
  br i1 %10, label %11, label %13

11:                                               ; preds = %9
  %12 = load i64, i64* %0, align 8, !tbaa !16
  store i64 %6, i64* %0, align 8, !tbaa !16
  store i64 %12, i64* %2, align 8, !tbaa !16
  br label %27

13:                                               ; preds = %9
  %14 = icmp slt i64 %5, %8
  %15 = load i64, i64* %0, align 8, !tbaa !16
  br i1 %14, label %16, label %17

16:                                               ; preds = %13
  store i64 %8, i64* %0, align 8, !tbaa !16
  store i64 %15, i64* %3, align 8, !tbaa !16
  br label %27

17:                                               ; preds = %13
  store i64 %5, i64* %0, align 8, !tbaa !16
  store i64 %15, i64* %1, align 8, !tbaa !16
  br label %27

18:                                               ; preds = %4
  %19 = icmp slt i64 %5, %8
  br i1 %19, label %20, label %22

20:                                               ; preds = %18
  %21 = load i64, i64* %0, align 8, !tbaa !16
  store i64 %5, i64* %0, align 8, !tbaa !16
  store i64 %21, i64* %1, align 8, !tbaa !16
  br label %27

22:                                               ; preds = %18
  %23 = icmp slt i64 %6, %8
  %24 = load i64, i64* %0, align 8, !tbaa !16
  br i1 %23, label %25, label %26

25:                                               ; preds = %22
  store i64 %8, i64* %0, align 8, !tbaa !16
  store i64 %24, i64* %3, align 8, !tbaa !16
  br label %27

26:                                               ; preds = %22
  store i64 %6, i64* %0, align 8, !tbaa !16
  store i64 %24, i64* %2, align 8, !tbaa !16
  br label %27

27:                                               ; preds = %20, %26, %25, %11, %17, %16
  ret void
}

; Function Attrs: minsize mustprogress nounwind optsize sspstrong uwtable
define linkonce_odr dso_local i64* @_ZSt21__unguarded_partitionIN9__gnu_cxx17__normal_iteratorIPxSt6vectorIxSaIxEEEENS0_5__ops15_Iter_less_iterEET_S9_S9_S9_T0_(i64* %0, i64* %1, i64* %2) local_unnamed_addr #15 comdat {
  br label %4

4:                                                ; preds = %3, %21
  %5 = phi i64* [ %0, %3 ], [ %12, %21 ]
  %6 = phi i64* [ %1, %3 ], [ %15, %21 ]
  %7 = load i64, i64* %2, align 8, !tbaa !16
  br label %8

8:                                                ; preds = %8, %4
  %9 = phi i64* [ %5, %4 ], [ %12, %8 ]
  %10 = load i64, i64* %9, align 8, !tbaa !16
  %11 = icmp slt i64 %10, %7
  %12 = getelementptr inbounds i64, i64* %9, i64 1
  br i1 %11, label %8, label %13, !llvm.loop !38

13:                                               ; preds = %8, %13
  %14 = phi i64* [ %15, %13 ], [ %6, %8 ]
  %15 = getelementptr inbounds i64, i64* %14, i64 -1
  %16 = load i64, i64* %15, align 8, !tbaa !16
  %17 = icmp slt i64 %7, %16
  br i1 %17, label %13, label %18, !llvm.loop !39

18:                                               ; preds = %13
  %19 = icmp ult i64* %9, %15
  br i1 %19, label %21, label %20

20:                                               ; preds = %18
  ret i64* %9

21:                                               ; preds = %18
  store i64 %16, i64* %9, align 8, !tbaa !16
  store i64 %10, i64* %15, align 8, !tbaa !16
  br label %4, !llvm.loop !40
}

; Function Attrs: mustprogress nofree nosync nounwind readnone speculatable willreturn
declare i64 @llvm.ctlz.i64(i64, i1 immarg) #16

; Function Attrs: minsize optsize sspstrong uwtable
define linkonce_odr dso_local void @_ZSt16__insertion_sortIN9__gnu_cxx17__normal_iteratorIPxSt6vectorIxSaIxEEEENS0_5__ops15_Iter_less_iterEEvT_S9_T0_(i64* %0, i64* %1) local_unnamed_addr #3 comdat {
  %3 = icmp eq i64* %0, %1
  br i1 %3, label %27, label %4

4:                                                ; preds = %2
  %5 = ptrtoint i64* %0 to i64
  %6 = bitcast i64* %0 to i8*
  br label %7

7:                                                ; preds = %25, %4
  %8 = phi i64* [ %0, %4 ], [ %9, %25 ]
  %9 = getelementptr inbounds i64, i64* %8, i64 1
  %10 = icmp eq i64* %9, %1
  br i1 %10, label %27, label %11

11:                                               ; preds = %7
  %12 = load i64, i64* %9, align 8, !tbaa !16
  %13 = load i64, i64* %0, align 8, !tbaa !16
  %14 = icmp slt i64 %12, %13
  br i1 %14, label %15, label %26

15:                                               ; preds = %11
  %16 = ptrtoint i64* %9 to i64
  %17 = sub i64 %16, %5
  %18 = icmp eq i64 %17, 0
  br i1 %18, label %24, label %19

19:                                               ; preds = %15
  %20 = ashr exact i64 %17, 3
  %21 = sub nsw i64 2, %20
  %22 = getelementptr inbounds i64, i64* %8, i64 %21
  %23 = bitcast i64* %22 to i8*
  tail call void @llvm.memmove.p0i8.p0i8.i64(i8* nonnull align 8 %23, i8* nonnull align 8 %6, i64 %17, i1 false) #19
  br label %24

24:                                               ; preds = %15, %19
  store i64 %12, i64* %0, align 8, !tbaa !16
  br label %25

25:                                               ; preds = %24, %26
  br label %7, !llvm.loop !41

26:                                               ; preds = %11
  tail call void @_ZSt25__unguarded_linear_insertIN9__gnu_cxx17__normal_iteratorIPxSt6vectorIxSaIxEEEENS0_5__ops14_Val_less_iterEEvT_T0_(i64* nonnull %9) #20
  br label %25

27:                                               ; preds = %7, %2
  ret void
}

; Function Attrs: inlinehint minsize mustprogress optsize sspstrong uwtable
define linkonce_odr dso_local void @_ZSt26__unguarded_insertion_sortIN9__gnu_cxx17__normal_iteratorIPxSt6vectorIxSaIxEEEENS0_5__ops15_Iter_less_iterEEvT_S9_T0_(i64* %0, i64* %1) local_unnamed_addr #6 comdat {
  br label %3

3:                                                ; preds = %7, %2
  %4 = phi i64* [ %0, %2 ], [ %8, %7 ]
  %5 = icmp eq i64* %4, %1
  br i1 %5, label %6, label %7

6:                                                ; preds = %3
  ret void

7:                                                ; preds = %3
  tail call void @_ZSt25__unguarded_linear_insertIN9__gnu_cxx17__normal_iteratorIPxSt6vectorIxSaIxEEEENS0_5__ops14_Val_less_iterEEvT_T0_(i64* %4) #20
  %8 = getelementptr inbounds i64, i64* %4, i64 1
  br label %3, !llvm.loop !42
}

; Function Attrs: minsize mustprogress optsize sspstrong uwtable
define linkonce_odr dso_local void @_ZSt25__unguarded_linear_insertIN9__gnu_cxx17__normal_iteratorIPxSt6vectorIxSaIxEEEENS0_5__ops14_Val_less_iterEEvT_T0_(i64* %0) local_unnamed_addr #10 comdat {
  %2 = load i64, i64* %0, align 8, !tbaa !16
  br label %3

3:                                                ; preds = %8, %1
  %4 = phi i64* [ %0, %1 ], [ %5, %8 ]
  %5 = getelementptr inbounds i64, i64* %4, i64 -1
  %6 = load i64, i64* %5, align 8, !tbaa !16
  %7 = icmp slt i64 %2, %6
  br i1 %7, label %8, label %9

8:                                                ; preds = %3
  store i64 %6, i64* %4, align 8, !tbaa !16
  br label %3, !llvm.loop !43

9:                                                ; preds = %3
  store i64 %2, i64* %4, align 8, !tbaa !16
  ret void
}

; Function Attrs: minsize mustprogress optsize sspstrong uwtable
define linkonce_odr dso_local i64* @_ZSt8__uniqueIN9__gnu_cxx17__normal_iteratorIPxSt6vectorIxSaIxEEEENS0_5__ops19_Iter_equal_to_iterEET_S9_S9_T0_(i64* %0, i64* %1) local_unnamed_addr #10 comdat {
  %3 = tail call i64* @_ZSt15__adjacent_findIN9__gnu_cxx17__normal_iteratorIPxSt6vectorIxSaIxEEEENS0_5__ops19_Iter_equal_to_iterEET_S9_S9_T0_(i64* %0, i64* %1) #20
  %4 = icmp eq i64* %3, %1
  br i1 %4, label %22, label %5

5:                                                ; preds = %2
  %6 = getelementptr inbounds i64, i64* %3, i64 1
  br label %7

7:                                                ; preds = %18, %5
  %8 = phi i64* [ %12, %18 ], [ %6, %5 ]
  %9 = phi i64* [ %19, %18 ], [ %3, %5 ]
  br label %10

10:                                               ; preds = %7, %14
  %11 = phi i64* [ %12, %14 ], [ %8, %7 ]
  %12 = getelementptr inbounds i64, i64* %11, i64 1
  %13 = icmp eq i64* %12, %1
  br i1 %13, label %20, label %14

14:                                               ; preds = %10
  %15 = load i64, i64* %9, align 8, !tbaa !16
  %16 = load i64, i64* %12, align 8, !tbaa !16
  %17 = icmp eq i64 %15, %16
  br i1 %17, label %10, label %18, !llvm.loop !44

18:                                               ; preds = %14
  %19 = getelementptr inbounds i64, i64* %9, i64 1
  store i64 %16, i64* %19, align 8, !tbaa !16
  br label %7, !llvm.loop !44

20:                                               ; preds = %10
  %21 = getelementptr inbounds i64, i64* %9, i64 1
  br label %22

22:                                               ; preds = %2, %20
  %23 = phi i64* [ %21, %20 ], [ %1, %2 ]
  ret i64* %23
}

; Function Attrs: minsize mustprogress optsize sspstrong uwtable
define linkonce_odr dso_local i64* @_ZSt15__adjacent_findIN9__gnu_cxx17__normal_iteratorIPxSt6vectorIxSaIxEEEENS0_5__ops19_Iter_equal_to_iterEET_S9_S9_T0_(i64* %0, i64* %1) local_unnamed_addr #10 comdat {
  %3 = icmp eq i64* %0, %1
  br i1 %3, label %12, label %4

4:                                                ; preds = %2, %8
  %5 = phi i64* [ %6, %8 ], [ %0, %2 ]
  %6 = getelementptr inbounds i64, i64* %5, i64 1
  %7 = icmp eq i64* %6, %1
  br i1 %7, label %12, label %8

8:                                                ; preds = %4
  %9 = load i64, i64* %5, align 8, !tbaa !16
  %10 = load i64, i64* %6, align 8, !tbaa !16
  %11 = icmp eq i64 %9, %10
  br i1 %11, label %12, label %4, !llvm.loop !45

12:                                               ; preds = %8, %4, %2
  %13 = phi i64* [ %0, %2 ], [ %1, %4 ], [ %5, %8 ]
  ret i64* %13
}

; Function Attrs: minsize optsize sspstrong uwtable
define linkonce_odr dso_local i64* @_ZNSt6vectorIxSaIxEE8_M_eraseEN9__gnu_cxx17__normal_iteratorIPxS1_EES5_(%"class.std::vector.0"* nonnull align 8 dereferenceable(24) %0, i64* %1, i64* %2) local_unnamed_addr #3 comdat align 2 personality i32 (...)* @__gxx_personality_v0 {
  %4 = icmp eq i64* %1, %2
  br i1 %4, label %30, label %5

5:                                                ; preds = %3
  %6 = getelementptr inbounds %"class.std::vector.0", %"class.std::vector.0"* %0, i64 0, i32 0, i32 0, i32 0, i32 1
  %7 = load i64*, i64** %6, align 8, !tbaa !11
  %8 = icmp eq i64* %7, %2
  br i1 %8, label %9, label %11

9:                                                ; preds = %5
  %10 = ptrtoint i64* %2 to i64
  br label %21

11:                                               ; preds = %5
  %12 = ptrtoint i64* %7 to i64
  %13 = ptrtoint i64* %2 to i64
  %14 = sub i64 %12, %13
  %15 = icmp eq i64 %14, 0
  br i1 %15, label %21, label %16

16:                                               ; preds = %11
  %17 = bitcast i64* %1 to i8*
  %18 = bitcast i64* %2 to i8*
  tail call void @llvm.memmove.p0i8.p0i8.i64(i8* align 8 %17, i8* align 8 %18, i64 %14, i1 false) #19
  %19 = load i64*, i64** %6, align 8, !tbaa !11
  %20 = ptrtoint i64* %19 to i64
  br label %21

21:                                               ; preds = %9, %16, %11
  %22 = phi i64 [ %10, %9 ], [ %20, %16 ], [ %12, %11 ]
  %23 = phi i64 [ %10, %9 ], [ %13, %16 ], [ %13, %11 ]
  %24 = phi i64* [ %2, %9 ], [ %19, %16 ], [ %7, %11 ]
  %25 = sub i64 %22, %23
  %26 = ashr exact i64 %25, 3
  %27 = getelementptr inbounds i64, i64* %1, i64 %26
  %28 = icmp eq i64* %24, %27
  br i1 %28, label %30, label %29

29:                                               ; preds = %21
  store i64* %27, i64** %6, align 8, !tbaa !19
  br label %30

30:                                               ; preds = %29, %21, %3
  ret i64* %1
}

; Function Attrs: minsize optsize sspstrong uwtable
define linkonce_odr dso_local i64 @_ZNSt6vectorIxSaIxEE17_S_check_init_lenEmRKS0_(i64 %0, %"class.std::allocator.2"* nonnull align 1 dereferenceable(1) %1) local_unnamed_addr #3 comdat align 2 personality i32 (...)* @__gxx_personality_v0 {
  %3 = icmp ugt i64 %0, 1152921504606846975
  br i1 %3, label %4, label %5

4:                                                ; preds = %2
  tail call void @_ZSt20__throw_length_errorPKc(i8* getelementptr inbounds ([49 x i8], [49 x i8]* @.str.1, i64 0, i64 0)) #22
  unreachable

5:                                                ; preds = %2
  ret i64 %0
}

; Function Attrs: minsize mustprogress optsize sspstrong uwtable
define linkonce_odr dso_local void @_ZNSt6vectorIxSaIxEE18_M_fill_initializeEmRKx(%"class.std::vector.0"* nonnull align 8 dereferenceable(24) %0, i64 %1, i64* nonnull align 8 dereferenceable(8) %2) local_unnamed_addr #10 comdat align 2 {
  %4 = getelementptr inbounds %"class.std::vector.0", %"class.std::vector.0"* %0, i64 0, i32 0, i32 0, i32 0, i32 0
  %5 = load i64*, i64** %4, align 8, !tbaa !21
  %6 = tail call i64* @_ZSt10__fill_n_aIPxmxET_S1_T0_RKT1_St26random_access_iterator_tag(i64* %5, i64 %1, i64* nonnull align 8 dereferenceable(8) %2) #20
  %7 = getelementptr inbounds %"class.std::vector.0", %"class.std::vector.0"* %0, i64 0, i32 0, i32 0, i32 0, i32 1
  store i64* %6, i64** %7, align 8, !tbaa !19
  ret void
}

; Function Attrs: minsize mustprogress optsize sspstrong uwtable
define linkonce_odr dso_local void @_ZNSt12_Vector_baseIxSaIxEE17_M_create_storageEm(%"struct.std::_Vector_base.1"* nonnull align 8 dereferenceable(24) %0, i64 %1) local_unnamed_addr #10 comdat align 2 {
  %3 = tail call i64* @_ZNSt12_Vector_baseIxSaIxEE11_M_allocateEm(%"struct.std::_Vector_base.1"* nonnull align 8 dereferenceable(24) %0, i64 %1) #20
  %4 = getelementptr inbounds %"struct.std::_Vector_base.1", %"struct.std::_Vector_base.1"* %0, i64 0, i32 0, i32 0, i32 0
  store i64* %3, i64** %4, align 8, !tbaa !21
  %5 = getelementptr inbounds %"struct.std::_Vector_base.1", %"struct.std::_Vector_base.1"* %0, i64 0, i32 0, i32 0, i32 1
  store i64* %3, i64** %5, align 8, !tbaa !19
  %6 = getelementptr inbounds i64, i64* %3, i64 %1
  %7 = getelementptr inbounds %"struct.std::_Vector_base.1", %"struct.std::_Vector_base.1"* %0, i64 0, i32 0, i32 0, i32 2
  store i64* %6, i64** %7, align 8, !tbaa !25
  ret void
}

; Function Attrs: inlinehint minsize mustprogress optsize sspstrong uwtable
define linkonce_odr dso_local i64* @_ZSt10__fill_n_aIPxmxET_S1_T0_RKT1_St26random_access_iterator_tag(i64* %0, i64 %1, i64* nonnull align 8 dereferenceable(8) %2) local_unnamed_addr #6 comdat {
  %4 = icmp eq i64 %1, 0
  br i1 %4, label %13, label %5

5:                                                ; preds = %3
  %6 = getelementptr inbounds i64, i64* %0, i64 %1
  %7 = load i64, i64* %2, align 8, !tbaa !16
  br label %8

8:                                                ; preds = %11, %5
  %9 = phi i64* [ %0, %5 ], [ %12, %11 ]
  %10 = icmp eq i64* %9, %6
  br i1 %10, label %13, label %11

11:                                               ; preds = %8
  store i64 %7, i64* %9, align 8, !tbaa !16
  %12 = getelementptr inbounds i64, i64* %9, i64 1
  br label %8, !llvm.loop !46

13:                                               ; preds = %8, %3
  %14 = phi i64* [ %0, %3 ], [ %6, %8 ]
  ret i64* %14
}

; Function Attrs: minsize mustprogress optsize sspstrong uwtable
define linkonce_odr dso_local i64* @_ZSt13__lower_boundIN9__gnu_cxx17__normal_iteratorIPxSt6vectorIxSaIxEEEExNS0_5__ops14_Iter_less_valEET_S9_S9_RKT0_T1_(i64* %0, i64* %1, i64* nonnull align 8 dereferenceable(8) %2) local_unnamed_addr #10 comdat {
  %4 = ptrtoint i64* %1 to i64
  %5 = ptrtoint i64* %0 to i64
  %6 = sub i64 %4, %5
  %7 = ashr exact i64 %6, 3
  %8 = load i64, i64* %2, align 8
  br label %9

9:                                                ; preds = %13, %3
  %10 = phi i64* [ %0, %3 ], [ %21, %13 ]
  %11 = phi i64 [ %7, %3 ], [ %22, %13 ]
  %12 = icmp sgt i64 %11, 0
  br i1 %12, label %13, label %23

13:                                               ; preds = %9
  %14 = lshr i64 %11, 1
  %15 = getelementptr inbounds i64, i64* %10, i64 %14
  %16 = load i64, i64* %15, align 8, !tbaa !16
  %17 = icmp slt i64 %16, %8
  %18 = getelementptr inbounds i64, i64* %15, i64 1
  %19 = xor i64 %14, -1
  %20 = add i64 %11, %19
  %21 = select i1 %17, i64* %18, i64* %10
  %22 = select i1 %17, i64 %20, i64 %14
  br label %9, !llvm.loop !47

23:                                               ; preds = %9
  ret i64* %10
}

; Function Attrs: minsize optsize
declare nonnull align 8 dereferenceable(16) %"class.std::basic_istream"* @_ZNSi10_M_extractIxEERSiRT_(%"class.std::basic_istream"* nonnull align 8 dereferenceable(16), i64* nonnull align 8 dereferenceable(8)) local_unnamed_addr #0

; Function Attrs: minsize optsize
declare nonnull align 8 dereferenceable(8) %"class.std::basic_ostream"* @_ZNSo9_M_insertIxEERSoT_(%"class.std::basic_ostream"* nonnull align 8 dereferenceable(8), i64) local_unnamed_addr #0

; Function Attrs: minsize nounwind optsize sspstrong uwtable
define linkonce_odr dso_local void @_ZNSt12_Vector_baseISt4pairIxxESaIS1_EED2Ev(%"struct.std::_Vector_base"* nonnull align 8 dereferenceable(24) %0) unnamed_addr #8 comdat align 2 personality i8* bitcast (i32 (...)* @__gxx_personality_v0 to i8*) {
  %2 = getelementptr inbounds %"struct.std::_Vector_base", %"struct.std::_Vector_base"* %0, i64 0, i32 0, i32 0, i32 0
  %3 = load %"struct.std::pair"*, %"struct.std::pair"** %2, align 8, !tbaa !10
  %4 = icmp eq %"struct.std::pair"* %3, null
  br i1 %4, label %7, label %5

5:                                                ; preds = %1
  %6 = bitcast %"struct.std::pair"* %3 to i8*
  tail call void @_ZdlPv(i8* nonnull %6) #21
  br label %7

7:                                                ; preds = %5, %1
  ret void
}

; Function Attrs: minsize optsize sspstrong uwtable
define linkonce_odr dso_local void @_ZNSt6vectorISt4pairIxxESaIS1_EE12emplace_backIJS1_EEEvDpOT_(%"class.std::vector"* nonnull align 8 dereferenceable(24) %0, %"struct.std::pair"* nonnull align 8 dereferenceable(16) %1) local_unnamed_addr #3 comdat align 2 {
  %3 = getelementptr inbounds %"class.std::vector", %"class.std::vector"* %0, i64 0, i32 0, i32 0, i32 0, i32 1
  %4 = load %"struct.std::pair"*, %"struct.std::pair"** %3, align 8, !tbaa !5
  %5 = getelementptr inbounds %"class.std::vector", %"class.std::vector"* %0, i64 0, i32 0, i32 0, i32 0, i32 2
  %6 = load %"struct.std::pair"*, %"struct.std::pair"** %5, align 8, !tbaa !48
  %7 = icmp eq %"struct.std::pair"* %4, %6
  br i1 %7, label %13, label %8

8:                                                ; preds = %2
  %9 = bitcast %"struct.std::pair"* %4 to i8*
  %10 = bitcast %"struct.std::pair"* %1 to i8*
  tail call void @llvm.memcpy.p0i8.p0i8.i64(i8* noundef nonnull align 8 dereferenceable(16) %9, i8* noundef nonnull align 8 dereferenceable(16) %10, i64 16, i1 false) #19
  %11 = load %"struct.std::pair"*, %"struct.std::pair"** %3, align 8, !tbaa !5
  %12 = getelementptr inbounds %"struct.std::pair", %"struct.std::pair"* %11, i64 1
  store %"struct.std::pair"* %12, %"struct.std::pair"** %3, align 8, !tbaa !5
  br label %14

13:                                               ; preds = %2
  tail call void @_ZNSt6vectorISt4pairIxxESaIS1_EE17_M_realloc_insertIJS1_EEEvN9__gnu_cxx17__normal_iteratorIPS1_S3_EEDpOT_(%"class.std::vector"* nonnull align 8 dereferenceable(24) %0, %"struct.std::pair"* %4, %"struct.std::pair"* nonnull align 8 dereferenceable(16) %1) #20
  br label %14

14:                                               ; preds = %13, %8
  ret void
}

; Function Attrs: minsize optsize sspstrong uwtable
define linkonce_odr dso_local void @_ZNSt6vectorISt4pairIxxESaIS1_EE17_M_realloc_insertIJS1_EEEvN9__gnu_cxx17__normal_iteratorIPS1_S3_EEDpOT_(%"class.std::vector"* nonnull align 8 dereferenceable(24) %0, %"struct.std::pair"* %1, %"struct.std::pair"* nonnull align 8 dereferenceable(16) %2) local_unnamed_addr #3 comdat align 2 {
  %4 = tail call i64 @_ZNKSt6vectorISt4pairIxxESaIS1_EE12_M_check_lenEmPKc(%"class.std::vector"* nonnull align 8 dereferenceable(24) %0, i64 1, i8* getelementptr inbounds ([26 x i8], [26 x i8]* @.str, i64 0, i64 0)) #20
  %5 = getelementptr inbounds %"class.std::vector", %"class.std::vector"* %0, i64 0, i32 0
  %6 = getelementptr inbounds %"class.std::vector", %"class.std::vector"* %0, i64 0, i32 0, i32 0, i32 0, i32 0
  %7 = load %"struct.std::pair"*, %"struct.std::pair"** %6, align 8, !tbaa !10
  %8 = getelementptr inbounds %"class.std::vector", %"class.std::vector"* %0, i64 0, i32 0, i32 0, i32 0, i32 1
  %9 = load %"struct.std::pair"*, %"struct.std::pair"** %8, align 8, !tbaa !5
  %10 = ptrtoint %"struct.std::pair"* %1 to i64
  %11 = ptrtoint %"struct.std::pair"* %7 to i64
  %12 = sub i64 %10, %11
  %13 = ashr exact i64 %12, 4
  %14 = tail call %"struct.std::pair"* @_ZNSt12_Vector_baseISt4pairIxxESaIS1_EE11_M_allocateEm(%"struct.std::_Vector_base"* nonnull align 8 dereferenceable(24) %5, i64 %4) #20
  %15 = getelementptr inbounds %"struct.std::pair", %"struct.std::pair"* %14, i64 %13
  %16 = bitcast %"struct.std::pair"* %15 to i8*
  %17 = bitcast %"struct.std::pair"* %2 to i8*
  tail call void @llvm.memcpy.p0i8.p0i8.i64(i8* noundef nonnull align 8 dereferenceable(16) %16, i8* noundef nonnull align 8 dereferenceable(16) %17, i64 16, i1 false) #19
  br label %18

18:                                               ; preds = %22, %3
  %19 = phi %"struct.std::pair"* [ %7, %3 ], [ %25, %22 ]
  %20 = phi %"struct.std::pair"* [ %14, %3 ], [ %26, %22 ]
  %21 = icmp eq %"struct.std::pair"* %19, %1
  br i1 %21, label %27, label %22

22:                                               ; preds = %18
  %23 = bitcast %"struct.std::pair"* %20 to i8*
  %24 = bitcast %"struct.std::pair"* %19 to i8*
  tail call void @llvm.memcpy.p0i8.p0i8.i64(i8* noundef nonnull align 8 dereferenceable(16) %23, i8* noundef nonnull align 8 dereferenceable(16) %24, i64 16, i1 false) #19, !alias.scope !49
  %25 = getelementptr inbounds %"struct.std::pair", %"struct.std::pair"* %19, i64 1
  %26 = getelementptr inbounds %"struct.std::pair", %"struct.std::pair"* %20, i64 1
  br label %18, !llvm.loop !53

27:                                               ; preds = %18, %32
  %28 = phi %"struct.std::pair"* [ %35, %32 ], [ %1, %18 ]
  %29 = phi %"struct.std::pair"* [ %30, %32 ], [ %20, %18 ]
  %30 = getelementptr inbounds %"struct.std::pair", %"struct.std::pair"* %29, i64 1
  %31 = icmp eq %"struct.std::pair"* %28, %9
  br i1 %31, label %36, label %32

32:                                               ; preds = %27
  %33 = bitcast %"struct.std::pair"* %30 to i8*
  %34 = bitcast %"struct.std::pair"* %28 to i8*
  tail call void @llvm.memcpy.p0i8.p0i8.i64(i8* noundef nonnull align 8 dereferenceable(16) %33, i8* noundef nonnull align 8 dereferenceable(16) %34, i64 16, i1 false) #19, !alias.scope !54
  %35 = getelementptr inbounds %"struct.std::pair", %"struct.std::pair"* %28, i64 1
  br label %27, !llvm.loop !53

36:                                               ; preds = %27
  %37 = icmp eq %"struct.std::pair"* %7, null
  br i1 %37, label %40, label %38

38:                                               ; preds = %36
  %39 = bitcast %"struct.std::pair"* %7 to i8*
  tail call void @_ZdlPv(i8* nonnull %39) #21
  br label %40

40:                                               ; preds = %36, %38
  %41 = getelementptr inbounds %"class.std::vector", %"class.std::vector"* %0, i64 0, i32 0, i32 0, i32 0, i32 2
  store %"struct.std::pair"* %14, %"struct.std::pair"** %6, align 8, !tbaa !10
  store %"struct.std::pair"* %30, %"struct.std::pair"** %8, align 8, !tbaa !5
  %42 = getelementptr inbounds %"struct.std::pair", %"struct.std::pair"* %14, i64 %4
  store %"struct.std::pair"* %42, %"struct.std::pair"** %41, align 8, !tbaa !48
  ret void
}

; Function Attrs: minsize mustprogress optsize sspstrong uwtable
define linkonce_odr dso_local i64 @_ZNKSt6vectorISt4pairIxxESaIS1_EE12_M_check_lenEmPKc(%"class.std::vector"* nonnull align 8 dereferenceable(24) %0, i64 %1, i8* %2) local_unnamed_addr #10 comdat align 2 {
  %4 = getelementptr inbounds %"class.std::vector", %"class.std::vector"* %0, i64 0, i32 0, i32 0, i32 0, i32 1
  %5 = load %"struct.std::pair"*, %"struct.std::pair"** %4, align 8, !tbaa !5
  %6 = getelementptr inbounds %"class.std::vector", %"class.std::vector"* %0, i64 0, i32 0, i32 0, i32 0, i32 0
  %7 = load %"struct.std::pair"*, %"struct.std::pair"** %6, align 8, !tbaa !10
  %8 = ptrtoint %"struct.std::pair"* %5 to i64
  %9 = ptrtoint %"struct.std::pair"* %7 to i64
  %10 = sub i64 %8, %9
  %11 = ashr exact i64 %10, 4
  %12 = sub nsw i64 576460752303423487, %11
  %13 = icmp ult i64 %12, %1
  br i1 %13, label %14, label %15

14:                                               ; preds = %3
  tail call void @_ZSt20__throw_length_errorPKc(i8* %2) #22
  unreachable

15:                                               ; preds = %3
  %16 = icmp ult i64 %11, %1
  %17 = select i1 %16, i64 %1, i64 %11
  %18 = add i64 %17, %11
  %19 = icmp ult i64 %18, %11
  %20 = icmp ugt i64 %18, 576460752303423487
  %21 = or i1 %19, %20
  %22 = select i1 %21, i64 576460752303423487, i64 %18
  ret i64 %22
}

; Function Attrs: minsize mustprogress optsize sspstrong uwtable
define linkonce_odr dso_local %"struct.std::pair"* @_ZNSt12_Vector_baseISt4pairIxxESaIS1_EE11_M_allocateEm(%"struct.std::_Vector_base"* nonnull align 8 dereferenceable(24) %0, i64 %1) local_unnamed_addr #10 comdat align 2 {
  %3 = icmp eq i64 %1, 0
  br i1 %3, label %7, label %4

4:                                                ; preds = %2
  %5 = bitcast %"struct.std::_Vector_base"* %0 to %"class.std::allocator"*
  %6 = tail call %"struct.std::pair"* @_ZNSt16allocator_traitsISaISt4pairIxxEEE8allocateERS2_m(%"class.std::allocator"* nonnull align 1 dereferenceable(1) %5, i64 %1) #20
  br label %7

7:                                                ; preds = %2, %4
  %8 = phi %"struct.std::pair"* [ %6, %4 ], [ null, %2 ]
  ret %"struct.std::pair"* %8
}

; Function Attrs: minsize mustprogress optsize sspstrong uwtable
define linkonce_odr dso_local %"struct.std::pair"* @_ZNSt16allocator_traitsISaISt4pairIxxEEE8allocateERS2_m(%"class.std::allocator"* nonnull align 1 dereferenceable(1) %0, i64 %1) local_unnamed_addr #10 comdat align 2 {
  %3 = bitcast %"class.std::allocator"* %0 to %"class.__gnu_cxx::new_allocator"*
  %4 = tail call %"struct.std::pair"* @_ZN9__gnu_cxx13new_allocatorISt4pairIxxEE8allocateEmPKv(%"class.__gnu_cxx::new_allocator"* nonnull align 1 dereferenceable(1) %3, i64 %1, i8* null) #20
  ret %"struct.std::pair"* %4
}

; Function Attrs: minsize mustprogress optsize sspstrong uwtable
define linkonce_odr dso_local %"struct.std::pair"* @_ZN9__gnu_cxx13new_allocatorISt4pairIxxEE8allocateEmPKv(%"class.__gnu_cxx::new_allocator"* nonnull align 1 dereferenceable(1) %0, i64 %1, i8* %2) local_unnamed_addr #10 comdat align 2 {
  %4 = icmp ugt i64 %1, 576460752303423487
  br i1 %4, label %5, label %9, !prof !30

5:                                                ; preds = %3
  %6 = icmp ugt i64 %1, 1152921504606846975
  br i1 %6, label %7, label %8

7:                                                ; preds = %5
  tail call void @_ZSt28__throw_bad_array_new_lengthv() #22
  unreachable

8:                                                ; preds = %5
  tail call void @_ZSt17__throw_bad_allocv() #22
  unreachable

9:                                                ; preds = %3
  %10 = shl nuw nsw i64 %1, 4
  %11 = tail call noalias nonnull i8* @_Znwm(i64 %10) #23
  %12 = bitcast i8* %11 to %"struct.std::pair"*
  ret %"struct.std::pair"* %12
}

; Function Attrs: minsize mustprogress optsize sspstrong uwtable
define linkonce_odr dso_local void @_ZNSt12_Vector_baseISt4pairIxxESaIS1_EE17_M_create_storageEm(%"struct.std::_Vector_base"* nonnull align 8 dereferenceable(24) %0, i64 %1) local_unnamed_addr #10 comdat align 2 {
  %3 = tail call %"struct.std::pair"* @_ZNSt12_Vector_baseISt4pairIxxESaIS1_EE11_M_allocateEm(%"struct.std::_Vector_base"* nonnull align 8 dereferenceable(24) %0, i64 %1) #20
  %4 = getelementptr inbounds %"struct.std::_Vector_base", %"struct.std::_Vector_base"* %0, i64 0, i32 0, i32 0, i32 0
  store %"struct.std::pair"* %3, %"struct.std::pair"** %4, align 8, !tbaa !10
  %5 = getelementptr inbounds %"struct.std::_Vector_base", %"struct.std::_Vector_base"* %0, i64 0, i32 0, i32 0, i32 1
  store %"struct.std::pair"* %3, %"struct.std::pair"** %5, align 8, !tbaa !5
  %6 = getelementptr inbounds %"struct.std::pair", %"struct.std::pair"* %3, i64 %1
  %7 = getelementptr inbounds %"struct.std::_Vector_base", %"struct.std::_Vector_base"* %0, i64 0, i32 0, i32 0, i32 2
  store %"struct.std::pair"* %6, %"struct.std::pair"** %7, align 8, !tbaa !48
  ret void
}

; Function Attrs: minsize optsize sspstrong uwtable
define internal void @_GLOBAL__sub_I_s812748408.cpp() #3 section ".text.startup" {
  tail call void @_ZNSt8ios_base4InitC1Ev(%"class.std::ios_base::Init"* nonnull align 1 dereferenceable(1) @_ZStL8__ioinit) #20
  %1 = tail call i32 @__cxa_atexit(void (i8*)* bitcast (void (%"class.std::ios_base::Init"*)* @_ZNSt8ios_base4InitD1Ev to void (i8*)*), i8* getelementptr inbounds (%"class.std::ios_base::Init", %"class.std::ios_base::Init"* @_ZStL8__ioinit, i64 0, i32 0), i8* nonnull @__dso_handle) #19
  ret void
}

; Function Attrs: argmemonly nofree nounwind willreturn writeonly
declare void @llvm.memset.p0i8.i64(i8* nocapture writeonly, i8, i64, i1 immarg) #17

; Function Attrs: nofree nosync nounwind readnone speculatable willreturn
declare i64 @llvm.smax.i64(i64, i64) #18

attributes #0 = { minsize optsize "frame-pointer"="none" "no-trapping-math"="true" "stack-protector-buffer-size"="8" "target-cpu"="x86-64" "target-features"="+cx8,+fxsr,+mmx,+sse,+sse2,+x87" "tune-cpu"="generic" }
attributes #1 = { minsize nounwind optsize "frame-pointer"="none" "no-trapping-math"="true" "stack-protector-buffer-size"="8" "target-cpu"="x86-64" "target-features"="+cx8,+fxsr,+mmx,+sse,+sse2,+x87" "tune-cpu"="generic" }
attributes #2 = { nofree nounwind }
attributes #3 = { minsize optsize sspstrong uwtable "frame-pointer"="none" "min-legal-vector-width"="0" "no-trapping-math"="true" "stack-protector-buffer-size"="8" "target-cpu"="x86-64" "target-features"="+cx8,+fxsr,+mmx,+sse,+sse2,+x87" "tune-cpu"="generic" }
attributes #4 = { argmemonly mustprogress nofree nosync nounwind willreturn }
attributes #5 = { minsize norecurse optsize sspstrong uwtable "frame-pointer"="none" "min-legal-vector-width"="0" "no-trapping-math"="true" "stack-protector-buffer-size"="8" "target-cpu"="x86-64" "target-features"="+cx8,+fxsr,+mmx,+sse,+sse2,+x87" "tune-cpu"="generic" }
attributes #6 = { inlinehint minsize mustprogress optsize sspstrong uwtable "frame-pointer"="none" "min-legal-vector-width"="0" "no-trapping-math"="true" "stack-protector-buffer-size"="8" "target-cpu"="x86-64" "target-features"="+cx8,+fxsr,+mmx,+sse,+sse2,+x87" "tune-cpu"="generic" }
attributes #7 = { mustprogress nofree nosync nounwind willreturn }
attributes #8 = { minsize nounwind optsize sspstrong uwtable "frame-pointer"="none" "min-legal-vector-width"="0" "no-trapping-math"="true" "stack-protector-buffer-size"="8" "target-cpu"="x86-64" "target-features"="+cx8,+fxsr,+mmx,+sse,+sse2,+x87" "tune-cpu"="generic" }
attributes #9 = { minsize nobuiltin nounwind optsize "frame-pointer"="none" "no-trapping-math"="true" "stack-protector-buffer-size"="8" "target-cpu"="x86-64" "target-features"="+cx8,+fxsr,+mmx,+sse,+sse2,+x87" "tune-cpu"="generic" }
attributes #10 = { minsize mustprogress optsize sspstrong uwtable "frame-pointer"="none" "min-legal-vector-width"="0" "no-trapping-math"="true" "stack-protector-buffer-size"="8" "target-cpu"="x86-64" "target-features"="+cx8,+fxsr,+mmx,+sse,+sse2,+x87" "tune-cpu"="generic" }
attributes #11 = { minsize noreturn optsize "frame-pointer"="none" "no-trapping-math"="true" "stack-protector-buffer-size"="8" "target-cpu"="x86-64" "target-features"="+cx8,+fxsr,+mmx,+sse,+sse2,+x87" "tune-cpu"="generic" }
attributes #12 = { minsize nobuiltin optsize allocsize(0) "frame-pointer"="none" "no-trapping-math"="true" "stack-protector-buffer-size"="8" "target-cpu"="x86-64" "target-features"="+cx8,+fxsr,+mmx,+sse,+sse2,+x87" "tune-cpu"="generic" }
attributes #13 = { argmemonly mustprogress nofree nounwind willreturn }
attributes #14 = { inlinehint minsize optsize sspstrong uwtable "frame-pointer"="none" "min-legal-vector-width"="0" "no-trapping-math"="true" "stack-protector-buffer-size"="8" "target-cpu"="x86-64" "target-features"="+cx8,+fxsr,+mmx,+sse,+sse2,+x87" "tune-cpu"="generic" }
attributes #15 = { minsize mustprogress nounwind optsize sspstrong uwtable "frame-pointer"="none" "min-legal-vector-width"="0" "no-trapping-math"="true" "stack-protector-buffer-size"="8" "target-cpu"="x86-64" "target-features"="+cx8,+fxsr,+mmx,+sse,+sse2,+x87" "tune-cpu"="generic" }
attributes #16 = { mustprogress nofree nosync nounwind readnone speculatable willreturn }
attributes #17 = { argmemonly nofree nounwind willreturn writeonly }
attributes #18 = { nofree nosync nounwind readnone speculatable willreturn }
attributes #19 = { nounwind }
attributes #20 = { minsize optsize }
attributes #21 = { minsize nounwind optsize }
attributes #22 = { minsize noreturn optsize }
attributes #23 = { minsize optsize allocsize(0) }

!llvm.module.flags = !{!0, !1, !2, !3}
!llvm.ident = !{!4}

!0 = !{i32 1, !"wchar_size", i32 4}
!1 = !{i32 7, !"PIC Level", i32 2}
!2 = !{i32 7, !"PIE Level", i32 2}
!3 = !{i32 7, !"uwtable", i32 1}
!4 = !{!"clang version 13.0.0"}
!5 = !{!6, !7, i64 8}
!6 = !{!"_ZTSNSt12_Vector_baseISt4pairIxxESaIS1_EE17_Vector_impl_dataE", !7, i64 0, !7, i64 8, !7, i64 16}
!7 = !{!"any pointer", !8, i64 0}
!8 = !{!"omnipotent char", !9, i64 0}
!9 = !{!"Simple C++ TBAA"}
!10 = !{!6, !7, i64 0}
!11 = !{!7, !7, i64 0}
!12 = !{!13, !14, i64 0}
!13 = !{!"_ZTSSt4pairIxxE", !14, i64 0, !14, i64 8}
!14 = !{!"long long", !8, i64 0}
!15 = !{!13, !14, i64 8}
!16 = !{!14, !14, i64 0}
!17 = distinct !{!17, !18}
!18 = !{!"llvm.loop.mustprogress"}
!19 = !{!20, !7, i64 8}
!20 = !{!"_ZTSNSt12_Vector_baseIxSaIxEE17_Vector_impl_dataE", !7, i64 0, !7, i64 8, !7, i64 16}
!21 = !{!20, !7, i64 0}
!22 = distinct !{!22, !18}
!23 = distinct !{!23, !18}
!24 = distinct !{!24, !18}
!25 = !{!20, !7, i64 16}
!26 = distinct !{!26, !18}
!27 = distinct !{!27, !18}
!28 = distinct !{!28, !18}
!29 = distinct !{!29, !18}
!30 = !{!"branch_weights", i32 1, i32 2000}
!31 = !{i64 0, i64 65}
!32 = distinct !{!32, !18}
!33 = distinct !{!33, !18}
!34 = distinct !{!34, !18}
!35 = distinct !{!35, !18}
!36 = distinct !{!36, !18}
!37 = distinct !{!37, !18}
!38 = distinct !{!38, !18}
!39 = distinct !{!39, !18}
!40 = distinct !{!40, !18}
!41 = distinct !{!41, !18}
!42 = distinct !{!42, !18}
!43 = distinct !{!43, !18}
!44 = distinct !{!44, !18}
!45 = distinct !{!45, !18}
!46 = distinct !{!46, !18}
!47 = distinct !{!47, !18}
!48 = !{!6, !7, i64 16}
!49 = !{!50, !52}
!50 = distinct !{!50, !51, !"_ZSt19__relocate_object_aISt4pairIxxES1_SaIS1_EEvPT_PT0_RT1_: argument 0"}
!51 = distinct !{!51, !"_ZSt19__relocate_object_aISt4pairIxxES1_SaIS1_EEvPT_PT0_RT1_"}
!52 = distinct !{!52, !51, !"_ZSt19__relocate_object_aISt4pairIxxES1_SaIS1_EEvPT_PT0_RT1_: argument 1"}
!53 = distinct !{!53, !18}
!54 = !{!55, !57}
!55 = distinct !{!55, !56, !"_ZSt19__relocate_object_aISt4pairIxxES1_SaIS1_EEvPT_PT0_RT1_: argument 0"}
!56 = distinct !{!56, !"_ZSt19__relocate_object_aISt4pairIxxES1_SaIS1_EEvPT_PT0_RT1_"}
!57 = distinct !{!57, !56, !"_ZSt19__relocate_object_aISt4pairIxxES1_SaIS1_EEvPT_PT0_RT1_: argument 1"}
