; ModuleID = 'Project_CodeNet_C++1400/p03735/s925419616.cpp'
source_filename = "Project_CodeNet_C++1400/p03735/s925419616.cpp"
target datalayout = "e-m:e-p270:32:32-p271:32:32-p272:64:64-i64:64-f80:128-n8:16:32:64-S128"
target triple = "x86_64-pc-linux-gnu"

%"class.std::ios_base::Init" = type { i8 }
%"class.std::basic_istream" = type { i32 (...)**, i64, %"class.std::basic_ios" }
%"class.std::basic_ios" = type { %"class.std::ios_base", %"class.std::basic_ostream"*, i8, i8, %"class.std::basic_streambuf"*, %"class.std::ctype"*, %"class.std::num_put"*, %"class.std::num_get"* }
%"class.std::ios_base" = type { i32 (...)**, i64, i64, i32, i32, i32, %"struct.std::ios_base::_Callback_list"*, %"struct.std::ios_base::_Words", [8 x %"struct.std::ios_base::_Words"], i32, %"struct.std::ios_base::_Words"*, %"class.std::locale" }
%"struct.std::ios_base::_Callback_list" = type { %"struct.std::ios_base::_Callback_list"*, void (i32, %"class.std::ios_base"*, i32)*, i32, i32 }
%"struct.std::ios_base::_Words" = type { i8*, i64 }
%"class.std::locale" = type { %"class.std::locale::_Impl"* }
%"class.std::locale::_Impl" = type { i32, %"class.std::locale::facet"**, i64, %"class.std::locale::facet"**, i8** }
%"class.std::locale::facet" = type <{ i32 (...)**, i32, [4 x i8] }>
%"class.std::basic_ostream" = type { i32 (...)**, %"class.std::basic_ios" }
%"class.std::basic_streambuf" = type { i32 (...)**, i8*, i8*, i8*, i8*, i8*, i8*, %"class.std::locale" }
%"class.std::ctype" = type <{ %"class.std::locale::facet.base", [4 x i8], %struct.__locale_struct*, i8, [7 x i8], i32*, i32*, i16*, i8, [256 x i8], [256 x i8], i8, [6 x i8] }>
%"class.std::locale::facet.base" = type <{ i32 (...)**, i32 }>
%struct.__locale_struct = type { [13 x %struct.__locale_data*], i16*, i32*, i32*, [13 x i8*] }
%struct.__locale_data = type opaque
%"class.std::num_put" = type { %"class.std::locale::facet.base", [4 x i8] }
%"class.std::num_get" = type { %"class.std::locale::facet.base", [4 x i8] }
%"class.std::vector" = type { %"struct.std::_Vector_base" }
%"struct.std::_Vector_base" = type { %"struct.std::_Vector_base<std::vector<long long>, std::allocator<std::vector<long long>>>::_Vector_impl" }
%"struct.std::_Vector_base<std::vector<long long>, std::allocator<std::vector<long long>>>::_Vector_impl" = type { %"struct.std::_Vector_base<std::vector<long long>, std::allocator<std::vector<long long>>>::_Vector_impl_data" }
%"struct.std::_Vector_base<std::vector<long long>, std::allocator<std::vector<long long>>>::_Vector_impl_data" = type { %"class.std::vector.0"*, %"class.std::vector.0"*, %"class.std::vector.0"* }
%"class.std::vector.0" = type { %"struct.std::_Vector_base.1" }
%"struct.std::_Vector_base.1" = type { %"struct.std::_Vector_base<long long, std::allocator<long long>>::_Vector_impl" }
%"struct.std::_Vector_base<long long, std::allocator<long long>>::_Vector_impl" = type { %"struct.std::_Vector_base<long long, std::allocator<long long>>::_Vector_impl_data" }
%"struct.std::_Vector_base<long long, std::allocator<long long>>::_Vector_impl_data" = type { i64*, i64*, i64* }
%"class.std::allocator.2" = type { i8 }
%"class.std::allocator" = type { i8 }
%"class.__gnu_cxx::new_allocator.3" = type { i8 }
%"class.__gnu_cxx::new_allocator" = type { i8 }
%"struct.__gnu_cxx::__ops::_Iter_less_iter" = type { i8 }
%"struct.__gnu_cxx::__ops::_Iter_less_val" = type { i8 }

$_ZNSt6vectorIxSaIxEEC2EmRKxRKS0_ = comdat any

$_ZNSt6vectorIS_IxSaIxEESaIS1_EEC2EmRKS1_RKS2_ = comdat any

$_ZNSt6vectorIxSaIxEEC2ESt16initializer_listIxERKS0_ = comdat any

$_ZNSt6vectorIS_IxSaIxEESaIS1_EED2Ev = comdat any

$_ZNSt6vectorIxSaIxEE17_S_check_init_lenEmRKS0_ = comdat any

$_ZNSt6vectorIxSaIxEE18_M_fill_initializeEmRKx = comdat any

$_ZNSt12_Vector_baseIxSaIxEED2Ev = comdat any

$__clang_call_terminate = comdat any

$_ZNSt12_Vector_baseIxSaIxEE17_M_create_storageEm = comdat any

$_ZNSt12_Vector_baseIxSaIxEE11_M_allocateEm = comdat any

$_ZNSt16allocator_traitsISaIxEE8allocateERS0_m = comdat any

$_ZN9__gnu_cxx13new_allocatorIxE8allocateEmPKv = comdat any

$_ZSt10__fill_n_aIPxmxET_S1_T0_RKT1_St26random_access_iterator_tag = comdat any

$_ZNSt6vectorIS_IxSaIxEESaIS1_EE17_S_check_init_lenEmRKS2_ = comdat any

$_ZNSt6vectorIS_IxSaIxEESaIS1_EE18_M_fill_initializeEmRKS1_ = comdat any

$_ZNSt12_Vector_baseISt6vectorIxSaIxEESaIS2_EED2Ev = comdat any

$_ZNSt12_Vector_baseISt6vectorIxSaIxEESaIS2_EE17_M_create_storageEm = comdat any

$_ZNSt12_Vector_baseISt6vectorIxSaIxEESaIS2_EE11_M_allocateEm = comdat any

$_ZNSt16allocator_traitsISaISt6vectorIxSaIxEEEE8allocateERS3_m = comdat any

$_ZN9__gnu_cxx13new_allocatorISt6vectorIxSaIxEEE8allocateEmPKv = comdat any

$_ZNSt22__uninitialized_fill_nILb0EE15__uninit_fill_nIPSt6vectorIxSaIxEEmS4_EET_S6_T0_RKT1_ = comdat any

$_ZNSt6vectorIxSaIxEEC2ERKS1_ = comdat any

$_ZNSt12_Destroy_auxILb0EE9__destroyIPSt6vectorIxSaIxEEEEvT_S6_ = comdat any

$_ZNSt6vectorIS_IxSaIxEESaIS1_EE12emplace_backIJS1_EEEvDpOT_ = comdat any

$_ZNSt6vectorIS_IxSaIxEESaIS1_EE17_M_realloc_insertIJS1_EEEvN9__gnu_cxx17__normal_iteratorIPS1_S3_EEDpOT_ = comdat any

$_ZNKSt6vectorIS_IxSaIxEESaIS1_EE12_M_check_lenEmPKc = comdat any

$_ZSt14__relocate_a_1IPSt6vectorIxSaIxEES3_SaIS2_EET0_T_S6_S5_RT1_ = comdat any

$_ZSt19__relocate_object_aISt6vectorIxSaIxEES2_SaIS2_EEvPT_PT0_RT1_ = comdat any

$_ZNSt6vectorIxSaIxEE19_M_range_initializeIPKxEEvT_S5_St20forward_iterator_tag = comdat any

$_ZSt6__sortIN9__gnu_cxx17__normal_iteratorIPSt6vectorIxSaIxEES2_IS4_SaIS4_EEEENS0_5__ops15_Iter_less_iterEEvT_SB_T0_ = comdat any

$_ZSt16__introsort_loopIN9__gnu_cxx17__normal_iteratorIPSt6vectorIxSaIxEES2_IS4_SaIS4_EEEElNS0_5__ops15_Iter_less_iterEEvT_SB_T0_T1_ = comdat any

$_ZSt22__final_insertion_sortIN9__gnu_cxx17__normal_iteratorIPSt6vectorIxSaIxEES2_IS4_SaIS4_EEEENS0_5__ops15_Iter_less_iterEEvT_SB_T0_ = comdat any

$_ZSt14__partial_sortIN9__gnu_cxx17__normal_iteratorIPSt6vectorIxSaIxEES2_IS4_SaIS4_EEEENS0_5__ops15_Iter_less_iterEEvT_SB_SB_T0_ = comdat any

$_ZSt27__unguarded_partition_pivotIN9__gnu_cxx17__normal_iteratorIPSt6vectorIxSaIxEES2_IS4_SaIS4_EEEENS0_5__ops15_Iter_less_iterEET_SB_SB_T0_ = comdat any

$_ZSt13__heap_selectIN9__gnu_cxx17__normal_iteratorIPSt6vectorIxSaIxEES2_IS4_SaIS4_EEEENS0_5__ops15_Iter_less_iterEEvT_SB_SB_T0_ = comdat any

$_ZSt11__sort_heapIN9__gnu_cxx17__normal_iteratorIPSt6vectorIxSaIxEES2_IS4_SaIS4_EEEENS0_5__ops15_Iter_less_iterEEvT_SB_RT0_ = comdat any

$_ZSt11__make_heapIN9__gnu_cxx17__normal_iteratorIPSt6vectorIxSaIxEES2_IS4_SaIS4_EEEENS0_5__ops15_Iter_less_iterEEvT_SB_RT0_ = comdat any

$_ZSt10__pop_heapIN9__gnu_cxx17__normal_iteratorIPSt6vectorIxSaIxEES2_IS4_SaIS4_EEEENS0_5__ops15_Iter_less_iterEEvT_SB_SB_RT0_ = comdat any

$_ZSt13__adjust_heapIN9__gnu_cxx17__normal_iteratorIPSt6vectorIxSaIxEES2_IS4_SaIS4_EEEElS4_NS0_5__ops15_Iter_less_iterEEvT_T0_SC_T1_T2_ = comdat any

$_ZSt11__push_heapIN9__gnu_cxx17__normal_iteratorIPSt6vectorIxSaIxEES2_IS4_SaIS4_EEEElS4_NS0_5__ops14_Iter_less_valEEvT_T0_SC_T1_RT2_ = comdat any

$_ZNSt6vectorIxSaIxEE14_M_move_assignEOS1_St17integral_constantIbLb1EE = comdat any

$_ZNSt12_Vector_baseIxSaIxEE17_Vector_impl_data12_M_swap_dataERS2_ = comdat any

$_ZStltIxSaIxEEbRKSt6vectorIT_T0_ES6_ = comdat any

$_ZSt30__lexicographical_compare_implIPKxS1_N9__gnu_cxx5__ops15_Iter_less_iterEEbT_S5_T0_S6_T1_ = comdat any

$_ZSt22__move_median_to_firstIN9__gnu_cxx17__normal_iteratorIPSt6vectorIxSaIxEES2_IS4_SaIS4_EEEENS0_5__ops15_Iter_less_iterEEvT_SB_SB_SB_T0_ = comdat any

$_ZSt21__unguarded_partitionIN9__gnu_cxx17__normal_iteratorIPSt6vectorIxSaIxEES2_IS4_SaIS4_EEEENS0_5__ops15_Iter_less_iterEET_SB_SB_SB_T0_ = comdat any

$_ZSt16__insertion_sortIN9__gnu_cxx17__normal_iteratorIPSt6vectorIxSaIxEES2_IS4_SaIS4_EEEENS0_5__ops15_Iter_less_iterEEvT_SB_T0_ = comdat any

$_ZSt26__unguarded_insertion_sortIN9__gnu_cxx17__normal_iteratorIPSt6vectorIxSaIxEES2_IS4_SaIS4_EEEENS0_5__ops15_Iter_less_iterEEvT_SB_T0_ = comdat any

$_ZSt25__unguarded_linear_insertIN9__gnu_cxx17__normal_iteratorIPSt6vectorIxSaIxEES2_IS4_SaIS4_EEEENS0_5__ops14_Val_less_iterEEvT_T0_ = comdat any

$_ZSt22__copy_move_backward_aILb1EN9__gnu_cxx17__normal_iteratorIPSt6vectorIxSaIxEES2_IS4_SaIS4_EEEES8_ET1_T0_SA_S9_ = comdat any

$_ZNSt20__copy_move_backwardILb1ELb0ESt26random_access_iterator_tagE13__copy_move_bIPSt6vectorIxSaIxEES6_EET0_T_S8_S7_ = comdat any

@_ZStL8__ioinit = internal global %"class.std::ios_base::Init" zeroinitializer, align 1
@__dso_handle = external hidden global i8
@_ZSt3cin = external global %"class.std::basic_istream", align 8
@_ZSt4cout = external global %"class.std::basic_ostream", align 8
@.str = private unnamed_addr constant [49 x i8] c"cannot create std::vector larger than max_size()\00", align 1
@.str.1 = private unnamed_addr constant [26 x i8] c"vector::_M_realloc_insert\00", align 1
@llvm.global_ctors = appending global [1 x { i32, void ()*, i8* }] [{ i32, void ()*, i8* } { i32 65535, void ()* @_GLOBAL__sub_I_s925419616.cpp, i8* null }]

; Function Attrs: minsize optsize
declare void @_ZNSt8ios_base4InitC1Ev(%"class.std::ios_base::Init"* nonnull align 1 dereferenceable(1)) unnamed_addr #0

; Function Attrs: minsize nounwind optsize
declare void @_ZNSt8ios_base4InitD1Ev(%"class.std::ios_base::Init"* nonnull align 1 dereferenceable(1)) unnamed_addr #1

; Function Attrs: nofree nounwind
declare i32 @__cxa_atexit(void (i8*)*, i8*, i8*) local_unnamed_addr #2

; Function Attrs: minsize norecurse optsize sspstrong uwtable
define dso_local i32 @main() local_unnamed_addr #3 personality i8* bitcast (i32 (...)* @__gxx_personality_v0 to i8*) {
  %1 = alloca i64, align 8
  %2 = alloca i64, align 8
  %3 = alloca i64, align 8
  %4 = alloca %"class.std::vector", align 8
  %5 = alloca %"class.std::vector.0", align 8
  %6 = alloca i64, align 8
  %7 = alloca %"class.std::allocator.2", align 1
  %8 = alloca %"class.std::allocator", align 1
  %9 = alloca %"class.std::vector.0", align 8
  %10 = alloca i64, align 8
  %11 = alloca %"class.std::allocator.2", align 1
  %12 = alloca %"class.std::vector", align 8
  %13 = alloca %"class.std::vector.0", align 8
  %14 = alloca i64, align 8
  %15 = alloca %"class.std::allocator.2", align 1
  %16 = alloca %"class.std::allocator", align 1
  %17 = alloca %"class.std::vector.0", align 8
  %18 = alloca [2 x i64], align 8
  %19 = alloca %"class.std::allocator.2", align 1
  %20 = alloca %"class.std::vector.0", align 8
  %21 = alloca [2 x i64], align 8
  %22 = alloca %"class.std::allocator.2", align 1
  %23 = alloca %"class.std::vector.0", align 8
  %24 = alloca [2 x i64], align 8
  %25 = alloca %"class.std::allocator.2", align 1
  %26 = alloca %"class.std::vector.0", align 8
  %27 = alloca [2 x i64], align 8
  %28 = alloca %"class.std::allocator.2", align 1
  %29 = alloca %"class.std::vector", align 8
  %30 = alloca %"class.std::vector.0", align 8
  %31 = alloca i64, align 8
  %32 = alloca %"class.std::allocator.2", align 1
  %33 = alloca %"class.std::allocator", align 1
  %34 = alloca %"class.std::vector.0", align 8
  %35 = alloca [2 x i64], align 8
  %36 = alloca %"class.std::allocator.2", align 1
  %37 = bitcast i64* %1 to i8*
  call void @llvm.lifetime.start.p0i8(i64 8, i8* nonnull %37) #21
  %38 = call nonnull align 8 dereferenceable(16) %"class.std::basic_istream"* @_ZNSi10_M_extractIxEERSiRT_(%"class.std::basic_istream"* nonnull align 8 dereferenceable(16) @_ZSt3cin, i64* nonnull align 8 dereferenceable(8) %1) #22
  %39 = bitcast i64* %2 to i8*
  call void @llvm.lifetime.start.p0i8(i64 8, i8* nonnull %39) #21
  %40 = bitcast i64* %3 to i8*
  call void @llvm.lifetime.start.p0i8(i64 8, i8* nonnull %40) #21
  %41 = bitcast %"class.std::vector"* %4 to i8*
  call void @llvm.lifetime.start.p0i8(i64 24, i8* nonnull %41) #21
  %42 = load i64, i64* %1, align 8, !tbaa !5
  %43 = bitcast %"class.std::vector.0"* %5 to i8*
  call void @llvm.lifetime.start.p0i8(i64 24, i8* nonnull %43) #21
  %44 = bitcast i64* %6 to i8*
  call void @llvm.lifetime.start.p0i8(i64 8, i8* nonnull %44) #21
  store i64 0, i64* %6, align 8, !tbaa !5
  %45 = getelementptr inbounds %"class.std::allocator.2", %"class.std::allocator.2"* %7, i64 0, i32 0
  call void @llvm.lifetime.start.p0i8(i64 1, i8* nonnull %45) #21
  invoke void @_ZNSt6vectorIxSaIxEEC2EmRKxRKS0_(%"class.std::vector.0"* nonnull align 8 dereferenceable(24) %5, i64 2, i64* nonnull align 8 dereferenceable(8) %6, %"class.std::allocator.2"* nonnull align 1 dereferenceable(1) %7) #22
          to label %46 unwind label %60

46:                                               ; preds = %0
  %47 = getelementptr inbounds %"class.std::allocator", %"class.std::allocator"* %8, i64 0, i32 0
  call void @llvm.lifetime.start.p0i8(i64 1, i8* nonnull %47) #21
  invoke void @_ZNSt6vectorIS_IxSaIxEESaIS1_EEC2EmRKS1_RKS2_(%"class.std::vector"* nonnull align 8 dereferenceable(24) %4, i64 %42, %"class.std::vector.0"* nonnull align 8 dereferenceable(24) %5, %"class.std::allocator"* nonnull align 1 dereferenceable(1) %8) #22
          to label %48 unwind label %62

48:                                               ; preds = %46
  call void @llvm.lifetime.end.p0i8(i64 1, i8* nonnull %47) #21
  %49 = getelementptr inbounds %"class.std::vector.0", %"class.std::vector.0"* %5, i64 0, i32 0
  call void @_ZNSt12_Vector_baseIxSaIxEED2Ev(%"struct.std::_Vector_base.1"* nonnull align 8 dereferenceable(24) %49) #23
  call void @llvm.lifetime.end.p0i8(i64 1, i8* nonnull %45) #21
  call void @llvm.lifetime.end.p0i8(i64 8, i8* nonnull %44) #21
  call void @llvm.lifetime.end.p0i8(i64 24, i8* nonnull %43) #21
  %50 = getelementptr inbounds %"class.std::vector", %"class.std::vector"* %4, i64 0, i32 0, i32 0, i32 0, i32 0
  br label %51

51:                                               ; preds = %78, %48
  %52 = phi i64 [ %97, %78 ], [ 0, %48 ]
  %53 = phi i64 [ %96, %78 ], [ 0, %48 ]
  %54 = phi i64 [ %90, %78 ], [ 0, %48 ]
  %55 = load i64, i64* %1, align 8, !tbaa !5
  %56 = icmp sgt i64 %55, %52
  br i1 %56, label %67, label %57

57:                                               ; preds = %51
  %58 = load %"class.std::vector.0"*, %"class.std::vector.0"** %50, align 8
  %59 = call i64 @llvm.smax.i64(i64 %55, i64 0)
  br label %98

60:                                               ; preds = %0
  %61 = landingpad { i8*, i32 }
          cleanup
  br label %65

62:                                               ; preds = %46
  %63 = landingpad { i8*, i32 }
          cleanup
  call void @llvm.lifetime.end.p0i8(i64 1, i8* nonnull %47) #21
  %64 = getelementptr inbounds %"class.std::vector.0", %"class.std::vector.0"* %5, i64 0, i32 0
  call void @_ZNSt12_Vector_baseIxSaIxEED2Ev(%"struct.std::_Vector_base.1"* nonnull align 8 dereferenceable(24) %64) #23
  br label %65

65:                                               ; preds = %62, %60
  %66 = phi { i8*, i32 } [ %63, %62 ], [ %61, %60 ]
  call void @llvm.lifetime.end.p0i8(i64 1, i8* nonnull %45) #21
  call void @llvm.lifetime.end.p0i8(i64 8, i8* nonnull %44) #21
  call void @llvm.lifetime.end.p0i8(i64 24, i8* nonnull %43) #21
  br label %379

67:                                               ; preds = %51
  %68 = invoke nonnull align 8 dereferenceable(16) %"class.std::basic_istream"* @_ZNSi10_M_extractIxEERSiRT_(%"class.std::basic_istream"* nonnull align 8 dereferenceable(16) @_ZSt3cin, i64* nonnull align 8 dereferenceable(8) %2) #22
          to label %69 unwind label %76

69:                                               ; preds = %67
  %70 = invoke nonnull align 8 dereferenceable(16) %"class.std::basic_istream"* @_ZNSi10_M_extractIxEERSiRT_(%"class.std::basic_istream"* nonnull align 8 dereferenceable(16) %68, i64* nonnull align 8 dereferenceable(8) %3) #22
          to label %71 unwind label %76

71:                                               ; preds = %69
  %72 = load i64, i64* %2, align 8, !tbaa !5
  %73 = load i64, i64* %3, align 8, !tbaa !5
  %74 = icmp slt i64 %72, %73
  br i1 %74, label %75, label %78

75:                                               ; preds = %71
  store i64 %73, i64* %2, align 8, !tbaa !5
  store i64 %72, i64* %3, align 8, !tbaa !5
  br label %78

76:                                               ; preds = %69, %67
  %77 = landingpad { i8*, i32 }
          cleanup
  br label %377

78:                                               ; preds = %75, %71
  %79 = phi i64 [ %73, %75 ], [ %72, %71 ]
  %80 = load %"class.std::vector.0"*, %"class.std::vector.0"** %50, align 8, !tbaa !9
  %81 = getelementptr inbounds %"class.std::vector.0", %"class.std::vector.0"* %80, i64 %52, i32 0, i32 0, i32 0, i32 0
  %82 = load i64*, i64** %81, align 8, !tbaa !12
  store i64 %79, i64* %82, align 8, !tbaa !5
  %83 = load i64, i64* %3, align 8, !tbaa !5
  %84 = getelementptr inbounds i64, i64* %82, i64 1
  store i64 %83, i64* %84, align 8, !tbaa !5
  %85 = load i64, i64* %2, align 8, !tbaa !5
  %86 = getelementptr inbounds %"class.std::vector.0", %"class.std::vector.0"* %80, i64 %54, i32 0, i32 0, i32 0, i32 0
  %87 = load i64*, i64** %86, align 8, !tbaa !12
  %88 = load i64, i64* %87, align 8, !tbaa !5
  %89 = icmp sgt i64 %85, %88
  %90 = select i1 %89, i64 %52, i64 %54
  %91 = getelementptr inbounds %"class.std::vector.0", %"class.std::vector.0"* %80, i64 %53, i32 0, i32 0, i32 0, i32 0
  %92 = load i64*, i64** %91, align 8, !tbaa !12
  %93 = getelementptr inbounds i64, i64* %92, i64 1
  %94 = load i64, i64* %93, align 8, !tbaa !5
  %95 = icmp slt i64 %83, %94
  %96 = select i1 %95, i64 %52, i64 %53
  %97 = add nuw nsw i64 %52, 1
  br label %51, !llvm.loop !14

98:                                               ; preds = %57, %141
  %99 = phi i64 [ 0, %57 ], [ %144, %141 ]
  %100 = phi i64 [ 0, %57 ], [ %142, %141 ]
  %101 = phi i64 [ 10000000000, %57 ], [ %143, %141 ]
  %102 = icmp eq i64 %99, %59
  br i1 %102, label %103, label %115

103:                                              ; preds = %98
  %104 = getelementptr inbounds %"class.std::vector.0", %"class.std::vector.0"* %58, i64 %54, i32 0, i32 0, i32 0, i32 0
  %105 = load i64*, i64** %104, align 8, !tbaa !12
  %106 = load i64, i64* %105, align 8, !tbaa !5
  %107 = sub nsw i64 %106, %101
  %108 = getelementptr inbounds %"class.std::vector.0", %"class.std::vector.0"* %58, i64 %53, i32 0, i32 0, i32 0, i32 0
  %109 = load i64*, i64** %108, align 8, !tbaa !12
  %110 = getelementptr inbounds i64, i64* %109, i64 1
  %111 = load i64, i64* %110, align 8, !tbaa !5
  %112 = sub nsw i64 %100, %111
  %113 = mul nsw i64 %112, %107
  %114 = icmp eq i64 %54, %53
  br i1 %114, label %369, label %145

115:                                              ; preds = %98
  %116 = getelementptr inbounds %"class.std::vector.0", %"class.std::vector.0"* %58, i64 %99, i32 0, i32 0, i32 0, i32 0
  %117 = load i64*, i64** %116, align 8, !tbaa !12
  %118 = load i64, i64* %117, align 8, !tbaa !5
  store i64 %118, i64* %2, align 8, !tbaa !5
  %119 = getelementptr inbounds i64, i64* %117, i64 1
  %120 = load i64, i64* %119, align 8, !tbaa !5
  store i64 %120, i64* %3, align 8, !tbaa !5
  %121 = icmp eq i64 %54, %99
  %122 = icmp eq i64 %53, %99
  %123 = select i1 %121, i1 %122, i1 false
  br i1 %123, label %141, label %124

124:                                              ; preds = %115
  br i1 %121, label %125, label %128

125:                                              ; preds = %124
  %126 = icmp slt i64 %100, %120
  %127 = select i1 %126, i64 %120, i64 %100
  br label %141

128:                                              ; preds = %124
  br i1 %122, label %129, label %132

129:                                              ; preds = %128
  %130 = icmp slt i64 %118, %101
  %131 = select i1 %130, i64 %118, i64 %101
  br label %141

132:                                              ; preds = %128
  %133 = icmp slt i64 %118, %120
  %134 = select i1 %133, i64 %120, i64 %118
  %135 = icmp slt i64 %134, %101
  %136 = select i1 %135, i64 %134, i64 %101
  %137 = icmp slt i64 %120, %118
  %138 = select i1 %137, i64 %120, i64 %118
  %139 = icmp slt i64 %100, %138
  %140 = select i1 %139, i64 %138, i64 %100
  br label %141

141:                                              ; preds = %115, %132, %129, %125
  %142 = phi i64 [ %100, %115 ], [ %127, %125 ], [ %100, %129 ], [ %140, %132 ]
  %143 = phi i64 [ %101, %115 ], [ %101, %125 ], [ %131, %129 ], [ %136, %132 ]
  %144 = add nuw i64 %99, 1
  br label %98, !llvm.loop !16

145:                                              ; preds = %103
  %146 = sub nsw i64 %106, %111
  %147 = bitcast %"class.std::vector.0"* %9 to i8*
  call void @llvm.lifetime.start.p0i8(i64 24, i8* nonnull %147) #21
  %148 = bitcast i64* %10 to i8*
  call void @llvm.lifetime.start.p0i8(i64 8, i8* nonnull %148) #21
  store i64 0, i64* %10, align 8, !tbaa !5
  %149 = getelementptr inbounds %"class.std::allocator.2", %"class.std::allocator.2"* %11, i64 0, i32 0
  call void @llvm.lifetime.start.p0i8(i64 1, i8* nonnull %149) #21
  invoke void @_ZNSt6vectorIxSaIxEEC2EmRKxRKS0_(%"class.std::vector.0"* nonnull align 8 dereferenceable(24) %9, i64 %55, i64* nonnull align 8 dereferenceable(8) %10, %"class.std::allocator.2"* nonnull align 1 dereferenceable(1) %11) #22
          to label %150 unwind label %192

150:                                              ; preds = %145
  call void @llvm.lifetime.end.p0i8(i64 1, i8* nonnull %149) #21
  call void @llvm.lifetime.end.p0i8(i64 8, i8* nonnull %148) #21
  %151 = bitcast %"class.std::vector"* %12 to i8*
  call void @llvm.lifetime.start.p0i8(i64 24, i8* nonnull %151) #21
  %152 = bitcast %"class.std::vector.0"* %13 to i8*
  call void @llvm.lifetime.start.p0i8(i64 24, i8* nonnull %152) #21
  %153 = bitcast i64* %14 to i8*
  call void @llvm.lifetime.start.p0i8(i64 8, i8* nonnull %153) #21
  store i64 0, i64* %14, align 8, !tbaa !5
  %154 = getelementptr inbounds %"class.std::allocator.2", %"class.std::allocator.2"* %15, i64 0, i32 0
  call void @llvm.lifetime.start.p0i8(i64 1, i8* nonnull %154) #21
  invoke void @_ZNSt6vectorIxSaIxEEC2EmRKxRKS0_(%"class.std::vector.0"* nonnull align 8 dereferenceable(24) %13, i64 2, i64* nonnull align 8 dereferenceable(8) %14, %"class.std::allocator.2"* nonnull align 1 dereferenceable(1) %15) #22
          to label %155 unwind label %194

155:                                              ; preds = %150
  %156 = getelementptr inbounds %"class.std::allocator", %"class.std::allocator"* %16, i64 0, i32 0
  call void @llvm.lifetime.start.p0i8(i64 1, i8* nonnull %156) #21
  invoke void @_ZNSt6vectorIS_IxSaIxEESaIS1_EEC2EmRKS1_RKS2_(%"class.std::vector"* nonnull align 8 dereferenceable(24) %12, i64 0, %"class.std::vector.0"* nonnull align 8 dereferenceable(24) %13, %"class.std::allocator"* nonnull align 1 dereferenceable(1) %16) #22
          to label %157 unwind label %196

157:                                              ; preds = %155
  call void @llvm.lifetime.end.p0i8(i64 1, i8* nonnull %156) #21
  %158 = getelementptr inbounds %"class.std::vector.0", %"class.std::vector.0"* %13, i64 0, i32 0
  call void @_ZNSt12_Vector_baseIxSaIxEED2Ev(%"struct.std::_Vector_base.1"* nonnull align 8 dereferenceable(24) %158) #23
  call void @llvm.lifetime.end.p0i8(i64 1, i8* nonnull %154) #21
  call void @llvm.lifetime.end.p0i8(i64 8, i8* nonnull %153) #21
  call void @llvm.lifetime.end.p0i8(i64 24, i8* nonnull %152) #21
  %159 = bitcast %"class.std::vector.0"* %23 to i8*
  %160 = bitcast [2 x i64]* %24 to i8*
  %161 = getelementptr inbounds [2 x i64], [2 x i64]* %24, i64 0, i64 0
  %162 = getelementptr inbounds [2 x i64], [2 x i64]* %24, i64 0, i64 1
  %163 = getelementptr inbounds %"class.std::allocator.2", %"class.std::allocator.2"* %25, i64 0, i32 0
  %164 = getelementptr inbounds %"class.std::vector.0", %"class.std::vector.0"* %23, i64 0, i32 0
  %165 = bitcast %"class.std::vector.0"* %26 to i8*
  %166 = bitcast [2 x i64]* %27 to i8*
  %167 = getelementptr inbounds [2 x i64], [2 x i64]* %27, i64 0, i64 0
  %168 = getelementptr inbounds [2 x i64], [2 x i64]* %27, i64 0, i64 1
  %169 = getelementptr inbounds %"class.std::allocator.2", %"class.std::allocator.2"* %28, i64 0, i32 0
  %170 = getelementptr inbounds %"class.std::vector.0", %"class.std::vector.0"* %26, i64 0, i32 0
  %171 = bitcast %"class.std::vector.0"* %20 to i8*
  %172 = bitcast [2 x i64]* %21 to i8*
  %173 = getelementptr inbounds [2 x i64], [2 x i64]* %21, i64 0, i64 0
  %174 = getelementptr inbounds [2 x i64], [2 x i64]* %21, i64 0, i64 1
  %175 = getelementptr inbounds %"class.std::allocator.2", %"class.std::allocator.2"* %22, i64 0, i32 0
  %176 = getelementptr inbounds %"class.std::vector.0", %"class.std::vector.0"* %20, i64 0, i32 0
  %177 = bitcast %"class.std::vector.0"* %17 to i8*
  %178 = bitcast [2 x i64]* %18 to i8*
  %179 = getelementptr inbounds [2 x i64], [2 x i64]* %18, i64 0, i64 0
  %180 = getelementptr inbounds [2 x i64], [2 x i64]* %18, i64 0, i64 1
  %181 = getelementptr inbounds %"class.std::allocator.2", %"class.std::allocator.2"* %19, i64 0, i32 0
  %182 = getelementptr inbounds %"class.std::vector.0", %"class.std::vector.0"* %17, i64 0, i32 0
  br label %183

183:                                              ; preds = %258, %157
  %184 = phi i64 [ %259, %258 ], [ 0, %157 ]
  %185 = load i64, i64* %1, align 8, !tbaa !5
  %186 = icmp sgt i64 %185, %184
  br i1 %186, label %201, label %187

187:                                              ; preds = %183
  %188 = bitcast %"class.std::vector"* %29 to i8*
  call void @llvm.lifetime.start.p0i8(i64 24, i8* nonnull %188) #21
  %189 = bitcast %"class.std::vector.0"* %30 to i8*
  call void @llvm.lifetime.start.p0i8(i64 24, i8* nonnull %189) #21
  %190 = bitcast i64* %31 to i8*
  call void @llvm.lifetime.start.p0i8(i64 8, i8* nonnull %190) #21
  store i64 0, i64* %31, align 8, !tbaa !5
  %191 = getelementptr inbounds %"class.std::allocator.2", %"class.std::allocator.2"* %32, i64 0, i32 0
  call void @llvm.lifetime.start.p0i8(i64 1, i8* nonnull %191) #21
  invoke void @_ZNSt6vectorIxSaIxEEC2EmRKxRKS0_(%"class.std::vector.0"* nonnull align 8 dereferenceable(24) %30, i64 2, i64* nonnull align 8 dereferenceable(8) %31, %"class.std::allocator.2"* nonnull align 1 dereferenceable(1) %32) #22
          to label %260 unwind label %292

192:                                              ; preds = %145
  %193 = landingpad { i8*, i32 }
          cleanup
  call void @llvm.lifetime.end.p0i8(i64 1, i8* nonnull %149) #21
  call void @llvm.lifetime.end.p0i8(i64 8, i8* nonnull %148) #21
  br label %367

194:                                              ; preds = %150
  %195 = landingpad { i8*, i32 }
          cleanup
  br label %199

196:                                              ; preds = %155
  %197 = landingpad { i8*, i32 }
          cleanup
  call void @llvm.lifetime.end.p0i8(i64 1, i8* nonnull %156) #21
  %198 = getelementptr inbounds %"class.std::vector.0", %"class.std::vector.0"* %13, i64 0, i32 0
  call void @_ZNSt12_Vector_baseIxSaIxEED2Ev(%"struct.std::_Vector_base.1"* nonnull align 8 dereferenceable(24) %198) #23
  br label %199

199:                                              ; preds = %196, %194
  %200 = phi { i8*, i32 } [ %197, %196 ], [ %195, %194 ]
  call void @llvm.lifetime.end.p0i8(i64 1, i8* nonnull %154) #21
  call void @llvm.lifetime.end.p0i8(i64 8, i8* nonnull %153) #21
  call void @llvm.lifetime.end.p0i8(i64 24, i8* nonnull %152) #21
  br label %364

201:                                              ; preds = %183
  %202 = icmp eq i64 %54, %184
  br i1 %202, label %203, label %217

203:                                              ; preds = %201
  call void @llvm.lifetime.start.p0i8(i64 24, i8* nonnull %177) #21
  call void @llvm.lifetime.start.p0i8(i64 16, i8* nonnull %178) #21
  %204 = load %"class.std::vector.0"*, %"class.std::vector.0"** %50, align 8, !tbaa !9
  %205 = getelementptr inbounds %"class.std::vector.0", %"class.std::vector.0"* %204, i64 %54, i32 0, i32 0, i32 0, i32 0
  %206 = load i64*, i64** %205, align 8, !tbaa !12
  %207 = getelementptr inbounds i64, i64* %206, i64 1
  %208 = load i64, i64* %207, align 8, !tbaa !5
  store i64 %208, i64* %179, align 8, !tbaa !5
  store i64 %54, i64* %180, align 8, !tbaa !5
  call void @llvm.lifetime.start.p0i8(i64 1, i8* nonnull %181) #21
  invoke void @_ZNSt6vectorIxSaIxEEC2ESt16initializer_listIxERKS0_(%"class.std::vector.0"* nonnull align 8 dereferenceable(24) %17, i64* nonnull %179, i64 2, %"class.std::allocator.2"* nonnull align 1 dereferenceable(1) %19) #22
          to label %209 unwind label %211

209:                                              ; preds = %203
  invoke void @_ZNSt6vectorIS_IxSaIxEESaIS1_EE12emplace_backIJS1_EEEvDpOT_(%"class.std::vector"* nonnull align 8 dereferenceable(24) %12, %"class.std::vector.0"* nonnull align 8 dereferenceable(24) %17) #22
          to label %210 unwind label %213

210:                                              ; preds = %209
  call void @_ZNSt12_Vector_baseIxSaIxEED2Ev(%"struct.std::_Vector_base.1"* nonnull align 8 dereferenceable(24) %182) #23
  call void @llvm.lifetime.end.p0i8(i64 1, i8* nonnull %181) #21
  call void @llvm.lifetime.end.p0i8(i64 16, i8* nonnull %178) #21
  call void @llvm.lifetime.end.p0i8(i64 24, i8* nonnull %177) #21
  br label %258

211:                                              ; preds = %203
  %212 = landingpad { i8*, i32 }
          cleanup
  br label %215

213:                                              ; preds = %209
  %214 = landingpad { i8*, i32 }
          cleanup
  call void @_ZNSt12_Vector_baseIxSaIxEED2Ev(%"struct.std::_Vector_base.1"* nonnull align 8 dereferenceable(24) %182) #23
  br label %215

215:                                              ; preds = %213, %211
  %216 = phi { i8*, i32 } [ %214, %213 ], [ %212, %211 ]
  call void @llvm.lifetime.end.p0i8(i64 1, i8* nonnull %181) #21
  call void @llvm.lifetime.end.p0i8(i64 16, i8* nonnull %178) #21
  call void @llvm.lifetime.end.p0i8(i64 24, i8* nonnull %177) #21
  br label %362

217:                                              ; preds = %201
  %218 = icmp eq i64 %53, %184
  br i1 %218, label %219, label %232

219:                                              ; preds = %217
  call void @llvm.lifetime.start.p0i8(i64 24, i8* nonnull %171) #21
  call void @llvm.lifetime.start.p0i8(i64 16, i8* nonnull %172) #21
  %220 = load %"class.std::vector.0"*, %"class.std::vector.0"** %50, align 8, !tbaa !9
  %221 = getelementptr inbounds %"class.std::vector.0", %"class.std::vector.0"* %220, i64 %53, i32 0, i32 0, i32 0, i32 0
  %222 = load i64*, i64** %221, align 8, !tbaa !12
  %223 = load i64, i64* %222, align 8, !tbaa !5
  store i64 %223, i64* %173, align 8, !tbaa !5
  store i64 %53, i64* %174, align 8, !tbaa !5
  call void @llvm.lifetime.start.p0i8(i64 1, i8* nonnull %175) #21
  invoke void @_ZNSt6vectorIxSaIxEEC2ESt16initializer_listIxERKS0_(%"class.std::vector.0"* nonnull align 8 dereferenceable(24) %20, i64* nonnull %173, i64 2, %"class.std::allocator.2"* nonnull align 1 dereferenceable(1) %22) #22
          to label %224 unwind label %226

224:                                              ; preds = %219
  invoke void @_ZNSt6vectorIS_IxSaIxEESaIS1_EE12emplace_backIJS1_EEEvDpOT_(%"class.std::vector"* nonnull align 8 dereferenceable(24) %12, %"class.std::vector.0"* nonnull align 8 dereferenceable(24) %20) #22
          to label %225 unwind label %228

225:                                              ; preds = %224
  call void @_ZNSt12_Vector_baseIxSaIxEED2Ev(%"struct.std::_Vector_base.1"* nonnull align 8 dereferenceable(24) %176) #23
  call void @llvm.lifetime.end.p0i8(i64 1, i8* nonnull %175) #21
  call void @llvm.lifetime.end.p0i8(i64 16, i8* nonnull %172) #21
  call void @llvm.lifetime.end.p0i8(i64 24, i8* nonnull %171) #21
  br label %258

226:                                              ; preds = %219
  %227 = landingpad { i8*, i32 }
          cleanup
  br label %230

228:                                              ; preds = %224
  %229 = landingpad { i8*, i32 }
          cleanup
  call void @_ZNSt12_Vector_baseIxSaIxEED2Ev(%"struct.std::_Vector_base.1"* nonnull align 8 dereferenceable(24) %176) #23
  br label %230

230:                                              ; preds = %228, %226
  %231 = phi { i8*, i32 } [ %229, %228 ], [ %227, %226 ]
  call void @llvm.lifetime.end.p0i8(i64 1, i8* nonnull %175) #21
  call void @llvm.lifetime.end.p0i8(i64 16, i8* nonnull %172) #21
  call void @llvm.lifetime.end.p0i8(i64 24, i8* nonnull %171) #21
  br label %362

232:                                              ; preds = %217
  call void @llvm.lifetime.start.p0i8(i64 24, i8* nonnull %159) #21
  call void @llvm.lifetime.start.p0i8(i64 16, i8* nonnull %160) #21
  %233 = load %"class.std::vector.0"*, %"class.std::vector.0"** %50, align 8, !tbaa !9
  %234 = getelementptr inbounds %"class.std::vector.0", %"class.std::vector.0"* %233, i64 %184, i32 0, i32 0, i32 0, i32 0
  %235 = load i64*, i64** %234, align 8, !tbaa !12
  %236 = load i64, i64* %235, align 8, !tbaa !5
  store i64 %236, i64* %161, align 8, !tbaa !5
  store i64 %184, i64* %162, align 8, !tbaa !5
  call void @llvm.lifetime.start.p0i8(i64 1, i8* nonnull %163) #21
  invoke void @_ZNSt6vectorIxSaIxEEC2ESt16initializer_listIxERKS0_(%"class.std::vector.0"* nonnull align 8 dereferenceable(24) %23, i64* nonnull %161, i64 2, %"class.std::allocator.2"* nonnull align 1 dereferenceable(1) %25) #22
          to label %237 unwind label %246

237:                                              ; preds = %232
  invoke void @_ZNSt6vectorIS_IxSaIxEESaIS1_EE12emplace_backIJS1_EEEvDpOT_(%"class.std::vector"* nonnull align 8 dereferenceable(24) %12, %"class.std::vector.0"* nonnull align 8 dereferenceable(24) %23) #22
          to label %238 unwind label %248

238:                                              ; preds = %237
  call void @_ZNSt12_Vector_baseIxSaIxEED2Ev(%"struct.std::_Vector_base.1"* nonnull align 8 dereferenceable(24) %164) #23
  call void @llvm.lifetime.end.p0i8(i64 1, i8* nonnull %163) #21
  call void @llvm.lifetime.end.p0i8(i64 16, i8* nonnull %160) #21
  call void @llvm.lifetime.end.p0i8(i64 24, i8* nonnull %159) #21
  call void @llvm.lifetime.start.p0i8(i64 24, i8* nonnull %165) #21
  call void @llvm.lifetime.start.p0i8(i64 16, i8* nonnull %166) #21
  %239 = load %"class.std::vector.0"*, %"class.std::vector.0"** %50, align 8, !tbaa !9
  %240 = getelementptr inbounds %"class.std::vector.0", %"class.std::vector.0"* %239, i64 %184, i32 0, i32 0, i32 0, i32 0
  %241 = load i64*, i64** %240, align 8, !tbaa !12
  %242 = getelementptr inbounds i64, i64* %241, i64 1
  %243 = load i64, i64* %242, align 8, !tbaa !5
  store i64 %243, i64* %167, align 8, !tbaa !5
  store i64 %184, i64* %168, align 8, !tbaa !5
  call void @llvm.lifetime.start.p0i8(i64 1, i8* nonnull %169) #21
  invoke void @_ZNSt6vectorIxSaIxEEC2ESt16initializer_listIxERKS0_(%"class.std::vector.0"* nonnull align 8 dereferenceable(24) %26, i64* nonnull %167, i64 2, %"class.std::allocator.2"* nonnull align 1 dereferenceable(1) %28) #22
          to label %244 unwind label %252

244:                                              ; preds = %238
  invoke void @_ZNSt6vectorIS_IxSaIxEESaIS1_EE12emplace_backIJS1_EEEvDpOT_(%"class.std::vector"* nonnull align 8 dereferenceable(24) %12, %"class.std::vector.0"* nonnull align 8 dereferenceable(24) %26) #22
          to label %245 unwind label %254

245:                                              ; preds = %244
  call void @_ZNSt12_Vector_baseIxSaIxEED2Ev(%"struct.std::_Vector_base.1"* nonnull align 8 dereferenceable(24) %170) #23
  call void @llvm.lifetime.end.p0i8(i64 1, i8* nonnull %169) #21
  call void @llvm.lifetime.end.p0i8(i64 16, i8* nonnull %166) #21
  call void @llvm.lifetime.end.p0i8(i64 24, i8* nonnull %165) #21
  br label %258

246:                                              ; preds = %232
  %247 = landingpad { i8*, i32 }
          cleanup
  br label %250

248:                                              ; preds = %237
  %249 = landingpad { i8*, i32 }
          cleanup
  call void @_ZNSt12_Vector_baseIxSaIxEED2Ev(%"struct.std::_Vector_base.1"* nonnull align 8 dereferenceable(24) %164) #23
  br label %250

250:                                              ; preds = %248, %246
  %251 = phi { i8*, i32 } [ %249, %248 ], [ %247, %246 ]
  call void @llvm.lifetime.end.p0i8(i64 1, i8* nonnull %163) #21
  call void @llvm.lifetime.end.p0i8(i64 16, i8* nonnull %160) #21
  call void @llvm.lifetime.end.p0i8(i64 24, i8* nonnull %159) #21
  br label %362

252:                                              ; preds = %238
  %253 = landingpad { i8*, i32 }
          cleanup
  br label %256

254:                                              ; preds = %244
  %255 = landingpad { i8*, i32 }
          cleanup
  call void @_ZNSt12_Vector_baseIxSaIxEED2Ev(%"struct.std::_Vector_base.1"* nonnull align 8 dereferenceable(24) %170) #23
  br label %256

256:                                              ; preds = %254, %252
  %257 = phi { i8*, i32 } [ %255, %254 ], [ %253, %252 ]
  call void @llvm.lifetime.end.p0i8(i64 1, i8* nonnull %169) #21
  call void @llvm.lifetime.end.p0i8(i64 16, i8* nonnull %166) #21
  call void @llvm.lifetime.end.p0i8(i64 24, i8* nonnull %165) #21
  br label %362

258:                                              ; preds = %210, %245, %225
  %259 = add nuw nsw i64 %184, 1
  br label %183, !llvm.loop !17

260:                                              ; preds = %187
  %261 = getelementptr inbounds %"class.std::allocator", %"class.std::allocator"* %33, i64 0, i32 0
  call void @llvm.lifetime.start.p0i8(i64 1, i8* nonnull %261) #21
  invoke void @_ZNSt6vectorIS_IxSaIxEESaIS1_EEC2EmRKS1_RKS2_(%"class.std::vector"* nonnull align 8 dereferenceable(24) %29, i64 0, %"class.std::vector.0"* nonnull align 8 dereferenceable(24) %30, %"class.std::allocator"* nonnull align 1 dereferenceable(1) %33) #22
          to label %262 unwind label %294

262:                                              ; preds = %260
  call void @llvm.lifetime.end.p0i8(i64 1, i8* nonnull %261) #21
  %263 = getelementptr inbounds %"class.std::vector.0", %"class.std::vector.0"* %30, i64 0, i32 0
  call void @_ZNSt12_Vector_baseIxSaIxEED2Ev(%"struct.std::_Vector_base.1"* nonnull align 8 dereferenceable(24) %263) #23
  call void @llvm.lifetime.end.p0i8(i64 1, i8* nonnull %191) #21
  call void @llvm.lifetime.end.p0i8(i64 8, i8* nonnull %190) #21
  call void @llvm.lifetime.end.p0i8(i64 24, i8* nonnull %189) #21
  %264 = getelementptr inbounds %"class.std::vector", %"class.std::vector"* %12, i64 0, i32 0, i32 0, i32 0, i32 0
  %265 = load %"class.std::vector.0"*, %"class.std::vector.0"** %264, align 8, !tbaa !18
  %266 = getelementptr inbounds %"class.std::vector", %"class.std::vector"* %12, i64 0, i32 0, i32 0, i32 0, i32 1
  %267 = load %"class.std::vector.0"*, %"class.std::vector.0"** %266, align 8, !tbaa !18
  invoke void @_ZSt6__sortIN9__gnu_cxx17__normal_iteratorIPSt6vectorIxSaIxEES2_IS4_SaIS4_EEEENS0_5__ops15_Iter_less_iterEEvT_SB_T0_(%"class.std::vector.0"* %265, %"class.std::vector.0"* %267) #22
          to label %268 unwind label %299

268:                                              ; preds = %262
  %269 = getelementptr inbounds %"class.std::vector.0", %"class.std::vector.0"* %9, i64 0, i32 0, i32 0, i32 0, i32 0
  %270 = bitcast %"class.std::vector.0"* %34 to i8*
  %271 = bitcast [2 x i64]* %35 to i8*
  %272 = getelementptr inbounds [2 x i64], [2 x i64]* %35, i64 0, i64 0
  %273 = getelementptr inbounds [2 x i64], [2 x i64]* %35, i64 0, i64 1
  %274 = getelementptr inbounds %"class.std::allocator.2", %"class.std::allocator.2"* %36, i64 0, i32 0
  %275 = getelementptr inbounds %"class.std::vector.0", %"class.std::vector.0"* %34, i64 0, i32 0
  %276 = getelementptr inbounds %"class.std::vector", %"class.std::vector"* %29, i64 0, i32 0, i32 0, i32 0, i32 0
  %277 = getelementptr inbounds %"class.std::vector", %"class.std::vector"* %29, i64 0, i32 0, i32 0, i32 0, i32 1
  br label %278

278:                                              ; preds = %268, %354
  %279 = phi i64 [ 0, %268 ], [ %357, %354 ]
  %280 = phi i64 [ %113, %268 ], [ %355, %354 ]
  %281 = phi i64 [ 0, %268 ], [ %312, %354 ]
  %282 = phi i64 [ 0, %268 ], [ %356, %354 ]
  %283 = load %"class.std::vector.0"*, %"class.std::vector.0"** %266, align 8, !tbaa !19
  %284 = load %"class.std::vector.0"*, %"class.std::vector.0"** %264, align 8, !tbaa !9
  %285 = ptrtoint %"class.std::vector.0"* %283 to i64
  %286 = ptrtoint %"class.std::vector.0"* %284 to i64
  %287 = sub i64 %285, %286
  %288 = sdiv exact i64 %287, 24
  %289 = icmp ugt i64 %288, %279
  br i1 %289, label %301, label %290

290:                                              ; preds = %278
  call void @_ZNSt6vectorIS_IxSaIxEESaIS1_EED2Ev(%"class.std::vector"* nonnull align 8 dereferenceable(24) %29) #23
  call void @llvm.lifetime.end.p0i8(i64 24, i8* nonnull %188) #21
  call void @_ZNSt6vectorIS_IxSaIxEESaIS1_EED2Ev(%"class.std::vector"* nonnull align 8 dereferenceable(24) %12) #23
  call void @llvm.lifetime.end.p0i8(i64 24, i8* nonnull %151) #21
  %291 = getelementptr inbounds %"class.std::vector.0", %"class.std::vector.0"* %9, i64 0, i32 0
  call void @_ZNSt12_Vector_baseIxSaIxEED2Ev(%"struct.std::_Vector_base.1"* nonnull align 8 dereferenceable(24) %291) #23
  call void @llvm.lifetime.end.p0i8(i64 24, i8* nonnull %147) #21
  br label %369

292:                                              ; preds = %187
  %293 = landingpad { i8*, i32 }
          cleanup
  br label %297

294:                                              ; preds = %260
  %295 = landingpad { i8*, i32 }
          cleanup
  call void @llvm.lifetime.end.p0i8(i64 1, i8* nonnull %261) #21
  %296 = getelementptr inbounds %"class.std::vector.0", %"class.std::vector.0"* %30, i64 0, i32 0
  call void @_ZNSt12_Vector_baseIxSaIxEED2Ev(%"struct.std::_Vector_base.1"* nonnull align 8 dereferenceable(24) %296) #23
  br label %297

297:                                              ; preds = %294, %292
  %298 = phi { i8*, i32 } [ %295, %294 ], [ %293, %292 ]
  call void @llvm.lifetime.end.p0i8(i64 1, i8* nonnull %191) #21
  call void @llvm.lifetime.end.p0i8(i64 8, i8* nonnull %190) #21
  call void @llvm.lifetime.end.p0i8(i64 24, i8* nonnull %189) #21
  br label %360

299:                                              ; preds = %262
  %300 = landingpad { i8*, i32 }
          cleanup
  br label %358

301:                                              ; preds = %278
  %302 = getelementptr inbounds %"class.std::vector.0", %"class.std::vector.0"* %284, i64 %279, i32 0, i32 0, i32 0, i32 0
  %303 = load i64*, i64** %302, align 8, !tbaa !12
  %304 = load i64, i64* %303, align 8, !tbaa !5
  %305 = getelementptr inbounds i64, i64* %303, i64 1
  %306 = load i64, i64* %305, align 8, !tbaa !5
  %307 = load i64*, i64** %269, align 8, !tbaa !12
  %308 = getelementptr inbounds i64, i64* %307, i64 %306
  %309 = load i64, i64* %308, align 8, !tbaa !5
  %310 = icmp eq i64 %309, 0
  %311 = zext i1 %310 to i64
  %312 = add nuw nsw i64 %281, %311
  %313 = add nsw i64 %309, 1
  store i64 %313, i64* %308, align 8, !tbaa !5
  call void @llvm.lifetime.start.p0i8(i64 24, i8* nonnull %270) #21
  call void @llvm.lifetime.start.p0i8(i64 16, i8* nonnull %271) #21
  store i64 %304, i64* %272, align 8, !tbaa !5
  store i64 %306, i64* %273, align 8, !tbaa !5
  call void @llvm.lifetime.start.p0i8(i64 1, i8* nonnull %274) #21
  invoke void @_ZNSt6vectorIxSaIxEEC2ESt16initializer_listIxERKS0_(%"class.std::vector.0"* nonnull align 8 dereferenceable(24) %34, i64* nonnull %272, i64 2, %"class.std::allocator.2"* nonnull align 1 dereferenceable(1) %36) #22
          to label %314 unwind label %333

314:                                              ; preds = %301
  invoke void @_ZNSt6vectorIS_IxSaIxEESaIS1_EE12emplace_backIJS1_EEEvDpOT_(%"class.std::vector"* nonnull align 8 dereferenceable(24) %29, %"class.std::vector.0"* nonnull align 8 dereferenceable(24) %34) #22
          to label %315 unwind label %335

315:                                              ; preds = %314
  call void @_ZNSt12_Vector_baseIxSaIxEED2Ev(%"struct.std::_Vector_base.1"* nonnull align 8 dereferenceable(24) %275) #23
  call void @llvm.lifetime.end.p0i8(i64 1, i8* nonnull %274) #21
  call void @llvm.lifetime.end.p0i8(i64 16, i8* nonnull %271) #21
  call void @llvm.lifetime.end.p0i8(i64 24, i8* nonnull %270) #21
  %316 = load i64, i64* %1, align 8, !tbaa !5
  %317 = icmp eq i64 %312, %316
  br i1 %317, label %318, label %354

318:                                              ; preds = %315
  %319 = load %"class.std::vector.0"*, %"class.std::vector.0"** %276, align 8, !tbaa !9
  %320 = load i64*, i64** %269, align 8, !tbaa !12
  br label %321

321:                                              ; preds = %318, %330
  %322 = phi i64 [ %332, %330 ], [ %282, %318 ]
  %323 = getelementptr inbounds %"class.std::vector.0", %"class.std::vector.0"* %319, i64 %322, i32 0, i32 0, i32 0, i32 0
  %324 = load i64*, i64** %323, align 8, !tbaa !12
  %325 = getelementptr inbounds i64, i64* %324, i64 1
  %326 = load i64, i64* %325, align 8, !tbaa !5
  %327 = getelementptr inbounds i64, i64* %320, i64 %326
  %328 = load i64, i64* %327, align 8, !tbaa !5
  %329 = icmp sgt i64 %328, 1
  br i1 %329, label %330, label %339

330:                                              ; preds = %321
  %331 = add nsw i64 %328, -1
  store i64 %331, i64* %327, align 8, !tbaa !5
  %332 = add nsw i64 %322, 1
  br label %321, !llvm.loop !20

333:                                              ; preds = %301
  %334 = landingpad { i8*, i32 }
          cleanup
  br label %337

335:                                              ; preds = %314
  %336 = landingpad { i8*, i32 }
          cleanup
  call void @_ZNSt12_Vector_baseIxSaIxEED2Ev(%"struct.std::_Vector_base.1"* nonnull align 8 dereferenceable(24) %275) #23
  br label %337

337:                                              ; preds = %335, %333
  %338 = phi { i8*, i32 } [ %336, %335 ], [ %334, %333 ]
  call void @llvm.lifetime.end.p0i8(i64 1, i8* nonnull %274) #21
  call void @llvm.lifetime.end.p0i8(i64 16, i8* nonnull %271) #21
  call void @llvm.lifetime.end.p0i8(i64 24, i8* nonnull %270) #21
  br label %358

339:                                              ; preds = %321
  %340 = load %"class.std::vector.0"*, %"class.std::vector.0"** %277, align 8, !tbaa !19
  %341 = ptrtoint %"class.std::vector.0"* %340 to i64
  %342 = ptrtoint %"class.std::vector.0"* %319 to i64
  %343 = sub i64 %341, %342
  %344 = sdiv exact i64 %343, 24
  %345 = add nsw i64 %344, -1
  %346 = getelementptr inbounds %"class.std::vector.0", %"class.std::vector.0"* %319, i64 %345, i32 0, i32 0, i32 0, i32 0
  %347 = load i64*, i64** %346, align 8, !tbaa !12
  %348 = load i64, i64* %347, align 8, !tbaa !5
  %349 = load i64, i64* %324, align 8, !tbaa !5
  %350 = sub nsw i64 %348, %349
  %351 = mul nsw i64 %350, %146
  %352 = icmp slt i64 %351, %280
  %353 = select i1 %352, i64 %351, i64 %280
  br label %354

354:                                              ; preds = %339, %315
  %355 = phi i64 [ %353, %339 ], [ %280, %315 ]
  %356 = phi i64 [ %322, %339 ], [ %282, %315 ]
  %357 = add nuw i64 %279, 1
  br label %278, !llvm.loop !21

358:                                              ; preds = %337, %299
  %359 = phi { i8*, i32 } [ %338, %337 ], [ %300, %299 ]
  call void @_ZNSt6vectorIS_IxSaIxEESaIS1_EED2Ev(%"class.std::vector"* nonnull align 8 dereferenceable(24) %29) #23
  br label %360

360:                                              ; preds = %358, %297
  %361 = phi { i8*, i32 } [ %359, %358 ], [ %298, %297 ]
  call void @llvm.lifetime.end.p0i8(i64 24, i8* nonnull %188) #21
  br label %362

362:                                              ; preds = %215, %230, %250, %256, %360
  %363 = phi { i8*, i32 } [ %361, %360 ], [ %216, %215 ], [ %231, %230 ], [ %257, %256 ], [ %251, %250 ]
  call void @_ZNSt6vectorIS_IxSaIxEESaIS1_EED2Ev(%"class.std::vector"* nonnull align 8 dereferenceable(24) %12) #23
  br label %364

364:                                              ; preds = %362, %199
  %365 = phi { i8*, i32 } [ %363, %362 ], [ %200, %199 ]
  call void @llvm.lifetime.end.p0i8(i64 24, i8* nonnull %151) #21
  %366 = getelementptr inbounds %"class.std::vector.0", %"class.std::vector.0"* %9, i64 0, i32 0
  call void @_ZNSt12_Vector_baseIxSaIxEED2Ev(%"struct.std::_Vector_base.1"* nonnull align 8 dereferenceable(24) %366) #23
  br label %367

367:                                              ; preds = %364, %192
  %368 = phi { i8*, i32 } [ %365, %364 ], [ %193, %192 ]
  call void @llvm.lifetime.end.p0i8(i64 24, i8* nonnull %147) #21
  br label %377

369:                                              ; preds = %290, %103
  %370 = phi i64 [ %113, %103 ], [ %280, %290 ]
  %371 = invoke nonnull align 8 dereferenceable(8) %"class.std::basic_ostream"* @_ZNSo9_M_insertIxEERSoT_(%"class.std::basic_ostream"* nonnull align 8 dereferenceable(8) @_ZSt4cout, i64 %370) #22
          to label %372 unwind label %375

372:                                              ; preds = %369
  %373 = invoke nonnull align 8 dereferenceable(8) %"class.std::basic_ostream"* @_ZSt4endlIcSt11char_traitsIcEERSt13basic_ostreamIT_T0_ES6_(%"class.std::basic_ostream"* nonnull align 8 dereferenceable(8) %371) #22
          to label %374 unwind label %375

374:                                              ; preds = %372
  call void @_ZNSt6vectorIS_IxSaIxEESaIS1_EED2Ev(%"class.std::vector"* nonnull align 8 dereferenceable(24) %4) #23
  call void @llvm.lifetime.end.p0i8(i64 24, i8* nonnull %41) #21
  call void @llvm.lifetime.end.p0i8(i64 8, i8* nonnull %40) #21
  call void @llvm.lifetime.end.p0i8(i64 8, i8* nonnull %39) #21
  call void @llvm.lifetime.end.p0i8(i64 8, i8* nonnull %37) #21
  ret i32 0

375:                                              ; preds = %372, %369
  %376 = landingpad { i8*, i32 }
          cleanup
  br label %377

377:                                              ; preds = %367, %375, %76
  %378 = phi { i8*, i32 } [ %77, %76 ], [ %368, %367 ], [ %376, %375 ]
  call void @_ZNSt6vectorIS_IxSaIxEESaIS1_EED2Ev(%"class.std::vector"* nonnull align 8 dereferenceable(24) %4) #23
  br label %379

379:                                              ; preds = %377, %65
  %380 = phi { i8*, i32 } [ %378, %377 ], [ %66, %65 ]
  call void @llvm.lifetime.end.p0i8(i64 24, i8* nonnull %41) #21
  call void @llvm.lifetime.end.p0i8(i64 8, i8* nonnull %40) #21
  call void @llvm.lifetime.end.p0i8(i64 8, i8* nonnull %39) #21
  call void @llvm.lifetime.end.p0i8(i64 8, i8* nonnull %37) #21
  resume { i8*, i32 } %380
}

; Function Attrs: argmemonly mustprogress nofree nosync nounwind willreturn
declare void @llvm.lifetime.start.p0i8(i64 immarg, i8* nocapture) #4

; Function Attrs: minsize optsize sspstrong uwtable
define linkonce_odr dso_local void @_ZNSt6vectorIxSaIxEEC2EmRKxRKS0_(%"class.std::vector.0"* nonnull align 8 dereferenceable(24) %0, i64 %1, i64* nonnull align 8 dereferenceable(8) %2, %"class.std::allocator.2"* nonnull align 1 dereferenceable(1) %3) unnamed_addr #5 comdat align 2 personality i8* bitcast (i32 (...)* @__gxx_personality_v0 to i8*) {
  %5 = getelementptr inbounds %"class.std::vector.0", %"class.std::vector.0"* %0, i64 0, i32 0
  %6 = tail call i64 @_ZNSt6vectorIxSaIxEE17_S_check_init_lenEmRKS0_(i64 %1, %"class.std::allocator.2"* nonnull align 1 dereferenceable(1) %3) #22
  %7 = bitcast %"class.std::vector.0"* %0 to i8*
  tail call void @llvm.memset.p0i8.i64(i8* noundef nonnull align 8 dereferenceable(24) %7, i8 0, i64 24, i1 false) #21
  tail call void @_ZNSt12_Vector_baseIxSaIxEE17_M_create_storageEm(%"struct.std::_Vector_base.1"* nonnull align 8 dereferenceable(24) %5, i64 %6) #22
  invoke void @_ZNSt6vectorIxSaIxEE18_M_fill_initializeEmRKx(%"class.std::vector.0"* nonnull align 8 dereferenceable(24) %0, i64 %1, i64* nonnull align 8 dereferenceable(8) %2) #22
          to label %8 unwind label %9

8:                                                ; preds = %4
  ret void

9:                                                ; preds = %4
  %10 = landingpad { i8*, i32 }
          cleanup
  tail call void @_ZNSt12_Vector_baseIxSaIxEED2Ev(%"struct.std::_Vector_base.1"* nonnull align 8 dereferenceable(24) %5) #23
  resume { i8*, i32 } %10
}

declare i32 @__gxx_personality_v0(...)

; Function Attrs: minsize optsize sspstrong uwtable
define linkonce_odr dso_local void @_ZNSt6vectorIS_IxSaIxEESaIS1_EEC2EmRKS1_RKS2_(%"class.std::vector"* nonnull align 8 dereferenceable(24) %0, i64 %1, %"class.std::vector.0"* nonnull align 8 dereferenceable(24) %2, %"class.std::allocator"* nonnull align 1 dereferenceable(1) %3) unnamed_addr #5 comdat align 2 personality i8* bitcast (i32 (...)* @__gxx_personality_v0 to i8*) {
  %5 = getelementptr inbounds %"class.std::vector", %"class.std::vector"* %0, i64 0, i32 0
  %6 = tail call i64 @_ZNSt6vectorIS_IxSaIxEESaIS1_EE17_S_check_init_lenEmRKS2_(i64 %1, %"class.std::allocator"* nonnull align 1 dereferenceable(1) %3) #22
  %7 = bitcast %"class.std::vector"* %0 to i8*
  tail call void @llvm.memset.p0i8.i64(i8* noundef nonnull align 8 dereferenceable(24) %7, i8 0, i64 24, i1 false) #21
  tail call void @_ZNSt12_Vector_baseISt6vectorIxSaIxEESaIS2_EE17_M_create_storageEm(%"struct.std::_Vector_base"* nonnull align 8 dereferenceable(24) %5, i64 %6) #22
  invoke void @_ZNSt6vectorIS_IxSaIxEESaIS1_EE18_M_fill_initializeEmRKS1_(%"class.std::vector"* nonnull align 8 dereferenceable(24) %0, i64 %1, %"class.std::vector.0"* nonnull align 8 dereferenceable(24) %2) #22
          to label %8 unwind label %9

8:                                                ; preds = %4
  ret void

9:                                                ; preds = %4
  %10 = landingpad { i8*, i32 }
          cleanup
  tail call void @_ZNSt12_Vector_baseISt6vectorIxSaIxEESaIS2_EED2Ev(%"struct.std::_Vector_base"* nonnull align 8 dereferenceable(24) %5) #23
  resume { i8*, i32 } %10
}

; Function Attrs: argmemonly mustprogress nofree nosync nounwind willreturn
declare void @llvm.lifetime.end.p0i8(i64 immarg, i8* nocapture) #4

; Function Attrs: minsize optsize sspstrong uwtable
define linkonce_odr dso_local void @_ZNSt6vectorIxSaIxEEC2ESt16initializer_listIxERKS0_(%"class.std::vector.0"* nonnull align 8 dereferenceable(24) %0, i64* %1, i64 %2, %"class.std::allocator.2"* nonnull align 1 dereferenceable(1) %3) unnamed_addr #5 comdat align 2 personality i8* bitcast (i32 (...)* @__gxx_personality_v0 to i8*) {
  %5 = bitcast %"class.std::vector.0"* %0 to i8*
  tail call void @llvm.memset.p0i8.i64(i8* noundef nonnull align 8 dereferenceable(24) %5, i8 0, i64 24, i1 false) #21
  %6 = getelementptr inbounds i64, i64* %1, i64 %2
  invoke void @_ZNSt6vectorIxSaIxEE19_M_range_initializeIPKxEEvT_S5_St20forward_iterator_tag(%"class.std::vector.0"* nonnull align 8 dereferenceable(24) %0, i64* %1, i64* %6) #22
          to label %7 unwind label %8

7:                                                ; preds = %4
  ret void

8:                                                ; preds = %4
  %9 = landingpad { i8*, i32 }
          cleanup
  %10 = getelementptr inbounds %"class.std::vector.0", %"class.std::vector.0"* %0, i64 0, i32 0
  tail call void @_ZNSt12_Vector_baseIxSaIxEED2Ev(%"struct.std::_Vector_base.1"* nonnull align 8 dereferenceable(24) %10) #23
  resume { i8*, i32 } %9
}

; Function Attrs: minsize nounwind optsize sspstrong uwtable
define linkonce_odr dso_local void @_ZNSt6vectorIS_IxSaIxEESaIS1_EED2Ev(%"class.std::vector"* nonnull align 8 dereferenceable(24) %0) unnamed_addr #6 comdat align 2 personality i8* bitcast (i32 (...)* @__gxx_personality_v0 to i8*) {
  %2 = getelementptr inbounds %"class.std::vector", %"class.std::vector"* %0, i64 0, i32 0
  %3 = getelementptr inbounds %"class.std::vector", %"class.std::vector"* %0, i64 0, i32 0, i32 0, i32 0, i32 0
  %4 = load %"class.std::vector.0"*, %"class.std::vector.0"** %3, align 8, !tbaa !9
  %5 = getelementptr inbounds %"class.std::vector", %"class.std::vector"* %0, i64 0, i32 0, i32 0, i32 0, i32 1
  %6 = load %"class.std::vector.0"*, %"class.std::vector.0"** %5, align 8, !tbaa !19
  invoke void @_ZNSt12_Destroy_auxILb0EE9__destroyIPSt6vectorIxSaIxEEEEvT_S6_(%"class.std::vector.0"* %4, %"class.std::vector.0"* %6) #22
          to label %7 unwind label %8

7:                                                ; preds = %1
  tail call void @_ZNSt12_Vector_baseISt6vectorIxSaIxEESaIS2_EED2Ev(%"struct.std::_Vector_base"* nonnull align 8 dereferenceable(24) %2) #23
  ret void

8:                                                ; preds = %1
  %9 = landingpad { i8*, i32 }
          catch i8* null
  %10 = extractvalue { i8*, i32 } %9, 0
  tail call void @_ZNSt12_Vector_baseISt6vectorIxSaIxEESaIS2_EED2Ev(%"struct.std::_Vector_base"* nonnull align 8 dereferenceable(24) %2) #23
  tail call void @__clang_call_terminate(i8* %10) #24
  unreachable
}

; Function Attrs: inlinehint minsize mustprogress optsize sspstrong uwtable
declare nonnull align 8 dereferenceable(8) %"class.std::basic_ostream"* @_ZSt4endlIcSt11char_traitsIcEERSt13basic_ostreamIT_T0_ES6_(%"class.std::basic_ostream"* nonnull align 8 dereferenceable(8)) local_unnamed_addr #7

; Function Attrs: minsize optsize
declare nonnull align 8 dereferenceable(16) %"class.std::basic_istream"* @_ZNSi10_M_extractIxEERSiRT_(%"class.std::basic_istream"* nonnull align 8 dereferenceable(16), i64* nonnull align 8 dereferenceable(8)) local_unnamed_addr #0

; Function Attrs: minsize optsize sspstrong uwtable
define linkonce_odr dso_local i64 @_ZNSt6vectorIxSaIxEE17_S_check_init_lenEmRKS0_(i64 %0, %"class.std::allocator.2"* nonnull align 1 dereferenceable(1) %1) local_unnamed_addr #5 comdat align 2 personality i32 (...)* @__gxx_personality_v0 {
  %3 = icmp ugt i64 %0, 1152921504606846975
  br i1 %3, label %4, label %5

4:                                                ; preds = %2
  tail call void @_ZSt20__throw_length_errorPKc(i8* getelementptr inbounds ([49 x i8], [49 x i8]* @.str, i64 0, i64 0)) #25
  unreachable

5:                                                ; preds = %2
  ret i64 %0
}

; Function Attrs: minsize mustprogress optsize sspstrong uwtable
define linkonce_odr dso_local void @_ZNSt6vectorIxSaIxEE18_M_fill_initializeEmRKx(%"class.std::vector.0"* nonnull align 8 dereferenceable(24) %0, i64 %1, i64* nonnull align 8 dereferenceable(8) %2) local_unnamed_addr #8 comdat align 2 {
  %4 = getelementptr inbounds %"class.std::vector.0", %"class.std::vector.0"* %0, i64 0, i32 0, i32 0, i32 0, i32 0
  %5 = load i64*, i64** %4, align 8, !tbaa !12
  %6 = tail call i64* @_ZSt10__fill_n_aIPxmxET_S1_T0_RKT1_St26random_access_iterator_tag(i64* %5, i64 %1, i64* nonnull align 8 dereferenceable(8) %2) #22
  %7 = getelementptr inbounds %"class.std::vector.0", %"class.std::vector.0"* %0, i64 0, i32 0, i32 0, i32 0, i32 1
  store i64* %6, i64** %7, align 8, !tbaa !22
  ret void
}

; Function Attrs: minsize nounwind optsize sspstrong uwtable
define linkonce_odr dso_local void @_ZNSt12_Vector_baseIxSaIxEED2Ev(%"struct.std::_Vector_base.1"* nonnull align 8 dereferenceable(24) %0) unnamed_addr #6 comdat align 2 personality i8* bitcast (i32 (...)* @__gxx_personality_v0 to i8*) {
  %2 = getelementptr inbounds %"struct.std::_Vector_base.1", %"struct.std::_Vector_base.1"* %0, i64 0, i32 0, i32 0, i32 0
  %3 = load i64*, i64** %2, align 8, !tbaa !12
  %4 = icmp eq i64* %3, null
  br i1 %4, label %7, label %5

5:                                                ; preds = %1
  %6 = bitcast i64* %3 to i8*
  tail call void @_ZdlPv(i8* nonnull %6) #23
  br label %7

7:                                                ; preds = %5, %1
  ret void
}

; Function Attrs: minsize noreturn optsize
declare void @_ZSt20__throw_length_errorPKc(i8*) local_unnamed_addr #9

; Function Attrs: noinline noreturn nounwind
define linkonce_odr hidden void @__clang_call_terminate(i8* %0) local_unnamed_addr #10 comdat {
  %2 = tail call i8* @__cxa_begin_catch(i8* %0) #21
  tail call void @_ZSt9terminatev() #24
  unreachable
}

declare i8* @__cxa_begin_catch(i8*) local_unnamed_addr

declare void @_ZSt9terminatev() local_unnamed_addr

; Function Attrs: minsize mustprogress optsize sspstrong uwtable
define linkonce_odr dso_local void @_ZNSt12_Vector_baseIxSaIxEE17_M_create_storageEm(%"struct.std::_Vector_base.1"* nonnull align 8 dereferenceable(24) %0, i64 %1) local_unnamed_addr #8 comdat align 2 {
  %3 = tail call i64* @_ZNSt12_Vector_baseIxSaIxEE11_M_allocateEm(%"struct.std::_Vector_base.1"* nonnull align 8 dereferenceable(24) %0, i64 %1) #22
  %4 = getelementptr inbounds %"struct.std::_Vector_base.1", %"struct.std::_Vector_base.1"* %0, i64 0, i32 0, i32 0, i32 0
  store i64* %3, i64** %4, align 8, !tbaa !12
  %5 = getelementptr inbounds %"struct.std::_Vector_base.1", %"struct.std::_Vector_base.1"* %0, i64 0, i32 0, i32 0, i32 1
  store i64* %3, i64** %5, align 8, !tbaa !22
  %6 = getelementptr inbounds i64, i64* %3, i64 %1
  %7 = getelementptr inbounds %"struct.std::_Vector_base.1", %"struct.std::_Vector_base.1"* %0, i64 0, i32 0, i32 0, i32 2
  store i64* %6, i64** %7, align 8, !tbaa !23
  ret void
}

; Function Attrs: minsize mustprogress optsize sspstrong uwtable
define linkonce_odr dso_local i64* @_ZNSt12_Vector_baseIxSaIxEE11_M_allocateEm(%"struct.std::_Vector_base.1"* nonnull align 8 dereferenceable(24) %0, i64 %1) local_unnamed_addr #8 comdat align 2 {
  %3 = icmp eq i64 %1, 0
  br i1 %3, label %7, label %4

4:                                                ; preds = %2
  %5 = bitcast %"struct.std::_Vector_base.1"* %0 to %"class.std::allocator.2"*
  %6 = tail call i64* @_ZNSt16allocator_traitsISaIxEE8allocateERS0_m(%"class.std::allocator.2"* nonnull align 1 dereferenceable(1) %5, i64 %1) #22
  br label %7

7:                                                ; preds = %2, %4
  %8 = phi i64* [ %6, %4 ], [ null, %2 ]
  ret i64* %8
}

; Function Attrs: minsize mustprogress optsize sspstrong uwtable
define linkonce_odr dso_local i64* @_ZNSt16allocator_traitsISaIxEE8allocateERS0_m(%"class.std::allocator.2"* nonnull align 1 dereferenceable(1) %0, i64 %1) local_unnamed_addr #8 comdat align 2 {
  %3 = bitcast %"class.std::allocator.2"* %0 to %"class.__gnu_cxx::new_allocator.3"*
  %4 = tail call i64* @_ZN9__gnu_cxx13new_allocatorIxE8allocateEmPKv(%"class.__gnu_cxx::new_allocator.3"* nonnull align 1 dereferenceable(1) %3, i64 %1, i8* null) #22
  ret i64* %4
}

; Function Attrs: minsize mustprogress optsize sspstrong uwtable
define linkonce_odr dso_local i64* @_ZN9__gnu_cxx13new_allocatorIxE8allocateEmPKv(%"class.__gnu_cxx::new_allocator.3"* nonnull align 1 dereferenceable(1) %0, i64 %1, i8* %2) local_unnamed_addr #8 comdat align 2 {
  %4 = icmp ugt i64 %1, 1152921504606846975
  br i1 %4, label %5, label %9, !prof !24

5:                                                ; preds = %3
  %6 = icmp ugt i64 %1, 2305843009213693951
  br i1 %6, label %7, label %8

7:                                                ; preds = %5
  tail call void @_ZSt28__throw_bad_array_new_lengthv() #25
  unreachable

8:                                                ; preds = %5
  tail call void @_ZSt17__throw_bad_allocv() #25
  unreachable

9:                                                ; preds = %3
  %10 = shl nuw nsw i64 %1, 3
  %11 = tail call noalias nonnull i8* @_Znwm(i64 %10) #26
  %12 = bitcast i8* %11 to i64*
  ret i64* %12
}

; Function Attrs: minsize noreturn optsize
declare void @_ZSt28__throw_bad_array_new_lengthv() local_unnamed_addr #9

; Function Attrs: minsize noreturn optsize
declare void @_ZSt17__throw_bad_allocv() local_unnamed_addr #9

; Function Attrs: minsize nobuiltin optsize allocsize(0)
declare nonnull i8* @_Znwm(i64) local_unnamed_addr #11

; Function Attrs: inlinehint minsize mustprogress optsize sspstrong uwtable
define linkonce_odr dso_local i64* @_ZSt10__fill_n_aIPxmxET_S1_T0_RKT1_St26random_access_iterator_tag(i64* %0, i64 %1, i64* nonnull align 8 dereferenceable(8) %2) local_unnamed_addr #7 comdat {
  %4 = icmp eq i64 %1, 0
  br i1 %4, label %13, label %5

5:                                                ; preds = %3
  %6 = getelementptr inbounds i64, i64* %0, i64 %1
  %7 = load i64, i64* %2, align 8, !tbaa !5
  br label %8

8:                                                ; preds = %11, %5
  %9 = phi i64* [ %0, %5 ], [ %12, %11 ]
  %10 = icmp eq i64* %9, %6
  br i1 %10, label %13, label %11

11:                                               ; preds = %8
  store i64 %7, i64* %9, align 8, !tbaa !5
  %12 = getelementptr inbounds i64, i64* %9, i64 1
  br label %8, !llvm.loop !25

13:                                               ; preds = %8, %3
  %14 = phi i64* [ %0, %3 ], [ %6, %8 ]
  ret i64* %14
}

; Function Attrs: minsize nobuiltin nounwind optsize
declare void @_ZdlPv(i8*) local_unnamed_addr #12

; Function Attrs: minsize optsize sspstrong uwtable
define linkonce_odr dso_local i64 @_ZNSt6vectorIS_IxSaIxEESaIS1_EE17_S_check_init_lenEmRKS2_(i64 %0, %"class.std::allocator"* nonnull align 1 dereferenceable(1) %1) local_unnamed_addr #5 comdat align 2 {
  %3 = icmp ugt i64 %0, 384307168202282325
  br i1 %3, label %4, label %5

4:                                                ; preds = %2
  tail call void @_ZSt20__throw_length_errorPKc(i8* getelementptr inbounds ([49 x i8], [49 x i8]* @.str, i64 0, i64 0)) #25
  unreachable

5:                                                ; preds = %2
  ret i64 %0
}

; Function Attrs: minsize mustprogress optsize sspstrong uwtable
define linkonce_odr dso_local void @_ZNSt6vectorIS_IxSaIxEESaIS1_EE18_M_fill_initializeEmRKS1_(%"class.std::vector"* nonnull align 8 dereferenceable(24) %0, i64 %1, %"class.std::vector.0"* nonnull align 8 dereferenceable(24) %2) local_unnamed_addr #8 comdat align 2 {
  %4 = getelementptr inbounds %"class.std::vector", %"class.std::vector"* %0, i64 0, i32 0, i32 0, i32 0, i32 0
  %5 = load %"class.std::vector.0"*, %"class.std::vector.0"** %4, align 8, !tbaa !9
  %6 = tail call %"class.std::vector.0"* @_ZNSt22__uninitialized_fill_nILb0EE15__uninit_fill_nIPSt6vectorIxSaIxEEmS4_EET_S6_T0_RKT1_(%"class.std::vector.0"* %5, i64 %1, %"class.std::vector.0"* nonnull align 8 dereferenceable(24) %2) #22
  %7 = getelementptr inbounds %"class.std::vector", %"class.std::vector"* %0, i64 0, i32 0, i32 0, i32 0, i32 1
  store %"class.std::vector.0"* %6, %"class.std::vector.0"** %7, align 8, !tbaa !19
  ret void
}

; Function Attrs: minsize nounwind optsize sspstrong uwtable
define linkonce_odr dso_local void @_ZNSt12_Vector_baseISt6vectorIxSaIxEESaIS2_EED2Ev(%"struct.std::_Vector_base"* nonnull align 8 dereferenceable(24) %0) unnamed_addr #6 comdat align 2 personality i8* bitcast (i32 (...)* @__gxx_personality_v0 to i8*) {
  %2 = getelementptr inbounds %"struct.std::_Vector_base", %"struct.std::_Vector_base"* %0, i64 0, i32 0, i32 0, i32 0
  %3 = load %"class.std::vector.0"*, %"class.std::vector.0"** %2, align 8, !tbaa !9
  %4 = icmp eq %"class.std::vector.0"* %3, null
  br i1 %4, label %7, label %5

5:                                                ; preds = %1
  %6 = bitcast %"class.std::vector.0"* %3 to i8*
  tail call void @_ZdlPv(i8* nonnull %6) #23
  br label %7

7:                                                ; preds = %5, %1
  ret void
}

; Function Attrs: minsize mustprogress optsize sspstrong uwtable
define linkonce_odr dso_local void @_ZNSt12_Vector_baseISt6vectorIxSaIxEESaIS2_EE17_M_create_storageEm(%"struct.std::_Vector_base"* nonnull align 8 dereferenceable(24) %0, i64 %1) local_unnamed_addr #8 comdat align 2 {
  %3 = tail call %"class.std::vector.0"* @_ZNSt12_Vector_baseISt6vectorIxSaIxEESaIS2_EE11_M_allocateEm(%"struct.std::_Vector_base"* nonnull align 8 dereferenceable(24) %0, i64 %1) #22
  %4 = getelementptr inbounds %"struct.std::_Vector_base", %"struct.std::_Vector_base"* %0, i64 0, i32 0, i32 0, i32 0
  store %"class.std::vector.0"* %3, %"class.std::vector.0"** %4, align 8, !tbaa !9
  %5 = getelementptr inbounds %"struct.std::_Vector_base", %"struct.std::_Vector_base"* %0, i64 0, i32 0, i32 0, i32 1
  store %"class.std::vector.0"* %3, %"class.std::vector.0"** %5, align 8, !tbaa !19
  %6 = getelementptr inbounds %"class.std::vector.0", %"class.std::vector.0"* %3, i64 %1
  %7 = getelementptr inbounds %"struct.std::_Vector_base", %"struct.std::_Vector_base"* %0, i64 0, i32 0, i32 0, i32 2
  store %"class.std::vector.0"* %6, %"class.std::vector.0"** %7, align 8, !tbaa !26
  ret void
}

; Function Attrs: minsize mustprogress optsize sspstrong uwtable
define linkonce_odr dso_local %"class.std::vector.0"* @_ZNSt12_Vector_baseISt6vectorIxSaIxEESaIS2_EE11_M_allocateEm(%"struct.std::_Vector_base"* nonnull align 8 dereferenceable(24) %0, i64 %1) local_unnamed_addr #8 comdat align 2 {
  %3 = icmp eq i64 %1, 0
  br i1 %3, label %7, label %4

4:                                                ; preds = %2
  %5 = bitcast %"struct.std::_Vector_base"* %0 to %"class.std::allocator"*
  %6 = tail call %"class.std::vector.0"* @_ZNSt16allocator_traitsISaISt6vectorIxSaIxEEEE8allocateERS3_m(%"class.std::allocator"* nonnull align 1 dereferenceable(1) %5, i64 %1) #22
  br label %7

7:                                                ; preds = %2, %4
  %8 = phi %"class.std::vector.0"* [ %6, %4 ], [ null, %2 ]
  ret %"class.std::vector.0"* %8
}

; Function Attrs: minsize mustprogress optsize sspstrong uwtable
define linkonce_odr dso_local %"class.std::vector.0"* @_ZNSt16allocator_traitsISaISt6vectorIxSaIxEEEE8allocateERS3_m(%"class.std::allocator"* nonnull align 1 dereferenceable(1) %0, i64 %1) local_unnamed_addr #8 comdat align 2 {
  %3 = bitcast %"class.std::allocator"* %0 to %"class.__gnu_cxx::new_allocator"*
  %4 = tail call %"class.std::vector.0"* @_ZN9__gnu_cxx13new_allocatorISt6vectorIxSaIxEEE8allocateEmPKv(%"class.__gnu_cxx::new_allocator"* nonnull align 1 dereferenceable(1) %3, i64 %1, i8* null) #22
  ret %"class.std::vector.0"* %4
}

; Function Attrs: minsize mustprogress optsize sspstrong uwtable
define linkonce_odr dso_local %"class.std::vector.0"* @_ZN9__gnu_cxx13new_allocatorISt6vectorIxSaIxEEE8allocateEmPKv(%"class.__gnu_cxx::new_allocator"* nonnull align 1 dereferenceable(1) %0, i64 %1, i8* %2) local_unnamed_addr #8 comdat align 2 {
  %4 = icmp ugt i64 %1, 384307168202282325
  br i1 %4, label %5, label %9, !prof !24

5:                                                ; preds = %3
  %6 = icmp ugt i64 %1, 768614336404564650
  br i1 %6, label %7, label %8

7:                                                ; preds = %5
  tail call void @_ZSt28__throw_bad_array_new_lengthv() #25
  unreachable

8:                                                ; preds = %5
  tail call void @_ZSt17__throw_bad_allocv() #25
  unreachable

9:                                                ; preds = %3
  %10 = mul nuw nsw i64 %1, 24
  %11 = tail call noalias nonnull i8* @_Znwm(i64 %10) #26
  %12 = bitcast i8* %11 to %"class.std::vector.0"*
  ret %"class.std::vector.0"* %12
}

; Function Attrs: minsize mustprogress optsize sspstrong uwtable
define linkonce_odr dso_local %"class.std::vector.0"* @_ZNSt22__uninitialized_fill_nILb0EE15__uninit_fill_nIPSt6vectorIxSaIxEEmS4_EET_S6_T0_RKT1_(%"class.std::vector.0"* %0, i64 %1, %"class.std::vector.0"* nonnull align 8 dereferenceable(24) %2) local_unnamed_addr #8 comdat align 2 personality i8* bitcast (i32 (...)* @__gxx_personality_v0 to i8*) {
  br label %4

4:                                                ; preds = %9, %3
  %5 = phi i64 [ %1, %3 ], [ %10, %9 ]
  %6 = phi %"class.std::vector.0"* [ %0, %3 ], [ %11, %9 ]
  %7 = icmp eq i64 %5, 0
  br i1 %7, label %17, label %8

8:                                                ; preds = %4
  invoke void @_ZNSt6vectorIxSaIxEEC2ERKS1_(%"class.std::vector.0"* nonnull align 8 dereferenceable(24) %6, %"class.std::vector.0"* nonnull align 8 dereferenceable(24) %2) #22
          to label %9 unwind label %12

9:                                                ; preds = %8
  %10 = add i64 %5, -1
  %11 = getelementptr inbounds %"class.std::vector.0", %"class.std::vector.0"* %6, i64 1
  br label %4, !llvm.loop !27

12:                                               ; preds = %8
  %13 = landingpad { i8*, i32 }
          catch i8* null
  %14 = extractvalue { i8*, i32 } %13, 0
  %15 = tail call i8* @__cxa_begin_catch(i8* %14) #21
  invoke void @_ZNSt12_Destroy_auxILb0EE9__destroyIPSt6vectorIxSaIxEEEEvT_S6_(%"class.std::vector.0"* %0, %"class.std::vector.0"* %6) #22
          to label %16 unwind label %18

16:                                               ; preds = %12
  invoke void @__cxa_rethrow() #27
          to label %24 unwind label %18

17:                                               ; preds = %4
  ret %"class.std::vector.0"* %6

18:                                               ; preds = %12, %16
  %19 = landingpad { i8*, i32 }
          cleanup
  invoke void @__cxa_end_catch()
          to label %20 unwind label %21

20:                                               ; preds = %18
  resume { i8*, i32 } %19

21:                                               ; preds = %18
  %22 = landingpad { i8*, i32 }
          catch i8* null
  %23 = extractvalue { i8*, i32 } %22, 0
  tail call void @__clang_call_terminate(i8* %23) #24
  unreachable

24:                                               ; preds = %16
  unreachable
}

declare void @__cxa_rethrow() local_unnamed_addr

declare void @__cxa_end_catch() local_unnamed_addr

; Function Attrs: minsize optsize sspstrong uwtable
define linkonce_odr dso_local void @_ZNSt6vectorIxSaIxEEC2ERKS1_(%"class.std::vector.0"* nonnull align 8 dereferenceable(24) %0, %"class.std::vector.0"* nonnull align 8 dereferenceable(24) %1) unnamed_addr #5 comdat align 2 personality i8* bitcast (i32 (...)* @__gxx_personality_v0 to i8*) {
  %3 = getelementptr inbounds %"class.std::vector.0", %"class.std::vector.0"* %0, i64 0, i32 0
  %4 = getelementptr inbounds %"class.std::vector.0", %"class.std::vector.0"* %1, i64 0, i32 0, i32 0, i32 0, i32 1
  %5 = load i64*, i64** %4, align 8, !tbaa !22
  %6 = getelementptr inbounds %"class.std::vector.0", %"class.std::vector.0"* %1, i64 0, i32 0, i32 0, i32 0, i32 0
  %7 = load i64*, i64** %6, align 8, !tbaa !12
  %8 = ptrtoint i64* %5 to i64
  %9 = ptrtoint i64* %7 to i64
  %10 = sub i64 %8, %9
  %11 = ashr exact i64 %10, 3
  %12 = bitcast %"class.std::vector.0"* %0 to i8*
  tail call void @llvm.memset.p0i8.i64(i8* noundef nonnull align 8 dereferenceable(24) %12, i8 0, i64 24, i1 false) #21
  tail call void @_ZNSt12_Vector_baseIxSaIxEE17_M_create_storageEm(%"struct.std::_Vector_base.1"* nonnull align 8 dereferenceable(24) %3, i64 %11) #22
  %13 = load i64*, i64** %6, align 8, !tbaa !18
  %14 = load i64*, i64** %4, align 8, !tbaa !18
  %15 = getelementptr inbounds %"class.std::vector.0", %"class.std::vector.0"* %0, i64 0, i32 0, i32 0, i32 0, i32 0
  %16 = load i64*, i64** %15, align 8, !tbaa !12
  %17 = ptrtoint i64* %14 to i64
  %18 = ptrtoint i64* %13 to i64
  %19 = sub i64 %17, %18
  %20 = icmp eq i64 %19, 0
  br i1 %20, label %24, label %21

21:                                               ; preds = %2
  %22 = bitcast i64* %16 to i8*
  %23 = bitcast i64* %13 to i8*
  tail call void @llvm.memmove.p0i8.p0i8.i64(i8* align 8 %22, i8* align 8 %23, i64 %19, i1 false) #21
  br label %24

24:                                               ; preds = %21, %2
  %25 = ashr exact i64 %19, 3
  %26 = getelementptr inbounds i64, i64* %16, i64 %25
  %27 = getelementptr inbounds %"class.std::vector.0", %"class.std::vector.0"* %0, i64 0, i32 0, i32 0, i32 0, i32 1
  store i64* %26, i64** %27, align 8, !tbaa !22
  ret void
}

; Function Attrs: argmemonly mustprogress nofree nounwind willreturn
declare void @llvm.memmove.p0i8.p0i8.i64(i8* nocapture writeonly, i8* nocapture readonly, i64, i1 immarg) #13

; Function Attrs: minsize optsize sspstrong uwtable
define linkonce_odr dso_local void @_ZNSt12_Destroy_auxILb0EE9__destroyIPSt6vectorIxSaIxEEEEvT_S6_(%"class.std::vector.0"* %0, %"class.std::vector.0"* %1) local_unnamed_addr #5 comdat align 2 personality i32 (...)* @__gxx_personality_v0 {
  br label %3

3:                                                ; preds = %6, %2
  %4 = phi %"class.std::vector.0"* [ %0, %2 ], [ %8, %6 ]
  %5 = icmp eq %"class.std::vector.0"* %4, %1
  br i1 %5, label %9, label %6

6:                                                ; preds = %3
  %7 = getelementptr inbounds %"class.std::vector.0", %"class.std::vector.0"* %4, i64 0, i32 0
  tail call void @_ZNSt12_Vector_baseIxSaIxEED2Ev(%"struct.std::_Vector_base.1"* nonnull align 8 dereferenceable(24) %7) #23
  %8 = getelementptr inbounds %"class.std::vector.0", %"class.std::vector.0"* %4, i64 1
  br label %3, !llvm.loop !28

9:                                                ; preds = %3
  ret void
}

; Function Attrs: minsize optsize sspstrong uwtable
define linkonce_odr dso_local void @_ZNSt6vectorIS_IxSaIxEESaIS1_EE12emplace_backIJS1_EEEvDpOT_(%"class.std::vector"* nonnull align 8 dereferenceable(24) %0, %"class.std::vector.0"* nonnull align 8 dereferenceable(24) %1) local_unnamed_addr #5 comdat align 2 {
  %3 = getelementptr inbounds %"class.std::vector", %"class.std::vector"* %0, i64 0, i32 0, i32 0, i32 0, i32 1
  %4 = load %"class.std::vector.0"*, %"class.std::vector.0"** %3, align 8, !tbaa !19
  %5 = getelementptr inbounds %"class.std::vector", %"class.std::vector"* %0, i64 0, i32 0, i32 0, i32 0, i32 2
  %6 = load %"class.std::vector.0"*, %"class.std::vector.0"** %5, align 8, !tbaa !26
  %7 = icmp eq %"class.std::vector.0"* %4, %6
  br i1 %7, label %18, label %8

8:                                                ; preds = %2
  %9 = bitcast %"class.std::vector.0"* %1 to <2 x i64*>*
  %10 = load <2 x i64*>, <2 x i64*>* %9, align 8, !tbaa !18
  %11 = bitcast %"class.std::vector.0"* %4 to <2 x i64*>*
  store <2 x i64*> %10, <2 x i64*>* %11, align 8, !tbaa !18
  %12 = getelementptr inbounds %"class.std::vector.0", %"class.std::vector.0"* %4, i64 0, i32 0, i32 0, i32 0, i32 2
  %13 = getelementptr inbounds %"class.std::vector.0", %"class.std::vector.0"* %1, i64 0, i32 0, i32 0, i32 0, i32 2
  %14 = load i64*, i64** %13, align 8, !tbaa !23
  store i64* %14, i64** %12, align 8, !tbaa !23
  %15 = bitcast %"class.std::vector.0"* %1 to i8*
  tail call void @llvm.memset.p0i8.i64(i8* noundef nonnull align 8 dereferenceable(24) %15, i8 0, i64 24, i1 false) #21
  %16 = load %"class.std::vector.0"*, %"class.std::vector.0"** %3, align 8, !tbaa !19
  %17 = getelementptr inbounds %"class.std::vector.0", %"class.std::vector.0"* %16, i64 1
  store %"class.std::vector.0"* %17, %"class.std::vector.0"** %3, align 8, !tbaa !19
  br label %19

18:                                               ; preds = %2
  tail call void @_ZNSt6vectorIS_IxSaIxEESaIS1_EE17_M_realloc_insertIJS1_EEEvN9__gnu_cxx17__normal_iteratorIPS1_S3_EEDpOT_(%"class.std::vector"* nonnull align 8 dereferenceable(24) %0, %"class.std::vector.0"* %4, %"class.std::vector.0"* nonnull align 8 dereferenceable(24) %1) #22
  br label %19

19:                                               ; preds = %18, %8
  ret void
}

; Function Attrs: minsize optsize sspstrong uwtable
define linkonce_odr dso_local void @_ZNSt6vectorIS_IxSaIxEESaIS1_EE17_M_realloc_insertIJS1_EEEvN9__gnu_cxx17__normal_iteratorIPS1_S3_EEDpOT_(%"class.std::vector"* nonnull align 8 dereferenceable(24) %0, %"class.std::vector.0"* %1, %"class.std::vector.0"* nonnull align 8 dereferenceable(24) %2) local_unnamed_addr #5 comdat align 2 {
  %4 = tail call i64 @_ZNKSt6vectorIS_IxSaIxEESaIS1_EE12_M_check_lenEmPKc(%"class.std::vector"* nonnull align 8 dereferenceable(24) %0, i64 1, i8* getelementptr inbounds ([26 x i8], [26 x i8]* @.str.1, i64 0, i64 0)) #22
  %5 = getelementptr inbounds %"class.std::vector", %"class.std::vector"* %0, i64 0, i32 0
  %6 = getelementptr inbounds %"class.std::vector", %"class.std::vector"* %0, i64 0, i32 0, i32 0, i32 0, i32 0
  %7 = load %"class.std::vector.0"*, %"class.std::vector.0"** %6, align 8, !tbaa !9
  %8 = getelementptr inbounds %"class.std::vector", %"class.std::vector"* %0, i64 0, i32 0, i32 0, i32 0, i32 1
  %9 = load %"class.std::vector.0"*, %"class.std::vector.0"** %8, align 8, !tbaa !19
  %10 = ptrtoint %"class.std::vector.0"* %1 to i64
  %11 = ptrtoint %"class.std::vector.0"* %7 to i64
  %12 = sub i64 %10, %11
  %13 = sdiv exact i64 %12, 24
  %14 = tail call %"class.std::vector.0"* @_ZNSt12_Vector_baseISt6vectorIxSaIxEESaIS2_EE11_M_allocateEm(%"struct.std::_Vector_base"* nonnull align 8 dereferenceable(24) %5, i64 %4) #22
  %15 = getelementptr inbounds %"class.std::vector.0", %"class.std::vector.0"* %14, i64 %13, i32 0, i32 0, i32 0, i32 0
  %16 = bitcast %"class.std::vector.0"* %2 to <2 x i64*>*
  %17 = load <2 x i64*>, <2 x i64*>* %16, align 8, !tbaa !18
  %18 = bitcast i64** %15 to <2 x i64*>*
  store <2 x i64*> %17, <2 x i64*>* %18, align 8, !tbaa !18
  %19 = getelementptr inbounds %"class.std::vector.0", %"class.std::vector.0"* %14, i64 %13, i32 0, i32 0, i32 0, i32 2
  %20 = getelementptr inbounds %"class.std::vector.0", %"class.std::vector.0"* %2, i64 0, i32 0, i32 0, i32 0, i32 2
  %21 = load i64*, i64** %20, align 8, !tbaa !23
  store i64* %21, i64** %19, align 8, !tbaa !23
  %22 = bitcast %"class.std::vector.0"* %2 to i8*
  tail call void @llvm.memset.p0i8.i64(i8* noundef nonnull align 8 dereferenceable(24) %22, i8 0, i64 24, i1 false) #21
  %23 = bitcast %"class.std::vector"* %0 to %"class.std::allocator"*
  %24 = tail call %"class.std::vector.0"* @_ZSt14__relocate_a_1IPSt6vectorIxSaIxEES3_SaIS2_EET0_T_S6_S5_RT1_(%"class.std::vector.0"* %7, %"class.std::vector.0"* %1, %"class.std::vector.0"* %14, %"class.std::allocator"* nonnull align 1 dereferenceable(1) %23) #23
  %25 = getelementptr inbounds %"class.std::vector.0", %"class.std::vector.0"* %24, i64 1
  %26 = tail call %"class.std::vector.0"* @_ZSt14__relocate_a_1IPSt6vectorIxSaIxEES3_SaIS2_EET0_T_S6_S5_RT1_(%"class.std::vector.0"* %1, %"class.std::vector.0"* %9, %"class.std::vector.0"* nonnull %25, %"class.std::allocator"* nonnull align 1 dereferenceable(1) %23) #23
  %27 = icmp eq %"class.std::vector.0"* %7, null
  br i1 %27, label %30, label %28

28:                                               ; preds = %3
  %29 = bitcast %"class.std::vector.0"* %7 to i8*
  tail call void @_ZdlPv(i8* nonnull %29) #23
  br label %30

30:                                               ; preds = %3, %28
  %31 = getelementptr inbounds %"class.std::vector", %"class.std::vector"* %0, i64 0, i32 0, i32 0, i32 0, i32 2
  store %"class.std::vector.0"* %14, %"class.std::vector.0"** %6, align 8, !tbaa !9
  store %"class.std::vector.0"* %26, %"class.std::vector.0"** %8, align 8, !tbaa !19
  %32 = getelementptr inbounds %"class.std::vector.0", %"class.std::vector.0"* %14, i64 %4
  store %"class.std::vector.0"* %32, %"class.std::vector.0"** %31, align 8, !tbaa !26
  ret void
}

; Function Attrs: minsize mustprogress optsize sspstrong uwtable
define linkonce_odr dso_local i64 @_ZNKSt6vectorIS_IxSaIxEESaIS1_EE12_M_check_lenEmPKc(%"class.std::vector"* nonnull align 8 dereferenceable(24) %0, i64 %1, i8* %2) local_unnamed_addr #8 comdat align 2 {
  %4 = getelementptr inbounds %"class.std::vector", %"class.std::vector"* %0, i64 0, i32 0, i32 0, i32 0, i32 1
  %5 = load %"class.std::vector.0"*, %"class.std::vector.0"** %4, align 8, !tbaa !19
  %6 = getelementptr inbounds %"class.std::vector", %"class.std::vector"* %0, i64 0, i32 0, i32 0, i32 0, i32 0
  %7 = load %"class.std::vector.0"*, %"class.std::vector.0"** %6, align 8, !tbaa !9
  %8 = ptrtoint %"class.std::vector.0"* %5 to i64
  %9 = ptrtoint %"class.std::vector.0"* %7 to i64
  %10 = sub i64 %8, %9
  %11 = sdiv exact i64 %10, 24
  %12 = sub nsw i64 384307168202282325, %11
  %13 = icmp ult i64 %12, %1
  br i1 %13, label %14, label %15

14:                                               ; preds = %3
  tail call void @_ZSt20__throw_length_errorPKc(i8* %2) #25
  unreachable

15:                                               ; preds = %3
  %16 = icmp ult i64 %11, %1
  %17 = select i1 %16, i64 %1, i64 %11
  %18 = add i64 %17, %11
  %19 = icmp ult i64 %18, %11
  %20 = icmp ugt i64 %18, 384307168202282325
  %21 = or i1 %19, %20
  %22 = select i1 %21, i64 384307168202282325, i64 %18
  ret i64 %22
}

; Function Attrs: inlinehint minsize mustprogress nounwind optsize sspstrong uwtable
define linkonce_odr dso_local %"class.std::vector.0"* @_ZSt14__relocate_a_1IPSt6vectorIxSaIxEES3_SaIS2_EET0_T_S6_S5_RT1_(%"class.std::vector.0"* %0, %"class.std::vector.0"* %1, %"class.std::vector.0"* %2, %"class.std::allocator"* nonnull align 1 dereferenceable(1) %3) local_unnamed_addr #14 comdat {
  br label %5

5:                                                ; preds = %9, %4
  %6 = phi %"class.std::vector.0"* [ %0, %4 ], [ %10, %9 ]
  %7 = phi %"class.std::vector.0"* [ %2, %4 ], [ %11, %9 ]
  %8 = icmp eq %"class.std::vector.0"* %6, %1
  br i1 %8, label %12, label %9

9:                                                ; preds = %5
  tail call void @_ZSt19__relocate_object_aISt6vectorIxSaIxEES2_SaIS2_EEvPT_PT0_RT1_(%"class.std::vector.0"* %7, %"class.std::vector.0"* %6, %"class.std::allocator"* nonnull align 1 dereferenceable(1) %3) #23
  %10 = getelementptr inbounds %"class.std::vector.0", %"class.std::vector.0"* %6, i64 1
  %11 = getelementptr inbounds %"class.std::vector.0", %"class.std::vector.0"* %7, i64 1
  br label %5, !llvm.loop !29

12:                                               ; preds = %5
  ret %"class.std::vector.0"* %7
}

; Function Attrs: inlinehint minsize nounwind optsize sspstrong uwtable
define linkonce_odr dso_local void @_ZSt19__relocate_object_aISt6vectorIxSaIxEES2_SaIS2_EEvPT_PT0_RT1_(%"class.std::vector.0"* noalias %0, %"class.std::vector.0"* noalias %1, %"class.std::allocator"* nonnull align 1 dereferenceable(1) %2) local_unnamed_addr #15 comdat personality i32 (...)* @__gxx_personality_v0 {
  %4 = bitcast %"class.std::vector.0"* %1 to <2 x i64*>*
  %5 = load <2 x i64*>, <2 x i64*>* %4, align 8, !tbaa !18
  %6 = bitcast %"class.std::vector.0"* %0 to <2 x i64*>*
  store <2 x i64*> %5, <2 x i64*>* %6, align 8, !tbaa !18
  %7 = getelementptr inbounds %"class.std::vector.0", %"class.std::vector.0"* %0, i64 0, i32 0, i32 0, i32 0, i32 2
  %8 = getelementptr inbounds %"class.std::vector.0", %"class.std::vector.0"* %1, i64 0, i32 0, i32 0, i32 0, i32 2
  %9 = load i64*, i64** %8, align 8, !tbaa !23
  store i64* %9, i64** %7, align 8, !tbaa !23
  %10 = bitcast %"class.std::vector.0"* %1 to i8*
  tail call void @llvm.memset.p0i8.i64(i8* noundef nonnull align 8 dereferenceable(24) %10, i8 0, i64 24, i1 false) #21
  %11 = getelementptr inbounds %"class.std::vector.0", %"class.std::vector.0"* %1, i64 0, i32 0
  tail call void @_ZNSt12_Vector_baseIxSaIxEED2Ev(%"struct.std::_Vector_base.1"* nonnull align 8 dereferenceable(24) %11) #23
  ret void
}

; Function Attrs: minsize mustprogress optsize sspstrong uwtable
define linkonce_odr dso_local void @_ZNSt6vectorIxSaIxEE19_M_range_initializeIPKxEEvT_S5_St20forward_iterator_tag(%"class.std::vector.0"* nonnull align 8 dereferenceable(24) %0, i64* %1, i64* %2) local_unnamed_addr #8 comdat align 2 {
  %4 = ptrtoint i64* %2 to i64
  %5 = ptrtoint i64* %1 to i64
  %6 = sub i64 %4, %5
  %7 = ashr exact i64 %6, 3
  %8 = getelementptr inbounds %"class.std::vector.0", %"class.std::vector.0"* %0, i64 0, i32 0
  %9 = bitcast %"class.std::vector.0"* %0 to %"class.std::allocator.2"*
  %10 = tail call i64 @_ZNSt6vectorIxSaIxEE17_S_check_init_lenEmRKS0_(i64 %7, %"class.std::allocator.2"* nonnull align 1 dereferenceable(1) %9) #22
  %11 = tail call i64* @_ZNSt12_Vector_baseIxSaIxEE11_M_allocateEm(%"struct.std::_Vector_base.1"* nonnull align 8 dereferenceable(24) %8, i64 %10) #22
  %12 = getelementptr inbounds %"class.std::vector.0", %"class.std::vector.0"* %0, i64 0, i32 0, i32 0, i32 0, i32 0
  store i64* %11, i64** %12, align 8, !tbaa !12
  %13 = getelementptr inbounds i64, i64* %11, i64 %7
  %14 = getelementptr inbounds %"class.std::vector.0", %"class.std::vector.0"* %0, i64 0, i32 0, i32 0, i32 0, i32 2
  store i64* %13, i64** %14, align 8, !tbaa !23
  %15 = icmp eq i64 %6, 0
  br i1 %15, label %19, label %16

16:                                               ; preds = %3
  %17 = bitcast i64* %11 to i8*
  %18 = bitcast i64* %1 to i8*
  tail call void @llvm.memmove.p0i8.p0i8.i64(i8* align 8 %17, i8* align 8 %18, i64 %6, i1 false) #21
  br label %19

19:                                               ; preds = %3, %16
  %20 = getelementptr inbounds %"class.std::vector.0", %"class.std::vector.0"* %0, i64 0, i32 0, i32 0, i32 0, i32 1
  store i64* %13, i64** %20, align 8, !tbaa !22
  ret void
}

; Function Attrs: inlinehint minsize mustprogress optsize sspstrong uwtable
define linkonce_odr dso_local void @_ZSt6__sortIN9__gnu_cxx17__normal_iteratorIPSt6vectorIxSaIxEES2_IS4_SaIS4_EEEENS0_5__ops15_Iter_less_iterEEvT_SB_T0_(%"class.std::vector.0"* %0, %"class.std::vector.0"* %1) local_unnamed_addr #7 comdat {
  %3 = icmp eq %"class.std::vector.0"* %0, %1
  br i1 %3, label %12, label %4

4:                                                ; preds = %2
  %5 = ptrtoint %"class.std::vector.0"* %1 to i64
  %6 = ptrtoint %"class.std::vector.0"* %0 to i64
  %7 = sub i64 %5, %6
  %8 = sdiv exact i64 %7, 24
  %9 = tail call i64 @llvm.ctlz.i64(i64 %8, i1 true) #21, !range !30
  %10 = shl nuw nsw i64 %9, 1
  %11 = xor i64 %10, 126
  tail call void @_ZSt16__introsort_loopIN9__gnu_cxx17__normal_iteratorIPSt6vectorIxSaIxEES2_IS4_SaIS4_EEEElNS0_5__ops15_Iter_less_iterEEvT_SB_T0_T1_(%"class.std::vector.0"* %0, %"class.std::vector.0"* %1, i64 %11) #22
  tail call void @_ZSt22__final_insertion_sortIN9__gnu_cxx17__normal_iteratorIPSt6vectorIxSaIxEES2_IS4_SaIS4_EEEENS0_5__ops15_Iter_less_iterEEvT_SB_T0_(%"class.std::vector.0"* %0, %"class.std::vector.0"* %1) #22
  br label %12

12:                                               ; preds = %4, %2
  ret void
}

; Function Attrs: minsize mustprogress optsize sspstrong uwtable
define linkonce_odr dso_local void @_ZSt16__introsort_loopIN9__gnu_cxx17__normal_iteratorIPSt6vectorIxSaIxEES2_IS4_SaIS4_EEEElNS0_5__ops15_Iter_less_iterEEvT_SB_T0_T1_(%"class.std::vector.0"* %0, %"class.std::vector.0"* %1, i64 %2) local_unnamed_addr #8 comdat {
  %4 = ptrtoint %"class.std::vector.0"* %0 to i64
  br label %5

5:                                                ; preds = %14, %3
  %6 = phi %"class.std::vector.0"* [ %1, %3 ], [ %16, %14 ]
  %7 = phi i64 [ %2, %3 ], [ %15, %14 ]
  %8 = ptrtoint %"class.std::vector.0"* %6 to i64
  %9 = sub i64 %8, %4
  %10 = icmp sgt i64 %9, 384
  br i1 %10, label %11, label %17

11:                                               ; preds = %5
  %12 = icmp eq i64 %7, 0
  br i1 %12, label %13, label %14

13:                                               ; preds = %11
  tail call void @_ZSt14__partial_sortIN9__gnu_cxx17__normal_iteratorIPSt6vectorIxSaIxEES2_IS4_SaIS4_EEEENS0_5__ops15_Iter_less_iterEEvT_SB_SB_T0_(%"class.std::vector.0"* %0, %"class.std::vector.0"* %6, %"class.std::vector.0"* %6) #22
  br label %17

14:                                               ; preds = %11
  %15 = add nsw i64 %7, -1
  %16 = tail call %"class.std::vector.0"* @_ZSt27__unguarded_partition_pivotIN9__gnu_cxx17__normal_iteratorIPSt6vectorIxSaIxEES2_IS4_SaIS4_EEEENS0_5__ops15_Iter_less_iterEET_SB_SB_T0_(%"class.std::vector.0"* %0, %"class.std::vector.0"* %6) #22
  tail call void @_ZSt16__introsort_loopIN9__gnu_cxx17__normal_iteratorIPSt6vectorIxSaIxEES2_IS4_SaIS4_EEEElNS0_5__ops15_Iter_less_iterEEvT_SB_T0_T1_(%"class.std::vector.0"* %16, %"class.std::vector.0"* %6, i64 %15) #22
  br label %5, !llvm.loop !31

17:                                               ; preds = %5, %13
  ret void
}

; Function Attrs: minsize optsize sspstrong uwtable
define linkonce_odr dso_local void @_ZSt22__final_insertion_sortIN9__gnu_cxx17__normal_iteratorIPSt6vectorIxSaIxEES2_IS4_SaIS4_EEEENS0_5__ops15_Iter_less_iterEEvT_SB_T0_(%"class.std::vector.0"* %0, %"class.std::vector.0"* %1) local_unnamed_addr #5 comdat {
  %3 = ptrtoint %"class.std::vector.0"* %1 to i64
  %4 = ptrtoint %"class.std::vector.0"* %0 to i64
  %5 = sub i64 %3, %4
  %6 = icmp sgt i64 %5, 384
  br i1 %6, label %7, label %9

7:                                                ; preds = %2
  %8 = getelementptr inbounds %"class.std::vector.0", %"class.std::vector.0"* %0, i64 16
  tail call void @_ZSt16__insertion_sortIN9__gnu_cxx17__normal_iteratorIPSt6vectorIxSaIxEES2_IS4_SaIS4_EEEENS0_5__ops15_Iter_less_iterEEvT_SB_T0_(%"class.std::vector.0"* %0, %"class.std::vector.0"* nonnull %8) #22
  tail call void @_ZSt26__unguarded_insertion_sortIN9__gnu_cxx17__normal_iteratorIPSt6vectorIxSaIxEES2_IS4_SaIS4_EEEENS0_5__ops15_Iter_less_iterEEvT_SB_T0_(%"class.std::vector.0"* nonnull %8, %"class.std::vector.0"* %1) #22
  br label %10

9:                                                ; preds = %2
  tail call void @_ZSt16__insertion_sortIN9__gnu_cxx17__normal_iteratorIPSt6vectorIxSaIxEES2_IS4_SaIS4_EEEENS0_5__ops15_Iter_less_iterEEvT_SB_T0_(%"class.std::vector.0"* %0, %"class.std::vector.0"* %1) #22
  br label %10

10:                                               ; preds = %9, %7
  ret void
}

; Function Attrs: inlinehint minsize mustprogress optsize sspstrong uwtable
define linkonce_odr dso_local void @_ZSt14__partial_sortIN9__gnu_cxx17__normal_iteratorIPSt6vectorIxSaIxEES2_IS4_SaIS4_EEEENS0_5__ops15_Iter_less_iterEEvT_SB_SB_T0_(%"class.std::vector.0"* %0, %"class.std::vector.0"* %1, %"class.std::vector.0"* %2) local_unnamed_addr #7 comdat {
  %4 = alloca %"struct.__gnu_cxx::__ops::_Iter_less_iter", align 1
  tail call void @_ZSt13__heap_selectIN9__gnu_cxx17__normal_iteratorIPSt6vectorIxSaIxEES2_IS4_SaIS4_EEEENS0_5__ops15_Iter_less_iterEEvT_SB_SB_T0_(%"class.std::vector.0"* %0, %"class.std::vector.0"* %1, %"class.std::vector.0"* %2) #22
  call void @_ZSt11__sort_heapIN9__gnu_cxx17__normal_iteratorIPSt6vectorIxSaIxEES2_IS4_SaIS4_EEEENS0_5__ops15_Iter_less_iterEEvT_SB_RT0_(%"class.std::vector.0"* %0, %"class.std::vector.0"* %1, %"struct.__gnu_cxx::__ops::_Iter_less_iter"* nonnull align 1 dereferenceable(1) %4) #22
  ret void
}

; Function Attrs: inlinehint minsize optsize sspstrong uwtable
define linkonce_odr dso_local %"class.std::vector.0"* @_ZSt27__unguarded_partition_pivotIN9__gnu_cxx17__normal_iteratorIPSt6vectorIxSaIxEES2_IS4_SaIS4_EEEENS0_5__ops15_Iter_less_iterEET_SB_SB_T0_(%"class.std::vector.0"* %0, %"class.std::vector.0"* %1) local_unnamed_addr #16 comdat {
  %3 = ptrtoint %"class.std::vector.0"* %1 to i64
  %4 = ptrtoint %"class.std::vector.0"* %0 to i64
  %5 = sub i64 %3, %4
  %6 = sdiv i64 %5, 48
  %7 = getelementptr inbounds %"class.std::vector.0", %"class.std::vector.0"* %0, i64 %6
  %8 = getelementptr inbounds %"class.std::vector.0", %"class.std::vector.0"* %0, i64 1
  %9 = getelementptr inbounds %"class.std::vector.0", %"class.std::vector.0"* %1, i64 -1
  tail call void @_ZSt22__move_median_to_firstIN9__gnu_cxx17__normal_iteratorIPSt6vectorIxSaIxEES2_IS4_SaIS4_EEEENS0_5__ops15_Iter_less_iterEEvT_SB_SB_SB_T0_(%"class.std::vector.0"* %0, %"class.std::vector.0"* nonnull %8, %"class.std::vector.0"* %7, %"class.std::vector.0"* nonnull %9) #22
  %10 = tail call %"class.std::vector.0"* @_ZSt21__unguarded_partitionIN9__gnu_cxx17__normal_iteratorIPSt6vectorIxSaIxEES2_IS4_SaIS4_EEEENS0_5__ops15_Iter_less_iterEET_SB_SB_SB_T0_(%"class.std::vector.0"* nonnull %8, %"class.std::vector.0"* %1, %"class.std::vector.0"* %0) #22
  ret %"class.std::vector.0"* %10
}

; Function Attrs: minsize mustprogress optsize sspstrong uwtable
define linkonce_odr dso_local void @_ZSt13__heap_selectIN9__gnu_cxx17__normal_iteratorIPSt6vectorIxSaIxEES2_IS4_SaIS4_EEEENS0_5__ops15_Iter_less_iterEEvT_SB_SB_T0_(%"class.std::vector.0"* %0, %"class.std::vector.0"* %1, %"class.std::vector.0"* %2) local_unnamed_addr #8 comdat {
  %4 = alloca %"struct.__gnu_cxx::__ops::_Iter_less_iter", align 1
  call void @_ZSt11__make_heapIN9__gnu_cxx17__normal_iteratorIPSt6vectorIxSaIxEES2_IS4_SaIS4_EEEENS0_5__ops15_Iter_less_iterEEvT_SB_RT0_(%"class.std::vector.0"* %0, %"class.std::vector.0"* %1, %"struct.__gnu_cxx::__ops::_Iter_less_iter"* nonnull align 1 dereferenceable(1) %4) #22
  br label %5

5:                                                ; preds = %12, %3
  %6 = phi %"class.std::vector.0"* [ %1, %3 ], [ %13, %12 ]
  %7 = icmp ult %"class.std::vector.0"* %6, %2
  br i1 %7, label %9, label %8

8:                                                ; preds = %5
  ret void

9:                                                ; preds = %5
  %10 = call zeroext i1 @_ZStltIxSaIxEEbRKSt6vectorIT_T0_ES6_(%"class.std::vector.0"* nonnull align 8 dereferenceable(24) %6, %"class.std::vector.0"* nonnull align 8 dereferenceable(24) %0) #22
  br i1 %10, label %11, label %12

11:                                               ; preds = %9
  call void @_ZSt10__pop_heapIN9__gnu_cxx17__normal_iteratorIPSt6vectorIxSaIxEES2_IS4_SaIS4_EEEENS0_5__ops15_Iter_less_iterEEvT_SB_SB_RT0_(%"class.std::vector.0"* nonnull %0, %"class.std::vector.0"* %1, %"class.std::vector.0"* nonnull %6, %"struct.__gnu_cxx::__ops::_Iter_less_iter"* nonnull align 1 dereferenceable(1) %4) #22
  br label %12

12:                                               ; preds = %9, %11
  %13 = getelementptr inbounds %"class.std::vector.0", %"class.std::vector.0"* %6, i64 1
  br label %5, !llvm.loop !32
}

; Function Attrs: minsize mustprogress optsize sspstrong uwtable
define linkonce_odr dso_local void @_ZSt11__sort_heapIN9__gnu_cxx17__normal_iteratorIPSt6vectorIxSaIxEES2_IS4_SaIS4_EEEENS0_5__ops15_Iter_less_iterEEvT_SB_RT0_(%"class.std::vector.0"* %0, %"class.std::vector.0"* %1, %"struct.__gnu_cxx::__ops::_Iter_less_iter"* nonnull align 1 dereferenceable(1) %2) local_unnamed_addr #8 comdat {
  %4 = ptrtoint %"class.std::vector.0"* %0 to i64
  br label %5

5:                                                ; preds = %10, %3
  %6 = phi %"class.std::vector.0"* [ %1, %3 ], [ %11, %10 ]
  %7 = ptrtoint %"class.std::vector.0"* %6 to i64
  %8 = sub i64 %7, %4
  %9 = icmp sgt i64 %8, 24
  br i1 %9, label %10, label %12

10:                                               ; preds = %5
  %11 = getelementptr inbounds %"class.std::vector.0", %"class.std::vector.0"* %6, i64 -1
  tail call void @_ZSt10__pop_heapIN9__gnu_cxx17__normal_iteratorIPSt6vectorIxSaIxEES2_IS4_SaIS4_EEEENS0_5__ops15_Iter_less_iterEEvT_SB_SB_RT0_(%"class.std::vector.0"* %0, %"class.std::vector.0"* nonnull %11, %"class.std::vector.0"* nonnull %11, %"struct.__gnu_cxx::__ops::_Iter_less_iter"* nonnull align 1 dereferenceable(1) %2) #22
  br label %5, !llvm.loop !33

12:                                               ; preds = %5
  ret void
}

; Function Attrs: minsize optsize sspstrong uwtable
define linkonce_odr dso_local void @_ZSt11__make_heapIN9__gnu_cxx17__normal_iteratorIPSt6vectorIxSaIxEES2_IS4_SaIS4_EEEENS0_5__ops15_Iter_less_iterEEvT_SB_RT0_(%"class.std::vector.0"* %0, %"class.std::vector.0"* %1, %"struct.__gnu_cxx::__ops::_Iter_less_iter"* nonnull align 1 dereferenceable(1) %2) local_unnamed_addr #5 comdat personality i8* bitcast (i32 (...)* @__gxx_personality_v0 to i8*) {
  %4 = alloca %"class.std::vector.0", align 8
  %5 = alloca %"class.std::vector.0", align 16
  %6 = ptrtoint %"class.std::vector.0"* %1 to i64
  %7 = ptrtoint %"class.std::vector.0"* %0 to i64
  %8 = sub i64 %6, %7
  %9 = sdiv exact i64 %8, 24
  %10 = icmp slt i64 %8, 48
  br i1 %10, label %32, label %11

11:                                               ; preds = %3
  %12 = add nsw i64 %9, -2
  %13 = lshr i64 %12, 1
  %14 = bitcast %"class.std::vector.0"* %4 to i8*
  %15 = getelementptr inbounds %"class.std::vector.0", %"class.std::vector.0"* %5, i64 0, i32 0, i32 0, i32 0, i32 2
  %16 = getelementptr inbounds %"class.std::vector.0", %"class.std::vector.0"* %5, i64 0, i32 0
  %17 = getelementptr inbounds %"class.std::vector.0", %"class.std::vector.0"* %4, i64 0, i32 0
  %18 = bitcast %"class.std::vector.0"* %5 to <2 x i64*>*
  br label %19

19:                                               ; preds = %27, %11
  %20 = phi i64 [ %13, %11 ], [ %29, %27 ]
  call void @llvm.lifetime.start.p0i8(i64 24, i8* nonnull %14) #21
  %21 = getelementptr inbounds %"class.std::vector.0", %"class.std::vector.0"* %0, i64 %20
  %22 = bitcast %"class.std::vector.0"* %21 to <2 x i64*>*
  %23 = load <2 x i64*>, <2 x i64*>* %22, align 8, !tbaa !18
  %24 = getelementptr inbounds %"class.std::vector.0", %"class.std::vector.0"* %0, i64 %20, i32 0, i32 0, i32 0, i32 2
  %25 = load i64*, i64** %24, align 8, !tbaa !23
  %26 = bitcast %"class.std::vector.0"* %21 to i8*
  call void @llvm.memset.p0i8.i64(i8* noundef nonnull align 8 dereferenceable(24) %26, i8 0, i64 24, i1 false) #21
  store <2 x i64*> %23, <2 x i64*>* %18, align 16, !tbaa !18
  store i64* %25, i64** %15, align 16, !tbaa !23
  call void @llvm.memset.p0i8.i64(i8* noundef nonnull align 8 dereferenceable(24) %14, i8 0, i64 24, i1 false) #21
  invoke void @_ZSt13__adjust_heapIN9__gnu_cxx17__normal_iteratorIPSt6vectorIxSaIxEES2_IS4_SaIS4_EEEElS4_NS0_5__ops15_Iter_less_iterEEvT_T0_SC_T1_T2_(%"class.std::vector.0"* nonnull %0, i64 %20, i64 %9, %"class.std::vector.0"* nonnull %5) #22
          to label %27 unwind label %30

27:                                               ; preds = %19
  call void @_ZNSt12_Vector_baseIxSaIxEED2Ev(%"struct.std::_Vector_base.1"* nonnull align 8 dereferenceable(24) %16) #23
  %28 = icmp eq i64 %20, 0
  %29 = add nsw i64 %20, -1
  call void @_ZNSt12_Vector_baseIxSaIxEED2Ev(%"struct.std::_Vector_base.1"* nonnull align 8 dereferenceable(24) %17) #23
  call void @llvm.lifetime.end.p0i8(i64 24, i8* nonnull %14) #21
  br i1 %28, label %32, label %19, !llvm.loop !34

30:                                               ; preds = %19
  %31 = landingpad { i8*, i32 }
          cleanup
  call void @_ZNSt12_Vector_baseIxSaIxEED2Ev(%"struct.std::_Vector_base.1"* nonnull align 8 dereferenceable(24) %16) #23
  call void @_ZNSt12_Vector_baseIxSaIxEED2Ev(%"struct.std::_Vector_base.1"* nonnull align 8 dereferenceable(24) %17) #23
  call void @llvm.lifetime.end.p0i8(i64 24, i8* nonnull %14) #21
  resume { i8*, i32 } %31

32:                                               ; preds = %27, %3
  ret void
}

; Function Attrs: inlinehint minsize optsize sspstrong uwtable
define linkonce_odr dso_local void @_ZSt10__pop_heapIN9__gnu_cxx17__normal_iteratorIPSt6vectorIxSaIxEES2_IS4_SaIS4_EEEENS0_5__ops15_Iter_less_iterEEvT_SB_SB_RT0_(%"class.std::vector.0"* %0, %"class.std::vector.0"* %1, %"class.std::vector.0"* %2, %"struct.__gnu_cxx::__ops::_Iter_less_iter"* nonnull align 1 dereferenceable(1) %3) local_unnamed_addr #16 comdat personality i8* bitcast (i32 (...)* @__gxx_personality_v0 to i8*) {
  %5 = alloca %"class.std::vector.0", align 8
  %6 = alloca %"class.std::vector.0", align 16
  %7 = bitcast %"class.std::vector.0"* %5 to i8*
  call void @llvm.lifetime.start.p0i8(i64 24, i8* nonnull %7) #21
  %8 = bitcast %"class.std::vector.0"* %2 to <2 x i64*>*
  %9 = load <2 x i64*>, <2 x i64*>* %8, align 8, !tbaa !18
  %10 = getelementptr inbounds %"class.std::vector.0", %"class.std::vector.0"* %2, i64 0, i32 0, i32 0, i32 0, i32 2
  %11 = load i64*, i64** %10, align 8, !tbaa !23
  %12 = bitcast %"class.std::vector.0"* %2 to i8*
  tail call void @llvm.memset.p0i8.i64(i8* noundef nonnull align 8 dereferenceable(24) %12, i8 0, i64 24, i1 false) #21
  tail call void @_ZNSt6vectorIxSaIxEE14_M_move_assignEOS1_St17integral_constantIbLb1EE(%"class.std::vector.0"* nonnull align 8 dereferenceable(24) %2, %"class.std::vector.0"* nonnull align 8 dereferenceable(24) %0) #23
  %13 = ptrtoint %"class.std::vector.0"* %1 to i64
  %14 = ptrtoint %"class.std::vector.0"* %0 to i64
  %15 = sub i64 %13, %14
  %16 = sdiv exact i64 %15, 24
  %17 = bitcast %"class.std::vector.0"* %6 to <2 x i64*>*
  store <2 x i64*> %9, <2 x i64*>* %17, align 16, !tbaa !18
  %18 = getelementptr inbounds %"class.std::vector.0", %"class.std::vector.0"* %6, i64 0, i32 0, i32 0, i32 0, i32 2
  store i64* %11, i64** %18, align 16, !tbaa !23
  call void @llvm.memset.p0i8.i64(i8* noundef nonnull align 8 dereferenceable(24) %7, i8 0, i64 24, i1 false) #21
  invoke void @_ZSt13__adjust_heapIN9__gnu_cxx17__normal_iteratorIPSt6vectorIxSaIxEES2_IS4_SaIS4_EEEElS4_NS0_5__ops15_Iter_less_iterEEvT_T0_SC_T1_T2_(%"class.std::vector.0"* nonnull %0, i64 0, i64 %16, %"class.std::vector.0"* nonnull %6) #22
          to label %19 unwind label %22

19:                                               ; preds = %4
  %20 = getelementptr inbounds %"class.std::vector.0", %"class.std::vector.0"* %6, i64 0, i32 0
  call void @_ZNSt12_Vector_baseIxSaIxEED2Ev(%"struct.std::_Vector_base.1"* nonnull align 8 dereferenceable(24) %20) #23
  %21 = getelementptr inbounds %"class.std::vector.0", %"class.std::vector.0"* %5, i64 0, i32 0
  call void @_ZNSt12_Vector_baseIxSaIxEED2Ev(%"struct.std::_Vector_base.1"* nonnull align 8 dereferenceable(24) %21) #23
  call void @llvm.lifetime.end.p0i8(i64 24, i8* nonnull %7) #21
  ret void

22:                                               ; preds = %4
  %23 = landingpad { i8*, i32 }
          cleanup
  %24 = getelementptr inbounds %"class.std::vector.0", %"class.std::vector.0"* %6, i64 0, i32 0
  call void @_ZNSt12_Vector_baseIxSaIxEED2Ev(%"struct.std::_Vector_base.1"* nonnull align 8 dereferenceable(24) %24) #23
  %25 = getelementptr inbounds %"class.std::vector.0", %"class.std::vector.0"* %5, i64 0, i32 0
  call void @_ZNSt12_Vector_baseIxSaIxEED2Ev(%"struct.std::_Vector_base.1"* nonnull align 8 dereferenceable(24) %25) #23
  call void @llvm.lifetime.end.p0i8(i64 24, i8* nonnull %7) #21
  resume { i8*, i32 } %23
}

; Function Attrs: minsize optsize sspstrong uwtable
define linkonce_odr dso_local void @_ZSt13__adjust_heapIN9__gnu_cxx17__normal_iteratorIPSt6vectorIxSaIxEES2_IS4_SaIS4_EEEElS4_NS0_5__ops15_Iter_less_iterEEvT_T0_SC_T1_T2_(%"class.std::vector.0"* %0, i64 %1, i64 %2, %"class.std::vector.0"* %3) local_unnamed_addr #5 comdat personality i8* bitcast (i32 (...)* @__gxx_personality_v0 to i8*) {
  %5 = alloca %"struct.__gnu_cxx::__ops::_Iter_less_val", align 1
  %6 = alloca %"class.std::vector.0", align 16
  %7 = add nsw i64 %2, -1
  %8 = sdiv i64 %7, 2
  br label %9

9:                                                ; preds = %12, %4
  %10 = phi i64 [ %1, %4 ], [ %19, %12 ]
  %11 = icmp slt i64 %10, %8
  br i1 %11, label %12, label %22

12:                                               ; preds = %9
  %13 = shl i64 %10, 1
  %14 = add i64 %13, 2
  %15 = getelementptr inbounds %"class.std::vector.0", %"class.std::vector.0"* %0, i64 %14
  %16 = or i64 %13, 1
  %17 = getelementptr inbounds %"class.std::vector.0", %"class.std::vector.0"* %0, i64 %16
  %18 = tail call zeroext i1 @_ZStltIxSaIxEEbRKSt6vectorIT_T0_ES6_(%"class.std::vector.0"* nonnull align 8 dereferenceable(24) %15, %"class.std::vector.0"* nonnull align 8 dereferenceable(24) %17) #22
  %19 = select i1 %18, i64 %16, i64 %14
  %20 = getelementptr inbounds %"class.std::vector.0", %"class.std::vector.0"* %0, i64 %19
  %21 = getelementptr inbounds %"class.std::vector.0", %"class.std::vector.0"* %0, i64 %10
  tail call void @_ZNSt6vectorIxSaIxEE14_M_move_assignEOS1_St17integral_constantIbLb1EE(%"class.std::vector.0"* nonnull align 8 dereferenceable(24) %21, %"class.std::vector.0"* nonnull align 8 dereferenceable(24) %20) #23
  br label %9, !llvm.loop !35

22:                                               ; preds = %9
  %23 = and i64 %2, 1
  %24 = icmp eq i64 %23, 0
  br i1 %24, label %25, label %34

25:                                               ; preds = %22
  %26 = add nsw i64 %2, -2
  %27 = sdiv i64 %26, 2
  %28 = icmp eq i64 %10, %27
  br i1 %28, label %29, label %34

29:                                               ; preds = %25
  %30 = shl i64 %10, 1
  %31 = or i64 %30, 1
  %32 = getelementptr inbounds %"class.std::vector.0", %"class.std::vector.0"* %0, i64 %31
  %33 = getelementptr inbounds %"class.std::vector.0", %"class.std::vector.0"* %0, i64 %10
  tail call void @_ZNSt6vectorIxSaIxEE14_M_move_assignEOS1_St17integral_constantIbLb1EE(%"class.std::vector.0"* nonnull align 8 dereferenceable(24) %33, %"class.std::vector.0"* nonnull align 8 dereferenceable(24) %32) #23
  br label %34

34:                                               ; preds = %29, %25, %22
  %35 = phi i64 [ %31, %29 ], [ %10, %25 ], [ %10, %22 ]
  %36 = getelementptr inbounds %"struct.__gnu_cxx::__ops::_Iter_less_val", %"struct.__gnu_cxx::__ops::_Iter_less_val"* %5, i64 0, i32 0
  call void @llvm.lifetime.start.p0i8(i64 1, i8* nonnull %36) #21
  %37 = bitcast %"class.std::vector.0"* %3 to <2 x i64*>*
  %38 = load <2 x i64*>, <2 x i64*>* %37, align 8, !tbaa !18
  %39 = bitcast %"class.std::vector.0"* %6 to <2 x i64*>*
  store <2 x i64*> %38, <2 x i64*>* %39, align 16, !tbaa !18
  %40 = getelementptr inbounds %"class.std::vector.0", %"class.std::vector.0"* %6, i64 0, i32 0, i32 0, i32 0, i32 2
  %41 = getelementptr inbounds %"class.std::vector.0", %"class.std::vector.0"* %3, i64 0, i32 0, i32 0, i32 0, i32 2
  %42 = load i64*, i64** %41, align 8, !tbaa !23
  store i64* %42, i64** %40, align 16, !tbaa !23
  %43 = bitcast %"class.std::vector.0"* %3 to i8*
  tail call void @llvm.memset.p0i8.i64(i8* noundef nonnull align 8 dereferenceable(24) %43, i8 0, i64 24, i1 false) #21
  invoke void @_ZSt11__push_heapIN9__gnu_cxx17__normal_iteratorIPSt6vectorIxSaIxEES2_IS4_SaIS4_EEEElS4_NS0_5__ops14_Iter_less_valEEvT_T0_SC_T1_RT2_(%"class.std::vector.0"* %0, i64 %35, i64 %1, %"class.std::vector.0"* nonnull %6, %"struct.__gnu_cxx::__ops::_Iter_less_val"* nonnull align 1 dereferenceable(1) %5) #22
          to label %44 unwind label %46

44:                                               ; preds = %34
  %45 = getelementptr inbounds %"class.std::vector.0", %"class.std::vector.0"* %6, i64 0, i32 0
  call void @_ZNSt12_Vector_baseIxSaIxEED2Ev(%"struct.std::_Vector_base.1"* nonnull align 8 dereferenceable(24) %45) #23
  call void @llvm.lifetime.end.p0i8(i64 1, i8* nonnull %36) #21
  ret void

46:                                               ; preds = %34
  %47 = landingpad { i8*, i32 }
          cleanup
  %48 = getelementptr inbounds %"class.std::vector.0", %"class.std::vector.0"* %6, i64 0, i32 0
  call void @_ZNSt12_Vector_baseIxSaIxEED2Ev(%"struct.std::_Vector_base.1"* nonnull align 8 dereferenceable(24) %48) #23
  call void @llvm.lifetime.end.p0i8(i64 1, i8* nonnull %36) #21
  resume { i8*, i32 } %47
}

; Function Attrs: minsize optsize sspstrong uwtable
define linkonce_odr dso_local void @_ZSt11__push_heapIN9__gnu_cxx17__normal_iteratorIPSt6vectorIxSaIxEES2_IS4_SaIS4_EEEElS4_NS0_5__ops14_Iter_less_valEEvT_T0_SC_T1_RT2_(%"class.std::vector.0"* %0, i64 %1, i64 %2, %"class.std::vector.0"* %3, %"struct.__gnu_cxx::__ops::_Iter_less_val"* nonnull align 1 dereferenceable(1) %4) local_unnamed_addr #5 comdat {
  br label %6

6:                                                ; preds = %14, %5
  %7 = phi i64 [ %1, %5 ], [ %9, %14 ]
  %8 = add nsw i64 %7, -1
  %9 = sdiv i64 %8, 2
  %10 = icmp sgt i64 %7, %2
  br i1 %10, label %11, label %16

11:                                               ; preds = %6
  %12 = getelementptr inbounds %"class.std::vector.0", %"class.std::vector.0"* %0, i64 %9
  %13 = tail call zeroext i1 @_ZStltIxSaIxEEbRKSt6vectorIT_T0_ES6_(%"class.std::vector.0"* nonnull align 8 dereferenceable(24) %12, %"class.std::vector.0"* nonnull align 8 dereferenceable(24) %3) #22
  br i1 %13, label %14, label %16

14:                                               ; preds = %11
  %15 = getelementptr inbounds %"class.std::vector.0", %"class.std::vector.0"* %0, i64 %7
  tail call void @_ZNSt6vectorIxSaIxEE14_M_move_assignEOS1_St17integral_constantIbLb1EE(%"class.std::vector.0"* nonnull align 8 dereferenceable(24) %15, %"class.std::vector.0"* nonnull align 8 dereferenceable(24) %12) #23
  br label %6, !llvm.loop !36

16:                                               ; preds = %6, %11
  %17 = getelementptr inbounds %"class.std::vector.0", %"class.std::vector.0"* %0, i64 %7
  tail call void @_ZNSt6vectorIxSaIxEE14_M_move_assignEOS1_St17integral_constantIbLb1EE(%"class.std::vector.0"* nonnull align 8 dereferenceable(24) %17, %"class.std::vector.0"* nonnull align 8 dereferenceable(24) %3) #23
  ret void
}

; Function Attrs: minsize nounwind optsize sspstrong uwtable
define linkonce_odr dso_local void @_ZNSt6vectorIxSaIxEE14_M_move_assignEOS1_St17integral_constantIbLb1EE(%"class.std::vector.0"* nonnull align 8 dereferenceable(24) %0, %"class.std::vector.0"* nonnull align 8 dereferenceable(24) %1) local_unnamed_addr #6 comdat align 2 personality i8* bitcast (i32 (...)* @__gxx_personality_v0 to i8*) {
  %3 = alloca %"class.std::vector.0", align 16
  %4 = bitcast %"class.std::vector.0"* %3 to i8*
  call void @llvm.lifetime.start.p0i8(i64 24, i8* nonnull %4) #21
  %5 = getelementptr inbounds %"class.std::vector.0", %"class.std::vector.0"* %0, i64 0, i32 0, i32 0, i32 0
  %6 = getelementptr inbounds %"class.std::vector.0", %"class.std::vector.0"* %1, i64 0, i32 0, i32 0, i32 0
  tail call void @_ZNSt12_Vector_baseIxSaIxEE17_Vector_impl_data12_M_swap_dataERS2_(%"struct.std::_Vector_base<long long, std::allocator<long long>>::_Vector_impl_data"* nonnull align 8 dereferenceable(24) %5, %"struct.std::_Vector_base<long long, std::allocator<long long>>::_Vector_impl_data"* nonnull align 8 dereferenceable(24) %6) #23
  %7 = getelementptr inbounds %"class.std::vector.0", %"class.std::vector.0"* %3, i64 0, i32 0, i32 0, i32 0, i32 2
  %8 = bitcast %"class.std::vector.0"* %1 to <2 x i64*>*
  %9 = load <2 x i64*>, <2 x i64*>* %8, align 8, !tbaa !18
  %10 = bitcast %"class.std::vector.0"* %3 to <2 x i64*>*
  store <2 x i64*> %9, <2 x i64*>* %10, align 16, !tbaa !18
  %11 = getelementptr inbounds %"class.std::vector.0", %"class.std::vector.0"* %1, i64 0, i32 0, i32 0, i32 0, i32 2
  %12 = load i64*, i64** %11, align 8, !tbaa !23
  store i64* %12, i64** %7, align 16, !tbaa !23
  %13 = getelementptr inbounds %"class.std::vector.0", %"class.std::vector.0"* %3, i64 0, i32 0
  %14 = bitcast %"class.std::vector.0"* %1 to i8*
  call void @llvm.memset.p0i8.i64(i8* noundef nonnull align 8 dereferenceable(24) %14, i8 0, i64 24, i1 false)
  call void @_ZNSt12_Vector_baseIxSaIxEED2Ev(%"struct.std::_Vector_base.1"* nonnull align 8 dereferenceable(24) %13) #23
  call void @llvm.lifetime.end.p0i8(i64 24, i8* nonnull %4) #21
  ret void
}

; Function Attrs: minsize nounwind optsize sspstrong uwtable
define linkonce_odr dso_local void @_ZNSt12_Vector_baseIxSaIxEE17_Vector_impl_data12_M_swap_dataERS2_(%"struct.std::_Vector_base<long long, std::allocator<long long>>::_Vector_impl_data"* nonnull align 8 dereferenceable(24) %0, %"struct.std::_Vector_base<long long, std::allocator<long long>>::_Vector_impl_data"* nonnull align 8 dereferenceable(24) %1) local_unnamed_addr #6 comdat align 2 {
  %3 = bitcast %"struct.std::_Vector_base<long long, std::allocator<long long>>::_Vector_impl_data"* %0 to <2 x i64*>*
  %4 = load <2 x i64*>, <2 x i64*>* %3, align 8, !tbaa !18
  %5 = getelementptr inbounds %"struct.std::_Vector_base<long long, std::allocator<long long>>::_Vector_impl_data", %"struct.std::_Vector_base<long long, std::allocator<long long>>::_Vector_impl_data"* %0, i64 0, i32 2
  %6 = load i64*, i64** %5, align 8, !tbaa !23
  %7 = bitcast %"struct.std::_Vector_base<long long, std::allocator<long long>>::_Vector_impl_data"* %1 to <2 x i64*>*
  %8 = load <2 x i64*>, <2 x i64*>* %7, align 8, !tbaa !18
  %9 = bitcast %"struct.std::_Vector_base<long long, std::allocator<long long>>::_Vector_impl_data"* %0 to <2 x i64*>*
  store <2 x i64*> %8, <2 x i64*>* %9, align 8, !tbaa !18
  %10 = getelementptr inbounds %"struct.std::_Vector_base<long long, std::allocator<long long>>::_Vector_impl_data", %"struct.std::_Vector_base<long long, std::allocator<long long>>::_Vector_impl_data"* %1, i64 0, i32 2
  %11 = load i64*, i64** %10, align 8, !tbaa !23
  store i64* %11, i64** %5, align 8, !tbaa !23
  %12 = bitcast %"struct.std::_Vector_base<long long, std::allocator<long long>>::_Vector_impl_data"* %1 to <2 x i64*>*
  store <2 x i64*> %4, <2 x i64*>* %12, align 8, !tbaa !18
  store i64* %6, i64** %10, align 8, !tbaa !23
  ret void
}

; Function Attrs: inlinehint minsize optsize sspstrong uwtable
define linkonce_odr dso_local zeroext i1 @_ZStltIxSaIxEEbRKSt6vectorIT_T0_ES6_(%"class.std::vector.0"* nonnull align 8 dereferenceable(24) %0, %"class.std::vector.0"* nonnull align 8 dereferenceable(24) %1) local_unnamed_addr #16 comdat {
  %3 = getelementptr inbounds %"class.std::vector.0", %"class.std::vector.0"* %0, i64 0, i32 0, i32 0, i32 0, i32 0
  %4 = load i64*, i64** %3, align 8, !tbaa !18
  %5 = getelementptr inbounds %"class.std::vector.0", %"class.std::vector.0"* %0, i64 0, i32 0, i32 0, i32 0, i32 1
  %6 = load i64*, i64** %5, align 8, !tbaa !18
  %7 = getelementptr inbounds %"class.std::vector.0", %"class.std::vector.0"* %1, i64 0, i32 0, i32 0, i32 0, i32 0
  %8 = load i64*, i64** %7, align 8, !tbaa !18
  %9 = getelementptr inbounds %"class.std::vector.0", %"class.std::vector.0"* %1, i64 0, i32 0, i32 0, i32 0, i32 1
  %10 = load i64*, i64** %9, align 8, !tbaa !18
  %11 = tail call zeroext i1 @_ZSt30__lexicographical_compare_implIPKxS1_N9__gnu_cxx5__ops15_Iter_less_iterEEbT_S5_T0_S6_T1_(i64* %4, i64* %6, i64* %8, i64* %10) #22
  ret i1 %11
}

; Function Attrs: minsize mustprogress optsize sspstrong uwtable
define linkonce_odr dso_local zeroext i1 @_ZSt30__lexicographical_compare_implIPKxS1_N9__gnu_cxx5__ops15_Iter_less_iterEEbT_S5_T0_S6_T1_(i64* %0, i64* %1, i64* %2, i64* %3) local_unnamed_addr #8 comdat {
  %5 = ptrtoint i64* %1 to i64
  %6 = ptrtoint i64* %0 to i64
  %7 = sub i64 %5, %6
  %8 = ashr exact i64 %7, 3
  %9 = ptrtoint i64* %3 to i64
  %10 = ptrtoint i64* %2 to i64
  %11 = sub i64 %9, %10
  %12 = ashr exact i64 %11, 3
  %13 = icmp slt i64 %12, %8
  %14 = getelementptr inbounds i64, i64* %0, i64 %12
  %15 = select i1 %13, i64* %14, i64* %1
  br label %16

16:                                               ; preds = %24, %4
  %17 = phi i64* [ %0, %4 ], [ %25, %24 ]
  %18 = phi i64* [ %2, %4 ], [ %26, %24 ]
  %19 = icmp eq i64* %17, %15
  br i1 %19, label %27, label %20

20:                                               ; preds = %16
  %21 = load i64, i64* %17, align 8, !tbaa !5
  %22 = load i64, i64* %18, align 8, !tbaa !5
  %23 = icmp eq i64 %22, %21
  br i1 %23, label %24, label %29

24:                                               ; preds = %20
  %25 = getelementptr inbounds i64, i64* %17, i64 1
  %26 = getelementptr inbounds i64, i64* %18, i64 1
  br label %16, !llvm.loop !37

27:                                               ; preds = %16
  %28 = icmp ne i64* %18, %3
  br label %31

29:                                               ; preds = %20
  %30 = icmp sgt i64 %22, %21
  br label %31

31:                                               ; preds = %29, %27
  %32 = phi i1 [ %28, %27 ], [ %30, %29 ]
  ret i1 %32
}

; Function Attrs: minsize mustprogress optsize sspstrong uwtable
define linkonce_odr dso_local void @_ZSt22__move_median_to_firstIN9__gnu_cxx17__normal_iteratorIPSt6vectorIxSaIxEES2_IS4_SaIS4_EEEENS0_5__ops15_Iter_less_iterEEvT_SB_SB_SB_T0_(%"class.std::vector.0"* %0, %"class.std::vector.0"* %1, %"class.std::vector.0"* %2, %"class.std::vector.0"* %3) local_unnamed_addr #8 comdat personality i32 (...)* @__gxx_personality_v0 {
  %5 = tail call zeroext i1 @_ZStltIxSaIxEEbRKSt6vectorIT_T0_ES6_(%"class.std::vector.0"* nonnull align 8 dereferenceable(24) %1, %"class.std::vector.0"* nonnull align 8 dereferenceable(24) %2) #22
  br i1 %5, label %6, label %8

6:                                                ; preds = %4
  %7 = tail call zeroext i1 @_ZStltIxSaIxEEbRKSt6vectorIT_T0_ES6_(%"class.std::vector.0"* nonnull align 8 dereferenceable(24) %2, %"class.std::vector.0"* nonnull align 8 dereferenceable(24) %3) #22
  br i1 %7, label %14, label %10

8:                                                ; preds = %4
  %9 = tail call zeroext i1 @_ZStltIxSaIxEEbRKSt6vectorIT_T0_ES6_(%"class.std::vector.0"* nonnull align 8 dereferenceable(24) %1, %"class.std::vector.0"* nonnull align 8 dereferenceable(24) %3) #22
  br i1 %9, label %14, label %10

10:                                               ; preds = %8, %6
  %11 = phi %"class.std::vector.0"* [ %1, %6 ], [ %2, %8 ]
  %12 = tail call zeroext i1 @_ZStltIxSaIxEEbRKSt6vectorIT_T0_ES6_(%"class.std::vector.0"* nonnull align 8 dereferenceable(24) %11, %"class.std::vector.0"* nonnull align 8 dereferenceable(24) %3) #22
  %13 = select i1 %12, %"class.std::vector.0"* %3, %"class.std::vector.0"* %11
  br label %14

14:                                               ; preds = %10, %8, %6
  %15 = phi %"class.std::vector.0"* [ %2, %6 ], [ %1, %8 ], [ %13, %10 ]
  %16 = getelementptr inbounds %"class.std::vector.0", %"class.std::vector.0"* %0, i64 0, i32 0, i32 0, i32 0
  %17 = getelementptr inbounds %"class.std::vector.0", %"class.std::vector.0"* %15, i64 0, i32 0, i32 0, i32 0
  tail call void @_ZNSt12_Vector_baseIxSaIxEE17_Vector_impl_data12_M_swap_dataERS2_(%"struct.std::_Vector_base<long long, std::allocator<long long>>::_Vector_impl_data"* nonnull align 8 dereferenceable(24) %16, %"struct.std::_Vector_base<long long, std::allocator<long long>>::_Vector_impl_data"* nonnull align 8 dereferenceable(24) %17) #23
  ret void
}

; Function Attrs: minsize mustprogress optsize sspstrong uwtable
define linkonce_odr dso_local %"class.std::vector.0"* @_ZSt21__unguarded_partitionIN9__gnu_cxx17__normal_iteratorIPSt6vectorIxSaIxEES2_IS4_SaIS4_EEEENS0_5__ops15_Iter_less_iterEET_SB_SB_SB_T0_(%"class.std::vector.0"* %0, %"class.std::vector.0"* %1, %"class.std::vector.0"* %2) local_unnamed_addr #8 comdat personality i32 (...)* @__gxx_personality_v0 {
  br label %4

4:                                                ; preds = %3, %18
  %5 = phi %"class.std::vector.0"* [ %0, %3 ], [ %10, %18 ]
  %6 = phi %"class.std::vector.0"* [ %1, %3 ], [ %13, %18 ]
  br label %7

7:                                                ; preds = %7, %4
  %8 = phi %"class.std::vector.0"* [ %5, %4 ], [ %10, %7 ]
  %9 = tail call zeroext i1 @_ZStltIxSaIxEEbRKSt6vectorIT_T0_ES6_(%"class.std::vector.0"* nonnull align 8 dereferenceable(24) %8, %"class.std::vector.0"* nonnull align 8 dereferenceable(24) %2) #22
  %10 = getelementptr inbounds %"class.std::vector.0", %"class.std::vector.0"* %8, i64 1
  br i1 %9, label %7, label %11, !llvm.loop !38

11:                                               ; preds = %7, %11
  %12 = phi %"class.std::vector.0"* [ %13, %11 ], [ %6, %7 ]
  %13 = getelementptr inbounds %"class.std::vector.0", %"class.std::vector.0"* %12, i64 -1
  %14 = tail call zeroext i1 @_ZStltIxSaIxEEbRKSt6vectorIT_T0_ES6_(%"class.std::vector.0"* nonnull align 8 dereferenceable(24) %2, %"class.std::vector.0"* nonnull align 8 dereferenceable(24) %13) #22
  br i1 %14, label %11, label %15, !llvm.loop !39

15:                                               ; preds = %11
  %16 = icmp ult %"class.std::vector.0"* %8, %13
  br i1 %16, label %18, label %17

17:                                               ; preds = %15
  ret %"class.std::vector.0"* %8

18:                                               ; preds = %15
  %19 = getelementptr inbounds %"class.std::vector.0", %"class.std::vector.0"* %8, i64 0, i32 0, i32 0, i32 0
  %20 = getelementptr inbounds %"class.std::vector.0", %"class.std::vector.0"* %13, i64 0, i32 0, i32 0, i32 0
  tail call void @_ZNSt12_Vector_baseIxSaIxEE17_Vector_impl_data12_M_swap_dataERS2_(%"struct.std::_Vector_base<long long, std::allocator<long long>>::_Vector_impl_data"* nonnull align 8 dereferenceable(24) %19, %"struct.std::_Vector_base<long long, std::allocator<long long>>::_Vector_impl_data"* nonnull align 8 dereferenceable(24) %20) #23
  br label %4, !llvm.loop !40
}

; Function Attrs: mustprogress nofree nosync nounwind readnone speculatable willreturn
declare i64 @llvm.ctlz.i64(i64, i1 immarg) #17

; Function Attrs: minsize optsize sspstrong uwtable
define linkonce_odr dso_local void @_ZSt16__insertion_sortIN9__gnu_cxx17__normal_iteratorIPSt6vectorIxSaIxEES2_IS4_SaIS4_EEEENS0_5__ops15_Iter_less_iterEEvT_SB_T0_(%"class.std::vector.0"* %0, %"class.std::vector.0"* %1) local_unnamed_addr #5 comdat personality i8* bitcast (i32 (...)* @__gxx_personality_v0 to i8*) {
  %3 = alloca %"class.std::vector.0", align 16
  %4 = icmp eq %"class.std::vector.0"* %0, %1
  br i1 %4, label %29, label %5

5:                                                ; preds = %2
  %6 = bitcast %"class.std::vector.0"* %3 to i8*
  %7 = getelementptr inbounds %"class.std::vector.0", %"class.std::vector.0"* %3, i64 0, i32 0, i32 0, i32 0, i32 2
  %8 = getelementptr inbounds %"class.std::vector.0", %"class.std::vector.0"* %3, i64 0, i32 0
  %9 = bitcast %"class.std::vector.0"* %3 to <2 x i64*>*
  br label %10

10:                                               ; preds = %25, %5
  %11 = phi %"class.std::vector.0"* [ %0, %5 ], [ %12, %25 ]
  %12 = getelementptr inbounds %"class.std::vector.0", %"class.std::vector.0"* %11, i64 1
  %13 = icmp eq %"class.std::vector.0"* %12, %1
  br i1 %13, label %29, label %14

14:                                               ; preds = %10
  %15 = call zeroext i1 @_ZStltIxSaIxEEbRKSt6vectorIT_T0_ES6_(%"class.std::vector.0"* nonnull align 8 dereferenceable(24) %12, %"class.std::vector.0"* nonnull align 8 dereferenceable(24) %0) #22
  br i1 %15, label %16, label %28

16:                                               ; preds = %14
  call void @llvm.lifetime.start.p0i8(i64 24, i8* nonnull %6) #21
  %17 = bitcast %"class.std::vector.0"* %12 to <2 x i64*>*
  %18 = load <2 x i64*>, <2 x i64*>* %17, align 8, !tbaa !18
  store <2 x i64*> %18, <2 x i64*>* %9, align 16, !tbaa !18
  %19 = getelementptr inbounds %"class.std::vector.0", %"class.std::vector.0"* %11, i64 1, i32 0, i32 0, i32 0, i32 2
  %20 = load i64*, i64** %19, align 8, !tbaa !23
  store i64* %20, i64** %7, align 16, !tbaa !23
  %21 = bitcast %"class.std::vector.0"* %12 to i8*
  call void @llvm.memset.p0i8.i64(i8* noundef nonnull align 8 dereferenceable(24) %21, i8 0, i64 24, i1 false) #21
  %22 = getelementptr inbounds %"class.std::vector.0", %"class.std::vector.0"* %11, i64 2
  %23 = invoke %"class.std::vector.0"* @_ZSt22__copy_move_backward_aILb1EN9__gnu_cxx17__normal_iteratorIPSt6vectorIxSaIxEES2_IS4_SaIS4_EEEES8_ET1_T0_SA_S9_(%"class.std::vector.0"* nonnull %0, %"class.std::vector.0"* nonnull %12, %"class.std::vector.0"* nonnull %22) #22
          to label %24 unwind label %26

24:                                               ; preds = %16
  call void @_ZNSt6vectorIxSaIxEE14_M_move_assignEOS1_St17integral_constantIbLb1EE(%"class.std::vector.0"* nonnull align 8 dereferenceable(24) %0, %"class.std::vector.0"* nonnull align 8 dereferenceable(24) %3) #23
  call void @_ZNSt12_Vector_baseIxSaIxEED2Ev(%"struct.std::_Vector_base.1"* nonnull align 8 dereferenceable(24) %8) #23
  call void @llvm.lifetime.end.p0i8(i64 24, i8* nonnull %6) #21
  br label %25

25:                                               ; preds = %24, %28
  br label %10, !llvm.loop !41

26:                                               ; preds = %16
  %27 = landingpad { i8*, i32 }
          cleanup
  call void @_ZNSt12_Vector_baseIxSaIxEED2Ev(%"struct.std::_Vector_base.1"* nonnull align 8 dereferenceable(24) %8) #23
  call void @llvm.lifetime.end.p0i8(i64 24, i8* nonnull %6) #21
  resume { i8*, i32 } %27

28:                                               ; preds = %14
  call void @_ZSt25__unguarded_linear_insertIN9__gnu_cxx17__normal_iteratorIPSt6vectorIxSaIxEES2_IS4_SaIS4_EEEENS0_5__ops14_Val_less_iterEEvT_T0_(%"class.std::vector.0"* nonnull %12) #22
  br label %25

29:                                               ; preds = %10, %2
  ret void
}

; Function Attrs: inlinehint minsize mustprogress optsize sspstrong uwtable
define linkonce_odr dso_local void @_ZSt26__unguarded_insertion_sortIN9__gnu_cxx17__normal_iteratorIPSt6vectorIxSaIxEES2_IS4_SaIS4_EEEENS0_5__ops15_Iter_less_iterEEvT_SB_T0_(%"class.std::vector.0"* %0, %"class.std::vector.0"* %1) local_unnamed_addr #7 comdat {
  br label %3

3:                                                ; preds = %7, %2
  %4 = phi %"class.std::vector.0"* [ %0, %2 ], [ %8, %7 ]
  %5 = icmp eq %"class.std::vector.0"* %4, %1
  br i1 %5, label %6, label %7

6:                                                ; preds = %3
  ret void

7:                                                ; preds = %3
  tail call void @_ZSt25__unguarded_linear_insertIN9__gnu_cxx17__normal_iteratorIPSt6vectorIxSaIxEES2_IS4_SaIS4_EEEENS0_5__ops14_Val_less_iterEEvT_T0_(%"class.std::vector.0"* %4) #22
  %8 = getelementptr inbounds %"class.std::vector.0", %"class.std::vector.0"* %4, i64 1
  br label %3, !llvm.loop !42
}

; Function Attrs: minsize optsize sspstrong uwtable
define linkonce_odr dso_local void @_ZSt25__unguarded_linear_insertIN9__gnu_cxx17__normal_iteratorIPSt6vectorIxSaIxEES2_IS4_SaIS4_EEEENS0_5__ops14_Val_less_iterEEvT_T0_(%"class.std::vector.0"* %0) local_unnamed_addr #5 comdat personality i8* bitcast (i32 (...)* @__gxx_personality_v0 to i8*) {
  %2 = alloca %"class.std::vector.0", align 16
  %3 = bitcast %"class.std::vector.0"* %2 to i8*
  call void @llvm.lifetime.start.p0i8(i64 24, i8* nonnull %3) #21
  %4 = bitcast %"class.std::vector.0"* %0 to <2 x i64*>*
  %5 = load <2 x i64*>, <2 x i64*>* %4, align 8, !tbaa !18
  %6 = bitcast %"class.std::vector.0"* %2 to <2 x i64*>*
  store <2 x i64*> %5, <2 x i64*>* %6, align 16, !tbaa !18
  %7 = getelementptr inbounds %"class.std::vector.0", %"class.std::vector.0"* %2, i64 0, i32 0, i32 0, i32 0, i32 2
  %8 = getelementptr inbounds %"class.std::vector.0", %"class.std::vector.0"* %0, i64 0, i32 0, i32 0, i32 0, i32 2
  %9 = load i64*, i64** %8, align 8, !tbaa !23
  store i64* %9, i64** %7, align 16, !tbaa !23
  %10 = bitcast %"class.std::vector.0"* %0 to i8*
  tail call void @llvm.memset.p0i8.i64(i8* noundef nonnull align 8 dereferenceable(24) %10, i8 0, i64 24, i1 false) #21
  br label %11

11:                                               ; preds = %16, %1
  %12 = phi %"class.std::vector.0"* [ %0, %1 ], [ %13, %16 ]
  %13 = getelementptr inbounds %"class.std::vector.0", %"class.std::vector.0"* %12, i64 -1
  %14 = invoke zeroext i1 @_ZStltIxSaIxEEbRKSt6vectorIT_T0_ES6_(%"class.std::vector.0"* nonnull align 8 dereferenceable(24) %2, %"class.std::vector.0"* nonnull align 8 dereferenceable(24) %13) #22
          to label %15 unwind label %17

15:                                               ; preds = %11
  br i1 %14, label %16, label %20

16:                                               ; preds = %15
  call void @_ZNSt6vectorIxSaIxEE14_M_move_assignEOS1_St17integral_constantIbLb1EE(%"class.std::vector.0"* nonnull align 8 dereferenceable(24) %12, %"class.std::vector.0"* nonnull align 8 dereferenceable(24) %13) #23
  br label %11, !llvm.loop !43

17:                                               ; preds = %11
  %18 = landingpad { i8*, i32 }
          cleanup
  %19 = getelementptr inbounds %"class.std::vector.0", %"class.std::vector.0"* %2, i64 0, i32 0
  call void @_ZNSt12_Vector_baseIxSaIxEED2Ev(%"struct.std::_Vector_base.1"* nonnull align 8 dereferenceable(24) %19) #23
  call void @llvm.lifetime.end.p0i8(i64 24, i8* nonnull %3) #21
  resume { i8*, i32 } %18

20:                                               ; preds = %15
  call void @_ZNSt6vectorIxSaIxEE14_M_move_assignEOS1_St17integral_constantIbLb1EE(%"class.std::vector.0"* nonnull align 8 dereferenceable(24) %12, %"class.std::vector.0"* nonnull align 8 dereferenceable(24) %2) #23
  %21 = getelementptr inbounds %"class.std::vector.0", %"class.std::vector.0"* %2, i64 0, i32 0
  call void @_ZNSt12_Vector_baseIxSaIxEED2Ev(%"struct.std::_Vector_base.1"* nonnull align 8 dereferenceable(24) %21) #23
  call void @llvm.lifetime.end.p0i8(i64 24, i8* nonnull %3) #21
  ret void
}

; Function Attrs: inlinehint minsize optsize sspstrong uwtable
define linkonce_odr dso_local %"class.std::vector.0"* @_ZSt22__copy_move_backward_aILb1EN9__gnu_cxx17__normal_iteratorIPSt6vectorIxSaIxEES2_IS4_SaIS4_EEEES8_ET1_T0_SA_S9_(%"class.std::vector.0"* %0, %"class.std::vector.0"* %1, %"class.std::vector.0"* %2) local_unnamed_addr #16 comdat {
  %4 = tail call %"class.std::vector.0"* @_ZNSt20__copy_move_backwardILb1ELb0ESt26random_access_iterator_tagE13__copy_move_bIPSt6vectorIxSaIxEES6_EET0_T_S8_S7_(%"class.std::vector.0"* %0, %"class.std::vector.0"* %1, %"class.std::vector.0"* %2) #22
  %5 = ptrtoint %"class.std::vector.0"* %4 to i64
  %6 = ptrtoint %"class.std::vector.0"* %2 to i64
  %7 = sub i64 %5, %6
  %8 = sdiv exact i64 %7, 24
  %9 = getelementptr inbounds %"class.std::vector.0", %"class.std::vector.0"* %2, i64 %8
  ret %"class.std::vector.0"* %9
}

; Function Attrs: minsize mustprogress nounwind optsize sspstrong uwtable
define linkonce_odr dso_local %"class.std::vector.0"* @_ZNSt20__copy_move_backwardILb1ELb0ESt26random_access_iterator_tagE13__copy_move_bIPSt6vectorIxSaIxEES6_EET0_T_S8_S7_(%"class.std::vector.0"* %0, %"class.std::vector.0"* %1, %"class.std::vector.0"* %2) local_unnamed_addr #18 comdat align 2 {
  %4 = ptrtoint %"class.std::vector.0"* %1 to i64
  %5 = ptrtoint %"class.std::vector.0"* %0 to i64
  %6 = sub i64 %4, %5
  %7 = sdiv exact i64 %6, 24
  br label %8

8:                                                ; preds = %13, %3
  %9 = phi %"class.std::vector.0"* [ %1, %3 ], [ %14, %13 ]
  %10 = phi %"class.std::vector.0"* [ %2, %3 ], [ %15, %13 ]
  %11 = phi i64 [ %7, %3 ], [ %16, %13 ]
  %12 = icmp sgt i64 %11, 0
  br i1 %12, label %13, label %17

13:                                               ; preds = %8
  %14 = getelementptr inbounds %"class.std::vector.0", %"class.std::vector.0"* %9, i64 -1
  %15 = getelementptr inbounds %"class.std::vector.0", %"class.std::vector.0"* %10, i64 -1
  tail call void @_ZNSt6vectorIxSaIxEE14_M_move_assignEOS1_St17integral_constantIbLb1EE(%"class.std::vector.0"* nonnull align 8 dereferenceable(24) %15, %"class.std::vector.0"* nonnull align 8 dereferenceable(24) %14) #23
  %16 = add nsw i64 %11, -1
  br label %8, !llvm.loop !44

17:                                               ; preds = %8
  ret %"class.std::vector.0"* %10
}

; Function Attrs: minsize optsize
declare nonnull align 8 dereferenceable(8) %"class.std::basic_ostream"* @_ZNSo9_M_insertIxEERSoT_(%"class.std::basic_ostream"* nonnull align 8 dereferenceable(8), i64) local_unnamed_addr #0

; Function Attrs: minsize optsize sspstrong uwtable
define internal void @_GLOBAL__sub_I_s925419616.cpp() #5 section ".text.startup" {
  tail call void @_ZNSt8ios_base4InitC1Ev(%"class.std::ios_base::Init"* nonnull align 1 dereferenceable(1) @_ZStL8__ioinit) #22
  %1 = tail call i32 @__cxa_atexit(void (i8*)* bitcast (void (%"class.std::ios_base::Init"*)* @_ZNSt8ios_base4InitD1Ev to void (i8*)*), i8* getelementptr inbounds (%"class.std::ios_base::Init", %"class.std::ios_base::Init"* @_ZStL8__ioinit, i64 0, i32 0), i8* nonnull @__dso_handle) #21
  ret void
}

; Function Attrs: argmemonly nofree nounwind willreturn writeonly
declare void @llvm.memset.p0i8.i64(i8* nocapture writeonly, i8, i64, i1 immarg) #19

; Function Attrs: nofree nosync nounwind readnone speculatable willreturn
declare i64 @llvm.smax.i64(i64, i64) #20

attributes #0 = { minsize optsize "frame-pointer"="none" "no-trapping-math"="true" "stack-protector-buffer-size"="8" "target-cpu"="x86-64" "target-features"="+cx8,+fxsr,+mmx,+sse,+sse2,+x87" "tune-cpu"="generic" }
attributes #1 = { minsize nounwind optsize "frame-pointer"="none" "no-trapping-math"="true" "stack-protector-buffer-size"="8" "target-cpu"="x86-64" "target-features"="+cx8,+fxsr,+mmx,+sse,+sse2,+x87" "tune-cpu"="generic" }
attributes #2 = { nofree nounwind }
attributes #3 = { minsize norecurse optsize sspstrong uwtable "frame-pointer"="none" "min-legal-vector-width"="0" "no-trapping-math"="true" "stack-protector-buffer-size"="8" "target-cpu"="x86-64" "target-features"="+cx8,+fxsr,+mmx,+sse,+sse2,+x87" "tune-cpu"="generic" }
attributes #4 = { argmemonly mustprogress nofree nosync nounwind willreturn }
attributes #5 = { minsize optsize sspstrong uwtable "frame-pointer"="none" "min-legal-vector-width"="0" "no-trapping-math"="true" "stack-protector-buffer-size"="8" "target-cpu"="x86-64" "target-features"="+cx8,+fxsr,+mmx,+sse,+sse2,+x87" "tune-cpu"="generic" }
attributes #6 = { minsize nounwind optsize sspstrong uwtable "frame-pointer"="none" "min-legal-vector-width"="0" "no-trapping-math"="true" "stack-protector-buffer-size"="8" "target-cpu"="x86-64" "target-features"="+cx8,+fxsr,+mmx,+sse,+sse2,+x87" "tune-cpu"="generic" }
attributes #7 = { inlinehint minsize mustprogress optsize sspstrong uwtable "frame-pointer"="none" "min-legal-vector-width"="0" "no-trapping-math"="true" "stack-protector-buffer-size"="8" "target-cpu"="x86-64" "target-features"="+cx8,+fxsr,+mmx,+sse,+sse2,+x87" "tune-cpu"="generic" }
attributes #8 = { minsize mustprogress optsize sspstrong uwtable "frame-pointer"="none" "min-legal-vector-width"="0" "no-trapping-math"="true" "stack-protector-buffer-size"="8" "target-cpu"="x86-64" "target-features"="+cx8,+fxsr,+mmx,+sse,+sse2,+x87" "tune-cpu"="generic" }
attributes #9 = { minsize noreturn optsize "frame-pointer"="none" "no-trapping-math"="true" "stack-protector-buffer-size"="8" "target-cpu"="x86-64" "target-features"="+cx8,+fxsr,+mmx,+sse,+sse2,+x87" "tune-cpu"="generic" }
attributes #10 = { noinline noreturn nounwind }
attributes #11 = { minsize nobuiltin optsize allocsize(0) "frame-pointer"="none" "no-trapping-math"="true" "stack-protector-buffer-size"="8" "target-cpu"="x86-64" "target-features"="+cx8,+fxsr,+mmx,+sse,+sse2,+x87" "tune-cpu"="generic" }
attributes #12 = { minsize nobuiltin nounwind optsize "frame-pointer"="none" "no-trapping-math"="true" "stack-protector-buffer-size"="8" "target-cpu"="x86-64" "target-features"="+cx8,+fxsr,+mmx,+sse,+sse2,+x87" "tune-cpu"="generic" }
attributes #13 = { argmemonly mustprogress nofree nounwind willreturn }
attributes #14 = { inlinehint minsize mustprogress nounwind optsize sspstrong uwtable "frame-pointer"="none" "min-legal-vector-width"="0" "no-trapping-math"="true" "stack-protector-buffer-size"="8" "target-cpu"="x86-64" "target-features"="+cx8,+fxsr,+mmx,+sse,+sse2,+x87" "tune-cpu"="generic" }
attributes #15 = { inlinehint minsize nounwind optsize sspstrong uwtable "frame-pointer"="none" "min-legal-vector-width"="0" "no-trapping-math"="true" "stack-protector-buffer-size"="8" "target-cpu"="x86-64" "target-features"="+cx8,+fxsr,+mmx,+sse,+sse2,+x87" "tune-cpu"="generic" }
attributes #16 = { inlinehint minsize optsize sspstrong uwtable "frame-pointer"="none" "min-legal-vector-width"="0" "no-trapping-math"="true" "stack-protector-buffer-size"="8" "target-cpu"="x86-64" "target-features"="+cx8,+fxsr,+mmx,+sse,+sse2,+x87" "tune-cpu"="generic" }
attributes #17 = { mustprogress nofree nosync nounwind readnone speculatable willreturn }
attributes #18 = { minsize mustprogress nounwind optsize sspstrong uwtable "frame-pointer"="none" "min-legal-vector-width"="0" "no-trapping-math"="true" "stack-protector-buffer-size"="8" "target-cpu"="x86-64" "target-features"="+cx8,+fxsr,+mmx,+sse,+sse2,+x87" "tune-cpu"="generic" }
attributes #19 = { argmemonly nofree nounwind willreturn writeonly }
attributes #20 = { nofree nosync nounwind readnone speculatable willreturn }
attributes #21 = { nounwind }
attributes #22 = { minsize optsize }
attributes #23 = { minsize nounwind optsize }
attributes #24 = { noreturn nounwind }
attributes #25 = { minsize noreturn optsize }
attributes #26 = { minsize optsize allocsize(0) }
attributes #27 = { noreturn }

!llvm.module.flags = !{!0, !1, !2, !3}
!llvm.ident = !{!4}

!0 = !{i32 1, !"wchar_size", i32 4}
!1 = !{i32 7, !"PIC Level", i32 2}
!2 = !{i32 7, !"PIE Level", i32 2}
!3 = !{i32 7, !"uwtable", i32 1}
!4 = !{!"clang version 13.0.0"}
!5 = !{!6, !6, i64 0}
!6 = !{!"long long", !7, i64 0}
!7 = !{!"omnipotent char", !8, i64 0}
!8 = !{!"Simple C++ TBAA"}
!9 = !{!10, !11, i64 0}
!10 = !{!"_ZTSNSt12_Vector_baseISt6vectorIxSaIxEESaIS2_EE17_Vector_impl_dataE", !11, i64 0, !11, i64 8, !11, i64 16}
!11 = !{!"any pointer", !7, i64 0}
!12 = !{!13, !11, i64 0}
!13 = !{!"_ZTSNSt12_Vector_baseIxSaIxEE17_Vector_impl_dataE", !11, i64 0, !11, i64 8, !11, i64 16}
!14 = distinct !{!14, !15}
!15 = !{!"llvm.loop.mustprogress"}
!16 = distinct !{!16, !15}
!17 = distinct !{!17, !15}
!18 = !{!11, !11, i64 0}
!19 = !{!10, !11, i64 8}
!20 = distinct !{!20, !15}
!21 = distinct !{!21, !15}
!22 = !{!13, !11, i64 8}
!23 = !{!13, !11, i64 16}
!24 = !{!"branch_weights", i32 1, i32 2000}
!25 = distinct !{!25, !15}
!26 = !{!10, !11, i64 16}
!27 = distinct !{!27, !15}
!28 = distinct !{!28, !15}
!29 = distinct !{!29, !15}
!30 = !{i64 0, i64 65}
!31 = distinct !{!31, !15}
!32 = distinct !{!32, !15}
!33 = distinct !{!33, !15}
!34 = distinct !{!34, !15}
!35 = distinct !{!35, !15}
!36 = distinct !{!36, !15}
!37 = distinct !{!37, !15}
!38 = distinct !{!38, !15}
!39 = distinct !{!39, !15}
!40 = distinct !{!40, !15}
!41 = distinct !{!41, !15}
!42 = distinct !{!42, !15}
!43 = distinct !{!43, !15}
!44 = distinct !{!44, !15}
