; ModuleID = 'Project_CodeNet_C++1400/p03289/s761891225.cpp'
source_filename = "Project_CodeNet_C++1400/p03289/s761891225.cpp"
target datalayout = "e-m:e-i64:64-f80:128-n8:16:32:64-S128"
target triple = "x86_64-unknown-linux-gnu"

%"class.std::ios_base::Init" = type { i8 }
%"class.std::basic_istream" = type { i32 (...)**, i64, %"class.std::basic_ios" }
%"class.std::basic_ios" = type { %"class.std::ios_base", %"class.std::basic_ostream"*, i8, i8, %"class.std::basic_streambuf"*, %"class.std::ctype"*, %"class.std::num_put"*, %"class.std::num_get"* }
%"class.std::ios_base" = type { i32 (...)**, i64, i64, i32, i32, i32, %"struct.std::ios_base::_Callback_list"*, %"struct.std::ios_base::_Words", [8 x %"struct.std::ios_base::_Words"], i32, %"struct.std::ios_base::_Words"*, %"class.std::locale" }
%"struct.std::ios_base::_Callback_list" = type { %"struct.std::ios_base::_Callback_list"*, void (i32, %"class.std::ios_base"*, i32)*, i32, i32 }
%"struct.std::ios_base::_Words" = type { i8*, i64 }
%"class.std::locale" = type { %"class.std::locale::_Impl"* }
%"class.std::locale::_Impl" = type { i32, %"class.std::locale::facet"**, i64, %"class.std::locale::facet"**, i8** }
%"class.std::locale::facet" = type <{ i32 (...)**, i32, [4 x i8] }>
%"class.std::basic_ostream" = type { i32 (...)**, %"class.std::basic_ios" }
%"class.std::basic_streambuf" = type { i32 (...)**, i8*, i8*, i8*, i8*, i8*, i8*, %"class.std::locale" }
%"class.std::ctype" = type <{ %"class.std::locale::facet.base", [4 x i8], %struct.__locale_struct*, i8, [7 x i8], i32*, i32*, i16*, i8, [256 x i8], [256 x i8], i8, [6 x i8] }>
%"class.std::locale::facet.base" = type <{ i32 (...)**, i32 }>
%struct.__locale_struct = type { [13 x %struct.__locale_data*], i16*, i32*, i32*, [13 x i8*] }
%struct.__locale_data = type opaque
%"class.std::num_put" = type { %"class.std::locale::facet.base", [4 x i8] }
%"class.std::num_get" = type { %"class.std::locale::facet.base", [4 x i8] }
%"class.std::locale::id" = type { i64 }
%"struct.std::piecewise_construct_t" = type { i8 }
%"class.std::__cxx11::basic_string" = type { %"struct.std::__cxx11::basic_string<char, std::char_traits<char>, std::allocator<char> >::_Alloc_hider", i64, %union.anon }
%"struct.std::__cxx11::basic_string<char, std::char_traits<char>, std::allocator<char> >::_Alloc_hider" = type { i8* }
%union.anon = type { i64, [8 x i8] }
%"class.std::__cxx11::basic_regex" = type { i32, %"class.std::locale", %"class.std::shared_ptr" }
%"class.std::shared_ptr" = type { %"class.std::__shared_ptr" }
%"class.std::__shared_ptr" = type { %"struct.std::__detail::_NFA"*, %"class.std::__shared_count" }
%"struct.std::__detail::_NFA" = type { %"struct.std::__detail::_NFA_base.base", %"class.std::vector.3", %"struct.std::__cxx11::regex_traits" }
%"struct.std::__detail::_NFA_base.base" = type <{ %"class.std::vector", i32, [4 x i8], i64, i64, i8 }>
%"class.std::vector" = type { %"struct.std::_Vector_base" }
%"struct.std::_Vector_base" = type { %"struct.std::_Vector_base<unsigned long, std::allocator<unsigned long> >::_Vector_impl" }
%"struct.std::_Vector_base<unsigned long, std::allocator<unsigned long> >::_Vector_impl" = type { i64*, i64*, i64* }
%"class.std::vector.3" = type { %"struct.std::_Vector_base.4" }
%"struct.std::_Vector_base.4" = type { %"struct.std::_Vector_base<std::__detail::_State<std::__cxx11::regex_traits<char> >, std::allocator<std::__detail::_State<std::__cxx11::regex_traits<char> > > >::_Vector_impl" }
%"struct.std::_Vector_base<std::__detail::_State<std::__cxx11::regex_traits<char> >, std::allocator<std::__detail::_State<std::__cxx11::regex_traits<char> > > >::_Vector_impl" = type { %"struct.std::__detail::_State"*, %"struct.std::__detail::_State"*, %"struct.std::__detail::_State"* }
%"struct.std::__detail::_State" = type { %"struct.std::__detail::_State_base", %"class.std::function" }
%"struct.std::__detail::_State_base" = type { i32, i64, %union.anon.8 }
%union.anon.8 = type { %struct.anon }
%struct.anon = type { i64, i8 }
%"class.std::function" = type { %"class.std::_Function_base", i1 (%"union.std::_Any_data"*, i8*)* }
%"class.std::_Function_base" = type { %"union.std::_Any_data", i1 (%"union.std::_Any_data"*, %"union.std::_Any_data"*, i32)* }
%"union.std::_Any_data" = type { %"union.std::_Nocopy_types" }
%"union.std::_Nocopy_types" = type { { i64, i64 } }
%"struct.std::__cxx11::regex_traits" = type { %"class.std::locale" }
%"class.std::__shared_count" = type { %"class.std::_Sp_counted_base"* }
%"class.std::_Sp_counted_base" = type { i32 (...)**, i32, i32 }
%"class.__gnu_cxx::__normal_iterator.101" = type { i8* }
%"class.std::__detail::_Compiler" = type { i32, %"class.std::__detail::_Scanner", %"class.std::shared_ptr.10", %"class.std::__cxx11::basic_string", %"class.std::stack", %"struct.std::__cxx11::regex_traits"*, %"class.std::ctype"* }
%"class.std::__detail::_Scanner" = type { %"struct.std::__detail::_ScannerBase.base", i8*, i8*, %"class.std::ctype"*, %"class.std::__cxx11::basic_string", { i64, i64 } }
%"struct.std::__detail::_ScannerBase.base" = type <{ [9 x %"struct.std::pair"], [8 x %"struct.std::pair.9"], [11 x %"struct.std::pair.9"], [2 x i8], i8*, i8*, i8*, i32, i32, i32, [4 x i8], %"struct.std::pair.9"*, i8*, i8 }>
%"struct.std::pair" = type { i8, i32 }
%"struct.std::pair.9" = type { i8, i8 }
%"class.std::shared_ptr.10" = type { %"class.std::__shared_ptr.11" }
%"class.std::__shared_ptr.11" = type { %"struct.std::__detail::_NFA"*, %"class.std::__shared_count" }
%"class.std::stack" = type { %"class.std::deque" }
%"class.std::deque" = type { %"class.std::_Deque_base" }
%"class.std::_Deque_base" = type { %"struct.std::_Deque_base<std::__detail::_StateSeq<std::__cxx11::regex_traits<char> >, std::allocator<std::__detail::_StateSeq<std::__cxx11::regex_traits<char> > > >::_Deque_impl" }
%"struct.std::_Deque_base<std::__detail::_StateSeq<std::__cxx11::regex_traits<char> >, std::allocator<std::__detail::_StateSeq<std::__cxx11::regex_traits<char> > > >::_Deque_impl" = type { %"class.std::__detail::_StateSeq"**, i64, %"struct.std::_Deque_iterator", %"struct.std::_Deque_iterator" }
%"class.std::__detail::_StateSeq" = type { %"struct.std::__detail::_NFA"*, i64, i64 }
%"struct.std::_Deque_iterator" = type { %"class.std::__detail::_StateSeq"*, %"class.std::__detail::_StateSeq"*, %"class.std::__detail::_StateSeq"*, %"class.std::__detail::_StateSeq"** }
%"struct.std::__detail::_NFA_base" = type <{ %"class.std::vector", i32, [4 x i8], i64, i64, i8, [7 x i8] }>
%"struct.std::__detail::_ScannerBase" = type <{ [9 x %"struct.std::pair"], [8 x %"struct.std::pair.9"], [11 x %"struct.std::pair.9"], [2 x i8], i8*, i8*, i8*, i32, i32, i32, [4 x i8], %"struct.std::pair.9"*, i8*, i8, [7 x i8] }>
%"class.std::allocator.15" = type { i8 }
%"class.std::allocator.12" = type { i8 }
%"class.__gnu_cxx::__normal_iterator.100" = type { %"struct.std::__detail::_State"* }
%"struct.std::_Sp_make_shared_tag" = type { i8 }
%"class.__gnu_cxx::new_allocator.16" = type { i8 }
%"class.std::type_info" = type { i32 (...)**, i8* }
%"class.std::allocator.18" = type { i8 }
%"struct.std::__allocated_ptr" = type { %"class.std::allocator.18"*, %"class.std::_Sp_counted_ptr_inplace"* }
%"class.std::_Sp_counted_ptr_inplace" = type { %"class.std::_Sp_counted_base", %"class.std::_Sp_counted_ptr_inplace<std::__detail::_NFA<std::__cxx11::regex_traits<char> >, std::allocator<std::__detail::_NFA<std::__cxx11::regex_traits<char> > >, __gnu_cxx::_Lock_policy::_S_atomic>::_Impl" }
%"class.std::_Sp_counted_ptr_inplace<std::__detail::_NFA<std::__cxx11::regex_traits<char> >, std::allocator<std::__detail::_NFA<std::__cxx11::regex_traits<char> > >, __gnu_cxx::_Lock_policy::_S_atomic>::_Impl" = type { %"struct.__gnu_cxx::__aligned_buffer" }
%"struct.__gnu_cxx::__aligned_buffer" = type { %"union.std::aligned_storage<88, 8>::type" }
%"union.std::aligned_storage<88, 8>::type" = type { [88 x i8] }
%"class.__gnu_cxx::new_allocator.19" = type { i8 }
%"class.std::_Mutex_base" = type { i8 }
%"struct.std::_Sp_ebo_helper" = type { i8 }
%"class.std::allocator.5" = type { i8 }
%"class.std::allocator.0" = type { i8 }
%"class.__gnu_cxx::new_allocator.1" = type { i8 }
%"class.__gnu_cxx::new_allocator.6" = type { i8 }
%"class.__gnu_cxx::new_allocator.13" = type { i8 }
%"class.std::allocator.22" = type { i8 }
%"class.__gnu_cxx::new_allocator.23" = type { i8 }
%"struct.std::integral_constant" = type { i8 }
%"struct.__gnu_cxx::__allocator_always_compares_equal" = type { i8 }
%"class.std::move_iterator" = type { i64* }
%"struct.std::_Maybe_unary_or_binary_function" = type { i8 }
%class.anon = type { %"class.std::__detail::_Compiler"*, i8* }
%"class.std::stack.81" = type { %"class.std::deque.82" }
%"class.std::deque.82" = type { %"class.std::_Deque_base.83" }
%"class.std::_Deque_base.83" = type { %"struct.std::_Deque_base<long, std::allocator<long> >::_Deque_impl" }
%"struct.std::_Deque_base<long, std::allocator<long> >::_Deque_impl" = type { i64**, i64, %"struct.std::_Deque_iterator.87", %"struct.std::_Deque_iterator.87" }
%"struct.std::_Deque_iterator.87" = type { i64*, i64*, i64*, i64** }
%"struct.std::__detail::_AnyMatcher" = type { %"class.std::__detail::_RegexTranslator" }
%"class.std::__detail::_RegexTranslator" = type { i8 }
%"struct.std::__detail::_AnyMatcher.25" = type { %"class.std::__detail::_RegexTranslator.26" }
%"class.std::__detail::_RegexTranslator.26" = type { %"struct.std::__cxx11::regex_traits"* }
%"struct.std::__detail::_AnyMatcher.27" = type { %"class.std::__detail::_RegexTranslator.28" }
%"class.std::__detail::_RegexTranslator.28" = type { %"struct.std::__cxx11::regex_traits"* }
%"struct.std::__detail::_AnyMatcher.29" = type { %"class.std::__detail::_RegexTranslator.30" }
%"class.std::__detail::_RegexTranslator.30" = type { %"struct.std::__cxx11::regex_traits"* }
%"struct.std::__detail::_AnyMatcher.31" = type { %"class.std::__detail::_RegexTranslator" }
%"struct.std::__detail::_AnyMatcher.32" = type { %"class.std::__detail::_RegexTranslator.26" }
%"struct.std::__detail::_AnyMatcher.33" = type { %"class.std::__detail::_RegexTranslator.28" }
%"struct.std::__detail::_AnyMatcher.34" = type { %"class.std::__detail::_RegexTranslator.30" }
%"struct.std::__detail::_CharMatcher" = type { %"class.std::__detail::_RegexTranslator", i8 }
%"struct.std::__detail::_CharMatcher.35" = type <{ %"class.std::__detail::_RegexTranslator.26", i8, [7 x i8] }>
%"struct.std::__detail::_CharMatcher.36" = type <{ %"class.std::__detail::_RegexTranslator.28", i8, [7 x i8] }>
%"struct.std::__detail::_CharMatcher.38" = type <{ %"class.std::__detail::_RegexTranslator.30", i8, [7 x i8] }>
%"class.__gnu_cxx::__normal_iterator" = type { i64* }
%"struct.std::__detail::_BracketMatcher" = type { %"class.std::vector.40", %"class.std::vector.42", %"class.std::vector.47", %"class.std::vector.52", %"struct.std::__cxx11::regex_traits<char>::_RegexMask", %"class.std::__detail::_RegexTranslator", %"struct.std::__cxx11::regex_traits"*, i8, %"class.std::bitset" }
%"class.std::vector.40" = type { %"struct.std::_Vector_base.41" }
%"struct.std::_Vector_base.41" = type { %"struct.std::_Vector_base<char, std::allocator<char> >::_Vector_impl" }
%"struct.std::_Vector_base<char, std::allocator<char> >::_Vector_impl" = type { i8*, i8*, i8* }
%"class.std::vector.42" = type { %"struct.std::_Vector_base.43" }
%"struct.std::_Vector_base.43" = type { %"struct.std::_Vector_base<std::__cxx11::basic_string<char>, std::allocator<std::__cxx11::basic_string<char> > >::_Vector_impl" }
%"struct.std::_Vector_base<std::__cxx11::basic_string<char>, std::allocator<std::__cxx11::basic_string<char> > >::_Vector_impl" = type { %"class.std::__cxx11::basic_string"*, %"class.std::__cxx11::basic_string"*, %"class.std::__cxx11::basic_string"* }
%"class.std::vector.47" = type { %"struct.std::_Vector_base.48" }
%"struct.std::_Vector_base.48" = type { %"struct.std::_Vector_base<std::pair<char, char>, std::allocator<std::pair<char, char> > >::_Vector_impl" }
%"struct.std::_Vector_base<std::pair<char, char>, std::allocator<std::pair<char, char> > >::_Vector_impl" = type { %"struct.std::pair.9"*, %"struct.std::pair.9"*, %"struct.std::pair.9"* }
%"class.std::vector.52" = type { %"struct.std::_Vector_base.53" }
%"struct.std::_Vector_base.53" = type { %"struct.std::_Vector_base<std::__cxx11::regex_traits<char>::_RegexMask, std::allocator<std::__cxx11::regex_traits<char>::_RegexMask> >::_Vector_impl" }
%"struct.std::_Vector_base<std::__cxx11::regex_traits<char>::_RegexMask, std::allocator<std::__cxx11::regex_traits<char>::_RegexMask> >::_Vector_impl" = type { %"struct.std::__cxx11::regex_traits<char>::_RegexMask"*, %"struct.std::__cxx11::regex_traits<char>::_RegexMask"*, %"struct.std::__cxx11::regex_traits<char>::_RegexMask"* }
%"struct.std::__cxx11::regex_traits<char>::_RegexMask" = type <{ i16, i8, i8 }>
%"class.std::bitset" = type { %"struct.std::_Base_bitset" }
%"struct.std::_Base_bitset" = type { [4 x i64] }
%"struct.std::__detail::_BracketMatcher.65" = type { %"class.std::vector.40", %"class.std::vector.42", %"class.std::vector.66", %"class.std::vector.52", %"struct.std::__cxx11::regex_traits<char>::_RegexMask", %"class.std::__detail::_RegexTranslator.26", %"struct.std::__cxx11::regex_traits"*, i8, %"class.std::bitset" }
%"class.std::vector.66" = type { %"struct.std::_Vector_base.67" }
%"struct.std::_Vector_base.67" = type { %"struct.std::_Vector_base<std::pair<std::__cxx11::basic_string<char>, std::__cxx11::basic_string<char> >, std::allocator<std::pair<std::__cxx11::basic_string<char>, std::__cxx11::basic_string<char> > > >::_Vector_impl" }
%"struct.std::_Vector_base<std::pair<std::__cxx11::basic_string<char>, std::__cxx11::basic_string<char> >, std::allocator<std::pair<std::__cxx11::basic_string<char>, std::__cxx11::basic_string<char> > > >::_Vector_impl" = type { %"struct.std::pair.71"*, %"struct.std::pair.71"*, %"struct.std::pair.71"* }
%"struct.std::pair.71" = type { %"class.std::__cxx11::basic_string", %"class.std::__cxx11::basic_string" }
%"struct.std::__detail::_BracketMatcher.74" = type { %"class.std::vector.40", %"class.std::vector.42", %"class.std::vector.47", %"class.std::vector.52", %"struct.std::__cxx11::regex_traits<char>::_RegexMask", %"class.std::__detail::_RegexTranslator.28", %"struct.std::__cxx11::regex_traits"*, i8, %"class.std::bitset" }
%"struct.std::__detail::_BracketMatcher.75" = type { %"class.std::vector.40", %"class.std::vector.42", %"class.std::vector.66", %"class.std::vector.52", %"struct.std::__cxx11::regex_traits<char>::_RegexMask", %"class.std::__detail::_RegexTranslator.30", %"struct.std::__cxx11::regex_traits"*, i8, %"class.std::bitset" }
%"class.std::__cxx11::basic_istringstream" = type { %"class.std::basic_istream.base", %"class.std::__cxx11::basic_stringbuf", %"class.std::basic_ios" }
%"class.std::basic_istream.base" = type { i32 (...)**, i64 }
%"class.std::__cxx11::basic_stringbuf" = type { %"class.std::basic_streambuf", i32, %"class.std::__cxx11::basic_string" }
%"class.std::allocator" = type { i8 }
%"class.__gnu_cxx::__normal_iterator.59" = type { i8* }
%"class.__gnu_cxx::__normal_iterator.60" = type { i8* }
%"class.std::allocator.54" = type { i8 }
%"class.std::allocator.49" = type { i8 }
%"class.std::allocator.44" = type { i8 }
%"class.__gnu_cxx::new_allocator.45" = type { i8 }
%"class.__gnu_cxx::new_allocator.50" = type { i8 }
%"class.__gnu_cxx::new_allocator.55" = type { i8 }
%"class.__gnu_cxx::new_allocator" = type { i8 }
%"struct.std::pair.57" = type <{ i8*, %"struct.std::__cxx11::regex_traits<char>::_RegexMask", [4 x i8] }>
%"class.std::move_iterator.58" = type { %"struct.std::__cxx11::regex_traits<char>::_RegexMask"* }
%"struct.__gnu_cxx::__ops::_Iter_less_iter" = type { i8 }
%"struct.__gnu_cxx::__ops::_Iter_equal_to_iter" = type { i8 }
%"struct.std::integral_constant.61" = type { i8 }
%"class.std::bitset<256>::reference" = type { i64*, i64 }
%"struct.__gnu_cxx::__ops::_Iter_less_val" = type { i8 }
%"struct.__gnu_cxx::__ops::_Val_less_iter" = type { i8 }
%"class.__gnu_cxx::__normal_iterator.62" = type { %"struct.std::pair.9"* }
%"class.__gnu_cxx::__normal_iterator.63" = type { %"class.std::__cxx11::basic_string"* }
%"class.__gnu_cxx::__normal_iterator.64" = type { %"struct.std::__cxx11::regex_traits<char>::_RegexMask"* }
%"struct.__gnu_cxx::__ops::_Iter_equals_val" = type { %"class.std::__cxx11::basic_string"* }
%"struct.std::random_access_iterator_tag" = type { i8 }
%"struct.std::__false_type" = type { i8 }
%"class.std::__cxx11::collate" = type { %"class.std::locale::facet.base", %struct.__locale_struct* }
%"struct.std::forward_iterator_tag" = type { i8 }
%"class.std::allocator.68" = type { i8 }
%"class.__gnu_cxx::new_allocator.69" = type { i8 }
%"class.__gnu_cxx::__normal_iterator.72" = type { %"struct.std::pair.71"* }
%"class.__gnu_cxx::__normal_iterator.73" = type { i8* }
%"struct.std::pair.76" = type { i8, i8 }
%"class.std::move_iterator.77" = type { i8* }
%"class.std::move_iterator.78" = type { %"class.std::__cxx11::basic_string"* }
%"class.std::move_iterator.79" = type { %"struct.std::pair.9"* }
%"class.std::move_iterator.80" = type { %"struct.std::pair.71"* }
%"class.std::map" = type { %"class.std::_Rb_tree" }
%"class.std::_Rb_tree" = type { %"struct.std::_Rb_tree<long, std::pair<const long, long>, std::_Select1st<std::pair<const long, long> >, std::less<long>, std::allocator<std::pair<const long, long> > >::_Rb_tree_impl" }
%"struct.std::_Rb_tree<long, std::pair<const long, long>, std::_Select1st<std::pair<const long, long> >, std::less<long>, std::allocator<std::pair<const long, long> > >::_Rb_tree_impl" = type { %"struct.std::less", %"struct.std::_Rb_tree_node_base", i64 }
%"struct.std::less" = type { i8 }
%"struct.std::_Rb_tree_node_base" = type { i32, %"struct.std::_Rb_tree_node_base"*, %"struct.std::_Rb_tree_node_base"*, %"struct.std::_Rb_tree_node_base"* }
%"struct.std::_Rb_tree_iterator" = type { %"struct.std::_Rb_tree_node_base"* }
%"struct.std::pair.91" = type { i64, i64 }
%"class.std::allocator.84" = type { i8 }
%"struct.std::_Rb_tree_const_iterator" = type { %"struct.std::_Rb_tree_node_base"* }
%"class.std::tuple" = type { %"struct.std::_Tuple_impl" }
%"struct.std::_Tuple_impl" = type { %"struct.std::_Head_base" }
%"struct.std::_Head_base" = type { i64* }
%"class.std::tuple.92" = type { i8 }
%"struct.std::_Rb_tree_node" = type { %"struct.std::_Rb_tree_node_base", %"struct.__gnu_cxx::__aligned_membuf" }
%"struct.__gnu_cxx::__aligned_membuf" = type { [16 x i8] }
%"class.std::allocator.88" = type { i8 }
%"class.__gnu_cxx::new_allocator.89" = type { i8 }
%"struct.std::pair.94" = type { %"struct.std::_Rb_tree_node_base"*, %"struct.std::_Rb_tree_node_base"* }
%"struct.std::_Select1st" = type { i8 }
%"struct.std::_Index_tuple" = type { i8 }
%"struct.std::_Index_tuple.95" = type { i8 }
%"class.__gnu_cxx::new_allocator.85" = type { i8 }
%"class.std::allocator.96" = type { i8 }
%"class.__gnu_cxx::new_allocator.97" = type { i8 }
%"struct.__gnu_cxx::__allocator_always_compares_equal.99" = type { i8 }
%"class.std::__cxx11::match_results" = type { %"class.std::vector.102", %"class.__gnu_cxx::__normal_iterator.101" }
%"class.std::vector.102" = type { %"struct.std::_Vector_base.103" }
%"struct.std::_Vector_base.103" = type { %"struct.std::_Vector_base<std::__cxx11::sub_match<__gnu_cxx::__normal_iterator<const char *, std::__cxx11::basic_string<char> > >, std::allocator<std::__cxx11::sub_match<__gnu_cxx::__normal_iterator<const char *, std::__cxx11::basic_string<char> > > > >::_Vector_impl" }
%"struct.std::_Vector_base<std::__cxx11::sub_match<__gnu_cxx::__normal_iterator<const char *, std::__cxx11::basic_string<char> > >, std::allocator<std::__cxx11::sub_match<__gnu_cxx::__normal_iterator<const char *, std::__cxx11::basic_string<char> > > > >::_Vector_impl" = type { %"class.std::__cxx11::sub_match"*, %"class.std::__cxx11::sub_match"*, %"class.std::__cxx11::sub_match"* }
%"class.std::__cxx11::sub_match" = type <{ %"struct.std::pair.107", i8, [7 x i8] }>
%"struct.std::pair.107" = type { %"class.__gnu_cxx::__normal_iterator.101", %"class.__gnu_cxx::__normal_iterator.101" }
%"class.std::allocator.104" = type { i8 }
%"class.__gnu_cxx::new_allocator.105" = type { i8 }
%"class.__gnu_cxx::__normal_iterator.108" = type { %"class.std::__cxx11::sub_match"* }
%"class.std::__detail::_Executor" = type <{ %"class.std::vector.102", %"class.__gnu_cxx::__normal_iterator.101", %"class.__gnu_cxx::__normal_iterator.101", %"class.__gnu_cxx::__normal_iterator.101", %"class.std::__cxx11::basic_regex"*, %"struct.std::__detail::_NFA"*, %"class.std::vector.102"*, %"class.std::vector.109", %"struct.std::__detail::_Executor<__gnu_cxx::__normal_iterator<const char *, std::__cxx11::basic_string<char> >, std::allocator<std::__cxx11::sub_match<__gnu_cxx::__normal_iterator<const char *, std::__cxx11::basic_string<char> > > >, std::__cxx11::regex_traits<char>, false>::_State_info", i32, i8, [3 x i8] }>
%"class.std::vector.109" = type { %"struct.std::_Vector_base.110" }
%"struct.std::_Vector_base.110" = type { %"struct.std::_Vector_base<std::pair<__gnu_cxx::__normal_iterator<const char *, std::__cxx11::basic_string<char> >, int>, std::allocator<std::pair<__gnu_cxx::__normal_iterator<const char *, std::__cxx11::basic_string<char> >, int> > >::_Vector_impl" }
%"struct.std::_Vector_base<std::pair<__gnu_cxx::__normal_iterator<const char *, std::__cxx11::basic_string<char> >, int>, std::allocator<std::pair<__gnu_cxx::__normal_iterator<const char *, std::__cxx11::basic_string<char> >, int> > >::_Vector_impl" = type { %"struct.std::pair.114"*, %"struct.std::pair.114"*, %"struct.std::pair.114"* }
%"struct.std::pair.114" = type <{ %"class.__gnu_cxx::__normal_iterator.101", i32, [4 x i8] }>
%"struct.std::__detail::_Executor<__gnu_cxx::__normal_iterator<const char *, std::__cxx11::basic_string<char> >, std::allocator<std::__cxx11::sub_match<__gnu_cxx::__normal_iterator<const char *, std::__cxx11::basic_string<char> > > >, std::__cxx11::regex_traits<char>, false>::_State_info" = type { %"class.std::vector.116", %"class.std::unique_ptr", i64 }
%"class.std::vector.116" = type { %"struct.std::_Vector_base.117" }
%"struct.std::_Vector_base.117" = type { %"struct.std::_Vector_base<std::pair<long, std::vector<std::__cxx11::sub_match<__gnu_cxx::__normal_iterator<const char *, std::__cxx11::basic_string<char> > >, std::allocator<std::__cxx11::sub_match<__gnu_cxx::__normal_iterator<const char *, std::__cxx11::basic_string<char> > > > > >, std::allocator<std::pair<long, std::vector<std::__cxx11::sub_match<__gnu_cxx::__normal_iterator<const char *, std::__cxx11::basic_string<char> > >, std::allocator<std::__cxx11::sub_match<__gnu_cxx::__normal_iterator<const char *, std::__cxx11::basic_string<char> > > > > > > >::_Vector_impl" }
%"struct.std::_Vector_base<std::pair<long, std::vector<std::__cxx11::sub_match<__gnu_cxx::__normal_iterator<const char *, std::__cxx11::basic_string<char> > >, std::allocator<std::__cxx11::sub_match<__gnu_cxx::__normal_iterator<const char *, std::__cxx11::basic_string<char> > > > > >, std::allocator<std::pair<long, std::vector<std::__cxx11::sub_match<__gnu_cxx::__normal_iterator<const char *, std::__cxx11::basic_string<char> > >, std::allocator<std::__cxx11::sub_match<__gnu_cxx::__normal_iterator<const char *, std::__cxx11::basic_string<char> > > > > > > >::_Vector_impl" = type { %"struct.std::pair.121"*, %"struct.std::pair.121"*, %"struct.std::pair.121"* }
%"struct.std::pair.121" = type { i64, %"class.std::vector.102" }
%"class.std::unique_ptr" = type { %"class.std::tuple.122" }
%"class.std::tuple.122" = type { %"struct.std::_Tuple_impl.123" }
%"struct.std::_Tuple_impl.123" = type { %"struct.std::_Head_base.126" }
%"struct.std::_Head_base.126" = type { i8* }
%"class.std::__detail::_Executor.127" = type <{ %"class.std::vector.102", %"class.__gnu_cxx::__normal_iterator.101", %"class.__gnu_cxx::__normal_iterator.101", %"class.__gnu_cxx::__normal_iterator.101", %"class.std::__cxx11::basic_regex"*, %"struct.std::__detail::_NFA"*, %"class.std::vector.102"*, %"class.std::vector.109", %"struct.std::__detail::_Executor<__gnu_cxx::__normal_iterator<const char *, std::__cxx11::basic_string<char> >, std::allocator<std::__cxx11::sub_match<__gnu_cxx::__normal_iterator<const char *, std::__cxx11::basic_string<char> > > >, std::__cxx11::regex_traits<char>, true>::_State_info", i32, i8, [3 x i8] }>
%"struct.std::__detail::_Executor<__gnu_cxx::__normal_iterator<const char *, std::__cxx11::basic_string<char> >, std::allocator<std::__cxx11::sub_match<__gnu_cxx::__normal_iterator<const char *, std::__cxx11::basic_string<char> > > >, std::__cxx11::regex_traits<char>, true>::_State_info" = type { i64, %"class.__gnu_cxx::__normal_iterator.101" }
%"class.std::allocator.111" = type { i8 }
%"class.std::move_iterator.129" = type { %"class.std::__cxx11::sub_match"* }
%"class.__gnu_cxx::new_allocator.112" = type { i8 }
%"struct.std::default_delete" = type { i8 }
%"class.std::allocator.118" = type { i8 }
%"class.__gnu_cxx::new_allocator.119" = type { i8 }
%"struct.std::_Tuple_impl.124" = type { i8 }
%"struct.std::_Head_base.125" = type { i8 }
%"class.__gnu_cxx::__normal_iterator.130" = type { %"struct.std::pair.121"* }
%"class.__gnu_cxx::__normal_iterator.133" = type { %"struct.std::pair.121"* }
%"class.__gnu_cxx::__normal_iterator.131" = type { %"class.std::__cxx11::sub_match"* }
%"class.std::move_iterator.132" = type { %"struct.std::pair.121"* }

$_ZNSt7__cxx1111basic_regexIcNS_12regex_traitsIcEEEC2EPKcNSt15regex_constants18syntax_option_typeE = comdat any

$_ZSt11regex_matchISt11char_traitsIcESaIcEcNSt7__cxx1112regex_traitsIcEEEbRKNS3_12basic_stringIT1_T_T0_EERKNS3_11basic_regexIS7_T2_EENSt15regex_constants15match_flag_typeE = comdat any

$_ZNSt7__cxx1111basic_regexIcNS_12regex_traitsIcEEED2Ev = comdat any

$_ZNSt11char_traitsIcE6lengthEPKc = comdat any

$_ZNSt7__cxx1111basic_regexIcNS_12regex_traitsIcEEEC2IPKcEET_S7_NSt15regex_constants18syntax_option_typeE = comdat any

$_ZSt4moveIRPKcEONSt16remove_referenceIT_E4typeEOS4_ = comdat any

$_ZNSt7__cxx1111basic_regexIcNS_12regex_traitsIcEEEC2IPKcEET_S7_St6localeNSt15regex_constants18syntax_option_typeE = comdat any

$_ZSt4moveIRSt6localeEONSt16remove_referenceIT_E4typeEOS3_ = comdat any

$_ZNSt8__detail13__compile_nfaIPKcNSt7__cxx1112regex_traitsIcEEEENSt9enable_ifIXsr27__is_contiguous_normal_iterIT_EE5valueESt10shared_ptrIKNS_4_NFAIT0_EEEE4typeES7_S7_RKNSA_11locale_typeENSt15regex_constants18syntax_option_typeE = comdat any

$_ZSt11__addressofIKcEPT_RS1_ = comdat any

$_ZNSt8__detail9_CompilerINSt7__cxx1112regex_traitsIcEEEC2EPKcS6_RKSt6localeNSt15regex_constants18syntax_option_typeE = comdat any

$_ZNSt8__detail9_CompilerINSt7__cxx1112regex_traitsIcEEE10_M_get_nfaEv = comdat any

$_ZNSt8__detail9_CompilerINSt7__cxx1112regex_traitsIcEEED2Ev = comdat any

$_ZNSt15regex_constantsanENS_18syntax_option_typeES0_ = comdat any

$_ZNSt15regex_constantsorENS_18syntax_option_typeES0_ = comdat any

$_ZNSt8__detail8_ScannerIcEC2EPKcS3_NSt15regex_constants18syntax_option_typeESt6locale = comdat any

$_ZSt11make_sharedINSt8__detail4_NFAINSt7__cxx1112regex_traitsIcEEEEJRKSt6localeRNSt15regex_constants18syntax_option_typeEEESt10shared_ptrIT_EDpOT0_ = comdat any

$_ZNSt5dequeINSt8__detail9_StateSeqINSt7__cxx1112regex_traitsIcEEEESaIS5_EEC2Ev = comdat any

$_ZNSt5stackINSt8__detail9_StateSeqINSt7__cxx1112regex_traitsIcEEEESt5dequeIS5_SaIS5_EEEC2EOS8_ = comdat any

$_ZNSt5dequeINSt8__detail9_StateSeqINSt7__cxx1112regex_traitsIcEEEESaIS5_EED2Ev = comdat any

$_ZNKSt12__shared_ptrINSt8__detail4_NFAINSt7__cxx1112regex_traitsIcEEEELN9__gnu_cxx12_Lock_policyE2EEptEv = comdat any

$_ZNKSt12__shared_ptrINSt8__detail4_NFAINSt7__cxx1112regex_traitsIcEEEELN9__gnu_cxx12_Lock_policyE2EEdeEv = comdat any

$_ZNKSt8__detail9_NFA_base8_M_startEv = comdat any

$_ZNSt8__detail9_StateSeqINSt7__cxx1112regex_traitsIcEEEC2ERNS_4_NFAIS3_EEl = comdat any

$_ZNSt8__detail9_StateSeqINSt7__cxx1112regex_traitsIcEEE9_M_appendEl = comdat any

$_ZNSt8__detail4_NFAINSt7__cxx1112regex_traitsIcEEE23_M_insert_subexpr_beginEv = comdat any

$_ZNSt8__detail9_CompilerINSt7__cxx1112regex_traitsIcEEE14_M_disjunctionEv = comdat any

$_ZNSt8__detail9_CompilerINSt7__cxx1112regex_traitsIcEEE14_M_match_tokenENS_12_ScannerBase7_TokenTE = comdat any

$_ZNSt8__detail9_StateSeqINSt7__cxx1112regex_traitsIcEEE9_M_appendERKS4_ = comdat any

$_ZNSt8__detail9_CompilerINSt7__cxx1112regex_traitsIcEEE6_M_popEv = comdat any

$_ZNSt8__detail4_NFAINSt7__cxx1112regex_traitsIcEEE21_M_insert_subexpr_endEv = comdat any

$_ZNSt8__detail4_NFAINSt7__cxx1112regex_traitsIcEEE16_M_insert_acceptEv = comdat any

$_ZNSt8__detail4_NFAINSt7__cxx1112regex_traitsIcEEE18_M_eliminate_dummyEv = comdat any

$_ZNSt5stackINSt8__detail9_StateSeqINSt7__cxx1112regex_traitsIcEEEESt5dequeIS5_SaIS5_EEED2Ev = comdat any

$_ZNSt10shared_ptrINSt8__detail4_NFAINSt7__cxx1112regex_traitsIcEEEEED2Ev = comdat any

$_ZNSt8__detail8_ScannerIcED2Ev = comdat any

$_ZNSt8__detail12_ScannerBaseC2ENSt15regex_constants18syntax_option_typeE = comdat any

$_ZSt9use_facetIKSt5ctypeIcEERKT_RKSt6locale = comdat any

$_ZNKSt8__detail12_ScannerBase10_M_is_ecmaEv = comdat any

$_ZNSt8__detail8_ScannerIcE18_M_eat_escape_ecmaEv = comdat any

$_ZNSt8__detail8_ScannerIcE19_M_eat_escape_posixEv = comdat any

$_ZNSt8__detail8_ScannerIcE10_M_advanceEv = comdat any

$_ZNSt4pairIcNSt8__detail12_ScannerBase7_TokenTEEC2IcS2_vEEOT_OT0_ = comdat any

$_ZNSt4pairIccEC2IccvEEOT_OT0_ = comdat any

$_ZSt7forwardIcEOT_RNSt16remove_referenceIS0_E4typeE = comdat any

$_ZSt7forwardINSt8__detail12_ScannerBase7_TokenTEEOT_RNSt16remove_referenceIS3_E4typeE = comdat any

$_ZNSt8__detail12_ScannerBase14_M_find_escapeEc = comdat any

$_ZNKSt5ctypeIcE6narrowEcc = comdat any

$_ZNKSt5ctypeIcE2isEtc = comdat any

$_ZNKSt8__detail12_ScannerBase9_M_is_awkEv = comdat any

$_ZNSt8__detail8_ScannerIcE17_M_eat_escape_awkEv = comdat any

$_ZNKSt8__detail12_ScannerBase11_M_is_basicEv = comdat any

$_ZNSt8__detail8_ScannerIcE14_M_scan_normalEv = comdat any

$_ZNSt8__detail8_ScannerIcE18_M_scan_in_bracketEv = comdat any

$_ZNSt8__detail8_ScannerIcE16_M_scan_in_braceEv = comdat any

$_ZNSt8__detail8_ScannerIcE12_M_eat_classEc = comdat any

$_ZSt15allocate_sharedINSt8__detail4_NFAINSt7__cxx1112regex_traitsIcEEEESaIS5_EJRKSt6localeRNSt15regex_constants18syntax_option_typeEEESt10shared_ptrIT_ERKT0_DpOT1_ = comdat any

$_ZNSaINSt8__detail4_NFAINSt7__cxx1112regex_traitsIcEEEEEC2Ev = comdat any

$_ZSt7forwardIRKSt6localeEOT_RNSt16remove_referenceIS3_E4typeE = comdat any

$_ZSt7forwardIRNSt15regex_constants18syntax_option_typeEEOT_RNSt16remove_referenceIS3_E4typeE = comdat any

$_ZNSaINSt8__detail4_NFAINSt7__cxx1112regex_traitsIcEEEEED2Ev = comdat any

$_ZNSt10shared_ptrINSt8__detail4_NFAINSt7__cxx1112regex_traitsIcEEEEEC2ISaIS5_EJRKSt6localeRNSt15regex_constants18syntax_option_typeEEEESt19_Sp_make_shared_tagRKT_DpOT0_ = comdat any

$_ZNSt12__shared_ptrINSt8__detail4_NFAINSt7__cxx1112regex_traitsIcEEEELN9__gnu_cxx12_Lock_policyE2EEC2ISaIS5_EJRKSt6localeRNSt15regex_constants18syntax_option_typeEEEESt19_Sp_make_shared_tagRKT_DpOT0_ = comdat any

$_ZNSt14__shared_countILN9__gnu_cxx12_Lock_policyE2EEC2INSt8__detail4_NFAINSt7__cxx1112regex_traitsIcEEEESaIS9_EJRKSt6localeRNSt15regex_constants18syntax_option_typeEEEESt19_Sp_make_shared_tagPT_RKT0_DpOT1_ = comdat any

$_ZNKSt14__shared_countILN9__gnu_cxx12_Lock_policyE2EE14_M_get_deleterERKSt9type_info = comdat any

$_ZSt32__enable_shared_from_this_helperILN9__gnu_cxx12_Lock_policyE2EEvRKSt14__shared_countIXT_EEz = comdat any

$_ZNSaISt23_Sp_counted_ptr_inplaceINSt8__detail4_NFAINSt7__cxx1112regex_traitsIcEEEESaIS5_ELN9__gnu_cxx12_Lock_policyE2EEEC2IS5_EERKSaIT_E = comdat any

$_ZSt18__allocate_guardedISaISt23_Sp_counted_ptr_inplaceINSt8__detail4_NFAINSt7__cxx1112regex_traitsIcEEEESaIS6_ELN9__gnu_cxx12_Lock_policyE2EEEESt15__allocated_ptrIT_ERSD_ = comdat any

$_ZNSt15__allocated_ptrISaISt23_Sp_counted_ptr_inplaceINSt8__detail4_NFAINSt7__cxx1112regex_traitsIcEEEESaIS6_ELN9__gnu_cxx12_Lock_policyE2EEEE3getEv = comdat any

$_ZSt4moveIRKSaINSt8__detail4_NFAINSt7__cxx1112regex_traitsIcEEEEEEONSt16remove_referenceIT_E4typeEOSA_ = comdat any

$_ZNSaINSt8__detail4_NFAINSt7__cxx1112regex_traitsIcEEEEEC2ERKS5_ = comdat any

$_ZNSt23_Sp_counted_ptr_inplaceINSt8__detail4_NFAINSt7__cxx1112regex_traitsIcEEEESaIS5_ELN9__gnu_cxx12_Lock_policyE2EEC2IJRKSt6localeRNSt15regex_constants18syntax_option_typeEEEES6_DpOT_ = comdat any

$_ZNSt15__allocated_ptrISaISt23_Sp_counted_ptr_inplaceINSt8__detail4_NFAINSt7__cxx1112regex_traitsIcEEEESaIS6_ELN9__gnu_cxx12_Lock_policyE2EEEEaSEDn = comdat any

$_ZNSt15__allocated_ptrISaISt23_Sp_counted_ptr_inplaceINSt8__detail4_NFAINSt7__cxx1112regex_traitsIcEEEESaIS6_ELN9__gnu_cxx12_Lock_policyE2EEEED2Ev = comdat any

$_ZNSaISt23_Sp_counted_ptr_inplaceINSt8__detail4_NFAINSt7__cxx1112regex_traitsIcEEEESaIS5_ELN9__gnu_cxx12_Lock_policyE2EEED2Ev = comdat any

$_ZN9__gnu_cxx13new_allocatorISt23_Sp_counted_ptr_inplaceINSt8__detail4_NFAINSt7__cxx1112regex_traitsIcEEEESaIS7_ELNS_12_Lock_policyE2EEEC2Ev = comdat any

$_ZNSt16allocator_traitsISaISt23_Sp_counted_ptr_inplaceINSt8__detail4_NFAINSt7__cxx1112regex_traitsIcEEEESaIS6_ELN9__gnu_cxx12_Lock_policyE2EEEE8allocateERSB_m = comdat any

$_ZNSt15__allocated_ptrISaISt23_Sp_counted_ptr_inplaceINSt8__detail4_NFAINSt7__cxx1112regex_traitsIcEEEESaIS6_ELN9__gnu_cxx12_Lock_policyE2EEEEC2ERSB_PSA_ = comdat any

$_ZN9__gnu_cxx13new_allocatorISt23_Sp_counted_ptr_inplaceINSt8__detail4_NFAINSt7__cxx1112regex_traitsIcEEEESaIS7_ELNS_12_Lock_policyE2EEE8allocateEmPKv = comdat any

$_ZNK9__gnu_cxx13new_allocatorISt23_Sp_counted_ptr_inplaceINSt8__detail4_NFAINSt7__cxx1112regex_traitsIcEEEESaIS7_ELNS_12_Lock_policyE2EEE8max_sizeEv = comdat any

$_ZNSt15__allocated_ptrISaISt23_Sp_counted_ptr_inplaceINSt8__detail4_NFAINSt7__cxx1112regex_traitsIcEEEESaIS6_ELN9__gnu_cxx12_Lock_policyE2EEEE10_S_raw_ptrEPSA_ = comdat any

$_ZN9__gnu_cxx13new_allocatorINSt8__detail4_NFAINSt7__cxx1112regex_traitsIcEEEEEC2ERKS7_ = comdat any

$_ZNSt16_Sp_counted_baseILN9__gnu_cxx12_Lock_policyE2EEC2Ev = comdat any

$_ZNSt23_Sp_counted_ptr_inplaceINSt8__detail4_NFAINSt7__cxx1112regex_traitsIcEEEESaIS5_ELN9__gnu_cxx12_Lock_policyE2EE5_ImplC2ES6_ = comdat any

$_ZNSt16allocator_traitsISaINSt8__detail4_NFAINSt7__cxx1112regex_traitsIcEEEEEE9constructIS5_JRKSt6localeRNSt15regex_constants18syntax_option_typeEEEEvRS6_PT_DpOT0_ = comdat any

$_ZNSt23_Sp_counted_ptr_inplaceINSt8__detail4_NFAINSt7__cxx1112regex_traitsIcEEEESaIS5_ELN9__gnu_cxx12_Lock_policyE2EE6_M_ptrEv = comdat any

$_ZNSt23_Sp_counted_ptr_inplaceINSt8__detail4_NFAINSt7__cxx1112regex_traitsIcEEEESaIS5_ELN9__gnu_cxx12_Lock_policyE2EE5_ImplD2Ev = comdat any

$_ZNSt23_Sp_counted_ptr_inplaceINSt8__detail4_NFAINSt7__cxx1112regex_traitsIcEEEESaIS5_ELN9__gnu_cxx12_Lock_policyE2EED2Ev = comdat any

$_ZNSt23_Sp_counted_ptr_inplaceINSt8__detail4_NFAINSt7__cxx1112regex_traitsIcEEEESaIS5_ELN9__gnu_cxx12_Lock_policyE2EED0Ev = comdat any

$_ZNSt23_Sp_counted_ptr_inplaceINSt8__detail4_NFAINSt7__cxx1112regex_traitsIcEEEESaIS5_ELN9__gnu_cxx12_Lock_policyE2EE10_M_disposeEv = comdat any

$_ZNSt23_Sp_counted_ptr_inplaceINSt8__detail4_NFAINSt7__cxx1112regex_traitsIcEEEESaIS5_ELN9__gnu_cxx12_Lock_policyE2EE10_M_destroyEv = comdat any

$_ZNSt23_Sp_counted_ptr_inplaceINSt8__detail4_NFAINSt7__cxx1112regex_traitsIcEEEESaIS5_ELN9__gnu_cxx12_Lock_policyE2EE14_M_get_deleterERKSt9type_info = comdat any

$_ZNSt16_Sp_counted_baseILN9__gnu_cxx12_Lock_policyE2EED2Ev = comdat any

$_ZNSt16_Sp_counted_baseILN9__gnu_cxx12_Lock_policyE2EED0Ev = comdat any

$_ZNSt16_Sp_counted_baseILN9__gnu_cxx12_Lock_policyE2EE10_M_destroyEv = comdat any

$_ZNSt14_Sp_ebo_helperILi0ESaINSt8__detail4_NFAINSt7__cxx1112regex_traitsIcEEEEELb1EEC2ERKS6_ = comdat any

$__clang_call_terminate = comdat any

$_ZN9__gnu_cxx13new_allocatorINSt8__detail4_NFAINSt7__cxx1112regex_traitsIcEEEEE9constructIS6_JRKSt6localeRNSt15regex_constants18syntax_option_typeEEEEvPT_DpOT0_ = comdat any

$_ZNSt8__detail4_NFAINSt7__cxx1112regex_traitsIcEEEC2ERKSt6localeNSt15regex_constants18syntax_option_typeE = comdat any

$_ZNSt8__detail9_NFA_baseC2ENSt15regex_constants18syntax_option_typeE = comdat any

$_ZNSt6vectorINSt8__detail6_StateINSt7__cxx1112regex_traitsIcEEEESaIS5_EEC2Ev = comdat any

$_ZNSt7__cxx1112regex_traitsIcEC2Ev = comdat any

$_ZNSt7__cxx1112regex_traitsIcE5imbueESt6locale = comdat any

$_ZNSt7__cxx1112regex_traitsIcED2Ev = comdat any

$_ZNSt6vectorINSt8__detail6_StateINSt7__cxx1112regex_traitsIcEEEESaIS5_EED2Ev = comdat any

$_ZNSt8__detail9_NFA_baseD2Ev = comdat any

$_ZNSt6vectorImSaImEEC2Ev = comdat any

$_ZNSt12_Vector_baseImSaImEEC2Ev = comdat any

$_ZNSt12_Vector_baseImSaImEE12_Vector_implC2Ev = comdat any

$_ZNSaImEC2Ev = comdat any

$_ZN9__gnu_cxx13new_allocatorImEC2Ev = comdat any

$_ZNSt12_Vector_baseINSt8__detail6_StateINSt7__cxx1112regex_traitsIcEEEESaIS5_EEC2Ev = comdat any

$_ZNSt12_Vector_baseINSt8__detail6_StateINSt7__cxx1112regex_traitsIcEEEESaIS5_EE12_Vector_implC2Ev = comdat any

$_ZNSaINSt8__detail6_StateINSt7__cxx1112regex_traitsIcEEEEEC2Ev = comdat any

$_ZN9__gnu_cxx13new_allocatorINSt8__detail6_StateINSt7__cxx1112regex_traitsIcEEEEEC2Ev = comdat any

$_ZSt4swapISt6localeEvRT_S2_ = comdat any

$_ZSt8_DestroyIPNSt8__detail6_StateINSt7__cxx1112regex_traitsIcEEEES5_EvT_S7_RSaIT0_E = comdat any

$_ZNSt12_Vector_baseINSt8__detail6_StateINSt7__cxx1112regex_traitsIcEEEESaIS5_EE19_M_get_Tp_allocatorEv = comdat any

$_ZNSt12_Vector_baseINSt8__detail6_StateINSt7__cxx1112regex_traitsIcEEEESaIS5_EED2Ev = comdat any

$_ZSt8_DestroyIPNSt8__detail6_StateINSt7__cxx1112regex_traitsIcEEEEEvT_S7_ = comdat any

$_ZNSt12_Destroy_auxILb0EE9__destroyIPNSt8__detail6_StateINSt7__cxx1112regex_traitsIcEEEEEEvT_S9_ = comdat any

$_ZSt8_DestroyINSt8__detail6_StateINSt7__cxx1112regex_traitsIcEEEEEvPT_ = comdat any

$_ZSt11__addressofINSt8__detail6_StateINSt7__cxx1112regex_traitsIcEEEEEPT_RS6_ = comdat any

$_ZNSt8__detail6_StateINSt7__cxx1112regex_traitsIcEEED2Ev = comdat any

$_ZNSt8functionIFbcEED2Ev = comdat any

$_ZNSt14_Function_baseD2Ev = comdat any

$_ZNSt12_Vector_baseINSt8__detail6_StateINSt7__cxx1112regex_traitsIcEEEESaIS5_EE13_M_deallocateEPS5_m = comdat any

$_ZNSt12_Vector_baseINSt8__detail6_StateINSt7__cxx1112regex_traitsIcEEEESaIS5_EE12_Vector_implD2Ev = comdat any

$_ZNSt16allocator_traitsISaINSt8__detail6_StateINSt7__cxx1112regex_traitsIcEEEEEE10deallocateERS6_PS5_m = comdat any

$_ZN9__gnu_cxx13new_allocatorINSt8__detail6_StateINSt7__cxx1112regex_traitsIcEEEEE10deallocateEPS6_m = comdat any

$_ZNSaINSt8__detail6_StateINSt7__cxx1112regex_traitsIcEEEEED2Ev = comdat any

$_ZN9__gnu_cxx13new_allocatorINSt8__detail6_StateINSt7__cxx1112regex_traitsIcEEEEED2Ev = comdat any

$_ZNSt6vectorImSaImEED2Ev = comdat any

$_ZSt8_DestroyIPmmEvT_S1_RSaIT0_E = comdat any

$_ZNSt12_Vector_baseImSaImEE19_M_get_Tp_allocatorEv = comdat any

$_ZNSt12_Vector_baseImSaImEED2Ev = comdat any

$_ZSt8_DestroyIPmEvT_S1_ = comdat any

$_ZNSt12_Destroy_auxILb1EE9__destroyIPmEEvT_S3_ = comdat any

$_ZNSt12_Vector_baseImSaImEE13_M_deallocateEPmm = comdat any

$_ZNSt12_Vector_baseImSaImEE12_Vector_implD2Ev = comdat any

$_ZNSt16allocator_traitsISaImEE10deallocateERS0_Pmm = comdat any

$_ZN9__gnu_cxx13new_allocatorImE10deallocateEPmm = comdat any

$_ZNSaImED2Ev = comdat any

$_ZN9__gnu_cxx13new_allocatorImED2Ev = comdat any

$_ZN9__gnu_cxx16__aligned_bufferINSt8__detail4_NFAINSt7__cxx1112regex_traitsIcEEEEE6_M_ptrEv = comdat any

$_ZN9__gnu_cxx16__aligned_bufferINSt8__detail4_NFAINSt7__cxx1112regex_traitsIcEEEEE7_M_addrEv = comdat any

$_ZNSt14_Sp_ebo_helperILi0ESaINSt8__detail4_NFAINSt7__cxx1112regex_traitsIcEEEEELb1EED2Ev = comdat any

$_ZN9__gnu_cxx13new_allocatorINSt8__detail4_NFAINSt7__cxx1112regex_traitsIcEEEEED2Ev = comdat any

$_ZNSt16allocator_traitsISaINSt8__detail4_NFAINSt7__cxx1112regex_traitsIcEEEEEE7destroyIS5_EEvRS6_PT_ = comdat any

$_ZNSt23_Sp_counted_ptr_inplaceINSt8__detail4_NFAINSt7__cxx1112regex_traitsIcEEEESaIS5_ELN9__gnu_cxx12_Lock_policyE2EE5_Impl8_M_allocEv = comdat any

$_ZN9__gnu_cxx13new_allocatorINSt8__detail4_NFAINSt7__cxx1112regex_traitsIcEEEEE7destroyIS6_EEvPT_ = comdat any

$_ZNSt8__detail4_NFAINSt7__cxx1112regex_traitsIcEEED2Ev = comdat any

$_ZNSt14_Sp_ebo_helperILi0ESaINSt8__detail4_NFAINSt7__cxx1112regex_traitsIcEEEEELb1EE6_S_getERS7_ = comdat any

$_ZNKSt9type_infoeqERKS_ = comdat any

$_ZNSt16allocator_traitsISaISt23_Sp_counted_ptr_inplaceINSt8__detail4_NFAINSt7__cxx1112regex_traitsIcEEEESaIS6_ELN9__gnu_cxx12_Lock_policyE2EEEE10deallocateERSB_PSA_m = comdat any

$_ZN9__gnu_cxx13new_allocatorISt23_Sp_counted_ptr_inplaceINSt8__detail4_NFAINSt7__cxx1112regex_traitsIcEEEESaIS7_ELNS_12_Lock_policyE2EEE10deallocateEPSA_m = comdat any

$_ZN9__gnu_cxx13new_allocatorISt23_Sp_counted_ptr_inplaceINSt8__detail4_NFAINSt7__cxx1112regex_traitsIcEEEESaIS7_ELNS_12_Lock_policyE2EEED2Ev = comdat any

$_ZN9__gnu_cxx13new_allocatorINSt8__detail4_NFAINSt7__cxx1112regex_traitsIcEEEEEC2Ev = comdat any

$_ZNSt11_Deque_baseINSt8__detail9_StateSeqINSt7__cxx1112regex_traitsIcEEEESaIS5_EEC2Ev = comdat any

$_ZNSt11_Deque_baseINSt8__detail9_StateSeqINSt7__cxx1112regex_traitsIcEEEESaIS5_EE11_Deque_implC2Ev = comdat any

$_ZNSt11_Deque_baseINSt8__detail9_StateSeqINSt7__cxx1112regex_traitsIcEEEESaIS5_EE17_M_initialize_mapEm = comdat any

$_ZNSt11_Deque_baseINSt8__detail9_StateSeqINSt7__cxx1112regex_traitsIcEEEESaIS5_EE11_Deque_implD2Ev = comdat any

$_ZNSaINSt8__detail9_StateSeqINSt7__cxx1112regex_traitsIcEEEEEC2Ev = comdat any

$_ZNSt15_Deque_iteratorINSt8__detail9_StateSeqINSt7__cxx1112regex_traitsIcEEEERS5_PS5_EC2Ev = comdat any

$_ZN9__gnu_cxx13new_allocatorINSt8__detail9_StateSeqINSt7__cxx1112regex_traitsIcEEEEEC2Ev = comdat any

$_ZSt16__deque_buf_sizem = comdat any

$_ZSt3maxImERKT_S2_S2_ = comdat any

$_ZNSt11_Deque_baseINSt8__detail9_StateSeqINSt7__cxx1112regex_traitsIcEEEESaIS5_EE15_M_allocate_mapEm = comdat any

$_ZNSt11_Deque_baseINSt8__detail9_StateSeqINSt7__cxx1112regex_traitsIcEEEESaIS5_EE15_M_create_nodesEPPS5_S9_ = comdat any

$_ZNSt11_Deque_baseINSt8__detail9_StateSeqINSt7__cxx1112regex_traitsIcEEEESaIS5_EE17_M_deallocate_mapEPPS5_m = comdat any

$_ZNSt15_Deque_iteratorINSt8__detail9_StateSeqINSt7__cxx1112regex_traitsIcEEEERS5_PS5_E11_M_set_nodeEPS7_ = comdat any

$_ZNKSt11_Deque_baseINSt8__detail9_StateSeqINSt7__cxx1112regex_traitsIcEEEESaIS5_EE20_M_get_map_allocatorEv = comdat any

$_ZNSt16allocator_traitsISaIPNSt8__detail9_StateSeqINSt7__cxx1112regex_traitsIcEEEEEE8allocateERS7_m = comdat any

$_ZNSaIPNSt8__detail9_StateSeqINSt7__cxx1112regex_traitsIcEEEEED2Ev = comdat any

$_ZNKSt11_Deque_baseINSt8__detail9_StateSeqINSt7__cxx1112regex_traitsIcEEEESaIS5_EE19_M_get_Tp_allocatorEv = comdat any

$_ZNSaIPNSt8__detail9_StateSeqINSt7__cxx1112regex_traitsIcEEEEEC2IS4_EERKSaIT_E = comdat any

$_ZN9__gnu_cxx13new_allocatorIPNSt8__detail9_StateSeqINSt7__cxx1112regex_traitsIcEEEEEC2Ev = comdat any

$_ZN9__gnu_cxx13new_allocatorIPNSt8__detail9_StateSeqINSt7__cxx1112regex_traitsIcEEEEE8allocateEmPKv = comdat any

$_ZNK9__gnu_cxx13new_allocatorIPNSt8__detail9_StateSeqINSt7__cxx1112regex_traitsIcEEEEE8max_sizeEv = comdat any

$_ZN9__gnu_cxx13new_allocatorIPNSt8__detail9_StateSeqINSt7__cxx1112regex_traitsIcEEEEED2Ev = comdat any

$_ZNSt11_Deque_baseINSt8__detail9_StateSeqINSt7__cxx1112regex_traitsIcEEEESaIS5_EE16_M_allocate_nodeEv = comdat any

$_ZNSt11_Deque_baseINSt8__detail9_StateSeqINSt7__cxx1112regex_traitsIcEEEESaIS5_EE16_M_destroy_nodesEPPS5_S9_ = comdat any

$_ZNSt16allocator_traitsISaINSt8__detail9_StateSeqINSt7__cxx1112regex_traitsIcEEEEEE8allocateERS6_m = comdat any

$_ZN9__gnu_cxx13new_allocatorINSt8__detail9_StateSeqINSt7__cxx1112regex_traitsIcEEEEE8allocateEmPKv = comdat any

$_ZNK9__gnu_cxx13new_allocatorINSt8__detail9_StateSeqINSt7__cxx1112regex_traitsIcEEEEE8max_sizeEv = comdat any

$_ZNSt11_Deque_baseINSt8__detail9_StateSeqINSt7__cxx1112regex_traitsIcEEEESaIS5_EE18_M_deallocate_nodeEPS5_ = comdat any

$_ZNSt16allocator_traitsISaINSt8__detail9_StateSeqINSt7__cxx1112regex_traitsIcEEEEEE10deallocateERS6_PS5_m = comdat any

$_ZN9__gnu_cxx13new_allocatorINSt8__detail9_StateSeqINSt7__cxx1112regex_traitsIcEEEEE10deallocateEPS6_m = comdat any

$_ZNSt16allocator_traitsISaIPNSt8__detail9_StateSeqINSt7__cxx1112regex_traitsIcEEEEEE10deallocateERS7_PS6_m = comdat any

$_ZN9__gnu_cxx13new_allocatorIPNSt8__detail9_StateSeqINSt7__cxx1112regex_traitsIcEEEEE10deallocateEPS7_m = comdat any

$_ZNSt15_Deque_iteratorINSt8__detail9_StateSeqINSt7__cxx1112regex_traitsIcEEEERS5_PS5_E14_S_buffer_sizeEv = comdat any

$_ZNSaINSt8__detail9_StateSeqINSt7__cxx1112regex_traitsIcEEEEED2Ev = comdat any

$_ZN9__gnu_cxx13new_allocatorINSt8__detail9_StateSeqINSt7__cxx1112regex_traitsIcEEEEED2Ev = comdat any

$_ZSt4moveIRSt5dequeINSt8__detail9_StateSeqINSt7__cxx1112regex_traitsIcEEEESaIS6_EEEONSt16remove_referenceIT_E4typeEOSB_ = comdat any

$_ZNSt5dequeINSt8__detail9_StateSeqINSt7__cxx1112regex_traitsIcEEEESaIS5_EEC2EOS7_ = comdat any

$_ZNSt11_Deque_baseINSt8__detail9_StateSeqINSt7__cxx1112regex_traitsIcEEEESaIS5_EEC2EOS7_ = comdat any

$_ZSt4moveIRSt11_Deque_baseINSt8__detail9_StateSeqINSt7__cxx1112regex_traitsIcEEEESaIS6_EEEONSt16remove_referenceIT_E4typeEOSB_ = comdat any

$_ZNSt11_Deque_baseINSt8__detail9_StateSeqINSt7__cxx1112regex_traitsIcEEEESaIS5_EEC2EOS7_St17integral_constantIbLb1EE = comdat any

$_ZSt4moveIRSaINSt8__detail9_StateSeqINSt7__cxx1112regex_traitsIcEEEEEEONSt16remove_referenceIT_E4typeEOS9_ = comdat any

$_ZNSt11_Deque_baseINSt8__detail9_StateSeqINSt7__cxx1112regex_traitsIcEEEESaIS5_EE19_M_get_Tp_allocatorEv = comdat any

$_ZNSt11_Deque_baseINSt8__detail9_StateSeqINSt7__cxx1112regex_traitsIcEEEESaIS5_EE11_Deque_implC2EOS6_ = comdat any

$_ZNSt11_Deque_baseINSt8__detail9_StateSeqINSt7__cxx1112regex_traitsIcEEEESaIS5_EE11_Deque_impl12_M_swap_dataERS8_ = comdat any

$_ZNSaINSt8__detail9_StateSeqINSt7__cxx1112regex_traitsIcEEEEEC2ERKS5_ = comdat any

$_ZN9__gnu_cxx13new_allocatorINSt8__detail9_StateSeqINSt7__cxx1112regex_traitsIcEEEEEC2ERKS7_ = comdat any

$_ZSt4swapISt15_Deque_iteratorINSt8__detail9_StateSeqINSt7__cxx1112regex_traitsIcEEEERS6_PS6_EEvRT_SB_ = comdat any

$_ZSt4swapIPPNSt8__detail9_StateSeqINSt7__cxx1112regex_traitsIcEEEEEvRT_S9_ = comdat any

$_ZSt4swapImEvRT_S1_ = comdat any

$_ZSt4moveIRSt15_Deque_iteratorINSt8__detail9_StateSeqINSt7__cxx1112regex_traitsIcEEEERS6_PS6_EEONSt16remove_referenceIT_E4typeEOSC_ = comdat any

$_ZNSt15_Deque_iteratorINSt8__detail9_StateSeqINSt7__cxx1112regex_traitsIcEEEERS5_PS5_EC2ERKS8_ = comdat any

$_ZSt4moveIRPPNSt8__detail9_StateSeqINSt7__cxx1112regex_traitsIcEEEEEONSt16remove_referenceIT_E4typeEOSA_ = comdat any

$_ZSt4moveIRmEONSt16remove_referenceIT_E4typeEOS2_ = comdat any

$_ZNSt5dequeINSt8__detail9_StateSeqINSt7__cxx1112regex_traitsIcEEEESaIS5_EE15_M_destroy_dataESt15_Deque_iteratorIS5_RS5_PS5_ESB_RKS6_ = comdat any

$_ZNSt5dequeINSt8__detail9_StateSeqINSt7__cxx1112regex_traitsIcEEEESaIS5_EE5beginEv = comdat any

$_ZNSt5dequeINSt8__detail9_StateSeqINSt7__cxx1112regex_traitsIcEEEESaIS5_EE3endEv = comdat any

$_ZNSt11_Deque_baseINSt8__detail9_StateSeqINSt7__cxx1112regex_traitsIcEEEESaIS5_EED2Ev = comdat any

$_ZNSt6vectorINSt8__detail6_StateINSt7__cxx1112regex_traitsIcEEEESaIS5_EEixEm = comdat any

$_ZNSt6vectorImSaImEE9push_backERKm = comdat any

$_ZNSt8__detail6_StateINSt7__cxx1112regex_traitsIcEEEC2ENS_7_OpcodeE = comdat any

$_ZNSt8__detail4_NFAINSt7__cxx1112regex_traitsIcEEE15_M_insert_stateENS_6_StateIS3_EE = comdat any

$_ZSt4moveIRNSt8__detail6_StateINSt7__cxx1112regex_traitsIcEEEEEONSt16remove_referenceIT_E4typeEOS8_ = comdat any

$_ZNSt8__detail6_StateINSt7__cxx1112regex_traitsIcEEEC2EOS4_ = comdat any

$_ZNSt16allocator_traitsISaImEE9constructImJRKmEEEvRS0_PT_DpOT0_ = comdat any

$_ZNSt6vectorImSaImEE19_M_emplace_back_auxIJRKmEEEvDpOT_ = comdat any

$_ZN9__gnu_cxx13new_allocatorImE9constructImJRKmEEEvPT_DpOT0_ = comdat any

$_ZSt7forwardIRKmEOT_RNSt16remove_referenceIS2_E4typeE = comdat any

$_ZNKSt6vectorImSaImEE12_M_check_lenEmPKc = comdat any

$_ZNSt12_Vector_baseImSaImEE11_M_allocateEm = comdat any

$_ZNKSt6vectorImSaImEE4sizeEv = comdat any

$_ZSt34__uninitialized_move_if_noexcept_aIPmS0_SaImEET0_T_S3_S2_RT1_ = comdat any

$_ZNSt16allocator_traitsISaImEE7destroyImEEvRS0_PT_ = comdat any

$_ZNKSt6vectorImSaImEE8max_sizeEv = comdat any

$_ZNSt16allocator_traitsISaImEE8max_sizeERKS0_ = comdat any

$_ZNKSt12_Vector_baseImSaImEE19_M_get_Tp_allocatorEv = comdat any

$_ZNK9__gnu_cxx13new_allocatorImE8max_sizeEv = comdat any

$_ZNSt16allocator_traitsISaImEE8allocateERS0_m = comdat any

$_ZN9__gnu_cxx13new_allocatorImE8allocateEmPKv = comdat any

$_ZSt22__uninitialized_copy_aISt13move_iteratorIPmES1_mET0_T_S4_S3_RSaIT1_E = comdat any

$_ZSt32__make_move_if_noexcept_iteratorIPmSt13move_iteratorIS0_EET0_T_ = comdat any

$_ZSt18uninitialized_copyISt13move_iteratorIPmES1_ET0_T_S4_S3_ = comdat any

$_ZNSt20__uninitialized_copyILb1EE13__uninit_copyISt13move_iteratorIPmES3_EET0_T_S6_S5_ = comdat any

$_ZSt4copyISt13move_iteratorIPmES1_ET0_T_S4_S3_ = comdat any

$_ZSt14__copy_move_a2ILb1EPmS0_ET1_T0_S2_S1_ = comdat any

$_ZSt12__miter_baseISt13move_iteratorIPmEENSt11_Miter_baseIT_E13iterator_typeES4_ = comdat any

$_ZSt13__copy_move_aILb1EPmS0_ET1_T0_S2_S1_ = comdat any

$_ZSt12__niter_baseIPmENSt11_Niter_baseIT_E13iterator_typeES2_ = comdat any

$_ZNSt11__copy_moveILb1ELb1ESt26random_access_iterator_tagE8__copy_mImEEPT_PKS3_S6_S4_ = comdat any

$_ZNSt10_Iter_baseIPmLb0EE7_S_baseES0_ = comdat any

$_ZNSt10_Iter_baseISt13move_iteratorIPmELb1EE7_S_baseES2_ = comdat any

$_ZNKSt13move_iteratorIPmE4baseEv = comdat any

$_ZNSt13move_iteratorIPmEC2ES0_ = comdat any

$_ZN9__gnu_cxx13new_allocatorImE7destroyImEEvPT_ = comdat any

$_ZNSt8__detail11_State_baseC2ENS_7_OpcodeE = comdat any

$_ZNSt8functionIFbcEEC2Ev = comdat any

$_ZNSt14_Function_baseC2Ev = comdat any

$_ZNSt6vectorINSt8__detail6_StateINSt7__cxx1112regex_traitsIcEEEESaIS5_EE9push_backEOS5_ = comdat any

$_ZNKSt6vectorINSt8__detail6_StateINSt7__cxx1112regex_traitsIcEEEESaIS5_EE4sizeEv = comdat any

$_ZNSt6vectorINSt8__detail6_StateINSt7__cxx1112regex_traitsIcEEEESaIS5_EE12emplace_backIJS5_EEEvDpOT_ = comdat any

$_ZNSt16allocator_traitsISaINSt8__detail6_StateINSt7__cxx1112regex_traitsIcEEEEEE9constructIS5_JS5_EEEvRS6_PT_DpOT0_ = comdat any

$_ZSt7forwardINSt8__detail6_StateINSt7__cxx1112regex_traitsIcEEEEEOT_RNSt16remove_referenceIS6_E4typeE = comdat any

$_ZNSt6vectorINSt8__detail6_StateINSt7__cxx1112regex_traitsIcEEEESaIS5_EE19_M_emplace_back_auxIJS5_EEEvDpOT_ = comdat any

$_ZN9__gnu_cxx13new_allocatorINSt8__detail6_StateINSt7__cxx1112regex_traitsIcEEEEE9constructIS6_JS6_EEEvPT_DpOT0_ = comdat any

$_ZNKSt6vectorINSt8__detail6_StateINSt7__cxx1112regex_traitsIcEEEESaIS5_EE12_M_check_lenEmPKc = comdat any

$_ZNSt12_Vector_baseINSt8__detail6_StateINSt7__cxx1112regex_traitsIcEEEESaIS5_EE11_M_allocateEm = comdat any

$_ZSt34__uninitialized_move_if_noexcept_aIPNSt8__detail6_StateINSt7__cxx1112regex_traitsIcEEEES6_SaIS5_EET0_T_S9_S8_RT1_ = comdat any

$_ZNSt16allocator_traitsISaINSt8__detail6_StateINSt7__cxx1112regex_traitsIcEEEEEE7destroyIS5_EEvRS6_PT_ = comdat any

$_ZNKSt6vectorINSt8__detail6_StateINSt7__cxx1112regex_traitsIcEEEESaIS5_EE8max_sizeEv = comdat any

$_ZNSt16allocator_traitsISaINSt8__detail6_StateINSt7__cxx1112regex_traitsIcEEEEEE8max_sizeERKS6_ = comdat any

$_ZNKSt12_Vector_baseINSt8__detail6_StateINSt7__cxx1112regex_traitsIcEEEESaIS5_EE19_M_get_Tp_allocatorEv = comdat any

$_ZNK9__gnu_cxx13new_allocatorINSt8__detail6_StateINSt7__cxx1112regex_traitsIcEEEEE8max_sizeEv = comdat any

$_ZNSt16allocator_traitsISaINSt8__detail6_StateINSt7__cxx1112regex_traitsIcEEEEEE8allocateERS6_m = comdat any

$_ZN9__gnu_cxx13new_allocatorINSt8__detail6_StateINSt7__cxx1112regex_traitsIcEEEEE8allocateEmPKv = comdat any

$_ZSt22__uninitialized_copy_aIPNSt8__detail6_StateINSt7__cxx1112regex_traitsIcEEEES6_S5_ET0_T_S8_S7_RSaIT1_E = comdat any

$_ZSt32__make_move_if_noexcept_iteratorIPNSt8__detail6_StateINSt7__cxx1112regex_traitsIcEEEES6_ET0_T_ = comdat any

$_ZSt18uninitialized_copyIPNSt8__detail6_StateINSt7__cxx1112regex_traitsIcEEEES6_ET0_T_S8_S7_ = comdat any

$_ZNSt20__uninitialized_copyILb0EE13__uninit_copyIPNSt8__detail6_StateINSt7__cxx1112regex_traitsIcEEEES8_EET0_T_SA_S9_ = comdat any

$_ZSt10_ConstructINSt8__detail6_StateINSt7__cxx1112regex_traitsIcEEEEJRS5_EEvPT_DpOT0_ = comdat any

$_ZSt7forwardIRNSt8__detail6_StateINSt7__cxx1112regex_traitsIcEEEEEOT_RNSt16remove_referenceIS7_E4typeE = comdat any

$_ZNSt8__detail6_StateINSt7__cxx1112regex_traitsIcEEEC2ERKS4_ = comdat any

$_ZNSt8functionIFbcEEC2ERKS1_ = comdat any

$_ZNKSt8functionIFbcEEcvbEv = comdat any

$_ZNKSt14_Function_base8_M_emptyEv = comdat any

$_ZN9__gnu_cxx13new_allocatorINSt8__detail6_StateINSt7__cxx1112regex_traitsIcEEEEE7destroyIS6_EEvPT_ = comdat any

$_ZNSt8functionIFbcEEC2EOS1_ = comdat any

$_ZNSt8functionIFbcEE4swapERS1_ = comdat any

$_ZSt4swapISt9_Any_dataEvRT_S2_ = comdat any

$_ZSt4swapIPFbRSt9_Any_dataRKS0_St18_Manager_operationEEvRT_S8_ = comdat any

$_ZSt4swapIPFbRKSt9_Any_dataOcEEvRT_S7_ = comdat any

$_ZSt4moveIRSt9_Any_dataEONSt16remove_referenceIT_E4typeEOS3_ = comdat any

$_ZSt4moveIRPFbRSt9_Any_dataRKS0_St18_Manager_operationEEONSt16remove_referenceIT_E4typeEOS9_ = comdat any

$_ZSt4moveIRPFbRKSt9_Any_dataOcEEONSt16remove_referenceIT_E4typeEOS8_ = comdat any

$_ZNSt8__detail9_CompilerINSt7__cxx1112regex_traitsIcEEE14_M_alternativeEv = comdat any

$_ZNSt8__detail4_NFAINSt7__cxx1112regex_traitsIcEEE15_M_insert_dummyEv = comdat any

$_ZNSt5stackINSt8__detail9_StateSeqINSt7__cxx1112regex_traitsIcEEEESt5dequeIS5_SaIS5_EEE4pushEOS5_ = comdat any

$_ZNSt8__detail4_NFAINSt7__cxx1112regex_traitsIcEEE13_M_insert_altEllb = comdat any

$_ZNSt8__detail9_StateSeqINSt7__cxx1112regex_traitsIcEEEC2ERNS_4_NFAIS3_EEll = comdat any

$_ZNSt8__detail9_CompilerINSt7__cxx1112regex_traitsIcEEE7_M_termEv = comdat any

$_ZNSt5stackINSt8__detail9_StateSeqINSt7__cxx1112regex_traitsIcEEEESt5dequeIS5_SaIS5_EEE4pushERKS5_ = comdat any

$_ZNSt8__detail9_CompilerINSt7__cxx1112regex_traitsIcEEE12_M_assertionEv = comdat any

$_ZNSt8__detail9_CompilerINSt7__cxx1112regex_traitsIcEEE7_M_atomEv = comdat any

$_ZNSt8__detail9_CompilerINSt7__cxx1112regex_traitsIcEEE13_M_quantifierEv = comdat any

$_ZNSt8__detail4_NFAINSt7__cxx1112regex_traitsIcEEE20_M_insert_line_beginEv = comdat any

$_ZNSt8__detail4_NFAINSt7__cxx1112regex_traitsIcEEE18_M_insert_line_endEv = comdat any

$_ZNSt8__detail4_NFAINSt7__cxx1112regex_traitsIcEEE20_M_insert_word_boundEb = comdat any

$_ZNSt8__detail4_NFAINSt7__cxx1112regex_traitsIcEEE19_M_insert_lookaheadElb = comdat any

$_ZNSt8__detail9_CompilerINSt7__cxx1112regex_traitsIcEEE27_M_insert_any_matcher_posixILb0ELb0EEEvv = comdat any

$_ZNSt8__detail9_CompilerINSt7__cxx1112regex_traitsIcEEE27_M_insert_any_matcher_posixILb0ELb1EEEvv = comdat any

$_ZNSt8__detail9_CompilerINSt7__cxx1112regex_traitsIcEEE27_M_insert_any_matcher_posixILb1ELb0EEEvv = comdat any

$_ZNSt8__detail9_CompilerINSt7__cxx1112regex_traitsIcEEE27_M_insert_any_matcher_posixILb1ELb1EEEvv = comdat any

$_ZNSt8__detail9_CompilerINSt7__cxx1112regex_traitsIcEEE26_M_insert_any_matcher_ecmaILb0ELb0EEEvv = comdat any

$_ZNSt8__detail9_CompilerINSt7__cxx1112regex_traitsIcEEE26_M_insert_any_matcher_ecmaILb0ELb1EEEvv = comdat any

$_ZNSt8__detail9_CompilerINSt7__cxx1112regex_traitsIcEEE26_M_insert_any_matcher_ecmaILb1ELb0EEEvv = comdat any

$_ZNSt8__detail9_CompilerINSt7__cxx1112regex_traitsIcEEE26_M_insert_any_matcher_ecmaILb1ELb1EEEvv = comdat any

$_ZNSt8__detail9_CompilerINSt7__cxx1112regex_traitsIcEEE11_M_try_charEv = comdat any

$_ZNSt8__detail9_CompilerINSt7__cxx1112regex_traitsIcEEE22_M_insert_char_matcherILb0ELb0EEEvv = comdat any

$_ZNSt8__detail9_CompilerINSt7__cxx1112regex_traitsIcEEE22_M_insert_char_matcherILb0ELb1EEEvv = comdat any

$_ZNSt8__detail9_CompilerINSt7__cxx1112regex_traitsIcEEE22_M_insert_char_matcherILb1ELb0EEEvv = comdat any

$_ZNSt8__detail9_CompilerINSt7__cxx1112regex_traitsIcEEE22_M_insert_char_matcherILb1ELb1EEEvv = comdat any

$_ZNSt8__detail4_NFAINSt7__cxx1112regex_traitsIcEEE17_M_insert_backrefEm = comdat any

$_ZNSt8__detail9_CompilerINSt7__cxx1112regex_traitsIcEEE16_M_cur_int_valueEi = comdat any

$_ZNSt8__detail9_CompilerINSt7__cxx1112regex_traitsIcEEE33_M_insert_character_class_matcherILb0ELb0EEEvv = comdat any

$_ZNSt8__detail9_CompilerINSt7__cxx1112regex_traitsIcEEE33_M_insert_character_class_matcherILb0ELb1EEEvv = comdat any

$_ZNSt8__detail9_CompilerINSt7__cxx1112regex_traitsIcEEE33_M_insert_character_class_matcherILb1ELb0EEEvv = comdat any

$_ZNSt8__detail9_CompilerINSt7__cxx1112regex_traitsIcEEE33_M_insert_character_class_matcherILb1ELb1EEEvv = comdat any

$_ZNSt8__detail9_CompilerINSt7__cxx1112regex_traitsIcEEE21_M_bracket_expressionEv = comdat any

$_ZNSt8__detail4_NFAINSt7__cxx1112regex_traitsIcEEE17_M_insert_matcherESt8functionIFbcEE = comdat any

$_ZNSt8__detail11_AnyMatcherINSt7__cxx1112regex_traitsIcEELb0ELb0ELb0EEC2ERKS3_ = comdat any

$_ZNSt8functionIFbcEEC2INSt8__detail11_AnyMatcherINSt7__cxx1112regex_traitsIcEELb0ELb0ELb0EEEvvEET_ = comdat any

$_ZSt4moveIRSt8functionIFbcEEEONSt16remove_referenceIT_E4typeEOS5_ = comdat any

$_ZNSt8functionIFbcEEaSEOS1_ = comdat any

$_ZNSt8__detail16_RegexTranslatorINSt7__cxx1112regex_traitsIcEELb0ELb0EEC2ERKS3_ = comdat any

$_ZNSt14_Function_base13_Base_managerINSt8__detail11_AnyMatcherINSt7__cxx1112regex_traitsIcEELb0ELb0ELb0EEEE21_M_not_empty_functionIS6_EEbRKT_ = comdat any

$_ZNSt14_Function_base13_Base_managerINSt8__detail11_AnyMatcherINSt7__cxx1112regex_traitsIcEELb0ELb0ELb0EEEE15_M_init_functorERSt9_Any_dataOS6_ = comdat any

$_ZSt4moveIRNSt8__detail11_AnyMatcherINSt7__cxx1112regex_traitsIcEELb0ELb0ELb0EEEEONSt16remove_referenceIT_E4typeEOS8_ = comdat any

$_ZNSt17_Function_handlerIFbcENSt8__detail11_AnyMatcherINSt7__cxx1112regex_traitsIcEELb0ELb0ELb0EEEE9_M_invokeERKSt9_Any_dataOc = comdat any

$_ZNSt14_Function_base13_Base_managerINSt8__detail11_AnyMatcherINSt7__cxx1112regex_traitsIcEELb0ELb0ELb0EEEE10_M_managerERSt9_Any_dataRKS8_St18_Manager_operation = comdat any

$_ZNSt14_Function_base13_Base_managerINSt8__detail11_AnyMatcherINSt7__cxx1112regex_traitsIcEELb0ELb0ELb0EEEE15_M_init_functorERSt9_Any_dataOS6_St17integral_constantIbLb1EE = comdat any

$_ZNSt9_Any_data9_M_accessEv = comdat any

$_ZNSt14_Function_base13_Base_managerINSt8__detail11_AnyMatcherINSt7__cxx1112regex_traitsIcEELb0ELb0ELb0EEEE14_M_get_pointerERKSt9_Any_data = comdat any

$_ZNKSt8__detail11_AnyMatcherINSt7__cxx1112regex_traitsIcEELb0ELb0ELb0EEclEc = comdat any

$_ZSt11__addressofIKNSt8__detail11_AnyMatcherINSt7__cxx1112regex_traitsIcEELb0ELb0ELb0EEEEPT_RS7_ = comdat any

$_ZNKSt9_Any_data9_M_accessINSt8__detail11_AnyMatcherINSt7__cxx1112regex_traitsIcEELb0ELb0ELb0EEEEERKT_v = comdat any

$_ZNKSt9_Any_data9_M_accessEv = comdat any

$_ZNKSt8__detail16_RegexTranslatorINSt7__cxx1112regex_traitsIcEELb0ELb0EE12_M_translateEc = comdat any

$_ZNSt9_Any_data9_M_accessIPKSt9type_infoEERT_v = comdat any

$_ZNSt9_Any_data9_M_accessIPNSt8__detail11_AnyMatcherINSt7__cxx1112regex_traitsIcEELb0ELb0ELb0EEEEERT_v = comdat any

$_ZNSt14_Function_base13_Base_managerINSt8__detail11_AnyMatcherINSt7__cxx1112regex_traitsIcEELb0ELb0ELb0EEEE8_M_cloneERSt9_Any_dataRKS8_St17integral_constantIbLb1EE = comdat any

$_ZNSt14_Function_base13_Base_managerINSt8__detail11_AnyMatcherINSt7__cxx1112regex_traitsIcEELb0ELb0ELb0EEEE10_M_destroyERSt9_Any_dataSt17integral_constantIbLb1EE = comdat any

$_ZNSt9_Any_data9_M_accessINSt8__detail11_AnyMatcherINSt7__cxx1112regex_traitsIcEELb0ELb0ELb0EEEEERT_v = comdat any

$_ZNSt8__detail11_AnyMatcherINSt7__cxx1112regex_traitsIcEELb0ELb0ELb1EEC2ERKS3_ = comdat any

$_ZNSt8functionIFbcEEC2INSt8__detail11_AnyMatcherINSt7__cxx1112regex_traitsIcEELb0ELb0ELb1EEEvvEET_ = comdat any

$_ZNSt8__detail16_RegexTranslatorINSt7__cxx1112regex_traitsIcEELb0ELb1EEC2ERKS3_ = comdat any

$_ZNSt14_Function_base13_Base_managerINSt8__detail11_AnyMatcherINSt7__cxx1112regex_traitsIcEELb0ELb0ELb1EEEE21_M_not_empty_functionIS6_EEbRKT_ = comdat any

$_ZNSt14_Function_base13_Base_managerINSt8__detail11_AnyMatcherINSt7__cxx1112regex_traitsIcEELb0ELb0ELb1EEEE15_M_init_functorERSt9_Any_dataOS6_ = comdat any

$_ZSt4moveIRNSt8__detail11_AnyMatcherINSt7__cxx1112regex_traitsIcEELb0ELb0ELb1EEEEONSt16remove_referenceIT_E4typeEOS8_ = comdat any

$_ZNSt17_Function_handlerIFbcENSt8__detail11_AnyMatcherINSt7__cxx1112regex_traitsIcEELb0ELb0ELb1EEEE9_M_invokeERKSt9_Any_dataOc = comdat any

$_ZNSt14_Function_base13_Base_managerINSt8__detail11_AnyMatcherINSt7__cxx1112regex_traitsIcEELb0ELb0ELb1EEEE10_M_managerERSt9_Any_dataRKS8_St18_Manager_operation = comdat any

$_ZNSt14_Function_base13_Base_managerINSt8__detail11_AnyMatcherINSt7__cxx1112regex_traitsIcEELb0ELb0ELb1EEEE15_M_init_functorERSt9_Any_dataOS6_St17integral_constantIbLb1EE = comdat any

$_ZNSt14_Function_base13_Base_managerINSt8__detail11_AnyMatcherINSt7__cxx1112regex_traitsIcEELb0ELb0ELb1EEEE14_M_get_pointerERKSt9_Any_data = comdat any

$_ZNKSt8__detail11_AnyMatcherINSt7__cxx1112regex_traitsIcEELb0ELb0ELb1EEclEc = comdat any

$_ZSt11__addressofIKNSt8__detail11_AnyMatcherINSt7__cxx1112regex_traitsIcEELb0ELb0ELb1EEEEPT_RS7_ = comdat any

$_ZNKSt9_Any_data9_M_accessINSt8__detail11_AnyMatcherINSt7__cxx1112regex_traitsIcEELb0ELb0ELb1EEEEERKT_v = comdat any

$_ZNKSt8__detail16_RegexTranslatorINSt7__cxx1112regex_traitsIcEELb0ELb1EE12_M_translateEc = comdat any

$_ZNKSt7__cxx1112regex_traitsIcE9translateEc = comdat any

$_ZNSt9_Any_data9_M_accessIPNSt8__detail11_AnyMatcherINSt7__cxx1112regex_traitsIcEELb0ELb0ELb1EEEEERT_v = comdat any

$_ZNSt14_Function_base13_Base_managerINSt8__detail11_AnyMatcherINSt7__cxx1112regex_traitsIcEELb0ELb0ELb1EEEE8_M_cloneERSt9_Any_dataRKS8_St17integral_constantIbLb1EE = comdat any

$_ZNSt14_Function_base13_Base_managerINSt8__detail11_AnyMatcherINSt7__cxx1112regex_traitsIcEELb0ELb0ELb1EEEE10_M_destroyERSt9_Any_dataSt17integral_constantIbLb1EE = comdat any

$_ZNSt9_Any_data9_M_accessINSt8__detail11_AnyMatcherINSt7__cxx1112regex_traitsIcEELb0ELb0ELb1EEEEERT_v = comdat any

$_ZNSt8__detail11_AnyMatcherINSt7__cxx1112regex_traitsIcEELb0ELb1ELb0EEC2ERKS3_ = comdat any

$_ZNSt8functionIFbcEEC2INSt8__detail11_AnyMatcherINSt7__cxx1112regex_traitsIcEELb0ELb1ELb0EEEvvEET_ = comdat any

$_ZNSt8__detail16_RegexTranslatorINSt7__cxx1112regex_traitsIcEELb1ELb0EEC2ERKS3_ = comdat any

$_ZNSt14_Function_base13_Base_managerINSt8__detail11_AnyMatcherINSt7__cxx1112regex_traitsIcEELb0ELb1ELb0EEEE21_M_not_empty_functionIS6_EEbRKT_ = comdat any

$_ZNSt14_Function_base13_Base_managerINSt8__detail11_AnyMatcherINSt7__cxx1112regex_traitsIcEELb0ELb1ELb0EEEE15_M_init_functorERSt9_Any_dataOS6_ = comdat any

$_ZSt4moveIRNSt8__detail11_AnyMatcherINSt7__cxx1112regex_traitsIcEELb0ELb1ELb0EEEEONSt16remove_referenceIT_E4typeEOS8_ = comdat any

$_ZNSt17_Function_handlerIFbcENSt8__detail11_AnyMatcherINSt7__cxx1112regex_traitsIcEELb0ELb1ELb0EEEE9_M_invokeERKSt9_Any_dataOc = comdat any

$_ZNSt14_Function_base13_Base_managerINSt8__detail11_AnyMatcherINSt7__cxx1112regex_traitsIcEELb0ELb1ELb0EEEE10_M_managerERSt9_Any_dataRKS8_St18_Manager_operation = comdat any

$_ZNSt14_Function_base13_Base_managerINSt8__detail11_AnyMatcherINSt7__cxx1112regex_traitsIcEELb0ELb1ELb0EEEE15_M_init_functorERSt9_Any_dataOS6_St17integral_constantIbLb1EE = comdat any

$_ZNSt14_Function_base13_Base_managerINSt8__detail11_AnyMatcherINSt7__cxx1112regex_traitsIcEELb0ELb1ELb0EEEE14_M_get_pointerERKSt9_Any_data = comdat any

$_ZNKSt8__detail11_AnyMatcherINSt7__cxx1112regex_traitsIcEELb0ELb1ELb0EEclEc = comdat any

$_ZSt11__addressofIKNSt8__detail11_AnyMatcherINSt7__cxx1112regex_traitsIcEELb0ELb1ELb0EEEEPT_RS7_ = comdat any

$_ZNKSt9_Any_data9_M_accessINSt8__detail11_AnyMatcherINSt7__cxx1112regex_traitsIcEELb0ELb1ELb0EEEEERKT_v = comdat any

$_ZNKSt8__detail16_RegexTranslatorINSt7__cxx1112regex_traitsIcEELb1ELb0EE12_M_translateEc = comdat any

$_ZNKSt7__cxx1112regex_traitsIcE16translate_nocaseEc = comdat any

$_ZNKSt5ctypeIcE7tolowerEc = comdat any

$_ZNSt9_Any_data9_M_accessIPNSt8__detail11_AnyMatcherINSt7__cxx1112regex_traitsIcEELb0ELb1ELb0EEEEERT_v = comdat any

$_ZNSt14_Function_base13_Base_managerINSt8__detail11_AnyMatcherINSt7__cxx1112regex_traitsIcEELb0ELb1ELb0EEEE8_M_cloneERSt9_Any_dataRKS8_St17integral_constantIbLb1EE = comdat any

$_ZNSt14_Function_base13_Base_managerINSt8__detail11_AnyMatcherINSt7__cxx1112regex_traitsIcEELb0ELb1ELb0EEEE10_M_destroyERSt9_Any_dataSt17integral_constantIbLb1EE = comdat any

$_ZNSt9_Any_data9_M_accessINSt8__detail11_AnyMatcherINSt7__cxx1112regex_traitsIcEELb0ELb1ELb0EEEEERT_v = comdat any

$_ZNSt8__detail11_AnyMatcherINSt7__cxx1112regex_traitsIcEELb0ELb1ELb1EEC2ERKS3_ = comdat any

$_ZNSt8functionIFbcEEC2INSt8__detail11_AnyMatcherINSt7__cxx1112regex_traitsIcEELb0ELb1ELb1EEEvvEET_ = comdat any

$_ZNSt8__detail16_RegexTranslatorINSt7__cxx1112regex_traitsIcEELb1ELb1EEC2ERKS3_ = comdat any

$_ZNSt14_Function_base13_Base_managerINSt8__detail11_AnyMatcherINSt7__cxx1112regex_traitsIcEELb0ELb1ELb1EEEE21_M_not_empty_functionIS6_EEbRKT_ = comdat any

$_ZNSt14_Function_base13_Base_managerINSt8__detail11_AnyMatcherINSt7__cxx1112regex_traitsIcEELb0ELb1ELb1EEEE15_M_init_functorERSt9_Any_dataOS6_ = comdat any

$_ZSt4moveIRNSt8__detail11_AnyMatcherINSt7__cxx1112regex_traitsIcEELb0ELb1ELb1EEEEONSt16remove_referenceIT_E4typeEOS8_ = comdat any

$_ZNSt17_Function_handlerIFbcENSt8__detail11_AnyMatcherINSt7__cxx1112regex_traitsIcEELb0ELb1ELb1EEEE9_M_invokeERKSt9_Any_dataOc = comdat any

$_ZNSt14_Function_base13_Base_managerINSt8__detail11_AnyMatcherINSt7__cxx1112regex_traitsIcEELb0ELb1ELb1EEEE10_M_managerERSt9_Any_dataRKS8_St18_Manager_operation = comdat any

$_ZNSt14_Function_base13_Base_managerINSt8__detail11_AnyMatcherINSt7__cxx1112regex_traitsIcEELb0ELb1ELb1EEEE15_M_init_functorERSt9_Any_dataOS6_St17integral_constantIbLb1EE = comdat any

$_ZNSt14_Function_base13_Base_managerINSt8__detail11_AnyMatcherINSt7__cxx1112regex_traitsIcEELb0ELb1ELb1EEEE14_M_get_pointerERKSt9_Any_data = comdat any

$_ZNKSt8__detail11_AnyMatcherINSt7__cxx1112regex_traitsIcEELb0ELb1ELb1EEclEc = comdat any

$_ZSt11__addressofIKNSt8__detail11_AnyMatcherINSt7__cxx1112regex_traitsIcEELb0ELb1ELb1EEEEPT_RS7_ = comdat any

$_ZNKSt9_Any_data9_M_accessINSt8__detail11_AnyMatcherINSt7__cxx1112regex_traitsIcEELb0ELb1ELb1EEEEERKT_v = comdat any

$_ZNKSt8__detail16_RegexTranslatorINSt7__cxx1112regex_traitsIcEELb1ELb1EE12_M_translateEc = comdat any

$_ZNSt9_Any_data9_M_accessIPNSt8__detail11_AnyMatcherINSt7__cxx1112regex_traitsIcEELb0ELb1ELb1EEEEERT_v = comdat any

$_ZNSt14_Function_base13_Base_managerINSt8__detail11_AnyMatcherINSt7__cxx1112regex_traitsIcEELb0ELb1ELb1EEEE8_M_cloneERSt9_Any_dataRKS8_St17integral_constantIbLb1EE = comdat any

$_ZNSt14_Function_base13_Base_managerINSt8__detail11_AnyMatcherINSt7__cxx1112regex_traitsIcEELb0ELb1ELb1EEEE10_M_destroyERSt9_Any_dataSt17integral_constantIbLb1EE = comdat any

$_ZNSt9_Any_data9_M_accessINSt8__detail11_AnyMatcherINSt7__cxx1112regex_traitsIcEELb0ELb1ELb1EEEEERT_v = comdat any

$_ZNSt8__detail11_AnyMatcherINSt7__cxx1112regex_traitsIcEELb1ELb0ELb0EEC2ERKS3_ = comdat any

$_ZNSt8functionIFbcEEC2INSt8__detail11_AnyMatcherINSt7__cxx1112regex_traitsIcEELb1ELb0ELb0EEEvvEET_ = comdat any

$_ZNSt14_Function_base13_Base_managerINSt8__detail11_AnyMatcherINSt7__cxx1112regex_traitsIcEELb1ELb0ELb0EEEE21_M_not_empty_functionIS6_EEbRKT_ = comdat any

$_ZNSt14_Function_base13_Base_managerINSt8__detail11_AnyMatcherINSt7__cxx1112regex_traitsIcEELb1ELb0ELb0EEEE15_M_init_functorERSt9_Any_dataOS6_ = comdat any

$_ZSt4moveIRNSt8__detail11_AnyMatcherINSt7__cxx1112regex_traitsIcEELb1ELb0ELb0EEEEONSt16remove_referenceIT_E4typeEOS8_ = comdat any

$_ZNSt17_Function_handlerIFbcENSt8__detail11_AnyMatcherINSt7__cxx1112regex_traitsIcEELb1ELb0ELb0EEEE9_M_invokeERKSt9_Any_dataOc = comdat any

$_ZNSt14_Function_base13_Base_managerINSt8__detail11_AnyMatcherINSt7__cxx1112regex_traitsIcEELb1ELb0ELb0EEEE10_M_managerERSt9_Any_dataRKS8_St18_Manager_operation = comdat any

$_ZNSt14_Function_base13_Base_managerINSt8__detail11_AnyMatcherINSt7__cxx1112regex_traitsIcEELb1ELb0ELb0EEEE15_M_init_functorERSt9_Any_dataOS6_St17integral_constantIbLb1EE = comdat any

$_ZNSt14_Function_base13_Base_managerINSt8__detail11_AnyMatcherINSt7__cxx1112regex_traitsIcEELb1ELb0ELb0EEEE14_M_get_pointerERKSt9_Any_data = comdat any

$_ZNKSt8__detail11_AnyMatcherINSt7__cxx1112regex_traitsIcEELb1ELb0ELb0EEclEc = comdat any

$_ZSt11__addressofIKNSt8__detail11_AnyMatcherINSt7__cxx1112regex_traitsIcEELb1ELb0ELb0EEEEPT_RS7_ = comdat any

$_ZNKSt9_Any_data9_M_accessINSt8__detail11_AnyMatcherINSt7__cxx1112regex_traitsIcEELb1ELb0ELb0EEEEERKT_v = comdat any

$_ZNKSt8__detail11_AnyMatcherINSt7__cxx1112regex_traitsIcEELb1ELb0ELb0EE8_M_applyEcSt17integral_constantIbLb1EE = comdat any

$_ZNSt9_Any_data9_M_accessIPNSt8__detail11_AnyMatcherINSt7__cxx1112regex_traitsIcEELb1ELb0ELb0EEEEERT_v = comdat any

$_ZNSt14_Function_base13_Base_managerINSt8__detail11_AnyMatcherINSt7__cxx1112regex_traitsIcEELb1ELb0ELb0EEEE8_M_cloneERSt9_Any_dataRKS8_St17integral_constantIbLb1EE = comdat any

$_ZNSt14_Function_base13_Base_managerINSt8__detail11_AnyMatcherINSt7__cxx1112regex_traitsIcEELb1ELb0ELb0EEEE10_M_destroyERSt9_Any_dataSt17integral_constantIbLb1EE = comdat any

$_ZNSt9_Any_data9_M_accessINSt8__detail11_AnyMatcherINSt7__cxx1112regex_traitsIcEELb1ELb0ELb0EEEEERT_v = comdat any

$_ZNSt8__detail11_AnyMatcherINSt7__cxx1112regex_traitsIcEELb1ELb0ELb1EEC2ERKS3_ = comdat any

$_ZNSt8functionIFbcEEC2INSt8__detail11_AnyMatcherINSt7__cxx1112regex_traitsIcEELb1ELb0ELb1EEEvvEET_ = comdat any

$_ZNSt14_Function_base13_Base_managerINSt8__detail11_AnyMatcherINSt7__cxx1112regex_traitsIcEELb1ELb0ELb1EEEE21_M_not_empty_functionIS6_EEbRKT_ = comdat any

$_ZNSt14_Function_base13_Base_managerINSt8__detail11_AnyMatcherINSt7__cxx1112regex_traitsIcEELb1ELb0ELb1EEEE15_M_init_functorERSt9_Any_dataOS6_ = comdat any

$_ZSt4moveIRNSt8__detail11_AnyMatcherINSt7__cxx1112regex_traitsIcEELb1ELb0ELb1EEEEONSt16remove_referenceIT_E4typeEOS8_ = comdat any

$_ZNSt17_Function_handlerIFbcENSt8__detail11_AnyMatcherINSt7__cxx1112regex_traitsIcEELb1ELb0ELb1EEEE9_M_invokeERKSt9_Any_dataOc = comdat any

$_ZNSt14_Function_base13_Base_managerINSt8__detail11_AnyMatcherINSt7__cxx1112regex_traitsIcEELb1ELb0ELb1EEEE10_M_managerERSt9_Any_dataRKS8_St18_Manager_operation = comdat any

$_ZNSt14_Function_base13_Base_managerINSt8__detail11_AnyMatcherINSt7__cxx1112regex_traitsIcEELb1ELb0ELb1EEEE15_M_init_functorERSt9_Any_dataOS6_St17integral_constantIbLb1EE = comdat any

$_ZNSt14_Function_base13_Base_managerINSt8__detail11_AnyMatcherINSt7__cxx1112regex_traitsIcEELb1ELb0ELb1EEEE14_M_get_pointerERKSt9_Any_data = comdat any

$_ZNKSt8__detail11_AnyMatcherINSt7__cxx1112regex_traitsIcEELb1ELb0ELb1EEclEc = comdat any

$_ZSt11__addressofIKNSt8__detail11_AnyMatcherINSt7__cxx1112regex_traitsIcEELb1ELb0ELb1EEEEPT_RS7_ = comdat any

$_ZNKSt9_Any_data9_M_accessINSt8__detail11_AnyMatcherINSt7__cxx1112regex_traitsIcEELb1ELb0ELb1EEEEERKT_v = comdat any

$_ZNKSt8__detail11_AnyMatcherINSt7__cxx1112regex_traitsIcEELb1ELb0ELb1EE8_M_applyEcSt17integral_constantIbLb1EE = comdat any

$_ZNSt9_Any_data9_M_accessIPNSt8__detail11_AnyMatcherINSt7__cxx1112regex_traitsIcEELb1ELb0ELb1EEEEERT_v = comdat any

$_ZNSt14_Function_base13_Base_managerINSt8__detail11_AnyMatcherINSt7__cxx1112regex_traitsIcEELb1ELb0ELb1EEEE8_M_cloneERSt9_Any_dataRKS8_St17integral_constantIbLb1EE = comdat any

$_ZNSt14_Function_base13_Base_managerINSt8__detail11_AnyMatcherINSt7__cxx1112regex_traitsIcEELb1ELb0ELb1EEEE10_M_destroyERSt9_Any_dataSt17integral_constantIbLb1EE = comdat any

$_ZNSt9_Any_data9_M_accessINSt8__detail11_AnyMatcherINSt7__cxx1112regex_traitsIcEELb1ELb0ELb1EEEEERT_v = comdat any

$_ZNSt8__detail11_AnyMatcherINSt7__cxx1112regex_traitsIcEELb1ELb1ELb0EEC2ERKS3_ = comdat any

$_ZNSt8functionIFbcEEC2INSt8__detail11_AnyMatcherINSt7__cxx1112regex_traitsIcEELb1ELb1ELb0EEEvvEET_ = comdat any

$_ZNSt14_Function_base13_Base_managerINSt8__detail11_AnyMatcherINSt7__cxx1112regex_traitsIcEELb1ELb1ELb0EEEE21_M_not_empty_functionIS6_EEbRKT_ = comdat any

$_ZNSt14_Function_base13_Base_managerINSt8__detail11_AnyMatcherINSt7__cxx1112regex_traitsIcEELb1ELb1ELb0EEEE15_M_init_functorERSt9_Any_dataOS6_ = comdat any

$_ZSt4moveIRNSt8__detail11_AnyMatcherINSt7__cxx1112regex_traitsIcEELb1ELb1ELb0EEEEONSt16remove_referenceIT_E4typeEOS8_ = comdat any

$_ZNSt17_Function_handlerIFbcENSt8__detail11_AnyMatcherINSt7__cxx1112regex_traitsIcEELb1ELb1ELb0EEEE9_M_invokeERKSt9_Any_dataOc = comdat any

$_ZNSt14_Function_base13_Base_managerINSt8__detail11_AnyMatcherINSt7__cxx1112regex_traitsIcEELb1ELb1ELb0EEEE10_M_managerERSt9_Any_dataRKS8_St18_Manager_operation = comdat any

$_ZNSt14_Function_base13_Base_managerINSt8__detail11_AnyMatcherINSt7__cxx1112regex_traitsIcEELb1ELb1ELb0EEEE15_M_init_functorERSt9_Any_dataOS6_St17integral_constantIbLb1EE = comdat any

$_ZNSt14_Function_base13_Base_managerINSt8__detail11_AnyMatcherINSt7__cxx1112regex_traitsIcEELb1ELb1ELb0EEEE14_M_get_pointerERKSt9_Any_data = comdat any

$_ZNKSt8__detail11_AnyMatcherINSt7__cxx1112regex_traitsIcEELb1ELb1ELb0EEclEc = comdat any

$_ZSt11__addressofIKNSt8__detail11_AnyMatcherINSt7__cxx1112regex_traitsIcEELb1ELb1ELb0EEEEPT_RS7_ = comdat any

$_ZNKSt9_Any_data9_M_accessINSt8__detail11_AnyMatcherINSt7__cxx1112regex_traitsIcEELb1ELb1ELb0EEEEERKT_v = comdat any

$_ZNKSt8__detail11_AnyMatcherINSt7__cxx1112regex_traitsIcEELb1ELb1ELb0EE8_M_applyEcSt17integral_constantIbLb1EE = comdat any

$_ZNSt9_Any_data9_M_accessIPNSt8__detail11_AnyMatcherINSt7__cxx1112regex_traitsIcEELb1ELb1ELb0EEEEERT_v = comdat any

$_ZNSt14_Function_base13_Base_managerINSt8__detail11_AnyMatcherINSt7__cxx1112regex_traitsIcEELb1ELb1ELb0EEEE8_M_cloneERSt9_Any_dataRKS8_St17integral_constantIbLb1EE = comdat any

$_ZNSt14_Function_base13_Base_managerINSt8__detail11_AnyMatcherINSt7__cxx1112regex_traitsIcEELb1ELb1ELb0EEEE10_M_destroyERSt9_Any_dataSt17integral_constantIbLb1EE = comdat any

$_ZNSt9_Any_data9_M_accessINSt8__detail11_AnyMatcherINSt7__cxx1112regex_traitsIcEELb1ELb1ELb0EEEEERT_v = comdat any

$_ZNSt8__detail11_AnyMatcherINSt7__cxx1112regex_traitsIcEELb1ELb1ELb1EEC2ERKS3_ = comdat any

$_ZNSt8functionIFbcEEC2INSt8__detail11_AnyMatcherINSt7__cxx1112regex_traitsIcEELb1ELb1ELb1EEEvvEET_ = comdat any

$_ZNSt14_Function_base13_Base_managerINSt8__detail11_AnyMatcherINSt7__cxx1112regex_traitsIcEELb1ELb1ELb1EEEE21_M_not_empty_functionIS6_EEbRKT_ = comdat any

$_ZNSt14_Function_base13_Base_managerINSt8__detail11_AnyMatcherINSt7__cxx1112regex_traitsIcEELb1ELb1ELb1EEEE15_M_init_functorERSt9_Any_dataOS6_ = comdat any

$_ZSt4moveIRNSt8__detail11_AnyMatcherINSt7__cxx1112regex_traitsIcEELb1ELb1ELb1EEEEONSt16remove_referenceIT_E4typeEOS8_ = comdat any

$_ZNSt17_Function_handlerIFbcENSt8__detail11_AnyMatcherINSt7__cxx1112regex_traitsIcEELb1ELb1ELb1EEEE9_M_invokeERKSt9_Any_dataOc = comdat any

$_ZNSt14_Function_base13_Base_managerINSt8__detail11_AnyMatcherINSt7__cxx1112regex_traitsIcEELb1ELb1ELb1EEEE10_M_managerERSt9_Any_dataRKS8_St18_Manager_operation = comdat any

$_ZNSt14_Function_base13_Base_managerINSt8__detail11_AnyMatcherINSt7__cxx1112regex_traitsIcEELb1ELb1ELb1EEEE15_M_init_functorERSt9_Any_dataOS6_St17integral_constantIbLb1EE = comdat any

$_ZNSt14_Function_base13_Base_managerINSt8__detail11_AnyMatcherINSt7__cxx1112regex_traitsIcEELb1ELb1ELb1EEEE14_M_get_pointerERKSt9_Any_data = comdat any

$_ZNKSt8__detail11_AnyMatcherINSt7__cxx1112regex_traitsIcEELb1ELb1ELb1EEclEc = comdat any

$_ZSt11__addressofIKNSt8__detail11_AnyMatcherINSt7__cxx1112regex_traitsIcEELb1ELb1ELb1EEEEPT_RS7_ = comdat any

$_ZNKSt9_Any_data9_M_accessINSt8__detail11_AnyMatcherINSt7__cxx1112regex_traitsIcEELb1ELb1ELb1EEEEERKT_v = comdat any

$_ZNKSt8__detail11_AnyMatcherINSt7__cxx1112regex_traitsIcEELb1ELb1ELb1EE8_M_applyEcSt17integral_constantIbLb1EE = comdat any

$_ZNSt9_Any_data9_M_accessIPNSt8__detail11_AnyMatcherINSt7__cxx1112regex_traitsIcEELb1ELb1ELb1EEEEERT_v = comdat any

$_ZNSt14_Function_base13_Base_managerINSt8__detail11_AnyMatcherINSt7__cxx1112regex_traitsIcEELb1ELb1ELb1EEEE8_M_cloneERSt9_Any_dataRKS8_St17integral_constantIbLb1EE = comdat any

$_ZNSt14_Function_base13_Base_managerINSt8__detail11_AnyMatcherINSt7__cxx1112regex_traitsIcEELb1ELb1ELb1EEEE10_M_destroyERSt9_Any_dataSt17integral_constantIbLb1EE = comdat any

$_ZNSt9_Any_data9_M_accessINSt8__detail11_AnyMatcherINSt7__cxx1112regex_traitsIcEELb1ELb1ELb1EEEEERT_v = comdat any

$_ZNSt8__detail12_CharMatcherINSt7__cxx1112regex_traitsIcEELb0ELb0EEC2EcRKS3_ = comdat any

$_ZNSt8functionIFbcEEC2INSt8__detail12_CharMatcherINSt7__cxx1112regex_traitsIcEELb0ELb0EEEvvEET_ = comdat any

$_ZNSt14_Function_base13_Base_managerINSt8__detail12_CharMatcherINSt7__cxx1112regex_traitsIcEELb0ELb0EEEE21_M_not_empty_functionIS6_EEbRKT_ = comdat any

$_ZNSt14_Function_base13_Base_managerINSt8__detail12_CharMatcherINSt7__cxx1112regex_traitsIcEELb0ELb0EEEE15_M_init_functorERSt9_Any_dataOS6_ = comdat any

$_ZSt4moveIRNSt8__detail12_CharMatcherINSt7__cxx1112regex_traitsIcEELb0ELb0EEEEONSt16remove_referenceIT_E4typeEOS8_ = comdat any

$_ZNSt17_Function_handlerIFbcENSt8__detail12_CharMatcherINSt7__cxx1112regex_traitsIcEELb0ELb0EEEE9_M_invokeERKSt9_Any_dataOc = comdat any

$_ZNSt14_Function_base13_Base_managerINSt8__detail12_CharMatcherINSt7__cxx1112regex_traitsIcEELb0ELb0EEEE10_M_managerERSt9_Any_dataRKS8_St18_Manager_operation = comdat any

$_ZNSt14_Function_base13_Base_managerINSt8__detail12_CharMatcherINSt7__cxx1112regex_traitsIcEELb0ELb0EEEE15_M_init_functorERSt9_Any_dataOS6_St17integral_constantIbLb1EE = comdat any

$_ZNSt14_Function_base13_Base_managerINSt8__detail12_CharMatcherINSt7__cxx1112regex_traitsIcEELb0ELb0EEEE14_M_get_pointerERKSt9_Any_data = comdat any

$_ZNKSt8__detail12_CharMatcherINSt7__cxx1112regex_traitsIcEELb0ELb0EEclEc = comdat any

$_ZSt11__addressofIKNSt8__detail12_CharMatcherINSt7__cxx1112regex_traitsIcEELb0ELb0EEEEPT_RS7_ = comdat any

$_ZNKSt9_Any_data9_M_accessINSt8__detail12_CharMatcherINSt7__cxx1112regex_traitsIcEELb0ELb0EEEEERKT_v = comdat any

$_ZNSt9_Any_data9_M_accessIPNSt8__detail12_CharMatcherINSt7__cxx1112regex_traitsIcEELb0ELb0EEEEERT_v = comdat any

$_ZNSt14_Function_base13_Base_managerINSt8__detail12_CharMatcherINSt7__cxx1112regex_traitsIcEELb0ELb0EEEE8_M_cloneERSt9_Any_dataRKS8_St17integral_constantIbLb1EE = comdat any

$_ZNSt14_Function_base13_Base_managerINSt8__detail12_CharMatcherINSt7__cxx1112regex_traitsIcEELb0ELb0EEEE10_M_destroyERSt9_Any_dataSt17integral_constantIbLb1EE = comdat any

$_ZNSt9_Any_data9_M_accessINSt8__detail12_CharMatcherINSt7__cxx1112regex_traitsIcEELb0ELb0EEEEERT_v = comdat any

$_ZNSt8__detail12_CharMatcherINSt7__cxx1112regex_traitsIcEELb0ELb1EEC2EcRKS3_ = comdat any

$_ZNSt8functionIFbcEEC2INSt8__detail12_CharMatcherINSt7__cxx1112regex_traitsIcEELb0ELb1EEEvvEET_ = comdat any

$_ZNSt14_Function_base13_Base_managerINSt8__detail12_CharMatcherINSt7__cxx1112regex_traitsIcEELb0ELb1EEEE21_M_not_empty_functionIS6_EEbRKT_ = comdat any

$_ZNSt14_Function_base13_Base_managerINSt8__detail12_CharMatcherINSt7__cxx1112regex_traitsIcEELb0ELb1EEEE15_M_init_functorERSt9_Any_dataOS6_ = comdat any

$_ZSt4moveIRNSt8__detail12_CharMatcherINSt7__cxx1112regex_traitsIcEELb0ELb1EEEEONSt16remove_referenceIT_E4typeEOS8_ = comdat any

$_ZNSt17_Function_handlerIFbcENSt8__detail12_CharMatcherINSt7__cxx1112regex_traitsIcEELb0ELb1EEEE9_M_invokeERKSt9_Any_dataOc = comdat any

$_ZNSt14_Function_base13_Base_managerINSt8__detail12_CharMatcherINSt7__cxx1112regex_traitsIcEELb0ELb1EEEE10_M_managerERSt9_Any_dataRKS8_St18_Manager_operation = comdat any

$_ZNSt14_Function_base13_Base_managerINSt8__detail12_CharMatcherINSt7__cxx1112regex_traitsIcEELb0ELb1EEEE15_M_init_functorERSt9_Any_dataOS6_St17integral_constantIbLb1EE = comdat any

$_ZNSt14_Function_base13_Base_managerINSt8__detail12_CharMatcherINSt7__cxx1112regex_traitsIcEELb0ELb1EEEE14_M_get_pointerERKSt9_Any_data = comdat any

$_ZNKSt8__detail12_CharMatcherINSt7__cxx1112regex_traitsIcEELb0ELb1EEclEc = comdat any

$_ZSt11__addressofIKNSt8__detail12_CharMatcherINSt7__cxx1112regex_traitsIcEELb0ELb1EEEEPT_RS7_ = comdat any

$_ZNKSt9_Any_data9_M_accessINSt8__detail12_CharMatcherINSt7__cxx1112regex_traitsIcEELb0ELb1EEEEERKT_v = comdat any

$_ZNSt9_Any_data9_M_accessIPNSt8__detail12_CharMatcherINSt7__cxx1112regex_traitsIcEELb0ELb1EEEEERT_v = comdat any

$_ZNSt14_Function_base13_Base_managerINSt8__detail12_CharMatcherINSt7__cxx1112regex_traitsIcEELb0ELb1EEEE8_M_cloneERSt9_Any_dataRKS8_St17integral_constantIbLb1EE = comdat any

$_ZNSt14_Function_base13_Base_managerINSt8__detail12_CharMatcherINSt7__cxx1112regex_traitsIcEELb0ELb1EEEE10_M_destroyERSt9_Any_dataSt17integral_constantIbLb1EE = comdat any

$_ZNSt9_Any_data9_M_accessINSt8__detail12_CharMatcherINSt7__cxx1112regex_traitsIcEELb0ELb1EEEEERT_v = comdat any

$_ZNSt8__detail12_CharMatcherINSt7__cxx1112regex_traitsIcEELb1ELb0EEC2EcRKS3_ = comdat any

$_ZNSt8functionIFbcEEC2INSt8__detail12_CharMatcherINSt7__cxx1112regex_traitsIcEELb1ELb0EEEvvEET_ = comdat any

$_ZNSt14_Function_base13_Base_managerINSt8__detail12_CharMatcherINSt7__cxx1112regex_traitsIcEELb1ELb0EEEE21_M_not_empty_functionIS6_EEbRKT_ = comdat any

$_ZNSt14_Function_base13_Base_managerINSt8__detail12_CharMatcherINSt7__cxx1112regex_traitsIcEELb1ELb0EEEE15_M_init_functorERSt9_Any_dataOS6_ = comdat any

$_ZSt4moveIRNSt8__detail12_CharMatcherINSt7__cxx1112regex_traitsIcEELb1ELb0EEEEONSt16remove_referenceIT_E4typeEOS8_ = comdat any

$_ZNSt17_Function_handlerIFbcENSt8__detail12_CharMatcherINSt7__cxx1112regex_traitsIcEELb1ELb0EEEE9_M_invokeERKSt9_Any_dataOc = comdat any

$_ZNSt14_Function_base13_Base_managerINSt8__detail12_CharMatcherINSt7__cxx1112regex_traitsIcEELb1ELb0EEEE10_M_managerERSt9_Any_dataRKS8_St18_Manager_operation = comdat any

$_ZNSt14_Function_base13_Base_managerINSt8__detail12_CharMatcherINSt7__cxx1112regex_traitsIcEELb1ELb0EEEE15_M_init_functorERSt9_Any_dataOS6_St17integral_constantIbLb1EE = comdat any

$_ZNSt14_Function_base13_Base_managerINSt8__detail12_CharMatcherINSt7__cxx1112regex_traitsIcEELb1ELb0EEEE14_M_get_pointerERKSt9_Any_data = comdat any

$_ZNKSt8__detail12_CharMatcherINSt7__cxx1112regex_traitsIcEELb1ELb0EEclEc = comdat any

$_ZSt11__addressofIKNSt8__detail12_CharMatcherINSt7__cxx1112regex_traitsIcEELb1ELb0EEEEPT_RS7_ = comdat any

$_ZNKSt9_Any_data9_M_accessINSt8__detail12_CharMatcherINSt7__cxx1112regex_traitsIcEELb1ELb0EEEEERKT_v = comdat any

$_ZNSt9_Any_data9_M_accessIPNSt8__detail12_CharMatcherINSt7__cxx1112regex_traitsIcEELb1ELb0EEEEERT_v = comdat any

$_ZNSt14_Function_base13_Base_managerINSt8__detail12_CharMatcherINSt7__cxx1112regex_traitsIcEELb1ELb0EEEE8_M_cloneERSt9_Any_dataRKS8_St17integral_constantIbLb1EE = comdat any

$_ZNSt14_Function_base13_Base_managerINSt8__detail12_CharMatcherINSt7__cxx1112regex_traitsIcEELb1ELb0EEEE10_M_destroyERSt9_Any_dataSt17integral_constantIbLb1EE = comdat any

$_ZNSt9_Any_data9_M_accessINSt8__detail12_CharMatcherINSt7__cxx1112regex_traitsIcEELb1ELb0EEEEERT_v = comdat any

$_ZNSt8__detail12_CharMatcherINSt7__cxx1112regex_traitsIcEELb1ELb1EEC2EcRKS3_ = comdat any

$_ZNSt8functionIFbcEEC2INSt8__detail12_CharMatcherINSt7__cxx1112regex_traitsIcEELb1ELb1EEEvvEET_ = comdat any

$_ZNSt14_Function_base13_Base_managerINSt8__detail12_CharMatcherINSt7__cxx1112regex_traitsIcEELb1ELb1EEEE21_M_not_empty_functionIS6_EEbRKT_ = comdat any

$_ZNSt14_Function_base13_Base_managerINSt8__detail12_CharMatcherINSt7__cxx1112regex_traitsIcEELb1ELb1EEEE15_M_init_functorERSt9_Any_dataOS6_ = comdat any

$_ZSt4moveIRNSt8__detail12_CharMatcherINSt7__cxx1112regex_traitsIcEELb1ELb1EEEEONSt16remove_referenceIT_E4typeEOS8_ = comdat any

$_ZNSt17_Function_handlerIFbcENSt8__detail12_CharMatcherINSt7__cxx1112regex_traitsIcEELb1ELb1EEEE9_M_invokeERKSt9_Any_dataOc = comdat any

$_ZNSt14_Function_base13_Base_managerINSt8__detail12_CharMatcherINSt7__cxx1112regex_traitsIcEELb1ELb1EEEE10_M_managerERSt9_Any_dataRKS8_St18_Manager_operation = comdat any

$_ZNSt14_Function_base13_Base_managerINSt8__detail12_CharMatcherINSt7__cxx1112regex_traitsIcEELb1ELb1EEEE15_M_init_functorERSt9_Any_dataOS6_St17integral_constantIbLb1EE = comdat any

$_ZNSt14_Function_base13_Base_managerINSt8__detail12_CharMatcherINSt7__cxx1112regex_traitsIcEELb1ELb1EEEE14_M_get_pointerERKSt9_Any_data = comdat any

$_ZNKSt8__detail12_CharMatcherINSt7__cxx1112regex_traitsIcEELb1ELb1EEclEc = comdat any

$_ZSt11__addressofIKNSt8__detail12_CharMatcherINSt7__cxx1112regex_traitsIcEELb1ELb1EEEEPT_RS7_ = comdat any

$_ZNKSt9_Any_data9_M_accessINSt8__detail12_CharMatcherINSt7__cxx1112regex_traitsIcEELb1ELb1EEEEERKT_v = comdat any

$_ZNSt9_Any_data9_M_accessIPNSt8__detail12_CharMatcherINSt7__cxx1112regex_traitsIcEELb1ELb1EEEEERT_v = comdat any

$_ZNSt14_Function_base13_Base_managerINSt8__detail12_CharMatcherINSt7__cxx1112regex_traitsIcEELb1ELb1EEEE8_M_cloneERSt9_Any_dataRKS8_St17integral_constantIbLb1EE = comdat any

$_ZNSt14_Function_base13_Base_managerINSt8__detail12_CharMatcherINSt7__cxx1112regex_traitsIcEELb1ELb1EEEE10_M_destroyERSt9_Any_dataSt17integral_constantIbLb1EE = comdat any

$_ZNSt9_Any_data9_M_accessINSt8__detail12_CharMatcherINSt7__cxx1112regex_traitsIcEELb1ELb1EEEEERT_v = comdat any

$_ZNSt6vectorImSaImEE5beginEv = comdat any

$_ZNSt6vectorImSaImEE3endEv = comdat any

$_ZN9__gnu_cxxneIPmSt6vectorImSaImEEEEbRKNS_17__normal_iteratorIT_T0_EESA_ = comdat any

$_ZNK9__gnu_cxx17__normal_iteratorIPmSt6vectorImSaImEEEdeEv = comdat any

$_ZN9__gnu_cxx17__normal_iteratorIPmSt6vectorImSaImEEEppEv = comdat any

$_ZN9__gnu_cxx17__normal_iteratorIPmSt6vectorImSaImEEEC2ERKS1_ = comdat any

$_ZNK9__gnu_cxx17__normal_iteratorIPmSt6vectorImSaImEEE4baseEv = comdat any

$_ZNKSt7__cxx1112regex_traitsIcE5valueEci = comdat any

$_ZSt3octRSt8ios_base = comdat any

$_ZSt3hexRSt8ios_base = comdat any

$_ZNSt8ios_base4setfESt13_Ios_FmtflagsS0_ = comdat any

$_ZStaNRSt13_Ios_FmtflagsS_ = comdat any

$_ZStcoSt13_Ios_Fmtflags = comdat any

$_ZStoRRSt13_Ios_FmtflagsS_ = comdat any

$_ZStanSt13_Ios_FmtflagsS_ = comdat any

$_ZStorSt13_Ios_FmtflagsS_ = comdat any

$_ZNSt8__detail15_BracketMatcherINSt7__cxx1112regex_traitsIcEELb0ELb0EEC2EbRKS3_ = comdat any

$_ZNSt8__detail15_BracketMatcherINSt7__cxx1112regex_traitsIcEELb0ELb0EE22_M_add_character_classERKNS1_12basic_stringIcSt11char_traitsIcESaIcEEEb = comdat any

$_ZNSt8__detail15_BracketMatcherINSt7__cxx1112regex_traitsIcEELb0ELb0EE8_M_readyEv = comdat any

$_ZSt4moveIRNSt8__detail15_BracketMatcherINSt7__cxx1112regex_traitsIcEELb0ELb0EEEEONSt16remove_referenceIT_E4typeEOS8_ = comdat any

$_ZNSt8__detail15_BracketMatcherINSt7__cxx1112regex_traitsIcEELb0ELb0EEC2EOS4_ = comdat any

$_ZNSt8functionIFbcEEC2INSt8__detail15_BracketMatcherINSt7__cxx1112regex_traitsIcEELb0ELb0EEEvvEET_ = comdat any

$_ZNSt8__detail15_BracketMatcherINSt7__cxx1112regex_traitsIcEELb0ELb0EED2Ev = comdat any

$_ZNSt6vectorIcSaIcEEC2Ev = comdat any

$_ZNSt6vectorINSt7__cxx1112basic_stringIcSt11char_traitsIcESaIcEEESaIS5_EEC2Ev = comdat any

$_ZNSt6vectorISt4pairIccESaIS1_EEC2Ev = comdat any

$_ZNSt6vectorINSt7__cxx1112regex_traitsIcE10_RegexMaskESaIS3_EEC2Ev = comdat any

$_ZNSt7__cxx1112regex_traitsIcE10_RegexMaskC2Eth = comdat any

$_ZNSt6bitsetILm256EEC2Ev = comdat any

$_ZNSt6vectorINSt7__cxx1112regex_traitsIcE10_RegexMaskESaIS3_EED2Ev = comdat any

$_ZNSt6vectorISt4pairIccESaIS1_EED2Ev = comdat any

$_ZNSt6vectorINSt7__cxx1112basic_stringIcSt11char_traitsIcESaIcEEESaIS5_EED2Ev = comdat any

$_ZNSt6vectorIcSaIcEED2Ev = comdat any

$_ZNSt12_Vector_baseIcSaIcEEC2Ev = comdat any

$_ZNSt12_Vector_baseIcSaIcEE12_Vector_implC2Ev = comdat any

$_ZNSt12_Vector_baseINSt7__cxx1112basic_stringIcSt11char_traitsIcESaIcEEESaIS5_EEC2Ev = comdat any

$_ZNSt12_Vector_baseINSt7__cxx1112basic_stringIcSt11char_traitsIcESaIcEEESaIS5_EE12_Vector_implC2Ev = comdat any

$_ZNSaINSt7__cxx1112basic_stringIcSt11char_traitsIcESaIcEEEEC2Ev = comdat any

$_ZN9__gnu_cxx13new_allocatorINSt7__cxx1112basic_stringIcSt11char_traitsIcESaIcEEEEC2Ev = comdat any

$_ZNSt12_Vector_baseISt4pairIccESaIS1_EEC2Ev = comdat any

$_ZNSt12_Vector_baseISt4pairIccESaIS1_EE12_Vector_implC2Ev = comdat any

$_ZNSaISt4pairIccEEC2Ev = comdat any

$_ZN9__gnu_cxx13new_allocatorISt4pairIccEEC2Ev = comdat any

$_ZNSt12_Vector_baseINSt7__cxx1112regex_traitsIcE10_RegexMaskESaIS3_EEC2Ev = comdat any

$_ZNSt12_Vector_baseINSt7__cxx1112regex_traitsIcE10_RegexMaskESaIS3_EE12_Vector_implC2Ev = comdat any

$_ZNSaINSt7__cxx1112regex_traitsIcE10_RegexMaskEEC2Ev = comdat any

$_ZN9__gnu_cxx13new_allocatorINSt7__cxx1112regex_traitsIcE10_RegexMaskEEC2Ev = comdat any

$_ZNSt12_Base_bitsetILm4EEC2Ev = comdat any

$_ZSt8_DestroyIPNSt7__cxx1112regex_traitsIcE10_RegexMaskES3_EvT_S5_RSaIT0_E = comdat any

$_ZNSt12_Vector_baseINSt7__cxx1112regex_traitsIcE10_RegexMaskESaIS3_EE19_M_get_Tp_allocatorEv = comdat any

$_ZNSt12_Vector_baseINSt7__cxx1112regex_traitsIcE10_RegexMaskESaIS3_EED2Ev = comdat any

$_ZSt8_DestroyIPNSt7__cxx1112regex_traitsIcE10_RegexMaskEEvT_S5_ = comdat any

$_ZNSt12_Destroy_auxILb1EE9__destroyIPNSt7__cxx1112regex_traitsIcE10_RegexMaskEEEvT_S7_ = comdat any

$_ZNSt12_Vector_baseINSt7__cxx1112regex_traitsIcE10_RegexMaskESaIS3_EE13_M_deallocateEPS3_m = comdat any

$_ZNSt12_Vector_baseINSt7__cxx1112regex_traitsIcE10_RegexMaskESaIS3_EE12_Vector_implD2Ev = comdat any

$_ZNSt16allocator_traitsISaINSt7__cxx1112regex_traitsIcE10_RegexMaskEEE10deallocateERS4_PS3_m = comdat any

$_ZN9__gnu_cxx13new_allocatorINSt7__cxx1112regex_traitsIcE10_RegexMaskEE10deallocateEPS4_m = comdat any

$_ZN9__gnu_cxx13new_allocatorINSt7__cxx1112regex_traitsIcE10_RegexMaskEED2Ev = comdat any

$_ZSt8_DestroyIPSt4pairIccES1_EvT_S3_RSaIT0_E = comdat any

$_ZNSt12_Vector_baseISt4pairIccESaIS1_EE19_M_get_Tp_allocatorEv = comdat any

$_ZNSt12_Vector_baseISt4pairIccESaIS1_EED2Ev = comdat any

$_ZSt8_DestroyIPSt4pairIccEEvT_S3_ = comdat any

$_ZNSt12_Destroy_auxILb1EE9__destroyIPSt4pairIccEEEvT_S5_ = comdat any

$_ZNSt12_Vector_baseISt4pairIccESaIS1_EE13_M_deallocateEPS1_m = comdat any

$_ZNSt12_Vector_baseISt4pairIccESaIS1_EE12_Vector_implD2Ev = comdat any

$_ZNSt16allocator_traitsISaISt4pairIccEEE10deallocateERS2_PS1_m = comdat any

$_ZN9__gnu_cxx13new_allocatorISt4pairIccEE10deallocateEPS2_m = comdat any

$_ZN9__gnu_cxx13new_allocatorISt4pairIccEED2Ev = comdat any

$_ZSt8_DestroyIPNSt7__cxx1112basic_stringIcSt11char_traitsIcESaIcEEES5_EvT_S7_RSaIT0_E = comdat any

$_ZNSt12_Vector_baseINSt7__cxx1112basic_stringIcSt11char_traitsIcESaIcEEESaIS5_EE19_M_get_Tp_allocatorEv = comdat any

$_ZNSt12_Vector_baseINSt7__cxx1112basic_stringIcSt11char_traitsIcESaIcEEESaIS5_EED2Ev = comdat any

$_ZSt8_DestroyIPNSt7__cxx1112basic_stringIcSt11char_traitsIcESaIcEEEEvT_S7_ = comdat any

$_ZNSt12_Destroy_auxILb0EE9__destroyIPNSt7__cxx1112basic_stringIcSt11char_traitsIcESaIcEEEEEvT_S9_ = comdat any

$_ZSt8_DestroyINSt7__cxx1112basic_stringIcSt11char_traitsIcESaIcEEEEvPT_ = comdat any

$_ZSt11__addressofINSt7__cxx1112basic_stringIcSt11char_traitsIcESaIcEEEEPT_RS6_ = comdat any

$_ZNSt12_Vector_baseINSt7__cxx1112basic_stringIcSt11char_traitsIcESaIcEEESaIS5_EE13_M_deallocateEPS5_m = comdat any

$_ZNSt12_Vector_baseINSt7__cxx1112basic_stringIcSt11char_traitsIcESaIcEEESaIS5_EE12_Vector_implD2Ev = comdat any

$_ZNSt16allocator_traitsISaINSt7__cxx1112basic_stringIcSt11char_traitsIcESaIcEEEEE10deallocateERS6_PS5_m = comdat any

$_ZN9__gnu_cxx13new_allocatorINSt7__cxx1112basic_stringIcSt11char_traitsIcESaIcEEEE10deallocateEPS6_m = comdat any

$_ZN9__gnu_cxx13new_allocatorINSt7__cxx1112basic_stringIcSt11char_traitsIcESaIcEEEED2Ev = comdat any

$_ZSt8_DestroyIPccEvT_S1_RSaIT0_E = comdat any

$_ZNSt12_Vector_baseIcSaIcEE19_M_get_Tp_allocatorEv = comdat any

$_ZNSt12_Vector_baseIcSaIcEED2Ev = comdat any

$_ZSt8_DestroyIPcEvT_S1_ = comdat any

$_ZNSt12_Destroy_auxILb1EE9__destroyIPcEEvT_S3_ = comdat any

$_ZNSt12_Vector_baseIcSaIcEE13_M_deallocateEPcm = comdat any

$_ZNSt12_Vector_baseIcSaIcEE12_Vector_implD2Ev = comdat any

$_ZNSt16allocator_traitsISaIcEE10deallocateERS0_Pcm = comdat any

$_ZN9__gnu_cxx13new_allocatorIcE10deallocateEPcm = comdat any

$_ZNKSt7__cxx1112regex_traitsIcE16lookup_classnameIPKcEENS1_10_RegexMaskET_S6_b = comdat any

$_ZNKSt7__cxx1112regex_traitsIcE10_RegexMaskeqES2_ = comdat any

$_ZNSt7__cxx1112regex_traitsIcE10_RegexMaskoRES2_ = comdat any

$_ZNSt6vectorINSt7__cxx1112regex_traitsIcE10_RegexMaskESaIS3_EE9push_backERKS3_ = comdat any

$_ZSteqIcSt11char_traitsIcESaIcEEbRKNSt7__cxx1112basic_stringIT_T0_T1_EEPKS5_ = comdat any

$_ZNKSt7__cxx1112regex_traitsIcE10_RegexMaskanES2_ = comdat any

$_ZNKSt7__cxx1112regex_traitsIcE10_RegexMaskneES2_ = comdat any

$_ZNKSt7__cxx1112regex_traitsIcE10_RegexMaskorES2_ = comdat any

$_ZNSt16allocator_traitsISaINSt7__cxx1112regex_traitsIcE10_RegexMaskEEE9constructIS3_JRKS3_EEEvRS4_PT_DpOT0_ = comdat any

$_ZNSt6vectorINSt7__cxx1112regex_traitsIcE10_RegexMaskESaIS3_EE19_M_emplace_back_auxIJRKS3_EEEvDpOT_ = comdat any

$_ZN9__gnu_cxx13new_allocatorINSt7__cxx1112regex_traitsIcE10_RegexMaskEE9constructIS4_JRKS4_EEEvPT_DpOT0_ = comdat any

$_ZSt7forwardIRKNSt7__cxx1112regex_traitsIcE10_RegexMaskEEOT_RNSt16remove_referenceIS6_E4typeE = comdat any

$_ZNKSt6vectorINSt7__cxx1112regex_traitsIcE10_RegexMaskESaIS3_EE12_M_check_lenEmPKc = comdat any

$_ZNSt12_Vector_baseINSt7__cxx1112regex_traitsIcE10_RegexMaskESaIS3_EE11_M_allocateEm = comdat any

$_ZNKSt6vectorINSt7__cxx1112regex_traitsIcE10_RegexMaskESaIS3_EE4sizeEv = comdat any

$_ZSt34__uninitialized_move_if_noexcept_aIPNSt7__cxx1112regex_traitsIcE10_RegexMaskES4_SaIS3_EET0_T_S7_S6_RT1_ = comdat any

$_ZNSt16allocator_traitsISaINSt7__cxx1112regex_traitsIcE10_RegexMaskEEE7destroyIS3_EEvRS4_PT_ = comdat any

$_ZNKSt6vectorINSt7__cxx1112regex_traitsIcE10_RegexMaskESaIS3_EE8max_sizeEv = comdat any

$_ZNSt16allocator_traitsISaINSt7__cxx1112regex_traitsIcE10_RegexMaskEEE8max_sizeERKS4_ = comdat any

$_ZNKSt12_Vector_baseINSt7__cxx1112regex_traitsIcE10_RegexMaskESaIS3_EE19_M_get_Tp_allocatorEv = comdat any

$_ZNK9__gnu_cxx13new_allocatorINSt7__cxx1112regex_traitsIcE10_RegexMaskEE8max_sizeEv = comdat any

$_ZNSt16allocator_traitsISaINSt7__cxx1112regex_traitsIcE10_RegexMaskEEE8allocateERS4_m = comdat any

$_ZN9__gnu_cxx13new_allocatorINSt7__cxx1112regex_traitsIcE10_RegexMaskEE8allocateEmPKv = comdat any

$_ZSt22__uninitialized_copy_aISt13move_iteratorIPNSt7__cxx1112regex_traitsIcE10_RegexMaskEES5_S4_ET0_T_S8_S7_RSaIT1_E = comdat any

$_ZSt32__make_move_if_noexcept_iteratorIPNSt7__cxx1112regex_traitsIcE10_RegexMaskESt13move_iteratorIS4_EET0_T_ = comdat any

$_ZSt18uninitialized_copyISt13move_iteratorIPNSt7__cxx1112regex_traitsIcE10_RegexMaskEES5_ET0_T_S8_S7_ = comdat any

$_ZNSt20__uninitialized_copyILb0EE13__uninit_copyISt13move_iteratorIPNSt7__cxx1112regex_traitsIcE10_RegexMaskEES7_EET0_T_SA_S9_ = comdat any

$_ZStneIPNSt7__cxx1112regex_traitsIcE10_RegexMaskEEbRKSt13move_iteratorIT_ES9_ = comdat any

$_ZSt10_ConstructINSt7__cxx1112regex_traitsIcE10_RegexMaskEJS3_EEvPT_DpOT0_ = comdat any

$_ZSt11__addressofINSt7__cxx1112regex_traitsIcE10_RegexMaskEEPT_RS4_ = comdat any

$_ZNKSt13move_iteratorIPNSt7__cxx1112regex_traitsIcE10_RegexMaskEEdeEv = comdat any

$_ZNSt13move_iteratorIPNSt7__cxx1112regex_traitsIcE10_RegexMaskEEppEv = comdat any

$_ZSteqIPNSt7__cxx1112regex_traitsIcE10_RegexMaskEEbRKSt13move_iteratorIT_ES9_ = comdat any

$_ZNKSt13move_iteratorIPNSt7__cxx1112regex_traitsIcE10_RegexMaskEE4baseEv = comdat any

$_ZSt7forwardINSt7__cxx1112regex_traitsIcE10_RegexMaskEEOT_RNSt16remove_referenceIS4_E4typeE = comdat any

$_ZNSt13move_iteratorIPNSt7__cxx1112regex_traitsIcE10_RegexMaskEEC2ES4_ = comdat any

$_ZN9__gnu_cxx13new_allocatorINSt7__cxx1112regex_traitsIcE10_RegexMaskEE7destroyIS4_EEvPT_ = comdat any

$_ZSt4sortIN9__gnu_cxx17__normal_iteratorIPcSt6vectorIcSaIcEEEEEvT_S7_ = comdat any

$_ZNSt6vectorIcSaIcEE5beginEv = comdat any

$_ZNSt6vectorIcSaIcEE3endEv = comdat any

$_ZSt6uniqueIN9__gnu_cxx17__normal_iteratorIPcSt6vectorIcSaIcEEEEET_S7_S7_ = comdat any

$_ZNSt6vectorIcSaIcEE5eraseEN9__gnu_cxx17__normal_iteratorIPKcS1_EES6_ = comdat any

$_ZN9__gnu_cxx17__normal_iteratorIPKcSt6vectorIcSaIcEEEC2IPcEERKNS0_IT_NS_11__enable_ifIXsr3std10__are_sameIS9_S8_EE7__valueES5_E6__typeEEE = comdat any

$_ZNSt8__detail15_BracketMatcherINSt7__cxx1112regex_traitsIcEELb0ELb0EE13_M_make_cacheESt17integral_constantIbLb1EE = comdat any

$_ZSt6__sortIN9__gnu_cxx17__normal_iteratorIPcSt6vectorIcSaIcEEEENS0_5__ops15_Iter_less_iterEEvT_S9_T0_ = comdat any

$_ZN9__gnu_cxx5__ops16__iter_less_iterEv = comdat any

$_ZN9__gnu_cxxneIPcSt6vectorIcSaIcEEEEbRKNS_17__normal_iteratorIT_T0_EESA_ = comdat any

$_ZSt16__introsort_loopIN9__gnu_cxx17__normal_iteratorIPcSt6vectorIcSaIcEEEElNS0_5__ops15_Iter_less_iterEEvT_S9_T0_T1_ = comdat any

$_ZSt4__lgl = comdat any

$_ZN9__gnu_cxxmiIPcSt6vectorIcSaIcEEEENS_17__normal_iteratorIT_T0_E15difference_typeERKS8_SB_ = comdat any

$_ZSt22__final_insertion_sortIN9__gnu_cxx17__normal_iteratorIPcSt6vectorIcSaIcEEEENS0_5__ops15_Iter_less_iterEEvT_S9_T0_ = comdat any

$_ZNK9__gnu_cxx17__normal_iteratorIPcSt6vectorIcSaIcEEE4baseEv = comdat any

$_ZSt14__partial_sortIN9__gnu_cxx17__normal_iteratorIPcSt6vectorIcSaIcEEEENS0_5__ops15_Iter_less_iterEEvT_S9_S9_T0_ = comdat any

$_ZSt27__unguarded_partition_pivotIN9__gnu_cxx17__normal_iteratorIPcSt6vectorIcSaIcEEEENS0_5__ops15_Iter_less_iterEET_S9_S9_T0_ = comdat any

$_ZSt13__heap_selectIN9__gnu_cxx17__normal_iteratorIPcSt6vectorIcSaIcEEEENS0_5__ops15_Iter_less_iterEEvT_S9_S9_T0_ = comdat any

$_ZSt11__sort_heapIN9__gnu_cxx17__normal_iteratorIPcSt6vectorIcSaIcEEEENS0_5__ops15_Iter_less_iterEEvT_S9_T0_ = comdat any

$_ZSt11__make_heapIN9__gnu_cxx17__normal_iteratorIPcSt6vectorIcSaIcEEEENS0_5__ops15_Iter_less_iterEEvT_S9_T0_ = comdat any

$_ZN9__gnu_cxxltIPcSt6vectorIcSaIcEEEEbRKNS_17__normal_iteratorIT_T0_EESA_ = comdat any

$_ZNK9__gnu_cxx5__ops15_Iter_less_iterclINS_17__normal_iteratorIPcSt6vectorIcSaIcEEEES8_EEbT_T0_ = comdat any

$_ZSt10__pop_heapIN9__gnu_cxx17__normal_iteratorIPcSt6vectorIcSaIcEEEENS0_5__ops15_Iter_less_iterEEvT_S9_S9_T0_ = comdat any

$_ZN9__gnu_cxx17__normal_iteratorIPcSt6vectorIcSaIcEEEppEv = comdat any

$_ZSt4moveIRcEONSt16remove_referenceIT_E4typeEOS2_ = comdat any

$_ZNK9__gnu_cxx17__normal_iteratorIPcSt6vectorIcSaIcEEEplEl = comdat any

$_ZNK9__gnu_cxx17__normal_iteratorIPcSt6vectorIcSaIcEEEdeEv = comdat any

$_ZSt13__adjust_heapIN9__gnu_cxx17__normal_iteratorIPcSt6vectorIcSaIcEEEElcNS0_5__ops15_Iter_less_iterEEvT_T0_SA_T1_T2_ = comdat any

$_ZN9__gnu_cxx17__normal_iteratorIPcSt6vectorIcSaIcEEEC2ERKS1_ = comdat any

$_ZSt11__push_heapIN9__gnu_cxx17__normal_iteratorIPcSt6vectorIcSaIcEEEElcNS0_5__ops14_Iter_less_valEEvT_T0_SA_T1_T2_ = comdat any

$_ZN9__gnu_cxx5__ops15__iter_comp_valENS0_15_Iter_less_iterE = comdat any

$_ZNK9__gnu_cxx5__ops14_Iter_less_valclINS_17__normal_iteratorIPcSt6vectorIcSaIcEEEEcEEbT_RT0_ = comdat any

$_ZN9__gnu_cxx17__normal_iteratorIPcSt6vectorIcSaIcEEEmmEv = comdat any

$_ZSt22__move_median_to_firstIN9__gnu_cxx17__normal_iteratorIPcSt6vectorIcSaIcEEEENS0_5__ops15_Iter_less_iterEEvT_S9_S9_S9_T0_ = comdat any

$_ZNK9__gnu_cxx17__normal_iteratorIPcSt6vectorIcSaIcEEEmiEl = comdat any

$_ZSt21__unguarded_partitionIN9__gnu_cxx17__normal_iteratorIPcSt6vectorIcSaIcEEEENS0_5__ops15_Iter_less_iterEET_S9_S9_S9_T0_ = comdat any

$_ZSt9iter_swapIN9__gnu_cxx17__normal_iteratorIPcSt6vectorIcSaIcEEEES6_EvT_T0_ = comdat any

$_ZSt4swapIcEvRT_S1_ = comdat any

$_ZSt16__insertion_sortIN9__gnu_cxx17__normal_iteratorIPcSt6vectorIcSaIcEEEENS0_5__ops15_Iter_less_iterEEvT_S9_T0_ = comdat any

$_ZSt26__unguarded_insertion_sortIN9__gnu_cxx17__normal_iteratorIPcSt6vectorIcSaIcEEEENS0_5__ops15_Iter_less_iterEEvT_S9_T0_ = comdat any

$_ZN9__gnu_cxxeqIPcSt6vectorIcSaIcEEEEbRKNS_17__normal_iteratorIT_T0_EESA_ = comdat any

$_ZSt13move_backwardIN9__gnu_cxx17__normal_iteratorIPcSt6vectorIcSaIcEEEES6_ET0_T_S8_S7_ = comdat any

$_ZSt25__unguarded_linear_insertIN9__gnu_cxx17__normal_iteratorIPcSt6vectorIcSaIcEEEENS0_5__ops14_Val_less_iterEEvT_T0_ = comdat any

$_ZN9__gnu_cxx5__ops15__val_comp_iterENS0_15_Iter_less_iterE = comdat any

$_ZSt23__copy_move_backward_a2ILb1EN9__gnu_cxx17__normal_iteratorIPcSt6vectorIcSaIcEEEES6_ET1_T0_S8_S7_ = comdat any

$_ZSt12__miter_baseIN9__gnu_cxx17__normal_iteratorIPcSt6vectorIcSaIcEEEEENSt11_Miter_baseIT_E13iterator_typeES8_ = comdat any

$_ZSt22__copy_move_backward_aILb1EPcS0_ET1_T0_S2_S1_ = comdat any

$_ZSt12__niter_baseIN9__gnu_cxx17__normal_iteratorIPcSt6vectorIcSaIcEEEEENSt11_Niter_baseIT_E13iterator_typeES8_ = comdat any

$_ZNSt20__copy_move_backwardILb1ELb1ESt26random_access_iterator_tagE13__copy_move_bIcEEPT_PKS3_S6_S4_ = comdat any

$_ZNSt10_Iter_baseIN9__gnu_cxx17__normal_iteratorIPcSt6vectorIcSaIcEEEELb1EE7_S_baseES6_ = comdat any

$_ZNSt10_Iter_baseIN9__gnu_cxx17__normal_iteratorIPcSt6vectorIcSaIcEEEELb0EE7_S_baseES6_ = comdat any

$_ZNK9__gnu_cxx5__ops14_Val_less_iterclIcNS_17__normal_iteratorIPcSt6vectorIcSaIcEEEEEEbRT_T0_ = comdat any

$_ZSt8__uniqueIN9__gnu_cxx17__normal_iteratorIPcSt6vectorIcSaIcEEEENS0_5__ops19_Iter_equal_to_iterEET_S9_S9_T0_ = comdat any

$_ZN9__gnu_cxx5__ops20__iter_equal_to_iterEv = comdat any

$_ZSt15__adjacent_findIN9__gnu_cxx17__normal_iteratorIPcSt6vectorIcSaIcEEEENS0_5__ops19_Iter_equal_to_iterEET_S9_S9_T0_ = comdat any

$_ZNK9__gnu_cxx5__ops19_Iter_equal_to_iterclINS_17__normal_iteratorIPcSt6vectorIcSaIcEEEES8_EEbT_T0_ = comdat any

$_ZNKSt6vectorIcSaIcEE6cbeginEv = comdat any

$_ZNSt6vectorIcSaIcEE8_M_eraseEN9__gnu_cxx17__normal_iteratorIPcS1_EES5_ = comdat any

$_ZN9__gnu_cxxmiIPKcSt6vectorIcSaIcEEEENS_17__normal_iteratorIT_T0_E15difference_typeERKS9_SC_ = comdat any

$_ZN9__gnu_cxx17__normal_iteratorIPKcSt6vectorIcSaIcEEEC2ERKS2_ = comdat any

$_ZSt4moveIN9__gnu_cxx17__normal_iteratorIPcSt6vectorIcSaIcEEEES6_ET0_T_S8_S7_ = comdat any

$_ZNSt6vectorIcSaIcEE15_M_erase_at_endEPc = comdat any

$_ZSt14__copy_move_a2ILb1EN9__gnu_cxx17__normal_iteratorIPcSt6vectorIcSaIcEEEES6_ET1_T0_S8_S7_ = comdat any

$_ZSt13__copy_move_aILb1EPcS0_ET1_T0_S2_S1_ = comdat any

$_ZNSt11__copy_moveILb1ELb1ESt26random_access_iterator_tagE8__copy_mIcEEPT_PKS3_S6_S4_ = comdat any

$_ZNK9__gnu_cxx17__normal_iteratorIPKcSt6vectorIcSaIcEEE4baseEv = comdat any

$_ZNKSt6bitsetILm256EE4sizeEv = comdat any

$_ZNKSt8__detail15_BracketMatcherINSt7__cxx1112regex_traitsIcEELb0ELb0EE8_M_applyEcSt17integral_constantIbLb0EE = comdat any

$_ZNSt6bitsetILm256EEixEm = comdat any

$_ZNSt6bitsetILm256EE9referenceaSEb = comdat any

$_ZNSt6bitsetILm256EE9referenceD2Ev = comdat any

$_ZSt13binary_searchIN9__gnu_cxx17__normal_iteratorIPKcSt6vectorIcSaIcEEEEcEbT_S8_RKT0_ = comdat any

$_ZNKSt6vectorIcSaIcEE5beginEv = comdat any

$_ZNKSt6vectorIcSaIcEE3endEv = comdat any

$_ZNKSt8__detail16_RegexTranslatorINSt7__cxx1112regex_traitsIcEELb0ELb0EE12_M_transformEc = comdat any

$_ZNKSt6vectorISt4pairIccESaIS1_EE5beginEv = comdat any

$_ZNKSt6vectorISt4pairIccESaIS1_EE3endEv = comdat any

$_ZN9__gnu_cxxneIPKSt4pairIccESt6vectorIS2_SaIS2_EEEEbRKNS_17__normal_iteratorIT_T0_EESD_ = comdat any

$_ZNK9__gnu_cxx17__normal_iteratorIPKSt4pairIccESt6vectorIS2_SaIS2_EEEdeEv = comdat any

$_ZN9__gnu_cxx17__normal_iteratorIPKSt4pairIccESt6vectorIS2_SaIS2_EEEppEv = comdat any

$_ZNKSt7__cxx1112regex_traitsIcE7isctypeEcNS1_10_RegexMaskE = comdat any

$_ZN9__gnu_cxxneIPKNSt7__cxx1112basic_stringIcSt11char_traitsIcESaIcEEESt6vectorIS6_SaIS6_EEEEbRKNS_17__normal_iteratorIT_T0_EESH_ = comdat any

$_ZSt4findIN9__gnu_cxx17__normal_iteratorIPKNSt7__cxx1112basic_stringIcSt11char_traitsIcESaIcEEESt6vectorIS7_SaIS7_EEEES7_ET_SE_SE_RKT0_ = comdat any

$_ZNKSt6vectorINSt7__cxx1112basic_stringIcSt11char_traitsIcESaIcEEESaIS5_EE5beginEv = comdat any

$_ZNKSt6vectorINSt7__cxx1112basic_stringIcSt11char_traitsIcESaIcEEESaIS5_EE3endEv = comdat any

$_ZNKSt7__cxx1112regex_traitsIcE17transform_primaryIPcEENS_12basic_stringIcSt11char_traitsIcESaIcEEET_S9_ = comdat any

$_ZNKSt6vectorINSt7__cxx1112regex_traitsIcE10_RegexMaskESaIS3_EE5beginEv = comdat any

$_ZNKSt6vectorINSt7__cxx1112regex_traitsIcE10_RegexMaskESaIS3_EE3endEv = comdat any

$_ZN9__gnu_cxxneIPKNSt7__cxx1112regex_traitsIcE10_RegexMaskESt6vectorIS4_SaIS4_EEEEbRKNS_17__normal_iteratorIT_T0_EESF_ = comdat any

$_ZNK9__gnu_cxx17__normal_iteratorIPKNSt7__cxx1112regex_traitsIcE10_RegexMaskESt6vectorIS4_SaIS4_EEEdeEv = comdat any

$_ZN9__gnu_cxx17__normal_iteratorIPKNSt7__cxx1112regex_traitsIcE10_RegexMaskESt6vectorIS4_SaIS4_EEEppEv = comdat any

$_ZSt13__lower_boundIN9__gnu_cxx17__normal_iteratorIPKcSt6vectorIcSaIcEEEEcNS0_5__ops14_Iter_less_valEET_SA_SA_RKT0_T1_ = comdat any

$_ZN9__gnu_cxx5__ops15__iter_less_valEv = comdat any

$_ZN9__gnu_cxxneIPKcSt6vectorIcSaIcEEEEbRKNS_17__normal_iteratorIT_T0_EESB_ = comdat any

$_ZNK9__gnu_cxx17__normal_iteratorIPKcSt6vectorIcSaIcEEEdeEv = comdat any

$_ZSt8distanceIN9__gnu_cxx17__normal_iteratorIPKcSt6vectorIcSaIcEEEEENSt15iterator_traitsIT_E15difference_typeES9_S9_ = comdat any

$_ZSt7advanceIN9__gnu_cxx17__normal_iteratorIPKcSt6vectorIcSaIcEEEElEvRT_T0_ = comdat any

$_ZNK9__gnu_cxx5__ops14_Iter_less_valclINS_17__normal_iteratorIPKcSt6vectorIcSaIcEEEES4_EEbT_RT0_ = comdat any

$_ZN9__gnu_cxx17__normal_iteratorIPKcSt6vectorIcSaIcEEEppEv = comdat any

$_ZSt10__distanceIN9__gnu_cxx17__normal_iteratorIPKcSt6vectorIcSaIcEEEEENSt15iterator_traitsIT_E15difference_typeES9_S9_St26random_access_iterator_tag = comdat any

$_ZSt19__iterator_categoryIN9__gnu_cxx17__normal_iteratorIPKcSt6vectorIcSaIcEEEEENSt15iterator_traitsIT_E17iterator_categoryERKS9_ = comdat any

$_ZSt9__advanceIN9__gnu_cxx17__normal_iteratorIPKcSt6vectorIcSaIcEEEElEvRT_T0_St26random_access_iterator_tag = comdat any

$_ZN9__gnu_cxx17__normal_iteratorIPKcSt6vectorIcSaIcEEEpLEl = comdat any

$_ZN9__gnu_cxx17__normal_iteratorIPKSt4pairIccESt6vectorIS2_SaIS2_EEEC2ERKS4_ = comdat any

$_ZNK9__gnu_cxx17__normal_iteratorIPKSt4pairIccESt6vectorIS2_SaIS2_EEE4baseEv = comdat any

$_ZNKSt5ctypeIcE5widenEc = comdat any

$_ZNK9__gnu_cxx17__normal_iteratorIPKNSt7__cxx1112basic_stringIcSt11char_traitsIcESaIcEEESt6vectorIS6_SaIS6_EEE4baseEv = comdat any

$_ZSt9__find_ifIN9__gnu_cxx17__normal_iteratorIPKNSt7__cxx1112basic_stringIcSt11char_traitsIcESaIcEEESt6vectorIS7_SaIS7_EEEENS0_5__ops16_Iter_equals_valIS8_EEET_SH_SH_T0_ = comdat any

$_ZN9__gnu_cxx5__ops17__iter_equals_valIKNSt7__cxx1112basic_stringIcSt11char_traitsIcESaIcEEEEENS0_16_Iter_equals_valIT_EERSA_ = comdat any

$_ZSt9__find_ifIN9__gnu_cxx17__normal_iteratorIPKNSt7__cxx1112basic_stringIcSt11char_traitsIcESaIcEEESt6vectorIS7_SaIS7_EEEENS0_5__ops16_Iter_equals_valIS8_EEET_SH_SH_T0_St26random_access_iterator_tag = comdat any

$_ZSt19__iterator_categoryIN9__gnu_cxx17__normal_iteratorIPKNSt7__cxx1112basic_stringIcSt11char_traitsIcESaIcEEESt6vectorIS7_SaIS7_EEEEENSt15iterator_traitsIT_E17iterator_categoryERKSF_ = comdat any

$_ZN9__gnu_cxxmiIPKNSt7__cxx1112basic_stringIcSt11char_traitsIcESaIcEEESt6vectorIS6_SaIS6_EEEENS_17__normal_iteratorIT_T0_E15difference_typeERKSF_SI_ = comdat any

$_ZN9__gnu_cxx5__ops16_Iter_equals_valIKNSt7__cxx1112basic_stringIcSt11char_traitsIcESaIcEEEEclINS_17__normal_iteratorIPS8_St6vectorIS7_SaIS7_EEEEEEbT_ = comdat any

$_ZN9__gnu_cxx17__normal_iteratorIPKNSt7__cxx1112basic_stringIcSt11char_traitsIcESaIcEEESt6vectorIS6_SaIS6_EEEppEv = comdat any

$_ZSteqIcEN9__gnu_cxx11__enable_ifIXsr9__is_charIT_EE7__valueEbE6__typeERKNSt7__cxx1112basic_stringIS2_St11char_traitsIS2_ESaIS2_EEESC_ = comdat any

$_ZNK9__gnu_cxx17__normal_iteratorIPKNSt7__cxx1112basic_stringIcSt11char_traitsIcESaIcEEESt6vectorIS6_SaIS6_EEEdeEv = comdat any

$_ZNSt11char_traitsIcE7compareEPKcS2_m = comdat any

$_ZN9__gnu_cxx5__ops16_Iter_equals_valIKNSt7__cxx1112basic_stringIcSt11char_traitsIcESaIcEEEEC2ERS8_ = comdat any

$_ZN9__gnu_cxx17__normal_iteratorIPKNSt7__cxx1112basic_stringIcSt11char_traitsIcESaIcEEESt6vectorIS6_SaIS6_EEEC2ERKS8_ = comdat any

$_ZNSt6vectorIcSaIcEEC2IPcvEET_S4_RKS0_ = comdat any

$_ZNKSt5ctypeIcE7tolowerEPcPKc = comdat any

$_ZNSt6vectorIcSaIcEE4dataEv = comdat any

$_ZNKSt6vectorIcSaIcEE4sizeEv = comdat any

$_ZNKSt7__cxx1112regex_traitsIcE9transformIPcEENS_12basic_stringIcSt11char_traitsIcESaIcEEET_S9_ = comdat any

$_ZNSt12_Vector_baseIcSaIcEEC2ERKS0_ = comdat any

$_ZNSt6vectorIcSaIcEE22_M_initialize_dispatchIPcEEvT_S4_St12__false_type = comdat any

$_ZNSt12_Vector_baseIcSaIcEE12_Vector_implC2ERKS0_ = comdat any

$_ZNSt6vectorIcSaIcEE19_M_range_initializeIPcEEvT_S4_St20forward_iterator_tag = comdat any

$_ZSt8distanceIPcENSt15iterator_traitsIT_E15difference_typeES2_S2_ = comdat any

$_ZNSt12_Vector_baseIcSaIcEE11_M_allocateEm = comdat any

$_ZSt22__uninitialized_copy_aIPcS0_cET0_T_S2_S1_RSaIT1_E = comdat any

$_ZSt10__distanceIPcENSt15iterator_traitsIT_E15difference_typeES2_S2_St26random_access_iterator_tag = comdat any

$_ZSt19__iterator_categoryIPcENSt15iterator_traitsIT_E17iterator_categoryERKS2_ = comdat any

$_ZNSt16allocator_traitsISaIcEE8allocateERS0_m = comdat any

$_ZN9__gnu_cxx13new_allocatorIcE8allocateEmPKv = comdat any

$_ZNK9__gnu_cxx13new_allocatorIcE8max_sizeEv = comdat any

$_ZSt18uninitialized_copyIPcS0_ET0_T_S2_S1_ = comdat any

$_ZNSt20__uninitialized_copyILb1EE13__uninit_copyIPcS2_EET0_T_S4_S3_ = comdat any

$_ZSt4copyIPcS0_ET0_T_S2_S1_ = comdat any

$_ZSt14__copy_move_a2ILb0EPcS0_ET1_T0_S2_S1_ = comdat any

$_ZSt12__miter_baseIPcENSt11_Miter_baseIT_E13iterator_typeES2_ = comdat any

$_ZSt13__copy_move_aILb0EPcS0_ET1_T0_S2_S1_ = comdat any

$_ZSt12__niter_baseIPcENSt11_Niter_baseIT_E13iterator_typeES2_ = comdat any

$_ZNSt11__copy_moveILb0ELb1ESt26random_access_iterator_tagE8__copy_mIcEEPT_PKS3_S6_S4_ = comdat any

$_ZNSt10_Iter_baseIPcLb0EE7_S_baseES0_ = comdat any

$_ZNKSt6vectorIcSaIcEE11_M_data_ptrIcEEPT_S4_ = comdat any

$_ZNSt7__cxx1112basic_stringIcSt11char_traitsIcESaIcEEC2IPcvEET_S7_RKS3_ = comdat any

$_ZNSt7__cxx1112basic_stringIcSt11char_traitsIcESaIcEE12_M_constructIPcEEvT_S7_ = comdat any

$_ZNSt7__cxx1112basic_stringIcSt11char_traitsIcESaIcEE12_Alloc_hiderD2Ev = comdat any

$_ZNSt7__cxx1112basic_stringIcSt11char_traitsIcESaIcEE16_M_construct_auxIPcEEvT_S7_St12__false_type = comdat any

$_ZNSt7__cxx1112basic_stringIcSt11char_traitsIcESaIcEE12_M_constructIPcEEvT_S7_St20forward_iterator_tag = comdat any

$_ZN9__gnu_cxx17__is_null_pointerIcEEbPT_ = comdat any

$_ZN9__gnu_cxx17__normal_iteratorIPKNSt7__cxx1112regex_traitsIcE10_RegexMaskESt6vectorIS4_SaIS4_EEEC2ERKS6_ = comdat any

$_ZNK9__gnu_cxx17__normal_iteratorIPKNSt7__cxx1112regex_traitsIcE10_RegexMaskESt6vectorIS4_SaIS4_EEE4baseEv = comdat any

$_ZNSt6bitsetILm256EE9referenceC2ERS0_m = comdat any

$_ZNSt12_Base_bitsetILm4EE10_M_getwordEm = comdat any

$_ZNSt12_Base_bitsetILm4EE11_S_whichbitEm = comdat any

$_ZNSt12_Base_bitsetILm4EE12_S_whichwordEm = comdat any

$_ZNSt12_Base_bitsetILm4EE10_S_maskbitEm = comdat any

$_ZNSt6vectorIcSaIcEEC2EOS1_ = comdat any

$_ZNSt6vectorINSt7__cxx1112basic_stringIcSt11char_traitsIcESaIcEEESaIS5_EEC2EOS7_ = comdat any

$_ZNSt6vectorISt4pairIccESaIS1_EEC2EOS3_ = comdat any

$_ZNSt6vectorINSt7__cxx1112regex_traitsIcE10_RegexMaskESaIS3_EEC2EOS5_ = comdat any

$_ZSt4moveIRSt6vectorIcSaIcEEEONSt16remove_referenceIT_E4typeEOS5_ = comdat any

$_ZNSt12_Vector_baseIcSaIcEEC2EOS1_ = comdat any

$_ZSt4moveIRSaIcEEONSt16remove_referenceIT_E4typeEOS3_ = comdat any

$_ZNSt12_Vector_baseIcSaIcEE12_Vector_implC2EOS0_ = comdat any

$_ZNSt12_Vector_baseIcSaIcEE12_Vector_impl12_M_swap_dataERS2_ = comdat any

$_ZSt4swapIPcEvRT_S2_ = comdat any

$_ZSt4moveIRPcEONSt16remove_referenceIT_E4typeEOS3_ = comdat any

$_ZSt4moveIRSt6vectorINSt7__cxx1112basic_stringIcSt11char_traitsIcESaIcEEESaIS6_EEEONSt16remove_referenceIT_E4typeEOSB_ = comdat any

$_ZNSt12_Vector_baseINSt7__cxx1112basic_stringIcSt11char_traitsIcESaIcEEESaIS5_EEC2EOS7_ = comdat any

$_ZSt4moveIRSaINSt7__cxx1112basic_stringIcSt11char_traitsIcESaIcEEEEEONSt16remove_referenceIT_E4typeEOS9_ = comdat any

$_ZNSt12_Vector_baseINSt7__cxx1112basic_stringIcSt11char_traitsIcESaIcEEESaIS5_EE12_Vector_implC2EOS6_ = comdat any

$_ZNSt12_Vector_baseINSt7__cxx1112basic_stringIcSt11char_traitsIcESaIcEEESaIS5_EE12_Vector_impl12_M_swap_dataERS8_ = comdat any

$_ZN9__gnu_cxx13new_allocatorINSt7__cxx1112basic_stringIcSt11char_traitsIcESaIcEEEEC2ERKS7_ = comdat any

$_ZSt4swapIPNSt7__cxx1112basic_stringIcSt11char_traitsIcESaIcEEEEvRT_S8_ = comdat any

$_ZSt4moveIRPNSt7__cxx1112basic_stringIcSt11char_traitsIcESaIcEEEEONSt16remove_referenceIT_E4typeEOS9_ = comdat any

$_ZSt4moveIRSt6vectorISt4pairIccESaIS2_EEEONSt16remove_referenceIT_E4typeEOS7_ = comdat any

$_ZNSt12_Vector_baseISt4pairIccESaIS1_EEC2EOS3_ = comdat any

$_ZSt4moveIRSaISt4pairIccEEEONSt16remove_referenceIT_E4typeEOS5_ = comdat any

$_ZNSt12_Vector_baseISt4pairIccESaIS1_EE12_Vector_implC2EOS2_ = comdat any

$_ZNSt12_Vector_baseISt4pairIccESaIS1_EE12_Vector_impl12_M_swap_dataERS4_ = comdat any

$_ZN9__gnu_cxx13new_allocatorISt4pairIccEEC2ERKS3_ = comdat any

$_ZSt4swapIPSt4pairIccEEvRT_S4_ = comdat any

$_ZSt4moveIRPSt4pairIccEEONSt16remove_referenceIT_E4typeEOS5_ = comdat any

$_ZSt4moveIRSt6vectorINSt7__cxx1112regex_traitsIcE10_RegexMaskESaIS4_EEEONSt16remove_referenceIT_E4typeEOS9_ = comdat any

$_ZNSt12_Vector_baseINSt7__cxx1112regex_traitsIcE10_RegexMaskESaIS3_EEC2EOS5_ = comdat any

$_ZSt4moveIRSaINSt7__cxx1112regex_traitsIcE10_RegexMaskEEEONSt16remove_referenceIT_E4typeEOS7_ = comdat any

$_ZNSt12_Vector_baseINSt7__cxx1112regex_traitsIcE10_RegexMaskESaIS3_EE12_Vector_implC2EOS4_ = comdat any

$_ZNSt12_Vector_baseINSt7__cxx1112regex_traitsIcE10_RegexMaskESaIS3_EE12_Vector_impl12_M_swap_dataERS6_ = comdat any

$_ZN9__gnu_cxx13new_allocatorINSt7__cxx1112regex_traitsIcE10_RegexMaskEEC2ERKS5_ = comdat any

$_ZSt4swapIPNSt7__cxx1112regex_traitsIcE10_RegexMaskEEvRT_S6_ = comdat any

$_ZSt4moveIRPNSt7__cxx1112regex_traitsIcE10_RegexMaskEEONSt16remove_referenceIT_E4typeEOS7_ = comdat any

$_ZNSt14_Function_base13_Base_managerINSt8__detail15_BracketMatcherINSt7__cxx1112regex_traitsIcEELb0ELb0EEEE21_M_not_empty_functionIS6_EEbRKT_ = comdat any

$_ZNSt14_Function_base13_Base_managerINSt8__detail15_BracketMatcherINSt7__cxx1112regex_traitsIcEELb0ELb0EEEE15_M_init_functorERSt9_Any_dataOS6_ = comdat any

$_ZNSt17_Function_handlerIFbcENSt8__detail15_BracketMatcherINSt7__cxx1112regex_traitsIcEELb0ELb0EEEE9_M_invokeERKSt9_Any_dataOc = comdat any

$_ZNSt14_Function_base13_Base_managerINSt8__detail15_BracketMatcherINSt7__cxx1112regex_traitsIcEELb0ELb0EEEE10_M_managerERSt9_Any_dataRKS8_St18_Manager_operation = comdat any

$_ZNSt14_Function_base13_Base_managerINSt8__detail15_BracketMatcherINSt7__cxx1112regex_traitsIcEELb0ELb0EEEE15_M_init_functorERSt9_Any_dataOS6_St17integral_constantIbLb0EE = comdat any

$_ZNSt9_Any_data9_M_accessIPNSt8__detail15_BracketMatcherINSt7__cxx1112regex_traitsIcEELb0ELb0EEEEERT_v = comdat any

$_ZNSt14_Function_base13_Base_managerINSt8__detail15_BracketMatcherINSt7__cxx1112regex_traitsIcEELb0ELb0EEEE14_M_get_pointerERKSt9_Any_data = comdat any

$_ZNKSt8__detail15_BracketMatcherINSt7__cxx1112regex_traitsIcEELb0ELb0EEclEc = comdat any

$_ZNKSt9_Any_data9_M_accessIPNSt8__detail15_BracketMatcherINSt7__cxx1112regex_traitsIcEELb0ELb0EEEEERKT_v = comdat any

$_ZNKSt8__detail15_BracketMatcherINSt7__cxx1112regex_traitsIcEELb0ELb0EE8_M_applyEcSt17integral_constantIbLb1EE = comdat any

$_ZNKSt6bitsetILm256EEixEm = comdat any

$_ZNKSt6bitsetILm256EE15_Unchecked_testEm = comdat any

$_ZNKSt12_Base_bitsetILm4EE10_M_getwordEm = comdat any

$_ZNSt14_Function_base13_Base_managerINSt8__detail15_BracketMatcherINSt7__cxx1112regex_traitsIcEELb0ELb0EEEE8_M_cloneERSt9_Any_dataRKS8_St17integral_constantIbLb0EE = comdat any

$_ZNSt14_Function_base13_Base_managerINSt8__detail15_BracketMatcherINSt7__cxx1112regex_traitsIcEELb0ELb0EEEE10_M_destroyERSt9_Any_dataSt17integral_constantIbLb0EE = comdat any

$_ZNSt8__detail15_BracketMatcherINSt7__cxx1112regex_traitsIcEELb0ELb0EEC2ERKS4_ = comdat any

$_ZNSt6vectorIcSaIcEEC2ERKS1_ = comdat any

$_ZNSt6vectorINSt7__cxx1112basic_stringIcSt11char_traitsIcESaIcEEESaIS5_EEC2ERKS7_ = comdat any

$_ZNSt6vectorISt4pairIccESaIS1_EEC2ERKS3_ = comdat any

$_ZNSt6vectorINSt7__cxx1112regex_traitsIcE10_RegexMaskESaIS3_EEC2ERKS5_ = comdat any

$_ZN9__gnu_cxx14__alloc_traitsISaIcEE17_S_select_on_copyERKS1_ = comdat any

$_ZNKSt12_Vector_baseIcSaIcEE19_M_get_Tp_allocatorEv = comdat any

$_ZNSt12_Vector_baseIcSaIcEEC2EmRKS0_ = comdat any

$_ZSt22__uninitialized_copy_aIN9__gnu_cxx17__normal_iteratorIPKcSt6vectorIcSaIcEEEEPccET0_T_SA_S9_RSaIT1_E = comdat any

$_ZNSt16allocator_traitsISaIcEE37select_on_container_copy_constructionERKS0_ = comdat any

$_ZNSt12_Vector_baseIcSaIcEE17_M_create_storageEm = comdat any

$_ZSt18uninitialized_copyIN9__gnu_cxx17__normal_iteratorIPKcSt6vectorIcSaIcEEEEPcET0_T_SA_S9_ = comdat any

$_ZNSt20__uninitialized_copyILb1EE13__uninit_copyIN9__gnu_cxx17__normal_iteratorIPKcSt6vectorIcSaIcEEEEPcEET0_T_SC_SB_ = comdat any

$_ZSt4copyIN9__gnu_cxx17__normal_iteratorIPKcSt6vectorIcSaIcEEEEPcET0_T_SA_S9_ = comdat any

$_ZSt14__copy_move_a2ILb0EN9__gnu_cxx17__normal_iteratorIPKcSt6vectorIcSaIcEEEEPcET1_T0_SA_S9_ = comdat any

$_ZSt12__miter_baseIN9__gnu_cxx17__normal_iteratorIPKcSt6vectorIcSaIcEEEEENSt11_Miter_baseIT_E13iterator_typeES9_ = comdat any

$_ZSt13__copy_move_aILb0EPKcPcET1_T0_S4_S3_ = comdat any

$_ZSt12__niter_baseIN9__gnu_cxx17__normal_iteratorIPKcSt6vectorIcSaIcEEEEENSt11_Niter_baseIT_E13iterator_typeES9_ = comdat any

$_ZNSt10_Iter_baseIN9__gnu_cxx17__normal_iteratorIPKcSt6vectorIcSaIcEEEELb1EE7_S_baseES7_ = comdat any

$_ZNSt10_Iter_baseIN9__gnu_cxx17__normal_iteratorIPKcSt6vectorIcSaIcEEEELb0EE7_S_baseES7_ = comdat any

$_ZNKSt6vectorINSt7__cxx1112basic_stringIcSt11char_traitsIcESaIcEEESaIS5_EE4sizeEv = comdat any

$_ZN9__gnu_cxx14__alloc_traitsISaINSt7__cxx1112basic_stringIcSt11char_traitsIcESaIcEEEEE17_S_select_on_copyERKS7_ = comdat any

$_ZNKSt12_Vector_baseINSt7__cxx1112basic_stringIcSt11char_traitsIcESaIcEEESaIS5_EE19_M_get_Tp_allocatorEv = comdat any

$_ZNSt12_Vector_baseINSt7__cxx1112basic_stringIcSt11char_traitsIcESaIcEEESaIS5_EEC2EmRKS6_ = comdat any

$_ZNSaINSt7__cxx1112basic_stringIcSt11char_traitsIcESaIcEEEED2Ev = comdat any

$_ZSt22__uninitialized_copy_aIN9__gnu_cxx17__normal_iteratorIPKNSt7__cxx1112basic_stringIcSt11char_traitsIcESaIcEEESt6vectorIS7_SaIS7_EEEEPS7_S7_ET0_T_SG_SF_RSaIT1_E = comdat any

$_ZNSt16allocator_traitsISaINSt7__cxx1112basic_stringIcSt11char_traitsIcESaIcEEEEE37select_on_container_copy_constructionERKS6_ = comdat any

$_ZNSaINSt7__cxx1112basic_stringIcSt11char_traitsIcESaIcEEEEC2ERKS5_ = comdat any

$_ZNSt12_Vector_baseINSt7__cxx1112basic_stringIcSt11char_traitsIcESaIcEEESaIS5_EE12_Vector_implC2ERKS6_ = comdat any

$_ZNSt12_Vector_baseINSt7__cxx1112basic_stringIcSt11char_traitsIcESaIcEEESaIS5_EE17_M_create_storageEm = comdat any

$_ZNSt12_Vector_baseINSt7__cxx1112basic_stringIcSt11char_traitsIcESaIcEEESaIS5_EE11_M_allocateEm = comdat any

$_ZNSt16allocator_traitsISaINSt7__cxx1112basic_stringIcSt11char_traitsIcESaIcEEEEE8allocateERS6_m = comdat any

$_ZN9__gnu_cxx13new_allocatorINSt7__cxx1112basic_stringIcSt11char_traitsIcESaIcEEEE8allocateEmPKv = comdat any

$_ZNK9__gnu_cxx13new_allocatorINSt7__cxx1112basic_stringIcSt11char_traitsIcESaIcEEEE8max_sizeEv = comdat any

$_ZSt18uninitialized_copyIN9__gnu_cxx17__normal_iteratorIPKNSt7__cxx1112basic_stringIcSt11char_traitsIcESaIcEEESt6vectorIS7_SaIS7_EEEEPS7_ET0_T_SG_SF_ = comdat any

$_ZNSt20__uninitialized_copyILb0EE13__uninit_copyIN9__gnu_cxx17__normal_iteratorIPKNSt7__cxx1112basic_stringIcSt11char_traitsIcESaIcEEESt6vectorIS9_SaIS9_EEEEPS9_EET0_T_SI_SH_ = comdat any

$_ZSt10_ConstructINSt7__cxx1112basic_stringIcSt11char_traitsIcESaIcEEEJRKS5_EEvPT_DpOT0_ = comdat any

$_ZSt7forwardIRKNSt7__cxx1112basic_stringIcSt11char_traitsIcESaIcEEEEOT_RNSt16remove_referenceIS8_E4typeE = comdat any

$_ZNKSt6vectorISt4pairIccESaIS1_EE4sizeEv = comdat any

$_ZN9__gnu_cxx14__alloc_traitsISaISt4pairIccEEE17_S_select_on_copyERKS3_ = comdat any

$_ZNKSt12_Vector_baseISt4pairIccESaIS1_EE19_M_get_Tp_allocatorEv = comdat any

$_ZNSt12_Vector_baseISt4pairIccESaIS1_EEC2EmRKS2_ = comdat any

$_ZNSaISt4pairIccEED2Ev = comdat any

$_ZSt22__uninitialized_copy_aIN9__gnu_cxx17__normal_iteratorIPKSt4pairIccESt6vectorIS3_SaIS3_EEEEPS3_S3_ET0_T_SC_SB_RSaIT1_E = comdat any

$_ZNSt16allocator_traitsISaISt4pairIccEEE37select_on_container_copy_constructionERKS2_ = comdat any

$_ZNSaISt4pairIccEEC2ERKS1_ = comdat any

$_ZNSt12_Vector_baseISt4pairIccESaIS1_EE12_Vector_implC2ERKS2_ = comdat any

$_ZNSt12_Vector_baseISt4pairIccESaIS1_EE17_M_create_storageEm = comdat any

$_ZNSt12_Vector_baseISt4pairIccESaIS1_EE11_M_allocateEm = comdat any

$_ZNSt16allocator_traitsISaISt4pairIccEEE8allocateERS2_m = comdat any

$_ZN9__gnu_cxx13new_allocatorISt4pairIccEE8allocateEmPKv = comdat any

$_ZNK9__gnu_cxx13new_allocatorISt4pairIccEE8max_sizeEv = comdat any

$_ZSt18uninitialized_copyIN9__gnu_cxx17__normal_iteratorIPKSt4pairIccESt6vectorIS3_SaIS3_EEEEPS3_ET0_T_SC_SB_ = comdat any

$_ZNSt20__uninitialized_copyILb0EE13__uninit_copyIN9__gnu_cxx17__normal_iteratorIPKSt4pairIccESt6vectorIS5_SaIS5_EEEEPS5_EET0_T_SE_SD_ = comdat any

$_ZSt10_ConstructISt4pairIccEJRKS1_EEvPT_DpOT0_ = comdat any

$_ZSt11__addressofISt4pairIccEEPT_RS2_ = comdat any

$_ZSt7forwardIRKSt4pairIccEEOT_RNSt16remove_referenceIS4_E4typeE = comdat any

$_ZN9__gnu_cxx14__alloc_traitsISaINSt7__cxx1112regex_traitsIcE10_RegexMaskEEE17_S_select_on_copyERKS5_ = comdat any

$_ZNSt12_Vector_baseINSt7__cxx1112regex_traitsIcE10_RegexMaskESaIS3_EEC2EmRKS4_ = comdat any

$_ZNSaINSt7__cxx1112regex_traitsIcE10_RegexMaskEED2Ev = comdat any

$_ZSt22__uninitialized_copy_aIN9__gnu_cxx17__normal_iteratorIPKNSt7__cxx1112regex_traitsIcE10_RegexMaskESt6vectorIS5_SaIS5_EEEEPS5_S5_ET0_T_SE_SD_RSaIT1_E = comdat any

$_ZNSt16allocator_traitsISaINSt7__cxx1112regex_traitsIcE10_RegexMaskEEE37select_on_container_copy_constructionERKS4_ = comdat any

$_ZNSaINSt7__cxx1112regex_traitsIcE10_RegexMaskEEC2ERKS3_ = comdat any

$_ZNSt12_Vector_baseINSt7__cxx1112regex_traitsIcE10_RegexMaskESaIS3_EE12_Vector_implC2ERKS4_ = comdat any

$_ZNSt12_Vector_baseINSt7__cxx1112regex_traitsIcE10_RegexMaskESaIS3_EE17_M_create_storageEm = comdat any

$_ZSt18uninitialized_copyIN9__gnu_cxx17__normal_iteratorIPKNSt7__cxx1112regex_traitsIcE10_RegexMaskESt6vectorIS5_SaIS5_EEEEPS5_ET0_T_SE_SD_ = comdat any

$_ZNSt20__uninitialized_copyILb0EE13__uninit_copyIN9__gnu_cxx17__normal_iteratorIPKNSt7__cxx1112regex_traitsIcE10_RegexMaskESt6vectorIS7_SaIS7_EEEEPS7_EET0_T_SG_SF_ = comdat any

$_ZSt10_ConstructINSt7__cxx1112regex_traitsIcE10_RegexMaskEJRKS3_EEvPT_DpOT0_ = comdat any

$_ZNSt8__detail15_BracketMatcherINSt7__cxx1112regex_traitsIcEELb0ELb1EEC2EbRKS3_ = comdat any

$_ZNSt8__detail15_BracketMatcherINSt7__cxx1112regex_traitsIcEELb0ELb1EE22_M_add_character_classERKNS1_12basic_stringIcSt11char_traitsIcESaIcEEEb = comdat any

$_ZNSt8__detail15_BracketMatcherINSt7__cxx1112regex_traitsIcEELb0ELb1EE8_M_readyEv = comdat any

$_ZSt4moveIRNSt8__detail15_BracketMatcherINSt7__cxx1112regex_traitsIcEELb0ELb1EEEEONSt16remove_referenceIT_E4typeEOS8_ = comdat any

$_ZNSt8__detail15_BracketMatcherINSt7__cxx1112regex_traitsIcEELb0ELb1EEC2EOS4_ = comdat any

$_ZNSt8functionIFbcEEC2INSt8__detail15_BracketMatcherINSt7__cxx1112regex_traitsIcEELb0ELb1EEEvvEET_ = comdat any

$_ZNSt8__detail15_BracketMatcherINSt7__cxx1112regex_traitsIcEELb0ELb1EED2Ev = comdat any

$_ZNSt6vectorISt4pairINSt7__cxx1112basic_stringIcSt11char_traitsIcESaIcEEES6_ESaIS7_EEC2Ev = comdat any

$_ZNSt6vectorISt4pairINSt7__cxx1112basic_stringIcSt11char_traitsIcESaIcEEES6_ESaIS7_EED2Ev = comdat any

$_ZNSt12_Vector_baseISt4pairINSt7__cxx1112basic_stringIcSt11char_traitsIcESaIcEEES6_ESaIS7_EEC2Ev = comdat any

$_ZNSt12_Vector_baseISt4pairINSt7__cxx1112basic_stringIcSt11char_traitsIcESaIcEEES6_ESaIS7_EE12_Vector_implC2Ev = comdat any

$_ZNSaISt4pairINSt7__cxx1112basic_stringIcSt11char_traitsIcESaIcEEES5_EEC2Ev = comdat any

$_ZN9__gnu_cxx13new_allocatorISt4pairINSt7__cxx1112basic_stringIcSt11char_traitsIcESaIcEEES7_EEC2Ev = comdat any

$_ZSt8_DestroyIPSt4pairINSt7__cxx1112basic_stringIcSt11char_traitsIcESaIcEEES6_ES7_EvT_S9_RSaIT0_E = comdat any

$_ZNSt12_Vector_baseISt4pairINSt7__cxx1112basic_stringIcSt11char_traitsIcESaIcEEES6_ESaIS7_EE19_M_get_Tp_allocatorEv = comdat any

$_ZNSt12_Vector_baseISt4pairINSt7__cxx1112basic_stringIcSt11char_traitsIcESaIcEEES6_ESaIS7_EED2Ev = comdat any

$_ZSt8_DestroyIPSt4pairINSt7__cxx1112basic_stringIcSt11char_traitsIcESaIcEEES6_EEvT_S9_ = comdat any

$_ZNSt12_Destroy_auxILb0EE9__destroyIPSt4pairINSt7__cxx1112basic_stringIcSt11char_traitsIcESaIcEEES8_EEEvT_SB_ = comdat any

$_ZSt8_DestroyISt4pairINSt7__cxx1112basic_stringIcSt11char_traitsIcESaIcEEES6_EEvPT_ = comdat any

$_ZSt11__addressofISt4pairINSt7__cxx1112basic_stringIcSt11char_traitsIcESaIcEEES6_EEPT_RS8_ = comdat any

$_ZNSt4pairINSt7__cxx1112basic_stringIcSt11char_traitsIcESaIcEEES5_ED2Ev = comdat any

$_ZNSt12_Vector_baseISt4pairINSt7__cxx1112basic_stringIcSt11char_traitsIcESaIcEEES6_ESaIS7_EE13_M_deallocateEPS7_m = comdat any

$_ZNSt12_Vector_baseISt4pairINSt7__cxx1112basic_stringIcSt11char_traitsIcESaIcEEES6_ESaIS7_EE12_Vector_implD2Ev = comdat any

$_ZNSt16allocator_traitsISaISt4pairINSt7__cxx1112basic_stringIcSt11char_traitsIcESaIcEEES6_EEE10deallocateERS8_PS7_m = comdat any

$_ZN9__gnu_cxx13new_allocatorISt4pairINSt7__cxx1112basic_stringIcSt11char_traitsIcESaIcEEES7_EE10deallocateEPS8_m = comdat any

$_ZN9__gnu_cxx13new_allocatorISt4pairINSt7__cxx1112basic_stringIcSt11char_traitsIcESaIcEEES7_EED2Ev = comdat any

$_ZNSt8__detail15_BracketMatcherINSt7__cxx1112regex_traitsIcEELb0ELb1EE13_M_make_cacheESt17integral_constantIbLb1EE = comdat any

$_ZNKSt8__detail15_BracketMatcherINSt7__cxx1112regex_traitsIcEELb0ELb1EE8_M_applyEcSt17integral_constantIbLb0EE = comdat any

$_ZNKSt8__detail16_RegexTranslatorINSt7__cxx1112regex_traitsIcEELb0ELb1EE12_M_transformEc = comdat any

$_ZNKSt6vectorISt4pairINSt7__cxx1112basic_stringIcSt11char_traitsIcESaIcEEES6_ESaIS7_EE5beginEv = comdat any

$_ZNKSt6vectorISt4pairINSt7__cxx1112basic_stringIcSt11char_traitsIcESaIcEEES6_ESaIS7_EE3endEv = comdat any

$_ZN9__gnu_cxxneIPKSt4pairINSt7__cxx1112basic_stringIcSt11char_traitsIcESaIcEEES7_ESt6vectorIS8_SaIS8_EEEEbRKNS_17__normal_iteratorIT_T0_EESJ_ = comdat any

$_ZNK9__gnu_cxx17__normal_iteratorIPKSt4pairINSt7__cxx1112basic_stringIcSt11char_traitsIcESaIcEEES7_ESt6vectorIS8_SaIS8_EEEdeEv = comdat any

$_ZStleIcSt11char_traitsIcESaIcEEbRKNSt7__cxx1112basic_stringIT_T0_T1_EESA_ = comdat any

$_ZN9__gnu_cxx17__normal_iteratorIPKSt4pairINSt7__cxx1112basic_stringIcSt11char_traitsIcESaIcEEES7_ESt6vectorIS8_SaIS8_EEEppEv = comdat any

$_ZNKSt8__detail16_RegexTranslatorINSt7__cxx1112regex_traitsIcEELb0ELb1EE17_M_transform_implEcSt17integral_constantIbLb1EE = comdat any

$_ZNKSt7__cxx1112regex_traitsIcE9transformIN9__gnu_cxx17__normal_iteratorIPcNS_12basic_stringIcSt11char_traitsIcESaIcEEEEEEESA_T_SC_ = comdat any

$_ZNSt7__cxx1112basic_stringIcSt11char_traitsIcESaIcEEC2IN9__gnu_cxx17__normal_iteratorIPcS4_EEvEET_SA_RKS3_ = comdat any

$_ZNSt7__cxx1112basic_stringIcSt11char_traitsIcESaIcEE12_M_constructIN9__gnu_cxx17__normal_iteratorIPcS4_EEEEvT_SA_ = comdat any

$_ZNSt7__cxx1112basic_stringIcSt11char_traitsIcESaIcEE16_M_construct_auxIN9__gnu_cxx17__normal_iteratorIPcS4_EEEEvT_SA_St12__false_type = comdat any

$_ZNSt7__cxx1112basic_stringIcSt11char_traitsIcESaIcEE12_M_constructIN9__gnu_cxx17__normal_iteratorIPcS4_EEEEvT_SA_St20forward_iterator_tag = comdat any

$_ZN9__gnu_cxx17__is_null_pointerINS_17__normal_iteratorIPcNSt7__cxx1112basic_stringIcSt11char_traitsIcESaIcEEEEEEEbT_ = comdat any

$_ZN9__gnu_cxxneIPcNSt7__cxx1112basic_stringIcSt11char_traitsIcESaIcEEEEEbRKNS_17__normal_iteratorIT_T0_EESD_ = comdat any

$_ZSt8distanceIN9__gnu_cxx17__normal_iteratorIPcNSt7__cxx1112basic_stringIcSt11char_traitsIcESaIcEEEEEENSt15iterator_traitsIT_E15difference_typeESB_SB_ = comdat any

$_ZNK9__gnu_cxx17__normal_iteratorIPcNSt7__cxx1112basic_stringIcSt11char_traitsIcESaIcEEEE4baseEv = comdat any

$_ZSt10__distanceIN9__gnu_cxx17__normal_iteratorIPcNSt7__cxx1112basic_stringIcSt11char_traitsIcESaIcEEEEEENSt15iterator_traitsIT_E15difference_typeESB_SB_St26random_access_iterator_tag = comdat any

$_ZSt19__iterator_categoryIN9__gnu_cxx17__normal_iteratorIPcNSt7__cxx1112basic_stringIcSt11char_traitsIcESaIcEEEEEENSt15iterator_traitsIT_E17iterator_categoryERKSB_ = comdat any

$_ZN9__gnu_cxxmiIPcNSt7__cxx1112basic_stringIcSt11char_traitsIcESaIcEEEEENS_17__normal_iteratorIT_T0_E15difference_typeERKSB_SE_ = comdat any

$_ZN9__gnu_cxx17__normal_iteratorIPKSt4pairINSt7__cxx1112basic_stringIcSt11char_traitsIcESaIcEEES7_ESt6vectorIS8_SaIS8_EEEC2ERKSA_ = comdat any

$_ZNK9__gnu_cxx17__normal_iteratorIPKSt4pairINSt7__cxx1112basic_stringIcSt11char_traitsIcESaIcEEES7_ESt6vectorIS8_SaIS8_EEE4baseEv = comdat any

$_ZNSt6vectorISt4pairINSt7__cxx1112basic_stringIcSt11char_traitsIcESaIcEEES6_ESaIS7_EEC2EOS9_ = comdat any

$_ZSt4moveIRSt6vectorISt4pairINSt7__cxx1112basic_stringIcSt11char_traitsIcESaIcEEES7_ESaIS8_EEEONSt16remove_referenceIT_E4typeEOSD_ = comdat any

$_ZNSt12_Vector_baseISt4pairINSt7__cxx1112basic_stringIcSt11char_traitsIcESaIcEEES6_ESaIS7_EEC2EOS9_ = comdat any

$_ZSt4moveIRSaISt4pairINSt7__cxx1112basic_stringIcSt11char_traitsIcESaIcEEES6_EEEONSt16remove_referenceIT_E4typeEOSB_ = comdat any

$_ZNSt12_Vector_baseISt4pairINSt7__cxx1112basic_stringIcSt11char_traitsIcESaIcEEES6_ESaIS7_EE12_Vector_implC2EOS8_ = comdat any

$_ZNSt12_Vector_baseISt4pairINSt7__cxx1112basic_stringIcSt11char_traitsIcESaIcEEES6_ESaIS7_EE12_Vector_impl12_M_swap_dataERSA_ = comdat any

$_ZN9__gnu_cxx13new_allocatorISt4pairINSt7__cxx1112basic_stringIcSt11char_traitsIcESaIcEEES7_EEC2ERKS9_ = comdat any

$_ZSt4swapIPSt4pairINSt7__cxx1112basic_stringIcSt11char_traitsIcESaIcEEES6_EEvRT_SA_ = comdat any

$_ZSt4moveIRPSt4pairINSt7__cxx1112basic_stringIcSt11char_traitsIcESaIcEEES6_EEONSt16remove_referenceIT_E4typeEOSB_ = comdat any

$_ZNSt14_Function_base13_Base_managerINSt8__detail15_BracketMatcherINSt7__cxx1112regex_traitsIcEELb0ELb1EEEE21_M_not_empty_functionIS6_EEbRKT_ = comdat any

$_ZNSt14_Function_base13_Base_managerINSt8__detail15_BracketMatcherINSt7__cxx1112regex_traitsIcEELb0ELb1EEEE15_M_init_functorERSt9_Any_dataOS6_ = comdat any

$_ZNSt17_Function_handlerIFbcENSt8__detail15_BracketMatcherINSt7__cxx1112regex_traitsIcEELb0ELb1EEEE9_M_invokeERKSt9_Any_dataOc = comdat any

$_ZNSt14_Function_base13_Base_managerINSt8__detail15_BracketMatcherINSt7__cxx1112regex_traitsIcEELb0ELb1EEEE10_M_managerERSt9_Any_dataRKS8_St18_Manager_operation = comdat any

$_ZNSt14_Function_base13_Base_managerINSt8__detail15_BracketMatcherINSt7__cxx1112regex_traitsIcEELb0ELb1EEEE15_M_init_functorERSt9_Any_dataOS6_St17integral_constantIbLb0EE = comdat any

$_ZNSt9_Any_data9_M_accessIPNSt8__detail15_BracketMatcherINSt7__cxx1112regex_traitsIcEELb0ELb1EEEEERT_v = comdat any

$_ZNSt14_Function_base13_Base_managerINSt8__detail15_BracketMatcherINSt7__cxx1112regex_traitsIcEELb0ELb1EEEE14_M_get_pointerERKSt9_Any_data = comdat any

$_ZNKSt8__detail15_BracketMatcherINSt7__cxx1112regex_traitsIcEELb0ELb1EEclEc = comdat any

$_ZNKSt9_Any_data9_M_accessIPNSt8__detail15_BracketMatcherINSt7__cxx1112regex_traitsIcEELb0ELb1EEEEERKT_v = comdat any

$_ZNKSt8__detail15_BracketMatcherINSt7__cxx1112regex_traitsIcEELb0ELb1EE8_M_applyEcSt17integral_constantIbLb1EE = comdat any

$_ZNSt14_Function_base13_Base_managerINSt8__detail15_BracketMatcherINSt7__cxx1112regex_traitsIcEELb0ELb1EEEE8_M_cloneERSt9_Any_dataRKS8_St17integral_constantIbLb0EE = comdat any

$_ZNSt14_Function_base13_Base_managerINSt8__detail15_BracketMatcherINSt7__cxx1112regex_traitsIcEELb0ELb1EEEE10_M_destroyERSt9_Any_dataSt17integral_constantIbLb0EE = comdat any

$_ZNSt8__detail15_BracketMatcherINSt7__cxx1112regex_traitsIcEELb0ELb1EEC2ERKS4_ = comdat any

$_ZNSt6vectorISt4pairINSt7__cxx1112basic_stringIcSt11char_traitsIcESaIcEEES6_ESaIS7_EEC2ERKS9_ = comdat any

$_ZNKSt6vectorISt4pairINSt7__cxx1112basic_stringIcSt11char_traitsIcESaIcEEES6_ESaIS7_EE4sizeEv = comdat any

$_ZN9__gnu_cxx14__alloc_traitsISaISt4pairINSt7__cxx1112basic_stringIcSt11char_traitsIcESaIcEEES7_EEE17_S_select_on_copyERKS9_ = comdat any

$_ZNKSt12_Vector_baseISt4pairINSt7__cxx1112basic_stringIcSt11char_traitsIcESaIcEEES6_ESaIS7_EE19_M_get_Tp_allocatorEv = comdat any

$_ZNSt12_Vector_baseISt4pairINSt7__cxx1112basic_stringIcSt11char_traitsIcESaIcEEES6_ESaIS7_EEC2EmRKS8_ = comdat any

$_ZNSaISt4pairINSt7__cxx1112basic_stringIcSt11char_traitsIcESaIcEEES5_EED2Ev = comdat any

$_ZSt22__uninitialized_copy_aIN9__gnu_cxx17__normal_iteratorIPKSt4pairINSt7__cxx1112basic_stringIcSt11char_traitsIcESaIcEEES8_ESt6vectorIS9_SaIS9_EEEEPS9_S9_ET0_T_SI_SH_RSaIT1_E = comdat any

$_ZNSt16allocator_traitsISaISt4pairINSt7__cxx1112basic_stringIcSt11char_traitsIcESaIcEEES6_EEE37select_on_container_copy_constructionERKS8_ = comdat any

$_ZNSaISt4pairINSt7__cxx1112basic_stringIcSt11char_traitsIcESaIcEEES5_EEC2ERKS7_ = comdat any

$_ZNSt12_Vector_baseISt4pairINSt7__cxx1112basic_stringIcSt11char_traitsIcESaIcEEES6_ESaIS7_EE12_Vector_implC2ERKS8_ = comdat any

$_ZNSt12_Vector_baseISt4pairINSt7__cxx1112basic_stringIcSt11char_traitsIcESaIcEEES6_ESaIS7_EE17_M_create_storageEm = comdat any

$_ZNSt12_Vector_baseISt4pairINSt7__cxx1112basic_stringIcSt11char_traitsIcESaIcEEES6_ESaIS7_EE11_M_allocateEm = comdat any

$_ZNSt16allocator_traitsISaISt4pairINSt7__cxx1112basic_stringIcSt11char_traitsIcESaIcEEES6_EEE8allocateERS8_m = comdat any

$_ZN9__gnu_cxx13new_allocatorISt4pairINSt7__cxx1112basic_stringIcSt11char_traitsIcESaIcEEES7_EE8allocateEmPKv = comdat any

$_ZNK9__gnu_cxx13new_allocatorISt4pairINSt7__cxx1112basic_stringIcSt11char_traitsIcESaIcEEES7_EE8max_sizeEv = comdat any

$_ZSt18uninitialized_copyIN9__gnu_cxx17__normal_iteratorIPKSt4pairINSt7__cxx1112basic_stringIcSt11char_traitsIcESaIcEEES8_ESt6vectorIS9_SaIS9_EEEEPS9_ET0_T_SI_SH_ = comdat any

$_ZNSt20__uninitialized_copyILb0EE13__uninit_copyIN9__gnu_cxx17__normal_iteratorIPKSt4pairINSt7__cxx1112basic_stringIcSt11char_traitsIcESaIcEEESA_ESt6vectorISB_SaISB_EEEEPSB_EET0_T_SK_SJ_ = comdat any

$_ZSt10_ConstructISt4pairINSt7__cxx1112basic_stringIcSt11char_traitsIcESaIcEEES6_EJRKS7_EEvPT_DpOT0_ = comdat any

$_ZSt7forwardIRKSt4pairINSt7__cxx1112basic_stringIcSt11char_traitsIcESaIcEEES6_EEOT_RNSt16remove_referenceISA_E4typeE = comdat any

$_ZNSt4pairINSt7__cxx1112basic_stringIcSt11char_traitsIcESaIcEEES5_EC2ERKS6_ = comdat any

$_ZNSt8__detail15_BracketMatcherINSt7__cxx1112regex_traitsIcEELb1ELb0EEC2EbRKS3_ = comdat any

$_ZNSt8__detail15_BracketMatcherINSt7__cxx1112regex_traitsIcEELb1ELb0EE22_M_add_character_classERKNS1_12basic_stringIcSt11char_traitsIcESaIcEEEb = comdat any

$_ZNSt8__detail15_BracketMatcherINSt7__cxx1112regex_traitsIcEELb1ELb0EE8_M_readyEv = comdat any

$_ZSt4moveIRNSt8__detail15_BracketMatcherINSt7__cxx1112regex_traitsIcEELb1ELb0EEEEONSt16remove_referenceIT_E4typeEOS8_ = comdat any

$_ZNSt8__detail15_BracketMatcherINSt7__cxx1112regex_traitsIcEELb1ELb0EEC2EOS4_ = comdat any

$_ZNSt8functionIFbcEEC2INSt8__detail15_BracketMatcherINSt7__cxx1112regex_traitsIcEELb1ELb0EEEvvEET_ = comdat any

$_ZNSt8__detail15_BracketMatcherINSt7__cxx1112regex_traitsIcEELb1ELb0EED2Ev = comdat any

$_ZNSt8__detail15_BracketMatcherINSt7__cxx1112regex_traitsIcEELb1ELb0EE13_M_make_cacheESt17integral_constantIbLb1EE = comdat any

$_ZNKSt8__detail15_BracketMatcherINSt7__cxx1112regex_traitsIcEELb1ELb0EE8_M_applyEcSt17integral_constantIbLb0EE = comdat any

$_ZNKSt8__detail16_RegexTranslatorINSt7__cxx1112regex_traitsIcEELb1ELb0EE12_M_transformEc = comdat any

$_ZNKSt8__detail16_RegexTranslatorINSt7__cxx1112regex_traitsIcEELb1ELb0EE17_M_transform_implEcSt17integral_constantIbLb0EE = comdat any

$_ZNSt14_Function_base13_Base_managerINSt8__detail15_BracketMatcherINSt7__cxx1112regex_traitsIcEELb1ELb0EEEE21_M_not_empty_functionIS6_EEbRKT_ = comdat any

$_ZNSt14_Function_base13_Base_managerINSt8__detail15_BracketMatcherINSt7__cxx1112regex_traitsIcEELb1ELb0EEEE15_M_init_functorERSt9_Any_dataOS6_ = comdat any

$_ZNSt17_Function_handlerIFbcENSt8__detail15_BracketMatcherINSt7__cxx1112regex_traitsIcEELb1ELb0EEEE9_M_invokeERKSt9_Any_dataOc = comdat any

$_ZNSt14_Function_base13_Base_managerINSt8__detail15_BracketMatcherINSt7__cxx1112regex_traitsIcEELb1ELb0EEEE10_M_managerERSt9_Any_dataRKS8_St18_Manager_operation = comdat any

$_ZNSt14_Function_base13_Base_managerINSt8__detail15_BracketMatcherINSt7__cxx1112regex_traitsIcEELb1ELb0EEEE15_M_init_functorERSt9_Any_dataOS6_St17integral_constantIbLb0EE = comdat any

$_ZNSt9_Any_data9_M_accessIPNSt8__detail15_BracketMatcherINSt7__cxx1112regex_traitsIcEELb1ELb0EEEEERT_v = comdat any

$_ZNSt14_Function_base13_Base_managerINSt8__detail15_BracketMatcherINSt7__cxx1112regex_traitsIcEELb1ELb0EEEE14_M_get_pointerERKSt9_Any_data = comdat any

$_ZNKSt8__detail15_BracketMatcherINSt7__cxx1112regex_traitsIcEELb1ELb0EEclEc = comdat any

$_ZNKSt9_Any_data9_M_accessIPNSt8__detail15_BracketMatcherINSt7__cxx1112regex_traitsIcEELb1ELb0EEEEERKT_v = comdat any

$_ZNKSt8__detail15_BracketMatcherINSt7__cxx1112regex_traitsIcEELb1ELb0EE8_M_applyEcSt17integral_constantIbLb1EE = comdat any

$_ZNSt14_Function_base13_Base_managerINSt8__detail15_BracketMatcherINSt7__cxx1112regex_traitsIcEELb1ELb0EEEE8_M_cloneERSt9_Any_dataRKS8_St17integral_constantIbLb0EE = comdat any

$_ZNSt14_Function_base13_Base_managerINSt8__detail15_BracketMatcherINSt7__cxx1112regex_traitsIcEELb1ELb0EEEE10_M_destroyERSt9_Any_dataSt17integral_constantIbLb0EE = comdat any

$_ZNSt8__detail15_BracketMatcherINSt7__cxx1112regex_traitsIcEELb1ELb0EEC2ERKS4_ = comdat any

$_ZNSt8__detail15_BracketMatcherINSt7__cxx1112regex_traitsIcEELb1ELb1EEC2EbRKS3_ = comdat any

$_ZNSt8__detail15_BracketMatcherINSt7__cxx1112regex_traitsIcEELb1ELb1EE22_M_add_character_classERKNS1_12basic_stringIcSt11char_traitsIcESaIcEEEb = comdat any

$_ZNSt8__detail15_BracketMatcherINSt7__cxx1112regex_traitsIcEELb1ELb1EE8_M_readyEv = comdat any

$_ZSt4moveIRNSt8__detail15_BracketMatcherINSt7__cxx1112regex_traitsIcEELb1ELb1EEEEONSt16remove_referenceIT_E4typeEOS8_ = comdat any

$_ZNSt8__detail15_BracketMatcherINSt7__cxx1112regex_traitsIcEELb1ELb1EEC2EOS4_ = comdat any

$_ZNSt8functionIFbcEEC2INSt8__detail15_BracketMatcherINSt7__cxx1112regex_traitsIcEELb1ELb1EEEvvEET_ = comdat any

$_ZNSt8__detail15_BracketMatcherINSt7__cxx1112regex_traitsIcEELb1ELb1EED2Ev = comdat any

$_ZNSt8__detail15_BracketMatcherINSt7__cxx1112regex_traitsIcEELb1ELb1EE13_M_make_cacheESt17integral_constantIbLb1EE = comdat any

$_ZNKSt8__detail15_BracketMatcherINSt7__cxx1112regex_traitsIcEELb1ELb1EE8_M_applyEcSt17integral_constantIbLb0EE = comdat any

$_ZNKSt8__detail16_RegexTranslatorINSt7__cxx1112regex_traitsIcEELb1ELb1EE12_M_transformEc = comdat any

$_ZNKSt8__detail16_RegexTranslatorINSt7__cxx1112regex_traitsIcEELb1ELb1EE17_M_transform_implEcSt17integral_constantIbLb1EE = comdat any

$_ZNSt14_Function_base13_Base_managerINSt8__detail15_BracketMatcherINSt7__cxx1112regex_traitsIcEELb1ELb1EEEE21_M_not_empty_functionIS6_EEbRKT_ = comdat any

$_ZNSt14_Function_base13_Base_managerINSt8__detail15_BracketMatcherINSt7__cxx1112regex_traitsIcEELb1ELb1EEEE15_M_init_functorERSt9_Any_dataOS6_ = comdat any

$_ZNSt17_Function_handlerIFbcENSt8__detail15_BracketMatcherINSt7__cxx1112regex_traitsIcEELb1ELb1EEEE9_M_invokeERKSt9_Any_dataOc = comdat any

$_ZNSt14_Function_base13_Base_managerINSt8__detail15_BracketMatcherINSt7__cxx1112regex_traitsIcEELb1ELb1EEEE10_M_managerERSt9_Any_dataRKS8_St18_Manager_operation = comdat any

$_ZNSt14_Function_base13_Base_managerINSt8__detail15_BracketMatcherINSt7__cxx1112regex_traitsIcEELb1ELb1EEEE15_M_init_functorERSt9_Any_dataOS6_St17integral_constantIbLb0EE = comdat any

$_ZNSt9_Any_data9_M_accessIPNSt8__detail15_BracketMatcherINSt7__cxx1112regex_traitsIcEELb1ELb1EEEEERT_v = comdat any

$_ZNSt14_Function_base13_Base_managerINSt8__detail15_BracketMatcherINSt7__cxx1112regex_traitsIcEELb1ELb1EEEE14_M_get_pointerERKSt9_Any_data = comdat any

$_ZNKSt8__detail15_BracketMatcherINSt7__cxx1112regex_traitsIcEELb1ELb1EEclEc = comdat any

$_ZNKSt9_Any_data9_M_accessIPNSt8__detail15_BracketMatcherINSt7__cxx1112regex_traitsIcEELb1ELb1EEEEERKT_v = comdat any

$_ZNKSt8__detail15_BracketMatcherINSt7__cxx1112regex_traitsIcEELb1ELb1EE8_M_applyEcSt17integral_constantIbLb1EE = comdat any

$_ZNSt14_Function_base13_Base_managerINSt8__detail15_BracketMatcherINSt7__cxx1112regex_traitsIcEELb1ELb1EEEE8_M_cloneERSt9_Any_dataRKS8_St17integral_constantIbLb0EE = comdat any

$_ZNSt14_Function_base13_Base_managerINSt8__detail15_BracketMatcherINSt7__cxx1112regex_traitsIcEELb1ELb1EEEE10_M_destroyERSt9_Any_dataSt17integral_constantIbLb0EE = comdat any

$_ZNSt8__detail15_BracketMatcherINSt7__cxx1112regex_traitsIcEELb1ELb1EEC2ERKS4_ = comdat any

$_ZNSt8__detail9_CompilerINSt7__cxx1112regex_traitsIcEEE25_M_insert_bracket_matcherILb0ELb0EEEvb = comdat any

$_ZNSt8__detail9_CompilerINSt7__cxx1112regex_traitsIcEEE25_M_insert_bracket_matcherILb0ELb1EEEvb = comdat any

$_ZNSt8__detail9_CompilerINSt7__cxx1112regex_traitsIcEEE25_M_insert_bracket_matcherILb1ELb0EEEvb = comdat any

$_ZNSt8__detail9_CompilerINSt7__cxx1112regex_traitsIcEEE25_M_insert_bracket_matcherILb1ELb1EEEvb = comdat any

$_ZNSt4pairIbcEC2Ev = comdat any

$_ZNSt8__detail15_BracketMatcherINSt7__cxx1112regex_traitsIcEELb0ELb0EE11_M_add_charEc = comdat any

$_ZNSt8__detail9_CompilerINSt7__cxx1112regex_traitsIcEEE18_M_expression_termILb0ELb0EEEbRSt4pairIbcERNS_15_BracketMatcherIS3_XT_EXT0_EEE = comdat any

$_ZNSt6vectorIcSaIcEE9push_backEOc = comdat any

$_ZNSt6vectorIcSaIcEE12emplace_backIJcEEEvDpOT_ = comdat any

$_ZNSt16allocator_traitsISaIcEE9constructIcJcEEEvRS0_PT_DpOT0_ = comdat any

$_ZNSt6vectorIcSaIcEE19_M_emplace_back_auxIJcEEEvDpOT_ = comdat any

$_ZN9__gnu_cxx13new_allocatorIcE9constructIcJcEEEvPT_DpOT0_ = comdat any

$_ZNKSt6vectorIcSaIcEE12_M_check_lenEmPKc = comdat any

$_ZSt34__uninitialized_move_if_noexcept_aIPcS0_SaIcEET0_T_S3_S2_RT1_ = comdat any

$_ZNSt16allocator_traitsISaIcEE7destroyIcEEvRS0_PT_ = comdat any

$_ZNKSt6vectorIcSaIcEE8max_sizeEv = comdat any

$_ZNSt16allocator_traitsISaIcEE8max_sizeERKS0_ = comdat any

$_ZSt22__uninitialized_copy_aISt13move_iteratorIPcES1_cET0_T_S4_S3_RSaIT1_E = comdat any

$_ZSt32__make_move_if_noexcept_iteratorIPcSt13move_iteratorIS0_EET0_T_ = comdat any

$_ZSt18uninitialized_copyISt13move_iteratorIPcES1_ET0_T_S4_S3_ = comdat any

$_ZNSt20__uninitialized_copyILb1EE13__uninit_copyISt13move_iteratorIPcES3_EET0_T_S6_S5_ = comdat any

$_ZSt4copyISt13move_iteratorIPcES1_ET0_T_S4_S3_ = comdat any

$_ZSt14__copy_move_a2ILb1EPcS0_ET1_T0_S2_S1_ = comdat any

$_ZSt12__miter_baseISt13move_iteratorIPcEENSt11_Miter_baseIT_E13iterator_typeES4_ = comdat any

$_ZNSt10_Iter_baseISt13move_iteratorIPcELb1EE7_S_baseES2_ = comdat any

$_ZNKSt13move_iteratorIPcE4baseEv = comdat any

$_ZNSt13move_iteratorIPcEC2ES0_ = comdat any

$_ZN9__gnu_cxx13new_allocatorIcE7destroyIcEEvPT_ = comdat any

$_ZNSt8__detail15_BracketMatcherINSt7__cxx1112regex_traitsIcEELb0ELb0EE22_M_add_collate_elementERKNS1_12basic_stringIcSt11char_traitsIcESaIcEEE = comdat any

$_ZNSt8__detail15_BracketMatcherINSt7__cxx1112regex_traitsIcEELb0ELb0EE24_M_add_equivalence_classERKNS1_12basic_stringIcSt11char_traitsIcESaIcEEE = comdat any

$_ZNSt8__detail15_BracketMatcherINSt7__cxx1112regex_traitsIcEELb0ELb0EE13_M_make_rangeEcc = comdat any

$_ZNKSt8__detail8_ScannerIcE12_M_get_tokenEv = comdat any

$_ZNKSt7__cxx1112regex_traitsIcE18lookup_collatenameIPKcEENS_12basic_stringIcSt11char_traitsIcESaIcEEET_SA_ = comdat any

$_ZNKSt7__cxx1112regex_traitsIcE17transform_primaryIPKcEENS_12basic_stringIcSt11char_traitsIcESaIcEEET_SA_ = comdat any

$_ZNSt6vectorINSt7__cxx1112basic_stringIcSt11char_traitsIcESaIcEEESaIS5_EE9push_backERKS5_ = comdat any

$_ZNSt6vectorIcSaIcEEC2IPKcvEET_S5_RKS0_ = comdat any

$_ZNSt6vectorIcSaIcEE22_M_initialize_dispatchIPKcEEvT_S5_St12__false_type = comdat any

$_ZNSt6vectorIcSaIcEE19_M_range_initializeIPKcEEvT_S5_St20forward_iterator_tag = comdat any

$_ZSt8distanceIPKcENSt15iterator_traitsIT_E15difference_typeES3_S3_ = comdat any

$_ZSt22__uninitialized_copy_aIPKcPccET0_T_S4_S3_RSaIT1_E = comdat any

$_ZSt10__distanceIPKcENSt15iterator_traitsIT_E15difference_typeES3_S3_St26random_access_iterator_tag = comdat any

$_ZSt19__iterator_categoryIPKcENSt15iterator_traitsIT_E17iterator_categoryERKS3_ = comdat any

$_ZSt18uninitialized_copyIPKcPcET0_T_S4_S3_ = comdat any

$_ZNSt20__uninitialized_copyILb1EE13__uninit_copyIPKcPcEET0_T_S6_S5_ = comdat any

$_ZSt4copyIPKcPcET0_T_S4_S3_ = comdat any

$_ZSt14__copy_move_a2ILb0EPKcPcET1_T0_S4_S3_ = comdat any

$_ZSt12__miter_baseIPKcENSt11_Miter_baseIT_E13iterator_typeES3_ = comdat any

$_ZSt12__niter_baseIPKcENSt11_Niter_baseIT_E13iterator_typeES3_ = comdat any

$_ZNSt10_Iter_baseIPKcLb0EE7_S_baseES1_ = comdat any

$_ZNSt16allocator_traitsISaINSt7__cxx1112basic_stringIcSt11char_traitsIcESaIcEEEEE9constructIS5_JRKS5_EEEvRS6_PT_DpOT0_ = comdat any

$_ZNSt6vectorINSt7__cxx1112basic_stringIcSt11char_traitsIcESaIcEEESaIS5_EE19_M_emplace_back_auxIJRKS5_EEEvDpOT_ = comdat any

$_ZN9__gnu_cxx13new_allocatorINSt7__cxx1112basic_stringIcSt11char_traitsIcESaIcEEEE9constructIS6_JRKS6_EEEvPT_DpOT0_ = comdat any

$_ZNKSt6vectorINSt7__cxx1112basic_stringIcSt11char_traitsIcESaIcEEESaIS5_EE12_M_check_lenEmPKc = comdat any

$_ZSt34__uninitialized_move_if_noexcept_aIPNSt7__cxx1112basic_stringIcSt11char_traitsIcESaIcEEES6_SaIS5_EET0_T_S9_S8_RT1_ = comdat any

$_ZNSt16allocator_traitsISaINSt7__cxx1112basic_stringIcSt11char_traitsIcESaIcEEEEE7destroyIS5_EEvRS6_PT_ = comdat any

$_ZNKSt6vectorINSt7__cxx1112basic_stringIcSt11char_traitsIcESaIcEEESaIS5_EE8max_sizeEv = comdat any

$_ZNSt16allocator_traitsISaINSt7__cxx1112basic_stringIcSt11char_traitsIcESaIcEEEEE8max_sizeERKS6_ = comdat any

$_ZSt22__uninitialized_copy_aISt13move_iteratorIPNSt7__cxx1112basic_stringIcSt11char_traitsIcESaIcEEEES7_S6_ET0_T_SA_S9_RSaIT1_E = comdat any

$_ZSt32__make_move_if_noexcept_iteratorIPNSt7__cxx1112basic_stringIcSt11char_traitsIcESaIcEEESt13move_iteratorIS6_EET0_T_ = comdat any

$_ZSt18uninitialized_copyISt13move_iteratorIPNSt7__cxx1112basic_stringIcSt11char_traitsIcESaIcEEEES7_ET0_T_SA_S9_ = comdat any

$_ZNSt20__uninitialized_copyILb0EE13__uninit_copyISt13move_iteratorIPNSt7__cxx1112basic_stringIcSt11char_traitsIcESaIcEEEES9_EET0_T_SC_SB_ = comdat any

$_ZStneIPNSt7__cxx1112basic_stringIcSt11char_traitsIcESaIcEEEEbRKSt13move_iteratorIT_ESB_ = comdat any

$_ZSt10_ConstructINSt7__cxx1112basic_stringIcSt11char_traitsIcESaIcEEEJS5_EEvPT_DpOT0_ = comdat any

$_ZNKSt13move_iteratorIPNSt7__cxx1112basic_stringIcSt11char_traitsIcESaIcEEEEdeEv = comdat any

$_ZNSt13move_iteratorIPNSt7__cxx1112basic_stringIcSt11char_traitsIcESaIcEEEEppEv = comdat any

$_ZSteqIPNSt7__cxx1112basic_stringIcSt11char_traitsIcESaIcEEEEbRKSt13move_iteratorIT_ESB_ = comdat any

$_ZNKSt13move_iteratorIPNSt7__cxx1112basic_stringIcSt11char_traitsIcESaIcEEEE4baseEv = comdat any

$_ZSt7forwardINSt7__cxx1112basic_stringIcSt11char_traitsIcESaIcEEEEOT_RNSt16remove_referenceIS6_E4typeE = comdat any

$_ZNSt13move_iteratorIPNSt7__cxx1112basic_stringIcSt11char_traitsIcESaIcEEEEC2ES6_ = comdat any

$_ZN9__gnu_cxx13new_allocatorINSt7__cxx1112basic_stringIcSt11char_traitsIcESaIcEEEE7destroyIS6_EEvPT_ = comdat any

$_ZNSt6vectorISt4pairIccESaIS1_EE9push_backEOS1_ = comdat any

$_ZSt9make_pairIccESt4pairINSt17__decay_and_stripIT_E6__typeENS1_IT0_E6__typeEEOS2_OS5_ = comdat any

$_ZNSt6vectorISt4pairIccESaIS1_EE12emplace_backIJS1_EEEvDpOT_ = comdat any

$_ZSt4moveIRSt4pairIccEEONSt16remove_referenceIT_E4typeEOS4_ = comdat any

$_ZNSt16allocator_traitsISaISt4pairIccEEE9constructIS1_JS1_EEEvRS2_PT_DpOT0_ = comdat any

$_ZSt7forwardISt4pairIccEEOT_RNSt16remove_referenceIS2_E4typeE = comdat any

$_ZNSt6vectorISt4pairIccESaIS1_EE19_M_emplace_back_auxIJS1_EEEvDpOT_ = comdat any

$_ZN9__gnu_cxx13new_allocatorISt4pairIccEE9constructIS2_JS2_EEEvPT_DpOT0_ = comdat any

$_ZNKSt6vectorISt4pairIccESaIS1_EE12_M_check_lenEmPKc = comdat any

$_ZSt34__uninitialized_move_if_noexcept_aIPSt4pairIccES2_SaIS1_EET0_T_S5_S4_RT1_ = comdat any

$_ZNSt16allocator_traitsISaISt4pairIccEEE7destroyIS1_EEvRS2_PT_ = comdat any

$_ZNKSt6vectorISt4pairIccESaIS1_EE8max_sizeEv = comdat any

$_ZNSt16allocator_traitsISaISt4pairIccEEE8max_sizeERKS2_ = comdat any

$_ZSt22__uninitialized_copy_aISt13move_iteratorIPSt4pairIccEES3_S2_ET0_T_S6_S5_RSaIT1_E = comdat any

$_ZSt32__make_move_if_noexcept_iteratorIPSt4pairIccESt13move_iteratorIS2_EET0_T_ = comdat any

$_ZSt18uninitialized_copyISt13move_iteratorIPSt4pairIccEES3_ET0_T_S6_S5_ = comdat any

$_ZNSt20__uninitialized_copyILb0EE13__uninit_copyISt13move_iteratorIPSt4pairIccEES5_EET0_T_S8_S7_ = comdat any

$_ZStneIPSt4pairIccEEbRKSt13move_iteratorIT_ES7_ = comdat any

$_ZSt10_ConstructISt4pairIccEJS1_EEvPT_DpOT0_ = comdat any

$_ZNKSt13move_iteratorIPSt4pairIccEEdeEv = comdat any

$_ZNSt13move_iteratorIPSt4pairIccEEppEv = comdat any

$_ZSteqIPSt4pairIccEEbRKSt13move_iteratorIT_ES7_ = comdat any

$_ZNKSt13move_iteratorIPSt4pairIccEE4baseEv = comdat any

$_ZNSt13move_iteratorIPSt4pairIccEEC2ES2_ = comdat any

$_ZN9__gnu_cxx13new_allocatorISt4pairIccEE7destroyIS2_EEvPT_ = comdat any

$_ZNSt8__detail15_BracketMatcherINSt7__cxx1112regex_traitsIcEELb0ELb1EE11_M_add_charEc = comdat any

$_ZNSt8__detail9_CompilerINSt7__cxx1112regex_traitsIcEEE18_M_expression_termILb0ELb1EEEbRSt4pairIbcERNS_15_BracketMatcherIS3_XT_EXT0_EEE = comdat any

$_ZNSt8__detail15_BracketMatcherINSt7__cxx1112regex_traitsIcEELb0ELb1EE22_M_add_collate_elementERKNS1_12basic_stringIcSt11char_traitsIcESaIcEEE = comdat any

$_ZNSt8__detail15_BracketMatcherINSt7__cxx1112regex_traitsIcEELb0ELb1EE24_M_add_equivalence_classERKNS1_12basic_stringIcSt11char_traitsIcESaIcEEE = comdat any

$_ZNSt8__detail15_BracketMatcherINSt7__cxx1112regex_traitsIcEELb0ELb1EE13_M_make_rangeEcc = comdat any

$_ZNSt6vectorISt4pairINSt7__cxx1112basic_stringIcSt11char_traitsIcESaIcEEES6_ESaIS7_EE9push_backEOS7_ = comdat any

$_ZSt9make_pairINSt7__cxx1112basic_stringIcSt11char_traitsIcESaIcEEES5_ESt4pairINSt17__decay_and_stripIT_E6__typeENS7_IT0_E6__typeEEOS8_OSB_ = comdat any

$_ZNSt6vectorISt4pairINSt7__cxx1112basic_stringIcSt11char_traitsIcESaIcEEES6_ESaIS7_EE12emplace_backIJS7_EEEvDpOT_ = comdat any

$_ZSt4moveIRSt4pairINSt7__cxx1112basic_stringIcSt11char_traitsIcESaIcEEES6_EEONSt16remove_referenceIT_E4typeEOSA_ = comdat any

$_ZNSt16allocator_traitsISaISt4pairINSt7__cxx1112basic_stringIcSt11char_traitsIcESaIcEEES6_EEE9constructIS7_JS7_EEEvRS8_PT_DpOT0_ = comdat any

$_ZSt7forwardISt4pairINSt7__cxx1112basic_stringIcSt11char_traitsIcESaIcEEES6_EEOT_RNSt16remove_referenceIS8_E4typeE = comdat any

$_ZNSt6vectorISt4pairINSt7__cxx1112basic_stringIcSt11char_traitsIcESaIcEEES6_ESaIS7_EE19_M_emplace_back_auxIJS7_EEEvDpOT_ = comdat any

$_ZN9__gnu_cxx13new_allocatorISt4pairINSt7__cxx1112basic_stringIcSt11char_traitsIcESaIcEEES7_EE9constructIS8_JS8_EEEvPT_DpOT0_ = comdat any

$_ZNSt4pairINSt7__cxx1112basic_stringIcSt11char_traitsIcESaIcEEES5_EC2EOS6_ = comdat any

$_ZNKSt6vectorISt4pairINSt7__cxx1112basic_stringIcSt11char_traitsIcESaIcEEES6_ESaIS7_EE12_M_check_lenEmPKc = comdat any

$_ZSt34__uninitialized_move_if_noexcept_aIPSt4pairINSt7__cxx1112basic_stringIcSt11char_traitsIcESaIcEEES6_ES8_SaIS7_EET0_T_SB_SA_RT1_ = comdat any

$_ZNSt16allocator_traitsISaISt4pairINSt7__cxx1112basic_stringIcSt11char_traitsIcESaIcEEES6_EEE7destroyIS7_EEvRS8_PT_ = comdat any

$_ZNKSt6vectorISt4pairINSt7__cxx1112basic_stringIcSt11char_traitsIcESaIcEEES6_ESaIS7_EE8max_sizeEv = comdat any

$_ZNSt16allocator_traitsISaISt4pairINSt7__cxx1112basic_stringIcSt11char_traitsIcESaIcEEES6_EEE8max_sizeERKS8_ = comdat any

$_ZSt22__uninitialized_copy_aISt13move_iteratorIPSt4pairINSt7__cxx1112basic_stringIcSt11char_traitsIcESaIcEEES7_EES9_S8_ET0_T_SC_SB_RSaIT1_E = comdat any

$_ZSt32__make_move_if_noexcept_iteratorIPSt4pairINSt7__cxx1112basic_stringIcSt11char_traitsIcESaIcEEES6_ESt13move_iteratorIS8_EET0_T_ = comdat any

$_ZSt18uninitialized_copyISt13move_iteratorIPSt4pairINSt7__cxx1112basic_stringIcSt11char_traitsIcESaIcEEES7_EES9_ET0_T_SC_SB_ = comdat any

$_ZNSt20__uninitialized_copyILb0EE13__uninit_copyISt13move_iteratorIPSt4pairINSt7__cxx1112basic_stringIcSt11char_traitsIcESaIcEEES9_EESB_EET0_T_SE_SD_ = comdat any

$_ZStneIPSt4pairINSt7__cxx1112basic_stringIcSt11char_traitsIcESaIcEEES6_EEbRKSt13move_iteratorIT_ESD_ = comdat any

$_ZSt10_ConstructISt4pairINSt7__cxx1112basic_stringIcSt11char_traitsIcESaIcEEES6_EJS7_EEvPT_DpOT0_ = comdat any

$_ZNKSt13move_iteratorIPSt4pairINSt7__cxx1112basic_stringIcSt11char_traitsIcESaIcEEES6_EEdeEv = comdat any

$_ZNSt13move_iteratorIPSt4pairINSt7__cxx1112basic_stringIcSt11char_traitsIcESaIcEEES6_EEppEv = comdat any

$_ZSteqIPSt4pairINSt7__cxx1112basic_stringIcSt11char_traitsIcESaIcEEES6_EEbRKSt13move_iteratorIT_ESD_ = comdat any

$_ZNKSt13move_iteratorIPSt4pairINSt7__cxx1112basic_stringIcSt11char_traitsIcESaIcEEES6_EE4baseEv = comdat any

$_ZNSt13move_iteratorIPSt4pairINSt7__cxx1112basic_stringIcSt11char_traitsIcESaIcEEES6_EEC2ES8_ = comdat any

$_ZN9__gnu_cxx13new_allocatorISt4pairINSt7__cxx1112basic_stringIcSt11char_traitsIcESaIcEEES7_EE7destroyIS8_EEvPT_ = comdat any

$_ZNSt4pairINSt7__cxx1112basic_stringIcSt11char_traitsIcESaIcEEES5_EC2IS5_S5_vEEOT_OT0_ = comdat any

$_ZNSt8__detail15_BracketMatcherINSt7__cxx1112regex_traitsIcEELb1ELb0EE11_M_add_charEc = comdat any

$_ZNSt8__detail9_CompilerINSt7__cxx1112regex_traitsIcEEE18_M_expression_termILb1ELb0EEEbRSt4pairIbcERNS_15_BracketMatcherIS3_XT_EXT0_EEE = comdat any

$_ZNSt8__detail15_BracketMatcherINSt7__cxx1112regex_traitsIcEELb1ELb0EE22_M_add_collate_elementERKNS1_12basic_stringIcSt11char_traitsIcESaIcEEE = comdat any

$_ZNSt8__detail15_BracketMatcherINSt7__cxx1112regex_traitsIcEELb1ELb0EE24_M_add_equivalence_classERKNS1_12basic_stringIcSt11char_traitsIcESaIcEEE = comdat any

$_ZNSt8__detail15_BracketMatcherINSt7__cxx1112regex_traitsIcEELb1ELb0EE13_M_make_rangeEcc = comdat any

$_ZNSt8__detail15_BracketMatcherINSt7__cxx1112regex_traitsIcEELb1ELb1EE11_M_add_charEc = comdat any

$_ZNSt8__detail9_CompilerINSt7__cxx1112regex_traitsIcEEE18_M_expression_termILb1ELb1EEEbRSt4pairIbcERNS_15_BracketMatcherIS3_XT_EXT0_EEE = comdat any

$_ZNSt8__detail15_BracketMatcherINSt7__cxx1112regex_traitsIcEELb1ELb1EE22_M_add_collate_elementERKNS1_12basic_stringIcSt11char_traitsIcESaIcEEE = comdat any

$_ZNSt8__detail15_BracketMatcherINSt7__cxx1112regex_traitsIcEELb1ELb1EE24_M_add_equivalence_classERKNS1_12basic_stringIcSt11char_traitsIcESaIcEEE = comdat any

$_ZNSt8__detail15_BracketMatcherINSt7__cxx1112regex_traitsIcEELb1ELb1EE13_M_make_rangeEcc = comdat any

$_ZZNSt8__detail9_CompilerINSt7__cxx1112regex_traitsIcEEE13_M_quantifierEvENKUlvE_clEv = comdat any

$_ZNSt8__detail4_NFAINSt7__cxx1112regex_traitsIcEEE16_M_insert_repeatEllb = comdat any

$_ZNKSt5stackINSt8__detail9_StateSeqINSt7__cxx1112regex_traitsIcEEEESt5dequeIS5_SaIS5_EEE5emptyEv = comdat any

$_ZNSt8__detail9_StateSeqINSt7__cxx1112regex_traitsIcEEE8_M_cloneEv = comdat any

$_ZNSt5dequeIlSaIlEEC2Ev = comdat any

$_ZNSt5stackIlSt5dequeIlSaIlEEEC2EOS2_ = comdat any

$_ZNSt5dequeIlSaIlEED2Ev = comdat any

$_ZNSt5stackIlSt5dequeIlSaIlEEE4pushERKl = comdat any

$_ZNKSt5stackIlSt5dequeIlSaIlEEE5emptyEv = comdat any

$_ZNSt5stackIlSt5dequeIlSaIlEEE3topEv = comdat any

$_ZNSt5stackIlSt5dequeIlSaIlEEE3popEv = comdat any

$_ZSt4swapIlEvRT_S1_ = comdat any

$_ZNSt5stackIlSt5dequeIlSaIlEEED2Ev = comdat any

$_ZNKSt5dequeINSt8__detail9_StateSeqINSt7__cxx1112regex_traitsIcEEEESaIS5_EE5emptyEv = comdat any

$_ZSteqINSt8__detail9_StateSeqINSt7__cxx1112regex_traitsIcEEEERS5_PS5_EbRKSt15_Deque_iteratorIT_T0_T1_ESE_ = comdat any

$_ZNSt3mapIllSt4lessIlESaISt4pairIKllEEEC2Ev = comdat any

$_ZNSt3mapIllSt4lessIlESaISt4pairIKllEEEixERS3_ = comdat any

$_ZNKSt3mapIllSt4lessIlESaISt4pairIKllEEE5countERS3_ = comdat any

$_ZNSt3mapIllSt4lessIlESaISt4pairIKllEEE5beginEv = comdat any

$_ZNSt3mapIllSt4lessIlESaISt4pairIKllEEE3endEv = comdat any

$_ZNKSt17_Rb_tree_iteratorISt4pairIKllEEneERKS3_ = comdat any

$_ZNKSt17_Rb_tree_iteratorISt4pairIKllEEdeEv = comdat any

$_ZNSt17_Rb_tree_iteratorISt4pairIKllEEppEv = comdat any

$_ZNSt3mapIllSt4lessIlESaISt4pairIKllEEED2Ev = comdat any

$_ZNSt8_Rb_treeIlSt4pairIKllESt10_Select1stIS2_ESt4lessIlESaIS2_EEC2Ev = comdat any

$_ZNSt8_Rb_treeIlSt4pairIKllESt10_Select1stIS2_ESt4lessIlESaIS2_EE13_Rb_tree_implIS6_Lb1EEC2Ev = comdat any

$_ZNSaISt13_Rb_tree_nodeISt4pairIKllEEEC2Ev = comdat any

$_ZNSt8_Rb_treeIlSt4pairIKllESt10_Select1stIS2_ESt4lessIlESaIS2_EE13_Rb_tree_implIS6_Lb1EE13_M_initializeEv = comdat any

$_ZNSaISt13_Rb_tree_nodeISt4pairIKllEEED2Ev = comdat any

$_ZN9__gnu_cxx13new_allocatorISt13_Rb_tree_nodeISt4pairIKllEEEC2Ev = comdat any

$_ZN9__gnu_cxx13new_allocatorISt13_Rb_tree_nodeISt4pairIKllEEED2Ev = comdat any

$_ZNSt3mapIllSt4lessIlESaISt4pairIKllEEE11lower_boundERS3_ = comdat any

$_ZNKSt17_Rb_tree_iteratorISt4pairIKllEEeqERKS3_ = comdat any

$_ZNKSt3mapIllSt4lessIlESaISt4pairIKllEEE8key_compEv = comdat any

$_ZNKSt4lessIlEclERKlS2_ = comdat any

$_ZNSt8_Rb_treeIlSt4pairIKllESt10_Select1stIS2_ESt4lessIlESaIS2_EE22_M_emplace_hint_uniqueIJRKSt21piecewise_construct_tSt5tupleIJRS1_EESD_IJEEEEESt17_Rb_tree_iteratorIS2_ESt23_Rb_tree_const_iteratorIS2_EDpOT_ = comdat any

$_ZNSt23_Rb_tree_const_iteratorISt4pairIKllEEC2ERKSt17_Rb_tree_iteratorIS2_E = comdat any

$_ZNSt5tupleIJRKlEEC2ES1_ = comdat any

$_ZNSt8_Rb_treeIlSt4pairIKllESt10_Select1stIS2_ESt4lessIlESaIS2_EE11lower_boundERS1_ = comdat any

$_ZNSt8_Rb_treeIlSt4pairIKllESt10_Select1stIS2_ESt4lessIlESaIS2_EE14_M_lower_boundEPSt13_Rb_tree_nodeIS2_ESB_RS1_ = comdat any

$_ZNSt8_Rb_treeIlSt4pairIKllESt10_Select1stIS2_ESt4lessIlESaIS2_EE8_M_beginEv = comdat any

$_ZNSt8_Rb_treeIlSt4pairIKllESt10_Select1stIS2_ESt4lessIlESaIS2_EE6_M_endEv = comdat any

$_ZNSt8_Rb_treeIlSt4pairIKllESt10_Select1stIS2_ESt4lessIlESaIS2_EE6_S_keyEPKSt13_Rb_tree_nodeIS2_E = comdat any

$_ZNSt8_Rb_treeIlSt4pairIKllESt10_Select1stIS2_ESt4lessIlESaIS2_EE7_S_leftEPSt18_Rb_tree_node_base = comdat any

$_ZNSt8_Rb_treeIlSt4pairIKllESt10_Select1stIS2_ESt4lessIlESaIS2_EE8_S_rightEPSt18_Rb_tree_node_base = comdat any

$_ZNSt17_Rb_tree_iteratorISt4pairIKllEEC2EPSt18_Rb_tree_node_base = comdat any

$_ZNKSt10_Select1stISt4pairIKllEEclERKS2_ = comdat any

$_ZNSt8_Rb_treeIlSt4pairIKllESt10_Select1stIS2_ESt4lessIlESaIS2_EE8_S_valueEPKSt13_Rb_tree_nodeIS2_E = comdat any

$_ZNKSt13_Rb_tree_nodeISt4pairIKllEE9_M_valptrEv = comdat any

$_ZNK9__gnu_cxx16__aligned_membufISt4pairIKllEE6_M_ptrEv = comdat any

$_ZNK9__gnu_cxx16__aligned_membufISt4pairIKllEE7_M_addrEv = comdat any

$_ZNKSt8_Rb_treeIlSt4pairIKllESt10_Select1stIS2_ESt4lessIlESaIS2_EE8key_compEv = comdat any

$_ZNSt8_Rb_treeIlSt4pairIKllESt10_Select1stIS2_ESt4lessIlESaIS2_EE14_M_create_nodeIJRKSt21piecewise_construct_tSt5tupleIJRS1_EESD_IJEEEEEPSt13_Rb_tree_nodeIS2_EDpOT_ = comdat any

$_ZSt7forwardIRKSt21piecewise_construct_tEOT_RNSt16remove_referenceIS3_E4typeE = comdat any

$_ZSt7forwardISt5tupleIJRKlEEEOT_RNSt16remove_referenceIS4_E4typeE = comdat any

$_ZSt7forwardISt5tupleIJEEEOT_RNSt16remove_referenceIS2_E4typeE = comdat any

$_ZNSt8_Rb_treeIlSt4pairIKllESt10_Select1stIS2_ESt4lessIlESaIS2_EE29_M_get_insert_hint_unique_posESt23_Rb_tree_const_iteratorIS2_ERS1_ = comdat any

$_ZNSt8_Rb_treeIlSt4pairIKllESt10_Select1stIS2_ESt4lessIlESaIS2_EE14_M_insert_nodeEPSt18_Rb_tree_node_baseSA_PSt13_Rb_tree_nodeIS2_E = comdat any

$_ZNSt8_Rb_treeIlSt4pairIKllESt10_Select1stIS2_ESt4lessIlESaIS2_EE12_M_drop_nodeEPSt13_Rb_tree_nodeIS2_E = comdat any

$_ZNSt8_Rb_treeIlSt4pairIKllESt10_Select1stIS2_ESt4lessIlESaIS2_EE11_M_get_nodeEv = comdat any

$_ZNSt8_Rb_treeIlSt4pairIKllESt10_Select1stIS2_ESt4lessIlESaIS2_EE17_M_construct_nodeIJRKSt21piecewise_construct_tSt5tupleIJRS1_EESD_IJEEEEEvPSt13_Rb_tree_nodeIS2_EDpOT_ = comdat any

$_ZNSt16allocator_traitsISaISt13_Rb_tree_nodeISt4pairIKllEEEE8allocateERS5_m = comdat any

$_ZNSt8_Rb_treeIlSt4pairIKllESt10_Select1stIS2_ESt4lessIlESaIS2_EE21_M_get_Node_allocatorEv = comdat any

$_ZN9__gnu_cxx13new_allocatorISt13_Rb_tree_nodeISt4pairIKllEEE8allocateEmPKv = comdat any

$_ZNK9__gnu_cxx13new_allocatorISt13_Rb_tree_nodeISt4pairIKllEEE8max_sizeEv = comdat any

$_ZNSt16allocator_traitsISaISt13_Rb_tree_nodeISt4pairIKllEEEE9constructIS3_JRKSt21piecewise_construct_tSt5tupleIJRS2_EESB_IJEEEEEvRS5_PT_DpOT0_ = comdat any

$_ZNSt13_Rb_tree_nodeISt4pairIKllEE9_M_valptrEv = comdat any

$_ZNSt8_Rb_treeIlSt4pairIKllESt10_Select1stIS2_ESt4lessIlESaIS2_EE11_M_put_nodeEPSt13_Rb_tree_nodeIS2_E = comdat any

$_ZN9__gnu_cxx13new_allocatorISt13_Rb_tree_nodeISt4pairIKllEEE9constructIS4_JRKSt21piecewise_construct_tSt5tupleIJRS3_EESB_IJEEEEEvPT_DpOT0_ = comdat any

$_ZNSt5tupleIJRKlEEC2EOS2_ = comdat any

$_ZNSt4pairIKllEC2IJRS0_EJEEESt21piecewise_construct_tSt5tupleIJDpT_EES5_IJDpT0_EE = comdat any

$_ZNSt11_Tuple_implILm0EJRKlEEC2EOS2_ = comdat any

$_ZSt7forwardIRKlEOT_RNSt16remove_referenceIS2_E4typeE = comdat any

$_ZNSt11_Tuple_implILm0EJRKlEE7_M_headERS2_ = comdat any

$_ZNSt10_Head_baseILm0ERKlLb0EEC2ES1_ = comdat any

$_ZNSt10_Head_baseILm0ERKlLb0EE7_M_headERS2_ = comdat any

$_ZNSt4pairIKllEC2IJRS0_EJLm0EEJEJEEERSt5tupleIJDpT_EERS4_IJDpT1_EESt12_Index_tupleIJXspT0_EEESD_IJXspT2_EEE = comdat any

$_ZSt3getILm0EJRKlEERNSt13tuple_elementIXT_ESt5tupleIJDpT0_EEE4typeERS6_ = comdat any

$_ZSt12__get_helperILm0ERKlJEERT0_RSt11_Tuple_implIXT_EJS2_DpT1_EE = comdat any

$_ZN9__gnu_cxx16__aligned_membufISt4pairIKllEE6_M_ptrEv = comdat any

$_ZN9__gnu_cxx16__aligned_membufISt4pairIKllEE7_M_addrEv = comdat any

$_ZNSt16allocator_traitsISaISt13_Rb_tree_nodeISt4pairIKllEEEE10deallocateERS5_PS4_m = comdat any

$_ZN9__gnu_cxx13new_allocatorISt13_Rb_tree_nodeISt4pairIKllEEE10deallocateEPS5_m = comdat any

$_ZNKSt23_Rb_tree_const_iteratorISt4pairIKllEE13_M_const_castEv = comdat any

$_ZNKSt8_Rb_treeIlSt4pairIKllESt10_Select1stIS2_ESt4lessIlESaIS2_EE4sizeEv = comdat any

$_ZNSt8_Rb_treeIlSt4pairIKllESt10_Select1stIS2_ESt4lessIlESaIS2_EE6_S_keyEPKSt18_Rb_tree_node_base = comdat any

$_ZNSt8_Rb_treeIlSt4pairIKllESt10_Select1stIS2_ESt4lessIlESaIS2_EE12_M_rightmostEv = comdat any

$_ZNSt4pairIPSt18_Rb_tree_node_baseS1_EC2IRS1_vEERKS1_OT_ = comdat any

$_ZNSt8_Rb_treeIlSt4pairIKllESt10_Select1stIS2_ESt4lessIlESaIS2_EE24_M_get_insert_unique_posERS1_ = comdat any

$_ZNSt8_Rb_treeIlSt4pairIKllESt10_Select1stIS2_ESt4lessIlESaIS2_EE11_M_leftmostEv = comdat any

$_ZNSt4pairIPSt18_Rb_tree_node_baseS1_EC2IRS1_S4_vEEOT_OT0_ = comdat any

$_ZNSt17_Rb_tree_iteratorISt4pairIKllEEmmEv = comdat any

$_ZNSt4pairIPSt18_Rb_tree_node_baseS1_EC2IRS1_vEEOT_RKS1_ = comdat any

$_ZNSt8_Rb_treeIlSt4pairIKllESt10_Select1stIS2_ESt4lessIlESaIS2_EE8_S_valueEPKSt18_Rb_tree_node_base = comdat any

$_ZSt7forwardIRPSt18_Rb_tree_node_baseEOT_RNSt16remove_referenceIS3_E4typeE = comdat any

$_ZNSt8_Rb_treeIlSt4pairIKllESt10_Select1stIS2_ESt4lessIlESaIS2_EE5beginEv = comdat any

$_ZNSt4pairIPSt18_Rb_tree_node_baseS1_EC2IRPSt13_Rb_tree_nodeIS_IKllEES9_vEEOT_OT0_ = comdat any

$_ZSt7forwardIRPSt13_Rb_tree_nodeISt4pairIKllEEEOT_RNSt16remove_referenceIS7_E4typeE = comdat any

$_ZNSt8_Rb_treeIlSt4pairIKllESt10_Select1stIS2_ESt4lessIlESaIS2_EE15_M_destroy_nodeEPSt13_Rb_tree_nodeIS2_E = comdat any

$_ZNSt16allocator_traitsISaISt13_Rb_tree_nodeISt4pairIKllEEEE7destroyIS3_EEvRS5_PT_ = comdat any

$_ZN9__gnu_cxx13new_allocatorISt13_Rb_tree_nodeISt4pairIKllEEE7destroyIS4_EEvPT_ = comdat any

$_ZNSt11_Tuple_implILm0EJRKlEEC2ES1_ = comdat any

$_ZNKSt8_Rb_treeIlSt4pairIKllESt10_Select1stIS2_ESt4lessIlESaIS2_EE4findERS1_ = comdat any

$_ZNKSt23_Rb_tree_const_iteratorISt4pairIKllEEeqERKS3_ = comdat any

$_ZNKSt8_Rb_treeIlSt4pairIKllESt10_Select1stIS2_ESt4lessIlESaIS2_EE3endEv = comdat any

$_ZNKSt8_Rb_treeIlSt4pairIKllESt10_Select1stIS2_ESt4lessIlESaIS2_EE14_M_lower_boundEPKSt13_Rb_tree_nodeIS2_ESC_RS1_ = comdat any

$_ZNKSt8_Rb_treeIlSt4pairIKllESt10_Select1stIS2_ESt4lessIlESaIS2_EE8_M_beginEv = comdat any

$_ZNKSt8_Rb_treeIlSt4pairIKllESt10_Select1stIS2_ESt4lessIlESaIS2_EE6_M_endEv = comdat any

$_ZNSt8_Rb_treeIlSt4pairIKllESt10_Select1stIS2_ESt4lessIlESaIS2_EE7_S_leftEPKSt18_Rb_tree_node_base = comdat any

$_ZNSt8_Rb_treeIlSt4pairIKllESt10_Select1stIS2_ESt4lessIlESaIS2_EE8_S_rightEPKSt18_Rb_tree_node_base = comdat any

$_ZNSt23_Rb_tree_const_iteratorISt4pairIKllEEC2EPKSt18_Rb_tree_node_base = comdat any

$_ZNSt8_Rb_treeIlSt4pairIKllESt10_Select1stIS2_ESt4lessIlESaIS2_EE3endEv = comdat any

$_ZNSt8_Rb_treeIlSt4pairIKllESt10_Select1stIS2_ESt4lessIlESaIS2_EED2Ev = comdat any

$_ZNSt8_Rb_treeIlSt4pairIKllESt10_Select1stIS2_ESt4lessIlESaIS2_EE8_M_eraseEPSt13_Rb_tree_nodeIS2_E = comdat any

$_ZNSt8_Rb_treeIlSt4pairIKllESt10_Select1stIS2_ESt4lessIlESaIS2_EE13_Rb_tree_implIS6_Lb1EED2Ev = comdat any

$_ZNSt11_Deque_baseIlSaIlEEC2Ev = comdat any

$_ZNSt11_Deque_baseIlSaIlEE11_Deque_implC2Ev = comdat any

$_ZNSt11_Deque_baseIlSaIlEE17_M_initialize_mapEm = comdat any

$_ZNSt11_Deque_baseIlSaIlEE11_Deque_implD2Ev = comdat any

$_ZNSaIlEC2Ev = comdat any

$_ZNSt15_Deque_iteratorIlRlPlEC2Ev = comdat any

$_ZN9__gnu_cxx13new_allocatorIlEC2Ev = comdat any

$_ZNSt11_Deque_baseIlSaIlEE15_M_allocate_mapEm = comdat any

$_ZNSt11_Deque_baseIlSaIlEE15_M_create_nodesEPPlS3_ = comdat any

$_ZNSt11_Deque_baseIlSaIlEE17_M_deallocate_mapEPPlm = comdat any

$_ZNSt15_Deque_iteratorIlRlPlE11_M_set_nodeEPS1_ = comdat any

$_ZNKSt11_Deque_baseIlSaIlEE20_M_get_map_allocatorEv = comdat any

$_ZNSt16allocator_traitsISaIPlEE8allocateERS1_m = comdat any

$_ZNSaIPlED2Ev = comdat any

$_ZNKSt11_Deque_baseIlSaIlEE19_M_get_Tp_allocatorEv = comdat any

$_ZNSaIPlEC2IlEERKSaIT_E = comdat any

$_ZN9__gnu_cxx13new_allocatorIPlEC2Ev = comdat any

$_ZN9__gnu_cxx13new_allocatorIPlE8allocateEmPKv = comdat any

$_ZNK9__gnu_cxx13new_allocatorIPlE8max_sizeEv = comdat any

$_ZN9__gnu_cxx13new_allocatorIPlED2Ev = comdat any

$_ZNSt11_Deque_baseIlSaIlEE16_M_allocate_nodeEv = comdat any

$_ZNSt11_Deque_baseIlSaIlEE16_M_destroy_nodesEPPlS3_ = comdat any

$_ZNSt16allocator_traitsISaIlEE8allocateERS0_m = comdat any

$_ZN9__gnu_cxx13new_allocatorIlE8allocateEmPKv = comdat any

$_ZNK9__gnu_cxx13new_allocatorIlE8max_sizeEv = comdat any

$_ZNSt11_Deque_baseIlSaIlEE18_M_deallocate_nodeEPl = comdat any

$_ZNSt16allocator_traitsISaIlEE10deallocateERS0_Plm = comdat any

$_ZN9__gnu_cxx13new_allocatorIlE10deallocateEPlm = comdat any

$_ZNSt16allocator_traitsISaIPlEE10deallocateERS1_PS0_m = comdat any

$_ZN9__gnu_cxx13new_allocatorIPlE10deallocateEPS1_m = comdat any

$_ZNSt15_Deque_iteratorIlRlPlE14_S_buffer_sizeEv = comdat any

$_ZNSaIlED2Ev = comdat any

$_ZN9__gnu_cxx13new_allocatorIlED2Ev = comdat any

$_ZSt4moveIRSt5dequeIlSaIlEEEONSt16remove_referenceIT_E4typeEOS5_ = comdat any

$_ZNSt5dequeIlSaIlEEC2EOS1_ = comdat any

$_ZNSt11_Deque_baseIlSaIlEEC2EOS1_ = comdat any

$_ZSt4moveIRSt11_Deque_baseIlSaIlEEEONSt16remove_referenceIT_E4typeEOS5_ = comdat any

$_ZNSt11_Deque_baseIlSaIlEEC2EOS1_St17integral_constantIbLb1EE = comdat any

$_ZSt4moveIRSaIlEEONSt16remove_referenceIT_E4typeEOS3_ = comdat any

$_ZNSt11_Deque_baseIlSaIlEE19_M_get_Tp_allocatorEv = comdat any

$_ZNSt11_Deque_baseIlSaIlEE11_Deque_implC2EOS0_ = comdat any

$_ZNSt11_Deque_baseIlSaIlEE11_Deque_impl12_M_swap_dataERS2_ = comdat any

$_ZNSaIlEC2ERKS_ = comdat any

$_ZN9__gnu_cxx13new_allocatorIlEC2ERKS1_ = comdat any

$_ZSt4swapISt15_Deque_iteratorIlRlPlEEvRT_S5_ = comdat any

$_ZSt4swapIPPlEvRT_S3_ = comdat any

$_ZSt4moveIRSt15_Deque_iteratorIlRlPlEEONSt16remove_referenceIT_E4typeEOS6_ = comdat any

$_ZNSt15_Deque_iteratorIlRlPlEC2ERKS2_ = comdat any

$_ZSt4moveIRPPlEONSt16remove_referenceIT_E4typeEOS4_ = comdat any

$_ZNSt5dequeIlSaIlEE15_M_destroy_dataESt15_Deque_iteratorIlRlPlES5_RKS0_ = comdat any

$_ZNSt5dequeIlSaIlEE5beginEv = comdat any

$_ZNSt5dequeIlSaIlEE3endEv = comdat any

$_ZNSt11_Deque_baseIlSaIlEED2Ev = comdat any

$_ZNSt5dequeIlSaIlEE9push_backERKl = comdat any

$_ZNSt16allocator_traitsISaIlEE9constructIlJRKlEEEvRS0_PT_DpOT0_ = comdat any

$_ZNSt5dequeIlSaIlEE16_M_push_back_auxIJRKlEEEvDpOT_ = comdat any

$_ZN9__gnu_cxx13new_allocatorIlE9constructIlJRKlEEEvPT_DpOT0_ = comdat any

$_ZNSt5dequeIlSaIlEE22_M_reserve_map_at_backEm = comdat any

$_ZNSt5dequeIlSaIlEE17_M_reallocate_mapEmb = comdat any

$_ZSt4copyIPPlS1_ET0_T_S3_S2_ = comdat any

$_ZSt13copy_backwardIPPlS1_ET0_T_S3_S2_ = comdat any

$_ZSt14__copy_move_a2ILb0EPPlS1_ET1_T0_S3_S2_ = comdat any

$_ZSt12__miter_baseIPPlENSt11_Miter_baseIT_E13iterator_typeES3_ = comdat any

$_ZSt13__copy_move_aILb0EPPlS1_ET1_T0_S3_S2_ = comdat any

$_ZSt12__niter_baseIPPlENSt11_Niter_baseIT_E13iterator_typeES3_ = comdat any

$_ZNSt11__copy_moveILb0ELb1ESt26random_access_iterator_tagE8__copy_mIPlEEPT_PKS4_S7_S5_ = comdat any

$_ZNSt10_Iter_baseIPPlLb0EE7_S_baseES1_ = comdat any

$_ZSt23__copy_move_backward_a2ILb0EPPlS1_ET1_T0_S3_S2_ = comdat any

$_ZSt22__copy_move_backward_aILb0EPPlS1_ET1_T0_S3_S2_ = comdat any

$_ZNSt20__copy_move_backwardILb0ELb1ESt26random_access_iterator_tagE13__copy_move_bIPlEEPT_PKS4_S7_S5_ = comdat any

$_ZNKSt5dequeIlSaIlEE5emptyEv = comdat any

$_ZSteqIlRlPlEbRKSt15_Deque_iteratorIT_T0_T1_ES8_ = comdat any

$_ZNSt5dequeIlSaIlEE4backEv = comdat any

$_ZNSt15_Deque_iteratorIlRlPlEmmEv = comdat any

$_ZNKSt15_Deque_iteratorIlRlPlEdeEv = comdat any

$_ZNSt5dequeIlSaIlEE8pop_backEv = comdat any

$_ZNSt16allocator_traitsISaIlEE7destroyIlEEvRS0_PT_ = comdat any

$_ZNSt5dequeIlSaIlEE15_M_pop_back_auxEv = comdat any

$_ZN9__gnu_cxx13new_allocatorIlE7destroyIlEEvPT_ = comdat any

$_ZSt4moveIRlEONSt16remove_referenceIT_E4typeEOS2_ = comdat any

$_ZNSt5dequeINSt8__detail9_StateSeqINSt7__cxx1112regex_traitsIcEEEESaIS5_EE9push_backERKS5_ = comdat any

$_ZNSt16allocator_traitsISaINSt8__detail9_StateSeqINSt7__cxx1112regex_traitsIcEEEEEE9constructIS5_JRKS5_EEEvRS6_PT_DpOT0_ = comdat any

$_ZNSt5dequeINSt8__detail9_StateSeqINSt7__cxx1112regex_traitsIcEEEESaIS5_EE16_M_push_back_auxIJRKS5_EEEvDpOT_ = comdat any

$_ZN9__gnu_cxx13new_allocatorINSt8__detail9_StateSeqINSt7__cxx1112regex_traitsIcEEEEE9constructIS6_JRKS6_EEEvPT_DpOT0_ = comdat any

$_ZSt7forwardIRKNSt8__detail9_StateSeqINSt7__cxx1112regex_traitsIcEEEEEOT_RNSt16remove_referenceIS8_E4typeE = comdat any

$_ZNSt5dequeINSt8__detail9_StateSeqINSt7__cxx1112regex_traitsIcEEEESaIS5_EE22_M_reserve_map_at_backEm = comdat any

$_ZNSt5dequeINSt8__detail9_StateSeqINSt7__cxx1112regex_traitsIcEEEESaIS5_EE17_M_reallocate_mapEmb = comdat any

$_ZSt4copyIPPNSt8__detail9_StateSeqINSt7__cxx1112regex_traitsIcEEEES7_ET0_T_S9_S8_ = comdat any

$_ZSt13copy_backwardIPPNSt8__detail9_StateSeqINSt7__cxx1112regex_traitsIcEEEES7_ET0_T_S9_S8_ = comdat any

$_ZSt14__copy_move_a2ILb0EPPNSt8__detail9_StateSeqINSt7__cxx1112regex_traitsIcEEEES7_ET1_T0_S9_S8_ = comdat any

$_ZSt12__miter_baseIPPNSt8__detail9_StateSeqINSt7__cxx1112regex_traitsIcEEEEENSt11_Miter_baseIT_E13iterator_typeES9_ = comdat any

$_ZSt13__copy_move_aILb0EPPNSt8__detail9_StateSeqINSt7__cxx1112regex_traitsIcEEEES7_ET1_T0_S9_S8_ = comdat any

$_ZSt12__niter_baseIPPNSt8__detail9_StateSeqINSt7__cxx1112regex_traitsIcEEEEENSt11_Niter_baseIT_E13iterator_typeES9_ = comdat any

$_ZNSt11__copy_moveILb0ELb1ESt26random_access_iterator_tagE8__copy_mIPNSt8__detail9_StateSeqINSt7__cxx1112regex_traitsIcEEEEEEPT_PKSA_SD_SB_ = comdat any

$_ZNSt10_Iter_baseIPPNSt8__detail9_StateSeqINSt7__cxx1112regex_traitsIcEEEELb0EE7_S_baseES7_ = comdat any

$_ZSt23__copy_move_backward_a2ILb0EPPNSt8__detail9_StateSeqINSt7__cxx1112regex_traitsIcEEEES7_ET1_T0_S9_S8_ = comdat any

$_ZSt22__copy_move_backward_aILb0EPPNSt8__detail9_StateSeqINSt7__cxx1112regex_traitsIcEEEES7_ET1_T0_S9_S8_ = comdat any

$_ZNSt20__copy_move_backwardILb0ELb1ESt26random_access_iterator_tagE13__copy_move_bIPNSt8__detail9_StateSeqINSt7__cxx1112regex_traitsIcEEEEEEPT_PKSA_SD_SB_ = comdat any

$_ZNSt5dequeINSt8__detail9_StateSeqINSt7__cxx1112regex_traitsIcEEEESaIS5_EE9push_backEOS5_ = comdat any

$_ZSt4moveIRNSt8__detail9_StateSeqINSt7__cxx1112regex_traitsIcEEEEEONSt16remove_referenceIT_E4typeEOS8_ = comdat any

$_ZNSt5dequeINSt8__detail9_StateSeqINSt7__cxx1112regex_traitsIcEEEESaIS5_EE12emplace_backIJS5_EEEvDpOT_ = comdat any

$_ZNSt16allocator_traitsISaINSt8__detail9_StateSeqINSt7__cxx1112regex_traitsIcEEEEEE9constructIS5_JS5_EEEvRS6_PT_DpOT0_ = comdat any

$_ZSt7forwardINSt8__detail9_StateSeqINSt7__cxx1112regex_traitsIcEEEEEOT_RNSt16remove_referenceIS6_E4typeE = comdat any

$_ZNSt5dequeINSt8__detail9_StateSeqINSt7__cxx1112regex_traitsIcEEEESaIS5_EE16_M_push_back_auxIJS5_EEEvDpOT_ = comdat any

$_ZN9__gnu_cxx13new_allocatorINSt8__detail9_StateSeqINSt7__cxx1112regex_traitsIcEEEEE9constructIS6_JS6_EEEvPT_DpOT0_ = comdat any

$_ZNKSt8__detail8_ScannerIcE12_M_get_valueB5cxx11Ev = comdat any

$_ZNSt5stackINSt8__detail9_StateSeqINSt7__cxx1112regex_traitsIcEEEESt5dequeIS5_SaIS5_EEE3topEv = comdat any

$_ZNSt5stackINSt8__detail9_StateSeqINSt7__cxx1112regex_traitsIcEEEESt5dequeIS5_SaIS5_EEE3popEv = comdat any

$_ZNSt5dequeINSt8__detail9_StateSeqINSt7__cxx1112regex_traitsIcEEEESaIS5_EE4backEv = comdat any

$_ZNSt15_Deque_iteratorINSt8__detail9_StateSeqINSt7__cxx1112regex_traitsIcEEEERS5_PS5_EmmEv = comdat any

$_ZNKSt15_Deque_iteratorINSt8__detail9_StateSeqINSt7__cxx1112regex_traitsIcEEEERS5_PS5_EdeEv = comdat any

$_ZNSt5dequeINSt8__detail9_StateSeqINSt7__cxx1112regex_traitsIcEEEESaIS5_EE8pop_backEv = comdat any

$_ZNSt16allocator_traitsISaINSt8__detail9_StateSeqINSt7__cxx1112regex_traitsIcEEEEEE7destroyIS5_EEvRS6_PT_ = comdat any

$_ZNSt5dequeINSt8__detail9_StateSeqINSt7__cxx1112regex_traitsIcEEEESaIS5_EE15_M_pop_back_auxEv = comdat any

$_ZN9__gnu_cxx13new_allocatorINSt8__detail9_StateSeqINSt7__cxx1112regex_traitsIcEEEEE7destroyIS6_EEvPT_ = comdat any

$_ZNSt6vectorImSaImEE4backEv = comdat any

$_ZNSt6vectorImSaImEE8pop_backEv = comdat any

$_ZNK9__gnu_cxx17__normal_iteratorIPmSt6vectorImSaImEEEmiEl = comdat any

$_ZNSt6vectorINSt8__detail6_StateINSt7__cxx1112regex_traitsIcEEEESaIS5_EE5beginEv = comdat any

$_ZNSt6vectorINSt8__detail6_StateINSt7__cxx1112regex_traitsIcEEEESaIS5_EE3endEv = comdat any

$_ZN9__gnu_cxxneIPNSt8__detail6_StateINSt7__cxx1112regex_traitsIcEEEESt6vectorIS6_SaIS6_EEEEbRKNS_17__normal_iteratorIT_T0_EESG_ = comdat any

$_ZNK9__gnu_cxx17__normal_iteratorIPNSt8__detail6_StateINSt7__cxx1112regex_traitsIcEEEESt6vectorIS6_SaIS6_EEEdeEv = comdat any

$_ZN9__gnu_cxx17__normal_iteratorIPNSt8__detail6_StateINSt7__cxx1112regex_traitsIcEEEESt6vectorIS6_SaIS6_EEEppEv = comdat any

$_ZN9__gnu_cxx17__normal_iteratorIPNSt8__detail6_StateINSt7__cxx1112regex_traitsIcEEEESt6vectorIS6_SaIS6_EEEC2ERKS7_ = comdat any

$_ZNK9__gnu_cxx17__normal_iteratorIPNSt8__detail6_StateINSt7__cxx1112regex_traitsIcEEEESt6vectorIS6_SaIS6_EEE4baseEv = comdat any

$_ZNSt12__shared_ptrINSt8__detail4_NFAINSt7__cxx1112regex_traitsIcEEEELN9__gnu_cxx12_Lock_policyE2EED2Ev = comdat any

$_ZNSt14__shared_countILN9__gnu_cxx12_Lock_policyE2EED2Ev = comdat any

$_ZNSt16_Sp_counted_baseILN9__gnu_cxx12_Lock_policyE2EE10_M_releaseEv = comdat any

$_ZSt4moveIRSt10shared_ptrINSt8__detail4_NFAINSt7__cxx1112regex_traitsIcEEEEEEONSt16remove_referenceIT_E4typeEOSA_ = comdat any

$_ZNSt10shared_ptrIKNSt8__detail4_NFAINSt7__cxx1112regex_traitsIcEEEEEC2IS5_vEEOS_IT_E = comdat any

$_ZNSt12__shared_ptrIKNSt8__detail4_NFAINSt7__cxx1112regex_traitsIcEEEELN9__gnu_cxx12_Lock_policyE2EEC2IS5_vEEOS_IT_LS8_2EE = comdat any

$_ZNSt14__shared_countILN9__gnu_cxx12_Lock_policyE2EEC2Ev = comdat any

$_ZNSt14__shared_countILN9__gnu_cxx12_Lock_policyE2EE7_M_swapERS2_ = comdat any

$_ZNSt10shared_ptrIKNSt8__detail4_NFAINSt7__cxx1112regex_traitsIcEEEEED2Ev = comdat any

$_ZNSt12__shared_ptrIKNSt8__detail4_NFAINSt7__cxx1112regex_traitsIcEEEELN9__gnu_cxx12_Lock_policyE2EED2Ev = comdat any

$_ZSt11regex_matchIN9__gnu_cxx17__normal_iteratorIPKcNSt7__cxx1112basic_stringIcSt11char_traitsIcESaIcEEEEEcNS4_12regex_traitsIcEEEbT_SD_RKNS4_11basic_regexIT0_T1_EENSt15regex_constants15match_flag_typeE = comdat any

$_ZNSaINSt7__cxx119sub_matchIN9__gnu_cxx17__normal_iteratorIPKcNS_12basic_stringIcSt11char_traitsIcESaIcEEEEEEEEC2Ev = comdat any

$_ZNSt7__cxx1113match_resultsIN9__gnu_cxx17__normal_iteratorIPKcNS_12basic_stringIcSt11char_traitsIcESaIcEEEEESaINS_9sub_matchISA_EEEEC2ERKSD_ = comdat any

$_ZNSaINSt7__cxx119sub_matchIN9__gnu_cxx17__normal_iteratorIPKcNS_12basic_stringIcSt11char_traitsIcESaIcEEEEEEEED2Ev = comdat any

$_ZSt11regex_matchIN9__gnu_cxx17__normal_iteratorIPKcNSt7__cxx1112basic_stringIcSt11char_traitsIcESaIcEEEEESaINS4_9sub_matchISA_EEEcNS4_12regex_traitsIcEEEbT_SG_RNS4_13match_resultsISG_T0_EERKNS4_11basic_regexIT1_T2_EENSt15regex_constants15match_flag_typeE = comdat any

$_ZNSt7__cxx1113match_resultsIN9__gnu_cxx17__normal_iteratorIPKcNS_12basic_stringIcSt11char_traitsIcESaIcEEEEESaINS_9sub_matchISA_EEEED2Ev = comdat any

$_ZN9__gnu_cxx13new_allocatorINSt7__cxx119sub_matchINS_17__normal_iteratorIPKcNS1_12basic_stringIcSt11char_traitsIcESaIcEEEEEEEEC2Ev = comdat any

$_ZN9__gnu_cxx17__normal_iteratorIPKcNSt7__cxx1112basic_stringIcSt11char_traitsIcESaIcEEEEC2Ev = comdat any

$_ZNSt12_Vector_baseINSt7__cxx119sub_matchIN9__gnu_cxx17__normal_iteratorIPKcNS0_12basic_stringIcSt11char_traitsIcESaIcEEEEEEESaISC_EEC2ERKSD_ = comdat any

$_ZNSt12_Vector_baseINSt7__cxx119sub_matchIN9__gnu_cxx17__normal_iteratorIPKcNS0_12basic_stringIcSt11char_traitsIcESaIcEEEEEEESaISC_EE12_Vector_implC2ERKSD_ = comdat any

$_ZN9__gnu_cxx13new_allocatorINSt7__cxx119sub_matchINS_17__normal_iteratorIPKcNS1_12basic_stringIcSt11char_traitsIcESaIcEEEEEEEEC2ERKSD_ = comdat any

$_ZN9__gnu_cxx13new_allocatorINSt7__cxx119sub_matchINS_17__normal_iteratorIPKcNS1_12basic_stringIcSt11char_traitsIcESaIcEEEEEEEED2Ev = comdat any

$_ZNSt8__detail17__regex_algo_implIN9__gnu_cxx17__normal_iteratorIPKcNSt7__cxx1112basic_stringIcSt11char_traitsIcESaIcEEEEESaINS5_9sub_matchISB_EEEcNS5_12regex_traitsIcEELNS_20_RegexExecutorPolicyE0ELb1EEEbT_SI_RNS5_13match_resultsISI_T0_EERKNS5_11basic_regexIT1_T2_EENSt15regex_constants15match_flag_typeE = comdat any

$_ZSteqIKNSt8__detail4_NFAINSt7__cxx1112regex_traitsIcEEEEEbRKSt10shared_ptrIT_EDn = comdat any

$_ZNSt7__cxx1113match_resultsIN9__gnu_cxx17__normal_iteratorIPKcNS_12basic_stringIcSt11char_traitsIcESaIcEEEEESaINS_9sub_matchISA_EEEE9_M_resizeEj = comdat any

$_ZNKSt12__shared_ptrIKNSt8__detail4_NFAINSt7__cxx1112regex_traitsIcEEEELN9__gnu_cxx12_Lock_policyE2EEptEv = comdat any

$_ZNKSt8__detail9_NFA_base12_M_sub_countEv = comdat any

$_ZNSt6vectorINSt7__cxx119sub_matchIN9__gnu_cxx17__normal_iteratorIPKcNS0_12basic_stringIcSt11char_traitsIcESaIcEEEEEEESaISC_EE5beginEv = comdat any

$_ZNSt6vectorINSt7__cxx119sub_matchIN9__gnu_cxx17__normal_iteratorIPKcNS0_12basic_stringIcSt11char_traitsIcESaIcEEEEEEESaISC_EE3endEv = comdat any

$_ZN9__gnu_cxxneIPNSt7__cxx119sub_matchINS_17__normal_iteratorIPKcNS1_12basic_stringIcSt11char_traitsIcESaIcEEEEEEESt6vectorISC_SaISC_EEEEbRKNS3_IT_T0_EESL_ = comdat any

$_ZNK9__gnu_cxx17__normal_iteratorIPNSt7__cxx119sub_matchINS0_IPKcNS1_12basic_stringIcSt11char_traitsIcESaIcEEEEEEESt6vectorISB_SaISB_EEEdeEv = comdat any

$_ZN9__gnu_cxx17__normal_iteratorIPNSt7__cxx119sub_matchINS0_IPKcNS1_12basic_stringIcSt11char_traitsIcESaIcEEEEEEESt6vectorISB_SaISB_EEEppEv = comdat any

$_ZNSt8__detail9_ExecutorIN9__gnu_cxx17__normal_iteratorIPKcNSt7__cxx1112basic_stringIcSt11char_traitsIcESaIcEEEEESaINS5_9sub_matchISB_EEENS5_12regex_traitsIcEELb0EEC2ESB_SB_RSt6vectorISD_SE_ERKNS5_11basic_regexIcSG_EENSt15regex_constants15match_flag_typeE = comdat any

$_ZNSt8__detail9_ExecutorIN9__gnu_cxx17__normal_iteratorIPKcNSt7__cxx1112basic_stringIcSt11char_traitsIcESaIcEEEEESaINS5_9sub_matchISB_EEENS5_12regex_traitsIcEELb0EE8_M_matchEv = comdat any

$_ZNSt8__detail9_ExecutorIN9__gnu_cxx17__normal_iteratorIPKcNSt7__cxx1112basic_stringIcSt11char_traitsIcESaIcEEEEESaINS5_9sub_matchISB_EEENS5_12regex_traitsIcEELb0EED2Ev = comdat any

$_ZNSt8__detail9_ExecutorIN9__gnu_cxx17__normal_iteratorIPKcNSt7__cxx1112basic_stringIcSt11char_traitsIcESaIcEEEEESaINS5_9sub_matchISB_EEENS5_12regex_traitsIcEELb1EEC2ESB_SB_RSt6vectorISD_SE_ERKNS5_11basic_regexIcSG_EENSt15regex_constants15match_flag_typeE = comdat any

$_ZNSt8__detail9_ExecutorIN9__gnu_cxx17__normal_iteratorIPKcNSt7__cxx1112basic_stringIcSt11char_traitsIcESaIcEEEEESaINS5_9sub_matchISB_EEENS5_12regex_traitsIcEELb1EE8_M_matchEv = comdat any

$_ZNSt8__detail9_ExecutorIN9__gnu_cxx17__normal_iteratorIPKcNSt7__cxx1112basic_stringIcSt11char_traitsIcESaIcEEEEESaINS5_9sub_matchISB_EEENS5_12regex_traitsIcEELb1EED2Ev = comdat any

$_ZNSt7__cxx1113match_resultsIN9__gnu_cxx17__normal_iteratorIPKcNS_12basic_stringIcSt11char_traitsIcESaIcEEEEESaINS_9sub_matchISA_EEEE9_M_prefixEv = comdat any

$_ZNSt7__cxx1113match_resultsIN9__gnu_cxx17__normal_iteratorIPKcNS_12basic_stringIcSt11char_traitsIcESaIcEEEEESaINS_9sub_matchISA_EEEE9_M_suffixEv = comdat any

$_ZNKSt12__shared_ptrIKNSt8__detail4_NFAINSt7__cxx1112regex_traitsIcEEEELN9__gnu_cxx12_Lock_policyE2EEcvbEv = comdat any

$_ZNSt6vectorINSt7__cxx119sub_matchIN9__gnu_cxx17__normal_iteratorIPKcNS0_12basic_stringIcSt11char_traitsIcESaIcEEEEEEESaISC_EE6resizeEm = comdat any

$_ZNKSt6vectorINSt7__cxx119sub_matchIN9__gnu_cxx17__normal_iteratorIPKcNS0_12basic_stringIcSt11char_traitsIcESaIcEEEEEEESaISC_EE4sizeEv = comdat any

$_ZNSt6vectorINSt7__cxx119sub_matchIN9__gnu_cxx17__normal_iteratorIPKcNS0_12basic_stringIcSt11char_traitsIcESaIcEEEEEEESaISC_EE17_M_default_appendEm = comdat any

$_ZNSt6vectorINSt7__cxx119sub_matchIN9__gnu_cxx17__normal_iteratorIPKcNS0_12basic_stringIcSt11char_traitsIcESaIcEEEEEEESaISC_EE15_M_erase_at_endEPSC_ = comdat any

$_ZSt27__uninitialized_default_n_aIPNSt7__cxx119sub_matchIN9__gnu_cxx17__normal_iteratorIPKcNS0_12basic_stringIcSt11char_traitsIcESaIcEEEEEEEmSC_ET_SE_T0_RSaIT1_E = comdat any

$_ZNSt12_Vector_baseINSt7__cxx119sub_matchIN9__gnu_cxx17__normal_iteratorIPKcNS0_12basic_stringIcSt11char_traitsIcESaIcEEEEEEESaISC_EE19_M_get_Tp_allocatorEv = comdat any

$_ZNKSt6vectorINSt7__cxx119sub_matchIN9__gnu_cxx17__normal_iteratorIPKcNS0_12basic_stringIcSt11char_traitsIcESaIcEEEEEEESaISC_EE12_M_check_lenEmS5_ = comdat any

$_ZNSt12_Vector_baseINSt7__cxx119sub_matchIN9__gnu_cxx17__normal_iteratorIPKcNS0_12basic_stringIcSt11char_traitsIcESaIcEEEEEEESaISC_EE11_M_allocateEm = comdat any

$_ZSt34__uninitialized_move_if_noexcept_aIPNSt7__cxx119sub_matchIN9__gnu_cxx17__normal_iteratorIPKcNS0_12basic_stringIcSt11char_traitsIcESaIcEEEEEEESD_SaISC_EET0_T_SG_SF_RT1_ = comdat any

$_ZSt8_DestroyIPNSt7__cxx119sub_matchIN9__gnu_cxx17__normal_iteratorIPKcNS0_12basic_stringIcSt11char_traitsIcESaIcEEEEEEESC_EvT_SE_RSaIT0_E = comdat any

$_ZNSt12_Vector_baseINSt7__cxx119sub_matchIN9__gnu_cxx17__normal_iteratorIPKcNS0_12basic_stringIcSt11char_traitsIcESaIcEEEEEEESaISC_EE13_M_deallocateEPSC_m = comdat any

$_ZSt25__uninitialized_default_nIPNSt7__cxx119sub_matchIN9__gnu_cxx17__normal_iteratorIPKcNS0_12basic_stringIcSt11char_traitsIcESaIcEEEEEEEmET_SE_T0_ = comdat any

$_ZNSt27__uninitialized_default_n_1ILb0EE18__uninit_default_nIPNSt7__cxx119sub_matchIN9__gnu_cxx17__normal_iteratorIPKcNS2_12basic_stringIcSt11char_traitsIcESaIcEEEEEEEmEET_SG_T0_ = comdat any

$_ZSt10_ConstructINSt7__cxx119sub_matchIN9__gnu_cxx17__normal_iteratorIPKcNS0_12basic_stringIcSt11char_traitsIcESaIcEEEEEEEJEEvPT_DpOT0_ = comdat any

$_ZSt11__addressofINSt7__cxx119sub_matchIN9__gnu_cxx17__normal_iteratorIPKcNS0_12basic_stringIcSt11char_traitsIcESaIcEEEEEEEEPT_RSD_ = comdat any

$_ZSt8_DestroyIPNSt7__cxx119sub_matchIN9__gnu_cxx17__normal_iteratorIPKcNS0_12basic_stringIcSt11char_traitsIcESaIcEEEEEEEEvT_SE_ = comdat any

$_ZNSt7__cxx119sub_matchIN9__gnu_cxx17__normal_iteratorIPKcNS_12basic_stringIcSt11char_traitsIcESaIcEEEEEEC2Ev = comdat any

$_ZNSt4pairIN9__gnu_cxx17__normal_iteratorIPKcNSt7__cxx1112basic_stringIcSt11char_traitsIcESaIcEEEEESA_EC2Ev = comdat any

$_ZNSt12_Destroy_auxILb1EE9__destroyIPNSt7__cxx119sub_matchIN9__gnu_cxx17__normal_iteratorIPKcNS2_12basic_stringIcSt11char_traitsIcESaIcEEEEEEEEEvT_SG_ = comdat any

$_ZNKSt6vectorINSt7__cxx119sub_matchIN9__gnu_cxx17__normal_iteratorIPKcNS0_12basic_stringIcSt11char_traitsIcESaIcEEEEEEESaISC_EE8max_sizeEv = comdat any

$_ZNSt16allocator_traitsISaINSt7__cxx119sub_matchIN9__gnu_cxx17__normal_iteratorIPKcNS0_12basic_stringIcSt11char_traitsIcESaIcEEEEEEEEE8max_sizeERKSD_ = comdat any

$_ZNKSt12_Vector_baseINSt7__cxx119sub_matchIN9__gnu_cxx17__normal_iteratorIPKcNS0_12basic_stringIcSt11char_traitsIcESaIcEEEEEEESaISC_EE19_M_get_Tp_allocatorEv = comdat any

$_ZNK9__gnu_cxx13new_allocatorINSt7__cxx119sub_matchINS_17__normal_iteratorIPKcNS1_12basic_stringIcSt11char_traitsIcESaIcEEEEEEEE8max_sizeEv = comdat any

$_ZNSt16allocator_traitsISaINSt7__cxx119sub_matchIN9__gnu_cxx17__normal_iteratorIPKcNS0_12basic_stringIcSt11char_traitsIcESaIcEEEEEEEEE8allocateERSD_m = comdat any

$_ZN9__gnu_cxx13new_allocatorINSt7__cxx119sub_matchINS_17__normal_iteratorIPKcNS1_12basic_stringIcSt11char_traitsIcESaIcEEEEEEEE8allocateEmPKv = comdat any

$_ZSt22__uninitialized_copy_aISt13move_iteratorIPNSt7__cxx119sub_matchIN9__gnu_cxx17__normal_iteratorIPKcNS1_12basic_stringIcSt11char_traitsIcESaIcEEEEEEEESE_SD_ET0_T_SH_SG_RSaIT1_E = comdat any

$_ZSt32__make_move_if_noexcept_iteratorIPNSt7__cxx119sub_matchIN9__gnu_cxx17__normal_iteratorIPKcNS0_12basic_stringIcSt11char_traitsIcESaIcEEEEEEESt13move_iteratorISD_EET0_T_ = comdat any

$_ZSt18uninitialized_copyISt13move_iteratorIPNSt7__cxx119sub_matchIN9__gnu_cxx17__normal_iteratorIPKcNS1_12basic_stringIcSt11char_traitsIcESaIcEEEEEEEESE_ET0_T_SH_SG_ = comdat any

$_ZNSt20__uninitialized_copyILb0EE13__uninit_copyISt13move_iteratorIPNSt7__cxx119sub_matchIN9__gnu_cxx17__normal_iteratorIPKcNS3_12basic_stringIcSt11char_traitsIcESaIcEEEEEEEESG_EET0_T_SJ_SI_ = comdat any

$_ZStneIPNSt7__cxx119sub_matchIN9__gnu_cxx17__normal_iteratorIPKcNS0_12basic_stringIcSt11char_traitsIcESaIcEEEEEEEEbRKSt13move_iteratorIT_ESI_ = comdat any

$_ZSt10_ConstructINSt7__cxx119sub_matchIN9__gnu_cxx17__normal_iteratorIPKcNS0_12basic_stringIcSt11char_traitsIcESaIcEEEEEEEJSC_EEvPT_DpOT0_ = comdat any

$_ZNKSt13move_iteratorIPNSt7__cxx119sub_matchIN9__gnu_cxx17__normal_iteratorIPKcNS0_12basic_stringIcSt11char_traitsIcESaIcEEEEEEEEdeEv = comdat any

$_ZNSt13move_iteratorIPNSt7__cxx119sub_matchIN9__gnu_cxx17__normal_iteratorIPKcNS0_12basic_stringIcSt11char_traitsIcESaIcEEEEEEEEppEv = comdat any

$_ZSteqIPNSt7__cxx119sub_matchIN9__gnu_cxx17__normal_iteratorIPKcNS0_12basic_stringIcSt11char_traitsIcESaIcEEEEEEEEbRKSt13move_iteratorIT_ESI_ = comdat any

$_ZNKSt13move_iteratorIPNSt7__cxx119sub_matchIN9__gnu_cxx17__normal_iteratorIPKcNS0_12basic_stringIcSt11char_traitsIcESaIcEEEEEEEE4baseEv = comdat any

$_ZSt7forwardINSt7__cxx119sub_matchIN9__gnu_cxx17__normal_iteratorIPKcNS0_12basic_stringIcSt11char_traitsIcESaIcEEEEEEEEOT_RNSt16remove_referenceISD_E4typeE = comdat any

$_ZNSt13move_iteratorIPNSt7__cxx119sub_matchIN9__gnu_cxx17__normal_iteratorIPKcNS0_12basic_stringIcSt11char_traitsIcESaIcEEEEEEEEC2ESD_ = comdat any

$_ZNSt16allocator_traitsISaINSt7__cxx119sub_matchIN9__gnu_cxx17__normal_iteratorIPKcNS0_12basic_stringIcSt11char_traitsIcESaIcEEEEEEEEE10deallocateERSD_PSC_m = comdat any

$_ZN9__gnu_cxx13new_allocatorINSt7__cxx119sub_matchINS_17__normal_iteratorIPKcNS1_12basic_stringIcSt11char_traitsIcESaIcEEEEEEEE10deallocateEPSC_m = comdat any

$_ZN9__gnu_cxx17__normal_iteratorIPNSt7__cxx119sub_matchINS0_IPKcNS1_12basic_stringIcSt11char_traitsIcESaIcEEEEEEESt6vectorISB_SaISB_EEEC2ERKSC_ = comdat any

$_ZNK9__gnu_cxx17__normal_iteratorIPNSt7__cxx119sub_matchINS0_IPKcNS1_12basic_stringIcSt11char_traitsIcESaIcEEEEEEESt6vectorISB_SaISB_EEE4baseEv = comdat any

$_ZNSt6vectorINSt7__cxx119sub_matchIN9__gnu_cxx17__normal_iteratorIPKcNS0_12basic_stringIcSt11char_traitsIcESaIcEEEEEEESaISC_EEC2Ev = comdat any

$_ZNKSt12__shared_ptrIKNSt8__detail4_NFAINSt7__cxx1112regex_traitsIcEEEELN9__gnu_cxx12_Lock_policyE2EEdeEv = comdat any

$_ZNSaISt4pairIN9__gnu_cxx17__normal_iteratorIPKcNSt7__cxx1112basic_stringIcSt11char_traitsIcESaIcEEEEEiEEC2Ev = comdat any

$_ZNSt6vectorISt4pairIN9__gnu_cxx17__normal_iteratorIPKcNSt7__cxx1112basic_stringIcSt11char_traitsIcESaIcEEEEEiESaISC_EEC2EmRKSD_ = comdat any

$_ZNSaISt4pairIN9__gnu_cxx17__normal_iteratorIPKcNSt7__cxx1112basic_stringIcSt11char_traitsIcESaIcEEEEEiEED2Ev = comdat any

$_ZNSt8__detail9_ExecutorIN9__gnu_cxx17__normal_iteratorIPKcNSt7__cxx1112basic_stringIcSt11char_traitsIcESaIcEEEEESaINS5_9sub_matchISB_EEENS5_12regex_traitsIcEELb0EE11_State_infoISt17integral_constantIbLb0EESt6vectorISD_SE_EEC2Elm = comdat any

$_ZNSt15regex_constantsanENS_15match_flag_typeES0_ = comdat any

$_ZNSt15regex_constantscoENS_15match_flag_typeE = comdat any

$_ZNSt8__detail9_ExecutorIN9__gnu_cxx17__normal_iteratorIPKcNSt7__cxx1112basic_stringIcSt11char_traitsIcESaIcEEEEESaINS5_9sub_matchISB_EEENS5_12regex_traitsIcEELb0EE11_State_infoISt17integral_constantIbLb0EESt6vectorISD_SE_EED2Ev = comdat any

$_ZNSt6vectorISt4pairIN9__gnu_cxx17__normal_iteratorIPKcNSt7__cxx1112basic_stringIcSt11char_traitsIcESaIcEEEEEiESaISC_EED2Ev = comdat any

$_ZNSt6vectorINSt7__cxx119sub_matchIN9__gnu_cxx17__normal_iteratorIPKcNS0_12basic_stringIcSt11char_traitsIcESaIcEEEEEEESaISC_EED2Ev = comdat any

$_ZNSt12_Vector_baseINSt7__cxx119sub_matchIN9__gnu_cxx17__normal_iteratorIPKcNS0_12basic_stringIcSt11char_traitsIcESaIcEEEEEEESaISC_EEC2Ev = comdat any

$_ZNSt12_Vector_baseINSt7__cxx119sub_matchIN9__gnu_cxx17__normal_iteratorIPKcNS0_12basic_stringIcSt11char_traitsIcESaIcEEEEEEESaISC_EE12_Vector_implC2Ev = comdat any

$_ZN9__gnu_cxx13new_allocatorISt4pairINS_17__normal_iteratorIPKcNSt7__cxx1112basic_stringIcSt11char_traitsIcESaIcEEEEEiEEC2Ev = comdat any

$_ZNSt12_Vector_baseISt4pairIN9__gnu_cxx17__normal_iteratorIPKcNSt7__cxx1112basic_stringIcSt11char_traitsIcESaIcEEEEEiESaISC_EEC2EmRKSD_ = comdat any

$_ZNSt6vectorISt4pairIN9__gnu_cxx17__normal_iteratorIPKcNSt7__cxx1112basic_stringIcSt11char_traitsIcESaIcEEEEEiESaISC_EE21_M_default_initializeEm = comdat any

$_ZNSt12_Vector_baseISt4pairIN9__gnu_cxx17__normal_iteratorIPKcNSt7__cxx1112basic_stringIcSt11char_traitsIcESaIcEEEEEiESaISC_EED2Ev = comdat any

$_ZNSt12_Vector_baseISt4pairIN9__gnu_cxx17__normal_iteratorIPKcNSt7__cxx1112basic_stringIcSt11char_traitsIcESaIcEEEEEiESaISC_EE12_Vector_implC2ERKSD_ = comdat any

$_ZNSt12_Vector_baseISt4pairIN9__gnu_cxx17__normal_iteratorIPKcNSt7__cxx1112basic_stringIcSt11char_traitsIcESaIcEEEEEiESaISC_EE17_M_create_storageEm = comdat any

$_ZNSt12_Vector_baseISt4pairIN9__gnu_cxx17__normal_iteratorIPKcNSt7__cxx1112basic_stringIcSt11char_traitsIcESaIcEEEEEiESaISC_EE12_Vector_implD2Ev = comdat any

$_ZNSaISt4pairIN9__gnu_cxx17__normal_iteratorIPKcNSt7__cxx1112basic_stringIcSt11char_traitsIcESaIcEEEEEiEEC2ERKSC_ = comdat any

$_ZN9__gnu_cxx13new_allocatorISt4pairINS_17__normal_iteratorIPKcNSt7__cxx1112basic_stringIcSt11char_traitsIcESaIcEEEEEiEEC2ERKSD_ = comdat any

$_ZNSt12_Vector_baseISt4pairIN9__gnu_cxx17__normal_iteratorIPKcNSt7__cxx1112basic_stringIcSt11char_traitsIcESaIcEEEEEiESaISC_EE11_M_allocateEm = comdat any

$_ZNSt16allocator_traitsISaISt4pairIN9__gnu_cxx17__normal_iteratorIPKcNSt7__cxx1112basic_stringIcSt11char_traitsIcESaIcEEEEEiEEE8allocateERSD_m = comdat any

$_ZN9__gnu_cxx13new_allocatorISt4pairINS_17__normal_iteratorIPKcNSt7__cxx1112basic_stringIcSt11char_traitsIcESaIcEEEEEiEE8allocateEmPKv = comdat any

$_ZNK9__gnu_cxx13new_allocatorISt4pairINS_17__normal_iteratorIPKcNSt7__cxx1112basic_stringIcSt11char_traitsIcESaIcEEEEEiEE8max_sizeEv = comdat any

$_ZN9__gnu_cxx13new_allocatorISt4pairINS_17__normal_iteratorIPKcNSt7__cxx1112basic_stringIcSt11char_traitsIcESaIcEEEEEiEED2Ev = comdat any

$_ZSt27__uninitialized_default_n_aIPSt4pairIN9__gnu_cxx17__normal_iteratorIPKcNSt7__cxx1112basic_stringIcSt11char_traitsIcESaIcEEEEEiEmSC_ET_SE_T0_RSaIT1_E = comdat any

$_ZNSt12_Vector_baseISt4pairIN9__gnu_cxx17__normal_iteratorIPKcNSt7__cxx1112basic_stringIcSt11char_traitsIcESaIcEEEEEiESaISC_EE19_M_get_Tp_allocatorEv = comdat any

$_ZSt25__uninitialized_default_nIPSt4pairIN9__gnu_cxx17__normal_iteratorIPKcNSt7__cxx1112basic_stringIcSt11char_traitsIcESaIcEEEEEiEmET_SE_T0_ = comdat any

$_ZNSt27__uninitialized_default_n_1ILb0EE18__uninit_default_nIPSt4pairIN9__gnu_cxx17__normal_iteratorIPKcNSt7__cxx1112basic_stringIcSt11char_traitsIcESaIcEEEEEiEmEET_SG_T0_ = comdat any

$_ZSt10_ConstructISt4pairIN9__gnu_cxx17__normal_iteratorIPKcNSt7__cxx1112basic_stringIcSt11char_traitsIcESaIcEEEEEiEJEEvPT_DpOT0_ = comdat any

$_ZSt11__addressofISt4pairIN9__gnu_cxx17__normal_iteratorIPKcNSt7__cxx1112basic_stringIcSt11char_traitsIcESaIcEEEEEiEEPT_RSD_ = comdat any

$_ZSt8_DestroyIPSt4pairIN9__gnu_cxx17__normal_iteratorIPKcNSt7__cxx1112basic_stringIcSt11char_traitsIcESaIcEEEEEiEEvT_SE_ = comdat any

$_ZNSt4pairIN9__gnu_cxx17__normal_iteratorIPKcNSt7__cxx1112basic_stringIcSt11char_traitsIcESaIcEEEEEiEC2Ev = comdat any

$_ZNSt12_Destroy_auxILb1EE9__destroyIPSt4pairIN9__gnu_cxx17__normal_iteratorIPKcNSt7__cxx1112basic_stringIcSt11char_traitsIcESaIcEEEEEiEEEvT_SG_ = comdat any

$_ZNSt12_Vector_baseISt4pairIN9__gnu_cxx17__normal_iteratorIPKcNSt7__cxx1112basic_stringIcSt11char_traitsIcESaIcEEEEEiESaISC_EE13_M_deallocateEPSC_m = comdat any

$_ZNSt16allocator_traitsISaISt4pairIN9__gnu_cxx17__normal_iteratorIPKcNSt7__cxx1112basic_stringIcSt11char_traitsIcESaIcEEEEEiEEE10deallocateERSD_PSC_m = comdat any

$_ZN9__gnu_cxx13new_allocatorISt4pairINS_17__normal_iteratorIPKcNSt7__cxx1112basic_stringIcSt11char_traitsIcESaIcEEEEEiEE10deallocateEPSC_m = comdat any

$_ZNSt6vectorISt4pairIlS_INSt7__cxx119sub_matchIN9__gnu_cxx17__normal_iteratorIPKcNS1_12basic_stringIcSt11char_traitsIcESaIcEEEEEEESaISD_EEESaISG_EEC2Ev = comdat any

$_ZNSt10unique_ptrIA_bSt14default_deleteIS0_EEC2EPb = comdat any

$_ZNSt6vectorISt4pairIlS_INSt7__cxx119sub_matchIN9__gnu_cxx17__normal_iteratorIPKcNS1_12basic_stringIcSt11char_traitsIcESaIcEEEEEEESaISD_EEESaISG_EED2Ev = comdat any

$_ZNSt12_Vector_baseISt4pairIlSt6vectorINSt7__cxx119sub_matchIN9__gnu_cxx17__normal_iteratorIPKcNS2_12basic_stringIcSt11char_traitsIcESaIcEEEEEEESaISE_EEESaISH_EEC2Ev = comdat any

$_ZNSt12_Vector_baseISt4pairIlSt6vectorINSt7__cxx119sub_matchIN9__gnu_cxx17__normal_iteratorIPKcNS2_12basic_stringIcSt11char_traitsIcESaIcEEEEEEESaISE_EEESaISH_EE12_Vector_implC2Ev = comdat any

$_ZNSaISt4pairIlSt6vectorINSt7__cxx119sub_matchIN9__gnu_cxx17__normal_iteratorIPKcNS1_12basic_stringIcSt11char_traitsIcESaIcEEEEEEESaISD_EEEEC2Ev = comdat any

$_ZN9__gnu_cxx13new_allocatorISt4pairIlSt6vectorINSt7__cxx119sub_matchINS_17__normal_iteratorIPKcNS3_12basic_stringIcSt11char_traitsIcESaIcEEEEEEESaISE_EEEEC2Ev = comdat any

$_ZNSt5tupleIJPbSt14default_deleteIA_bEEEC2IRS0_S3_vEEOT_OT0_ = comdat any

$_ZSt7forwardIRPbEOT_RNSt16remove_referenceIS2_E4typeE = comdat any

$_ZSt7forwardISt14default_deleteIA_bEEOT_RNSt16remove_referenceIS3_E4typeE = comdat any

$_ZNSt11_Tuple_implILm0EJPbSt14default_deleteIA_bEEEC2IRS0_JS3_EvEEOT_DpOT0_ = comdat any

$_ZNSt11_Tuple_implILm1EJSt14default_deleteIA_bEEEC2IS2_EEOT_ = comdat any

$_ZNSt10_Head_baseILm0EPbLb0EEC2IRS0_EEOT_ = comdat any

$_ZNSt10_Head_baseILm1ESt14default_deleteIA_bELb1EEC2IS2_EEOT_ = comdat any

$_ZSt8_DestroyIPSt4pairIlSt6vectorINSt7__cxx119sub_matchIN9__gnu_cxx17__normal_iteratorIPKcNS2_12basic_stringIcSt11char_traitsIcESaIcEEEEEEESaISE_EEESH_EvT_SJ_RSaIT0_E = comdat any

$_ZNSt12_Vector_baseISt4pairIlSt6vectorINSt7__cxx119sub_matchIN9__gnu_cxx17__normal_iteratorIPKcNS2_12basic_stringIcSt11char_traitsIcESaIcEEEEEEESaISE_EEESaISH_EE19_M_get_Tp_allocatorEv = comdat any

$_ZNSt12_Vector_baseISt4pairIlSt6vectorINSt7__cxx119sub_matchIN9__gnu_cxx17__normal_iteratorIPKcNS2_12basic_stringIcSt11char_traitsIcESaIcEEEEEEESaISE_EEESaISH_EED2Ev = comdat any

$_ZSt8_DestroyIPSt4pairIlSt6vectorINSt7__cxx119sub_matchIN9__gnu_cxx17__normal_iteratorIPKcNS2_12basic_stringIcSt11char_traitsIcESaIcEEEEEEESaISE_EEEEvT_SJ_ = comdat any

$_ZNSt12_Destroy_auxILb0EE9__destroyIPSt4pairIlSt6vectorINSt7__cxx119sub_matchIN9__gnu_cxx17__normal_iteratorIPKcNS4_12basic_stringIcSt11char_traitsIcESaIcEEEEEEESaISG_EEEEEvT_SL_ = comdat any

$_ZSt8_DestroyISt4pairIlSt6vectorINSt7__cxx119sub_matchIN9__gnu_cxx17__normal_iteratorIPKcNS2_12basic_stringIcSt11char_traitsIcESaIcEEEEEEESaISE_EEEEvPT_ = comdat any

$_ZSt11__addressofISt4pairIlSt6vectorINSt7__cxx119sub_matchIN9__gnu_cxx17__normal_iteratorIPKcNS2_12basic_stringIcSt11char_traitsIcESaIcEEEEEEESaISE_EEEEPT_RSI_ = comdat any

$_ZNSt4pairIlSt6vectorINSt7__cxx119sub_matchIN9__gnu_cxx17__normal_iteratorIPKcNS1_12basic_stringIcSt11char_traitsIcESaIcEEEEEEESaISD_EEED2Ev = comdat any

$_ZNSt12_Vector_baseISt4pairIlSt6vectorINSt7__cxx119sub_matchIN9__gnu_cxx17__normal_iteratorIPKcNS2_12basic_stringIcSt11char_traitsIcESaIcEEEEEEESaISE_EEESaISH_EE13_M_deallocateEPSH_m = comdat any

$_ZNSt12_Vector_baseISt4pairIlSt6vectorINSt7__cxx119sub_matchIN9__gnu_cxx17__normal_iteratorIPKcNS2_12basic_stringIcSt11char_traitsIcESaIcEEEEEEESaISE_EEESaISH_EE12_Vector_implD2Ev = comdat any

$_ZNSt16allocator_traitsISaISt4pairIlSt6vectorINSt7__cxx119sub_matchIN9__gnu_cxx17__normal_iteratorIPKcNS2_12basic_stringIcSt11char_traitsIcESaIcEEEEEEESaISE_EEEEE10deallocateERSI_PSH_m = comdat any

$_ZN9__gnu_cxx13new_allocatorISt4pairIlSt6vectorINSt7__cxx119sub_matchINS_17__normal_iteratorIPKcNS3_12basic_stringIcSt11char_traitsIcESaIcEEEEEEESaISE_EEEE10deallocateEPSH_m = comdat any

$_ZNSaISt4pairIlSt6vectorINSt7__cxx119sub_matchIN9__gnu_cxx17__normal_iteratorIPKcNS1_12basic_stringIcSt11char_traitsIcESaIcEEEEEEESaISD_EEEED2Ev = comdat any

$_ZN9__gnu_cxx13new_allocatorISt4pairIlSt6vectorINSt7__cxx119sub_matchINS_17__normal_iteratorIPKcNS3_12basic_stringIcSt11char_traitsIcESaIcEEEEEEESaISE_EEEED2Ev = comdat any

$_ZNSt10unique_ptrIA_bSt14default_deleteIS0_EED2Ev = comdat any

$_ZSt3getILm0EJPbSt14default_deleteIA_bEEERNSt13tuple_elementIXT_ESt5tupleIJDpT0_EEE4typeERS8_ = comdat any

$_ZNSt10unique_ptrIA_bSt14default_deleteIS0_EE11get_deleterEv = comdat any

$_ZNKSt14default_deleteIA_bEclEPb = comdat any

$_ZSt12__get_helperILm0EPbJSt14default_deleteIA_bEEERT0_RSt11_Tuple_implIXT_EJS4_DpT1_EE = comdat any

$_ZNSt11_Tuple_implILm0EJPbSt14default_deleteIA_bEEE7_M_headERS4_ = comdat any

$_ZNSt10_Head_baseILm0EPbLb0EE7_M_headERS1_ = comdat any

$_ZSt3getILm1EJPbSt14default_deleteIA_bEEERNSt13tuple_elementIXT_ESt5tupleIJDpT0_EEE4typeERS8_ = comdat any

$_ZSt12__get_helperILm1ESt14default_deleteIA_bEJEERT0_RSt11_Tuple_implIXT_EJS3_DpT1_EE = comdat any

$_ZNSt11_Tuple_implILm1EJSt14default_deleteIA_bEEE7_M_headERS3_ = comdat any

$_ZNSt10_Head_baseILm1ESt14default_deleteIA_bELb1EE7_M_headERS3_ = comdat any

$_ZSt8_DestroyIPSt4pairIN9__gnu_cxx17__normal_iteratorIPKcNSt7__cxx1112basic_stringIcSt11char_traitsIcESaIcEEEEEiESC_EvT_SE_RSaIT0_E = comdat any

$_ZNSt12_Vector_baseINSt7__cxx119sub_matchIN9__gnu_cxx17__normal_iteratorIPKcNS0_12basic_stringIcSt11char_traitsIcESaIcEEEEEEESaISC_EED2Ev = comdat any

$_ZNSt12_Vector_baseINSt7__cxx119sub_matchIN9__gnu_cxx17__normal_iteratorIPKcNS0_12basic_stringIcSt11char_traitsIcESaIcEEEEEEESaISC_EE12_Vector_implD2Ev = comdat any

$_ZNSt8__detail9_ExecutorIN9__gnu_cxx17__normal_iteratorIPKcNSt7__cxx1112basic_stringIcSt11char_traitsIcESaIcEEEEESaINS5_9sub_matchISB_EEENS5_12regex_traitsIcEELb0EE7_M_mainENSH_11_Match_modeE = comdat any

$_ZNSt8__detail9_ExecutorIN9__gnu_cxx17__normal_iteratorIPKcNSt7__cxx1112basic_stringIcSt11char_traitsIcESaIcEEEEESaINS5_9sub_matchISB_EEENS5_12regex_traitsIcEELb0EE16_M_main_dispatchENSH_11_Match_modeESt17integral_constantIbLb0EE = comdat any

$_ZNSt8__detail9_ExecutorIN9__gnu_cxx17__normal_iteratorIPKcNSt7__cxx1112basic_stringIcSt11char_traitsIcESaIcEEEEESaINS5_9sub_matchISB_EEENS5_12regex_traitsIcEELb0EE11_State_infoISt17integral_constantIbLb0EESt6vectorISD_SE_EE8_M_queueElRKSM_ = comdat any

$_ZNKSt6vectorISt4pairIlS_INSt7__cxx119sub_matchIN9__gnu_cxx17__normal_iteratorIPKcNS1_12basic_stringIcSt11char_traitsIcESaIcEEEEEEESaISD_EEESaISG_EE5emptyEv = comdat any

$_ZSt6fill_nIPbmbET_S1_T0_RKT1_ = comdat any

$_ZNKSt10unique_ptrIA_bSt14default_deleteIS0_EE3getEv = comdat any

$_ZSt4moveIRSt6vectorISt4pairIlS0_INSt7__cxx119sub_matchIN9__gnu_cxx17__normal_iteratorIPKcNS2_12basic_stringIcSt11char_traitsIcESaIcEEEEEEESaISE_EEESaISH_EEEONSt16remove_referenceIT_E4typeEOSM_ = comdat any

$_ZNSt6vectorISt4pairIlS_INSt7__cxx119sub_matchIN9__gnu_cxx17__normal_iteratorIPKcNS1_12basic_stringIcSt11char_traitsIcESaIcEEEEEEESaISD_EEESaISG_EEC2EOSI_ = comdat any

$_ZNSt6vectorISt4pairIlS_INSt7__cxx119sub_matchIN9__gnu_cxx17__normal_iteratorIPKcNS1_12basic_stringIcSt11char_traitsIcESaIcEEEEEEESaISD_EEESaISG_EE5beginEv = comdat any

$_ZNSt6vectorISt4pairIlS_INSt7__cxx119sub_matchIN9__gnu_cxx17__normal_iteratorIPKcNS1_12basic_stringIcSt11char_traitsIcESaIcEEEEEEESaISD_EEESaISG_EE3endEv = comdat any

$_ZN9__gnu_cxxneIPSt4pairIlSt6vectorINSt7__cxx119sub_matchINS_17__normal_iteratorIPKcNS3_12basic_stringIcSt11char_traitsIcESaIcEEEEEEESaISE_EEES2_ISH_SaISH_EEEEbRKNS5_IT_T0_EESP_ = comdat any

$_ZNK9__gnu_cxx17__normal_iteratorIPSt4pairIlSt6vectorINSt7__cxx119sub_matchINS0_IPKcNS3_12basic_stringIcSt11char_traitsIcESaIcEEEEEEESaISD_EEES2_ISG_SaISG_EEEdeEv = comdat any

$_ZSt4moveIRSt6vectorINSt7__cxx119sub_matchIN9__gnu_cxx17__normal_iteratorIPKcNS1_12basic_stringIcSt11char_traitsIcESaIcEEEEEEESaISD_EEEONSt16remove_referenceIT_E4typeEOSI_ = comdat any

$_ZNSt6vectorINSt7__cxx119sub_matchIN9__gnu_cxx17__normal_iteratorIPKcNS0_12basic_stringIcSt11char_traitsIcESaIcEEEEEEESaISC_EEaSEOSE_ = comdat any

$_ZNSt8__detail9_ExecutorIN9__gnu_cxx17__normal_iteratorIPKcNSt7__cxx1112basic_stringIcSt11char_traitsIcESaIcEEEEESaINS5_9sub_matchISB_EEENS5_12regex_traitsIcEELb0EE6_M_dfsENSH_11_Match_modeEl = comdat any

$_ZN9__gnu_cxx17__normal_iteratorIPSt4pairIlSt6vectorINSt7__cxx119sub_matchINS0_IPKcNS3_12basic_stringIcSt11char_traitsIcESaIcEEEEEEESaISD_EEES2_ISG_SaISG_EEEppEv = comdat any

$_ZN9__gnu_cxxeqIPKcNSt7__cxx1112basic_stringIcSt11char_traitsIcESaIcEEEEEbRKNS_17__normal_iteratorIT_T0_EESE_ = comdat any

$_ZN9__gnu_cxx17__normal_iteratorIPKcNSt7__cxx1112basic_stringIcSt11char_traitsIcESaIcEEEEppEv = comdat any

$_ZNSt6vectorISt4pairIlS_INSt7__cxx119sub_matchIN9__gnu_cxx17__normal_iteratorIPKcNS1_12basic_stringIcSt11char_traitsIcESaIcEEEEEEESaISD_EEESaISG_EE5clearEv = comdat any

$_ZNSt6vectorISt4pairIlS_INSt7__cxx119sub_matchIN9__gnu_cxx17__normal_iteratorIPKcNS1_12basic_stringIcSt11char_traitsIcESaIcEEEEEEESaISD_EEESaISG_EE12emplace_backIJRlRKSF_EEEvDpOT_ = comdat any

$_ZNSt16allocator_traitsISaISt4pairIlSt6vectorINSt7__cxx119sub_matchIN9__gnu_cxx17__normal_iteratorIPKcNS2_12basic_stringIcSt11char_traitsIcESaIcEEEEEEESaISE_EEEEE9constructISH_JRlRKSG_EEEvRSI_PT_DpOT0_ = comdat any

$_ZSt7forwardIRlEOT_RNSt16remove_referenceIS1_E4typeE = comdat any

$_ZSt7forwardIRKSt6vectorINSt7__cxx119sub_matchIN9__gnu_cxx17__normal_iteratorIPKcNS1_12basic_stringIcSt11char_traitsIcESaIcEEEEEEESaISD_EEEOT_RNSt16remove_referenceISI_E4typeE = comdat any

$_ZNSt6vectorISt4pairIlS_INSt7__cxx119sub_matchIN9__gnu_cxx17__normal_iteratorIPKcNS1_12basic_stringIcSt11char_traitsIcESaIcEEEEEEESaISD_EEESaISG_EE19_M_emplace_back_auxIJRlRKSF_EEEvDpOT_ = comdat any

$_ZN9__gnu_cxx13new_allocatorISt4pairIlSt6vectorINSt7__cxx119sub_matchINS_17__normal_iteratorIPKcNS3_12basic_stringIcSt11char_traitsIcESaIcEEEEEEESaISE_EEEE9constructISH_JRlRKSG_EEEvPT_DpOT0_ = comdat any

$_ZNSt4pairIlSt6vectorINSt7__cxx119sub_matchIN9__gnu_cxx17__normal_iteratorIPKcNS1_12basic_stringIcSt11char_traitsIcESaIcEEEEEEESaISD_EEEC2IRlvEEOT_RKSF_ = comdat any

$_ZNSt6vectorINSt7__cxx119sub_matchIN9__gnu_cxx17__normal_iteratorIPKcNS0_12basic_stringIcSt11char_traitsIcESaIcEEEEEEESaISC_EEC2ERKSE_ = comdat any

$_ZN9__gnu_cxx14__alloc_traitsISaINSt7__cxx119sub_matchINS_17__normal_iteratorIPKcNS1_12basic_stringIcSt11char_traitsIcESaIcEEEEEEEEE17_S_select_on_copyERKSD_ = comdat any

$_ZNSt12_Vector_baseINSt7__cxx119sub_matchIN9__gnu_cxx17__normal_iteratorIPKcNS0_12basic_stringIcSt11char_traitsIcESaIcEEEEEEESaISC_EEC2EmRKSD_ = comdat any

$_ZSt22__uninitialized_copy_aIN9__gnu_cxx17__normal_iteratorIPKNSt7__cxx119sub_matchINS1_IPKcNS2_12basic_stringIcSt11char_traitsIcESaIcEEEEEEESt6vectorISC_SaISC_EEEEPSC_SC_ET0_T_SL_SK_RSaIT1_E = comdat any

$_ZNKSt6vectorINSt7__cxx119sub_matchIN9__gnu_cxx17__normal_iteratorIPKcNS0_12basic_stringIcSt11char_traitsIcESaIcEEEEEEESaISC_EE5beginEv = comdat any

$_ZNKSt6vectorINSt7__cxx119sub_matchIN9__gnu_cxx17__normal_iteratorIPKcNS0_12basic_stringIcSt11char_traitsIcESaIcEEEEEEESaISC_EE3endEv = comdat any

$_ZNSt16allocator_traitsISaINSt7__cxx119sub_matchIN9__gnu_cxx17__normal_iteratorIPKcNS0_12basic_stringIcSt11char_traitsIcESaIcEEEEEEEEE37select_on_container_copy_constructionERKSD_ = comdat any

$_ZNSaINSt7__cxx119sub_matchIN9__gnu_cxx17__normal_iteratorIPKcNS_12basic_stringIcSt11char_traitsIcESaIcEEEEEEEEC2ERKSC_ = comdat any

$_ZNSt12_Vector_baseINSt7__cxx119sub_matchIN9__gnu_cxx17__normal_iteratorIPKcNS0_12basic_stringIcSt11char_traitsIcESaIcEEEEEEESaISC_EE17_M_create_storageEm = comdat any

$_ZSt18uninitialized_copyIN9__gnu_cxx17__normal_iteratorIPKNSt7__cxx119sub_matchINS1_IPKcNS2_12basic_stringIcSt11char_traitsIcESaIcEEEEEEESt6vectorISC_SaISC_EEEEPSC_ET0_T_SL_SK_ = comdat any

$_ZNSt20__uninitialized_copyILb0EE13__uninit_copyIN9__gnu_cxx17__normal_iteratorIPKNSt7__cxx119sub_matchINS3_IPKcNS4_12basic_stringIcSt11char_traitsIcESaIcEEEEEEESt6vectorISE_SaISE_EEEEPSE_EET0_T_SN_SM_ = comdat any

$_ZN9__gnu_cxxneIPKNSt7__cxx119sub_matchINS_17__normal_iteratorIPKcNS1_12basic_stringIcSt11char_traitsIcESaIcEEEEEEESt6vectorISC_SaISC_EEEEbRKNS3_IT_T0_EESM_ = comdat any

$_ZSt10_ConstructINSt7__cxx119sub_matchIN9__gnu_cxx17__normal_iteratorIPKcNS0_12basic_stringIcSt11char_traitsIcESaIcEEEEEEEJRKSC_EEvPT_DpOT0_ = comdat any

$_ZNK9__gnu_cxx17__normal_iteratorIPKNSt7__cxx119sub_matchINS0_IPKcNS1_12basic_stringIcSt11char_traitsIcESaIcEEEEEEESt6vectorISB_SaISB_EEEdeEv = comdat any

$_ZN9__gnu_cxx17__normal_iteratorIPKNSt7__cxx119sub_matchINS0_IPKcNS1_12basic_stringIcSt11char_traitsIcESaIcEEEEEEESt6vectorISB_SaISB_EEEppEv = comdat any

$_ZNK9__gnu_cxx17__normal_iteratorIPKNSt7__cxx119sub_matchINS0_IPKcNS1_12basic_stringIcSt11char_traitsIcESaIcEEEEEEESt6vectorISB_SaISB_EEE4baseEv = comdat any

$_ZSt7forwardIRKNSt7__cxx119sub_matchIN9__gnu_cxx17__normal_iteratorIPKcNS0_12basic_stringIcSt11char_traitsIcESaIcEEEEEEEEOT_RNSt16remove_referenceISF_E4typeE = comdat any

$_ZN9__gnu_cxx17__normal_iteratorIPKNSt7__cxx119sub_matchINS0_IPKcNS1_12basic_stringIcSt11char_traitsIcESaIcEEEEEEESt6vectorISB_SaISB_EEEC2ERKSD_ = comdat any

$_ZNKSt6vectorISt4pairIlS_INSt7__cxx119sub_matchIN9__gnu_cxx17__normal_iteratorIPKcNS1_12basic_stringIcSt11char_traitsIcESaIcEEEEEEESaISD_EEESaISG_EE12_M_check_lenEmS6_ = comdat any

$_ZNSt12_Vector_baseISt4pairIlSt6vectorINSt7__cxx119sub_matchIN9__gnu_cxx17__normal_iteratorIPKcNS2_12basic_stringIcSt11char_traitsIcESaIcEEEEEEESaISE_EEESaISH_EE11_M_allocateEm = comdat any

$_ZNKSt6vectorISt4pairIlS_INSt7__cxx119sub_matchIN9__gnu_cxx17__normal_iteratorIPKcNS1_12basic_stringIcSt11char_traitsIcESaIcEEEEEEESaISD_EEESaISG_EE4sizeEv = comdat any

$_ZSt34__uninitialized_move_if_noexcept_aIPSt4pairIlSt6vectorINSt7__cxx119sub_matchIN9__gnu_cxx17__normal_iteratorIPKcNS2_12basic_stringIcSt11char_traitsIcESaIcEEEEEEESaISE_EEESI_SaISH_EET0_T_SL_SK_RT1_ = comdat any

$_ZNSt16allocator_traitsISaISt4pairIlSt6vectorINSt7__cxx119sub_matchIN9__gnu_cxx17__normal_iteratorIPKcNS2_12basic_stringIcSt11char_traitsIcESaIcEEEEEEESaISE_EEEEE7destroyISH_EEvRSI_PT_ = comdat any

$_ZNKSt6vectorISt4pairIlS_INSt7__cxx119sub_matchIN9__gnu_cxx17__normal_iteratorIPKcNS1_12basic_stringIcSt11char_traitsIcESaIcEEEEEEESaISD_EEESaISG_EE8max_sizeEv = comdat any

$_ZNSt16allocator_traitsISaISt4pairIlSt6vectorINSt7__cxx119sub_matchIN9__gnu_cxx17__normal_iteratorIPKcNS2_12basic_stringIcSt11char_traitsIcESaIcEEEEEEESaISE_EEEEE8max_sizeERKSI_ = comdat any

$_ZNKSt12_Vector_baseISt4pairIlSt6vectorINSt7__cxx119sub_matchIN9__gnu_cxx17__normal_iteratorIPKcNS2_12basic_stringIcSt11char_traitsIcESaIcEEEEEEESaISE_EEESaISH_EE19_M_get_Tp_allocatorEv = comdat any

$_ZNK9__gnu_cxx13new_allocatorISt4pairIlSt6vectorINSt7__cxx119sub_matchINS_17__normal_iteratorIPKcNS3_12basic_stringIcSt11char_traitsIcESaIcEEEEEEESaISE_EEEE8max_sizeEv = comdat any

$_ZNSt16allocator_traitsISaISt4pairIlSt6vectorINSt7__cxx119sub_matchIN9__gnu_cxx17__normal_iteratorIPKcNS2_12basic_stringIcSt11char_traitsIcESaIcEEEEEEESaISE_EEEEE8allocateERSI_m = comdat any

$_ZN9__gnu_cxx13new_allocatorISt4pairIlSt6vectorINSt7__cxx119sub_matchINS_17__normal_iteratorIPKcNS3_12basic_stringIcSt11char_traitsIcESaIcEEEEEEESaISE_EEEE8allocateEmPKv = comdat any

$_ZSt22__uninitialized_copy_aISt13move_iteratorIPSt4pairIlSt6vectorINSt7__cxx119sub_matchIN9__gnu_cxx17__normal_iteratorIPKcNS3_12basic_stringIcSt11char_traitsIcESaIcEEEEEEESaISF_EEEESJ_SI_ET0_T_SM_SL_RSaIT1_E = comdat any

$_ZSt32__make_move_if_noexcept_iteratorIPSt4pairIlSt6vectorINSt7__cxx119sub_matchIN9__gnu_cxx17__normal_iteratorIPKcNS2_12basic_stringIcSt11char_traitsIcESaIcEEEEEEESaISE_EEESt13move_iteratorISI_EET0_T_ = comdat any

$_ZSt18uninitialized_copyISt13move_iteratorIPSt4pairIlSt6vectorINSt7__cxx119sub_matchIN9__gnu_cxx17__normal_iteratorIPKcNS3_12basic_stringIcSt11char_traitsIcESaIcEEEEEEESaISF_EEEESJ_ET0_T_SM_SL_ = comdat any

$_ZNSt20__uninitialized_copyILb0EE13__uninit_copyISt13move_iteratorIPSt4pairIlSt6vectorINSt7__cxx119sub_matchIN9__gnu_cxx17__normal_iteratorIPKcNS5_12basic_stringIcSt11char_traitsIcESaIcEEEEEEESaISH_EEEESL_EET0_T_SO_SN_ = comdat any

$_ZStneIPSt4pairIlSt6vectorINSt7__cxx119sub_matchIN9__gnu_cxx17__normal_iteratorIPKcNS2_12basic_stringIcSt11char_traitsIcESaIcEEEEEEESaISE_EEEEbRKSt13move_iteratorIT_ESN_ = comdat any

$_ZSt10_ConstructISt4pairIlSt6vectorINSt7__cxx119sub_matchIN9__gnu_cxx17__normal_iteratorIPKcNS2_12basic_stringIcSt11char_traitsIcESaIcEEEEEEESaISE_EEEJSH_EEvPT_DpOT0_ = comdat any

$_ZNKSt13move_iteratorIPSt4pairIlSt6vectorINSt7__cxx119sub_matchIN9__gnu_cxx17__normal_iteratorIPKcNS2_12basic_stringIcSt11char_traitsIcESaIcEEEEEEESaISE_EEEEdeEv = comdat any

$_ZNSt13move_iteratorIPSt4pairIlSt6vectorINSt7__cxx119sub_matchIN9__gnu_cxx17__normal_iteratorIPKcNS2_12basic_stringIcSt11char_traitsIcESaIcEEEEEEESaISE_EEEEppEv = comdat any

$_ZSteqIPSt4pairIlSt6vectorINSt7__cxx119sub_matchIN9__gnu_cxx17__normal_iteratorIPKcNS2_12basic_stringIcSt11char_traitsIcESaIcEEEEEEESaISE_EEEEbRKSt13move_iteratorIT_ESN_ = comdat any

$_ZNKSt13move_iteratorIPSt4pairIlSt6vectorINSt7__cxx119sub_matchIN9__gnu_cxx17__normal_iteratorIPKcNS2_12basic_stringIcSt11char_traitsIcESaIcEEEEEEESaISE_EEEE4baseEv = comdat any

$_ZSt7forwardISt4pairIlSt6vectorINSt7__cxx119sub_matchIN9__gnu_cxx17__normal_iteratorIPKcNS2_12basic_stringIcSt11char_traitsIcESaIcEEEEEEESaISE_EEEEOT_RNSt16remove_referenceISI_E4typeE = comdat any

$_ZNSt4pairIlSt6vectorINSt7__cxx119sub_matchIN9__gnu_cxx17__normal_iteratorIPKcNS1_12basic_stringIcSt11char_traitsIcESaIcEEEEEEESaISD_EEEC2EOSG_ = comdat any

$_ZNSt6vectorINSt7__cxx119sub_matchIN9__gnu_cxx17__normal_iteratorIPKcNS0_12basic_stringIcSt11char_traitsIcESaIcEEEEEEESaISC_EEC2EOSE_ = comdat any

$_ZNSt12_Vector_baseINSt7__cxx119sub_matchIN9__gnu_cxx17__normal_iteratorIPKcNS0_12basic_stringIcSt11char_traitsIcESaIcEEEEEEESaISC_EEC2EOSE_ = comdat any

$_ZSt4moveIRSaINSt7__cxx119sub_matchIN9__gnu_cxx17__normal_iteratorIPKcNS0_12basic_stringIcSt11char_traitsIcESaIcEEEEEEEEEONSt16remove_referenceIT_E4typeEOSG_ = comdat any

$_ZNSt12_Vector_baseINSt7__cxx119sub_matchIN9__gnu_cxx17__normal_iteratorIPKcNS0_12basic_stringIcSt11char_traitsIcESaIcEEEEEEESaISC_EE12_Vector_implC2EOSD_ = comdat any

$_ZNSt12_Vector_baseINSt7__cxx119sub_matchIN9__gnu_cxx17__normal_iteratorIPKcNS0_12basic_stringIcSt11char_traitsIcESaIcEEEEEEESaISC_EE12_Vector_impl12_M_swap_dataERSF_ = comdat any

$_ZSt4swapIPNSt7__cxx119sub_matchIN9__gnu_cxx17__normal_iteratorIPKcNS0_12basic_stringIcSt11char_traitsIcESaIcEEEEEEEEvRT_SF_ = comdat any

$_ZSt4moveIRPNSt7__cxx119sub_matchIN9__gnu_cxx17__normal_iteratorIPKcNS0_12basic_stringIcSt11char_traitsIcESaIcEEEEEEEEONSt16remove_referenceIT_E4typeEOSG_ = comdat any

$_ZNSt13move_iteratorIPSt4pairIlSt6vectorINSt7__cxx119sub_matchIN9__gnu_cxx17__normal_iteratorIPKcNS2_12basic_stringIcSt11char_traitsIcESaIcEEEEEEESaISE_EEEEC2ESI_ = comdat any

$_ZN9__gnu_cxx13new_allocatorISt4pairIlSt6vectorINSt7__cxx119sub_matchINS_17__normal_iteratorIPKcNS3_12basic_stringIcSt11char_traitsIcESaIcEEEEEEESaISE_EEEE7destroyISH_EEvPT_ = comdat any

$_ZN9__gnu_cxxeqIPKSt4pairIlSt6vectorINSt7__cxx119sub_matchINS_17__normal_iteratorIPKcNS3_12basic_stringIcSt11char_traitsIcESaIcEEEEEEESaISE_EEES2_ISH_SaISH_EEEEbRKNS5_IT_T0_EESQ_ = comdat any

$_ZNKSt6vectorISt4pairIlS_INSt7__cxx119sub_matchIN9__gnu_cxx17__normal_iteratorIPKcNS1_12basic_stringIcSt11char_traitsIcESaIcEEEEEEESaISD_EEESaISG_EE5beginEv = comdat any

$_ZNKSt6vectorISt4pairIlS_INSt7__cxx119sub_matchIN9__gnu_cxx17__normal_iteratorIPKcNS1_12basic_stringIcSt11char_traitsIcESaIcEEEEEEESaISD_EEESaISG_EE3endEv = comdat any

$_ZNK9__gnu_cxx17__normal_iteratorIPKSt4pairIlSt6vectorINSt7__cxx119sub_matchINS0_IPKcNS3_12basic_stringIcSt11char_traitsIcESaIcEEEEEEESaISD_EEES2_ISG_SaISG_EEE4baseEv = comdat any

$_ZN9__gnu_cxx17__normal_iteratorIPKSt4pairIlSt6vectorINSt7__cxx119sub_matchINS0_IPKcNS3_12basic_stringIcSt11char_traitsIcESaIcEEEEEEESaISD_EEES2_ISG_SaISG_EEEC2ERKSI_ = comdat any

$_ZSt10__fill_n_aIPbmbEN9__gnu_cxx11__enable_ifIXsr11__is_scalarIT1_EE7__valueET_E6__typeES4_T0_RKS3_ = comdat any

$_ZSt12__niter_baseIPbENSt11_Niter_baseIT_E13iterator_typeES2_ = comdat any

$_ZNSt10_Iter_baseIPbLb0EE7_S_baseES0_ = comdat any

$_ZSt3getILm0EJPbSt14default_deleteIA_bEEERKNSt13tuple_elementIXT_ESt5tupleIJDpT0_EEE4typeERKS8_ = comdat any

$_ZSt12__get_helperILm0EPbJSt14default_deleteIA_bEEERKT0_RKSt11_Tuple_implIXT_EJS4_DpT1_EE = comdat any

$_ZNSt11_Tuple_implILm0EJPbSt14default_deleteIA_bEEE7_M_headERKS4_ = comdat any

$_ZNSt10_Head_baseILm0EPbLb0EE7_M_headERKS1_ = comdat any

$_ZNSt12_Vector_baseISt4pairIlSt6vectorINSt7__cxx119sub_matchIN9__gnu_cxx17__normal_iteratorIPKcNS2_12basic_stringIcSt11char_traitsIcESaIcEEEEEEESaISE_EEESaISH_EEC2EOSJ_ = comdat any

$_ZSt4moveIRSaISt4pairIlSt6vectorINSt7__cxx119sub_matchIN9__gnu_cxx17__normal_iteratorIPKcNS2_12basic_stringIcSt11char_traitsIcESaIcEEEEEEESaISE_EEEEEONSt16remove_referenceIT_E4typeEOSL_ = comdat any

$_ZNSt12_Vector_baseISt4pairIlSt6vectorINSt7__cxx119sub_matchIN9__gnu_cxx17__normal_iteratorIPKcNS2_12basic_stringIcSt11char_traitsIcESaIcEEEEEEESaISE_EEESaISH_EE12_Vector_implC2EOSI_ = comdat any

$_ZNSt12_Vector_baseISt4pairIlSt6vectorINSt7__cxx119sub_matchIN9__gnu_cxx17__normal_iteratorIPKcNS2_12basic_stringIcSt11char_traitsIcESaIcEEEEEEESaISE_EEESaISH_EE12_Vector_impl12_M_swap_dataERSK_ = comdat any

$_ZNSaISt4pairIlSt6vectorINSt7__cxx119sub_matchIN9__gnu_cxx17__normal_iteratorIPKcNS1_12basic_stringIcSt11char_traitsIcESaIcEEEEEEESaISD_EEEEC2ERKSH_ = comdat any

$_ZN9__gnu_cxx13new_allocatorISt4pairIlSt6vectorINSt7__cxx119sub_matchINS_17__normal_iteratorIPKcNS3_12basic_stringIcSt11char_traitsIcESaIcEEEEEEESaISE_EEEEC2ERKSI_ = comdat any

$_ZSt4swapIPSt4pairIlSt6vectorINSt7__cxx119sub_matchIN9__gnu_cxx17__normal_iteratorIPKcNS2_12basic_stringIcSt11char_traitsIcESaIcEEEEEEESaISE_EEEEvRT_SK_ = comdat any

$_ZSt4moveIRPSt4pairIlSt6vectorINSt7__cxx119sub_matchIN9__gnu_cxx17__normal_iteratorIPKcNS2_12basic_stringIcSt11char_traitsIcESaIcEEEEEEESaISE_EEEEONSt16remove_referenceIT_E4typeEOSL_ = comdat any

$_ZN9__gnu_cxx17__normal_iteratorIPSt4pairIlSt6vectorINSt7__cxx119sub_matchINS0_IPKcNS3_12basic_stringIcSt11char_traitsIcESaIcEEEEEEESaISD_EEES2_ISG_SaISG_EEEC2ERKSH_ = comdat any

$_ZNK9__gnu_cxx17__normal_iteratorIPSt4pairIlSt6vectorINSt7__cxx119sub_matchINS0_IPKcNS3_12basic_stringIcSt11char_traitsIcESaIcEEEEEEESaISD_EEES2_ISG_SaISG_EEE4baseEv = comdat any

$_ZNSt6vectorINSt7__cxx119sub_matchIN9__gnu_cxx17__normal_iteratorIPKcNS0_12basic_stringIcSt11char_traitsIcESaIcEEEEEEESaISC_EE14_M_move_assignEOSE_St17integral_constantIbLb1EE = comdat any

$_ZNKSt12_Vector_baseINSt7__cxx119sub_matchIN9__gnu_cxx17__normal_iteratorIPKcNS0_12basic_stringIcSt11char_traitsIcESaIcEEEEEEESaISC_EE13get_allocatorEv = comdat any

$_ZNSt6vectorINSt7__cxx119sub_matchIN9__gnu_cxx17__normal_iteratorIPKcNS0_12basic_stringIcSt11char_traitsIcESaIcEEEEEEESaISC_EEC2ERKSD_ = comdat any

$_ZSt15__alloc_on_moveISaINSt7__cxx119sub_matchIN9__gnu_cxx17__normal_iteratorIPKcNS0_12basic_stringIcSt11char_traitsIcESaIcEEEEEEEEEvRT_SF_ = comdat any

$_ZSt18__do_alloc_on_moveISaINSt7__cxx119sub_matchIN9__gnu_cxx17__normal_iteratorIPKcNS0_12basic_stringIcSt11char_traitsIcESaIcEEEEEEEEEvRT_SF_St17integral_constantIbLb1EE = comdat any

$_ZNSt8__detail9_ExecutorIN9__gnu_cxx17__normal_iteratorIPKcNSt7__cxx1112basic_stringIcSt11char_traitsIcESaIcEEEEESaINS5_9sub_matchISB_EEENS5_12regex_traitsIcEELb0EE11_State_infoISt17integral_constantIbLb0EESt6vectorISD_SE_EE10_M_visitedEl = comdat any

$_ZNKSt6vectorINSt8__detail6_StateINSt7__cxx1112regex_traitsIcEEEESaIS5_EEixEm = comdat any

$_ZNSt8__detail9_ExecutorIN9__gnu_cxx17__normal_iteratorIPKcNSt7__cxx1112basic_stringIcSt11char_traitsIcESaIcEEEEESaINS5_9sub_matchISB_EEENS5_12regex_traitsIcEELb0EE16_M_rep_once_moreENSH_11_Match_modeEl = comdat any

$_ZNSt6vectorINSt7__cxx119sub_matchIN9__gnu_cxx17__normal_iteratorIPKcNS0_12basic_stringIcSt11char_traitsIcESaIcEEEEEEESaISC_EEixEm = comdat any

$_ZNSt7__cxx119sub_matchIN9__gnu_cxx17__normal_iteratorIPKcNS_12basic_stringIcSt11char_traitsIcESaIcEEEEEEaSERKSB_ = comdat any

$_ZNKSt8__detail9_ExecutorIN9__gnu_cxx17__normal_iteratorIPKcNSt7__cxx1112basic_stringIcSt11char_traitsIcESaIcEEEEESaINS5_9sub_matchISB_EEENS5_12regex_traitsIcEELb0EE11_M_at_beginEv = comdat any

$_ZNKSt8__detail9_ExecutorIN9__gnu_cxx17__normal_iteratorIPKcNSt7__cxx1112basic_stringIcSt11char_traitsIcESaIcEEEEESaINS5_9sub_matchISB_EEENS5_12regex_traitsIcEELb0EE9_M_at_endEv = comdat any

$_ZNKSt8__detail9_ExecutorIN9__gnu_cxx17__normal_iteratorIPKcNSt7__cxx1112basic_stringIcSt11char_traitsIcESaIcEEEEESaINS5_9sub_matchISB_EEENS5_12regex_traitsIcEELb0EE16_M_word_boundaryEv = comdat any

$_ZNSt8__detail9_ExecutorIN9__gnu_cxx17__normal_iteratorIPKcNSt7__cxx1112basic_stringIcSt11char_traitsIcESaIcEEEEESaINS5_9sub_matchISB_EEENS5_12regex_traitsIcEELb0EE12_M_lookaheadENS_6_StateISG_EE = comdat any

$_ZNKSt8functionIFbcEEclEc = comdat any

$_ZNK9__gnu_cxx17__normal_iteratorIPKcNSt7__cxx1112basic_stringIcSt11char_traitsIcESaIcEEEEdeEv = comdat any

$_ZN9__gnu_cxxneIPKcNSt7__cxx1112basic_stringIcSt11char_traitsIcESaIcEEEEEbRKNS_17__normal_iteratorIT_T0_EESE_ = comdat any

$_ZNKSt7__cxx1112regex_traitsIcE9transformIN9__gnu_cxx17__normal_iteratorIPKcNS_12basic_stringIcSt11char_traitsIcESaIcEEEEEEESB_T_SD_ = comdat any

$_ZNSt6vectorINSt7__cxx119sub_matchIN9__gnu_cxx17__normal_iteratorIPKcNS0_12basic_stringIcSt11char_traitsIcESaIcEEEEEEESaISC_EEaSERKSE_ = comdat any

$_ZNKSt10unique_ptrIA_bSt14default_deleteIS0_EEixEm = comdat any

$_ZNSt6vectorISt4pairIN9__gnu_cxx17__normal_iteratorIPKcNSt7__cxx1112basic_stringIcSt11char_traitsIcESaIcEEEEEiESaISC_EEixEm = comdat any

$_ZNSt4pairIN9__gnu_cxx17__normal_iteratorIPKcNSt7__cxx1112basic_stringIcSt11char_traitsIcESaIcEEEEEiEaSERKSB_ = comdat any

$_ZNSt4pairIN9__gnu_cxx17__normal_iteratorIPKcNSt7__cxx1112basic_stringIcSt11char_traitsIcESaIcEEEEESA_EaSERKSB_ = comdat any

$_ZNSt15regex_constantsorENS_15match_flag_typeES0_ = comdat any

$_ZNKSt8__detail9_ExecutorIN9__gnu_cxx17__normal_iteratorIPKcNSt7__cxx1112basic_stringIcSt11char_traitsIcESaIcEEEEESaINS5_9sub_matchISB_EEENS5_12regex_traitsIcEELb0EE10_M_is_wordEc = comdat any

$_ZSt4prevIN9__gnu_cxx17__normal_iteratorIPKcNSt7__cxx1112basic_stringIcSt11char_traitsIcESaIcEEEEEET_SB_NSt15iterator_traitsISB_E15difference_typeE = comdat any

$_ZSt7advanceIN9__gnu_cxx17__normal_iteratorIPKcNSt7__cxx1112basic_stringIcSt11char_traitsIcESaIcEEEEElEvRT_T0_ = comdat any

$_ZSt9__advanceIN9__gnu_cxx17__normal_iteratorIPKcNSt7__cxx1112basic_stringIcSt11char_traitsIcESaIcEEEEElEvRT_T0_St26random_access_iterator_tag = comdat any

$_ZSt19__iterator_categoryIN9__gnu_cxx17__normal_iteratorIPKcNSt7__cxx1112basic_stringIcSt11char_traitsIcESaIcEEEEEENSt15iterator_traitsIT_E17iterator_categoryERKSC_ = comdat any

$_ZN9__gnu_cxx17__normal_iteratorIPKcNSt7__cxx1112basic_stringIcSt11char_traitsIcESaIcEEEEpLEl = comdat any

$_ZNSt8__detail9_ExecutorIN9__gnu_cxx17__normal_iteratorIPKcNSt7__cxx1112basic_stringIcSt11char_traitsIcESaIcEEEEESaINS5_9sub_matchISB_EEENS5_12regex_traitsIcEELb0EE20_M_search_from_firstEv = comdat any

$_ZNK9__gnu_cxx17__normal_iteratorIPKcNSt7__cxx1112basic_stringIcSt11char_traitsIcESaIcEEEE4baseEv = comdat any

$_ZNSt7__cxx1112basic_stringIcSt11char_traitsIcESaIcEEC2IN9__gnu_cxx17__normal_iteratorIPKcS4_EEvEET_SB_RKS3_ = comdat any

$_ZNSt7__cxx1112basic_stringIcSt11char_traitsIcESaIcEE12_M_constructIN9__gnu_cxx17__normal_iteratorIPKcS4_EEEEvT_SB_ = comdat any

$_ZNSt7__cxx1112basic_stringIcSt11char_traitsIcESaIcEE16_M_construct_auxIN9__gnu_cxx17__normal_iteratorIPKcS4_EEEEvT_SB_St12__false_type = comdat any

$_ZNSt7__cxx1112basic_stringIcSt11char_traitsIcESaIcEE12_M_constructIN9__gnu_cxx17__normal_iteratorIPKcS4_EEEEvT_SB_St20forward_iterator_tag = comdat any

$_ZN9__gnu_cxx17__is_null_pointerINS_17__normal_iteratorIPKcNSt7__cxx1112basic_stringIcSt11char_traitsIcESaIcEEEEEEEbT_ = comdat any

$_ZSt8distanceIN9__gnu_cxx17__normal_iteratorIPKcNSt7__cxx1112basic_stringIcSt11char_traitsIcESaIcEEEEEENSt15iterator_traitsIT_E15difference_typeESC_SC_ = comdat any

$_ZSt10__distanceIN9__gnu_cxx17__normal_iteratorIPKcNSt7__cxx1112basic_stringIcSt11char_traitsIcESaIcEEEEEENSt15iterator_traitsIT_E15difference_typeESC_SC_St26random_access_iterator_tag = comdat any

$_ZN9__gnu_cxxmiIPKcNSt7__cxx1112basic_stringIcSt11char_traitsIcESaIcEEEEENS_17__normal_iteratorIT_T0_E15difference_typeERKSC_SF_ = comdat any

$_ZNKSt6vectorINSt7__cxx119sub_matchIN9__gnu_cxx17__normal_iteratorIPKcNS0_12basic_stringIcSt11char_traitsIcESaIcEEEEEEESaISC_EE8capacityEv = comdat any

$_ZNSt6vectorINSt7__cxx119sub_matchIN9__gnu_cxx17__normal_iteratorIPKcNS0_12basic_stringIcSt11char_traitsIcESaIcEEEEEEESaISC_EE20_M_allocate_and_copyINS3_IPKSC_SE_EEEEPSC_mT_SK_ = comdat any

$_ZSt8_DestroyIN9__gnu_cxx17__normal_iteratorIPNSt7__cxx119sub_matchINS1_IPKcNS2_12basic_stringIcSt11char_traitsIcESaIcEEEEEEESt6vectorISC_SaISC_EEEESC_EvT_SI_RSaIT0_E = comdat any

$_ZSt4copyIN9__gnu_cxx17__normal_iteratorIPKNSt7__cxx119sub_matchINS1_IPKcNS2_12basic_stringIcSt11char_traitsIcESaIcEEEEEEESt6vectorISC_SaISC_EEEENS1_IPSC_SH_EEET0_T_SM_SL_ = comdat any

$_ZSt4copyIPNSt7__cxx119sub_matchIN9__gnu_cxx17__normal_iteratorIPKcNS0_12basic_stringIcSt11char_traitsIcESaIcEEEEEEESD_ET0_T_SF_SE_ = comdat any

$_ZSt22__uninitialized_copy_aIPNSt7__cxx119sub_matchIN9__gnu_cxx17__normal_iteratorIPKcNS0_12basic_stringIcSt11char_traitsIcESaIcEEEEEEESD_SC_ET0_T_SF_SE_RSaIT1_E = comdat any

$_ZSt8_DestroyIN9__gnu_cxx17__normal_iteratorIPNSt7__cxx119sub_matchINS1_IPKcNS2_12basic_stringIcSt11char_traitsIcESaIcEEEEEEESt6vectorISC_SaISC_EEEEEvT_SI_ = comdat any

$_ZNSt12_Destroy_auxILb1EE9__destroyIN9__gnu_cxx17__normal_iteratorIPNSt7__cxx119sub_matchINS3_IPKcNS4_12basic_stringIcSt11char_traitsIcESaIcEEEEEEESt6vectorISE_SaISE_EEEEEEvT_SK_ = comdat any

$_ZSt14__copy_move_a2ILb0EN9__gnu_cxx17__normal_iteratorIPKNSt7__cxx119sub_matchINS1_IPKcNS2_12basic_stringIcSt11char_traitsIcESaIcEEEEEEESt6vectorISC_SaISC_EEEENS1_IPSC_SH_EEET1_T0_SM_SL_ = comdat any

$_ZSt12__miter_baseIN9__gnu_cxx17__normal_iteratorIPKNSt7__cxx119sub_matchINS1_IPKcNS2_12basic_stringIcSt11char_traitsIcESaIcEEEEEEESt6vectorISC_SaISC_EEEEENSt11_Miter_baseIT_E13iterator_typeESK_ = comdat any

$_ZSt13__copy_move_aILb0EPKNSt7__cxx119sub_matchIN9__gnu_cxx17__normal_iteratorIPKcNS0_12basic_stringIcSt11char_traitsIcESaIcEEEEEEEPSC_ET1_T0_SH_SG_ = comdat any

$_ZSt12__niter_baseIN9__gnu_cxx17__normal_iteratorIPKNSt7__cxx119sub_matchINS1_IPKcNS2_12basic_stringIcSt11char_traitsIcESaIcEEEEEEESt6vectorISC_SaISC_EEEEENSt11_Niter_baseIT_E13iterator_typeESK_ = comdat any

$_ZSt12__niter_baseIN9__gnu_cxx17__normal_iteratorIPNSt7__cxx119sub_matchINS1_IPKcNS2_12basic_stringIcSt11char_traitsIcESaIcEEEEEEESt6vectorISC_SaISC_EEEEENSt11_Niter_baseIT_E13iterator_typeESJ_ = comdat any

$_ZNSt11__copy_moveILb0ELb0ESt26random_access_iterator_tagE8__copy_mIPKNSt7__cxx119sub_matchIN9__gnu_cxx17__normal_iteratorIPKcNS3_12basic_stringIcSt11char_traitsIcESaIcEEEEEEEPSF_EET0_T_SK_SJ_ = comdat any

$_ZNSt10_Iter_baseIN9__gnu_cxx17__normal_iteratorIPKNSt7__cxx119sub_matchINS1_IPKcNS2_12basic_stringIcSt11char_traitsIcESaIcEEEEEEESt6vectorISC_SaISC_EEEELb1EE7_S_baseESI_ = comdat any

$_ZNSt10_Iter_baseIN9__gnu_cxx17__normal_iteratorIPNSt7__cxx119sub_matchINS1_IPKcNS2_12basic_stringIcSt11char_traitsIcESaIcEEEEEEESt6vectorISC_SaISC_EEEELb1EE7_S_baseESH_ = comdat any

$_ZNSt10_Iter_baseIN9__gnu_cxx17__normal_iteratorIPKNSt7__cxx119sub_matchINS1_IPKcNS2_12basic_stringIcSt11char_traitsIcESaIcEEEEEEESt6vectorISC_SaISC_EEEELb0EE7_S_baseESI_ = comdat any

$_ZSt14__copy_move_a2ILb0EPNSt7__cxx119sub_matchIN9__gnu_cxx17__normal_iteratorIPKcNS0_12basic_stringIcSt11char_traitsIcESaIcEEEEEEESD_ET1_T0_SF_SE_ = comdat any

$_ZSt12__miter_baseIPNSt7__cxx119sub_matchIN9__gnu_cxx17__normal_iteratorIPKcNS0_12basic_stringIcSt11char_traitsIcESaIcEEEEEEEENSt11_Miter_baseIT_E13iterator_typeESF_ = comdat any

$_ZSt13__copy_move_aILb0EPNSt7__cxx119sub_matchIN9__gnu_cxx17__normal_iteratorIPKcNS0_12basic_stringIcSt11char_traitsIcESaIcEEEEEEESD_ET1_T0_SF_SE_ = comdat any

$_ZSt12__niter_baseIPNSt7__cxx119sub_matchIN9__gnu_cxx17__normal_iteratorIPKcNS0_12basic_stringIcSt11char_traitsIcESaIcEEEEEEEENSt11_Niter_baseIT_E13iterator_typeESF_ = comdat any

$_ZNSt11__copy_moveILb0ELb0ESt26random_access_iterator_tagE8__copy_mIPNSt7__cxx119sub_matchIN9__gnu_cxx17__normal_iteratorIPKcNS3_12basic_stringIcSt11char_traitsIcESaIcEEEEEEESG_EET0_T_SI_SH_ = comdat any

$_ZNSt10_Iter_baseIPNSt7__cxx119sub_matchIN9__gnu_cxx17__normal_iteratorIPKcNS0_12basic_stringIcSt11char_traitsIcESaIcEEEEEEELb0EE7_S_baseESD_ = comdat any

$_ZSt18uninitialized_copyIPNSt7__cxx119sub_matchIN9__gnu_cxx17__normal_iteratorIPKcNS0_12basic_stringIcSt11char_traitsIcESaIcEEEEEEESD_ET0_T_SF_SE_ = comdat any

$_ZNSt20__uninitialized_copyILb0EE13__uninit_copyIPNSt7__cxx119sub_matchIN9__gnu_cxx17__normal_iteratorIPKcNS2_12basic_stringIcSt11char_traitsIcESaIcEEEEEEESF_EET0_T_SH_SG_ = comdat any

$_ZSt10_ConstructINSt7__cxx119sub_matchIN9__gnu_cxx17__normal_iteratorIPKcNS0_12basic_stringIcSt11char_traitsIcESaIcEEEEEEEJRSC_EEvPT_DpOT0_ = comdat any

$_ZSt7forwardIRNSt7__cxx119sub_matchIN9__gnu_cxx17__normal_iteratorIPKcNS0_12basic_stringIcSt11char_traitsIcESaIcEEEEEEEEOT_RNSt16remove_referenceISE_E4typeE = comdat any

$_ZNSt6vectorISt4pairIlS_INSt7__cxx119sub_matchIN9__gnu_cxx17__normal_iteratorIPKcNS1_12basic_stringIcSt11char_traitsIcESaIcEEEEEEESaISD_EEESaISG_EE15_M_erase_at_endEPSG_ = comdat any

$_ZNSt8__detail9_ExecutorIN9__gnu_cxx17__normal_iteratorIPKcNSt7__cxx1112basic_stringIcSt11char_traitsIcESaIcEEEEESaINS5_9sub_matchISB_EEENS5_12regex_traitsIcEELb1EE11_State_infoISt17integral_constantIbLb1EESt6vectorISD_SE_EEC2Elm = comdat any

$_ZNSt8__detail9_ExecutorIN9__gnu_cxx17__normal_iteratorIPKcNSt7__cxx1112basic_stringIcSt11char_traitsIcESaIcEEEEESaINS5_9sub_matchISB_EEENS5_12regex_traitsIcEELb1EE7_M_mainENSH_11_Match_modeE = comdat any

$_ZNSt8__detail9_ExecutorIN9__gnu_cxx17__normal_iteratorIPKcNSt7__cxx1112basic_stringIcSt11char_traitsIcESaIcEEEEESaINS5_9sub_matchISB_EEENS5_12regex_traitsIcEELb1EE16_M_main_dispatchENSH_11_Match_modeESt17integral_constantIbLb1EE = comdat any

$_ZNSt8__detail9_ExecutorIN9__gnu_cxx17__normal_iteratorIPKcNSt7__cxx1112basic_stringIcSt11char_traitsIcESaIcEEEEESaINS5_9sub_matchISB_EEENS5_12regex_traitsIcEELb1EE11_State_infoISt17integral_constantIbLb1EESt6vectorISD_SE_EE14_M_get_sol_posEv = comdat any

$_ZNSt8__detail9_ExecutorIN9__gnu_cxx17__normal_iteratorIPKcNSt7__cxx1112basic_stringIcSt11char_traitsIcESaIcEEEEESaINS5_9sub_matchISB_EEENS5_12regex_traitsIcEELb1EE6_M_dfsENSH_11_Match_modeEl = comdat any

$_ZNKSt8__detail9_ExecutorIN9__gnu_cxx17__normal_iteratorIPKcNSt7__cxx1112basic_stringIcSt11char_traitsIcESaIcEEEEESaINS5_9sub_matchISB_EEENS5_12regex_traitsIcEELb1EE11_State_infoISt17integral_constantIbLb1EESt6vectorISD_SE_EE10_M_visitedEl = comdat any

$_ZNSt8__detail9_ExecutorIN9__gnu_cxx17__normal_iteratorIPKcNSt7__cxx1112basic_stringIcSt11char_traitsIcESaIcEEEEESaINS5_9sub_matchISB_EEENS5_12regex_traitsIcEELb1EE16_M_rep_once_moreENSH_11_Match_modeEl = comdat any

$_ZNKSt8__detail9_ExecutorIN9__gnu_cxx17__normal_iteratorIPKcNSt7__cxx1112basic_stringIcSt11char_traitsIcESaIcEEEEESaINS5_9sub_matchISB_EEENS5_12regex_traitsIcEELb1EE11_M_at_beginEv = comdat any

$_ZNKSt8__detail9_ExecutorIN9__gnu_cxx17__normal_iteratorIPKcNSt7__cxx1112basic_stringIcSt11char_traitsIcESaIcEEEEESaINS5_9sub_matchISB_EEENS5_12regex_traitsIcEELb1EE9_M_at_endEv = comdat any

$_ZNKSt8__detail9_ExecutorIN9__gnu_cxx17__normal_iteratorIPKcNSt7__cxx1112basic_stringIcSt11char_traitsIcESaIcEEEEESaINS5_9sub_matchISB_EEENS5_12regex_traitsIcEELb1EE16_M_word_boundaryEv = comdat any

$_ZNSt8__detail9_ExecutorIN9__gnu_cxx17__normal_iteratorIPKcNSt7__cxx1112basic_stringIcSt11char_traitsIcESaIcEEEEESaINS5_9sub_matchISB_EEENS5_12regex_traitsIcEELb1EE12_M_lookaheadENS_6_StateISG_EE = comdat any

$_ZN9__gnu_cxx17__normal_iteratorIPKcNSt7__cxx1112basic_stringIcSt11char_traitsIcESaIcEEEEmmEv = comdat any

$_ZNKSt8__detail9_ExecutorIN9__gnu_cxx17__normal_iteratorIPKcNSt7__cxx1112basic_stringIcSt11char_traitsIcESaIcEEEEESaINS5_9sub_matchISB_EEENS5_12regex_traitsIcEELb1EE10_M_is_wordEc = comdat any

$_ZNSt8__detail9_ExecutorIN9__gnu_cxx17__normal_iteratorIPKcNSt7__cxx1112basic_stringIcSt11char_traitsIcESaIcEEEEESaINS5_9sub_matchISB_EEENS5_12regex_traitsIcEELb1EE20_M_search_from_firstEv = comdat any

$_ZTSSt19_Sp_make_shared_tag = comdat any

$_ZTISt19_Sp_make_shared_tag = comdat any

$_ZTVSt23_Sp_counted_ptr_inplaceINSt8__detail4_NFAINSt7__cxx1112regex_traitsIcEEEESaIS5_ELN9__gnu_cxx12_Lock_policyE2EE = comdat any

$_ZTSSt23_Sp_counted_ptr_inplaceINSt8__detail4_NFAINSt7__cxx1112regex_traitsIcEEEESaIS5_ELN9__gnu_cxx12_Lock_policyE2EE = comdat any

$_ZTSSt16_Sp_counted_baseILN9__gnu_cxx12_Lock_policyE2EE = comdat any

$_ZTSSt11_Mutex_baseILN9__gnu_cxx12_Lock_policyE2EE = comdat any

$_ZTISt11_Mutex_baseILN9__gnu_cxx12_Lock_policyE2EE = comdat any

$_ZTISt16_Sp_counted_baseILN9__gnu_cxx12_Lock_policyE2EE = comdat any

$_ZTISt23_Sp_counted_ptr_inplaceINSt8__detail4_NFAINSt7__cxx1112regex_traitsIcEEEESaIS5_ELN9__gnu_cxx12_Lock_policyE2EE = comdat any

$_ZTVSt16_Sp_counted_baseILN9__gnu_cxx12_Lock_policyE2EE = comdat any

$_ZZNKSt8__detail11_AnyMatcherINSt7__cxx1112regex_traitsIcEELb0ELb0ELb0EEclEcE5__nul = comdat any

$_ZGVZNKSt8__detail11_AnyMatcherINSt7__cxx1112regex_traitsIcEELb0ELb0ELb0EEclEcE5__nul = comdat any

$_ZTSNSt8__detail11_AnyMatcherINSt7__cxx1112regex_traitsIcEELb0ELb0ELb0EEE = comdat any

$_ZTINSt8__detail11_AnyMatcherINSt7__cxx1112regex_traitsIcEELb0ELb0ELb0EEE = comdat any

$_ZZNKSt8__detail11_AnyMatcherINSt7__cxx1112regex_traitsIcEELb0ELb0ELb1EEclEcE5__nul = comdat any

$_ZGVZNKSt8__detail11_AnyMatcherINSt7__cxx1112regex_traitsIcEELb0ELb0ELb1EEclEcE5__nul = comdat any

$_ZTSNSt8__detail11_AnyMatcherINSt7__cxx1112regex_traitsIcEELb0ELb0ELb1EEE = comdat any

$_ZTINSt8__detail11_AnyMatcherINSt7__cxx1112regex_traitsIcEELb0ELb0ELb1EEE = comdat any

$_ZZNKSt8__detail11_AnyMatcherINSt7__cxx1112regex_traitsIcEELb0ELb1ELb0EEclEcE5__nul = comdat any

$_ZGVZNKSt8__detail11_AnyMatcherINSt7__cxx1112regex_traitsIcEELb0ELb1ELb0EEclEcE5__nul = comdat any

$_ZTSNSt8__detail11_AnyMatcherINSt7__cxx1112regex_traitsIcEELb0ELb1ELb0EEE = comdat any

$_ZTINSt8__detail11_AnyMatcherINSt7__cxx1112regex_traitsIcEELb0ELb1ELb0EEE = comdat any

$_ZZNKSt8__detail11_AnyMatcherINSt7__cxx1112regex_traitsIcEELb0ELb1ELb1EEclEcE5__nul = comdat any

$_ZGVZNKSt8__detail11_AnyMatcherINSt7__cxx1112regex_traitsIcEELb0ELb1ELb1EEclEcE5__nul = comdat any

$_ZTSNSt8__detail11_AnyMatcherINSt7__cxx1112regex_traitsIcEELb0ELb1ELb1EEE = comdat any

$_ZTINSt8__detail11_AnyMatcherINSt7__cxx1112regex_traitsIcEELb0ELb1ELb1EEE = comdat any

$_ZTSNSt8__detail11_AnyMatcherINSt7__cxx1112regex_traitsIcEELb1ELb0ELb0EEE = comdat any

$_ZTINSt8__detail11_AnyMatcherINSt7__cxx1112regex_traitsIcEELb1ELb0ELb0EEE = comdat any

$_ZTSNSt8__detail11_AnyMatcherINSt7__cxx1112regex_traitsIcEELb1ELb0ELb1EEE = comdat any

$_ZTINSt8__detail11_AnyMatcherINSt7__cxx1112regex_traitsIcEELb1ELb0ELb1EEE = comdat any

$_ZTSNSt8__detail11_AnyMatcherINSt7__cxx1112regex_traitsIcEELb1ELb1ELb0EEE = comdat any

$_ZTINSt8__detail11_AnyMatcherINSt7__cxx1112regex_traitsIcEELb1ELb1ELb0EEE = comdat any

$_ZTSNSt8__detail11_AnyMatcherINSt7__cxx1112regex_traitsIcEELb1ELb1ELb1EEE = comdat any

$_ZTINSt8__detail11_AnyMatcherINSt7__cxx1112regex_traitsIcEELb1ELb1ELb1EEE = comdat any

$_ZTSNSt8__detail12_CharMatcherINSt7__cxx1112regex_traitsIcEELb0ELb0EEE = comdat any

$_ZTINSt8__detail12_CharMatcherINSt7__cxx1112regex_traitsIcEELb0ELb0EEE = comdat any

$_ZTSNSt8__detail12_CharMatcherINSt7__cxx1112regex_traitsIcEELb0ELb1EEE = comdat any

$_ZTINSt8__detail12_CharMatcherINSt7__cxx1112regex_traitsIcEELb0ELb1EEE = comdat any

$_ZTSNSt8__detail12_CharMatcherINSt7__cxx1112regex_traitsIcEELb1ELb0EEE = comdat any

$_ZTINSt8__detail12_CharMatcherINSt7__cxx1112regex_traitsIcEELb1ELb0EEE = comdat any

$_ZTSNSt8__detail12_CharMatcherINSt7__cxx1112regex_traitsIcEELb1ELb1EEE = comdat any

$_ZTINSt8__detail12_CharMatcherINSt7__cxx1112regex_traitsIcEELb1ELb1EEE = comdat any

$_ZZNKSt7__cxx1112regex_traitsIcE16lookup_classnameIPKcEENS1_10_RegexMaskET_S6_bE12__classnamesB5cxx11 = comdat any

$_ZTSNSt8__detail15_BracketMatcherINSt7__cxx1112regex_traitsIcEELb0ELb0EEE = comdat any

$_ZTINSt8__detail15_BracketMatcherINSt7__cxx1112regex_traitsIcEELb0ELb0EEE = comdat any

$_ZTSNSt8__detail15_BracketMatcherINSt7__cxx1112regex_traitsIcEELb0ELb1EEE = comdat any

$_ZTINSt8__detail15_BracketMatcherINSt7__cxx1112regex_traitsIcEELb0ELb1EEE = comdat any

$_ZTSNSt8__detail15_BracketMatcherINSt7__cxx1112regex_traitsIcEELb1ELb0EEE = comdat any

$_ZTINSt8__detail15_BracketMatcherINSt7__cxx1112regex_traitsIcEELb1ELb0EEE = comdat any

$_ZTSNSt8__detail15_BracketMatcherINSt7__cxx1112regex_traitsIcEELb1ELb1EEE = comdat any

$_ZTINSt8__detail15_BracketMatcherINSt7__cxx1112regex_traitsIcEELb1ELb1EEE = comdat any

$_ZZNKSt7__cxx1112regex_traitsIcE18lookup_collatenameIPKcEENS_12basic_stringIcSt11char_traitsIcESaIcEEET_SA_E14__collatenames = comdat any

$_ZZNKSt8__detail9_ExecutorIN9__gnu_cxx17__normal_iteratorIPKcNSt7__cxx1112basic_stringIcSt11char_traitsIcESaIcEEEEESaINS5_9sub_matchISB_EEENS5_12regex_traitsIcEELb0EE10_M_is_wordEcE3__s = comdat any

$_ZZNKSt8__detail9_ExecutorIN9__gnu_cxx17__normal_iteratorIPKcNSt7__cxx1112basic_stringIcSt11char_traitsIcESaIcEEEEESaINS5_9sub_matchISB_EEENS5_12regex_traitsIcEELb1EE10_M_is_wordEcE3__s = comdat any

@_ZStL8__ioinit = internal global %"class.std::ios_base::Init" zeroinitializer, align 1
@__dso_handle = external global i8
@_ZSt3cin = external global %"class.std::basic_istream", align 8
@.str = private unnamed_addr constant [25 x i8] c"A[a-z][a-z]*C[a-z]*[a-z]\00", align 1
@_ZSt4cout = external global %"class.std::basic_ostream", align 8
@.str.1 = private unnamed_addr constant [3 x i8] c"AC\00", align 1
@.str.2 = private unnamed_addr constant [3 x i8] c"WA\00", align 1
@.str.3 = private unnamed_addr constant [15 x i8] c"^$\5C.*+?()[]{}|\00", align 1
@.str.4 = private unnamed_addr constant [7 x i8] c".[\5C*^$\00", align 1
@.str.5 = private unnamed_addr constant [13 x i8] c".[\5C()*+?{|^$\00", align 1
@.str.6 = private unnamed_addr constant [8 x i8] c".[\5C*^$\0A\00", align 1
@.str.7 = private unnamed_addr constant [14 x i8] c".[\5C()*+?{|^$\0A\00", align 1
@_ZNSt5ctypeIcE2idE = external global %"class.std::locale::id", align 8
@_ZTINSt6locale5facetE = external constant i8*
@_ZTISt5ctypeIcE = external constant i8*
@_ZTVN10__cxxabiv117__class_type_infoE = external global i8*
@_ZTSSt19_Sp_make_shared_tag = linkonce_odr constant [24 x i8] c"St19_Sp_make_shared_tag\00", comdat
@_ZTISt19_Sp_make_shared_tag = linkonce_odr constant { i8*, i8* } { i8* bitcast (i8** getelementptr inbounds (i8*, i8** @_ZTVN10__cxxabiv117__class_type_infoE, i64 2) to i8*), i8* getelementptr inbounds ([24 x i8], [24 x i8]* @_ZTSSt19_Sp_make_shared_tag, i32 0, i32 0) }, comdat
@_ZTVSt23_Sp_counted_ptr_inplaceINSt8__detail4_NFAINSt7__cxx1112regex_traitsIcEEEESaIS5_ELN9__gnu_cxx12_Lock_policyE2EE = linkonce_odr unnamed_addr constant { [7 x i8*] } { [7 x i8*] [i8* null, i8* bitcast ({ i8*, i8*, i8* }* @_ZTISt23_Sp_counted_ptr_inplaceINSt8__detail4_NFAINSt7__cxx1112regex_traitsIcEEEESaIS5_ELN9__gnu_cxx12_Lock_policyE2EE to i8*), i8* bitcast (void (%"class.std::_Sp_counted_ptr_inplace"*)* @_ZNSt23_Sp_counted_ptr_inplaceINSt8__detail4_NFAINSt7__cxx1112regex_traitsIcEEEESaIS5_ELN9__gnu_cxx12_Lock_policyE2EED2Ev to i8*), i8* bitcast (void (%"class.std::_Sp_counted_ptr_inplace"*)* @_ZNSt23_Sp_counted_ptr_inplaceINSt8__detail4_NFAINSt7__cxx1112regex_traitsIcEEEESaIS5_ELN9__gnu_cxx12_Lock_policyE2EED0Ev to i8*), i8* bitcast (void (%"class.std::_Sp_counted_ptr_inplace"*)* @_ZNSt23_Sp_counted_ptr_inplaceINSt8__detail4_NFAINSt7__cxx1112regex_traitsIcEEEESaIS5_ELN9__gnu_cxx12_Lock_policyE2EE10_M_disposeEv to i8*), i8* bitcast (void (%"class.std::_Sp_counted_ptr_inplace"*)* @_ZNSt23_Sp_counted_ptr_inplaceINSt8__detail4_NFAINSt7__cxx1112regex_traitsIcEEEESaIS5_ELN9__gnu_cxx12_Lock_policyE2EE10_M_destroyEv to i8*), i8* bitcast (i8* (%"class.std::_Sp_counted_ptr_inplace"*, %"class.std::type_info"*)* @_ZNSt23_Sp_counted_ptr_inplaceINSt8__detail4_NFAINSt7__cxx1112regex_traitsIcEEEESaIS5_ELN9__gnu_cxx12_Lock_policyE2EE14_M_get_deleterERKSt9type_info to i8*)] }, comdat, align 8
@_ZTVN10__cxxabiv120__si_class_type_infoE = external global i8*
@_ZTSSt23_Sp_counted_ptr_inplaceINSt8__detail4_NFAINSt7__cxx1112regex_traitsIcEEEESaIS5_ELN9__gnu_cxx12_Lock_policyE2EE = linkonce_odr constant [115 x i8] c"St23_Sp_counted_ptr_inplaceINSt8__detail4_NFAINSt7__cxx1112regex_traitsIcEEEESaIS5_ELN9__gnu_cxx12_Lock_policyE2EE\00", comdat
@_ZTSSt16_Sp_counted_baseILN9__gnu_cxx12_Lock_policyE2EE = linkonce_odr constant [52 x i8] c"St16_Sp_counted_baseILN9__gnu_cxx12_Lock_policyE2EE\00", comdat
@_ZTSSt11_Mutex_baseILN9__gnu_cxx12_Lock_policyE2EE = linkonce_odr constant [47 x i8] c"St11_Mutex_baseILN9__gnu_cxx12_Lock_policyE2EE\00", comdat
@_ZTISt11_Mutex_baseILN9__gnu_cxx12_Lock_policyE2EE = linkonce_odr constant { i8*, i8* } { i8* bitcast (i8** getelementptr inbounds (i8*, i8** @_ZTVN10__cxxabiv117__class_type_infoE, i64 2) to i8*), i8* getelementptr inbounds ([47 x i8], [47 x i8]* @_ZTSSt11_Mutex_baseILN9__gnu_cxx12_Lock_policyE2EE, i32 0, i32 0) }, comdat
@_ZTISt16_Sp_counted_baseILN9__gnu_cxx12_Lock_policyE2EE = linkonce_odr constant { i8*, i8*, i8* } { i8* bitcast (i8** getelementptr inbounds (i8*, i8** @_ZTVN10__cxxabiv120__si_class_type_infoE, i64 2) to i8*), i8* getelementptr inbounds ([52 x i8], [52 x i8]* @_ZTSSt16_Sp_counted_baseILN9__gnu_cxx12_Lock_policyE2EE, i32 0, i32 0), i8* bitcast ({ i8*, i8* }* @_ZTISt11_Mutex_baseILN9__gnu_cxx12_Lock_policyE2EE to i8*) }, comdat
@_ZTISt23_Sp_counted_ptr_inplaceINSt8__detail4_NFAINSt7__cxx1112regex_traitsIcEEEESaIS5_ELN9__gnu_cxx12_Lock_policyE2EE = linkonce_odr constant { i8*, i8*, i8* } { i8* bitcast (i8** getelementptr inbounds (i8*, i8** @_ZTVN10__cxxabiv120__si_class_type_infoE, i64 2) to i8*), i8* getelementptr inbounds ([115 x i8], [115 x i8]* @_ZTSSt23_Sp_counted_ptr_inplaceINSt8__detail4_NFAINSt7__cxx1112regex_traitsIcEEEESaIS5_ELN9__gnu_cxx12_Lock_policyE2EE, i32 0, i32 0), i8* bitcast ({ i8*, i8*, i8* }* @_ZTISt16_Sp_counted_baseILN9__gnu_cxx12_Lock_policyE2EE to i8*) }, comdat
@_ZTVSt16_Sp_counted_baseILN9__gnu_cxx12_Lock_policyE2EE = linkonce_odr unnamed_addr constant { [7 x i8*] } { [7 x i8*] [i8* null, i8* bitcast ({ i8*, i8*, i8* }* @_ZTISt16_Sp_counted_baseILN9__gnu_cxx12_Lock_policyE2EE to i8*), i8* bitcast (void (%"class.std::_Sp_counted_base"*)* @_ZNSt16_Sp_counted_baseILN9__gnu_cxx12_Lock_policyE2EED2Ev to i8*), i8* bitcast (void (%"class.std::_Sp_counted_base"*)* @_ZNSt16_Sp_counted_baseILN9__gnu_cxx12_Lock_policyE2EED0Ev to i8*), i8* bitcast (void ()* @__cxa_pure_virtual to i8*), i8* bitcast (void (%"class.std::_Sp_counted_base"*)* @_ZNSt16_Sp_counted_baseILN9__gnu_cxx12_Lock_policyE2EE10_M_destroyEv to i8*), i8* bitcast (void ()* @__cxa_pure_virtual to i8*)] }, comdat, align 8
@.str.8 = private unnamed_addr constant [28 x i8] c"vector::_M_emplace_back_aux\00", align 1
@_ZZNKSt8__detail11_AnyMatcherINSt7__cxx1112regex_traitsIcEELb0ELb0ELb0EEclEcE5__nul = linkonce_odr global i8 0, comdat, align 1
@_ZGVZNKSt8__detail11_AnyMatcherINSt7__cxx1112regex_traitsIcEELb0ELb0ELb0EEclEcE5__nul = linkonce_odr global i64 0, comdat, align 8
@_ZTSNSt8__detail11_AnyMatcherINSt7__cxx1112regex_traitsIcEELb0ELb0ELb0EEE = linkonce_odr constant [70 x i8] c"NSt8__detail11_AnyMatcherINSt7__cxx1112regex_traitsIcEELb0ELb0ELb0EEE\00", comdat
@_ZTINSt8__detail11_AnyMatcherINSt7__cxx1112regex_traitsIcEELb0ELb0ELb0EEE = linkonce_odr constant { i8*, i8* } { i8* bitcast (i8** getelementptr inbounds (i8*, i8** @_ZTVN10__cxxabiv117__class_type_infoE, i64 2) to i8*), i8* getelementptr inbounds ([70 x i8], [70 x i8]* @_ZTSNSt8__detail11_AnyMatcherINSt7__cxx1112regex_traitsIcEELb0ELb0ELb0EEE, i32 0, i32 0) }, comdat
@_ZZNKSt8__detail11_AnyMatcherINSt7__cxx1112regex_traitsIcEELb0ELb0ELb1EEclEcE5__nul = linkonce_odr global i8 0, comdat, align 1
@_ZGVZNKSt8__detail11_AnyMatcherINSt7__cxx1112regex_traitsIcEELb0ELb0ELb1EEclEcE5__nul = linkonce_odr global i64 0, comdat, align 8
@_ZTSNSt8__detail11_AnyMatcherINSt7__cxx1112regex_traitsIcEELb0ELb0ELb1EEE = linkonce_odr constant [70 x i8] c"NSt8__detail11_AnyMatcherINSt7__cxx1112regex_traitsIcEELb0ELb0ELb1EEE\00", comdat
@_ZTINSt8__detail11_AnyMatcherINSt7__cxx1112regex_traitsIcEELb0ELb0ELb1EEE = linkonce_odr constant { i8*, i8* } { i8* bitcast (i8** getelementptr inbounds (i8*, i8** @_ZTVN10__cxxabiv117__class_type_infoE, i64 2) to i8*), i8* getelementptr inbounds ([70 x i8], [70 x i8]* @_ZTSNSt8__detail11_AnyMatcherINSt7__cxx1112regex_traitsIcEELb0ELb0ELb1EEE, i32 0, i32 0) }, comdat
@_ZZNKSt8__detail11_AnyMatcherINSt7__cxx1112regex_traitsIcEELb0ELb1ELb0EEclEcE5__nul = linkonce_odr global i8 0, comdat, align 1
@_ZGVZNKSt8__detail11_AnyMatcherINSt7__cxx1112regex_traitsIcEELb0ELb1ELb0EEclEcE5__nul = linkonce_odr global i64 0, comdat, align 8
@_ZTSNSt8__detail11_AnyMatcherINSt7__cxx1112regex_traitsIcEELb0ELb1ELb0EEE = linkonce_odr constant [70 x i8] c"NSt8__detail11_AnyMatcherINSt7__cxx1112regex_traitsIcEELb0ELb1ELb0EEE\00", comdat
@_ZTINSt8__detail11_AnyMatcherINSt7__cxx1112regex_traitsIcEELb0ELb1ELb0EEE = linkonce_odr constant { i8*, i8* } { i8* bitcast (i8** getelementptr inbounds (i8*, i8** @_ZTVN10__cxxabiv117__class_type_infoE, i64 2) to i8*), i8* getelementptr inbounds ([70 x i8], [70 x i8]* @_ZTSNSt8__detail11_AnyMatcherINSt7__cxx1112regex_traitsIcEELb0ELb1ELb0EEE, i32 0, i32 0) }, comdat
@_ZZNKSt8__detail11_AnyMatcherINSt7__cxx1112regex_traitsIcEELb0ELb1ELb1EEclEcE5__nul = linkonce_odr global i8 0, comdat, align 1
@_ZGVZNKSt8__detail11_AnyMatcherINSt7__cxx1112regex_traitsIcEELb0ELb1ELb1EEclEcE5__nul = linkonce_odr global i64 0, comdat, align 8
@_ZTSNSt8__detail11_AnyMatcherINSt7__cxx1112regex_traitsIcEELb0ELb1ELb1EEE = linkonce_odr constant [70 x i8] c"NSt8__detail11_AnyMatcherINSt7__cxx1112regex_traitsIcEELb0ELb1ELb1EEE\00", comdat
@_ZTINSt8__detail11_AnyMatcherINSt7__cxx1112regex_traitsIcEELb0ELb1ELb1EEE = linkonce_odr constant { i8*, i8* } { i8* bitcast (i8** getelementptr inbounds (i8*, i8** @_ZTVN10__cxxabiv117__class_type_infoE, i64 2) to i8*), i8* getelementptr inbounds ([70 x i8], [70 x i8]* @_ZTSNSt8__detail11_AnyMatcherINSt7__cxx1112regex_traitsIcEELb0ELb1ELb1EEE, i32 0, i32 0) }, comdat
@_ZTSNSt8__detail11_AnyMatcherINSt7__cxx1112regex_traitsIcEELb1ELb0ELb0EEE = linkonce_odr constant [70 x i8] c"NSt8__detail11_AnyMatcherINSt7__cxx1112regex_traitsIcEELb1ELb0ELb0EEE\00", comdat
@_ZTINSt8__detail11_AnyMatcherINSt7__cxx1112regex_traitsIcEELb1ELb0ELb0EEE = linkonce_odr constant { i8*, i8* } { i8* bitcast (i8** getelementptr inbounds (i8*, i8** @_ZTVN10__cxxabiv117__class_type_infoE, i64 2) to i8*), i8* getelementptr inbounds ([70 x i8], [70 x i8]* @_ZTSNSt8__detail11_AnyMatcherINSt7__cxx1112regex_traitsIcEELb1ELb0ELb0EEE, i32 0, i32 0) }, comdat
@_ZTSNSt8__detail11_AnyMatcherINSt7__cxx1112regex_traitsIcEELb1ELb0ELb1EEE = linkonce_odr constant [70 x i8] c"NSt8__detail11_AnyMatcherINSt7__cxx1112regex_traitsIcEELb1ELb0ELb1EEE\00", comdat
@_ZTINSt8__detail11_AnyMatcherINSt7__cxx1112regex_traitsIcEELb1ELb0ELb1EEE = linkonce_odr constant { i8*, i8* } { i8* bitcast (i8** getelementptr inbounds (i8*, i8** @_ZTVN10__cxxabiv117__class_type_infoE, i64 2) to i8*), i8* getelementptr inbounds ([70 x i8], [70 x i8]* @_ZTSNSt8__detail11_AnyMatcherINSt7__cxx1112regex_traitsIcEELb1ELb0ELb1EEE, i32 0, i32 0) }, comdat
@_ZTSNSt8__detail11_AnyMatcherINSt7__cxx1112regex_traitsIcEELb1ELb1ELb0EEE = linkonce_odr constant [70 x i8] c"NSt8__detail11_AnyMatcherINSt7__cxx1112regex_traitsIcEELb1ELb1ELb0EEE\00", comdat
@_ZTINSt8__detail11_AnyMatcherINSt7__cxx1112regex_traitsIcEELb1ELb1ELb0EEE = linkonce_odr constant { i8*, i8* } { i8* bitcast (i8** getelementptr inbounds (i8*, i8** @_ZTVN10__cxxabiv117__class_type_infoE, i64 2) to i8*), i8* getelementptr inbounds ([70 x i8], [70 x i8]* @_ZTSNSt8__detail11_AnyMatcherINSt7__cxx1112regex_traitsIcEELb1ELb1ELb0EEE, i32 0, i32 0) }, comdat
@_ZTSNSt8__detail11_AnyMatcherINSt7__cxx1112regex_traitsIcEELb1ELb1ELb1EEE = linkonce_odr constant [70 x i8] c"NSt8__detail11_AnyMatcherINSt7__cxx1112regex_traitsIcEELb1ELb1ELb1EEE\00", comdat
@_ZTINSt8__detail11_AnyMatcherINSt7__cxx1112regex_traitsIcEELb1ELb1ELb1EEE = linkonce_odr constant { i8*, i8* } { i8* bitcast (i8** getelementptr inbounds (i8*, i8** @_ZTVN10__cxxabiv117__class_type_infoE, i64 2) to i8*), i8* getelementptr inbounds ([70 x i8], [70 x i8]* @_ZTSNSt8__detail11_AnyMatcherINSt7__cxx1112regex_traitsIcEELb1ELb1ELb1EEE, i32 0, i32 0) }, comdat
@_ZTSNSt8__detail12_CharMatcherINSt7__cxx1112regex_traitsIcEELb0ELb0EEE = linkonce_odr constant [67 x i8] c"NSt8__detail12_CharMatcherINSt7__cxx1112regex_traitsIcEELb0ELb0EEE\00", comdat
@_ZTINSt8__detail12_CharMatcherINSt7__cxx1112regex_traitsIcEELb0ELb0EEE = linkonce_odr constant { i8*, i8* } { i8* bitcast (i8** getelementptr inbounds (i8*, i8** @_ZTVN10__cxxabiv117__class_type_infoE, i64 2) to i8*), i8* getelementptr inbounds ([67 x i8], [67 x i8]* @_ZTSNSt8__detail12_CharMatcherINSt7__cxx1112regex_traitsIcEELb0ELb0EEE, i32 0, i32 0) }, comdat
@_ZTSNSt8__detail12_CharMatcherINSt7__cxx1112regex_traitsIcEELb0ELb1EEE = linkonce_odr constant [67 x i8] c"NSt8__detail12_CharMatcherINSt7__cxx1112regex_traitsIcEELb0ELb1EEE\00", comdat
@_ZTINSt8__detail12_CharMatcherINSt7__cxx1112regex_traitsIcEELb0ELb1EEE = linkonce_odr constant { i8*, i8* } { i8* bitcast (i8** getelementptr inbounds (i8*, i8** @_ZTVN10__cxxabiv117__class_type_infoE, i64 2) to i8*), i8* getelementptr inbounds ([67 x i8], [67 x i8]* @_ZTSNSt8__detail12_CharMatcherINSt7__cxx1112regex_traitsIcEELb0ELb1EEE, i32 0, i32 0) }, comdat
@_ZTSNSt8__detail12_CharMatcherINSt7__cxx1112regex_traitsIcEELb1ELb0EEE = linkonce_odr constant [67 x i8] c"NSt8__detail12_CharMatcherINSt7__cxx1112regex_traitsIcEELb1ELb0EEE\00", comdat
@_ZTINSt8__detail12_CharMatcherINSt7__cxx1112regex_traitsIcEELb1ELb0EEE = linkonce_odr constant { i8*, i8* } { i8* bitcast (i8** getelementptr inbounds (i8*, i8** @_ZTVN10__cxxabiv117__class_type_infoE, i64 2) to i8*), i8* getelementptr inbounds ([67 x i8], [67 x i8]* @_ZTSNSt8__detail12_CharMatcherINSt7__cxx1112regex_traitsIcEELb1ELb0EEE, i32 0, i32 0) }, comdat
@_ZTSNSt8__detail12_CharMatcherINSt7__cxx1112regex_traitsIcEELb1ELb1EEE = linkonce_odr constant [67 x i8] c"NSt8__detail12_CharMatcherINSt7__cxx1112regex_traitsIcEELb1ELb1EEE\00", comdat
@_ZTINSt8__detail12_CharMatcherINSt7__cxx1112regex_traitsIcEELb1ELb1EEE = linkonce_odr constant { i8*, i8* } { i8* bitcast (i8** getelementptr inbounds (i8*, i8** @_ZTVN10__cxxabiv117__class_type_infoE, i64 2) to i8*), i8* getelementptr inbounds ([67 x i8], [67 x i8]* @_ZTSNSt8__detail12_CharMatcherINSt7__cxx1112regex_traitsIcEELb1ELb1EEE, i32 0, i32 0) }, comdat
@_ZZNKSt7__cxx1112regex_traitsIcE16lookup_classnameIPKcEENS1_10_RegexMaskET_S6_bE12__classnamesB5cxx11 = linkonce_odr constant [15 x { i8*, { i16, i8 } }] [{ i8*, { i16, i8 } } { i8* getelementptr inbounds ([2 x i8], [2 x i8]* @.str.9, i32 0, i32 0), { i16, i8 } { i16 2048, i8 0 } }, { i8*, { i16, i8 } } { i8* getelementptr inbounds ([2 x i8], [2 x i8]* @.str.10, i32 0, i32 0), { i16, i8 } { i16 3072, i8 1 } }, { i8*, { i16, i8 } } { i8* getelementptr inbounds ([2 x i8], [2 x i8]* @.str.11, i32 0, i32 0), { i16, i8 } { i16 8192, i8 0 } }, { i8*, { i16, i8 } } { i8* getelementptr inbounds ([6 x i8], [6 x i8]* @.str.12, i32 0, i32 0), { i16, i8 } { i16 3072, i8 0 } }, { i8*, { i16, i8 } } { i8* getelementptr inbounds ([6 x i8], [6 x i8]* @.str.13, i32 0, i32 0), { i16, i8 } { i16 1024, i8 0 } }, { i8*, { i16, i8 } } { i8* getelementptr inbounds ([6 x i8], [6 x i8]* @.str.14, i32 0, i32 0), { i16, i8 } { i16 1, i8 0 } }, { i8*, { i16, i8 } } { i8* getelementptr inbounds ([6 x i8], [6 x i8]* @.str.15, i32 0, i32 0), { i16, i8 } { i16 2, i8 0 } }, { i8*, { i16, i8 } } { i8* getelementptr inbounds ([6 x i8], [6 x i8]* @.str.16, i32 0, i32 0), { i16, i8 } { i16 2048, i8 0 } }, { i8*, { i16, i8 } } { i8* getelementptr inbounds ([6 x i8], [6 x i8]* @.str.17, i32 0, i32 0), { i16, i8 } { i16 3076, i8 0 } }, { i8*, { i16, i8 } } { i8* getelementptr inbounds ([6 x i8], [6 x i8]* @.str.18, i32 0, i32 0), { i16, i8 } { i16 512, i8 0 } }, { i8*, { i16, i8 } } { i8* getelementptr inbounds ([6 x i8], [6 x i8]* @.str.19, i32 0, i32 0), { i16, i8 } { i16 16384, i8 0 } }, { i8*, { i16, i8 } } { i8* getelementptr inbounds ([6 x i8], [6 x i8]* @.str.20, i32 0, i32 0), { i16, i8 } { i16 4, i8 0 } }, { i8*, { i16, i8 } } { i8* getelementptr inbounds ([6 x i8], [6 x i8]* @.str.21, i32 0, i32 0), { i16, i8 } { i16 8192, i8 0 } }, { i8*, { i16, i8 } } { i8* getelementptr inbounds ([6 x i8], [6 x i8]* @.str.22, i32 0, i32 0), { i16, i8 } { i16 256, i8 0 } }, { i8*, { i16, i8 } } { i8* getelementptr inbounds ([7 x i8], [7 x i8]* @.str.23, i32 0, i32 0), { i16, i8 } { i16 4096, i8 0 } }], comdat, align 16
@.str.9 = private unnamed_addr constant [2 x i8] c"d\00", align 1
@.str.10 = private unnamed_addr constant [2 x i8] c"w\00", align 1
@.str.11 = private unnamed_addr constant [2 x i8] c"s\00", align 1
@.str.12 = private unnamed_addr constant [6 x i8] c"alnum\00", align 1
@.str.13 = private unnamed_addr constant [6 x i8] c"alpha\00", align 1
@.str.14 = private unnamed_addr constant [6 x i8] c"blank\00", align 1
@.str.15 = private unnamed_addr constant [6 x i8] c"cntrl\00", align 1
@.str.16 = private unnamed_addr constant [6 x i8] c"digit\00", align 1
@.str.17 = private unnamed_addr constant [6 x i8] c"graph\00", align 1
@.str.18 = private unnamed_addr constant [6 x i8] c"lower\00", align 1
@.str.19 = private unnamed_addr constant [6 x i8] c"print\00", align 1
@.str.20 = private unnamed_addr constant [6 x i8] c"punct\00", align 1
@.str.21 = private unnamed_addr constant [6 x i8] c"space\00", align 1
@.str.22 = private unnamed_addr constant [6 x i8] c"upper\00", align 1
@.str.23 = private unnamed_addr constant [7 x i8] c"xdigit\00", align 1
@.str.24 = private unnamed_addr constant [42 x i8] c"basic_string::_M_construct null not valid\00", align 1
@_ZTSNSt8__detail15_BracketMatcherINSt7__cxx1112regex_traitsIcEELb0ELb0EEE = linkonce_odr constant [70 x i8] c"NSt8__detail15_BracketMatcherINSt7__cxx1112regex_traitsIcEELb0ELb0EEE\00", comdat
@_ZTINSt8__detail15_BracketMatcherINSt7__cxx1112regex_traitsIcEELb0ELb0EEE = linkonce_odr constant { i8*, i8* } { i8* bitcast (i8** getelementptr inbounds (i8*, i8** @_ZTVN10__cxxabiv117__class_type_infoE, i64 2) to i8*), i8* getelementptr inbounds ([70 x i8], [70 x i8]* @_ZTSNSt8__detail15_BracketMatcherINSt7__cxx1112regex_traitsIcEELb0ELb0EEE, i32 0, i32 0) }, comdat
@_ZTSNSt8__detail15_BracketMatcherINSt7__cxx1112regex_traitsIcEELb0ELb1EEE = linkonce_odr constant [70 x i8] c"NSt8__detail15_BracketMatcherINSt7__cxx1112regex_traitsIcEELb0ELb1EEE\00", comdat
@_ZTINSt8__detail15_BracketMatcherINSt7__cxx1112regex_traitsIcEELb0ELb1EEE = linkonce_odr constant { i8*, i8* } { i8* bitcast (i8** getelementptr inbounds (i8*, i8** @_ZTVN10__cxxabiv117__class_type_infoE, i64 2) to i8*), i8* getelementptr inbounds ([70 x i8], [70 x i8]* @_ZTSNSt8__detail15_BracketMatcherINSt7__cxx1112regex_traitsIcEELb0ELb1EEE, i32 0, i32 0) }, comdat
@_ZTSNSt8__detail15_BracketMatcherINSt7__cxx1112regex_traitsIcEELb1ELb0EEE = linkonce_odr constant [70 x i8] c"NSt8__detail15_BracketMatcherINSt7__cxx1112regex_traitsIcEELb1ELb0EEE\00", comdat
@_ZTINSt8__detail15_BracketMatcherINSt7__cxx1112regex_traitsIcEELb1ELb0EEE = linkonce_odr constant { i8*, i8* } { i8* bitcast (i8** getelementptr inbounds (i8*, i8** @_ZTVN10__cxxabiv117__class_type_infoE, i64 2) to i8*), i8* getelementptr inbounds ([70 x i8], [70 x i8]* @_ZTSNSt8__detail15_BracketMatcherINSt7__cxx1112regex_traitsIcEELb1ELb0EEE, i32 0, i32 0) }, comdat
@_ZTSNSt8__detail15_BracketMatcherINSt7__cxx1112regex_traitsIcEELb1ELb1EEE = linkonce_odr constant [70 x i8] c"NSt8__detail15_BracketMatcherINSt7__cxx1112regex_traitsIcEELb1ELb1EEE\00", comdat
@_ZTINSt8__detail15_BracketMatcherINSt7__cxx1112regex_traitsIcEELb1ELb1EEE = linkonce_odr constant { i8*, i8* } { i8* bitcast (i8** getelementptr inbounds (i8*, i8** @_ZTVN10__cxxabiv117__class_type_infoE, i64 2) to i8*), i8* getelementptr inbounds ([70 x i8], [70 x i8]* @_ZTSNSt8__detail15_BracketMatcherINSt7__cxx1112regex_traitsIcEELb1ELb1EEE, i32 0, i32 0) }, comdat
@_ZZNKSt7__cxx1112regex_traitsIcE18lookup_collatenameIPKcEENS_12basic_stringIcSt11char_traitsIcESaIcEEET_SA_E14__collatenames = linkonce_odr global [128 x i8*] [i8* getelementptr inbounds ([4 x i8], [4 x i8]* @.str.25, i32 0, i32 0), i8* getelementptr inbounds ([4 x i8], [4 x i8]* @.str.26, i32 0, i32 0), i8* getelementptr inbounds ([4 x i8], [4 x i8]* @.str.27, i32 0, i32 0), i8* getelementptr inbounds ([4 x i8], [4 x i8]* @.str.28, i32 0, i32 0), i8* getelementptr inbounds ([4 x i8], [4 x i8]* @.str.29, i32 0, i32 0), i8* getelementptr inbounds ([4 x i8], [4 x i8]* @.str.30, i32 0, i32 0), i8* getelementptr inbounds ([4 x i8], [4 x i8]* @.str.31, i32 0, i32 0), i8* getelementptr inbounds ([6 x i8], [6 x i8]* @.str.32, i32 0, i32 0), i8* getelementptr inbounds ([10 x i8], [10 x i8]* @.str.33, i32 0, i32 0), i8* getelementptr inbounds ([4 x i8], [4 x i8]* @.str.34, i32 0, i32 0), i8* getelementptr inbounds ([8 x i8], [8 x i8]* @.str.35, i32 0, i32 0), i8* getelementptr inbounds ([13 x i8], [13 x i8]* @.str.36, i32 0, i32 0), i8* getelementptr inbounds ([10 x i8], [10 x i8]* @.str.37, i32 0, i32 0), i8* getelementptr inbounds ([16 x i8], [16 x i8]* @.str.38, i32 0, i32 0), i8* getelementptr inbounds ([3 x i8], [3 x i8]* @.str.39, i32 0, i32 0), i8* getelementptr inbounds ([3 x i8], [3 x i8]* @.str.40, i32 0, i32 0), i8* getelementptr inbounds ([4 x i8], [4 x i8]* @.str.41, i32 0, i32 0), i8* getelementptr inbounds ([4 x i8], [4 x i8]* @.str.42, i32 0, i32 0), i8* getelementptr inbounds ([4 x i8], [4 x i8]* @.str.43, i32 0, i32 0), i8* getelementptr inbounds ([4 x i8], [4 x i8]* @.str.44, i32 0, i32 0), i8* getelementptr inbounds ([4 x i8], [4 x i8]* @.str.45, i32 0, i32 0), i8* getelementptr inbounds ([4 x i8], [4 x i8]* @.str.46, i32 0, i32 0), i8* getelementptr inbounds ([4 x i8], [4 x i8]* @.str.47, i32 0, i32 0), i8* getelementptr inbounds ([4 x i8], [4 x i8]* @.str.48, i32 0, i32 0), i8* getelementptr inbounds ([4 x i8], [4 x i8]* @.str.49, i32 0, i32 0), i8* getelementptr inbounds ([3 x i8], [3 x i8]* @.str.50, i32 0, i32 0), i8* getelementptr inbounds ([4 x i8], [4 x i8]* @.str.51, i32 0, i32 0), i8* getelementptr inbounds ([4 x i8], [4 x i8]* @.str.52, i32 0, i32 0), i8* getelementptr inbounds ([4 x i8], [4 x i8]* @.str.53, i32 0, i32 0), i8* getelementptr inbounds ([4 x i8], [4 x i8]* @.str.54, i32 0, i32 0), i8* getelementptr inbounds ([4 x i8], [4 x i8]* @.str.55, i32 0, i32 0), i8* getelementptr inbounds ([4 x i8], [4 x i8]* @.str.56, i32 0, i32 0), i8* getelementptr inbounds ([6 x i8], [6 x i8]* @.str.21, i32 0, i32 0), i8* getelementptr inbounds ([17 x i8], [17 x i8]* @.str.57, i32 0, i32 0), i8* getelementptr inbounds ([15 x i8], [15 x i8]* @.str.58, i32 0, i32 0), i8* getelementptr inbounds ([12 x i8], [12 x i8]* @.str.59, i32 0, i32 0), i8* getelementptr inbounds ([12 x i8], [12 x i8]* @.str.60, i32 0, i32 0), i8* getelementptr inbounds ([13 x i8], [13 x i8]* @.str.61, i32 0, i32 0), i8* getelementptr inbounds ([10 x i8], [10 x i8]* @.str.62, i32 0, i32 0), i8* getelementptr inbounds ([11 x i8], [11 x i8]* @.str.63, i32 0, i32 0), i8* getelementptr inbounds ([17 x i8], [17 x i8]* @.str.64, i32 0, i32 0), i8* getelementptr inbounds ([18 x i8], [18 x i8]* @.str.65, i32 0, i32 0), i8* getelementptr inbounds ([9 x i8], [9 x i8]* @.str.66, i32 0, i32 0), i8* getelementptr inbounds ([10 x i8], [10 x i8]* @.str.67, i32 0, i32 0), i8* getelementptr inbounds ([6 x i8], [6 x i8]* @.str.68, i32 0, i32 0), i8* getelementptr inbounds ([7 x i8], [7 x i8]* @.str.69, i32 0, i32 0), i8* getelementptr inbounds ([7 x i8], [7 x i8]* @.str.70, i32 0, i32 0), i8* getelementptr inbounds ([6 x i8], [6 x i8]* @.str.71, i32 0, i32 0), i8* getelementptr inbounds ([5 x i8], [5 x i8]* @.str.72, i32 0, i32 0), i8* getelementptr inbounds ([4 x i8], [4 x i8]* @.str.73, i32 0, i32 0), i8* getelementptr inbounds ([4 x i8], [4 x i8]* @.str.74, i32 0, i32 0), i8* getelementptr inbounds ([6 x i8], [6 x i8]* @.str.75, i32 0, i32 0), i8* getelementptr inbounds ([5 x i8], [5 x i8]* @.str.76, i32 0, i32 0), i8* getelementptr inbounds ([5 x i8], [5 x i8]* @.str.77, i32 0, i32 0), i8* getelementptr inbounds ([4 x i8], [4 x i8]* @.str.78, i32 0, i32 0), i8* getelementptr inbounds ([6 x i8], [6 x i8]* @.str.79, i32 0, i32 0), i8* getelementptr inbounds ([6 x i8], [6 x i8]* @.str.80, i32 0, i32 0), i8* getelementptr inbounds ([5 x i8], [5 x i8]* @.str.81, i32 0, i32 0), i8* getelementptr inbounds ([6 x i8], [6 x i8]* @.str.82, i32 0, i32 0), i8* getelementptr inbounds ([10 x i8], [10 x i8]* @.str.83, i32 0, i32 0), i8* getelementptr inbounds ([15 x i8], [15 x i8]* @.str.84, i32 0, i32 0), i8* getelementptr inbounds ([12 x i8], [12 x i8]* @.str.85, i32 0, i32 0), i8* getelementptr inbounds ([18 x i8], [18 x i8]* @.str.86, i32 0, i32 0), i8* getelementptr inbounds ([14 x i8], [14 x i8]* @.str.87, i32 0, i32 0), i8* getelementptr inbounds ([14 x i8], [14 x i8]* @.str.88, i32 0, i32 0), i8* getelementptr inbounds ([2 x i8], [2 x i8]* @.str.89, i32 0, i32 0), i8* getelementptr inbounds ([2 x i8], [2 x i8]* @.str.90, i32 0, i32 0), i8* getelementptr inbounds ([2 x i8], [2 x i8]* @.str.91, i32 0, i32 0), i8* getelementptr inbounds ([2 x i8], [2 x i8]* @.str.92, i32 0, i32 0), i8* getelementptr inbounds ([2 x i8], [2 x i8]* @.str.93, i32 0, i32 0), i8* getelementptr inbounds ([2 x i8], [2 x i8]* @.str.94, i32 0, i32 0), i8* getelementptr inbounds ([2 x i8], [2 x i8]* @.str.95, i32 0, i32 0), i8* getelementptr inbounds ([2 x i8], [2 x i8]* @.str.96, i32 0, i32 0), i8* getelementptr inbounds ([2 x i8], [2 x i8]* @.str.97, i32 0, i32 0), i8* getelementptr inbounds ([2 x i8], [2 x i8]* @.str.98, i32 0, i32 0), i8* getelementptr inbounds ([2 x i8], [2 x i8]* @.str.99, i32 0, i32 0), i8* getelementptr inbounds ([2 x i8], [2 x i8]* @.str.100, i32 0, i32 0), i8* getelementptr inbounds ([2 x i8], [2 x i8]* @.str.101, i32 0, i32 0), i8* getelementptr inbounds ([2 x i8], [2 x i8]* @.str.102, i32 0, i32 0), i8* getelementptr inbounds ([2 x i8], [2 x i8]* @.str.103, i32 0, i32 0), i8* getelementptr inbounds ([2 x i8], [2 x i8]* @.str.104, i32 0, i32 0), i8* getelementptr inbounds ([2 x i8], [2 x i8]* @.str.105, i32 0, i32 0), i8* getelementptr inbounds ([2 x i8], [2 x i8]* @.str.106, i32 0, i32 0), i8* getelementptr inbounds ([2 x i8], [2 x i8]* @.str.107, i32 0, i32 0), i8* getelementptr inbounds ([2 x i8], [2 x i8]* @.str.108, i32 0, i32 0), i8* getelementptr inbounds ([2 x i8], [2 x i8]* @.str.109, i32 0, i32 0), i8* getelementptr inbounds ([2 x i8], [2 x i8]* @.str.110, i32 0, i32 0), i8* getelementptr inbounds ([2 x i8], [2 x i8]* @.str.111, i32 0, i32 0), i8* getelementptr inbounds ([2 x i8], [2 x i8]* @.str.112, i32 0, i32 0), i8* getelementptr inbounds ([2 x i8], [2 x i8]* @.str.113, i32 0, i32 0), i8* getelementptr inbounds ([2 x i8], [2 x i8]* @.str.114, i32 0, i32 0), i8* getelementptr inbounds ([20 x i8], [20 x i8]* @.str.115, i32 0, i32 0), i8* getelementptr inbounds ([10 x i8], [10 x i8]* @.str.116, i32 0, i32 0), i8* getelementptr inbounds ([21 x i8], [21 x i8]* @.str.117, i32 0, i32 0), i8* getelementptr inbounds ([11 x i8], [11 x i8]* @.str.118, i32 0, i32 0), i8* getelementptr inbounds ([11 x i8], [11 x i8]* @.str.119, i32 0, i32 0), i8* getelementptr inbounds ([13 x i8], [13 x i8]* @.str.120, i32 0, i32 0), i8* getelementptr inbounds ([2 x i8], [2 x i8]* @.str.121, i32 0, i32 0), i8* getelementptr inbounds ([2 x i8], [2 x i8]* @.str.122, i32 0, i32 0), i8* getelementptr inbounds ([2 x i8], [2 x i8]* @.str.123, i32 0, i32 0), i8* getelementptr inbounds ([2 x i8], [2 x i8]* @.str.9, i32 0, i32 0), i8* getelementptr inbounds ([2 x i8], [2 x i8]* @.str.124, i32 0, i32 0), i8* getelementptr inbounds ([2 x i8], [2 x i8]* @.str.125, i32 0, i32 0), i8* getelementptr inbounds ([2 x i8], [2 x i8]* @.str.126, i32 0, i32 0), i8* getelementptr inbounds ([2 x i8], [2 x i8]* @.str.127, i32 0, i32 0), i8* getelementptr inbounds ([2 x i8], [2 x i8]* @.str.128, i32 0, i32 0), i8* getelementptr inbounds ([2 x i8], [2 x i8]* @.str.129, i32 0, i32 0), i8* getelementptr inbounds ([2 x i8], [2 x i8]* @.str.130, i32 0, i32 0), i8* getelementptr inbounds ([2 x i8], [2 x i8]* @.str.131, i32 0, i32 0), i8* getelementptr inbounds ([2 x i8], [2 x i8]* @.str.132, i32 0, i32 0), i8* getelementptr inbounds ([2 x i8], [2 x i8]* @.str.133, i32 0, i32 0), i8* getelementptr inbounds ([2 x i8], [2 x i8]* @.str.134, i32 0, i32 0), i8* getelementptr inbounds ([2 x i8], [2 x i8]* @.str.135, i32 0, i32 0), i8* getelementptr inbounds ([2 x i8], [2 x i8]* @.str.136, i32 0, i32 0), i8* getelementptr inbounds ([2 x i8], [2 x i8]* @.str.137, i32 0, i32 0), i8* getelementptr inbounds ([2 x i8], [2 x i8]* @.str.11, i32 0, i32 0), i8* getelementptr inbounds ([2 x i8], [2 x i8]* @.str.138, i32 0, i32 0), i8* getelementptr inbounds ([2 x i8], [2 x i8]* @.str.139, i32 0, i32 0), i8* getelementptr inbounds ([2 x i8], [2 x i8]* @.str.140, i32 0, i32 0), i8* getelementptr inbounds ([2 x i8], [2 x i8]* @.str.10, i32 0, i32 0), i8* getelementptr inbounds ([2 x i8], [2 x i8]* @.str.141, i32 0, i32 0), i8* getelementptr inbounds ([2 x i8], [2 x i8]* @.str.142, i32 0, i32 0), i8* getelementptr inbounds ([2 x i8], [2 x i8]* @.str.143, i32 0, i32 0), i8* getelementptr inbounds ([19 x i8], [19 x i8]* @.str.144, i32 0, i32 0), i8* getelementptr inbounds ([14 x i8], [14 x i8]* @.str.145, i32 0, i32 0), i8* getelementptr inbounds ([20 x i8], [20 x i8]* @.str.146, i32 0, i32 0), i8* getelementptr inbounds ([6 x i8], [6 x i8]* @.str.147, i32 0, i32 0), i8* getelementptr inbounds ([4 x i8], [4 x i8]* @.str.148, i32 0, i32 0)], comdat, align 16
@.str.25 = private unnamed_addr constant [4 x i8] c"NUL\00", align 1
@.str.26 = private unnamed_addr constant [4 x i8] c"SOH\00", align 1
@.str.27 = private unnamed_addr constant [4 x i8] c"STX\00", align 1
@.str.28 = private unnamed_addr constant [4 x i8] c"ETX\00", align 1
@.str.29 = private unnamed_addr constant [4 x i8] c"EOT\00", align 1
@.str.30 = private unnamed_addr constant [4 x i8] c"ENQ\00", align 1
@.str.31 = private unnamed_addr constant [4 x i8] c"ACK\00", align 1
@.str.32 = private unnamed_addr constant [6 x i8] c"alert\00", align 1
@.str.33 = private unnamed_addr constant [10 x i8] c"backspace\00", align 1
@.str.34 = private unnamed_addr constant [4 x i8] c"tab\00", align 1
@.str.35 = private unnamed_addr constant [8 x i8] c"newline\00", align 1
@.str.36 = private unnamed_addr constant [13 x i8] c"vertical-tab\00", align 1
@.str.37 = private unnamed_addr constant [10 x i8] c"form-feed\00", align 1
@.str.38 = private unnamed_addr constant [16 x i8] c"carriage-return\00", align 1
@.str.39 = private unnamed_addr constant [3 x i8] c"SO\00", align 1
@.str.40 = private unnamed_addr constant [3 x i8] c"SI\00", align 1
@.str.41 = private unnamed_addr constant [4 x i8] c"DLE\00", align 1
@.str.42 = private unnamed_addr constant [4 x i8] c"DC1\00", align 1
@.str.43 = private unnamed_addr constant [4 x i8] c"DC2\00", align 1
@.str.44 = private unnamed_addr constant [4 x i8] c"DC3\00", align 1
@.str.45 = private unnamed_addr constant [4 x i8] c"DC4\00", align 1
@.str.46 = private unnamed_addr constant [4 x i8] c"NAK\00", align 1
@.str.47 = private unnamed_addr constant [4 x i8] c"SYN\00", align 1
@.str.48 = private unnamed_addr constant [4 x i8] c"ETB\00", align 1
@.str.49 = private unnamed_addr constant [4 x i8] c"CAN\00", align 1
@.str.50 = private unnamed_addr constant [3 x i8] c"EM\00", align 1
@.str.51 = private unnamed_addr constant [4 x i8] c"SUB\00", align 1
@.str.52 = private unnamed_addr constant [4 x i8] c"ESC\00", align 1
@.str.53 = private unnamed_addr constant [4 x i8] c"IS4\00", align 1
@.str.54 = private unnamed_addr constant [4 x i8] c"IS3\00", align 1
@.str.55 = private unnamed_addr constant [4 x i8] c"IS2\00", align 1
@.str.56 = private unnamed_addr constant [4 x i8] c"IS1\00", align 1
@.str.57 = private unnamed_addr constant [17 x i8] c"exclamation-mark\00", align 1
@.str.58 = private unnamed_addr constant [15 x i8] c"quotation-mark\00", align 1
@.str.59 = private unnamed_addr constant [12 x i8] c"number-sign\00", align 1
@.str.60 = private unnamed_addr constant [12 x i8] c"dollar-sign\00", align 1
@.str.61 = private unnamed_addr constant [13 x i8] c"percent-sign\00", align 1
@.str.62 = private unnamed_addr constant [10 x i8] c"ampersand\00", align 1
@.str.63 = private unnamed_addr constant [11 x i8] c"apostrophe\00", align 1
@.str.64 = private unnamed_addr constant [17 x i8] c"left-parenthesis\00", align 1
@.str.65 = private unnamed_addr constant [18 x i8] c"right-parenthesis\00", align 1
@.str.66 = private unnamed_addr constant [9 x i8] c"asterisk\00", align 1
@.str.67 = private unnamed_addr constant [10 x i8] c"plus-sign\00", align 1
@.str.68 = private unnamed_addr constant [6 x i8] c"comma\00", align 1
@.str.69 = private unnamed_addr constant [7 x i8] c"hyphen\00", align 1
@.str.70 = private unnamed_addr constant [7 x i8] c"period\00", align 1
@.str.71 = private unnamed_addr constant [6 x i8] c"slash\00", align 1
@.str.72 = private unnamed_addr constant [5 x i8] c"zero\00", align 1
@.str.73 = private unnamed_addr constant [4 x i8] c"one\00", align 1
@.str.74 = private unnamed_addr constant [4 x i8] c"two\00", align 1
@.str.75 = private unnamed_addr constant [6 x i8] c"three\00", align 1
@.str.76 = private unnamed_addr constant [5 x i8] c"four\00", align 1
@.str.77 = private unnamed_addr constant [5 x i8] c"five\00", align 1
@.str.78 = private unnamed_addr constant [4 x i8] c"six\00", align 1
@.str.79 = private unnamed_addr constant [6 x i8] c"seven\00", align 1
@.str.80 = private unnamed_addr constant [6 x i8] c"eight\00", align 1
@.str.81 = private unnamed_addr constant [5 x i8] c"nine\00", align 1
@.str.82 = private unnamed_addr constant [6 x i8] c"colon\00", align 1
@.str.83 = private unnamed_addr constant [10 x i8] c"semicolon\00", align 1
@.str.84 = private unnamed_addr constant [15 x i8] c"less-than-sign\00", align 1
@.str.85 = private unnamed_addr constant [12 x i8] c"equals-sign\00", align 1
@.str.86 = private unnamed_addr constant [18 x i8] c"greater-than-sign\00", align 1
@.str.87 = private unnamed_addr constant [14 x i8] c"question-mark\00", align 1
@.str.88 = private unnamed_addr constant [14 x i8] c"commercial-at\00", align 1
@.str.89 = private unnamed_addr constant [2 x i8] c"A\00", align 1
@.str.90 = private unnamed_addr constant [2 x i8] c"B\00", align 1
@.str.91 = private unnamed_addr constant [2 x i8] c"C\00", align 1
@.str.92 = private unnamed_addr constant [2 x i8] c"D\00", align 1
@.str.93 = private unnamed_addr constant [2 x i8] c"E\00", align 1
@.str.94 = private unnamed_addr constant [2 x i8] c"F\00", align 1
@.str.95 = private unnamed_addr constant [2 x i8] c"G\00", align 1
@.str.96 = private unnamed_addr constant [2 x i8] c"H\00", align 1
@.str.97 = private unnamed_addr constant [2 x i8] c"I\00", align 1
@.str.98 = private unnamed_addr constant [2 x i8] c"J\00", align 1
@.str.99 = private unnamed_addr constant [2 x i8] c"K\00", align 1
@.str.100 = private unnamed_addr constant [2 x i8] c"L\00", align 1
@.str.101 = private unnamed_addr constant [2 x i8] c"M\00", align 1
@.str.102 = private unnamed_addr constant [2 x i8] c"N\00", align 1
@.str.103 = private unnamed_addr constant [2 x i8] c"O\00", align 1
@.str.104 = private unnamed_addr constant [2 x i8] c"P\00", align 1
@.str.105 = private unnamed_addr constant [2 x i8] c"Q\00", align 1
@.str.106 = private unnamed_addr constant [2 x i8] c"R\00", align 1
@.str.107 = private unnamed_addr constant [2 x i8] c"S\00", align 1
@.str.108 = private unnamed_addr constant [2 x i8] c"T\00", align 1
@.str.109 = private unnamed_addr constant [2 x i8] c"U\00", align 1
@.str.110 = private unnamed_addr constant [2 x i8] c"V\00", align 1
@.str.111 = private unnamed_addr constant [2 x i8] c"W\00", align 1
@.str.112 = private unnamed_addr constant [2 x i8] c"X\00", align 1
@.str.113 = private unnamed_addr constant [2 x i8] c"Y\00", align 1
@.str.114 = private unnamed_addr constant [2 x i8] c"Z\00", align 1
@.str.115 = private unnamed_addr constant [20 x i8] c"left-square-bracket\00", align 1
@.str.116 = private unnamed_addr constant [10 x i8] c"backslash\00", align 1
@.str.117 = private unnamed_addr constant [21 x i8] c"right-square-bracket\00", align 1
@.str.118 = private unnamed_addr constant [11 x i8] c"circumflex\00", align 1
@.str.119 = private unnamed_addr constant [11 x i8] c"underscore\00", align 1
@.str.120 = private unnamed_addr constant [13 x i8] c"grave-accent\00", align 1
@.str.121 = private unnamed_addr constant [2 x i8] c"a\00", align 1
@.str.122 = private unnamed_addr constant [2 x i8] c"b\00", align 1
@.str.123 = private unnamed_addr constant [2 x i8] c"c\00", align 1
@.str.124 = private unnamed_addr constant [2 x i8] c"e\00", align 1
@.str.125 = private unnamed_addr constant [2 x i8] c"f\00", align 1
@.str.126 = private unnamed_addr constant [2 x i8] c"g\00", align 1
@.str.127 = private unnamed_addr constant [2 x i8] c"h\00", align 1
@.str.128 = private unnamed_addr constant [2 x i8] c"i\00", align 1
@.str.129 = private unnamed_addr constant [2 x i8] c"j\00", align 1
@.str.130 = private unnamed_addr constant [2 x i8] c"k\00", align 1
@.str.131 = private unnamed_addr constant [2 x i8] c"l\00", align 1
@.str.132 = private unnamed_addr constant [2 x i8] c"m\00", align 1
@.str.133 = private unnamed_addr constant [2 x i8] c"n\00", align 1
@.str.134 = private unnamed_addr constant [2 x i8] c"o\00", align 1
@.str.135 = private unnamed_addr constant [2 x i8] c"p\00", align 1
@.str.136 = private unnamed_addr constant [2 x i8] c"q\00", align 1
@.str.137 = private unnamed_addr constant [2 x i8] c"r\00", align 1
@.str.138 = private unnamed_addr constant [2 x i8] c"t\00", align 1
@.str.139 = private unnamed_addr constant [2 x i8] c"u\00", align 1
@.str.140 = private unnamed_addr constant [2 x i8] c"v\00", align 1
@.str.141 = private unnamed_addr constant [2 x i8] c"x\00", align 1
@.str.142 = private unnamed_addr constant [2 x i8] c"y\00", align 1
@.str.143 = private unnamed_addr constant [2 x i8] c"z\00", align 1
@.str.144 = private unnamed_addr constant [19 x i8] c"left-curly-bracket\00", align 1
@.str.145 = private unnamed_addr constant [14 x i8] c"vertical-line\00", align 1
@.str.146 = private unnamed_addr constant [20 x i8] c"right-curly-bracket\00", align 1
@.str.147 = private unnamed_addr constant [6 x i8] c"tilde\00", align 1
@.str.148 = private unnamed_addr constant [4 x i8] c"DEL\00", align 1
@_ZStL19piecewise_construct = internal constant %"struct.std::piecewise_construct_t" undef, align 1
@_ZZL18__gthread_active_pvE20__gthread_active_ptr = internal constant i8* bitcast (i32 (i32*, void (i8*)*)* @__pthread_key_create to i8*), align 8
@.str.149 = private unnamed_addr constant [26 x i8] c"vector::_M_default_append\00", align 1
@_ZZNKSt8__detail9_ExecutorIN9__gnu_cxx17__normal_iteratorIPKcNSt7__cxx1112basic_stringIcSt11char_traitsIcESaIcEEEEESaINS5_9sub_matchISB_EEENS5_12regex_traitsIcEELb0EE10_M_is_wordEcE3__s = linkonce_odr constant [2 x i8] c"w\00", comdat, align 1
@_ZZNKSt8__detail9_ExecutorIN9__gnu_cxx17__normal_iteratorIPKcNSt7__cxx1112basic_stringIcSt11char_traitsIcESaIcEEEEESaINS5_9sub_matchISB_EEENS5_12regex_traitsIcEELb1EE10_M_is_wordEcE3__s = linkonce_odr constant [2 x i8] c"w\00", comdat, align 1
@llvm.global_ctors = appending global [1 x { i32, void ()*, i8* }] [{ i32, void ()*, i8* } { i32 65535, void ()* @_GLOBAL__sub_I_s761891225.cpp, i8* null }]

; Function Attrs: noinline uwtable
define internal void @__cxx_global_var_init() #0 section ".text.startup" {
  call void @_ZNSt8ios_base4InitC1Ev(%"class.std::ios_base::Init"* @_ZStL8__ioinit)
  %1 = call i32 @__cxa_atexit(void (i8*)* bitcast (void (%"class.std::ios_base::Init"*)* @_ZNSt8ios_base4InitD1Ev to void (i8*)*), i8* getelementptr inbounds (%"class.std::ios_base::Init", %"class.std::ios_base::Init"* @_ZStL8__ioinit, i32 0, i32 0), i8* @__dso_handle) #3
  ret void
}

declare void @_ZNSt8ios_base4InitC1Ev(%"class.std::ios_base::Init"*) unnamed_addr #1

; Function Attrs: nounwind
declare void @_ZNSt8ios_base4InitD1Ev(%"class.std::ios_base::Init"*) unnamed_addr #2

; Function Attrs: nounwind
declare i32 @__cxa_atexit(void (i8*)*, i8*, i8*) #3

; Function Attrs: noinline norecurse uwtable
define i32 @main() #4 personality i8* bitcast (i32 (...)* @__gxx_personality_v0 to i8*) {
  %1 = alloca i32, align 4
  %2 = alloca %"class.std::__cxx11::basic_string", align 8
  %3 = alloca i8*
  %4 = alloca i32
  %5 = alloca %"class.std::__cxx11::basic_regex", align 8
  store i32 0, i32* %1, align 4
  call void @_ZNSt7__cxx1112basic_stringIcSt11char_traitsIcESaIcEEC1Ev(%"class.std::__cxx11::basic_string"* %2) #3
  %6 = invoke dereferenceable(280) %"class.std::basic_istream"* @_ZStrsIcSt11char_traitsIcESaIcEERSt13basic_istreamIT_T0_ES7_RNSt7__cxx1112basic_stringIS4_S5_T1_EE(%"class.std::basic_istream"* dereferenceable(280) @_ZSt3cin, %"class.std::__cxx11::basic_string"* dereferenceable(32) %2)
          to label %7 unwind label %21

; <label>:7:                                      ; preds = %0
  invoke void @_ZNSt7__cxx1111basic_regexIcNS_12regex_traitsIcEEEC2EPKcNSt15regex_constants18syntax_option_typeE(%"class.std::__cxx11::basic_regex"* %5, i8* getelementptr inbounds ([25 x i8], [25 x i8]* @.str, i32 0, i32 0), i32 16)
          to label %8 unwind label %21

; <label>:8:                                      ; preds = %7
  %9 = invoke zeroext i1 @_ZSt11regex_matchISt11char_traitsIcESaIcEcNSt7__cxx1112regex_traitsIcEEEbRKNS3_12basic_stringIT1_T_T0_EERKNS3_11basic_regexIS7_T2_EENSt15regex_constants15match_flag_typeE(%"class.std::__cxx11::basic_string"* dereferenceable(32) %2, %"class.std::__cxx11::basic_regex"* dereferenceable(32) %5, i32 0)
          to label %10 unwind label %25

; <label>:10:                                     ; preds = %8
  br i1 %9, label %11, label %12

; <label>:11:                                     ; preds = %10
  br label %13

; <label>:12:                                     ; preds = %10
  br label %13

; <label>:13:                                     ; preds = %12, %11
  %14 = phi [3 x i8]* [ @.str.1, %11 ], [ @.str.2, %12 ]
  %15 = getelementptr inbounds [3 x i8], [3 x i8]* %14, i32 0, i32 0
  %16 = invoke dereferenceable(272) %"class.std::basic_ostream"* @_ZStlsISt11char_traitsIcEERSt13basic_ostreamIcT_ES5_PKc(%"class.std::basic_ostream"* dereferenceable(272) @_ZSt4cout, i8* %15)
          to label %17 unwind label %25

; <label>:17:                                     ; preds = %13
  %18 = invoke dereferenceable(272) %"class.std::basic_ostream"* @_ZNSolsEPFRSoS_E(%"class.std::basic_ostream"* %16, %"class.std::basic_ostream"* (%"class.std::basic_ostream"*)* @_ZSt4endlIcSt11char_traitsIcEERSt13basic_ostreamIT_T0_ES6_)
          to label %19 unwind label %25

; <label>:19:                                     ; preds = %17
  call void @_ZNSt7__cxx1111basic_regexIcNS_12regex_traitsIcEEED2Ev(%"class.std::__cxx11::basic_regex"* %5) #3
  call void @_ZNSt7__cxx1112basic_stringIcSt11char_traitsIcESaIcEED1Ev(%"class.std::__cxx11::basic_string"* %2) #3
  %20 = load i32, i32* %1, align 4
  ret i32 %20

; <label>:21:                                     ; preds = %7, %0
  %22 = landingpad { i8*, i32 }
          cleanup
  %23 = extractvalue { i8*, i32 } %22, 0
  store i8* %23, i8** %3, align 8
  %24 = extractvalue { i8*, i32 } %22, 1
  store i32 %24, i32* %4, align 4
  br label %29

; <label>:25:                                     ; preds = %17, %13, %8
  %26 = landingpad { i8*, i32 }
          cleanup
  %27 = extractvalue { i8*, i32 } %26, 0
  store i8* %27, i8** %3, align 8
  %28 = extractvalue { i8*, i32 } %26, 1
  store i32 %28, i32* %4, align 4
  call void @_ZNSt7__cxx1111basic_regexIcNS_12regex_traitsIcEEED2Ev(%"class.std::__cxx11::basic_regex"* %5) #3
  br label %29

; <label>:29:                                     ; preds = %25, %21
  call void @_ZNSt7__cxx1112basic_stringIcSt11char_traitsIcESaIcEED1Ev(%"class.std::__cxx11::basic_string"* %2) #3
  br label %30

; <label>:30:                                     ; preds = %29
  %31 = load i8*, i8** %3, align 8
  %32 = load i32, i32* %4, align 4
  %33 = insertvalue { i8*, i32 } undef, i8* %31, 0
  %34 = insertvalue { i8*, i32 } %33, i32 %32, 1
  resume { i8*, i32 } %34
}

; Function Attrs: nounwind
declare void @_ZNSt7__cxx1112basic_stringIcSt11char_traitsIcESaIcEEC1Ev(%"class.std::__cxx11::basic_string"*) unnamed_addr #2

declare dereferenceable(280) %"class.std::basic_istream"* @_ZStrsIcSt11char_traitsIcESaIcEERSt13basic_istreamIT_T0_ES7_RNSt7__cxx1112basic_stringIS4_S5_T1_EE(%"class.std::basic_istream"* dereferenceable(280), %"class.std::__cxx11::basic_string"* dereferenceable(32)) #1

declare i32 @__gxx_personality_v0(...)

; Function Attrs: noinline uwtable
define linkonce_odr void @_ZNSt7__cxx1111basic_regexIcNS_12regex_traitsIcEEEC2EPKcNSt15regex_constants18syntax_option_typeE(%"class.std::__cxx11::basic_regex"*, i8*, i32) unnamed_addr #0 comdat align 2 {
  %4 = alloca %"class.std::__cxx11::basic_regex"*, align 8
  %5 = alloca i8*, align 8
  %6 = alloca i32, align 4
  store %"class.std::__cxx11::basic_regex"* %0, %"class.std::__cxx11::basic_regex"** %4, align 8
  store i8* %1, i8** %5, align 8
  store i32 %2, i32* %6, align 4
  %7 = load %"class.std::__cxx11::basic_regex"*, %"class.std::__cxx11::basic_regex"** %4, align 8
  %8 = load i8*, i8** %5, align 8
  %9 = load i8*, i8** %5, align 8
  %10 = load i8*, i8** %5, align 8
  %11 = call i64 @_ZNSt11char_traitsIcE6lengthEPKc(i8* %10)
  %12 = getelementptr inbounds i8, i8* %9, i64 %11
  %13 = load i32, i32* %6, align 4
  call void @_ZNSt7__cxx1111basic_regexIcNS_12regex_traitsIcEEEC2IPKcEET_S7_NSt15regex_constants18syntax_option_typeE(%"class.std::__cxx11::basic_regex"* %7, i8* %8, i8* %12, i32 %13)
  ret void
}

declare dereferenceable(272) %"class.std::basic_ostream"* @_ZStlsISt11char_traitsIcEERSt13basic_ostreamIcT_ES5_PKc(%"class.std::basic_ostream"* dereferenceable(272), i8*) #1

; Function Attrs: noinline uwtable
define linkonce_odr zeroext i1 @_ZSt11regex_matchISt11char_traitsIcESaIcEcNSt7__cxx1112regex_traitsIcEEEbRKNS3_12basic_stringIT1_T_T0_EERKNS3_11basic_regexIS7_T2_EENSt15regex_constants15match_flag_typeE(%"class.std::__cxx11::basic_string"* dereferenceable(32), %"class.std::__cxx11::basic_regex"* dereferenceable(32), i32) #0 comdat {
  %4 = alloca %"class.std::__cxx11::basic_string"*, align 8
  %5 = alloca %"class.std::__cxx11::basic_regex"*, align 8
  %6 = alloca i32, align 4
  %7 = alloca %"class.__gnu_cxx::__normal_iterator.101", align 8
  %8 = alloca %"class.__gnu_cxx::__normal_iterator.101", align 8
  store %"class.std::__cxx11::basic_string"* %0, %"class.std::__cxx11::basic_string"** %4, align 8
  store %"class.std::__cxx11::basic_regex"* %1, %"class.std::__cxx11::basic_regex"** %5, align 8
  store i32 %2, i32* %6, align 4
  %9 = load %"class.std::__cxx11::basic_string"*, %"class.std::__cxx11::basic_string"** %4, align 8
  %10 = call i8* @_ZNKSt7__cxx1112basic_stringIcSt11char_traitsIcESaIcEE5beginEv(%"class.std::__cxx11::basic_string"* %9) #3
  %11 = getelementptr inbounds %"class.__gnu_cxx::__normal_iterator.101", %"class.__gnu_cxx::__normal_iterator.101"* %7, i32 0, i32 0
  store i8* %10, i8** %11, align 8
  %12 = load %"class.std::__cxx11::basic_string"*, %"class.std::__cxx11::basic_string"** %4, align 8
  %13 = call i8* @_ZNKSt7__cxx1112basic_stringIcSt11char_traitsIcESaIcEE3endEv(%"class.std::__cxx11::basic_string"* %12) #3
  %14 = getelementptr inbounds %"class.__gnu_cxx::__normal_iterator.101", %"class.__gnu_cxx::__normal_iterator.101"* %8, i32 0, i32 0
  store i8* %13, i8** %14, align 8
  %15 = load %"class.std::__cxx11::basic_regex"*, %"class.std::__cxx11::basic_regex"** %5, align 8
  %16 = load i32, i32* %6, align 4
  %17 = getelementptr inbounds %"class.__gnu_cxx::__normal_iterator.101", %"class.__gnu_cxx::__normal_iterator.101"* %7, i32 0, i32 0
  %18 = load i8*, i8** %17, align 8
  %19 = getelementptr inbounds %"class.__gnu_cxx::__normal_iterator.101", %"class.__gnu_cxx::__normal_iterator.101"* %8, i32 0, i32 0
  %20 = load i8*, i8** %19, align 8
  %21 = call zeroext i1 @_ZSt11regex_matchIN9__gnu_cxx17__normal_iteratorIPKcNSt7__cxx1112basic_stringIcSt11char_traitsIcESaIcEEEEEcNS4_12regex_traitsIcEEEbT_SD_RKNS4_11basic_regexIT0_T1_EENSt15regex_constants15match_flag_typeE(i8* %18, i8* %20, %"class.std::__cxx11::basic_regex"* dereferenceable(32) %15, i32 %16)
  ret i1 %21
}

declare dereferenceable(272) %"class.std::basic_ostream"* @_ZNSolsEPFRSoS_E(%"class.std::basic_ostream"*, %"class.std::basic_ostream"* (%"class.std::basic_ostream"*)*) #1

declare dereferenceable(272) %"class.std::basic_ostream"* @_ZSt4endlIcSt11char_traitsIcEERSt13basic_ostreamIT_T0_ES6_(%"class.std::basic_ostream"* dereferenceable(272)) #1

; Function Attrs: noinline nounwind uwtable
define linkonce_odr void @_ZNSt7__cxx1111basic_regexIcNS_12regex_traitsIcEEED2Ev(%"class.std::__cxx11::basic_regex"*) unnamed_addr #5 comdat align 2 {
  %2 = alloca %"class.std::__cxx11::basic_regex"*, align 8
  store %"class.std::__cxx11::basic_regex"* %0, %"class.std::__cxx11::basic_regex"** %2, align 8
  %3 = load %"class.std::__cxx11::basic_regex"*, %"class.std::__cxx11::basic_regex"** %2, align 8
  %4 = getelementptr inbounds %"class.std::__cxx11::basic_regex", %"class.std::__cxx11::basic_regex"* %3, i32 0, i32 2
  call void @_ZNSt10shared_ptrIKNSt8__detail4_NFAINSt7__cxx1112regex_traitsIcEEEEED2Ev(%"class.std::shared_ptr"* %4) #3
  %5 = getelementptr inbounds %"class.std::__cxx11::basic_regex", %"class.std::__cxx11::basic_regex"* %3, i32 0, i32 1
  call void @_ZNSt6localeD1Ev(%"class.std::locale"* %5) #3
  ret void
}

; Function Attrs: nounwind
declare void @_ZNSt7__cxx1112basic_stringIcSt11char_traitsIcESaIcEED1Ev(%"class.std::__cxx11::basic_string"*) unnamed_addr #2

; Function Attrs: noinline nounwind uwtable
define linkonce_odr i64 @_ZNSt11char_traitsIcE6lengthEPKc(i8*) #5 comdat align 2 {
  %2 = alloca i8*, align 8
  store i8* %0, i8** %2, align 8
  %3 = load i8*, i8** %2, align 8
  %4 = call i64 @strlen(i8* %3) #3
  ret i64 %4
}

; Function Attrs: noinline uwtable
define linkonce_odr void @_ZNSt7__cxx1111basic_regexIcNS_12regex_traitsIcEEEC2IPKcEET_S7_NSt15regex_constants18syntax_option_typeE(%"class.std::__cxx11::basic_regex"*, i8*, i8*, i32) unnamed_addr #0 comdat align 2 personality i8* bitcast (i32 (...)* @__gxx_personality_v0 to i8*) {
  %5 = alloca %"class.std::__cxx11::basic_regex"*, align 8
  %6 = alloca i8*, align 8
  %7 = alloca i8*, align 8
  %8 = alloca i32, align 4
  %9 = alloca %"class.std::locale", align 8
  %10 = alloca i8*
  %11 = alloca i32
  store %"class.std::__cxx11::basic_regex"* %0, %"class.std::__cxx11::basic_regex"** %5, align 8
  store i8* %1, i8** %6, align 8
  store i8* %2, i8** %7, align 8
  store i32 %3, i32* %8, align 4
  %12 = load %"class.std::__cxx11::basic_regex"*, %"class.std::__cxx11::basic_regex"** %5, align 8
  %13 = call dereferenceable(8) i8** @_ZSt4moveIRPKcEONSt16remove_referenceIT_E4typeEOS4_(i8** dereferenceable(8) %6) #3
  %14 = load i8*, i8** %13, align 8
  %15 = call dereferenceable(8) i8** @_ZSt4moveIRPKcEONSt16remove_referenceIT_E4typeEOS4_(i8** dereferenceable(8) %7) #3
  %16 = load i8*, i8** %15, align 8
  call void @_ZNSt6localeC1Ev(%"class.std::locale"* %9) #3
  %17 = load i32, i32* %8, align 4
  invoke void @_ZNSt7__cxx1111basic_regexIcNS_12regex_traitsIcEEEC2IPKcEET_S7_St6localeNSt15regex_constants18syntax_option_typeE(%"class.std::__cxx11::basic_regex"* %12, i8* %14, i8* %16, %"class.std::locale"* %9, i32 %17)
          to label %18 unwind label %19

; <label>:18:                                     ; preds = %4
  call void @_ZNSt6localeD1Ev(%"class.std::locale"* %9) #3
  ret void

; <label>:19:                                     ; preds = %4
  %20 = landingpad { i8*, i32 }
          cleanup
  %21 = extractvalue { i8*, i32 } %20, 0
  store i8* %21, i8** %10, align 8
  %22 = extractvalue { i8*, i32 } %20, 1
  store i32 %22, i32* %11, align 4
  call void @_ZNSt6localeD1Ev(%"class.std::locale"* %9) #3
  br label %23

; <label>:23:                                     ; preds = %19
  %24 = load i8*, i8** %10, align 8
  %25 = load i32, i32* %11, align 4
  %26 = insertvalue { i8*, i32 } undef, i8* %24, 0
  %27 = insertvalue { i8*, i32 } %26, i32 %25, 1
  resume { i8*, i32 } %27
}

; Function Attrs: nounwind
declare i64 @strlen(i8*) #2

; Function Attrs: noinline nounwind uwtable
define linkonce_odr dereferenceable(8) i8** @_ZSt4moveIRPKcEONSt16remove_referenceIT_E4typeEOS4_(i8** dereferenceable(8)) #5 comdat {
  %2 = alloca i8**, align 8
  store i8** %0, i8*** %2, align 8
  %3 = load i8**, i8*** %2, align 8
  ret i8** %3
}

; Function Attrs: nounwind
declare void @_ZNSt6localeC1Ev(%"class.std::locale"*) unnamed_addr #2

; Function Attrs: noinline uwtable
define linkonce_odr void @_ZNSt7__cxx1111basic_regexIcNS_12regex_traitsIcEEEC2IPKcEET_S7_St6localeNSt15regex_constants18syntax_option_typeE(%"class.std::__cxx11::basic_regex"*, i8*, i8*, %"class.std::locale"*, i32) unnamed_addr #0 comdat align 2 personality i8* bitcast (i32 (...)* @__gxx_personality_v0 to i8*) {
  %6 = alloca %"class.std::__cxx11::basic_regex"*, align 8
  %7 = alloca i8*, align 8
  %8 = alloca i8*, align 8
  %9 = alloca i32, align 4
  %10 = alloca i8*
  %11 = alloca i32
  store %"class.std::__cxx11::basic_regex"* %0, %"class.std::__cxx11::basic_regex"** %6, align 8
  store i8* %1, i8** %7, align 8
  store i8* %2, i8** %8, align 8
  store i32 %4, i32* %9, align 4
  %12 = load %"class.std::__cxx11::basic_regex"*, %"class.std::__cxx11::basic_regex"** %6, align 8
  %13 = getelementptr inbounds %"class.std::__cxx11::basic_regex", %"class.std::__cxx11::basic_regex"* %12, i32 0, i32 0
  %14 = load i32, i32* %9, align 4
  store i32 %14, i32* %13, align 8
  %15 = getelementptr inbounds %"class.std::__cxx11::basic_regex", %"class.std::__cxx11::basic_regex"* %12, i32 0, i32 1
  %16 = call dereferenceable(8) %"class.std::locale"* @_ZSt4moveIRSt6localeEONSt16remove_referenceIT_E4typeEOS3_(%"class.std::locale"* dereferenceable(8) %3) #3
  call void @_ZNSt6localeC1ERKS_(%"class.std::locale"* %15, %"class.std::locale"* dereferenceable(8) %16) #3
  %17 = getelementptr inbounds %"class.std::__cxx11::basic_regex", %"class.std::__cxx11::basic_regex"* %12, i32 0, i32 2
  %18 = call dereferenceable(8) i8** @_ZSt4moveIRPKcEONSt16remove_referenceIT_E4typeEOS4_(i8** dereferenceable(8) %7) #3
  %19 = load i8*, i8** %18, align 8
  %20 = call dereferenceable(8) i8** @_ZSt4moveIRPKcEONSt16remove_referenceIT_E4typeEOS4_(i8** dereferenceable(8) %8) #3
  %21 = load i8*, i8** %20, align 8
  %22 = getelementptr inbounds %"class.std::__cxx11::basic_regex", %"class.std::__cxx11::basic_regex"* %12, i32 0, i32 1
  %23 = getelementptr inbounds %"class.std::__cxx11::basic_regex", %"class.std::__cxx11::basic_regex"* %12, i32 0, i32 0
  %24 = load i32, i32* %23, align 8
  invoke void @_ZNSt8__detail13__compile_nfaIPKcNSt7__cxx1112regex_traitsIcEEEENSt9enable_ifIXsr27__is_contiguous_normal_iterIT_EE5valueESt10shared_ptrIKNS_4_NFAIT0_EEEE4typeES7_S7_RKNSA_11locale_typeENSt15regex_constants18syntax_option_typeE(%"class.std::shared_ptr"* sret %17, i8* %19, i8* %21, %"class.std::locale"* dereferenceable(8) %22, i32 %24)
          to label %25 unwind label %26

; <label>:25:                                     ; preds = %5
  ret void

; <label>:26:                                     ; preds = %5
  %27 = landingpad { i8*, i32 }
          cleanup
  %28 = extractvalue { i8*, i32 } %27, 0
  store i8* %28, i8** %10, align 8
  %29 = extractvalue { i8*, i32 } %27, 1
  store i32 %29, i32* %11, align 4
  call void @_ZNSt6localeD1Ev(%"class.std::locale"* %15) #3
  br label %30

; <label>:30:                                     ; preds = %26
  %31 = load i8*, i8** %10, align 8
  %32 = load i32, i32* %11, align 4
  %33 = insertvalue { i8*, i32 } undef, i8* %31, 0
  %34 = insertvalue { i8*, i32 } %33, i32 %32, 1
  resume { i8*, i32 } %34
}

; Function Attrs: nounwind
declare void @_ZNSt6localeD1Ev(%"class.std::locale"*) unnamed_addr #2

; Function Attrs: noinline nounwind uwtable
define linkonce_odr dereferenceable(8) %"class.std::locale"* @_ZSt4moveIRSt6localeEONSt16remove_referenceIT_E4typeEOS3_(%"class.std::locale"* dereferenceable(8)) #5 comdat {
  %2 = alloca %"class.std::locale"*, align 8
  store %"class.std::locale"* %0, %"class.std::locale"** %2, align 8
  %3 = load %"class.std::locale"*, %"class.std::locale"** %2, align 8
  ret %"class.std::locale"* %3
}

; Function Attrs: nounwind
declare void @_ZNSt6localeC1ERKS_(%"class.std::locale"*, %"class.std::locale"* dereferenceable(8)) unnamed_addr #2

; Function Attrs: noinline uwtable
define linkonce_odr void @_ZNSt8__detail13__compile_nfaIPKcNSt7__cxx1112regex_traitsIcEEEENSt9enable_ifIXsr27__is_contiguous_normal_iterIT_EE5valueESt10shared_ptrIKNS_4_NFAIT0_EEEE4typeES7_S7_RKNSA_11locale_typeENSt15regex_constants18syntax_option_typeE(%"class.std::shared_ptr"* noalias sret, i8*, i8*, %"class.std::locale"* dereferenceable(8), i32) #0 comdat personality i8* bitcast (i32 (...)* @__gxx_personality_v0 to i8*) {
  %6 = alloca i8*, align 8
  %7 = alloca i8*, align 8
  %8 = alloca %"class.std::locale"*, align 8
  %9 = alloca i32, align 4
  %10 = alloca i64, align 8
  %11 = alloca i8*, align 8
  %12 = alloca %"class.std::__detail::_Compiler", align 8
  %13 = alloca i8*
  %14 = alloca i32
  store i8* %1, i8** %6, align 8
  store i8* %2, i8** %7, align 8
  store %"class.std::locale"* %3, %"class.std::locale"** %8, align 8
  store i32 %4, i32* %9, align 4
  %15 = load i8*, i8** %7, align 8
  %16 = load i8*, i8** %6, align 8
  %17 = ptrtoint i8* %15 to i64
  %18 = ptrtoint i8* %16 to i64
  %19 = sub i64 %17, 3387682279796825114
  %20 = sub i64 %19, %18
  %21 = add i64 %20, 3387682279796825114
  %22 = sub i64 %17, %18
  store i64 %21, i64* %10, align 8
  %23 = load i64, i64* %10, align 8
  %24 = icmp ne i64 %23, 0
  br i1 %24, label %25, label %28

; <label>:25:                                     ; preds = %5
  %26 = load i8*, i8** %6, align 8
  %27 = call i8* @_ZSt11__addressofIKcEPT_RS1_(i8* dereferenceable(1) %26) #3
  br label %29

; <label>:28:                                     ; preds = %5
  br label %29

; <label>:29:                                     ; preds = %28, %25
  %30 = phi i8* [ %27, %25 ], [ null, %28 ]
  store i8* %30, i8** %11, align 8
  %31 = load i8*, i8** %11, align 8
  %32 = load i8*, i8** %11, align 8
  %33 = load i64, i64* %10, align 8
  %34 = getelementptr inbounds i8, i8* %32, i64 %33
  %35 = load %"class.std::locale"*, %"class.std::locale"** %8, align 8
  %36 = load i32, i32* %9, align 4
  call void @_ZNSt8__detail9_CompilerINSt7__cxx1112regex_traitsIcEEEC2EPKcS6_RKSt6localeNSt15regex_constants18syntax_option_typeE(%"class.std::__detail::_Compiler"* %12, i8* %31, i8* %34, %"class.std::locale"* dereferenceable(8) %35, i32 %36)
  invoke void @_ZNSt8__detail9_CompilerINSt7__cxx1112regex_traitsIcEEE10_M_get_nfaEv(%"class.std::shared_ptr"* sret %0, %"class.std::__detail::_Compiler"* %12)
          to label %37 unwind label %38

; <label>:37:                                     ; preds = %29
  call void @_ZNSt8__detail9_CompilerINSt7__cxx1112regex_traitsIcEEED2Ev(%"class.std::__detail::_Compiler"* %12) #3
  ret void

; <label>:38:                                     ; preds = %29
  %39 = landingpad { i8*, i32 }
          cleanup
  %40 = extractvalue { i8*, i32 } %39, 0
  store i8* %40, i8** %13, align 8
  %41 = extractvalue { i8*, i32 } %39, 1
  store i32 %41, i32* %14, align 4
  call void @_ZNSt8__detail9_CompilerINSt7__cxx1112regex_traitsIcEEED2Ev(%"class.std::__detail::_Compiler"* %12) #3
  br label %42

; <label>:42:                                     ; preds = %38
  %43 = load i8*, i8** %13, align 8
  %44 = load i32, i32* %14, align 4
  %45 = insertvalue { i8*, i32 } undef, i8* %43, 0
  %46 = insertvalue { i8*, i32 } %45, i32 %44, 1
  resume { i8*, i32 } %46
}

; Function Attrs: noinline nounwind uwtable
define linkonce_odr i8* @_ZSt11__addressofIKcEPT_RS1_(i8* dereferenceable(1)) #5 comdat {
  %2 = alloca i8*, align 8
  store i8* %0, i8** %2, align 8
  %3 = load i8*, i8** %2, align 8
  ret i8* %3
}

; Function Attrs: noinline uwtable
define linkonce_odr void @_ZNSt8__detail9_CompilerINSt7__cxx1112regex_traitsIcEEEC2EPKcS6_RKSt6localeNSt15regex_constants18syntax_option_typeE(%"class.std::__detail::_Compiler"*, i8*, i8*, %"class.std::locale"* dereferenceable(8), i32) unnamed_addr #0 comdat align 2 personality i8* bitcast (i32 (...)* @__gxx_personality_v0 to i8*) {
  %6 = alloca %"class.std::__detail::_Compiler"*, align 8
  %7 = alloca i8*, align 8
  %8 = alloca i8*, align 8
  %9 = alloca %"class.std::locale"*, align 8
  %10 = alloca i32, align 4
  %11 = alloca %"class.std::locale", align 8
  %12 = alloca i8*
  %13 = alloca i32
  %14 = alloca %"class.std::deque", align 8
  %15 = alloca %"class.std::__detail::_StateSeq", align 8
  %16 = alloca %"class.std::__detail::_StateSeq", align 8
  store %"class.std::__detail::_Compiler"* %0, %"class.std::__detail::_Compiler"** %6, align 8
  store i8* %1, i8** %7, align 8
  store i8* %2, i8** %8, align 8
  store %"class.std::locale"* %3, %"class.std::locale"** %9, align 8
  store i32 %4, i32* %10, align 4
  %17 = load %"class.std::__detail::_Compiler"*, %"class.std::__detail::_Compiler"** %6, align 8
  %18 = getelementptr inbounds %"class.std::__detail::_Compiler", %"class.std::__detail::_Compiler"* %17, i32 0, i32 0
  %19 = load i32, i32* %10, align 4
  %20 = call i32 @_ZNSt15regex_constantsorENS_18syntax_option_typeES0_(i32 16, i32 32)
  %21 = call i32 @_ZNSt15regex_constantsorENS_18syntax_option_typeES0_(i32 %20, i32 64)
  %22 = call i32 @_ZNSt15regex_constantsorENS_18syntax_option_typeES0_(i32 %21, i32 256)
  %23 = call i32 @_ZNSt15regex_constantsorENS_18syntax_option_typeES0_(i32 %22, i32 512)
  %24 = call i32 @_ZNSt15regex_constantsorENS_18syntax_option_typeES0_(i32 %23, i32 128)
  %25 = call i32 @_ZNSt15regex_constantsanENS_18syntax_option_typeES0_(i32 %19, i32 %24)
  %26 = icmp ne i32 %25, 0
  br i1 %26, label %27, label %29

; <label>:27:                                     ; preds = %5
  %28 = load i32, i32* %10, align 4
  br label %32

; <label>:29:                                     ; preds = %5
  %30 = load i32, i32* %10, align 4
  %31 = call i32 @_ZNSt15regex_constantsorENS_18syntax_option_typeES0_(i32 %30, i32 16)
  br label %32

; <label>:32:                                     ; preds = %29, %27
  %33 = phi i32 [ %28, %27 ], [ %31, %29 ]
  store i32 %33, i32* %18, align 8
  %34 = getelementptr inbounds %"class.std::__detail::_Compiler", %"class.std::__detail::_Compiler"* %17, i32 0, i32 1
  %35 = load i8*, i8** %7, align 8
  %36 = load i8*, i8** %8, align 8
  %37 = getelementptr inbounds %"class.std::__detail::_Compiler", %"class.std::__detail::_Compiler"* %17, i32 0, i32 0
  %38 = load i32, i32* %37, align 8
  %39 = load %"class.std::locale"*, %"class.std::locale"** %9, align 8
  call void @_ZNSt6localeC1ERKS_(%"class.std::locale"* %11, %"class.std::locale"* dereferenceable(8) %39) #3
  invoke void @_ZNSt8__detail8_ScannerIcEC2EPKcS3_NSt15regex_constants18syntax_option_typeESt6locale(%"class.std::__detail::_Scanner"* %34, i8* %35, i8* %36, i32 %38, %"class.std::locale"* %11)
          to label %40 unwind label %79

; <label>:40:                                     ; preds = %32
  call void @_ZNSt6localeD1Ev(%"class.std::locale"* %11) #3
  %41 = getelementptr inbounds %"class.std::__detail::_Compiler", %"class.std::__detail::_Compiler"* %17, i32 0, i32 2
  %42 = load %"class.std::locale"*, %"class.std::locale"** %9, align 8
  %43 = getelementptr inbounds %"class.std::__detail::_Compiler", %"class.std::__detail::_Compiler"* %17, i32 0, i32 0
  invoke void @_ZSt11make_sharedINSt8__detail4_NFAINSt7__cxx1112regex_traitsIcEEEEJRKSt6localeRNSt15regex_constants18syntax_option_typeEEESt10shared_ptrIT_EDpOT0_(%"class.std::shared_ptr.10"* sret %41, %"class.std::locale"* dereferenceable(8) %42, i32* dereferenceable(4) %43)
          to label %44 unwind label %83

; <label>:44:                                     ; preds = %40
  %45 = getelementptr inbounds %"class.std::__detail::_Compiler", %"class.std::__detail::_Compiler"* %17, i32 0, i32 3
  call void @_ZNSt7__cxx1112basic_stringIcSt11char_traitsIcESaIcEEC1Ev(%"class.std::__cxx11::basic_string"* %45) #3
  %46 = getelementptr inbounds %"class.std::__detail::_Compiler", %"class.std::__detail::_Compiler"* %17, i32 0, i32 4
  invoke void @_ZNSt5dequeINSt8__detail9_StateSeqINSt7__cxx1112regex_traitsIcEEEESaIS5_EEC2Ev(%"class.std::deque"* %14)
          to label %47 unwind label %87

; <label>:47:                                     ; preds = %44
  invoke void @_ZNSt5stackINSt8__detail9_StateSeqINSt7__cxx1112regex_traitsIcEEEESt5dequeIS5_SaIS5_EEEC2EOS8_(%"class.std::stack"* %46, %"class.std::deque"* dereferenceable(80) %14)
          to label %48 unwind label %91

; <label>:48:                                     ; preds = %47
  call void @_ZNSt5dequeINSt8__detail9_StateSeqINSt7__cxx1112regex_traitsIcEEEESaIS5_EED2Ev(%"class.std::deque"* %14) #3
  %49 = getelementptr inbounds %"class.std::__detail::_Compiler", %"class.std::__detail::_Compiler"* %17, i32 0, i32 5
  %50 = getelementptr inbounds %"class.std::__detail::_Compiler", %"class.std::__detail::_Compiler"* %17, i32 0, i32 2
  %51 = bitcast %"class.std::shared_ptr.10"* %50 to %"class.std::__shared_ptr.11"*
  %52 = call %"struct.std::__detail::_NFA"* @_ZNKSt12__shared_ptrINSt8__detail4_NFAINSt7__cxx1112regex_traitsIcEEEELN9__gnu_cxx12_Lock_policyE2EEptEv(%"class.std::__shared_ptr.11"* %51) #3
  %53 = getelementptr inbounds %"struct.std::__detail::_NFA", %"struct.std::__detail::_NFA"* %52, i32 0, i32 2
  store %"struct.std::__cxx11::regex_traits"* %53, %"struct.std::__cxx11::regex_traits"** %49, align 8
  %54 = getelementptr inbounds %"class.std::__detail::_Compiler", %"class.std::__detail::_Compiler"* %17, i32 0, i32 6
  %55 = load %"class.std::locale"*, %"class.std::locale"** %9, align 8
  %56 = invoke dereferenceable(576) %"class.std::ctype"* @_ZSt9use_facetISt5ctypeIcEERKT_RKSt6locale(%"class.std::locale"* dereferenceable(8) %55)
          to label %57 unwind label %95

; <label>:57:                                     ; preds = %48
  store %"class.std::ctype"* %56, %"class.std::ctype"** %54, align 8
  %58 = getelementptr inbounds %"class.std::__detail::_Compiler", %"class.std::__detail::_Compiler"* %17, i32 0, i32 2
  %59 = bitcast %"class.std::shared_ptr.10"* %58 to %"class.std::__shared_ptr.11"*
  %60 = call dereferenceable(88) %"struct.std::__detail::_NFA"* @_ZNKSt12__shared_ptrINSt8__detail4_NFAINSt7__cxx1112regex_traitsIcEEEELN9__gnu_cxx12_Lock_policyE2EEdeEv(%"class.std::__shared_ptr.11"* %59) #3
  %61 = getelementptr inbounds %"class.std::__detail::_Compiler", %"class.std::__detail::_Compiler"* %17, i32 0, i32 2
  %62 = bitcast %"class.std::shared_ptr.10"* %61 to %"class.std::__shared_ptr.11"*
  %63 = call %"struct.std::__detail::_NFA"* @_ZNKSt12__shared_ptrINSt8__detail4_NFAINSt7__cxx1112regex_traitsIcEEEELN9__gnu_cxx12_Lock_policyE2EEptEv(%"class.std::__shared_ptr.11"* %62) #3
  %64 = bitcast %"struct.std::__detail::_NFA"* %63 to %"struct.std::__detail::_NFA_base"*
  %65 = invoke i64 @_ZNKSt8__detail9_NFA_base8_M_startEv(%"struct.std::__detail::_NFA_base"* %64)
          to label %66 unwind label %95

; <label>:66:                                     ; preds = %57
  invoke void @_ZNSt8__detail9_StateSeqINSt7__cxx1112regex_traitsIcEEEC2ERNS_4_NFAIS3_EEl(%"class.std::__detail::_StateSeq"* %15, %"struct.std::__detail::_NFA"* dereferenceable(88) %60, i64 %65)
          to label %67 unwind label %95

; <label>:67:                                     ; preds = %66
  %68 = getelementptr inbounds %"class.std::__detail::_Compiler", %"class.std::__detail::_Compiler"* %17, i32 0, i32 2
  %69 = bitcast %"class.std::shared_ptr.10"* %68 to %"class.std::__shared_ptr.11"*
  %70 = call %"struct.std::__detail::_NFA"* @_ZNKSt12__shared_ptrINSt8__detail4_NFAINSt7__cxx1112regex_traitsIcEEEELN9__gnu_cxx12_Lock_policyE2EEptEv(%"class.std::__shared_ptr.11"* %69) #3
  %71 = invoke i64 @_ZNSt8__detail4_NFAINSt7__cxx1112regex_traitsIcEEE23_M_insert_subexpr_beginEv(%"struct.std::__detail::_NFA"* %70)
          to label %72 unwind label %95

; <label>:72:                                     ; preds = %67
  invoke void @_ZNSt8__detail9_StateSeqINSt7__cxx1112regex_traitsIcEEE9_M_appendEl(%"class.std::__detail::_StateSeq"* %15, i64 %71)
          to label %73 unwind label %95

; <label>:73:                                     ; preds = %72
  invoke void @_ZNSt8__detail9_CompilerINSt7__cxx1112regex_traitsIcEEE14_M_disjunctionEv(%"class.std::__detail::_Compiler"* %17)
          to label %74 unwind label %95

; <label>:74:                                     ; preds = %73
  %75 = invoke zeroext i1 @_ZNSt8__detail9_CompilerINSt7__cxx1112regex_traitsIcEEE14_M_match_tokenENS_12_ScannerBase7_TokenTE(%"class.std::__detail::_Compiler"* %17, i32 27)
          to label %76 unwind label %95

; <label>:76:                                     ; preds = %74
  br i1 %75, label %99, label %77

; <label>:77:                                     ; preds = %76
  invoke void @_ZSt19__throw_regex_errorNSt15regex_constants10error_typeE(i32 5)
          to label %78 unwind label %95

; <label>:78:                                     ; preds = %77
  br label %99

; <label>:79:                                     ; preds = %32
  %80 = landingpad { i8*, i32 }
          cleanup
  %81 = extractvalue { i8*, i32 } %80, 0
  store i8* %81, i8** %12, align 8
  %82 = extractvalue { i8*, i32 } %80, 1
  store i32 %82, i32* %13, align 4
  call void @_ZNSt6localeD1Ev(%"class.std::locale"* %11) #3
  br label %120

; <label>:83:                                     ; preds = %40
  %84 = landingpad { i8*, i32 }
          cleanup
  %85 = extractvalue { i8*, i32 } %84, 0
  store i8* %85, i8** %12, align 8
  %86 = extractvalue { i8*, i32 } %84, 1
  store i32 %86, i32* %13, align 4
  br label %119

; <label>:87:                                     ; preds = %44
  %88 = landingpad { i8*, i32 }
          cleanup
  %89 = extractvalue { i8*, i32 } %88, 0
  store i8* %89, i8** %12, align 8
  %90 = extractvalue { i8*, i32 } %88, 1
  store i32 %90, i32* %13, align 4
  br label %118

; <label>:91:                                     ; preds = %47
  %92 = landingpad { i8*, i32 }
          cleanup
  %93 = extractvalue { i8*, i32 } %92, 0
  store i8* %93, i8** %12, align 8
  %94 = extractvalue { i8*, i32 } %92, 1
  store i32 %94, i32* %13, align 4
  call void @_ZNSt5dequeINSt8__detail9_StateSeqINSt7__cxx1112regex_traitsIcEEEESaIS5_EED2Ev(%"class.std::deque"* %14) #3
  br label %118

; <label>:95:                                     ; preds = %113, %112, %107, %106, %101, %100, %99, %77, %74, %73, %72, %67, %66, %57, %48
  %96 = landingpad { i8*, i32 }
          cleanup
  %97 = extractvalue { i8*, i32 } %96, 0
  store i8* %97, i8** %12, align 8
  %98 = extractvalue { i8*, i32 } %96, 1
  store i32 %98, i32* %13, align 4
  call void @_ZNSt5stackINSt8__detail9_StateSeqINSt7__cxx1112regex_traitsIcEEEESt5dequeIS5_SaIS5_EEED2Ev(%"class.std::stack"* %46) #3
  br label %118

; <label>:99:                                     ; preds = %78, %76
  invoke void @_ZNSt8__detail9_CompilerINSt7__cxx1112regex_traitsIcEEE6_M_popEv(%"class.std::__detail::_StateSeq"* sret %16, %"class.std::__detail::_Compiler"* %17)
          to label %100 unwind label %95

; <label>:100:                                    ; preds = %99
  invoke void @_ZNSt8__detail9_StateSeqINSt7__cxx1112regex_traitsIcEEE9_M_appendERKS4_(%"class.std::__detail::_StateSeq"* %15, %"class.std::__detail::_StateSeq"* dereferenceable(24) %16)
          to label %101 unwind label %95

; <label>:101:                                    ; preds = %100
  %102 = getelementptr inbounds %"class.std::__detail::_Compiler", %"class.std::__detail::_Compiler"* %17, i32 0, i32 2
  %103 = bitcast %"class.std::shared_ptr.10"* %102 to %"class.std::__shared_ptr.11"*
  %104 = call %"struct.std::__detail::_NFA"* @_ZNKSt12__shared_ptrINSt8__detail4_NFAINSt7__cxx1112regex_traitsIcEEEELN9__gnu_cxx12_Lock_policyE2EEptEv(%"class.std::__shared_ptr.11"* %103) #3
  %105 = invoke i64 @_ZNSt8__detail4_NFAINSt7__cxx1112regex_traitsIcEEE21_M_insert_subexpr_endEv(%"struct.std::__detail::_NFA"* %104)
          to label %106 unwind label %95

; <label>:106:                                    ; preds = %101
  invoke void @_ZNSt8__detail9_StateSeqINSt7__cxx1112regex_traitsIcEEE9_M_appendEl(%"class.std::__detail::_StateSeq"* %15, i64 %105)
          to label %107 unwind label %95

; <label>:107:                                    ; preds = %106
  %108 = getelementptr inbounds %"class.std::__detail::_Compiler", %"class.std::__detail::_Compiler"* %17, i32 0, i32 2
  %109 = bitcast %"class.std::shared_ptr.10"* %108 to %"class.std::__shared_ptr.11"*
  %110 = call %"struct.std::__detail::_NFA"* @_ZNKSt12__shared_ptrINSt8__detail4_NFAINSt7__cxx1112regex_traitsIcEEEELN9__gnu_cxx12_Lock_policyE2EEptEv(%"class.std::__shared_ptr.11"* %109) #3
  %111 = invoke i64 @_ZNSt8__detail4_NFAINSt7__cxx1112regex_traitsIcEEE16_M_insert_acceptEv(%"struct.std::__detail::_NFA"* %110)
          to label %112 unwind label %95

; <label>:112:                                    ; preds = %107
  invoke void @_ZNSt8__detail9_StateSeqINSt7__cxx1112regex_traitsIcEEE9_M_appendEl(%"class.std::__detail::_StateSeq"* %15, i64 %111)
          to label %113 unwind label %95

; <label>:113:                                    ; preds = %112
  %114 = getelementptr inbounds %"class.std::__detail::_Compiler", %"class.std::__detail::_Compiler"* %17, i32 0, i32 2
  %115 = bitcast %"class.std::shared_ptr.10"* %114 to %"class.std::__shared_ptr.11"*
  %116 = call %"struct.std::__detail::_NFA"* @_ZNKSt12__shared_ptrINSt8__detail4_NFAINSt7__cxx1112regex_traitsIcEEEELN9__gnu_cxx12_Lock_policyE2EEptEv(%"class.std::__shared_ptr.11"* %115) #3
  invoke void @_ZNSt8__detail4_NFAINSt7__cxx1112regex_traitsIcEEE18_M_eliminate_dummyEv(%"struct.std::__detail::_NFA"* %116)
          to label %117 unwind label %95

; <label>:117:                                    ; preds = %113
  ret void

; <label>:118:                                    ; preds = %95, %91, %87
  call void @_ZNSt7__cxx1112basic_stringIcSt11char_traitsIcESaIcEED1Ev(%"class.std::__cxx11::basic_string"* %45) #3
  call void @_ZNSt10shared_ptrINSt8__detail4_NFAINSt7__cxx1112regex_traitsIcEEEEED2Ev(%"class.std::shared_ptr.10"* %41) #3
  br label %119

; <label>:119:                                    ; preds = %118, %83
  call void @_ZNSt8__detail8_ScannerIcED2Ev(%"class.std::__detail::_Scanner"* %34) #3
  br label %120

; <label>:120:                                    ; preds = %119, %79
  %121 = load i8*, i8** %12, align 8
  %122 = load i32, i32* %13, align 4
  %123 = insertvalue { i8*, i32 } undef, i8* %121, 0
  %124 = insertvalue { i8*, i32 } %123, i32 %122, 1
  resume { i8*, i32 } %124
}

; Function Attrs: noinline nounwind uwtable
define linkonce_odr void @_ZNSt8__detail9_CompilerINSt7__cxx1112regex_traitsIcEEE10_M_get_nfaEv(%"class.std::shared_ptr"* noalias sret, %"class.std::__detail::_Compiler"*) #5 comdat align 2 {
  %3 = alloca %"class.std::__detail::_Compiler"*, align 8
  store %"class.std::__detail::_Compiler"* %1, %"class.std::__detail::_Compiler"** %3, align 8
  %4 = load %"class.std::__detail::_Compiler"*, %"class.std::__detail::_Compiler"** %3, align 8
  %5 = getelementptr inbounds %"class.std::__detail::_Compiler", %"class.std::__detail::_Compiler"* %4, i32 0, i32 2
  %6 = call dereferenceable(16) %"class.std::shared_ptr.10"* @_ZSt4moveIRSt10shared_ptrINSt8__detail4_NFAINSt7__cxx1112regex_traitsIcEEEEEEONSt16remove_referenceIT_E4typeEOSA_(%"class.std::shared_ptr.10"* dereferenceable(16) %5) #3
  call void @_ZNSt10shared_ptrIKNSt8__detail4_NFAINSt7__cxx1112regex_traitsIcEEEEEC2IS5_vEEOS_IT_E(%"class.std::shared_ptr"* %0, %"class.std::shared_ptr.10"* dereferenceable(16) %6) #3
  ret void
}

; Function Attrs: noinline nounwind uwtable
define linkonce_odr void @_ZNSt8__detail9_CompilerINSt7__cxx1112regex_traitsIcEEED2Ev(%"class.std::__detail::_Compiler"*) unnamed_addr #5 comdat align 2 {
  %2 = alloca %"class.std::__detail::_Compiler"*, align 8
  store %"class.std::__detail::_Compiler"* %0, %"class.std::__detail::_Compiler"** %2, align 8
  %3 = load %"class.std::__detail::_Compiler"*, %"class.std::__detail::_Compiler"** %2, align 8
  %4 = getelementptr inbounds %"class.std::__detail::_Compiler", %"class.std::__detail::_Compiler"* %3, i32 0, i32 4
  call void @_ZNSt5stackINSt8__detail9_StateSeqINSt7__cxx1112regex_traitsIcEEEESt5dequeIS5_SaIS5_EEED2Ev(%"class.std::stack"* %4) #3
  %5 = getelementptr inbounds %"class.std::__detail::_Compiler", %"class.std::__detail::_Compiler"* %3, i32 0, i32 3
  call void @_ZNSt7__cxx1112basic_stringIcSt11char_traitsIcESaIcEED1Ev(%"class.std::__cxx11::basic_string"* %5) #3
  %6 = getelementptr inbounds %"class.std::__detail::_Compiler", %"class.std::__detail::_Compiler"* %3, i32 0, i32 2
  call void @_ZNSt10shared_ptrINSt8__detail4_NFAINSt7__cxx1112regex_traitsIcEEEEED2Ev(%"class.std::shared_ptr.10"* %6) #3
  %7 = getelementptr inbounds %"class.std::__detail::_Compiler", %"class.std::__detail::_Compiler"* %3, i32 0, i32 1
  call void @_ZNSt8__detail8_ScannerIcED2Ev(%"class.std::__detail::_Scanner"* %7) #3
  ret void
}

; Function Attrs: noinline nounwind uwtable
define linkonce_odr i32 @_ZNSt15regex_constantsanENS_18syntax_option_typeES0_(i32, i32) #5 comdat {
  %3 = alloca i32, align 4
  %4 = alloca i32, align 4
  store i32 %0, i32* %3, align 4
  store i32 %1, i32* %4, align 4
  %5 = load i32, i32* %3, align 4
  %6 = load i32, i32* %4, align 4
  %7 = xor i32 %5, -1
  %8 = xor i32 %6, -1
  %9 = xor i32 -1972478738, -1
  %10 = or i32 %7, %8
  %11 = or i32 -1972478738, %9
  %12 = xor i32 %10, -1
  %13 = and i32 %12, %11
  %14 = and i32 %5, %6
  ret i32 %13
}

; Function Attrs: noinline nounwind uwtable
define linkonce_odr i32 @_ZNSt15regex_constantsorENS_18syntax_option_typeES0_(i32, i32) #5 comdat {
  %3 = alloca i32, align 4
  %4 = alloca i32, align 4
  store i32 %0, i32* %3, align 4
  store i32 %1, i32* %4, align 4
  %5 = load i32, i32* %3, align 4
  %6 = load i32, i32* %4, align 4
  %7 = and i32 %5, %6
  %8 = xor i32 %5, %6
  %9 = or i32 %7, %8
  %10 = or i32 %5, %6
  ret i32 %9
}

; Function Attrs: noinline uwtable
define linkonce_odr void @_ZNSt8__detail8_ScannerIcEC2EPKcS3_NSt15regex_constants18syntax_option_typeESt6locale(%"class.std::__detail::_Scanner"*, i8*, i8*, i32, %"class.std::locale"*) unnamed_addr #0 comdat align 2 personality i8* bitcast (i32 (...)* @__gxx_personality_v0 to i8*) {
  %6 = alloca %"class.std::__detail::_Scanner"*, align 8
  %7 = alloca i8*, align 8
  %8 = alloca i8*, align 8
  %9 = alloca i32, align 4
  %10 = alloca i8*
  %11 = alloca i32
  store %"class.std::__detail::_Scanner"* %0, %"class.std::__detail::_Scanner"** %6, align 8
  store i8* %1, i8** %7, align 8
  store i8* %2, i8** %8, align 8
  store i32 %3, i32* %9, align 4
  %12 = load %"class.std::__detail::_Scanner"*, %"class.std::__detail::_Scanner"** %6, align 8
  %13 = bitcast %"class.std::__detail::_Scanner"* %12 to %"struct.std::__detail::_ScannerBase"*
  %14 = load i32, i32* %9, align 4
  call void @_ZNSt8__detail12_ScannerBaseC2ENSt15regex_constants18syntax_option_typeE(%"struct.std::__detail::_ScannerBase"* %13, i32 %14)
  %15 = getelementptr inbounds %"class.std::__detail::_Scanner", %"class.std::__detail::_Scanner"* %12, i32 0, i32 1
  %16 = load i8*, i8** %7, align 8
  store i8* %16, i8** %15, align 8
  %17 = getelementptr inbounds %"class.std::__detail::_Scanner", %"class.std::__detail::_Scanner"* %12, i32 0, i32 2
  %18 = load i8*, i8** %8, align 8
  store i8* %18, i8** %17, align 8
  %19 = getelementptr inbounds %"class.std::__detail::_Scanner", %"class.std::__detail::_Scanner"* %12, i32 0, i32 3
  %20 = call dereferenceable(576) %"class.std::ctype"* @_ZSt9use_facetIKSt5ctypeIcEERKT_RKSt6locale(%"class.std::locale"* dereferenceable(8) %4)
  store %"class.std::ctype"* %20, %"class.std::ctype"** %19, align 8
  %21 = getelementptr inbounds %"class.std::__detail::_Scanner", %"class.std::__detail::_Scanner"* %12, i32 0, i32 4
  call void @_ZNSt7__cxx1112basic_stringIcSt11char_traitsIcESaIcEEC1Ev(%"class.std::__cxx11::basic_string"* %21) #3
  %22 = getelementptr inbounds %"class.std::__detail::_Scanner", %"class.std::__detail::_Scanner"* %12, i32 0, i32 5
  %23 = bitcast %"class.std::__detail::_Scanner"* %12 to %"struct.std::__detail::_ScannerBase"*
  %24 = invoke zeroext i1 @_ZNKSt8__detail12_ScannerBase10_M_is_ecmaEv(%"struct.std::__detail::_ScannerBase"* %23)
          to label %25 unwind label %28

; <label>:25:                                     ; preds = %5
  %26 = select i1 %24, { i64, i64 } { i64 ptrtoint (void (%"class.std::__detail::_Scanner"*)* @_ZNSt8__detail8_ScannerIcE18_M_eat_escape_ecmaEv to i64), i64 0 }, { i64, i64 } { i64 ptrtoint (void (%"class.std::__detail::_Scanner"*)* @_ZNSt8__detail8_ScannerIcE19_M_eat_escape_posixEv to i64), i64 0 }
  store { i64, i64 } %26, { i64, i64 }* %22, align 8
  invoke void @_ZNSt8__detail8_ScannerIcE10_M_advanceEv(%"class.std::__detail::_Scanner"* %12)
          to label %27 unwind label %28

; <label>:27:                                     ; preds = %25
  ret void

; <label>:28:                                     ; preds = %25, %5
  %29 = landingpad { i8*, i32 }
          cleanup
  %30 = extractvalue { i8*, i32 } %29, 0
  store i8* %30, i8** %10, align 8
  %31 = extractvalue { i8*, i32 } %29, 1
  store i32 %31, i32* %11, align 4
  call void @_ZNSt7__cxx1112basic_stringIcSt11char_traitsIcESaIcEED1Ev(%"class.std::__cxx11::basic_string"* %21) #3
  br label %32

; <label>:32:                                     ; preds = %28
  %33 = load i8*, i8** %10, align 8
  %34 = load i32, i32* %11, align 4
  %35 = insertvalue { i8*, i32 } undef, i8* %33, 0
  %36 = insertvalue { i8*, i32 } %35, i32 %34, 1
  resume { i8*, i32 } %36
}

; Function Attrs: noinline uwtable
define linkonce_odr void @_ZSt11make_sharedINSt8__detail4_NFAINSt7__cxx1112regex_traitsIcEEEEJRKSt6localeRNSt15regex_constants18syntax_option_typeEEESt10shared_ptrIT_EDpOT0_(%"class.std::shared_ptr.10"* noalias sret, %"class.std::locale"* dereferenceable(8), i32* dereferenceable(4)) #0 comdat personality i8* bitcast (i32 (...)* @__gxx_personality_v0 to i8*) {
  %4 = alloca %"class.std::locale"*, align 8
  %5 = alloca i32*, align 8
  %6 = alloca %"class.std::allocator.15", align 1
  %7 = alloca i8*
  %8 = alloca i32
  store %"class.std::locale"* %1, %"class.std::locale"** %4, align 8
  store i32* %2, i32** %5, align 8
  call void @_ZNSaINSt8__detail4_NFAINSt7__cxx1112regex_traitsIcEEEEEC2Ev(%"class.std::allocator.15"* %6) #3
  %9 = load %"class.std::locale"*, %"class.std::locale"** %4, align 8
  %10 = call dereferenceable(8) %"class.std::locale"* @_ZSt7forwardIRKSt6localeEOT_RNSt16remove_referenceIS3_E4typeE(%"class.std::locale"* dereferenceable(8) %9) #3
  %11 = load i32*, i32** %5, align 8
  %12 = call dereferenceable(4) i32* @_ZSt7forwardIRNSt15regex_constants18syntax_option_typeEEOT_RNSt16remove_referenceIS3_E4typeE(i32* dereferenceable(4) %11) #3
  invoke void @_ZSt15allocate_sharedINSt8__detail4_NFAINSt7__cxx1112regex_traitsIcEEEESaIS5_EJRKSt6localeRNSt15regex_constants18syntax_option_typeEEESt10shared_ptrIT_ERKT0_DpOT1_(%"class.std::shared_ptr.10"* sret %0, %"class.std::allocator.15"* dereferenceable(1) %6, %"class.std::locale"* dereferenceable(8) %10, i32* dereferenceable(4) %12)
          to label %13 unwind label %14

; <label>:13:                                     ; preds = %3
  call void @_ZNSaINSt8__detail4_NFAINSt7__cxx1112regex_traitsIcEEEEED2Ev(%"class.std::allocator.15"* %6) #3
  ret void

; <label>:14:                                     ; preds = %3
  %15 = landingpad { i8*, i32 }
          cleanup
  %16 = extractvalue { i8*, i32 } %15, 0
  store i8* %16, i8** %7, align 8
  %17 = extractvalue { i8*, i32 } %15, 1
  store i32 %17, i32* %8, align 4
  call void @_ZNSaINSt8__detail4_NFAINSt7__cxx1112regex_traitsIcEEEEED2Ev(%"class.std::allocator.15"* %6) #3
  br label %18

; <label>:18:                                     ; preds = %14
  %19 = load i8*, i8** %7, align 8
  %20 = load i32, i32* %8, align 4
  %21 = insertvalue { i8*, i32 } undef, i8* %19, 0
  %22 = insertvalue { i8*, i32 } %21, i32 %20, 1
  resume { i8*, i32 } %22
}

; Function Attrs: noinline uwtable
define linkonce_odr void @_ZNSt5dequeINSt8__detail9_StateSeqINSt7__cxx1112regex_traitsIcEEEESaIS5_EEC2Ev(%"class.std::deque"*) unnamed_addr #0 comdat align 2 {
  %2 = alloca %"class.std::deque"*, align 8
  store %"class.std::deque"* %0, %"class.std::deque"** %2, align 8
  %3 = load %"class.std::deque"*, %"class.std::deque"** %2, align 8
  %4 = bitcast %"class.std::deque"* %3 to %"class.std::_Deque_base"*
  call void @_ZNSt11_Deque_baseINSt8__detail9_StateSeqINSt7__cxx1112regex_traitsIcEEEESaIS5_EEC2Ev(%"class.std::_Deque_base"* %4)
  ret void
}

; Function Attrs: noinline uwtable
define linkonce_odr void @_ZNSt5stackINSt8__detail9_StateSeqINSt7__cxx1112regex_traitsIcEEEESt5dequeIS5_SaIS5_EEEC2EOS8_(%"class.std::stack"*, %"class.std::deque"* dereferenceable(80)) unnamed_addr #0 comdat align 2 {
  %3 = alloca %"class.std::stack"*, align 8
  %4 = alloca %"class.std::deque"*, align 8
  store %"class.std::stack"* %0, %"class.std::stack"** %3, align 8
  store %"class.std::deque"* %1, %"class.std::deque"** %4, align 8
  %5 = load %"class.std::stack"*, %"class.std::stack"** %3, align 8
  %6 = getelementptr inbounds %"class.std::stack", %"class.std::stack"* %5, i32 0, i32 0
  %7 = load %"class.std::deque"*, %"class.std::deque"** %4, align 8
  %8 = call dereferenceable(80) %"class.std::deque"* @_ZSt4moveIRSt5dequeINSt8__detail9_StateSeqINSt7__cxx1112regex_traitsIcEEEESaIS6_EEEONSt16remove_referenceIT_E4typeEOSB_(%"class.std::deque"* dereferenceable(80) %7) #3
  call void @_ZNSt5dequeINSt8__detail9_StateSeqINSt7__cxx1112regex_traitsIcEEEESaIS5_EEC2EOS7_(%"class.std::deque"* %6, %"class.std::deque"* dereferenceable(80) %8)
  ret void
}

; Function Attrs: noinline nounwind uwtable
define linkonce_odr void @_ZNSt5dequeINSt8__detail9_StateSeqINSt7__cxx1112regex_traitsIcEEEESaIS5_EED2Ev(%"class.std::deque"*) unnamed_addr #5 comdat align 2 personality i8* bitcast (i32 (...)* @__gxx_personality_v0 to i8*) {
  %2 = alloca %"class.std::deque"*, align 8
  %3 = alloca %"struct.std::_Deque_iterator", align 8
  %4 = alloca %"struct.std::_Deque_iterator", align 8
  %5 = alloca i8*
  %6 = alloca i32
  store %"class.std::deque"* %0, %"class.std::deque"** %2, align 8
  %7 = load %"class.std::deque"*, %"class.std::deque"** %2, align 8
  call void @_ZNSt5dequeINSt8__detail9_StateSeqINSt7__cxx1112regex_traitsIcEEEESaIS5_EE5beginEv(%"struct.std::_Deque_iterator"* sret %3, %"class.std::deque"* %7) #3
  call void @_ZNSt5dequeINSt8__detail9_StateSeqINSt7__cxx1112regex_traitsIcEEEESaIS5_EE3endEv(%"struct.std::_Deque_iterator"* sret %4, %"class.std::deque"* %7) #3
  %8 = bitcast %"class.std::deque"* %7 to %"class.std::_Deque_base"*
  %9 = call dereferenceable(1) %"class.std::allocator.12"* @_ZNSt11_Deque_baseINSt8__detail9_StateSeqINSt7__cxx1112regex_traitsIcEEEESaIS5_EE19_M_get_Tp_allocatorEv(%"class.std::_Deque_base"* %8) #3
  invoke void @_ZNSt5dequeINSt8__detail9_StateSeqINSt7__cxx1112regex_traitsIcEEEESaIS5_EE15_M_destroy_dataESt15_Deque_iteratorIS5_RS5_PS5_ESB_RKS6_(%"class.std::deque"* %7, %"struct.std::_Deque_iterator"* %3, %"struct.std::_Deque_iterator"* %4, %"class.std::allocator.12"* dereferenceable(1) %9)
          to label %10 unwind label %12

; <label>:10:                                     ; preds = %1
  %11 = bitcast %"class.std::deque"* %7 to %"class.std::_Deque_base"*
  call void @_ZNSt11_Deque_baseINSt8__detail9_StateSeqINSt7__cxx1112regex_traitsIcEEEESaIS5_EED2Ev(%"class.std::_Deque_base"* %11) #3
  ret void

; <label>:12:                                     ; preds = %1
  %13 = landingpad { i8*, i32 }
          catch i8* null
  %14 = extractvalue { i8*, i32 } %13, 0
  store i8* %14, i8** %5, align 8
  %15 = extractvalue { i8*, i32 } %13, 1
  store i32 %15, i32* %6, align 4
  %16 = bitcast %"class.std::deque"* %7 to %"class.std::_Deque_base"*
  call void @_ZNSt11_Deque_baseINSt8__detail9_StateSeqINSt7__cxx1112regex_traitsIcEEEESaIS5_EED2Ev(%"class.std::_Deque_base"* %16) #3
  br label %17

; <label>:17:                                     ; preds = %12
  %18 = load i8*, i8** %5, align 8
  call void @__clang_call_terminate(i8* %18) #13
  unreachable
}

; Function Attrs: noinline nounwind uwtable
define linkonce_odr %"struct.std::__detail::_NFA"* @_ZNKSt12__shared_ptrINSt8__detail4_NFAINSt7__cxx1112regex_traitsIcEEEELN9__gnu_cxx12_Lock_policyE2EEptEv(%"class.std::__shared_ptr.11"*) #5 comdat align 2 {
  %2 = alloca %"class.std::__shared_ptr.11"*, align 8
  store %"class.std::__shared_ptr.11"* %0, %"class.std::__shared_ptr.11"** %2, align 8
  %3 = load %"class.std::__shared_ptr.11"*, %"class.std::__shared_ptr.11"** %2, align 8
  %4 = getelementptr inbounds %"class.std::__shared_ptr.11", %"class.std::__shared_ptr.11"* %3, i32 0, i32 0
  %5 = load %"struct.std::__detail::_NFA"*, %"struct.std::__detail::_NFA"** %4, align 8
  ret %"struct.std::__detail::_NFA"* %5
}

declare dereferenceable(576) %"class.std::ctype"* @_ZSt9use_facetISt5ctypeIcEERKT_RKSt6locale(%"class.std::locale"* dereferenceable(8)) #1

; Function Attrs: noinline nounwind uwtable
define linkonce_odr dereferenceable(88) %"struct.std::__detail::_NFA"* @_ZNKSt12__shared_ptrINSt8__detail4_NFAINSt7__cxx1112regex_traitsIcEEEELN9__gnu_cxx12_Lock_policyE2EEdeEv(%"class.std::__shared_ptr.11"*) #5 comdat align 2 {
  %2 = alloca %"class.std::__shared_ptr.11"*, align 8
  store %"class.std::__shared_ptr.11"* %0, %"class.std::__shared_ptr.11"** %2, align 8
  %3 = load %"class.std::__shared_ptr.11"*, %"class.std::__shared_ptr.11"** %2, align 8
  %4 = getelementptr inbounds %"class.std::__shared_ptr.11", %"class.std::__shared_ptr.11"* %3, i32 0, i32 0
  %5 = load %"struct.std::__detail::_NFA"*, %"struct.std::__detail::_NFA"** %4, align 8
  ret %"struct.std::__detail::_NFA"* %5
}

; Function Attrs: noinline nounwind uwtable
define linkonce_odr i64 @_ZNKSt8__detail9_NFA_base8_M_startEv(%"struct.std::__detail::_NFA_base"*) #5 comdat align 2 {
  %2 = alloca %"struct.std::__detail::_NFA_base"*, align 8
  store %"struct.std::__detail::_NFA_base"* %0, %"struct.std::__detail::_NFA_base"** %2, align 8
  %3 = load %"struct.std::__detail::_NFA_base"*, %"struct.std::__detail::_NFA_base"** %2, align 8
  %4 = getelementptr inbounds %"struct.std::__detail::_NFA_base", %"struct.std::__detail::_NFA_base"* %3, i32 0, i32 3
  %5 = load i64, i64* %4, align 8
  ret i64 %5
}

; Function Attrs: noinline nounwind uwtable
define linkonce_odr void @_ZNSt8__detail9_StateSeqINSt7__cxx1112regex_traitsIcEEEC2ERNS_4_NFAIS3_EEl(%"class.std::__detail::_StateSeq"*, %"struct.std::__detail::_NFA"* dereferenceable(88), i64) unnamed_addr #5 comdat align 2 {
  %4 = alloca %"class.std::__detail::_StateSeq"*, align 8
  %5 = alloca %"struct.std::__detail::_NFA"*, align 8
  %6 = alloca i64, align 8
  store %"class.std::__detail::_StateSeq"* %0, %"class.std::__detail::_StateSeq"** %4, align 8
  store %"struct.std::__detail::_NFA"* %1, %"struct.std::__detail::_NFA"** %5, align 8
  store i64 %2, i64* %6, align 8
  %7 = load %"class.std::__detail::_StateSeq"*, %"class.std::__detail::_StateSeq"** %4, align 8
  %8 = getelementptr inbounds %"class.std::__detail::_StateSeq", %"class.std::__detail::_StateSeq"* %7, i32 0, i32 0
  %9 = load %"struct.std::__detail::_NFA"*, %"struct.std::__detail::_NFA"** %5, align 8
  store %"struct.std::__detail::_NFA"* %9, %"struct.std::__detail::_NFA"** %8, align 8
  %10 = getelementptr inbounds %"class.std::__detail::_StateSeq", %"class.std::__detail::_StateSeq"* %7, i32 0, i32 1
  %11 = load i64, i64* %6, align 8
  store i64 %11, i64* %10, align 8
  %12 = getelementptr inbounds %"class.std::__detail::_StateSeq", %"class.std::__detail::_StateSeq"* %7, i32 0, i32 2
  %13 = load i64, i64* %6, align 8
  store i64 %13, i64* %12, align 8
  ret void
}

; Function Attrs: noinline nounwind uwtable
define linkonce_odr void @_ZNSt8__detail9_StateSeqINSt7__cxx1112regex_traitsIcEEE9_M_appendEl(%"class.std::__detail::_StateSeq"*, i64) #5 comdat align 2 {
  %3 = alloca %"class.std::__detail::_StateSeq"*, align 8
  %4 = alloca i64, align 8
  store %"class.std::__detail::_StateSeq"* %0, %"class.std::__detail::_StateSeq"** %3, align 8
  store i64 %1, i64* %4, align 8
  %5 = load %"class.std::__detail::_StateSeq"*, %"class.std::__detail::_StateSeq"** %3, align 8
  %6 = load i64, i64* %4, align 8
  %7 = getelementptr inbounds %"class.std::__detail::_StateSeq", %"class.std::__detail::_StateSeq"* %5, i32 0, i32 0
  %8 = load %"struct.std::__detail::_NFA"*, %"struct.std::__detail::_NFA"** %7, align 8
  %9 = bitcast %"struct.std::__detail::_NFA"* %8 to i8*
  %10 = getelementptr inbounds i8, i8* %9, i64 56
  %11 = bitcast i8* %10 to %"class.std::vector.3"*
  %12 = getelementptr inbounds %"class.std::__detail::_StateSeq", %"class.std::__detail::_StateSeq"* %5, i32 0, i32 2
  %13 = load i64, i64* %12, align 8
  %14 = call dereferenceable(64) %"struct.std::__detail::_State"* @_ZNSt6vectorINSt8__detail6_StateINSt7__cxx1112regex_traitsIcEEEESaIS5_EEixEm(%"class.std::vector.3"* %11, i64 %13) #3
  %15 = bitcast %"struct.std::__detail::_State"* %14 to %"struct.std::__detail::_State_base"*
  %16 = getelementptr inbounds %"struct.std::__detail::_State_base", %"struct.std::__detail::_State_base"* %15, i32 0, i32 1
  store i64 %6, i64* %16, align 8
  %17 = load i64, i64* %4, align 8
  %18 = getelementptr inbounds %"class.std::__detail::_StateSeq", %"class.std::__detail::_StateSeq"* %5, i32 0, i32 2
  store i64 %17, i64* %18, align 8
  ret void
}

; Function Attrs: noinline uwtable
define linkonce_odr i64 @_ZNSt8__detail4_NFAINSt7__cxx1112regex_traitsIcEEE23_M_insert_subexpr_beginEv(%"struct.std::__detail::_NFA"*) #0 comdat align 2 personality i8* bitcast (i32 (...)* @__gxx_personality_v0 to i8*) {
  %2 = alloca %"struct.std::__detail::_NFA"*, align 8
  %3 = alloca i64, align 8
  %4 = alloca %"struct.std::__detail::_State", align 8
  %5 = alloca %"struct.std::__detail::_State", align 8
  %6 = alloca i8*
  %7 = alloca i32
  store %"struct.std::__detail::_NFA"* %0, %"struct.std::__detail::_NFA"** %2, align 8
  %8 = load %"struct.std::__detail::_NFA"*, %"struct.std::__detail::_NFA"** %2, align 8
  %9 = bitcast %"struct.std::__detail::_NFA"* %8 to %"struct.std::__detail::_NFA_base"*
  %10 = getelementptr inbounds %"struct.std::__detail::_NFA_base", %"struct.std::__detail::_NFA_base"* %9, i32 0, i32 4
  %11 = load i64, i64* %10, align 8
  %12 = sub i64 %11, -819657769350777998
  %13 = add i64 %12, 1
  %14 = add i64 %13, -819657769350777998
  %15 = add i64 %11, 1
  store i64 %14, i64* %10, align 8
  store i64 %11, i64* %3, align 8
  %16 = bitcast %"struct.std::__detail::_NFA"* %8 to %"struct.std::__detail::_NFA_base"*
  %17 = getelementptr inbounds %"struct.std::__detail::_NFA_base", %"struct.std::__detail::_NFA_base"* %16, i32 0, i32 0
  call void @_ZNSt6vectorImSaImEE9push_backERKm(%"class.std::vector"* %17, i64* dereferenceable(8) %3)
  call void @_ZNSt8__detail6_StateINSt7__cxx1112regex_traitsIcEEEC2ENS_7_OpcodeE(%"struct.std::__detail::_State"* %4, i32 8)
  %18 = load i64, i64* %3, align 8
  %19 = bitcast %"struct.std::__detail::_State"* %4 to %"struct.std::__detail::_State_base"*
  %20 = getelementptr inbounds %"struct.std::__detail::_State_base", %"struct.std::__detail::_State_base"* %19, i32 0, i32 2
  %21 = bitcast %union.anon.8* %20 to i64*
  store i64 %18, i64* %21, align 8
  %22 = call dereferenceable(64) %"struct.std::__detail::_State"* @_ZSt4moveIRNSt8__detail6_StateINSt7__cxx1112regex_traitsIcEEEEEONSt16remove_referenceIT_E4typeEOS8_(%"struct.std::__detail::_State"* dereferenceable(64) %4) #3
  invoke void @_ZNSt8__detail6_StateINSt7__cxx1112regex_traitsIcEEEC2EOS4_(%"struct.std::__detail::_State"* %5, %"struct.std::__detail::_State"* dereferenceable(64) %22)
          to label %23 unwind label %26

; <label>:23:                                     ; preds = %1
  %24 = invoke i64 @_ZNSt8__detail4_NFAINSt7__cxx1112regex_traitsIcEEE15_M_insert_stateENS_6_StateIS3_EE(%"struct.std::__detail::_NFA"* %8, %"struct.std::__detail::_State"* %5)
          to label %25 unwind label %30

; <label>:25:                                     ; preds = %23
  call void @_ZNSt8__detail6_StateINSt7__cxx1112regex_traitsIcEEED2Ev(%"struct.std::__detail::_State"* %5) #3
  call void @_ZNSt8__detail6_StateINSt7__cxx1112regex_traitsIcEEED2Ev(%"struct.std::__detail::_State"* %4) #3
  ret i64 %24

; <label>:26:                                     ; preds = %1
  %27 = landingpad { i8*, i32 }
          cleanup
  %28 = extractvalue { i8*, i32 } %27, 0
  store i8* %28, i8** %6, align 8
  %29 = extractvalue { i8*, i32 } %27, 1
  store i32 %29, i32* %7, align 4
  br label %34

; <label>:30:                                     ; preds = %23
  %31 = landingpad { i8*, i32 }
          cleanup
  %32 = extractvalue { i8*, i32 } %31, 0
  store i8* %32, i8** %6, align 8
  %33 = extractvalue { i8*, i32 } %31, 1
  store i32 %33, i32* %7, align 4
  call void @_ZNSt8__detail6_StateINSt7__cxx1112regex_traitsIcEEED2Ev(%"struct.std::__detail::_State"* %5) #3
  br label %34

; <label>:34:                                     ; preds = %30, %26
  call void @_ZNSt8__detail6_StateINSt7__cxx1112regex_traitsIcEEED2Ev(%"struct.std::__detail::_State"* %4) #3
  br label %35

; <label>:35:                                     ; preds = %34
  %36 = load i8*, i8** %6, align 8
  %37 = load i32, i32* %7, align 4
  %38 = insertvalue { i8*, i32 } undef, i8* %36, 0
  %39 = insertvalue { i8*, i32 } %38, i32 %37, 1
  resume { i8*, i32 } %39
}

; Function Attrs: noinline uwtable
define linkonce_odr void @_ZNSt8__detail9_CompilerINSt7__cxx1112regex_traitsIcEEE14_M_disjunctionEv(%"class.std::__detail::_Compiler"*) #0 comdat align 2 {
  %2 = alloca %"class.std::__detail::_Compiler"*, align 8
  %3 = alloca %"class.std::__detail::_StateSeq", align 8
  %4 = alloca %"class.std::__detail::_StateSeq", align 8
  %5 = alloca i64, align 8
  %6 = alloca %"class.std::__detail::_StateSeq", align 8
  store %"class.std::__detail::_Compiler"* %0, %"class.std::__detail::_Compiler"** %2, align 8
  %7 = load %"class.std::__detail::_Compiler"*, %"class.std::__detail::_Compiler"** %2, align 8
  call void @_ZNSt8__detail9_CompilerINSt7__cxx1112regex_traitsIcEEE14_M_alternativeEv(%"class.std::__detail::_Compiler"* %7)
  br label %8

; <label>:8:                                      ; preds = %10, %1
  %9 = call zeroext i1 @_ZNSt8__detail9_CompilerINSt7__cxx1112regex_traitsIcEEE14_M_match_tokenENS_12_ScannerBase7_TokenTE(%"class.std::__detail::_Compiler"* %7, i32 19)
  br i1 %9, label %10, label %30

; <label>:10:                                     ; preds = %8
  call void @_ZNSt8__detail9_CompilerINSt7__cxx1112regex_traitsIcEEE6_M_popEv(%"class.std::__detail::_StateSeq"* sret %3, %"class.std::__detail::_Compiler"* %7)
  call void @_ZNSt8__detail9_CompilerINSt7__cxx1112regex_traitsIcEEE14_M_alternativeEv(%"class.std::__detail::_Compiler"* %7)
  call void @_ZNSt8__detail9_CompilerINSt7__cxx1112regex_traitsIcEEE6_M_popEv(%"class.std::__detail::_StateSeq"* sret %4, %"class.std::__detail::_Compiler"* %7)
  %11 = getelementptr inbounds %"class.std::__detail::_Compiler", %"class.std::__detail::_Compiler"* %7, i32 0, i32 2
  %12 = bitcast %"class.std::shared_ptr.10"* %11 to %"class.std::__shared_ptr.11"*
  %13 = call %"struct.std::__detail::_NFA"* @_ZNKSt12__shared_ptrINSt8__detail4_NFAINSt7__cxx1112regex_traitsIcEEEELN9__gnu_cxx12_Lock_policyE2EEptEv(%"class.std::__shared_ptr.11"* %12) #3
  %14 = call i64 @_ZNSt8__detail4_NFAINSt7__cxx1112regex_traitsIcEEE15_M_insert_dummyEv(%"struct.std::__detail::_NFA"* %13)
  store i64 %14, i64* %5, align 8
  %15 = load i64, i64* %5, align 8
  call void @_ZNSt8__detail9_StateSeqINSt7__cxx1112regex_traitsIcEEE9_M_appendEl(%"class.std::__detail::_StateSeq"* %3, i64 %15)
  %16 = load i64, i64* %5, align 8
  call void @_ZNSt8__detail9_StateSeqINSt7__cxx1112regex_traitsIcEEE9_M_appendEl(%"class.std::__detail::_StateSeq"* %4, i64 %16)
  %17 = getelementptr inbounds %"class.std::__detail::_Compiler", %"class.std::__detail::_Compiler"* %7, i32 0, i32 4
  %18 = getelementptr inbounds %"class.std::__detail::_Compiler", %"class.std::__detail::_Compiler"* %7, i32 0, i32 2
  %19 = bitcast %"class.std::shared_ptr.10"* %18 to %"class.std::__shared_ptr.11"*
  %20 = call dereferenceable(88) %"struct.std::__detail::_NFA"* @_ZNKSt12__shared_ptrINSt8__detail4_NFAINSt7__cxx1112regex_traitsIcEEEELN9__gnu_cxx12_Lock_policyE2EEdeEv(%"class.std::__shared_ptr.11"* %19) #3
  %21 = getelementptr inbounds %"class.std::__detail::_Compiler", %"class.std::__detail::_Compiler"* %7, i32 0, i32 2
  %22 = bitcast %"class.std::shared_ptr.10"* %21 to %"class.std::__shared_ptr.11"*
  %23 = call %"struct.std::__detail::_NFA"* @_ZNKSt12__shared_ptrINSt8__detail4_NFAINSt7__cxx1112regex_traitsIcEEEELN9__gnu_cxx12_Lock_policyE2EEptEv(%"class.std::__shared_ptr.11"* %22) #3
  %24 = getelementptr inbounds %"class.std::__detail::_StateSeq", %"class.std::__detail::_StateSeq"* %4, i32 0, i32 1
  %25 = load i64, i64* %24, align 8
  %26 = getelementptr inbounds %"class.std::__detail::_StateSeq", %"class.std::__detail::_StateSeq"* %3, i32 0, i32 1
  %27 = load i64, i64* %26, align 8
  %28 = call i64 @_ZNSt8__detail4_NFAINSt7__cxx1112regex_traitsIcEEE13_M_insert_altEllb(%"struct.std::__detail::_NFA"* %23, i64 %25, i64 %27, i1 zeroext false)
  %29 = load i64, i64* %5, align 8
  call void @_ZNSt8__detail9_StateSeqINSt7__cxx1112regex_traitsIcEEEC2ERNS_4_NFAIS3_EEll(%"class.std::__detail::_StateSeq"* %6, %"struct.std::__detail::_NFA"* dereferenceable(88) %20, i64 %28, i64 %29)
  call void @_ZNSt5stackINSt8__detail9_StateSeqINSt7__cxx1112regex_traitsIcEEEESt5dequeIS5_SaIS5_EEE4pushEOS5_(%"class.std::stack"* %17, %"class.std::__detail::_StateSeq"* dereferenceable(24) %6)
  br label %8

; <label>:30:                                     ; preds = %8
  ret void
}

; Function Attrs: noinline uwtable
define linkonce_odr zeroext i1 @_ZNSt8__detail9_CompilerINSt7__cxx1112regex_traitsIcEEE14_M_match_tokenENS_12_ScannerBase7_TokenTE(%"class.std::__detail::_Compiler"*, i32) #0 comdat align 2 {
  %3 = alloca i1, align 1
  %4 = alloca %"class.std::__detail::_Compiler"*, align 8
  %5 = alloca i32, align 4
  store %"class.std::__detail::_Compiler"* %0, %"class.std::__detail::_Compiler"** %4, align 8
  store i32 %1, i32* %5, align 4
  %6 = load %"class.std::__detail::_Compiler"*, %"class.std::__detail::_Compiler"** %4, align 8
  %7 = load i32, i32* %5, align 4
  %8 = getelementptr inbounds %"class.std::__detail::_Compiler", %"class.std::__detail::_Compiler"* %6, i32 0, i32 1
  %9 = call i32 @_ZNKSt8__detail8_ScannerIcE12_M_get_tokenEv(%"class.std::__detail::_Scanner"* %8)
  %10 = icmp eq i32 %7, %9
  br i1 %10, label %11, label %17

; <label>:11:                                     ; preds = %2
  %12 = getelementptr inbounds %"class.std::__detail::_Compiler", %"class.std::__detail::_Compiler"* %6, i32 0, i32 1
  %13 = call dereferenceable(32) %"class.std::__cxx11::basic_string"* @_ZNKSt8__detail8_ScannerIcE12_M_get_valueB5cxx11Ev(%"class.std::__detail::_Scanner"* %12)
  %14 = getelementptr inbounds %"class.std::__detail::_Compiler", %"class.std::__detail::_Compiler"* %6, i32 0, i32 3
  %15 = call dereferenceable(32) %"class.std::__cxx11::basic_string"* @_ZNSt7__cxx1112basic_stringIcSt11char_traitsIcESaIcEEaSERKS4_(%"class.std::__cxx11::basic_string"* %14, %"class.std::__cxx11::basic_string"* dereferenceable(32) %13)
  %16 = getelementptr inbounds %"class.std::__detail::_Compiler", %"class.std::__detail::_Compiler"* %6, i32 0, i32 1
  call void @_ZNSt8__detail8_ScannerIcE10_M_advanceEv(%"class.std::__detail::_Scanner"* %16)
  store i1 true, i1* %3, align 1
  br label %18

; <label>:17:                                     ; preds = %2
  store i1 false, i1* %3, align 1
  br label %18

; <label>:18:                                     ; preds = %17, %11
  %19 = load i1, i1* %3, align 1
  ret i1 %19
}

declare void @_ZSt19__throw_regex_errorNSt15regex_constants10error_typeE(i32) #1

; Function Attrs: noinline nounwind uwtable
define linkonce_odr void @_ZNSt8__detail9_StateSeqINSt7__cxx1112regex_traitsIcEEE9_M_appendERKS4_(%"class.std::__detail::_StateSeq"*, %"class.std::__detail::_StateSeq"* dereferenceable(24)) #5 comdat align 2 {
  %3 = alloca %"class.std::__detail::_StateSeq"*, align 8
  %4 = alloca %"class.std::__detail::_StateSeq"*, align 8
  store %"class.std::__detail::_StateSeq"* %0, %"class.std::__detail::_StateSeq"** %3, align 8
  store %"class.std::__detail::_StateSeq"* %1, %"class.std::__detail::_StateSeq"** %4, align 8
  %5 = load %"class.std::__detail::_StateSeq"*, %"class.std::__detail::_StateSeq"** %3, align 8
  %6 = load %"class.std::__detail::_StateSeq"*, %"class.std::__detail::_StateSeq"** %4, align 8
  %7 = getelementptr inbounds %"class.std::__detail::_StateSeq", %"class.std::__detail::_StateSeq"* %6, i32 0, i32 1
  %8 = load i64, i64* %7, align 8
  %9 = getelementptr inbounds %"class.std::__detail::_StateSeq", %"class.std::__detail::_StateSeq"* %5, i32 0, i32 0
  %10 = load %"struct.std::__detail::_NFA"*, %"struct.std::__detail::_NFA"** %9, align 8
  %11 = bitcast %"struct.std::__detail::_NFA"* %10 to i8*
  %12 = getelementptr inbounds i8, i8* %11, i64 56
  %13 = bitcast i8* %12 to %"class.std::vector.3"*
  %14 = getelementptr inbounds %"class.std::__detail::_StateSeq", %"class.std::__detail::_StateSeq"* %5, i32 0, i32 2
  %15 = load i64, i64* %14, align 8
  %16 = call dereferenceable(64) %"struct.std::__detail::_State"* @_ZNSt6vectorINSt8__detail6_StateINSt7__cxx1112regex_traitsIcEEEESaIS5_EEixEm(%"class.std::vector.3"* %13, i64 %15) #3
  %17 = bitcast %"struct.std::__detail::_State"* %16 to %"struct.std::__detail::_State_base"*
  %18 = getelementptr inbounds %"struct.std::__detail::_State_base", %"struct.std::__detail::_State_base"* %17, i32 0, i32 1
  store i64 %8, i64* %18, align 8
  %19 = load %"class.std::__detail::_StateSeq"*, %"class.std::__detail::_StateSeq"** %4, align 8
  %20 = getelementptr inbounds %"class.std::__detail::_StateSeq", %"class.std::__detail::_StateSeq"* %19, i32 0, i32 2
  %21 = load i64, i64* %20, align 8
  %22 = getelementptr inbounds %"class.std::__detail::_StateSeq", %"class.std::__detail::_StateSeq"* %5, i32 0, i32 2
  store i64 %21, i64* %22, align 8
  ret void
}

; Function Attrs: noinline uwtable
define linkonce_odr void @_ZNSt8__detail9_CompilerINSt7__cxx1112regex_traitsIcEEE6_M_popEv(%"class.std::__detail::_StateSeq"* noalias sret, %"class.std::__detail::_Compiler"*) #0 comdat align 2 {
  %3 = alloca %"class.std::__detail::_Compiler"*, align 8
  store %"class.std::__detail::_Compiler"* %1, %"class.std::__detail::_Compiler"** %3, align 8
  %4 = load %"class.std::__detail::_Compiler"*, %"class.std::__detail::_Compiler"** %3, align 8
  %5 = getelementptr inbounds %"class.std::__detail::_Compiler", %"class.std::__detail::_Compiler"* %4, i32 0, i32 4
  %6 = call dereferenceable(24) %"class.std::__detail::_StateSeq"* @_ZNSt5stackINSt8__detail9_StateSeqINSt7__cxx1112regex_traitsIcEEEESt5dequeIS5_SaIS5_EEE3topEv(%"class.std::stack"* %5)
  %7 = bitcast %"class.std::__detail::_StateSeq"* %0 to i8*
  %8 = bitcast %"class.std::__detail::_StateSeq"* %6 to i8*
  call void @llvm.memcpy.p0i8.p0i8.i64(i8* %7, i8* %8, i64 24, i32 8, i1 false)
  %9 = getelementptr inbounds %"class.std::__detail::_Compiler", %"class.std::__detail::_Compiler"* %4, i32 0, i32 4
  call void @_ZNSt5stackINSt8__detail9_StateSeqINSt7__cxx1112regex_traitsIcEEEESt5dequeIS5_SaIS5_EEE3popEv(%"class.std::stack"* %9)
  ret void
}

; Function Attrs: noinline uwtable
define linkonce_odr i64 @_ZNSt8__detail4_NFAINSt7__cxx1112regex_traitsIcEEE21_M_insert_subexpr_endEv(%"struct.std::__detail::_NFA"*) #0 comdat align 2 personality i8* bitcast (i32 (...)* @__gxx_personality_v0 to i8*) {
  %2 = alloca %"struct.std::__detail::_NFA"*, align 8
  %3 = alloca %"struct.std::__detail::_State", align 8
  %4 = alloca %"struct.std::__detail::_State", align 8
  %5 = alloca i8*
  %6 = alloca i32
  store %"struct.std::__detail::_NFA"* %0, %"struct.std::__detail::_NFA"** %2, align 8
  %7 = load %"struct.std::__detail::_NFA"*, %"struct.std::__detail::_NFA"** %2, align 8
  call void @_ZNSt8__detail6_StateINSt7__cxx1112regex_traitsIcEEEC2ENS_7_OpcodeE(%"struct.std::__detail::_State"* %3, i32 9)
  %8 = bitcast %"struct.std::__detail::_NFA"* %7 to %"struct.std::__detail::_NFA_base"*
  %9 = getelementptr inbounds %"struct.std::__detail::_NFA_base", %"struct.std::__detail::_NFA_base"* %8, i32 0, i32 0
  %10 = call dereferenceable(8) i64* @_ZNSt6vectorImSaImEE4backEv(%"class.std::vector"* %9) #3
  %11 = load i64, i64* %10, align 8
  %12 = bitcast %"struct.std::__detail::_State"* %3 to %"struct.std::__detail::_State_base"*
  %13 = getelementptr inbounds %"struct.std::__detail::_State_base", %"struct.std::__detail::_State_base"* %12, i32 0, i32 2
  %14 = bitcast %union.anon.8* %13 to i64*
  store i64 %11, i64* %14, align 8
  %15 = bitcast %"struct.std::__detail::_NFA"* %7 to %"struct.std::__detail::_NFA_base"*
  %16 = getelementptr inbounds %"struct.std::__detail::_NFA_base", %"struct.std::__detail::_NFA_base"* %15, i32 0, i32 0
  call void @_ZNSt6vectorImSaImEE8pop_backEv(%"class.std::vector"* %16) #3
  %17 = call dereferenceable(64) %"struct.std::__detail::_State"* @_ZSt4moveIRNSt8__detail6_StateINSt7__cxx1112regex_traitsIcEEEEEONSt16remove_referenceIT_E4typeEOS8_(%"struct.std::__detail::_State"* dereferenceable(64) %3) #3
  invoke void @_ZNSt8__detail6_StateINSt7__cxx1112regex_traitsIcEEEC2EOS4_(%"struct.std::__detail::_State"* %4, %"struct.std::__detail::_State"* dereferenceable(64) %17)
          to label %18 unwind label %21

; <label>:18:                                     ; preds = %1
  %19 = invoke i64 @_ZNSt8__detail4_NFAINSt7__cxx1112regex_traitsIcEEE15_M_insert_stateENS_6_StateIS3_EE(%"struct.std::__detail::_NFA"* %7, %"struct.std::__detail::_State"* %4)
          to label %20 unwind label %25

; <label>:20:                                     ; preds = %18
  call void @_ZNSt8__detail6_StateINSt7__cxx1112regex_traitsIcEEED2Ev(%"struct.std::__detail::_State"* %4) #3
  call void @_ZNSt8__detail6_StateINSt7__cxx1112regex_traitsIcEEED2Ev(%"struct.std::__detail::_State"* %3) #3
  ret i64 %19

; <label>:21:                                     ; preds = %1
  %22 = landingpad { i8*, i32 }
          cleanup
  %23 = extractvalue { i8*, i32 } %22, 0
  store i8* %23, i8** %5, align 8
  %24 = extractvalue { i8*, i32 } %22, 1
  store i32 %24, i32* %6, align 4
  br label %29

; <label>:25:                                     ; preds = %18
  %26 = landingpad { i8*, i32 }
          cleanup
  %27 = extractvalue { i8*, i32 } %26, 0
  store i8* %27, i8** %5, align 8
  %28 = extractvalue { i8*, i32 } %26, 1
  store i32 %28, i32* %6, align 4
  call void @_ZNSt8__detail6_StateINSt7__cxx1112regex_traitsIcEEED2Ev(%"struct.std::__detail::_State"* %4) #3
  br label %29

; <label>:29:                                     ; preds = %25, %21
  call void @_ZNSt8__detail6_StateINSt7__cxx1112regex_traitsIcEEED2Ev(%"struct.std::__detail::_State"* %3) #3
  br label %30

; <label>:30:                                     ; preds = %29
  %31 = load i8*, i8** %5, align 8
  %32 = load i32, i32* %6, align 4
  %33 = insertvalue { i8*, i32 } undef, i8* %31, 0
  %34 = insertvalue { i8*, i32 } %33, i32 %32, 1
  resume { i8*, i32 } %34
}

; Function Attrs: noinline uwtable
define linkonce_odr i64 @_ZNSt8__detail4_NFAINSt7__cxx1112regex_traitsIcEEE16_M_insert_acceptEv(%"struct.std::__detail::_NFA"*) #0 comdat align 2 personality i8* bitcast (i32 (...)* @__gxx_personality_v0 to i8*) {
  %2 = alloca %"struct.std::__detail::_NFA"*, align 8
  %3 = alloca i64, align 8
  %4 = alloca %"struct.std::__detail::_State", align 8
  %5 = alloca i8*
  %6 = alloca i32
  store %"struct.std::__detail::_NFA"* %0, %"struct.std::__detail::_NFA"** %2, align 8
  %7 = load %"struct.std::__detail::_NFA"*, %"struct.std::__detail::_NFA"** %2, align 8
  call void @_ZNSt8__detail6_StateINSt7__cxx1112regex_traitsIcEEEC2ENS_7_OpcodeE(%"struct.std::__detail::_State"* %4, i32 12)
  %8 = invoke i64 @_ZNSt8__detail4_NFAINSt7__cxx1112regex_traitsIcEEE15_M_insert_stateENS_6_StateIS3_EE(%"struct.std::__detail::_NFA"* %7, %"struct.std::__detail::_State"* %4)
          to label %9 unwind label %11

; <label>:9:                                      ; preds = %1
  call void @_ZNSt8__detail6_StateINSt7__cxx1112regex_traitsIcEEED2Ev(%"struct.std::__detail::_State"* %4) #3
  store i64 %8, i64* %3, align 8
  %10 = load i64, i64* %3, align 8
  ret i64 %10

; <label>:11:                                     ; preds = %1
  %12 = landingpad { i8*, i32 }
          cleanup
  %13 = extractvalue { i8*, i32 } %12, 0
  store i8* %13, i8** %5, align 8
  %14 = extractvalue { i8*, i32 } %12, 1
  store i32 %14, i32* %6, align 4
  call void @_ZNSt8__detail6_StateINSt7__cxx1112regex_traitsIcEEED2Ev(%"struct.std::__detail::_State"* %4) #3
  br label %15

; <label>:15:                                     ; preds = %11
  %16 = load i8*, i8** %5, align 8
  %17 = load i32, i32* %6, align 4
  %18 = insertvalue { i8*, i32 } undef, i8* %16, 0
  %19 = insertvalue { i8*, i32 } %18, i32 %17, 1
  resume { i8*, i32 } %19
}

; Function Attrs: noinline nounwind uwtable
define linkonce_odr void @_ZNSt8__detail4_NFAINSt7__cxx1112regex_traitsIcEEE18_M_eliminate_dummyEv(%"struct.std::__detail::_NFA"*) #5 comdat align 2 {
  %2 = alloca %"struct.std::__detail::_NFA"*, align 8
  %3 = alloca %"struct.std::__detail::_NFA"*, align 8
  %4 = alloca %"class.__gnu_cxx::__normal_iterator.100", align 8
  %5 = alloca %"class.__gnu_cxx::__normal_iterator.100", align 8
  %6 = alloca %"struct.std::__detail::_State"*, align 8
  store %"struct.std::__detail::_NFA"* %0, %"struct.std::__detail::_NFA"** %2, align 8
  %7 = load %"struct.std::__detail::_NFA"*, %"struct.std::__detail::_NFA"** %2, align 8
  store %"struct.std::__detail::_NFA"* %7, %"struct.std::__detail::_NFA"** %3, align 8
  %8 = load %"struct.std::__detail::_NFA"*, %"struct.std::__detail::_NFA"** %3, align 8
  %9 = bitcast %"struct.std::__detail::_NFA"* %8 to i8*
  %10 = getelementptr inbounds i8, i8* %9, i64 56
  %11 = bitcast i8* %10 to %"class.std::vector.3"*
  %12 = call %"struct.std::__detail::_State"* @_ZNSt6vectorINSt8__detail6_StateINSt7__cxx1112regex_traitsIcEEEESaIS5_EE5beginEv(%"class.std::vector.3"* %11) #3
  %13 = getelementptr inbounds %"class.__gnu_cxx::__normal_iterator.100", %"class.__gnu_cxx::__normal_iterator.100"* %4, i32 0, i32 0
  store %"struct.std::__detail::_State"* %12, %"struct.std::__detail::_State"** %13, align 8
  %14 = load %"struct.std::__detail::_NFA"*, %"struct.std::__detail::_NFA"** %3, align 8
  %15 = bitcast %"struct.std::__detail::_NFA"* %14 to i8*
  %16 = getelementptr inbounds i8, i8* %15, i64 56
  %17 = bitcast i8* %16 to %"class.std::vector.3"*
  %18 = call %"struct.std::__detail::_State"* @_ZNSt6vectorINSt8__detail6_StateINSt7__cxx1112regex_traitsIcEEEESaIS5_EE3endEv(%"class.std::vector.3"* %17) #3
  %19 = getelementptr inbounds %"class.__gnu_cxx::__normal_iterator.100", %"class.__gnu_cxx::__normal_iterator.100"* %5, i32 0, i32 0
  store %"struct.std::__detail::_State"* %18, %"struct.std::__detail::_State"** %19, align 8
  br label %20

; <label>:20:                                     ; preds = %125, %1
  %21 = call zeroext i1 @_ZN9__gnu_cxxneIPNSt8__detail6_StateINSt7__cxx1112regex_traitsIcEEEESt6vectorIS6_SaIS6_EEEEbRKNS_17__normal_iteratorIT_T0_EESG_(%"class.__gnu_cxx::__normal_iterator.100"* dereferenceable(8) %4, %"class.__gnu_cxx::__normal_iterator.100"* dereferenceable(8) %5) #3
  br i1 %21, label %22, label %127

; <label>:22:                                     ; preds = %20
  %23 = call dereferenceable(64) %"struct.std::__detail::_State"* @_ZNK9__gnu_cxx17__normal_iteratorIPNSt8__detail6_StateINSt7__cxx1112regex_traitsIcEEEESt6vectorIS6_SaIS6_EEEdeEv(%"class.__gnu_cxx::__normal_iterator.100"* %4) #3
  store %"struct.std::__detail::_State"* %23, %"struct.std::__detail::_State"** %6, align 8
  br label %24

; <label>:24:                                     ; preds = %45, %22
  %25 = load %"struct.std::__detail::_State"*, %"struct.std::__detail::_State"** %6, align 8
  %26 = bitcast %"struct.std::__detail::_State"* %25 to %"struct.std::__detail::_State_base"*
  %27 = getelementptr inbounds %"struct.std::__detail::_State_base", %"struct.std::__detail::_State_base"* %26, i32 0, i32 1
  %28 = load i64, i64* %27, align 8
  %29 = icmp sge i64 %28, 0
  br i1 %29, label %30, label %43

; <label>:30:                                     ; preds = %24
  %31 = bitcast %"struct.std::__detail::_NFA"* %7 to i8*
  %32 = getelementptr inbounds i8, i8* %31, i64 56
  %33 = bitcast i8* %32 to %"class.std::vector.3"*
  %34 = load %"struct.std::__detail::_State"*, %"struct.std::__detail::_State"** %6, align 8
  %35 = bitcast %"struct.std::__detail::_State"* %34 to %"struct.std::__detail::_State_base"*
  %36 = getelementptr inbounds %"struct.std::__detail::_State_base", %"struct.std::__detail::_State_base"* %35, i32 0, i32 1
  %37 = load i64, i64* %36, align 8
  %38 = call dereferenceable(64) %"struct.std::__detail::_State"* @_ZNSt6vectorINSt8__detail6_StateINSt7__cxx1112regex_traitsIcEEEESaIS5_EEixEm(%"class.std::vector.3"* %33, i64 %37) #3
  %39 = bitcast %"struct.std::__detail::_State"* %38 to %"struct.std::__detail::_State_base"*
  %40 = getelementptr inbounds %"struct.std::__detail::_State_base", %"struct.std::__detail::_State_base"* %39, i32 0, i32 0
  %41 = load i32, i32* %40, align 8
  %42 = icmp eq i32 %41, 10
  br label %43

; <label>:43:                                     ; preds = %30, %24
  %44 = phi i1 [ false, %24 ], [ %42, %30 ]
  br i1 %44, label %45, label %60

; <label>:45:                                     ; preds = %43
  %46 = bitcast %"struct.std::__detail::_NFA"* %7 to i8*
  %47 = getelementptr inbounds i8, i8* %46, i64 56
  %48 = bitcast i8* %47 to %"class.std::vector.3"*
  %49 = load %"struct.std::__detail::_State"*, %"struct.std::__detail::_State"** %6, align 8
  %50 = bitcast %"struct.std::__detail::_State"* %49 to %"struct.std::__detail::_State_base"*
  %51 = getelementptr inbounds %"struct.std::__detail::_State_base", %"struct.std::__detail::_State_base"* %50, i32 0, i32 1
  %52 = load i64, i64* %51, align 8
  %53 = call dereferenceable(64) %"struct.std::__detail::_State"* @_ZNSt6vectorINSt8__detail6_StateINSt7__cxx1112regex_traitsIcEEEESaIS5_EEixEm(%"class.std::vector.3"* %48, i64 %52) #3
  %54 = bitcast %"struct.std::__detail::_State"* %53 to %"struct.std::__detail::_State_base"*
  %55 = getelementptr inbounds %"struct.std::__detail::_State_base", %"struct.std::__detail::_State_base"* %54, i32 0, i32 1
  %56 = load i64, i64* %55, align 8
  %57 = load %"struct.std::__detail::_State"*, %"struct.std::__detail::_State"** %6, align 8
  %58 = bitcast %"struct.std::__detail::_State"* %57 to %"struct.std::__detail::_State_base"*
  %59 = getelementptr inbounds %"struct.std::__detail::_State_base", %"struct.std::__detail::_State_base"* %58, i32 0, i32 1
  store i64 %56, i64* %59, align 8
  br label %24

; <label>:60:                                     ; preds = %43
  %61 = load %"struct.std::__detail::_State"*, %"struct.std::__detail::_State"** %6, align 8
  %62 = bitcast %"struct.std::__detail::_State"* %61 to %"struct.std::__detail::_State_base"*
  %63 = getelementptr inbounds %"struct.std::__detail::_State_base", %"struct.std::__detail::_State_base"* %62, i32 0, i32 0
  %64 = load i32, i32* %63, align 8
  %65 = icmp eq i32 %64, 1
  br i1 %65, label %78, label %66

; <label>:66:                                     ; preds = %60
  %67 = load %"struct.std::__detail::_State"*, %"struct.std::__detail::_State"** %6, align 8
  %68 = bitcast %"struct.std::__detail::_State"* %67 to %"struct.std::__detail::_State_base"*
  %69 = getelementptr inbounds %"struct.std::__detail::_State_base", %"struct.std::__detail::_State_base"* %68, i32 0, i32 0
  %70 = load i32, i32* %69, align 8
  %71 = icmp eq i32 %70, 2
  br i1 %71, label %78, label %72

; <label>:72:                                     ; preds = %66
  %73 = load %"struct.std::__detail::_State"*, %"struct.std::__detail::_State"** %6, align 8
  %74 = bitcast %"struct.std::__detail::_State"* %73 to %"struct.std::__detail::_State_base"*
  %75 = getelementptr inbounds %"struct.std::__detail::_State_base", %"struct.std::__detail::_State_base"* %74, i32 0, i32 0
  %76 = load i32, i32* %75, align 8
  %77 = icmp eq i32 %76, 7
  br i1 %77, label %78, label %124

; <label>:78:                                     ; preds = %72, %66, %60
  br label %79

; <label>:79:                                     ; preds = %104, %78
  %80 = load %"struct.std::__detail::_State"*, %"struct.std::__detail::_State"** %6, align 8
  %81 = bitcast %"struct.std::__detail::_State"* %80 to %"struct.std::__detail::_State_base"*
  %82 = getelementptr inbounds %"struct.std::__detail::_State_base", %"struct.std::__detail::_State_base"* %81, i32 0, i32 2
  %83 = bitcast %union.anon.8* %82 to %struct.anon*
  %84 = getelementptr inbounds %struct.anon, %struct.anon* %83, i32 0, i32 0
  %85 = load i64, i64* %84, align 8
  %86 = icmp sge i64 %85, 0
  br i1 %86, label %87, label %102

; <label>:87:                                     ; preds = %79
  %88 = bitcast %"struct.std::__detail::_NFA"* %7 to i8*
  %89 = getelementptr inbounds i8, i8* %88, i64 56
  %90 = bitcast i8* %89 to %"class.std::vector.3"*
  %91 = load %"struct.std::__detail::_State"*, %"struct.std::__detail::_State"** %6, align 8
  %92 = bitcast %"struct.std::__detail::_State"* %91 to %"struct.std::__detail::_State_base"*
  %93 = getelementptr inbounds %"struct.std::__detail::_State_base", %"struct.std::__detail::_State_base"* %92, i32 0, i32 2
  %94 = bitcast %union.anon.8* %93 to %struct.anon*
  %95 = getelementptr inbounds %struct.anon, %struct.anon* %94, i32 0, i32 0
  %96 = load i64, i64* %95, align 8
  %97 = call dereferenceable(64) %"struct.std::__detail::_State"* @_ZNSt6vectorINSt8__detail6_StateINSt7__cxx1112regex_traitsIcEEEESaIS5_EEixEm(%"class.std::vector.3"* %90, i64 %96) #3
  %98 = bitcast %"struct.std::__detail::_State"* %97 to %"struct.std::__detail::_State_base"*
  %99 = getelementptr inbounds %"struct.std::__detail::_State_base", %"struct.std::__detail::_State_base"* %98, i32 0, i32 0
  %100 = load i32, i32* %99, align 8
  %101 = icmp eq i32 %100, 10
  br label %102

; <label>:102:                                    ; preds = %87, %79
  %103 = phi i1 [ false, %79 ], [ %101, %87 ]
  br i1 %103, label %104, label %123

; <label>:104:                                    ; preds = %102
  %105 = bitcast %"struct.std::__detail::_NFA"* %7 to i8*
  %106 = getelementptr inbounds i8, i8* %105, i64 56
  %107 = bitcast i8* %106 to %"class.std::vector.3"*
  %108 = load %"struct.std::__detail::_State"*, %"struct.std::__detail::_State"** %6, align 8
  %109 = bitcast %"struct.std::__detail::_State"* %108 to %"struct.std::__detail::_State_base"*
  %110 = getelementptr inbounds %"struct.std::__detail::_State_base", %"struct.std::__detail::_State_base"* %109, i32 0, i32 2
  %111 = bitcast %union.anon.8* %110 to %struct.anon*
  %112 = getelementptr inbounds %struct.anon, %struct.anon* %111, i32 0, i32 0
  %113 = load i64, i64* %112, align 8
  %114 = call dereferenceable(64) %"struct.std::__detail::_State"* @_ZNSt6vectorINSt8__detail6_StateINSt7__cxx1112regex_traitsIcEEEESaIS5_EEixEm(%"class.std::vector.3"* %107, i64 %113) #3
  %115 = bitcast %"struct.std::__detail::_State"* %114 to %"struct.std::__detail::_State_base"*
  %116 = getelementptr inbounds %"struct.std::__detail::_State_base", %"struct.std::__detail::_State_base"* %115, i32 0, i32 1
  %117 = load i64, i64* %116, align 8
  %118 = load %"struct.std::__detail::_State"*, %"struct.std::__detail::_State"** %6, align 8
  %119 = bitcast %"struct.std::__detail::_State"* %118 to %"struct.std::__detail::_State_base"*
  %120 = getelementptr inbounds %"struct.std::__detail::_State_base", %"struct.std::__detail::_State_base"* %119, i32 0, i32 2
  %121 = bitcast %union.anon.8* %120 to %struct.anon*
  %122 = getelementptr inbounds %struct.anon, %struct.anon* %121, i32 0, i32 0
  store i64 %117, i64* %122, align 8
  br label %79

; <label>:123:                                    ; preds = %102
  br label %124

; <label>:124:                                    ; preds = %123, %72
  br label %125

; <label>:125:                                    ; preds = %124
  %126 = call dereferenceable(8) %"class.__gnu_cxx::__normal_iterator.100"* @_ZN9__gnu_cxx17__normal_iteratorIPNSt8__detail6_StateINSt7__cxx1112regex_traitsIcEEEESt6vectorIS6_SaIS6_EEEppEv(%"class.__gnu_cxx::__normal_iterator.100"* %4) #3
  br label %20

; <label>:127:                                    ; preds = %20
  ret void
}

; Function Attrs: noinline nounwind uwtable
define linkonce_odr void @_ZNSt5stackINSt8__detail9_StateSeqINSt7__cxx1112regex_traitsIcEEEESt5dequeIS5_SaIS5_EEED2Ev(%"class.std::stack"*) unnamed_addr #5 comdat align 2 {
  %2 = alloca %"class.std::stack"*, align 8
  store %"class.std::stack"* %0, %"class.std::stack"** %2, align 8
  %3 = load %"class.std::stack"*, %"class.std::stack"** %2, align 8
  %4 = getelementptr inbounds %"class.std::stack", %"class.std::stack"* %3, i32 0, i32 0
  call void @_ZNSt5dequeINSt8__detail9_StateSeqINSt7__cxx1112regex_traitsIcEEEESaIS5_EED2Ev(%"class.std::deque"* %4) #3
  ret void
}

; Function Attrs: noinline nounwind uwtable
define linkonce_odr void @_ZNSt10shared_ptrINSt8__detail4_NFAINSt7__cxx1112regex_traitsIcEEEEED2Ev(%"class.std::shared_ptr.10"*) unnamed_addr #5 comdat align 2 {
  %2 = alloca %"class.std::shared_ptr.10"*, align 8
  store %"class.std::shared_ptr.10"* %0, %"class.std::shared_ptr.10"** %2, align 8
  %3 = load %"class.std::shared_ptr.10"*, %"class.std::shared_ptr.10"** %2, align 8
  %4 = bitcast %"class.std::shared_ptr.10"* %3 to %"class.std::__shared_ptr.11"*
  call void @_ZNSt12__shared_ptrINSt8__detail4_NFAINSt7__cxx1112regex_traitsIcEEEELN9__gnu_cxx12_Lock_policyE2EED2Ev(%"class.std::__shared_ptr.11"* %4) #3
  ret void
}

; Function Attrs: noinline nounwind uwtable
define linkonce_odr void @_ZNSt8__detail8_ScannerIcED2Ev(%"class.std::__detail::_Scanner"*) unnamed_addr #5 comdat align 2 {
  %2 = alloca %"class.std::__detail::_Scanner"*, align 8
  store %"class.std::__detail::_Scanner"* %0, %"class.std::__detail::_Scanner"** %2, align 8
  %3 = load %"class.std::__detail::_Scanner"*, %"class.std::__detail::_Scanner"** %2, align 8
  %4 = getelementptr inbounds %"class.std::__detail::_Scanner", %"class.std::__detail::_Scanner"* %3, i32 0, i32 4
  call void @_ZNSt7__cxx1112basic_stringIcSt11char_traitsIcESaIcEED1Ev(%"class.std::__cxx11::basic_string"* %4) #3
  ret void
}

; Function Attrs: noinline uwtable
define linkonce_odr void @_ZNSt8__detail12_ScannerBaseC2ENSt15regex_constants18syntax_option_typeE(%"struct.std::__detail::_ScannerBase"*, i32) unnamed_addr #0 comdat align 2 {
  %3 = alloca %"struct.std::__detail::_ScannerBase"*, align 8
  %4 = alloca i32, align 4
  %5 = alloca i8, align 1
  %6 = alloca i32, align 4
  %7 = alloca i8, align 1
  %8 = alloca i32, align 4
  %9 = alloca i8, align 1
  %10 = alloca i32, align 4
  %11 = alloca i8, align 1
  %12 = alloca i32, align 4
  %13 = alloca i8, align 1
  %14 = alloca i32, align 4
  %15 = alloca i8, align 1
  %16 = alloca i32, align 4
  %17 = alloca i8, align 1
  %18 = alloca i32, align 4
  %19 = alloca i8, align 1
  %20 = alloca i32, align 4
  %21 = alloca i8, align 1
  %22 = alloca i32, align 4
  %23 = alloca i8, align 1
  %24 = alloca i8, align 1
  %25 = alloca i8, align 1
  %26 = alloca i8, align 1
  %27 = alloca i8, align 1
  %28 = alloca i8, align 1
  %29 = alloca i8, align 1
  %30 = alloca i8, align 1
  %31 = alloca i8, align 1
  %32 = alloca i8, align 1
  %33 = alloca i8, align 1
  %34 = alloca i8, align 1
  %35 = alloca i8, align 1
  %36 = alloca i8, align 1
  %37 = alloca i8, align 1
  %38 = alloca i8, align 1
  %39 = alloca i8, align 1
  %40 = alloca i8, align 1
  %41 = alloca i8, align 1
  %42 = alloca i8, align 1
  %43 = alloca i8, align 1
  %44 = alloca i8, align 1
  %45 = alloca i8, align 1
  %46 = alloca i8, align 1
  %47 = alloca i8, align 1
  %48 = alloca i8, align 1
  %49 = alloca i8, align 1
  %50 = alloca i8, align 1
  %51 = alloca i8, align 1
  %52 = alloca i8, align 1
  %53 = alloca i8, align 1
  %54 = alloca i8, align 1
  %55 = alloca i8, align 1
  %56 = alloca i8, align 1
  %57 = alloca i8, align 1
  %58 = alloca i8, align 1
  %59 = alloca i8, align 1
  %60 = alloca i8, align 1
  store %"struct.std::__detail::_ScannerBase"* %0, %"struct.std::__detail::_ScannerBase"** %3, align 8
  store i32 %1, i32* %4, align 4
  %61 = load %"struct.std::__detail::_ScannerBase"*, %"struct.std::__detail::_ScannerBase"** %3, align 8
  %62 = getelementptr inbounds %"struct.std::__detail::_ScannerBase", %"struct.std::__detail::_ScannerBase"* %61, i32 0, i32 0
  %63 = getelementptr inbounds [9 x %"struct.std::pair"], [9 x %"struct.std::pair"]* %62, i64 0, i64 0
  store i8 94, i8* %5, align 1
  store i32 22, i32* %6, align 4
  call void @_ZNSt4pairIcNSt8__detail12_ScannerBase7_TokenTEEC2IcS2_vEEOT_OT0_(%"struct.std::pair"* %63, i8* dereferenceable(1) %5, i32* dereferenceable(4) %6)
  %64 = getelementptr inbounds %"struct.std::pair", %"struct.std::pair"* %63, i64 1
  store i8 36, i8* %7, align 1
  store i32 23, i32* %8, align 4
  call void @_ZNSt4pairIcNSt8__detail12_ScannerBase7_TokenTEEC2IcS2_vEEOT_OT0_(%"struct.std::pair"* %64, i8* dereferenceable(1) %7, i32* dereferenceable(4) %8)
  %65 = getelementptr inbounds %"struct.std::pair", %"struct.std::pair"* %64, i64 1
  store i8 46, i8* %9, align 1
  store i32 0, i32* %10, align 4
  call void @_ZNSt4pairIcNSt8__detail12_ScannerBase7_TokenTEEC2IcS2_vEEOT_OT0_(%"struct.std::pair"* %65, i8* dereferenceable(1) %9, i32* dereferenceable(4) %10)
  %66 = getelementptr inbounds %"struct.std::pair", %"struct.std::pair"* %65, i64 1
  store i8 42, i8* %11, align 1
  store i32 20, i32* %12, align 4
  call void @_ZNSt4pairIcNSt8__detail12_ScannerBase7_TokenTEEC2IcS2_vEEOT_OT0_(%"struct.std::pair"* %66, i8* dereferenceable(1) %11, i32* dereferenceable(4) %12)
  %67 = getelementptr inbounds %"struct.std::pair", %"struct.std::pair"* %66, i64 1
  store i8 43, i8* %13, align 1
  store i32 21, i32* %14, align 4
  call void @_ZNSt4pairIcNSt8__detail12_ScannerBase7_TokenTEEC2IcS2_vEEOT_OT0_(%"struct.std::pair"* %67, i8* dereferenceable(1) %13, i32* dereferenceable(4) %14)
  %68 = getelementptr inbounds %"struct.std::pair", %"struct.std::pair"* %67, i64 1
  store i8 63, i8* %15, align 1
  store i32 18, i32* %16, align 4
  call void @_ZNSt4pairIcNSt8__detail12_ScannerBase7_TokenTEEC2IcS2_vEEOT_OT0_(%"struct.std::pair"* %68, i8* dereferenceable(1) %15, i32* dereferenceable(4) %16)
  %69 = getelementptr inbounds %"struct.std::pair", %"struct.std::pair"* %68, i64 1
  store i8 124, i8* %17, align 1
  store i32 19, i32* %18, align 4
  call void @_ZNSt4pairIcNSt8__detail12_ScannerBase7_TokenTEEC2IcS2_vEEOT_OT0_(%"struct.std::pair"* %69, i8* dereferenceable(1) %17, i32* dereferenceable(4) %18)
  %70 = getelementptr inbounds %"struct.std::pair", %"struct.std::pair"* %69, i64 1
  store i8 10, i8* %19, align 1
  store i32 19, i32* %20, align 4
  call void @_ZNSt4pairIcNSt8__detail12_ScannerBase7_TokenTEEC2IcS2_vEEOT_OT0_(%"struct.std::pair"* %70, i8* dereferenceable(1) %19, i32* dereferenceable(4) %20)
  %71 = getelementptr inbounds %"struct.std::pair", %"struct.std::pair"* %70, i64 1
  store i8 0, i8* %21, align 1
  store i32 19, i32* %22, align 4
  call void @_ZNSt4pairIcNSt8__detail12_ScannerBase7_TokenTEEC2IcS2_vEEOT_OT0_(%"struct.std::pair"* %71, i8* dereferenceable(1) %21, i32* dereferenceable(4) %22)
  %72 = getelementptr inbounds %"struct.std::__detail::_ScannerBase", %"struct.std::__detail::_ScannerBase"* %61, i32 0, i32 1
  %73 = getelementptr inbounds [8 x %"struct.std::pair.9"], [8 x %"struct.std::pair.9"]* %72, i64 0, i64 0
  store i8 48, i8* %23, align 1
  store i8 0, i8* %24, align 1
  call void @_ZNSt4pairIccEC2IccvEEOT_OT0_(%"struct.std::pair.9"* %73, i8* dereferenceable(1) %23, i8* dereferenceable(1) %24)
  %74 = getelementptr inbounds %"struct.std::pair.9", %"struct.std::pair.9"* %73, i64 1
  store i8 98, i8* %25, align 1
  store i8 8, i8* %26, align 1
  call void @_ZNSt4pairIccEC2IccvEEOT_OT0_(%"struct.std::pair.9"* %74, i8* dereferenceable(1) %25, i8* dereferenceable(1) %26)
  %75 = getelementptr inbounds %"struct.std::pair.9", %"struct.std::pair.9"* %74, i64 1
  store i8 102, i8* %27, align 1
  store i8 12, i8* %28, align 1
  call void @_ZNSt4pairIccEC2IccvEEOT_OT0_(%"struct.std::pair.9"* %75, i8* dereferenceable(1) %27, i8* dereferenceable(1) %28)
  %76 = getelementptr inbounds %"struct.std::pair.9", %"struct.std::pair.9"* %75, i64 1
  store i8 110, i8* %29, align 1
  store i8 10, i8* %30, align 1
  call void @_ZNSt4pairIccEC2IccvEEOT_OT0_(%"struct.std::pair.9"* %76, i8* dereferenceable(1) %29, i8* dereferenceable(1) %30)
  %77 = getelementptr inbounds %"struct.std::pair.9", %"struct.std::pair.9"* %76, i64 1
  store i8 114, i8* %31, align 1
  store i8 13, i8* %32, align 1
  call void @_ZNSt4pairIccEC2IccvEEOT_OT0_(%"struct.std::pair.9"* %77, i8* dereferenceable(1) %31, i8* dereferenceable(1) %32)
  %78 = getelementptr inbounds %"struct.std::pair.9", %"struct.std::pair.9"* %77, i64 1
  store i8 116, i8* %33, align 1
  store i8 9, i8* %34, align 1
  call void @_ZNSt4pairIccEC2IccvEEOT_OT0_(%"struct.std::pair.9"* %78, i8* dereferenceable(1) %33, i8* dereferenceable(1) %34)
  %79 = getelementptr inbounds %"struct.std::pair.9", %"struct.std::pair.9"* %78, i64 1
  store i8 118, i8* %35, align 1
  store i8 11, i8* %36, align 1
  call void @_ZNSt4pairIccEC2IccvEEOT_OT0_(%"struct.std::pair.9"* %79, i8* dereferenceable(1) %35, i8* dereferenceable(1) %36)
  %80 = getelementptr inbounds %"struct.std::pair.9", %"struct.std::pair.9"* %79, i64 1
  store i8 0, i8* %37, align 1
  store i8 0, i8* %38, align 1
  call void @_ZNSt4pairIccEC2IccvEEOT_OT0_(%"struct.std::pair.9"* %80, i8* dereferenceable(1) %37, i8* dereferenceable(1) %38)
  %81 = getelementptr inbounds %"struct.std::__detail::_ScannerBase", %"struct.std::__detail::_ScannerBase"* %61, i32 0, i32 2
  %82 = getelementptr inbounds [11 x %"struct.std::pair.9"], [11 x %"struct.std::pair.9"]* %81, i64 0, i64 0
  store i8 34, i8* %39, align 1
  store i8 34, i8* %40, align 1
  call void @_ZNSt4pairIccEC2IccvEEOT_OT0_(%"struct.std::pair.9"* %82, i8* dereferenceable(1) %39, i8* dereferenceable(1) %40)
  %83 = getelementptr inbounds %"struct.std::pair.9", %"struct.std::pair.9"* %82, i64 1
  store i8 47, i8* %41, align 1
  store i8 47, i8* %42, align 1
  call void @_ZNSt4pairIccEC2IccvEEOT_OT0_(%"struct.std::pair.9"* %83, i8* dereferenceable(1) %41, i8* dereferenceable(1) %42)
  %84 = getelementptr inbounds %"struct.std::pair.9", %"struct.std::pair.9"* %83, i64 1
  store i8 92, i8* %43, align 1
  store i8 92, i8* %44, align 1
  call void @_ZNSt4pairIccEC2IccvEEOT_OT0_(%"struct.std::pair.9"* %84, i8* dereferenceable(1) %43, i8* dereferenceable(1) %44)
  %85 = getelementptr inbounds %"struct.std::pair.9", %"struct.std::pair.9"* %84, i64 1
  store i8 97, i8* %45, align 1
  store i8 7, i8* %46, align 1
  call void @_ZNSt4pairIccEC2IccvEEOT_OT0_(%"struct.std::pair.9"* %85, i8* dereferenceable(1) %45, i8* dereferenceable(1) %46)
  %86 = getelementptr inbounds %"struct.std::pair.9", %"struct.std::pair.9"* %85, i64 1
  store i8 98, i8* %47, align 1
  store i8 8, i8* %48, align 1
  call void @_ZNSt4pairIccEC2IccvEEOT_OT0_(%"struct.std::pair.9"* %86, i8* dereferenceable(1) %47, i8* dereferenceable(1) %48)
  %87 = getelementptr inbounds %"struct.std::pair.9", %"struct.std::pair.9"* %86, i64 1
  store i8 102, i8* %49, align 1
  store i8 12, i8* %50, align 1
  call void @_ZNSt4pairIccEC2IccvEEOT_OT0_(%"struct.std::pair.9"* %87, i8* dereferenceable(1) %49, i8* dereferenceable(1) %50)
  %88 = getelementptr inbounds %"struct.std::pair.9", %"struct.std::pair.9"* %87, i64 1
  store i8 110, i8* %51, align 1
  store i8 10, i8* %52, align 1
  call void @_ZNSt4pairIccEC2IccvEEOT_OT0_(%"struct.std::pair.9"* %88, i8* dereferenceable(1) %51, i8* dereferenceable(1) %52)
  %89 = getelementptr inbounds %"struct.std::pair.9", %"struct.std::pair.9"* %88, i64 1
  store i8 114, i8* %53, align 1
  store i8 13, i8* %54, align 1
  call void @_ZNSt4pairIccEC2IccvEEOT_OT0_(%"struct.std::pair.9"* %89, i8* dereferenceable(1) %53, i8* dereferenceable(1) %54)
  %90 = getelementptr inbounds %"struct.std::pair.9", %"struct.std::pair.9"* %89, i64 1
  store i8 116, i8* %55, align 1
  store i8 9, i8* %56, align 1
  call void @_ZNSt4pairIccEC2IccvEEOT_OT0_(%"struct.std::pair.9"* %90, i8* dereferenceable(1) %55, i8* dereferenceable(1) %56)
  %91 = getelementptr inbounds %"struct.std::pair.9", %"struct.std::pair.9"* %90, i64 1
  store i8 118, i8* %57, align 1
  store i8 11, i8* %58, align 1
  call void @_ZNSt4pairIccEC2IccvEEOT_OT0_(%"struct.std::pair.9"* %91, i8* dereferenceable(1) %57, i8* dereferenceable(1) %58)
  %92 = getelementptr inbounds %"struct.std::pair.9", %"struct.std::pair.9"* %91, i64 1
  store i8 0, i8* %59, align 1
  store i8 0, i8* %60, align 1
  call void @_ZNSt4pairIccEC2IccvEEOT_OT0_(%"struct.std::pair.9"* %92, i8* dereferenceable(1) %59, i8* dereferenceable(1) %60)
  %93 = getelementptr inbounds %"struct.std::__detail::_ScannerBase", %"struct.std::__detail::_ScannerBase"* %61, i32 0, i32 4
  store i8* getelementptr inbounds ([15 x i8], [15 x i8]* @.str.3, i32 0, i32 0), i8** %93, align 8
  %94 = getelementptr inbounds %"struct.std::__detail::_ScannerBase", %"struct.std::__detail::_ScannerBase"* %61, i32 0, i32 5
  store i8* getelementptr inbounds ([7 x i8], [7 x i8]* @.str.4, i32 0, i32 0), i8** %94, align 8
  %95 = getelementptr inbounds %"struct.std::__detail::_ScannerBase", %"struct.std::__detail::_ScannerBase"* %61, i32 0, i32 6
  store i8* getelementptr inbounds ([13 x i8], [13 x i8]* @.str.5, i32 0, i32 0), i8** %95, align 8
  %96 = getelementptr inbounds %"struct.std::__detail::_ScannerBase", %"struct.std::__detail::_ScannerBase"* %61, i32 0, i32 7
  store i32 0, i32* %96, align 8
  %97 = getelementptr inbounds %"struct.std::__detail::_ScannerBase", %"struct.std::__detail::_ScannerBase"* %61, i32 0, i32 8
  %98 = load i32, i32* %4, align 4
  store i32 %98, i32* %97, align 4
  %99 = getelementptr inbounds %"struct.std::__detail::_ScannerBase", %"struct.std::__detail::_ScannerBase"* %61, i32 0, i32 11
  %100 = call zeroext i1 @_ZNKSt8__detail12_ScannerBase10_M_is_ecmaEv(%"struct.std::__detail::_ScannerBase"* %61)
  br i1 %100, label %101, label %104

; <label>:101:                                    ; preds = %2
  %102 = getelementptr inbounds %"struct.std::__detail::_ScannerBase", %"struct.std::__detail::_ScannerBase"* %61, i32 0, i32 1
  %103 = getelementptr inbounds [8 x %"struct.std::pair.9"], [8 x %"struct.std::pair.9"]* %102, i32 0, i32 0
  br label %107

; <label>:104:                                    ; preds = %2
  %105 = getelementptr inbounds %"struct.std::__detail::_ScannerBase", %"struct.std::__detail::_ScannerBase"* %61, i32 0, i32 2
  %106 = getelementptr inbounds [11 x %"struct.std::pair.9"], [11 x %"struct.std::pair.9"]* %105, i32 0, i32 0
  br label %107

; <label>:107:                                    ; preds = %104, %101
  %108 = phi %"struct.std::pair.9"* [ %103, %101 ], [ %106, %104 ]
  store %"struct.std::pair.9"* %108, %"struct.std::pair.9"** %99, align 8
  %109 = getelementptr inbounds %"struct.std::__detail::_ScannerBase", %"struct.std::__detail::_ScannerBase"* %61, i32 0, i32 12
  %110 = call zeroext i1 @_ZNKSt8__detail12_ScannerBase10_M_is_ecmaEv(%"struct.std::__detail::_ScannerBase"* %61)
  br i1 %110, label %111, label %114

; <label>:111:                                    ; preds = %107
  %112 = getelementptr inbounds %"struct.std::__detail::_ScannerBase", %"struct.std::__detail::_ScannerBase"* %61, i32 0, i32 4
  %113 = load i8*, i8** %112, align 8
  br label %161

; <label>:114:                                    ; preds = %107
  %115 = getelementptr inbounds %"struct.std::__detail::_ScannerBase", %"struct.std::__detail::_ScannerBase"* %61, i32 0, i32 8
  %116 = load i32, i32* %115, align 4
  %117 = call i32 @_ZNSt15regex_constantsanENS_18syntax_option_typeES0_(i32 %116, i32 32)
  %118 = icmp ne i32 %117, 0
  br i1 %118, label %119, label %122

; <label>:119:                                    ; preds = %114
  %120 = getelementptr inbounds %"struct.std::__detail::_ScannerBase", %"struct.std::__detail::_ScannerBase"* %61, i32 0, i32 5
  %121 = load i8*, i8** %120, align 8
  br label %159

; <label>:122:                                    ; preds = %114
  %123 = getelementptr inbounds %"struct.std::__detail::_ScannerBase", %"struct.std::__detail::_ScannerBase"* %61, i32 0, i32 8
  %124 = load i32, i32* %123, align 4
  %125 = call i32 @_ZNSt15regex_constantsanENS_18syntax_option_typeES0_(i32 %124, i32 64)
  %126 = icmp ne i32 %125, 0
  br i1 %126, label %127, label %130

; <label>:127:                                    ; preds = %122
  %128 = getelementptr inbounds %"struct.std::__detail::_ScannerBase", %"struct.std::__detail::_ScannerBase"* %61, i32 0, i32 6
  %129 = load i8*, i8** %128, align 8
  br label %157

; <label>:130:                                    ; preds = %122
  %131 = getelementptr inbounds %"struct.std::__detail::_ScannerBase", %"struct.std::__detail::_ScannerBase"* %61, i32 0, i32 8
  %132 = load i32, i32* %131, align 4
  %133 = call i32 @_ZNSt15regex_constantsanENS_18syntax_option_typeES0_(i32 %132, i32 256)
  %134 = icmp ne i32 %133, 0
  br i1 %134, label %135, label %136

; <label>:135:                                    ; preds = %130
  br label %155

; <label>:136:                                    ; preds = %130
  %137 = getelementptr inbounds %"struct.std::__detail::_ScannerBase", %"struct.std::__detail::_ScannerBase"* %61, i32 0, i32 8
  %138 = load i32, i32* %137, align 4
  %139 = call i32 @_ZNSt15regex_constantsanENS_18syntax_option_typeES0_(i32 %138, i32 512)
  %140 = icmp ne i32 %139, 0
  br i1 %140, label %141, label %142

; <label>:141:                                    ; preds = %136
  br label %153

; <label>:142:                                    ; preds = %136
  %143 = getelementptr inbounds %"struct.std::__detail::_ScannerBase", %"struct.std::__detail::_ScannerBase"* %61, i32 0, i32 8
  %144 = load i32, i32* %143, align 4
  %145 = call i32 @_ZNSt15regex_constantsanENS_18syntax_option_typeES0_(i32 %144, i32 128)
  %146 = icmp ne i32 %145, 0
  br i1 %146, label %147, label %150

; <label>:147:                                    ; preds = %142
  %148 = getelementptr inbounds %"struct.std::__detail::_ScannerBase", %"struct.std::__detail::_ScannerBase"* %61, i32 0, i32 6
  %149 = load i8*, i8** %148, align 8
  br label %151

; <label>:150:                                    ; preds = %142
  br label %151

; <label>:151:                                    ; preds = %150, %147
  %152 = phi i8* [ %149, %147 ], [ null, %150 ]
  br label %153

; <label>:153:                                    ; preds = %151, %141
  %154 = phi i8* [ getelementptr inbounds ([14 x i8], [14 x i8]* @.str.7, i32 0, i32 0), %141 ], [ %152, %151 ]
  br label %155

; <label>:155:                                    ; preds = %153, %135
  %156 = phi i8* [ getelementptr inbounds ([8 x i8], [8 x i8]* @.str.6, i32 0, i32 0), %135 ], [ %154, %153 ]
  br label %157

; <label>:157:                                    ; preds = %155, %127
  %158 = phi i8* [ %129, %127 ], [ %156, %155 ]
  br label %159

; <label>:159:                                    ; preds = %157, %119
  %160 = phi i8* [ %121, %119 ], [ %158, %157 ]
  br label %161

; <label>:161:                                    ; preds = %159, %111
  %162 = phi i8* [ %113, %111 ], [ %160, %159 ]
  store i8* %162, i8** %109, align 8
  %163 = getelementptr inbounds %"struct.std::__detail::_ScannerBase", %"struct.std::__detail::_ScannerBase"* %61, i32 0, i32 13
  store i8 0, i8* %163, align 8
  ret void
}

; Function Attrs: noinline uwtable
define linkonce_odr dereferenceable(576) %"class.std::ctype"* @_ZSt9use_facetIKSt5ctypeIcEERKT_RKSt6locale(%"class.std::locale"* dereferenceable(8)) #0 comdat {
  %2 = alloca %"class.std::locale"*, align 8
  %3 = alloca i64, align 8
  %4 = alloca %"class.std::locale::facet"**, align 8
  store %"class.std::locale"* %0, %"class.std::locale"** %2, align 8
  %5 = call i64 @_ZNKSt6locale2id5_M_idEv(%"class.std::locale::id"* @_ZNSt5ctypeIcE2idE) #3
  store i64 %5, i64* %3, align 8
  %6 = load %"class.std::locale"*, %"class.std::locale"** %2, align 8
  %7 = getelementptr inbounds %"class.std::locale", %"class.std::locale"* %6, i32 0, i32 0
  %8 = load %"class.std::locale::_Impl"*, %"class.std::locale::_Impl"** %7, align 8
  %9 = getelementptr inbounds %"class.std::locale::_Impl", %"class.std::locale::_Impl"* %8, i32 0, i32 1
  %10 = load %"class.std::locale::facet"**, %"class.std::locale::facet"*** %9, align 8
  store %"class.std::locale::facet"** %10, %"class.std::locale::facet"*** %4, align 8
  %11 = load i64, i64* %3, align 8
  %12 = load %"class.std::locale"*, %"class.std::locale"** %2, align 8
  %13 = getelementptr inbounds %"class.std::locale", %"class.std::locale"* %12, i32 0, i32 0
  %14 = load %"class.std::locale::_Impl"*, %"class.std::locale::_Impl"** %13, align 8
  %15 = getelementptr inbounds %"class.std::locale::_Impl", %"class.std::locale::_Impl"* %14, i32 0, i32 2
  %16 = load i64, i64* %15, align 8
  %17 = icmp uge i64 %11, %16
  br i1 %17, label %24, label %18

; <label>:18:                                     ; preds = %1
  %19 = load %"class.std::locale::facet"**, %"class.std::locale::facet"*** %4, align 8
  %20 = load i64, i64* %3, align 8
  %21 = getelementptr inbounds %"class.std::locale::facet"*, %"class.std::locale::facet"** %19, i64 %20
  %22 = load %"class.std::locale::facet"*, %"class.std::locale::facet"** %21, align 8
  %23 = icmp ne %"class.std::locale::facet"* %22, null
  br i1 %23, label %25, label %24

; <label>:24:                                     ; preds = %18, %1
  call void @_ZSt16__throw_bad_castv() #15
  unreachable

; <label>:25:                                     ; preds = %18
  %26 = load %"class.std::locale::facet"**, %"class.std::locale::facet"*** %4, align 8
  %27 = load i64, i64* %3, align 8
  %28 = getelementptr inbounds %"class.std::locale::facet"*, %"class.std::locale::facet"** %26, i64 %27
  %29 = load %"class.std::locale::facet"*, %"class.std::locale::facet"** %28, align 8
  %30 = bitcast %"class.std::locale::facet"* %29 to i8*
  %31 = call i8* @__dynamic_cast(i8* %30, i8* bitcast (i8** @_ZTINSt6locale5facetE to i8*), i8* bitcast (i8** @_ZTISt5ctypeIcE to i8*), i64 0) #3
  %32 = bitcast i8* %31 to %"class.std::ctype"*
  %33 = icmp eq %"class.std::ctype"* %32, null
  br i1 %33, label %34, label %35

; <label>:34:                                     ; preds = %25
  call void @__cxa_bad_cast() #15
  unreachable

; <label>:35:                                     ; preds = %25
  ret %"class.std::ctype"* %32
}

; Function Attrs: noinline nounwind uwtable
define linkonce_odr zeroext i1 @_ZNKSt8__detail12_ScannerBase10_M_is_ecmaEv(%"struct.std::__detail::_ScannerBase"*) #5 comdat align 2 {
  %2 = alloca %"struct.std::__detail::_ScannerBase"*, align 8
  store %"struct.std::__detail::_ScannerBase"* %0, %"struct.std::__detail::_ScannerBase"** %2, align 8
  %3 = load %"struct.std::__detail::_ScannerBase"*, %"struct.std::__detail::_ScannerBase"** %2, align 8
  %4 = getelementptr inbounds %"struct.std::__detail::_ScannerBase", %"struct.std::__detail::_ScannerBase"* %3, i32 0, i32 8
  %5 = load i32, i32* %4, align 4
  %6 = call i32 @_ZNSt15regex_constantsanENS_18syntax_option_typeES0_(i32 %5, i32 16)
  %7 = icmp ne i32 %6, 0
  ret i1 %7
}

; Function Attrs: noinline uwtable
define linkonce_odr void @_ZNSt8__detail8_ScannerIcE18_M_eat_escape_ecmaEv(%"class.std::__detail::_Scanner"*) #0 comdat align 2 {
  %2 = alloca %"class.std::__detail::_Scanner"*, align 8
  %3 = alloca i8, align 1
  %4 = alloca i8*, align 8
  %5 = alloca i32, align 4
  store %"class.std::__detail::_Scanner"* %0, %"class.std::__detail::_Scanner"** %2, align 8
  %6 = load %"class.std::__detail::_Scanner"*, %"class.std::__detail::_Scanner"** %2, align 8
  %7 = getelementptr inbounds %"class.std::__detail::_Scanner", %"class.std::__detail::_Scanner"* %6, i32 0, i32 1
  %8 = load i8*, i8** %7, align 8
  %9 = getelementptr inbounds %"class.std::__detail::_Scanner", %"class.std::__detail::_Scanner"* %6, i32 0, i32 2
  %10 = load i8*, i8** %9, align 8
  %11 = icmp eq i8* %8, %10
  br i1 %11, label %12, label %13

; <label>:12:                                     ; preds = %1
  call void @_ZSt19__throw_regex_errorNSt15regex_constants10error_typeE(i32 2)
  br label %13

; <label>:13:                                     ; preds = %12, %1
  %14 = getelementptr inbounds %"class.std::__detail::_Scanner", %"class.std::__detail::_Scanner"* %6, i32 0, i32 1
  %15 = load i8*, i8** %14, align 8
  %16 = getelementptr inbounds i8, i8* %15, i32 1
  store i8* %16, i8** %14, align 8
  %17 = load i8, i8* %15, align 1
  store i8 %17, i8* %3, align 1
  %18 = bitcast %"class.std::__detail::_Scanner"* %6 to %"struct.std::__detail::_ScannerBase"*
  %19 = getelementptr inbounds %"class.std::__detail::_Scanner", %"class.std::__detail::_Scanner"* %6, i32 0, i32 3
  %20 = load %"class.std::ctype"*, %"class.std::ctype"** %19, align 8
  %21 = load i8, i8* %3, align 1
  %22 = call signext i8 @_ZNKSt5ctypeIcE6narrowEcc(%"class.std::ctype"* %20, i8 signext %21, i8 signext 0)
  %23 = call i8* @_ZNSt8__detail12_ScannerBase14_M_find_escapeEc(%"struct.std::__detail::_ScannerBase"* %18, i8 signext %22)
  store i8* %23, i8** %4, align 8
  %24 = load i8*, i8** %4, align 8
  %25 = icmp ne i8* %24, null
  br i1 %25, label %26, label %42

; <label>:26:                                     ; preds = %13
  %27 = load i8, i8* %3, align 1
  %28 = sext i8 %27 to i32
  %29 = icmp ne i32 %28, 98
  br i1 %29, label %35, label %30

; <label>:30:                                     ; preds = %26
  %31 = bitcast %"class.std::__detail::_Scanner"* %6 to %"struct.std::__detail::_ScannerBase"*
  %32 = getelementptr inbounds %"struct.std::__detail::_ScannerBase", %"struct.std::__detail::_ScannerBase"* %31, i32 0, i32 7
  %33 = load i32, i32* %32, align 8
  %34 = icmp eq i32 %33, 2
  br i1 %34, label %35, label %42

; <label>:35:                                     ; preds = %30, %26
  %36 = bitcast %"class.std::__detail::_Scanner"* %6 to %"struct.std::__detail::_ScannerBase"*
  %37 = getelementptr inbounds %"struct.std::__detail::_ScannerBase", %"struct.std::__detail::_ScannerBase"* %36, i32 0, i32 9
  store i32 1, i32* %37, align 8
  %38 = getelementptr inbounds %"class.std::__detail::_Scanner", %"class.std::__detail::_Scanner"* %6, i32 0, i32 4
  %39 = load i8*, i8** %4, align 8
  %40 = load i8, i8* %39, align 1
  %41 = call dereferenceable(32) %"class.std::__cxx11::basic_string"* @_ZNSt7__cxx1112basic_stringIcSt11char_traitsIcESaIcEE6assignEmc(%"class.std::__cxx11::basic_string"* %38, i64 1, i8 signext %40)
  br label %205

; <label>:42:                                     ; preds = %30, %13
  %43 = load i8, i8* %3, align 1
  %44 = sext i8 %43 to i32
  %45 = icmp eq i32 %44, 98
  br i1 %45, label %46, label %51

; <label>:46:                                     ; preds = %42
  %47 = bitcast %"class.std::__detail::_Scanner"* %6 to %"struct.std::__detail::_ScannerBase"*
  %48 = getelementptr inbounds %"struct.std::__detail::_ScannerBase", %"struct.std::__detail::_ScannerBase"* %47, i32 0, i32 9
  store i32 24, i32* %48, align 8
  %49 = getelementptr inbounds %"class.std::__detail::_Scanner", %"class.std::__detail::_Scanner"* %6, i32 0, i32 4
  %50 = call dereferenceable(32) %"class.std::__cxx11::basic_string"* @_ZNSt7__cxx1112basic_stringIcSt11char_traitsIcESaIcEE6assignEmc(%"class.std::__cxx11::basic_string"* %49, i64 1, i8 signext 112)
  br label %204

; <label>:51:                                     ; preds = %42
  %52 = load i8, i8* %3, align 1
  %53 = sext i8 %52 to i32
  %54 = icmp eq i32 %53, 66
  br i1 %54, label %55, label %60

; <label>:55:                                     ; preds = %51
  %56 = bitcast %"class.std::__detail::_Scanner"* %6 to %"struct.std::__detail::_ScannerBase"*
  %57 = getelementptr inbounds %"struct.std::__detail::_ScannerBase", %"struct.std::__detail::_ScannerBase"* %56, i32 0, i32 9
  store i32 24, i32* %57, align 8
  %58 = getelementptr inbounds %"class.std::__detail::_Scanner", %"class.std::__detail::_Scanner"* %6, i32 0, i32 4
  %59 = call dereferenceable(32) %"class.std::__cxx11::basic_string"* @_ZNSt7__cxx1112basic_stringIcSt11char_traitsIcESaIcEE6assignEmc(%"class.std::__cxx11::basic_string"* %58, i64 1, i8 signext 110)
  br label %203

; <label>:60:                                     ; preds = %51
  %61 = load i8, i8* %3, align 1
  %62 = sext i8 %61 to i32
  %63 = icmp eq i32 %62, 100
  br i1 %63, label %84, label %64

; <label>:64:                                     ; preds = %60
  %65 = load i8, i8* %3, align 1
  %66 = sext i8 %65 to i32
  %67 = icmp eq i32 %66, 68
  br i1 %67, label %84, label %68

; <label>:68:                                     ; preds = %64
  %69 = load i8, i8* %3, align 1
  %70 = sext i8 %69 to i32
  %71 = icmp eq i32 %70, 115
  br i1 %71, label %84, label %72

; <label>:72:                                     ; preds = %68
  %73 = load i8, i8* %3, align 1
  %74 = sext i8 %73 to i32
  %75 = icmp eq i32 %74, 83
  br i1 %75, label %84, label %76

; <label>:76:                                     ; preds = %72
  %77 = load i8, i8* %3, align 1
  %78 = sext i8 %77 to i32
  %79 = icmp eq i32 %78, 119
  br i1 %79, label %84, label %80

; <label>:80:                                     ; preds = %76
  %81 = load i8, i8* %3, align 1
  %82 = sext i8 %81 to i32
  %83 = icmp eq i32 %82, 87
  br i1 %83, label %84, label %90

; <label>:84:                                     ; preds = %80, %76, %72, %68, %64, %60
  %85 = bitcast %"class.std::__detail::_Scanner"* %6 to %"struct.std::__detail::_ScannerBase"*
  %86 = getelementptr inbounds %"struct.std::__detail::_ScannerBase", %"struct.std::__detail::_ScannerBase"* %85, i32 0, i32 9
  store i32 14, i32* %86, align 8
  %87 = getelementptr inbounds %"class.std::__detail::_Scanner", %"class.std::__detail::_Scanner"* %6, i32 0, i32 4
  %88 = load i8, i8* %3, align 1
  %89 = call dereferenceable(32) %"class.std::__cxx11::basic_string"* @_ZNSt7__cxx1112basic_stringIcSt11char_traitsIcESaIcEE6assignEmc(%"class.std::__cxx11::basic_string"* %87, i64 1, i8 signext %88)
  br label %202

; <label>:90:                                     ; preds = %80
  %91 = load i8, i8* %3, align 1
  %92 = sext i8 %91 to i32
  %93 = icmp eq i32 %92, 99
  br i1 %93, label %94, label %110

; <label>:94:                                     ; preds = %90
  %95 = getelementptr inbounds %"class.std::__detail::_Scanner", %"class.std::__detail::_Scanner"* %6, i32 0, i32 1
  %96 = load i8*, i8** %95, align 8
  %97 = getelementptr inbounds %"class.std::__detail::_Scanner", %"class.std::__detail::_Scanner"* %6, i32 0, i32 2
  %98 = load i8*, i8** %97, align 8
  %99 = icmp eq i8* %96, %98
  br i1 %99, label %100, label %101

; <label>:100:                                    ; preds = %94
  call void @_ZSt19__throw_regex_errorNSt15regex_constants10error_typeE(i32 2)
  br label %101

; <label>:101:                                    ; preds = %100, %94
  %102 = bitcast %"class.std::__detail::_Scanner"* %6 to %"struct.std::__detail::_ScannerBase"*
  %103 = getelementptr inbounds %"struct.std::__detail::_ScannerBase", %"struct.std::__detail::_ScannerBase"* %102, i32 0, i32 9
  store i32 1, i32* %103, align 8
  %104 = getelementptr inbounds %"class.std::__detail::_Scanner", %"class.std::__detail::_Scanner"* %6, i32 0, i32 4
  %105 = getelementptr inbounds %"class.std::__detail::_Scanner", %"class.std::__detail::_Scanner"* %6, i32 0, i32 1
  %106 = load i8*, i8** %105, align 8
  %107 = getelementptr inbounds i8, i8* %106, i32 1
  store i8* %107, i8** %105, align 8
  %108 = load i8, i8* %106, align 1
  %109 = call dereferenceable(32) %"class.std::__cxx11::basic_string"* @_ZNSt7__cxx1112basic_stringIcSt11char_traitsIcESaIcEE6assignEmc(%"class.std::__cxx11::basic_string"* %104, i64 1, i8 signext %108)
  br label %201

; <label>:110:                                    ; preds = %90
  %111 = load i8, i8* %3, align 1
  %112 = sext i8 %111 to i32
  %113 = icmp eq i32 %112, 120
  br i1 %113, label %118, label %114

; <label>:114:                                    ; preds = %110
  %115 = load i8, i8* %3, align 1
  %116 = sext i8 %115 to i32
  %117 = icmp eq i32 %116, 117
  br i1 %117, label %118, label %159

; <label>:118:                                    ; preds = %114, %110
  %119 = getelementptr inbounds %"class.std::__detail::_Scanner", %"class.std::__detail::_Scanner"* %6, i32 0, i32 4
  %120 = call dereferenceable(32) %"class.std::__cxx11::basic_string"* @_ZNSt7__cxx1112basic_stringIcSt11char_traitsIcESaIcEE5eraseEmm(%"class.std::__cxx11::basic_string"* %119, i64 0, i64 -1)
  store i32 0, i32* %5, align 4
  br label %121

; <label>:121:                                    ; preds = %149, %118
  %122 = load i32, i32* %5, align 4
  %123 = load i8, i8* %3, align 1
  %124 = sext i8 %123 to i32
  %125 = icmp eq i32 %124, 120
  %126 = select i1 %125, i32 2, i32 4
  %127 = icmp slt i32 %122, %126
  br i1 %127, label %128, label %156

; <label>:128:                                    ; preds = %121
  %129 = getelementptr inbounds %"class.std::__detail::_Scanner", %"class.std::__detail::_Scanner"* %6, i32 0, i32 1
  %130 = load i8*, i8** %129, align 8
  %131 = getelementptr inbounds %"class.std::__detail::_Scanner", %"class.std::__detail::_Scanner"* %6, i32 0, i32 2
  %132 = load i8*, i8** %131, align 8
  %133 = icmp eq i8* %130, %132
  br i1 %133, label %141, label %134

; <label>:134:                                    ; preds = %128
  %135 = getelementptr inbounds %"class.std::__detail::_Scanner", %"class.std::__detail::_Scanner"* %6, i32 0, i32 3
  %136 = load %"class.std::ctype"*, %"class.std::ctype"** %135, align 8
  %137 = getelementptr inbounds %"class.std::__detail::_Scanner", %"class.std::__detail::_Scanner"* %6, i32 0, i32 1
  %138 = load i8*, i8** %137, align 8
  %139 = load i8, i8* %138, align 1
  %140 = call zeroext i1 @_ZNKSt5ctypeIcE2isEtc(%"class.std::ctype"* %136, i16 zeroext 4096, i8 signext %139)
  br i1 %140, label %142, label %141

; <label>:141:                                    ; preds = %134, %128
  call void @_ZSt19__throw_regex_errorNSt15regex_constants10error_typeE(i32 2)
  br label %142

; <label>:142:                                    ; preds = %141, %134
  %143 = getelementptr inbounds %"class.std::__detail::_Scanner", %"class.std::__detail::_Scanner"* %6, i32 0, i32 1
  %144 = load i8*, i8** %143, align 8
  %145 = getelementptr inbounds i8, i8* %144, i32 1
  store i8* %145, i8** %143, align 8
  %146 = load i8, i8* %144, align 1
  %147 = getelementptr inbounds %"class.std::__detail::_Scanner", %"class.std::__detail::_Scanner"* %6, i32 0, i32 4
  %148 = call dereferenceable(32) %"class.std::__cxx11::basic_string"* @_ZNSt7__cxx1112basic_stringIcSt11char_traitsIcESaIcEEpLEc(%"class.std::__cxx11::basic_string"* %147, i8 signext %146)
  br label %149

; <label>:149:                                    ; preds = %142
  %150 = load i32, i32* %5, align 4
  %151 = sub i32 0, %150
  %152 = sub i32 0, 1
  %153 = add i32 %151, %152
  %154 = sub i32 0, %153
  %155 = add nsw i32 %150, 1
  store i32 %154, i32* %5, align 4
  br label %121

; <label>:156:                                    ; preds = %121
  %157 = bitcast %"class.std::__detail::_Scanner"* %6 to %"struct.std::__detail::_ScannerBase"*
  %158 = getelementptr inbounds %"struct.std::__detail::_ScannerBase", %"struct.std::__detail::_ScannerBase"* %157, i32 0, i32 9
  store i32 3, i32* %158, align 8
  br label %200

; <label>:159:                                    ; preds = %114
  %160 = getelementptr inbounds %"class.std::__detail::_Scanner", %"class.std::__detail::_Scanner"* %6, i32 0, i32 3
  %161 = load %"class.std::ctype"*, %"class.std::ctype"** %160, align 8
  %162 = load i8, i8* %3, align 1
  %163 = call zeroext i1 @_ZNKSt5ctypeIcE2isEtc(%"class.std::ctype"* %161, i16 zeroext 2048, i8 signext %162)
  br i1 %163, label %164, label %193

; <label>:164:                                    ; preds = %159
  %165 = getelementptr inbounds %"class.std::__detail::_Scanner", %"class.std::__detail::_Scanner"* %6, i32 0, i32 4
  %166 = load i8, i8* %3, align 1
  %167 = call dereferenceable(32) %"class.std::__cxx11::basic_string"* @_ZNSt7__cxx1112basic_stringIcSt11char_traitsIcESaIcEE6assignEmc(%"class.std::__cxx11::basic_string"* %165, i64 1, i8 signext %166)
  br label %168

; <label>:168:                                    ; preds = %183, %164
  %169 = getelementptr inbounds %"class.std::__detail::_Scanner", %"class.std::__detail::_Scanner"* %6, i32 0, i32 1
  %170 = load i8*, i8** %169, align 8
  %171 = getelementptr inbounds %"class.std::__detail::_Scanner", %"class.std::__detail::_Scanner"* %6, i32 0, i32 2
  %172 = load i8*, i8** %171, align 8
  %173 = icmp ne i8* %170, %172
  br i1 %173, label %174, label %181

; <label>:174:                                    ; preds = %168
  %175 = getelementptr inbounds %"class.std::__detail::_Scanner", %"class.std::__detail::_Scanner"* %6, i32 0, i32 3
  %176 = load %"class.std::ctype"*, %"class.std::ctype"** %175, align 8
  %177 = getelementptr inbounds %"class.std::__detail::_Scanner", %"class.std::__detail::_Scanner"* %6, i32 0, i32 1
  %178 = load i8*, i8** %177, align 8
  %179 = load i8, i8* %178, align 1
  %180 = call zeroext i1 @_ZNKSt5ctypeIcE2isEtc(%"class.std::ctype"* %176, i16 zeroext 2048, i8 signext %179)
  br label %181

; <label>:181:                                    ; preds = %174, %168
  %182 = phi i1 [ false, %168 ], [ %180, %174 ]
  br i1 %182, label %183, label %190

; <label>:183:                                    ; preds = %181
  %184 = getelementptr inbounds %"class.std::__detail::_Scanner", %"class.std::__detail::_Scanner"* %6, i32 0, i32 1
  %185 = load i8*, i8** %184, align 8
  %186 = getelementptr inbounds i8, i8* %185, i32 1
  store i8* %186, i8** %184, align 8
  %187 = load i8, i8* %185, align 1
  %188 = getelementptr inbounds %"class.std::__detail::_Scanner", %"class.std::__detail::_Scanner"* %6, i32 0, i32 4
  %189 = call dereferenceable(32) %"class.std::__cxx11::basic_string"* @_ZNSt7__cxx1112basic_stringIcSt11char_traitsIcESaIcEEpLEc(%"class.std::__cxx11::basic_string"* %188, i8 signext %187)
  br label %168

; <label>:190:                                    ; preds = %181
  %191 = bitcast %"class.std::__detail::_Scanner"* %6 to %"struct.std::__detail::_ScannerBase"*
  %192 = getelementptr inbounds %"struct.std::__detail::_ScannerBase", %"struct.std::__detail::_ScannerBase"* %191, i32 0, i32 9
  store i32 4, i32* %192, align 8
  br label %199

; <label>:193:                                    ; preds = %159
  %194 = bitcast %"class.std::__detail::_Scanner"* %6 to %"struct.std::__detail::_ScannerBase"*
  %195 = getelementptr inbounds %"struct.std::__detail::_ScannerBase", %"struct.std::__detail::_ScannerBase"* %194, i32 0, i32 9
  store i32 1, i32* %195, align 8
  %196 = getelementptr inbounds %"class.std::__detail::_Scanner", %"class.std::__detail::_Scanner"* %6, i32 0, i32 4
  %197 = load i8, i8* %3, align 1
  %198 = call dereferenceable(32) %"class.std::__cxx11::basic_string"* @_ZNSt7__cxx1112basic_stringIcSt11char_traitsIcESaIcEE6assignEmc(%"class.std::__cxx11::basic_string"* %196, i64 1, i8 signext %197)
  br label %199

; <label>:199:                                    ; preds = %193, %190
  br label %200

; <label>:200:                                    ; preds = %199, %156
  br label %201

; <label>:201:                                    ; preds = %200, %101
  br label %202

; <label>:202:                                    ; preds = %201, %84
  br label %203

; <label>:203:                                    ; preds = %202, %55
  br label %204

; <label>:204:                                    ; preds = %203, %46
  br label %205

; <label>:205:                                    ; preds = %204, %35
  ret void
}

; Function Attrs: noinline uwtable
define linkonce_odr void @_ZNSt8__detail8_ScannerIcE19_M_eat_escape_posixEv(%"class.std::__detail::_Scanner"*) #0 comdat align 2 {
  %2 = alloca %"class.std::__detail::_Scanner"*, align 8
  %3 = alloca i8, align 1
  %4 = alloca i8*, align 8
  store %"class.std::__detail::_Scanner"* %0, %"class.std::__detail::_Scanner"** %2, align 8
  %5 = load %"class.std::__detail::_Scanner"*, %"class.std::__detail::_Scanner"** %2, align 8
  %6 = getelementptr inbounds %"class.std::__detail::_Scanner", %"class.std::__detail::_Scanner"* %5, i32 0, i32 1
  %7 = load i8*, i8** %6, align 8
  %8 = getelementptr inbounds %"class.std::__detail::_Scanner", %"class.std::__detail::_Scanner"* %5, i32 0, i32 2
  %9 = load i8*, i8** %8, align 8
  %10 = icmp eq i8* %7, %9
  br i1 %10, label %11, label %12

; <label>:11:                                     ; preds = %1
  call void @_ZSt19__throw_regex_errorNSt15regex_constants10error_typeE(i32 2)
  br label %12

; <label>:12:                                     ; preds = %11, %1
  %13 = getelementptr inbounds %"class.std::__detail::_Scanner", %"class.std::__detail::_Scanner"* %5, i32 0, i32 1
  %14 = load i8*, i8** %13, align 8
  %15 = load i8, i8* %14, align 1
  store i8 %15, i8* %3, align 1
  %16 = bitcast %"class.std::__detail::_Scanner"* %5 to %"struct.std::__detail::_ScannerBase"*
  %17 = getelementptr inbounds %"struct.std::__detail::_ScannerBase", %"struct.std::__detail::_ScannerBase"* %16, i32 0, i32 12
  %18 = load i8*, i8** %17, align 8
  %19 = getelementptr inbounds %"class.std::__detail::_Scanner", %"class.std::__detail::_Scanner"* %5, i32 0, i32 3
  %20 = load %"class.std::ctype"*, %"class.std::ctype"** %19, align 8
  %21 = load i8, i8* %3, align 1
  %22 = call signext i8 @_ZNKSt5ctypeIcE6narrowEcc(%"class.std::ctype"* %20, i8 signext %21, i8 signext 0)
  %23 = sext i8 %22 to i32
  %24 = call i8* @strchr(i8* %18, i32 %23) #7
  store i8* %24, i8** %4, align 8
  %25 = load i8*, i8** %4, align 8
  %26 = icmp ne i8* %25, null
  br i1 %26, label %27, label %38

; <label>:27:                                     ; preds = %12
  %28 = load i8*, i8** %4, align 8
  %29 = load i8, i8* %28, align 1
  %30 = sext i8 %29 to i32
  %31 = icmp ne i32 %30, 0
  br i1 %31, label %32, label %38

; <label>:32:                                     ; preds = %27
  %33 = bitcast %"class.std::__detail::_Scanner"* %5 to %"struct.std::__detail::_ScannerBase"*
  %34 = getelementptr inbounds %"struct.std::__detail::_ScannerBase", %"struct.std::__detail::_ScannerBase"* %33, i32 0, i32 9
  store i32 1, i32* %34, align 8
  %35 = getelementptr inbounds %"class.std::__detail::_Scanner", %"class.std::__detail::_Scanner"* %5, i32 0, i32 4
  %36 = load i8, i8* %3, align 1
  %37 = call dereferenceable(32) %"class.std::__cxx11::basic_string"* @_ZNSt7__cxx1112basic_stringIcSt11char_traitsIcESaIcEE6assignEmc(%"class.std::__cxx11::basic_string"* %35, i64 1, i8 signext %36)
  br label %63

; <label>:38:                                     ; preds = %27, %12
  %39 = bitcast %"class.std::__detail::_Scanner"* %5 to %"struct.std::__detail::_ScannerBase"*
  %40 = call zeroext i1 @_ZNKSt8__detail12_ScannerBase9_M_is_awkEv(%"struct.std::__detail::_ScannerBase"* %39)
  br i1 %40, label %41, label %42

; <label>:41:                                     ; preds = %38
  call void @_ZNSt8__detail8_ScannerIcE17_M_eat_escape_awkEv(%"class.std::__detail::_Scanner"* %5)
  br label %67

; <label>:42:                                     ; preds = %38
  %43 = bitcast %"class.std::__detail::_Scanner"* %5 to %"struct.std::__detail::_ScannerBase"*
  %44 = call zeroext i1 @_ZNKSt8__detail12_ScannerBase11_M_is_basicEv(%"struct.std::__detail::_ScannerBase"* %43)
  br i1 %44, label %45, label %60

; <label>:45:                                     ; preds = %42
  %46 = getelementptr inbounds %"class.std::__detail::_Scanner", %"class.std::__detail::_Scanner"* %5, i32 0, i32 3
  %47 = load %"class.std::ctype"*, %"class.std::ctype"** %46, align 8
  %48 = load i8, i8* %3, align 1
  %49 = call zeroext i1 @_ZNKSt5ctypeIcE2isEtc(%"class.std::ctype"* %47, i16 zeroext 2048, i8 signext %48)
  br i1 %49, label %50, label %60

; <label>:50:                                     ; preds = %45
  %51 = load i8, i8* %3, align 1
  %52 = sext i8 %51 to i32
  %53 = icmp ne i32 %52, 48
  br i1 %53, label %54, label %60

; <label>:54:                                     ; preds = %50
  %55 = bitcast %"class.std::__detail::_Scanner"* %5 to %"struct.std::__detail::_ScannerBase"*
  %56 = getelementptr inbounds %"struct.std::__detail::_ScannerBase", %"struct.std::__detail::_ScannerBase"* %55, i32 0, i32 9
  store i32 4, i32* %56, align 8
  %57 = getelementptr inbounds %"class.std::__detail::_Scanner", %"class.std::__detail::_Scanner"* %5, i32 0, i32 4
  %58 = load i8, i8* %3, align 1
  %59 = call dereferenceable(32) %"class.std::__cxx11::basic_string"* @_ZNSt7__cxx1112basic_stringIcSt11char_traitsIcESaIcEE6assignEmc(%"class.std::__cxx11::basic_string"* %57, i64 1, i8 signext %58)
  br label %61

; <label>:60:                                     ; preds = %50, %45, %42
  call void @_ZSt19__throw_regex_errorNSt15regex_constants10error_typeE(i32 2)
  br label %61

; <label>:61:                                     ; preds = %60, %54
  br label %62

; <label>:62:                                     ; preds = %61
  br label %63

; <label>:63:                                     ; preds = %62, %32
  %64 = getelementptr inbounds %"class.std::__detail::_Scanner", %"class.std::__detail::_Scanner"* %5, i32 0, i32 1
  %65 = load i8*, i8** %64, align 8
  %66 = getelementptr inbounds i8, i8* %65, i32 1
  store i8* %66, i8** %64, align 8
  br label %67

; <label>:67:                                     ; preds = %63, %41
  ret void
}

; Function Attrs: noinline uwtable
define linkonce_odr void @_ZNSt8__detail8_ScannerIcE10_M_advanceEv(%"class.std::__detail::_Scanner"*) #0 comdat align 2 {
  %2 = alloca %"class.std::__detail::_Scanner"*, align 8
  store %"class.std::__detail::_Scanner"* %0, %"class.std::__detail::_Scanner"** %2, align 8
  %3 = load %"class.std::__detail::_Scanner"*, %"class.std::__detail::_Scanner"** %2, align 8
  %4 = getelementptr inbounds %"class.std::__detail::_Scanner", %"class.std::__detail::_Scanner"* %3, i32 0, i32 1
  %5 = load i8*, i8** %4, align 8
  %6 = getelementptr inbounds %"class.std::__detail::_Scanner", %"class.std::__detail::_Scanner"* %3, i32 0, i32 2
  %7 = load i8*, i8** %6, align 8
  %8 = icmp eq i8* %5, %7
  br i1 %8, label %9, label %12

; <label>:9:                                      ; preds = %1
  %10 = bitcast %"class.std::__detail::_Scanner"* %3 to %"struct.std::__detail::_ScannerBase"*
  %11 = getelementptr inbounds %"struct.std::__detail::_ScannerBase", %"struct.std::__detail::_ScannerBase"* %10, i32 0, i32 9
  store i32 27, i32* %11, align 8
  br label %33

; <label>:12:                                     ; preds = %1
  %13 = bitcast %"class.std::__detail::_Scanner"* %3 to %"struct.std::__detail::_ScannerBase"*
  %14 = getelementptr inbounds %"struct.std::__detail::_ScannerBase", %"struct.std::__detail::_ScannerBase"* %13, i32 0, i32 7
  %15 = load i32, i32* %14, align 8
  %16 = icmp eq i32 %15, 0
  br i1 %16, label %17, label %18

; <label>:17:                                     ; preds = %12
  call void @_ZNSt8__detail8_ScannerIcE14_M_scan_normalEv(%"class.std::__detail::_Scanner"* %3)
  br label %33

; <label>:18:                                     ; preds = %12
  %19 = bitcast %"class.std::__detail::_Scanner"* %3 to %"struct.std::__detail::_ScannerBase"*
  %20 = getelementptr inbounds %"struct.std::__detail::_ScannerBase", %"struct.std::__detail::_ScannerBase"* %19, i32 0, i32 7
  %21 = load i32, i32* %20, align 8
  %22 = icmp eq i32 %21, 2
  br i1 %22, label %23, label %24

; <label>:23:                                     ; preds = %18
  call void @_ZNSt8__detail8_ScannerIcE18_M_scan_in_bracketEv(%"class.std::__detail::_Scanner"* %3)
  br label %32

; <label>:24:                                     ; preds = %18
  %25 = bitcast %"class.std::__detail::_Scanner"* %3 to %"struct.std::__detail::_ScannerBase"*
  %26 = getelementptr inbounds %"struct.std::__detail::_ScannerBase", %"struct.std::__detail::_ScannerBase"* %25, i32 0, i32 7
  %27 = load i32, i32* %26, align 8
  %28 = icmp eq i32 %27, 1
  br i1 %28, label %29, label %30

; <label>:29:                                     ; preds = %24
  call void @_ZNSt8__detail8_ScannerIcE16_M_scan_in_braceEv(%"class.std::__detail::_Scanner"* %3)
  br label %31

; <label>:30:                                     ; preds = %24
  br label %31

; <label>:31:                                     ; preds = %30, %29
  br label %32

; <label>:32:                                     ; preds = %31, %23
  br label %33

; <label>:33:                                     ; preds = %9, %32, %17
  ret void
}

; Function Attrs: noinline nounwind uwtable
define linkonce_odr void @_ZNSt4pairIcNSt8__detail12_ScannerBase7_TokenTEEC2IcS2_vEEOT_OT0_(%"struct.std::pair"*, i8* dereferenceable(1), i32* dereferenceable(4)) unnamed_addr #5 comdat align 2 {
  %4 = alloca %"struct.std::pair"*, align 8
  %5 = alloca i8*, align 8
  %6 = alloca i32*, align 8
  store %"struct.std::pair"* %0, %"struct.std::pair"** %4, align 8
  store i8* %1, i8** %5, align 8
  store i32* %2, i32** %6, align 8
  %7 = load %"struct.std::pair"*, %"struct.std::pair"** %4, align 8
  %8 = getelementptr inbounds %"struct.std::pair", %"struct.std::pair"* %7, i32 0, i32 0
  %9 = load i8*, i8** %5, align 8
  %10 = call dereferenceable(1) i8* @_ZSt7forwardIcEOT_RNSt16remove_referenceIS0_E4typeE(i8* dereferenceable(1) %9) #3
  %11 = load i8, i8* %10, align 1
  store i8 %11, i8* %8, align 4
  %12 = getelementptr inbounds %"struct.std::pair", %"struct.std::pair"* %7, i32 0, i32 1
  %13 = load i32*, i32** %6, align 8
  %14 = call dereferenceable(4) i32* @_ZSt7forwardINSt8__detail12_ScannerBase7_TokenTEEOT_RNSt16remove_referenceIS3_E4typeE(i32* dereferenceable(4) %13) #3
  %15 = load i32, i32* %14, align 4
  store i32 %15, i32* %12, align 4
  ret void
}

; Function Attrs: noinline nounwind uwtable
define linkonce_odr void @_ZNSt4pairIccEC2IccvEEOT_OT0_(%"struct.std::pair.9"*, i8* dereferenceable(1), i8* dereferenceable(1)) unnamed_addr #5 comdat align 2 {
  %4 = alloca %"struct.std::pair.9"*, align 8
  %5 = alloca i8*, align 8
  %6 = alloca i8*, align 8
  store %"struct.std::pair.9"* %0, %"struct.std::pair.9"** %4, align 8
  store i8* %1, i8** %5, align 8
  store i8* %2, i8** %6, align 8
  %7 = load %"struct.std::pair.9"*, %"struct.std::pair.9"** %4, align 8
  %8 = getelementptr inbounds %"struct.std::pair.9", %"struct.std::pair.9"* %7, i32 0, i32 0
  %9 = load i8*, i8** %5, align 8
  %10 = call dereferenceable(1) i8* @_ZSt7forwardIcEOT_RNSt16remove_referenceIS0_E4typeE(i8* dereferenceable(1) %9) #3
  %11 = load i8, i8* %10, align 1
  store i8 %11, i8* %8, align 1
  %12 = getelementptr inbounds %"struct.std::pair.9", %"struct.std::pair.9"* %7, i32 0, i32 1
  %13 = load i8*, i8** %6, align 8
  %14 = call dereferenceable(1) i8* @_ZSt7forwardIcEOT_RNSt16remove_referenceIS0_E4typeE(i8* dereferenceable(1) %13) #3
  %15 = load i8, i8* %14, align 1
  store i8 %15, i8* %12, align 1
  ret void
}

; Function Attrs: noinline nounwind uwtable
define linkonce_odr dereferenceable(1) i8* @_ZSt7forwardIcEOT_RNSt16remove_referenceIS0_E4typeE(i8* dereferenceable(1)) #5 comdat {
  %2 = alloca i8*, align 8
  store i8* %0, i8** %2, align 8
  %3 = load i8*, i8** %2, align 8
  ret i8* %3
}

; Function Attrs: noinline nounwind uwtable
define linkonce_odr dereferenceable(4) i32* @_ZSt7forwardINSt8__detail12_ScannerBase7_TokenTEEOT_RNSt16remove_referenceIS3_E4typeE(i32* dereferenceable(4)) #5 comdat {
  %2 = alloca i32*, align 8
  store i32* %0, i32** %2, align 8
  %3 = load i32*, i32** %2, align 8
  ret i32* %3
}

; Function Attrs: nounwind
declare i64 @_ZNKSt6locale2id5_M_idEv(%"class.std::locale::id"*) #2

; Function Attrs: noreturn
declare void @_ZSt16__throw_bad_castv() #6

; Function Attrs: nounwind readonly
declare i8* @__dynamic_cast(i8*, i8*, i8*, i64) #7

declare void @__cxa_bad_cast()

; Function Attrs: noinline nounwind uwtable
define linkonce_odr i8* @_ZNSt8__detail12_ScannerBase14_M_find_escapeEc(%"struct.std::__detail::_ScannerBase"*, i8 signext) #5 comdat align 2 {
  %3 = alloca i8*, align 8
  %4 = alloca %"struct.std::__detail::_ScannerBase"*, align 8
  %5 = alloca i8, align 1
  %6 = alloca %"struct.std::pair.9"*, align 8
  store %"struct.std::__detail::_ScannerBase"* %0, %"struct.std::__detail::_ScannerBase"** %4, align 8
  store i8 %1, i8* %5, align 1
  %7 = load %"struct.std::__detail::_ScannerBase"*, %"struct.std::__detail::_ScannerBase"** %4, align 8
  %8 = getelementptr inbounds %"struct.std::__detail::_ScannerBase", %"struct.std::__detail::_ScannerBase"* %7, i32 0, i32 11
  %9 = load %"struct.std::pair.9"*, %"struct.std::pair.9"** %8, align 8
  store %"struct.std::pair.9"* %9, %"struct.std::pair.9"** %6, align 8
  br label %10

; <label>:10:                                     ; preds = %28, %2
  %11 = load %"struct.std::pair.9"*, %"struct.std::pair.9"** %6, align 8
  %12 = getelementptr inbounds %"struct.std::pair.9", %"struct.std::pair.9"* %11, i32 0, i32 0
  %13 = load i8, i8* %12, align 1
  %14 = sext i8 %13 to i32
  %15 = icmp ne i32 %14, 0
  br i1 %15, label %16, label %31

; <label>:16:                                     ; preds = %10
  %17 = load %"struct.std::pair.9"*, %"struct.std::pair.9"** %6, align 8
  %18 = getelementptr inbounds %"struct.std::pair.9", %"struct.std::pair.9"* %17, i32 0, i32 0
  %19 = load i8, i8* %18, align 1
  %20 = sext i8 %19 to i32
  %21 = load i8, i8* %5, align 1
  %22 = sext i8 %21 to i32
  %23 = icmp eq i32 %20, %22
  br i1 %23, label %24, label %27

; <label>:24:                                     ; preds = %16
  %25 = load %"struct.std::pair.9"*, %"struct.std::pair.9"** %6, align 8
  %26 = getelementptr inbounds %"struct.std::pair.9", %"struct.std::pair.9"* %25, i32 0, i32 1
  store i8* %26, i8** %3, align 8
  br label %32

; <label>:27:                                     ; preds = %16
  br label %28

; <label>:28:                                     ; preds = %27
  %29 = load %"struct.std::pair.9"*, %"struct.std::pair.9"** %6, align 8
  %30 = getelementptr inbounds %"struct.std::pair.9", %"struct.std::pair.9"* %29, i32 1
  store %"struct.std::pair.9"* %30, %"struct.std::pair.9"** %6, align 8
  br label %10

; <label>:31:                                     ; preds = %10
  store i8* null, i8** %3, align 8
  br label %32

; <label>:32:                                     ; preds = %31, %24
  %33 = load i8*, i8** %3, align 8
  ret i8* %33
}

; Function Attrs: noinline uwtable
define linkonce_odr signext i8 @_ZNKSt5ctypeIcE6narrowEcc(%"class.std::ctype"*, i8 signext, i8 signext) #0 comdat align 2 {
  %4 = alloca i8, align 1
  %5 = alloca %"class.std::ctype"*, align 8
  %6 = alloca i8, align 1
  %7 = alloca i8, align 1
  %8 = alloca i8, align 1
  store %"class.std::ctype"* %0, %"class.std::ctype"** %5, align 8
  store i8 %1, i8* %6, align 1
  store i8 %2, i8* %7, align 1
  %9 = load %"class.std::ctype"*, %"class.std::ctype"** %5, align 8
  %10 = getelementptr inbounds %"class.std::ctype", %"class.std::ctype"* %9, i32 0, i32 10
  %11 = load i8, i8* %6, align 1
  %12 = zext i8 %11 to i64
  %13 = getelementptr inbounds [256 x i8], [256 x i8]* %10, i64 0, i64 %12
  %14 = load i8, i8* %13, align 1
  %15 = icmp ne i8 %14, 0
  br i1 %15, label %16, label %22

; <label>:16:                                     ; preds = %3
  %17 = getelementptr inbounds %"class.std::ctype", %"class.std::ctype"* %9, i32 0, i32 10
  %18 = load i8, i8* %6, align 1
  %19 = zext i8 %18 to i64
  %20 = getelementptr inbounds [256 x i8], [256 x i8]* %17, i64 0, i64 %19
  %21 = load i8, i8* %20, align 1
  store i8 %21, i8* %4, align 1
  br label %43

; <label>:22:                                     ; preds = %3
  %23 = bitcast %"class.std::ctype"* %9 to i8 (%"class.std::ctype"*, i8, i8)***
  %24 = load i8 (%"class.std::ctype"*, i8, i8)**, i8 (%"class.std::ctype"*, i8, i8)*** %23, align 8
  %25 = getelementptr inbounds i8 (%"class.std::ctype"*, i8, i8)*, i8 (%"class.std::ctype"*, i8, i8)** %24, i64 8
  %26 = load i8 (%"class.std::ctype"*, i8, i8)*, i8 (%"class.std::ctype"*, i8, i8)** %25, align 8
  %27 = load i8, i8* %6, align 1
  %28 = load i8, i8* %7, align 1
  %29 = call signext i8 %26(%"class.std::ctype"* %9, i8 signext %27, i8 signext %28)
  store i8 %29, i8* %8, align 1
  %30 = load i8, i8* %8, align 1
  %31 = sext i8 %30 to i32
  %32 = load i8, i8* %7, align 1
  %33 = sext i8 %32 to i32
  %34 = icmp ne i32 %31, %33
  br i1 %34, label %35, label %41

; <label>:35:                                     ; preds = %22
  %36 = load i8, i8* %8, align 1
  %37 = getelementptr inbounds %"class.std::ctype", %"class.std::ctype"* %9, i32 0, i32 10
  %38 = load i8, i8* %6, align 1
  %39 = zext i8 %38 to i64
  %40 = getelementptr inbounds [256 x i8], [256 x i8]* %37, i64 0, i64 %39
  store i8 %36, i8* %40, align 1
  br label %41

; <label>:41:                                     ; preds = %35, %22
  %42 = load i8, i8* %8, align 1
  store i8 %42, i8* %4, align 1
  br label %43

; <label>:43:                                     ; preds = %41, %16
  %44 = load i8, i8* %4, align 1
  ret i8 %44
}

declare dereferenceable(32) %"class.std::__cxx11::basic_string"* @_ZNSt7__cxx1112basic_stringIcSt11char_traitsIcESaIcEE6assignEmc(%"class.std::__cxx11::basic_string"*, i64, i8 signext) #1

declare dereferenceable(32) %"class.std::__cxx11::basic_string"* @_ZNSt7__cxx1112basic_stringIcSt11char_traitsIcESaIcEE5eraseEmm(%"class.std::__cxx11::basic_string"*, i64, i64) #1

; Function Attrs: noinline nounwind uwtable
define linkonce_odr zeroext i1 @_ZNKSt5ctypeIcE2isEtc(%"class.std::ctype"*, i16 zeroext, i8 signext) #5 comdat align 2 {
  %4 = alloca %"class.std::ctype"*, align 8
  %5 = alloca i16, align 2
  %6 = alloca i8, align 1
  store %"class.std::ctype"* %0, %"class.std::ctype"** %4, align 8
  store i16 %1, i16* %5, align 2
  store i8 %2, i8* %6, align 1
  %7 = load %"class.std::ctype"*, %"class.std::ctype"** %4, align 8
  %8 = getelementptr inbounds %"class.std::ctype", %"class.std::ctype"* %7, i32 0, i32 7
  %9 = load i16*, i16** %8, align 8
  %10 = load i8, i8* %6, align 1
  %11 = zext i8 %10 to i64
  %12 = getelementptr inbounds i16, i16* %9, i64 %11
  %13 = load i16, i16* %12, align 2
  %14 = zext i16 %13 to i32
  %15 = load i16, i16* %5, align 2
  %16 = zext i16 %15 to i32
  %17 = xor i32 %14, -1
  %18 = xor i32 %16, -1
  %19 = xor i32 -1776899238, -1
  %20 = or i32 %17, %18
  %21 = or i32 -1776899238, %19
  %22 = xor i32 %20, -1
  %23 = and i32 %22, %21
  %24 = and i32 %14, %16
  %25 = icmp ne i32 %23, 0
  ret i1 %25
}

declare dereferenceable(32) %"class.std::__cxx11::basic_string"* @_ZNSt7__cxx1112basic_stringIcSt11char_traitsIcESaIcEEpLEc(%"class.std::__cxx11::basic_string"*, i8 signext) #1

; Function Attrs: nounwind readonly
declare i8* @strchr(i8*, i32) #8

; Function Attrs: noinline nounwind uwtable
define linkonce_odr zeroext i1 @_ZNKSt8__detail12_ScannerBase9_M_is_awkEv(%"struct.std::__detail::_ScannerBase"*) #5 comdat align 2 {
  %2 = alloca %"struct.std::__detail::_ScannerBase"*, align 8
  store %"struct.std::__detail::_ScannerBase"* %0, %"struct.std::__detail::_ScannerBase"** %2, align 8
  %3 = load %"struct.std::__detail::_ScannerBase"*, %"struct.std::__detail::_ScannerBase"** %2, align 8
  %4 = getelementptr inbounds %"struct.std::__detail::_ScannerBase", %"struct.std::__detail::_ScannerBase"* %3, i32 0, i32 8
  %5 = load i32, i32* %4, align 4
  %6 = call i32 @_ZNSt15regex_constantsanENS_18syntax_option_typeES0_(i32 %5, i32 128)
  %7 = icmp ne i32 %6, 0
  ret i1 %7
}

; Function Attrs: noinline uwtable
define linkonce_odr void @_ZNSt8__detail8_ScannerIcE17_M_eat_escape_awkEv(%"class.std::__detail::_Scanner"*) #0 comdat align 2 {
  %2 = alloca %"class.std::__detail::_Scanner"*, align 8
  %3 = alloca i8, align 1
  %4 = alloca i8*, align 8
  %5 = alloca i32, align 4
  store %"class.std::__detail::_Scanner"* %0, %"class.std::__detail::_Scanner"** %2, align 8
  %6 = load %"class.std::__detail::_Scanner"*, %"class.std::__detail::_Scanner"** %2, align 8
  %7 = getelementptr inbounds %"class.std::__detail::_Scanner", %"class.std::__detail::_Scanner"* %6, i32 0, i32 1
  %8 = load i8*, i8** %7, align 8
  %9 = getelementptr inbounds i8, i8* %8, i32 1
  store i8* %9, i8** %7, align 8
  %10 = load i8, i8* %8, align 1
  store i8 %10, i8* %3, align 1
  %11 = bitcast %"class.std::__detail::_Scanner"* %6 to %"struct.std::__detail::_ScannerBase"*
  %12 = getelementptr inbounds %"class.std::__detail::_Scanner", %"class.std::__detail::_Scanner"* %6, i32 0, i32 3
  %13 = load %"class.std::ctype"*, %"class.std::ctype"** %12, align 8
  %14 = load i8, i8* %3, align 1
  %15 = call signext i8 @_ZNKSt5ctypeIcE6narrowEcc(%"class.std::ctype"* %13, i8 signext %14, i8 signext 0)
  %16 = call i8* @_ZNSt8__detail12_ScannerBase14_M_find_escapeEc(%"struct.std::__detail::_ScannerBase"* %11, i8 signext %15)
  store i8* %16, i8** %4, align 8
  %17 = load i8*, i8** %4, align 8
  %18 = icmp ne i8* %17, null
  br i1 %18, label %19, label %26

; <label>:19:                                     ; preds = %1
  %20 = bitcast %"class.std::__detail::_Scanner"* %6 to %"struct.std::__detail::_ScannerBase"*
  %21 = getelementptr inbounds %"struct.std::__detail::_ScannerBase", %"struct.std::__detail::_ScannerBase"* %20, i32 0, i32 9
  store i32 1, i32* %21, align 8
  %22 = getelementptr inbounds %"class.std::__detail::_Scanner", %"class.std::__detail::_Scanner"* %6, i32 0, i32 4
  %23 = load i8*, i8** %4, align 8
  %24 = load i8, i8* %23, align 1
  %25 = call dereferenceable(32) %"class.std::__cxx11::basic_string"* @_ZNSt7__cxx1112basic_stringIcSt11char_traitsIcESaIcEE6assignEmc(%"class.std::__cxx11::basic_string"* %22, i64 1, i8 signext %24)
  br label %91

; <label>:26:                                     ; preds = %1
  %27 = getelementptr inbounds %"class.std::__detail::_Scanner", %"class.std::__detail::_Scanner"* %6, i32 0, i32 3
  %28 = load %"class.std::ctype"*, %"class.std::ctype"** %27, align 8
  %29 = load i8, i8* %3, align 1
  %30 = call zeroext i1 @_ZNKSt5ctypeIcE2isEtc(%"class.std::ctype"* %28, i16 zeroext 2048, i8 signext %29)
  br i1 %30, label %31, label %89

; <label>:31:                                     ; preds = %26
  %32 = load i8, i8* %3, align 1
  %33 = sext i8 %32 to i32
  %34 = icmp ne i32 %33, 56
  br i1 %34, label %35, label %89

; <label>:35:                                     ; preds = %31
  %36 = load i8, i8* %3, align 1
  %37 = sext i8 %36 to i32
  %38 = icmp ne i32 %37, 57
  br i1 %38, label %39, label %89

; <label>:39:                                     ; preds = %35
  %40 = getelementptr inbounds %"class.std::__detail::_Scanner", %"class.std::__detail::_Scanner"* %6, i32 0, i32 4
  %41 = load i8, i8* %3, align 1
  %42 = call dereferenceable(32) %"class.std::__cxx11::basic_string"* @_ZNSt7__cxx1112basic_stringIcSt11char_traitsIcESaIcEE6assignEmc(%"class.std::__cxx11::basic_string"* %40, i64 1, i8 signext %41)
  store i32 0, i32* %5, align 4
  br label %43

; <label>:43:                                     ; preds = %80, %39
  %44 = load i32, i32* %5, align 4
  %45 = icmp slt i32 %44, 2
  br i1 %45, label %46, label %71

; <label>:46:                                     ; preds = %43
  %47 = getelementptr inbounds %"class.std::__detail::_Scanner", %"class.std::__detail::_Scanner"* %6, i32 0, i32 1
  %48 = load i8*, i8** %47, align 8
  %49 = getelementptr inbounds %"class.std::__detail::_Scanner", %"class.std::__detail::_Scanner"* %6, i32 0, i32 2
  %50 = load i8*, i8** %49, align 8
  %51 = icmp ne i8* %48, %50
  br i1 %51, label %52, label %71

; <label>:52:                                     ; preds = %46
  %53 = getelementptr inbounds %"class.std::__detail::_Scanner", %"class.std::__detail::_Scanner"* %6, i32 0, i32 3
  %54 = load %"class.std::ctype"*, %"class.std::ctype"** %53, align 8
  %55 = getelementptr inbounds %"class.std::__detail::_Scanner", %"class.std::__detail::_Scanner"* %6, i32 0, i32 1
  %56 = load i8*, i8** %55, align 8
  %57 = load i8, i8* %56, align 1
  %58 = call zeroext i1 @_ZNKSt5ctypeIcE2isEtc(%"class.std::ctype"* %54, i16 zeroext 2048, i8 signext %57)
  br i1 %58, label %59, label %71

; <label>:59:                                     ; preds = %52
  %60 = getelementptr inbounds %"class.std::__detail::_Scanner", %"class.std::__detail::_Scanner"* %6, i32 0, i32 1
  %61 = load i8*, i8** %60, align 8
  %62 = load i8, i8* %61, align 1
  %63 = sext i8 %62 to i32
  %64 = icmp ne i32 %63, 56
  br i1 %64, label %65, label %71

; <label>:65:                                     ; preds = %59
  %66 = getelementptr inbounds %"class.std::__detail::_Scanner", %"class.std::__detail::_Scanner"* %6, i32 0, i32 1
  %67 = load i8*, i8** %66, align 8
  %68 = load i8, i8* %67, align 1
  %69 = sext i8 %68 to i32
  %70 = icmp ne i32 %69, 57
  br label %71

; <label>:71:                                     ; preds = %65, %59, %52, %46, %43
  %72 = phi i1 [ false, %59 ], [ false, %52 ], [ false, %46 ], [ false, %43 ], [ %70, %65 ]
  br i1 %72, label %73, label %86

; <label>:73:                                     ; preds = %71
  %74 = getelementptr inbounds %"class.std::__detail::_Scanner", %"class.std::__detail::_Scanner"* %6, i32 0, i32 1
  %75 = load i8*, i8** %74, align 8
  %76 = getelementptr inbounds i8, i8* %75, i32 1
  store i8* %76, i8** %74, align 8
  %77 = load i8, i8* %75, align 1
  %78 = getelementptr inbounds %"class.std::__detail::_Scanner", %"class.std::__detail::_Scanner"* %6, i32 0, i32 4
  %79 = call dereferenceable(32) %"class.std::__cxx11::basic_string"* @_ZNSt7__cxx1112basic_stringIcSt11char_traitsIcESaIcEEpLEc(%"class.std::__cxx11::basic_string"* %78, i8 signext %77)
  br label %80

; <label>:80:                                     ; preds = %73
  %81 = load i32, i32* %5, align 4
  %82 = sub i32 %81, -1309598421
  %83 = add i32 %82, 1
  %84 = add i32 %83, -1309598421
  %85 = add nsw i32 %81, 1
  store i32 %84, i32* %5, align 4
  br label %43

; <label>:86:                                     ; preds = %71
  %87 = bitcast %"class.std::__detail::_Scanner"* %6 to %"struct.std::__detail::_ScannerBase"*
  %88 = getelementptr inbounds %"struct.std::__detail::_ScannerBase", %"struct.std::__detail::_ScannerBase"* %87, i32 0, i32 9
  store i32 2, i32* %88, align 8
  br label %91

; <label>:89:                                     ; preds = %35, %31, %26
  call void @_ZSt19__throw_regex_errorNSt15regex_constants10error_typeE(i32 2)
  br label %90

; <label>:90:                                     ; preds = %89
  br label %91

; <label>:91:                                     ; preds = %86, %90, %19
  ret void
}

; Function Attrs: noinline nounwind uwtable
define linkonce_odr zeroext i1 @_ZNKSt8__detail12_ScannerBase11_M_is_basicEv(%"struct.std::__detail::_ScannerBase"*) #5 comdat align 2 {
  %2 = alloca %"struct.std::__detail::_ScannerBase"*, align 8
  store %"struct.std::__detail::_ScannerBase"* %0, %"struct.std::__detail::_ScannerBase"** %2, align 8
  %3 = load %"struct.std::__detail::_ScannerBase"*, %"struct.std::__detail::_ScannerBase"** %2, align 8
  %4 = getelementptr inbounds %"struct.std::__detail::_ScannerBase", %"struct.std::__detail::_ScannerBase"* %3, i32 0, i32 8
  %5 = load i32, i32* %4, align 4
  %6 = call i32 @_ZNSt15regex_constantsorENS_18syntax_option_typeES0_(i32 32, i32 256)
  %7 = call i32 @_ZNSt15regex_constantsanENS_18syntax_option_typeES0_(i32 %5, i32 %6)
  %8 = icmp ne i32 %7, 0
  ret i1 %8
}

; Function Attrs: noinline uwtable
define linkonce_odr void @_ZNSt8__detail8_ScannerIcE14_M_scan_normalEv(%"class.std::__detail::_Scanner"*) #0 comdat align 2 {
  %2 = alloca %"class.std::__detail::_Scanner"*, align 8
  %3 = alloca i8, align 1
  %4 = alloca %"struct.std::pair"*, align 8
  %5 = alloca i8, align 1
  store %"class.std::__detail::_Scanner"* %0, %"class.std::__detail::_Scanner"** %2, align 8
  %6 = load %"class.std::__detail::_Scanner"*, %"class.std::__detail::_Scanner"** %2, align 8
  %7 = getelementptr inbounds %"class.std::__detail::_Scanner", %"class.std::__detail::_Scanner"* %6, i32 0, i32 1
  %8 = load i8*, i8** %7, align 8
  %9 = getelementptr inbounds i8, i8* %8, i32 1
  store i8* %9, i8** %7, align 8
  %10 = load i8, i8* %8, align 1
  store i8 %10, i8* %3, align 1
  %11 = bitcast %"class.std::__detail::_Scanner"* %6 to %"struct.std::__detail::_ScannerBase"*
  %12 = getelementptr inbounds %"struct.std::__detail::_ScannerBase", %"struct.std::__detail::_ScannerBase"* %11, i32 0, i32 12
  %13 = load i8*, i8** %12, align 8
  %14 = getelementptr inbounds %"class.std::__detail::_Scanner", %"class.std::__detail::_Scanner"* %6, i32 0, i32 3
  %15 = load %"class.std::ctype"*, %"class.std::ctype"** %14, align 8
  %16 = load i8, i8* %3, align 1
  %17 = call signext i8 @_ZNKSt5ctypeIcE6narrowEcc(%"class.std::ctype"* %15, i8 signext %16, i8 signext 32)
  %18 = sext i8 %17 to i32
  %19 = call i8* @strchr(i8* %13, i32 %18) #7
  %20 = icmp eq i8* %19, null
  br i1 %20, label %21, label %27

; <label>:21:                                     ; preds = %1
  %22 = bitcast %"class.std::__detail::_Scanner"* %6 to %"struct.std::__detail::_ScannerBase"*
  %23 = getelementptr inbounds %"struct.std::__detail::_ScannerBase", %"struct.std::__detail::_ScannerBase"* %22, i32 0, i32 9
  store i32 1, i32* %23, align 8
  %24 = getelementptr inbounds %"class.std::__detail::_Scanner", %"class.std::__detail::_Scanner"* %6, i32 0, i32 4
  %25 = load i8, i8* %3, align 1
  %26 = call dereferenceable(32) %"class.std::__cxx11::basic_string"* @_ZNSt7__cxx1112basic_stringIcSt11char_traitsIcESaIcEE6assignEmc(%"class.std::__cxx11::basic_string"* %24, i64 1, i8 signext %25)
  br label %266

; <label>:27:                                     ; preds = %1
  %28 = load i8, i8* %3, align 1
  %29 = sext i8 %28 to i32
  %30 = icmp eq i32 %29, 92
  br i1 %30, label %31, label %90

; <label>:31:                                     ; preds = %27
  %32 = getelementptr inbounds %"class.std::__detail::_Scanner", %"class.std::__detail::_Scanner"* %6, i32 0, i32 1
  %33 = load i8*, i8** %32, align 8
  %34 = getelementptr inbounds %"class.std::__detail::_Scanner", %"class.std::__detail::_Scanner"* %6, i32 0, i32 2
  %35 = load i8*, i8** %34, align 8
  %36 = icmp eq i8* %33, %35
  br i1 %36, label %37, label %38

; <label>:37:                                     ; preds = %31
  call void @_ZSt19__throw_regex_errorNSt15regex_constants10error_typeE(i32 2)
  br label %38

; <label>:38:                                     ; preds = %37, %31
  %39 = bitcast %"class.std::__detail::_Scanner"* %6 to %"struct.std::__detail::_ScannerBase"*
  %40 = call zeroext i1 @_ZNKSt8__detail12_ScannerBase11_M_is_basicEv(%"struct.std::__detail::_ScannerBase"* %39)
  br i1 %40, label %41, label %59

; <label>:41:                                     ; preds = %38
  %42 = getelementptr inbounds %"class.std::__detail::_Scanner", %"class.std::__detail::_Scanner"* %6, i32 0, i32 1
  %43 = load i8*, i8** %42, align 8
  %44 = load i8, i8* %43, align 1
  %45 = sext i8 %44 to i32
  %46 = icmp ne i32 %45, 40
  br i1 %46, label %47, label %85

; <label>:47:                                     ; preds = %41
  %48 = getelementptr inbounds %"class.std::__detail::_Scanner", %"class.std::__detail::_Scanner"* %6, i32 0, i32 1
  %49 = load i8*, i8** %48, align 8
  %50 = load i8, i8* %49, align 1
  %51 = sext i8 %50 to i32
  %52 = icmp ne i32 %51, 41
  br i1 %52, label %53, label %85

; <label>:53:                                     ; preds = %47
  %54 = getelementptr inbounds %"class.std::__detail::_Scanner", %"class.std::__detail::_Scanner"* %6, i32 0, i32 1
  %55 = load i8*, i8** %54, align 8
  %56 = load i8, i8* %55, align 1
  %57 = sext i8 %56 to i32
  %58 = icmp ne i32 %57, 123
  br i1 %58, label %59, label %85

; <label>:59:                                     ; preds = %53, %38
  %60 = getelementptr inbounds %"class.std::__detail::_Scanner", %"class.std::__detail::_Scanner"* %6, i32 0, i32 5
  %61 = load { i64, i64 }, { i64, i64 }* %60, align 8
  %62 = extractvalue { i64, i64 } %61, 1
  %63 = bitcast %"class.std::__detail::_Scanner"* %6 to i8*
  %64 = getelementptr inbounds i8, i8* %63, i64 %62
  %65 = bitcast i8* %64 to %"class.std::__detail::_Scanner"*
  %66 = extractvalue { i64, i64 } %61, 0
  %67 = xor i64 1, -1
  %68 = xor i64 %66, %67
  %69 = and i64 %68, %66
  %70 = and i64 %66, 1
  %71 = icmp ne i64 %69, 0
  br i1 %71, label %72, label %81

; <label>:72:                                     ; preds = %59
  %73 = bitcast %"class.std::__detail::_Scanner"* %65 to i8**
  %74 = load i8*, i8** %73, align 8
  %75 = sub i64 0, 1
  %76 = add i64 %66, %75
  %77 = sub i64 %66, 1
  %78 = getelementptr i8, i8* %74, i64 %76
  %79 = bitcast i8* %78 to void (%"class.std::__detail::_Scanner"*)**
  %80 = load void (%"class.std::__detail::_Scanner"*)*, void (%"class.std::__detail::_Scanner"*)** %79, align 8
  br label %83

; <label>:81:                                     ; preds = %59
  %82 = inttoptr i64 %66 to void (%"class.std::__detail::_Scanner"*)*
  br label %83

; <label>:83:                                     ; preds = %81, %72
  %84 = phi void (%"class.std::__detail::_Scanner"*)* [ %80, %72 ], [ %82, %81 ]
  call void %84(%"class.std::__detail::_Scanner"* %65)
  br label %266

; <label>:85:                                     ; preds = %53, %47, %41
  %86 = getelementptr inbounds %"class.std::__detail::_Scanner", %"class.std::__detail::_Scanner"* %6, i32 0, i32 1
  %87 = load i8*, i8** %86, align 8
  %88 = getelementptr inbounds i8, i8* %87, i32 1
  store i8* %88, i8** %86, align 8
  %89 = load i8, i8* %87, align 1
  store i8 %89, i8* %3, align 1
  br label %90

; <label>:90:                                     ; preds = %85, %27
  %91 = load i8, i8* %3, align 1
  %92 = sext i8 %91 to i32
  %93 = icmp eq i32 %92, 40
  br i1 %93, label %94, label %169

; <label>:94:                                     ; preds = %90
  %95 = bitcast %"class.std::__detail::_Scanner"* %6 to %"struct.std::__detail::_ScannerBase"*
  %96 = call zeroext i1 @_ZNKSt8__detail12_ScannerBase10_M_is_ecmaEv(%"struct.std::__detail::_ScannerBase"* %95)
  br i1 %96, label %97, label %155

; <label>:97:                                     ; preds = %94
  %98 = getelementptr inbounds %"class.std::__detail::_Scanner", %"class.std::__detail::_Scanner"* %6, i32 0, i32 1
  %99 = load i8*, i8** %98, align 8
  %100 = load i8, i8* %99, align 1
  %101 = sext i8 %100 to i32
  %102 = icmp eq i32 %101, 63
  br i1 %102, label %103, label %155

; <label>:103:                                    ; preds = %97
  %104 = getelementptr inbounds %"class.std::__detail::_Scanner", %"class.std::__detail::_Scanner"* %6, i32 0, i32 1
  %105 = load i8*, i8** %104, align 8
  %106 = getelementptr inbounds i8, i8* %105, i32 1
  store i8* %106, i8** %104, align 8
  %107 = getelementptr inbounds %"class.std::__detail::_Scanner", %"class.std::__detail::_Scanner"* %6, i32 0, i32 2
  %108 = load i8*, i8** %107, align 8
  %109 = icmp eq i8* %106, %108
  br i1 %109, label %110, label %111

; <label>:110:                                    ; preds = %103
  call void @_ZSt19__throw_regex_errorNSt15regex_constants10error_typeE(i32 5)
  br label %111

; <label>:111:                                    ; preds = %110, %103
  %112 = getelementptr inbounds %"class.std::__detail::_Scanner", %"class.std::__detail::_Scanner"* %6, i32 0, i32 1
  %113 = load i8*, i8** %112, align 8
  %114 = load i8, i8* %113, align 1
  %115 = sext i8 %114 to i32
  %116 = icmp eq i32 %115, 58
  br i1 %116, label %117, label %123

; <label>:117:                                    ; preds = %111
  %118 = getelementptr inbounds %"class.std::__detail::_Scanner", %"class.std::__detail::_Scanner"* %6, i32 0, i32 1
  %119 = load i8*, i8** %118, align 8
  %120 = getelementptr inbounds i8, i8* %119, i32 1
  store i8* %120, i8** %118, align 8
  %121 = bitcast %"class.std::__detail::_Scanner"* %6 to %"struct.std::__detail::_ScannerBase"*
  %122 = getelementptr inbounds %"struct.std::__detail::_ScannerBase", %"struct.std::__detail::_ScannerBase"* %121, i32 0, i32 9
  store i32 6, i32* %122, align 8
  br label %154

; <label>:123:                                    ; preds = %111
  %124 = getelementptr inbounds %"class.std::__detail::_Scanner", %"class.std::__detail::_Scanner"* %6, i32 0, i32 1
  %125 = load i8*, i8** %124, align 8
  %126 = load i8, i8* %125, align 1
  %127 = sext i8 %126 to i32
  %128 = icmp eq i32 %127, 61
  br i1 %128, label %129, label %137

; <label>:129:                                    ; preds = %123
  %130 = getelementptr inbounds %"class.std::__detail::_Scanner", %"class.std::__detail::_Scanner"* %6, i32 0, i32 1
  %131 = load i8*, i8** %130, align 8
  %132 = getelementptr inbounds i8, i8* %131, i32 1
  store i8* %132, i8** %130, align 8
  %133 = bitcast %"class.std::__detail::_Scanner"* %6 to %"struct.std::__detail::_ScannerBase"*
  %134 = getelementptr inbounds %"struct.std::__detail::_ScannerBase", %"struct.std::__detail::_ScannerBase"* %133, i32 0, i32 9
  store i32 7, i32* %134, align 8
  %135 = getelementptr inbounds %"class.std::__detail::_Scanner", %"class.std::__detail::_Scanner"* %6, i32 0, i32 4
  %136 = call dereferenceable(32) %"class.std::__cxx11::basic_string"* @_ZNSt7__cxx1112basic_stringIcSt11char_traitsIcESaIcEE6assignEmc(%"class.std::__cxx11::basic_string"* %135, i64 1, i8 signext 112)
  br label %153

; <label>:137:                                    ; preds = %123
  %138 = getelementptr inbounds %"class.std::__detail::_Scanner", %"class.std::__detail::_Scanner"* %6, i32 0, i32 1
  %139 = load i8*, i8** %138, align 8
  %140 = load i8, i8* %139, align 1
  %141 = sext i8 %140 to i32
  %142 = icmp eq i32 %141, 33
  br i1 %142, label %143, label %151

; <label>:143:                                    ; preds = %137
  %144 = getelementptr inbounds %"class.std::__detail::_Scanner", %"class.std::__detail::_Scanner"* %6, i32 0, i32 1
  %145 = load i8*, i8** %144, align 8
  %146 = getelementptr inbounds i8, i8* %145, i32 1
  store i8* %146, i8** %144, align 8
  %147 = bitcast %"class.std::__detail::_Scanner"* %6 to %"struct.std::__detail::_ScannerBase"*
  %148 = getelementptr inbounds %"struct.std::__detail::_ScannerBase", %"struct.std::__detail::_ScannerBase"* %147, i32 0, i32 9
  store i32 7, i32* %148, align 8
  %149 = getelementptr inbounds %"class.std::__detail::_Scanner", %"class.std::__detail::_Scanner"* %6, i32 0, i32 4
  %150 = call dereferenceable(32) %"class.std::__cxx11::basic_string"* @_ZNSt7__cxx1112basic_stringIcSt11char_traitsIcESaIcEE6assignEmc(%"class.std::__cxx11::basic_string"* %149, i64 1, i8 signext 110)
  br label %152

; <label>:151:                                    ; preds = %137
  call void @_ZSt19__throw_regex_errorNSt15regex_constants10error_typeE(i32 5)
  br label %152

; <label>:152:                                    ; preds = %151, %143
  br label %153

; <label>:153:                                    ; preds = %152, %129
  br label %154

; <label>:154:                                    ; preds = %153, %117
  br label %168

; <label>:155:                                    ; preds = %97, %94
  %156 = bitcast %"class.std::__detail::_Scanner"* %6 to %"struct.std::__detail::_ScannerBase"*
  %157 = getelementptr inbounds %"struct.std::__detail::_ScannerBase", %"struct.std::__detail::_ScannerBase"* %156, i32 0, i32 8
  %158 = load i32, i32* %157, align 4
  %159 = call i32 @_ZNSt15regex_constantsanENS_18syntax_option_typeES0_(i32 %158, i32 2)
  %160 = icmp ne i32 %159, 0
  br i1 %160, label %161, label %164

; <label>:161:                                    ; preds = %155
  %162 = bitcast %"class.std::__detail::_Scanner"* %6 to %"struct.std::__detail::_ScannerBase"*
  %163 = getelementptr inbounds %"struct.std::__detail::_ScannerBase", %"struct.std::__detail::_ScannerBase"* %162, i32 0, i32 9
  store i32 6, i32* %163, align 8
  br label %167

; <label>:164:                                    ; preds = %155
  %165 = bitcast %"class.std::__detail::_Scanner"* %6 to %"struct.std::__detail::_ScannerBase"*
  %166 = getelementptr inbounds %"struct.std::__detail::_ScannerBase", %"struct.std::__detail::_ScannerBase"* %165, i32 0, i32 9
  store i32 5, i32* %166, align 8
  br label %167

; <label>:167:                                    ; preds = %164, %161
  br label %168

; <label>:168:                                    ; preds = %167, %154
  br label %266

; <label>:169:                                    ; preds = %90
  %170 = load i8, i8* %3, align 1
  %171 = sext i8 %170 to i32
  %172 = icmp eq i32 %171, 41
  br i1 %172, label %173, label %176

; <label>:173:                                    ; preds = %169
  %174 = bitcast %"class.std::__detail::_Scanner"* %6 to %"struct.std::__detail::_ScannerBase"*
  %175 = getelementptr inbounds %"struct.std::__detail::_ScannerBase", %"struct.std::__detail::_ScannerBase"* %174, i32 0, i32 9
  store i32 8, i32* %175, align 8
  br label %265

; <label>:176:                                    ; preds = %169
  %177 = load i8, i8* %3, align 1
  %178 = sext i8 %177 to i32
  %179 = icmp eq i32 %178, 91
  br i1 %179, label %180, label %206

; <label>:180:                                    ; preds = %176
  %181 = bitcast %"class.std::__detail::_Scanner"* %6 to %"struct.std::__detail::_ScannerBase"*
  %182 = getelementptr inbounds %"struct.std::__detail::_ScannerBase", %"struct.std::__detail::_ScannerBase"* %181, i32 0, i32 7
  store i32 2, i32* %182, align 8
  %183 = bitcast %"class.std::__detail::_Scanner"* %6 to %"struct.std::__detail::_ScannerBase"*
  %184 = getelementptr inbounds %"struct.std::__detail::_ScannerBase", %"struct.std::__detail::_ScannerBase"* %183, i32 0, i32 13
  store i8 1, i8* %184, align 8
  %185 = getelementptr inbounds %"class.std::__detail::_Scanner", %"class.std::__detail::_Scanner"* %6, i32 0, i32 1
  %186 = load i8*, i8** %185, align 8
  %187 = getelementptr inbounds %"class.std::__detail::_Scanner", %"class.std::__detail::_Scanner"* %6, i32 0, i32 2
  %188 = load i8*, i8** %187, align 8
  %189 = icmp ne i8* %186, %188
  br i1 %189, label %190, label %202

; <label>:190:                                    ; preds = %180
  %191 = getelementptr inbounds %"class.std::__detail::_Scanner", %"class.std::__detail::_Scanner"* %6, i32 0, i32 1
  %192 = load i8*, i8** %191, align 8
  %193 = load i8, i8* %192, align 1
  %194 = sext i8 %193 to i32
  %195 = icmp eq i32 %194, 94
  br i1 %195, label %196, label %202

; <label>:196:                                    ; preds = %190
  %197 = bitcast %"class.std::__detail::_Scanner"* %6 to %"struct.std::__detail::_ScannerBase"*
  %198 = getelementptr inbounds %"struct.std::__detail::_ScannerBase", %"struct.std::__detail::_ScannerBase"* %197, i32 0, i32 9
  store i32 10, i32* %198, align 8
  %199 = getelementptr inbounds %"class.std::__detail::_Scanner", %"class.std::__detail::_Scanner"* %6, i32 0, i32 1
  %200 = load i8*, i8** %199, align 8
  %201 = getelementptr inbounds i8, i8* %200, i32 1
  store i8* %201, i8** %199, align 8
  br label %205

; <label>:202:                                    ; preds = %190, %180
  %203 = bitcast %"class.std::__detail::_Scanner"* %6 to %"struct.std::__detail::_ScannerBase"*
  %204 = getelementptr inbounds %"struct.std::__detail::_ScannerBase", %"struct.std::__detail::_ScannerBase"* %203, i32 0, i32 9
  store i32 9, i32* %204, align 8
  br label %205

; <label>:205:                                    ; preds = %202, %196
  br label %264

; <label>:206:                                    ; preds = %176
  %207 = load i8, i8* %3, align 1
  %208 = sext i8 %207 to i32
  %209 = icmp eq i32 %208, 123
  br i1 %209, label %210, label %215

; <label>:210:                                    ; preds = %206
  %211 = bitcast %"class.std::__detail::_Scanner"* %6 to %"struct.std::__detail::_ScannerBase"*
  %212 = getelementptr inbounds %"struct.std::__detail::_ScannerBase", %"struct.std::__detail::_ScannerBase"* %211, i32 0, i32 7
  store i32 1, i32* %212, align 8
  %213 = bitcast %"class.std::__detail::_Scanner"* %6 to %"struct.std::__detail::_ScannerBase"*
  %214 = getelementptr inbounds %"struct.std::__detail::_ScannerBase", %"struct.std::__detail::_ScannerBase"* %213, i32 0, i32 9
  store i32 12, i32* %214, align 8
  br label %263

; <label>:215:                                    ; preds = %206
  %216 = load i8, i8* %3, align 1
  %217 = sext i8 %216 to i32
  %218 = icmp ne i32 %217, 93
  br i1 %218, label %219, label %256

; <label>:219:                                    ; preds = %215
  %220 = load i8, i8* %3, align 1
  %221 = sext i8 %220 to i32
  %222 = icmp ne i32 %221, 125
  br i1 %222, label %223, label %256

; <label>:223:                                    ; preds = %219
  %224 = bitcast %"class.std::__detail::_Scanner"* %6 to %"struct.std::__detail::_ScannerBase"*
  %225 = getelementptr inbounds %"struct.std::__detail::_ScannerBase", %"struct.std::__detail::_ScannerBase"* %224, i32 0, i32 0
  %226 = getelementptr inbounds [9 x %"struct.std::pair"], [9 x %"struct.std::pair"]* %225, i32 0, i32 0
  store %"struct.std::pair"* %226, %"struct.std::pair"** %4, align 8
  %227 = getelementptr inbounds %"class.std::__detail::_Scanner", %"class.std::__detail::_Scanner"* %6, i32 0, i32 3
  %228 = load %"class.std::ctype"*, %"class.std::ctype"** %227, align 8
  %229 = load i8, i8* %3, align 1
  %230 = call signext i8 @_ZNKSt5ctypeIcE6narrowEcc(%"class.std::ctype"* %228, i8 signext %229, i8 signext 0)
  store i8 %230, i8* %5, align 1
  br label %231

; <label>:231:                                    ; preds = %252, %223
  %232 = load %"struct.std::pair"*, %"struct.std::pair"** %4, align 8
  %233 = getelementptr inbounds %"struct.std::pair", %"struct.std::pair"* %232, i32 0, i32 0
  %234 = load i8, i8* %233, align 4
  %235 = sext i8 %234 to i32
  %236 = icmp ne i32 %235, 0
  br i1 %236, label %237, label %255

; <label>:237:                                    ; preds = %231
  %238 = load %"struct.std::pair"*, %"struct.std::pair"** %4, align 8
  %239 = getelementptr inbounds %"struct.std::pair", %"struct.std::pair"* %238, i32 0, i32 0
  %240 = load i8, i8* %239, align 4
  %241 = sext i8 %240 to i32
  %242 = load i8, i8* %5, align 1
  %243 = sext i8 %242 to i32
  %244 = icmp eq i32 %241, %243
  br i1 %244, label %245, label %251

; <label>:245:                                    ; preds = %237
  %246 = load %"struct.std::pair"*, %"struct.std::pair"** %4, align 8
  %247 = getelementptr inbounds %"struct.std::pair", %"struct.std::pair"* %246, i32 0, i32 1
  %248 = load i32, i32* %247, align 4
  %249 = bitcast %"class.std::__detail::_Scanner"* %6 to %"struct.std::__detail::_ScannerBase"*
  %250 = getelementptr inbounds %"struct.std::__detail::_ScannerBase", %"struct.std::__detail::_ScannerBase"* %249, i32 0, i32 9
  store i32 %248, i32* %250, align 8
  br label %266

; <label>:251:                                    ; preds = %237
  br label %252

; <label>:252:                                    ; preds = %251
  %253 = load %"struct.std::pair"*, %"struct.std::pair"** %4, align 8
  %254 = getelementptr inbounds %"struct.std::pair", %"struct.std::pair"* %253, i32 1
  store %"struct.std::pair"* %254, %"struct.std::pair"** %4, align 8
  br label %231

; <label>:255:                                    ; preds = %231
  br label %262

; <label>:256:                                    ; preds = %219, %215
  %257 = bitcast %"class.std::__detail::_Scanner"* %6 to %"struct.std::__detail::_ScannerBase"*
  %258 = getelementptr inbounds %"struct.std::__detail::_ScannerBase", %"struct.std::__detail::_ScannerBase"* %257, i32 0, i32 9
  store i32 1, i32* %258, align 8
  %259 = getelementptr inbounds %"class.std::__detail::_Scanner", %"class.std::__detail::_Scanner"* %6, i32 0, i32 4
  %260 = load i8, i8* %3, align 1
  %261 = call dereferenceable(32) %"class.std::__cxx11::basic_string"* @_ZNSt7__cxx1112basic_stringIcSt11char_traitsIcESaIcEE6assignEmc(%"class.std::__cxx11::basic_string"* %259, i64 1, i8 signext %260)
  br label %262

; <label>:262:                                    ; preds = %256, %255
  br label %263

; <label>:263:                                    ; preds = %262, %210
  br label %264

; <label>:264:                                    ; preds = %263, %205
  br label %265

; <label>:265:                                    ; preds = %264, %173
  br label %266

; <label>:266:                                    ; preds = %21, %83, %245, %265, %168
  ret void
}

; Function Attrs: noinline uwtable
define linkonce_odr void @_ZNSt8__detail8_ScannerIcE18_M_scan_in_bracketEv(%"class.std::__detail::_Scanner"*) #0 comdat align 2 {
  %2 = alloca %"class.std::__detail::_Scanner"*, align 8
  %3 = alloca i8, align 1
  store %"class.std::__detail::_Scanner"* %0, %"class.std::__detail::_Scanner"** %2, align 8
  %4 = load %"class.std::__detail::_Scanner"*, %"class.std::__detail::_Scanner"** %2, align 8
  %5 = getelementptr inbounds %"class.std::__detail::_Scanner", %"class.std::__detail::_Scanner"* %4, i32 0, i32 1
  %6 = load i8*, i8** %5, align 8
  %7 = getelementptr inbounds %"class.std::__detail::_Scanner", %"class.std::__detail::_Scanner"* %4, i32 0, i32 2
  %8 = load i8*, i8** %7, align 8
  %9 = icmp eq i8* %6, %8
  br i1 %9, label %10, label %11

; <label>:10:                                     ; preds = %1
  call void @_ZSt19__throw_regex_errorNSt15regex_constants10error_typeE(i32 4)
  br label %11

; <label>:11:                                     ; preds = %10, %1
  %12 = getelementptr inbounds %"class.std::__detail::_Scanner", %"class.std::__detail::_Scanner"* %4, i32 0, i32 1
  %13 = load i8*, i8** %12, align 8
  %14 = getelementptr inbounds i8, i8* %13, i32 1
  store i8* %14, i8** %12, align 8
  %15 = load i8, i8* %13, align 1
  store i8 %15, i8* %3, align 1
  %16 = load i8, i8* %3, align 1
  %17 = sext i8 %16 to i32
  %18 = icmp eq i32 %17, 91
  br i1 %18, label %19, label %74

; <label>:19:                                     ; preds = %11
  %20 = getelementptr inbounds %"class.std::__detail::_Scanner", %"class.std::__detail::_Scanner"* %4, i32 0, i32 1
  %21 = load i8*, i8** %20, align 8
  %22 = getelementptr inbounds %"class.std::__detail::_Scanner", %"class.std::__detail::_Scanner"* %4, i32 0, i32 2
  %23 = load i8*, i8** %22, align 8
  %24 = icmp eq i8* %21, %23
  br i1 %24, label %25, label %26

; <label>:25:                                     ; preds = %19
  call void @_ZSt19__throw_regex_errorNSt15regex_constants10error_typeE(i32 4)
  br label %26

; <label>:26:                                     ; preds = %25, %19
  %27 = getelementptr inbounds %"class.std::__detail::_Scanner", %"class.std::__detail::_Scanner"* %4, i32 0, i32 1
  %28 = load i8*, i8** %27, align 8
  %29 = load i8, i8* %28, align 1
  %30 = sext i8 %29 to i32
  %31 = icmp eq i32 %30, 46
  br i1 %31, label %32, label %39

; <label>:32:                                     ; preds = %26
  %33 = bitcast %"class.std::__detail::_Scanner"* %4 to %"struct.std::__detail::_ScannerBase"*
  %34 = getelementptr inbounds %"struct.std::__detail::_ScannerBase", %"struct.std::__detail::_ScannerBase"* %33, i32 0, i32 9
  store i32 16, i32* %34, align 8
  %35 = getelementptr inbounds %"class.std::__detail::_Scanner", %"class.std::__detail::_Scanner"* %4, i32 0, i32 1
  %36 = load i8*, i8** %35, align 8
  %37 = getelementptr inbounds i8, i8* %36, i32 1
  store i8* %37, i8** %35, align 8
  %38 = load i8, i8* %36, align 1
  call void @_ZNSt8__detail8_ScannerIcE12_M_eat_classEc(%"class.std::__detail::_Scanner"* %4, i8 signext %38)
  br label %73

; <label>:39:                                     ; preds = %26
  %40 = getelementptr inbounds %"class.std::__detail::_Scanner", %"class.std::__detail::_Scanner"* %4, i32 0, i32 1
  %41 = load i8*, i8** %40, align 8
  %42 = load i8, i8* %41, align 1
  %43 = sext i8 %42 to i32
  %44 = icmp eq i32 %43, 58
  br i1 %44, label %45, label %52

; <label>:45:                                     ; preds = %39
  %46 = bitcast %"class.std::__detail::_Scanner"* %4 to %"struct.std::__detail::_ScannerBase"*
  %47 = getelementptr inbounds %"struct.std::__detail::_ScannerBase", %"struct.std::__detail::_ScannerBase"* %46, i32 0, i32 9
  store i32 15, i32* %47, align 8
  %48 = getelementptr inbounds %"class.std::__detail::_Scanner", %"class.std::__detail::_Scanner"* %4, i32 0, i32 1
  %49 = load i8*, i8** %48, align 8
  %50 = getelementptr inbounds i8, i8* %49, i32 1
  store i8* %50, i8** %48, align 8
  %51 = load i8, i8* %49, align 1
  call void @_ZNSt8__detail8_ScannerIcE12_M_eat_classEc(%"class.std::__detail::_Scanner"* %4, i8 signext %51)
  br label %72

; <label>:52:                                     ; preds = %39
  %53 = getelementptr inbounds %"class.std::__detail::_Scanner", %"class.std::__detail::_Scanner"* %4, i32 0, i32 1
  %54 = load i8*, i8** %53, align 8
  %55 = load i8, i8* %54, align 1
  %56 = sext i8 %55 to i32
  %57 = icmp eq i32 %56, 61
  br i1 %57, label %58, label %65

; <label>:58:                                     ; preds = %52
  %59 = bitcast %"class.std::__detail::_Scanner"* %4 to %"struct.std::__detail::_ScannerBase"*
  %60 = getelementptr inbounds %"struct.std::__detail::_ScannerBase", %"struct.std::__detail::_ScannerBase"* %59, i32 0, i32 9
  store i32 17, i32* %60, align 8
  %61 = getelementptr inbounds %"class.std::__detail::_Scanner", %"class.std::__detail::_Scanner"* %4, i32 0, i32 1
  %62 = load i8*, i8** %61, align 8
  %63 = getelementptr inbounds i8, i8* %62, i32 1
  store i8* %63, i8** %61, align 8
  %64 = load i8, i8* %62, align 1
  call void @_ZNSt8__detail8_ScannerIcE12_M_eat_classEc(%"class.std::__detail::_Scanner"* %4, i8 signext %64)
  br label %71

; <label>:65:                                     ; preds = %52
  %66 = bitcast %"class.std::__detail::_Scanner"* %4 to %"struct.std::__detail::_ScannerBase"*
  %67 = getelementptr inbounds %"struct.std::__detail::_ScannerBase", %"struct.std::__detail::_ScannerBase"* %66, i32 0, i32 9
  store i32 1, i32* %67, align 8
  %68 = getelementptr inbounds %"class.std::__detail::_Scanner", %"class.std::__detail::_Scanner"* %4, i32 0, i32 4
  %69 = load i8, i8* %3, align 1
  %70 = call dereferenceable(32) %"class.std::__cxx11::basic_string"* @_ZNSt7__cxx1112basic_stringIcSt11char_traitsIcESaIcEE6assignEmc(%"class.std::__cxx11::basic_string"* %68, i64 1, i8 signext %69)
  br label %71

; <label>:71:                                     ; preds = %65, %58
  br label %72

; <label>:72:                                     ; preds = %71, %45
  br label %73

; <label>:73:                                     ; preds = %72, %32
  br label %140

; <label>:74:                                     ; preds = %11
  %75 = load i8, i8* %3, align 1
  %76 = sext i8 %75 to i32
  %77 = icmp eq i32 %76, 93
  br i1 %77, label %78, label %91

; <label>:78:                                     ; preds = %74
  %79 = bitcast %"class.std::__detail::_Scanner"* %4 to %"struct.std::__detail::_ScannerBase"*
  %80 = call zeroext i1 @_ZNKSt8__detail12_ScannerBase10_M_is_ecmaEv(%"struct.std::__detail::_ScannerBase"* %79)
  br i1 %80, label %86, label %81

; <label>:81:                                     ; preds = %78
  %82 = bitcast %"class.std::__detail::_Scanner"* %4 to %"struct.std::__detail::_ScannerBase"*
  %83 = getelementptr inbounds %"struct.std::__detail::_ScannerBase", %"struct.std::__detail::_ScannerBase"* %82, i32 0, i32 13
  %84 = load i8, i8* %83, align 8
  %85 = trunc i8 %84 to i1
  br i1 %85, label %91, label %86

; <label>:86:                                     ; preds = %81, %78
  %87 = bitcast %"class.std::__detail::_Scanner"* %4 to %"struct.std::__detail::_ScannerBase"*
  %88 = getelementptr inbounds %"struct.std::__detail::_ScannerBase", %"struct.std::__detail::_ScannerBase"* %87, i32 0, i32 9
  store i32 11, i32* %88, align 8
  %89 = bitcast %"class.std::__detail::_Scanner"* %4 to %"struct.std::__detail::_ScannerBase"*
  %90 = getelementptr inbounds %"struct.std::__detail::_ScannerBase", %"struct.std::__detail::_ScannerBase"* %89, i32 0, i32 7
  store i32 0, i32* %90, align 8
  br label %139

; <label>:91:                                     ; preds = %81, %74
  %92 = load i8, i8* %3, align 1
  %93 = sext i8 %92 to i32
  %94 = icmp eq i32 %93, 92
  br i1 %94, label %95, label %132

; <label>:95:                                     ; preds = %91
  %96 = bitcast %"class.std::__detail::_Scanner"* %4 to %"struct.std::__detail::_ScannerBase"*
  %97 = call zeroext i1 @_ZNKSt8__detail12_ScannerBase10_M_is_ecmaEv(%"struct.std::__detail::_ScannerBase"* %96)
  br i1 %97, label %101, label %98

; <label>:98:                                     ; preds = %95
  %99 = bitcast %"class.std::__detail::_Scanner"* %4 to %"struct.std::__detail::_ScannerBase"*
  %100 = call zeroext i1 @_ZNKSt8__detail12_ScannerBase9_M_is_awkEv(%"struct.std::__detail::_ScannerBase"* %99)
  br i1 %100, label %101, label %132

; <label>:101:                                    ; preds = %98, %95
  %102 = getelementptr inbounds %"class.std::__detail::_Scanner", %"class.std::__detail::_Scanner"* %4, i32 0, i32 5
  %103 = load { i64, i64 }, { i64, i64 }* %102, align 8
  %104 = extractvalue { i64, i64 } %103, 1
  %105 = bitcast %"class.std::__detail::_Scanner"* %4 to i8*
  %106 = getelementptr inbounds i8, i8* %105, i64 %104
  %107 = bitcast i8* %106 to %"class.std::__detail::_Scanner"*
  %108 = extractvalue { i64, i64 } %103, 0
  %109 = xor i64 %108, -1
  %110 = xor i64 1, -1
  %111 = xor i64 7853850792357819345, -1
  %112 = or i64 %109, %110
  %113 = or i64 7853850792357819345, %111
  %114 = xor i64 %112, -1
  %115 = and i64 %114, %113
  %116 = and i64 %108, 1
  %117 = icmp ne i64 %115, 0
  br i1 %117, label %118, label %128

; <label>:118:                                    ; preds = %101
  %119 = bitcast %"class.std::__detail::_Scanner"* %107 to i8**
  %120 = load i8*, i8** %119, align 8
  %121 = add i64 %108, -2238796969099041122
  %122 = sub i64 %121, 1
  %123 = sub i64 %122, -2238796969099041122
  %124 = sub i64 %108, 1
  %125 = getelementptr i8, i8* %120, i64 %123
  %126 = bitcast i8* %125 to void (%"class.std::__detail::_Scanner"*)**
  %127 = load void (%"class.std::__detail::_Scanner"*)*, void (%"class.std::__detail::_Scanner"*)** %126, align 8
  br label %130

; <label>:128:                                    ; preds = %101
  %129 = inttoptr i64 %108 to void (%"class.std::__detail::_Scanner"*)*
  br label %130

; <label>:130:                                    ; preds = %128, %118
  %131 = phi void (%"class.std::__detail::_Scanner"*)* [ %127, %118 ], [ %129, %128 ]
  call void %131(%"class.std::__detail::_Scanner"* %107)
  br label %138

; <label>:132:                                    ; preds = %98, %91
  %133 = bitcast %"class.std::__detail::_Scanner"* %4 to %"struct.std::__detail::_ScannerBase"*
  %134 = getelementptr inbounds %"struct.std::__detail::_ScannerBase", %"struct.std::__detail::_ScannerBase"* %133, i32 0, i32 9
  store i32 1, i32* %134, align 8
  %135 = getelementptr inbounds %"class.std::__detail::_Scanner", %"class.std::__detail::_Scanner"* %4, i32 0, i32 4
  %136 = load i8, i8* %3, align 1
  %137 = call dereferenceable(32) %"class.std::__cxx11::basic_string"* @_ZNSt7__cxx1112basic_stringIcSt11char_traitsIcESaIcEE6assignEmc(%"class.std::__cxx11::basic_string"* %135, i64 1, i8 signext %136)
  br label %138

; <label>:138:                                    ; preds = %132, %130
  br label %139

; <label>:139:                                    ; preds = %138, %86
  br label %140

; <label>:140:                                    ; preds = %139, %73
  %141 = bitcast %"class.std::__detail::_Scanner"* %4 to %"struct.std::__detail::_ScannerBase"*
  %142 = getelementptr inbounds %"struct.std::__detail::_ScannerBase", %"struct.std::__detail::_ScannerBase"* %141, i32 0, i32 13
  store i8 0, i8* %142, align 8
  ret void
}

; Function Attrs: noinline uwtable
define linkonce_odr void @_ZNSt8__detail8_ScannerIcE16_M_scan_in_braceEv(%"class.std::__detail::_Scanner"*) #0 comdat align 2 {
  %2 = alloca %"class.std::__detail::_Scanner"*, align 8
  %3 = alloca i8, align 1
  store %"class.std::__detail::_Scanner"* %0, %"class.std::__detail::_Scanner"** %2, align 8
  %4 = load %"class.std::__detail::_Scanner"*, %"class.std::__detail::_Scanner"** %2, align 8
  %5 = getelementptr inbounds %"class.std::__detail::_Scanner", %"class.std::__detail::_Scanner"* %4, i32 0, i32 1
  %6 = load i8*, i8** %5, align 8
  %7 = getelementptr inbounds %"class.std::__detail::_Scanner", %"class.std::__detail::_Scanner"* %4, i32 0, i32 2
  %8 = load i8*, i8** %7, align 8
  %9 = icmp eq i8* %6, %8
  br i1 %9, label %10, label %11

; <label>:10:                                     ; preds = %1
  call void @_ZSt19__throw_regex_errorNSt15regex_constants10error_typeE(i32 6)
  br label %11

; <label>:11:                                     ; preds = %10, %1
  %12 = getelementptr inbounds %"class.std::__detail::_Scanner", %"class.std::__detail::_Scanner"* %4, i32 0, i32 1
  %13 = load i8*, i8** %12, align 8
  %14 = getelementptr inbounds i8, i8* %13, i32 1
  store i8* %14, i8** %12, align 8
  %15 = load i8, i8* %13, align 1
  store i8 %15, i8* %3, align 1
  %16 = getelementptr inbounds %"class.std::__detail::_Scanner", %"class.std::__detail::_Scanner"* %4, i32 0, i32 3
  %17 = load %"class.std::ctype"*, %"class.std::ctype"** %16, align 8
  %18 = load i8, i8* %3, align 1
  %19 = call zeroext i1 @_ZNKSt5ctypeIcE2isEtc(%"class.std::ctype"* %17, i16 zeroext 2048, i8 signext %18)
  br i1 %19, label %20, label %49

; <label>:20:                                     ; preds = %11
  %21 = bitcast %"class.std::__detail::_Scanner"* %4 to %"struct.std::__detail::_ScannerBase"*
  %22 = getelementptr inbounds %"struct.std::__detail::_ScannerBase", %"struct.std::__detail::_ScannerBase"* %21, i32 0, i32 9
  store i32 26, i32* %22, align 8
  %23 = getelementptr inbounds %"class.std::__detail::_Scanner", %"class.std::__detail::_Scanner"* %4, i32 0, i32 4
  %24 = load i8, i8* %3, align 1
  %25 = call dereferenceable(32) %"class.std::__cxx11::basic_string"* @_ZNSt7__cxx1112basic_stringIcSt11char_traitsIcESaIcEE6assignEmc(%"class.std::__cxx11::basic_string"* %23, i64 1, i8 signext %24)
  br label %26

; <label>:26:                                     ; preds = %41, %20
  %27 = getelementptr inbounds %"class.std::__detail::_Scanner", %"class.std::__detail::_Scanner"* %4, i32 0, i32 1
  %28 = load i8*, i8** %27, align 8
  %29 = getelementptr inbounds %"class.std::__detail::_Scanner", %"class.std::__detail::_Scanner"* %4, i32 0, i32 2
  %30 = load i8*, i8** %29, align 8
  %31 = icmp ne i8* %28, %30
  br i1 %31, label %32, label %39

; <label>:32:                                     ; preds = %26
  %33 = getelementptr inbounds %"class.std::__detail::_Scanner", %"class.std::__detail::_Scanner"* %4, i32 0, i32 3
  %34 = load %"class.std::ctype"*, %"class.std::ctype"** %33, align 8
  %35 = getelementptr inbounds %"class.std::__detail::_Scanner", %"class.std::__detail::_Scanner"* %4, i32 0, i32 1
  %36 = load i8*, i8** %35, align 8
  %37 = load i8, i8* %36, align 1
  %38 = call zeroext i1 @_ZNKSt5ctypeIcE2isEtc(%"class.std::ctype"* %34, i16 zeroext 2048, i8 signext %37)
  br label %39

; <label>:39:                                     ; preds = %32, %26
  %40 = phi i1 [ false, %26 ], [ %38, %32 ]
  br i1 %40, label %41, label %48

; <label>:41:                                     ; preds = %39
  %42 = getelementptr inbounds %"class.std::__detail::_Scanner", %"class.std::__detail::_Scanner"* %4, i32 0, i32 1
  %43 = load i8*, i8** %42, align 8
  %44 = getelementptr inbounds i8, i8* %43, i32 1
  store i8* %44, i8** %42, align 8
  %45 = load i8, i8* %43, align 1
  %46 = getelementptr inbounds %"class.std::__detail::_Scanner", %"class.std::__detail::_Scanner"* %4, i32 0, i32 4
  %47 = call dereferenceable(32) %"class.std::__cxx11::basic_string"* @_ZNSt7__cxx1112basic_stringIcSt11char_traitsIcESaIcEEpLEc(%"class.std::__cxx11::basic_string"* %46, i8 signext %45)
  br label %26

; <label>:48:                                     ; preds = %39
  br label %98

; <label>:49:                                     ; preds = %11
  %50 = load i8, i8* %3, align 1
  %51 = sext i8 %50 to i32
  %52 = icmp eq i32 %51, 44
  br i1 %52, label %53, label %56

; <label>:53:                                     ; preds = %49
  %54 = bitcast %"class.std::__detail::_Scanner"* %4 to %"struct.std::__detail::_ScannerBase"*
  %55 = getelementptr inbounds %"struct.std::__detail::_ScannerBase", %"struct.std::__detail::_ScannerBase"* %54, i32 0, i32 9
  store i32 25, i32* %55, align 8
  br label %97

; <label>:56:                                     ; preds = %49
  %57 = bitcast %"class.std::__detail::_Scanner"* %4 to %"struct.std::__detail::_ScannerBase"*
  %58 = call zeroext i1 @_ZNKSt8__detail12_ScannerBase11_M_is_basicEv(%"struct.std::__detail::_ScannerBase"* %57)
  br i1 %58, label %59, label %85

; <label>:59:                                     ; preds = %56
  %60 = load i8, i8* %3, align 1
  %61 = sext i8 %60 to i32
  %62 = icmp eq i32 %61, 92
  br i1 %62, label %63, label %83

; <label>:63:                                     ; preds = %59
  %64 = getelementptr inbounds %"class.std::__detail::_Scanner", %"class.std::__detail::_Scanner"* %4, i32 0, i32 1
  %65 = load i8*, i8** %64, align 8
  %66 = getelementptr inbounds %"class.std::__detail::_Scanner", %"class.std::__detail::_Scanner"* %4, i32 0, i32 2
  %67 = load i8*, i8** %66, align 8
  %68 = icmp ne i8* %65, %67
  br i1 %68, label %69, label %83

; <label>:69:                                     ; preds = %63
  %70 = getelementptr inbounds %"class.std::__detail::_Scanner", %"class.std::__detail::_Scanner"* %4, i32 0, i32 1
  %71 = load i8*, i8** %70, align 8
  %72 = load i8, i8* %71, align 1
  %73 = sext i8 %72 to i32
  %74 = icmp eq i32 %73, 125
  br i1 %74, label %75, label %83

; <label>:75:                                     ; preds = %69
  %76 = bitcast %"class.std::__detail::_Scanner"* %4 to %"struct.std::__detail::_ScannerBase"*
  %77 = getelementptr inbounds %"struct.std::__detail::_ScannerBase", %"struct.std::__detail::_ScannerBase"* %76, i32 0, i32 7
  store i32 0, i32* %77, align 8
  %78 = bitcast %"class.std::__detail::_Scanner"* %4 to %"struct.std::__detail::_ScannerBase"*
  %79 = getelementptr inbounds %"struct.std::__detail::_ScannerBase", %"struct.std::__detail::_ScannerBase"* %78, i32 0, i32 9
  store i32 13, i32* %79, align 8
  %80 = getelementptr inbounds %"class.std::__detail::_Scanner", %"class.std::__detail::_Scanner"* %4, i32 0, i32 1
  %81 = load i8*, i8** %80, align 8
  %82 = getelementptr inbounds i8, i8* %81, i32 1
  store i8* %82, i8** %80, align 8
  br label %84

; <label>:83:                                     ; preds = %69, %63, %59
  call void @_ZSt19__throw_regex_errorNSt15regex_constants10error_typeE(i32 7)
  br label %84

; <label>:84:                                     ; preds = %83, %75
  br label %96

; <label>:85:                                     ; preds = %56
  %86 = load i8, i8* %3, align 1
  %87 = sext i8 %86 to i32
  %88 = icmp eq i32 %87, 125
  br i1 %88, label %89, label %94

; <label>:89:                                     ; preds = %85
  %90 = bitcast %"class.std::__detail::_Scanner"* %4 to %"struct.std::__detail::_ScannerBase"*
  %91 = getelementptr inbounds %"struct.std::__detail::_ScannerBase", %"struct.std::__detail::_ScannerBase"* %90, i32 0, i32 7
  store i32 0, i32* %91, align 8
  %92 = bitcast %"class.std::__detail::_Scanner"* %4 to %"struct.std::__detail::_ScannerBase"*
  %93 = getelementptr inbounds %"struct.std::__detail::_ScannerBase", %"struct.std::__detail::_ScannerBase"* %92, i32 0, i32 9
  store i32 13, i32* %93, align 8
  br label %95

; <label>:94:                                     ; preds = %85
  call void @_ZSt19__throw_regex_errorNSt15regex_constants10error_typeE(i32 7)
  br label %95

; <label>:95:                                     ; preds = %94, %89
  br label %96

; <label>:96:                                     ; preds = %95, %84
  br label %97

; <label>:97:                                     ; preds = %96, %53
  br label %98

; <label>:98:                                     ; preds = %97, %48
  ret void
}

; Function Attrs: noinline uwtable
define linkonce_odr void @_ZNSt8__detail8_ScannerIcE12_M_eat_classEc(%"class.std::__detail::_Scanner"*, i8 signext) #0 comdat align 2 {
  %3 = alloca %"class.std::__detail::_Scanner"*, align 8
  %4 = alloca i8, align 1
  store %"class.std::__detail::_Scanner"* %0, %"class.std::__detail::_Scanner"** %3, align 8
  store i8 %1, i8* %4, align 1
  %5 = load %"class.std::__detail::_Scanner"*, %"class.std::__detail::_Scanner"** %3, align 8
  %6 = getelementptr inbounds %"class.std::__detail::_Scanner", %"class.std::__detail::_Scanner"* %5, i32 0, i32 4
  call void @_ZNSt7__cxx1112basic_stringIcSt11char_traitsIcESaIcEE5clearEv(%"class.std::__cxx11::basic_string"* %6) #3
  br label %7

; <label>:7:                                      ; preds = %23, %2
  %8 = getelementptr inbounds %"class.std::__detail::_Scanner", %"class.std::__detail::_Scanner"* %5, i32 0, i32 1
  %9 = load i8*, i8** %8, align 8
  %10 = getelementptr inbounds %"class.std::__detail::_Scanner", %"class.std::__detail::_Scanner"* %5, i32 0, i32 2
  %11 = load i8*, i8** %10, align 8
  %12 = icmp ne i8* %9, %11
  br i1 %12, label %13, label %21

; <label>:13:                                     ; preds = %7
  %14 = getelementptr inbounds %"class.std::__detail::_Scanner", %"class.std::__detail::_Scanner"* %5, i32 0, i32 1
  %15 = load i8*, i8** %14, align 8
  %16 = load i8, i8* %15, align 1
  %17 = sext i8 %16 to i32
  %18 = load i8, i8* %4, align 1
  %19 = sext i8 %18 to i32
  %20 = icmp ne i32 %17, %19
  br label %21

; <label>:21:                                     ; preds = %13, %7
  %22 = phi i1 [ false, %7 ], [ %20, %13 ]
  br i1 %22, label %23, label %30

; <label>:23:                                     ; preds = %21
  %24 = getelementptr inbounds %"class.std::__detail::_Scanner", %"class.std::__detail::_Scanner"* %5, i32 0, i32 1
  %25 = load i8*, i8** %24, align 8
  %26 = getelementptr inbounds i8, i8* %25, i32 1
  store i8* %26, i8** %24, align 8
  %27 = load i8, i8* %25, align 1
  %28 = getelementptr inbounds %"class.std::__detail::_Scanner", %"class.std::__detail::_Scanner"* %5, i32 0, i32 4
  %29 = call dereferenceable(32) %"class.std::__cxx11::basic_string"* @_ZNSt7__cxx1112basic_stringIcSt11char_traitsIcESaIcEEpLEc(%"class.std::__cxx11::basic_string"* %28, i8 signext %27)
  br label %7

; <label>:30:                                     ; preds = %21
  %31 = getelementptr inbounds %"class.std::__detail::_Scanner", %"class.std::__detail::_Scanner"* %5, i32 0, i32 1
  %32 = load i8*, i8** %31, align 8
  %33 = getelementptr inbounds %"class.std::__detail::_Scanner", %"class.std::__detail::_Scanner"* %5, i32 0, i32 2
  %34 = load i8*, i8** %33, align 8
  %35 = icmp eq i8* %32, %34
  br i1 %35, label %58, label %36

; <label>:36:                                     ; preds = %30
  %37 = getelementptr inbounds %"class.std::__detail::_Scanner", %"class.std::__detail::_Scanner"* %5, i32 0, i32 1
  %38 = load i8*, i8** %37, align 8
  %39 = getelementptr inbounds i8, i8* %38, i32 1
  store i8* %39, i8** %37, align 8
  %40 = load i8, i8* %38, align 1
  %41 = sext i8 %40 to i32
  %42 = load i8, i8* %4, align 1
  %43 = sext i8 %42 to i32
  %44 = icmp ne i32 %41, %43
  br i1 %44, label %58, label %45

; <label>:45:                                     ; preds = %36
  %46 = getelementptr inbounds %"class.std::__detail::_Scanner", %"class.std::__detail::_Scanner"* %5, i32 0, i32 1
  %47 = load i8*, i8** %46, align 8
  %48 = getelementptr inbounds %"class.std::__detail::_Scanner", %"class.std::__detail::_Scanner"* %5, i32 0, i32 2
  %49 = load i8*, i8** %48, align 8
  %50 = icmp eq i8* %47, %49
  br i1 %50, label %58, label %51

; <label>:51:                                     ; preds = %45
  %52 = getelementptr inbounds %"class.std::__detail::_Scanner", %"class.std::__detail::_Scanner"* %5, i32 0, i32 1
  %53 = load i8*, i8** %52, align 8
  %54 = getelementptr inbounds i8, i8* %53, i32 1
  store i8* %54, i8** %52, align 8
  %55 = load i8, i8* %53, align 1
  %56 = sext i8 %55 to i32
  %57 = icmp ne i32 %56, 93
  br i1 %57, label %58, label %65

; <label>:58:                                     ; preds = %51, %45, %36, %30
  %59 = load i8, i8* %4, align 1
  %60 = sext i8 %59 to i32
  %61 = icmp eq i32 %60, 58
  br i1 %61, label %62, label %63

; <label>:62:                                     ; preds = %58
  call void @_ZSt19__throw_regex_errorNSt15regex_constants10error_typeE(i32 1)
  br label %64

; <label>:63:                                     ; preds = %58
  call void @_ZSt19__throw_regex_errorNSt15regex_constants10error_typeE(i32 0)
  br label %64

; <label>:64:                                     ; preds = %63, %62
  br label %65

; <label>:65:                                     ; preds = %64, %51
  ret void
}

; Function Attrs: nounwind
declare void @_ZNSt7__cxx1112basic_stringIcSt11char_traitsIcESaIcEE5clearEv(%"class.std::__cxx11::basic_string"*) #2

; Function Attrs: noinline uwtable
define linkonce_odr void @_ZSt15allocate_sharedINSt8__detail4_NFAINSt7__cxx1112regex_traitsIcEEEESaIS5_EJRKSt6localeRNSt15regex_constants18syntax_option_typeEEESt10shared_ptrIT_ERKT0_DpOT1_(%"class.std::shared_ptr.10"* noalias sret, %"class.std::allocator.15"* dereferenceable(1), %"class.std::locale"* dereferenceable(8), i32* dereferenceable(4)) #0 comdat {
  %5 = alloca %"class.std::allocator.15"*, align 8
  %6 = alloca %"class.std::locale"*, align 8
  %7 = alloca i32*, align 8
  %8 = alloca %"struct.std::_Sp_make_shared_tag", align 1
  store %"class.std::allocator.15"* %1, %"class.std::allocator.15"** %5, align 8
  store %"class.std::locale"* %2, %"class.std::locale"** %6, align 8
  store i32* %3, i32** %7, align 8
  %9 = load %"class.std::allocator.15"*, %"class.std::allocator.15"** %5, align 8
  %10 = load %"class.std::locale"*, %"class.std::locale"** %6, align 8
  %11 = call dereferenceable(8) %"class.std::locale"* @_ZSt7forwardIRKSt6localeEOT_RNSt16remove_referenceIS3_E4typeE(%"class.std::locale"* dereferenceable(8) %10) #3
  %12 = load i32*, i32** %7, align 8
  %13 = call dereferenceable(4) i32* @_ZSt7forwardIRNSt15regex_constants18syntax_option_typeEEOT_RNSt16remove_referenceIS3_E4typeE(i32* dereferenceable(4) %12) #3
  call void @_ZNSt10shared_ptrINSt8__detail4_NFAINSt7__cxx1112regex_traitsIcEEEEEC2ISaIS5_EJRKSt6localeRNSt15regex_constants18syntax_option_typeEEEESt19_Sp_make_shared_tagRKT_DpOT0_(%"class.std::shared_ptr.10"* %0, %"class.std::allocator.15"* dereferenceable(1) %9, %"class.std::locale"* dereferenceable(8) %11, i32* dereferenceable(4) %13)
  ret void
}

; Function Attrs: noinline nounwind uwtable
define linkonce_odr void @_ZNSaINSt8__detail4_NFAINSt7__cxx1112regex_traitsIcEEEEEC2Ev(%"class.std::allocator.15"*) unnamed_addr #5 comdat align 2 {
  %2 = alloca %"class.std::allocator.15"*, align 8
  store %"class.std::allocator.15"* %0, %"class.std::allocator.15"** %2, align 8
  %3 = load %"class.std::allocator.15"*, %"class.std::allocator.15"** %2, align 8
  %4 = bitcast %"class.std::allocator.15"* %3 to %"class.__gnu_cxx::new_allocator.16"*
  call void @_ZN9__gnu_cxx13new_allocatorINSt8__detail4_NFAINSt7__cxx1112regex_traitsIcEEEEEC2Ev(%"class.__gnu_cxx::new_allocator.16"* %4) #3
  ret void
}

; Function Attrs: noinline nounwind uwtable
define linkonce_odr dereferenceable(8) %"class.std::locale"* @_ZSt7forwardIRKSt6localeEOT_RNSt16remove_referenceIS3_E4typeE(%"class.std::locale"* dereferenceable(8)) #5 comdat {
  %2 = alloca %"class.std::locale"*, align 8
  store %"class.std::locale"* %0, %"class.std::locale"** %2, align 8
  %3 = load %"class.std::locale"*, %"class.std::locale"** %2, align 8
  ret %"class.std::locale"* %3
}

; Function Attrs: noinline nounwind uwtable
define linkonce_odr dereferenceable(4) i32* @_ZSt7forwardIRNSt15regex_constants18syntax_option_typeEEOT_RNSt16remove_referenceIS3_E4typeE(i32* dereferenceable(4)) #5 comdat {
  %2 = alloca i32*, align 8
  store i32* %0, i32** %2, align 8
  %3 = load i32*, i32** %2, align 8
  ret i32* %3
}

; Function Attrs: noinline nounwind uwtable
define linkonce_odr void @_ZNSaINSt8__detail4_NFAINSt7__cxx1112regex_traitsIcEEEEED2Ev(%"class.std::allocator.15"*) unnamed_addr #5 comdat align 2 {
  %2 = alloca %"class.std::allocator.15"*, align 8
  store %"class.std::allocator.15"* %0, %"class.std::allocator.15"** %2, align 8
  %3 = load %"class.std::allocator.15"*, %"class.std::allocator.15"** %2, align 8
  %4 = bitcast %"class.std::allocator.15"* %3 to %"class.__gnu_cxx::new_allocator.16"*
  call void @_ZN9__gnu_cxx13new_allocatorINSt8__detail4_NFAINSt7__cxx1112regex_traitsIcEEEEED2Ev(%"class.__gnu_cxx::new_allocator.16"* %4) #3
  ret void
}

; Function Attrs: noinline uwtable
define linkonce_odr void @_ZNSt10shared_ptrINSt8__detail4_NFAINSt7__cxx1112regex_traitsIcEEEEEC2ISaIS5_EJRKSt6localeRNSt15regex_constants18syntax_option_typeEEEESt19_Sp_make_shared_tagRKT_DpOT0_(%"class.std::shared_ptr.10"*, %"class.std::allocator.15"* dereferenceable(1), %"class.std::locale"* dereferenceable(8), i32* dereferenceable(4)) unnamed_addr #0 comdat align 2 {
  %5 = alloca %"struct.std::_Sp_make_shared_tag", align 1
  %6 = alloca %"class.std::shared_ptr.10"*, align 8
  %7 = alloca %"class.std::allocator.15"*, align 8
  %8 = alloca %"class.std::locale"*, align 8
  %9 = alloca i32*, align 8
  %10 = alloca %"struct.std::_Sp_make_shared_tag", align 1
  store %"class.std::shared_ptr.10"* %0, %"class.std::shared_ptr.10"** %6, align 8
  store %"class.std::allocator.15"* %1, %"class.std::allocator.15"** %7, align 8
  store %"class.std::locale"* %2, %"class.std::locale"** %8, align 8
  store i32* %3, i32** %9, align 8
  %11 = load %"class.std::shared_ptr.10"*, %"class.std::shared_ptr.10"** %6, align 8
  %12 = bitcast %"class.std::shared_ptr.10"* %11 to %"class.std::__shared_ptr.11"*
  %13 = load %"class.std::allocator.15"*, %"class.std::allocator.15"** %7, align 8
  %14 = load %"class.std::locale"*, %"class.std::locale"** %8, align 8
  %15 = call dereferenceable(8) %"class.std::locale"* @_ZSt7forwardIRKSt6localeEOT_RNSt16remove_referenceIS3_E4typeE(%"class.std::locale"* dereferenceable(8) %14) #3
  %16 = load i32*, i32** %9, align 8
  %17 = call dereferenceable(4) i32* @_ZSt7forwardIRNSt15regex_constants18syntax_option_typeEEOT_RNSt16remove_referenceIS3_E4typeE(i32* dereferenceable(4) %16) #3
  call void @_ZNSt12__shared_ptrINSt8__detail4_NFAINSt7__cxx1112regex_traitsIcEEEELN9__gnu_cxx12_Lock_policyE2EEC2ISaIS5_EJRKSt6localeRNSt15regex_constants18syntax_option_typeEEEESt19_Sp_make_shared_tagRKT_DpOT0_(%"class.std::__shared_ptr.11"* %12, %"class.std::allocator.15"* dereferenceable(1) %13, %"class.std::locale"* dereferenceable(8) %15, i32* dereferenceable(4) %17)
  ret void
}

; Function Attrs: noinline uwtable
define linkonce_odr void @_ZNSt12__shared_ptrINSt8__detail4_NFAINSt7__cxx1112regex_traitsIcEEEELN9__gnu_cxx12_Lock_policyE2EEC2ISaIS5_EJRKSt6localeRNSt15regex_constants18syntax_option_typeEEEESt19_Sp_make_shared_tagRKT_DpOT0_(%"class.std::__shared_ptr.11"*, %"class.std::allocator.15"* dereferenceable(1), %"class.std::locale"* dereferenceable(8), i32* dereferenceable(4)) unnamed_addr #0 comdat align 2 {
  %5 = alloca %"struct.std::_Sp_make_shared_tag", align 1
  %6 = alloca %"class.std::__shared_ptr.11"*, align 8
  %7 = alloca %"class.std::allocator.15"*, align 8
  %8 = alloca %"class.std::locale"*, align 8
  %9 = alloca i32*, align 8
  %10 = alloca %"struct.std::_Sp_make_shared_tag", align 1
  %11 = alloca i8*, align 8
  store %"class.std::__shared_ptr.11"* %0, %"class.std::__shared_ptr.11"** %6, align 8
  store %"class.std::allocator.15"* %1, %"class.std::allocator.15"** %7, align 8
  store %"class.std::locale"* %2, %"class.std::locale"** %8, align 8
  store i32* %3, i32** %9, align 8
  %12 = load %"class.std::__shared_ptr.11"*, %"class.std::__shared_ptr.11"** %6, align 8
  %13 = getelementptr inbounds %"class.std::__shared_ptr.11", %"class.std::__shared_ptr.11"* %12, i32 0, i32 0
  store %"struct.std::__detail::_NFA"* null, %"struct.std::__detail::_NFA"** %13, align 8
  %14 = getelementptr inbounds %"class.std::__shared_ptr.11", %"class.std::__shared_ptr.11"* %12, i32 0, i32 1
  %15 = load %"class.std::allocator.15"*, %"class.std::allocator.15"** %7, align 8
  %16 = load %"class.std::locale"*, %"class.std::locale"** %8, align 8
  %17 = call dereferenceable(8) %"class.std::locale"* @_ZSt7forwardIRKSt6localeEOT_RNSt16remove_referenceIS3_E4typeE(%"class.std::locale"* dereferenceable(8) %16) #3
  %18 = load i32*, i32** %9, align 8
  %19 = call dereferenceable(4) i32* @_ZSt7forwardIRNSt15regex_constants18syntax_option_typeEEOT_RNSt16remove_referenceIS3_E4typeE(i32* dereferenceable(4) %18) #3
  call void @_ZNSt14__shared_countILN9__gnu_cxx12_Lock_policyE2EEC2INSt8__detail4_NFAINSt7__cxx1112regex_traitsIcEEEESaIS9_EJRKSt6localeRNSt15regex_constants18syntax_option_typeEEEESt19_Sp_make_shared_tagPT_RKT0_DpOT1_(%"class.std::__shared_count"* %14, %"struct.std::__detail::_NFA"* null, %"class.std::allocator.15"* dereferenceable(1) %15, %"class.std::locale"* dereferenceable(8) %17, i32* dereferenceable(4) %19)
  %20 = getelementptr inbounds %"class.std::__shared_ptr.11", %"class.std::__shared_ptr.11"* %12, i32 0, i32 1
  %21 = call i8* @_ZNKSt14__shared_countILN9__gnu_cxx12_Lock_policyE2EE14_M_get_deleterERKSt9type_info(%"class.std::__shared_count"* %20, %"class.std::type_info"* dereferenceable(16) bitcast ({ i8*, i8* }* @_ZTISt19_Sp_make_shared_tag to %"class.std::type_info"*)) #3
  store i8* %21, i8** %11, align 8
  %22 = load i8*, i8** %11, align 8
  %23 = bitcast i8* %22 to %"struct.std::__detail::_NFA"*
  %24 = getelementptr inbounds %"class.std::__shared_ptr.11", %"class.std::__shared_ptr.11"* %12, i32 0, i32 0
  store %"struct.std::__detail::_NFA"* %23, %"struct.std::__detail::_NFA"** %24, align 8
  %25 = getelementptr inbounds %"class.std::__shared_ptr.11", %"class.std::__shared_ptr.11"* %12, i32 0, i32 1
  %26 = getelementptr inbounds %"class.std::__shared_ptr.11", %"class.std::__shared_ptr.11"* %12, i32 0, i32 0
  %27 = load %"struct.std::__detail::_NFA"*, %"struct.std::__detail::_NFA"** %26, align 8
  %28 = getelementptr inbounds %"class.std::__shared_ptr.11", %"class.std::__shared_ptr.11"* %12, i32 0, i32 0
  %29 = load %"struct.std::__detail::_NFA"*, %"struct.std::__detail::_NFA"** %28, align 8
  call void (%"class.std::__shared_count"*, ...) @_ZSt32__enable_shared_from_this_helperILN9__gnu_cxx12_Lock_policyE2EEvRKSt14__shared_countIXT_EEz(%"class.std::__shared_count"* dereferenceable(8) %25, %"struct.std::__detail::_NFA"* %27, %"struct.std::__detail::_NFA"* %29) #3
  ret void
}

; Function Attrs: noinline uwtable
define linkonce_odr void @_ZNSt14__shared_countILN9__gnu_cxx12_Lock_policyE2EEC2INSt8__detail4_NFAINSt7__cxx1112regex_traitsIcEEEESaIS9_EJRKSt6localeRNSt15regex_constants18syntax_option_typeEEEESt19_Sp_make_shared_tagPT_RKT0_DpOT1_(%"class.std::__shared_count"*, %"struct.std::__detail::_NFA"*, %"class.std::allocator.15"* dereferenceable(1), %"class.std::locale"* dereferenceable(8), i32* dereferenceable(4)) unnamed_addr #0 comdat align 2 personality i8* bitcast (i32 (...)* @__gxx_personality_v0 to i8*) {
  %6 = alloca %"struct.std::_Sp_make_shared_tag", align 1
  %7 = alloca %"class.std::__shared_count"*, align 8
  %8 = alloca %"struct.std::__detail::_NFA"*, align 8
  %9 = alloca %"class.std::allocator.15"*, align 8
  %10 = alloca %"class.std::locale"*, align 8
  %11 = alloca i32*, align 8
  %12 = alloca %"class.std::allocator.18", align 1
  %13 = alloca %"struct.std::__allocated_ptr", align 8
  %14 = alloca i8*
  %15 = alloca i32
  %16 = alloca %"class.std::_Sp_counted_ptr_inplace"*, align 8
  %17 = alloca %"class.std::allocator.15", align 1
  store %"class.std::__shared_count"* %0, %"class.std::__shared_count"** %7, align 8
  store %"struct.std::__detail::_NFA"* %1, %"struct.std::__detail::_NFA"** %8, align 8
  store %"class.std::allocator.15"* %2, %"class.std::allocator.15"** %9, align 8
  store %"class.std::locale"* %3, %"class.std::locale"** %10, align 8
  store i32* %4, i32** %11, align 8
  %18 = load %"class.std::__shared_count"*, %"class.std::__shared_count"** %7, align 8
  %19 = getelementptr inbounds %"class.std::__shared_count", %"class.std::__shared_count"* %18, i32 0, i32 0
  store %"class.std::_Sp_counted_base"* null, %"class.std::_Sp_counted_base"** %19, align 8
  %20 = load %"class.std::allocator.15"*, %"class.std::allocator.15"** %9, align 8
  call void @_ZNSaISt23_Sp_counted_ptr_inplaceINSt8__detail4_NFAINSt7__cxx1112regex_traitsIcEEEESaIS5_ELN9__gnu_cxx12_Lock_policyE2EEEC2IS5_EERKSaIT_E(%"class.std::allocator.18"* %12, %"class.std::allocator.15"* dereferenceable(1) %20) #3
  invoke void @_ZSt18__allocate_guardedISaISt23_Sp_counted_ptr_inplaceINSt8__detail4_NFAINSt7__cxx1112regex_traitsIcEEEESaIS6_ELN9__gnu_cxx12_Lock_policyE2EEEESt15__allocated_ptrIT_ERSD_(%"struct.std::__allocated_ptr"* sret %13, %"class.std::allocator.18"* dereferenceable(1) %12)
          to label %21 unwind label %38

; <label>:21:                                     ; preds = %5
  %22 = invoke %"class.std::_Sp_counted_ptr_inplace"* @_ZNSt15__allocated_ptrISaISt23_Sp_counted_ptr_inplaceINSt8__detail4_NFAINSt7__cxx1112regex_traitsIcEEEESaIS6_ELN9__gnu_cxx12_Lock_policyE2EEEE3getEv(%"struct.std::__allocated_ptr"* %13)
          to label %23 unwind label %42

; <label>:23:                                     ; preds = %21
  store %"class.std::_Sp_counted_ptr_inplace"* %22, %"class.std::_Sp_counted_ptr_inplace"** %16, align 8
  %24 = load %"class.std::_Sp_counted_ptr_inplace"*, %"class.std::_Sp_counted_ptr_inplace"** %16, align 8
  %25 = bitcast %"class.std::_Sp_counted_ptr_inplace"* %24 to i8*
  %26 = bitcast i8* %25 to %"class.std::_Sp_counted_ptr_inplace"*
  %27 = load %"class.std::allocator.15"*, %"class.std::allocator.15"** %9, align 8
  %28 = call dereferenceable(1) %"class.std::allocator.15"* @_ZSt4moveIRKSaINSt8__detail4_NFAINSt7__cxx1112regex_traitsIcEEEEEEONSt16remove_referenceIT_E4typeEOSA_(%"class.std::allocator.15"* dereferenceable(1) %27) #3
  call void @_ZNSaINSt8__detail4_NFAINSt7__cxx1112regex_traitsIcEEEEEC2ERKS5_(%"class.std::allocator.15"* %17, %"class.std::allocator.15"* dereferenceable(1) %28) #3
  %29 = load %"class.std::locale"*, %"class.std::locale"** %10, align 8
  %30 = call dereferenceable(8) %"class.std::locale"* @_ZSt7forwardIRKSt6localeEOT_RNSt16remove_referenceIS3_E4typeE(%"class.std::locale"* dereferenceable(8) %29) #3
  %31 = load i32*, i32** %11, align 8
  %32 = call dereferenceable(4) i32* @_ZSt7forwardIRNSt15regex_constants18syntax_option_typeEEOT_RNSt16remove_referenceIS3_E4typeE(i32* dereferenceable(4) %31) #3
  invoke void @_ZNSt23_Sp_counted_ptr_inplaceINSt8__detail4_NFAINSt7__cxx1112regex_traitsIcEEEESaIS5_ELN9__gnu_cxx12_Lock_policyE2EEC2IJRKSt6localeRNSt15regex_constants18syntax_option_typeEEEES6_DpOT_(%"class.std::_Sp_counted_ptr_inplace"* %26, %"class.std::allocator.15"* %17, %"class.std::locale"* dereferenceable(8) %30, i32* dereferenceable(4) %32)
          to label %33 unwind label %46

; <label>:33:                                     ; preds = %23
  call void @_ZNSaINSt8__detail4_NFAINSt7__cxx1112regex_traitsIcEEEEED2Ev(%"class.std::allocator.15"* %17) #3
  %34 = load %"class.std::_Sp_counted_ptr_inplace"*, %"class.std::_Sp_counted_ptr_inplace"** %16, align 8
  %35 = bitcast %"class.std::_Sp_counted_ptr_inplace"* %34 to %"class.std::_Sp_counted_base"*
  %36 = getelementptr inbounds %"class.std::__shared_count", %"class.std::__shared_count"* %18, i32 0, i32 0
  store %"class.std::_Sp_counted_base"* %35, %"class.std::_Sp_counted_base"** %36, align 8
  %37 = call dereferenceable(16) %"struct.std::__allocated_ptr"* @_ZNSt15__allocated_ptrISaISt23_Sp_counted_ptr_inplaceINSt8__detail4_NFAINSt7__cxx1112regex_traitsIcEEEESaIS6_ELN9__gnu_cxx12_Lock_policyE2EEEEaSEDn(%"struct.std::__allocated_ptr"* %13, i8* null) #3
  call void @_ZNSt15__allocated_ptrISaISt23_Sp_counted_ptr_inplaceINSt8__detail4_NFAINSt7__cxx1112regex_traitsIcEEEESaIS6_ELN9__gnu_cxx12_Lock_policyE2EEEED2Ev(%"struct.std::__allocated_ptr"* %13) #3
  call void @_ZNSaISt23_Sp_counted_ptr_inplaceINSt8__detail4_NFAINSt7__cxx1112regex_traitsIcEEEESaIS5_ELN9__gnu_cxx12_Lock_policyE2EEED2Ev(%"class.std::allocator.18"* %12) #3
  ret void

; <label>:38:                                     ; preds = %5
  %39 = landingpad { i8*, i32 }
          cleanup
  %40 = extractvalue { i8*, i32 } %39, 0
  store i8* %40, i8** %14, align 8
  %41 = extractvalue { i8*, i32 } %39, 1
  store i32 %41, i32* %15, align 4
  br label %51

; <label>:42:                                     ; preds = %21
  %43 = landingpad { i8*, i32 }
          cleanup
  %44 = extractvalue { i8*, i32 } %43, 0
  store i8* %44, i8** %14, align 8
  %45 = extractvalue { i8*, i32 } %43, 1
  store i32 %45, i32* %15, align 4
  br label %50

; <label>:46:                                     ; preds = %23
  %47 = landingpad { i8*, i32 }
          cleanup
  %48 = extractvalue { i8*, i32 } %47, 0
  store i8* %48, i8** %14, align 8
  %49 = extractvalue { i8*, i32 } %47, 1
  store i32 %49, i32* %15, align 4
  call void @_ZNSaINSt8__detail4_NFAINSt7__cxx1112regex_traitsIcEEEEED2Ev(%"class.std::allocator.15"* %17) #3
  br label %50

; <label>:50:                                     ; preds = %46, %42
  call void @_ZNSt15__allocated_ptrISaISt23_Sp_counted_ptr_inplaceINSt8__detail4_NFAINSt7__cxx1112regex_traitsIcEEEESaIS6_ELN9__gnu_cxx12_Lock_policyE2EEEED2Ev(%"struct.std::__allocated_ptr"* %13) #3
  br label %51

; <label>:51:                                     ; preds = %50, %38
  call void @_ZNSaISt23_Sp_counted_ptr_inplaceINSt8__detail4_NFAINSt7__cxx1112regex_traitsIcEEEESaIS5_ELN9__gnu_cxx12_Lock_policyE2EEED2Ev(%"class.std::allocator.18"* %12) #3
  br label %52

; <label>:52:                                     ; preds = %51
  %53 = load i8*, i8** %14, align 8
  %54 = load i32, i32* %15, align 4
  %55 = insertvalue { i8*, i32 } undef, i8* %53, 0
  %56 = insertvalue { i8*, i32 } %55, i32 %54, 1
  resume { i8*, i32 } %56
}

; Function Attrs: noinline nounwind uwtable
define linkonce_odr i8* @_ZNKSt14__shared_countILN9__gnu_cxx12_Lock_policyE2EE14_M_get_deleterERKSt9type_info(%"class.std::__shared_count"*, %"class.std::type_info"* dereferenceable(16)) #5 comdat align 2 {
  %3 = alloca %"class.std::__shared_count"*, align 8
  %4 = alloca %"class.std::type_info"*, align 8
  store %"class.std::__shared_count"* %0, %"class.std::__shared_count"** %3, align 8
  store %"class.std::type_info"* %1, %"class.std::type_info"** %4, align 8
  %5 = load %"class.std::__shared_count"*, %"class.std::__shared_count"** %3, align 8
  %6 = getelementptr inbounds %"class.std::__shared_count", %"class.std::__shared_count"* %5, i32 0, i32 0
  %7 = load %"class.std::_Sp_counted_base"*, %"class.std::_Sp_counted_base"** %6, align 8
  %8 = icmp ne %"class.std::_Sp_counted_base"* %7, null
  br i1 %8, label %9, label %18

; <label>:9:                                      ; preds = %2
  %10 = getelementptr inbounds %"class.std::__shared_count", %"class.std::__shared_count"* %5, i32 0, i32 0
  %11 = load %"class.std::_Sp_counted_base"*, %"class.std::_Sp_counted_base"** %10, align 8
  %12 = bitcast %"class.std::_Sp_counted_base"* %11 to i8* (%"class.std::_Sp_counted_base"*, %"class.std::type_info"*)***
  %13 = load i8* (%"class.std::_Sp_counted_base"*, %"class.std::type_info"*)**, i8* (%"class.std::_Sp_counted_base"*, %"class.std::type_info"*)*** %12, align 8
  %14 = getelementptr inbounds i8* (%"class.std::_Sp_counted_base"*, %"class.std::type_info"*)*, i8* (%"class.std::_Sp_counted_base"*, %"class.std::type_info"*)** %13, i64 4
  %15 = load i8* (%"class.std::_Sp_counted_base"*, %"class.std::type_info"*)*, i8* (%"class.std::_Sp_counted_base"*, %"class.std::type_info"*)** %14, align 8
  %16 = load %"class.std::type_info"*, %"class.std::type_info"** %4, align 8
  %17 = call i8* %15(%"class.std::_Sp_counted_base"* %11, %"class.std::type_info"* dereferenceable(16) %16) #3
  br label %19

; <label>:18:                                     ; preds = %2
  br label %19

; <label>:19:                                     ; preds = %18, %9
  %20 = phi i8* [ %17, %9 ], [ null, %18 ]
  ret i8* %20
}

; Function Attrs: noinline nounwind uwtable
define linkonce_odr void @_ZSt32__enable_shared_from_this_helperILN9__gnu_cxx12_Lock_policyE2EEvRKSt14__shared_countIXT_EEz(%"class.std::__shared_count"* dereferenceable(8), ...) #5 comdat {
  %2 = alloca %"class.std::__shared_count"*, align 8
  store %"class.std::__shared_count"* %0, %"class.std::__shared_count"** %2, align 8
  ret void
}

; Function Attrs: noinline nounwind uwtable
define linkonce_odr void @_ZNSaISt23_Sp_counted_ptr_inplaceINSt8__detail4_NFAINSt7__cxx1112regex_traitsIcEEEESaIS5_ELN9__gnu_cxx12_Lock_policyE2EEEC2IS5_EERKSaIT_E(%"class.std::allocator.18"*, %"class.std::allocator.15"* dereferenceable(1)) unnamed_addr #5 comdat align 2 {
  %3 = alloca %"class.std::allocator.18"*, align 8
  %4 = alloca %"class.std::allocator.15"*, align 8
  store %"class.std::allocator.18"* %0, %"class.std::allocator.18"** %3, align 8
  store %"class.std::allocator.15"* %1, %"class.std::allocator.15"** %4, align 8
  %5 = load %"class.std::allocator.18"*, %"class.std::allocator.18"** %3, align 8
  %6 = bitcast %"class.std::allocator.18"* %5 to %"class.__gnu_cxx::new_allocator.19"*
  call void @_ZN9__gnu_cxx13new_allocatorISt23_Sp_counted_ptr_inplaceINSt8__detail4_NFAINSt7__cxx1112regex_traitsIcEEEESaIS7_ELNS_12_Lock_policyE2EEEC2Ev(%"class.__gnu_cxx::new_allocator.19"* %6) #3
  ret void
}

; Function Attrs: noinline uwtable
define linkonce_odr void @_ZSt18__allocate_guardedISaISt23_Sp_counted_ptr_inplaceINSt8__detail4_NFAINSt7__cxx1112regex_traitsIcEEEESaIS6_ELN9__gnu_cxx12_Lock_policyE2EEEESt15__allocated_ptrIT_ERSD_(%"struct.std::__allocated_ptr"* noalias sret, %"class.std::allocator.18"* dereferenceable(1)) #0 comdat {
  %3 = alloca %"class.std::allocator.18"*, align 8
  store %"class.std::allocator.18"* %1, %"class.std::allocator.18"** %3, align 8
  %4 = load %"class.std::allocator.18"*, %"class.std::allocator.18"** %3, align 8
  %5 = load %"class.std::allocator.18"*, %"class.std::allocator.18"** %3, align 8
  %6 = call %"class.std::_Sp_counted_ptr_inplace"* @_ZNSt16allocator_traitsISaISt23_Sp_counted_ptr_inplaceINSt8__detail4_NFAINSt7__cxx1112regex_traitsIcEEEESaIS6_ELN9__gnu_cxx12_Lock_policyE2EEEE8allocateERSB_m(%"class.std::allocator.18"* dereferenceable(1) %5, i64 1)
  call void @_ZNSt15__allocated_ptrISaISt23_Sp_counted_ptr_inplaceINSt8__detail4_NFAINSt7__cxx1112regex_traitsIcEEEESaIS6_ELN9__gnu_cxx12_Lock_policyE2EEEEC2ERSB_PSA_(%"struct.std::__allocated_ptr"* %0, %"class.std::allocator.18"* dereferenceable(1) %4, %"class.std::_Sp_counted_ptr_inplace"* %6) #3
  ret void
}

; Function Attrs: noinline uwtable
define linkonce_odr %"class.std::_Sp_counted_ptr_inplace"* @_ZNSt15__allocated_ptrISaISt23_Sp_counted_ptr_inplaceINSt8__detail4_NFAINSt7__cxx1112regex_traitsIcEEEESaIS6_ELN9__gnu_cxx12_Lock_policyE2EEEE3getEv(%"struct.std::__allocated_ptr"*) #0 comdat align 2 {
  %2 = alloca %"struct.std::__allocated_ptr"*, align 8
  store %"struct.std::__allocated_ptr"* %0, %"struct.std::__allocated_ptr"** %2, align 8
  %3 = load %"struct.std::__allocated_ptr"*, %"struct.std::__allocated_ptr"** %2, align 8
  %4 = getelementptr inbounds %"struct.std::__allocated_ptr", %"struct.std::__allocated_ptr"* %3, i32 0, i32 1
  %5 = load %"class.std::_Sp_counted_ptr_inplace"*, %"class.std::_Sp_counted_ptr_inplace"** %4, align 8
  %6 = call %"class.std::_Sp_counted_ptr_inplace"* @_ZNSt15__allocated_ptrISaISt23_Sp_counted_ptr_inplaceINSt8__detail4_NFAINSt7__cxx1112regex_traitsIcEEEESaIS6_ELN9__gnu_cxx12_Lock_policyE2EEEE10_S_raw_ptrEPSA_(%"struct.std::__allocated_ptr"* %3, %"class.std::_Sp_counted_ptr_inplace"* %5)
  ret %"class.std::_Sp_counted_ptr_inplace"* %6
}

; Function Attrs: noinline nounwind uwtable
define linkonce_odr dereferenceable(1) %"class.std::allocator.15"* @_ZSt4moveIRKSaINSt8__detail4_NFAINSt7__cxx1112regex_traitsIcEEEEEEONSt16remove_referenceIT_E4typeEOSA_(%"class.std::allocator.15"* dereferenceable(1)) #5 comdat {
  %2 = alloca %"class.std::allocator.15"*, align 8
  store %"class.std::allocator.15"* %0, %"class.std::allocator.15"** %2, align 8
  %3 = load %"class.std::allocator.15"*, %"class.std::allocator.15"** %2, align 8
  ret %"class.std::allocator.15"* %3
}

; Function Attrs: noinline nounwind uwtable
define linkonce_odr void @_ZNSaINSt8__detail4_NFAINSt7__cxx1112regex_traitsIcEEEEEC2ERKS5_(%"class.std::allocator.15"*, %"class.std::allocator.15"* dereferenceable(1)) unnamed_addr #5 comdat align 2 {
  %3 = alloca %"class.std::allocator.15"*, align 8
  %4 = alloca %"class.std::allocator.15"*, align 8
  store %"class.std::allocator.15"* %0, %"class.std::allocator.15"** %3, align 8
  store %"class.std::allocator.15"* %1, %"class.std::allocator.15"** %4, align 8
  %5 = load %"class.std::allocator.15"*, %"class.std::allocator.15"** %3, align 8
  %6 = bitcast %"class.std::allocator.15"* %5 to %"class.__gnu_cxx::new_allocator.16"*
  %7 = load %"class.std::allocator.15"*, %"class.std::allocator.15"** %4, align 8
  %8 = bitcast %"class.std::allocator.15"* %7 to %"class.__gnu_cxx::new_allocator.16"*
  call void @_ZN9__gnu_cxx13new_allocatorINSt8__detail4_NFAINSt7__cxx1112regex_traitsIcEEEEEC2ERKS7_(%"class.__gnu_cxx::new_allocator.16"* %6, %"class.__gnu_cxx::new_allocator.16"* dereferenceable(1) %8) #3
  ret void
}

; Function Attrs: noinline uwtable
define linkonce_odr void @_ZNSt23_Sp_counted_ptr_inplaceINSt8__detail4_NFAINSt7__cxx1112regex_traitsIcEEEESaIS5_ELN9__gnu_cxx12_Lock_policyE2EEC2IJRKSt6localeRNSt15regex_constants18syntax_option_typeEEEES6_DpOT_(%"class.std::_Sp_counted_ptr_inplace"*, %"class.std::allocator.15"*, %"class.std::locale"* dereferenceable(8), i32* dereferenceable(4)) unnamed_addr #0 comdat align 2 personality i8* bitcast (i32 (...)* @__gxx_personality_v0 to i8*) {
  %5 = alloca %"class.std::_Sp_counted_ptr_inplace"*, align 8
  %6 = alloca %"class.std::locale"*, align 8
  %7 = alloca i32*, align 8
  %8 = alloca %"class.std::allocator.15", align 1
  %9 = alloca i8*
  %10 = alloca i32
  store %"class.std::_Sp_counted_ptr_inplace"* %0, %"class.std::_Sp_counted_ptr_inplace"** %5, align 8
  store %"class.std::locale"* %2, %"class.std::locale"** %6, align 8
  store i32* %3, i32** %7, align 8
  %11 = load %"class.std::_Sp_counted_ptr_inplace"*, %"class.std::_Sp_counted_ptr_inplace"** %5, align 8
  %12 = bitcast %"class.std::_Sp_counted_ptr_inplace"* %11 to %"class.std::_Sp_counted_base"*
  call void @_ZNSt16_Sp_counted_baseILN9__gnu_cxx12_Lock_policyE2EEC2Ev(%"class.std::_Sp_counted_base"* %12) #3
  %13 = bitcast %"class.std::_Sp_counted_ptr_inplace"* %11 to i32 (...)***
  store i32 (...)** bitcast (i8** getelementptr inbounds ({ [7 x i8*] }, { [7 x i8*] }* @_ZTVSt23_Sp_counted_ptr_inplaceINSt8__detail4_NFAINSt7__cxx1112regex_traitsIcEEEESaIS5_ELN9__gnu_cxx12_Lock_policyE2EE, i32 0, inrange i32 0, i32 2) to i32 (...)**), i32 (...)*** %13, align 8
  %14 = getelementptr inbounds %"class.std::_Sp_counted_ptr_inplace", %"class.std::_Sp_counted_ptr_inplace"* %11, i32 0, i32 1
  call void @_ZNSaINSt8__detail4_NFAINSt7__cxx1112regex_traitsIcEEEEEC2ERKS5_(%"class.std::allocator.15"* %8, %"class.std::allocator.15"* dereferenceable(1) %1) #3
  call void @_ZNSt23_Sp_counted_ptr_inplaceINSt8__detail4_NFAINSt7__cxx1112regex_traitsIcEEEESaIS5_ELN9__gnu_cxx12_Lock_policyE2EE5_ImplC2ES6_(%"class.std::_Sp_counted_ptr_inplace<std::__detail::_NFA<std::__cxx11::regex_traits<char> >, std::allocator<std::__detail::_NFA<std::__cxx11::regex_traits<char> > >, __gnu_cxx::_Lock_policy::_S_atomic>::_Impl"* %14, %"class.std::allocator.15"* %8) #3
  call void @_ZNSaINSt8__detail4_NFAINSt7__cxx1112regex_traitsIcEEEEED2Ev(%"class.std::allocator.15"* %8) #3
  %15 = call %"struct.std::__detail::_NFA"* @_ZNSt23_Sp_counted_ptr_inplaceINSt8__detail4_NFAINSt7__cxx1112regex_traitsIcEEEESaIS5_ELN9__gnu_cxx12_Lock_policyE2EE6_M_ptrEv(%"class.std::_Sp_counted_ptr_inplace"* %11) #3
  %16 = load %"class.std::locale"*, %"class.std::locale"** %6, align 8
  %17 = call dereferenceable(8) %"class.std::locale"* @_ZSt7forwardIRKSt6localeEOT_RNSt16remove_referenceIS3_E4typeE(%"class.std::locale"* dereferenceable(8) %16) #3
  %18 = load i32*, i32** %7, align 8
  %19 = call dereferenceable(4) i32* @_ZSt7forwardIRNSt15regex_constants18syntax_option_typeEEOT_RNSt16remove_referenceIS3_E4typeE(i32* dereferenceable(4) %18) #3
