; ModuleID = 'Project_CodeNet_C++1400/p03265/s145650883.cpp'
source_filename = "Project_CodeNet_C++1400/p03265/s145650883.cpp"
target datalayout = "e-m:e-p270:32:32-p271:32:32-p272:64:64-i64:64-f80:128-n8:16:32:64-S128"
target triple = "x86_64-pc-linux-gnu"

%"class.std::ios_base::Init" = type { i8 }
%"class.std::basic_istream" = type { i32 (...)**, i64, %"class.std::basic_ios" }
%"class.std::basic_ios" = type { %"class.std::ios_base", %"class.std::basic_ostream"*, i8, i8, %"class.std::basic_streambuf"*, %"class.std::ctype"*, %"class.std::num_put"*, %"class.std::num_get"* }
%"class.std::ios_base" = type { i32 (...)**, i64, i64, i32, i32, i32, %"struct.std::ios_base::_Callback_list"*, %"struct.std::ios_base::_Words", [8 x %"struct.std::ios_base::_Words"], i32, %"struct.std::ios_base::_Words"*, %"class.std::locale" }
%"struct.std::ios_base::_Callback_list" = type { %"struct.std::ios_base::_Callback_list"*, void (i32, %"class.std::ios_base"*, i32)*, i32, i32 }
%"struct.std::ios_base::_Words" = type { i8*, i64 }
%"class.std::locale" = type { %"class.std::locale::_Impl"* }
%"class.std::locale::_Impl" = type { i32, %"class.std::locale::facet"**, i64, %"class.std::locale::facet"**, i8** }
%"class.std::locale::facet" = type <{ i32 (...)**, i32, [4 x i8] }>
%"class.std::basic_ostream" = type { i32 (...)**, %"class.std::basic_ios" }
%"class.std::basic_streambuf" = type { i32 (...)**, i8*, i8*, i8*, i8*, i8*, i8*, %"class.std::locale" }
%"class.std::ctype" = type <{ %"class.std::locale::facet.base", [4 x i8], %struct.__locale_struct*, i8, [7 x i8], i32*, i32*, i16*, i8, [256 x i8], [256 x i8], i8, [6 x i8] }>
%"class.std::locale::facet.base" = type <{ i32 (...)**, i32 }>
%struct.__locale_struct = type { [13 x %struct.__locale_data*], i16*, i32*, i32*, [13 x i8*] }
%struct.__locale_data = type opaque
%"class.std::num_put" = type { %"class.std::locale::facet.base", [4 x i8] }
%"class.std::num_get" = type { %"class.std::locale::facet.base", [4 x i8] }

@_ZStL8__ioinit = internal global %"class.std::ios_base::Init" zeroinitializer, align 1
@__dso_handle = external hidden global i8
@_ZSt3cin = external global %"class.std::basic_istream", align 8
@_ZSt4cout = external global %"class.std::basic_ostream", align 8
@.str = private unnamed_addr constant [2 x i8] c" \00", align 1
@llvm.global_ctors = appending global [1 x { i32, void ()*, i8* }] [{ i32, void ()*, i8* } { i32 65535, void ()* @_GLOBAL__sub_I_s145650883.cpp, i8* null }]

; Function Attrs: minsize optsize
declare void @_ZNSt8ios_base4InitC1Ev(%"class.std::ios_base::Init"* nonnull align 1 dereferenceable(1)) unnamed_addr #0

; Function Attrs: minsize nounwind optsize
declare void @_ZNSt8ios_base4InitD1Ev(%"class.std::ios_base::Init"* nonnull align 1 dereferenceable(1)) unnamed_addr #1

; Function Attrs: nofree nounwind
declare i32 @__cxa_atexit(void (i8*)*, i8*, i8*) local_unnamed_addr #2

; Function Attrs: minsize mustprogress norecurse optsize sspstrong uwtable
define dso_local i32 @main() local_unnamed_addr #3 {
  %1 = alloca i32, align 4
  %2 = alloca i32, align 4
  %3 = alloca i32, align 4
  %4 = alloca i32, align 4
  %5 = tail call zeroext i1 @_ZNSt8ios_base15sync_with_stdioEb(i1 zeroext false) #8
  %6 = load i8*, i8** bitcast (%"class.std::basic_istream"* @_ZSt3cin to i8**), align 8, !tbaa !5
  %7 = getelementptr i8, i8* %6, i64 -24
  %8 = bitcast i8* %7 to i64*
  %9 = load i64, i64* %8, align 8
  %10 = add nsw i64 %9, 216
  %11 = getelementptr inbounds i8, i8* bitcast (%"class.std::basic_istream"* @_ZSt3cin to i8*), i64 %10
  %12 = bitcast i8* %11 to %"class.std::basic_ostream"**
  store %"class.std::basic_ostream"* null, %"class.std::basic_ostream"** %12, align 8, !tbaa !8
  %13 = load i8*, i8** bitcast (%"class.std::basic_ostream"* @_ZSt4cout to i8**), align 8, !tbaa !5
  %14 = getelementptr i8, i8* %13, i64 -24
  %15 = bitcast i8* %14 to i64*
  %16 = load i64, i64* %15, align 8
  %17 = add nsw i64 %16, 8
  %18 = getelementptr inbounds i8, i8* bitcast (%"class.std::basic_ostream"* @_ZSt4cout to i8*), i64 %17
  %19 = bitcast i8* %18 to i64*
  store i64 20, i64* %19, align 8, !tbaa !13
  %20 = load i64, i64* %15, align 8
  %21 = add nsw i64 %20, 24
  %22 = getelementptr inbounds i8, i8* bitcast (%"class.std::basic_ostream"* @_ZSt4cout to i8*), i64 %21
  %23 = bitcast i8* %22 to i32*
  %24 = load i32, i32* %23, align 8, !tbaa !21
  %25 = and i32 %24, -261
  %26 = or i32 %25, 4
  store i32 %26, i32* %23, align 8, !tbaa !22
  %27 = bitcast i32* %1 to i8*
  call void @llvm.lifetime.start.p0i8(i64 4, i8* nonnull %27) #9
  %28 = bitcast i32* %2 to i8*
  call void @llvm.lifetime.start.p0i8(i64 4, i8* nonnull %28) #9
  %29 = bitcast i32* %3 to i8*
  call void @llvm.lifetime.start.p0i8(i64 4, i8* nonnull %29) #9
  %30 = bitcast i32* %4 to i8*
  call void @llvm.lifetime.start.p0i8(i64 4, i8* nonnull %30) #9
  %31 = call nonnull align 8 dereferenceable(16) %"class.std::basic_istream"* @_ZNSirsERi(%"class.std::basic_istream"* nonnull align 8 dereferenceable(16) @_ZSt3cin, i32* nonnull align 4 dereferenceable(4) %1) #8
  %32 = call nonnull align 8 dereferenceable(16) %"class.std::basic_istream"* @_ZNSirsERi(%"class.std::basic_istream"* nonnull align 8 dereferenceable(16) %31, i32* nonnull align 4 dereferenceable(4) %2) #8
  %33 = call nonnull align 8 dereferenceable(16) %"class.std::basic_istream"* @_ZNSirsERi(%"class.std::basic_istream"* nonnull align 8 dereferenceable(16) %32, i32* nonnull align 4 dereferenceable(4) %3) #8
  %34 = call nonnull align 8 dereferenceable(16) %"class.std::basic_istream"* @_ZNSirsERi(%"class.std::basic_istream"* nonnull align 8 dereferenceable(16) %33, i32* nonnull align 4 dereferenceable(4) %4) #8
  %35 = load i32, i32* %1, align 4, !tbaa !23
  %36 = load i32, i32* %3, align 4, !tbaa !23
  %37 = sub nsw i32 %35, %36
  %38 = call i32 @llvm.abs.i32(i32 %37, i1 true)
  %39 = load i32, i32* %2, align 4, !tbaa !23
  %40 = load i32, i32* %4, align 4, !tbaa !23
  %41 = sub nsw i32 %39, %40
  %42 = call i32 @llvm.abs.i32(i32 %41, i1 true)
  %43 = icmp slt i32 %35, %36
  %44 = icmp slt i32 %39, %40
  %45 = select i1 %43, i1 true, i1 %44
  br i1 %45, label %61, label %46

46:                                               ; preds = %0
  %47 = add nsw i32 %42, %36
  %48 = call nonnull align 8 dereferenceable(8) %"class.std::basic_ostream"* @_ZNSolsEi(%"class.std::basic_ostream"* nonnull align 8 dereferenceable(8) @_ZSt4cout, i32 %47) #8
  %49 = call nonnull align 8 dereferenceable(8) %"class.std::basic_ostream"* @_ZStlsISt11char_traitsIcEERSt13basic_ostreamIcT_ES5_PKc(%"class.std::basic_ostream"* nonnull align 8 dereferenceable(8) %48, i8* getelementptr inbounds ([2 x i8], [2 x i8]* @.str, i64 0, i64 0)) #8
  %50 = load i32, i32* %4, align 4, !tbaa !23
  %51 = sub nsw i32 %50, %38
  %52 = call nonnull align 8 dereferenceable(8) %"class.std::basic_ostream"* @_ZNSolsEi(%"class.std::basic_ostream"* nonnull align 8 dereferenceable(8) %49, i32 %51) #8
  %53 = call nonnull align 8 dereferenceable(8) %"class.std::basic_ostream"* @_ZStlsISt11char_traitsIcEERSt13basic_ostreamIcT_ES5_PKc(%"class.std::basic_ostream"* nonnull align 8 dereferenceable(8) %52, i8* getelementptr inbounds ([2 x i8], [2 x i8]* @.str, i64 0, i64 0)) #8
  %54 = load i32, i32* %1, align 4, !tbaa !23
  %55 = add nsw i32 %54, %42
  %56 = call nonnull align 8 dereferenceable(8) %"class.std::basic_ostream"* @_ZNSolsEi(%"class.std::basic_ostream"* nonnull align 8 dereferenceable(8) %53, i32 %55) #8
  %57 = call nonnull align 8 dereferenceable(8) %"class.std::basic_ostream"* @_ZStlsISt11char_traitsIcEERSt13basic_ostreamIcT_ES5_PKc(%"class.std::basic_ostream"* nonnull align 8 dereferenceable(8) %56, i8* getelementptr inbounds ([2 x i8], [2 x i8]* @.str, i64 0, i64 0)) #8
  %58 = load i32, i32* %2, align 4, !tbaa !23
  %59 = sub nsw i32 %58, %38
  %60 = call nonnull align 8 dereferenceable(8) %"class.std::basic_ostream"* @_ZNSolsEi(%"class.std::basic_ostream"* nonnull align 8 dereferenceable(8) %57, i32 %59) #8
  br label %112

61:                                               ; preds = %0
  %62 = icmp sgt i32 %39, %40
  %63 = select i1 %43, i1 true, i1 %62
  br i1 %63, label %79, label %64

64:                                               ; preds = %61
  %65 = sub nsw i32 %36, %42
  %66 = call nonnull align 8 dereferenceable(8) %"class.std::basic_ostream"* @_ZNSolsEi(%"class.std::basic_ostream"* nonnull align 8 dereferenceable(8) @_ZSt4cout, i32 %65) #8
  %67 = call nonnull align 8 dereferenceable(8) %"class.std::basic_ostream"* @_ZStlsISt11char_traitsIcEERSt13basic_ostreamIcT_ES5_PKc(%"class.std::basic_ostream"* nonnull align 8 dereferenceable(8) %66, i8* getelementptr inbounds ([2 x i8], [2 x i8]* @.str, i64 0, i64 0)) #8
  %68 = load i32, i32* %4, align 4, !tbaa !23
  %69 = sub nsw i32 %68, %38
  %70 = call nonnull align 8 dereferenceable(8) %"class.std::basic_ostream"* @_ZNSolsEi(%"class.std::basic_ostream"* nonnull align 8 dereferenceable(8) %67, i32 %69) #8
  %71 = call nonnull align 8 dereferenceable(8) %"class.std::basic_ostream"* @_ZStlsISt11char_traitsIcEERSt13basic_ostreamIcT_ES5_PKc(%"class.std::basic_ostream"* nonnull align 8 dereferenceable(8) %70, i8* getelementptr inbounds ([2 x i8], [2 x i8]* @.str, i64 0, i64 0)) #8
  %72 = load i32, i32* %1, align 4, !tbaa !23
  %73 = sub nsw i32 %72, %42
  %74 = call nonnull align 8 dereferenceable(8) %"class.std::basic_ostream"* @_ZNSolsEi(%"class.std::basic_ostream"* nonnull align 8 dereferenceable(8) %71, i32 %73) #8
  %75 = call nonnull align 8 dereferenceable(8) %"class.std::basic_ostream"* @_ZStlsISt11char_traitsIcEERSt13basic_ostreamIcT_ES5_PKc(%"class.std::basic_ostream"* nonnull align 8 dereferenceable(8) %74, i8* getelementptr inbounds ([2 x i8], [2 x i8]* @.str, i64 0, i64 0)) #8
  %76 = load i32, i32* %2, align 4, !tbaa !23
  %77 = sub nsw i32 %76, %38
  %78 = call nonnull align 8 dereferenceable(8) %"class.std::basic_ostream"* @_ZNSolsEi(%"class.std::basic_ostream"* nonnull align 8 dereferenceable(8) %75, i32 %77) #8
  br label %112

79:                                               ; preds = %61
  %80 = icmp sgt i32 %35, %36
  br i1 %80, label %115, label %81

81:                                               ; preds = %79
  br i1 %44, label %97, label %82

82:                                               ; preds = %81
  %83 = add nsw i32 %42, %36
  %84 = call nonnull align 8 dereferenceable(8) %"class.std::basic_ostream"* @_ZNSolsEi(%"class.std::basic_ostream"* nonnull align 8 dereferenceable(8) @_ZSt4cout, i32 %83) #8
  %85 = call nonnull align 8 dereferenceable(8) %"class.std::basic_ostream"* @_ZStlsISt11char_traitsIcEERSt13basic_ostreamIcT_ES5_PKc(%"class.std::basic_ostream"* nonnull align 8 dereferenceable(8) %84, i8* getelementptr inbounds ([2 x i8], [2 x i8]* @.str, i64 0, i64 0)) #8
  %86 = load i32, i32* %4, align 4, !tbaa !23
  %87 = add nsw i32 %86, %38
  %88 = call nonnull align 8 dereferenceable(8) %"class.std::basic_ostream"* @_ZNSolsEi(%"class.std::basic_ostream"* nonnull align 8 dereferenceable(8) %85, i32 %87) #8
  %89 = call nonnull align 8 dereferenceable(8) %"class.std::basic_ostream"* @_ZStlsISt11char_traitsIcEERSt13basic_ostreamIcT_ES5_PKc(%"class.std::basic_ostream"* nonnull align 8 dereferenceable(8) %88, i8* getelementptr inbounds ([2 x i8], [2 x i8]* @.str, i64 0, i64 0)) #8
  %90 = load i32, i32* %1, align 4, !tbaa !23
  %91 = add nsw i32 %90, %42
  %92 = call nonnull align 8 dereferenceable(8) %"class.std::basic_ostream"* @_ZNSolsEi(%"class.std::basic_ostream"* nonnull align 8 dereferenceable(8) %89, i32 %91) #8
  %93 = call nonnull align 8 dereferenceable(8) %"class.std::basic_ostream"* @_ZStlsISt11char_traitsIcEERSt13basic_ostreamIcT_ES5_PKc(%"class.std::basic_ostream"* nonnull align 8 dereferenceable(8) %92, i8* getelementptr inbounds ([2 x i8], [2 x i8]* @.str, i64 0, i64 0)) #8
  %94 = load i32, i32* %2, align 4, !tbaa !23
  %95 = add nsw i32 %94, %38
  %96 = call nonnull align 8 dereferenceable(8) %"class.std::basic_ostream"* @_ZNSolsEi(%"class.std::basic_ostream"* nonnull align 8 dereferenceable(8) %93, i32 %95) #8
  br label %112

97:                                               ; preds = %81
  %98 = sub nsw i32 %36, %42
  %99 = call nonnull align 8 dereferenceable(8) %"class.std::basic_ostream"* @_ZNSolsEi(%"class.std::basic_ostream"* nonnull align 8 dereferenceable(8) @_ZSt4cout, i32 %98) #8
  %100 = call nonnull align 8 dereferenceable(8) %"class.std::basic_ostream"* @_ZStlsISt11char_traitsIcEERSt13basic_ostreamIcT_ES5_PKc(%"class.std::basic_ostream"* nonnull align 8 dereferenceable(8) %99, i8* getelementptr inbounds ([2 x i8], [2 x i8]* @.str, i64 0, i64 0)) #8
  %101 = load i32, i32* %4, align 4, !tbaa !23
  %102 = add nsw i32 %101, %38
  %103 = call nonnull align 8 dereferenceable(8) %"class.std::basic_ostream"* @_ZNSolsEi(%"class.std::basic_ostream"* nonnull align 8 dereferenceable(8) %100, i32 %102) #8
  %104 = call nonnull align 8 dereferenceable(8) %"class.std::basic_ostream"* @_ZStlsISt11char_traitsIcEERSt13basic_ostreamIcT_ES5_PKc(%"class.std::basic_ostream"* nonnull align 8 dereferenceable(8) %103, i8* getelementptr inbounds ([2 x i8], [2 x i8]* @.str, i64 0, i64 0)) #8
  %105 = load i32, i32* %1, align 4, !tbaa !23
  %106 = sub nsw i32 %105, %42
  %107 = call nonnull align 8 dereferenceable(8) %"class.std::basic_ostream"* @_ZNSolsEi(%"class.std::basic_ostream"* nonnull align 8 dereferenceable(8) %104, i32 %106) #8
  %108 = call nonnull align 8 dereferenceable(8) %"class.std::basic_ostream"* @_ZStlsISt11char_traitsIcEERSt13basic_ostreamIcT_ES5_PKc(%"class.std::basic_ostream"* nonnull align 8 dereferenceable(8) %107, i8* getelementptr inbounds ([2 x i8], [2 x i8]* @.str, i64 0, i64 0)) #8
  %109 = load i32, i32* %2, align 4, !tbaa !23
  %110 = add nsw i32 %109, %38
  %111 = call nonnull align 8 dereferenceable(8) %"class.std::basic_ostream"* @_ZNSolsEi(%"class.std::basic_ostream"* nonnull align 8 dereferenceable(8) %108, i32 %110) #8
  br label %112

112:                                              ; preds = %46, %82, %97, %64
  %113 = phi %"class.std::basic_ostream"* [ %78, %64 ], [ %111, %97 ], [ %96, %82 ], [ %60, %46 ]
  %114 = call nonnull align 8 dereferenceable(8) %"class.std::basic_ostream"* @_ZSt4endlIcSt11char_traitsIcEERSt13basic_ostreamIT_T0_ES6_(%"class.std::basic_ostream"* nonnull align 8 dereferenceable(8) %113) #8
  br label %115

115:                                              ; preds = %112, %79
  call void @llvm.lifetime.end.p0i8(i64 4, i8* nonnull %30) #9
  call void @llvm.lifetime.end.p0i8(i64 4, i8* nonnull %29) #9
  call void @llvm.lifetime.end.p0i8(i64 4, i8* nonnull %28) #9
  call void @llvm.lifetime.end.p0i8(i64 4, i8* nonnull %27) #9
  ret i32 0
}

; Function Attrs: minsize optsize
declare zeroext i1 @_ZNSt8ios_base15sync_with_stdioEb(i1 zeroext) local_unnamed_addr #0

; Function Attrs: argmemonly mustprogress nofree nosync nounwind willreturn
declare void @llvm.lifetime.start.p0i8(i64 immarg, i8* nocapture) #4

; Function Attrs: minsize optsize
declare nonnull align 8 dereferenceable(16) %"class.std::basic_istream"* @_ZNSirsERi(%"class.std::basic_istream"* nonnull align 8 dereferenceable(16), i32* nonnull align 4 dereferenceable(4)) local_unnamed_addr #0

; Function Attrs: inlinehint minsize mustprogress optsize sspstrong uwtable
declare nonnull align 8 dereferenceable(8) %"class.std::basic_ostream"* @_ZStlsISt11char_traitsIcEERSt13basic_ostreamIcT_ES5_PKc(%"class.std::basic_ostream"* nonnull align 8 dereferenceable(8), i8*) local_unnamed_addr #5

; Function Attrs: minsize optsize
declare nonnull align 8 dereferenceable(8) %"class.std::basic_ostream"* @_ZNSolsEi(%"class.std::basic_ostream"* nonnull align 8 dereferenceable(8), i32) local_unnamed_addr #0

; Function Attrs: inlinehint minsize mustprogress optsize sspstrong uwtable
declare nonnull align 8 dereferenceable(8) %"class.std::basic_ostream"* @_ZSt4endlIcSt11char_traitsIcEERSt13basic_ostreamIT_T0_ES6_(%"class.std::basic_ostream"* nonnull align 8 dereferenceable(8)) local_unnamed_addr #5

; Function Attrs: argmemonly mustprogress nofree nosync nounwind willreturn
declare void @llvm.lifetime.end.p0i8(i64 immarg, i8* nocapture) #4

; Function Attrs: minsize optsize sspstrong uwtable
define internal void @_GLOBAL__sub_I_s145650883.cpp() #6 section ".text.startup" {
  tail call void @_ZNSt8ios_base4InitC1Ev(%"class.std::ios_base::Init"* nonnull align 1 dereferenceable(1) @_ZStL8__ioinit) #8
  %1 = tail call i32 @__cxa_atexit(void (i8*)* bitcast (void (%"class.std::ios_base::Init"*)* @_ZNSt8ios_base4InitD1Ev to void (i8*)*), i8* getelementptr inbounds (%"class.std::ios_base::Init", %"class.std::ios_base::Init"* @_ZStL8__ioinit, i64 0, i32 0), i8* nonnull @__dso_handle) #9
  ret void
}

; Function Attrs: nofree nosync nounwind readnone speculatable willreturn
declare i32 @llvm.abs.i32(i32, i1 immarg) #7

attributes #0 = { minsize optsize "frame-pointer"="none" "no-trapping-math"="true" "stack-protector-buffer-size"="8" "target-cpu"="x86-64" "target-features"="+cx8,+fxsr,+mmx,+sse,+sse2,+x87" "tune-cpu"="generic" }
attributes #1 = { minsize nounwind optsize "frame-pointer"="none" "no-trapping-math"="true" "stack-protector-buffer-size"="8" "target-cpu"="x86-64" "target-features"="+cx8,+fxsr,+mmx,+sse,+sse2,+x87" "tune-cpu"="generic" }
attributes #2 = { nofree nounwind }
attributes #3 = { minsize mustprogress norecurse optsize sspstrong uwtable "frame-pointer"="none" "min-legal-vector-width"="0" "no-trapping-math"="true" "stack-protector-buffer-size"="8" "target-cpu"="x86-64" "target-features"="+cx8,+fxsr,+mmx,+sse,+sse2,+x87" "tune-cpu"="generic" }
attributes #4 = { argmemonly mustprogress nofree nosync nounwind willreturn }
attributes #5 = { inlinehint minsize mustprogress optsize sspstrong uwtable "frame-pointer"="none" "min-legal-vector-width"="0" "no-trapping-math"="true" "stack-protector-buffer-size"="8" "target-cpu"="x86-64" "target-features"="+cx8,+fxsr,+mmx,+sse,+sse2,+x87" "tune-cpu"="generic" }
attributes #6 = { minsize optsize sspstrong uwtable "frame-pointer"="none" "min-legal-vector-width"="0" "no-trapping-math"="true" "stack-protector-buffer-size"="8" "target-cpu"="x86-64" "target-features"="+cx8,+fxsr,+mmx,+sse,+sse2,+x87" "tune-cpu"="generic" }
attributes #7 = { nofree nosync nounwind readnone speculatable willreturn }
attributes #8 = { minsize optsize }
attributes #9 = { nounwind }

!llvm.module.flags = !{!0, !1, !2, !3}
!llvm.ident = !{!4}

!0 = !{i32 1, !"wchar_size", i32 4}
!1 = !{i32 7, !"PIC Level", i32 2}
!2 = !{i32 7, !"PIE Level", i32 2}
!3 = !{i32 7, !"uwtable", i32 1}
!4 = !{!"clang version 13.0.0"}
!5 = !{!6, !6, i64 0}
!6 = !{!"vtable pointer", !7, i64 0}
!7 = !{!"Simple C++ TBAA"}
!8 = !{!9, !10, i64 216}
!9 = !{!"_ZTSSt9basic_iosIcSt11char_traitsIcEE", !10, i64 216, !11, i64 224, !12, i64 225, !10, i64 232, !10, i64 240, !10, i64 248, !10, i64 256}
!10 = !{!"any pointer", !11, i64 0}
!11 = !{!"omnipotent char", !7, i64 0}
!12 = !{!"bool", !11, i64 0}
!13 = !{!14, !15, i64 8}
!14 = !{!"_ZTSSt8ios_base", !15, i64 8, !15, i64 16, !16, i64 24, !17, i64 28, !17, i64 32, !10, i64 40, !18, i64 48, !11, i64 64, !19, i64 192, !10, i64 200, !20, i64 208}
!15 = !{!"long", !11, i64 0}
!16 = !{!"_ZTSSt13_Ios_Fmtflags", !11, i64 0}
!17 = !{!"_ZTSSt12_Ios_Iostate", !11, i64 0}
!18 = !{!"_ZTSNSt8ios_base6_WordsE", !10, i64 0, !15, i64 8}
!19 = !{!"int", !11, i64 0}
!20 = !{!"_ZTSSt6locale", !10, i64 0}
!21 = !{!14, !16, i64 24}
!22 = !{!16, !16, i64 0}
!23 = !{!19, !19, i64 0}
