; ModuleID = 'build_ollvm/programs/p02763/s076560328.ll'
source_filename = "Project_CodeNet_C++1400/p02763/s076560328.cpp"
target datalayout = "e-m:e-p270:32:32-p271:32:32-p272:64:64-i64:64-f80:128-n8:16:32:64-S128"
target triple = "x86_64-pc-linux-gnu"

%"class.std::ios_base::Init" = type { i8 }
%"class.std::basic_istream" = type { i32 (...)**, i64, %"class.std::basic_ios" }
%"class.std::basic_ios" = type { %"class.std::ios_base", %"class.std::basic_ostream"*, i8, i8, %"class.std::basic_streambuf"*, %"class.std::ctype"*, %"class.std::num_put"*, %"class.std::num_get"* }
%"class.std::ios_base" = type { i32 (...)**, i64, i64, i32, i32, i32, %"struct.std::ios_base::_Callback_list"*, %"struct.std::ios_base::_Words", [8 x %"struct.std::ios_base::_Words"], i32, %"struct.std::ios_base::_Words"*, %"class.std::locale" }
%"struct.std::ios_base::_Callback_list" = type { %"struct.std::ios_base::_Callback_list"*, void (i32, %"class.std::ios_base"*, i32)*, i32, i32 }
%"struct.std::ios_base::_Words" = type { i8*, i64 }
%"class.std::locale" = type { %"class.std::locale::_Impl"* }
%"class.std::locale::_Impl" = type { i32, %"class.std::locale::facet"**, i64, %"class.std::locale::facet"**, i8** }
%"class.std::locale::facet" = type <{ i32 (...)**, i32, [4 x i8] }>
%"class.std::basic_ostream" = type { i32 (...)**, %"class.std::basic_ios" }
%"class.std::basic_streambuf" = type { i32 (...)**, i8*, i8*, i8*, i8*, i8*, i8*, %"class.std::locale" }
%"class.std::ctype" = type <{ %"class.std::locale::facet.base", [4 x i8], %struct.__locale_struct*, i8, [7 x i8], i32*, i32*, i16*, i8, [256 x i8], [256 x i8], i8, [6 x i8] }>
%"class.std::locale::facet.base" = type <{ i32 (...)**, i32 }>
%struct.__locale_struct = type { [13 x %struct.__locale_data*], i16*, i32*, i32*, [13 x i8*] }
%struct.__locale_data = type opaque
%"class.std::num_put" = type { %"class.std::locale::facet.base", [4 x i8] }
%"class.std::num_get" = type { %"class.std::locale::facet.base", [4 x i8] }
%"class.std::__cxx11::basic_string" = type { %"struct.std::__cxx11::basic_string<char, std::char_traits<char>, std::allocator<char> >::_Alloc_hider", i64, %union.anon }
%"struct.std::__cxx11::basic_string<char, std::char_traits<char>, std::allocator<char> >::_Alloc_hider" = type { i8* }
%union.anon = type { i64, [8 x i8] }
%"class.std::vector" = type { %"struct.std::_Vector_base" }
%"struct.std::_Vector_base" = type { %"struct.std::_Vector_base<std::set<int, std::less<int>, std::allocator<int> >, std::allocator<std::set<int, std::less<int>, std::allocator<int> > > >::_Vector_impl" }
%"struct.std::_Vector_base<std::set<int, std::less<int>, std::allocator<int> >, std::allocator<std::set<int, std::less<int>, std::allocator<int> > > >::_Vector_impl" = type { %"class.std::set"*, %"class.std::set"*, %"class.std::set"* }
%"class.std::set" = type { %"class.std::_Rb_tree" }
%"class.std::_Rb_tree" = type { %"struct.std::_Rb_tree<int, int, std::_Identity<int>, std::less<int>, std::allocator<int> >::_Rb_tree_impl" }
%"struct.std::_Rb_tree<int, int, std::_Identity<int>, std::less<int>, std::allocator<int> >::_Rb_tree_impl" = type { %"struct.std::less", %"struct.std::_Rb_tree_node_base", i64 }
%"struct.std::less" = type { i8 }
%"struct.std::_Rb_tree_node_base" = type { i32, %"struct.std::_Rb_tree_node_base"*, %"struct.std::_Rb_tree_node_base"*, %"struct.std::_Rb_tree_node_base"* }
%"class.std::allocator.0" = type { i8 }
%"struct.std::_Rb_tree_const_iterator" = type { %"struct.std::_Rb_tree_node_base"* }
%"class.__gnu_cxx::new_allocator.1" = type { i8 }
%"struct.std::pair" = type <{ %"struct.std::_Rb_tree_const_iterator", i8, [7 x i8] }>
%"struct.std::_Rb_tree_iterator" = type { %"struct.std::_Rb_tree_node_base"* }
%"struct.std::_Rb_tree_node" = type <{ %"struct.std::_Rb_tree_node_base", %"struct.__gnu_cxx::__aligned_membuf", [4 x i8] }>
%"struct.__gnu_cxx::__aligned_membuf" = type { [4 x i8] }
%"class.std::allocator.3" = type { i8 }
%"class.__gnu_cxx::new_allocator.4" = type { i8 }
%"struct.std::_Rb_tree<int, int, std::_Identity<int>, std::less<int>, std::allocator<int> >::_Alloc_node" = type { %"class.std::_Rb_tree"* }
%"struct.std::pair.8" = type { %"struct.std::_Rb_tree_node_base"*, %"struct.std::_Rb_tree_node_base"* }
%"struct.std::pair.6" = type <{ %"struct.std::_Rb_tree_iterator", i8, [7 x i8] }>
%"struct.std::_Identity" = type { i8 }
%"struct.std::pair.9" = type { %"struct.std::_Rb_tree_iterator", %"struct.std::_Rb_tree_iterator" }

$_ZNSaISt3setIiSt4lessIiESaIiEEEC2Ev = comdat any

$_ZNSt6vectorISt3setIiSt4lessIiESaIiEESaIS4_EEC2EmRKS5_ = comdat any

$_ZNSaISt3setIiSt4lessIiESaIiEEED2Ev = comdat any

$_ZNSt6vectorISt3setIiSt4lessIiESaIiEESaIS4_EE2atEm = comdat any

$_ZNSt3setIiSt4lessIiESaIiEE6insertEOi = comdat any

$_ZNSt3setIiSt4lessIiESaIiEE5eraseERKi = comdat any

$_ZNSt3setIiSt4lessIiESaIiEE11lower_boundERKi = comdat any

$_ZNKSt3setIiSt4lessIiESaIiEE3endEv = comdat any

$_ZNKSt23_Rb_tree_const_iteratorIiEneERKS0_ = comdat any

$_ZNKSt23_Rb_tree_const_iteratorIiEdeEv = comdat any

$_ZNSt6vectorISt3setIiSt4lessIiESaIiEESaIS4_EED2Ev = comdat any

$_ZN9__gnu_cxx13new_allocatorISt3setIiSt4lessIiESaIiEEEC2Ev = comdat any

$_ZN9__gnu_cxx13new_allocatorISt3setIiSt4lessIiESaIiEEED2Ev = comdat any

$_ZNSt12_Vector_baseISt3setIiSt4lessIiESaIiEESaIS4_EEC2EmRKS5_ = comdat any

$_ZNSt6vectorISt3setIiSt4lessIiESaIiEESaIS4_EE21_M_default_initializeEm = comdat any

$_ZNSt12_Vector_baseISt3setIiSt4lessIiESaIiEESaIS4_EED2Ev = comdat any

$_ZNSt12_Vector_baseISt3setIiSt4lessIiESaIiEESaIS4_EE12_Vector_implC2ERKS5_ = comdat any

$_ZNSt12_Vector_baseISt3setIiSt4lessIiESaIiEESaIS4_EE17_M_create_storageEm = comdat any

$_ZNSt12_Vector_baseISt3setIiSt4lessIiESaIiEESaIS4_EE12_Vector_implD2Ev = comdat any

$_ZNSaISt3setIiSt4lessIiESaIiEEEC2ERKS4_ = comdat any

$_ZN9__gnu_cxx13new_allocatorISt3setIiSt4lessIiESaIiEEEC2ERKS6_ = comdat any

$_ZNSt12_Vector_baseISt3setIiSt4lessIiESaIiEESaIS4_EE11_M_allocateEm = comdat any

$_ZNSt16allocator_traitsISaISt3setIiSt4lessIiESaIiEEEE8allocateERS5_m = comdat any

$_ZN9__gnu_cxx13new_allocatorISt3setIiSt4lessIiESaIiEEE8allocateEmPKv = comdat any

$_ZNK9__gnu_cxx13new_allocatorISt3setIiSt4lessIiESaIiEEE8max_sizeEv = comdat any

$_ZSt27__uninitialized_default_n_aIPSt3setIiSt4lessIiESaIiEEmS4_ET_S6_T0_RSaIT1_E = comdat any

$_ZNSt12_Vector_baseISt3setIiSt4lessIiESaIiEESaIS4_EE19_M_get_Tp_allocatorEv = comdat any

$_ZSt25__uninitialized_default_nIPSt3setIiSt4lessIiESaIiEEmET_S6_T0_ = comdat any

$_ZNSt27__uninitialized_default_n_1ILb0EE18__uninit_default_nIPSt3setIiSt4lessIiESaIiEEmEET_S8_T0_ = comdat any

$_ZSt10_ConstructISt3setIiSt4lessIiESaIiEEJEEvPT_DpOT0_ = comdat any

$_ZSt11__addressofISt3setIiSt4lessIiESaIiEEEPT_RS5_ = comdat any

$_ZSt8_DestroyIPSt3setIiSt4lessIiESaIiEEEvT_S6_ = comdat any

$__clang_call_terminate = comdat any

$_ZNSt3setIiSt4lessIiESaIiEEC2Ev = comdat any

$_ZNSt8_Rb_treeIiiSt9_IdentityIiESt4lessIiESaIiEEC2Ev = comdat any

$_ZNSt8_Rb_treeIiiSt9_IdentityIiESt4lessIiESaIiEE13_Rb_tree_implIS3_Lb1EEC2Ev = comdat any

$_ZNSaISt13_Rb_tree_nodeIiEEC2Ev = comdat any

$_ZNSt8_Rb_treeIiiSt9_IdentityIiESt4lessIiESaIiEE13_Rb_tree_implIS3_Lb1EE13_M_initializeEv = comdat any

$_ZNSaISt13_Rb_tree_nodeIiEED2Ev = comdat any

$_ZN9__gnu_cxx13new_allocatorISt13_Rb_tree_nodeIiEEC2Ev = comdat any

$_ZN9__gnu_cxx13new_allocatorISt13_Rb_tree_nodeIiEED2Ev = comdat any

$_ZNSt12_Destroy_auxILb0EE9__destroyIPSt3setIiSt4lessIiESaIiEEEEvT_S8_ = comdat any

$_ZSt8_DestroyISt3setIiSt4lessIiESaIiEEEvPT_ = comdat any

$_ZNSt3setIiSt4lessIiESaIiEED2Ev = comdat any

$_ZNSt8_Rb_treeIiiSt9_IdentityIiESt4lessIiESaIiEED2Ev = comdat any

$_ZNSt8_Rb_treeIiiSt9_IdentityIiESt4lessIiESaIiEE8_M_eraseEPSt13_Rb_tree_nodeIiE = comdat any

$_ZNSt8_Rb_treeIiiSt9_IdentityIiESt4lessIiESaIiEE8_M_beginEv = comdat any

$_ZNSt8_Rb_treeIiiSt9_IdentityIiESt4lessIiESaIiEE13_Rb_tree_implIS3_Lb1EED2Ev = comdat any

$_ZNSt8_Rb_treeIiiSt9_IdentityIiESt4lessIiESaIiEE8_S_rightEPSt18_Rb_tree_node_base = comdat any

$_ZNSt8_Rb_treeIiiSt9_IdentityIiESt4lessIiESaIiEE7_S_leftEPSt18_Rb_tree_node_base = comdat any

$_ZNSt8_Rb_treeIiiSt9_IdentityIiESt4lessIiESaIiEE12_M_drop_nodeEPSt13_Rb_tree_nodeIiE = comdat any

$_ZNSt8_Rb_treeIiiSt9_IdentityIiESt4lessIiESaIiEE15_M_destroy_nodeEPSt13_Rb_tree_nodeIiE = comdat any

$_ZNSt8_Rb_treeIiiSt9_IdentityIiESt4lessIiESaIiEE11_M_put_nodeEPSt13_Rb_tree_nodeIiE = comdat any

$_ZNSt16allocator_traitsISaISt13_Rb_tree_nodeIiEEE7destroyIiEEvRS2_PT_ = comdat any

$_ZNSt8_Rb_treeIiiSt9_IdentityIiESt4lessIiESaIiEE21_M_get_Node_allocatorEv = comdat any

$_ZNSt13_Rb_tree_nodeIiE9_M_valptrEv = comdat any

$_ZN9__gnu_cxx13new_allocatorISt13_Rb_tree_nodeIiEE7destroyIiEEvPT_ = comdat any

$_ZN9__gnu_cxx16__aligned_membufIiE6_M_ptrEv = comdat any

$_ZN9__gnu_cxx16__aligned_membufIiE7_M_addrEv = comdat any

$_ZNSt16allocator_traitsISaISt13_Rb_tree_nodeIiEEE10deallocateERS2_PS1_m = comdat any

$_ZN9__gnu_cxx13new_allocatorISt13_Rb_tree_nodeIiEE10deallocateEPS2_m = comdat any

$_ZNSt12_Vector_baseISt3setIiSt4lessIiESaIiEESaIS4_EE13_M_deallocateEPS4_m = comdat any

$_ZNSt16allocator_traitsISaISt3setIiSt4lessIiESaIiEEEE10deallocateERS5_PS4_m = comdat any

$_ZN9__gnu_cxx13new_allocatorISt3setIiSt4lessIiESaIiEEE10deallocateEPS5_m = comdat any

$_ZSt8_DestroyIPSt3setIiSt4lessIiESaIiEES4_EvT_S6_RSaIT0_E = comdat any

$_ZNKSt6vectorISt3setIiSt4lessIiESaIiEESaIS4_EE14_M_range_checkEm = comdat any

$_ZNSt6vectorISt3setIiSt4lessIiESaIiEESaIS4_EEixEm = comdat any

$_ZNKSt6vectorISt3setIiSt4lessIiESaIiEESaIS4_EE4sizeEv = comdat any

$_ZNSt8_Rb_treeIiiSt9_IdentityIiESt4lessIiESaIiEE16_M_insert_uniqueIiEESt4pairISt17_Rb_tree_iteratorIiEbEOT_ = comdat any

$_ZSt4moveIRiEONSt16remove_referenceIT_E4typeEOS2_ = comdat any

$_ZNSt4pairISt23_Rb_tree_const_iteratorIiEbEC2IRSt17_Rb_tree_iteratorIiERbvEEOT_OT0_ = comdat any

$_ZNSt8_Rb_treeIiiSt9_IdentityIiESt4lessIiESaIiEE24_M_get_insert_unique_posERKi = comdat any

$_ZNKSt9_IdentityIiEclERi = comdat any

$_ZNSt8_Rb_treeIiiSt9_IdentityIiESt4lessIiESaIiEE11_Alloc_nodeC2ERS5_ = comdat any

$_ZNSt8_Rb_treeIiiSt9_IdentityIiESt4lessIiESaIiEE10_M_insert_IiNS5_11_Alloc_nodeEEESt17_Rb_tree_iteratorIiEPSt18_Rb_tree_node_baseSB_OT_RT0_ = comdat any

$_ZSt7forwardIiEOT_RNSt16remove_referenceIS0_E4typeE = comdat any

$_ZNSt4pairISt17_Rb_tree_iteratorIiEbEC2IS1_bvEEOT_OT0_ = comdat any

$_ZNSt17_Rb_tree_iteratorIiEC2EPSt18_Rb_tree_node_base = comdat any

$_ZNSt8_Rb_treeIiiSt9_IdentityIiESt4lessIiESaIiEE6_M_endEv = comdat any

$_ZNKSt4lessIiEclERKiS2_ = comdat any

$_ZNSt8_Rb_treeIiiSt9_IdentityIiESt4lessIiESaIiEE6_S_keyEPKSt13_Rb_tree_nodeIiE = comdat any

$_ZNKSt17_Rb_tree_iteratorIiEeqERKS0_ = comdat any

$_ZNSt8_Rb_treeIiiSt9_IdentityIiESt4lessIiESaIiEE5beginEv = comdat any

$_ZNSt4pairIPSt18_Rb_tree_node_baseS1_EC2IRPSt13_Rb_tree_nodeIiES7_vEEOT_OT0_ = comdat any

$_ZNSt17_Rb_tree_iteratorIiEmmEv = comdat any

$_ZNSt8_Rb_treeIiiSt9_IdentityIiESt4lessIiESaIiEE6_S_keyEPKSt18_Rb_tree_node_base = comdat any

$_ZNSt4pairIPSt18_Rb_tree_node_baseS1_EC2IRS1_vEEOT_RKS1_ = comdat any

$_ZNKSt9_IdentityIiEclERKi = comdat any

$_ZNSt8_Rb_treeIiiSt9_IdentityIiESt4lessIiESaIiEE8_S_valueEPKSt13_Rb_tree_nodeIiE = comdat any

$_ZNKSt13_Rb_tree_nodeIiE9_M_valptrEv = comdat any

$_ZNK9__gnu_cxx16__aligned_membufIiE6_M_ptrEv = comdat any

$_ZNK9__gnu_cxx16__aligned_membufIiE7_M_addrEv = comdat any

$_ZSt7forwardIRPSt13_Rb_tree_nodeIiEEOT_RNSt16remove_referenceIS4_E4typeE = comdat any

$_ZNSt8_Rb_treeIiiSt9_IdentityIiESt4lessIiESaIiEE8_S_valueEPKSt18_Rb_tree_node_base = comdat any

$_ZSt7forwardIRPSt18_Rb_tree_node_baseEOT_RNSt16remove_referenceIS3_E4typeE = comdat any

$_ZNKSt8_Rb_treeIiiSt9_IdentityIiESt4lessIiESaIiEE11_Alloc_nodeclIiEEPSt13_Rb_tree_nodeIiEOT_ = comdat any

$_ZNSt8_Rb_treeIiiSt9_IdentityIiESt4lessIiESaIiEE14_M_create_nodeIJiEEEPSt13_Rb_tree_nodeIiEDpOT_ = comdat any

$_ZNSt8_Rb_treeIiiSt9_IdentityIiESt4lessIiESaIiEE11_M_get_nodeEv = comdat any

$_ZNSt8_Rb_treeIiiSt9_IdentityIiESt4lessIiESaIiEE17_M_construct_nodeIJiEEEvPSt13_Rb_tree_nodeIiEDpOT_ = comdat any

$_ZNSt16allocator_traitsISaISt13_Rb_tree_nodeIiEEE8allocateERS2_m = comdat any

$_ZN9__gnu_cxx13new_allocatorISt13_Rb_tree_nodeIiEE8allocateEmPKv = comdat any

$_ZNK9__gnu_cxx13new_allocatorISt13_Rb_tree_nodeIiEE8max_sizeEv = comdat any

$_ZNSt16allocator_traitsISaISt13_Rb_tree_nodeIiEEE9constructIiJiEEEvRS2_PT_DpOT0_ = comdat any

$_ZN9__gnu_cxx13new_allocatorISt13_Rb_tree_nodeIiEE9constructIiJiEEEvPT_DpOT0_ = comdat any

$_ZSt7forwardISt17_Rb_tree_iteratorIiEEOT_RNSt16remove_referenceIS2_E4typeE = comdat any

$_ZSt7forwardIbEOT_RNSt16remove_referenceIS0_E4typeE = comdat any

$_ZSt7forwardIRSt17_Rb_tree_iteratorIiEEOT_RNSt16remove_referenceIS3_E4typeE = comdat any

$_ZNSt23_Rb_tree_const_iteratorIiEC2ERKSt17_Rb_tree_iteratorIiE = comdat any

$_ZSt7forwardIRbEOT_RNSt16remove_referenceIS1_E4typeE = comdat any

$_ZNSt8_Rb_treeIiiSt9_IdentityIiESt4lessIiESaIiEE5eraseERKi = comdat any

$_ZNSt8_Rb_treeIiiSt9_IdentityIiESt4lessIiESaIiEE11equal_rangeERKi = comdat any

$_ZNKSt8_Rb_treeIiiSt9_IdentityIiESt4lessIiESaIiEE4sizeEv = comdat any

$_ZNSt8_Rb_treeIiiSt9_IdentityIiESt4lessIiESaIiEE5eraseB5cxx11ESt23_Rb_tree_const_iteratorIiES7_ = comdat any

$_ZNSt8_Rb_treeIiiSt9_IdentityIiESt4lessIiESaIiEE14_M_lower_boundEPSt13_Rb_tree_nodeIiES8_RKi = comdat any

$_ZNSt8_Rb_treeIiiSt9_IdentityIiESt4lessIiESaIiEE14_M_upper_boundEPSt13_Rb_tree_nodeIiES8_RKi = comdat any

$_ZNSt4pairISt17_Rb_tree_iteratorIiES1_EC2IS1_S1_vEEOT_OT0_ = comdat any

$_ZNSt8_Rb_treeIiiSt9_IdentityIiESt4lessIiESaIiEE12_M_erase_auxESt23_Rb_tree_const_iteratorIiES7_ = comdat any

$_ZNKSt23_Rb_tree_const_iteratorIiE13_M_const_castEv = comdat any

$_ZNKSt23_Rb_tree_const_iteratorIiEeqERKS0_ = comdat any

$_ZNSt8_Rb_treeIiiSt9_IdentityIiESt4lessIiESaIiEE3endEv = comdat any

$_ZNSt8_Rb_treeIiiSt9_IdentityIiESt4lessIiESaIiEE5clearEv = comdat any

$_ZNSt8_Rb_treeIiiSt9_IdentityIiESt4lessIiESaIiEE5eraseB5cxx11ESt23_Rb_tree_const_iteratorIiE = comdat any

$_ZNSt23_Rb_tree_const_iteratorIiEppEi = comdat any

$_ZNSt8_Rb_treeIiiSt9_IdentityIiESt4lessIiESaIiEE13_Rb_tree_implIS3_Lb1EE8_M_resetEv = comdat any

$_ZNSt23_Rb_tree_const_iteratorIiEppEv = comdat any

$_ZNSt8_Rb_treeIiiSt9_IdentityIiESt4lessIiESaIiEE12_M_erase_auxESt23_Rb_tree_const_iteratorIiE = comdat any

$_ZNSt8_Rb_treeIiiSt9_IdentityIiESt4lessIiESaIiEE11lower_boundERKi = comdat any

$_ZNKSt8_Rb_treeIiiSt9_IdentityIiESt4lessIiESaIiEE3endEv = comdat any

$_ZNSt23_Rb_tree_const_iteratorIiEC2EPKSt18_Rb_tree_node_base = comdat any

@_ZStL8__ioinit = internal global %"class.std::ios_base::Init" zeroinitializer, align 1
@__dso_handle = external global i8
@_ZSt3cin = external global %"class.std::basic_istream", align 8
@_ZSt4cout = external global %"class.std::basic_ostream", align 8
@.str = private unnamed_addr constant [74 x i8] c"vector::_M_range_check: __n (which is %zu) >= this->size() (which is %zu)\00", align 1
@llvm.global_ctors = appending global [1 x { i32, void ()*, i8* }] [{ i32, void ()*, i8* } { i32 65535, void ()* @_GLOBAL__sub_I_s076560328.cpp, i8* null }]
@x = common local_unnamed_addr global i32 0
@y = common local_unnamed_addr global i32 0
@x.1 = common local_unnamed_addr global i32 0
@y.2 = common local_unnamed_addr global i32 0
@x.3 = common local_unnamed_addr global i32 0
@y.4 = common local_unnamed_addr global i32 0
@x.5 = common local_unnamed_addr global i32 0
@y.6 = common local_unnamed_addr global i32 0
@x.7 = common local_unnamed_addr global i32 0
@y.8 = common local_unnamed_addr global i32 0
@x.9 = common local_unnamed_addr global i32 0
@y.10 = common local_unnamed_addr global i32 0
@x.11 = common local_unnamed_addr global i32 0
@y.12 = common local_unnamed_addr global i32 0
@x.13 = common local_unnamed_addr global i32 0
@y.14 = common local_unnamed_addr global i32 0
@x.15 = common local_unnamed_addr global i32 0
@y.16 = common local_unnamed_addr global i32 0
@x.17 = common local_unnamed_addr global i32 0
@y.18 = common local_unnamed_addr global i32 0
@x.19 = common local_unnamed_addr global i32 0
@y.20 = common local_unnamed_addr global i32 0
@x.21 = common local_unnamed_addr global i32 0
@y.22 = common local_unnamed_addr global i32 0
@x.23 = common local_unnamed_addr global i32 0
@y.24 = common local_unnamed_addr global i32 0
@x.25 = common local_unnamed_addr global i32 0
@y.26 = common local_unnamed_addr global i32 0
@x.27 = common local_unnamed_addr global i32 0
@y.28 = common local_unnamed_addr global i32 0
@x.29 = common local_unnamed_addr global i32 0
@y.30 = common local_unnamed_addr global i32 0
@x.31 = common local_unnamed_addr global i32 0
@y.32 = common local_unnamed_addr global i32 0
@x.33 = common local_unnamed_addr global i32 0
@y.34 = common local_unnamed_addr global i32 0
@x.35 = common local_unnamed_addr global i32 0
@y.36 = common local_unnamed_addr global i32 0
@x.37 = common local_unnamed_addr global i32 0
@y.38 = common local_unnamed_addr global i32 0
@x.39 = common local_unnamed_addr global i32 0
@y.40 = common local_unnamed_addr global i32 0
@x.41 = common local_unnamed_addr global i32 0
@y.42 = common local_unnamed_addr global i32 0
@x.43 = common local_unnamed_addr global i32 0
@y.44 = common local_unnamed_addr global i32 0
@x.45 = common local_unnamed_addr global i32 0
@y.46 = common local_unnamed_addr global i32 0
@x.47 = common local_unnamed_addr global i32 0
@y.48 = common local_unnamed_addr global i32 0
@x.49 = common local_unnamed_addr global i32 0
@y.50 = common local_unnamed_addr global i32 0
@x.51 = common local_unnamed_addr global i32 0
@y.52 = common local_unnamed_addr global i32 0
@x.53 = common local_unnamed_addr global i32 0
@y.54 = common local_unnamed_addr global i32 0
@x.55 = common local_unnamed_addr global i32 0
@y.56 = common local_unnamed_addr global i32 0
@x.57 = common local_unnamed_addr global i32 0
@y.58 = common local_unnamed_addr global i32 0
@x.59 = common local_unnamed_addr global i32 0
@y.60 = common local_unnamed_addr global i32 0
@x.61 = common local_unnamed_addr global i32 0
@y.62 = common local_unnamed_addr global i32 0
@x.63 = common local_unnamed_addr global i32 0
@y.64 = common local_unnamed_addr global i32 0
@x.65 = common local_unnamed_addr global i32 0
@y.66 = common local_unnamed_addr global i32 0
@x.67 = common local_unnamed_addr global i32 0
@y.68 = common local_unnamed_addr global i32 0
@x.69 = common local_unnamed_addr global i32 0
@y.70 = common local_unnamed_addr global i32 0
@x.71 = common local_unnamed_addr global i32 0
@y.72 = common local_unnamed_addr global i32 0
@x.73 = common local_unnamed_addr global i32 0
@y.74 = common local_unnamed_addr global i32 0
@x.75 = common local_unnamed_addr global i32 0
@y.76 = common local_unnamed_addr global i32 0
@x.77 = common local_unnamed_addr global i32 0
@y.78 = common local_unnamed_addr global i32 0
@x.79 = common local_unnamed_addr global i32 0
@y.80 = common local_unnamed_addr global i32 0
@x.81 = common local_unnamed_addr global i32 0
@y.82 = common local_unnamed_addr global i32 0
@x.83 = common local_unnamed_addr global i32 0
@y.84 = common local_unnamed_addr global i32 0
@x.85 = common local_unnamed_addr global i32 0
@y.86 = common local_unnamed_addr global i32 0
@x.87 = common local_unnamed_addr global i32 0
@y.88 = common local_unnamed_addr global i32 0
@x.89 = common local_unnamed_addr global i32 0
@y.90 = common local_unnamed_addr global i32 0
@x.91 = common local_unnamed_addr global i32 0
@y.92 = common local_unnamed_addr global i32 0
@x.93 = common local_unnamed_addr global i32 0
@y.94 = common local_unnamed_addr global i32 0
@x.95 = common local_unnamed_addr global i32 0
@y.96 = common local_unnamed_addr global i32 0
@x.97 = common local_unnamed_addr global i32 0
@y.98 = common local_unnamed_addr global i32 0
@x.99 = common local_unnamed_addr global i32 0
@y.100 = common local_unnamed_addr global i32 0
@x.101 = common local_unnamed_addr global i32 0
@y.102 = common local_unnamed_addr global i32 0
@x.103 = common local_unnamed_addr global i32 0
@y.104 = common local_unnamed_addr global i32 0
@x.105 = common local_unnamed_addr global i32 0
@y.106 = common local_unnamed_addr global i32 0
@x.107 = common local_unnamed_addr global i32 0
@y.108 = common local_unnamed_addr global i32 0
@x.109 = common local_unnamed_addr global i32 0
@y.110 = common local_unnamed_addr global i32 0
@x.111 = common local_unnamed_addr global i32 0
@y.112 = common local_unnamed_addr global i32 0
@x.113 = common local_unnamed_addr global i32 0
@y.114 = common local_unnamed_addr global i32 0
@x.115 = common local_unnamed_addr global i32 0
@y.116 = common local_unnamed_addr global i32 0
@x.117 = common local_unnamed_addr global i32 0
@y.118 = common local_unnamed_addr global i32 0
@x.119 = common local_unnamed_addr global i32 0
@y.120 = common local_unnamed_addr global i32 0
@x.121 = common local_unnamed_addr global i32 0
@y.122 = common local_unnamed_addr global i32 0
@x.123 = common local_unnamed_addr global i32 0
@y.124 = common local_unnamed_addr global i32 0
@x.125 = common local_unnamed_addr global i32 0
@y.126 = common local_unnamed_addr global i32 0
@x.127 = common local_unnamed_addr global i32 0
@y.128 = common local_unnamed_addr global i32 0
@x.129 = common local_unnamed_addr global i32 0
@y.130 = common local_unnamed_addr global i32 0
@x.131 = common local_unnamed_addr global i32 0
@y.132 = common local_unnamed_addr global i32 0
@x.133 = common local_unnamed_addr global i32 0
@y.134 = common local_unnamed_addr global i32 0
@x.135 = common local_unnamed_addr global i32 0
@y.136 = common local_unnamed_addr global i32 0
@x.137 = common local_unnamed_addr global i32 0
@y.138 = common local_unnamed_addr global i32 0
@x.139 = common local_unnamed_addr global i32 0
@y.140 = common local_unnamed_addr global i32 0
@x.141 = common local_unnamed_addr global i32 0
@y.142 = common local_unnamed_addr global i32 0
@x.143 = common local_unnamed_addr global i32 0
@y.144 = common local_unnamed_addr global i32 0
@x.145 = common local_unnamed_addr global i32 0
@y.146 = common local_unnamed_addr global i32 0
@x.147 = common local_unnamed_addr global i32 0
@y.148 = common local_unnamed_addr global i32 0
@x.149 = common local_unnamed_addr global i32 0
@y.150 = common local_unnamed_addr global i32 0
@x.151 = common local_unnamed_addr global i32 0
@y.152 = common local_unnamed_addr global i32 0
@x.153 = common local_unnamed_addr global i32 0
@y.154 = common local_unnamed_addr global i32 0
@x.155 = common local_unnamed_addr global i32 0
@y.156 = common local_unnamed_addr global i32 0
@x.157 = common local_unnamed_addr global i32 0
@y.158 = common local_unnamed_addr global i32 0
@x.159 = common local_unnamed_addr global i32 0
@y.160 = common local_unnamed_addr global i32 0
@x.161 = common local_unnamed_addr global i32 0
@y.162 = common local_unnamed_addr global i32 0
@x.163 = common local_unnamed_addr global i32 0
@y.164 = common local_unnamed_addr global i32 0
@x.165 = common local_unnamed_addr global i32 0
@y.166 = common local_unnamed_addr global i32 0
@x.167 = common local_unnamed_addr global i32 0
@y.168 = common local_unnamed_addr global i32 0
@x.169 = common local_unnamed_addr global i32 0
@y.170 = common local_unnamed_addr global i32 0
@x.171 = common local_unnamed_addr global i32 0
@y.172 = common local_unnamed_addr global i32 0
@x.173 = common local_unnamed_addr global i32 0
@y.174 = common local_unnamed_addr global i32 0
@x.175 = common local_unnamed_addr global i32 0
@y.176 = common local_unnamed_addr global i32 0
@x.177 = common local_unnamed_addr global i32 0
@y.178 = common local_unnamed_addr global i32 0
@x.179 = common local_unnamed_addr global i32 0
@y.180 = common local_unnamed_addr global i32 0
@x.181 = common local_unnamed_addr global i32 0
@y.182 = common local_unnamed_addr global i32 0
@x.183 = common local_unnamed_addr global i32 0
@y.184 = common local_unnamed_addr global i32 0
@x.185 = common local_unnamed_addr global i32 0
@y.186 = common local_unnamed_addr global i32 0
@x.187 = common local_unnamed_addr global i32 0
@y.188 = common local_unnamed_addr global i32 0
@x.189 = common local_unnamed_addr global i32 0
@y.190 = common local_unnamed_addr global i32 0
@x.191 = common local_unnamed_addr global i32 0
@y.192 = common local_unnamed_addr global i32 0
@x.193 = common local_unnamed_addr global i32 0
@y.194 = common local_unnamed_addr global i32 0
@x.195 = common local_unnamed_addr global i32 0
@y.196 = common local_unnamed_addr global i32 0
@x.197 = common local_unnamed_addr global i32 0
@y.198 = common local_unnamed_addr global i32 0
@x.199 = common local_unnamed_addr global i32 0
@y.200 = common local_unnamed_addr global i32 0
@x.201 = common local_unnamed_addr global i32 0
@y.202 = common local_unnamed_addr global i32 0
@x.203 = common local_unnamed_addr global i32 0
@y.204 = common local_unnamed_addr global i32 0
@x.205 = common local_unnamed_addr global i32 0
@y.206 = common local_unnamed_addr global i32 0
@x.207 = common local_unnamed_addr global i32 0
@y.208 = common local_unnamed_addr global i32 0
@x.209 = common local_unnamed_addr global i32 0
@y.210 = common local_unnamed_addr global i32 0
@x.211 = common local_unnamed_addr global i32 0
@y.212 = common local_unnamed_addr global i32 0
@x.213 = common local_unnamed_addr global i32 0
@y.214 = common local_unnamed_addr global i32 0
@x.215 = common local_unnamed_addr global i32 0
@y.216 = common local_unnamed_addr global i32 0
@x.217 = common local_unnamed_addr global i32 0
@y.218 = common local_unnamed_addr global i32 0
@x.219 = common local_unnamed_addr global i32 0
@y.220 = common local_unnamed_addr global i32 0
@x.221 = common local_unnamed_addr global i32 0
@y.222 = common local_unnamed_addr global i32 0
@x.223 = common local_unnamed_addr global i32 0
@y.224 = common local_unnamed_addr global i32 0
@x.225 = common local_unnamed_addr global i32 0
@y.226 = common local_unnamed_addr global i32 0
@x.227 = common local_unnamed_addr global i32 0
@y.228 = common local_unnamed_addr global i32 0
@x.229 = common local_unnamed_addr global i32 0
@y.230 = common local_unnamed_addr global i32 0
@x.231 = common local_unnamed_addr global i32 0
@y.232 = common local_unnamed_addr global i32 0
@x.233 = common local_unnamed_addr global i32 0
@y.234 = common local_unnamed_addr global i32 0
@x.235 = common local_unnamed_addr global i32 0
@y.236 = common local_unnamed_addr global i32 0
@x.237 = common local_unnamed_addr global i32 0
@y.238 = common local_unnamed_addr global i32 0
@x.239 = common local_unnamed_addr global i32 0
@y.240 = common local_unnamed_addr global i32 0
@x.241 = common local_unnamed_addr global i32 0
@y.242 = common local_unnamed_addr global i32 0
@x.243 = common local_unnamed_addr global i32 0
@y.244 = common local_unnamed_addr global i32 0
@x.245 = common local_unnamed_addr global i32 0
@y.246 = common local_unnamed_addr global i32 0
@x.247 = common local_unnamed_addr global i32 0
@y.248 = common local_unnamed_addr global i32 0
@x.249 = common local_unnamed_addr global i32 0
@y.250 = common local_unnamed_addr global i32 0
@x.251 = common local_unnamed_addr global i32 0
@y.252 = common local_unnamed_addr global i32 0
@x.253 = common local_unnamed_addr global i32 0
@y.254 = common local_unnamed_addr global i32 0
@x.255 = common local_unnamed_addr global i32 0
@y.256 = common local_unnamed_addr global i32 0
@x.257 = common local_unnamed_addr global i32 0
@y.258 = common local_unnamed_addr global i32 0
@x.259 = common local_unnamed_addr global i32 0
@y.260 = common local_unnamed_addr global i32 0
@x.261 = common local_unnamed_addr global i32 0
@y.262 = common local_unnamed_addr global i32 0

; Function Attrs: noinline uwtable
define internal fastcc void @__cxx_global_var_init() unnamed_addr #0 section ".text.startup" {
  tail call void @_ZNSt8ios_base4InitC1Ev(%"class.std::ios_base::Init"* nonnull @_ZStL8__ioinit)
  %1 = tail call i32 @__cxa_atexit(void (i8*)* bitcast (void (%"class.std::ios_base::Init"*)* @_ZNSt8ios_base4InitD1Ev to void (i8*)*), i8* getelementptr inbounds (%"class.std::ios_base::Init", %"class.std::ios_base::Init"* @_ZStL8__ioinit, i64 0, i32 0), i8* nonnull @__dso_handle) #13
  ret void
}

declare void @_ZNSt8ios_base4InitC1Ev(%"class.std::ios_base::Init"*) unnamed_addr #1

; Function Attrs: nounwind
declare void @_ZNSt8ios_base4InitD1Ev(%"class.std::ios_base::Init"*) unnamed_addr #2

; Function Attrs: nofree nounwind
declare i32 @__cxa_atexit(void (i8*)*, i8*, i8*) local_unnamed_addr #3

; Function Attrs: noinline norecurse uwtable
define i32 @main() local_unnamed_addr #4 personality i8* bitcast (i32 (...)* @__gxx_personality_v0 to i8*) {
  %1 = alloca i32, align 4
  %2 = alloca i32, align 4
  %3 = alloca %"class.std::__cxx11::basic_string", align 8
  %4 = alloca %"class.std::vector", align 8
  %5 = alloca %"class.std::allocator.0", align 1
  %6 = alloca i32, align 4
  %7 = alloca i32, align 4
  %8 = alloca i64, align 8
  %9 = alloca i8, align 1
  %10 = alloca i32, align 4
  %11 = alloca i32, align 4
  %12 = alloca i32, align 4
  %13 = alloca i32, align 4
  %14 = alloca %"struct.std::_Rb_tree_const_iterator", align 8
  %15 = alloca %"struct.std::_Rb_tree_const_iterator", align 8
  call void @_ZNSt7__cxx1112basic_stringIcSt11char_traitsIcESaIcEEC1Ev(%"class.std::__cxx11::basic_string"* nonnull %3) #13
  %16 = invoke dereferenceable(280) %"class.std::basic_istream"* @_ZNSirsERi(%"class.std::basic_istream"* nonnull @_ZSt3cin, i32* nonnull dereferenceable(4) %1)
          to label %17 unwind label %61

17:                                               ; preds = %0
  %18 = invoke dereferenceable(280) %"class.std::basic_istream"* @_ZStrsIcSt11char_traitsIcESaIcEERSt13basic_istreamIT_T0_ES7_RNSt7__cxx1112basic_stringIS4_S5_T1_EE(%"class.std::basic_istream"* nonnull dereferenceable(280) %16, %"class.std::__cxx11::basic_string"* nonnull dereferenceable(32) %3)
          to label %19 unwind label %61

19:                                               ; preds = %17
  %20 = load i32, i32* @x.1, align 4
  %21 = load i32, i32* @y.2, align 4
  %22 = add i32 %20, -1
  %23 = mul i32 %22, %20
  %24 = and i32 %23, 1
  %25 = icmp eq i32 %24, 0
  %26 = icmp slt i32 %21, 10
  %27 = or i1 %26, %25
  br i1 %27, label %.critedge, label %.preheader51

.critedge:                                        ; preds = %19
  %28 = invoke dereferenceable(280) %"class.std::basic_istream"* @_ZNSirsERi(%"class.std::basic_istream"* nonnull %18, i32* nonnull dereferenceable(4) %2)
          to label %29 unwind label %61

29:                                               ; preds = %.critedge
  call void @_ZNSaISt3setIiSt4lessIiESaIiEEEC2Ev(%"class.std::allocator.0"* nonnull %5) #13
  invoke void @_ZNSt6vectorISt3setIiSt4lessIiESaIiEESaIS4_EEC2EmRKS5_(%"class.std::vector"* nonnull %4, i64 26, %"class.std::allocator.0"* nonnull dereferenceable(1) %5)
          to label %30 unwind label %72

30:                                               ; preds = %29
  call void @_ZNSaISt3setIiSt4lessIiESaIiEEED2Ev(%"class.std::allocator.0"* nonnull %5) #13
  %31 = load i32, i32* %1, align 4
  %32 = icmp sgt i32 %31, 0
  br i1 %32, label %.lr.ph, label %.preheader47

33:                                               ; preds = %59
  %34 = load i32, i32* %1, align 4
  %35 = icmp slt i32 %60, %34
  br i1 %35, label %.lr.ph, label %.preheader47

.preheader47:                                     ; preds = %33, %30
  %36 = getelementptr inbounds %"struct.std::_Rb_tree_const_iterator", %"struct.std::_Rb_tree_const_iterator"* %14, i64 0, i32 0
  %37 = getelementptr inbounds %"struct.std::_Rb_tree_const_iterator", %"struct.std::_Rb_tree_const_iterator"* %15, i64 0, i32 0
  %38 = load i32, i32* %2, align 4
  %39 = icmp sgt i32 %38, 0
  %.pre = load i32, i32* @x.1, align 4
  %.pre65 = load i32, i32* @y.2, align 4
  br i1 %39, label %.lr.ph57, label %.preheader47.._crit_edge_crit_edge

.preheader47.._crit_edge_crit_edge:               ; preds = %.preheader47
  %.pre68 = add i32 %.pre, -1
  %.pre69 = mul i32 %.pre68, %.pre
  %.pre71 = and i32 %.pre69, 1
  br label %._crit_edge

.lr.ph:                                           ; preds = %30, %33
  %.02453 = phi i32 [ %60, %33 ], [ 0, %30 ]
  %40 = sext i32 %.02453 to i64
  %41 = invoke dereferenceable(1) i8* @_ZNSt7__cxx1112basic_stringIcSt11char_traitsIcESaIcEE2atEm(%"class.std::__cxx11::basic_string"* nonnull %3, i64 %40)
          to label %42 unwind label %.loopexit.split-lp.loopexit.split-lp

42:                                               ; preds = %.lr.ph
  %43 = load i8, i8* %41, align 1
  %44 = sext i8 %43 to i64
  %45 = add nsw i64 %44, -97
  %46 = invoke dereferenceable(48) %"class.std::set"* @_ZNSt6vectorISt3setIiSt4lessIiESaIiEESaIS4_EE2atEm(%"class.std::vector"* nonnull %4, i64 %45)
          to label %47 unwind label %.loopexit.split-lp.loopexit.split-lp

47:                                               ; preds = %42
  %48 = add nsw i32 %.02453, 1
  store i32 %48, i32* %6, align 4
  %49 = invoke { %"struct.std::_Rb_tree_node_base"*, i8 } @_ZNSt3setIiSt4lessIiESaIiEE6insertEOi(%"class.std::set"* nonnull %46, i32* nonnull dereferenceable(4) %6)
          to label %50 unwind label %.loopexit.split-lp.loopexit.split-lp

50:                                               ; preds = %47
  %51 = load i32, i32* @x.1, align 4
  %52 = load i32, i32* @y.2, align 4
  %53 = add i32 %51, -1
  %54 = mul i32 %53, %51
  %55 = and i32 %54, 1
  %56 = icmp eq i32 %55, 0
  %57 = icmp slt i32 %52, 10
  %58 = or i1 %57, %56
  br i1 %58, label %59, label %258

59:                                               ; preds = %258, %50
  %.125 = phi i32 [ %.02453, %50 ], [ %.pre-phi75, %258 ]
  %60 = add i32 %.125, 1
  br i1 %58, label %33, label %._crit_edge73

._crit_edge73:                                    ; preds = %59
  %.pre74 = add i32 %.125, 2
  br label %258

61:                                               ; preds = %.critedge, %17, %0
  %62 = load i32, i32* @x.1, align 4
  %63 = load i32, i32* @y.2, align 4
  %64 = add i32 %62, -1
  %65 = mul i32 %64, %62
  %66 = and i32 %65, 1
  %67 = icmp eq i32 %66, 0
  %68 = icmp slt i32 %63, 10
  %69 = or i1 %68, %67
  br i1 %69, label %70, label %259

70:                                               ; preds = %259, %61
  %71 = landingpad { i8*, i32 }
          cleanup
  br i1 %69, label %249, label %259

72:                                               ; preds = %29
  %73 = landingpad { i8*, i32 }
          cleanup
  call void @_ZNSaISt3setIiSt4lessIiESaIiEEED2Ev(%"class.std::allocator.0"* nonnull %5) #13
  br label %249

.loopexit44:                                      ; preds = %.preheader43, %174, %176
  %lpad.loopexit = landingpad { i8*, i32 }
          cleanup
  br label %.loopexit.split-lp

.loopexit.split-lp.loopexit:                      ; preds = %221, %219, %.critedge31, %161, %157, %152, %129, %.loopexit, %102, %98, %96, %.critedge29, %.critedge28
  %lpad.loopexit48 = landingpad { i8*, i32 }
          cleanup
  br label %.loopexit.split-lp

.loopexit.split-lp.loopexit.split-lp:             ; preds = %47, %42, %.lr.ph
  %lpad.loopexit.split-lp49 = landingpad { i8*, i32 }
          cleanup
  br label %.loopexit.split-lp

.loopexit.split-lp:                               ; preds = %.loopexit.split-lp.loopexit, %.loopexit.split-lp.loopexit.split-lp, %.loopexit44
  %lpad.phi = phi { i8*, i32 } [ %lpad.loopexit, %.loopexit44 ], [ %lpad.loopexit48, %.loopexit.split-lp.loopexit ], [ %lpad.loopexit.split-lp49, %.loopexit.split-lp.loopexit.split-lp ]
  call void @_ZNSt6vectorISt3setIiSt4lessIiESaIiEESaIS4_EED2Ev(%"class.std::vector"* nonnull %4) #13
  br label %249

.lr.ph57:                                         ; preds = %.preheader47, %.critedge32
  %74 = phi i32 [ %225, %.critedge32 ], [ %.pre65, %.preheader47 ]
  %75 = phi i32 [ %224, %.critedge32 ], [ %.pre, %.preheader47 ]
  %.02356 = phi i32 [ %232, %.critedge32 ], [ 0, %.preheader47 ]
  %76 = add i32 %75, -1
  %77 = mul i32 %76, %75
  %78 = and i32 %77, 1
  %79 = icmp eq i32 %78, 0
  %80 = icmp slt i32 %74, 10
  %81 = or i1 %80, %79
  br i1 %81, label %.critedge28, label %.preheader46

.critedge28:                                      ; preds = %.lr.ph57
  %82 = invoke dereferenceable(280) %"class.std::basic_istream"* @_ZNSirsERi(%"class.std::basic_istream"* nonnull @_ZSt3cin, i32* nonnull dereferenceable(4) %7)
          to label %83 unwind label %.loopexit.split-lp.loopexit

83:                                               ; preds = %.critedge28
  %84 = load i32, i32* %7, align 4
  %85 = icmp eq i32 %84, 1
  br i1 %85, label %86, label %161

86:                                               ; preds = %83
  %87 = load i32, i32* @x.1, align 4
  %88 = load i32, i32* @y.2, align 4
  %89 = add i32 %87, -1
  %90 = mul i32 %89, %87
  %91 = and i32 %90, 1
  %92 = icmp eq i32 %91, 0
  %93 = icmp slt i32 %88, 10
  %94 = or i1 %93, %92
  br i1 %94, label %.critedge29, label %.preheader42

.critedge29:                                      ; preds = %86
  %95 = invoke dereferenceable(280) %"class.std::basic_istream"* @_ZNSirsERx(%"class.std::basic_istream"* nonnull @_ZSt3cin, i64* nonnull dereferenceable(8) %8)
          to label %96 unwind label %.loopexit.split-lp.loopexit

96:                                               ; preds = %.critedge29
  %97 = invoke dereferenceable(280) %"class.std::basic_istream"* @_ZStrsIcSt11char_traitsIcEERSt13basic_istreamIT_T0_ES6_RS3_(%"class.std::basic_istream"* nonnull dereferenceable(280) %95, i8* nonnull dereferenceable(1) %9)
          to label %98 unwind label %.loopexit.split-lp.loopexit

98:                                               ; preds = %96
  %99 = load i64, i64* %8, align 8
  %100 = add i64 %99, -1
  %101 = invoke dereferenceable(1) i8* @_ZNSt7__cxx1112basic_stringIcSt11char_traitsIcESaIcEE2atEm(%"class.std::__cxx11::basic_string"* nonnull %3, i64 %100)
          to label %102 unwind label %.loopexit.split-lp.loopexit

102:                                              ; preds = %98
  %103 = load i8, i8* %101, align 1
  %104 = sext i8 %103 to i64
  %105 = add nsw i64 %104, -97
  %106 = invoke dereferenceable(48) %"class.std::set"* @_ZNSt6vectorISt3setIiSt4lessIiESaIiEESaIS4_EE2atEm(%"class.std::vector"* nonnull %4, i64 %105)
          to label %107 unwind label %.loopexit.split-lp.loopexit

107:                                              ; preds = %102
  %108 = load i32, i32* @x.1, align 4
  %109 = load i32, i32* @y.2, align 4
  %110 = add i32 %108, -1
  %111 = mul i32 %110, %108
  %112 = and i32 %111, 1
  %113 = icmp eq i32 %112, 0
  %114 = icmp slt i32 %109, 10
  %115 = or i1 %114, %113
  br i1 %115, label %.loopexit, label %.peel.next

.loopexit:                                        ; preds = %107
  %116 = load i64, i64* %8, align 8
  %117 = trunc i64 %116 to i32
  store i32 %117, i32* %10, align 4
  %118 = invoke i64 @_ZNSt3setIiSt4lessIiESaIiEE5eraseERKi(%"class.std::set"* nonnull %106, i32* nonnull dereferenceable(4) %10)
          to label %119 unwind label %.loopexit.split-lp.loopexit

119:                                              ; preds = %.loopexit
  %120 = load i32, i32* @x.1, align 4
  %121 = load i32, i32* @y.2, align 4
  %122 = add i32 %120, -1
  %123 = mul i32 %122, %120
  %124 = and i32 %123, 1
  %125 = icmp eq i32 %124, 0
  %126 = icmp slt i32 %121, 10
  %127 = or i1 %126, %125
  br label %128

128:                                              ; preds = %119, %128
  br i1 %127, label %129, label %128

129:                                              ; preds = %128
  %130 = load i8, i8* %9, align 1
  %131 = load i64, i64* %8, align 8
  %132 = add i64 %131, -1
  %133 = invoke dereferenceable(1) i8* @_ZNSt7__cxx1112basic_stringIcSt11char_traitsIcESaIcEE2atEm(%"class.std::__cxx11::basic_string"* nonnull %3, i64 %132)
          to label %134 unwind label %.loopexit.split-lp.loopexit

134:                                              ; preds = %129
  %135 = load i32, i32* @x.1, align 4
  %136 = load i32, i32* @y.2, align 4
  %137 = add i32 %135, -1
  %138 = mul i32 %137, %135
  %139 = and i32 %138, 1
  %140 = icmp eq i32 %139, 0
  %141 = icmp slt i32 %136, 10
  %142 = or i1 %141, %140
  br i1 %142, label %143, label %261

143:                                              ; preds = %261, %134
  store i8 %130, i8* %133, align 1
  %144 = load i32, i32* @x.1, align 4
  %145 = load i32, i32* @y.2, align 4
  %146 = add i32 %144, -1
  %147 = mul i32 %146, %144
  %148 = and i32 %147, 1
  %149 = icmp eq i32 %148, 0
  %150 = icmp slt i32 %145, 10
  %151 = or i1 %150, %149
  br i1 %151, label %152, label %261

152:                                              ; preds = %143
  %153 = load i8, i8* %9, align 1
  %154 = sext i8 %153 to i64
  %155 = add nsw i64 %154, -97
  %156 = invoke dereferenceable(48) %"class.std::set"* @_ZNSt6vectorISt3setIiSt4lessIiESaIiEESaIS4_EE2atEm(%"class.std::vector"* nonnull %4, i64 %155)
          to label %157 unwind label %.loopexit.split-lp.loopexit

157:                                              ; preds = %152
  %158 = load i64, i64* %8, align 8
  %159 = trunc i64 %158 to i32
  store i32 %159, i32* %11, align 4
  %160 = invoke { %"struct.std::_Rb_tree_node_base"*, i8 } @_ZNSt3setIiSt4lessIiESaIiEE6insertEOi(%"class.std::set"* nonnull %156, i32* nonnull dereferenceable(4) %11)
          to label %223 unwind label %.loopexit.split-lp.loopexit

161:                                              ; preds = %83
  %162 = invoke dereferenceable(280) %"class.std::basic_istream"* @_ZNSirsERi(%"class.std::basic_istream"* nonnull @_ZSt3cin, i32* nonnull dereferenceable(4) %12)
          to label %163 unwind label %.loopexit.split-lp.loopexit

163:                                              ; preds = %161
  %164 = load i32, i32* @x.1, align 4
  %165 = load i32, i32* @y.2, align 4
  %166 = add i32 %164, -1
  %167 = mul i32 %166, %164
  %168 = and i32 %167, 1
  %169 = icmp eq i32 %168, 0
  %170 = icmp slt i32 %165, 10
  %171 = or i1 %170, %169
  br i1 %171, label %.critedge31, label %.preheader45

.critedge31:                                      ; preds = %163
  %172 = invoke dereferenceable(280) %"class.std::basic_istream"* @_ZNSirsERi(%"class.std::basic_istream"* nonnull %162, i32* nonnull dereferenceable(4) %13)
          to label %.preheader43 unwind label %.loopexit.split-lp.loopexit

.preheader43:                                     ; preds = %.critedge31, %218
  %indvars.iv = phi i64 [ %indvars.iv.next, %218 ], [ 0, %.critedge31 ]
  %.02054 = phi i32 [ %.1, %218 ], [ 0, %.critedge31 ]
  %173 = invoke dereferenceable(48) %"class.std::set"* @_ZNSt6vectorISt3setIiSt4lessIiESaIiEESaIS4_EE2atEm(%"class.std::vector"* nonnull %4, i64 %indvars.iv)
          to label %174 unwind label %.loopexit44

174:                                              ; preds = %.preheader43
  %175 = invoke %"struct.std::_Rb_tree_node_base"* @_ZNSt3setIiSt4lessIiESaIiEE11lower_boundERKi(%"class.std::set"* nonnull %173, i32* nonnull dereferenceable(4) %12)
          to label %176 unwind label %.loopexit44

176:                                              ; preds = %174
  store %"struct.std::_Rb_tree_node_base"* %175, %"struct.std::_Rb_tree_node_base"** %36, align 8
  %177 = invoke dereferenceable(48) %"class.std::set"* @_ZNSt6vectorISt3setIiSt4lessIiESaIiEESaIS4_EE2atEm(%"class.std::vector"* nonnull %4, i64 %indvars.iv)
          to label %178 unwind label %.loopexit44

178:                                              ; preds = %176
  %179 = load i32, i32* @x.1, align 4
  %180 = load i32, i32* @y.2, align 4
  %181 = add i32 %179, -1
  %182 = mul i32 %181, %179
  %183 = and i32 %182, 1
  %184 = icmp eq i32 %183, 0
  %185 = icmp slt i32 %180, 10
  %186 = or i1 %185, %184
  br i1 %186, label %187, label %262

187:                                              ; preds = %262, %178
  %188 = call %"struct.std::_Rb_tree_node_base"* @_ZNKSt3setIiSt4lessIiESaIiEE3endEv(%"class.std::set"* nonnull %177) #13
  store %"struct.std::_Rb_tree_node_base"* %188, %"struct.std::_Rb_tree_node_base"** %37, align 8
  %189 = call zeroext i1 @_ZNKSt23_Rb_tree_const_iteratorIiEneERKS0_(%"struct.std::_Rb_tree_const_iterator"* nonnull %15, %"struct.std::_Rb_tree_const_iterator"* nonnull dereferenceable(8) %14) #13
  %190 = load i32, i32* @x.1, align 4
  %191 = load i32, i32* @y.2, align 4
  %192 = add i32 %190, -1
  %193 = mul i32 %192, %190
  %194 = and i32 %193, 1
  %195 = icmp ne i32 %194, 0
  %196 = icmp slt i32 %191, 10
  %197 = xor i1 %196, %195
  %198 = xor i1 %197, true
  %.not = xor i1 %195, true
  %199 = and i1 %196, %.not
  %200 = or i1 %199, %198
  br i1 %200, label %201, label %262

201:                                              ; preds = %187
  br i1 %189, label %202, label %218

202:                                              ; preds = %201
  %203 = icmp eq i32 %194, 0
  %204 = or i1 %196, %203
  br i1 %204, label %205, label %265

205:                                              ; preds = %265, %202
  %206 = call dereferenceable(4) i32* @_ZNKSt23_Rb_tree_const_iteratorIiEdeEv(%"struct.std::_Rb_tree_const_iterator"* nonnull %14) #13
  %207 = load i32, i32* @x.1, align 4
  %208 = load i32, i32* @y.2, align 4
  %209 = add i32 %207, -1
  %210 = mul i32 %209, %207
  %211 = and i32 %210, 1
  %212 = icmp eq i32 %211, 0
  %213 = icmp slt i32 %208, 10
  %214 = or i1 %213, %212
  br i1 %214, label %215, label %265

215:                                              ; preds = %205
  %216 = load i32, i32* %206, align 4
  %217 = load i32, i32* %13, align 4
  %.not27 = icmp sle i32 %216, %217
  %.neg = zext i1 %.not27 to i32
  %spec.select = add i32 %.02054, %.neg
  br label %218

218:                                              ; preds = %215, %201
  %.1 = phi i32 [ %.02054, %201 ], [ %spec.select, %215 ]
  %indvars.iv.next = add nuw nsw i64 %indvars.iv, 1
  %exitcond.not = icmp eq i64 %indvars.iv.next, 26
  br i1 %exitcond.not, label %219, label %.preheader43

219:                                              ; preds = %218
  %220 = invoke dereferenceable(272) %"class.std::basic_ostream"* @_ZNSolsEi(%"class.std::basic_ostream"* nonnull @_ZSt4cout, i32 %.1)
          to label %221 unwind label %.loopexit.split-lp.loopexit

221:                                              ; preds = %219
  %222 = invoke dereferenceable(272) %"class.std::basic_ostream"* @_ZNSolsEPFRSoS_E(%"class.std::basic_ostream"* nonnull %220, %"class.std::basic_ostream"* (%"class.std::basic_ostream"*)* nonnull @_ZSt4endlIcSt11char_traitsIcEERSt13basic_ostreamIT_T0_ES6_)
          to label %223 unwind label %.loopexit.split-lp.loopexit

223:                                              ; preds = %157, %221
  %224 = load i32, i32* @x.1, align 4
  %225 = load i32, i32* @y.2, align 4
  %226 = add i32 %224, -1
  %227 = mul i32 %226, %224
  %228 = and i32 %227, 1
  %229 = icmp eq i32 %228, 0
  %230 = icmp slt i32 %225, 10
  %231 = or i1 %230, %229
  br i1 %231, label %.critedge32, label %.preheader40

.critedge32:                                      ; preds = %223
  %232 = add nuw nsw i32 %.02356, 1
  %233 = load i32, i32* %2, align 4
  %234 = icmp slt i32 %232, %233
  br i1 %234, label %.lr.ph57, label %._crit_edge

._crit_edge:                                      ; preds = %.critedge32, %.preheader47.._crit_edge_crit_edge
  %.pre-phi72 = phi i32 [ %.pre71, %.preheader47.._crit_edge_crit_edge ], [ %228, %.critedge32 ]
  %235 = phi i32 [ %.pre65, %.preheader47.._crit_edge_crit_edge ], [ %225, %.critedge32 ]
  %236 = icmp eq i32 %.pre-phi72, 0
  %237 = icmp slt i32 %235, 10
  %238 = or i1 %237, %236
  br i1 %238, label %239, label %267

239:                                              ; preds = %267, %._crit_edge
  call void @_ZNSt6vectorISt3setIiSt4lessIiESaIiEESaIS4_EED2Ev(%"class.std::vector"* nonnull %4) #13
  call void @_ZNSt7__cxx1112basic_stringIcSt11char_traitsIcESaIcEED1Ev(%"class.std::__cxx11::basic_string"* nonnull %3) #13
  %240 = load i32, i32* @x.1, align 4
  %241 = load i32, i32* @y.2, align 4
  %242 = add i32 %240, -1
  %243 = mul i32 %242, %240
  %244 = and i32 %243, 1
  %245 = icmp eq i32 %244, 0
  %246 = icmp slt i32 %241, 10
  %247 = or i1 %246, %245
  br i1 %247, label %248, label %267

248:                                              ; preds = %239
  ret i32 0

249:                                              ; preds = %70, %.loopexit.split-lp, %72
  %.pn = phi { i8*, i32 } [ %lpad.phi, %.loopexit.split-lp ], [ %73, %72 ], [ %71, %70 ]
  call void @_ZNSt7__cxx1112basic_stringIcSt11char_traitsIcESaIcEED1Ev(%"class.std::__cxx11::basic_string"* nonnull %3) #13
  %250 = load i32, i32* @x.1, align 4
  %251 = load i32, i32* @y.2, align 4
  %252 = add i32 %250, -1
  %253 = mul i32 %252, %250
  %254 = and i32 %253, 1
  %255 = icmp eq i32 %254, 0
  %256 = icmp slt i32 %251, 10
  %257 = or i1 %256, %255
  br i1 %257, label %.critedge33, label %.preheader

.critedge33:                                      ; preds = %249
  resume { i8*, i32 } %.pn

.preheader51:                                     ; preds = %19, %.preheader51
  br label %.preheader51, !llvm.loop !1

258:                                              ; preds = %._crit_edge73, %50
  %.pre-phi75 = phi i32 [ %.pre74, %._crit_edge73 ], [ %48, %50 ]
  br label %59

259:                                              ; preds = %70, %61
  %260 = landingpad { i8*, i32 }
          cleanup
  br label %70

.preheader46:                                     ; preds = %.lr.ph57, %.preheader46
  br label %.preheader46, !llvm.loop !3

.preheader42:                                     ; preds = %86, %.preheader42
  br label %.preheader42, !llvm.loop !4

.peel.next:                                       ; preds = %107, %.peel.next
  br label %.peel.next, !llvm.loop !5

261:                                              ; preds = %143, %134
  store i8 %130, i8* %133, align 1
  br label %143

.preheader45:                                     ; preds = %163, %.preheader45
  br label %.preheader45, !llvm.loop !6

262:                                              ; preds = %187, %178
  %263 = call %"struct.std::_Rb_tree_node_base"* @_ZNKSt3setIiSt4lessIiESaIiEE3endEv(%"class.std::set"* nonnull %177) #13
  store %"struct.std::_Rb_tree_node_base"* %263, %"struct.std::_Rb_tree_node_base"** %37, align 8
  %264 = call zeroext i1 @_ZNKSt23_Rb_tree_const_iteratorIiEneERKS0_(%"struct.std::_Rb_tree_const_iterator"* nonnull %15, %"struct.std::_Rb_tree_const_iterator"* nonnull dereferenceable(8) %14) #13
  br label %187

265:                                              ; preds = %205, %202
  %266 = call dereferenceable(4) i32* @_ZNKSt23_Rb_tree_const_iteratorIiEdeEv(%"struct.std::_Rb_tree_const_iterator"* nonnull %14) #13
  br label %205

.preheader40:                                     ; preds = %223, %.preheader40
  br label %.preheader40, !llvm.loop !7

267:                                              ; preds = %239, %._crit_edge
  call void @_ZNSt6vectorISt3setIiSt4lessIiESaIiEESaIS4_EED2Ev(%"class.std::vector"* nonnull %4) #13
  call void @_ZNSt7__cxx1112basic_stringIcSt11char_traitsIcESaIcEED1Ev(%"class.std::__cxx11::basic_string"* nonnull %3) #13
  br label %239

.preheader:                                       ; preds = %249, %.preheader
  br label %.preheader, !llvm.loop !8
}

; Function Attrs: nounwind
declare void @_ZNSt7__cxx1112basic_stringIcSt11char_traitsIcESaIcEEC1Ev(%"class.std::__cxx11::basic_string"*) unnamed_addr #2

declare dereferenceable(280) %"class.std::basic_istream"* @_ZStrsIcSt11char_traitsIcESaIcEERSt13basic_istreamIT_T0_ES7_RNSt7__cxx1112basic_stringIS4_S5_T1_EE(%"class.std::basic_istream"* dereferenceable(280), %"class.std::__cxx11::basic_string"* dereferenceable(32)) local_unnamed_addr #1

declare dereferenceable(280) %"class.std::basic_istream"* @_ZNSirsERi(%"class.std::basic_istream"*, i32* dereferenceable(4)) local_unnamed_addr #1

declare i32 @__gxx_personality_v0(...)

; Function Attrs: noinline nounwind uwtable
define linkonce_odr void @_ZNSaISt3setIiSt4lessIiESaIiEEEC2Ev(%"class.std::allocator.0"* %0) unnamed_addr #5 comdat align 2 {
  %2 = bitcast %"class.std::allocator.0"* %0 to %"class.__gnu_cxx::new_allocator.1"*
  tail call void @_ZN9__gnu_cxx13new_allocatorISt3setIiSt4lessIiESaIiEEEC2Ev(%"class.__gnu_cxx::new_allocator.1"* %2) #13
  ret void
}

; Function Attrs: noinline uwtable
define linkonce_odr void @_ZNSt6vectorISt3setIiSt4lessIiESaIiEESaIS4_EEC2EmRKS5_(%"class.std::vector"* %0, i64 %1, %"class.std::allocator.0"* dereferenceable(1) %2) unnamed_addr #0 comdat align 2 personality i8* bitcast (i32 (...)* @__gxx_personality_v0 to i8*) {
  %4 = getelementptr %"class.std::vector", %"class.std::vector"* %0, i64 0, i32 0
  tail call void @_ZNSt12_Vector_baseISt3setIiSt4lessIiESaIiEESaIS4_EEC2EmRKS5_(%"struct.std::_Vector_base"* %4, i64 %1, %"class.std::allocator.0"* nonnull dereferenceable(1) %2)
  invoke void @_ZNSt6vectorISt3setIiSt4lessIiESaIiEESaIS4_EE21_M_default_initializeEm(%"class.std::vector"* %0, i64 %1)
          to label %5 unwind label %14

5:                                                ; preds = %3
  %6 = load i32, i32* @x.5, align 4
  %7 = load i32, i32* @y.6, align 4
  %8 = add i32 %6, -1
  %9 = mul i32 %8, %6
  %10 = and i32 %9, 1
  %11 = icmp eq i32 %10, 0
  %12 = icmp slt i32 %7, 10
  %13 = or i1 %12, %11
  br i1 %13, label %.critedge, label %.preheader

.critedge:                                        ; preds = %5
  ret void

14:                                               ; preds = %3
  %15 = landingpad { i8*, i32 }
          cleanup
  tail call void @_ZNSt12_Vector_baseISt3setIiSt4lessIiESaIiEESaIS4_EED2Ev(%"struct.std::_Vector_base"* %4) #13
  resume { i8*, i32 } %15

.preheader:                                       ; preds = %5, %.preheader
  br label %.preheader, !llvm.loop !9
}

; Function Attrs: noinline nounwind uwtable
define linkonce_odr void @_ZNSaISt3setIiSt4lessIiESaIiEEED2Ev(%"class.std::allocator.0"* %0) unnamed_addr #5 comdat align 2 {
  %2 = bitcast %"class.std::allocator.0"* %0 to %"class.__gnu_cxx::new_allocator.1"*
  tail call void @_ZN9__gnu_cxx13new_allocatorISt3setIiSt4lessIiESaIiEEED2Ev(%"class.__gnu_cxx::new_allocator.1"* %2) #13
  ret void
}

; Function Attrs: noinline uwtable
define linkonce_odr dereferenceable(48) %"class.std::set"* @_ZNSt6vectorISt3setIiSt4lessIiESaIiEESaIS4_EE2atEm(%"class.std::vector"* %0, i64 %1) local_unnamed_addr #0 comdat align 2 {
  tail call void @_ZNKSt6vectorISt3setIiSt4lessIiESaIiEESaIS4_EE14_M_range_checkEm(%"class.std::vector"* %0, i64 %1)
  %3 = tail call dereferenceable(48) %"class.std::set"* @_ZNSt6vectorISt3setIiSt4lessIiESaIiEESaIS4_EEixEm(%"class.std::vector"* %0, i64 %1) #13
  ret %"class.std::set"* %3
}

declare dereferenceable(1) i8* @_ZNSt7__cxx1112basic_stringIcSt11char_traitsIcESaIcEE2atEm(%"class.std::__cxx11::basic_string"*, i64) local_unnamed_addr #1

; Function Attrs: noinline uwtable
define linkonce_odr { %"struct.std::_Rb_tree_node_base"*, i8 } @_ZNSt3setIiSt4lessIiESaIiEE6insertEOi(%"class.std::set"* %0, i32* dereferenceable(4) %1) local_unnamed_addr #0 comdat align 2 {
  %3 = alloca { %"struct.std::_Rb_tree_node_base"*, i8 }, align 8
  %tmpcast = bitcast { %"struct.std::_Rb_tree_node_base"*, i8 }* %3 to %"struct.std::pair"*
  %4 = alloca { %"struct.std::_Rb_tree_node_base"*, i8 }, align 8
  %5 = getelementptr inbounds %"class.std::set", %"class.std::set"* %0, i64 0, i32 0
  %6 = tail call dereferenceable(4) i32* @_ZSt4moveIRiEONSt16remove_referenceIT_E4typeEOS2_(i32* nonnull dereferenceable(4) %1) #13
  %7 = tail call { %"struct.std::_Rb_tree_node_base"*, i8 } @_ZNSt8_Rb_treeIiiSt9_IdentityIiESt4lessIiESaIiEE16_M_insert_uniqueIiEESt4pairISt17_Rb_tree_iteratorIiEbEOT_(%"class.std::_Rb_tree"* %5, i32* nonnull dereferenceable(4) %6)
  %8 = getelementptr inbounds { %"struct.std::_Rb_tree_node_base"*, i8 }, { %"struct.std::_Rb_tree_node_base"*, i8 }* %4, i64 0, i32 0
  %9 = extractvalue { %"struct.std::_Rb_tree_node_base"*, i8 } %7, 0
  store %"struct.std::_Rb_tree_node_base"* %9, %"struct.std::_Rb_tree_node_base"** %8, align 8
  %10 = getelementptr inbounds { %"struct.std::_Rb_tree_node_base"*, i8 }, { %"struct.std::_Rb_tree_node_base"*, i8 }* %4, i64 0, i32 1
  %11 = extractvalue { %"struct.std::_Rb_tree_node_base"*, i8 } %7, 1
  store i8 %11, i8* %10, align 8
  %12 = bitcast { %"struct.std::_Rb_tree_node_base"*, i8 }* %4 to %"struct.std::_Rb_tree_iterator"*
  call void @_ZNSt4pairISt23_Rb_tree_const_iteratorIiEbEC2IRSt17_Rb_tree_iteratorIiERbvEEOT_OT0_(%"struct.std::pair"* nonnull %tmpcast, %"struct.std::_Rb_tree_iterator"* nonnull dereferenceable(8) %12, i8* nonnull dereferenceable(1) %10)
  %.fca.0.gep = getelementptr inbounds { %"struct.std::_Rb_tree_node_base"*, i8 }, { %"struct.std::_Rb_tree_node_base"*, i8 }* %3, i64 0, i32 0
  %.fca.0.load = load %"struct.std::_Rb_tree_node_base"*, %"struct.std::_Rb_tree_node_base"** %.fca.0.gep, align 8
  %.fca.0.insert = insertvalue { %"struct.std::_Rb_tree_node_base"*, i8 } undef, %"struct.std::_Rb_tree_node_base"* %.fca.0.load, 0
  %.fca.1.gep = getelementptr inbounds { %"struct.std::_Rb_tree_node_base"*, i8 }, { %"struct.std::_Rb_tree_node_base"*, i8 }* %3, i64 0, i32 1
  %.fca.1.load = load i8, i8* %.fca.1.gep, align 8
  %.fca.1.insert = insertvalue { %"struct.std::_Rb_tree_node_base"*, i8 } %.fca.0.insert, i8 %.fca.1.load, 1
  ret { %"struct.std::_Rb_tree_node_base"*, i8 } %.fca.1.insert
}

declare dereferenceable(280) %"class.std::basic_istream"* @_ZStrsIcSt11char_traitsIcEERSt13basic_istreamIT_T0_ES6_RS3_(%"class.std::basic_istream"* dereferenceable(280), i8* dereferenceable(1)) local_unnamed_addr #1

declare dereferenceable(280) %"class.std::basic_istream"* @_ZNSirsERx(%"class.std::basic_istream"*, i64* dereferenceable(8)) local_unnamed_addr #1

; Function Attrs: noinline uwtable
define linkonce_odr i64 @_ZNSt3setIiSt4lessIiESaIiEE5eraseERKi(%"class.std::set"* %0, i32* dereferenceable(4) %1) local_unnamed_addr #0 comdat align 2 {
  %3 = alloca i64, align 8
  %4 = alloca i1, align 1
  %5 = alloca i1, align 1
  %6 = load i32, i32* @x.13, align 4
  %7 = load i32, i32* @y.14, align 4
  %8 = add i32 %6, -1
  %9 = mul i32 %8, %6
  %10 = and i32 %9, 1
  %11 = icmp eq i32 %10, 0
  store i1 %11, i1* %5, align 1
  %12 = icmp slt i32 %7, 10
  store i1 %12, i1* %4, align 1
  %13 = getelementptr inbounds %"class.std::set", %"class.std::set"* %0, i64 0, i32 0
  br label %.outer

.outer:                                           ; preds = %18, %2
  %.ph = phi i64 [ %19, %18 ], [ undef, %2 ]
  %.0.ph = phi i32 [ %28, %18 ], [ -1924601403, %2 ]
  br label %.outer3

.outer3:                                          ; preds = %.outer3.backedge, %.outer
  %.0.ph4 = phi i32 [ %.0.ph, %.outer ], [ %.0.ph4.be, %.outer3.backedge ]
  br label %14

14:                                               ; preds = %.outer3, %14
  switch i32 %.0.ph4, label %14 [
    i32 -1924601403, label %15
    i32 2000728879, label %18
    i32 -1338677296, label %29
    i32 -1359464, label %30
  ]

15:                                               ; preds = %14
  %.0..0..0. = load volatile i1, i1* %5, align 1
  %.0..0..0.1 = load volatile i1, i1* %4, align 1
  %16 = or i1 %.0..0..0., %.0..0..0.1
  %17 = select i1 %16, i32 2000728879, i32 -1359464
  br label %.outer3.backedge

18:                                               ; preds = %14
  %19 = tail call i64 @_ZNSt8_Rb_treeIiiSt9_IdentityIiESt4lessIiESaIiEE5eraseERKi(%"class.std::_Rb_tree"* %13, i32* nonnull dereferenceable(4) %1)
  %20 = load i32, i32* @x.13, align 4
  %21 = load i32, i32* @y.14, align 4
  %22 = add i32 %20, -1
  %23 = mul i32 %22, %20
  %24 = and i32 %23, 1
  %25 = icmp eq i32 %24, 0
  %26 = icmp slt i32 %21, 10
  %27 = or i1 %26, %25
  %28 = select i1 %27, i32 -1338677296, i32 -1359464
  br label %.outer

29:                                               ; preds = %14
  store i64 %.ph, i64* %3, align 8
  %.0..0..0.2 = load volatile i64, i64* %3, align 8
  ret i64 %.0..0..0.2

30:                                               ; preds = %14
  %31 = tail call i64 @_ZNSt8_Rb_treeIiiSt9_IdentityIiESt4lessIiESaIiEE5eraseERKi(%"class.std::_Rb_tree"* %13, i32* nonnull dereferenceable(4) %1)
  br label %.outer3.backedge

.outer3.backedge:                                 ; preds = %30, %15
  %.0.ph4.be = phi i32 [ %17, %15 ], [ 2000728879, %30 ]
  br label %.outer3
}

; Function Attrs: noinline uwtable
define linkonce_odr %"struct.std::_Rb_tree_node_base"* @_ZNSt3setIiSt4lessIiESaIiEE11lower_boundERKi(%"class.std::set"* %0, i32* dereferenceable(4) %1) local_unnamed_addr #0 comdat align 2 {
  %3 = alloca %"struct.std::_Rb_tree_const_iterator", align 8
  %4 = alloca %"struct.std::_Rb_tree_iterator", align 8
  %5 = getelementptr inbounds %"class.std::set", %"class.std::set"* %0, i64 0, i32 0
  %6 = tail call %"struct.std::_Rb_tree_node_base"* @_ZNSt8_Rb_treeIiiSt9_IdentityIiESt4lessIiESaIiEE11lower_boundERKi(%"class.std::_Rb_tree"* %5, i32* nonnull dereferenceable(4) %1)
  %7 = getelementptr inbounds %"struct.std::_Rb_tree_iterator", %"struct.std::_Rb_tree_iterator"* %4, i64 0, i32 0
  store %"struct.std::_Rb_tree_node_base"* %6, %"struct.std::_Rb_tree_node_base"** %7, align 8
  call void @_ZNSt23_Rb_tree_const_iteratorIiEC2ERKSt17_Rb_tree_iteratorIiE(%"struct.std::_Rb_tree_const_iterator"* nonnull %3, %"struct.std::_Rb_tree_iterator"* nonnull dereferenceable(8) %4) #13
  %8 = getelementptr inbounds %"struct.std::_Rb_tree_const_iterator", %"struct.std::_Rb_tree_const_iterator"* %3, i64 0, i32 0
  %9 = load %"struct.std::_Rb_tree_node_base"*, %"struct.std::_Rb_tree_node_base"** %8, align 8
  ret %"struct.std::_Rb_tree_node_base"* %9
}

; Function Attrs: noinline nounwind uwtable
define linkonce_odr %"struct.std::_Rb_tree_node_base"* @_ZNKSt3setIiSt4lessIiESaIiEE3endEv(%"class.std::set"* %0) local_unnamed_addr #5 comdat align 2 {
  %2 = getelementptr inbounds %"class.std::set", %"class.std::set"* %0, i64 0, i32 0
  %3 = tail call %"struct.std::_Rb_tree_node_base"* @_ZNKSt8_Rb_treeIiiSt9_IdentityIiESt4lessIiESaIiEE3endEv(%"class.std::_Rb_tree"* %2) #13
  ret %"struct.std::_Rb_tree_node_base"* %3
}

; Function Attrs: noinline nounwind uwtable
define linkonce_odr zeroext i1 @_ZNKSt23_Rb_tree_const_iteratorIiEneERKS0_(%"struct.std::_Rb_tree_const_iterator"* %0, %"struct.std::_Rb_tree_const_iterator"* dereferenceable(8) %1) local_unnamed_addr #5 comdat align 2 {
  %3 = getelementptr inbounds %"struct.std::_Rb_tree_const_iterator", %"struct.std::_Rb_tree_const_iterator"* %0, i64 0, i32 0
  %4 = load %"struct.std::_Rb_tree_node_base"*, %"struct.std::_Rb_tree_node_base"** %3, align 8
  %5 = getelementptr inbounds %"struct.std::_Rb_tree_const_iterator", %"struct.std::_Rb_tree_const_iterator"* %1, i64 0, i32 0
  %6 = load %"struct.std::_Rb_tree_node_base"*, %"struct.std::_Rb_tree_node_base"** %5, align 8
  %7 = icmp ne %"struct.std::_Rb_tree_node_base"* %4, %6
  ret i1 %7
}

; Function Attrs: noinline nounwind uwtable
define linkonce_odr dereferenceable(4) i32* @_ZNKSt23_Rb_tree_const_iteratorIiEdeEv(%"struct.std::_Rb_tree_const_iterator"* %0) local_unnamed_addr #5 comdat align 2 personality i8* bitcast (i32 (...)* @__gxx_personality_v0 to i8*) {
  %2 = load i32, i32* @x.21, align 4
  %3 = load i32, i32* @y.22, align 4
  %4 = add i32 %2, -1
  %5 = mul i32 %4, %2
  %6 = and i32 %5, 1
  %7 = icmp eq i32 %6, 0
  %8 = icmp slt i32 %3, 10
  %9 = or i1 %8, %7
  br i1 %9, label %.critedge, label %.preheader3

.critedge:                                        ; preds = %1
  %10 = bitcast %"struct.std::_Rb_tree_const_iterator"* %0 to %"struct.std::_Rb_tree_node"**
  %11 = load %"struct.std::_Rb_tree_node"*, %"struct.std::_Rb_tree_node"** %10, align 8
  %12 = tail call i32* @_ZNKSt13_Rb_tree_nodeIiE9_M_valptrEv(%"struct.std::_Rb_tree_node"* %11)
  %13 = load i32, i32* @x.21, align 4
  %14 = load i32, i32* @y.22, align 4
  %15 = add i32 %13, -1
  %16 = mul i32 %15, %13
  %17 = and i32 %16, 1
  %18 = icmp eq i32 %17, 0
  %19 = icmp slt i32 %14, 10
  %20 = or i1 %19, %18
  br i1 %20, label %.critedge1, label %.preheader

.critedge1:                                       ; preds = %.critedge
  ret i32* %12

.preheader3:                                      ; preds = %1, %.preheader3
  br label %.preheader3, !llvm.loop !10

.preheader:                                       ; preds = %.critedge, %.preheader
  br label %.preheader, !llvm.loop !11
}

declare dereferenceable(272) %"class.std::basic_ostream"* @_ZNSolsEi(%"class.std::basic_ostream"*, i32) local_unnamed_addr #1

declare dereferenceable(272) %"class.std::basic_ostream"* @_ZNSolsEPFRSoS_E(%"class.std::basic_ostream"*, %"class.std::basic_ostream"* (%"class.std::basic_ostream"*)*) local_unnamed_addr #1

declare dereferenceable(272) %"class.std::basic_ostream"* @_ZSt4endlIcSt11char_traitsIcEERSt13basic_ostreamIT_T0_ES6_(%"class.std::basic_ostream"* dereferenceable(272)) #1

; Function Attrs: noinline nounwind uwtable
define linkonce_odr void @_ZNSt6vectorISt3setIiSt4lessIiESaIiEESaIS4_EED2Ev(%"class.std::vector"* %0) unnamed_addr #5 comdat align 2 personality i8* bitcast (i32 (...)* @__gxx_personality_v0 to i8*) {
  %2 = getelementptr %"class.std::vector", %"class.std::vector"* %0, i64 0, i32 0
  %3 = getelementptr inbounds %"class.std::vector", %"class.std::vector"* %0, i64 0, i32 0, i32 0, i32 0
  %4 = load %"class.std::set"*, %"class.std::set"** %3, align 8
  %5 = getelementptr inbounds %"class.std::vector", %"class.std::vector"* %0, i64 0, i32 0, i32 0, i32 1
  %6 = load %"class.std::set"*, %"class.std::set"** %5, align 8
  %7 = tail call dereferenceable(1) %"class.std::allocator.0"* @_ZNSt12_Vector_baseISt3setIiSt4lessIiESaIiEESaIS4_EE19_M_get_Tp_allocatorEv(%"struct.std::_Vector_base"* %2) #13
  invoke void @_ZSt8_DestroyIPSt3setIiSt4lessIiESaIiEES4_EvT_S6_RSaIT0_E(%"class.std::set"* %4, %"class.std::set"* %6, %"class.std::allocator.0"* nonnull dereferenceable(1) %7)
          to label %8 unwind label %9

8:                                                ; preds = %1
  tail call void @_ZNSt12_Vector_baseISt3setIiSt4lessIiESaIiEESaIS4_EED2Ev(%"struct.std::_Vector_base"* %2) #13
  ret void

9:                                                ; preds = %1
  %10 = landingpad { i8*, i32 }
          catch i8* null
  %11 = extractvalue { i8*, i32 } %10, 0
  tail call void @_ZNSt12_Vector_baseISt3setIiSt4lessIiESaIiEESaIS4_EED2Ev(%"struct.std::_Vector_base"* %2) #13
  tail call void @__clang_call_terminate(i8* %11) #14
  unreachable
}

; Function Attrs: nounwind
declare void @_ZNSt7__cxx1112basic_stringIcSt11char_traitsIcESaIcEED1Ev(%"class.std::__cxx11::basic_string"*) unnamed_addr #2

; Function Attrs: noinline nounwind uwtable
define linkonce_odr void @_ZN9__gnu_cxx13new_allocatorISt3setIiSt4lessIiESaIiEEEC2Ev(%"class.__gnu_cxx::new_allocator.1"* %0) unnamed_addr #5 comdat align 2 {
  %2 = alloca i1, align 1
  %3 = alloca i1, align 1
  %4 = load i32, i32* @x.25, align 4
  %5 = load i32, i32* @y.26, align 4
  %6 = add i32 %4, -1
  %7 = mul i32 %6, %4
  %8 = and i32 %7, 1
  %9 = icmp eq i32 %8, 0
  store i1 %9, i1* %3, align 1
  %10 = icmp slt i32 %5, 10
  store i1 %10, i1* %2, align 1
  %11 = or i1 %10, %9
  %12 = select i1 %11, i32 374666232, i32 -2031700193
  br label %.outer

.outer:                                           ; preds = %.outer.backedge, %1
  %.0.ph = phi i32 [ -997995836, %1 ], [ %.0.ph.be, %.outer.backedge ]
  br label %13

13:                                               ; preds = %.outer, %13
  switch i32 %.0.ph, label %13 [
    i32 -997995836, label %14
    i32 1858454912, label %.outer.backedge
    i32 374666232, label %17
    i32 -2031700193, label %18
  ]

14:                                               ; preds = %13
  %.0..0..0. = load volatile i1, i1* %3, align 1
  %.0..0..0.1 = load volatile i1, i1* %2, align 1
  %15 = or i1 %.0..0..0., %.0..0..0.1
  %16 = select i1 %15, i32 1858454912, i32 -2031700193
  br label %.outer.backedge

17:                                               ; preds = %13
  ret void

18:                                               ; preds = %13
  br label %.outer.backedge

.outer.backedge:                                  ; preds = %13, %18, %14
  %.0.ph.be = phi i32 [ %16, %14 ], [ 1858454912, %18 ], [ %12, %13 ]
  br label %.outer
}

; Function Attrs: noinline nounwind uwtable
define linkonce_odr void @_ZN9__gnu_cxx13new_allocatorISt3setIiSt4lessIiESaIiEEED2Ev(%"class.__gnu_cxx::new_allocator.1"* %0) unnamed_addr #5 comdat align 2 {
  %2 = alloca i1, align 1
  %3 = alloca i1, align 1
  %4 = load i32, i32* @x.27, align 4
  %5 = load i32, i32* @y.28, align 4
  %6 = add i32 %4, -1
  %7 = mul i32 %6, %4
  %8 = and i32 %7, 1
  %9 = icmp eq i32 %8, 0
  store i1 %9, i1* %3, align 1
  %10 = icmp slt i32 %5, 10
  store i1 %10, i1* %2, align 1
  %11 = or i1 %10, %9
  %12 = select i1 %11, i32 -346984045, i32 997524548
  br label %.outer

.outer:                                           ; preds = %.outer.backedge, %1
  %.0.ph = phi i32 [ 803207256, %1 ], [ %.0.ph.be, %.outer.backedge ]
  br label %13

13:                                               ; preds = %.outer, %13
  switch i32 %.0.ph, label %13 [
    i32 803207256, label %14
    i32 1286402193, label %.outer.backedge
    i32 -346984045, label %17
    i32 997524548, label %18
  ]

14:                                               ; preds = %13
  %.0..0..0. = load volatile i1, i1* %3, align 1
  %.0..0..0.1 = load volatile i1, i1* %2, align 1
  %15 = or i1 %.0..0..0., %.0..0..0.1
  %16 = select i1 %15, i32 1286402193, i32 997524548
  br label %.outer.backedge

17:                                               ; preds = %13
  ret void

18:                                               ; preds = %13
  br label %.outer.backedge

.outer.backedge:                                  ; preds = %13, %18, %14
  %.0.ph.be = phi i32 [ %16, %14 ], [ 1286402193, %18 ], [ %12, %13 ]
  br label %.outer
}

; Function Attrs: noinline uwtable
define linkonce_odr void @_ZNSt12_Vector_baseISt3setIiSt4lessIiESaIiEESaIS4_EEC2EmRKS5_(%"struct.std::_Vector_base"* %0, i64 %1, %"class.std::allocator.0"* dereferenceable(1) %2) unnamed_addr #0 comdat align 2 personality i8* bitcast (i32 (...)* @__gxx_personality_v0 to i8*) {
  %4 = getelementptr inbounds %"struct.std::_Vector_base", %"struct.std::_Vector_base"* %0, i64 0, i32 0
  tail call void @_ZNSt12_Vector_baseISt3setIiSt4lessIiESaIiEESaIS4_EE12_Vector_implC2ERKS5_(%"struct.std::_Vector_base<std::set<int, std::less<int>, std::allocator<int> >, std::allocator<std::set<int, std::less<int>, std::allocator<int> > > >::_Vector_impl"* %4, %"class.std::allocator.0"* nonnull dereferenceable(1) %2) #13
  invoke void @_ZNSt12_Vector_baseISt3setIiSt4lessIiESaIiEESaIS4_EE17_M_create_storageEm(%"struct.std::_Vector_base"* %0, i64 %1)
          to label %5 unwind label %14

5:                                                ; preds = %3
  %6 = load i32, i32* @x.29, align 4
  %7 = load i32, i32* @y.30, align 4
  %8 = add i32 %6, -1
  %9 = mul i32 %8, %6
  %10 = and i32 %9, 1
  %11 = icmp eq i32 %10, 0
  %12 = icmp slt i32 %7, 10
  %13 = or i1 %12, %11
  br i1 %13, label %.critedge, label %.preheader

.critedge:                                        ; preds = %5
  ret void

14:                                               ; preds = %3
  %15 = landingpad { i8*, i32 }
          cleanup
  tail call void @_ZNSt12_Vector_baseISt3setIiSt4lessIiESaIiEESaIS4_EE12_Vector_implD2Ev(%"struct.std::_Vector_base<std::set<int, std::less<int>, std::allocator<int> >, std::allocator<std::set<int, std::less<int>, std::allocator<int> > > >::_Vector_impl"* %4) #13
  resume { i8*, i32 } %15

.preheader:                                       ; preds = %5, %.preheader
  br label %.preheader, !llvm.loop !12
}

; Function Attrs: noinline uwtable
define linkonce_odr void @_ZNSt6vectorISt3setIiSt4lessIiESaIiEESaIS4_EE21_M_default_initializeEm(%"class.std::vector"* %0, i64 %1) local_unnamed_addr #0 comdat align 2 {
  %3 = alloca i1, align 1
  %4 = alloca i1, align 1
  %5 = load i32, i32* @x.31, align 4
  %6 = load i32, i32* @y.32, align 4
  %7 = add i32 %5, -1
  %8 = mul i32 %7, %5
  %9 = and i32 %8, 1
  %10 = icmp eq i32 %9, 0
  store i1 %10, i1* %4, align 1
  %11 = icmp slt i32 %6, 10
  store i1 %11, i1* %3, align 1
  %.cast = getelementptr %"class.std::vector", %"class.std::vector"* %0, i64 0, i32 0
  %12 = getelementptr inbounds %"class.std::vector", %"class.std::vector"* %0, i64 0, i32 0, i32 0, i32 0
  %13 = getelementptr inbounds %"class.std::vector", %"class.std::vector"* %0, i64 0, i32 0, i32 0, i32 1
  br label %.outer

.outer:                                           ; preds = %.outer.backedge, %2
  %.0.ph = phi i32 [ -1292608672, %2 ], [ %.0.ph.be, %.outer.backedge ]
  br label %14

14:                                               ; preds = %.outer, %14
  switch i32 %.0.ph, label %14 [
    i32 -1292608672, label %15
    i32 1691022824, label %18
    i32 2083560622, label %31
    i32 -702861385, label %32
  ]

15:                                               ; preds = %14
  %.0..0..0. = load volatile i1, i1* %4, align 1
  %.0..0..0.1 = load volatile i1, i1* %3, align 1
  %16 = or i1 %.0..0..0., %.0..0..0.1
  %17 = select i1 %16, i32 1691022824, i32 -702861385
  br label %.outer.backedge

18:                                               ; preds = %14
  %19 = load %"class.std::set"*, %"class.std::set"** %12, align 8
  %20 = tail call dereferenceable(1) %"class.std::allocator.0"* @_ZNSt12_Vector_baseISt3setIiSt4lessIiESaIiEESaIS4_EE19_M_get_Tp_allocatorEv(%"struct.std::_Vector_base"* %.cast) #13
  %21 = tail call %"class.std::set"* @_ZSt27__uninitialized_default_n_aIPSt3setIiSt4lessIiESaIiEEmS4_ET_S6_T0_RSaIT1_E(%"class.std::set"* %19, i64 %1, %"class.std::allocator.0"* nonnull dereferenceable(1) %20)
  store %"class.std::set"* %21, %"class.std::set"** %13, align 8
  %22 = load i32, i32* @x.31, align 4
  %23 = load i32, i32* @y.32, align 4
  %24 = add i32 %22, -1
  %25 = mul i32 %24, %22
  %26 = and i32 %25, 1
  %27 = icmp eq i32 %26, 0
  %28 = icmp slt i32 %23, 10
  %29 = or i1 %28, %27
  %30 = select i1 %29, i32 2083560622, i32 -702861385
  br label %.outer.backedge

31:                                               ; preds = %14
  ret void

32:                                               ; preds = %14
  %33 = load %"class.std::set"*, %"class.std::set"** %12, align 8
  %34 = tail call dereferenceable(1) %"class.std::allocator.0"* @_ZNSt12_Vector_baseISt3setIiSt4lessIiESaIiEESaIS4_EE19_M_get_Tp_allocatorEv(%"struct.std::_Vector_base"* %.cast) #13
  %35 = tail call %"class.std::set"* @_ZSt27__uninitialized_default_n_aIPSt3setIiSt4lessIiESaIiEEmS4_ET_S6_T0_RSaIT1_E(%"class.std::set"* %33, i64 %1, %"class.std::allocator.0"* nonnull dereferenceable(1) %34)
  store %"class.std::set"* %35, %"class.std::set"** %13, align 8
  br label %.outer.backedge

.outer.backedge:                                  ; preds = %32, %18, %15
  %.0.ph.be = phi i32 [ %17, %15 ], [ %30, %18 ], [ 1691022824, %32 ]
  br label %.outer
}

; Function Attrs: noinline nounwind uwtable
define linkonce_odr void @_ZNSt12_Vector_baseISt3setIiSt4lessIiESaIiEESaIS4_EED2Ev(%"struct.std::_Vector_base"* %0) unnamed_addr #5 comdat align 2 personality i8* bitcast (i32 (...)* @__gxx_personality_v0 to i8*) {
  %2 = getelementptr inbounds %"struct.std::_Vector_base", %"struct.std::_Vector_base"* %0, i64 0, i32 0
  %3 = getelementptr inbounds %"struct.std::_Vector_base", %"struct.std::_Vector_base"* %0, i64 0, i32 0, i32 0
  %4 = load %"class.std::set"*, %"class.std::set"** %3, align 8
  %5 = getelementptr inbounds %"struct.std::_Vector_base", %"struct.std::_Vector_base"* %0, i64 0, i32 0, i32 2
  %6 = load %"class.std::set"*, %"class.std::set"** %5, align 8
  %7 = ptrtoint %"class.std::set"* %6 to i64
  %8 = ptrtoint %"class.std::set"* %4 to i64
  %9 = sub i64 %7, %8
  %10 = sdiv exact i64 %9, 48
  invoke void @_ZNSt12_Vector_baseISt3setIiSt4lessIiESaIiEESaIS4_EE13_M_deallocateEPS4_m(%"struct.std::_Vector_base"* nonnull %0, %"class.std::set"* %4, i64 %10)
          to label %11 unwind label %12

11:                                               ; preds = %1
  tail call void @_ZNSt12_Vector_baseISt3setIiSt4lessIiESaIiEESaIS4_EE12_Vector_implD2Ev(%"struct.std::_Vector_base<std::set<int, std::less<int>, std::allocator<int> >, std::allocator<std::set<int, std::less<int>, std::allocator<int> > > >::_Vector_impl"* nonnull %2) #13
  ret void

12:                                               ; preds = %1
  %13 = landingpad { i8*, i32 }
          catch i8* null
  %14 = extractvalue { i8*, i32 } %13, 0
  tail call void @_ZNSt12_Vector_baseISt3setIiSt4lessIiESaIiEESaIS4_EE12_Vector_implD2Ev(%"struct.std::_Vector_base<std::set<int, std::less<int>, std::allocator<int> >, std::allocator<std::set<int, std::less<int>, std::allocator<int> > > >::_Vector_impl"* nonnull %2) #13
  tail call void @__clang_call_terminate(i8* %14) #14
  unreachable
}

; Function Attrs: noinline nounwind uwtable
define linkonce_odr void @_ZNSt12_Vector_baseISt3setIiSt4lessIiESaIiEESaIS4_EE12_Vector_implC2ERKS5_(%"struct.std::_Vector_base<std::set<int, std::less<int>, std::allocator<int> >, std::allocator<std::set<int, std::less<int>, std::allocator<int> > > >::_Vector_impl"* %0, %"class.std::allocator.0"* dereferenceable(1) %1) unnamed_addr #5 comdat align 2 {
  %3 = bitcast %"struct.std::_Vector_base<std::set<int, std::less<int>, std::allocator<int> >, std::allocator<std::set<int, std::less<int>, std::allocator<int> > > >::_Vector_impl"* %0 to %"class.std::allocator.0"*
  tail call void @_ZNSaISt3setIiSt4lessIiESaIiEEEC2ERKS4_(%"class.std::allocator.0"* %3, %"class.std::allocator.0"* nonnull dereferenceable(1) %1) #13
  %4 = bitcast %"struct.std::_Vector_base<std::set<int, std::less<int>, std::allocator<int> >, std::allocator<std::set<int, std::less<int>, std::allocator<int> > > >::_Vector_impl"* %0 to i8*
  call void @llvm.memset.p0i8.i64(i8* noundef nonnull align 8 dereferenceable(24) %4, i8 0, i64 24, i1 false)
  ret void
}

; Function Attrs: noinline uwtable
define linkonce_odr void @_ZNSt12_Vector_baseISt3setIiSt4lessIiESaIiEESaIS4_EE17_M_create_storageEm(%"struct.std::_Vector_base"* %0, i64 %1) local_unnamed_addr #0 comdat align 2 {
  %3 = alloca i1, align 1
  %4 = alloca i1, align 1
  %5 = load i32, i32* @x.37, align 4
  %6 = load i32, i32* @y.38, align 4
  %7 = add i32 %5, -1
  %8 = mul i32 %7, %5
  %9 = and i32 %8, 1
  %10 = icmp eq i32 %9, 0
  store i1 %10, i1* %4, align 1
  %11 = icmp slt i32 %6, 10
  store i1 %11, i1* %3, align 1
  %12 = getelementptr inbounds %"struct.std::_Vector_base", %"struct.std::_Vector_base"* %0, i64 0, i32 0, i32 0
  %13 = getelementptr inbounds %"struct.std::_Vector_base", %"struct.std::_Vector_base"* %0, i64 0, i32 0, i32 1
  %14 = getelementptr inbounds %"struct.std::_Vector_base", %"struct.std::_Vector_base"* %0, i64 0, i32 0, i32 2
  br label %.outer

.outer:                                           ; preds = %.outer.backedge, %2
  %.0.ph = phi i32 [ 1701732445, %2 ], [ %.0.ph.be, %.outer.backedge ]
  br label %15

15:                                               ; preds = %.outer, %15
  switch i32 %.0.ph, label %15 [
    i32 1701732445, label %16
    i32 2120323884, label %19
    i32 71950577, label %31
    i32 1672927895, label %32
  ]

16:                                               ; preds = %15
  %.0..0..0. = load volatile i1, i1* %4, align 1
  %.0..0..0.1 = load volatile i1, i1* %3, align 1
  %17 = or i1 %.0..0..0., %.0..0..0.1
  %18 = select i1 %17, i32 2120323884, i32 1672927895
  br label %.outer.backedge

19:                                               ; preds = %15
  %20 = tail call %"class.std::set"* @_ZNSt12_Vector_baseISt3setIiSt4lessIiESaIiEESaIS4_EE11_M_allocateEm(%"struct.std::_Vector_base"* %0, i64 %1)
  store %"class.std::set"* %20, %"class.std::set"** %12, align 8
  store %"class.std::set"* %20, %"class.std::set"** %13, align 8
  %21 = getelementptr inbounds %"class.std::set", %"class.std::set"* %20, i64 %1
  store %"class.std::set"* %21, %"class.std::set"** %14, align 8
  %22 = load i32, i32* @x.37, align 4
  %23 = load i32, i32* @y.38, align 4
  %24 = add i32 %22, -1
  %25 = mul i32 %24, %22
  %26 = and i32 %25, 1
  %27 = icmp eq i32 %26, 0
  %28 = icmp slt i32 %23, 10
  %29 = or i1 %28, %27
  %30 = select i1 %29, i32 71950577, i32 1672927895
  br label %.outer.backedge

31:                                               ; preds = %15
  ret void

32:                                               ; preds = %15
  %33 = tail call %"class.std::set"* @_ZNSt12_Vector_baseISt3setIiSt4lessIiESaIiEESaIS4_EE11_M_allocateEm(%"struct.std::_Vector_base"* %0, i64 %1)
  store %"class.std::set"* %33, %"class.std::set"** %12, align 8
  store %"class.std::set"* %33, %"class.std::set"** %13, align 8
  %34 = getelementptr inbounds %"class.std::set", %"class.std::set"* %33, i64 %1
  store %"class.std::set"* %34, %"class.std::set"** %14, align 8
  br label %.outer.backedge

.outer.backedge:                                  ; preds = %32, %19, %16
  %.0.ph.be = phi i32 [ %18, %16 ], [ %30, %19 ], [ 2120323884, %32 ]
  br label %.outer
}

; Function Attrs: noinline nounwind uwtable
define linkonce_odr void @_ZNSt12_Vector_baseISt3setIiSt4lessIiESaIiEESaIS4_EE12_Vector_implD2Ev(%"struct.std::_Vector_base<std::set<int, std::less<int>, std::allocator<int> >, std::allocator<std::set<int, std::less<int>, std::allocator<int> > > >::_Vector_impl"* %0) unnamed_addr #5 comdat align 2 {
  %2 = bitcast %"struct.std::_Vector_base<std::set<int, std::less<int>, std::allocator<int> >, std::allocator<std::set<int, std::less<int>, std::allocator<int> > > >::_Vector_impl"* %0 to %"class.std::allocator.0"*
  tail call void @_ZNSaISt3setIiSt4lessIiESaIiEEED2Ev(%"class.std::allocator.0"* %2) #13
  ret void
}

; Function Attrs: noinline nounwind uwtable
define linkonce_odr void @_ZNSaISt3setIiSt4lessIiESaIiEEEC2ERKS4_(%"class.std::allocator.0"* %0, %"class.std::allocator.0"* dereferenceable(1) %1) unnamed_addr #5 comdat align 2 {
  %3 = bitcast %"class.std::allocator.0"* %0 to %"class.__gnu_cxx::new_allocator.1"*
  %4 = bitcast %"class.std::allocator.0"* %1 to %"class.__gnu_cxx::new_allocator.1"*
  tail call void @_ZN9__gnu_cxx13new_allocatorISt3setIiSt4lessIiESaIiEEEC2ERKS6_(%"class.__gnu_cxx::new_allocator.1"* %3, %"class.__gnu_cxx::new_allocator.1"* nonnull dereferenceable(1) %4) #13
  ret void
}

; Function Attrs: noinline nounwind uwtable
define linkonce_odr void @_ZN9__gnu_cxx13new_allocatorISt3setIiSt4lessIiESaIiEEEC2ERKS6_(%"class.__gnu_cxx::new_allocator.1"* %0, %"class.__gnu_cxx::new_allocator.1"* dereferenceable(1) %1) unnamed_addr #5 comdat align 2 {
  ret void
}

; Function Attrs: noinline uwtable
define linkonce_odr %"class.std::set"* @_ZNSt12_Vector_baseISt3setIiSt4lessIiESaIiEESaIS4_EE11_M_allocateEm(%"struct.std::_Vector_base"* %0, i64 %1) local_unnamed_addr #0 comdat align 2 {
  %3 = alloca i64, align 8
  %4 = alloca %"struct.std::_Vector_base"*, align 8
  store %"struct.std::_Vector_base"* %0, %"struct.std::_Vector_base"** %4, align 8
  store i64 %1, i64* %3, align 8
  br label %.outer.outer

.outer.outer:                                     ; preds = %.outer.outer.backedge, %2
  %.06.ph.ph = phi i32 [ 1746652697, %2 ], [ 540025499, %.outer.outer.backedge ]
  %.0.ph.ph = phi %"class.std::set"* [ undef, %2 ], [ %.0.ph.ph.be, %.outer.outer.backedge ]
  br label %.outer

.outer:                                           ; preds = %.outer.outer, %6
  %.06.ph = phi i32 [ %7, %6 ], [ %.06.ph.ph, %.outer.outer ]
  br label %5

5:                                                ; preds = %.outer, %5
  switch i32 %.06.ph, label %5 [
    i32 1746652697, label %6
    i32 -1811469338, label %8
    i32 1697341888, label %.outer.outer.backedge
    i32 540025499, label %11
  ]

6:                                                ; preds = %5
  %.0..0..0.5 = load volatile i64, i64* %3, align 8
  %.not = icmp eq i64 %.0..0..0.5, 0
  %7 = select i1 %.not, i32 1697341888, i32 -1811469338
  br label %.outer

8:                                                ; preds = %5
  %.0..0..0.4 = load volatile %"struct.std::_Vector_base"*, %"struct.std::_Vector_base"** %4, align 8
  %9 = bitcast %"struct.std::_Vector_base"* %.0..0..0.4 to %"class.std::allocator.0"*
  %10 = tail call %"class.std::set"* @_ZNSt16allocator_traitsISaISt3setIiSt4lessIiESaIiEEEE8allocateERS5_m(%"class.std::allocator.0"* dereferenceable(1) %9, i64 %1)
  br label %.outer.outer.backedge

.outer.outer.backedge:                            ; preds = %5, %8
  %.0.ph.ph.be = phi %"class.std::set"* [ %10, %8 ], [ null, %5 ]
  br label %.outer.outer

11:                                               ; preds = %5
  ret %"class.std::set"* %.0.ph.ph
}

; Function Attrs: noinline uwtable
define linkonce_odr %"class.std::set"* @_ZNSt16allocator_traitsISaISt3setIiSt4lessIiESaIiEEEE8allocateERS5_m(%"class.std::allocator.0"* dereferenceable(1) %0, i64 %1) local_unnamed_addr #0 comdat align 2 {
  %3 = alloca %"class.std::set"*, align 8
  %4 = alloca i1, align 1
  %5 = alloca i1, align 1
  %6 = load i32, i32* @x.47, align 4
  %7 = load i32, i32* @y.48, align 4
  %8 = add i32 %6, -1
  %9 = mul i32 %8, %6
  %10 = and i32 %9, 1
  %11 = icmp eq i32 %10, 0
  store i1 %11, i1* %5, align 1
  %12 = icmp slt i32 %7, 10
  store i1 %12, i1* %4, align 1
  %.cast = bitcast %"class.std::allocator.0"* %0 to %"class.__gnu_cxx::new_allocator.1"*
  br label %.outer

.outer:                                           ; preds = %17, %2
  %.ph = phi %"class.std::set"* [ %18, %17 ], [ undef, %2 ]
  %.0.ph = phi i32 [ %27, %17 ], [ 1068512758, %2 ]
  br label %.outer4

.outer4:                                          ; preds = %.outer4.backedge, %.outer
  %.0.ph5 = phi i32 [ %.0.ph, %.outer ], [ %.0.ph5.be, %.outer4.backedge ]
  br label %13

13:                                               ; preds = %.outer4, %13
  switch i32 %.0.ph5, label %13 [
    i32 1068512758, label %14
    i32 -187822657, label %17
    i32 -607485279, label %28
    i32 1966861654, label %29
  ]

14:                                               ; preds = %13
  %.0..0..0. = load volatile i1, i1* %5, align 1
  %.0..0..0.1 = load volatile i1, i1* %4, align 1
  %15 = or i1 %.0..0..0., %.0..0..0.1
  %16 = select i1 %15, i32 -187822657, i32 1966861654
  br label %.outer4.backedge

17:                                               ; preds = %13
  %18 = tail call %"class.std::set"* @_ZN9__gnu_cxx13new_allocatorISt3setIiSt4lessIiESaIiEEE8allocateEmPKv(%"class.__gnu_cxx::new_allocator.1"* nonnull %.cast, i64 %1, i8* null)
  %19 = load i32, i32* @x.47, align 4
  %20 = load i32, i32* @y.48, align 4
  %21 = add i32 %19, -1
  %22 = mul i32 %21, %19
  %23 = and i32 %22, 1
  %24 = icmp eq i32 %23, 0
  %25 = icmp slt i32 %20, 10
  %26 = or i1 %25, %24
  %27 = select i1 %26, i32 -607485279, i32 1966861654
  br label %.outer

28:                                               ; preds = %13
  store %"class.std::set"* %.ph, %"class.std::set"** %3, align 8
  %.0..0..0.2 = load volatile %"class.std::set"*, %"class.std::set"** %3, align 8
  ret %"class.std::set"* %.0..0..0.2

29:                                               ; preds = %13
  %30 = tail call %"class.std::set"* @_ZN9__gnu_cxx13new_allocatorISt3setIiSt4lessIiESaIiEEE8allocateEmPKv(%"class.__gnu_cxx::new_allocator.1"* nonnull %.cast, i64 %1, i8* null)
  br label %.outer4.backedge

.outer4.backedge:                                 ; preds = %29, %14
  %.0.ph5.be = phi i32 [ %16, %14 ], [ -187822657, %29 ]
  br label %.outer4
}

; Function Attrs: noinline uwtable
define linkonce_odr %"class.std::set"* @_ZN9__gnu_cxx13new_allocatorISt3setIiSt4lessIiESaIiEEE8allocateEmPKv(%"class.__gnu_cxx::new_allocator.1"* %0, i64 %1, i8* %2) local_unnamed_addr #0 comdat align 2 {
  %4 = alloca i64, align 8
  %5 = alloca i64, align 8
  store i64 %1, i64* %5, align 8
  %6 = tail call i64 @_ZNK9__gnu_cxx13new_allocatorISt3setIiSt4lessIiESaIiEEE8max_sizeEv(%"class.__gnu_cxx::new_allocator.1"* %0) #13
  store i64 %6, i64* %4, align 8
  br label %.outer

.outer:                                           ; preds = %8, %3
  %.0.ph = phi i32 [ %10, %8 ], [ -927415441, %3 ]
  br label %7

7:                                                ; preds = %.outer, %7
  switch i32 %.0.ph, label %7 [
    i32 -927415441, label %8
    i32 2042514404, label %11
    i32 -830216877, label %12
  ]

8:                                                ; preds = %7
  %.0..0..0.3 = load volatile i64, i64* %5, align 8
  %.0..0..0.4 = load volatile i64, i64* %4, align 8
  %9 = icmp ugt i64 %.0..0..0.3, %.0..0..0.4
  %10 = select i1 %9, i32 2042514404, i32 -830216877
  br label %.outer

11:                                               ; preds = %7
  tail call void @_ZSt17__throw_bad_allocv() #15
  unreachable

12:                                               ; preds = %7
  %13 = mul i64 %1, 48
  %14 = tail call i8* @_Znwm(i64 %13)
  %15 = bitcast i8* %14 to %"class.std::set"*
  ret %"class.std::set"* %15
}

; Function Attrs: noinline nounwind uwtable
define linkonce_odr i64 @_ZNK9__gnu_cxx13new_allocatorISt3setIiSt4lessIiESaIiEEE8max_sizeEv(%"class.__gnu_cxx::new_allocator.1"* %0) local_unnamed_addr #5 comdat align 2 {
  ret i64 384307168202282325
}

; Function Attrs: noreturn
declare void @_ZSt17__throw_bad_allocv() local_unnamed_addr #6

; Function Attrs: nobuiltin
declare noalias i8* @_Znwm(i64) local_unnamed_addr #7

; Function Attrs: noinline uwtable
define linkonce_odr %"class.std::set"* @_ZSt27__uninitialized_default_n_aIPSt3setIiSt4lessIiESaIiEEmS4_ET_S6_T0_RSaIT1_E(%"class.std::set"* %0, i64 %1, %"class.std::allocator.0"* dereferenceable(1) %2) local_unnamed_addr #0 comdat {
  %4 = alloca %"class.std::set"*, align 8
  %5 = alloca i1, align 1
  %6 = alloca i1, align 1
  %7 = load i32, i32* @x.53, align 4
  %8 = load i32, i32* @y.54, align 4
  %9 = add i32 %7, -1
  %10 = mul i32 %9, %7
  %11 = and i32 %10, 1
  %12 = icmp eq i32 %11, 0
  store i1 %12, i1* %6, align 1
  %13 = icmp slt i32 %8, 10
  store i1 %13, i1* %5, align 1
  br label %.outer

.outer:                                           ; preds = %18, %3
  %.ph = phi %"class.std::set"* [ %19, %18 ], [ undef, %3 ]
  %.0.ph = phi i32 [ %28, %18 ], [ 1952156059, %3 ]
  br label %.outer3

.outer3:                                          ; preds = %.outer3.backedge, %.outer
  %.0.ph4 = phi i32 [ %.0.ph, %.outer ], [ %.0.ph4.be, %.outer3.backedge ]
  br label %14

14:                                               ; preds = %.outer3, %14
  switch i32 %.0.ph4, label %14 [
    i32 1952156059, label %15
    i32 -722026235, label %18
    i32 1569586415, label %29
    i32 -307775732, label %30
  ]

15:                                               ; preds = %14
  %.0..0..0. = load volatile i1, i1* %6, align 1
  %.0..0..0.1 = load volatile i1, i1* %5, align 1
  %16 = or i1 %.0..0..0., %.0..0..0.1
  %17 = select i1 %16, i32 -722026235, i32 -307775732
  br label %.outer3.backedge

18:                                               ; preds = %14
  %19 = tail call %"class.std::set"* @_ZSt25__uninitialized_default_nIPSt3setIiSt4lessIiESaIiEEmET_S6_T0_(%"class.std::set"* %0, i64 %1)
  %20 = load i32, i32* @x.53, align 4
  %21 = load i32, i32* @y.54, align 4
  %22 = add i32 %20, -1
  %23 = mul i32 %22, %20
  %24 = and i32 %23, 1
  %25 = icmp eq i32 %24, 0
  %26 = icmp slt i32 %21, 10
  %27 = or i1 %26, %25
  %28 = select i1 %27, i32 1569586415, i32 -307775732
  br label %.outer

29:                                               ; preds = %14
  store %"class.std::set"* %.ph, %"class.std::set"** %4, align 8
  %.0..0..0.2 = load volatile %"class.std::set"*, %"class.std::set"** %4, align 8
  ret %"class.std::set"* %.0..0..0.2

30:                                               ; preds = %14
  %31 = tail call %"class.std::set"* @_ZSt25__uninitialized_default_nIPSt3setIiSt4lessIiESaIiEEmET_S6_T0_(%"class.std::set"* %0, i64 %1)
  br label %.outer3.backedge

.outer3.backedge:                                 ; preds = %30, %15
  %.0.ph4.be = phi i32 [ %17, %15 ], [ -722026235, %30 ]
  br label %.outer3
}

; Function Attrs: noinline nounwind uwtable
define linkonce_odr dereferenceable(1) %"class.std::allocator.0"* @_ZNSt12_Vector_baseISt3setIiSt4lessIiESaIiEESaIS4_EE19_M_get_Tp_allocatorEv(%"struct.std::_Vector_base"* %0) local_unnamed_addr #5 comdat align 2 {
  %2 = alloca %"class.std::allocator.0"*, align 8
  %3 = alloca i1, align 1
  %4 = alloca i1, align 1
  %5 = load i32, i32* @x.55, align 4
  %6 = load i32, i32* @y.56, align 4
  %7 = add i32 %5, -1
  %8 = mul i32 %7, %5
  %9 = and i32 %8, 1
  %10 = icmp eq i32 %9, 0
  store i1 %10, i1* %4, align 1
  %11 = icmp slt i32 %6, 10
  store i1 %11, i1* %3, align 1
  %12 = or i1 %11, %10
  %13 = select i1 %12, i32 -1275933249, i32 407521841
  br label %.outer

.outer:                                           ; preds = %.outer.backedge, %1
  %.0.ph = phi i32 [ -1473037305, %1 ], [ %.0.ph.be, %.outer.backedge ]
  br label %14

14:                                               ; preds = %.outer, %14
  switch i32 %.0.ph, label %14 [
    i32 -1473037305, label %15
    i32 -1483751688, label %.outer.backedge
    i32 -1275933249, label %18
    i32 407521841, label %20
  ]

15:                                               ; preds = %14
  %.0..0..0. = load volatile i1, i1* %4, align 1
  %.0..0..0.1 = load volatile i1, i1* %3, align 1
  %16 = or i1 %.0..0..0., %.0..0..0.1
  %17 = select i1 %16, i32 -1483751688, i32 407521841
  br label %.outer.backedge

18:                                               ; preds = %14
  %19 = bitcast %"class.std::allocator.0"** %2 to %"struct.std::_Vector_base"**
  store %"struct.std::_Vector_base"* %0, %"struct.std::_Vector_base"** %19, align 8
  %.0..0..0.2 = load volatile %"class.std::allocator.0"*, %"class.std::allocator.0"** %2, align 8
  ret %"class.std::allocator.0"* %.0..0..0.2

20:                                               ; preds = %14
  br label %.outer.backedge

.outer.backedge:                                  ; preds = %14, %20, %15
  %.0.ph.be = phi i32 [ %17, %15 ], [ -1483751688, %20 ], [ %13, %14 ]
  br label %.outer
}

; Function Attrs: noinline uwtable
define linkonce_odr %"class.std::set"* @_ZSt25__uninitialized_default_nIPSt3setIiSt4lessIiESaIiEEmET_S6_T0_(%"class.std::set"* %0, i64 %1) local_unnamed_addr #0 comdat {
  %3 = tail call %"class.std::set"* @_ZNSt27__uninitialized_default_n_1ILb0EE18__uninit_default_nIPSt3setIiSt4lessIiESaIiEEmEET_S8_T0_(%"class.std::set"* %0, i64 %1)
  ret %"class.std::set"* %3
}

; Function Attrs: noinline uwtable
define linkonce_odr %"class.std::set"* @_ZNSt27__uninitialized_default_n_1ILb0EE18__uninit_default_nIPSt3setIiSt4lessIiESaIiEEmEET_S8_T0_(%"class.std::set"* %0, i64 %1) local_unnamed_addr #0 comdat align 2 personality i8* bitcast (i32 (...)* @__gxx_personality_v0 to i8*) {
  %.not10 = icmp eq i64 %1, 0
  br i1 %.not10, label %._crit_edge, label %.lr.ph

.lr.ph:                                           ; preds = %2, %.critedge
  %.012 = phi %"class.std::set"* [ %13, %.critedge ], [ %0, %2 ]
  %.0711 = phi i64 [ %12, %.critedge ], [ %1, %2 ]
  %3 = tail call %"class.std::set"* @_ZSt11__addressofISt3setIiSt4lessIiESaIiEEEPT_RS5_(%"class.std::set"* dereferenceable(48) %.012) #13
  tail call void @_ZSt10_ConstructISt3setIiSt4lessIiESaIiEEJEEvPT_DpOT0_(%"class.std::set"* %3)
  %4 = load i32, i32* @x.59, align 4
  %5 = load i32, i32* @y.60, align 4
  %6 = add i32 %4, -1
  %7 = mul i32 %6, %4
  %8 = and i32 %7, 1
  %9 = icmp eq i32 %8, 0
  %10 = icmp slt i32 %5, 10
  %11 = or i1 %10, %9
  br i1 %11, label %.critedge, label %.preheader

.critedge:                                        ; preds = %.lr.ph
  %12 = add i64 %.0711, -1
  %13 = getelementptr inbounds %"class.std::set", %"class.std::set"* %.012, i64 1
  %.not = icmp eq i64 %12, 0
  br i1 %.not, label %._crit_edge, label %.lr.ph

._crit_edge:                                      ; preds = %.critedge, %2
  %.0.lcssa = phi %"class.std::set"* [ %0, %2 ], [ %13, %.critedge ]
  ret %"class.std::set"* %.0.lcssa

.preheader:                                       ; preds = %.lr.ph, %.preheader
  br label %.preheader, !llvm.loop !13
}

; Function Attrs: noinline nounwind uwtable
define linkonce_odr void @_ZSt10_ConstructISt3setIiSt4lessIiESaIiEEJEEvPT_DpOT0_(%"class.std::set"* %0) local_unnamed_addr #5 comdat {
  %2 = alloca i1, align 1
  %3 = alloca i1, align 1
  %4 = load i32, i32* @x.61, align 4
  %5 = load i32, i32* @y.62, align 4
  %6 = add i32 %4, -1
  %7 = mul i32 %6, %4
  %8 = and i32 %7, 1
  %9 = icmp eq i32 %8, 0
  store i1 %9, i1* %3, align 1
  %10 = icmp slt i32 %5, 10
  store i1 %10, i1* %2, align 1
  br label %.outer

.outer:                                           ; preds = %.outer.backedge, %1
  %.0.ph = phi i32 [ -181688626, %1 ], [ %.0.ph.be, %.outer.backedge ]
  br label %11

11:                                               ; preds = %.outer, %11
  switch i32 %.0.ph, label %11 [
    i32 -181688626, label %12
    i32 1834699395, label %15
    i32 -1891693536, label %25
    i32 -1756964416, label %26
  ]

12:                                               ; preds = %11
  %.0..0..0. = load volatile i1, i1* %3, align 1
  %.0..0..0.1 = load volatile i1, i1* %2, align 1
  %13 = or i1 %.0..0..0., %.0..0..0.1
  %14 = select i1 %13, i32 1834699395, i32 -1756964416
  br label %.outer.backedge

15:                                               ; preds = %11
  tail call void @_ZNSt3setIiSt4lessIiESaIiEEC2Ev(%"class.std::set"* %0) #13
  %16 = load i32, i32* @x.61, align 4
  %17 = load i32, i32* @y.62, align 4
  %18 = add i32 %16, -1
  %19 = mul i32 %18, %16
  %20 = and i32 %19, 1
  %21 = icmp eq i32 %20, 0
  %22 = icmp slt i32 %17, 10
  %23 = or i1 %22, %21
  %24 = select i1 %23, i32 -1891693536, i32 -1756964416
  br label %.outer.backedge

25:                                               ; preds = %11
  ret void

26:                                               ; preds = %11
  tail call void @_ZNSt3setIiSt4lessIiESaIiEEC2Ev(%"class.std::set"* %0) #13
  br label %.outer.backedge

.outer.backedge:                                  ; preds = %26, %15, %12
  %.0.ph.be = phi i32 [ %14, %12 ], [ %24, %15 ], [ 1834699395, %26 ]
  br label %.outer
}

; Function Attrs: noinline nounwind uwtable
define linkonce_odr %"class.std::set"* @_ZSt11__addressofISt3setIiSt4lessIiESaIiEEEPT_RS5_(%"class.std::set"* dereferenceable(48) %0) local_unnamed_addr #5 comdat {
  ret %"class.std::set"* %0
}

declare i8* @__cxa_begin_catch(i8*) local_unnamed_addr

; Function Attrs: noinline uwtable
define linkonce_odr void @_ZSt8_DestroyIPSt3setIiSt4lessIiESaIiEEEvT_S6_(%"class.std::set"* %0, %"class.std::set"* %1) local_unnamed_addr #0 comdat {
  tail call void @_ZNSt12_Destroy_auxILb0EE9__destroyIPSt3setIiSt4lessIiESaIiEEEEvT_S8_(%"class.std::set"* %0, %"class.std::set"* %1)
  ret void
}

declare void @__cxa_rethrow() local_unnamed_addr

declare void @__cxa_end_catch() local_unnamed_addr

; Function Attrs: noinline noreturn nounwind
define linkonce_odr hidden void @__clang_call_terminate(i8* %0) local_unnamed_addr #8 comdat {
  %2 = tail call i8* @__cxa_begin_catch(i8* %0) #13
  tail call void @_ZSt9terminatev() #14
  unreachable
}

declare void @_ZSt9terminatev() local_unnamed_addr

; Function Attrs: noinline nounwind uwtable
define linkonce_odr void @_ZNSt3setIiSt4lessIiESaIiEEC2Ev(%"class.std::set"* %0) unnamed_addr #5 comdat align 2 personality i8* bitcast (i32 (...)* @__gxx_personality_v0 to i8*) {
  %2 = getelementptr inbounds %"class.std::set", %"class.std::set"* %0, i64 0, i32 0
  invoke void @_ZNSt8_Rb_treeIiiSt9_IdentityIiESt4lessIiESaIiEEC2Ev(%"class.std::_Rb_tree"* %2)
          to label %3 unwind label %4

3:                                                ; preds = %1
  ret void

4:                                                ; preds = %1
  %5 = landingpad { i8*, i32 }
          catch i8* null
  %6 = extractvalue { i8*, i32 } %5, 0
  tail call void @__clang_call_terminate(i8* %6) #14
  unreachable
}

; Function Attrs: noinline uwtable
define linkonce_odr void @_ZNSt8_Rb_treeIiiSt9_IdentityIiESt4lessIiESaIiEEC2Ev(%"class.std::_Rb_tree"* %0) unnamed_addr #0 comdat align 2 {
  %2 = getelementptr inbounds %"class.std::_Rb_tree", %"class.std::_Rb_tree"* %0, i64 0, i32 0
  tail call void @_ZNSt8_Rb_treeIiiSt9_IdentityIiESt4lessIiESaIiEE13_Rb_tree_implIS3_Lb1EEC2Ev(%"struct.std::_Rb_tree<int, int, std::_Identity<int>, std::less<int>, std::allocator<int> >::_Rb_tree_impl"* %2)
  ret void
}

; Function Attrs: noinline uwtable
define linkonce_odr void @_ZNSt8_Rb_treeIiiSt9_IdentityIiESt4lessIiESaIiEE13_Rb_tree_implIS3_Lb1EEC2Ev(%"struct.std::_Rb_tree<int, int, std::_Identity<int>, std::less<int>, std::allocator<int> >::_Rb_tree_impl"* %0) unnamed_addr #0 comdat align 2 personality i8* bitcast (i32 (...)* @__gxx_personality_v0 to i8*) {
  %2 = bitcast %"struct.std::_Rb_tree<int, int, std::_Identity<int>, std::less<int>, std::allocator<int> >::_Rb_tree_impl"* %0 to %"class.std::allocator.3"*
  tail call void @_ZNSaISt13_Rb_tree_nodeIiEEC2Ev(%"class.std::allocator.3"* %2) #13
  %3 = getelementptr inbounds %"struct.std::_Rb_tree<int, int, std::_Identity<int>, std::less<int>, std::allocator<int> >::_Rb_tree_impl", %"struct.std::_Rb_tree<int, int, std::_Identity<int>, std::less<int>, std::allocator<int> >::_Rb_tree_impl"* %0, i64 0, i32 1
  %4 = bitcast %"struct.std::_Rb_tree_node_base"* %3 to i8*
  call void @llvm.memset.p0i8.i64(i8* noundef nonnull align 8 dereferenceable(40) %4, i8 0, i64 40, i1 false)
  tail call void @_ZNSt8_Rb_treeIiiSt9_IdentityIiESt4lessIiESaIiEE13_Rb_tree_implIS3_Lb1EE13_M_initializeEv(%"struct.std::_Rb_tree<int, int, std::_Identity<int>, std::less<int>, std::allocator<int> >::_Rb_tree_impl"* %0)
  ret void
}

; Function Attrs: noinline nounwind uwtable
define linkonce_odr void @_ZNSaISt13_Rb_tree_nodeIiEEC2Ev(%"class.std::allocator.3"* %0) unnamed_addr #5 comdat align 2 {
  %2 = bitcast %"class.std::allocator.3"* %0 to %"class.__gnu_cxx::new_allocator.4"*
  tail call void @_ZN9__gnu_cxx13new_allocatorISt13_Rb_tree_nodeIiEEC2Ev(%"class.__gnu_cxx::new_allocator.4"* %2) #13
  ret void
}

; Function Attrs: noinline nounwind uwtable
define linkonce_odr void @_ZNSt8_Rb_treeIiiSt9_IdentityIiESt4lessIiESaIiEE13_Rb_tree_implIS3_Lb1EE13_M_initializeEv(%"struct.std::_Rb_tree<int, int, std::_Identity<int>, std::less<int>, std::allocator<int> >::_Rb_tree_impl"* %0) local_unnamed_addr #5 comdat align 2 {
  %2 = getelementptr inbounds %"struct.std::_Rb_tree<int, int, std::_Identity<int>, std::less<int>, std::allocator<int> >::_Rb_tree_impl", %"struct.std::_Rb_tree<int, int, std::_Identity<int>, std::less<int>, std::allocator<int> >::_Rb_tree_impl"* %0, i64 0, i32 1
  %3 = getelementptr inbounds %"struct.std::_Rb_tree_node_base", %"struct.std::_Rb_tree_node_base"* %2, i64 0, i32 0
  store i32 0, i32* %3, align 8
  %4 = getelementptr inbounds %"struct.std::_Rb_tree<int, int, std::_Identity<int>, std::less<int>, std::allocator<int> >::_Rb_tree_impl", %"struct.std::_Rb_tree<int, int, std::_Identity<int>, std::less<int>, std::allocator<int> >::_Rb_tree_impl"* %0, i64 0, i32 1, i32 1
  store %"struct.std::_Rb_tree_node_base"* null, %"struct.std::_Rb_tree_node_base"** %4, align 8
  %5 = getelementptr inbounds %"struct.std::_Rb_tree<int, int, std::_Identity<int>, std::less<int>, std::allocator<int> >::_Rb_tree_impl", %"struct.std::_Rb_tree<int, int, std::_Identity<int>, std::less<int>, std::allocator<int> >::_Rb_tree_impl"* %0, i64 0, i32 1, i32 2
  store %"struct.std::_Rb_tree_node_base"* %2, %"struct.std::_Rb_tree_node_base"** %5, align 8
  %6 = getelementptr inbounds %"struct.std::_Rb_tree<int, int, std::_Identity<int>, std::less<int>, std::allocator<int> >::_Rb_tree_impl", %"struct.std::_Rb_tree<int, int, std::_Identity<int>, std::less<int>, std::allocator<int> >::_Rb_tree_impl"* %0, i64 0, i32 1, i32 3
  store %"struct.std::_Rb_tree_node_base"* %2, %"struct.std::_Rb_tree_node_base"** %6, align 8
  ret void
}

; Function Attrs: noinline nounwind uwtable
define linkonce_odr void @_ZNSaISt13_Rb_tree_nodeIiEED2Ev(%"class.std::allocator.3"* %0) unnamed_addr #5 comdat align 2 {
  %2 = bitcast %"class.std::allocator.3"* %0 to %"class.__gnu_cxx::new_allocator.4"*
  tail call void @_ZN9__gnu_cxx13new_allocatorISt13_Rb_tree_nodeIiEED2Ev(%"class.__gnu_cxx::new_allocator.4"* %2) #13
  ret void
}

; Function Attrs: noinline nounwind uwtable
define linkonce_odr void @_ZN9__gnu_cxx13new_allocatorISt13_Rb_tree_nodeIiEEC2Ev(%"class.__gnu_cxx::new_allocator.4"* %0) unnamed_addr #5 comdat align 2 {
  ret void
}

; Function Attrs: noinline nounwind uwtable
define linkonce_odr void @_ZN9__gnu_cxx13new_allocatorISt13_Rb_tree_nodeIiEED2Ev(%"class.__gnu_cxx::new_allocator.4"* %0) unnamed_addr #5 comdat align 2 {
  ret void
}

; Function Attrs: noinline uwtable
define linkonce_odr void @_ZNSt12_Destroy_auxILb0EE9__destroyIPSt3setIiSt4lessIiESaIiEEEEvT_S8_(%"class.std::set"* %0, %"class.std::set"* %1) local_unnamed_addr #0 comdat align 2 {
  %3 = alloca i1, align 1
  %4 = alloca %"class.std::set"**, align 8
  %5 = alloca %"class.std::set"**, align 8
  %6 = alloca i1, align 1
  %7 = alloca i1, align 1
  %8 = load i32, i32* @x.85, align 4
  %9 = load i32, i32* @y.86, align 4
  %10 = add i32 %8, -1
  %11 = mul i32 %10, %8
  %12 = and i32 %11, 1
  %13 = icmp eq i32 %12, 0
  store i1 %13, i1* %7, align 1
  %14 = icmp slt i32 %9, 10
  store i1 %14, i1* %6, align 1
  br label %15

15:                                               ; preds = %.backedge, %2
  %.0 = phi i32 [ -2109004249, %2 ], [ %.0.be, %.backedge ]
  switch i32 %.0, label %.backedge [
    i32 -2109004249, label %16
    i32 432581447, label %19
    i32 1098214944, label %31
    i32 1697941850, label %32
    i32 -2024964949, label %42
    i32 542183970, label %55
    i32 -1305248462, label %57
    i32 1072811181, label %60
    i32 -1737687587, label %63
    i32 -1859930225, label %64
    i32 -1221469632, label %65
  ]

.backedge:                                        ; preds = %15, %65, %64, %60, %57, %55, %42, %32, %31, %19, %16
  %.0.be = phi i32 [ %.0, %15 ], [ -2024964949, %65 ], [ 432581447, %64 ], [ 1697941850, %60 ], [ 1072811181, %57 ], [ %56, %55 ], [ %54, %42 ], [ %41, %32 ], [ 1697941850, %31 ], [ %30, %19 ], [ %18, %16 ]
  br label %15

16:                                               ; preds = %15
  %.0..0..0. = load volatile i1, i1* %7, align 1
  %.0..0..0.1 = load volatile i1, i1* %6, align 1
  %17 = or i1 %.0..0..0., %.0..0..0.1
  %18 = select i1 %17, i32 432581447, i32 -1859930225
  br label %.backedge

19:                                               ; preds = %15
  %20 = alloca %"class.std::set"*, align 8
  store %"class.std::set"** %20, %"class.std::set"*** %5, align 8
  %21 = alloca %"class.std::set"*, align 8
  store %"class.std::set"** %21, %"class.std::set"*** %4, align 8
  %.0..0..0.2 = load volatile %"class.std::set"**, %"class.std::set"*** %5, align 8
  store %"class.std::set"* %0, %"class.std::set"** %.0..0..0.2, align 8
  %.0..0..0.8 = load volatile %"class.std::set"**, %"class.std::set"*** %4, align 8
  store %"class.std::set"* %1, %"class.std::set"** %.0..0..0.8, align 8
  %22 = load i32, i32* @x.85, align 4
  %23 = load i32, i32* @y.86, align 4
  %24 = add i32 %22, -1
  %25 = mul i32 %24, %22
  %26 = and i32 %25, 1
  %27 = icmp eq i32 %26, 0
  %28 = icmp slt i32 %23, 10
  %29 = or i1 %28, %27
  %30 = select i1 %29, i32 1098214944, i32 -1859930225
  br label %.backedge

31:                                               ; preds = %15
  br label %.backedge

32:                                               ; preds = %15
  %33 = load i32, i32* @x.85, align 4
  %34 = load i32, i32* @y.86, align 4
  %35 = add i32 %33, -1
  %36 = mul i32 %35, %33
  %37 = and i32 %36, 1
  %38 = icmp eq i32 %37, 0
  %39 = icmp slt i32 %34, 10
  %40 = or i1 %39, %38
  %41 = select i1 %40, i32 -2024964949, i32 -1221469632
  br label %.backedge

42:                                               ; preds = %15
  %.0..0..0.3 = load volatile %"class.std::set"**, %"class.std::set"*** %5, align 8
  %43 = load %"class.std::set"*, %"class.std::set"** %.0..0..0.3, align 8
  %.0..0..0.9 = load volatile %"class.std::set"**, %"class.std::set"*** %4, align 8
  %44 = load %"class.std::set"*, %"class.std::set"** %.0..0..0.9, align 8
  %45 = icmp ne %"class.std::set"* %43, %44
  store i1 %45, i1* %3, align 1
  %46 = load i32, i32* @x.85, align 4
  %47 = load i32, i32* @y.86, align 4
  %48 = add i32 %46, -1
  %49 = mul i32 %48, %46
  %50 = and i32 %49, 1
  %51 = icmp eq i32 %50, 0
  %52 = icmp slt i32 %47, 10
  %53 = or i1 %52, %51
  %54 = select i1 %53, i32 542183970, i32 -1221469632
  br label %.backedge

55:                                               ; preds = %15
  %.0..0..0.11 = load volatile i1, i1* %3, align 1
  %56 = select i1 %.0..0..0.11, i32 -1305248462, i32 -1737687587
  br label %.backedge

57:                                               ; preds = %15
  %.0..0..0.4 = load volatile %"class.std::set"**, %"class.std::set"*** %5, align 8
  %58 = load %"class.std::set"*, %"class.std::set"** %.0..0..0.4, align 8
  %59 = call %"class.std::set"* @_ZSt11__addressofISt3setIiSt4lessIiESaIiEEEPT_RS5_(%"class.std::set"* dereferenceable(48) %58) #13
  call void @_ZSt8_DestroyISt3setIiSt4lessIiESaIiEEEvPT_(%"class.std::set"* %59)
  br label %.backedge

60:                                               ; preds = %15
  %.0..0..0.5 = load volatile %"class.std::set"**, %"class.std::set"*** %5, align 8
  %61 = load %"class.std::set"*, %"class.std::set"** %.0..0..0.5, align 8
  %62 = getelementptr inbounds %"class.std::set", %"class.std::set"* %61, i64 1
  %.0..0..0.6 = load volatile %"class.std::set"**, %"class.std::set"*** %5, align 8
  store %"class.std::set"* %62, %"class.std::set"** %.0..0..0.6, align 8
  br label %.backedge

63:                                               ; preds = %15
  ret void

64:                                               ; preds = %15
  br label %.backedge

65:                                               ; preds = %15
  %.0..0..0.7 = load volatile %"class.std::set"**, %"class.std::set"*** %5, align 8
  %.0..0..0.10 = load volatile %"class.std::set"**, %"class.std::set"*** %4, align 8
  br label %.backedge
}

; Function Attrs: noinline nounwind uwtable
define linkonce_odr void @_ZSt8_DestroyISt3setIiSt4lessIiESaIiEEEvPT_(%"class.std::set"* %0) local_unnamed_addr #5 comdat {
  tail call void @_ZNSt3setIiSt4lessIiESaIiEED2Ev(%"class.std::set"* %0) #13
  ret void
}

; Function Attrs: noinline nounwind uwtable
define linkonce_odr void @_ZNSt3setIiSt4lessIiESaIiEED2Ev(%"class.std::set"* %0) unnamed_addr #5 comdat align 2 {
  %2 = getelementptr inbounds %"class.std::set", %"class.std::set"* %0, i64 0, i32 0
  tail call void @_ZNSt8_Rb_treeIiiSt9_IdentityIiESt4lessIiESaIiEED2Ev(%"class.std::_Rb_tree"* %2) #13
  ret void
}

; Function Attrs: noinline nounwind uwtable
define linkonce_odr void @_ZNSt8_Rb_treeIiiSt9_IdentityIiESt4lessIiESaIiEED2Ev(%"class.std::_Rb_tree"* %0) unnamed_addr #5 comdat align 2 personality i8* bitcast (i32 (...)* @__gxx_personality_v0 to i8*) {
  %2 = tail call %"struct.std::_Rb_tree_node"* @_ZNSt8_Rb_treeIiiSt9_IdentityIiESt4lessIiESaIiEE8_M_beginEv(%"class.std::_Rb_tree"* %0) #13
  invoke void @_ZNSt8_Rb_treeIiiSt9_IdentityIiESt4lessIiESaIiEE8_M_eraseEPSt13_Rb_tree_nodeIiE(%"class.std::_Rb_tree"* %0, %"struct.std::_Rb_tree_node"* %2)
          to label %3 unwind label %5

3:                                                ; preds = %1
  %4 = getelementptr inbounds %"class.std::_Rb_tree", %"class.std::_Rb_tree"* %0, i64 0, i32 0
  tail call void @_ZNSt8_Rb_treeIiiSt9_IdentityIiESt4lessIiESaIiEE13_Rb_tree_implIS3_Lb1EED2Ev(%"struct.std::_Rb_tree<int, int, std::_Identity<int>, std::less<int>, std::allocator<int> >::_Rb_tree_impl"* %4) #13
  ret void

5:                                                ; preds = %1
  %6 = landingpad { i8*, i32 }
          catch i8* null
  %7 = extractvalue { i8*, i32 } %6, 0
  %8 = getelementptr inbounds %"class.std::_Rb_tree", %"class.std::_Rb_tree"* %0, i64 0, i32 0
  tail call void @_ZNSt8_Rb_treeIiiSt9_IdentityIiESt4lessIiESaIiEE13_Rb_tree_implIS3_Lb1EED2Ev(%"struct.std::_Rb_tree<int, int, std::_Identity<int>, std::less<int>, std::allocator<int> >::_Rb_tree_impl"* %8) #13
  tail call void @__clang_call_terminate(i8* %7) #14
  unreachable
}

; Function Attrs: noinline uwtable
define linkonce_odr void @_ZNSt8_Rb_treeIiiSt9_IdentityIiESt4lessIiESaIiEE8_M_eraseEPSt13_Rb_tree_nodeIiE(%"class.std::_Rb_tree"* %0, %"struct.std::_Rb_tree_node"* %1) local_unnamed_addr #0 comdat align 2 {
  %3 = alloca %"class.std::_Rb_tree"*, align 8
  store %"class.std::_Rb_tree"* %0, %"class.std::_Rb_tree"** %3, align 8
  br label %4

4:                                                ; preds = %.backedge, %2
  %.014 = phi %"struct.std::_Rb_tree_node"* [ %1, %2 ], [ %.014.be, %.backedge ]
  %.0 = phi i32 [ 925970178, %2 ], [ %.0.be, %.backedge ]
  switch i32 %.0, label %.backedge [
    i32 925970178, label %5
    i32 1455745768, label %7
    i32 -1101132356, label %17
    i32 -455714347, label %30
    i32 1860349591, label %31
    i32 787582992, label %41
    i32 350630830, label %51
    i32 1639518009, label %52
    i32 1149287584, label %56
  ]

.backedge:                                        ; preds = %4, %56, %52, %41, %31, %30, %17, %7, %5
  %.014.be = phi %"struct.std::_Rb_tree_node"* [ %.014, %4 ], [ %.014, %56 ], [ %55, %52 ], [ %.014, %41 ], [ %.014, %31 ], [ %.014, %30 ], [ %20, %17 ], [ %.014, %7 ], [ %.014, %5 ]
  %.0.be = phi i32 [ %.0, %4 ], [ 787582992, %56 ], [ -1101132356, %52 ], [ %50, %41 ], [ %40, %31 ], [ 925970178, %30 ], [ %29, %17 ], [ %16, %7 ], [ %6, %5 ]
  br label %4

5:                                                ; preds = %4
  %.not = icmp eq %"struct.std::_Rb_tree_node"* %.014, null
  %6 = select i1 %.not, i32 1860349591, i32 1455745768
  br label %.backedge

7:                                                ; preds = %4
  %8 = load i32, i32* @x.93, align 4
  %9 = load i32, i32* @y.94, align 4
  %10 = add i32 %8, -1
  %11 = mul i32 %10, %8
  %12 = and i32 %11, 1
  %13 = icmp eq i32 %12, 0
  %14 = icmp slt i32 %9, 10
  %15 = or i1 %14, %13
  %16 = select i1 %15, i32 -1101132356, i32 1639518009
  br label %.backedge

17:                                               ; preds = %4
  %18 = getelementptr %"struct.std::_Rb_tree_node", %"struct.std::_Rb_tree_node"* %.014, i64 0, i32 0
  %19 = tail call %"struct.std::_Rb_tree_node"* @_ZNSt8_Rb_treeIiiSt9_IdentityIiESt4lessIiESaIiEE8_S_rightEPSt18_Rb_tree_node_base(%"struct.std::_Rb_tree_node_base"* %18) #13
  %.0..0..0.10 = load volatile %"class.std::_Rb_tree"*, %"class.std::_Rb_tree"** %3, align 8
  tail call void @_ZNSt8_Rb_treeIiiSt9_IdentityIiESt4lessIiESaIiEE8_M_eraseEPSt13_Rb_tree_nodeIiE(%"class.std::_Rb_tree"* %.0..0..0.10, %"struct.std::_Rb_tree_node"* %19)
  %20 = tail call %"struct.std::_Rb_tree_node"* @_ZNSt8_Rb_treeIiiSt9_IdentityIiESt4lessIiESaIiEE7_S_leftEPSt18_Rb_tree_node_base(%"struct.std::_Rb_tree_node_base"* %18) #13
  %.0..0..0.11 = load volatile %"class.std::_Rb_tree"*, %"class.std::_Rb_tree"** %3, align 8
  tail call void @_ZNSt8_Rb_treeIiiSt9_IdentityIiESt4lessIiESaIiEE12_M_drop_nodeEPSt13_Rb_tree_nodeIiE(%"class.std::_Rb_tree"* %.0..0..0.11, %"struct.std::_Rb_tree_node"* %.014) #13
  %21 = load i32, i32* @x.93, align 4
  %22 = load i32, i32* @y.94, align 4
  %23 = add i32 %21, -1
  %24 = mul i32 %23, %21
  %25 = and i32 %24, 1
  %26 = icmp eq i32 %25, 0
  %27 = icmp slt i32 %22, 10
  %28 = or i1 %27, %26
  %29 = select i1 %28, i32 -455714347, i32 1639518009
  br label %.backedge

30:                                               ; preds = %4
  br label %.backedge

31:                                               ; preds = %4
  %32 = load i32, i32* @x.93, align 4
  %33 = load i32, i32* @y.94, align 4
  %34 = add i32 %32, -1
  %35 = mul i32 %34, %32
  %36 = and i32 %35, 1
  %37 = icmp eq i32 %36, 0
  %38 = icmp slt i32 %33, 10
  %39 = or i1 %38, %37
  %40 = select i1 %39, i32 787582992, i32 1149287584
  br label %.backedge

41:                                               ; preds = %4
  %42 = load i32, i32* @x.93, align 4
  %43 = load i32, i32* @y.94, align 4
  %44 = add i32 %42, -1
  %45 = mul i32 %44, %42
  %46 = and i32 %45, 1
  %47 = icmp eq i32 %46, 0
  %48 = icmp slt i32 %43, 10
  %49 = or i1 %48, %47
  %50 = select i1 %49, i32 350630830, i32 1149287584
  br label %.backedge

51:                                               ; preds = %4
  ret void

52:                                               ; preds = %4
  %53 = getelementptr %"struct.std::_Rb_tree_node", %"struct.std::_Rb_tree_node"* %.014, i64 0, i32 0
  %54 = tail call %"struct.std::_Rb_tree_node"* @_ZNSt8_Rb_treeIiiSt9_IdentityIiESt4lessIiESaIiEE8_S_rightEPSt18_Rb_tree_node_base(%"struct.std::_Rb_tree_node_base"* %53) #13
  %.0..0..0.12 = load volatile %"class.std::_Rb_tree"*, %"class.std::_Rb_tree"** %3, align 8
  tail call void @_ZNSt8_Rb_treeIiiSt9_IdentityIiESt4lessIiESaIiEE8_M_eraseEPSt13_Rb_tree_nodeIiE(%"class.std::_Rb_tree"* %.0..0..0.12, %"struct.std::_Rb_tree_node"* %54)
  %55 = tail call %"struct.std::_Rb_tree_node"* @_ZNSt8_Rb_treeIiiSt9_IdentityIiESt4lessIiESaIiEE7_S_leftEPSt18_Rb_tree_node_base(%"struct.std::_Rb_tree_node_base"* %53) #13
  %.0..0..0.13 = load volatile %"class.std::_Rb_tree"*, %"class.std::_Rb_tree"** %3, align 8
  tail call void @_ZNSt8_Rb_treeIiiSt9_IdentityIiESt4lessIiESaIiEE12_M_drop_nodeEPSt13_Rb_tree_nodeIiE(%"class.std::_Rb_tree"* %.0..0..0.13, %"struct.std::_Rb_tree_node"* %.014) #13
  br label %.backedge

56:                                               ; preds = %4
  br label %.backedge
}

; Function Attrs: noinline nounwind uwtable
define linkonce_odr %"struct.std::_Rb_tree_node"* @_ZNSt8_Rb_treeIiiSt9_IdentityIiESt4lessIiESaIiEE8_M_beginEv(%"class.std::_Rb_tree"* %0) local_unnamed_addr #5 comdat align 2 {
  %2 = getelementptr inbounds %"class.std::_Rb_tree", %"class.std::_Rb_tree"* %0, i64 0, i32 0, i32 1, i32 1
  %3 = bitcast %"struct.std::_Rb_tree_node_base"** %2 to %"struct.std::_Rb_tree_node"**
  %4 = load %"struct.std::_Rb_tree_node"*, %"struct.std::_Rb_tree_node"** %3, align 8
  ret %"struct.std::_Rb_tree_node"* %4
}

; Function Attrs: noinline nounwind uwtable
define linkonce_odr void @_ZNSt8_Rb_treeIiiSt9_IdentityIiESt4lessIiESaIiEE13_Rb_tree_implIS3_Lb1EED2Ev(%"struct.std::_Rb_tree<int, int, std::_Identity<int>, std::less<int>, std::allocator<int> >::_Rb_tree_impl"* %0) unnamed_addr #5 comdat align 2 {
  %2 = bitcast %"struct.std::_Rb_tree<int, int, std::_Identity<int>, std::less<int>, std::allocator<int> >::_Rb_tree_impl"* %0 to %"class.std::allocator.3"*
  tail call void @_ZNSaISt13_Rb_tree_nodeIiEED2Ev(%"class.std::allocator.3"* %2) #13
  ret void
}

; Function Attrs: noinline nounwind uwtable
define linkonce_odr %"struct.std::_Rb_tree_node"* @_ZNSt8_Rb_treeIiiSt9_IdentityIiESt4lessIiESaIiEE8_S_rightEPSt18_Rb_tree_node_base(%"struct.std::_Rb_tree_node_base"* %0) local_unnamed_addr #5 comdat align 2 {
  %2 = getelementptr inbounds %"struct.std::_Rb_tree_node_base", %"struct.std::_Rb_tree_node_base"* %0, i64 0, i32 3
  %3 = bitcast %"struct.std::_Rb_tree_node_base"** %2 to %"struct.std::_Rb_tree_node"**
  %4 = load %"struct.std::_Rb_tree_node"*, %"struct.std::_Rb_tree_node"** %3, align 8
  ret %"struct.std::_Rb_tree_node"* %4
}

; Function Attrs: noinline nounwind uwtable
define linkonce_odr %"struct.std::_Rb_tree_node"* @_ZNSt8_Rb_treeIiiSt9_IdentityIiESt4lessIiESaIiEE7_S_leftEPSt18_Rb_tree_node_base(%"struct.std::_Rb_tree_node_base"* %0) local_unnamed_addr #5 comdat align 2 {
  %2 = getelementptr inbounds %"struct.std::_Rb_tree_node_base", %"struct.std::_Rb_tree_node_base"* %0, i64 0, i32 2
  %3 = bitcast %"struct.std::_Rb_tree_node_base"** %2 to %"struct.std::_Rb_tree_node"**
  %4 = load %"struct.std::_Rb_tree_node"*, %"struct.std::_Rb_tree_node"** %3, align 8
  ret %"struct.std::_Rb_tree_node"* %4
}

; Function Attrs: noinline nounwind uwtable
define linkonce_odr void @_ZNSt8_Rb_treeIiiSt9_IdentityIiESt4lessIiESaIiEE12_M_drop_nodeEPSt13_Rb_tree_nodeIiE(%"class.std::_Rb_tree"* %0, %"struct.std::_Rb_tree_node"* %1) local_unnamed_addr #5 comdat align 2 {
  tail call void @_ZNSt8_Rb_treeIiiSt9_IdentityIiESt4lessIiESaIiEE15_M_destroy_nodeEPSt13_Rb_tree_nodeIiE(%"class.std::_Rb_tree"* %0, %"struct.std::_Rb_tree_node"* %1) #13
  tail call void @_ZNSt8_Rb_treeIiiSt9_IdentityIiESt4lessIiESaIiEE11_M_put_nodeEPSt13_Rb_tree_nodeIiE(%"class.std::_Rb_tree"* %0, %"struct.std::_Rb_tree_node"* %1) #13
  ret void
}

; Function Attrs: noinline nounwind uwtable
define linkonce_odr void @_ZNSt8_Rb_treeIiiSt9_IdentityIiESt4lessIiESaIiEE15_M_destroy_nodeEPSt13_Rb_tree_nodeIiE(%"class.std::_Rb_tree"* %0, %"struct.std::_Rb_tree_node"* %1) local_unnamed_addr #5 comdat align 2 personality i8* bitcast (i32 (...)* @__gxx_personality_v0 to i8*) {
  %3 = load i32, i32* @x.105, align 4
  %4 = load i32, i32* @y.106, align 4
  %5 = add i32 %3, -1
  %6 = mul i32 %5, %3
  %7 = and i32 %6, 1
  %8 = icmp eq i32 %7, 0
  %9 = icmp slt i32 %4, 10
  %10 = or i1 %9, %8
  br i1 %10, label %11, label %27

11:                                               ; preds = %27, %2
  %12 = tail call dereferenceable(1) %"class.std::allocator.3"* @_ZNSt8_Rb_treeIiiSt9_IdentityIiESt4lessIiESaIiEE21_M_get_Node_allocatorEv(%"class.std::_Rb_tree"* %0) #13
  %13 = load i32, i32* @x.105, align 4
  %14 = load i32, i32* @y.106, align 4
  %15 = add i32 %13, -1
  %16 = mul i32 %15, %13
  %17 = and i32 %16, 1
  %18 = icmp eq i32 %17, 0
  %19 = icmp slt i32 %14, 10
  %20 = or i1 %19, %18
  br i1 %20, label %21, label %27

21:                                               ; preds = %11
  %22 = tail call i32* @_ZNSt13_Rb_tree_nodeIiE9_M_valptrEv(%"struct.std::_Rb_tree_node"* %1)
  invoke void @_ZNSt16allocator_traitsISaISt13_Rb_tree_nodeIiEEE7destroyIiEEvRS2_PT_(%"class.std::allocator.3"* nonnull dereferenceable(1) %12, i32* %22)
          to label %23 unwind label %24

23:                                               ; preds = %21
  ret void

24:                                               ; preds = %21
  %25 = landingpad { i8*, i32 }
          catch i8* null
  %26 = extractvalue { i8*, i32 } %25, 0
  tail call void @__clang_call_terminate(i8* %26) #14
  unreachable

27:                                               ; preds = %11, %2
  %28 = tail call dereferenceable(1) %"class.std::allocator.3"* @_ZNSt8_Rb_treeIiiSt9_IdentityIiESt4lessIiESaIiEE21_M_get_Node_allocatorEv(%"class.std::_Rb_tree"* %0) #13
  br label %11
}

; Function Attrs: noinline nounwind uwtable
define linkonce_odr void @_ZNSt8_Rb_treeIiiSt9_IdentityIiESt4lessIiESaIiEE11_M_put_nodeEPSt13_Rb_tree_nodeIiE(%"class.std::_Rb_tree"* %0, %"struct.std::_Rb_tree_node"* %1) local_unnamed_addr #5 comdat align 2 personality i8* bitcast (i32 (...)* @__gxx_personality_v0 to i8*) {
  %3 = tail call dereferenceable(1) %"class.std::allocator.3"* @_ZNSt8_Rb_treeIiiSt9_IdentityIiESt4lessIiESaIiEE21_M_get_Node_allocatorEv(%"class.std::_Rb_tree"* %0) #13
  invoke void @_ZNSt16allocator_traitsISaISt13_Rb_tree_nodeIiEEE10deallocateERS2_PS1_m(%"class.std::allocator.3"* nonnull dereferenceable(1) %3, %"struct.std::_Rb_tree_node"* %1, i64 1)
          to label %4 unwind label %13

4:                                                ; preds = %2
  %5 = load i32, i32* @x.107, align 4
  %6 = load i32, i32* @y.108, align 4
  %7 = add i32 %5, -1
  %8 = mul i32 %7, %5
  %9 = and i32 %8, 1
  %10 = icmp eq i32 %9, 0
  %11 = icmp slt i32 %6, 10
  %12 = or i1 %11, %10
  br i1 %12, label %.critedge, label %.preheader

.critedge:                                        ; preds = %4
  ret void

13:                                               ; preds = %2
  %14 = landingpad { i8*, i32 }
          catch i8* null
  %15 = extractvalue { i8*, i32 } %14, 0
  tail call void @__clang_call_terminate(i8* %15) #14
  unreachable

.preheader:                                       ; preds = %4, %.preheader
  br label %.preheader, !llvm.loop !14
}

; Function Attrs: noinline uwtable
define linkonce_odr void @_ZNSt16allocator_traitsISaISt13_Rb_tree_nodeIiEEE7destroyIiEEvRS2_PT_(%"class.std::allocator.3"* dereferenceable(1) %0, i32* %1) local_unnamed_addr #0 comdat align 2 {
  %3 = bitcast %"class.std::allocator.3"* %0 to %"class.__gnu_cxx::new_allocator.4"*
  tail call void @_ZN9__gnu_cxx13new_allocatorISt13_Rb_tree_nodeIiEE7destroyIiEEvPT_(%"class.__gnu_cxx::new_allocator.4"* nonnull %3, i32* %1)
  ret void
}

; Function Attrs: noinline nounwind uwtable
define linkonce_odr dereferenceable(1) %"class.std::allocator.3"* @_ZNSt8_Rb_treeIiiSt9_IdentityIiESt4lessIiESaIiEE21_M_get_Node_allocatorEv(%"class.std::_Rb_tree"* %0) local_unnamed_addr #5 comdat align 2 {
  %2 = bitcast %"class.std::_Rb_tree"* %0 to %"class.std::allocator.3"*
  ret %"class.std::allocator.3"* %2
}

; Function Attrs: noinline nounwind uwtable
define linkonce_odr i32* @_ZNSt13_Rb_tree_nodeIiE9_M_valptrEv(%"struct.std::_Rb_tree_node"* %0) local_unnamed_addr #5 comdat align 2 {
  %2 = getelementptr inbounds %"struct.std::_Rb_tree_node", %"struct.std::_Rb_tree_node"* %0, i64 0, i32 1
  %3 = tail call i32* @_ZN9__gnu_cxx16__aligned_membufIiE6_M_ptrEv(%"struct.__gnu_cxx::__aligned_membuf"* nonnull %2) #13
  ret i32* %3
}

; Function Attrs: noinline nounwind uwtable
define linkonce_odr void @_ZN9__gnu_cxx13new_allocatorISt13_Rb_tree_nodeIiEE7destroyIiEEvPT_(%"class.__gnu_cxx::new_allocator.4"* %0, i32* %1) local_unnamed_addr #5 comdat align 2 {
  ret void
}

; Function Attrs: noinline nounwind uwtable
define linkonce_odr i32* @_ZN9__gnu_cxx16__aligned_membufIiE6_M_ptrEv(%"struct.__gnu_cxx::__aligned_membuf"* %0) local_unnamed_addr #5 comdat align 2 {
  %2 = tail call i8* @_ZN9__gnu_cxx16__aligned_membufIiE7_M_addrEv(%"struct.__gnu_cxx::__aligned_membuf"* %0) #13
  %3 = bitcast i8* %2 to i32*
  ret i32* %3
}

; Function Attrs: noinline nounwind uwtable
define linkonce_odr i8* @_ZN9__gnu_cxx16__aligned_membufIiE7_M_addrEv(%"struct.__gnu_cxx::__aligned_membuf"* %0) local_unnamed_addr #5 comdat align 2 {
  %2 = getelementptr inbounds %"struct.__gnu_cxx::__aligned_membuf", %"struct.__gnu_cxx::__aligned_membuf"* %0, i64 0, i32 0, i64 0
  ret i8* %2
}

; Function Attrs: noinline uwtable
define linkonce_odr void @_ZNSt16allocator_traitsISaISt13_Rb_tree_nodeIiEEE10deallocateERS2_PS1_m(%"class.std::allocator.3"* dereferenceable(1) %0, %"struct.std::_Rb_tree_node"* %1, i64 %2) local_unnamed_addr #0 comdat align 2 {
  %4 = bitcast %"class.std::allocator.3"* %0 to %"class.__gnu_cxx::new_allocator.4"*
  tail call void @_ZN9__gnu_cxx13new_allocatorISt13_Rb_tree_nodeIiEE10deallocateEPS2_m(%"class.__gnu_cxx::new_allocator.4"* nonnull %4, %"struct.std::_Rb_tree_node"* %1, i64 %2)
  ret void
}

; Function Attrs: noinline nounwind uwtable
define linkonce_odr void @_ZN9__gnu_cxx13new_allocatorISt13_Rb_tree_nodeIiEE10deallocateEPS2_m(%"class.__gnu_cxx::new_allocator.4"* %0, %"struct.std::_Rb_tree_node"* %1, i64 %2) local_unnamed_addr #5 comdat align 2 {
  %4 = bitcast %"struct.std::_Rb_tree_node"* %1 to i8*
  tail call void @_ZdlPv(i8* %4) #13
  ret void
}

; Function Attrs: nobuiltin nounwind
declare void @_ZdlPv(i8*) local_unnamed_addr #9

; Function Attrs: noinline uwtable
define linkonce_odr void @_ZNSt12_Vector_baseISt3setIiSt4lessIiESaIiEESaIS4_EE13_M_deallocateEPS4_m(%"struct.std::_Vector_base"* %0, %"class.std::set"* %1, i64 %2) local_unnamed_addr #0 comdat align 2 {
  %4 = alloca %"class.std::set"*, align 8
  %5 = alloca %"struct.std::_Vector_base"*, align 8
  store %"struct.std::_Vector_base"* %0, %"struct.std::_Vector_base"** %5, align 8
  store %"class.std::set"* %1, %"class.std::set"** %4, align 8
  br label %.outer

.outer:                                           ; preds = %.outer.backedge, %3
  %.0.ph = phi i32 [ 1272255104, %3 ], [ %.0.ph.be, %.outer.backedge ]
  br label %6

6:                                                ; preds = %.outer, %6
  switch i32 %.0.ph, label %6 [
    i32 1272255104, label %7
    i32 -1213694816, label %9
    i32 699200959, label %11
  ]

7:                                                ; preds = %6
  %.0..0..0.5 = load volatile %"class.std::set"*, %"class.std::set"** %4, align 8
  %.not = icmp eq %"class.std::set"* %.0..0..0.5, null
  %8 = select i1 %.not, i32 699200959, i32 -1213694816
  br label %.outer.backedge

9:                                                ; preds = %6
  %.0..0..0.4 = load volatile %"struct.std::_Vector_base"*, %"struct.std::_Vector_base"** %5, align 8
  %10 = bitcast %"struct.std::_Vector_base"* %.0..0..0.4 to %"class.std::allocator.0"*
  tail call void @_ZNSt16allocator_traitsISaISt3setIiSt4lessIiESaIiEEEE10deallocateERS5_PS4_m(%"class.std::allocator.0"* dereferenceable(1) %10, %"class.std::set"* %1, i64 %2)
  br label %.outer.backedge

.outer.backedge:                                  ; preds = %9, %7
  %.0.ph.be = phi i32 [ %8, %7 ], [ 699200959, %9 ]
  br label %.outer

11:                                               ; preds = %6
  ret void
}

; Function Attrs: noinline uwtable
define linkonce_odr void @_ZNSt16allocator_traitsISaISt3setIiSt4lessIiESaIiEEEE10deallocateERS5_PS4_m(%"class.std::allocator.0"* dereferenceable(1) %0, %"class.std::set"* %1, i64 %2) local_unnamed_addr #0 comdat align 2 {
  %4 = bitcast %"class.std::allocator.0"* %0 to %"class.__gnu_cxx::new_allocator.1"*
  tail call void @_ZN9__gnu_cxx13new_allocatorISt3setIiSt4lessIiESaIiEEE10deallocateEPS5_m(%"class.__gnu_cxx::new_allocator.1"* nonnull %4, %"class.std::set"* %1, i64 %2)
  ret void
}

; Function Attrs: noinline nounwind uwtable
define linkonce_odr void @_ZN9__gnu_cxx13new_allocatorISt3setIiSt4lessIiESaIiEEE10deallocateEPS5_m(%"class.__gnu_cxx::new_allocator.1"* %0, %"class.std::set"* %1, i64 %2) local_unnamed_addr #5 comdat align 2 {
  %4 = alloca i1, align 1
  %5 = alloca i1, align 1
  %6 = load i32, i32* @x.129, align 4
  %7 = load i32, i32* @y.130, align 4
  %8 = add i32 %6, -1
  %9 = mul i32 %8, %6
  %10 = and i32 %9, 1
  %11 = icmp eq i32 %10, 0
  store i1 %11, i1* %5, align 1
  %12 = icmp slt i32 %7, 10
  store i1 %12, i1* %4, align 1
  %.cast = getelementptr %"class.std::set", %"class.std::set"* %1, i64 0, i32 0, i32 0, i32 0, i32 0
  br label %.outer

.outer:                                           ; preds = %.outer.backedge, %3
  %.0.ph = phi i32 [ 941393103, %3 ], [ %.0.ph.be, %.outer.backedge ]
  br label %13

13:                                               ; preds = %.outer, %13
  switch i32 %.0.ph, label %13 [
    i32 941393103, label %14
    i32 -613799590, label %17
    i32 236971510, label %27
    i32 -803048603, label %28
  ]

14:                                               ; preds = %13
  %.0..0..0. = load volatile i1, i1* %5, align 1
  %.0..0..0.1 = load volatile i1, i1* %4, align 1
  %15 = or i1 %.0..0..0., %.0..0..0.1
  %16 = select i1 %15, i32 -613799590, i32 -803048603
  br label %.outer.backedge

17:                                               ; preds = %13
  tail call void @_ZdlPv(i8* %.cast) #13
  %18 = load i32, i32* @x.129, align 4
  %19 = load i32, i32* @y.130, align 4
  %20 = add i32 %18, -1
  %21 = mul i32 %20, %18
  %22 = and i32 %21, 1
  %23 = icmp eq i32 %22, 0
  %24 = icmp slt i32 %19, 10
  %25 = or i1 %24, %23
  %26 = select i1 %25, i32 236971510, i32 -803048603
  br label %.outer.backedge

27:                                               ; preds = %13
  ret void

28:                                               ; preds = %13
  tail call void @_ZdlPv(i8* %.cast) #13
  br label %.outer.backedge

.outer.backedge:                                  ; preds = %28, %17, %14
  %.0.ph.be = phi i32 [ %16, %14 ], [ %26, %17 ], [ -613799590, %28 ]
  br label %.outer
}

; Function Attrs: noinline uwtable
define linkonce_odr void @_ZSt8_DestroyIPSt3setIiSt4lessIiESaIiEES4_EvT_S6_RSaIT0_E(%"class.std::set"* %0, %"class.std::set"* %1, %"class.std::allocator.0"* dereferenceable(1) %2) local_unnamed_addr #0 comdat {
  tail call void @_ZSt8_DestroyIPSt3setIiSt4lessIiESaIiEEEvT_S6_(%"class.std::set"* %0, %"class.std::set"* %1)
  ret void
}

; Function Attrs: noinline uwtable
define linkonce_odr void @_ZNKSt6vectorISt3setIiSt4lessIiESaIiEESaIS4_EE14_M_range_checkEm(%"class.std::vector"* %0, i64 %1) local_unnamed_addr #0 comdat align 2 {
  %3 = alloca i64, align 8
  %4 = alloca i64, align 8
  %5 = alloca %"class.std::vector"*, align 8
  store %"class.std::vector"* %0, %"class.std::vector"** %5, align 8
  store i64 %1, i64* %4, align 8
  %.0..0..0.3 = load volatile %"class.std::vector"*, %"class.std::vector"** %5, align 8
  %6 = tail call i64 @_ZNKSt6vectorISt3setIiSt4lessIiESaIiEESaIS4_EE4sizeEv(%"class.std::vector"* %.0..0..0.3) #13
  store i64 %6, i64* %3, align 8
  br label %.outer

.outer:                                           ; preds = %8, %2
  %.0.ph = phi i32 [ %9, %8 ], [ 985725806, %2 ]
  br label %7

7:                                                ; preds = %.outer, %7
  switch i32 %.0.ph, label %7 [
    i32 985725806, label %8
    i32 113793008, label %10
    i32 421438309, label %12
  ]

8:                                                ; preds = %7
  %.0..0..0.5 = load volatile i64, i64* %4, align 8
  %.0..0..0.6 = load volatile i64, i64* %3, align 8
  %.not = icmp ult i64 %.0..0..0.5, %.0..0..0.6
  %9 = select i1 %.not, i32 421438309, i32 113793008
  br label %.outer

10:                                               ; preds = %7
  %.0..0..0.4 = load volatile %"class.std::vector"*, %"class.std::vector"** %5, align 8
  %11 = tail call i64 @_ZNKSt6vectorISt3setIiSt4lessIiESaIiEESaIS4_EE4sizeEv(%"class.std::vector"* %.0..0..0.4) #13
  tail call void (i8*, ...) @_ZSt24__throw_out_of_range_fmtPKcz(i8* getelementptr inbounds ([74 x i8], [74 x i8]* @.str, i64 0, i64 0), i64 %1, i64 %11) #15
  unreachable

12:                                               ; preds = %7
  ret void
}

; Function Attrs: noinline nounwind uwtable
define linkonce_odr dereferenceable(48) %"class.std::set"* @_ZNSt6vectorISt3setIiSt4lessIiESaIiEESaIS4_EEixEm(%"class.std::vector"* %0, i64 %1) local_unnamed_addr #5 comdat align 2 {
  %3 = getelementptr inbounds %"class.std::vector", %"class.std::vector"* %0, i64 0, i32 0, i32 0, i32 0
  %4 = load %"class.std::set"*, %"class.std::set"** %3, align 8
  %5 = getelementptr inbounds %"class.std::set", %"class.std::set"* %4, i64 %1
  ret %"class.std::set"* %5
}

; Function Attrs: noinline nounwind uwtable
define linkonce_odr i64 @_ZNKSt6vectorISt3setIiSt4lessIiESaIiEESaIS4_EE4sizeEv(%"class.std::vector"* %0) local_unnamed_addr #5 comdat align 2 {
  %2 = getelementptr inbounds %"class.std::vector", %"class.std::vector"* %0, i64 0, i32 0, i32 0, i32 1
  %3 = load %"class.std::set"*, %"class.std::set"** %2, align 8
  %4 = getelementptr inbounds %"class.std::vector", %"class.std::vector"* %0, i64 0, i32 0, i32 0, i32 0
  %5 = load %"class.std::set"*, %"class.std::set"** %4, align 8
  %6 = ptrtoint %"class.std::set"* %3 to i64
  %7 = ptrtoint %"class.std::set"* %5 to i64
  %8 = sub i64 %6, %7
  %9 = sdiv exact i64 %8, 48
  ret i64 %9
}

; Function Attrs: noreturn
declare void @_ZSt24__throw_out_of_range_fmtPKcz(i8*, ...) local_unnamed_addr #6

; Function Attrs: noinline uwtable
define linkonce_odr { %"struct.std::_Rb_tree_node_base"*, i8 } @_ZNSt8_Rb_treeIiiSt9_IdentityIiESt4lessIiESaIiEE16_M_insert_uniqueIiEESt4pairISt17_Rb_tree_iteratorIiEbEOT_(%"class.std::_Rb_tree"* %0, i32* dereferenceable(4) %1) local_unnamed_addr #0 comdat align 2 {
  %3 = alloca i1, align 1
  %4 = alloca %"class.std::_Rb_tree"*, align 8
  %5 = alloca i8*, align 8
  %6 = alloca %"struct.std::_Rb_tree_iterator"*, align 8
  %7 = alloca i8*, align 8
  %8 = alloca %"struct.std::_Rb_tree_iterator"*, align 8
  %9 = alloca %"struct.std::_Rb_tree<int, int, std::_Identity<int>, std::less<int>, std::allocator<int> >::_Alloc_node"*, align 8
  %10 = alloca %"struct.std::pair.8"*, align 8
  %11 = alloca i32**, align 8
  %12 = alloca %"struct.std::pair.6"*, align 8
  %13 = alloca i1, align 1
  %14 = alloca i1, align 1
  %15 = load i32, i32* @x.139, align 4
  %16 = load i32, i32* @y.140, align 4
  %17 = add i32 %15, -1
  %18 = mul i32 %17, %15
  %19 = and i32 %18, 1
  %20 = icmp eq i32 %19, 0
  store i1 %20, i1* %14, align 1
  %21 = icmp slt i32 %16, 10
  store i1 %21, i1* %13, align 1
  br label %22

22:                                               ; preds = %.backedge, %2
  %.0 = phi i32 [ 683498791, %2 ], [ %.0.be, %.backedge ]
  switch i32 %.0, label %.backedge [
    i32 683498791, label %23
    i32 -1489193984, label %26
    i32 -1685583494, label %55
    i32 1097958373, label %57
    i32 1979948165, label %66
    i32 -246809019, label %76
    i32 171647532, label %88
    i32 101274196, label %89
    i32 -1765512825, label %92
    i32 -564448045, label %96
  ]

.backedge:                                        ; preds = %22, %96, %92, %88, %76, %66, %57, %55, %26, %23
  %.0.be = phi i32 [ %.0, %22 ], [ -246809019, %96 ], [ -1489193984, %92 ], [ 101274196, %88 ], [ %87, %76 ], [ %75, %66 ], [ 101274196, %57 ], [ %56, %55 ], [ %54, %26 ], [ %25, %23 ]
  br label %22

23:                                               ; preds = %22
  %.0..0..0. = load volatile i1, i1* %14, align 1
  %.0..0..0.1 = load volatile i1, i1* %13, align 1
  %24 = or i1 %.0..0..0., %.0..0..0.1
  %25 = select i1 %24, i32 -1489193984, i32 -1765512825
  br label %.backedge

26:                                               ; preds = %22
  %27 = alloca %"struct.std::pair.6", align 8
  store %"struct.std::pair.6"* %27, %"struct.std::pair.6"** %12, align 8
  %28 = alloca i32*, align 8
  store i32** %28, i32*** %11, align 8
  %29 = alloca %"struct.std::pair.8", align 8
  store %"struct.std::pair.8"* %29, %"struct.std::pair.8"** %10, align 8
  %30 = alloca %"struct.std::_Identity", align 1
  %31 = alloca %"struct.std::_Rb_tree<int, int, std::_Identity<int>, std::less<int>, std::allocator<int> >::_Alloc_node", align 8
  store %"struct.std::_Rb_tree<int, int, std::_Identity<int>, std::less<int>, std::allocator<int> >::_Alloc_node"* %31, %"struct.std::_Rb_tree<int, int, std::_Identity<int>, std::less<int>, std::allocator<int> >::_Alloc_node"** %9, align 8
  %32 = alloca %"struct.std::_Rb_tree_iterator", align 8
  store %"struct.std::_Rb_tree_iterator"* %32, %"struct.std::_Rb_tree_iterator"** %8, align 8
  %33 = alloca i8, align 1
  store i8* %33, i8** %7, align 8
  %34 = alloca %"struct.std::_Rb_tree_iterator", align 8
  store %"struct.std::_Rb_tree_iterator"* %34, %"struct.std::_Rb_tree_iterator"** %6, align 8
  %35 = alloca i8, align 1
  store i8* %35, i8** %5, align 8
  %.0..0..0.6 = load volatile i32**, i32*** %11, align 8
  store i32* %1, i32** %.0..0..0.6, align 8
  store %"class.std::_Rb_tree"* %0, %"class.std::_Rb_tree"** %4, align 8
  %.0..0..0.7 = load volatile i32**, i32*** %11, align 8
  %36 = load i32*, i32** %.0..0..0.7, align 8
  %37 = call dereferenceable(4) i32* @_ZNKSt9_IdentityIiEclERi(%"struct.std::_Identity"* nonnull %30, i32* dereferenceable(4) %36)
  %.0..0..0.29 = load volatile %"class.std::_Rb_tree"*, %"class.std::_Rb_tree"** %4, align 8
  %38 = call { %"struct.std::_Rb_tree_node_base"*, %"struct.std::_Rb_tree_node_base"* } @_ZNSt8_Rb_treeIiiSt9_IdentityIiESt4lessIiESaIiEE24_M_get_insert_unique_posERKi(%"class.std::_Rb_tree"* %.0..0..0.29, i32* nonnull dereferenceable(4) %37)
  %.0..0..0.9 = load volatile %"struct.std::pair.8"*, %"struct.std::pair.8"** %10, align 8
  %39 = getelementptr %"struct.std::pair.8", %"struct.std::pair.8"* %.0..0..0.9, i64 0, i32 0
  %40 = extractvalue { %"struct.std::_Rb_tree_node_base"*, %"struct.std::_Rb_tree_node_base"* } %38, 0
  store %"struct.std::_Rb_tree_node_base"* %40, %"struct.std::_Rb_tree_node_base"** %39, align 8
  %41 = getelementptr inbounds %"struct.std::pair.8", %"struct.std::pair.8"* %.0..0..0.9, i64 0, i32 1
  %42 = extractvalue { %"struct.std::_Rb_tree_node_base"*, %"struct.std::_Rb_tree_node_base"* } %38, 1
  store %"struct.std::_Rb_tree_node_base"* %42, %"struct.std::_Rb_tree_node_base"** %41, align 8
  %.0..0..0.10 = load volatile %"struct.std::pair.8"*, %"struct.std::pair.8"** %10, align 8
  %43 = getelementptr inbounds %"struct.std::pair.8", %"struct.std::pair.8"* %.0..0..0.10, i64 0, i32 1
  %44 = load %"struct.std::_Rb_tree_node_base"*, %"struct.std::_Rb_tree_node_base"** %43, align 8
  %45 = icmp ne %"struct.std::_Rb_tree_node_base"* %44, null
  store i1 %45, i1* %3, align 1
  %46 = load i32, i32* @x.139, align 4
  %47 = load i32, i32* @y.140, align 4
  %48 = add i32 %46, -1
  %49 = mul i32 %48, %46
  %50 = and i32 %49, 1
  %51 = icmp eq i32 %50, 0
  %52 = icmp slt i32 %47, 10
  %53 = or i1 %52, %51
  %54 = select i1 %53, i32 -1685583494, i32 -1765512825
  br label %.backedge

55:                                               ; preds = %22
  %.0..0..0.32 = load volatile i1, i1* %3, align 1
  %56 = select i1 %.0..0..0.32, i32 1097958373, i32 1979948165
  br label %.backedge

57:                                               ; preds = %22
  %.0..0..0.15 = load volatile %"struct.std::_Rb_tree<int, int, std::_Identity<int>, std::less<int>, std::allocator<int> >::_Alloc_node"*, %"struct.std::_Rb_tree<int, int, std::_Identity<int>, std::less<int>, std::allocator<int> >::_Alloc_node"** %9, align 8
  %.0..0..0.30 = load volatile %"class.std::_Rb_tree"*, %"class.std::_Rb_tree"** %4, align 8
  call void @_ZNSt8_Rb_treeIiiSt9_IdentityIiESt4lessIiESaIiEE11_Alloc_nodeC2ERS5_(%"struct.std::_Rb_tree<int, int, std::_Identity<int>, std::less<int>, std::allocator<int> >::_Alloc_node"* %.0..0..0.15, %"class.std::_Rb_tree"* dereferenceable(48) %.0..0..0.30)
  %.0..0..0.11 = load volatile %"struct.std::pair.8"*, %"struct.std::pair.8"** %10, align 8
  %58 = getelementptr inbounds %"struct.std::pair.8", %"struct.std::pair.8"* %.0..0..0.11, i64 0, i32 0
  %59 = load %"struct.std::_Rb_tree_node_base"*, %"struct.std::_Rb_tree_node_base"** %58, align 8
  %.0..0..0.12 = load volatile %"struct.std::pair.8"*, %"struct.std::pair.8"** %10, align 8
  %60 = getelementptr inbounds %"struct.std::pair.8", %"struct.std::pair.8"* %.0..0..0.12, i64 0, i32 1
  %61 = load %"struct.std::_Rb_tree_node_base"*, %"struct.std::_Rb_tree_node_base"** %60, align 8
  %.0..0..0.8 = load volatile i32**, i32*** %11, align 8
  %62 = load i32*, i32** %.0..0..0.8, align 8
  %63 = call dereferenceable(4) i32* @_ZSt7forwardIiEOT_RNSt16remove_referenceIS0_E4typeE(i32* dereferenceable(4) %62) #13
  %.0..0..0.16 = load volatile %"struct.std::_Rb_tree<int, int, std::_Identity<int>, std::less<int>, std::allocator<int> >::_Alloc_node"*, %"struct.std::_Rb_tree<int, int, std::_Identity<int>, std::less<int>, std::allocator<int> >::_Alloc_node"** %9, align 8
  %.0..0..0.31 = load volatile %"class.std::_Rb_tree"*, %"class.std::_Rb_tree"** %4, align 8
  %64 = call %"struct.std::_Rb_tree_node_base"* @_ZNSt8_Rb_treeIiiSt9_IdentityIiESt4lessIiESaIiEE10_M_insert_IiNS5_11_Alloc_nodeEEESt17_Rb_tree_iteratorIiEPSt18_Rb_tree_node_baseSB_OT_RT0_(%"class.std::_Rb_tree"* %.0..0..0.31, %"struct.std::_Rb_tree_node_base"* %59, %"struct.std::_Rb_tree_node_base"* %61, i32* nonnull dereferenceable(4) %63, %"struct.std::_Rb_tree<int, int, std::_Identity<int>, std::less<int>, std::allocator<int> >::_Alloc_node"* dereferenceable(8) %.0..0..0.16)
  %.0..0..0.17 = load volatile %"struct.std::_Rb_tree_iterator"*, %"struct.std::_Rb_tree_iterator"** %8, align 8
  %65 = getelementptr inbounds %"struct.std::_Rb_tree_iterator", %"struct.std::_Rb_tree_iterator"* %.0..0..0.17, i64 0, i32 0
  store %"struct.std::_Rb_tree_node_base"* %64, %"struct.std::_Rb_tree_node_base"** %65, align 8
  %.0..0..0.19 = load volatile i8*, i8** %7, align 8
  store i8 1, i8* %.0..0..0.19, align 1
  %.0..0..0.2 = load volatile %"struct.std::pair.6"*, %"struct.std::pair.6"** %12, align 8
  %.0..0..0.18 = load volatile %"struct.std::_Rb_tree_iterator"*, %"struct.std::_Rb_tree_iterator"** %8, align 8
  %.0..0..0.20 = load volatile i8*, i8** %7, align 8
  call void @_ZNSt4pairISt17_Rb_tree_iteratorIiEbEC2IS1_bvEEOT_OT0_(%"struct.std::pair.6"* %.0..0..0.2, %"struct.std::_Rb_tree_iterator"* dereferenceable(8) %.0..0..0.18, i8* dereferenceable(1) %.0..0..0.20)
  br label %.backedge

66:                                               ; preds = %22
  %67 = load i32, i32* @x.139, align 4
  %68 = load i32, i32* @y.140, align 4
  %69 = add i32 %67, -1
  %70 = mul i32 %69, %67
  %71 = and i32 %70, 1
  %72 = icmp eq i32 %71, 0
  %73 = icmp slt i32 %68, 10
  %74 = or i1 %73, %72
  %75 = select i1 %74, i32 -246809019, i32 -564448045
  br label %.backedge

76:                                               ; preds = %22
  %.0..0..0.13 = load volatile %"struct.std::pair.8"*, %"struct.std::pair.8"** %10, align 8
  %77 = getelementptr inbounds %"struct.std::pair.8", %"struct.std::pair.8"* %.0..0..0.13, i64 0, i32 0
  %78 = load %"struct.std::_Rb_tree_node_base"*, %"struct.std::_Rb_tree_node_base"** %77, align 8
  %.0..0..0.21 = load volatile %"struct.std::_Rb_tree_iterator"*, %"struct.std::_Rb_tree_iterator"** %6, align 8
  call void @_ZNSt17_Rb_tree_iteratorIiEC2EPSt18_Rb_tree_node_base(%"struct.std::_Rb_tree_iterator"* %.0..0..0.21, %"struct.std::_Rb_tree_node_base"* %78) #13
  %.0..0..0.25 = load volatile i8*, i8** %5, align 8
  store i8 0, i8* %.0..0..0.25, align 1
  %.0..0..0.3 = load volatile %"struct.std::pair.6"*, %"struct.std::pair.6"** %12, align 8
  %.0..0..0.22 = load volatile %"struct.std::_Rb_tree_iterator"*, %"struct.std::_Rb_tree_iterator"** %6, align 8
  %.0..0..0.26 = load volatile i8*, i8** %5, align 8
  call void @_ZNSt4pairISt17_Rb_tree_iteratorIiEbEC2IS1_bvEEOT_OT0_(%"struct.std::pair.6"* %.0..0..0.3, %"struct.std::_Rb_tree_iterator"* dereferenceable(8) %.0..0..0.22, i8* dereferenceable(1) %.0..0..0.26)
  %79 = load i32, i32* @x.139, align 4
  %80 = load i32, i32* @y.140, align 4
  %81 = add i32 %79, -1
  %82 = mul i32 %81, %79
  %83 = and i32 %82, 1
  %84 = icmp eq i32 %83, 0
  %85 = icmp slt i32 %80, 10
  %86 = or i1 %85, %84
  %87 = select i1 %86, i32 171647532, i32 -564448045
  br label %.backedge

88:                                               ; preds = %22
  br label %.backedge

89:                                               ; preds = %22
  %.0..0..0.4 = load volatile %"struct.std::pair.6"*, %"struct.std::pair.6"** %12, align 8
  %90 = bitcast %"struct.std::pair.6"* %.0..0..0.4 to { %"struct.std::_Rb_tree_node_base"*, i8 }*
  %91 = load { %"struct.std::_Rb_tree_node_base"*, i8 }, { %"struct.std::_Rb_tree_node_base"*, i8 }* %90, align 8
  ret { %"struct.std::_Rb_tree_node_base"*, i8 } %91

92:                                               ; preds = %22
  %93 = alloca %"struct.std::_Identity", align 1
  %94 = call dereferenceable(4) i32* @_ZNKSt9_IdentityIiEclERi(%"struct.std::_Identity"* nonnull %93, i32* nonnull dereferenceable(4) %1)
  %95 = call { %"struct.std::_Rb_tree_node_base"*, %"struct.std::_Rb_tree_node_base"* } @_ZNSt8_Rb_treeIiiSt9_IdentityIiESt4lessIiESaIiEE24_M_get_insert_unique_posERKi(%"class.std::_Rb_tree"* %0, i32* nonnull dereferenceable(4) %94)
  br label %.backedge

96:                                               ; preds = %22
  %.0..0..0.14 = load volatile %"struct.std::pair.8"*, %"struct.std::pair.8"** %10, align 8
  %97 = getelementptr inbounds %"struct.std::pair.8", %"struct.std::pair.8"* %.0..0..0.14, i64 0, i32 0
  %98 = load %"struct.std::_Rb_tree_node_base"*, %"struct.std::_Rb_tree_node_base"** %97, align 8
  %.0..0..0.23 = load volatile %"struct.std::_Rb_tree_iterator"*, %"struct.std::_Rb_tree_iterator"** %6, align 8
  call void @_ZNSt17_Rb_tree_iteratorIiEC2EPSt18_Rb_tree_node_base(%"struct.std::_Rb_tree_iterator"* %.0..0..0.23, %"struct.std::_Rb_tree_node_base"* %98) #13
  %.0..0..0.27 = load volatile i8*, i8** %5, align 8
  store i8 0, i8* %.0..0..0.27, align 1
  %.0..0..0.5 = load volatile %"struct.std::pair.6"*, %"struct.std::pair.6"** %12, align 8
  %.0..0..0.24 = load volatile %"struct.std::_Rb_tree_iterator"*, %"struct.std::_Rb_tree_iterator"** %6, align 8
  %.0..0..0.28 = load volatile i8*, i8** %5, align 8
  call void @_ZNSt4pairISt17_Rb_tree_iteratorIiEbEC2IS1_bvEEOT_OT0_(%"struct.std::pair.6"* %.0..0..0.5, %"struct.std::_Rb_tree_iterator"* dereferenceable(8) %.0..0..0.24, i8* dereferenceable(1) %.0..0..0.28)
  br label %.backedge
}

; Function Attrs: noinline nounwind uwtable
define linkonce_odr dereferenceable(4) i32* @_ZSt4moveIRiEONSt16remove_referenceIT_E4typeEOS2_(i32* dereferenceable(4) %0) local_unnamed_addr #5 comdat {
  ret i32* %0
}

; Function Attrs: noinline nounwind uwtable
define linkonce_odr void @_ZNSt4pairISt23_Rb_tree_const_iteratorIiEbEC2IRSt17_Rb_tree_iteratorIiERbvEEOT_OT0_(%"struct.std::pair"* %0, %"struct.std::_Rb_tree_iterator"* dereferenceable(8) %1, i8* dereferenceable(1) %2) unnamed_addr #5 comdat align 2 {
  %4 = getelementptr inbounds %"struct.std::pair", %"struct.std::pair"* %0, i64 0, i32 0
  %5 = tail call dereferenceable(8) %"struct.std::_Rb_tree_iterator"* @_ZSt7forwardIRSt17_Rb_tree_iteratorIiEEOT_RNSt16remove_referenceIS3_E4typeE(%"struct.std::_Rb_tree_iterator"* nonnull dereferenceable(8) %1) #13
  tail call void @_ZNSt23_Rb_tree_const_iteratorIiEC2ERKSt17_Rb_tree_iteratorIiE(%"struct.std::_Rb_tree_const_iterator"* %4, %"struct.std::_Rb_tree_iterator"* nonnull dereferenceable(8) %5) #13
  %6 = getelementptr inbounds %"struct.std::pair", %"struct.std::pair"* %0, i64 0, i32 1
  %7 = tail call dereferenceable(1) i8* @_ZSt7forwardIRbEOT_RNSt16remove_referenceIS1_E4typeE(i8* nonnull dereferenceable(1) %2) #13
  %8 = load i8, i8* %7, align 1
  %9 = and i8 %8, 1
  store i8 %9, i8* %6, align 8
  ret void
}

; Function Attrs: noinline uwtable
define linkonce_odr { %"struct.std::_Rb_tree_node_base"*, %"struct.std::_Rb_tree_node_base"* } @_ZNSt8_Rb_treeIiiSt9_IdentityIiESt4lessIiESaIiEE24_M_get_insert_unique_posERKi(%"class.std::_Rb_tree"* %0, i32* dereferenceable(4) %1) local_unnamed_addr #0 comdat align 2 {
  %3 = alloca %"struct.std::_Rb_tree_node"*, align 8
  %4 = alloca <2 x %"struct.std::_Rb_tree_node_base"*>, align 16
  %5 = alloca i1, align 1
  %6 = alloca %"class.std::_Rb_tree"*, align 8
  %7 = alloca <2 x %"struct.std::_Rb_tree_node_base"*>, align 16
  %tmpcast = bitcast <2 x %"struct.std::_Rb_tree_node_base"*>* %7 to %"struct.std::pair.8"*
  %8 = alloca %"struct.std::_Rb_tree_node"*, align 8
  %9 = alloca %"struct.std::_Rb_tree_node"*, align 8
  %10 = alloca %"struct.std::_Rb_tree_iterator", align 8
  %11 = alloca %"struct.std::_Rb_tree_iterator", align 8
  %12 = alloca %"struct.std::_Rb_tree_node_base"*, align 8
  store %"class.std::_Rb_tree"* %0, %"class.std::_Rb_tree"** %6, align 8
  %.0..0..0.13 = load volatile %"class.std::_Rb_tree"*, %"class.std::_Rb_tree"** %6, align 8
  %13 = tail call %"struct.std::_Rb_tree_node"* @_ZNSt8_Rb_treeIiiSt9_IdentityIiESt4lessIiESaIiEE8_M_beginEv(%"class.std::_Rb_tree"* %.0..0..0.13) #13
  store %"struct.std::_Rb_tree_node"* %13, %"struct.std::_Rb_tree_node"** %8, align 8
  %.0..0..0.14 = load volatile %"class.std::_Rb_tree"*, %"class.std::_Rb_tree"** %6, align 8
  %14 = tail call %"struct.std::_Rb_tree_node"* @_ZNSt8_Rb_treeIiiSt9_IdentityIiESt4lessIiESaIiEE6_M_endEv(%"class.std::_Rb_tree"* %.0..0..0.14) #13
  store %"struct.std::_Rb_tree_node"* %14, %"struct.std::_Rb_tree_node"** %9, align 8
  %15 = bitcast %"struct.std::_Rb_tree_node"** %9 to %"struct.std::_Rb_tree_node_base"**
  %16 = getelementptr inbounds %"struct.std::_Rb_tree_iterator", %"struct.std::_Rb_tree_iterator"* %10, i64 0, i32 0
  %17 = getelementptr inbounds %"struct.std::_Rb_tree_iterator", %"struct.std::_Rb_tree_iterator"* %11, i64 0, i32 0
  %18 = bitcast %"struct.std::_Rb_tree_node"** %8 to %"struct.std::_Rb_tree_node_base"**
  br label %19

19:                                               ; preds = %.backedge, %2
  %.024 = phi i8 [ 1, %2 ], [ %.024.be, %.backedge ]
  %.022 = phi i32 [ -1187257172, %2 ], [ %.022.be, %.backedge ]
  %.0 = phi %"struct.std::_Rb_tree_node"* [ undef, %2 ], [ %.0.be, %.backedge ]
  switch i32 %.022, label %.backedge [
    i32 -1187257172, label %20
    i32 2015050807, label %23
    i32 1539648007, label %30
    i32 90865472, label %33
    i32 350725075, label %36
    i32 641558338, label %46
    i32 -1521372883, label %56
    i32 1564239026, label %57
    i32 -1533647567, label %67
    i32 -798371112, label %79
    i32 923439556, label %81
    i32 -2056692409, label %85
    i32 -411077733, label %86
    i32 -1327270925, label %96
    i32 -543403233, label %107
    i32 113284488, label %108
    i32 -1873065137, label %118
    i32 -826346493, label %128
    i32 -592669108, label %129
    i32 -757271768, label %135
    i32 825085858, label %136
    i32 584864753, label %137
    i32 1359960684, label %147
    i32 457827051, label %158
    i32 769422810, label %159
    i32 1635424364, label %160
    i32 552393700, label %162
    i32 -853122581, label %164
    i32 2076931787, label %165
  ]

.backedge:                                        ; preds = %19, %165, %164, %162, %160, %159, %147, %137, %136, %135, %129, %128, %118, %108, %107, %96, %86, %85, %81, %79, %67, %57, %56, %46, %36, %33, %30, %23, %20
  %.024.be = phi i8 [ %.024, %19 ], [ %.024, %165 ], [ %.024, %164 ], [ %.024, %162 ], [ %.024, %160 ], [ %.024, %159 ], [ %.024, %147 ], [ %.024, %137 ], [ %.024, %136 ], [ %.024, %135 ], [ %.024, %129 ], [ %.024, %128 ], [ %.024, %118 ], [ %.024, %108 ], [ %.024, %107 ], [ %.024, %96 ], [ %.024, %86 ], [ %.024, %85 ], [ %.024, %81 ], [ %.024, %79 ], [ %.024, %67 ], [ %.024, %57 ], [ %.024, %56 ], [ %.024, %46 ], [ %.024, %36 ], [ %.024, %33 ], [ %.024, %30 ], [ %28, %23 ], [ %.024, %20 ]
  %.022.be = phi i32 [ %.022, %19 ], [ 1359960684, %165 ], [ -1873065137, %164 ], [ -1327270925, %162 ], [ -1533647567, %160 ], [ 641558338, %159 ], [ %157, %147 ], [ %146, %137 ], [ 584864753, %136 ], [ 584864753, %135 ], [ %134, %129 ], [ -592669108, %128 ], [ %127, %118 ], [ %117, %108 ], [ 113284488, %107 ], [ %106, %96 ], [ %95, %86 ], [ 584864753, %85 ], [ %84, %81 ], [ %80, %79 ], [ %78, %67 ], [ %66, %57 ], [ -1187257172, %56 ], [ %55, %46 ], [ %45, %36 ], [ 350725075, %33 ], [ 350725075, %30 ], [ %29, %23 ], [ %22, %20 ]
  %.0.be = phi %"struct.std::_Rb_tree_node"* [ %.0, %19 ], [ %.0, %165 ], [ %.0, %164 ], [ %.0, %162 ], [ %.0, %160 ], [ %.0, %159 ], [ %.0, %147 ], [ %.0, %137 ], [ %.0, %136 ], [ %.0, %135 ], [ %.0, %129 ], [ %.0, %128 ], [ %.0, %118 ], [ %.0, %108 ], [ %.0, %107 ], [ %.0, %96 ], [ %.0, %86 ], [ %.0, %85 ], [ %.0, %81 ], [ %.0, %79 ], [ %.0, %67 ], [ %.0, %57 ], [ %.0, %56 ], [ %.0, %46 ], [ %.0, %36 ], [ %35, %33 ], [ %32, %30 ], [ %.0, %23 ], [ %.0, %20 ]
  br label %19

20:                                               ; preds = %19
  %21 = load %"struct.std::_Rb_tree_node"*, %"struct.std::_Rb_tree_node"** %8, align 8
  %.not = icmp eq %"struct.std::_Rb_tree_node"* %21, null
  %22 = select i1 %.not, i32 1564239026, i32 2015050807
  br label %.backedge

23:                                               ; preds = %19
  %24 = load %"struct.std::_Rb_tree_node"*, %"struct.std::_Rb_tree_node"** %8, align 8
  store %"struct.std::_Rb_tree_node"* %24, %"struct.std::_Rb_tree_node"** %9, align 8
  %.0..0..0.15 = load volatile %"class.std::_Rb_tree"*, %"class.std::_Rb_tree"** %6, align 8
  %25 = getelementptr inbounds %"class.std::_Rb_tree", %"class.std::_Rb_tree"* %.0..0..0.15, i64 0, i32 0, i32 0
  %26 = call dereferenceable(4) i32* @_ZNSt8_Rb_treeIiiSt9_IdentityIiESt4lessIiESaIiEE6_S_keyEPKSt13_Rb_tree_nodeIiE(%"struct.std::_Rb_tree_node"* %24)
  %27 = call zeroext i1 @_ZNKSt4lessIiEclERKiS2_(%"struct.std::less"* %25, i32* nonnull dereferenceable(4) %1, i32* nonnull dereferenceable(4) %26)
  %28 = zext i1 %27 to i8
  %29 = select i1 %27, i32 1539648007, i32 90865472
  br label %.backedge

30:                                               ; preds = %19
  %31 = load %"struct.std::_Rb_tree_node_base"*, %"struct.std::_Rb_tree_node_base"** %18, align 8
  %32 = call %"struct.std::_Rb_tree_node"* @_ZNSt8_Rb_treeIiiSt9_IdentityIiESt4lessIiESaIiEE7_S_leftEPSt18_Rb_tree_node_base(%"struct.std::_Rb_tree_node_base"* %31) #13
  br label %.backedge

33:                                               ; preds = %19
  %34 = load %"struct.std::_Rb_tree_node_base"*, %"struct.std::_Rb_tree_node_base"** %18, align 8
  %35 = call %"struct.std::_Rb_tree_node"* @_ZNSt8_Rb_treeIiiSt9_IdentityIiESt4lessIiESaIiEE8_S_rightEPSt18_Rb_tree_node_base(%"struct.std::_Rb_tree_node_base"* %34) #13
  br label %.backedge

36:                                               ; preds = %19
  store %"struct.std::_Rb_tree_node"* %.0, %"struct.std::_Rb_tree_node"** %3, align 8
  %37 = load i32, i32* @x.145, align 4
  %38 = load i32, i32* @y.146, align 4
  %39 = add i32 %37, -1
  %40 = mul i32 %39, %37
  %41 = and i32 %40, 1
  %42 = icmp eq i32 %41, 0
  %43 = icmp slt i32 %38, 10
  %44 = or i1 %43, %42
  %45 = select i1 %44, i32 641558338, i32 769422810
  br label %.backedge

46:                                               ; preds = %19
  %.0..0..0.20 = load volatile %"struct.std::_Rb_tree_node"*, %"struct.std::_Rb_tree_node"** %3, align 8
  store %"struct.std::_Rb_tree_node"* %.0..0..0.20, %"struct.std::_Rb_tree_node"** %8, align 8
  %47 = load i32, i32* @x.145, align 4
  %48 = load i32, i32* @y.146, align 4
  %49 = add i32 %47, -1
  %50 = mul i32 %49, %47
  %51 = and i32 %50, 1
  %52 = icmp eq i32 %51, 0
  %53 = icmp slt i32 %48, 10
  %54 = or i1 %53, %52
  %55 = select i1 %54, i32 -1521372883, i32 769422810
  br label %.backedge

56:                                               ; preds = %19
  br label %.backedge

57:                                               ; preds = %19
  %58 = load i32, i32* @x.145, align 4
  %59 = load i32, i32* @y.146, align 4
  %60 = add i32 %58, -1
  %61 = mul i32 %60, %58
  %62 = and i32 %61, 1
  %63 = icmp eq i32 %62, 0
  %64 = icmp slt i32 %59, 10
  %65 = or i1 %64, %63
  %66 = select i1 %65, i32 -1533647567, i32 1635424364
  br label %.backedge

67:                                               ; preds = %19
  %68 = load %"struct.std::_Rb_tree_node_base"*, %"struct.std::_Rb_tree_node_base"** %15, align 8
  call void @_ZNSt17_Rb_tree_iteratorIiEC2EPSt18_Rb_tree_node_base(%"struct.std::_Rb_tree_iterator"* nonnull %10, %"struct.std::_Rb_tree_node_base"* %68) #13
  %69 = icmp ne i8 %.024, 0
  store i1 %69, i1* %5, align 1
  %70 = load i32, i32* @x.145, align 4
  %71 = load i32, i32* @y.146, align 4
  %72 = add i32 %70, -1
  %73 = mul i32 %72, %70
  %74 = and i32 %73, 1
  %75 = icmp eq i32 %74, 0
  %76 = icmp slt i32 %71, 10
  %77 = or i1 %76, %75
  %78 = select i1 %77, i32 -798371112, i32 1635424364
  br label %.backedge

79:                                               ; preds = %19
  %.0..0..0.18 = load volatile i1, i1* %5, align 1
  %80 = select i1 %.0..0..0.18, i32 923439556, i32 -592669108
  br label %.backedge

81:                                               ; preds = %19
  %.0..0..0.16 = load volatile %"class.std::_Rb_tree"*, %"class.std::_Rb_tree"** %6, align 8
  %82 = call %"struct.std::_Rb_tree_node_base"* @_ZNSt8_Rb_treeIiiSt9_IdentityIiESt4lessIiESaIiEE5beginEv(%"class.std::_Rb_tree"* %.0..0..0.16) #13
  store %"struct.std::_Rb_tree_node_base"* %82, %"struct.std::_Rb_tree_node_base"** %17, align 8
  %83 = call zeroext i1 @_ZNKSt17_Rb_tree_iteratorIiEeqERKS0_(%"struct.std::_Rb_tree_iterator"* nonnull %10, %"struct.std::_Rb_tree_iterator"* nonnull dereferenceable(8) %11) #13
  %84 = select i1 %83, i32 -2056692409, i32 -411077733
  br label %.backedge

85:                                               ; preds = %19
  call void @_ZNSt4pairIPSt18_Rb_tree_node_baseS1_EC2IRPSt13_Rb_tree_nodeIiES7_vEEOT_OT0_(%"struct.std::pair.8"* nonnull %tmpcast, %"struct.std::_Rb_tree_node"** nonnull dereferenceable(8) %8, %"struct.std::_Rb_tree_node"** nonnull dereferenceable(8) %9)
  br label %.backedge

86:                                               ; preds = %19
  %87 = load i32, i32* @x.145, align 4
  %88 = load i32, i32* @y.146, align 4
  %89 = add i32 %87, -1
  %90 = mul i32 %89, %87
  %91 = and i32 %90, 1
  %92 = icmp eq i32 %91, 0
  %93 = icmp slt i32 %88, 10
  %94 = or i1 %93, %92
  %95 = select i1 %94, i32 -1327270925, i32 552393700
  br label %.backedge

96:                                               ; preds = %19
  %97 = call dereferenceable(8) %"struct.std::_Rb_tree_iterator"* @_ZNSt17_Rb_tree_iteratorIiEmmEv(%"struct.std::_Rb_tree_iterator"* nonnull %10) #13
  %98 = load i32, i32* @x.145, align 4
  %99 = load i32, i32* @y.146, align 4
  %100 = add i32 %98, -1
  %101 = mul i32 %100, %98
  %102 = and i32 %101, 1
  %103 = icmp eq i32 %102, 0
  %104 = icmp slt i32 %99, 10
  %105 = or i1 %104, %103
  %106 = select i1 %105, i32 -543403233, i32 552393700
  br label %.backedge

107:                                              ; preds = %19
  br label %.backedge

108:                                              ; preds = %19
  %109 = load i32, i32* @x.145, align 4
  %110 = load i32, i32* @y.146, align 4
  %111 = add i32 %109, -1
  %112 = mul i32 %111, %109
  %113 = and i32 %112, 1
  %114 = icmp eq i32 %113, 0
  %115 = icmp slt i32 %110, 10
  %116 = or i1 %115, %114
  %117 = select i1 %116, i32 -1873065137, i32 -853122581
  br label %.backedge

118:                                              ; preds = %19
  %119 = load i32, i32* @x.145, align 4
  %120 = load i32, i32* @y.146, align 4
  %121 = add i32 %119, -1
  %122 = mul i32 %121, %119
  %123 = and i32 %122, 1
  %124 = icmp eq i32 %123, 0
  %125 = icmp slt i32 %120, 10
  %126 = or i1 %125, %124
  %127 = select i1 %126, i32 -826346493, i32 -853122581
  br label %.backedge

128:                                              ; preds = %19
  br label %.backedge

129:                                              ; preds = %19
  %.0..0..0.17 = load volatile %"class.std::_Rb_tree"*, %"class.std::_Rb_tree"** %6, align 8
  %130 = getelementptr inbounds %"class.std::_Rb_tree", %"class.std::_Rb_tree"* %.0..0..0.17, i64 0, i32 0, i32 0
  %131 = load %"struct.std::_Rb_tree_node_base"*, %"struct.std::_Rb_tree_node_base"** %16, align 8
  %132 = call dereferenceable(4) i32* @_ZNSt8_Rb_treeIiiSt9_IdentityIiESt4lessIiESaIiEE6_S_keyEPKSt18_Rb_tree_node_base(%"struct.std::_Rb_tree_node_base"* %131)
  %133 = call zeroext i1 @_ZNKSt4lessIiEclERKiS2_(%"struct.std::less"* %130, i32* nonnull dereferenceable(4) %132, i32* nonnull dereferenceable(4) %1)
  %134 = select i1 %133, i32 -757271768, i32 825085858
  br label %.backedge

135:                                              ; preds = %19
  call void @_ZNSt4pairIPSt18_Rb_tree_node_baseS1_EC2IRPSt13_Rb_tree_nodeIiES7_vEEOT_OT0_(%"struct.std::pair.8"* nonnull %tmpcast, %"struct.std::_Rb_tree_node"** nonnull dereferenceable(8) %8, %"struct.std::_Rb_tree_node"** nonnull dereferenceable(8) %9)
  br label %.backedge

136:                                              ; preds = %19
  store %"struct.std::_Rb_tree_node_base"* null, %"struct.std::_Rb_tree_node_base"** %12, align 8
  call void @_ZNSt4pairIPSt18_Rb_tree_node_baseS1_EC2IRS1_vEEOT_RKS1_(%"struct.std::pair.8"* nonnull %tmpcast, %"struct.std::_Rb_tree_node_base"** nonnull dereferenceable(8) %16, %"struct.std::_Rb_tree_node_base"** nonnull dereferenceable(8) %12)
  br label %.backedge

137:                                              ; preds = %19
  %138 = load i32, i32* @x.145, align 4
  %139 = load i32, i32* @y.146, align 4
  %140 = add i32 %138, -1
  %141 = mul i32 %140, %138
  %142 = and i32 %141, 1
  %143 = icmp eq i32 %142, 0
  %144 = icmp slt i32 %139, 10
  %145 = or i1 %144, %143
  %146 = select i1 %145, i32 1359960684, i32 2076931787
  br label %.backedge

147:                                              ; preds = %19
  %148 = load <2 x %"struct.std::_Rb_tree_node_base"*>, <2 x %"struct.std::_Rb_tree_node_base"*>* %7, align 16
  store <2 x %"struct.std::_Rb_tree_node_base"*> %148, <2 x %"struct.std::_Rb_tree_node_base"*>* %4, align 16
  %149 = load i32, i32* @x.145, align 4
  %150 = load i32, i32* @y.146, align 4
  %151 = add i32 %149, -1
  %152 = mul i32 %151, %149
  %153 = and i32 %152, 1
  %154 = icmp eq i32 %153, 0
  %155 = icmp slt i32 %150, 10
  %156 = or i1 %155, %154
  %157 = select i1 %156, i32 457827051, i32 2076931787
  br label %.backedge

158:                                              ; preds = %19
  %tmpcast28 = bitcast <2 x %"struct.std::_Rb_tree_node_base"*>* %4 to { %"struct.std::_Rb_tree_node_base"*, %"struct.std::_Rb_tree_node_base"* }*
  %.0..0..0.19 = load volatile { %"struct.std::_Rb_tree_node_base"*, %"struct.std::_Rb_tree_node_base"* }, { %"struct.std::_Rb_tree_node_base"*, %"struct.std::_Rb_tree_node_base"* }* %tmpcast28, align 16
  ret { %"struct.std::_Rb_tree_node_base"*, %"struct.std::_Rb_tree_node_base"* } %.0..0..0.19

159:                                              ; preds = %19
  %.0..0..0.21 = load volatile %"struct.std::_Rb_tree_node"*, %"struct.std::_Rb_tree_node"** %3, align 8
  store %"struct.std::_Rb_tree_node"* %.0..0..0.21, %"struct.std::_Rb_tree_node"** %8, align 8
  br label %.backedge

160:                                              ; preds = %19
  %161 = load %"struct.std::_Rb_tree_node_base"*, %"struct.std::_Rb_tree_node_base"** %15, align 8
  call void @_ZNSt17_Rb_tree_iteratorIiEC2EPSt18_Rb_tree_node_base(%"struct.std::_Rb_tree_iterator"* nonnull %10, %"struct.std::_Rb_tree_node_base"* %161) #13
  br label %.backedge

162:                                              ; preds = %19
  %163 = call dereferenceable(8) %"struct.std::_Rb_tree_iterator"* @_ZNSt17_Rb_tree_iteratorIiEmmEv(%"struct.std::_Rb_tree_iterator"* nonnull %10) #13
  br label %.backedge

164:                                              ; preds = %19
  br label %.backedge

165:                                              ; preds = %19
  br label %.backedge
}

; Function Attrs: noinline nounwind uwtable
define linkonce_odr dereferenceable(4) i32* @_ZNKSt9_IdentityIiEclERi(%"struct.std::_Identity"* %0, i32* dereferenceable(4) %1) local_unnamed_addr #5 comdat align 2 {
  ret i32* %1
}

; Function Attrs: noinline nounwind uwtable
define linkonce_odr void @_ZNSt8_Rb_treeIiiSt9_IdentityIiESt4lessIiESaIiEE11_Alloc_nodeC2ERS5_(%"struct.std::_Rb_tree<int, int, std::_Identity<int>, std::less<int>, std::allocator<int> >::_Alloc_node"* %0, %"class.std::_Rb_tree"* dereferenceable(48) %1) unnamed_addr #5 comdat align 2 {
  %3 = alloca i1, align 1
  %4 = alloca i1, align 1
  %5 = load i32, i32* @x.149, align 4
  %6 = load i32, i32* @y.150, align 4
  %7 = add i32 %5, -1
  %8 = mul i32 %7, %5
  %9 = and i32 %8, 1
  %10 = icmp eq i32 %9, 0
  store i1 %10, i1* %4, align 1
  %11 = icmp slt i32 %6, 10
  store i1 %11, i1* %3, align 1
  %12 = getelementptr inbounds %"struct.std::_Rb_tree<int, int, std::_Identity<int>, std::less<int>, std::allocator<int> >::_Alloc_node", %"struct.std::_Rb_tree<int, int, std::_Identity<int>, std::less<int>, std::allocator<int> >::_Alloc_node"* %0, i64 0, i32 0
  br label %.outer

.outer:                                           ; preds = %.outer.backedge, %2
  %.0.ph = phi i32 [ -740415844, %2 ], [ %.0.ph.be, %.outer.backedge ]
  br label %13

13:                                               ; preds = %.outer, %13
  switch i32 %.0.ph, label %13 [
    i32 -740415844, label %14
    i32 -2142696918, label %17
    i32 -417694754, label %27
    i32 -1179252778, label %28
  ]

14:                                               ; preds = %13
  %.0..0..0. = load volatile i1, i1* %4, align 1
  %.0..0..0.1 = load volatile i1, i1* %3, align 1
  %15 = or i1 %.0..0..0., %.0..0..0.1
  %16 = select i1 %15, i32 -2142696918, i32 -1179252778
  br label %.outer.backedge

17:                                               ; preds = %13
  store %"class.std::_Rb_tree"* %1, %"class.std::_Rb_tree"** %12, align 8
  %18 = load i32, i32* @x.149, align 4
  %19 = load i32, i32* @y.150, align 4
  %20 = add i32 %18, -1
  %21 = mul i32 %20, %18
  %22 = and i32 %21, 1
  %23 = icmp eq i32 %22, 0
  %24 = icmp slt i32 %19, 10
  %25 = or i1 %24, %23
  %26 = select i1 %25, i32 -417694754, i32 -1179252778
  br label %.outer.backedge

27:                                               ; preds = %13
  ret void

28:                                               ; preds = %13
  store %"class.std::_Rb_tree"* %1, %"class.std::_Rb_tree"** %12, align 8
  br label %.outer.backedge

.outer.backedge:                                  ; preds = %28, %17, %14
  %.0.ph.be = phi i32 [ %16, %14 ], [ %26, %17 ], [ -2142696918, %28 ]
  br label %.outer
}

; Function Attrs: noinline uwtable
define linkonce_odr %"struct.std::_Rb_tree_node_base"* @_ZNSt8_Rb_treeIiiSt9_IdentityIiESt4lessIiESaIiEE10_M_insert_IiNS5_11_Alloc_nodeEEESt17_Rb_tree_iteratorIiEPSt18_Rb_tree_node_baseSB_OT_RT0_(%"class.std::_Rb_tree"* %0, %"struct.std::_Rb_tree_node_base"* %1, %"struct.std::_Rb_tree_node_base"* %2, i32* dereferenceable(4) %3, %"struct.std::_Rb_tree<int, int, std::_Identity<int>, std::less<int>, std::allocator<int> >::_Alloc_node"* dereferenceable(8) %4) local_unnamed_addr #0 comdat align 2 {
  %6 = alloca i1, align 1
  %7 = alloca %"struct.std::_Rb_tree_node_base"*, align 8
  %8 = alloca %"class.std::_Rb_tree"*, align 8
  %9 = alloca %"struct.std::_Rb_tree_iterator", align 8
  %10 = alloca %"struct.std::_Identity", align 1
  store %"class.std::_Rb_tree"* %0, %"class.std::_Rb_tree"** %8, align 8
  store %"struct.std::_Rb_tree_node_base"* %1, %"struct.std::_Rb_tree_node_base"** %7, align 8
  br label %.outer.outer

.outer.outer:                                     ; preds = %.outer.outer.backedge, %5
  %.020.ph.ph = phi i32 [ -128092577, %5 ], [ %.020.ph.ph.be, %.outer.outer.backedge ]
  %.0.ph.ph = phi i1 [ undef, %5 ], [ %.0.ph.ph.be, %.outer.outer.backedge ]
  br label %.outer

.outer:                                           ; preds = %.outer.backedge, %.outer.outer
  %.020.ph = phi i32 [ %.020.ph.ph, %.outer.outer ], [ %.020.ph.be, %.outer.backedge ]
  br label %11

11:                                               ; preds = %.outer, %11
  switch i32 %.020.ph, label %11 [
    i32 -128092577, label %12
    i32 1957226535, label %14
    i32 776305760, label %24
    i32 -1942987205, label %37
    i32 -942784155, label %39
    i32 -1267024012, label %44
    i32 -1148230138, label %54
  ]

12:                                               ; preds = %11
  %.0..0..0.18 = load volatile %"struct.std::_Rb_tree_node_base"*, %"struct.std::_Rb_tree_node_base"** %7, align 8
  %.not = icmp eq %"struct.std::_Rb_tree_node_base"* %.0..0..0.18, null
  %13 = select i1 %.not, i32 1957226535, i32 -1267024012
  br label %.outer.outer.backedge

.outer.outer.backedge:                            ; preds = %12, %37, %39
  %.020.ph.ph.be = phi i32 [ -1267024012, %39 ], [ %38, %37 ], [ %13, %12 ]
  %.0.ph.ph.be = phi i1 [ %43, %39 ], [ true, %37 ], [ true, %12 ]
  br label %.outer.outer

14:                                               ; preds = %11
  %15 = load i32, i32* @x.151, align 4
  %16 = load i32, i32* @y.152, align 4
  %17 = add i32 %15, -1
  %18 = mul i32 %17, %15
  %19 = and i32 %18, 1
  %20 = icmp eq i32 %19, 0
  %21 = icmp slt i32 %16, 10
  %22 = or i1 %21, %20
  %23 = select i1 %22, i32 776305760, i32 -1148230138
  br label %.outer.backedge

24:                                               ; preds = %11
  %.0..0..0.13 = load volatile %"class.std::_Rb_tree"*, %"class.std::_Rb_tree"** %8, align 8
  %25 = call %"struct.std::_Rb_tree_node"* @_ZNSt8_Rb_treeIiiSt9_IdentityIiESt4lessIiESaIiEE6_M_endEv(%"class.std::_Rb_tree"* %.0..0..0.13) #13
  %26 = getelementptr %"struct.std::_Rb_tree_node", %"struct.std::_Rb_tree_node"* %25, i64 0, i32 0
  %27 = icmp eq %"struct.std::_Rb_tree_node_base"* %26, %2
  store i1 %27, i1* %6, align 1
  %28 = load i32, i32* @x.151, align 4
  %29 = load i32, i32* @y.152, align 4
  %30 = add i32 %28, -1
  %31 = mul i32 %30, %28
  %32 = and i32 %31, 1
  %33 = icmp eq i32 %32, 0
  %34 = icmp slt i32 %29, 10
  %35 = or i1 %34, %33
  %36 = select i1 %35, i32 -1942987205, i32 -1148230138
  br label %.outer.backedge

37:                                               ; preds = %11
  %.0..0..0.19 = load volatile i1, i1* %6, align 1
  %38 = select i1 %.0..0..0.19, i32 -1267024012, i32 -942784155
  br label %.outer.outer.backedge

39:                                               ; preds = %11
  %.0..0..0.14 = load volatile %"class.std::_Rb_tree"*, %"class.std::_Rb_tree"** %8, align 8
  %40 = getelementptr inbounds %"class.std::_Rb_tree", %"class.std::_Rb_tree"* %.0..0..0.14, i64 0, i32 0, i32 0
  %41 = call dereferenceable(4) i32* @_ZNKSt9_IdentityIiEclERi(%"struct.std::_Identity"* nonnull %10, i32* nonnull dereferenceable(4) %3)
  %42 = call dereferenceable(4) i32* @_ZNSt8_Rb_treeIiiSt9_IdentityIiESt4lessIiESaIiEE6_S_keyEPKSt18_Rb_tree_node_base(%"struct.std::_Rb_tree_node_base"* %2)
  %43 = call zeroext i1 @_ZNKSt4lessIiEclERKiS2_(%"struct.std::less"* %40, i32* nonnull dereferenceable(4) %41, i32* nonnull dereferenceable(4) %42)
  br label %.outer.outer.backedge

44:                                               ; preds = %11
  %45 = call dereferenceable(4) i32* @_ZSt7forwardIiEOT_RNSt16remove_referenceIS0_E4typeE(i32* nonnull dereferenceable(4) %3) #13
  %46 = call %"struct.std::_Rb_tree_node"* @_ZNKSt8_Rb_treeIiiSt9_IdentityIiESt4lessIiESaIiEE11_Alloc_nodeclIiEEPSt13_Rb_tree_nodeIiEOT_(%"struct.std::_Rb_tree<int, int, std::_Identity<int>, std::less<int>, std::allocator<int> >::_Alloc_node"* nonnull %4, i32* nonnull dereferenceable(4) %45)
  %47 = getelementptr %"struct.std::_Rb_tree_node", %"struct.std::_Rb_tree_node"* %46, i64 0, i32 0
  %.0..0..0.15 = load volatile %"class.std::_Rb_tree"*, %"class.std::_Rb_tree"** %8, align 8
  %48 = getelementptr inbounds %"class.std::_Rb_tree", %"class.std::_Rb_tree"* %.0..0..0.15, i64 0, i32 0, i32 1
  call void @_ZSt29_Rb_tree_insert_and_rebalancebPSt18_Rb_tree_node_baseS0_RS_(i1 zeroext %.0.ph.ph, %"struct.std::_Rb_tree_node_base"* %47, %"struct.std::_Rb_tree_node_base"* %2, %"struct.std::_Rb_tree_node_base"* nonnull dereferenceable(32) %48) #13
  %.0..0..0.16 = load volatile %"class.std::_Rb_tree"*, %"class.std::_Rb_tree"** %8, align 8
  %49 = getelementptr inbounds %"class.std::_Rb_tree", %"class.std::_Rb_tree"* %.0..0..0.16, i64 0, i32 0, i32 2
  %50 = load i64, i64* %49, align 8
  %51 = add i64 %50, 1
  store i64 %51, i64* %49, align 8
  call void @_ZNSt17_Rb_tree_iteratorIiEC2EPSt18_Rb_tree_node_base(%"struct.std::_Rb_tree_iterator"* nonnull %9, %"struct.std::_Rb_tree_node_base"* %47) #13
  %52 = getelementptr inbounds %"struct.std::_Rb_tree_iterator", %"struct.std::_Rb_tree_iterator"* %9, i64 0, i32 0
  %53 = load %"struct.std::_Rb_tree_node_base"*, %"struct.std::_Rb_tree_node_base"** %52, align 8
  ret %"struct.std::_Rb_tree_node_base"* %53

54:                                               ; preds = %11
  %.0..0..0.17 = load volatile %"class.std::_Rb_tree"*, %"class.std::_Rb_tree"** %8, align 8
  %55 = call %"struct.std::_Rb_tree_node"* @_ZNSt8_Rb_treeIiiSt9_IdentityIiESt4lessIiESaIiEE6_M_endEv(%"class.std::_Rb_tree"* %.0..0..0.17) #13
  br label %.outer.backedge

.outer.backedge:                                  ; preds = %54, %24, %14
  %.020.ph.be = phi i32 [ %23, %14 ], [ %36, %24 ], [ 776305760, %54 ]
  br label %.outer
}

; Function Attrs: noinline nounwind uwtable
define linkonce_odr dereferenceable(4) i32* @_ZSt7forwardIiEOT_RNSt16remove_referenceIS0_E4typeE(i32* dereferenceable(4) %0) local_unnamed_addr #5 comdat {
  %2 = alloca i32*, align 8
  %3 = alloca i1, align 1
  %4 = alloca i1, align 1
  %5 = load i32, i32* @x.153, align 4
  %6 = load i32, i32* @y.154, align 4
  %7 = add i32 %5, -1
  %8 = mul i32 %7, %5
  %9 = and i32 %8, 1
  %10 = icmp eq i32 %9, 0
  store i1 %10, i1* %4, align 1
  %11 = icmp slt i32 %6, 10
  store i1 %11, i1* %3, align 1
  %12 = or i1 %11, %10
  %13 = select i1 %12, i32 -695063422, i32 -1765731623
  br label %.outer

.outer:                                           ; preds = %.outer.backedge, %1
  %.0.ph = phi i32 [ -812938177, %1 ], [ %.0.ph.be, %.outer.backedge ]
  br label %14

14:                                               ; preds = %.outer, %14
  switch i32 %.0.ph, label %14 [
    i32 -812938177, label %15
    i32 1390299248, label %.outer.backedge
    i32 -695063422, label %18
    i32 -1765731623, label %19
  ]

15:                                               ; preds = %14
  %.0..0..0. = load volatile i1, i1* %4, align 1
  %.0..0..0.1 = load volatile i1, i1* %3, align 1
  %16 = or i1 %.0..0..0., %.0..0..0.1
  %17 = select i1 %16, i32 1390299248, i32 -1765731623
  br label %.outer.backedge

18:                                               ; preds = %14
  store i32* %0, i32** %2, align 8
  %.0..0..0.2 = load volatile i32*, i32** %2, align 8
  ret i32* %.0..0..0.2

19:                                               ; preds = %14
  br label %.outer.backedge

.outer.backedge:                                  ; preds = %14, %19, %15
  %.0.ph.be = phi i32 [ %17, %15 ], [ 1390299248, %19 ], [ %13, %14 ]
  br label %.outer
}

; Function Attrs: noinline nounwind uwtable
define linkonce_odr void @_ZNSt4pairISt17_Rb_tree_iteratorIiEbEC2IS1_bvEEOT_OT0_(%"struct.std::pair.6"* %0, %"struct.std::_Rb_tree_iterator"* dereferenceable(8) %1, i8* dereferenceable(1) %2) unnamed_addr #5 comdat align 2 {
  %4 = tail call dereferenceable(8) %"struct.std::_Rb_tree_iterator"* @_ZSt7forwardISt17_Rb_tree_iteratorIiEEOT_RNSt16remove_referenceIS2_E4typeE(%"struct.std::_Rb_tree_iterator"* nonnull dereferenceable(8) %1) #13
  %5 = bitcast %"struct.std::_Rb_tree_iterator"* %4 to i64*
  %6 = bitcast %"struct.std::pair.6"* %0 to i64*
  %7 = load i64, i64* %5, align 8
  store i64 %7, i64* %6, align 8
  %8 = getelementptr inbounds %"struct.std::pair.6", %"struct.std::pair.6"* %0, i64 0, i32 1
  %9 = tail call dereferenceable(1) i8* @_ZSt7forwardIbEOT_RNSt16remove_referenceIS0_E4typeE(i8* nonnull dereferenceable(1) %2) #13
  %10 = load i8, i8* %9, align 1
  %11 = and i8 %10, 1
  store i8 %11, i8* %8, align 8
  ret void
}

; Function Attrs: noinline nounwind uwtable
define linkonce_odr void @_ZNSt17_Rb_tree_iteratorIiEC2EPSt18_Rb_tree_node_base(%"struct.std::_Rb_tree_iterator"* %0, %"struct.std::_Rb_tree_node_base"* %1) unnamed_addr #5 comdat align 2 {
  %3 = alloca i1, align 1
  %4 = alloca i1, align 1
  %5 = load i32, i32* @x.157, align 4
  %6 = load i32, i32* @y.158, align 4
  %7 = add i32 %5, -1
  %8 = mul i32 %7, %5
  %9 = and i32 %8, 1
  %10 = icmp eq i32 %9, 0
  store i1 %10, i1* %4, align 1
  %11 = icmp slt i32 %6, 10
  store i1 %11, i1* %3, align 1
  %12 = getelementptr inbounds %"struct.std::_Rb_tree_iterator", %"struct.std::_Rb_tree_iterator"* %0, i64 0, i32 0
  br label %.outer

.outer:                                           ; preds = %.outer.backedge, %2
  %.0.ph = phi i32 [ 2114066751, %2 ], [ %.0.ph.be, %.outer.backedge ]
  br label %13

13:                                               ; preds = %.outer, %13
  switch i32 %.0.ph, label %13 [
    i32 2114066751, label %14
    i32 -207199614, label %17
    i32 761399901, label %27
    i32 -414118013, label %28
  ]

14:                                               ; preds = %13
  %.0..0..0. = load volatile i1, i1* %4, align 1
  %.0..0..0.1 = load volatile i1, i1* %3, align 1
  %15 = or i1 %.0..0..0., %.0..0..0.1
  %16 = select i1 %15, i32 -207199614, i32 -414118013
  br label %.outer.backedge

17:                                               ; preds = %13
  store %"struct.std::_Rb_tree_node_base"* %1, %"struct.std::_Rb_tree_node_base"** %12, align 8
  %18 = load i32, i32* @x.157, align 4
  %19 = load i32, i32* @y.158, align 4
  %20 = add i32 %18, -1
  %21 = mul i32 %20, %18
  %22 = and i32 %21, 1
  %23 = icmp eq i32 %22, 0
  %24 = icmp slt i32 %19, 10
  %25 = or i1 %24, %23
  %26 = select i1 %25, i32 761399901, i32 -414118013
  br label %.outer.backedge

27:                                               ; preds = %13
  ret void

28:                                               ; preds = %13
  store %"struct.std::_Rb_tree_node_base"* %1, %"struct.std::_Rb_tree_node_base"** %12, align 8
  br label %.outer.backedge

.outer.backedge:                                  ; preds = %28, %17, %14
  %.0.ph.be = phi i32 [ %16, %14 ], [ %26, %17 ], [ -207199614, %28 ]
  br label %.outer
}

; Function Attrs: noinline nounwind uwtable
define linkonce_odr %"struct.std::_Rb_tree_node"* @_ZNSt8_Rb_treeIiiSt9_IdentityIiESt4lessIiESaIiEE6_M_endEv(%"class.std::_Rb_tree"* %0) local_unnamed_addr #5 comdat align 2 {
  %2 = alloca %"struct.std::_Rb_tree_node"*, align 8
  %3 = alloca i1, align 1
  %4 = alloca i1, align 1
  %5 = load i32, i32* @x.159, align 4
  %6 = load i32, i32* @y.160, align 4
  %7 = add i32 %5, -1
  %8 = mul i32 %7, %5
  %9 = and i32 %8, 1
  %10 = icmp eq i32 %9, 0
  store i1 %10, i1* %4, align 1
  %11 = icmp slt i32 %6, 10
  store i1 %11, i1* %3, align 1
  %12 = or i1 %11, %10
  %13 = select i1 %12, i32 -622766223, i32 184231346
  br label %.outer

.outer:                                           ; preds = %.outer.backedge, %1
  %.0.ph = phi i32 [ -198513726, %1 ], [ %.0.ph.be, %.outer.backedge ]
  br label %14

14:                                               ; preds = %.outer, %14
  switch i32 %.0.ph, label %14 [
    i32 -198513726, label %15
    i32 -1878043863, label %.outer.backedge
    i32 -622766223, label %18
    i32 184231346, label %21
  ]

15:                                               ; preds = %14
  %.0..0..0. = load volatile i1, i1* %4, align 1
  %.0..0..0.1 = load volatile i1, i1* %3, align 1
  %16 = or i1 %.0..0..0., %.0..0..0.1
  %17 = select i1 %16, i32 -1878043863, i32 184231346
  br label %.outer.backedge

18:                                               ; preds = %14
  %19 = getelementptr inbounds %"class.std::_Rb_tree", %"class.std::_Rb_tree"* %0, i64 0, i32 0, i32 1
  %20 = bitcast %"struct.std::_Rb_tree_node"** %2 to %"struct.std::_Rb_tree_node_base"**
  store %"struct.std::_Rb_tree_node_base"* %19, %"struct.std::_Rb_tree_node_base"** %20, align 8
  %.0..0..0.2 = load volatile %"struct.std::_Rb_tree_node"*, %"struct.std::_Rb_tree_node"** %2, align 8
  ret %"struct.std::_Rb_tree_node"* %.0..0..0.2

21:                                               ; preds = %14
  br label %.outer.backedge

.outer.backedge:                                  ; preds = %14, %21, %15
  %.0.ph.be = phi i32 [ %17, %15 ], [ -1878043863, %21 ], [ %13, %14 ]
  br label %.outer
}

; Function Attrs: noinline nounwind uwtable
define linkonce_odr zeroext i1 @_ZNKSt4lessIiEclERKiS2_(%"struct.std::less"* %0, i32* dereferenceable(4) %1, i32* dereferenceable(4) %2) local_unnamed_addr #5 comdat align 2 {
  %4 = alloca i1, align 1
  %5 = alloca i1, align 1
  %6 = alloca i1, align 1
  %7 = load i32, i32* @x.161, align 4
  %8 = load i32, i32* @y.162, align 4
  %9 = add i32 %7, -1
  %10 = mul i32 %9, %7
  %11 = and i32 %10, 1
  %12 = icmp eq i32 %11, 0
  store i1 %12, i1* %6, align 1
  %13 = icmp slt i32 %8, 10
  store i1 %13, i1* %5, align 1
  %14 = or i1 %13, %12
  %15 = select i1 %14, i32 -87738989, i32 -977683293
  br label %.outer

.outer:                                           ; preds = %20, %3
  %.ph = phi i1 [ %23, %20 ], [ undef, %3 ]
  %.0.ph = phi i32 [ %15, %20 ], [ 1554671426, %3 ]
  br label %.outer3

.outer3:                                          ; preds = %.outer3.backedge, %.outer
  %.0.ph4 = phi i32 [ %.0.ph, %.outer ], [ %.0.ph4.be, %.outer3.backedge ]
  br label %16

16:                                               ; preds = %.outer3, %16
  switch i32 %.0.ph4, label %16 [
    i32 1554671426, label %17
    i32 -1633213963, label %20
    i32 -87738989, label %24
    i32 -977683293, label %.outer3.backedge
  ]

17:                                               ; preds = %16
  %.0..0..0. = load volatile i1, i1* %6, align 1
  %.0..0..0.1 = load volatile i1, i1* %5, align 1
  %18 = or i1 %.0..0..0., %.0..0..0.1
  %19 = select i1 %18, i32 -1633213963, i32 -977683293
  br label %.outer3.backedge

20:                                               ; preds = %16
  %21 = load i32, i32* %1, align 4
  %22 = load i32, i32* %2, align 4
  %23 = icmp slt i32 %21, %22
  br label %.outer

24:                                               ; preds = %16
  store i1 %.ph, i1* %4, align 1
  %.0..0..0.2 = load volatile i1, i1* %4, align 1
  ret i1 %.0..0..0.2

.outer3.backedge:                                 ; preds = %16, %17
  %.0.ph4.be = phi i32 [ %19, %17 ], [ -1633213963, %16 ]
  br label %.outer3
}

; Function Attrs: noinline uwtable
define linkonce_odr dereferenceable(4) i32* @_ZNSt8_Rb_treeIiiSt9_IdentityIiESt4lessIiESaIiEE6_S_keyEPKSt13_Rb_tree_nodeIiE(%"struct.std::_Rb_tree_node"* %0) local_unnamed_addr #0 comdat align 2 {
  %2 = alloca i32*, align 8
  %3 = alloca i1, align 1
  %4 = alloca i1, align 1
  %5 = load i32, i32* @x.163, align 4
  %6 = load i32, i32* @y.164, align 4
  %7 = add i32 %5, -1
  %8 = mul i32 %7, %5
  %9 = and i32 %8, 1
  %10 = icmp eq i32 %9, 0
  store i1 %10, i1* %4, align 1
  %11 = icmp slt i32 %6, 10
  store i1 %11, i1* %3, align 1
  br label %.outer

.outer:                                           ; preds = %.outer.backedge, %1
  %.0.ph = phi i32 [ 2078216820, %1 ], [ %.0.ph.be, %.outer.backedge ]
  br label %12

12:                                               ; preds = %.outer, %12
  switch i32 %.0.ph, label %12 [
    i32 2078216820, label %13
    i32 867294092, label %16
    i32 1581185052, label %29
    i32 -386961143, label %30
  ]

13:                                               ; preds = %12
  %.0..0..0. = load volatile i1, i1* %4, align 1
  %.0..0..0.1 = load volatile i1, i1* %3, align 1
  %14 = or i1 %.0..0..0., %.0..0..0.1
  %15 = select i1 %14, i32 867294092, i32 -386961143
  br label %.outer.backedge

16:                                               ; preds = %12
  %17 = alloca %"struct.std::_Identity", align 1
  %18 = call dereferenceable(4) i32* @_ZNSt8_Rb_treeIiiSt9_IdentityIiESt4lessIiESaIiEE8_S_valueEPKSt13_Rb_tree_nodeIiE(%"struct.std::_Rb_tree_node"* %0)
  %19 = call dereferenceable(4) i32* @_ZNKSt9_IdentityIiEclERKi(%"struct.std::_Identity"* nonnull %17, i32* nonnull dereferenceable(4) %18)
  store i32* %19, i32** %2, align 8
  %20 = load i32, i32* @x.163, align 4
  %21 = load i32, i32* @y.164, align 4
  %22 = add i32 %20, -1
  %23 = mul i32 %22, %20
  %24 = and i32 %23, 1
  %25 = icmp eq i32 %24, 0
  %26 = icmp slt i32 %21, 10
  %27 = or i1 %26, %25
  %28 = select i1 %27, i32 1581185052, i32 -386961143
  br label %.outer.backedge

29:                                               ; preds = %12
  %.0..0..0.2 = load volatile i32*, i32** %2, align 8
  ret i32* %.0..0..0.2

30:                                               ; preds = %12
  %31 = alloca %"struct.std::_Identity", align 1
  %32 = call dereferenceable(4) i32* @_ZNSt8_Rb_treeIiiSt9_IdentityIiESt4lessIiESaIiEE8_S_valueEPKSt13_Rb_tree_nodeIiE(%"struct.std::_Rb_tree_node"* %0)
  %33 = call dereferenceable(4) i32* @_ZNKSt9_IdentityIiEclERKi(%"struct.std::_Identity"* nonnull %31, i32* nonnull dereferenceable(4) %32)
  br label %.outer.backedge

.outer.backedge:                                  ; preds = %30, %16, %13
  %.0.ph.be = phi i32 [ %15, %13 ], [ %28, %16 ], [ 867294092, %30 ]
  br label %.outer
}

; Function Attrs: noinline nounwind uwtable
define linkonce_odr zeroext i1 @_ZNKSt17_Rb_tree_iteratorIiEeqERKS0_(%"struct.std::_Rb_tree_iterator"* %0, %"struct.std::_Rb_tree_iterator"* dereferenceable(8) %1) local_unnamed_addr #5 comdat align 2 {
  %3 = alloca i1, align 1
  %4 = alloca i1, align 1
  %5 = alloca i1, align 1
  %6 = load i32, i32* @x.165, align 4
  %7 = load i32, i32* @y.166, align 4
  %8 = add i32 %6, -1
  %9 = mul i32 %8, %6
  %10 = and i32 %9, 1
  %11 = icmp eq i32 %10, 0
  store i1 %11, i1* %5, align 1
  %12 = icmp slt i32 %7, 10
  store i1 %12, i1* %4, align 1
  %13 = getelementptr inbounds %"struct.std::_Rb_tree_iterator", %"struct.std::_Rb_tree_iterator"* %0, i64 0, i32 0
  %14 = getelementptr inbounds %"struct.std::_Rb_tree_iterator", %"struct.std::_Rb_tree_iterator"* %1, i64 0, i32 0
  %15 = or i1 %12, %11
  %16 = select i1 %15, i32 -125646865, i32 340739830
  br label %.outer

.outer:                                           ; preds = %21, %2
  %.ph = phi i1 [ %24, %21 ], [ undef, %2 ]
  %.0.ph = phi i32 [ %16, %21 ], [ 2063299643, %2 ]
  br label %.outer3

.outer3:                                          ; preds = %.outer3.backedge, %.outer
  %.0.ph4 = phi i32 [ %.0.ph, %.outer ], [ %.0.ph4.be, %.outer3.backedge ]
  br label %17

17:                                               ; preds = %.outer3, %17
  switch i32 %.0.ph4, label %17 [
    i32 2063299643, label %18
    i32 -1748925428, label %21
    i32 -125646865, label %25
    i32 340739830, label %.outer3.backedge
  ]

18:                                               ; preds = %17
  %.0..0..0. = load volatile i1, i1* %5, align 1
  %.0..0..0.1 = load volatile i1, i1* %4, align 1
  %19 = or i1 %.0..0..0., %.0..0..0.1
  %20 = select i1 %19, i32 -1748925428, i32 340739830
  br label %.outer3.backedge

21:                                               ; preds = %17
  %22 = load %"struct.std::_Rb_tree_node_base"*, %"struct.std::_Rb_tree_node_base"** %13, align 8
  %23 = load %"struct.std::_Rb_tree_node_base"*, %"struct.std::_Rb_tree_node_base"** %14, align 8
  %24 = icmp eq %"struct.std::_Rb_tree_node_base"* %22, %23
  br label %.outer

25:                                               ; preds = %17
  store i1 %.ph, i1* %3, align 1
  %.0..0..0.2 = load volatile i1, i1* %3, align 1
  ret i1 %.0..0..0.2

.outer3.backedge:                                 ; preds = %17, %18
  %.0.ph4.be = phi i32 [ %20, %18 ], [ -1748925428, %17 ]
  br label %.outer3
}

; Function Attrs: noinline nounwind uwtable
define linkonce_odr %"struct.std::_Rb_tree_node_base"* @_ZNSt8_Rb_treeIiiSt9_IdentityIiESt4lessIiESaIiEE5beginEv(%"class.std::_Rb_tree"* %0) local_unnamed_addr #5 comdat align 2 {
  %2 = alloca %"struct.std::_Rb_tree_iterator", align 8
  %3 = getelementptr inbounds %"class.std::_Rb_tree", %"class.std::_Rb_tree"* %0, i64 0, i32 0, i32 1, i32 2
  %4 = load %"struct.std::_Rb_tree_node_base"*, %"struct.std::_Rb_tree_node_base"** %3, align 8
  call void @_ZNSt17_Rb_tree_iteratorIiEC2EPSt18_Rb_tree_node_base(%"struct.std::_Rb_tree_iterator"* nonnull %2, %"struct.std::_Rb_tree_node_base"* %4) #13
  %5 = getelementptr inbounds %"struct.std::_Rb_tree_iterator", %"struct.std::_Rb_tree_iterator"* %2, i64 0, i32 0
  %6 = load %"struct.std::_Rb_tree_node_base"*, %"struct.std::_Rb_tree_node_base"** %5, align 8
  ret %"struct.std::_Rb_tree_node_base"* %6
}

; Function Attrs: noinline nounwind uwtable
define linkonce_odr void @_ZNSt4pairIPSt18_Rb_tree_node_baseS1_EC2IRPSt13_Rb_tree_nodeIiES7_vEEOT_OT0_(%"struct.std::pair.8"* %0, %"struct.std::_Rb_tree_node"** dereferenceable(8) %1, %"struct.std::_Rb_tree_node"** dereferenceable(8) %2) unnamed_addr #5 comdat align 2 {
  %4 = getelementptr inbounds %"struct.std::pair.8", %"struct.std::pair.8"* %0, i64 0, i32 0
  %5 = tail call dereferenceable(8) %"struct.std::_Rb_tree_node"** @_ZSt7forwardIRPSt13_Rb_tree_nodeIiEEOT_RNSt16remove_referenceIS4_E4typeE(%"struct.std::_Rb_tree_node"** nonnull dereferenceable(8) %1) #13
  %6 = bitcast %"struct.std::_Rb_tree_node"** %5 to %"struct.std::_Rb_tree_node_base"**
  %7 = load %"struct.std::_Rb_tree_node_base"*, %"struct.std::_Rb_tree_node_base"** %6, align 8
  store %"struct.std::_Rb_tree_node_base"* %7, %"struct.std::_Rb_tree_node_base"** %4, align 8
  %8 = getelementptr inbounds %"struct.std::pair.8", %"struct.std::pair.8"* %0, i64 0, i32 1
  %9 = tail call dereferenceable(8) %"struct.std::_Rb_tree_node"** @_ZSt7forwardIRPSt13_Rb_tree_nodeIiEEOT_RNSt16remove_referenceIS4_E4typeE(%"struct.std::_Rb_tree_node"** nonnull dereferenceable(8) %2) #13
  %10 = bitcast %"struct.std::_Rb_tree_node"** %9 to %"struct.std::_Rb_tree_node_base"**
  %11 = load %"struct.std::_Rb_tree_node_base"*, %"struct.std::_Rb_tree_node_base"** %10, align 8
  store %"struct.std::_Rb_tree_node_base"* %11, %"struct.std::_Rb_tree_node_base"** %8, align 8
  ret void
}

; Function Attrs: noinline nounwind uwtable
define linkonce_odr dereferenceable(8) %"struct.std::_Rb_tree_iterator"* @_ZNSt17_Rb_tree_iteratorIiEmmEv(%"struct.std::_Rb_tree_iterator"* %0) local_unnamed_addr #5 comdat align 2 {
  %2 = getelementptr inbounds %"struct.std::_Rb_tree_iterator", %"struct.std::_Rb_tree_iterator"* %0, i64 0, i32 0
  %3 = load %"struct.std::_Rb_tree_node_base"*, %"struct.std::_Rb_tree_node_base"** %2, align 8
  %4 = tail call %"struct.std::_Rb_tree_node_base"* @_ZSt18_Rb_tree_decrementPSt18_Rb_tree_node_base(%"struct.std::_Rb_tree_node_base"* %3) #16
  store %"struct.std::_Rb_tree_node_base"* %4, %"struct.std::_Rb_tree_node_base"** %2, align 8
  ret %"struct.std::_Rb_tree_iterator"* %0
}

; Function Attrs: noinline uwtable
define linkonce_odr dereferenceable(4) i32* @_ZNSt8_Rb_treeIiiSt9_IdentityIiESt4lessIiESaIiEE6_S_keyEPKSt18_Rb_tree_node_base(%"struct.std::_Rb_tree_node_base"* %0) local_unnamed_addr #0 comdat align 2 {
  %2 = alloca %"struct.std::_Identity", align 1
  %3 = tail call dereferenceable(4) i32* @_ZNSt8_Rb_treeIiiSt9_IdentityIiESt4lessIiESaIiEE8_S_valueEPKSt18_Rb_tree_node_base(%"struct.std::_Rb_tree_node_base"* %0)
  %4 = call dereferenceable(4) i32* @_ZNKSt9_IdentityIiEclERKi(%"struct.std::_Identity"* nonnull %2, i32* nonnull dereferenceable(4) %3)
  ret i32* %4
}

; Function Attrs: noinline nounwind uwtable
define linkonce_odr void @_ZNSt4pairIPSt18_Rb_tree_node_baseS1_EC2IRS1_vEEOT_RKS1_(%"struct.std::pair.8"* %0, %"struct.std::_Rb_tree_node_base"** dereferenceable(8) %1, %"struct.std::_Rb_tree_node_base"** dereferenceable(8) %2) unnamed_addr #5 comdat align 2 {
  %4 = getelementptr inbounds %"struct.std::pair.8", %"struct.std::pair.8"* %0, i64 0, i32 0
  %5 = tail call dereferenceable(8) %"struct.std::_Rb_tree_node_base"** @_ZSt7forwardIRPSt18_Rb_tree_node_baseEOT_RNSt16remove_referenceIS3_E4typeE(%"struct.std::_Rb_tree_node_base"** nonnull dereferenceable(8) %1) #13
  %6 = load %"struct.std::_Rb_tree_node_base"*, %"struct.std::_Rb_tree_node_base"** %5, align 8
  store %"struct.std::_Rb_tree_node_base"* %6, %"struct.std::_Rb_tree_node_base"** %4, align 8
  %7 = getelementptr inbounds %"struct.std::pair.8", %"struct.std::pair.8"* %0, i64 0, i32 1
  %8 = load %"struct.std::_Rb_tree_node_base"*, %"struct.std::_Rb_tree_node_base"** %2, align 8
  store %"struct.std::_Rb_tree_node_base"* %8, %"struct.std::_Rb_tree_node_base"** %7, align 8
  ret void
}

; Function Attrs: noinline nounwind uwtable
define linkonce_odr dereferenceable(4) i32* @_ZNKSt9_IdentityIiEclERKi(%"struct.std::_Identity"* %0, i32* dereferenceable(4) %1) local_unnamed_addr #5 comdat align 2 {
  ret i32* %1
}

; Function Attrs: noinline uwtable
define linkonce_odr dereferenceable(4) i32* @_ZNSt8_Rb_treeIiiSt9_IdentityIiESt4lessIiESaIiEE8_S_valueEPKSt13_Rb_tree_nodeIiE(%"struct.std::_Rb_tree_node"* %0) local_unnamed_addr #0 comdat align 2 {
  %2 = tail call i32* @_ZNKSt13_Rb_tree_nodeIiE9_M_valptrEv(%"struct.std::_Rb_tree_node"* %0)
  ret i32* %2
}

; Function Attrs: noinline nounwind uwtable
define linkonce_odr i32* @_ZNKSt13_Rb_tree_nodeIiE9_M_valptrEv(%"struct.std::_Rb_tree_node"* %0) local_unnamed_addr #5 comdat align 2 {
  %2 = getelementptr inbounds %"struct.std::_Rb_tree_node", %"struct.std::_Rb_tree_node"* %0, i64 0, i32 1
  %3 = tail call i32* @_ZNK9__gnu_cxx16__aligned_membufIiE6_M_ptrEv(%"struct.__gnu_cxx::__aligned_membuf"* nonnull %2) #13
  ret i32* %3
}

; Function Attrs: noinline nounwind uwtable
define linkonce_odr i32* @_ZNK9__gnu_cxx16__aligned_membufIiE6_M_ptrEv(%"struct.__gnu_cxx::__aligned_membuf"* %0) local_unnamed_addr #5 comdat align 2 {
  %2 = tail call i8* @_ZNK9__gnu_cxx16__aligned_membufIiE7_M_addrEv(%"struct.__gnu_cxx::__aligned_membuf"* %0) #13
  %3 = bitcast i8* %2 to i32*
  ret i32* %3
}

; Function Attrs: noinline nounwind uwtable
define linkonce_odr i8* @_ZNK9__gnu_cxx16__aligned_membufIiE7_M_addrEv(%"struct.__gnu_cxx::__aligned_membuf"* %0) local_unnamed_addr #5 comdat align 2 {
  %2 = getelementptr inbounds %"struct.__gnu_cxx::__aligned_membuf", %"struct.__gnu_cxx::__aligned_membuf"* %0, i64 0, i32 0, i64 0
  ret i8* %2
}

; Function Attrs: noinline nounwind uwtable
define linkonce_odr dereferenceable(8) %"struct.std::_Rb_tree_node"** @_ZSt7forwardIRPSt13_Rb_tree_nodeIiEEOT_RNSt16remove_referenceIS4_E4typeE(%"struct.std::_Rb_tree_node"** dereferenceable(8) %0) local_unnamed_addr #5 comdat {
  ret %"struct.std::_Rb_tree_node"** %0
}

; Function Attrs: nofree nounwind readonly
declare %"struct.std::_Rb_tree_node_base"* @_ZSt18_Rb_tree_decrementPSt18_Rb_tree_node_base(%"struct.std::_Rb_tree_node_base"*) local_unnamed_addr #10

; Function Attrs: noinline nounwind uwtable
define linkonce_odr dereferenceable(4) i32* @_ZNSt8_Rb_treeIiiSt9_IdentityIiESt4lessIiESaIiEE8_S_valueEPKSt18_Rb_tree_node_base(%"struct.std::_Rb_tree_node_base"* %0) local_unnamed_addr #5 comdat align 2 {
  %2 = bitcast %"struct.std::_Rb_tree_node_base"* %0 to %"struct.std::_Rb_tree_node"*
  %3 = tail call i32* @_ZNKSt13_Rb_tree_nodeIiE9_M_valptrEv(%"struct.std::_Rb_tree_node"* %2)
  ret i32* %3
}

; Function Attrs: noinline nounwind uwtable
define linkonce_odr dereferenceable(8) %"struct.std::_Rb_tree_node_base"** @_ZSt7forwardIRPSt18_Rb_tree_node_baseEOT_RNSt16remove_referenceIS3_E4typeE(%"struct.std::_Rb_tree_node_base"** dereferenceable(8) %0) local_unnamed_addr #5 comdat {
  ret %"struct.std::_Rb_tree_node_base"** %0
}

; Function Attrs: noinline uwtable
define linkonce_odr %"struct.std::_Rb_tree_node"* @_ZNKSt8_Rb_treeIiiSt9_IdentityIiESt4lessIiESaIiEE11_Alloc_nodeclIiEEPSt13_Rb_tree_nodeIiEOT_(%"struct.std::_Rb_tree<int, int, std::_Identity<int>, std::less<int>, std::allocator<int> >::_Alloc_node"* %0, i32* dereferenceable(4) %1) local_unnamed_addr #0 comdat align 2 {
  %3 = getelementptr inbounds %"struct.std::_Rb_tree<int, int, std::_Identity<int>, std::less<int>, std::allocator<int> >::_Alloc_node", %"struct.std::_Rb_tree<int, int, std::_Identity<int>, std::less<int>, std::allocator<int> >::_Alloc_node"* %0, i64 0, i32 0
  %4 = load %"class.std::_Rb_tree"*, %"class.std::_Rb_tree"** %3, align 8
  %5 = tail call dereferenceable(4) i32* @_ZSt7forwardIiEOT_RNSt16remove_referenceIS0_E4typeE(i32* nonnull dereferenceable(4) %1) #13
  %6 = tail call %"struct.std::_Rb_tree_node"* @_ZNSt8_Rb_treeIiiSt9_IdentityIiESt4lessIiESaIiEE14_M_create_nodeIJiEEEPSt13_Rb_tree_nodeIiEDpOT_(%"class.std::_Rb_tree"* %4, i32* nonnull dereferenceable(4) %5)
  ret %"struct.std::_Rb_tree_node"* %6
}

; Function Attrs: nounwind
declare void @_ZSt29_Rb_tree_insert_and_rebalancebPSt18_Rb_tree_node_baseS0_RS_(i1 zeroext, %"struct.std::_Rb_tree_node_base"*, %"struct.std::_Rb_tree_node_base"*, %"struct.std::_Rb_tree_node_base"* dereferenceable(32)) local_unnamed_addr #2

; Function Attrs: noinline uwtable
define linkonce_odr %"struct.std::_Rb_tree_node"* @_ZNSt8_Rb_treeIiiSt9_IdentityIiESt4lessIiESaIiEE14_M_create_nodeIJiEEEPSt13_Rb_tree_nodeIiEDpOT_(%"class.std::_Rb_tree"* %0, i32* dereferenceable(4) %1) local_unnamed_addr #0 comdat align 2 {
  %3 = alloca %"struct.std::_Rb_tree_node"*, align 8
  %4 = alloca i1, align 1
  %5 = alloca i1, align 1
  %6 = load i32, i32* @x.195, align 4
  %7 = load i32, i32* @y.196, align 4
  %8 = add i32 %6, -1
  %9 = mul i32 %8, %6
  %10 = and i32 %9, 1
  %11 = icmp eq i32 %10, 0
  store i1 %11, i1* %5, align 1
  %12 = icmp slt i32 %7, 10
  store i1 %12, i1* %4, align 1
  br label %.outer

.outer:                                           ; preds = %17, %2
  %.ph = phi %"struct.std::_Rb_tree_node"* [ %18, %17 ], [ undef, %2 ]
  %.0.ph = phi i32 [ %28, %17 ], [ -1191658110, %2 ]
  br label %.outer3

.outer3:                                          ; preds = %.outer3.backedge, %.outer
  %.0.ph4 = phi i32 [ %.0.ph, %.outer ], [ %.0.ph4.be, %.outer3.backedge ]
  br label %13

13:                                               ; preds = %.outer3, %13
  switch i32 %.0.ph4, label %13 [
    i32 -1191658110, label %14
    i32 2064569994, label %17
    i32 -1992383343, label %29
    i32 1459257936, label %30
  ]

14:                                               ; preds = %13
  %.0..0..0. = load volatile i1, i1* %5, align 1
  %.0..0..0.1 = load volatile i1, i1* %4, align 1
  %15 = or i1 %.0..0..0., %.0..0..0.1
  %16 = select i1 %15, i32 2064569994, i32 1459257936
  br label %.outer3.backedge

17:                                               ; preds = %13
  %18 = tail call %"struct.std::_Rb_tree_node"* @_ZNSt8_Rb_treeIiiSt9_IdentityIiESt4lessIiESaIiEE11_M_get_nodeEv(%"class.std::_Rb_tree"* %0)
  %19 = tail call dereferenceable(4) i32* @_ZSt7forwardIiEOT_RNSt16remove_referenceIS0_E4typeE(i32* nonnull dereferenceable(4) %1) #13
  tail call void @_ZNSt8_Rb_treeIiiSt9_IdentityIiESt4lessIiESaIiEE17_M_construct_nodeIJiEEEvPSt13_Rb_tree_nodeIiEDpOT_(%"class.std::_Rb_tree"* %0, %"struct.std::_Rb_tree_node"* %18, i32* nonnull dereferenceable(4) %19)
  %20 = load i32, i32* @x.195, align 4
  %21 = load i32, i32* @y.196, align 4
  %22 = add i32 %20, -1
  %23 = mul i32 %22, %20
  %24 = and i32 %23, 1
  %25 = icmp eq i32 %24, 0
  %26 = icmp slt i32 %21, 10
  %27 = or i1 %26, %25
  %28 = select i1 %27, i32 -1992383343, i32 1459257936
  br label %.outer

29:                                               ; preds = %13
  store %"struct.std::_Rb_tree_node"* %.ph, %"struct.std::_Rb_tree_node"** %3, align 8
  %.0..0..0.2 = load volatile %"struct.std::_Rb_tree_node"*, %"struct.std::_Rb_tree_node"** %3, align 8
  ret %"struct.std::_Rb_tree_node"* %.0..0..0.2

30:                                               ; preds = %13
  %31 = tail call %"struct.std::_Rb_tree_node"* @_ZNSt8_Rb_treeIiiSt9_IdentityIiESt4lessIiESaIiEE11_M_get_nodeEv(%"class.std::_Rb_tree"* %0)
  %32 = tail call dereferenceable(4) i32* @_ZSt7forwardIiEOT_RNSt16remove_referenceIS0_E4typeE(i32* nonnull dereferenceable(4) %1) #13
  tail call void @_ZNSt8_Rb_treeIiiSt9_IdentityIiESt4lessIiESaIiEE17_M_construct_nodeIJiEEEvPSt13_Rb_tree_nodeIiEDpOT_(%"class.std::_Rb_tree"* %0, %"struct.std::_Rb_tree_node"* %31, i32* nonnull dereferenceable(4) %32)
  br label %.outer3.backedge

.outer3.backedge:                                 ; preds = %30, %14
  %.0.ph4.be = phi i32 [ %16, %14 ], [ 2064569994, %30 ]
  br label %.outer3
}

; Function Attrs: noinline uwtable
define linkonce_odr %"struct.std::_Rb_tree_node"* @_ZNSt8_Rb_treeIiiSt9_IdentityIiESt4lessIiESaIiEE11_M_get_nodeEv(%"class.std::_Rb_tree"* %0) local_unnamed_addr #0 comdat align 2 {
  %2 = tail call dereferenceable(1) %"class.std::allocator.3"* @_ZNSt8_Rb_treeIiiSt9_IdentityIiESt4lessIiESaIiEE21_M_get_Node_allocatorEv(%"class.std::_Rb_tree"* %0) #13
  %3 = tail call %"struct.std::_Rb_tree_node"* @_ZNSt16allocator_traitsISaISt13_Rb_tree_nodeIiEEE8allocateERS2_m(%"class.std::allocator.3"* nonnull dereferenceable(1) %2, i64 1)
  ret %"struct.std::_Rb_tree_node"* %3
}

; Function Attrs: noinline uwtable
define linkonce_odr void @_ZNSt8_Rb_treeIiiSt9_IdentityIiESt4lessIiESaIiEE17_M_construct_nodeIJiEEEvPSt13_Rb_tree_nodeIiEDpOT_(%"class.std::_Rb_tree"* %0, %"struct.std::_Rb_tree_node"* %1, i32* dereferenceable(4) %2) local_unnamed_addr #0 comdat align 2 personality i8* bitcast (i32 (...)* @__gxx_personality_v0 to i8*) {
  %4 = tail call dereferenceable(1) %"class.std::allocator.3"* @_ZNSt8_Rb_treeIiiSt9_IdentityIiESt4lessIiESaIiEE21_M_get_Node_allocatorEv(%"class.std::_Rb_tree"* %0) #13
  %5 = tail call i32* @_ZNSt13_Rb_tree_nodeIiE9_M_valptrEv(%"struct.std::_Rb_tree_node"* %1)
  %6 = tail call dereferenceable(4) i32* @_ZSt7forwardIiEOT_RNSt16remove_referenceIS0_E4typeE(i32* nonnull dereferenceable(4) %2) #13
  invoke void @_ZNSt16allocator_traitsISaISt13_Rb_tree_nodeIiEEE9constructIiJiEEEvRS2_PT_DpOT0_(%"class.std::allocator.3"* nonnull dereferenceable(1) %4, i32* %5, i32* nonnull dereferenceable(4) %6)
          to label %31 unwind label %7

7:                                                ; preds = %3
  %8 = landingpad { i8*, i32 }
          catch i8* null
  %9 = extractvalue { i8*, i32 } %8, 0
  %10 = load i32, i32* @x.199, align 4
  %11 = load i32, i32* @y.200, align 4
  %12 = add i32 %10, -1
  %13 = mul i32 %12, %10
  %14 = and i32 %13, 1
  %15 = icmp eq i32 %14, 0
  %16 = icmp slt i32 %11, 10
  %17 = or i1 %16, %15
  br i1 %17, label %18, label %53

18:                                               ; preds = %53, %7
  %19 = tail call i8* @__cxa_begin_catch(i8* %9) #13
  tail call void @_ZNSt8_Rb_treeIiiSt9_IdentityIiESt4lessIiESaIiEE11_M_put_nodeEPSt13_Rb_tree_nodeIiE(%"class.std::_Rb_tree"* %0, %"struct.std::_Rb_tree_node"* %1) #13
  %20 = load i32, i32* @x.199, align 4
  %21 = load i32, i32* @y.200, align 4
  %22 = add i32 %20, -1
  %23 = mul i32 %22, %20
  %24 = and i32 %23, 1
  %25 = icmp eq i32 %24, 0
  %26 = icmp slt i32 %21, 10
  %27 = or i1 %26, %25
  br i1 %27, label %28, label %53

28:                                               ; preds = %18
  invoke void @__cxa_rethrow() #15
          to label %44 unwind label %29

29:                                               ; preds = %28
  %30 = landingpad { i8*, i32 }
          cleanup
  invoke void @__cxa_end_catch()
          to label %40 unwind label %41

31:                                               ; preds = %3
  %32 = load i32, i32* @x.199, align 4
  %33 = load i32, i32* @y.200, align 4
  %34 = add i32 %32, -1
  %35 = mul i32 %34, %32
  %36 = and i32 %35, 1
  %37 = icmp eq i32 %36, 0
  %38 = icmp slt i32 %33, 10
  %39 = or i1 %38, %37
  br i1 %39, label %.critedge, label %.preheader

.critedge:                                        ; preds = %31
  ret void

40:                                               ; preds = %29
  resume { i8*, i32 } %30

41:                                               ; preds = %29
  %42 = landingpad { i8*, i32 }
          catch i8* null
  %43 = extractvalue { i8*, i32 } %42, 0
  tail call void @__clang_call_terminate(i8* %43) #14
  unreachable

44:                                               ; preds = %28
  %45 = load i32, i32* @x.199, align 4
  %46 = load i32, i32* @y.200, align 4
  %47 = add i32 %45, -1
  %48 = mul i32 %47, %45
  %49 = and i32 %48, 1
  %50 = icmp ne i32 %49, 0
  %51 = icmp sgt i32 %46, 9
  tail call void @llvm.assume(i1 %50)
  tail call void @llvm.assume(i1 %51)
  br label %52

52:                                               ; preds = %44, %52
  br label %52

53:                                               ; preds = %18, %7
  %54 = tail call i8* @__cxa_begin_catch(i8* %9) #13
  tail call void @_ZNSt8_Rb_treeIiiSt9_IdentityIiESt4lessIiESaIiEE11_M_put_nodeEPSt13_Rb_tree_nodeIiE(%"class.std::_Rb_tree"* %0, %"struct.std::_Rb_tree_node"* %1) #13
  br label %18

.preheader:                                       ; preds = %31, %.preheader
  br label %.preheader, !llvm.loop !15
}

; Function Attrs: noinline uwtable
define linkonce_odr %"struct.std::_Rb_tree_node"* @_ZNSt16allocator_traitsISaISt13_Rb_tree_nodeIiEEE8allocateERS2_m(%"class.std::allocator.3"* dereferenceable(1) %0, i64 %1) local_unnamed_addr #0 comdat align 2 {
  %3 = alloca %"struct.std::_Rb_tree_node"*, align 8
  %4 = alloca i1, align 1
  %5 = alloca i1, align 1
  %6 = load i32, i32* @x.201, align 4
  %7 = load i32, i32* @y.202, align 4
  %8 = add i32 %6, -1
  %9 = mul i32 %8, %6
  %10 = and i32 %9, 1
  %11 = icmp eq i32 %10, 0
  store i1 %11, i1* %5, align 1
  %12 = icmp slt i32 %7, 10
  store i1 %12, i1* %4, align 1
  %.cast = bitcast %"class.std::allocator.3"* %0 to %"class.__gnu_cxx::new_allocator.4"*
  br label %.outer

.outer:                                           ; preds = %17, %2
  %.ph = phi %"struct.std::_Rb_tree_node"* [ %18, %17 ], [ undef, %2 ]
  %.0.ph = phi i32 [ %27, %17 ], [ 1728333725, %2 ]
  br label %.outer4

.outer4:                                          ; preds = %.outer4.backedge, %.outer
  %.0.ph5 = phi i32 [ %.0.ph, %.outer ], [ %.0.ph5.be, %.outer4.backedge ]
  br label %13

13:                                               ; preds = %.outer4, %13
  switch i32 %.0.ph5, label %13 [
    i32 1728333725, label %14
    i32 -1695649625, label %17
    i32 945354543, label %28
    i32 -182490343, label %29
  ]

14:                                               ; preds = %13
  %.0..0..0. = load volatile i1, i1* %5, align 1
  %.0..0..0.1 = load volatile i1, i1* %4, align 1
  %15 = or i1 %.0..0..0., %.0..0..0.1
  %16 = select i1 %15, i32 -1695649625, i32 -182490343
  br label %.outer4.backedge

17:                                               ; preds = %13
  %18 = tail call %"struct.std::_Rb_tree_node"* @_ZN9__gnu_cxx13new_allocatorISt13_Rb_tree_nodeIiEE8allocateEmPKv(%"class.__gnu_cxx::new_allocator.4"* nonnull %.cast, i64 %1, i8* null)
  %19 = load i32, i32* @x.201, align 4
  %20 = load i32, i32* @y.202, align 4
  %21 = add i32 %19, -1
  %22 = mul i32 %21, %19
  %23 = and i32 %22, 1
  %24 = icmp eq i32 %23, 0
  %25 = icmp slt i32 %20, 10
  %26 = or i1 %25, %24
  %27 = select i1 %26, i32 945354543, i32 -182490343
  br label %.outer

28:                                               ; preds = %13
  store %"struct.std::_Rb_tree_node"* %.ph, %"struct.std::_Rb_tree_node"** %3, align 8
  %.0..0..0.2 = load volatile %"struct.std::_Rb_tree_node"*, %"struct.std::_Rb_tree_node"** %3, align 8
  ret %"struct.std::_Rb_tree_node"* %.0..0..0.2

29:                                               ; preds = %13
  %30 = tail call %"struct.std::_Rb_tree_node"* @_ZN9__gnu_cxx13new_allocatorISt13_Rb_tree_nodeIiEE8allocateEmPKv(%"class.__gnu_cxx::new_allocator.4"* nonnull %.cast, i64 %1, i8* null)
  br label %.outer4.backedge

.outer4.backedge:                                 ; preds = %29, %14
  %.0.ph5.be = phi i32 [ %16, %14 ], [ -1695649625, %29 ]
  br label %.outer4
}

; Function Attrs: noinline uwtable
define linkonce_odr %"struct.std::_Rb_tree_node"* @_ZN9__gnu_cxx13new_allocatorISt13_Rb_tree_nodeIiEE8allocateEmPKv(%"class.__gnu_cxx::new_allocator.4"* %0, i64 %1, i8* %2) local_unnamed_addr #0 comdat align 2 {
  %4 = alloca %"struct.std::_Rb_tree_node"*, align 8
  %5 = alloca i64, align 8
  %6 = alloca i64, align 8
  store i64 %1, i64* %6, align 8
  %7 = tail call i64 @_ZNK9__gnu_cxx13new_allocatorISt13_Rb_tree_nodeIiEE8max_sizeEv(%"class.__gnu_cxx::new_allocator.4"* %0) #13
  store i64 %7, i64* %5, align 8
  %8 = mul i64 %1, 40
  br label %.outer

.outer:                                           ; preds = %34, %3
  %.ph = phi i8* [ %35, %34 ], [ undef, %3 ]
  %.0.ph = phi i32 [ %44, %34 ], [ -415386169, %3 ]
  br label %.outer15

.outer15:                                         ; preds = %.outer15.backedge, %.outer
  %.0.ph16 = phi i32 [ %.0.ph, %.outer ], [ %.0.ph16.be, %.outer15.backedge ]
  br label %9

9:                                                ; preds = %.outer15, %9
  switch i32 %.0.ph16, label %9 [
    i32 -415386169, label %10
    i32 1974264357, label %13
    i32 -458966954, label %23
    i32 -1187278353, label %48
    i32 -1546877812, label %24
    i32 -2091708370, label %34
    i32 -1013746058, label %45
    i32 207255156, label %47
  ]

10:                                               ; preds = %9
  %.0..0..0.4 = load volatile i64, i64* %6, align 8
  %.0..0..0.5 = load volatile i64, i64* %5, align 8
  %11 = icmp ugt i64 %.0..0..0.4, %.0..0..0.5
  %12 = select i1 %11, i32 1974264357, i32 -1546877812
  br label %.outer15.backedge

13:                                               ; preds = %9
  %14 = load i32, i32* @x.203, align 4
  %15 = load i32, i32* @y.204, align 4
  %16 = add i32 %14, -1
  %17 = mul i32 %16, %14
  %18 = and i32 %17, 1
  %19 = icmp eq i32 %18, 0
  %20 = icmp slt i32 %15, 10
  %21 = or i1 %20, %19
  %22 = select i1 %21, i32 -458966954, i32 207255156
  br label %.outer15.backedge

23:                                               ; preds = %9
  tail call void @_ZSt17__throw_bad_allocv() #15
  unreachable

24:                                               ; preds = %9
  %25 = load i32, i32* @x.203, align 4
  %26 = load i32, i32* @y.204, align 4
  %27 = add i32 %25, -1
  %28 = mul i32 %27, %25
  %29 = and i32 %28, 1
  %30 = icmp eq i32 %29, 0
  %31 = icmp slt i32 %26, 10
  %32 = or i1 %31, %30
  %33 = select i1 %32, i32 -2091708370, i32 -1187278353
  br label %.outer15.backedge

.outer15.backedge:                                ; preds = %24, %48, %13, %10
  %.0.ph16.be = phi i32 [ %12, %10 ], [ %22, %13 ], [ -2091708370, %48 ], [ %33, %24 ]
  br label %.outer15

34:                                               ; preds = %9
  %35 = tail call i8* @_Znwm(i64 %8)
  %36 = load i32, i32* @x.203, align 4
  %37 = load i32, i32* @y.204, align 4
  %38 = add i32 %36, -1
  %39 = mul i32 %38, %36
  %40 = and i32 %39, 1
  %41 = icmp eq i32 %40, 0
  %42 = icmp slt i32 %37, 10
  %43 = or i1 %42, %41
  %44 = select i1 %43, i32 -1013746058, i32 -1187278353
  br label %.outer

45:                                               ; preds = %9
  %46 = bitcast %"struct.std::_Rb_tree_node"** %4 to i8**
  store i8* %.ph, i8** %46, align 8
  %.0..0..0.6 = load volatile %"struct.std::_Rb_tree_node"*, %"struct.std::_Rb_tree_node"** %4, align 8
  ret %"struct.std::_Rb_tree_node"* %.0..0..0.6

47:                                               ; preds = %9
  tail call void @_ZSt17__throw_bad_allocv() #15
  unreachable

48:                                               ; preds = %9
  %49 = tail call i8* @_Znwm(i64 %8)
  br label %.outer15.backedge
}

; Function Attrs: noinline nounwind uwtable
define linkonce_odr i64 @_ZNK9__gnu_cxx13new_allocatorISt13_Rb_tree_nodeIiEE8max_sizeEv(%"class.__gnu_cxx::new_allocator.4"* %0) local_unnamed_addr #5 comdat align 2 {
  %2 = alloca i1, align 1
  %3 = alloca i1, align 1
  %4 = load i32, i32* @x.205, align 4
  %5 = load i32, i32* @y.206, align 4
  %6 = add i32 %4, -1
  %7 = mul i32 %6, %4
  %8 = and i32 %7, 1
  %9 = icmp eq i32 %8, 0
  store i1 %9, i1* %3, align 1
  %10 = icmp slt i32 %5, 10
  store i1 %10, i1* %2, align 1
  %11 = or i1 %10, %9
  %12 = select i1 %11, i32 -1391288591, i32 1092210400
  br label %.outer

.outer:                                           ; preds = %.outer.backedge, %1
  %.0.ph = phi i32 [ 118901323, %1 ], [ %.0.ph.be, %.outer.backedge ]
  br label %13

13:                                               ; preds = %.outer, %13
  switch i32 %.0.ph, label %13 [
    i32 118901323, label %14
    i32 -1940982666, label %.outer.backedge
    i32 -1391288591, label %17
    i32 1092210400, label %18
  ]

14:                                               ; preds = %13
  %.0..0..0. = load volatile i1, i1* %3, align 1
  %.0..0..0.1 = load volatile i1, i1* %2, align 1
  %15 = or i1 %.0..0..0., %.0..0..0.1
  %16 = select i1 %15, i32 -1940982666, i32 1092210400
  br label %.outer.backedge

17:                                               ; preds = %13
  ret i64 461168601842738790

18:                                               ; preds = %13
  br label %.outer.backedge

.outer.backedge:                                  ; preds = %13, %18, %14
  %.0.ph.be = phi i32 [ %16, %14 ], [ -1940982666, %18 ], [ %12, %13 ]
  br label %.outer
}

; Function Attrs: noinline uwtable
define linkonce_odr void @_ZNSt16allocator_traitsISaISt13_Rb_tree_nodeIiEEE9constructIiJiEEEvRS2_PT_DpOT0_(%"class.std::allocator.3"* dereferenceable(1) %0, i32* %1, i32* dereferenceable(4) %2) local_unnamed_addr #0 comdat align 2 {
  %4 = alloca i1, align 1
  %5 = alloca i1, align 1
  %6 = load i32, i32* @x.207, align 4
  %7 = load i32, i32* @y.208, align 4
  %8 = add i32 %6, -1
  %9 = mul i32 %8, %6
  %10 = and i32 %9, 1
  %11 = icmp eq i32 %10, 0
  store i1 %11, i1* %5, align 1
  %12 = icmp slt i32 %7, 10
  store i1 %12, i1* %4, align 1
  %.cast = bitcast %"class.std::allocator.3"* %0 to %"class.__gnu_cxx::new_allocator.4"*
  br label %.outer

.outer:                                           ; preds = %.outer.backedge, %3
  %.0.ph = phi i32 [ -1551038347, %3 ], [ %.0.ph.be, %.outer.backedge ]
  br label %13

13:                                               ; preds = %.outer, %13
  switch i32 %.0.ph, label %13 [
    i32 -1551038347, label %14
    i32 1281558372, label %17
    i32 1058252360, label %28
    i32 -567473180, label %29
  ]

14:                                               ; preds = %13
  %.0..0..0. = load volatile i1, i1* %5, align 1
  %.0..0..0.1 = load volatile i1, i1* %4, align 1
  %15 = or i1 %.0..0..0., %.0..0..0.1
  %16 = select i1 %15, i32 1281558372, i32 -567473180
  br label %.outer.backedge

17:                                               ; preds = %13
  %18 = tail call dereferenceable(4) i32* @_ZSt7forwardIiEOT_RNSt16remove_referenceIS0_E4typeE(i32* nonnull dereferenceable(4) %2) #13
  tail call void @_ZN9__gnu_cxx13new_allocatorISt13_Rb_tree_nodeIiEE9constructIiJiEEEvPT_DpOT0_(%"class.__gnu_cxx::new_allocator.4"* nonnull %.cast, i32* %1, i32* nonnull dereferenceable(4) %18)
  %19 = load i32, i32* @x.207, align 4
  %20 = load i32, i32* @y.208, align 4
  %21 = add i32 %19, -1
  %22 = mul i32 %21, %19
  %23 = and i32 %22, 1
  %24 = icmp eq i32 %23, 0
  %25 = icmp slt i32 %20, 10
  %26 = or i1 %25, %24
  %27 = select i1 %26, i32 1058252360, i32 -567473180
  br label %.outer.backedge

28:                                               ; preds = %13
  ret void

29:                                               ; preds = %13
  %30 = tail call dereferenceable(4) i32* @_ZSt7forwardIiEOT_RNSt16remove_referenceIS0_E4typeE(i32* nonnull dereferenceable(4) %2) #13
  tail call void @_ZN9__gnu_cxx13new_allocatorISt13_Rb_tree_nodeIiEE9constructIiJiEEEvPT_DpOT0_(%"class.__gnu_cxx::new_allocator.4"* nonnull %.cast, i32* %1, i32* nonnull dereferenceable(4) %30)
  br label %.outer.backedge

.outer.backedge:                                  ; preds = %29, %17, %14
  %.0.ph.be = phi i32 [ %16, %14 ], [ %27, %17 ], [ 1281558372, %29 ]
  br label %.outer
}

; Function Attrs: noinline nounwind uwtable
define linkonce_odr void @_ZN9__gnu_cxx13new_allocatorISt13_Rb_tree_nodeIiEE9constructIiJiEEEvPT_DpOT0_(%"class.__gnu_cxx::new_allocator.4"* %0, i32* %1, i32* dereferenceable(4) %2) local_unnamed_addr #5 comdat align 2 {
  %4 = tail call dereferenceable(4) i32* @_ZSt7forwardIiEOT_RNSt16remove_referenceIS0_E4typeE(i32* nonnull dereferenceable(4) %2) #13
  %5 = load i32, i32* %4, align 4
  store i32 %5, i32* %1, align 4
  ret void
}

; Function Attrs: noinline nounwind uwtable
define linkonce_odr dereferenceable(8) %"struct.std::_Rb_tree_iterator"* @_ZSt7forwardISt17_Rb_tree_iteratorIiEEOT_RNSt16remove_referenceIS2_E4typeE(%"struct.std::_Rb_tree_iterator"* dereferenceable(8) %0) local_unnamed_addr #5 comdat {
  ret %"struct.std::_Rb_tree_iterator"* %0
}

; Function Attrs: noinline nounwind uwtable
define linkonce_odr dereferenceable(1) i8* @_ZSt7forwardIbEOT_RNSt16remove_referenceIS0_E4typeE(i8* dereferenceable(1) %0) local_unnamed_addr #5 comdat {
  %2 = alloca i8*, align 8
  %3 = alloca i1, align 1
  %4 = alloca i1, align 1
  %5 = load i32, i32* @x.213, align 4
  %6 = load i32, i32* @y.214, align 4
  %7 = add i32 %5, -1
  %8 = mul i32 %7, %5
  %9 = and i32 %8, 1
  %10 = icmp eq i32 %9, 0
  store i1 %10, i1* %4, align 1
  %11 = icmp slt i32 %6, 10
  store i1 %11, i1* %3, align 1
  %12 = or i1 %11, %10
  %13 = select i1 %12, i32 1432314975, i32 -1379813380
  br label %.outer

.outer:                                           ; preds = %.outer.backedge, %1
  %.0.ph = phi i32 [ -1402134645, %1 ], [ %.0.ph.be, %.outer.backedge ]
  br label %14

14:                                               ; preds = %.outer, %14
  switch i32 %.0.ph, label %14 [
    i32 -1402134645, label %15
    i32 524039686, label %.outer.backedge
    i32 1432314975, label %18
    i32 -1379813380, label %19
  ]

15:                                               ; preds = %14
  %.0..0..0. = load volatile i1, i1* %4, align 1
  %.0..0..0.1 = load volatile i1, i1* %3, align 1
  %16 = or i1 %.0..0..0., %.0..0..0.1
  %17 = select i1 %16, i32 524039686, i32 -1379813380
  br label %.outer.backedge

18:                                               ; preds = %14
  store i8* %0, i8** %2, align 8
  %.0..0..0.2 = load volatile i8*, i8** %2, align 8
  ret i8* %.0..0..0.2

19:                                               ; preds = %14
  br label %.outer.backedge

.outer.backedge:                                  ; preds = %14, %19, %15
  %.0.ph.be = phi i32 [ %17, %15 ], [ 524039686, %19 ], [ %13, %14 ]
  br label %.outer
}

; Function Attrs: noinline nounwind uwtable
define linkonce_odr dereferenceable(8) %"struct.std::_Rb_tree_iterator"* @_ZSt7forwardIRSt17_Rb_tree_iteratorIiEEOT_RNSt16remove_referenceIS3_E4typeE(%"struct.std::_Rb_tree_iterator"* dereferenceable(8) %0) local_unnamed_addr #5 comdat {
  ret %"struct.std::_Rb_tree_iterator"* %0
}

; Function Attrs: noinline nounwind uwtable
define linkonce_odr void @_ZNSt23_Rb_tree_const_iteratorIiEC2ERKSt17_Rb_tree_iteratorIiE(%"struct.std::_Rb_tree_const_iterator"* %0, %"struct.std::_Rb_tree_iterator"* dereferenceable(8) %1) unnamed_addr #5 comdat align 2 {
  %3 = alloca i1, align 1
  %4 = alloca i1, align 1
  %5 = load i32, i32* @x.217, align 4
  %6 = load i32, i32* @y.218, align 4
  %7 = add i32 %5, -1
  %8 = mul i32 %7, %5
  %9 = and i32 %8, 1
  %10 = icmp eq i32 %9, 0
  store i1 %10, i1* %4, align 1
  %11 = icmp slt i32 %6, 10
  store i1 %11, i1* %3, align 1
  %12 = getelementptr inbounds %"struct.std::_Rb_tree_const_iterator", %"struct.std::_Rb_tree_const_iterator"* %0, i64 0, i32 0
  %13 = getelementptr inbounds %"struct.std::_Rb_tree_iterator", %"struct.std::_Rb_tree_iterator"* %1, i64 0, i32 0
  br label %.outer

.outer:                                           ; preds = %.outer.backedge, %2
  %.0.ph = phi i32 [ -842557999, %2 ], [ %.0.ph.be, %.outer.backedge ]
  br label %14

14:                                               ; preds = %.outer, %14
  switch i32 %.0.ph, label %14 [
    i32 -842557999, label %15
    i32 2118168618, label %18
    i32 -733695726, label %29
    i32 -1375533690, label %30
  ]

15:                                               ; preds = %14
  %.0..0..0. = load volatile i1, i1* %4, align 1
  %.0..0..0.1 = load volatile i1, i1* %3, align 1
  %16 = or i1 %.0..0..0., %.0..0..0.1
  %17 = select i1 %16, i32 2118168618, i32 -1375533690
  br label %.outer.backedge

18:                                               ; preds = %14
  %19 = load %"struct.std::_Rb_tree_node_base"*, %"struct.std::_Rb_tree_node_base"** %13, align 8
  store %"struct.std::_Rb_tree_node_base"* %19, %"struct.std::_Rb_tree_node_base"** %12, align 8
  %20 = load i32, i32* @x.217, align 4
  %21 = load i32, i32* @y.218, align 4
  %22 = add i32 %20, -1
  %23 = mul i32 %22, %20
  %24 = and i32 %23, 1
  %25 = icmp eq i32 %24, 0
  %26 = icmp slt i32 %21, 10
  %27 = or i1 %26, %25
  %28 = select i1 %27, i32 -733695726, i32 -1375533690
  br label %.outer.backedge

29:                                               ; preds = %14
  ret void

30:                                               ; preds = %14
  %31 = load %"struct.std::_Rb_tree_node_base"*, %"struct.std::_Rb_tree_node_base"** %13, align 8
  store %"struct.std::_Rb_tree_node_base"* %31, %"struct.std::_Rb_tree_node_base"** %12, align 8
  br label %.outer.backedge

.outer.backedge:                                  ; preds = %30, %18, %15
  %.0.ph.be = phi i32 [ %17, %15 ], [ %28, %18 ], [ 2118168618, %30 ]
  br label %.outer
}

; Function Attrs: noinline nounwind uwtable
define linkonce_odr dereferenceable(1) i8* @_ZSt7forwardIRbEOT_RNSt16remove_referenceIS1_E4typeE(i8* dereferenceable(1) %0) local_unnamed_addr #5 comdat {
  %2 = alloca i8*, align 8
  %3 = alloca i1, align 1
  %4 = alloca i1, align 1
  %5 = load i32, i32* @x.219, align 4
  %6 = load i32, i32* @y.220, align 4
  %7 = add i32 %5, -1
  %8 = mul i32 %7, %5
  %9 = and i32 %8, 1
  %10 = icmp eq i32 %9, 0
  store i1 %10, i1* %4, align 1
  %11 = icmp slt i32 %6, 10
  store i1 %11, i1* %3, align 1
  %12 = or i1 %11, %10
  %13 = select i1 %12, i32 500874759, i32 1758816633
  br label %.outer

.outer:                                           ; preds = %.outer.backedge, %1
  %.0.ph = phi i32 [ 55554323, %1 ], [ %.0.ph.be, %.outer.backedge ]
  br label %14

14:                                               ; preds = %.outer, %14
  switch i32 %.0.ph, label %14 [
    i32 55554323, label %15
    i32 234142393, label %.outer.backedge
    i32 500874759, label %18
    i32 1758816633, label %19
  ]

15:                                               ; preds = %14
  %.0..0..0. = load volatile i1, i1* %4, align 1
  %.0..0..0.1 = load volatile i1, i1* %3, align 1
  %16 = or i1 %.0..0..0., %.0..0..0.1
  %17 = select i1 %16, i32 234142393, i32 1758816633
  br label %.outer.backedge

18:                                               ; preds = %14
  store i8* %0, i8** %2, align 8
  %.0..0..0.2 = load volatile i8*, i8** %2, align 8
  ret i8* %.0..0..0.2

19:                                               ; preds = %14
  br label %.outer.backedge

.outer.backedge:                                  ; preds = %14, %19, %15
  %.0.ph.be = phi i32 [ %17, %15 ], [ 234142393, %19 ], [ %13, %14 ]
  br label %.outer
}

; Function Attrs: noinline uwtable
define linkonce_odr i64 @_ZNSt8_Rb_treeIiiSt9_IdentityIiESt4lessIiESaIiEE5eraseERKi(%"class.std::_Rb_tree"* %0, i32* dereferenceable(4) %1) local_unnamed_addr #0 comdat align 2 {
  %3 = alloca %"struct.std::pair.9", align 8
  %4 = alloca %"struct.std::_Rb_tree_const_iterator", align 8
  %5 = alloca %"struct.std::_Rb_tree_const_iterator", align 8
  %6 = tail call { %"struct.std::_Rb_tree_node_base"*, %"struct.std::_Rb_tree_node_base"* } @_ZNSt8_Rb_treeIiiSt9_IdentityIiESt4lessIiESaIiEE11equal_rangeERKi(%"class.std::_Rb_tree"* %0, i32* nonnull dereferenceable(4) %1)
  %7 = getelementptr inbounds %"struct.std::pair.9", %"struct.std::pair.9"* %3, i64 0, i32 0, i32 0
  %8 = extractvalue { %"struct.std::_Rb_tree_node_base"*, %"struct.std::_Rb_tree_node_base"* } %6, 0
  store %"struct.std::_Rb_tree_node_base"* %8, %"struct.std::_Rb_tree_node_base"** %7, align 8
  %9 = getelementptr inbounds %"struct.std::pair.9", %"struct.std::pair.9"* %3, i64 0, i32 1, i32 0
  %10 = extractvalue { %"struct.std::_Rb_tree_node_base"*, %"struct.std::_Rb_tree_node_base"* } %6, 1
  store %"struct.std::_Rb_tree_node_base"* %10, %"struct.std::_Rb_tree_node_base"** %9, align 8
  %11 = tail call i64 @_ZNKSt8_Rb_treeIiiSt9_IdentityIiESt4lessIiESaIiEE4sizeEv(%"class.std::_Rb_tree"* %0) #13
  %12 = getelementptr inbounds %"struct.std::pair.9", %"struct.std::pair.9"* %3, i64 0, i32 0
  call void @_ZNSt23_Rb_tree_const_iteratorIiEC2ERKSt17_Rb_tree_iteratorIiE(%"struct.std::_Rb_tree_const_iterator"* nonnull %4, %"struct.std::_Rb_tree_iterator"* nonnull dereferenceable(8) %12) #13
  %13 = getelementptr inbounds %"struct.std::pair.9", %"struct.std::pair.9"* %3, i64 0, i32 1
  call void @_ZNSt23_Rb_tree_const_iteratorIiEC2ERKSt17_Rb_tree_iteratorIiE(%"struct.std::_Rb_tree_const_iterator"* nonnull %5, %"struct.std::_Rb_tree_iterator"* nonnull dereferenceable(8) %13) #13
  %14 = getelementptr inbounds %"struct.std::_Rb_tree_const_iterator", %"struct.std::_Rb_tree_const_iterator"* %4, i64 0, i32 0
  %15 = load %"struct.std::_Rb_tree_node_base"*, %"struct.std::_Rb_tree_node_base"** %14, align 8
  %16 = getelementptr inbounds %"struct.std::_Rb_tree_const_iterator", %"struct.std::_Rb_tree_const_iterator"* %5, i64 0, i32 0
  %17 = load %"struct.std::_Rb_tree_node_base"*, %"struct.std::_Rb_tree_node_base"** %16, align 8
  %18 = call %"struct.std::_Rb_tree_node_base"* @_ZNSt8_Rb_treeIiiSt9_IdentityIiESt4lessIiESaIiEE5eraseB5cxx11ESt23_Rb_tree_const_iteratorIiES7_(%"class.std::_Rb_tree"* %0, %"struct.std::_Rb_tree_node_base"* %15, %"struct.std::_Rb_tree_node_base"* %17)
  %19 = call i64 @_ZNKSt8_Rb_treeIiiSt9_IdentityIiESt4lessIiESaIiEE4sizeEv(%"class.std::_Rb_tree"* %0) #13
  %20 = sub i64 %11, %19
  ret i64 %20
}

; Function Attrs: noinline uwtable
define linkonce_odr { %"struct.std::_Rb_tree_node_base"*, %"struct.std::_Rb_tree_node_base"* } @_ZNSt8_Rb_treeIiiSt9_IdentityIiESt4lessIiESaIiEE11equal_rangeERKi(%"class.std::_Rb_tree"* %0, i32* dereferenceable(4) %1) local_unnamed_addr #0 comdat align 2 {
  %3 = alloca %"class.std::_Rb_tree"*, align 8
  %4 = alloca %"struct.std::_Rb_tree_iterator"*, align 8
  %5 = alloca %"struct.std::_Rb_tree_iterator"*, align 8
  %6 = alloca %"struct.std::_Rb_tree_iterator"*, align 8
  %7 = alloca %"struct.std::_Rb_tree_iterator"*, align 8
  %8 = alloca %"struct.std::_Rb_tree_node"**, align 8
  %9 = alloca %"struct.std::_Rb_tree_node"**, align 8
  %10 = alloca %"struct.std::_Rb_tree_node"**, align 8
  %11 = alloca %"struct.std::_Rb_tree_node"**, align 8
  %12 = alloca i32**, align 8
  %13 = alloca %"struct.std::pair.9"*, align 8
  %14 = alloca i1, align 1
  %15 = alloca i1, align 1
  %16 = load i32, i32* @x.223, align 4
  %17 = load i32, i32* @y.224, align 4
  %18 = add i32 %16, -1
  %19 = mul i32 %18, %16
  %20 = and i32 %19, 1
  %21 = icmp eq i32 %20, 0
  store i1 %21, i1* %15, align 1
  %22 = icmp slt i32 %17, 10
  store i1 %22, i1* %14, align 1
  br label %23

23:                                               ; preds = %.backedge, %2
  %.0 = phi i32 [ 1150588658, %2 ], [ %.0.be, %.backedge ]
  switch i32 %.0, label %.backedge [
    i32 1150588658, label %24
    i32 -2058107020, label %27
    i32 -382593363, label %49
    i32 1986428880, label %50
    i32 -1936953575, label %53
    i32 1322657700, label %60
    i32 -276283395, label %64
    i32 -1883363446, label %71
    i32 -2032769952, label %81
    i32 -769320630, label %95
    i32 -652546411, label %96
    i32 5460626, label %106
    i32 1278338033, label %135
    i32 1288787681, label %136
    i32 324756926, label %137
    i32 1686738950, label %138
    i32 822495942, label %143
    i32 -1127385239, label %147
    i32 537182653, label %150
    i32 -2058330082, label %155
  ]

.backedge:                                        ; preds = %23, %155, %150, %147, %138, %137, %136, %135, %106, %96, %95, %81, %71, %64, %60, %53, %50, %49, %27, %24
  %.0.be = phi i32 [ %.0, %23 ], [ 5460626, %155 ], [ -2032769952, %150 ], [ -2058107020, %147 ], [ 822495942, %138 ], [ 1986428880, %137 ], [ 324756926, %136 ], [ 822495942, %135 ], [ %134, %106 ], [ %105, %96 ], [ 1288787681, %95 ], [ %94, %81 ], [ %80, %71 ], [ %70, %64 ], [ 324756926, %60 ], [ %59, %53 ], [ %52, %50 ], [ 1986428880, %49 ], [ %48, %27 ], [ %26, %24 ]
  br label %23

24:                                               ; preds = %23
  %.0..0..0. = load volatile i1, i1* %15, align 1
  %.0..0..0.1 = load volatile i1, i1* %14, align 1
  %25 = or i1 %.0..0..0., %.0..0..0.1
  %26 = select i1 %25, i32 -2058107020, i32 -1127385239
  br label %.backedge

27:                                               ; preds = %23
  %28 = alloca %"struct.std::pair.9", align 8
  store %"struct.std::pair.9"* %28, %"struct.std::pair.9"** %13, align 8
  %29 = alloca i32*, align 8
  store i32** %29, i32*** %12, align 8
  %30 = alloca %"struct.std::_Rb_tree_node"*, align 8
  store %"struct.std::_Rb_tree_node"** %30, %"struct.std::_Rb_tree_node"*** %11, align 8
  %31 = alloca %"struct.std::_Rb_tree_node"*, align 8
  store %"struct.std::_Rb_tree_node"** %31, %"struct.std::_Rb_tree_node"*** %10, align 8
  %32 = alloca %"struct.std::_Rb_tree_node"*, align 8
  store %"struct.std::_Rb_tree_node"** %32, %"struct.std::_Rb_tree_node"*** %9, align 8
  %33 = alloca %"struct.std::_Rb_tree_node"*, align 8
  store %"struct.std::_Rb_tree_node"** %33, %"struct.std::_Rb_tree_node"*** %8, align 8
  %34 = alloca %"struct.std::_Rb_tree_iterator", align 8
  store %"struct.std::_Rb_tree_iterator"* %34, %"struct.std::_Rb_tree_iterator"** %7, align 8
  %35 = alloca %"struct.std::_Rb_tree_iterator", align 8
  store %"struct.std::_Rb_tree_iterator"* %35, %"struct.std::_Rb_tree_iterator"** %6, align 8
  %36 = alloca %"struct.std::_Rb_tree_iterator", align 8
  store %"struct.std::_Rb_tree_iterator"* %36, %"struct.std::_Rb_tree_iterator"** %5, align 8
  %37 = alloca %"struct.std::_Rb_tree_iterator", align 8
  store %"struct.std::_Rb_tree_iterator"* %37, %"struct.std::_Rb_tree_iterator"** %4, align 8
  %.0..0..0.6 = load volatile i32**, i32*** %12, align 8
  store i32* %1, i32** %.0..0..0.6, align 8
  store %"class.std::_Rb_tree"* %0, %"class.std::_Rb_tree"** %3, align 8
  %.0..0..0.70 = load volatile %"class.std::_Rb_tree"*, %"class.std::_Rb_tree"** %3, align 8
  %38 = call %"struct.std::_Rb_tree_node"* @_ZNSt8_Rb_treeIiiSt9_IdentityIiESt4lessIiESaIiEE8_M_beginEv(%"class.std::_Rb_tree"* %.0..0..0.70) #13
  %.0..0..0.13 = load volatile %"struct.std::_Rb_tree_node"**, %"struct.std::_Rb_tree_node"*** %11, align 8
  store %"struct.std::_Rb_tree_node"* %38, %"struct.std::_Rb_tree_node"** %.0..0..0.13, align 8
  %.0..0..0.71 = load volatile %"class.std::_Rb_tree"*, %"class.std::_Rb_tree"** %3, align 8
  %39 = call %"struct.std::_Rb_tree_node"* @_ZNSt8_Rb_treeIiiSt9_IdentityIiESt4lessIiESaIiEE6_M_endEv(%"class.std::_Rb_tree"* %.0..0..0.71) #13
  %.0..0..0.35 = load volatile %"struct.std::_Rb_tree_node"**, %"struct.std::_Rb_tree_node"*** %10, align 8
  store %"struct.std::_Rb_tree_node"* %39, %"struct.std::_Rb_tree_node"** %.0..0..0.35, align 8
  %40 = load i32, i32* @x.223, align 4
  %41 = load i32, i32* @y.224, align 4
  %42 = add i32 %40, -1
  %43 = mul i32 %42, %40
  %44 = and i32 %43, 1
  %45 = icmp eq i32 %44, 0
  %46 = icmp slt i32 %41, 10
  %47 = or i1 %46, %45
  %48 = select i1 %47, i32 -382593363, i32 -1127385239
  br label %.backedge

49:                                               ; preds = %23
  br label %.backedge

50:                                               ; preds = %23
  %.0..0..0.14 = load volatile %"struct.std::_Rb_tree_node"**, %"struct.std::_Rb_tree_node"*** %11, align 8
  %51 = load %"struct.std::_Rb_tree_node"*, %"struct.std::_Rb_tree_node"** %.0..0..0.14, align 8
  %.not = icmp eq %"struct.std::_Rb_tree_node"* %51, null
  %52 = select i1 %.not, i32 1686738950, i32 -1936953575
  br label %.backedge

53:                                               ; preds = %23
  %.0..0..0.72 = load volatile %"class.std::_Rb_tree"*, %"class.std::_Rb_tree"** %3, align 8
  %54 = getelementptr inbounds %"class.std::_Rb_tree", %"class.std::_Rb_tree"* %.0..0..0.72, i64 0, i32 0, i32 0
  %.0..0..0.15 = load volatile %"struct.std::_Rb_tree_node"**, %"struct.std::_Rb_tree_node"*** %11, align 8
  %55 = load %"struct.std::_Rb_tree_node"*, %"struct.std::_Rb_tree_node"** %.0..0..0.15, align 8
  %56 = call dereferenceable(4) i32* @_ZNSt8_Rb_treeIiiSt9_IdentityIiESt4lessIiESaIiEE6_S_keyEPKSt13_Rb_tree_nodeIiE(%"struct.std::_Rb_tree_node"* %55)
  %.0..0..0.7 = load volatile i32**, i32*** %12, align 8
  %57 = load i32*, i32** %.0..0..0.7, align 8
  %58 = call zeroext i1 @_ZNKSt4lessIiEclERKiS2_(%"struct.std::less"* %54, i32* nonnull dereferenceable(4) %56, i32* dereferenceable(4) %57)
  %59 = select i1 %58, i32 1322657700, i32 -276283395
  br label %.backedge

60:                                               ; preds = %23
  %.0..0..0.16 = load volatile %"struct.std::_Rb_tree_node"**, %"struct.std::_Rb_tree_node"*** %11, align 8
  %61 = bitcast %"struct.std::_Rb_tree_node"** %.0..0..0.16 to %"struct.std::_Rb_tree_node_base"**
  %62 = load %"struct.std::_Rb_tree_node_base"*, %"struct.std::_Rb_tree_node_base"** %61, align 8
  %63 = call %"struct.std::_Rb_tree_node"* @_ZNSt8_Rb_treeIiiSt9_IdentityIiESt4lessIiESaIiEE8_S_rightEPSt18_Rb_tree_node_base(%"struct.std::_Rb_tree_node_base"* %62) #13
  %.0..0..0.17 = load volatile %"struct.std::_Rb_tree_node"**, %"struct.std::_Rb_tree_node"*** %11, align 8
  store %"struct.std::_Rb_tree_node"* %63, %"struct.std::_Rb_tree_node"** %.0..0..0.17, align 8
  br label %.backedge

64:                                               ; preds = %23
  %.0..0..0.73 = load volatile %"class.std::_Rb_tree"*, %"class.std::_Rb_tree"** %3, align 8
  %65 = getelementptr inbounds %"class.std::_Rb_tree", %"class.std::_Rb_tree"* %.0..0..0.73, i64 0, i32 0, i32 0
  %.0..0..0.8 = load volatile i32**, i32*** %12, align 8
  %66 = load i32*, i32** %.0..0..0.8, align 8
  %.0..0..0.18 = load volatile %"struct.std::_Rb_tree_node"**, %"struct.std::_Rb_tree_node"*** %11, align 8
  %67 = load %"struct.std::_Rb_tree_node"*, %"struct.std::_Rb_tree_node"** %.0..0..0.18, align 8
  %68 = call dereferenceable(4) i32* @_ZNSt8_Rb_treeIiiSt9_IdentityIiESt4lessIiESaIiEE6_S_keyEPKSt13_Rb_tree_nodeIiE(%"struct.std::_Rb_tree_node"* %67)
  %69 = call zeroext i1 @_ZNKSt4lessIiEclERKiS2_(%"struct.std::less"* %65, i32* dereferenceable(4) %66, i32* nonnull dereferenceable(4) %68)
  %70 = select i1 %69, i32 -1883363446, i32 -652546411
  br label %.backedge

71:                                               ; preds = %23
  %72 = load i32, i32* @x.223, align 4
  %73 = load i32, i32* @y.224, align 4
  %74 = add i32 %72, -1
  %75 = mul i32 %74, %72
  %76 = and i32 %75, 1
  %77 = icmp eq i32 %76, 0
  %78 = icmp slt i32 %73, 10
  %79 = or i1 %78, %77
  %80 = select i1 %79, i32 -2032769952, i32 537182653
  br label %.backedge

81:                                               ; preds = %23
  %.0..0..0.19 = load volatile %"struct.std::_Rb_tree_node"**, %"struct.std::_Rb_tree_node"*** %11, align 8
  %82 = load %"struct.std::_Rb_tree_node"*, %"struct.std::_Rb_tree_node"** %.0..0..0.19, align 8
  %.0..0..0.36 = load volatile %"struct.std::_Rb_tree_node"**, %"struct.std::_Rb_tree_node"*** %10, align 8
  store %"struct.std::_Rb_tree_node"* %82, %"struct.std::_Rb_tree_node"** %.0..0..0.36, align 8
  %.0..0..0.20 = load volatile %"struct.std::_Rb_tree_node"**, %"struct.std::_Rb_tree_node"*** %11, align 8
  %83 = bitcast %"struct.std::_Rb_tree_node"** %.0..0..0.20 to %"struct.std::_Rb_tree_node_base"**
  %84 = load %"struct.std::_Rb_tree_node_base"*, %"struct.std::_Rb_tree_node_base"** %83, align 8
  %85 = call %"struct.std::_Rb_tree_node"* @_ZNSt8_Rb_treeIiiSt9_IdentityIiESt4lessIiESaIiEE7_S_leftEPSt18_Rb_tree_node_base(%"struct.std::_Rb_tree_node_base"* %84) #13
  %.0..0..0.21 = load volatile %"struct.std::_Rb_tree_node"**, %"struct.std::_Rb_tree_node"*** %11, align 8
  store %"struct.std::_Rb_tree_node"* %85, %"struct.std::_Rb_tree_node"** %.0..0..0.21, align 8
  %86 = load i32, i32* @x.223, align 4
  %87 = load i32, i32* @y.224, align 4
  %88 = add i32 %86, -1
  %89 = mul i32 %88, %86
  %90 = and i32 %89, 1
  %91 = icmp eq i32 %90, 0
  %92 = icmp slt i32 %87, 10
  %93 = or i1 %92, %91
  %94 = select i1 %93, i32 -769320630, i32 537182653
  br label %.backedge

95:                                               ; preds = %23
  br label %.backedge

96:                                               ; preds = %23
  %97 = load i32, i32* @x.223, align 4
  %98 = load i32, i32* @y.224, align 4
  %99 = add i32 %97, -1
  %100 = mul i32 %99, %97
  %101 = and i32 %100, 1
  %102 = icmp eq i32 %101, 0
  %103 = icmp slt i32 %98, 10
  %104 = or i1 %103, %102
  %105 = select i1 %104, i32 5460626, i32 -2058330082
  br label %.backedge

106:                                              ; preds = %23
  %.0..0..0.22 = load volatile %"struct.std::_Rb_tree_node"**, %"struct.std::_Rb_tree_node"*** %11, align 8
  %107 = load %"struct.std::_Rb_tree_node"*, %"struct.std::_Rb_tree_node"** %.0..0..0.22, align 8
  %.0..0..0.46 = load volatile %"struct.std::_Rb_tree_node"**, %"struct.std::_Rb_tree_node"*** %9, align 8
  store %"struct.std::_Rb_tree_node"* %107, %"struct.std::_Rb_tree_node"** %.0..0..0.46, align 8
  %.0..0..0.37 = load volatile %"struct.std::_Rb_tree_node"**, %"struct.std::_Rb_tree_node"*** %10, align 8
  %108 = load %"struct.std::_Rb_tree_node"*, %"struct.std::_Rb_tree_node"** %.0..0..0.37, align 8
  %.0..0..0.54 = load volatile %"struct.std::_Rb_tree_node"**, %"struct.std::_Rb_tree_node"*** %8, align 8
  store %"struct.std::_Rb_tree_node"* %108, %"struct.std::_Rb_tree_node"** %.0..0..0.54, align 8
  %.0..0..0.23 = load volatile %"struct.std::_Rb_tree_node"**, %"struct.std::_Rb_tree_node"*** %11, align 8
  %109 = load %"struct.std::_Rb_tree_node"*, %"struct.std::_Rb_tree_node"** %.0..0..0.23, align 8
  %.0..0..0.38 = load volatile %"struct.std::_Rb_tree_node"**, %"struct.std::_Rb_tree_node"*** %10, align 8
  store %"struct.std::_Rb_tree_node"* %109, %"struct.std::_Rb_tree_node"** %.0..0..0.38, align 8
  %.0..0..0.24 = load volatile %"struct.std::_Rb_tree_node"**, %"struct.std::_Rb_tree_node"*** %11, align 8
  %110 = bitcast %"struct.std::_Rb_tree_node"** %.0..0..0.24 to %"struct.std::_Rb_tree_node_base"**
  %111 = load %"struct.std::_Rb_tree_node_base"*, %"struct.std::_Rb_tree_node_base"** %110, align 8
  %112 = call %"struct.std::_Rb_tree_node"* @_ZNSt8_Rb_treeIiiSt9_IdentityIiESt4lessIiESaIiEE7_S_leftEPSt18_Rb_tree_node_base(%"struct.std::_Rb_tree_node_base"* %111) #13
  %.0..0..0.25 = load volatile %"struct.std::_Rb_tree_node"**, %"struct.std::_Rb_tree_node"*** %11, align 8
  store %"struct.std::_Rb_tree_node"* %112, %"struct.std::_Rb_tree_node"** %.0..0..0.25, align 8
  %.0..0..0.47 = load volatile %"struct.std::_Rb_tree_node"**, %"struct.std::_Rb_tree_node"*** %9, align 8
  %113 = bitcast %"struct.std::_Rb_tree_node"** %.0..0..0.47 to %"struct.std::_Rb_tree_node_base"**
  %114 = load %"struct.std::_Rb_tree_node_base"*, %"struct.std::_Rb_tree_node_base"** %113, align 8
  %115 = call %"struct.std::_Rb_tree_node"* @_ZNSt8_Rb_treeIiiSt9_IdentityIiESt4lessIiESaIiEE8_S_rightEPSt18_Rb_tree_node_base(%"struct.std::_Rb_tree_node_base"* %114) #13
  %.0..0..0.48 = load volatile %"struct.std::_Rb_tree_node"**, %"struct.std::_Rb_tree_node"*** %9, align 8
  store %"struct.std::_Rb_tree_node"* %115, %"struct.std::_Rb_tree_node"** %.0..0..0.48, align 8
  %.0..0..0.26 = load volatile %"struct.std::_Rb_tree_node"**, %"struct.std::_Rb_tree_node"*** %11, align 8
  %116 = load %"struct.std::_Rb_tree_node"*, %"struct.std::_Rb_tree_node"** %.0..0..0.26, align 8
  %.0..0..0.39 = load volatile %"struct.std::_Rb_tree_node"**, %"struct.std::_Rb_tree_node"*** %10, align 8
  %117 = load %"struct.std::_Rb_tree_node"*, %"struct.std::_Rb_tree_node"** %.0..0..0.39, align 8
  %.0..0..0.9 = load volatile i32**, i32*** %12, align 8
  %118 = load i32*, i32** %.0..0..0.9, align 8
  %.0..0..0.74 = load volatile %"class.std::_Rb_tree"*, %"class.std::_Rb_tree"** %3, align 8
  %119 = call %"struct.std::_Rb_tree_node_base"* @_ZNSt8_Rb_treeIiiSt9_IdentityIiESt4lessIiESaIiEE14_M_lower_boundEPSt13_Rb_tree_nodeIiES8_RKi(%"class.std::_Rb_tree"* %.0..0..0.74, %"struct.std::_Rb_tree_node"* %116, %"struct.std::_Rb_tree_node"* %117, i32* dereferenceable(4) %118)
  %.0..0..0.58 = load volatile %"struct.std::_Rb_tree_iterator"*, %"struct.std::_Rb_tree_iterator"** %7, align 8
  %120 = getelementptr inbounds %"struct.std::_Rb_tree_iterator", %"struct.std::_Rb_tree_iterator"* %.0..0..0.58, i64 0, i32 0
  store %"struct.std::_Rb_tree_node_base"* %119, %"struct.std::_Rb_tree_node_base"** %120, align 8
  %.0..0..0.49 = load volatile %"struct.std::_Rb_tree_node"**, %"struct.std::_Rb_tree_node"*** %9, align 8
  %121 = load %"struct.std::_Rb_tree_node"*, %"struct.std::_Rb_tree_node"** %.0..0..0.49, align 8
  %.0..0..0.55 = load volatile %"struct.std::_Rb_tree_node"**, %"struct.std::_Rb_tree_node"*** %8, align 8
  %122 = load %"struct.std::_Rb_tree_node"*, %"struct.std::_Rb_tree_node"** %.0..0..0.55, align 8
  %.0..0..0.10 = load volatile i32**, i32*** %12, align 8
  %123 = load i32*, i32** %.0..0..0.10, align 8
  %.0..0..0.75 = load volatile %"class.std::_Rb_tree"*, %"class.std::_Rb_tree"** %3, align 8
  %124 = call %"struct.std::_Rb_tree_node_base"* @_ZNSt8_Rb_treeIiiSt9_IdentityIiESt4lessIiESaIiEE14_M_upper_boundEPSt13_Rb_tree_nodeIiES8_RKi(%"class.std::_Rb_tree"* %.0..0..0.75, %"struct.std::_Rb_tree_node"* %121, %"struct.std::_Rb_tree_node"* %122, i32* dereferenceable(4) %123)
  %.0..0..0.62 = load volatile %"struct.std::_Rb_tree_iterator"*, %"struct.std::_Rb_tree_iterator"** %6, align 8
  %125 = getelementptr inbounds %"struct.std::_Rb_tree_iterator", %"struct.std::_Rb_tree_iterator"* %.0..0..0.62, i64 0, i32 0
  store %"struct.std::_Rb_tree_node_base"* %124, %"struct.std::_Rb_tree_node_base"** %125, align 8
  %.0..0..0.2 = load volatile %"struct.std::pair.9"*, %"struct.std::pair.9"** %13, align 8
  %.0..0..0.59 = load volatile %"struct.std::_Rb_tree_iterator"*, %"struct.std::_Rb_tree_iterator"** %7, align 8
  %.0..0..0.63 = load volatile %"struct.std::_Rb_tree_iterator"*, %"struct.std::_Rb_tree_iterator"** %6, align 8
  call void @_ZNSt4pairISt17_Rb_tree_iteratorIiES1_EC2IS1_S1_vEEOT_OT0_(%"struct.std::pair.9"* %.0..0..0.2, %"struct.std::_Rb_tree_iterator"* dereferenceable(8) %.0..0..0.59, %"struct.std::_Rb_tree_iterator"* dereferenceable(8) %.0..0..0.63)
  %126 = load i32, i32* @x.223, align 4
  %127 = load i32, i32* @y.224, align 4
  %128 = add i32 %126, -1
  %129 = mul i32 %128, %126
  %130 = and i32 %129, 1
  %131 = icmp eq i32 %130, 0
  %132 = icmp slt i32 %127, 10
  %133 = or i1 %132, %131
  %134 = select i1 %133, i32 1278338033, i32 -2058330082
  br label %.backedge

135:                                              ; preds = %23
  br label %.backedge

136:                                              ; preds = %23
  br label %.backedge

137:                                              ; preds = %23
  br label %.backedge

138:                                              ; preds = %23
  %.0..0..0.40 = load volatile %"struct.std::_Rb_tree_node"**, %"struct.std::_Rb_tree_node"*** %10, align 8
  %139 = bitcast %"struct.std::_Rb_tree_node"** %.0..0..0.40 to %"struct.std::_Rb_tree_node_base"**
  %140 = load %"struct.std::_Rb_tree_node_base"*, %"struct.std::_Rb_tree_node_base"** %139, align 8
  %.0..0..0.66 = load volatile %"struct.std::_Rb_tree_iterator"*, %"struct.std::_Rb_tree_iterator"** %5, align 8
  call void @_ZNSt17_Rb_tree_iteratorIiEC2EPSt18_Rb_tree_node_base(%"struct.std::_Rb_tree_iterator"* %.0..0..0.66, %"struct.std::_Rb_tree_node_base"* %140) #13
  %.0..0..0.41 = load volatile %"struct.std::_Rb_tree_node"**, %"struct.std::_Rb_tree_node"*** %10, align 8
  %141 = bitcast %"struct.std::_Rb_tree_node"** %.0..0..0.41 to %"struct.std::_Rb_tree_node_base"**
  %142 = load %"struct.std::_Rb_tree_node_base"*, %"struct.std::_Rb_tree_node_base"** %141, align 8
  %.0..0..0.68 = load volatile %"struct.std::_Rb_tree_iterator"*, %"struct.std::_Rb_tree_iterator"** %4, align 8
  call void @_ZNSt17_Rb_tree_iteratorIiEC2EPSt18_Rb_tree_node_base(%"struct.std::_Rb_tree_iterator"* %.0..0..0.68, %"struct.std::_Rb_tree_node_base"* %142) #13
  %.0..0..0.3 = load volatile %"struct.std::pair.9"*, %"struct.std::pair.9"** %13, align 8
  %.0..0..0.67 = load volatile %"struct.std::_Rb_tree_iterator"*, %"struct.std::_Rb_tree_iterator"** %5, align 8
  %.0..0..0.69 = load volatile %"struct.std::_Rb_tree_iterator"*, %"struct.std::_Rb_tree_iterator"** %4, align 8
  call void @_ZNSt4pairISt17_Rb_tree_iteratorIiES1_EC2IS1_S1_vEEOT_OT0_(%"struct.std::pair.9"* %.0..0..0.3, %"struct.std::_Rb_tree_iterator"* dereferenceable(8) %.0..0..0.67, %"struct.std::_Rb_tree_iterator"* dereferenceable(8) %.0..0..0.69)
  br label %.backedge

143:                                              ; preds = %23
  %.0..0..0.4 = load volatile %"struct.std::pair.9"*, %"struct.std::pair.9"** %13, align 8
  %.elt = getelementptr %"struct.std::pair.9", %"struct.std::pair.9"* %.0..0..0.4, i64 0, i32 0, i32 0
  %.unpack = load %"struct.std::_Rb_tree_node_base"*, %"struct.std::_Rb_tree_node_base"** %.elt, align 8
  %144 = insertvalue { %"struct.std::_Rb_tree_node_base"*, %"struct.std::_Rb_tree_node_base"* } undef, %"struct.std::_Rb_tree_node_base"* %.unpack, 0
  %145 = getelementptr inbounds %"struct.std::pair.9", %"struct.std::pair.9"* %.0..0..0.4, i64 0, i32 1, i32 0
  %.unpack79 = load %"struct.std::_Rb_tree_node_base"*, %"struct.std::_Rb_tree_node_base"** %145, align 8
  %146 = insertvalue { %"struct.std::_Rb_tree_node_base"*, %"struct.std::_Rb_tree_node_base"* } %144, %"struct.std::_Rb_tree_node_base"* %.unpack79, 1
  ret { %"struct.std::_Rb_tree_node_base"*, %"struct.std::_Rb_tree_node_base"* } %146

147:                                              ; preds = %23
  %148 = call %"struct.std::_Rb_tree_node"* @_ZNSt8_Rb_treeIiiSt9_IdentityIiESt4lessIiESaIiEE8_M_beginEv(%"class.std::_Rb_tree"* %0) #13
  %149 = call %"struct.std::_Rb_tree_node"* @_ZNSt8_Rb_treeIiiSt9_IdentityIiESt4lessIiESaIiEE6_M_endEv(%"class.std::_Rb_tree"* %0) #13
  br label %.backedge

150:                                              ; preds = %23
  %.0..0..0.27 = load volatile %"struct.std::_Rb_tree_node"**, %"struct.std::_Rb_tree_node"*** %11, align 8
  %151 = load %"struct.std::_Rb_tree_node"*, %"struct.std::_Rb_tree_node"** %.0..0..0.27, align 8
  %.0..0..0.42 = load volatile %"struct.std::_Rb_tree_node"**, %"struct.std::_Rb_tree_node"*** %10, align 8
  store %"struct.std::_Rb_tree_node"* %151, %"struct.std::_Rb_tree_node"** %.0..0..0.42, align 8
  %.0..0..0.28 = load volatile %"struct.std::_Rb_tree_node"**, %"struct.std::_Rb_tree_node"*** %11, align 8
  %152 = bitcast %"struct.std::_Rb_tree_node"** %.0..0..0.28 to %"struct.std::_Rb_tree_node_base"**
  %153 = load %"struct.std::_Rb_tree_node_base"*, %"struct.std::_Rb_tree_node_base"** %152, align 8
  %154 = call %"struct.std::_Rb_tree_node"* @_ZNSt8_Rb_treeIiiSt9_IdentityIiESt4lessIiESaIiEE7_S_leftEPSt18_Rb_tree_node_base(%"struct.std::_Rb_tree_node_base"* %153) #13
  %.0..0..0.29 = load volatile %"struct.std::_Rb_tree_node"**, %"struct.std::_Rb_tree_node"*** %11, align 8
  store %"struct.std::_Rb_tree_node"* %154, %"struct.std::_Rb_tree_node"** %.0..0..0.29, align 8
  br label %.backedge

155:                                              ; preds = %23
  %.0..0..0.30 = load volatile %"struct.std::_Rb_tree_node"**, %"struct.std::_Rb_tree_node"*** %11, align 8
  %156 = load %"struct.std::_Rb_tree_node"*, %"struct.std::_Rb_tree_node"** %.0..0..0.30, align 8
  %.0..0..0.50 = load volatile %"struct.std::_Rb_tree_node"**, %"struct.std::_Rb_tree_node"*** %9, align 8
  store %"struct.std::_Rb_tree_node"* %156, %"struct.std::_Rb_tree_node"** %.0..0..0.50, align 8
