; ModuleID = 'Project_CodeNet_C++1400/p02974/s573501646.cpp'
source_filename = "Project_CodeNet_C++1400/p02974/s573501646.cpp"
target datalayout = "e-m:e-i64:64-f80:128-n8:16:32:64-S128"
target triple = "x86_64-unknown-linux-gnu"

%"class.std::ios_base::Init" = type { i8 }
%"class.std::basic_istream" = type { i32 (...)**, i64, %"class.std::basic_ios" }
%"class.std::basic_ios" = type { %"class.std::ios_base", %"class.std::basic_ostream"*, i8, i8, %"class.std::basic_streambuf"*, %"class.std::ctype"*, %"class.std::num_put"*, %"class.std::num_get"* }
%"class.std::ios_base" = type { i32 (...)**, i64, i64, i32, i32, i32, %"struct.std::ios_base::_Callback_list"*, %"struct.std::ios_base::_Words", [8 x %"struct.std::ios_base::_Words"], i32, %"struct.std::ios_base::_Words"*, %"class.std::locale" }
%"struct.std::ios_base::_Callback_list" = type { %"struct.std::ios_base::_Callback_list"*, void (i32, %"class.std::ios_base"*, i32)*, i32, i32 }
%"struct.std::ios_base::_Words" = type { i8*, i64 }
%"class.std::locale" = type { %"class.std::locale::_Impl"* }
%"class.std::locale::_Impl" = type { i32, %"class.std::locale::facet"**, i64, %"class.std::locale::facet"**, i8** }
%"class.std::locale::facet" = type <{ i32 (...)**, i32, [4 x i8] }>
%"class.std::basic_ostream" = type { i32 (...)**, %"class.std::basic_ios" }
%"class.std::basic_streambuf" = type { i32 (...)**, i8*, i8*, i8*, i8*, i8*, i8*, %"class.std::locale" }
%"class.std::ctype" = type <{ %"class.std::locale::facet.base", [4 x i8], %struct.__locale_struct*, i8, [7 x i8], i32*, i32*, i16*, i8, [256 x i8], [256 x i8], i8, [6 x i8] }>
%"class.std::locale::facet.base" = type <{ i32 (...)**, i32 }>
%struct.__locale_struct = type { [13 x %struct.__locale_data*], i16*, i32*, i32*, [13 x i8*] }
%struct.__locale_data = type opaque
%"class.std::num_put" = type { %"class.std::locale::facet.base", [4 x i8] }
%"class.std::num_get" = type { %"class.std::locale::facet.base", [4 x i8] }
%"class.std::vector" = type { %"struct.std::_Vector_base" }
%"struct.std::_Vector_base" = type { %"struct.std::_Vector_base<std::vector<std::vector<long long, std::allocator<long long> >, std::allocator<std::vector<long long, std::allocator<long long> > > >, std::allocator<std::vector<std::vector<long long, std::allocator<long long> >, std::allocator<std::vector<long long, std::allocator<long long> > > > > >::_Vector_impl" }
%"struct.std::_Vector_base<std::vector<std::vector<long long, std::allocator<long long> >, std::allocator<std::vector<long long, std::allocator<long long> > > >, std::allocator<std::vector<std::vector<long long, std::allocator<long long> >, std::allocator<std::vector<long long, std::allocator<long long> > > > > >::_Vector_impl" = type { %"class.std::vector.0"*, %"class.std::vector.0"*, %"class.std::vector.0"* }
%"class.std::vector.0" = type { %"struct.std::_Vector_base.1" }
%"struct.std::_Vector_base.1" = type { %"struct.std::_Vector_base<std::vector<long long, std::allocator<long long> >, std::allocator<std::vector<long long, std::allocator<long long> > > >::_Vector_impl" }
%"struct.std::_Vector_base<std::vector<long long, std::allocator<long long> >, std::allocator<std::vector<long long, std::allocator<long long> > > >::_Vector_impl" = type { %"class.std::vector.5"*, %"class.std::vector.5"*, %"class.std::vector.5"* }
%"class.std::vector.5" = type { %"struct.std::_Vector_base.6" }
%"struct.std::_Vector_base.6" = type { %"struct.std::_Vector_base<long long, std::allocator<long long> >::_Vector_impl" }
%"struct.std::_Vector_base<long long, std::allocator<long long> >::_Vector_impl" = type { i64*, i64*, i64* }
%"class.std::allocator.7" = type { i8 }
%"class.std::allocator.2" = type { i8 }
%"class.std::allocator" = type { i8 }
%"class.__gnu_cxx::new_allocator.8" = type { i8 }
%"class.__gnu_cxx::new_allocator.3" = type { i8 }
%"class.__gnu_cxx::new_allocator" = type { i8 }
%"class.__gnu_cxx::__normal_iterator" = type { i64* }
%"class.__gnu_cxx::__normal_iterator.10" = type { %"class.std::vector.5"* }

$_ZNSaIxEC2Ev = comdat any

$_ZNSt6vectorIxSaIxEEC2EmRKS0_ = comdat any

$_ZNSaISt6vectorIxSaIxEEEC2Ev = comdat any

$_ZNSt6vectorIS_IxSaIxEESaIS1_EEC2EmRKS1_RKS2_ = comdat any

$_ZNSaISt6vectorIS_IxSaIxEESaIS1_EEEC2Ev = comdat any

$_ZNSt6vectorIS_IS_IxSaIxEESaIS1_EESaIS3_EEC2EmRKS3_RKS4_ = comdat any

$_ZNSaISt6vectorIS_IxSaIxEESaIS1_EEED2Ev = comdat any

$_ZNSt6vectorIS_IxSaIxEESaIS1_EED2Ev = comdat any

$_ZNSaISt6vectorIxSaIxEEED2Ev = comdat any

$_ZNSt6vectorIxSaIxEED2Ev = comdat any

$_ZNSaIxED2Ev = comdat any

$_ZNSt6vectorIS_IS_IxSaIxEESaIS1_EESaIS3_EEixEm = comdat any

$_ZNSt6vectorIS_IxSaIxEESaIS1_EEixEm = comdat any

$_ZNSt6vectorIxSaIxEEixEm = comdat any

$_ZNSt6vectorIS_IS_IxSaIxEESaIS1_EESaIS3_EED2Ev = comdat any

$_ZN9__gnu_cxx13new_allocatorIxEC2Ev = comdat any

$_ZN9__gnu_cxx13new_allocatorIxED2Ev = comdat any

$_ZNSt12_Vector_baseIxSaIxEEC2EmRKS0_ = comdat any

$_ZNSt6vectorIxSaIxEE21_M_default_initializeEm = comdat any

$_ZNSt12_Vector_baseIxSaIxEED2Ev = comdat any

$_ZNSt12_Vector_baseIxSaIxEE12_Vector_implC2ERKS0_ = comdat any

$_ZNSt12_Vector_baseIxSaIxEE17_M_create_storageEm = comdat any

$_ZNSt12_Vector_baseIxSaIxEE12_Vector_implD2Ev = comdat any

$_ZN9__gnu_cxx13new_allocatorIxEC2ERKS1_ = comdat any

$_ZNSt12_Vector_baseIxSaIxEE11_M_allocateEm = comdat any

$_ZNSt16allocator_traitsISaIxEE8allocateERS0_m = comdat any

$_ZN9__gnu_cxx13new_allocatorIxE8allocateEmPKv = comdat any

$_ZNK9__gnu_cxx13new_allocatorIxE8max_sizeEv = comdat any

$_ZSt27__uninitialized_default_n_aIPxmxET_S1_T0_RSaIT1_E = comdat any

$_ZNSt12_Vector_baseIxSaIxEE19_M_get_Tp_allocatorEv = comdat any

$_ZSt25__uninitialized_default_nIPxmET_S1_T0_ = comdat any

$_ZNSt27__uninitialized_default_n_1ILb1EE18__uninit_default_nIPxmEET_S3_T0_ = comdat any

$_ZSt6fill_nIPxmxET_S1_T0_RKT1_ = comdat any

$_ZSt10__fill_n_aIPxmxEN9__gnu_cxx11__enable_ifIXsr11__is_scalarIT1_EE7__valueET_E6__typeES4_T0_RKS3_ = comdat any

$_ZSt12__niter_baseIPxENSt11_Niter_baseIT_E13iterator_typeES2_ = comdat any

$_ZNSt10_Iter_baseIPxLb0EE7_S_baseES0_ = comdat any

$_ZNSt12_Vector_baseIxSaIxEE13_M_deallocateEPxm = comdat any

$__clang_call_terminate = comdat any

$_ZNSt16allocator_traitsISaIxEE10deallocateERS0_Pxm = comdat any

$_ZN9__gnu_cxx13new_allocatorIxE10deallocateEPxm = comdat any

$_ZSt8_DestroyIPxxEvT_S1_RSaIT0_E = comdat any

$_ZSt8_DestroyIPxEvT_S1_ = comdat any

$_ZNSt12_Destroy_auxILb1EE9__destroyIPxEEvT_S3_ = comdat any

$_ZN9__gnu_cxx13new_allocatorISt6vectorIxSaIxEEEC2Ev = comdat any

$_ZN9__gnu_cxx13new_allocatorISt6vectorIxSaIxEEED2Ev = comdat any

$_ZNSt12_Vector_baseISt6vectorIxSaIxEESaIS2_EEC2EmRKS3_ = comdat any

$_ZNSt6vectorIS_IxSaIxEESaIS1_EE18_M_fill_initializeEmRKS1_ = comdat any

$_ZNSt12_Vector_baseISt6vectorIxSaIxEESaIS2_EED2Ev = comdat any

$_ZNSt12_Vector_baseISt6vectorIxSaIxEESaIS2_EE12_Vector_implC2ERKS3_ = comdat any

$_ZNSt12_Vector_baseISt6vectorIxSaIxEESaIS2_EE17_M_create_storageEm = comdat any

$_ZNSt12_Vector_baseISt6vectorIxSaIxEESaIS2_EE12_Vector_implD2Ev = comdat any

$_ZN9__gnu_cxx13new_allocatorISt6vectorIxSaIxEEEC2ERKS4_ = comdat any

$_ZNSt12_Vector_baseISt6vectorIxSaIxEESaIS2_EE11_M_allocateEm = comdat any

$_ZNSt16allocator_traitsISaISt6vectorIxSaIxEEEE8allocateERS3_m = comdat any

$_ZN9__gnu_cxx13new_allocatorISt6vectorIxSaIxEEE8allocateEmPKv = comdat any

$_ZNK9__gnu_cxx13new_allocatorISt6vectorIxSaIxEEE8max_sizeEv = comdat any

$_ZSt24__uninitialized_fill_n_aIPSt6vectorIxSaIxEEmS2_S2_ET_S4_T0_RKT1_RSaIT2_E = comdat any

$_ZNSt12_Vector_baseISt6vectorIxSaIxEESaIS2_EE19_M_get_Tp_allocatorEv = comdat any

$_ZSt20uninitialized_fill_nIPSt6vectorIxSaIxEEmS2_ET_S4_T0_RKT1_ = comdat any

$_ZNSt22__uninitialized_fill_nILb0EE15__uninit_fill_nIPSt6vectorIxSaIxEEmS4_EET_S6_T0_RKT1_ = comdat any

$_ZSt10_ConstructISt6vectorIxSaIxEEJRKS2_EEvPT_DpOT0_ = comdat any

$_ZSt11__addressofISt6vectorIxSaIxEEEPT_RS3_ = comdat any

$_ZSt8_DestroyIPSt6vectorIxSaIxEEEvT_S4_ = comdat any

$_ZSt7forwardIRKSt6vectorIxSaIxEEEOT_RNSt16remove_referenceIS5_E4typeE = comdat any

$_ZNSt6vectorIxSaIxEEC2ERKS1_ = comdat any

$_ZNKSt6vectorIxSaIxEE4sizeEv = comdat any

$_ZN9__gnu_cxx14__alloc_traitsISaIxEE17_S_select_on_copyERKS1_ = comdat any

$_ZNKSt12_Vector_baseIxSaIxEE19_M_get_Tp_allocatorEv = comdat any

$_ZSt22__uninitialized_copy_aIN9__gnu_cxx17__normal_iteratorIPKxSt6vectorIxSaIxEEEEPxxET0_T_SA_S9_RSaIT1_E = comdat any

$_ZNKSt6vectorIxSaIxEE5beginEv = comdat any

$_ZNKSt6vectorIxSaIxEE3endEv = comdat any

$_ZNSt16allocator_traitsISaIxEE37select_on_container_copy_constructionERKS0_ = comdat any

$_ZNSaIxEC2ERKS_ = comdat any

$_ZSt18uninitialized_copyIN9__gnu_cxx17__normal_iteratorIPKxSt6vectorIxSaIxEEEEPxET0_T_SA_S9_ = comdat any

$_ZNSt20__uninitialized_copyILb1EE13__uninit_copyIN9__gnu_cxx17__normal_iteratorIPKxSt6vectorIxSaIxEEEEPxEET0_T_SC_SB_ = comdat any

$_ZSt4copyIN9__gnu_cxx17__normal_iteratorIPKxSt6vectorIxSaIxEEEEPxET0_T_SA_S9_ = comdat any

$_ZSt14__copy_move_a2ILb0EN9__gnu_cxx17__normal_iteratorIPKxSt6vectorIxSaIxEEEEPxET1_T0_SA_S9_ = comdat any

$_ZSt12__miter_baseIN9__gnu_cxx17__normal_iteratorIPKxSt6vectorIxSaIxEEEEENSt11_Miter_baseIT_E13iterator_typeES9_ = comdat any

$_ZSt13__copy_move_aILb0EPKxPxET1_T0_S4_S3_ = comdat any

$_ZSt12__niter_baseIN9__gnu_cxx17__normal_iteratorIPKxSt6vectorIxSaIxEEEEENSt11_Niter_baseIT_E13iterator_typeES9_ = comdat any

$_ZNSt11__copy_moveILb0ELb1ESt26random_access_iterator_tagE8__copy_mIxEEPT_PKS3_S6_S4_ = comdat any

$_ZNSt10_Iter_baseIN9__gnu_cxx17__normal_iteratorIPKxSt6vectorIxSaIxEEEELb1EE7_S_baseES7_ = comdat any

$_ZNK9__gnu_cxx17__normal_iteratorIPKxSt6vectorIxSaIxEEE4baseEv = comdat any

$_ZNSt10_Iter_baseIN9__gnu_cxx17__normal_iteratorIPKxSt6vectorIxSaIxEEEELb0EE7_S_baseES7_ = comdat any

$_ZN9__gnu_cxx17__normal_iteratorIPKxSt6vectorIxSaIxEEEC2ERKS2_ = comdat any

$_ZNSt12_Destroy_auxILb0EE9__destroyIPSt6vectorIxSaIxEEEEvT_S6_ = comdat any

$_ZSt8_DestroyISt6vectorIxSaIxEEEvPT_ = comdat any

$_ZNSt12_Vector_baseISt6vectorIxSaIxEESaIS2_EE13_M_deallocateEPS2_m = comdat any

$_ZNSt16allocator_traitsISaISt6vectorIxSaIxEEEE10deallocateERS3_PS2_m = comdat any

$_ZN9__gnu_cxx13new_allocatorISt6vectorIxSaIxEEE10deallocateEPS3_m = comdat any

$_ZSt8_DestroyIPSt6vectorIxSaIxEES2_EvT_S4_RSaIT0_E = comdat any

$_ZN9__gnu_cxx13new_allocatorISt6vectorIS1_IxSaIxEESaIS3_EEEC2Ev = comdat any

$_ZN9__gnu_cxx13new_allocatorISt6vectorIS1_IxSaIxEESaIS3_EEED2Ev = comdat any

$_ZNSt12_Vector_baseISt6vectorIS0_IxSaIxEESaIS2_EESaIS4_EEC2EmRKS5_ = comdat any

$_ZNSt6vectorIS_IS_IxSaIxEESaIS1_EESaIS3_EE18_M_fill_initializeEmRKS3_ = comdat any

$_ZNSt12_Vector_baseISt6vectorIS0_IxSaIxEESaIS2_EESaIS4_EED2Ev = comdat any

$_ZNSt12_Vector_baseISt6vectorIS0_IxSaIxEESaIS2_EESaIS4_EE12_Vector_implC2ERKS5_ = comdat any

$_ZNSt12_Vector_baseISt6vectorIS0_IxSaIxEESaIS2_EESaIS4_EE17_M_create_storageEm = comdat any

$_ZNSt12_Vector_baseISt6vectorIS0_IxSaIxEESaIS2_EESaIS4_EE12_Vector_implD2Ev = comdat any

$_ZNSaISt6vectorIS_IxSaIxEESaIS1_EEEC2ERKS4_ = comdat any

$_ZN9__gnu_cxx13new_allocatorISt6vectorIS1_IxSaIxEESaIS3_EEEC2ERKS6_ = comdat any

$_ZNSt12_Vector_baseISt6vectorIS0_IxSaIxEESaIS2_EESaIS4_EE11_M_allocateEm = comdat any

$_ZNSt16allocator_traitsISaISt6vectorIS0_IxSaIxEESaIS2_EEEE8allocateERS5_m = comdat any

$_ZN9__gnu_cxx13new_allocatorISt6vectorIS1_IxSaIxEESaIS3_EEE8allocateEmPKv = comdat any

$_ZNK9__gnu_cxx13new_allocatorISt6vectorIS1_IxSaIxEESaIS3_EEE8max_sizeEv = comdat any

$_ZSt24__uninitialized_fill_n_aIPSt6vectorIS0_IxSaIxEESaIS2_EEmS4_S4_ET_S6_T0_RKT1_RSaIT2_E = comdat any

$_ZNSt12_Vector_baseISt6vectorIS0_IxSaIxEESaIS2_EESaIS4_EE19_M_get_Tp_allocatorEv = comdat any

$_ZSt20uninitialized_fill_nIPSt6vectorIS0_IxSaIxEESaIS2_EEmS4_ET_S6_T0_RKT1_ = comdat any

$_ZNSt22__uninitialized_fill_nILb0EE15__uninit_fill_nIPSt6vectorIS2_IxSaIxEESaIS4_EEmS6_EET_S8_T0_RKT1_ = comdat any

$_ZSt10_ConstructISt6vectorIS0_IxSaIxEESaIS2_EEJRKS4_EEvPT_DpOT0_ = comdat any

$_ZSt11__addressofISt6vectorIS0_IxSaIxEESaIS2_EEEPT_RS5_ = comdat any

$_ZSt8_DestroyIPSt6vectorIS0_IxSaIxEESaIS2_EEEvT_S6_ = comdat any

$_ZSt7forwardIRKSt6vectorIS0_IxSaIxEESaIS2_EEEOT_RNSt16remove_referenceIS7_E4typeE = comdat any

$_ZNSt6vectorIS_IxSaIxEESaIS1_EEC2ERKS3_ = comdat any

$_ZNKSt6vectorIS_IxSaIxEESaIS1_EE4sizeEv = comdat any

$_ZN9__gnu_cxx14__alloc_traitsISaISt6vectorIxSaIxEEEE17_S_select_on_copyERKS4_ = comdat any

$_ZNKSt12_Vector_baseISt6vectorIxSaIxEESaIS2_EE19_M_get_Tp_allocatorEv = comdat any

$_ZSt22__uninitialized_copy_aIN9__gnu_cxx17__normal_iteratorIPKSt6vectorIxSaIxEES2_IS4_SaIS4_EEEEPS4_S4_ET0_T_SC_SB_RSaIT1_E = comdat any

$_ZNKSt6vectorIS_IxSaIxEESaIS1_EE5beginEv = comdat any

$_ZNKSt6vectorIS_IxSaIxEESaIS1_EE3endEv = comdat any

$_ZNSt16allocator_traitsISaISt6vectorIxSaIxEEEE37select_on_container_copy_constructionERKS3_ = comdat any

$_ZNSaISt6vectorIxSaIxEEEC2ERKS2_ = comdat any

$_ZSt18uninitialized_copyIN9__gnu_cxx17__normal_iteratorIPKSt6vectorIxSaIxEES2_IS4_SaIS4_EEEEPS4_ET0_T_SC_SB_ = comdat any

$_ZNSt20__uninitialized_copyILb0EE13__uninit_copyIN9__gnu_cxx17__normal_iteratorIPKSt6vectorIxSaIxEES4_IS6_SaIS6_EEEEPS6_EET0_T_SE_SD_ = comdat any

$_ZN9__gnu_cxxneIPKSt6vectorIxSaIxEES1_IS3_SaIS3_EEEEbRKNS_17__normal_iteratorIT_T0_EESD_ = comdat any

$_ZNK9__gnu_cxx17__normal_iteratorIPKSt6vectorIxSaIxEES1_IS3_SaIS3_EEEdeEv = comdat any

$_ZN9__gnu_cxx17__normal_iteratorIPKSt6vectorIxSaIxEES1_IS3_SaIS3_EEEppEv = comdat any

$_ZNK9__gnu_cxx17__normal_iteratorIPKSt6vectorIxSaIxEES1_IS3_SaIS3_EEE4baseEv = comdat any

$_ZN9__gnu_cxx17__normal_iteratorIPKSt6vectorIxSaIxEES1_IS3_SaIS3_EEEC2ERKS5_ = comdat any

$_ZNSt12_Destroy_auxILb0EE9__destroyIPSt6vectorIS2_IxSaIxEESaIS4_EEEEvT_S8_ = comdat any

$_ZSt8_DestroyISt6vectorIS0_IxSaIxEESaIS2_EEEvPT_ = comdat any

$_ZNSt12_Vector_baseISt6vectorIS0_IxSaIxEESaIS2_EESaIS4_EE13_M_deallocateEPS4_m = comdat any

$_ZNSt16allocator_traitsISaISt6vectorIS0_IxSaIxEESaIS2_EEEE10deallocateERS5_PS4_m = comdat any

$_ZN9__gnu_cxx13new_allocatorISt6vectorIS1_IxSaIxEESaIS3_EEE10deallocateEPS5_m = comdat any

$_ZSt8_DestroyIPSt6vectorIS0_IxSaIxEESaIS2_EES4_EvT_S6_RSaIT0_E = comdat any

@_ZStL8__ioinit = internal global %"class.std::ios_base::Init" zeroinitializer, align 1
@__dso_handle = external global i8
@_ZSt3cin = external global %"class.std::basic_istream", align 8
@_ZSt4cout = external global %"class.std::basic_ostream", align 8
@llvm.global_ctors = appending global [1 x { i32, void ()*, i8* }] [{ i32, void ()*, i8* } { i32 65535, void ()* @_GLOBAL__sub_I_s573501646.cpp, i8* null }]
@x = common global i32 0
@y = common global i32 0
@x.1 = common global i32 0
@y.2 = common global i32 0
@x.3 = common global i32 0
@y.4 = common global i32 0
@x.5 = common global i32 0
@y.6 = common global i32 0
@x.7 = common global i32 0
@y.8 = common global i32 0
@x.9 = common global i32 0
@y.10 = common global i32 0
@x.11 = common global i32 0
@y.12 = common global i32 0
@x.13 = common global i32 0
@y.14 = common global i32 0
@x.15 = common global i32 0
@y.16 = common global i32 0
@x.17 = common global i32 0
@y.18 = common global i32 0
@x.19 = common global i32 0
@y.20 = common global i32 0
@x.21 = common global i32 0
@y.22 = common global i32 0
@x.23 = common global i32 0
@y.24 = common global i32 0
@x.25 = common global i32 0
@y.26 = common global i32 0
@x.27 = common global i32 0
@y.28 = common global i32 0
@x.29 = common global i32 0
@y.30 = common global i32 0
@x.31 = common global i32 0
@y.32 = common global i32 0
@x.33 = common global i32 0
@y.34 = common global i32 0
@x.35 = common global i32 0
@y.36 = common global i32 0
@x.37 = common global i32 0
@y.38 = common global i32 0
@x.39 = common global i32 0
@y.40 = common global i32 0
@x.41 = common global i32 0
@y.42 = common global i32 0
@x.43 = common global i32 0
@y.44 = common global i32 0
@x.45 = common global i32 0
@y.46 = common global i32 0
@x.47 = common global i32 0
@y.48 = common global i32 0
@x.49 = common global i32 0
@y.50 = common global i32 0
@x.51 = common global i32 0
@y.52 = common global i32 0
@x.53 = common global i32 0
@y.54 = common global i32 0
@x.55 = common global i32 0
@y.56 = common global i32 0
@x.57 = common global i32 0
@y.58 = common global i32 0
@x.59 = common global i32 0
@y.60 = common global i32 0
@x.61 = common global i32 0
@y.62 = common global i32 0
@x.63 = common global i32 0
@y.64 = common global i32 0
@x.65 = common global i32 0
@y.66 = common global i32 0
@x.67 = common global i32 0
@y.68 = common global i32 0
@x.69 = common global i32 0
@y.70 = common global i32 0
@x.71 = common global i32 0
@y.72 = common global i32 0
@x.73 = common global i32 0
@y.74 = common global i32 0
@x.75 = common global i32 0
@y.76 = common global i32 0
@x.77 = common global i32 0
@y.78 = common global i32 0
@x.79 = common global i32 0
@y.80 = common global i32 0
@x.81 = common global i32 0
@y.82 = common global i32 0
@x.83 = common global i32 0
@y.84 = common global i32 0
@x.85 = common global i32 0
@y.86 = common global i32 0
@x.87 = common global i32 0
@y.88 = common global i32 0
@x.89 = common global i32 0
@y.90 = common global i32 0
@x.91 = common global i32 0
@y.92 = common global i32 0
@x.93 = common global i32 0
@y.94 = common global i32 0
@x.95 = common global i32 0
@y.96 = common global i32 0
@x.97 = common global i32 0
@y.98 = common global i32 0
@x.99 = common global i32 0
@y.100 = common global i32 0
@x.101 = common global i32 0
@y.102 = common global i32 0
@x.103 = common global i32 0
@y.104 = common global i32 0
@x.105 = common global i32 0
@y.106 = common global i32 0
@x.107 = common global i32 0
@y.108 = common global i32 0
@x.109 = common global i32 0
@y.110 = common global i32 0
@x.111 = common global i32 0
@y.112 = common global i32 0
@x.113 = common global i32 0
@y.114 = common global i32 0
@x.115 = common global i32 0
@y.116 = common global i32 0
@x.117 = common global i32 0
@y.118 = common global i32 0
@x.119 = common global i32 0
@y.120 = common global i32 0
@x.121 = common global i32 0
@y.122 = common global i32 0
@x.123 = common global i32 0
@y.124 = common global i32 0
@x.125 = common global i32 0
@y.126 = common global i32 0
@x.127 = common global i32 0
@y.128 = common global i32 0
@x.129 = common global i32 0
@y.130 = common global i32 0
@x.131 = common global i32 0
@y.132 = common global i32 0
@x.133 = common global i32 0
@y.134 = common global i32 0
@x.135 = common global i32 0
@y.136 = common global i32 0
@x.137 = common global i32 0
@y.138 = common global i32 0
@x.139 = common global i32 0
@y.140 = common global i32 0
@x.141 = common global i32 0
@y.142 = common global i32 0
@x.143 = common global i32 0
@y.144 = common global i32 0
@x.145 = common global i32 0
@y.146 = common global i32 0
@x.147 = common global i32 0
@y.148 = common global i32 0
@x.149 = common global i32 0
@y.150 = common global i32 0
@x.151 = common global i32 0
@y.152 = common global i32 0
@x.153 = common global i32 0
@y.154 = common global i32 0
@x.155 = common global i32 0
@y.156 = common global i32 0
@x.157 = common global i32 0
@y.158 = common global i32 0
@x.159 = common global i32 0
@y.160 = common global i32 0
@x.161 = common global i32 0
@y.162 = common global i32 0
@x.163 = common global i32 0
@y.164 = common global i32 0
@x.165 = common global i32 0
@y.166 = common global i32 0
@x.167 = common global i32 0
@y.168 = common global i32 0
@x.169 = common global i32 0
@y.170 = common global i32 0
@x.171 = common global i32 0
@y.172 = common global i32 0
@x.173 = common global i32 0
@y.174 = common global i32 0
@x.175 = common global i32 0
@y.176 = common global i32 0
@x.177 = common global i32 0
@y.178 = common global i32 0
@x.179 = common global i32 0
@y.180 = common global i32 0
@x.181 = common global i32 0
@y.182 = common global i32 0
@x.183 = common global i32 0
@y.184 = common global i32 0
@x.185 = common global i32 0
@y.186 = common global i32 0
@x.187 = common global i32 0
@y.188 = common global i32 0
@x.189 = common global i32 0
@y.190 = common global i32 0
@x.191 = common global i32 0
@y.192 = common global i32 0
@x.193 = common global i32 0
@y.194 = common global i32 0
@x.195 = common global i32 0
@y.196 = common global i32 0
@x.197 = common global i32 0
@y.198 = common global i32 0
@x.199 = common global i32 0
@y.200 = common global i32 0
@x.201 = common global i32 0
@y.202 = common global i32 0
@x.203 = common global i32 0
@y.204 = common global i32 0
@x.205 = common global i32 0
@y.206 = common global i32 0
@x.207 = common global i32 0
@y.208 = common global i32 0
@x.209 = common global i32 0
@y.210 = common global i32 0
@x.211 = common global i32 0
@y.212 = common global i32 0
@x.213 = common global i32 0
@y.214 = common global i32 0
@x.215 = common global i32 0
@y.216 = common global i32 0
@x.217 = common global i32 0
@y.218 = common global i32 0
@x.219 = common global i32 0
@y.220 = common global i32 0
@x.221 = common global i32 0
@y.222 = common global i32 0
@x.223 = common global i32 0
@y.224 = common global i32 0
@x.225 = common global i32 0
@y.226 = common global i32 0
@x.227 = common global i32 0
@y.228 = common global i32 0
@x.229 = common global i32 0
@y.230 = common global i32 0
@x.231 = common global i32 0
@y.232 = common global i32 0
@x.233 = common global i32 0
@y.234 = common global i32 0
@x.235 = common global i32 0
@y.236 = common global i32 0
@x.237 = common global i32 0
@y.238 = common global i32 0
@x.239 = common global i32 0
@y.240 = common global i32 0
@x.241 = common global i32 0
@y.242 = common global i32 0
@x.243 = common global i32 0
@y.244 = common global i32 0
@x.245 = common global i32 0
@y.246 = common global i32 0
@x.247 = common global i32 0
@y.248 = common global i32 0
@x.249 = common global i32 0
@y.250 = common global i32 0
@x.251 = common global i32 0
@y.252 = common global i32 0
@x.253 = common global i32 0
@y.254 = common global i32 0
@x.255 = common global i32 0
@y.256 = common global i32 0
@x.257 = common global i32 0
@y.258 = common global i32 0
@x.259 = common global i32 0
@y.260 = common global i32 0
@x.261 = common global i32 0
@y.262 = common global i32 0
@x.263 = common global i32 0
@y.264 = common global i32 0
@x.265 = common global i32 0
@y.266 = common global i32 0
@x.267 = common global i32 0
@y.268 = common global i32 0
@x.269 = common global i32 0
@y.270 = common global i32 0
@x.271 = common global i32 0
@y.272 = common global i32 0
@x.273 = common global i32 0
@y.274 = common global i32 0

; Function Attrs: noinline uwtable
define internal void @__cxx_global_var_init() #0 section ".text.startup" {
  call void @_ZNSt8ios_base4InitC1Ev(%"class.std::ios_base::Init"* @_ZStL8__ioinit)
  %1 = call i32 @__cxa_atexit(void (i8*)* bitcast (void (%"class.std::ios_base::Init"*)* @_ZNSt8ios_base4InitD1Ev to void (i8*)*), i8* getelementptr inbounds (%"class.std::ios_base::Init", %"class.std::ios_base::Init"* @_ZStL8__ioinit, i32 0, i32 0), i8* @__dso_handle) #3
  ret void
}

declare void @_ZNSt8ios_base4InitC1Ev(%"class.std::ios_base::Init"*) unnamed_addr #1

; Function Attrs: nounwind
declare void @_ZNSt8ios_base4InitD1Ev(%"class.std::ios_base::Init"*) unnamed_addr #2

; Function Attrs: nounwind
declare i32 @__cxa_atexit(void (i8*)*, i8*, i8*) #3

; Function Attrs: noinline norecurse uwtable
define i32 @main() #4 personality i8* bitcast (i32 (...)* @__gxx_personality_v0 to i8*) {
  %1 = load i32, i32* @x.1
  %2 = load i32, i32* @y.2
  %3 = add i32 %1, 1872319524
  %4 = sub i32 %3, 1
  %5 = sub i32 %4, 1872319524
  %6 = sub i32 %1, 1
  %7 = mul i32 %1, %5
  %8 = urem i32 %7, 2
  %9 = icmp eq i32 %8, 0
  %10 = icmp slt i32 %2, 10
  %11 = and i1 %9, %10
  %12 = xor i1 %9, %10
  %13 = or i1 %11, %12
  %14 = or i1 %9, %10
  br i1 %13, label %15, label %895

; <label>:15:                                     ; preds = %0, %895
  %16 = alloca i32, align 4
  %17 = alloca i32, align 4
  %18 = alloca i32, align 4
  %19 = alloca %"class.std::vector", align 8
  %20 = alloca %"class.std::vector.0", align 8
  %21 = alloca %"class.std::vector.5", align 8
  %22 = alloca %"class.std::allocator.7", align 1
  %23 = alloca i8*
  %24 = alloca i32
  %25 = alloca %"class.std::allocator.2", align 1
  %26 = alloca %"class.std::allocator", align 1
  %27 = alloca i32, align 4
  %28 = alloca i32, align 4
  %29 = alloca i32, align 4
  store i32 0, i32* %16, align 4
  %30 = call dereferenceable(280) %"class.std::basic_istream"* @_ZNSirsERi(%"class.std::basic_istream"* @_ZSt3cin, i32* dereferenceable(4) %17)
  %31 = call dereferenceable(280) %"class.std::basic_istream"* @_ZNSirsERi(%"class.std::basic_istream"* %30, i32* dereferenceable(4) %18)
  call void @_ZNSaIxEC2Ev(%"class.std::allocator.7"* %22) #3
  %32 = load i32, i32* @x.1
  %33 = load i32, i32* @y.2
  %34 = add i32 %32, 988539433
  %35 = sub i32 %34, 1
  %36 = sub i32 %35, 988539433
  %37 = sub i32 %32, 1
  %38 = mul i32 %32, %36
  %39 = urem i32 %38, 2
  %40 = icmp eq i32 %39, 0
  %41 = icmp slt i32 %33, 10
  %42 = and i1 %40, %41
  %43 = xor i1 %40, %41
  %44 = or i1 %42, %43
  %45 = or i1 %40, %41
  br i1 %44, label %46, label %895

; <label>:46:                                     ; preds = %15
  invoke void @_ZNSt6vectorIxSaIxEEC2EmRKS0_(%"class.std::vector.5"* %21, i64 2605, %"class.std::allocator.7"* dereferenceable(1) %22)
          to label %47 unwind label %550

; <label>:47:                                     ; preds = %46
  %48 = load i32, i32* @x.1
  %49 = load i32, i32* @y.2
  %50 = sub i32 0, 1
  %51 = add i32 %48, %50
  %52 = sub i32 %48, 1
  %53 = mul i32 %48, %51
  %54 = urem i32 %53, 2
  %55 = icmp eq i32 %54, 0
  %56 = icmp slt i32 %49, 10
  %57 = xor i1 %55, true
  %58 = xor i1 %56, true
  %59 = xor i1 true, true
  %60 = and i1 %57, true
  %61 = and i1 %55, %59
  %62 = and i1 %58, true
  %63 = and i1 %56, %59
  %64 = or i1 %60, %61
  %65 = or i1 %62, %63
  %66 = xor i1 %64, %65
  %67 = or i1 %57, %58
  %68 = xor i1 %67, true
  %69 = or i1 true, %59
  %70 = and i1 %68, %69
  %71 = or i1 %66, %70
  %72 = or i1 %55, %56
  br i1 %71, label %73, label %912

; <label>:73:                                     ; preds = %47, %912
  call void @_ZNSaISt6vectorIxSaIxEEEC2Ev(%"class.std::allocator.2"* %25) #3
  %74 = load i32, i32* @x.1
  %75 = load i32, i32* @y.2
  %76 = sub i32 %74, -2114537903
  %77 = sub i32 %76, 1
  %78 = add i32 %77, -2114537903
  %79 = sub i32 %74, 1
  %80 = mul i32 %74, %78
  %81 = urem i32 %80, 2
  %82 = icmp eq i32 %81, 0
  %83 = icmp slt i32 %75, 10
  %84 = and i1 %82, %83
  %85 = xor i1 %82, %83
  %86 = or i1 %84, %85
  %87 = or i1 %82, %83
  br i1 %86, label %88, label %912

; <label>:88:                                     ; preds = %73
  invoke void @_ZNSt6vectorIS_IxSaIxEESaIS1_EEC2EmRKS1_RKS2_(%"class.std::vector.0"* %20, i64 55, %"class.std::vector.5"* dereferenceable(24) %21, %"class.std::allocator.2"* dereferenceable(1) %25)
          to label %89 unwind label %554

; <label>:89:                                     ; preds = %88
  call void @_ZNSaISt6vectorIS_IxSaIxEESaIS1_EEEC2Ev(%"class.std::allocator"* %26) #3
  invoke void @_ZNSt6vectorIS_IS_IxSaIxEESaIS1_EESaIS3_EEC2EmRKS3_RKS4_(%"class.std::vector"* %19, i64 55, %"class.std::vector.0"* dereferenceable(24) %20, %"class.std::allocator"* dereferenceable(1) %26)
          to label %90 unwind label %611

; <label>:90:                                     ; preds = %89
  %91 = load i32, i32* @x.1
  %92 = load i32, i32* @y.2
  %93 = sub i32 0, 1
  %94 = add i32 %91, %93
  %95 = sub i32 %91, 1
  %96 = mul i32 %91, %94
  %97 = urem i32 %96, 2
  %98 = icmp eq i32 %97, 0
  %99 = icmp slt i32 %92, 10
  %100 = xor i1 %98, true
  %101 = xor i1 %99, true
  %102 = xor i1 true, true
  %103 = and i1 %100, true
  %104 = and i1 %98, %102
  %105 = and i1 %101, true
  %106 = and i1 %99, %102
  %107 = or i1 %103, %104
  %108 = or i1 %105, %106
  %109 = xor i1 %107, %108
  %110 = or i1 %100, %101
  %111 = xor i1 %110, true
  %112 = or i1 true, %102
  %113 = and i1 %111, %112
  %114 = or i1 %109, %113
  %115 = or i1 %98, %99
  br i1 %114, label %116, label %913

; <label>:116:                                    ; preds = %90, %913
  call void @_ZNSaISt6vectorIS_IxSaIxEESaIS1_EEED2Ev(%"class.std::allocator"* %26) #3
  call void @_ZNSt6vectorIS_IxSaIxEESaIS1_EED2Ev(%"class.std::vector.0"* %20) #3
  call void @_ZNSaISt6vectorIxSaIxEEED2Ev(%"class.std::allocator.2"* %25) #3
  call void @_ZNSt6vectorIxSaIxEED2Ev(%"class.std::vector.5"* %21) #3
  call void @_ZNSaIxED2Ev(%"class.std::allocator.7"* %22) #3
  %117 = call dereferenceable(24) %"class.std::vector.0"* @_ZNSt6vectorIS_IS_IxSaIxEESaIS1_EESaIS3_EEixEm(%"class.std::vector"* %19, i64 0) #3
  %118 = call dereferenceable(24) %"class.std::vector.5"* @_ZNSt6vectorIS_IxSaIxEESaIS1_EEixEm(%"class.std::vector.0"* %117, i64 0) #3
  %119 = call dereferenceable(8) i64* @_ZNSt6vectorIxSaIxEEixEm(%"class.std::vector.5"* %118, i64 0) #3
  store i64 1, i64* %119, align 8
  store i32 0, i32* %27, align 4
  %120 = load i32, i32* @x.1
  %121 = load i32, i32* @y.2
  %122 = sub i32 %120, 1903868159
  %123 = sub i32 %122, 1
  %124 = add i32 %123, 1903868159
  %125 = sub i32 %120, 1
  %126 = mul i32 %120, %124
  %127 = urem i32 %126, 2
  %128 = icmp eq i32 %127, 0
  %129 = icmp slt i32 %121, 10
  %130 = xor i1 %128, true
  %131 = xor i1 %129, true
  %132 = xor i1 false, true
  %133 = and i1 %130, false
  %134 = and i1 %128, %132
  %135 = and i1 %131, false
  %136 = and i1 %129, %132
  %137 = or i1 %133, %134
  %138 = or i1 %135, %136
  %139 = xor i1 %137, %138
  %140 = or i1 %130, %131
  %141 = xor i1 %140, true
  %142 = or i1 false, %132
  %143 = and i1 %141, %142
  %144 = or i1 %139, %143
  %145 = or i1 %128, %129
  br i1 %144, label %146, label %913

; <label>:146:                                    ; preds = %116
  br label %147

; <label>:147:                                    ; preds = %842, %146
  %148 = load i32, i32* %27, align 4
  %149 = load i32, i32* %17, align 4
  %150 = sub i32 0, 1
  %151 = add i32 %149, %150
  %152 = sub nsw i32 %149, 1
  %153 = icmp sle i32 %148, %151
  br i1 %153, label %154, label %843

; <label>:154:                                    ; preds = %147
  store i32 0, i32* %28, align 4
  br label %155

; <label>:155:                                    ; preds = %789, %154
  %156 = load i32, i32* @x.1
  %157 = load i32, i32* @y.2
  %158 = sub i32 0, 1
  %159 = add i32 %156, %158
  %160 = sub i32 %156, 1
  %161 = mul i32 %156, %159
  %162 = urem i32 %161, 2
  %163 = icmp eq i32 %162, 0
  %164 = icmp slt i32 %157, 10
  %165 = xor i1 %163, true
  %166 = xor i1 %164, true
  %167 = xor i1 false, true
  %168 = and i1 %165, false
  %169 = and i1 %163, %167
  %170 = and i1 %166, false
  %171 = and i1 %164, %167
  %172 = or i1 %168, %169
  %173 = or i1 %170, %171
  %174 = xor i1 %172, %173
  %175 = or i1 %165, %166
  %176 = xor i1 %175, true
  %177 = or i1 false, %167
  %178 = and i1 %176, %177
  %179 = or i1 %174, %178
  %180 = or i1 %163, %164
  br i1 %179, label %181, label %917

; <label>:181:                                    ; preds = %155, %917
  %182 = load i32, i32* %28, align 4
  %183 = load i32, i32* %27, align 4
  %184 = icmp sle i32 %182, %183
  %185 = load i32, i32* @x.1
  %186 = load i32, i32* @y.2
  %187 = add i32 %185, -1362794192
  %188 = sub i32 %187, 1
  %189 = sub i32 %188, -1362794192
  %190 = sub i32 %185, 1
  %191 = mul i32 %185, %189
  %192 = urem i32 %191, 2
  %193 = icmp eq i32 %192, 0
  %194 = icmp slt i32 %186, 10
  %195 = xor i1 %193, true
  %196 = xor i1 %194, true
  %197 = xor i1 false, true
  %198 = and i1 %195, false
  %199 = and i1 %193, %197
  %200 = and i1 %196, false
  %201 = and i1 %194, %197
  %202 = or i1 %198, %199
  %203 = or i1 %200, %201
  %204 = xor i1 %202, %203
  %205 = or i1 %195, %196
  %206 = xor i1 %205, true
  %207 = or i1 false, %197
  %208 = and i1 %206, %207
  %209 = or i1 %204, %208
  %210 = or i1 %193, %194
  br i1 %209, label %211, label %917

; <label>:211:                                    ; preds = %181
  br i1 %184, label %212, label %795

; <label>:212:                                    ; preds = %211
  store i32 0, i32* %29, align 4
  br label %213

; <label>:213:                                    ; preds = %742, %212
  %214 = load i32, i32* %29, align 4
  %215 = load i32, i32* %18, align 4
  %216 = sub i32 0, 1
  %217 = sub i32 %215, %216
  %218 = add nsw i32 %215, 1
  %219 = icmp sle i32 %214, %217
  br i1 %219, label %220, label %748

; <label>:220:                                    ; preds = %213
  %221 = load i32, i32* @x.1
  %222 = load i32, i32* @y.2
  %223 = add i32 %221, -330850837
  %224 = sub i32 %223, 1
  %225 = sub i32 %224, -330850837
  %226 = sub i32 %221, 1
  %227 = mul i32 %221, %225
  %228 = urem i32 %227, 2
  %229 = icmp eq i32 %228, 0
  %230 = icmp slt i32 %222, 10
  %231 = and i1 %229, %230
  %232 = xor i1 %229, %230
  %233 = or i1 %231, %232
  %234 = or i1 %229, %230
  br i1 %233, label %235, label %921

; <label>:235:                                    ; preds = %220, %921
  %236 = load i32, i32* %27, align 4
  %237 = sext i32 %236 to i64
  %238 = call dereferenceable(24) %"class.std::vector.0"* @_ZNSt6vectorIS_IS_IxSaIxEESaIS1_EESaIS3_EEixEm(%"class.std::vector"* %19, i64 %237) #3
  %239 = load i32, i32* %28, align 4
  %240 = sext i32 %239 to i64
  %241 = call dereferenceable(24) %"class.std::vector.5"* @_ZNSt6vectorIS_IxSaIxEESaIS1_EEixEm(%"class.std::vector.0"* %238, i64 %240) #3
  %242 = load i32, i32* %29, align 4
  %243 = sext i32 %242 to i64
  %244 = call dereferenceable(8) i64* @_ZNSt6vectorIxSaIxEEixEm(%"class.std::vector.5"* %241, i64 %243) #3
  %245 = load i64, i64* %244, align 8
  %246 = load i32, i32* %27, align 4
  %247 = sub i32 %246, -1607533883
  %248 = add i32 %247, 1
  %249 = add i32 %248, -1607533883
  %250 = add nsw i32 %246, 1
  %251 = sext i32 %249 to i64
  %252 = call dereferenceable(24) %"class.std::vector.0"* @_ZNSt6vectorIS_IS_IxSaIxEESaIS1_EESaIS3_EEixEm(%"class.std::vector"* %19, i64 %251) #3
  %253 = load i32, i32* %28, align 4
  %254 = sext i32 %253 to i64
  %255 = call dereferenceable(24) %"class.std::vector.5"* @_ZNSt6vectorIS_IxSaIxEESaIS1_EEixEm(%"class.std::vector.0"* %252, i64 %254) #3
  %256 = load i32, i32* %29, align 4
  %257 = load i32, i32* %28, align 4
  %258 = mul nsw i32 2, %257
  %259 = sub i32 %256, -327289663
  %260 = add i32 %259, %258
  %261 = add i32 %260, -327289663
  %262 = add nsw i32 %256, %258
  %263 = sext i32 %261 to i64
  %264 = call dereferenceable(8) i64* @_ZNSt6vectorIxSaIxEEixEm(%"class.std::vector.5"* %255, i64 %263) #3
  %265 = load i64, i64* %264, align 8
  %266 = sub i64 0, %265
  %267 = sub i64 0, %245
  %268 = add i64 %266, %267
  %269 = sub i64 0, %268
  %270 = add nsw i64 %265, %245
  store i64 %269, i64* %264, align 8
  %271 = load i32, i32* %27, align 4
  %272 = sub i32 0, %271
  %273 = sub i32 0, 1
  %274 = add i32 %272, %273
  %275 = sub i32 0, %274
  %276 = add nsw i32 %271, 1
  %277 = sext i32 %275 to i64
  %278 = call dereferenceable(24) %"class.std::vector.0"* @_ZNSt6vectorIS_IS_IxSaIxEESaIS1_EESaIS3_EEixEm(%"class.std::vector"* %19, i64 %277) #3
  %279 = load i32, i32* %28, align 4
  %280 = sext i32 %279 to i64
  %281 = call dereferenceable(24) %"class.std::vector.5"* @_ZNSt6vectorIS_IxSaIxEESaIS1_EEixEm(%"class.std::vector.0"* %278, i64 %280) #3
  %282 = load i32, i32* %29, align 4
  %283 = load i32, i32* %28, align 4
  %284 = mul nsw i32 2, %283
  %285 = sub i32 0, %282
  %286 = sub i32 0, %284
  %287 = add i32 %285, %286
  %288 = sub i32 0, %287
  %289 = add nsw i32 %282, %284
  %290 = sext i32 %288 to i64
  %291 = call dereferenceable(8) i64* @_ZNSt6vectorIxSaIxEEixEm(%"class.std::vector.5"* %281, i64 %290) #3
  %292 = load i64, i64* %291, align 8
  %293 = srem i64 %292, 1000000007
  store i64 %293, i64* %291, align 8
  %294 = load i32, i32* %27, align 4
  %295 = sext i32 %294 to i64
  %296 = call dereferenceable(24) %"class.std::vector.0"* @_ZNSt6vectorIS_IS_IxSaIxEESaIS1_EESaIS3_EEixEm(%"class.std::vector"* %19, i64 %295) #3
  %297 = load i32, i32* %28, align 4
  %298 = sext i32 %297 to i64
  %299 = call dereferenceable(24) %"class.std::vector.5"* @_ZNSt6vectorIS_IxSaIxEESaIS1_EEixEm(%"class.std::vector.0"* %296, i64 %298) #3
  %300 = load i32, i32* %29, align 4
  %301 = sext i32 %300 to i64
  %302 = call dereferenceable(8) i64* @_ZNSt6vectorIxSaIxEEixEm(%"class.std::vector.5"* %299, i64 %301) #3
  %303 = load i64, i64* %302, align 8
  %304 = load i32, i32* %27, align 4
  %305 = sub i32 0, %304
  %306 = sub i32 0, 1
  %307 = add i32 %305, %306
  %308 = sub i32 0, %307
  %309 = add nsw i32 %304, 1
  %310 = sext i32 %308 to i64
  %311 = call dereferenceable(24) %"class.std::vector.0"* @_ZNSt6vectorIS_IS_IxSaIxEESaIS1_EESaIS3_EEixEm(%"class.std::vector"* %19, i64 %310) #3
  %312 = load i32, i32* %28, align 4
  %313 = sub i32 0, 1
  %314 = sub i32 %312, %313
  %315 = add nsw i32 %312, 1
  %316 = sext i32 %314 to i64
  %317 = call dereferenceable(24) %"class.std::vector.5"* @_ZNSt6vectorIS_IxSaIxEESaIS1_EEixEm(%"class.std::vector.0"* %311, i64 %316) #3
  %318 = load i32, i32* %29, align 4
  %319 = load i32, i32* %28, align 4
  %320 = sub i32 0, %319
  %321 = sub i32 0, 1
  %322 = add i32 %320, %321
  %323 = sub i32 0, %322
  %324 = add nsw i32 %319, 1
  %325 = mul nsw i32 2, %323
  %326 = sub i32 0, %318
  %327 = sub i32 0, %325
  %328 = add i32 %326, %327
  %329 = sub i32 0, %328
  %330 = add nsw i32 %318, %325
  %331 = sext i32 %329 to i64
  %332 = call dereferenceable(8) i64* @_ZNSt6vectorIxSaIxEEixEm(%"class.std::vector.5"* %317, i64 %331) #3
  %333 = load i64, i64* %332, align 8
  %334 = sub i64 0, %333
  %335 = sub i64 0, %303
  %336 = add i64 %334, %335
  %337 = sub i64 0, %336
  %338 = add nsw i64 %333, %303
  store i64 %337, i64* %332, align 8
  %339 = load i32, i32* %27, align 4
  %340 = sub i32 0, 1
  %341 = sub i32 %339, %340
  %342 = add nsw i32 %339, 1
  %343 = sext i32 %341 to i64
  %344 = call dereferenceable(24) %"class.std::vector.0"* @_ZNSt6vectorIS_IS_IxSaIxEESaIS1_EESaIS3_EEixEm(%"class.std::vector"* %19, i64 %343) #3
  %345 = load i32, i32* %28, align 4
  %346 = sub i32 %345, 104009560
  %347 = add i32 %346, 1
  %348 = add i32 %347, 104009560
  %349 = add nsw i32 %345, 1
  %350 = sext i32 %348 to i64
  %351 = call dereferenceable(24) %"class.std::vector.5"* @_ZNSt6vectorIS_IxSaIxEESaIS1_EEixEm(%"class.std::vector.0"* %344, i64 %350) #3
  %352 = load i32, i32* %29, align 4
  %353 = load i32, i32* %28, align 4
  %354 = add i32 %353, 500072577
  %355 = add i32 %354, 1
  %356 = sub i32 %355, 500072577
  %357 = add nsw i32 %353, 1
  %358 = mul nsw i32 2, %356
  %359 = sub i32 0, %358
  %360 = sub i32 %352, %359
  %361 = add nsw i32 %352, %358
  %362 = sext i32 %360 to i64
  %363 = call dereferenceable(8) i64* @_ZNSt6vectorIxSaIxEEixEm(%"class.std::vector.5"* %351, i64 %362) #3
  %364 = load i64, i64* %363, align 8
  %365 = srem i64 %364, 1000000007
  store i64 %365, i64* %363, align 8
  %366 = load i32, i32* %27, align 4
  %367 = sext i32 %366 to i64
  %368 = call dereferenceable(24) %"class.std::vector.0"* @_ZNSt6vectorIS_IS_IxSaIxEESaIS1_EESaIS3_EEixEm(%"class.std::vector"* %19, i64 %367) #3
  %369 = load i32, i32* %28, align 4
  %370 = sext i32 %369 to i64
  %371 = call dereferenceable(24) %"class.std::vector.5"* @_ZNSt6vectorIS_IxSaIxEESaIS1_EEixEm(%"class.std::vector.0"* %368, i64 %370) #3
  %372 = load i32, i32* %29, align 4
  %373 = sext i32 %372 to i64
  %374 = call dereferenceable(8) i64* @_ZNSt6vectorIxSaIxEEixEm(%"class.std::vector.5"* %371, i64 %373) #3
  %375 = load i64, i64* %374, align 8
  %376 = mul nsw i64 %375, 2
  %377 = load i32, i32* %28, align 4
  %378 = sext i32 %377 to i64
  %379 = mul nsw i64 %376, %378
  %380 = load i32, i32* %27, align 4
  %381 = sub i32 %380, -1317813187
  %382 = add i32 %381, 1
  %383 = add i32 %382, -1317813187
  %384 = add nsw i32 %380, 1
  %385 = sext i32 %383 to i64
  %386 = call dereferenceable(24) %"class.std::vector.0"* @_ZNSt6vectorIS_IS_IxSaIxEESaIS1_EESaIS3_EEixEm(%"class.std::vector"* %19, i64 %385) #3
  %387 = load i32, i32* %28, align 4
  %388 = sext i32 %387 to i64
  %389 = call dereferenceable(24) %"class.std::vector.5"* @_ZNSt6vectorIS_IxSaIxEESaIS1_EEixEm(%"class.std::vector.0"* %386, i64 %388) #3
  %390 = load i32, i32* %29, align 4
  %391 = load i32, i32* %28, align 4
  %392 = mul nsw i32 2, %391
  %393 = sub i32 %390, 712370794
  %394 = add i32 %393, %392
  %395 = add i32 %394, 712370794
  %396 = add nsw i32 %390, %392
  %397 = sext i32 %395 to i64
  %398 = call dereferenceable(8) i64* @_ZNSt6vectorIxSaIxEEixEm(%"class.std::vector.5"* %389, i64 %397) #3
  %399 = load i64, i64* %398, align 8
  %400 = sub i64 0, %399
  %401 = sub i64 0, %379
  %402 = add i64 %400, %401
  %403 = sub i64 0, %402
  %404 = add nsw i64 %399, %379
  store i64 %403, i64* %398, align 8
  %405 = load i32, i32* %27, align 4
  %406 = add i32 %405, -2122679056
  %407 = add i32 %406, 1
  %408 = sub i32 %407, -2122679056
  %409 = add nsw i32 %405, 1
  %410 = sext i32 %408 to i64
  %411 = call dereferenceable(24) %"class.std::vector.0"* @_ZNSt6vectorIS_IS_IxSaIxEESaIS1_EESaIS3_EEixEm(%"class.std::vector"* %19, i64 %410) #3
  %412 = load i32, i32* %28, align 4
  %413 = sext i32 %412 to i64
  %414 = call dereferenceable(24) %"class.std::vector.5"* @_ZNSt6vectorIS_IxSaIxEESaIS1_EEixEm(%"class.std::vector.0"* %411, i64 %413) #3
  %415 = load i32, i32* %29, align 4
  %416 = load i32, i32* %28, align 4
  %417 = mul nsw i32 2, %416
  %418 = sub i32 %415, 863570220
  %419 = add i32 %418, %417
  %420 = add i32 %419, 863570220
  %421 = add nsw i32 %415, %417
  %422 = sext i32 %420 to i64
  %423 = call dereferenceable(8) i64* @_ZNSt6vectorIxSaIxEEixEm(%"class.std::vector.5"* %414, i64 %422) #3
  %424 = load i64, i64* %423, align 8
  %425 = srem i64 %424, 1000000007
  store i64 %425, i64* %423, align 8
  %426 = load i32, i32* %28, align 4
  %427 = icmp sgt i32 %426, 0
  %428 = load i32, i32* @x.1
  %429 = load i32, i32* @y.2
  %430 = add i32 %428, -1992350256
  %431 = sub i32 %430, 1
  %432 = sub i32 %431, -1992350256
  %433 = sub i32 %428, 1
  %434 = mul i32 %428, %432
  %435 = urem i32 %434, 2
  %436 = icmp eq i32 %435, 0
  %437 = icmp slt i32 %429, 10
  %438 = and i1 %436, %437
  %439 = xor i1 %436, %437
  %440 = or i1 %438, %439
  %441 = or i1 %436, %437
  br i1 %440, label %442, label %921

; <label>:442:                                    ; preds = %235
  br i1 %427, label %443, label %699

; <label>:443:                                    ; preds = %442
  %444 = load i32, i32* @x.1
  %445 = load i32, i32* @y.2
  %446 = add i32 %444, -816952576
  %447 = sub i32 %446, 1
  %448 = sub i32 %447, -816952576
  %449 = sub i32 %444, 1
  %450 = mul i32 %444, %448
  %451 = urem i32 %450, 2
  %452 = icmp eq i32 %451, 0
  %453 = icmp slt i32 %445, 10
  %454 = and i1 %452, %453
  %455 = xor i1 %452, %453
  %456 = or i1 %454, %455
  %457 = or i1 %452, %453
  br i1 %456, label %458, label %1665

; <label>:458:                                    ; preds = %443, %1665
  %459 = load i32, i32* %27, align 4
  %460 = sext i32 %459 to i64
  %461 = call dereferenceable(24) %"class.std::vector.0"* @_ZNSt6vectorIS_IS_IxSaIxEESaIS1_EESaIS3_EEixEm(%"class.std::vector"* %19, i64 %460) #3
  %462 = load i32, i32* %28, align 4
  %463 = sext i32 %462 to i64
  %464 = call dereferenceable(24) %"class.std::vector.5"* @_ZNSt6vectorIS_IxSaIxEESaIS1_EEixEm(%"class.std::vector.0"* %461, i64 %463) #3
  %465 = load i32, i32* %29, align 4
  %466 = sext i32 %465 to i64
  %467 = call dereferenceable(8) i64* @_ZNSt6vectorIxSaIxEEixEm(%"class.std::vector.5"* %464, i64 %466) #3
  %468 = load i64, i64* %467, align 8
  %469 = load i32, i32* %28, align 4
  %470 = sext i32 %469 to i64
  %471 = mul nsw i64 %468, %470
  %472 = load i32, i32* %28, align 4
  %473 = sext i32 %472 to i64
  %474 = mul nsw i64 %471, %473
  %475 = load i32, i32* %27, align 4
  %476 = sub i32 %475, 1728417037
  %477 = add i32 %476, 1
  %478 = add i32 %477, 1728417037
  %479 = add nsw i32 %475, 1
  %480 = sext i32 %478 to i64
  %481 = call dereferenceable(24) %"class.std::vector.0"* @_ZNSt6vectorIS_IS_IxSaIxEESaIS1_EESaIS3_EEixEm(%"class.std::vector"* %19, i64 %480) #3
  %482 = load i32, i32* %28, align 4
  %483 = sub i32 %482, 586691402
  %484 = sub i32 %483, 1
  %485 = add i32 %484, 586691402
  %486 = sub nsw i32 %482, 1
  %487 = sext i32 %485 to i64
  %488 = call dereferenceable(24) %"class.std::vector.5"* @_ZNSt6vectorIS_IxSaIxEESaIS1_EEixEm(%"class.std::vector.0"* %481, i64 %487) #3
  %489 = load i32, i32* %29, align 4
  %490 = load i32, i32* %28, align 4
  %491 = sub i32 %490, 1728874219
  %492 = sub i32 %491, 1
  %493 = add i32 %492, 1728874219
  %494 = sub nsw i32 %490, 1
  %495 = mul nsw i32 2, %493
  %496 = add i32 %489, -692354801
  %497 = add i32 %496, %495
  %498 = sub i32 %497, -692354801
  %499 = add nsw i32 %489, %495
  %500 = sext i32 %498 to i64
  %501 = call dereferenceable(8) i64* @_ZNSt6vectorIxSaIxEEixEm(%"class.std::vector.5"* %488, i64 %500) #3
  %502 = load i64, i64* %501, align 8
  %503 = add i64 %502, -2023491058834822757
  %504 = add i64 %503, %474
  %505 = sub i64 %504, -2023491058834822757
  %506 = add nsw i64 %502, %474
  store i64 %505, i64* %501, align 8
  %507 = load i32, i32* %27, align 4
  %508 = add i32 %507, -1324402719
  %509 = add i32 %508, 1
  %510 = sub i32 %509, -1324402719
  %511 = add nsw i32 %507, 1
  %512 = sext i32 %510 to i64
  %513 = call dereferenceable(24) %"class.std::vector.0"* @_ZNSt6vectorIS_IS_IxSaIxEESaIS1_EESaIS3_EEixEm(%"class.std::vector"* %19, i64 %512) #3
  %514 = load i32, i32* %28, align 4
  %515 = add i32 %514, 1020017774
  %516 = sub i32 %515, 1
  %517 = sub i32 %516, 1020017774
  %518 = sub nsw i32 %514, 1
  %519 = sext i32 %517 to i64
  %520 = call dereferenceable(24) %"class.std::vector.5"* @_ZNSt6vectorIS_IxSaIxEESaIS1_EEixEm(%"class.std::vector.0"* %513, i64 %519) #3
  %521 = load i32, i32* %29, align 4
  %522 = load i32, i32* %28, align 4
  %523 = add i32 %522, -962141315
  %524 = sub i32 %523, 1
  %525 = sub i32 %524, -962141315
  %526 = sub nsw i32 %522, 1
  %527 = mul nsw i32 2, %525
  %528 = sub i32 0, %527
  %529 = sub i32 %521, %528
  %530 = add nsw i32 %521, %527
  %531 = sext i32 %529 to i64
  %532 = call dereferenceable(8) i64* @_ZNSt6vectorIxSaIxEEixEm(%"class.std::vector.5"* %520, i64 %531) #3
  %533 = load i64, i64* %532, align 8
  %534 = srem i64 %533, 1000000007
  store i64 %534, i64* %532, align 8
  %535 = load i32, i32* @x.1
  %536 = load i32, i32* @y.2
  %537 = add i32 %535, -1374028400
  %538 = sub i32 %537, 1
  %539 = sub i32 %538, -1374028400
  %540 = sub i32 %535, 1
  %541 = mul i32 %535, %539
  %542 = urem i32 %541, 2
  %543 = icmp eq i32 %542, 0
  %544 = icmp slt i32 %536, 10
  %545 = and i1 %543, %544
  %546 = xor i1 %543, %544
  %547 = or i1 %545, %546
  %548 = or i1 %543, %544
  br i1 %547, label %549, label %1665

; <label>:549:                                    ; preds = %458
  br label %699

; <label>:550:                                    ; preds = %46
  %551 = landingpad { i8*, i32 }
          cleanup
  %552 = extractvalue { i8*, i32 } %551, 0
  store i8* %552, i8** %23, align 8
  %553 = extractvalue { i8*, i32 } %551, 1
  store i32 %553, i32* %24, align 4
  br label %698

; <label>:554:                                    ; preds = %88
  %555 = load i32, i32* @x.1
  %556 = load i32, i32* @y.2
  %557 = sub i32 %555, -395034095
  %558 = sub i32 %557, 1
  %559 = add i32 %558, -395034095
  %560 = sub i32 %555, 1
  %561 = mul i32 %555, %559
  %562 = urem i32 %561, 2
  %563 = icmp eq i32 %562, 0
  %564 = icmp slt i32 %556, 10
  %565 = xor i1 %563, true
  %566 = xor i1 %564, true
  %567 = xor i1 false, true
  %568 = and i1 %565, false
  %569 = and i1 %563, %567
  %570 = and i1 %566, false
  %571 = and i1 %564, %567
  %572 = or i1 %568, %569
  %573 = or i1 %570, %571
  %574 = xor i1 %572, %573
  %575 = or i1 %565, %566
  %576 = xor i1 %575, true
  %577 = or i1 false, %567
  %578 = and i1 %576, %577
  %579 = or i1 %574, %578
  %580 = or i1 %563, %564
  br i1 %579, label %581, label %1990

; <label>:581:                                    ; preds = %554, %1990
  %582 = landingpad { i8*, i32 }
          cleanup
  %583 = extractvalue { i8*, i32 } %582, 0
  store i8* %583, i8** %23, align 8
  %584 = extractvalue { i8*, i32 } %582, 1
  store i32 %584, i32* %24, align 4
  %585 = load i32, i32* @x.1
  %586 = load i32, i32* @y.2
  %587 = sub i32 0, 1
  %588 = add i32 %585, %587
  %589 = sub i32 %585, 1
  %590 = mul i32 %585, %588
  %591 = urem i32 %590, 2
  %592 = icmp eq i32 %591, 0
  %593 = icmp slt i32 %586, 10
  %594 = xor i1 %592, true
  %595 = xor i1 %593, true
  %596 = xor i1 false, true
  %597 = and i1 %594, false
  %598 = and i1 %592, %596
  %599 = and i1 %595, false
  %600 = and i1 %593, %596
  %601 = or i1 %597, %598
  %602 = or i1 %599, %600
  %603 = xor i1 %601, %602
  %604 = or i1 %594, %595
  %605 = xor i1 %604, true
  %606 = or i1 false, %596
  %607 = and i1 %605, %606
  %608 = or i1 %603, %607
  %609 = or i1 %592, %593
  br i1 %608, label %610, label %1990

; <label>:610:                                    ; preds = %581
  br label %644

; <label>:611:                                    ; preds = %89
  %612 = load i32, i32* @x.1
  %613 = load i32, i32* @y.2
  %614 = sub i32 0, 1
  %615 = add i32 %612, %614
  %616 = sub i32 %612, 1
  %617 = mul i32 %612, %615
  %618 = urem i32 %617, 2
  %619 = icmp eq i32 %618, 0
  %620 = icmp slt i32 %613, 10
  %621 = and i1 %619, %620
  %622 = xor i1 %619, %620
  %623 = or i1 %621, %622
  %624 = or i1 %619, %620
  br i1 %623, label %625, label %1994

; <label>:625:                                    ; preds = %611, %1994
  %626 = landingpad { i8*, i32 }
          cleanup
  %627 = extractvalue { i8*, i32 } %626, 0
  store i8* %627, i8** %23, align 8
  %628 = extractvalue { i8*, i32 } %626, 1
  store i32 %628, i32* %24, align 4
  call void @_ZNSaISt6vectorIS_IxSaIxEESaIS1_EEED2Ev(%"class.std::allocator"* %26) #3
  call void @_ZNSt6vectorIS_IxSaIxEESaIS1_EED2Ev(%"class.std::vector.0"* %20) #3
  %629 = load i32, i32* @x.1
  %630 = load i32, i32* @y.2
  %631 = add i32 %629, 585611950
  %632 = sub i32 %631, 1
  %633 = sub i32 %632, 585611950
  %634 = sub i32 %629, 1
  %635 = mul i32 %629, %633
  %636 = urem i32 %635, 2
  %637 = icmp eq i32 %636, 0
  %638 = icmp slt i32 %630, 10
  %639 = and i1 %637, %638
  %640 = xor i1 %637, %638
  %641 = or i1 %639, %640
  %642 = or i1 %637, %638
  br i1 %641, label %643, label %1994

; <label>:643:                                    ; preds = %625
  br label %644

; <label>:644:                                    ; preds = %643, %610
  %645 = load i32, i32* @x.1
  %646 = load i32, i32* @y.2
  %647 = add i32 %645, 1940113326
  %648 = sub i32 %647, 1
  %649 = sub i32 %648, 1940113326
  %650 = sub i32 %645, 1
  %651 = mul i32 %645, %649
  %652 = urem i32 %651, 2
  %653 = icmp eq i32 %652, 0
  %654 = icmp slt i32 %646, 10
  %655 = xor i1 %653, true
  %656 = xor i1 %654, true
  %657 = xor i1 false, true
  %658 = and i1 %655, false
  %659 = and i1 %653, %657
  %660 = and i1 %656, false
  %661 = and i1 %654, %657
  %662 = or i1 %658, %659
  %663 = or i1 %660, %661
  %664 = xor i1 %662, %663
  %665 = or i1 %655, %656
  %666 = xor i1 %665, true
  %667 = or i1 false, %657
  %668 = and i1 %666, %667
  %669 = or i1 %664, %668
  %670 = or i1 %653, %654
  br i1 %669, label %671, label %1998

; <label>:671:                                    ; preds = %644, %1998
  call void @_ZNSaISt6vectorIxSaIxEEED2Ev(%"class.std::allocator.2"* %25) #3
  call void @_ZNSt6vectorIxSaIxEED2Ev(%"class.std::vector.5"* %21) #3
  %672 = load i32, i32* @x.1
  %673 = load i32, i32* @y.2
  %674 = sub i32 0, 1
  %675 = add i32 %672, %674
  %676 = sub i32 %672, 1
  %677 = mul i32 %672, %675
  %678 = urem i32 %677, 2
  %679 = icmp eq i32 %678, 0
  %680 = icmp slt i32 %673, 10
  %681 = xor i1 %679, true
  %682 = xor i1 %680, true
  %683 = xor i1 true, true
  %684 = and i1 %681, true
  %685 = and i1 %679, %683
  %686 = and i1 %682, true
  %687 = and i1 %680, %683
  %688 = or i1 %684, %685
  %689 = or i1 %686, %687
  %690 = xor i1 %688, %689
  %691 = or i1 %681, %682
  %692 = xor i1 %691, true
  %693 = or i1 true, %683
  %694 = and i1 %692, %693
  %695 = or i1 %690, %694
  %696 = or i1 %679, %680
  br i1 %695, label %697, label %1998

; <label>:697:                                    ; preds = %671
  br label %698

; <label>:698:                                    ; preds = %697, %550
  call void @_ZNSaIxED2Ev(%"class.std::allocator.7"* %22) #3
  br label %890

; <label>:699:                                    ; preds = %549, %442
  %700 = load i32, i32* @x.1
  %701 = load i32, i32* @y.2
  %702 = sub i32 %700, 556851782
  %703 = sub i32 %702, 1
  %704 = add i32 %703, 556851782
  %705 = sub i32 %700, 1
  %706 = mul i32 %700, %704
  %707 = urem i32 %706, 2
  %708 = icmp eq i32 %707, 0
  %709 = icmp slt i32 %701, 10
  %710 = and i1 %708, %709
  %711 = xor i1 %708, %709
  %712 = or i1 %710, %711
  %713 = or i1 %708, %709
  br i1 %712, label %714, label %1999

; <label>:714:                                    ; preds = %699, %1999
  %715 = load i32, i32* @x.1
  %716 = load i32, i32* @y.2
  %717 = sub i32 %715, -1333111399
  %718 = sub i32 %717, 1
  %719 = add i32 %718, -1333111399
  %720 = sub i32 %715, 1
  %721 = mul i32 %715, %719
  %722 = urem i32 %721, 2
  %723 = icmp eq i32 %722, 0
  %724 = icmp slt i32 %716, 10
  %725 = xor i1 %723, true
  %726 = xor i1 %724, true
  %727 = xor i1 false, true
  %728 = and i1 %725, false
  %729 = and i1 %723, %727
  %730 = and i1 %726, false
  %731 = and i1 %724, %727
  %732 = or i1 %728, %729
  %733 = or i1 %730, %731
  %734 = xor i1 %732, %733
  %735 = or i1 %725, %726
  %736 = xor i1 %735, true
  %737 = or i1 false, %727
  %738 = and i1 %736, %737
  %739 = or i1 %734, %738
  %740 = or i1 %723, %724
  br i1 %739, label %741, label %1999

; <label>:741:                                    ; preds = %714
  br label %742

; <label>:742:                                    ; preds = %741
  %743 = load i32, i32* %29, align 4
  %744 = add i32 %743, 915838163
  %745 = add i32 %744, 1
  %746 = sub i32 %745, 915838163
  %747 = add nsw i32 %743, 1
  store i32 %746, i32* %29, align 4
  br label %213

; <label>:748:                                    ; preds = %213
  %749 = load i32, i32* @x.1
  %750 = load i32, i32* @y.2
  %751 = sub i32 0, 1
  %752 = add i32 %749, %751
  %753 = sub i32 %749, 1
  %754 = mul i32 %749, %752
  %755 = urem i32 %754, 2
  %756 = icmp eq i32 %755, 0
  %757 = icmp slt i32 %750, 10
  %758 = xor i1 %756, true
  %759 = xor i1 %757, true
  %760 = xor i1 false, true
  %761 = and i1 %758, false
  %762 = and i1 %756, %760
  %763 = and i1 %759, false
  %764 = and i1 %757, %760
  %765 = or i1 %761, %762
  %766 = or i1 %763, %764
  %767 = xor i1 %765, %766
  %768 = or i1 %758, %759
  %769 = xor i1 %768, true
  %770 = or i1 false, %760
  %771 = and i1 %769, %770
  %772 = or i1 %767, %771
  %773 = or i1 %756, %757
  br i1 %772, label %774, label %2000

; <label>:774:                                    ; preds = %748, %2000
  %775 = load i32, i32* @x.1
  %776 = load i32, i32* @y.2
  %777 = sub i32 0, 1
  %778 = add i32 %775, %777
  %779 = sub i32 %775, 1
  %780 = mul i32 %775, %778
  %781 = urem i32 %780, 2
  %782 = icmp eq i32 %781, 0
  %783 = icmp slt i32 %776, 10
  %784 = and i1 %782, %783
  %785 = xor i1 %782, %783
  %786 = or i1 %784, %785
  %787 = or i1 %782, %783
  br i1 %786, label %788, label %2000

; <label>:788:                                    ; preds = %774
  br label %789

; <label>:789:                                    ; preds = %788
  %790 = load i32, i32* %28, align 4
  %791 = add i32 %790, 581339635
  %792 = add i32 %791, 1
  %793 = sub i32 %792, 581339635
  %794 = add nsw i32 %790, 1
  store i32 %793, i32* %28, align 4
  br label %155

; <label>:795:                                    ; preds = %211
  br label %796

; <label>:796:                                    ; preds = %795
  %797 = load i32, i32* @x.1
  %798 = load i32, i32* @y.2
  %799 = sub i32 %797, -1378072940
  %800 = sub i32 %799, 1
  %801 = add i32 %800, -1378072940
  %802 = sub i32 %797, 1
  %803 = mul i32 %797, %801
  %804 = urem i32 %803, 2
  %805 = icmp eq i32 %804, 0
  %806 = icmp slt i32 %798, 10
  %807 = xor i1 %805, true
  %808 = xor i1 %806, true
  %809 = xor i1 true, true
  %810 = and i1 %807, true
  %811 = and i1 %805, %809
  %812 = and i1 %808, true
  %813 = and i1 %806, %809
  %814 = or i1 %810, %811
  %815 = or i1 %812, %813
  %816 = xor i1 %814, %815
  %817 = or i1 %807, %808
  %818 = xor i1 %817, true
  %819 = or i1 true, %809
  %820 = and i1 %818, %819
  %821 = or i1 %816, %820
  %822 = or i1 %805, %806
  br i1 %821, label %823, label %2001

; <label>:823:                                    ; preds = %796, %2001
  %824 = load i32, i32* %27, align 4
  %825 = sub i32 0, 1
  %826 = sub i32 %824, %825
  %827 = add nsw i32 %824, 1
  store i32 %826, i32* %27, align 4
  %828 = load i32, i32* @x.1
  %829 = load i32, i32* @y.2
  %830 = sub i32 %828, -1405358085
  %831 = sub i32 %830, 1
  %832 = add i32 %831, -1405358085
  %833 = sub i32 %828, 1
  %834 = mul i32 %828, %832
  %835 = urem i32 %834, 2
  %836 = icmp eq i32 %835, 0
  %837 = icmp slt i32 %829, 10
  %838 = and i1 %836, %837
  %839 = xor i1 %836, %837
  %840 = or i1 %838, %839
  %841 = or i1 %836, %837
  br i1 %840, label %842, label %2001

; <label>:842:                                    ; preds = %823
  br label %147

; <label>:843:                                    ; preds = %147
  %844 = load i32, i32* %17, align 4
  %845 = sext i32 %844 to i64
  %846 = call dereferenceable(24) %"class.std::vector.0"* @_ZNSt6vectorIS_IS_IxSaIxEESaIS1_EESaIS3_EEixEm(%"class.std::vector"* %19, i64 %845) #3
  %847 = call dereferenceable(24) %"class.std::vector.5"* @_ZNSt6vectorIS_IxSaIxEESaIS1_EEixEm(%"class.std::vector.0"* %846, i64 0) #3
  %848 = load i32, i32* %18, align 4
  %849 = sext i32 %848 to i64
  %850 = call dereferenceable(8) i64* @_ZNSt6vectorIxSaIxEEixEm(%"class.std::vector.5"* %847, i64 %849) #3
  %851 = load i64, i64* %850, align 8
  %852 = invoke dereferenceable(272) %"class.std::basic_ostream"* @_ZNSolsEx(%"class.std::basic_ostream"* @_ZSt4cout, i64 %851)
          to label %853 unwind label %886

; <label>:853:                                    ; preds = %843
  %854 = invoke dereferenceable(272) %"class.std::basic_ostream"* @_ZNSolsEPFRSoS_E(%"class.std::basic_ostream"* %852, %"class.std::basic_ostream"* (%"class.std::basic_ostream"*)* @_ZSt4endlIcSt11char_traitsIcEERSt13basic_ostreamIT_T0_ES6_)
          to label %855 unwind label %886

; <label>:855:                                    ; preds = %853
  %856 = load i32, i32* @x.1
  %857 = load i32, i32* @y.2
  %858 = sub i32 %856, -273285168
  %859 = sub i32 %858, 1
  %860 = add i32 %859, -273285168
  %861 = sub i32 %856, 1
  %862 = mul i32 %856, %860
  %863 = urem i32 %862, 2
  %864 = icmp eq i32 %863, 0
  %865 = icmp slt i32 %857, 10
  %866 = and i1 %864, %865
  %867 = xor i1 %864, %865
  %868 = or i1 %866, %867
  %869 = or i1 %864, %865
  br i1 %868, label %870, label %2008

; <label>:870:                                    ; preds = %855, %2008
  call void @_ZNSt6vectorIS_IS_IxSaIxEESaIS1_EESaIS3_EED2Ev(%"class.std::vector"* %19) #3
  %871 = load i32, i32* %16, align 4
  %872 = load i32, i32* @x.1
  %873 = load i32, i32* @y.2
  %874 = sub i32 0, 1
  %875 = add i32 %872, %874
  %876 = sub i32 %872, 1
  %877 = mul i32 %872, %875
  %878 = urem i32 %877, 2
  %879 = icmp eq i32 %878, 0
  %880 = icmp slt i32 %873, 10
  %881 = and i1 %879, %880
  %882 = xor i1 %879, %880
  %883 = or i1 %881, %882
  %884 = or i1 %879, %880
  br i1 %883, label %885, label %2008

; <label>:885:                                    ; preds = %870
  ret i32 %871

; <label>:886:                                    ; preds = %853, %843
  %887 = landingpad { i8*, i32 }
          cleanup
  %888 = extractvalue { i8*, i32 } %887, 0
  store i8* %888, i8** %23, align 8
  %889 = extractvalue { i8*, i32 } %887, 1
  store i32 %889, i32* %24, align 4
  call void @_ZNSt6vectorIS_IS_IxSaIxEESaIS1_EESaIS3_EED2Ev(%"class.std::vector"* %19) #3
  br label %890

; <label>:890:                                    ; preds = %886, %698
  %891 = load i8*, i8** %23, align 8
  %892 = load i32, i32* %24, align 4
  %893 = insertvalue { i8*, i32 } undef, i8* %891, 0
  %894 = insertvalue { i8*, i32 } %893, i32 %892, 1
  resume { i8*, i32 } %894

; <label>:895:                                    ; preds = %15, %0
  %896 = alloca i32, align 4
  %897 = alloca i32, align 4
  %898 = alloca i32, align 4
  %899 = alloca %"class.std::vector", align 8
  %900 = alloca %"class.std::vector.0", align 8
  %901 = alloca %"class.std::vector.5", align 8
  %902 = alloca %"class.std::allocator.7", align 1
  %903 = alloca i8*
  %904 = alloca i32
  %905 = alloca %"class.std::allocator.2", align 1
  %906 = alloca %"class.std::allocator", align 1
  %907 = alloca i32, align 4
  %908 = alloca i32, align 4
  %909 = alloca i32, align 4
  store i32 0, i32* %896, align 4
  %910 = call dereferenceable(280) %"class.std::basic_istream"* @_ZNSirsERi(%"class.std::basic_istream"* @_ZSt3cin, i32* dereferenceable(4) %897)
  %911 = call dereferenceable(280) %"class.std::basic_istream"* @_ZNSirsERi(%"class.std::basic_istream"* %910, i32* dereferenceable(4) %898)
  call void @_ZNSaIxEC2Ev(%"class.std::allocator.7"* %902) #3
  br label %15

; <label>:912:                                    ; preds = %73, %47
  call void @_ZNSaISt6vectorIxSaIxEEEC2Ev(%"class.std::allocator.2"* %25) #3
  br label %73

; <label>:913:                                    ; preds = %116, %90
  call void @_ZNSaISt6vectorIS_IxSaIxEESaIS1_EEED2Ev(%"class.std::allocator"* %26) #3
  call void @_ZNSt6vectorIS_IxSaIxEESaIS1_EED2Ev(%"class.std::vector.0"* %20) #3
  call void @_ZNSaISt6vectorIxSaIxEEED2Ev(%"class.std::allocator.2"* %25) #3
  call void @_ZNSt6vectorIxSaIxEED2Ev(%"class.std::vector.5"* %21) #3
  call void @_ZNSaIxED2Ev(%"class.std::allocator.7"* %22) #3
  %914 = call dereferenceable(24) %"class.std::vector.0"* @_ZNSt6vectorIS_IS_IxSaIxEESaIS1_EESaIS3_EEixEm(%"class.std::vector"* %19, i64 0) #3
  %915 = call dereferenceable(24) %"class.std::vector.5"* @_ZNSt6vectorIS_IxSaIxEESaIS1_EEixEm(%"class.std::vector.0"* %914, i64 0) #3
  %916 = call dereferenceable(8) i64* @_ZNSt6vectorIxSaIxEEixEm(%"class.std::vector.5"* %915, i64 0) #3
  store i64 1, i64* %916, align 8
  store i32 0, i32* %27, align 4
  br label %116

; <label>:917:                                    ; preds = %181, %155
  %918 = load i32, i32* %28, align 4
  %919 = load i32, i32* %27, align 4
  %920 = icmp sle i32 %918, %919
  br label %181

; <label>:921:                                    ; preds = %235, %220
  %922 = load i32, i32* %27, align 4
  %923 = sext i32 %922 to i64
  %924 = call dereferenceable(24) %"class.std::vector.0"* @_ZNSt6vectorIS_IS_IxSaIxEESaIS1_EESaIS3_EEixEm(%"class.std::vector"* %19, i64 %923) #3
  %925 = load i32, i32* %28, align 4
  %926 = sext i32 %925 to i64
  %927 = call dereferenceable(24) %"class.std::vector.5"* @_ZNSt6vectorIS_IxSaIxEESaIS1_EEixEm(%"class.std::vector.0"* %924, i64 %926) #3
  %928 = load i32, i32* %29, align 4
  %929 = sext i32 %928 to i64
  %930 = call dereferenceable(8) i64* @_ZNSt6vectorIxSaIxEEixEm(%"class.std::vector.5"* %927, i64 %929) #3
  %931 = load i64, i64* %930, align 8
  %932 = load i32, i32* %27, align 4
  %933 = sub i32 0, 1
  %934 = add i32 %932, %933
  %935 = sub i32 %932, 1
  %936 = mul i32 %934, 1
  %937 = sub i32 %932, 2129834362
  %938 = sub i32 %937, 1
  %939 = add i32 %938, 2129834362
  %940 = sub i32 %932, 1
  %941 = mul i32 %939, 1
  %942 = add i32 0, 1889276645
  %943 = sub i32 %942, %932
  %944 = sub i32 %943, 1889276645
  %945 = sub i32 0, %932
  %946 = sub i32 0, %944
  %947 = sub i32 0, 1
  %948 = add i32 %946, %947
  %949 = sub i32 0, %948
  %950 = add i32 %944, 1
  %951 = add i32 0, -1304459885
  %952 = sub i32 %951, %932
  %953 = sub i32 %952, -1304459885
  %954 = sub i32 0, %932
  %955 = add i32 %953, -1495196708
  %956 = add i32 %955, 1
  %957 = sub i32 %956, -1495196708
  %958 = add i32 %953, 1
  %959 = shl i32 %932, 1
  %960 = sub i32 0, %932
  %961 = sub i32 0, 1
  %962 = add i32 %960, %961
  %963 = sub i32 0, %962
  %964 = add nsw i32 %932, 1
  %965 = sext i32 %963 to i64
  %966 = call dereferenceable(24) %"class.std::vector.0"* @_ZNSt6vectorIS_IS_IxSaIxEESaIS1_EESaIS3_EEixEm(%"class.std::vector"* %19, i64 %965) #3
  %967 = load i32, i32* %28, align 4
  %968 = sext i32 %967 to i64
  %969 = call dereferenceable(24) %"class.std::vector.5"* @_ZNSt6vectorIS_IxSaIxEESaIS1_EEixEm(%"class.std::vector.0"* %966, i64 %968) #3
  %970 = load i32, i32* %29, align 4
  %971 = load i32, i32* %28, align 4
  %972 = sub i32 2, -243764266
  %973 = sub i32 %972, %971
  %974 = add i32 %973, -243764266
  %975 = sub i32 2, %971
  %976 = mul i32 %974, %971
  %977 = sub i32 0, 2
  %978 = add i32 0, %977
  %979 = sub i32 0, 2
  %980 = sub i32 0, %971
  %981 = sub i32 %978, %980
  %982 = add i32 %978, %971
  %983 = shl i32 2, %971
  %984 = add i32 2, 769292448
  %985 = sub i32 %984, %971
  %986 = sub i32 %985, 769292448
  %987 = sub i32 2, %971
  %988 = mul i32 %986, %971
  %989 = add i32 0, -1180353227
  %990 = sub i32 %989, 2
  %991 = sub i32 %990, -1180353227
  %992 = sub i32 0, 2
  %993 = sub i32 0, %971
  %994 = sub i32 %991, %993
  %995 = add i32 %991, %971
  %996 = shl i32 2, %971
  %997 = add i32 2, 158740143
  %998 = sub i32 %997, %971
  %999 = sub i32 %998, 158740143
  %1000 = sub i32 2, %971
  %1001 = mul i32 %999, %971
  %1002 = mul nsw i32 2, %971
  %1003 = shl i32 %970, %1002
  %1004 = sub i32 0, %1002
  %1005 = add i32 %970, %1004
  %1006 = sub i32 %970, %1002
  %1007 = mul i32 %1005, %1002
  %1008 = shl i32 %970, %1002
  %1009 = sub i32 0, %1002
  %1010 = sub i32 %970, %1009
  %1011 = add nsw i32 %970, %1002
  %1012 = sext i32 %1010 to i64
  %1013 = call dereferenceable(8) i64* @_ZNSt6vectorIxSaIxEEixEm(%"class.std::vector.5"* %969, i64 %1012) #3
  %1014 = load i64, i64* %1013, align 8
  %1015 = sub i64 0, 1706923527867974161
  %1016 = sub i64 %1015, %1014
  %1017 = add i64 %1016, 1706923527867974161
  %1018 = sub i64 0, %1014
  %1019 = add i64 %1017, 3104277530829115366
  %1020 = add i64 %1019, %931
  %1021 = sub i64 %1020, 3104277530829115366
  %1022 = add i64 %1017, %931
  %1023 = sub i64 0, %931
  %1024 = add i64 %1014, %1023
  %1025 = sub i64 %1014, %931
  %1026 = mul i64 %1024, %931
  %1027 = sub i64 %1014, -2884784096842285685
  %1028 = add i64 %1027, %931
  %1029 = add i64 %1028, -2884784096842285685
  %1030 = add nsw i64 %1014, %931
  store i64 %1029, i64* %1013, align 8
  %1031 = load i32, i32* %27, align 4
  %1032 = add i32 %1031, 1083505120
  %1033 = sub i32 %1032, 1
  %1034 = sub i32 %1033, 1083505120
  %1035 = sub i32 %1031, 1
  %1036 = mul i32 %1034, 1
  %1037 = sub i32 0, %1031
  %1038 = add i32 0, %1037
  %1039 = sub i32 0, %1031
  %1040 = sub i32 %1038, 1535264684
  %1041 = add i32 %1040, 1
  %1042 = add i32 %1041, 1535264684
  %1043 = add i32 %1038, 1
  %1044 = sub i32 0, 1
  %1045 = add i32 %1031, %1044
  %1046 = sub i32 %1031, 1
  %1047 = mul i32 %1045, 1
  %1048 = sub i32 0, %1031
  %1049 = add i32 0, %1048
  %1050 = sub i32 0, %1031
  %1051 = add i32 %1049, -242335247
  %1052 = add i32 %1051, 1
  %1053 = sub i32 %1052, -242335247
  %1054 = add i32 %1049, 1
  %1055 = sub i32 %1031, 1903585164
  %1056 = sub i32 %1055, 1
  %1057 = add i32 %1056, 1903585164
  %1058 = sub i32 %1031, 1
  %1059 = mul i32 %1057, 1
  %1060 = sub i32 0, %1031
  %1061 = sub i32 0, 1
  %1062 = add i32 %1060, %1061
  %1063 = sub i32 0, %1062
  %1064 = add nsw i32 %1031, 1
  %1065 = sext i32 %1063 to i64
  %1066 = call dereferenceable(24) %"class.std::vector.0"* @_ZNSt6vectorIS_IS_IxSaIxEESaIS1_EESaIS3_EEixEm(%"class.std::vector"* %19, i64 %1065) #3
  %1067 = load i32, i32* %28, align 4
  %1068 = sext i32 %1067 to i64
  %1069 = call dereferenceable(24) %"class.std::vector.5"* @_ZNSt6vectorIS_IxSaIxEESaIS1_EEixEm(%"class.std::vector.0"* %1066, i64 %1068) #3
  %1070 = load i32, i32* %29, align 4
  %1071 = load i32, i32* %28, align 4
  %1072 = shl i32 2, %1071
  %1073 = shl i32 2, %1071
  %1074 = sub i32 0, 2
  %1075 = add i32 0, %1074
  %1076 = sub i32 0, 2
  %1077 = sub i32 0, %1071
  %1078 = sub i32 %1075, %1077
  %1079 = add i32 %1075, %1071
  %1080 = shl i32 2, %1071
  %1081 = shl i32 2, %1071
  %1082 = add i32 2, 2121343463
  %1083 = sub i32 %1082, %1071
  %1084 = sub i32 %1083, 2121343463
  %1085 = sub i32 2, %1071
  %1086 = mul i32 %1084, %1071
  %1087 = add i32 2, 1064291410
  %1088 = sub i32 %1087, %1071
  %1089 = sub i32 %1088, 1064291410
  %1090 = sub i32 2, %1071
  %1091 = mul i32 %1089, %1071
  %1092 = sub i32 2, -520377260
  %1093 = sub i32 %1092, %1071
  %1094 = add i32 %1093, -520377260
  %1095 = sub i32 2, %1071
  %1096 = mul i32 %1094, %1071
  %1097 = mul nsw i32 2, %1071
  %1098 = shl i32 %1070, %1097
  %1099 = sub i32 %1070, 914987981
  %1100 = sub i32 %1099, %1097
  %1101 = add i32 %1100, 914987981
  %1102 = sub i32 %1070, %1097
  %1103 = mul i32 %1101, %1097
  %1104 = shl i32 %1070, %1097
  %1105 = sub i32 0, %1097
  %1106 = sub i32 %1070, %1105
  %1107 = add nsw i32 %1070, %1097
  %1108 = sext i32 %1106 to i64
  %1109 = call dereferenceable(8) i64* @_ZNSt6vectorIxSaIxEEixEm(%"class.std::vector.5"* %1069, i64 %1108) #3
  %1110 = load i64, i64* %1109, align 8
  %1111 = sub i64 0, -1852094021574675278
  %1112 = sub i64 %1111, %1110
  %1113 = add i64 %1112, -1852094021574675278
  %1114 = sub i64 0, %1110
  %1115 = sub i64 %1113, 6948580427848209890
  %1116 = add i64 %1115, 1000000007
  %1117 = add i64 %1116, 6948580427848209890
  %1118 = add i64 %1113, 1000000007
  %1119 = add i64 0, 6517536050607110895
  %1120 = sub i64 %1119, %1110
  %1121 = sub i64 %1120, 6517536050607110895
  %1122 = sub i64 0, %1110
  %1123 = sub i64 %1121, 382176766042116740
  %1124 = add i64 %1123, 1000000007
  %1125 = add i64 %1124, 382176766042116740
  %1126 = add i64 %1121, 1000000007
  %1127 = sub i64 %1110, 4554447190349015238
  %1128 = sub i64 %1127, 1000000007
  %1129 = add i64 %1128, 4554447190349015238
  %1130 = sub i64 %1110, 1000000007
  %1131 = mul i64 %1129, 1000000007
  %1132 = srem i64 %1110, 1000000007
  store i64 %1132, i64* %1109, align 8
  %1133 = load i32, i32* %27, align 4
  %1134 = sext i32 %1133 to i64
  %1135 = call dereferenceable(24) %"class.std::vector.0"* @_ZNSt6vectorIS_IS_IxSaIxEESaIS1_EESaIS3_EEixEm(%"class.std::vector"* %19, i64 %1134) #3
  %1136 = load i32, i32* %28, align 4
  %1137 = sext i32 %1136 to i64
  %1138 = call dereferenceable(24) %"class.std::vector.5"* @_ZNSt6vectorIS_IxSaIxEESaIS1_EEixEm(%"class.std::vector.0"* %1135, i64 %1137) #3
  %1139 = load i32, i32* %29, align 4
  %1140 = sext i32 %1139 to i64
  %1141 = call dereferenceable(8) i64* @_ZNSt6vectorIxSaIxEEixEm(%"class.std::vector.5"* %1138, i64 %1140) #3
  %1142 = load i64, i64* %1141, align 8
  %1143 = load i32, i32* %27, align 4
  %1144 = add i32 0, 300383781
  %1145 = sub i32 %1144, %1143
  %1146 = sub i32 %1145, 300383781
  %1147 = sub i32 0, %1143
  %1148 = sub i32 0, 1
  %1149 = sub i32 %1146, %1148
  %1150 = add i32 %1146, 1
  %1151 = shl i32 %1143, 1
  %1152 = sub i32 0, 1
  %1153 = add i32 %1143, %1152
  %1154 = sub i32 %1143, 1
  %1155 = mul i32 %1153, 1
  %1156 = shl i32 %1143, 1
  %1157 = add i32 %1143, -639200775
  %1158 = sub i32 %1157, 1
  %1159 = sub i32 %1158, -639200775
  %1160 = sub i32 %1143, 1
  %1161 = mul i32 %1159, 1
  %1162 = shl i32 %1143, 1
  %1163 = sub i32 0, -2068538061
  %1164 = sub i32 %1163, %1143
  %1165 = add i32 %1164, -2068538061
  %1166 = sub i32 0, %1143
  %1167 = sub i32 0, %1165
  %1168 = sub i32 0, 1
  %1169 = add i32 %1167, %1168
  %1170 = sub i32 0, %1169
  %1171 = add i32 %1165, 1
  %1172 = sub i32 %1143, -806263401
  %1173 = add i32 %1172, 1
  %1174 = add i32 %1173, -806263401
  %1175 = add nsw i32 %1143, 1
  %1176 = sext i32 %1174 to i64
  %1177 = call dereferenceable(24) %"class.std::vector.0"* @_ZNSt6vectorIS_IS_IxSaIxEESaIS1_EESaIS3_EEixEm(%"class.std::vector"* %19, i64 %1176) #3
  %1178 = load i32, i32* %28, align 4
  %1179 = sub i32 0, %1178
  %1180 = add i32 0, %1179
  %1181 = sub i32 0, %1178
  %1182 = sub i32 0, 1
  %1183 = sub i32 %1180, %1182
  %1184 = add i32 %1180, 1
  %1185 = sub i32 %1178, -756708909
  %1186 = add i32 %1185, 1
  %1187 = add i32 %1186, -756708909
  %1188 = add nsw i32 %1178, 1
  %1189 = sext i32 %1187 to i64
  %1190 = call dereferenceable(24) %"class.std::vector.5"* @_ZNSt6vectorIS_IxSaIxEESaIS1_EEixEm(%"class.std::vector.0"* %1177, i64 %1189) #3
  %1191 = load i32, i32* %29, align 4
  %1192 = load i32, i32* %28, align 4
  %1193 = sub i32 %1192, 1580793238
  %1194 = sub i32 %1193, 1
  %1195 = add i32 %1194, 1580793238
  %1196 = sub i32 %1192, 1
  %1197 = mul i32 %1195, 1
  %1198 = sub i32 0, %1192
  %1199 = sub i32 0, 1
  %1200 = add i32 %1198, %1199
  %1201 = sub i32 0, %1200
  %1202 = add nsw i32 %1192, 1
  %1203 = add i32 0, -758120540
  %1204 = sub i32 %1203, 2
  %1205 = sub i32 %1204, -758120540
  %1206 = sub i32 0, 2
  %1207 = sub i32 0, %1205
  %1208 = sub i32 0, %1201
  %1209 = add i32 %1207, %1208
  %1210 = sub i32 0, %1209
  %1211 = add i32 %1205, %1201
  %1212 = mul nsw i32 2, %1201
  %1213 = shl i32 %1191, %1212
  %1214 = add i32 %1191, 1778380848
  %1215 = sub i32 %1214, %1212
  %1216 = sub i32 %1215, 1778380848
  %1217 = sub i32 %1191, %1212
  %1218 = mul i32 %1216, %1212
  %1219 = add i32 %1191, 945981813
  %1220 = add i32 %1219, %1212
  %1221 = sub i32 %1220, 945981813
  %1222 = add nsw i32 %1191, %1212
  %1223 = sext i32 %1221 to i64
  %1224 = call dereferenceable(8) i64* @_ZNSt6vectorIxSaIxEEixEm(%"class.std::vector.5"* %1190, i64 %1223) #3
  %1225 = load i64, i64* %1224, align 8
  %1226 = shl i64 %1225, %1142
  %1227 = shl i64 %1225, %1142
  %1228 = sub i64 0, %1225
  %1229 = add i64 0, %1228
  %1230 = sub i64 0, %1225
  %1231 = sub i64 %1229, 1847977860856630977
  %1232 = add i64 %1231, %1142
  %1233 = add i64 %1232, 1847977860856630977
  %1234 = add i64 %1229, %1142
  %1235 = sub i64 0, %1225
  %1236 = add i64 0, %1235
  %1237 = sub i64 0, %1225
  %1238 = sub i64 0, %1236
  %1239 = sub i64 0, %1142
  %1240 = add i64 %1238, %1239
  %1241 = sub i64 0, %1240
  %1242 = add i64 %1236, %1142
  %1243 = shl i64 %1225, %1142
  %1244 = sub i64 %1225, -3569615863507651
  %1245 = add i64 %1244, %1142
  %1246 = add i64 %1245, -3569615863507651
  %1247 = add nsw i64 %1225, %1142
  store i64 %1246, i64* %1224, align 8
  %1248 = load i32, i32* %27, align 4
  %1249 = add i32 %1248, 1281232374
  %1250 = sub i32 %1249, 1
  %1251 = sub i32 %1250, 1281232374
  %1252 = sub i32 %1248, 1
  %1253 = mul i32 %1251, 1
  %1254 = sub i32 0, 530117392
  %1255 = sub i32 %1254, %1248
  %1256 = add i32 %1255, 530117392
  %1257 = sub i32 0, %1248
  %1258 = sub i32 0, %1256
  %1259 = sub i32 0, 1
  %1260 = add i32 %1258, %1259
  %1261 = sub i32 0, %1260
  %1262 = add i32 %1256, 1
  %1263 = sub i32 %1248, 642386831
  %1264 = add i32 %1263, 1
  %1265 = add i32 %1264, 642386831
  %1266 = add nsw i32 %1248, 1
  %1267 = sext i32 %1265 to i64
  %1268 = call dereferenceable(24) %"class.std::vector.0"* @_ZNSt6vectorIS_IS_IxSaIxEESaIS1_EESaIS3_EEixEm(%"class.std::vector"* %19, i64 %1267) #3
  %1269 = load i32, i32* %28, align 4
  %1270 = sub i32 0, %1269
  %1271 = add i32 0, %1270
  %1272 = sub i32 0, %1269
  %1273 = sub i32 %1271, 512611808
  %1274 = add i32 %1273, 1
  %1275 = add i32 %1274, 512611808
  %1276 = add i32 %1271, 1
  %1277 = sub i32 %1269, -845831124
  %1278 = sub i32 %1277, 1
  %1279 = add i32 %1278, -845831124
  %1280 = sub i32 %1269, 1
  %1281 = mul i32 %1279, 1
  %1282 = add i32 %1269, 1354655526
  %1283 = add i32 %1282, 1
  %1284 = sub i32 %1283, 1354655526
  %1285 = add nsw i32 %1269, 1
  %1286 = sext i32 %1284 to i64
  %1287 = call dereferenceable(24) %"class.std::vector.5"* @_ZNSt6vectorIS_IxSaIxEESaIS1_EEixEm(%"class.std::vector.0"* %1268, i64 %1286) #3
  %1288 = load i32, i32* %29, align 4
  %1289 = load i32, i32* %28, align 4
  %1290 = sub i32 0, 909825278
  %1291 = sub i32 %1290, %1289
  %1292 = add i32 %1291, 909825278
  %1293 = sub i32 0, %1289
  %1294 = sub i32 0, %1292
  %1295 = sub i32 0, 1
  %1296 = add i32 %1294, %1295
  %1297 = sub i32 0, %1296
  %1298 = add i32 %1292, 1
  %1299 = shl i32 %1289, 1
  %1300 = sub i32 %1289, 882860429
  %1301 = sub i32 %1300, 1
  %1302 = add i32 %1301, 882860429
  %1303 = sub i32 %1289, 1
  %1304 = mul i32 %1302, 1
  %1305 = sub i32 0, -1469220273
  %1306 = sub i32 %1305, %1289
  %1307 = add i32 %1306, -1469220273
  %1308 = sub i32 0, %1289
  %1309 = sub i32 0, 1
  %1310 = sub i32 %1307, %1309
  %1311 = add i32 %1307, 1
  %1312 = sub i32 0, 1749328575
  %1313 = sub i32 %1312, %1289
  %1314 = add i32 %1313, 1749328575
  %1315 = sub i32 0, %1289
  %1316 = add i32 %1314, -1864651350
  %1317 = add i32 %1316, 1
  %1318 = sub i32 %1317, -1864651350
  %1319 = add i32 %1314, 1
  %1320 = shl i32 %1289, 1
  %1321 = sub i32 0, %1289
  %1322 = add i32 0, %1321
  %1323 = sub i32 0, %1289
  %1324 = sub i32 0, %1322
  %1325 = sub i32 0, 1
  %1326 = add i32 %1324, %1325
  %1327 = sub i32 0, %1326
  %1328 = add i32 %1322, 1
  %1329 = sub i32 0, 1
  %1330 = add i32 %1289, %1329
  %1331 = sub i32 %1289, 1
  %1332 = mul i32 %1330, 1
  %1333 = sub i32 %1289, -2053215675
  %1334 = add i32 %1333, 1
  %1335 = add i32 %1334, -2053215675
  %1336 = add nsw i32 %1289, 1
  %1337 = sub i32 0, %1335
  %1338 = add i32 2, %1337
  %1339 = sub i32 2, %1335
  %1340 = mul i32 %1338, %1335
  %1341 = sub i32 0, 2
  %1342 = add i32 0, %1341
  %1343 = sub i32 0, 2
  %1344 = sub i32 %1342, -238485007
  %1345 = add i32 %1344, %1335
  %1346 = add i32 %1345, -238485007
  %1347 = add i32 %1342, %1335
  %1348 = shl i32 2, %1335
  %1349 = add i32 0, 1158896280
  %1350 = sub i32 %1349, 2
  %1351 = sub i32 %1350, 1158896280
  %1352 = sub i32 0, 2
  %1353 = add i32 %1351, 992034570
  %1354 = add i32 %1353, %1335
  %1355 = sub i32 %1354, 992034570
  %1356 = add i32 %1351, %1335
  %1357 = shl i32 2, %1335
  %1358 = shl i32 2, %1335
  %1359 = mul nsw i32 2, %1335
  %1360 = add i32 0, 1876419233
  %1361 = sub i32 %1360, %1288
  %1362 = sub i32 %1361, 1876419233
  %1363 = sub i32 0, %1288
  %1364 = sub i32 0, %1359
  %1365 = sub i32 %1362, %1364
  %1366 = add i32 %1362, %1359
  %1367 = sub i32 0, %1288
  %1368 = add i32 0, %1367
  %1369 = sub i32 0, %1288
  %1370 = sub i32 0, %1368
  %1371 = sub i32 0, %1359
  %1372 = add i32 %1370, %1371
  %1373 = sub i32 0, %1372
  %1374 = add i32 %1368, %1359
  %1375 = sub i32 0, %1359
  %1376 = add i32 %1288, %1375
  %1377 = sub i32 %1288, %1359
  %1378 = mul i32 %1376, %1359
  %1379 = shl i32 %1288, %1359
  %1380 = sub i32 0, %1288
  %1381 = sub i32 0, %1359
  %1382 = add i32 %1380, %1381
  %1383 = sub i32 0, %1382
  %1384 = add nsw i32 %1288, %1359
  %1385 = sext i32 %1383 to i64
  %1386 = call dereferenceable(8) i64* @_ZNSt6vectorIxSaIxEEixEm(%"class.std::vector.5"* %1287, i64 %1385) #3
  %1387 = load i64, i64* %1386, align 8
  %1388 = shl i64 %1387, 1000000007
  %1389 = shl i64 %1387, 1000000007
  %1390 = add i64 0, -3124790969441562991
  %1391 = sub i64 %1390, %1387
  %1392 = sub i64 %1391, -3124790969441562991
  %1393 = sub i64 0, %1387
  %1394 = sub i64 0, 1000000007
  %1395 = sub i64 %1392, %1394
  %1396 = add i64 %1392, 1000000007
  %1397 = shl i64 %1387, 1000000007
  %1398 = add i64 0, -5320837374216102674
  %1399 = sub i64 %1398, %1387
  %1400 = sub i64 %1399, -5320837374216102674
  %1401 = sub i64 0, %1387
  %1402 = sub i64 %1400, 4809730227219375958
  %1403 = add i64 %1402, 1000000007
  %1404 = add i64 %1403, 4809730227219375958
  %1405 = add i64 %1400, 1000000007
  %1406 = shl i64 %1387, 1000000007
  %1407 = srem i64 %1387, 1000000007
  store i64 %1407, i64* %1386, align 8
  %1408 = load i32, i32* %27, align 4
  %1409 = sext i32 %1408 to i64
  %1410 = call dereferenceable(24) %"class.std::vector.0"* @_ZNSt6vectorIS_IS_IxSaIxEESaIS1_EESaIS3_EEixEm(%"class.std::vector"* %19, i64 %1409) #3
  %1411 = load i32, i32* %28, align 4
  %1412 = sext i32 %1411 to i64
  %1413 = call dereferenceable(24) %"class.std::vector.5"* @_ZNSt6vectorIS_IxSaIxEESaIS1_EEixEm(%"class.std::vector.0"* %1410, i64 %1412) #3
  %1414 = load i32, i32* %29, align 4
  %1415 = sext i32 %1414 to i64
  %1416 = call dereferenceable(8) i64* @_ZNSt6vectorIxSaIxEEixEm(%"class.std::vector.5"* %1413, i64 %1415) #3
  %1417 = load i64, i64* %1416, align 8
  %1418 = sub i64 0, %1417
  %1419 = add i64 0, %1418
  %1420 = sub i64 0, %1417
  %1421 = sub i64 %1419, 921620286307287338
  %1422 = add i64 %1421, 2
  %1423 = add i64 %1422, 921620286307287338
  %1424 = add i64 %1419, 2
  %1425 = add i64 %1417, -8421050119899813727
  %1426 = sub i64 %1425, 2
  %1427 = sub i64 %1426, -8421050119899813727
  %1428 = sub i64 %1417, 2
  %1429 = mul i64 %1427, 2
  %1430 = add i64 %1417, 4639672168203531690
  %1431 = sub i64 %1430, 2
  %1432 = sub i64 %1431, 4639672168203531690
  %1433 = sub i64 %1417, 2
  %1434 = mul i64 %1432, 2
  %1435 = mul nsw i64 %1417, 2
  %1436 = load i32, i32* %28, align 4
  %1437 = sext i32 %1436 to i64
  %1438 = add i64 %1435, 1518560022824756310
  %1439 = sub i64 %1438, %1437
  %1440 = sub i64 %1439, 1518560022824756310
  %1441 = sub i64 %1435, %1437
  %1442 = mul i64 %1440, %1437
  %1443 = shl i64 %1435, %1437
  %1444 = add i64 0, 4750882970910659356
  %1445 = sub i64 %1444, %1435
  %1446 = sub i64 %1445, 4750882970910659356
  %1447 = sub i64 0, %1435
  %1448 = sub i64 0, %1446
  %1449 = sub i64 0, %1437
  %1450 = add i64 %1448, %1449
  %1451 = sub i64 0, %1450
  %1452 = add i64 %1446, %1437
  %1453 = sub i64 0, %1437
  %1454 = add i64 %1435, %1453
  %1455 = sub i64 %1435, %1437
  %1456 = mul i64 %1454, %1437
  %1457 = sub i64 0, %1437
  %1458 = add i64 %1435, %1457
  %1459 = sub i64 %1435, %1437
  %1460 = mul i64 %1458, %1437
  %1461 = mul nsw i64 %1435, %1437
  %1462 = load i32, i32* %27, align 4
  %1463 = sub i32 0, 1
  %1464 = add i32 %1462, %1463
  %1465 = sub i32 %1462, 1
  %1466 = mul i32 %1464, 1
  %1467 = sub i32 %1462, 2119813443
  %1468 = sub i32 %1467, 1
  %1469 = add i32 %1468, 2119813443
  %1470 = sub i32 %1462, 1
  %1471 = mul i32 %1469, 1
  %1472 = sub i32 %1462, 1011376258
  %1473 = sub i32 %1472, 1
  %1474 = add i32 %1473, 1011376258
  %1475 = sub i32 %1462, 1
  %1476 = mul i32 %1474, 1
  %1477 = shl i32 %1462, 1
  %1478 = add i32 0, -811810438
  %1479 = sub i32 %1478, %1462
  %1480 = sub i32 %1479, -811810438
  %1481 = sub i32 0, %1462
  %1482 = sub i32 0, 1
  %1483 = sub i32 %1480, %1482
  %1484 = add i32 %1480, 1
  %1485 = sub i32 0, -919549446
  %1486 = sub i32 %1485, %1462
  %1487 = add i32 %1486, -919549446
  %1488 = sub i32 0, %1462
  %1489 = sub i32 0, %1487
  %1490 = sub i32 0, 1
  %1491 = add i32 %1489, %1490
  %1492 = sub i32 0, %1491
  %1493 = add i32 %1487, 1
  %1494 = sub i32 %1462, -2019884987
  %1495 = sub i32 %1494, 1
  %1496 = add i32 %1495, -2019884987
  %1497 = sub i32 %1462, 1
  %1498 = mul i32 %1496, 1
  %1499 = shl i32 %1462, 1
  %1500 = sub i32 %1462, 500212698
  %1501 = add i32 %1500, 1
  %1502 = add i32 %1501, 500212698
  %1503 = add nsw i32 %1462, 1
  %1504 = sext i32 %1502 to i64
  %1505 = call dereferenceable(24) %"class.std::vector.0"* @_ZNSt6vectorIS_IS_IxSaIxEESaIS1_EESaIS3_EEixEm(%"class.std::vector"* %19, i64 %1504) #3
  %1506 = load i32, i32* %28, align 4
  %1507 = sext i32 %1506 to i64
  %1508 = call dereferenceable(24) %"class.std::vector.5"* @_ZNSt6vectorIS_IxSaIxEESaIS1_EEixEm(%"class.std::vector.0"* %1505, i64 %1507) #3
  %1509 = load i32, i32* %29, align 4
  %1510 = load i32, i32* %28, align 4
  %1511 = add i32 2, -1686746192
  %1512 = sub i32 %1511, %1510
  %1513 = sub i32 %1512, -1686746192
  %1514 = sub i32 2, %1510
  %1515 = mul i32 %1513, %1510
  %1516 = add i32 0, 429853319
  %1517 = sub i32 %1516, 2
  %1518 = sub i32 %1517, 429853319
  %1519 = sub i32 0, 2
  %1520 = sub i32 %1518, 104362061
  %1521 = add i32 %1520, %1510
  %1522 = add i32 %1521, 104362061
  %1523 = add i32 %1518, %1510
  %1524 = mul nsw i32 2, %1510
  %1525 = add i32 0, 1905642226
  %1526 = sub i32 %1525, %1509
  %1527 = sub i32 %1526, 1905642226
  %1528 = sub i32 0, %1509
  %1529 = sub i32 0, %1527
  %1530 = sub i32 0, %1524
  %1531 = add i32 %1529, %1530
  %1532 = sub i32 0, %1531
  %1533 = add i32 %1527, %1524
  %1534 = sub i32 0, %1524
  %1535 = add i32 %1509, %1534
  %1536 = sub i32 %1509, %1524
  %1537 = mul i32 %1535, %1524
  %1538 = sub i32 0, 1481246807
  %1539 = sub i32 %1538, %1509
  %1540 = add i32 %1539, 1481246807
  %1541 = sub i32 0, %1509
  %1542 = sub i32 0, %1524
  %1543 = sub i32 %1540, %1542
  %1544 = add i32 %1540, %1524
  %1545 = sub i32 0, 2056881531
  %1546 = sub i32 %1545, %1509
  %1547 = add i32 %1546, 2056881531
  %1548 = sub i32 0, %1509
  %1549 = sub i32 0, %1547
  %1550 = sub i32 0, %1524
  %1551 = add i32 %1549, %1550
  %1552 = sub i32 0, %1551
  %1553 = add i32 %1547, %1524
  %1554 = add i32 %1509, 1445494496
  %1555 = add i32 %1554, %1524
  %1556 = sub i32 %1555, 1445494496
  %1557 = add nsw i32 %1509, %1524
  %1558 = sext i32 %1556 to i64
  %1559 = call dereferenceable(8) i64* @_ZNSt6vectorIxSaIxEEixEm(%"class.std::vector.5"* %1508, i64 %1558) #3
  %1560 = load i64, i64* %1559, align 8
  %1561 = sub i64 0, %1560
  %1562 = add i64 0, %1561
  %1563 = sub i64 0, %1560
  %1564 = sub i64 0, %1562
  %1565 = sub i64 0, %1461
  %1566 = add i64 %1564, %1565
  %1567 = sub i64 0, %1566
  %1568 = add i64 %1562, %1461
  %1569 = shl i64 %1560, %1461
  %1570 = sub i64 %1560, 7523422876926777293
  %1571 = sub i64 %1570, %1461
  %1572 = add i64 %1571, 7523422876926777293
  %1573 = sub i64 %1560, %1461
  %1574 = mul i64 %1572, %1461
  %1575 = sub i64 0, %1461
  %1576 = sub i64 %1560, %1575
  %1577 = add nsw i64 %1560, %1461
  store i64 %1576, i64* %1559, align 8
  %1578 = load i32, i32* %27, align 4
  %1579 = add i32 0, -808329095
  %1580 = sub i32 %1579, %1578
  %1581 = sub i32 %1580, -808329095
  %1582 = sub i32 0, %1578
  %1583 = sub i32 %1581, -215492598
  %1584 = add i32 %1583, 1
  %1585 = add i32 %1584, -215492598
  %1586 = add i32 %1581, 1
  %1587 = sub i32 0, %1578
  %1588 = add i32 0, %1587
  %1589 = sub i32 0, %1578
  %1590 = sub i32 0, %1588
  %1591 = sub i32 0, 1
  %1592 = add i32 %1590, %1591
  %1593 = sub i32 0, %1592
  %1594 = add i32 %1588, 1
  %1595 = add i32 %1578, 1027613286
  %1596 = sub i32 %1595, 1
  %1597 = sub i32 %1596, 1027613286
  %1598 = sub i32 %1578, 1
  %1599 = mul i32 %1597, 1
  %1600 = sub i32 0, 1492092412
  %1601 = sub i32 %1600, %1578
  %1602 = add i32 %1601, 1492092412
  %1603 = sub i32 0, %1578
  %1604 = add i32 %1602, -1897295498
  %1605 = add i32 %1604, 1
  %1606 = sub i32 %1605, -1897295498
  %1607 = add i32 %1602, 1
  %1608 = sub i32 0, %1578
  %1609 = add i32 0, %1608
  %1610 = sub i32 0, %1578
  %1611 = sub i32 %1609, -1602014582
  %1612 = add i32 %1611, 1
  %1613 = add i32 %1612, -1602014582
  %1614 = add i32 %1609, 1
  %1615 = sub i32 %1578, -1205775865
  %1616 = add i32 %1615, 1
  %1617 = add i32 %1616, -1205775865
  %1618 = add nsw i32 %1578, 1
  %1619 = sext i32 %1617 to i64
  %1620 = call dereferenceable(24) %"class.std::vector.0"* @_ZNSt6vectorIS_IS_IxSaIxEESaIS1_EESaIS3_EEixEm(%"class.std::vector"* %19, i64 %1619) #3
  %1621 = load i32, i32* %28, align 4
  %1622 = sext i32 %1621 to i64
  %1623 = call dereferenceable(24) %"class.std::vector.5"* @_ZNSt6vectorIS_IxSaIxEESaIS1_EEixEm(%"class.std::vector.0"* %1620, i64 %1622) #3
  %1624 = load i32, i32* %29, align 4
  %1625 = load i32, i32* %28, align 4
  %1626 = add i32 2, 1166812014
  %1627 = sub i32 %1626, %1625
  %1628 = sub i32 %1627, 1166812014
  %1629 = sub i32 2, %1625
  %1630 = mul i32 %1628, %1625
  %1631 = mul nsw i32 2, %1625
  %1632 = sub i32 0, 301476769
  %1633 = sub i32 %1632, %1624
  %1634 = add i32 %1633, 301476769
  %1635 = sub i32 0, %1624
  %1636 = add i32 %1634, -795118573
  %1637 = add i32 %1636, %1631
  %1638 = sub i32 %1637, -795118573
  %1639 = add i32 %1634, %1631
  %1640 = sub i32 0, %1624
  %1641 = sub i32 0, %1631
  %1642 = add i32 %1640, %1641
  %1643 = sub i32 0, %1642
  %1644 = add nsw i32 %1624, %1631
  %1645 = sext i32 %1643 to i64
  %1646 = call dereferenceable(8) i64* @_ZNSt6vectorIxSaIxEEixEm(%"class.std::vector.5"* %1623, i64 %1645) #3
  %1647 = load i64, i64* %1646, align 8
  %1648 = shl i64 %1647, 1000000007
  %1649 = shl i64 %1647, 1000000007
  %1650 = shl i64 %1647, 1000000007
  %1651 = shl i64 %1647, 1000000007
  %1652 = add i64 %1647, 7435932519174119635
  %1653 = sub i64 %1652, 1000000007
  %1654 = sub i64 %1653, 7435932519174119635
  %1655 = sub i64 %1647, 1000000007
  %1656 = mul i64 %1654, 1000000007
  %1657 = sub i64 %1647, 2809437267983251674
  %1658 = sub i64 %1657, 1000000007
  %1659 = add i64 %1658, 2809437267983251674
  %1660 = sub i64 %1647, 1000000007
  %1661 = mul i64 %1659, 1000000007
  %1662 = srem i64 %1647, 1000000007
  store i64 %1662, i64* %1646, align 8
  %1663 = load i32, i32* %28, align 4
  %1664 = icmp sgt i32 %1663, 0
  br label %235

; <label>:1665:                                   ; preds = %458, %443
  %1666 = load i32, i32* %27, align 4
  %1667 = sext i32 %1666 to i64
  %1668 = call dereferenceable(24) %"class.std::vector.0"* @_ZNSt6vectorIS_IS_IxSaIxEESaIS1_EESaIS3_EEixEm(%"class.std::vector"* %19, i64 %1667) #3
  %1669 = load i32, i32* %28, align 4
  %1670 = sext i32 %1669 to i64
  %1671 = call dereferenceable(24) %"class.std::vector.5"* @_ZNSt6vectorIS_IxSaIxEESaIS1_EEixEm(%"class.std::vector.0"* %1668, i64 %1670) #3
  %1672 = load i32, i32* %29, align 4
  %1673 = sext i32 %1672 to i64
  %1674 = call dereferenceable(8) i64* @_ZNSt6vectorIxSaIxEEixEm(%"class.std::vector.5"* %1671, i64 %1673) #3
  %1675 = load i64, i64* %1674, align 8
  %1676 = load i32, i32* %28, align 4
  %1677 = sext i32 %1676 to i64
  %1678 = add i64 0, -5157380484594624134
  %1679 = sub i64 %1678, %1675
  %1680 = sub i64 %1679, -5157380484594624134
  %1681 = sub i64 0, %1675
  %1682 = sub i64 0, %1677
  %1683 = sub i64 %1680, %1682
  %1684 = add i64 %1680, %1677
  %1685 = sub i64 0, %1675
  %1686 = add i64 0, %1685
  %1687 = sub i64 0, %1675
  %1688 = sub i64 0, %1686
  %1689 = sub i64 0, %1677
  %1690 = add i64 %1688, %1689
  %1691 = sub i64 0, %1690
  %1692 = add i64 %1686, %1677
  %1693 = shl i64 %1675, %1677
  %1694 = add i64 %1675, -8204848238681244070
  %1695 = sub i64 %1694, %1677
  %1696 = sub i64 %1695, -8204848238681244070
  %1697 = sub i64 %1675, %1677
  %1698 = mul i64 %1696, %1677
  %1699 = sub i64 0, %1677
  %1700 = add i64 %1675, %1699
  %1701 = sub i64 %1675, %1677
  %1702 = mul i64 %1700, %1677
  %1703 = shl i64 %1675, %1677
  %1704 = shl i64 %1675, %1677
  %1705 = mul nsw i64 %1675, %1677
  %1706 = load i32, i32* %28, align 4
  %1707 = sext i32 %1706 to i64
  %1708 = sub i64 0, %1707
  %1709 = add i64 %1705, %1708
  %1710 = sub i64 %1705, %1707
  %1711 = mul i64 %1709, %1707
  %1712 = add i64 0, 2349653763259013542
  %1713 = sub i64 %1712, %1705
  %1714 = sub i64 %1713, 2349653763259013542
  %1715 = sub i64 0, %1705
  %1716 = sub i64 0, %1707
  %1717 = sub i64 %1714, %1716
  %1718 = add i64 %1714, %1707
  %1719 = shl i64 %1705, %1707
  %1720 = sub i64 0, %1705
  %1721 = add i64 0, %1720
  %1722 = sub i64 0, %1705
  %1723 = sub i64 %1721, 8704966975808105749
  %1724 = add i64 %1723, %1707
  %1725 = add i64 %1724, 8704966975808105749
  %1726 = add i64 %1721, %1707
  %1727 = shl i64 %1705, %1707
  %1728 = sub i64 %1705, 80245991061947109
  %1729 = sub i64 %1728, %1707
  %1730 = add i64 %1729, 80245991061947109
  %1731 = sub i64 %1705, %1707
  %1732 = mul i64 %1730, %1707
  %1733 = mul nsw i64 %1705, %1707
  %1734 = load i32, i32* %27, align 4
  %1735 = sub i32 0, 1801437172
  %1736 = sub i32 %1735, %1734
  %1737 = add i32 %1736, 1801437172
  %1738 = sub i32 0, %1734
  %1739 = sub i32 0, 1
  %1740 = sub i32 %1737, %1739
  %1741 = add i32 %1737, 1
  %1742 = add i32 %1734, 309195691
  %1743 = sub i32 %1742, 1
  %1744 = sub i32 %1743, 309195691
  %1745 = sub i32 %1734, 1
  %1746 = mul i32 %1744, 1
  %1747 = add i32 0, 318159229
  %1748 = sub i32 %1747, %1734
  %1749 = sub i32 %1748, 318159229
  %1750 = sub i32 0, %1734
  %1751 = sub i32 0, 1
  %1752 = sub i32 %1749, %1751
  %1753 = add i32 %1749, 1
  %1754 = add i32 %1734, 1048675014
  %1755 = sub i32 %1754, 1
  %1756 = sub i32 %1755, 1048675014
  %1757 = sub i32 %1734, 1
  %1758 = mul i32 %1756, 1
  %1759 = sub i32 0, 1628149714
  %1760 = sub i32 %1759, %1734
  %1761 = add i32 %1760, 1628149714
  %1762 = sub i32 0, %1734
  %1763 = add i32 %1761, 409825018
  %1764 = add i32 %1763, 1
  %1765 = sub i32 %1764, 409825018
  %1766 = add i32 %1761, 1
  %1767 = sub i32 0, %1734
  %1768 = sub i32 0, 1
  %1769 = add i32 %1767, %1768
  %1770 = sub i32 0, %1769
  %1771 = add nsw i32 %1734, 1
  %1772 = sext i32 %1770 to i64
  %1773 = call dereferenceable(24) %"class.std::vector.0"* @_ZNSt6vectorIS_IS_IxSaIxEESaIS1_EESaIS3_EEixEm(%"class.std::vector"* %19, i64 %1772) #3
  %1774 = load i32, i32* %28, align 4
  %1775 = add i32 0, -812499272
  %1776 = sub i32 %1775, %1774
  %1777 = sub i32 %1776, -812499272
  %1778 = sub i32 0, %1774
  %1779 = sub i32 0, %1777
  %1780 = sub i32 0, 1
  %1781 = add i32 %1779, %1780
  %1782 = sub i32 0, %1781
  %1783 = add i32 %1777, 1
  %1784 = sub i32 0, 715677052
  %1785 = sub i32 %1784, %1774
  %1786 = add i32 %1785, 715677052
  %1787 = sub i32 0, %1774
  %1788 = add i32 %1786, -891255750
  %1789 = add i32 %1788, 1
  %1790 = sub i32 %1789, -891255750
  %1791 = add i32 %1786, 1
  %1792 = sub i32 0, 1
  %1793 = add i32 %1774, %1792
  %1794 = sub nsw i32 %1774, 1
  %1795 = sext i32 %1793 to i64
  %1796 = call dereferenceable(24) %"class.std::vector.5"* @_ZNSt6vectorIS_IxSaIxEESaIS1_EEixEm(%"class.std::vector.0"* %1773, i64 %1795) #3
  %1797 = load i32, i32* %29, align 4
  %1798 = load i32, i32* %28, align 4
  %1799 = sub i32 %1798, 1419639525
  %1800 = sub i32 %1799, 1
  %1801 = add i32 %1800, 1419639525
  %1802 = sub i32 %1798, 1
  %1803 = mul i32 %1801, 1
  %1804 = shl i32 %1798, 1
  %1805 = sub i32 0, 1
  %1806 = add i32 %1798, %1805
  %1807 = sub i32 %1798, 1
  %1808 = mul i32 %1806, 1
  %1809 = sub i32 %1798, -1837128492
  %1810 = sub i32 %1809, 1
  %1811 = add i32 %1810, -1837128492
  %1812 = sub nsw i32 %1798, 1
  %1813 = sub i32 2, -512293592
  %1814 = sub i32 %1813, %1811
  %1815 = add i32 %1814, -512293592
  %1816 = sub i32 2, %1811
  %1817 = mul i32 %1815, %1811
  %1818 = add i32 0, -2023971480
  %1819 = sub i32 %1818, 2
  %1820 = sub i32 %1819, -2023971480
  %1821 = sub i32 0, 2
  %1822 = sub i32 0, %1820
  %1823 = sub i32 0, %1811
  %1824 = add i32 %1822, %1823
  %1825 = sub i32 0, %1824
  %1826 = add i32 %1820, %1811
  %1827 = shl i32 2, %1811
  %1828 = mul nsw i32 2, %1811
  %1829 = sub i32 0, %1797
  %1830 = sub i32 0, %1828
  %1831 = add i32 %1829, %1830
  %1832 = sub i32 0, %1831
  %1833 = add nsw i32 %1797, %1828
  %1834 = sext i32 %1832 to i64
  %1835 = call dereferenceable(8) i64* @_ZNSt6vectorIxSaIxEEixEm(%"class.std::vector.5"* %1796, i64 %1834) #3
  %1836 = load i64, i64* %1835, align 8
  %1837 = sub i64 0, -2849797944049893324
  %1838 = sub i64 %1837, %1836
  %1839 = add i64 %1838, -2849797944049893324
  %1840 = sub i64 0, %1836
  %1841 = sub i64 0, %1733
  %1842 = sub i64 %1839, %1841
  %1843 = add i64 %1839, %1733
  %1844 = sub i64 0, %1733
  %1845 = add i64 %1836, %1844
  %1846 = sub i64 %1836, %1733
  %1847 = mul i64 %1845, %1733
  %1848 = add i64 %1836, 7049504232555091747
  %1849 = sub i64 %1848, %1733
  %1850 = sub i64 %1849, 7049504232555091747
  %1851 = sub i64 %1836, %1733
  %1852 = mul i64 %1850, %1733
  %1853 = sub i64 %1836, -8734260369093736693
  %1854 = sub i64 %1853, %1733
  %1855 = add i64 %1854, -8734260369093736693
  %1856 = sub i64 %1836, %1733
  %1857 = mul i64 %1855, %1733
  %1858 = sub i64 0, %1733
  %1859 = sub i64 %1836, %1858
  %1860 = add nsw i64 %1836, %1733
  store i64 %1859, i64* %1835, align 8
  %1861 = load i32, i32* %27, align 4
  %1862 = sub i32 0, 1
  %1863 = add i32 %1861, %1862
  %1864 = sub i32 %1861, 1
  %1865 = mul i32 %1863, 1
  %1866 = add i32 0, 323141446
  %1867 = sub i32 %1866, %1861
  %1868 = sub i32 %1867, 323141446
  %1869 = sub i32 0, %1861
  %1870 = sub i32 0, 1
  %1871 = sub i32 %1868, %1870
  %1872 = add i32 %1868, 1
  %1873 = sub i32 0, 1
  %1874 = add i32 %1861, %1873
  %1875 = sub i32 %1861, 1
  %1876 = mul i32 %1874, 1
  %1877 = sub i32 0, %1861
  %1878 = sub i32 0, 1
  %1879 = add i32 %1877, %1878
  %1880 = sub i32 0, %1879
  %1881 = add nsw i32 %1861, 1
  %1882 = sext i32 %1880 to i64
  %1883 = call dereferenceable(24) %"class.std::vector.0"* @_ZNSt6vectorIS_IS_IxSaIxEESaIS1_EESaIS3_EEixEm(%"class.std::vector"* %19, i64 %1882) #3
  %1884 = load i32, i32* %28, align 4
  %1885 = sub i32 0, 1
  %1886 = add i32 %1884, %1885
  %1887 = sub i32 %1884, 1
  %1888 = mul i32 %1886, 1
  %1889 = sub i32 %1884, 418319012
  %1890 = sub i32 %1889, 1
  %1891 = add i32 %1890, 418319012
  %1892 = sub i32 %1884, 1
  %1893 = mul i32 %1891, 1
  %1894 = shl i32 %1884, 1
  %1895 = sub i32 %1884, 40698283
  %1896 = sub i32 %1895, 1
  %1897 = add i32 %1896, 40698283
  %1898 = sub nsw i32 %1884, 1
  %1899 = sext i32 %1897 to i64
  %1900 = call dereferenceable(24) %"class.std::vector.5"* @_ZNSt6vectorIS_IxSaIxEESaIS1_EEixEm(%"class.std::vector.0"* %1883, i64 %1899) #3
  %1901 = load i32, i32* %29, align 4
  %1902 = load i32, i32* %28, align 4
  %1903 = shl i32 %1902, 1
  %1904 = shl i32 %1902, 1
  %1905 = add i32 %1902, -282057238
  %1906 = sub i32 %1905, 1
  %1907 = sub i32 %1906, -282057238
  %1908 = sub i32 %1902, 1
  %1909 = mul i32 %1907, 1
  %1910 = sub i32 0, 1
  %1911 = add i32 %1902, %1910
  %1912 = sub i32 %1902, 1
  %1913 = mul i32 %1911, 1
  %1914 = sub i32 0, %1902
  %1915 = add i32 0, %1914
  %1916 = sub i32 0, %1902
  %1917 = sub i32 0, %1915
  %1918 = sub i32 0, 1
  %1919 = add i32 %1917, %1918
  %1920 = sub i32 0, %1919
  %1921 = add i32 %1915, 1
  %1922 = shl i32 %1902, 1
  %1923 = add i32 %1902, -544139878
  %1924 = sub i32 %1923, 1
  %1925 = sub i32 %1924, -544139878
  %1926 = sub nsw i32 %1902, 1
  %1927 = sub i32 0, %1925
  %1928 = add i32 2, %1927
  %1929 = sub i32 2, %1925
  %1930 = mul i32 %1928, %1925
  %1931 = sub i32 0, %1925
  %1932 = add i32 2, %1931
  %1933 = sub i32 2, %1925
  %1934 = mul i32 %1932, %1925
  %1935 = mul nsw i32 2, %1925
  %1936 = shl i32 %1901, %1935
  %1937 = add i32 %1901, -337627804
  %1938 = sub i32 %1937, %1935
  %1939 = sub i32 %1938, -337627804
  %1940 = sub i32 %1901, %1935
  %1941 = mul i32 %1939, %1935
  %1942 = sub i32 0, %1901
  %1943 = sub i32 0, %1935
  %1944 = add i32 %1942, %1943
  %1945 = sub i32 0, %1944
  %1946 = add nsw i32 %1901, %1935
  %1947 = sext i32 %1945 to i64
  %1948 = call dereferenceable(8) i64* @_ZNSt6vectorIxSaIxEEixEm(%"class.std::vector.5"* %1900, i64 %1947) #3
  %1949 = load i64, i64* %1948, align 8
  %1950 = sub i64 %1949, -6025133896437859372
  %1951 = sub i64 %1950, 1000000007
  %1952 = add i64 %1951, -6025133896437859372
  %1953 = sub i64 %1949, 1000000007
  %1954 = mul i64 %1952, 1000000007
  %1955 = add i64 0, -6616196364597027280
  %1956 = sub i64 %1955, %1949
  %1957 = sub i64 %1956, -6616196364597027280
  %1958 = sub i64 0, %1949
  %1959 = sub i64 %1957, -4185555746831282247
  %1960 = add i64 %1959, 1000000007
  %1961 = add i64 %1960, -4185555746831282247
  %1962 = add i64 %1957, 1000000007
  %1963 = sub i64 0, %1949
  %1964 = add i64 0, %1963
  %1965 = sub i64 0, %1949
  %1966 = add i64 %1964, 3452114370539523630
  %1967 = add i64 %1966, 1000000007
  %1968 = sub i64 %1967, 3452114370539523630
  %1969 = add i64 %1964, 1000000007
  %1970 = add i64 0, 2073951681668178466
  %1971 = sub i64 %1970, %1949
  %1972 = sub i64 %1971, 2073951681668178466
  %1973 = sub i64 0, %1949
  %1974 = add i64 %1972, 7641903560157154225
  %1975 = add i64 %1974, 1000000007
  %1976 = sub i64 %1975, 7641903560157154225
  %1977 = add i64 %1972, 1000000007
  %1978 = shl i64 %1949, 1000000007
  %1979 = shl i64 %1949, 1000000007
  %1980 = sub i64 0, -4835093277682735305
  %1981 = sub i64 %1980, %1949
  %1982 = add i64 %1981, -4835093277682735305
  %1983 = sub i64 0, %1949
  %1984 = sub i64 0, %1982
  %1985 = sub i64 0, 1000000007
  %1986 = add i64 %1984, %1985
  %1987 = sub i64 0, %1986
  %1988 = add i64 %1982, 1000000007
  %1989 = srem i64 %1949, 1000000007
  store i64 %1989, i64* %1948, align 8
  br label %458

; <label>:1990:                                   ; preds = %581, %554
  %1991 = landingpad { i8*, i32 }
          cleanup
  %1992 = extractvalue { i8*, i32 } %1991, 0
  store i8* %1992, i8** %23, align 8
  %1993 = extractvalue { i8*, i32 } %1991, 1
  store i32 %1993, i32* %24, align 4
  br label %581

; <label>:1994:                                   ; preds = %625, %611
  %1995 = landingpad { i8*, i32 }
          cleanup
  %1996 = extractvalue { i8*, i32 } %1995, 0
  store i8* %1996, i8** %23, align 8
  %1997 = extractvalue { i8*, i32 } %1995, 1
  store i32 %1997, i32* %24, align 4
  call void @_ZNSaISt6vectorIS_IxSaIxEESaIS1_EEED2Ev(%"class.std::allocator"* %26) #3
  call void @_ZNSt6vectorIS_IxSaIxEESaIS1_EED2Ev(%"class.std::vector.0"* %20) #3
  br label %625

; <label>:1998:                                   ; preds = %671, %644
  call void @_ZNSaISt6vectorIxSaIxEEED2Ev(%"class.std::allocator.2"* %25) #3
  call void @_ZNSt6vectorIxSaIxEED2Ev(%"class.std::vector.5"* %21) #3
  br label %671

; <label>:1999:                                   ; preds = %714, %699
  br label %714

; <label>:2000:                                   ; preds = %774, %748
  br label %774

; <label>:2001:                                   ; preds = %823, %796
  %2002 = load i32, i32* %27, align 4
  %2003 = shl i32 %2002, 1
  %2004 = sub i32 %2002, -1565237106
  %2005 = add i32 %2004, 1
  %2006 = add i32 %2005, -1565237106
  %2007 = add nsw i32 %2002, 1
  store i32 %2006, i32* %27, align 4
  br label %823

; <label>:2008:                                   ; preds = %870, %855
  call void @_ZNSt6vectorIS_IS_IxSaIxEESaIS1_EESaIS3_EED2Ev(%"class.std::vector"* %19) #3
  %2009 = load i32, i32* %16, align 4
  br label %870
}

declare dereferenceable(280) %"class.std::basic_istream"* @_ZNSirsERi(%"class.std::basic_istream"*, i32* dereferenceable(4)) #1

; Function Attrs: noinline nounwind uwtable
define linkonce_odr void @_ZNSaIxEC2Ev(%"class.std::allocator.7"*) unnamed_addr #5 comdat align 2 {
  %2 = alloca i1
  %3 = alloca i1
  %4 = load i32, i32* @x.3
  %5 = load i32, i32* @y.4
  %6 = add i32 %4, -1236277370
  %7 = sub i32 %6, 1
  %8 = sub i32 %7, -1236277370
  %9 = sub i32 %4, 1
  %10 = mul i32 %4, %8
  %11 = urem i32 %10, 2
  %12 = icmp eq i32 %11, 0
  store i1 %12, i1* %3
  %13 = icmp slt i32 %5, 10
  store i1 %13, i1* %2
  %14 = alloca i32
  store i32 -1801922839, i32* %14
  br label %15

; <label>:15:                                     ; preds = %1, %74
  %16 = load i32, i32* %14
  switch i32 %16, label %17 [
    i32 -1801922839, label %18
    i32 1774697343, label %38
    i32 -1010362053, label %69
    i32 270149819, label %70
  ]

; <label>:17:                                     ; preds = %15
  br label %74

; <label>:18:                                     ; preds = %15
  %19 = load volatile i1, i1* %3
  %20 = load volatile i1, i1* %2
  %21 = xor i1 %19, true
  %22 = xor i1 %20, true
  %23 = xor i1 true, true
  %24 = and i1 %21, true
  %25 = and i1 %19, %23
  %26 = and i1 %22, true
  %27 = and i1 %20, %23
  %28 = or i1 %24, %25
  %29 = or i1 %26, %27
  %30 = xor i1 %28, %29
  %31 = or i1 %21, %22
  %32 = xor i1 %31, true
  %33 = or i1 true, %23
  %34 = and i1 %32, %33
  %35 = or i1 %30, %34
  %36 = or i1 %19, %20
  %37 = select i1 %35, i32 1774697343, i32 270149819
  store i32 %37, i32* %14
  br label %74

; <label>:38:                                     ; preds = %15
  %39 = alloca %"class.std::allocator.7"*, align 8
  store %"class.std::allocator.7"* %0, %"class.std::allocator.7"** %39, align 8
  %40 = load %"class.std::allocator.7"*, %"class.std::allocator.7"** %39, align 8
  %41 = bitcast %"class.std::allocator.7"* %40 to %"class.__gnu_cxx::new_allocator.8"*
  call void @_ZN9__gnu_cxx13new_allocatorIxEC2Ev(%"class.__gnu_cxx::new_allocator.8"* %41) #3
  %42 = load i32, i32* @x.3
  %43 = load i32, i32* @y.4
  %44 = add i32 %42, 557277104
  %45 = sub i32 %44, 1
  %46 = sub i32 %45, 557277104
  %47 = sub i32 %42, 1
  %48 = mul i32 %42, %46
  %49 = urem i32 %48, 2
  %50 = icmp eq i32 %49, 0
  %51 = icmp slt i32 %43, 10
  %52 = xor i1 %50, true
  %53 = xor i1 %51, true
  %54 = xor i1 true, true
  %55 = and i1 %52, true
  %56 = and i1 %50, %54
  %57 = and i1 %53, true
  %58 = and i1 %51, %54
  %59 = or i1 %55, %56
  %60 = or i1 %57, %58
  %61 = xor i1 %59, %60
  %62 = or i1 %52, %53
  %63 = xor i1 %62, true
  %64 = or i1 true, %54
  %65 = and i1 %63, %64
  %66 = or i1 %61, %65
  %67 = or i1 %50, %51
  %68 = select i1 %66, i32 -1010362053, i32 270149819
  store i32 %68, i32* %14
  br label %74

; <label>:69:                                     ; preds = %15
  ret void

; <label>:70:                                     ; preds = %15
  %71 = alloca %"class.std::allocator.7"*, align 8
  store %"class.std::allocator.7"* %0, %"class.std::allocator.7"** %71, align 8
  %72 = load %"class.std::allocator.7"*, %"class.std::allocator.7"** %71, align 8
  %73 = bitcast %"class.std::allocator.7"* %72 to %"class.__gnu_cxx::new_allocator.8"*
  call void @_ZN9__gnu_cxx13new_allocatorIxEC2Ev(%"class.__gnu_cxx::new_allocator.8"* %73) #3
  store i32 1774697343, i32* %14
  br label %74

; <label>:74:                                     ; preds = %70, %38, %18, %17
  br label %15
}

; Function Attrs: noinline uwtable
define linkonce_odr void @_ZNSt6vectorIxSaIxEEC2EmRKS0_(%"class.std::vector.5"*, i64, %"class.std::allocator.7"* dereferenceable(1)) unnamed_addr #0 comdat align 2 personality i8* bitcast (i32 (...)* @__gxx_personality_v0 to i8*) {
  %4 = load i32, i32* @x.5
  %5 = load i32, i32* @y.6
  %6 = sub i32 0, 1
  %7 = add i32 %4, %6
  %8 = sub i32 %4, 1
  %9 = mul i32 %4, %7
  %10 = urem i32 %9, 2
  %11 = icmp eq i32 %10, 0
  %12 = icmp slt i32 %5, 10
  %13 = and i1 %11, %12
  %14 = xor i1 %11, %12
  %15 = or i1 %13, %14
  %16 = or i1 %11, %12
  br i1 %15, label %17, label %94

; <label>:17:                                     ; preds = %3, %94
  %18 = alloca %"class.std::vector.5"*, align 8
  %19 = alloca i64, align 8
  %20 = alloca %"class.std::allocator.7"*, align 8
  %21 = alloca i8*
  %22 = alloca i32
  store %"class.std::vector.5"* %0, %"class.std::vector.5"** %18, align 8
  store i64 %1, i64* %19, align 8
  store %"class.std::allocator.7"* %2, %"class.std::allocator.7"** %20, align 8
  %23 = load %"class.std::vector.5"*, %"class.std::vector.5"** %18, align 8
  %24 = bitcast %"class.std::vector.5"* %23 to %"struct.std::_Vector_base.6"*
  %25 = load i64, i64* %19, align 8
  %26 = load %"class.std::allocator.7"*, %"class.std::allocator.7"** %20, align 8
  call void @_ZNSt12_Vector_baseIxSaIxEEC2EmRKS0_(%"struct.std::_Vector_base.6"* %24, i64 %25, %"class.std::allocator.7"* dereferenceable(1) %26)
  %27 = load i64, i64* %19, align 8
  %28 = load i32, i32* @x.5
  %29 = load i32, i32* @y.6
  %30 = sub i32 0, 1
  %31 = add i32 %28, %30
  %32 = sub i32 %28, 1
  %33 = mul i32 %28, %31
  %34 = urem i32 %33, 2
  %35 = icmp eq i32 %34, 0
  %36 = icmp slt i32 %29, 10
  %37 = and i1 %35, %36
  %38 = xor i1 %35, %36
  %39 = or i1 %37, %38
  %40 = or i1 %35, %36
  br i1 %39, label %41, label %94

; <label>:41:                                     ; preds = %17
  invoke void @_ZNSt6vectorIxSaIxEE21_M_default_initializeEm(%"class.std::vector.5"* %23, i64 %27)
          to label %42 unwind label %84

; <label>:42:                                     ; preds = %41
  %43 = load i32, i32* @x.5
  %44 = load i32, i32* @y.6
  %45 = add i32 %43, -1287813555
  %46 = sub i32 %45, 1
  %47 = sub i32 %46, -1287813555
  %48 = sub i32 %43, 1
  %49 = mul i32 %43, %47
  %50 = urem i32 %49, 2
  %51 = icmp eq i32 %50, 0
  %52 = icmp slt i32 %44, 10
  %53 = and i1 %51, %52
  %54 = xor i1 %51, %52
  %55 = or i1 %53, %54
  %56 = or i1 %51, %52
  br i1 %55, label %57, label %105

; <label>:57:                                     ; preds = %42, %105
  %58 = load i32, i32* @x.5
  %59 = load i32, i32* @y.6
  %60 = sub i32 0, 1
  %61 = add i32 %58, %60
  %62 = sub i32 %58, 1
  %63 = mul i32 %58, %61
  %64 = urem i32 %63, 2
  %65 = icmp eq i32 %64, 0
  %66 = icmp slt i32 %59, 10
  %67 = xor i1 %65, true
  %68 = xor i1 %66, true
  %69 = xor i1 true, true
  %70 = and i1 %67, true
  %71 = and i1 %65, %69
  %72 = and i1 %68, true
  %73 = and i1 %66, %69
  %74 = or i1 %70, %71
  %75 = or i1 %72, %73
  %76 = xor i1 %74, %75
  %77 = or i1 %67, %68
  %78 = xor i1 %77, true
  %79 = or i1 true, %69
  %80 = and i1 %78, %79
  %81 = or i1 %76, %80
  %82 = or i1 %65, %66
  br i1 %81, label %83, label %105

; <label>:83:                                     ; preds = %57
  ret void

; <label>:84:                                     ; preds = %41
  %85 = landingpad { i8*, i32 }
          cleanup
  %86 = extractvalue { i8*, i32 } %85, 0
  store i8* %86, i8** %21, align 8
  %87 = extractvalue { i8*, i32 } %85, 1
  store i32 %87, i32* %22, align 4
  %88 = bitcast %"class.std::vector.5"* %23 to %"struct.std::_Vector_base.6"*
  call void @_ZNSt12_Vector_baseIxSaIxEED2Ev(%"struct.std::_Vector_base.6"* %88) #3
  br label %89

; <label>:89:                                     ; preds = %84
  %90 = load i8*, i8** %21, align 8
  %91 = load i32, i32* %22, align 4
  %92 = insertvalue { i8*, i32 } undef, i8* %90, 0
  %93 = insertvalue { i8*, i32 } %92, i32 %91, 1
  resume { i8*, i32 } %93

; <label>:94:                                     ; preds = %17, %3
  %95 = alloca %"class.std::vector.5"*, align 8
  %96 = alloca i64, align 8
  %97 = alloca %"class.std::allocator.7"*, align 8
  %98 = alloca i8*
  %99 = alloca i32
  store %"class.std::vector.5"* %0, %"class.std::vector.5"** %95, align 8
  store i64 %1, i64* %96, align 8
  store %"class.std::allocator.7"* %2, %"class.std::allocator.7"** %97, align 8
  %100 = load %"class.std::vector.5"*, %"class.std::vector.5"** %95, align 8
  %101 = bitcast %"class.std::vector.5"* %100 to %"struct.std::_Vector_base.6"*
  %102 = load i64, i64* %96, align 8
  %103 = load %"class.std::allocator.7"*, %"class.std::allocator.7"** %97, align 8
  call void @_ZNSt12_Vector_baseIxSaIxEEC2EmRKS0_(%"struct.std::_Vector_base.6"* %101, i64 %102, %"class.std::allocator.7"* dereferenceable(1) %103)
  %104 = load i64, i64* %96, align 8
  br label %17

; <label>:105:                                    ; preds = %57, %42
  br label %57
}

declare i32 @__gxx_personality_v0(...)

; Function Attrs: noinline nounwind uwtable
define linkonce_odr void @_ZNSaISt6vectorIxSaIxEEEC2Ev(%"class.std::allocator.2"*) unnamed_addr #5 comdat align 2 {
  %2 = alloca %"class.std::allocator.2"*, align 8
  store %"class.std::allocator.2"* %0, %"class.std::allocator.2"** %2, align 8
  %3 = load %"class.std::allocator.2"*, %"class.std::allocator.2"** %2, align 8
  %4 = bitcast %"class.std::allocator.2"* %3 to %"class.__gnu_cxx::new_allocator.3"*
  call void @_ZN9__gnu_cxx13new_allocatorISt6vectorIxSaIxEEEC2Ev(%"class.__gnu_cxx::new_allocator.3"* %4) #3
  ret void
}

; Function Attrs: noinline uwtable
define linkonce_odr void @_ZNSt6vectorIS_IxSaIxEESaIS1_EEC2EmRKS1_RKS2_(%"class.std::vector.0"*, i64, %"class.std::vector.5"* dereferenceable(24), %"class.std::allocator.2"* dereferenceable(1)) unnamed_addr #0 comdat align 2 personality i8* bitcast (i32 (...)* @__gxx_personality_v0 to i8*) {
  %5 = alloca %"class.std::vector.0"*, align 8
  %6 = alloca i64, align 8
  %7 = alloca %"class.std::vector.5"*, align 8
  %8 = alloca %"class.std::allocator.2"*, align 8
  %9 = alloca i8*
  %10 = alloca i32
  store %"class.std::vector.0"* %0, %"class.std::vector.0"** %5, align 8
  store i64 %1, i64* %6, align 8
  store %"class.std::vector.5"* %2, %"class.std::vector.5"** %7, align 8
  store %"class.std::allocator.2"* %3, %"class.std::allocator.2"** %8, align 8
  %11 = load %"class.std::vector.0"*, %"class.std::vector.0"** %5, align 8
  %12 = bitcast %"class.std::vector.0"* %11 to %"struct.std::_Vector_base.1"*
  %13 = load i64, i64* %6, align 8
  %14 = load %"class.std::allocator.2"*, %"class.std::allocator.2"** %8, align 8
  call void @_ZNSt12_Vector_baseISt6vectorIxSaIxEESaIS2_EEC2EmRKS3_(%"struct.std::_Vector_base.1"* %12, i64 %13, %"class.std::allocator.2"* dereferenceable(1) %14)
  %15 = load i64, i64* %6, align 8
  %16 = load %"class.std::vector.5"*, %"class.std::vector.5"** %7, align 8
  invoke void @_ZNSt6vectorIS_IxSaIxEESaIS1_EE18_M_fill_initializeEmRKS1_(%"class.std::vector.0"* %11, i64 %15, %"class.std::vector.5"* dereferenceable(24) %16)
          to label %17 unwind label %18

; <label>:17:                                     ; preds = %4
  ret void

; <label>:18:                                     ; preds = %4
  %19 = load i32, i32* @x.9
  %20 = load i32, i32* @y.10
  %21 = add i32 %19, 621943317
  %22 = sub i32 %21, 1
  %23 = sub i32 %22, 621943317
  %24 = sub i32 %19, 1
  %25 = mul i32 %19, %23
  %26 = urem i32 %25, 2
  %27 = icmp eq i32 %26, 0
  %28 = icmp slt i32 %20, 10
  %29 = xor i1 %27, true
  %30 = xor i1 %28, true
  %31 = xor i1 true, true
  %32 = and i1 %29, true
  %33 = and i1 %27, %31
  %34 = and i1 %30, true
  %35 = and i1 %28, %31
  %36 = or i1 %32, %33
  %37 = or i1 %34, %35
  %38 = xor i1 %36, %37
  %39 = or i1 %29, %30
  %40 = xor i1 %39, true
  %41 = or i1 true, %31
  %42 = and i1 %40, %41
  %43 = or i1 %38, %42
  %44 = or i1 %27, %28
  br i1 %43, label %45, label %70

; <label>:45:                                     ; preds = %18, %70
  %46 = landingpad { i8*, i32 }
          cleanup
  %47 = extractvalue { i8*, i32 } %46, 0
  store i8* %47, i8** %9, align 8
  %48 = extractvalue { i8*, i32 } %46, 1
  store i32 %48, i32* %10, align 4
  %49 = bitcast %"class.std::vector.0"* %11 to %"struct.std::_Vector_base.1"*
  call void @_ZNSt12_Vector_baseISt6vectorIxSaIxEESaIS2_EED2Ev(%"struct.std::_Vector_base.1"* %49) #3
  %50 = load i32, i32* @x.9
  %51 = load i32, i32* @y.10
  %52 = add i32 %50, 1457096915
  %53 = sub i32 %52, 1
  %54 = sub i32 %53, 1457096915
  %55 = sub i32 %50, 1
  %56 = mul i32 %50, %54
  %57 = urem i32 %56, 2
  %58 = icmp eq i32 %57, 0
  %59 = icmp slt i32 %51, 10
  %60 = and i1 %58, %59
  %61 = xor i1 %58, %59
  %62 = or i1 %60, %61
  %63 = or i1 %58, %59
  br i1 %62, label %64, label %70

; <label>:64:                                     ; preds = %45
  br label %65

; <label>:65:                                     ; preds = %64
  %66 = load i8*, i8** %9, align 8
  %67 = load i32, i32* %10, align 4
  %68 = insertvalue { i8*, i32 } undef, i8* %66, 0
  %69 = insertvalue { i8*, i32 } %68, i32 %67, 1
  resume { i8*, i32 } %69

; <label>:70:                                     ; preds = %45, %18
  %71 = landingpad { i8*, i32 }
          cleanup
  %72 = extractvalue { i8*, i32 } %71, 0
  store i8* %72, i8** %9, align 8
  %73 = extractvalue { i8*, i32 } %71, 1
  store i32 %73, i32* %10, align 4
  %74 = bitcast %"class.std::vector.0"* %11 to %"struct.std::_Vector_base.1"*
  call void @_ZNSt12_Vector_baseISt6vectorIxSaIxEESaIS2_EED2Ev(%"struct.std::_Vector_base.1"* %74) #3
  br label %45
}

; Function Attrs: noinline nounwind uwtable
define linkonce_odr void @_ZNSaISt6vectorIS_IxSaIxEESaIS1_EEEC2Ev(%"class.std::allocator"*) unnamed_addr #5 comdat align 2 {
  %2 = alloca %"class.std::allocator"*, align 8
  store %"class.std::allocator"* %0, %"class.std::allocator"** %2, align 8
  %3 = load %"class.std::allocator"*, %"class.std::allocator"** %2, align 8
  %4 = bitcast %"class.std::allocator"* %3 to %"class.__gnu_cxx::new_allocator"*
  call void @_ZN9__gnu_cxx13new_allocatorISt6vectorIS1_IxSaIxEESaIS3_EEEC2Ev(%"class.__gnu_cxx::new_allocator"* %4) #3
  ret void
}

; Function Attrs: noinline uwtable
define linkonce_odr void @_ZNSt6vectorIS_IS_IxSaIxEESaIS1_EESaIS3_EEC2EmRKS3_RKS4_(%"class.std::vector"*, i64, %"class.std::vector.0"* dereferenceable(24), %"class.std::allocator"* dereferenceable(1)) unnamed_addr #0 comdat align 2 personality i8* bitcast (i32 (...)* @__gxx_personality_v0 to i8*) {
  %5 = alloca %"class.std::vector"*, align 8
  %6 = alloca i64, align 8
  %7 = alloca %"class.std::vector.0"*, align 8
  %8 = alloca %"class.std::allocator"*, align 8
  %9 = alloca i8*
  %10 = alloca i32
  store %"class.std::vector"* %0, %"class.std::vector"** %5, align 8
  store i64 %1, i64* %6, align 8
  store %"class.std::vector.0"* %2, %"class.std::vector.0"** %7, align 8
  store %"class.std::allocator"* %3, %"class.std::allocator"** %8, align 8
  %11 = load %"class.std::vector"*, %"class.std::vector"** %5, align 8
  %12 = bitcast %"class.std::vector"* %11 to %"struct.std::_Vector_base"*
  %13 = load i64, i64* %6, align 8
  %14 = load %"class.std::allocator"*, %"class.std::allocator"** %8, align 8
  call void @_ZNSt12_Vector_baseISt6vectorIS0_IxSaIxEESaIS2_EESaIS4_EEC2EmRKS5_(%"struct.std::_Vector_base"* %12, i64 %13, %"class.std::allocator"* dereferenceable(1) %14)
  %15 = load i64, i64* %6, align 8
  %16 = load %"class.std::vector.0"*, %"class.std::vector.0"** %7, align 8
  invoke void @_ZNSt6vectorIS_IS_IxSaIxEESaIS1_EESaIS3_EE18_M_fill_initializeEmRKS3_(%"class.std::vector"* %11, i64 %15, %"class.std::vector.0"* dereferenceable(24) %16)
          to label %17 unwind label %48

; <label>:17:                                     ; preds = %4
  %18 = load i32, i32* @x.13
  %19 = load i32, i32* @y.14
  %20 = sub i32 %18, -819008427
  %21 = sub i32 %20, 1
  %22 = add i32 %21, -819008427
  %23 = sub i32 %18, 1
  %24 = mul i32 %18, %22
  %25 = urem i32 %24, 2
  %26 = icmp eq i32 %25, 0
  %27 = icmp slt i32 %19, 10
  %28 = and i1 %26, %27
  %29 = xor i1 %26, %27
  %30 = or i1 %28, %29
  %31 = or i1 %26, %27
  br i1 %30, label %32, label %58

; <label>:32:                                     ; preds = %17, %58
  %33 = load i32, i32* @x.13
  %34 = load i32, i32* @y.14
  %35 = add i32 %33, 1417600489
  %36 = sub i32 %35, 1
  %37 = sub i32 %36, 1417600489
  %38 = sub i32 %33, 1
  %39 = mul i32 %33, %37
  %40 = urem i32 %39, 2
  %41 = icmp eq i32 %40, 0
  %42 = icmp slt i32 %34, 10
  %43 = and i1 %41, %42
  %44 = xor i1 %41, %42
  %45 = or i1 %43, %44
  %46 = or i1 %41, %42
  br i1 %45, label %47, label %58

; <label>:47:                                     ; preds = %32
  ret void

; <label>:48:                                     ; preds = %4
  %49 = landingpad { i8*, i32 }
          cleanup
  %50 = extractvalue { i8*, i32 } %49, 0
  store i8* %50, i8** %9, align 8
  %51 = extractvalue { i8*, i32 } %49, 1
  store i32 %51, i32* %10, align 4
  %52 = bitcast %"class.std::vector"* %11 to %"struct.std::_Vector_base"*
  call void @_ZNSt12_Vector_baseISt6vectorIS0_IxSaIxEESaIS2_EESaIS4_EED2Ev(%"struct.std::_Vector_base"* %52) #3
  br label %53

; <label>:53:                                     ; preds = %48
  %54 = load i8*, i8** %9, align 8
  %55 = load i32, i32* %10, align 4
  %56 = insertvalue { i8*, i32 } undef, i8* %54, 0
  %57 = insertvalue { i8*, i32 } %56, i32 %55, 1
  resume { i8*, i32 } %57

; <label>:58:                                     ; preds = %32, %17
  br label %32
}

; Function Attrs: noinline nounwind uwtable
define linkonce_odr void @_ZNSaISt6vectorIS_IxSaIxEESaIS1_EEED2Ev(%"class.std::allocator"*) unnamed_addr #5 comdat align 2 {
  %2 = alloca i1
  %3 = alloca i1
  %4 = load i32, i32* @x.15
  %5 = load i32, i32* @y.16
  %6 = sub i32 0, 1
  %7 = add i32 %4, %6
  %8 = sub i32 %4, 1
  %9 = mul i32 %4, %7
  %10 = urem i32 %9, 2
  %11 = icmp eq i32 %10, 0
  store i1 %11, i1* %3
  %12 = icmp slt i32 %5, 10
  store i1 %12, i1* %2
  %13 = alloca i32
  store i32 -1866158134, i32* %13
  br label %14

; <label>:14:                                     ; preds = %1, %60
  %15 = load i32, i32* %13
  switch i32 %15, label %16 [
    i32 -1866158134, label %17
    i32 -2005824840, label %37
    i32 -867184772, label %55
    i32 -1789012131, label %56
  ]

; <label>:16:                                     ; preds = %14
  br label %60

; <label>:17:                                     ; preds = %14
  %18 = load volatile i1, i1* %3
  %19 = load volatile i1, i1* %2
  %20 = xor i1 %18, true
  %21 = xor i1 %19, true
  %22 = xor i1 false, true
  %23 = and i1 %20, false
  %24 = and i1 %18, %22
  %25 = and i1 %21, false
  %26 = and i1 %19, %22
  %27 = or i1 %23, %24
  %28 = or i1 %25, %26
  %29 = xor i1 %27, %28
  %30 = or i1 %20, %21
  %31 = xor i1 %30, true
  %32 = or i1 false, %22
  %33 = and i1 %31, %32
  %34 = or i1 %29, %33
  %35 = or i1 %18, %19
  %36 = select i1 %34, i32 -2005824840, i32 -1789012131
  store i32 %36, i32* %13
  br label %60

; <label>:37:                                     ; preds = %14
  %38 = alloca %"class.std::allocator"*, align 8
  store %"class.std::allocator"* %0, %"class.std::allocator"** %38, align 8
  %39 = load %"class.std::allocator"*, %"class.std::allocator"** %38, align 8
  %40 = bitcast %"class.std::allocator"* %39 to %"class.__gnu_cxx::new_allocator"*
  call void @_ZN9__gnu_cxx13new_allocatorISt6vectorIS1_IxSaIxEESaIS3_EEED2Ev(%"class.__gnu_cxx::new_allocator"* %40) #3
  %41 = load i32, i32* @x.15
  %42 = load i32, i32* @y.16
  %43 = sub i32 0, 1
  %44 = add i32 %41, %43
  %45 = sub i32 %41, 1
  %46 = mul i32 %41, %44
  %47 = urem i32 %46, 2
  %48 = icmp eq i32 %47, 0
  %49 = icmp slt i32 %42, 10
  %50 = and i1 %48, %49
  %51 = xor i1 %48, %49
  %52 = or i1 %50, %51
  %53 = or i1 %48, %49
  %54 = select i1 %52, i32 -867184772, i32 -1789012131
  store i32 %54, i32* %13
  br label %60

; <label>:55:                                     ; preds = %14
  ret void

; <label>:56:                                     ; preds = %14
  %57 = alloca %"class.std::allocator"*, align 8
  store %"class.std::allocator"* %0, %"class.std::allocator"** %57, align 8
  %58 = load %"class.std::allocator"*, %"class.std::allocator"** %57, align 8
  %59 = bitcast %"class.std::allocator"* %58 to %"class.__gnu_cxx::new_allocator"*
  call void @_ZN9__gnu_cxx13new_allocatorISt6vectorIS1_IxSaIxEESaIS3_EEED2Ev(%"class.__gnu_cxx::new_allocator"* %59) #3
  store i32 -2005824840, i32* %13
  br label %60

; <label>:60:                                     ; preds = %56, %37, %17, %16
  br label %14
}

; Function Attrs: noinline nounwind uwtable
define linkonce_odr void @_ZNSt6vectorIS_IxSaIxEESaIS1_EED2Ev(%"class.std::vector.0"*) unnamed_addr #5 comdat align 2 personality i8* bitcast (i32 (...)* @__gxx_personality_v0 to i8*) {
  %2 = alloca %"class.std::vector.0"*, align 8
  %3 = alloca i8*
  %4 = alloca i32
  store %"class.std::vector.0"* %0, %"class.std::vector.0"** %2, align 8
  %5 = load %"class.std::vector.0"*, %"class.std::vector.0"** %2, align 8
  %6 = bitcast %"class.std::vector.0"* %5 to %"struct.std::_Vector_base.1"*
  %7 = getelementptr inbounds %"struct.std::_Vector_base.1", %"struct.std::_Vector_base.1"* %6, i32 0, i32 0
  %8 = getelementptr inbounds %"struct.std::_Vector_base<std::vector<long long, std::allocator<long long> >, std::allocator<std::vector<long long, std::allocator<long long> > > >::_Vector_impl", %"struct.std::_Vector_base<std::vector<long long, std::allocator<long long> >, std::allocator<std::vector<long long, std::allocator<long long> > > >::_Vector_impl"* %7, i32 0, i32 0
  %9 = load %"class.std::vector.5"*, %"class.std::vector.5"** %8, align 8
  %10 = bitcast %"class.std::vector.0"* %5 to %"struct.std::_Vector_base.1"*
  %11 = getelementptr inbounds %"struct.std::_Vector_base.1", %"struct.std::_Vector_base.1"* %10, i32 0, i32 0
  %12 = getelementptr inbounds %"struct.std::_Vector_base<std::vector<long long, std::allocator<long long> >, std::allocator<std::vector<long long, std::allocator<long long> > > >::_Vector_impl", %"struct.std::_Vector_base<std::vector<long long, std::allocator<long long> >, std::allocator<std::vector<long long, std::allocator<long long> > > >::_Vector_impl"* %11, i32 0, i32 1
  %13 = load %"class.std::vector.5"*, %"class.std::vector.5"** %12, align 8
  %14 = bitcast %"class.std::vector.0"* %5 to %"struct.std::_Vector_base.1"*
  %15 = call dereferenceable(1) %"class.std::allocator.2"* @_ZNSt12_Vector_baseISt6vectorIxSaIxEESaIS2_EE19_M_get_Tp_allocatorEv(%"struct.std::_Vector_base.1"* %14) #3
  invoke void @_ZSt8_DestroyIPSt6vectorIxSaIxEES2_EvT_S4_RSaIT0_E(%"class.std::vector.5"* %9, %"class.std::vector.5"* %13, %"class.std::allocator.2"* dereferenceable(1) %15)
          to label %16 unwind label %18

; <label>:16:                                     ; preds = %1
  %17 = bitcast %"class.std::vector.0"* %5 to %"struct.std::_Vector_base.1"*
  call void @_ZNSt12_Vector_baseISt6vectorIxSaIxEESaIS2_EED2Ev(%"struct.std::_Vector_base.1"* %17) #3
  ret void

; <label>:18:                                     ; preds = %1
  %19 = landingpad { i8*, i32 }
          catch i8* null
  %20 = extractvalue { i8*, i32 } %19, 0
  store i8* %20, i8** %3, align 8
  %21 = extractvalue { i8*, i32 } %19, 1
  store i32 %21, i32* %4, align 4
  %22 = bitcast %"class.std::vector.0"* %5 to %"struct.std::_Vector_base.1"*
  call void @_ZNSt12_Vector_baseISt6vectorIxSaIxEESaIS2_EED2Ev(%"struct.std::_Vector_base.1"* %22) #3
  br label %23

; <label>:23:                                     ; preds = %18
  %24 = load i8*, i8** %3, align 8
  call void @__clang_call_terminate(i8* %24) #10
  unreachable
}

; Function Attrs: noinline nounwind uwtable
define linkonce_odr void @_ZNSaISt6vectorIxSaIxEEED2Ev(%"class.std::allocator.2"*) unnamed_addr #5 comdat align 2 {
  %2 = alloca i1
  %3 = alloca i1
  %4 = load i32, i32* @x.19
  %5 = load i32, i32* @y.20
  %6 = sub i32 %4, -474905612
  %7 = sub i32 %6, 1
  %8 = add i32 %7, -474905612
  %9 = sub i32 %4, 1
  %10 = mul i32 %4, %8
  %11 = urem i32 %10, 2
  %12 = icmp eq i32 %11, 0
  store i1 %12, i1* %3
  %13 = icmp slt i32 %5, 10
  store i1 %13, i1* %2
  %14 = alloca i32
  store i32 625948931, i32* %14
  br label %15

; <label>:15:                                     ; preds = %1, %50
  %16 = load i32, i32* %14
  switch i32 %16, label %17 [
    i32 625948931, label %18
    i32 -1606030911, label %26
    i32 -1367941213, label %45
    i32 -822787599, label %46
  ]

; <label>:17:                                     ; preds = %15
  br label %50

; <label>:18:                                     ; preds = %15
  %19 = load volatile i1, i1* %3
  %20 = load volatile i1, i1* %2
  %21 = and i1 %19, %20
  %22 = xor i1 %19, %20
  %23 = or i1 %21, %22
  %24 = or i1 %19, %20
  %25 = select i1 %23, i32 -1606030911, i32 -822787599
  store i32 %25, i32* %14
  br label %50

; <label>:26:                                     ; preds = %15
  %27 = alloca %"class.std::allocator.2"*, align 8
  store %"class.std::allocator.2"* %0, %"class.std::allocator.2"** %27, align 8
  %28 = load %"class.std::allocator.2"*, %"class.std::allocator.2"** %27, align 8
  %29 = bitcast %"class.std::allocator.2"* %28 to %"class.__gnu_cxx::new_allocator.3"*
  call void @_ZN9__gnu_cxx13new_allocatorISt6vectorIxSaIxEEED2Ev(%"class.__gnu_cxx::new_allocator.3"* %29) #3
  %30 = load i32, i32* @x.19
  %31 = load i32, i32* @y.20
  %32 = add i32 %30, 1951423370
  %33 = sub i32 %32, 1
  %34 = sub i32 %33, 1951423370
  %35 = sub i32 %30, 1
  %36 = mul i32 %30, %34
  %37 = urem i32 %36, 2
  %38 = icmp eq i32 %37, 0
  %39 = icmp slt i32 %31, 10
  %40 = and i1 %38, %39
  %41 = xor i1 %38, %39
  %42 = or i1 %40, %41
  %43 = or i1 %38, %39
  %44 = select i1 %42, i32 -1367941213, i32 -822787599
  store i32 %44, i32* %14
  br label %50

; <label>:45:                                     ; preds = %15
  ret void

; <label>:46:                                     ; preds = %15
  %47 = alloca %"class.std::allocator.2"*, align 8
  store %"class.std::allocator.2"* %0, %"class.std::allocator.2"** %47, align 8
  %48 = load %"class.std::allocator.2"*, %"class.std::allocator.2"** %47, align 8
  %49 = bitcast %"class.std::allocator.2"* %48 to %"class.__gnu_cxx::new_allocator.3"*
  call void @_ZN9__gnu_cxx13new_allocatorISt6vectorIxSaIxEEED2Ev(%"class.__gnu_cxx::new_allocator.3"* %49) #3
  store i32 -1606030911, i32* %14
  br label %50

; <label>:50:                                     ; preds = %46, %26, %18, %17
  br label %15
}

; Function Attrs: noinline nounwind uwtable
define linkonce_odr void @_ZNSt6vectorIxSaIxEED2Ev(%"class.std::vector.5"*) unnamed_addr #5 comdat align 2 personality i8* bitcast (i32 (...)* @__gxx_personality_v0 to i8*) {
  %2 = alloca %"class.std::vector.5"*, align 8
  %3 = alloca i8*
  %4 = alloca i32
  store %"class.std::vector.5"* %0, %"class.std::vector.5"** %2, align 8
  %5 = load %"class.std::vector.5"*, %"class.std::vector.5"** %2, align 8
  %6 = bitcast %"class.std::vector.5"* %5 to %"struct.std::_Vector_base.6"*
  %7 = getelementptr inbounds %"struct.std::_Vector_base.6", %"struct.std::_Vector_base.6"* %6, i32 0, i32 0
  %8 = getelementptr inbounds %"struct.std::_Vector_base<long long, std::allocator<long long> >::_Vector_impl", %"struct.std::_Vector_base<long long, std::allocator<long long> >::_Vector_impl"* %7, i32 0, i32 0
  %9 = load i64*, i64** %8, align 8
  %10 = bitcast %"class.std::vector.5"* %5 to %"struct.std::_Vector_base.6"*
  %11 = getelementptr inbounds %"struct.std::_Vector_base.6", %"struct.std::_Vector_base.6"* %10, i32 0, i32 0
  %12 = getelementptr inbounds %"struct.std::_Vector_base<long long, std::allocator<long long> >::_Vector_impl", %"struct.std::_Vector_base<long long, std::allocator<long long> >::_Vector_impl"* %11, i32 0, i32 1
  %13 = load i64*, i64** %12, align 8
  %14 = bitcast %"class.std::vector.5"* %5 to %"struct.std::_Vector_base.6"*
  %15 = call dereferenceable(1) %"class.std::allocator.7"* @_ZNSt12_Vector_baseIxSaIxEE19_M_get_Tp_allocatorEv(%"struct.std::_Vector_base.6"* %14) #3
  invoke void @_ZSt8_DestroyIPxxEvT_S1_RSaIT0_E(i64* %9, i64* %13, %"class.std::allocator.7"* dereferenceable(1) %15)
          to label %16 unwind label %59

; <label>:16:                                     ; preds = %1
  %17 = load i32, i32* @x.21
  %18 = load i32, i32* @y.22
  %19 = sub i32 0, 1
  %20 = add i32 %17, %19
  %21 = sub i32 %17, 1
  %22 = mul i32 %17, %20
  %23 = urem i32 %22, 2
  %24 = icmp eq i32 %23, 0
  %25 = icmp slt i32 %18, 10
  %26 = and i1 %24, %25
  %27 = xor i1 %24, %25
  %28 = or i1 %26, %27
  %29 = or i1 %24, %25
  br i1 %28, label %30, label %108

; <label>:30:                                     ; preds = %16, %108
  %31 = bitcast %"class.std::vector.5"* %5 to %"struct.std::_Vector_base.6"*
  call void @_ZNSt12_Vector_baseIxSaIxEED2Ev(%"struct.std::_Vector_base.6"* %31) #3
  %32 = load i32, i32* @x.21
  %33 = load i32, i32* @y.22
  %34 = add i32 %32, -1529404120
  %35 = sub i32 %34, 1
  %36 = sub i32 %35, -1529404120
  %37 = sub i32 %32, 1
  %38 = mul i32 %32, %36
  %39 = urem i32 %38, 2
  %40 = icmp eq i32 %39, 0
  %41 = icmp slt i32 %33, 10
  %42 = xor i1 %40, true
  %43 = xor i1 %41, true
  %44 = xor i1 true, true
  %45 = and i1 %42, true
  %46 = and i1 %40, %44
  %47 = and i1 %43, true
  %48 = and i1 %41, %44
  %49 = or i1 %45, %46
  %50 = or i1 %47, %48
  %51 = xor i1 %49, %50
  %52 = or i1 %42, %43
  %53 = xor i1 %52, true
  %54 = or i1 true, %44
  %55 = and i1 %53, %54
  %56 = or i1 %51, %55
  %57 = or i1 %40, %41
  br i1 %56, label %58, label %108

; <label>:58:                                     ; preds = %30
  ret void

; <label>:59:                                     ; preds = %1
  %60 = landingpad { i8*, i32 }
          catch i8* null
  %61 = extractvalue { i8*, i32 } %60, 0
  store i8* %61, i8** %3, align 8
  %62 = extractvalue { i8*, i32 } %60, 1
  store i32 %62, i32* %4, align 4
  %63 = bitcast %"class.std::vector.5"* %5 to %"struct.std::_Vector_base.6"*
  call void @_ZNSt12_Vector_baseIxSaIxEED2Ev(%"struct.std::_Vector_base.6"* %63) #3
  br label %64

; <label>:64:                                     ; preds = %59
  %65 = load i32, i32* @x.21
  %66 = load i32, i32* @y.22
  %67 = add i32 %65, 852725454
  %68 = sub i32 %67, 1
  %69 = sub i32 %68, 852725454
  %70 = sub i32 %65, 1
  %71 = mul i32 %65, %69
  %72 = urem i32 %71, 2
  %73 = icmp eq i32 %72, 0
  %74 = icmp slt i32 %66, 10
  %75 = xor i1 %73, true
  %76 = xor i1 %74, true
  %77 = xor i1 true, true
  %78 = and i1 %75, true
  %79 = and i1 %73, %77
  %80 = and i1 %76, true
  %81 = and i1 %74, %77
  %82 = or i1 %78, %79
  %83 = or i1 %80, %81
  %84 = xor i1 %82, %83
  %85 = or i1 %75, %76
  %86 = xor i1 %85, true
  %87 = or i1 true, %77
  %88 = and i1 %86, %87
  %89 = or i1 %84, %88
  %90 = or i1 %73, %74
  br i1 %89, label %91, label %110

; <label>:91:                                     ; preds = %64, %110
  %92 = load i8*, i8** %3, align 8
  call void @__clang_call_terminate(i8* %92) #10
  %93 = load i32, i32* @x.21
  %94 = load i32, i32* @y.22
  %95 = sub i32 %93, -1055488571
  %96 = sub i32 %95, 1
  %97 = add i32 %96, -1055488571
  %98 = sub i32 %93, 1
  %99 = mul i32 %93, %97
  %100 = urem i32 %99, 2
  %101 = icmp eq i32 %100, 0
  %102 = icmp slt i32 %94, 10
  %103 = and i1 %101, %102
  %104 = xor i1 %101, %102
  %105 = or i1 %103, %104
  %106 = or i1 %101, %102
  br i1 %105, label %107, label %110

; <label>:107:                                    ; preds = %91
  unreachable

; <label>:108:                                    ; preds = %30, %16
  %109 = bitcast %"class.std::vector.5"* %5 to %"struct.std::_Vector_base.6"*
  call void @_ZNSt12_Vector_baseIxSaIxEED2Ev(%"struct.std::_Vector_base.6"* %109) #3
  br label %30

; <label>:110:                                    ; preds = %91, %64
  %111 = load i8*, i8** %3, align 8
  call void @__clang_call_terminate(i8* %111) #10
  br label %91
}

; Function Attrs: noinline nounwind uwtable
define linkonce_odr void @_ZNSaIxED2Ev(%"class.std::allocator.7"*) unnamed_addr #5 comdat align 2 {
  %2 = alloca %"class.std::allocator.7"*, align 8
  store %"class.std::allocator.7"* %0, %"class.std::allocator.7"** %2, align 8
  %3 = load %"class.std::allocator.7"*, %"class.std::allocator.7"** %2, align 8
  %4 = bitcast %"class.std::allocator.7"* %3 to %"class.__gnu_cxx::new_allocator.8"*
  call void @_ZN9__gnu_cxx13new_allocatorIxED2Ev(%"class.__gnu_cxx::new_allocator.8"* %4) #3
  ret void
}

; Function Attrs: noinline nounwind uwtable
define linkonce_odr dereferenceable(24) %"class.std::vector.0"* @_ZNSt6vectorIS_IS_IxSaIxEESaIS1_EESaIS3_EEixEm(%"class.std::vector"*, i64) #5 comdat align 2 {
  %3 = alloca %"class.std::vector"*, align 8
  %4 = alloca i64, align 8
  store %"class.std::vector"* %0, %"class.std::vector"** %3, align 8
  store i64 %1, i64* %4, align 8
  %5 = load %"class.std::vector"*, %"class.std::vector"** %3, align 8
  %6 = bitcast %"class.std::vector"* %5 to %"struct.std::_Vector_base"*
  %7 = getelementptr inbounds %"struct.std::_Vector_base", %"struct.std::_Vector_base"* %6, i32 0, i32 0
  %8 = getelementptr inbounds %"struct.std::_Vector_base<std::vector<std::vector<long long, std::allocator<long long> >, std::allocator<std::vector<long long, std::allocator<long long> > > >, std::allocator<std::vector<std::vector<long long, std::allocator<long long> >, std::allocator<std::vector<long long, std::allocator<long long> > > > > >::_Vector_impl", %"struct.std::_Vector_base<std::vector<std::vector<long long, std::allocator<long long> >, std::allocator<std::vector<long long, std::allocator<long long> > > >, std::allocator<std::vector<std::vector<long long, std::allocator<long long> >, std::allocator<std::vector<long long, std::allocator<long long> > > > > >::_Vector_impl"* %7, i32 0, i32 0
  %9 = load %"class.std::vector.0"*, %"class.std::vector.0"** %8, align 8
  %10 = load i64, i64* %4, align 8
  %11 = getelementptr inbounds %"class.std::vector.0", %"class.std::vector.0"* %9, i64 %10
  ret %"class.std::vector.0"* %11
}

; Function Attrs: noinline nounwind uwtable
define linkonce_odr dereferenceable(24) %"class.std::vector.5"* @_ZNSt6vectorIS_IxSaIxEESaIS1_EEixEm(%"class.std::vector.0"*, i64) #5 comdat align 2 {
  %3 = alloca %"class.std::vector.5"*
  %4 = alloca i1
  %5 = alloca i1
  %6 = load i32, i32* @x.27
  %7 = load i32, i32* @y.28
  %8 = sub i32 0, 1
  %9 = add i32 %6, %8
  %10 = sub i32 %6, 1
  %11 = mul i32 %6, %9
  %12 = urem i32 %11, 2
  %13 = icmp eq i32 %12, 0
  store i1 %13, i1* %5
  %14 = icmp slt i32 %7, 10
  store i1 %14, i1* %4
  %15 = alloca i32
  store i32 1361482780, i32* %15
  br label %16

; <label>:16:                                     ; preds = %2, %76
  %17 = load i32, i32* %15
  switch i32 %17, label %18 [
    i32 1361482780, label %19
    i32 -1229228341, label %27
    i32 -1673253783, label %64
    i32 1045800796, label %66
  ]

; <label>:18:                                     ; preds = %16
  br label %76

; <label>:19:                                     ; preds = %16
  %20 = load volatile i1, i1* %5
  %21 = load volatile i1, i1* %4
  %22 = and i1 %20, %21
  %23 = xor i1 %20, %21
  %24 = or i1 %22, %23
  %25 = or i1 %20, %21
  %26 = select i1 %24, i32 -1229228341, i32 1045800796
  store i32 %26, i32* %15
  br label %76

; <label>:27:                                     ; preds = %16
  %28 = alloca %"class.std::vector.0"*, align 8
  %29 = alloca i64, align 8
  store %"class.std::vector.0"* %0, %"class.std::vector.0"** %28, align 8
  store i64 %1, i64* %29, align 8
  %30 = load %"class.std::vector.0"*, %"class.std::vector.0"** %28, align 8
  %31 = bitcast %"class.std::vector.0"* %30 to %"struct.std::_Vector_base.1"*
  %32 = getelementptr inbounds %"struct.std::_Vector_base.1", %"struct.std::_Vector_base.1"* %31, i32 0, i32 0
  %33 = getelementptr inbounds %"struct.std::_Vector_base<std::vector<long long, std::allocator<long long> >, std::allocator<std::vector<long long, std::allocator<long long> > > >::_Vector_impl", %"struct.std::_Vector_base<std::vector<long long, std::allocator<long long> >, std::allocator<std::vector<long long, std::allocator<long long> > > >::_Vector_impl"* %32, i32 0, i32 0
  %34 = load %"class.std::vector.5"*, %"class.std::vector.5"** %33, align 8
  %35 = load i64, i64* %29, align 8
  %36 = getelementptr inbounds %"class.std::vector.5", %"class.std::vector.5"* %34, i64 %35
  store %"class.std::vector.5"* %36, %"class.std::vector.5"** %3
  %37 = load i32, i32* @x.27
  %38 = load i32, i32* @y.28
  %39 = sub i32 %37, 1165580095
  %40 = sub i32 %39, 1
  %41 = add i32 %40, 1165580095
  %42 = sub i32 %37, 1
  %43 = mul i32 %37, %41
  %44 = urem i32 %43, 2
  %45 = icmp eq i32 %44, 0
  %46 = icmp slt i32 %38, 10
  %47 = xor i1 %45, true
  %48 = xor i1 %46, true
  %49 = xor i1 false, true
  %50 = and i1 %47, false
  %51 = and i1 %45, %49
  %52 = and i1 %48, false
  %53 = and i1 %46, %49
  %54 = or i1 %50, %51
  %55 = or i1 %52, %53
  %56 = xor i1 %54, %55
  %57 = or i1 %47, %48
  %58 = xor i1 %57, true
  %59 = or i1 false, %49
  %60 = and i1 %58, %59
  %61 = or i1 %56, %60
  %62 = or i1 %45, %46
  %63 = select i1 %61, i32 -1673253783, i32 1045800796
  store i32 %63, i32* %15
  br label %76

; <label>:64:                                     ; preds = %16
  %65 = load volatile %"class.std::vector.5"*, %"class.std::vector.5"** %3
  ret %"class.std::vector.5"* %65

; <label>:66:                                     ; preds = %16
  %67 = alloca %"class.std::vector.0"*, align 8
  %68 = alloca i64, align 8
  store %"class.std::vector.0"* %0, %"class.std::vector.0"** %67, align 8
  store i64 %1, i64* %68, align 8
  %69 = load %"class.std::vector.0"*, %"class.std::vector.0"** %67, align 8
  %70 = bitcast %"class.std::vector.0"* %69 to %"struct.std::_Vector_base.1"*
  %71 = getelementptr inbounds %"struct.std::_Vector_base.1", %"struct.std::_Vector_base.1"* %70, i32 0, i32 0
  %72 = getelementptr inbounds %"struct.std::_Vector_base<std::vector<long long, std::allocator<long long> >, std::allocator<std::vector<long long, std::allocator<long long> > > >::_Vector_impl", %"struct.std::_Vector_base<std::vector<long long, std::allocator<long long> >, std::allocator<std::vector<long long, std::allocator<long long> > > >::_Vector_impl"* %71, i32 0, i32 0
  %73 = load %"class.std::vector.5"*, %"class.std::vector.5"** %72, align 8
  %74 = load i64, i64* %68, align 8
  %75 = getelementptr inbounds %"class.std::vector.5", %"class.std::vector.5"* %73, i64 %74
  store i32 -1229228341, i32* %15
  br label %76

; <label>:76:                                     ; preds = %66, %27, %19, %18
  br label %16
}

; Function Attrs: noinline nounwind uwtable
define linkonce_odr dereferenceable(8) i64* @_ZNSt6vectorIxSaIxEEixEm(%"class.std::vector.5"*, i64) #5 comdat align 2 {
  %3 = alloca i64*
  %4 = alloca i1
  %5 = alloca i1
  %6 = load i32, i32* @x.29
  %7 = load i32, i32* @y.30
  %8 = add i32 %6, 148615632
  %9 = sub i32 %8, 1
  %10 = sub i32 %9, 148615632
  %11 = sub i32 %6, 1
  %12 = mul i32 %6, %10
  %13 = urem i32 %12, 2
  %14 = icmp eq i32 %13, 0
  store i1 %14, i1* %5
  %15 = icmp slt i32 %7, 10
  store i1 %15, i1* %4
  %16 = alloca i32
  store i32 -1380673469, i32* %16
  br label %17

; <label>:17:                                     ; preds = %2, %64
  %18 = load i32, i32* %16
  switch i32 %18, label %19 [
    i32 -1380673469, label %20
    i32 1108734616, label %28
    i32 1324591518, label %52
    i32 -242168626, label %54
  ]

; <label>:19:                                     ; preds = %17
  br label %64

; <label>:20:                                     ; preds = %17
  %21 = load volatile i1, i1* %5
  %22 = load volatile i1, i1* %4
  %23 = and i1 %21, %22
  %24 = xor i1 %21, %22
  %25 = or i1 %23, %24
  %26 = or i1 %21, %22
  %27 = select i1 %25, i32 1108734616, i32 -242168626
  store i32 %27, i32* %16
  br label %64

; <label>:28:                                     ; preds = %17
  %29 = alloca %"class.std::vector.5"*, align 8
  %30 = alloca i64, align 8
  store %"class.std::vector.5"* %0, %"class.std::vector.5"** %29, align 8
  store i64 %1, i64* %30, align 8
  %31 = load %"class.std::vector.5"*, %"class.std::vector.5"** %29, align 8
  %32 = bitcast %"class.std::vector.5"* %31 to %"struct.std::_Vector_base.6"*
  %33 = getelementptr inbounds %"struct.std::_Vector_base.6", %"struct.std::_Vector_base.6"* %32, i32 0, i32 0
  %34 = getelementptr inbounds %"struct.std::_Vector_base<long long, std::allocator<long long> >::_Vector_impl", %"struct.std::_Vector_base<long long, std::allocator<long long> >::_Vector_impl"* %33, i32 0, i32 0
  %35 = load i64*, i64** %34, align 8
  %36 = load i64, i64* %30, align 8
  %37 = getelementptr inbounds i64, i64* %35, i64 %36
  store i64* %37, i64** %3
  %38 = load i32, i32* @x.29
  %39 = load i32, i32* @y.30
  %40 = sub i32 0, 1
  %41 = add i32 %38, %40
  %42 = sub i32 %38, 1
  %43 = mul i32 %38, %41
  %44 = urem i32 %43, 2
  %45 = icmp eq i32 %44, 0
  %46 = icmp slt i32 %39, 10
  %47 = and i1 %45, %46
  %48 = xor i1 %45, %46
  %49 = or i1 %47, %48
  %50 = or i1 %45, %46
  %51 = select i1 %49, i32 1324591518, i32 -242168626
  store i32 %51, i32* %16
  br label %64

; <label>:52:                                     ; preds = %17
  %53 = load volatile i64*, i64** %3
  ret i64* %53

; <label>:54:                                     ; preds = %17
  %55 = alloca %"class.std::vector.5"*, align 8
  %56 = alloca i64, align 8
  store %"class.std::vector.5"* %0, %"class.std::vector.5"** %55, align 8
  store i64 %1, i64* %56, align 8
  %57 = load %"class.std::vector.5"*, %"class.std::vector.5"** %55, align 8
  %58 = bitcast %"class.std::vector.5"* %57 to %"struct.std::_Vector_base.6"*
  %59 = getelementptr inbounds %"struct.std::_Vector_base.6", %"struct.std::_Vector_base.6"* %58, i32 0, i32 0
  %60 = getelementptr inbounds %"struct.std::_Vector_base<long long, std::allocator<long long> >::_Vector_impl", %"struct.std::_Vector_base<long long, std::allocator<long long> >::_Vector_impl"* %59, i32 0, i32 0
  %61 = load i64*, i64** %60, align 8
  %62 = load i64, i64* %56, align 8
  %63 = getelementptr inbounds i64, i64* %61, i64 %62
  store i32 1108734616, i32* %16
  br label %64

; <label>:64:                                     ; preds = %54, %28, %20, %19
  br label %17
}

declare dereferenceable(272) %"class.std::basic_ostream"* @_ZNSolsEx(%"class.std::basic_ostream"*, i64) #1

declare dereferenceable(272) %"class.std::basic_ostream"* @_ZNSolsEPFRSoS_E(%"class.std::basic_ostream"*, %"class.std::basic_ostream"* (%"class.std::basic_ostream"*)*) #1

declare dereferenceable(272) %"class.std::basic_ostream"* @_ZSt4endlIcSt11char_traitsIcEERSt13basic_ostreamIT_T0_ES6_(%"class.std::basic_ostream"* dereferenceable(272)) #1

; Function Attrs: noinline nounwind uwtable
define linkonce_odr void @_ZNSt6vectorIS_IS_IxSaIxEESaIS1_EESaIS3_EED2Ev(%"class.std::vector"*) unnamed_addr #5 comdat align 2 personality i8* bitcast (i32 (...)* @__gxx_personality_v0 to i8*) {
  %2 = load i32, i32* @x.31
  %3 = load i32, i32* @y.32
  %4 = sub i32 0, 1
  %5 = add i32 %2, %4
  %6 = sub i32 %2, 1
  %7 = mul i32 %2, %5
  %8 = urem i32 %7, 2
  %9 = icmp eq i32 %8, 0
  %10 = icmp slt i32 %3, 10
  %11 = and i1 %9, %10
  %12 = xor i1 %9, %10
  %13 = or i1 %11, %12
  %14 = or i1 %9, %10
  br i1 %13, label %15, label %83

; <label>:15:                                     ; preds = %1, %83
  %16 = alloca %"class.std::vector"*, align 8
  %17 = alloca i8*
  %18 = alloca i32
  store %"class.std::vector"* %0, %"class.std::vector"** %16, align 8
  %19 = load %"class.std::vector"*, %"class.std::vector"** %16, align 8
  %20 = bitcast %"class.std::vector"* %19 to %"struct.std::_Vector_base"*
  %21 = getelementptr inbounds %"struct.std::_Vector_base", %"struct.std::_Vector_base"* %20, i32 0, i32 0
  %22 = getelementptr inbounds %"struct.std::_Vector_base<std::vector<std::vector<long long, std::allocator<long long> >, std::allocator<std::vector<long long, std::allocator<long long> > > >, std::allocator<std::vector<std::vector<long long, std::allocator<long long> >, std::allocator<std::vector<long long, std::allocator<long long> > > > > >::_Vector_impl", %"struct.std::_Vector_base<std::vector<std::vector<long long, std::allocator<long long> >, std::allocator<std::vector<long long, std::allocator<long long> > > >, std::allocator<std::vector<std::vector<long long, std::allocator<long long> >, std::allocator<std::vector<long long, std::allocator<long long> > > > > >::_Vector_impl"* %21, i32 0, i32 0
  %23 = load %"class.std::vector.0"*, %"class.std::vector.0"** %22, align 8
  %24 = bitcast %"class.std::vector"* %19 to %"struct.std::_Vector_base"*
  %25 = getelementptr inbounds %"struct.std::_Vector_base", %"struct.std::_Vector_base"* %24, i32 0, i32 0
  %26 = getelementptr inbounds %"struct.std::_Vector_base<std::vector<std::vector<long long, std::allocator<long long> >, std::allocator<std::vector<long long, std::allocator<long long> > > >, std::allocator<std::vector<std::vector<long long, std::allocator<long long> >, std::allocator<std::vector<long long, std::allocator<long long> > > > > >::_Vector_impl", %"struct.std::_Vector_base<std::vector<std::vector<long long, std::allocator<long long> >, std::allocator<std::vector<long long, std::allocator<long long> > > >, std::allocator<std::vector<std::vector<long long, std::allocator<long long> >, std::allocator<std::vector<long long, std::allocator<long long> > > > > >::_Vector_impl"* %25, i32 0, i32 1
  %27 = load %"class.std::vector.0"*, %"class.std::vector.0"** %26, align 8
  %28 = bitcast %"class.std::vector"* %19 to %"struct.std::_Vector_base"*
  %29 = call dereferenceable(1) %"class.std::allocator"* @_ZNSt12_Vector_baseISt6vectorIS0_IxSaIxEESaIS2_EESaIS4_EE19_M_get_Tp_allocatorEv(%"struct.std::_Vector_base"* %28) #3
  %30 = load i32, i32* @x.31
  %31 = load i32, i32* @y.32
  %32 = sub i32 0, 1
  %33 = add i32 %30, %32
  %34 = sub i32 %30, 1
  %35 = mul i32 %30, %33
  %36 = urem i32 %35, 2
  %37 = icmp eq i32 %36, 0
  %38 = icmp slt i32 %31, 10
  %39 = and i1 %37, %38
  %40 = xor i1 %37, %38
  %41 = or i1 %39, %40
  %42 = or i1 %37, %38
  br i1 %41, label %43, label %83

; <label>:43:                                     ; preds = %15
  invoke void @_ZSt8_DestroyIPSt6vectorIS0_IxSaIxEESaIS2_EES4_EvT_S6_RSaIT0_E(%"class.std::vector.0"* %23, %"class.std::vector.0"* %27, %"class.std::allocator"* dereferenceable(1) %29)
          to label %44 unwind label %46

; <label>:44:                                     ; preds = %43
  %45 = bitcast %"class.std::vector"* %19 to %"struct.std::_Vector_base"*
  call void @_ZNSt12_Vector_baseISt6vectorIS0_IxSaIxEESaIS2_EESaIS4_EED2Ev(%"struct.std::_Vector_base"* %45) #3
  ret void

; <label>:46:                                     ; preds = %43
  %47 = load i32, i32* @x.31
  %48 = load i32, i32* @y.32
  %49 = add i32 %47, 836951847
  %50 = sub i32 %49, 1
  %51 = sub i32 %50, 836951847
  %52 = sub i32 %47, 1
  %53 = mul i32 %47, %51
  %54 = urem i32 %53, 2
  %55 = icmp eq i32 %54, 0
  %56 = icmp slt i32 %48, 10
  %57 = and i1 %55, %56
  %58 = xor i1 %55, %56
  %59 = or i1 %57, %58
  %60 = or i1 %55, %56
  br i1 %59, label %61, label %98

; <label>:61:                                     ; preds = %46, %98
  %62 = landingpad { i8*, i32 }
          catch i8* null
  %63 = extractvalue { i8*, i32 } %62, 0
  store i8* %63, i8** %17, align 8
  %64 = extractvalue { i8*, i32 } %62, 1
  store i32 %64, i32* %18, align 4
  %65 = bitcast %"class.std::vector"* %19 to %"struct.std::_Vector_base"*
  call void @_ZNSt12_Vector_baseISt6vectorIS0_IxSaIxEESaIS2_EESaIS4_EED2Ev(%"struct.std::_Vector_base"* %65) #3
  %66 = load i32, i32* @x.31
  %67 = load i32, i32* @y.32
  %68 = sub i32 %66, -1203501843
  %69 = sub i32 %68, 1
  %70 = add i32 %69, -1203501843
  %71 = sub i32 %66, 1
  %72 = mul i32 %66, %70
  %73 = urem i32 %72, 2
  %74 = icmp eq i32 %73, 0
  %75 = icmp slt i32 %67, 10
  %76 = and i1 %74, %75
  %77 = xor i1 %74, %75
  %78 = or i1 %76, %77
  %79 = or i1 %74, %75
  br i1 %78, label %80, label %98

; <label>:80:                                     ; preds = %61
  br label %81

; <label>:81:                                     ; preds = %80
  %82 = load i8*, i8** %17, align 8
  call void @__clang_call_terminate(i8* %82) #10
  unreachable

; <label>:83:                                     ; preds = %15, %1
  %84 = alloca %"class.std::vector"*, align 8
  %85 = alloca i8*
  %86 = alloca i32
  store %"class.std::vector"* %0, %"class.std::vector"** %84, align 8
  %87 = load %"class.std::vector"*, %"class.std::vector"** %84, align 8
  %88 = bitcast %"class.std::vector"* %87 to %"struct.std::_Vector_base"*
  %89 = getelementptr inbounds %"struct.std::_Vector_base", %"struct.std::_Vector_base"* %88, i32 0, i32 0
  %90 = getelementptr inbounds %"struct.std::_Vector_base<std::vector<std::vector<long long, std::allocator<long long> >, std::allocator<std::vector<long long, std::allocator<long long> > > >, std::allocator<std::vector<std::vector<long long, std::allocator<long long> >, std::allocator<std::vector<long long, std::allocator<long long> > > > > >::_Vector_impl", %"struct.std::_Vector_base<std::vector<std::vector<long long, std::allocator<long long> >, std::allocator<std::vector<long long, std::allocator<long long> > > >, std::allocator<std::vector<std::vector<long long, std::allocator<long long> >, std::allocator<std::vector<long long, std::allocator<long long> > > > > >::_Vector_impl"* %89, i32 0, i32 0
  %91 = load %"class.std::vector.0"*, %"class.std::vector.0"** %90, align 8
  %92 = bitcast %"class.std::vector"* %87 to %"struct.std::_Vector_base"*
  %93 = getelementptr inbounds %"struct.std::_Vector_base", %"struct.std::_Vector_base"* %92, i32 0, i32 0
  %94 = getelementptr inbounds %"struct.std::_Vector_base<std::vector<std::vector<long long, std::allocator<long long> >, std::allocator<std::vector<long long, std::allocator<long long> > > >, std::allocator<std::vector<std::vector<long long, std::allocator<long long> >, std::allocator<std::vector<long long, std::allocator<long long> > > > > >::_Vector_impl", %"struct.std::_Vector_base<std::vector<std::vector<long long, std::allocator<long long> >, std::allocator<std::vector<long long, std::allocator<long long> > > >, std::allocator<std::vector<std::vector<long long, std::allocator<long long> >, std::allocator<std::vector<long long, std::allocator<long long> > > > > >::_Vector_impl"* %93, i32 0, i32 1
  %95 = load %"class.std::vector.0"*, %"class.std::vector.0"** %94, align 8
  %96 = bitcast %"class.std::vector"* %87 to %"struct.std::_Vector_base"*
  %97 = call dereferenceable(1) %"class.std::allocator"* @_ZNSt12_Vector_baseISt6vectorIS0_IxSaIxEESaIS2_EESaIS4_EE19_M_get_Tp_allocatorEv(%"struct.std::_Vector_base"* %96) #3
  br label %15

; <label>:98:                                     ; preds = %61, %46
  %99 = landingpad { i8*, i32 }
          catch i8* null
  %100 = extractvalue { i8*, i32 } %99, 0
  store i8* %100, i8** %17, align 8
  %101 = extractvalue { i8*, i32 } %99, 1
  store i32 %101, i32* %18, align 4
  %102 = bitcast %"class.std::vector"* %19 to %"struct.std::_Vector_base"*
  call void @_ZNSt12_Vector_baseISt6vectorIS0_IxSaIxEESaIS2_EESaIS4_EED2Ev(%"struct.std::_Vector_base"* %102) #3
  br label %61
}

; Function Attrs: noinline nounwind uwtable
define linkonce_odr void @_ZN9__gnu_cxx13new_allocatorIxEC2Ev(%"class.__gnu_cxx::new_allocator.8"*) unnamed_addr #5 comdat align 2 {
  %2 = alloca %"class.__gnu_cxx::new_allocator.8"*, align 8
  store %"class.__gnu_cxx::new_allocator.8"* %0, %"class.__gnu_cxx::new_allocator.8"** %2, align 8
  %3 = load %"class.__gnu_cxx::new_allocator.8"*, %"class.__gnu_cxx::new_allocator.8"** %2, align 8
  ret void
}

; Function Attrs: noinline nounwind uwtable
define linkonce_odr void @_ZN9__gnu_cxx13new_allocatorIxED2Ev(%"class.__gnu_cxx::new_allocator.8"*) unnamed_addr #5 comdat align 2 {
  %2 = alloca i1
  %3 = alloca i1
  %4 = load i32, i32* @x.35
  %5 = load i32, i32* @y.36
  %6 = sub i32 %4, -925466853
  %7 = sub i32 %6, 1
  %8 = add i32 %7, -925466853
  %9 = sub i32 %4, 1
  %10 = mul i32 %4, %8
  %11 = urem i32 %10, 2
  %12 = icmp eq i32 %11, 0
  store i1 %12, i1* %3
  %13 = icmp slt i32 %5, 10
  store i1 %13, i1* %2
  %14 = alloca i32
  store i32 -755561979, i32* %14
  br label %15

; <label>:15:                                     ; preds = %1, %59
  %16 = load i32, i32* %14
  switch i32 %16, label %17 [
    i32 -755561979, label %18
    i32 1938216230, label %38
    i32 -1555164298, label %55
    i32 327795396, label %56
  ]

; <label>:17:                                     ; preds = %15
  br label %59

; <label>:18:                                     ; preds = %15
  %19 = load volatile i1, i1* %3
  %20 = load volatile i1, i1* %2
  %21 = xor i1 %19, true
  %22 = xor i1 %20, true
  %23 = xor i1 true, true
  %24 = and i1 %21, true
  %25 = and i1 %19, %23
  %26 = and i1 %22, true
  %27 = and i1 %20, %23
  %28 = or i1 %24, %25
  %29 = or i1 %26, %27
  %30 = xor i1 %28, %29
  %31 = or i1 %21, %22
  %32 = xor i1 %31, true
  %33 = or i1 true, %23
  %34 = and i1 %32, %33
  %35 = or i1 %30, %34
  %36 = or i1 %19, %20
  %37 = select i1 %35, i32 1938216230, i32 327795396
  store i32 %37, i32* %14
  br label %59

; <label>:38:                                     ; preds = %15
  %39 = alloca %"class.__gnu_cxx::new_allocator.8"*, align 8
  store %"class.__gnu_cxx::new_allocator.8"* %0, %"class.__gnu_cxx::new_allocator.8"** %39, align 8
  %40 = load %"class.__gnu_cxx::new_allocator.8"*, %"class.__gnu_cxx::new_allocator.8"** %39, align 8
  %41 = load i32, i32* @x.35
  %42 = load i32, i32* @y.36
  %43 = sub i32 0, 1
  %44 = add i32 %41, %43
  %45 = sub i32 %41, 1
  %46 = mul i32 %41, %44
  %47 = urem i32 %46, 2
  %48 = icmp eq i32 %47, 0
  %49 = icmp slt i32 %42, 10
  %50 = and i1 %48, %49
  %51 = xor i1 %48, %49
  %52 = or i1 %50, %51
  %53 = or i1 %48, %49
  %54 = select i1 %52, i32 -1555164298, i32 327795396
  store i32 %54, i32* %14
  br label %59

; <label>:55:                                     ; preds = %15
  ret void

; <label>:56:                                     ; preds = %15
  %57 = alloca %"class.__gnu_cxx::new_allocator.8"*, align 8
  store %"class.__gnu_cxx::new_allocator.8"* %0, %"class.__gnu_cxx::new_allocator.8"** %57, align 8
  %58 = load %"class.__gnu_cxx::new_allocator.8"*, %"class.__gnu_cxx::new_allocator.8"** %57, align 8
  store i32 1938216230, i32* %14
  br label %59

; <label>:59:                                     ; preds = %56, %38, %18, %17
  br label %15
}

; Function Attrs: noinline uwtable
define linkonce_odr void @_ZNSt12_Vector_baseIxSaIxEEC2EmRKS0_(%"struct.std::_Vector_base.6"*, i64, %"class.std::allocator.7"* dereferenceable(1)) unnamed_addr #0 comdat align 2 personality i8* bitcast (i32 (...)* @__gxx_personality_v0 to i8*) {
  %4 = alloca %"struct.std::_Vector_base.6"*, align 8
  %5 = alloca i64, align 8
  %6 = alloca %"class.std::allocator.7"*, align 8
  %7 = alloca i8*
  %8 = alloca i32
  store %"struct.std::_Vector_base.6"* %0, %"struct.std::_Vector_base.6"** %4, align 8
  store i64 %1, i64* %5, align 8
  store %"class.std::allocator.7"* %2, %"class.std::allocator.7"** %6, align 8
  %9 = load %"struct.std::_Vector_base.6"*, %"struct.std::_Vector_base.6"** %4, align 8
  %10 = getelementptr inbounds %"struct.std::_Vector_base.6", %"struct.std::_Vector_base.6"* %9, i32 0, i32 0
  %11 = load %"class.std::allocator.7"*, %"class.std::allocator.7"** %6, align 8
  call void @_ZNSt12_Vector_baseIxSaIxEE12_Vector_implC2ERKS0_(%"struct.std::_Vector_base<long long, std::allocator<long long> >::_Vector_impl"* %10, %"class.std::allocator.7"* dereferenceable(1) %11) #3
  %12 = load i64, i64* %5, align 8
  invoke void @_ZNSt12_Vector_baseIxSaIxEE17_M_create_storageEm(%"struct.std::_Vector_base.6"* %9, i64 %12)
          to label %13 unwind label %14

; <label>:13:                                     ; preds = %3
  ret void

; <label>:14:                                     ; preds = %3
  %15 = landingpad { i8*, i32 }
          cleanup
  %16 = extractvalue { i8*, i32 } %15, 0
  store i8* %16, i8** %7, align 8
  %17 = extractvalue { i8*, i32 } %15, 1
  store i32 %17, i32* %8, align 4
  call void @_ZNSt12_Vector_baseIxSaIxEE12_Vector_implD2Ev(%"struct.std::_Vector_base<long long, std::allocator<long long> >::_Vector_impl"* %10) #3
  br label %18

; <label>:18:                                     ; preds = %14
  %19 = load i32, i32* @x.37
  %20 = load i32, i32* @y.38
  %21 = sub i32 %19, 1312525426
  %22 = sub i32 %21, 1
  %23 = add i32 %22, 1312525426
  %24 = sub i32 %19, 1
  %25 = mul i32 %19, %23
  %26 = urem i32 %25, 2
  %27 = icmp eq i32 %26, 0
  %28 = icmp slt i32 %20, 10
  %29 = xor i1 %27, true
  %30 = xor i1 %28, true
  %31 = xor i1 true, true
  %32 = and i1 %29, true
  %33 = and i1 %27, %31
  %34 = and i1 %30, true
  %35 = and i1 %28, %31
  %36 = or i1 %32, %33
  %37 = or i1 %34, %35
  %38 = xor i1 %36, %37
  %39 = or i1 %29, %30
  %40 = xor i1 %39, true
  %41 = or i1 true, %31
  %42 = and i1 %40, %41
  %43 = or i1 %38, %42
  %44 = or i1 %27, %28
  br i1 %43, label %45, label %65

; <label>:45:                                     ; preds = %18, %65
  %46 = load i8*, i8** %7, align 8
  %47 = load i32, i32* %8, align 4
  %48 = insertvalue { i8*, i32 } undef, i8* %46, 0
  %49 = insertvalue { i8*, i32 } %48, i32 %47, 1
  %50 = load i32, i32* @x.37
  %51 = load i32, i32* @y.38
  %52 = sub i32 %50, -1957122407
  %53 = sub i32 %52, 1
  %54 = add i32 %53, -1957122407
  %55 = sub i32 %50, 1
  %56 = mul i32 %50, %54
  %57 = urem i32 %56, 2
  %58 = icmp eq i32 %57, 0
  %59 = icmp slt i32 %51, 10
  %60 = and i1 %58, %59
  %61 = xor i1 %58, %59
  %62 = or i1 %60, %61
  %63 = or i1 %58, %59
  br i1 %62, label %64, label %65

; <label>:64:                                     ; preds = %45
  resume { i8*, i32 } %49

; <label>:65:                                     ; preds = %45, %18
  %66 = load i8*, i8** %7, align 8
  %67 = load i32, i32* %8, align 4
  %68 = insertvalue { i8*, i32 } undef, i8* %66, 0
  %69 = insertvalue { i8*, i32 } %68, i32 %67, 1
  br label %45
}

; Function Attrs: noinline uwtable
define linkonce_odr void @_ZNSt6vectorIxSaIxEE21_M_default_initializeEm(%"class.std::vector.5"*, i64) #0 comdat align 2 {
  %3 = alloca i1
  %4 = alloca i1
  %5 = load i32, i32* @x.39
  %6 = load i32, i32* @y.40
  %7 = sub i32 %5, -1156846517
  %8 = sub i32 %7, 1
  %9 = add i32 %8, -1156846517
  %10 = sub i32 %5, 1
  %11 = mul i32 %5, %9
  %12 = urem i32 %11, 2
  %13 = icmp eq i32 %12, 0
  store i1 %13, i1* %4
  %14 = icmp slt i32 %6, 10
  store i1 %14, i1* %3
  %15 = alloca i32
  store i32 80812184, i32* %15
  br label %16

; <label>:16:                                     ; preds = %2, %97
  %17 = load i32, i32* %15
  switch i32 %17, label %18 [
    i32 80812184, label %19
    i32 949486427, label %39
    i32 1788142615, label %81
    i32 -785796576, label %82
  ]

; <label>:18:                                     ; preds = %16
  br label %97

; <label>:19:                                     ; preds = %16
  %20 = load volatile i1, i1* %4
  %21 = load volatile i1, i1* %3
  %22 = xor i1 %20, true
  %23 = xor i1 %21, true
  %24 = xor i1 false, true
  %25 = and i1 %22, false
  %26 = and i1 %20, %24
  %27 = and i1 %23, false
  %28 = and i1 %21, %24
  %29 = or i1 %25, %26
  %30 = or i1 %27, %28
  %31 = xor i1 %29, %30
  %32 = or i1 %22, %23
  %33 = xor i1 %32, true
  %34 = or i1 false, %24
  %35 = and i1 %33, %34
  %36 = or i1 %31, %35
  %37 = or i1 %20, %21
  %38 = select i1 %36, i32 949486427, i32 -785796576
  store i32 %38, i32* %15
  br label %97

; <label>:39:                                     ; preds = %16
  %40 = alloca %"class.std::vector.5"*, align 8
  %41 = alloca i64, align 8
  store %"class.std::vector.5"* %0, %"class.std::vector.5"** %40, align 8
  store i64 %1, i64* %41, align 8
  %42 = load %"class.std::vector.5"*, %"class.std::vector.5"** %40, align 8
  %43 = bitcast %"class.std::vector.5"* %42 to %"struct.std::_Vector_base.6"*
  %44 = getelementptr inbounds %"struct.std::_Vector_base.6", %"struct.std::_Vector_base.6"* %43, i32 0, i32 0
  %45 = getelementptr inbounds %"struct.std::_Vector_base<long long, std::allocator<long long> >::_Vector_impl", %"struct.std::_Vector_base<long long, std::allocator<long long> >::_Vector_impl"* %44, i32 0, i32 0
  %46 = load i64*, i64** %45, align 8
  %47 = load i64, i64* %41, align 8
  %48 = bitcast %"class.std::vector.5"* %42 to %"struct.std::_Vector_base.6"*
  %49 = call dereferenceable(1) %"class.std::allocator.7"* @_ZNSt12_Vector_baseIxSaIxEE19_M_get_Tp_allocatorEv(%"struct.std::_Vector_base.6"* %48) #3
  %50 = call i64* @_ZSt27__uninitialized_default_n_aIPxmxET_S1_T0_RSaIT1_E(i64* %46, i64 %47, %"class.std::allocator.7"* dereferenceable(1) %49)
  %51 = bitcast %"class.std::vector.5"* %42 to %"struct.std::_Vector_base.6"*
  %52 = getelementptr inbounds %"struct.std::_Vector_base.6", %"struct.std::_Vector_base.6"* %51, i32 0, i32 0
  %53 = getelementptr inbounds %"struct.std::_Vector_base<long long, std::allocator<long long> >::_Vector_impl", %"struct.std::_Vector_base<long long, std::allocator<long long> >::_Vector_impl"* %52, i32 0, i32 1
  store i64* %50, i64** %53, align 8
  %54 = load i32, i32* @x.39
  %55 = load i32, i32* @y.40
  %56 = sub i32 %54, 2056192665
  %57 = sub i32 %56, 1
  %58 = add i32 %57, 2056192665
  %59 = sub i32 %54, 1
  %60 = mul i32 %54, %58
  %61 = urem i32 %60, 2
  %62 = icmp eq i32 %61, 0
  %63 = icmp slt i32 %55, 10
  %64 = xor i1 %62, true
  %65 = xor i1 %63, true
  %66 = xor i1 false, true
  %67 = and i1 %64, false
  %68 = and i1 %62, %66
  %69 = and i1 %65, false
  %70 = and i1 %63, %66
  %71 = or i1 %67, %68
  %72 = or i1 %69, %70
  %73 = xor i1 %71, %72
  %74 = or i1 %64, %65
  %75 = xor i1 %74, true
  %76 = or i1 false, %66
  %77 = and i1 %75, %76
  %78 = or i1 %73, %77
  %79 = or i1 %62, %63
  %80 = select i1 %78, i32 1788142615, i32 -785796576
  store i32 %80, i32* %15
  br label %97

; <label>:81:                                     ; preds = %16
  ret void

; <label>:82:                                     ; preds = %16
  %83 = alloca %"class.std::vector.5"*, align 8
  %84 = alloca i64, align 8
  store %"class.std::vector.5"* %0, %"class.std::vector.5"** %83, align 8
  store i64 %1, i64* %84, align 8
  %85 = load %"class.std::vector.5"*, %"class.std::vector.5"** %83, align 8
  %86 = bitcast %"class.std::vector.5"* %85 to %"struct.std::_Vector_base.6"*
  %87 = getelementptr inbounds %"struct.std::_Vector_base.6", %"struct.std::_Vector_base.6"* %86, i32 0, i32 0
  %88 = getelementptr inbounds %"struct.std::_Vector_base<long long, std::allocator<long long> >::_Vector_impl", %"struct.std::_Vector_base<long long, std::allocator<long long> >::_Vector_impl"* %87, i32 0, i32 0
  %89 = load i64*, i64** %88, align 8
  %90 = load i64, i64* %84, align 8
  %91 = bitcast %"class.std::vector.5"* %85 to %"struct.std::_Vector_base.6"*
  %92 = call dereferenceable(1) %"class.std::allocator.7"* @_ZNSt12_Vector_baseIxSaIxEE19_M_get_Tp_allocatorEv(%"struct.std::_Vector_base.6"* %91) #3
  %93 = call i64* @_ZSt27__uninitialized_default_n_aIPxmxET_S1_T0_RSaIT1_E(i64* %89, i64 %90, %"class.std::allocator.7"* dereferenceable(1) %92)
  %94 = bitcast %"class.std::vector.5"* %85 to %"struct.std::_Vector_base.6"*
  %95 = getelementptr inbounds %"struct.std::_Vector_base.6", %"struct.std::_Vector_base.6"* %94, i32 0, i32 0
  %96 = getelementptr inbounds %"struct.std::_Vector_base<long long, std::allocator<long long> >::_Vector_impl", %"struct.std::_Vector_base<long long, std::allocator<long long> >::_Vector_impl"* %95, i32 0, i32 1
  store i64* %93, i64** %96, align 8
  store i32 949486427, i32* %15
  br label %97

; <label>:97:                                     ; preds = %82, %39, %19, %18
  br label %16
}

; Function Attrs: noinline nounwind uwtable
define linkonce_odr void @_ZNSt12_Vector_baseIxSaIxEED2Ev(%"struct.std::_Vector_base.6"*) unnamed_addr #5 comdat align 2 personality i8* bitcast (i32 (...)* @__gxx_personality_v0 to i8*) {
  %2 = load i32, i32* @x.41
  %3 = load i32, i32* @y.42
  %4 = add i32 %2, -1199862802
  %5 = sub i32 %4, 1
  %6 = sub i32 %5, -1199862802
  %7 = sub i32 %2, 1
  %8 = mul i32 %2, %6
  %9 = urem i32 %8, 2
  %10 = icmp eq i32 %9, 0
  %11 = icmp slt i32 %3, 10
  %12 = and i1 %10, %11
  %13 = xor i1 %10, %11
  %14 = or i1 %12, %13
  %15 = or i1 %10, %11
  br i1 %14, label %16, label %153

; <label>:16:                                     ; preds = %1, %153
  %17 = alloca %"struct.std::_Vector_base.6"*, align 8
  %18 = alloca i8*
  %19 = alloca i32
  store %"struct.std::_Vector_base.6"* %0, %"struct.std::_Vector_base.6"** %17, align 8
  %20 = load %"struct.std::_Vector_base.6"*, %"struct.std::_Vector_base.6"** %17, align 8
  %21 = getelementptr inbounds %"struct.std::_Vector_base.6", %"struct.std::_Vector_base.6"* %20, i32 0, i32 0
  %22 = getelementptr inbounds %"struct.std::_Vector_base<long long, std::allocator<long long> >::_Vector_impl", %"struct.std::_Vector_base<long long, std::allocator<long long> >::_Vector_impl"* %21, i32 0, i32 0
  %23 = load i64*, i64** %22, align 8
  %24 = getelementptr inbounds %"struct.std::_Vector_base.6", %"struct.std::_Vector_base.6"* %20, i32 0, i32 0
  %25 = getelementptr inbounds %"struct.std::_Vector_base<long long, std::allocator<long long> >::_Vector_impl", %"struct.std::_Vector_base<long long, std::allocator<long long> >::_Vector_impl"* %24, i32 0, i32 2
  %26 = load i64*, i64** %25, align 8
  %27 = getelementptr inbounds %"struct.std::_Vector_base.6", %"struct.std::_Vector_base.6"* %20, i32 0, i32 0
  %28 = getelementptr inbounds %"struct.std::_Vector_base<long long, std::allocator<long long> >::_Vector_impl", %"struct.std::_Vector_base<long long, std::allocator<long long> >::_Vector_impl"* %27, i32 0, i32 0
  %29 = load i64*, i64** %28, align 8
  %30 = ptrtoint i64* %26 to i64
  %31 = ptrtoint i64* %29 to i64
  %32 = sub i64 0, %31
  %33 = add i64 %30, %32
  %34 = sub i64 %30, %31
  %35 = sdiv exact i64 %33, 8
  %36 = load i32, i32* @x.41
  %37 = load i32, i32* @y.42
  %38 = sub i32 0, 1
  %39 = add i32 %36, %38
  %40 = sub i32 %36, 1
  %41 = mul i32 %36, %39
  %42 = urem i32 %41, 2
  %43 = icmp eq i32 %42, 0
  %44 = icmp slt i32 %37, 10
  %45 = xor i1 %43, true
  %46 = xor i1 %44, true
  %47 = xor i1 false, true
  %48 = and i1 %45, false
  %49 = and i1 %43, %47
  %50 = and i1 %46, false
  %51 = and i1 %44, %47
  %52 = or i1 %48, %49
  %53 = or i1 %50, %51
  %54 = xor i1 %52, %53
  %55 = or i1 %45, %46
  %56 = xor i1 %55, true
  %57 = or i1 false, %47
  %58 = and i1 %56, %57
  %59 = or i1 %54, %58
  %60 = or i1 %43, %44
  br i1 %59, label %61, label %153

; <label>:61:                                     ; preds = %16
  invoke void @_ZNSt12_Vector_baseIxSaIxEE13_M_deallocateEPxm(%"struct.std::_Vector_base.6"* %20, i64* %23, i64 %35)
          to label %62 unwind label %64

; <label>:62:                                     ; preds = %61
  %63 = getelementptr inbounds %"struct.std::_Vector_base.6", %"struct.std::_Vector_base.6"* %20, i32 0, i32 0
  call void @_ZNSt12_Vector_baseIxSaIxEE12_Vector_implD2Ev(%"struct.std::_Vector_base<long long, std::allocator<long long> >::_Vector_impl"* %63) #3
  ret void

; <label>:64:                                     ; preds = %61
  %65 = load i32, i32* @x.41
  %66 = load i32, i32* @y.42
  %67 = sub i32 %65, -150970330
  %68 = sub i32 %67, 1
  %69 = add i32 %68, -150970330
  %70 = sub i32 %65, 1
  %71 = mul i32 %65, %69
  %72 = urem i32 %71, 2
  %73 = icmp eq i32 %72, 0
  %74 = icmp slt i32 %66, 10
  %75 = xor i1 %73, true
  %76 = xor i1 %74, true
  %77 = xor i1 false, true
  %78 = and i1 %75, false
  %79 = and i1 %73, %77
  %80 = and i1 %76, false
  %81 = and i1 %74, %77
  %82 = or i1 %78, %79
  %83 = or i1 %80, %81
  %84 = xor i1 %82, %83
  %85 = or i1 %75, %76
  %86 = xor i1 %85, true
  %87 = or i1 false, %77
  %88 = and i1 %86, %87
  %89 = or i1 %84, %88
  %90 = or i1 %73, %74
  br i1 %89, label %91, label %204

; <label>:91:                                     ; preds = %64, %204
  %92 = landingpad { i8*, i32 }
          catch i8* null
  %93 = extractvalue { i8*, i32 } %92, 0
  store i8* %93, i8** %18, align 8
  %94 = extractvalue { i8*, i32 } %92, 1
  store i32 %94, i32* %19, align 4
  %95 = getelementptr inbounds %"struct.std::_Vector_base.6", %"struct.std::_Vector_base.6"* %20, i32 0, i32 0
  call void @_ZNSt12_Vector_baseIxSaIxEE12_Vector_implD2Ev(%"struct.std::_Vector_base<long long, std::allocator<long long> >::_Vector_impl"* %95) #3
  %96 = load i32, i32* @x.41
  %97 = load i32, i32* @y.42
  %98 = sub i32 0, 1
  %99 = add i32 %96, %98
  %100 = sub i32 %96, 1
  %101 = mul i32 %96, %99
  %102 = urem i32 %101, 2
  %103 = icmp eq i32 %102, 0
  %104 = icmp slt i32 %97, 10
  %105 = and i1 %103, %104
  %106 = xor i1 %103, %104
  %107 = or i1 %105, %106
  %108 = or i1 %103, %104
  br i1 %107, label %109, label %204

; <label>:109:                                    ; preds = %91
  br label %110

; <label>:110:                                    ; preds = %109
  %111 = load i32, i32* @x.41
  %112 = load i32, i32* @y.42
  %113 = sub i32 0, 1
  %114 = add i32 %111, %113
  %115 = sub i32 %111, 1
  %116 = mul i32 %111, %114
  %117 = urem i32 %116, 2
  %118 = icmp eq i32 %117, 0
  %119 = icmp slt i32 %112, 10
  %120 = and i1 %118, %119
  %121 = xor i1 %118, %119
  %122 = or i1 %120, %121
  %123 = or i1 %118, %119
  br i1 %122, label %124, label %209

; <label>:124:                                    ; preds = %110, %209
  %125 = load i8*, i8** %18, align 8
  call void @__clang_call_terminate(i8* %125) #10
  %126 = load i32, i32* @x.41
  %127 = load i32, i32* @y.42
  %128 = sub i32 %126, -1566967891
  %129 = sub i32 %128, 1
  %130 = add i32 %129, -1566967891
  %131 = sub i32 %126, 1
  %132 = mul i32 %126, %130
  %133 = urem i32 %132, 2
  %134 = icmp eq i32 %133, 0
  %135 = icmp slt i32 %127, 10
  %136 = xor i1 %134, true
  %137 = xor i1 %135, true
  %138 = xor i1 false, true
  %139 = and i1 %136, false
  %140 = and i1 %134, %138
  %141 = and i1 %137, false
  %142 = and i1 %135, %138
  %143 = or i1 %139, %140
  %144 = or i1 %141, %142
  %145 = xor i1 %143, %144
  %146 = or i1 %136, %137
  %147 = xor i1 %146, true
  %148 = or i1 false, %138
  %149 = and i1 %147, %148
  %150 = or i1 %145, %149
  %151 = or i1 %134, %135
  br i1 %150, label %152, label %209

; <label>:152:                                    ; preds = %124
  unreachable

; <label>:153:                                    ; preds = %16, %1
  %154 = alloca %"struct.std::_Vector_base.6"*, align 8
  %155 = alloca i8*
  %156 = alloca i32
  store %"struct.std::_Vector_base.6"* %0, %"struct.std::_Vector_base.6"** %154, align 8
  %157 = load %"struct.std::_Vector_base.6"*, %"struct.std::_Vector_base.6"** %154, align 8
  %158 = getelementptr inbounds %"struct.std::_Vector_base.6", %"struct.std::_Vector_base.6"* %157, i32 0, i32 0
  %159 = getelementptr inbounds %"struct.std::_Vector_base<long long, std::allocator<long long> >::_Vector_impl", %"struct.std::_Vector_base<long long, std::allocator<long long> >::_Vector_impl"* %158, i32 0, i32 0
  %160 = load i64*, i64** %159, align 8
  %161 = getelementptr inbounds %"struct.std::_Vector_base.6", %"struct.std::_Vector_base.6"* %157, i32 0, i32 0
  %162 = getelementptr inbounds %"struct.std::_Vector_base<long long, std::allocator<long long> >::_Vector_impl", %"struct.std::_Vector_base<long long, std::allocator<long long> >::_Vector_impl"* %161, i32 0, i32 2
  %163 = load i64*, i64** %162, align 8
  %164 = getelementptr inbounds %"struct.std::_Vector_base.6", %"struct.std::_Vector_base.6"* %157, i32 0, i32 0
  %165 = getelementptr inbounds %"struct.std::_Vector_base<long long, std::allocator<long long> >::_Vector_impl", %"struct.std::_Vector_base<long long, std::allocator<long long> >::_Vector_impl"* %164, i32 0, i32 0
  %166 = load i64*, i64** %165, align 8
  %167 = ptrtoint i64* %163 to i64
  %168 = ptrtoint i64* %166 to i64
  %169 = sub i64 0, -2953258739481732704
  %170 = sub i64 %169, %167
  %171 = add i64 %170, -2953258739481732704
  %172 = sub i64 0, %167
  %173 = sub i64 0, %168
  %174 = sub i64 %171, %173
  %175 = add i64 %171, %168
  %176 = shl i64 %167, %168
  %177 = add i64 %167, 7822444357843273817
  %178 = sub i64 %177, %168
  %179 = sub i64 %178, 7822444357843273817
  %180 = sub i64 %167, %168
  %181 = mul i64 %179, %168
  %182 = add i64 0, -108966548232265746
  %183 = sub i64 %182, %167
  %184 = sub i64 %183, -108966548232265746
  %185 = sub i64 0, %167
  %186 = sub i64 0, %184
  %187 = sub i64 0, %168
  %188 = add i64 %186, %187
  %189 = sub i64 0, %188
  %190 = add i64 %184, %168
  %191 = sub i64 0, %168
  %192 = add i64 %167, %191
  %193 = sub i64 %167, %168
  %194 = sub i64 0, 6777440638631252622
  %195 = sub i64 %194, %192
  %196 = add i64 %195, 6777440638631252622
  %197 = sub i64 0, %192
  %198 = sub i64 0, 8
  %199 = sub i64 %196, %198
  %200 = add i64 %196, 8
  %201 = shl i64 %192, 8
  %202 = shl i64 %192, 8
  %203 = sdiv exact i64 %192, 8
  br label %16

; <label>:204:                                    ; preds = %91, %64
  %205 = landingpad { i8*, i32 }
          catch i8* null
  %206 = extractvalue { i8*, i32 } %205, 0
  store i8* %206, i8** %18, align 8
  %207 = extractvalue { i8*, i32 } %205, 1
  store i32 %207, i32* %19, align 4
  %208 = getelementptr inbounds %"struct.std::_Vector_base.6", %"struct.std::_Vector_base.6"* %20, i32 0, i32 0
  call void @_ZNSt12_Vector_baseIxSaIxEE12_Vector_implD2Ev(%"struct.std::_Vector_base<long long, std::allocator<long long> >::_Vector_impl"* %208) #3
  br label %91

; <label>:209:                                    ; preds = %124, %110
  %210 = load i8*, i8** %18, align 8
  call void @__clang_call_terminate(i8* %210) #10
  br label %124
}

; Function Attrs: noinline nounwind uwtable
define linkonce_odr void @_ZNSt12_Vector_baseIxSaIxEE12_Vector_implC2ERKS0_(%"struct.std::_Vector_base<long long, std::allocator<long long> >::_Vector_impl"*, %"class.std::allocator.7"* dereferenceable(1)) unnamed_addr #5 comdat align 2 {
  %3 = alloca i1
  %4 = alloca i1
  %5 = load i32, i32* @x.43
  %6 = load i32, i32* @y.44
  %7 = sub i32 0, 1
  %8 = add i32 %5, %7
  %9 = sub i32 %5, 1
  %10 = mul i32 %5, %8
  %11 = urem i32 %10, 2
  %12 = icmp eq i32 %11, 0
  store i1 %12, i1* %4
  %13 = icmp slt i32 %6, 10
  store i1 %13, i1* %3
  %14 = alloca i32
  store i32 651443702, i32* %14
  br label %15

; <label>:15:                                     ; preds = %2, %84
  %16 = load i32, i32* %14
  switch i32 %16, label %17 [
    i32 651443702, label %18
    i32 -1379968625, label %38
    i32 70675259, label %74
    i32 2038503861, label %75
  ]

; <label>:17:                                     ; preds = %15
  br label %84

; <label>:18:                                     ; preds = %15
  %19 = load volatile i1, i1* %4
  %20 = load volatile i1, i1* %3
  %21 = xor i1 %19, true
  %22 = xor i1 %20, true
  %23 = xor i1 false, true
  %24 = and i1 %21, false
  %25 = and i1 %19, %23
  %26 = and i1 %22, false
  %27 = and i1 %20, %23
  %28 = or i1 %24, %25
  %29 = or i1 %26, %27
  %30 = xor i1 %28, %29
  %31 = or i1 %21, %22
  %32 = xor i1 %31, true
  %33 = or i1 false, %23
  %34 = and i1 %32, %33
  %35 = or i1 %30, %34
  %36 = or i1 %19, %20
  %37 = select i1 %35, i32 -1379968625, i32 2038503861
  store i32 %37, i32* %14
  br label %84

; <label>:38:                                     ; preds = %15
  %39 = alloca %"struct.std::_Vector_base<long long, std::allocator<long long> >::_Vector_impl"*, align 8
  %40 = alloca %"class.std::allocator.7"*, align 8
  store %"struct.std::_Vector_base<long long, std::allocator<long long> >::_Vector_impl"* %0, %"struct.std::_Vector_base<long long, std::allocator<long long> >::_Vector_impl"** %39, align 8
  store %"class.std::allocator.7"* %1, %"class.std::allocator.7"** %40, align 8
  %41 = load %"struct.std::_Vector_base<long long, std::allocator<long long> >::_Vector_impl"*, %"struct.std::_Vector_base<long long, std::allocator<long long> >::_Vector_impl"** %39, align 8
  %42 = bitcast %"struct.std::_Vector_base<long long, std::allocator<long long> >::_Vector_impl"* %41 to %"class.std::allocator.7"*
  %43 = load %"class.std::allocator.7"*, %"class.std::allocator.7"** %40, align 8
  call void @_ZNSaIxEC2ERKS_(%"class.std::allocator.7"* %42, %"class.std::allocator.7"* dereferenceable(1) %43) #3
  %44 = getelementptr inbounds %"struct.std::_Vector_base<long long, std::allocator<long long> >::_Vector_impl", %"struct.std::_Vector_base<long long, std::allocator<long long> >::_Vector_impl"* %41, i32 0, i32 0
  store i64* null, i64** %44, align 8
  %45 = getelementptr inbounds %"struct.std::_Vector_base<long long, std::allocator<long long> >::_Vector_impl", %"struct.std::_Vector_base<long long, std::allocator<long long> >::_Vector_impl"* %41, i32 0, i32 1
  store i64* null, i64** %45, align 8
  %46 = getelementptr inbounds %"struct.std::_Vector_base<long long, std::allocator<long long> >::_Vector_impl", %"struct.std::_Vector_base<long long, std::allocator<long long> >::_Vector_impl"* %41, i32 0, i32 2
  store i64* null, i64** %46, align 8
  %47 = load i32, i32* @x.43
  %48 = load i32, i32* @y.44
  %49 = sub i32 %47, 1040752134
  %50 = sub i32 %49, 1
  %51 = add i32 %50, 1040752134
  %52 = sub i32 %47, 1
  %53 = mul i32 %47, %51
  %54 = urem i32 %53, 2
  %55 = icmp eq i32 %54, 0
  %56 = icmp slt i32 %48, 10
  %57 = xor i1 %55, true
  %58 = xor i1 %56, true
  %59 = xor i1 false, true
  %60 = and i1 %57, false
  %61 = and i1 %55, %59
  %62 = and i1 %58, false
  %63 = and i1 %56, %59
  %64 = or i1 %60, %61
  %65 = or i1 %62, %63
  %66 = xor i1 %64, %65
  %67 = or i1 %57, %58
  %68 = xor i1 %67, true
  %69 = or i1 false, %59
  %70 = and i1 %68, %69
  %71 = or i1 %66, %70
  %72 = or i1 %55, %56
  %73 = select i1 %71, i32 70675259, i32 2038503861
  store i32 %73, i32* %14
  br label %84

; <label>:74:                                     ; preds = %15
  ret void

; <label>:75:                                     ; preds = %15
  %76 = alloca %"struct.std::_Vector_base<long long, std::allocator<long long> >::_Vector_impl"*, align 8
  %77 = alloca %"class.std::allocator.7"*, align 8
  store %"struct.std::_Vector_base<long long, std::allocator<long long> >::_Vector_impl"* %0, %"struct.std::_Vector_base<long long, std::allocator<long long> >::_Vector_impl"** %76, align 8
  store %"class.std::allocator.7"* %1, %"class.std::allocator.7"** %77, align 8
  %78 = load %"struct.std::_Vector_base<long long, std::allocator<long long> >::_Vector_impl"*, %"struct.std::_Vector_base<long long, std::allocator<long long> >::_Vector_impl"** %76, align 8
  %79 = bitcast %"struct.std::_Vector_base<long long, std::allocator<long long> >::_Vector_impl"* %78 to %"class.std::allocator.7"*
  %80 = load %"class.std::allocator.7"*, %"class.std::allocator.7"** %77, align 8
  call void @_ZNSaIxEC2ERKS_(%"class.std::allocator.7"* %79, %"class.std::allocator.7"* dereferenceable(1) %80) #3
  %81 = getelementptr inbounds %"struct.std::_Vector_base<long long, std::allocator<long long> >::_Vector_impl", %"struct.std::_Vector_base<long long, std::allocator<long long> >::_Vector_impl"* %78, i32 0, i32 0
  store i64* null, i64** %81, align 8
  %82 = getelementptr inbounds %"struct.std::_Vector_base<long long, std::allocator<long long> >::_Vector_impl", %"struct.std::_Vector_base<long long, std::allocator<long long> >::_Vector_impl"* %78, i32 0, i32 1
  store i64* null, i64** %82, align 8
  %83 = getelementptr inbounds %"struct.std::_Vector_base<long long, std::allocator<long long> >::_Vector_impl", %"struct.std::_Vector_base<long long, std::allocator<long long> >::_Vector_impl"* %78, i32 0, i32 2
  store i64* null, i64** %83, align 8
  store i32 -1379968625, i32* %14
  br label %84

; <label>:84:                                     ; preds = %75, %38, %18, %17
  br label %15
}

; Function Attrs: noinline uwtable
define linkonce_odr void @_ZNSt12_Vector_baseIxSaIxEE17_M_create_storageEm(%"struct.std::_Vector_base.6"*, i64) #0 comdat align 2 {
  %3 = alloca %"struct.std::_Vector_base.6"*, align 8
  %4 = alloca i64, align 8
  store %"struct.std::_Vector_base.6"* %0, %"struct.std::_Vector_base.6"** %3, align 8
  store i64 %1, i64* %4, align 8
  %5 = load %"struct.std::_Vector_base.6"*, %"struct.std::_Vector_base.6"** %3, align 8
  %6 = load i64, i64* %4, align 8
  %7 = call i64* @_ZNSt12_Vector_baseIxSaIxEE11_M_allocateEm(%"struct.std::_Vector_base.6"* %5, i64 %6)
  %8 = getelementptr inbounds %"struct.std::_Vector_base.6", %"struct.std::_Vector_base.6"* %5, i32 0, i32 0
  %9 = getelementptr inbounds %"struct.std::_Vector_base<long long, std::allocator<long long> >::_Vector_impl", %"struct.std::_Vector_base<long long, std::allocator<long long> >::_Vector_impl"* %8, i32 0, i32 0
  store i64* %7, i64** %9, align 8
  %10 = getelementptr inbounds %"struct.std::_Vector_base.6", %"struct.std::_Vector_base.6"* %5, i32 0, i32 0
  %11 = getelementptr inbounds %"struct.std::_Vector_base<long long, std::allocator<long long> >::_Vector_impl", %"struct.std::_Vector_base<long long, std::allocator<long long> >::_Vector_impl"* %10, i32 0, i32 0
  %12 = load i64*, i64** %11, align 8
  %13 = getelementptr inbounds %"struct.std::_Vector_base.6", %"struct.std::_Vector_base.6"* %5, i32 0, i32 0
  %14 = getelementptr inbounds %"struct.std::_Vector_base<long long, std::allocator<long long> >::_Vector_impl", %"struct.std::_Vector_base<long long, std::allocator<long long> >::_Vector_impl"* %13, i32 0, i32 1
  store i64* %12, i64** %14, align 8
  %15 = getelementptr inbounds %"struct.std::_Vector_base.6", %"struct.std::_Vector_base.6"* %5, i32 0, i32 0
  %16 = getelementptr inbounds %"struct.std::_Vector_base<long long, std::allocator<long long> >::_Vector_impl", %"struct.std::_Vector_base<long long, std::allocator<long long> >::_Vector_impl"* %15, i32 0, i32 0
  %17 = load i64*, i64** %16, align 8
  %18 = load i64, i64* %4, align 8
  %19 = getelementptr inbounds i64, i64* %17, i64 %18
  %20 = getelementptr inbounds %"struct.std::_Vector_base.6", %"struct.std::_Vector_base.6"* %5, i32 0, i32 0
  %21 = getelementptr inbounds %"struct.std::_Vector_base<long long, std::allocator<long long> >::_Vector_impl", %"struct.std::_Vector_base<long long, std::allocator<long long> >::_Vector_impl"* %20, i32 0, i32 2
  store i64* %19, i64** %21, align 8
  ret void
}

; Function Attrs: noinline nounwind uwtable
define linkonce_odr void @_ZNSt12_Vector_baseIxSaIxEE12_Vector_implD2Ev(%"struct.std::_Vector_base<long long, std::allocator<long long> >::_Vector_impl"*) unnamed_addr #5 comdat align 2 {
  %2 = alloca i1
  %3 = alloca i1
  %4 = load i32, i32* @x.47
  %5 = load i32, i32* @y.48
  %6 = add i32 %4, 752035717
  %7 = sub i32 %6, 1
  %8 = sub i32 %7, 752035717
  %9 = sub i32 %4, 1
  %10 = mul i32 %4, %8
  %11 = urem i32 %10, 2
  %12 = icmp eq i32 %11, 0
  store i1 %12, i1* %3
  %13 = icmp slt i32 %5, 10
  store i1 %13, i1* %2
  %14 = alloca i32
  store i32 -1371498660, i32* %14
  br label %15

; <label>:15:                                     ; preds = %1, %73
  %16 = load i32, i32* %14
  switch i32 %16, label %17 [
    i32 -1371498660, label %18
    i32 -1418379035, label %38
    i32 1401157891, label %68
    i32 -242247417, label %69
  ]

; <label>:17:                                     ; preds = %15
  br label %73

; <label>:18:                                     ; preds = %15
  %19 = load volatile i1, i1* %3
  %20 = load volatile i1, i1* %2
  %21 = xor i1 %19, true
  %22 = xor i1 %20, true
  %23 = xor i1 false, true
  %24 = and i1 %21, false
  %25 = and i1 %19, %23
  %26 = and i1 %22, false
  %27 = and i1 %20, %23
  %28 = or i1 %24, %25
  %29 = or i1 %26, %27
  %30 = xor i1 %28, %29
  %31 = or i1 %21, %22
  %32 = xor i1 %31, true
  %33 = or i1 false, %23
  %34 = and i1 %32, %33
  %35 = or i1 %30, %34
  %36 = or i1 %19, %20
  %37 = select i1 %35, i32 -1418379035, i32 -242247417
  store i32 %37, i32* %14
  br label %73

; <label>:38:                                     ; preds = %15
  %39 = alloca %"struct.std::_Vector_base<long long, std::allocator<long long> >::_Vector_impl"*, align 8
  store %"struct.std::_Vector_base<long long, std::allocator<long long> >::_Vector_impl"* %0, %"struct.std::_Vector_base<long long, std::allocator<long long> >::_Vector_impl"** %39, align 8
  %40 = load %"struct.std::_Vector_base<long long, std::allocator<long long> >::_Vector_impl"*, %"struct.std::_Vector_base<long long, std::allocator<long long> >::_Vector_impl"** %39, align 8
  %41 = bitcast %"struct.std::_Vector_base<long long, std::allocator<long long> >::_Vector_impl"* %40 to %"class.std::allocator.7"*
  call void @_ZNSaIxED2Ev(%"class.std::allocator.7"* %41) #3
  %42 = load i32, i32* @x.47
  %43 = load i32, i32* @y.48
  %44 = sub i32 0, 1
  %45 = add i32 %42, %44
  %46 = sub i32 %42, 1
  %47 = mul i32 %42, %45
  %48 = urem i32 %47, 2
  %49 = icmp eq i32 %48, 0
  %50 = icmp slt i32 %43, 10
  %51 = xor i1 %49, true
  %52 = xor i1 %50, true
  %53 = xor i1 false, true
  %54 = and i1 %51, false
  %55 = and i1 %49, %53
  %56 = and i1 %52, false
  %57 = and i1 %50, %53
  %58 = or i1 %54, %55
  %59 = or i1 %56, %57
  %60 = xor i1 %58, %59
  %61 = or i1 %51, %52
  %62 = xor i1 %61, true
  %63 = or i1 false, %53
  %64 = and i1 %62, %63
  %65 = or i1 %60, %64
  %66 = or i1 %49, %50
  %67 = select i1 %65, i32 1401157891, i32 -242247417
  store i32 %67, i32* %14
  br label %73

; <label>:68:                                     ; preds = %15
  ret void

; <label>:69:                                     ; preds = %15
  %70 = alloca %"struct.std::_Vector_base<long long, std::allocator<long long> >::_Vector_impl"*, align 8
  store %"struct.std::_Vector_base<long long, std::allocator<long long> >::_Vector_impl"* %0, %"struct.std::_Vector_base<long long, std::allocator<long long> >::_Vector_impl"** %70, align 8
  %71 = load %"struct.std::_Vector_base<long long, std::allocator<long long> >::_Vector_impl"*, %"struct.std::_Vector_base<long long, std::allocator<long long> >::_Vector_impl"** %70, align 8
  %72 = bitcast %"struct.std::_Vector_base<long long, std::allocator<long long> >::_Vector_impl"* %71 to %"class.std::allocator.7"*
  call void @_ZNSaIxED2Ev(%"class.std::allocator.7"* %72) #3
  store i32 -1418379035, i32* %14
  br label %73

; <label>:73:                                     ; preds = %69, %38, %18, %17
  br label %15
}

; Function Attrs: noinline nounwind uwtable
define linkonce_odr void @_ZN9__gnu_cxx13new_allocatorIxEC2ERKS1_(%"class.__gnu_cxx::new_allocator.8"*, %"class.__gnu_cxx::new_allocator.8"* dereferenceable(1)) unnamed_addr #5 comdat align 2 {
  %3 = alloca %"class.__gnu_cxx::new_allocator.8"*, align 8
  %4 = alloca %"class.__gnu_cxx::new_allocator.8"*, align 8
  store %"class.__gnu_cxx::new_allocator.8"* %0, %"class.__gnu_cxx::new_allocator.8"** %3, align 8
  store %"class.__gnu_cxx::new_allocator.8"* %1, %"class.__gnu_cxx::new_allocator.8"** %4, align 8
  %5 = load %"class.__gnu_cxx::new_allocator.8"*, %"class.__gnu_cxx::new_allocator.8"** %3, align 8
  ret void
}

; Function Attrs: noinline uwtable
define linkonce_odr i64* @_ZNSt12_Vector_baseIxSaIxEE11_M_allocateEm(%"struct.std::_Vector_base.6"*, i64) #0 comdat align 2 {
  %3 = alloca i64*
  %4 = alloca i64
  %5 = alloca %"struct.std::_Vector_base.6"*
  %6 = alloca %"struct.std::_Vector_base.6"*, align 8
  %7 = alloca i64, align 8
  store %"struct.std::_Vector_base.6"* %0, %"struct.std::_Vector_base.6"** %6, align 8
  store i64 %1, i64* %7, align 8
  %8 = load %"struct.std::_Vector_base.6"*, %"struct.std::_Vector_base.6"** %6, align 8
  store %"struct.std::_Vector_base.6"* %8, %"struct.std::_Vector_base.6"** %5
  %9 = load i64, i64* %7, align 8
  store i64 %9, i64* %4
  %10 = alloca i32
  store i32 210647748, i32* %10
  %11 = alloca i64*
  br label %12

; <label>:12:                                     ; preds = %2, %73
  %13 = load i32, i32* %10
  switch i32 %13, label %14 [
    i32 210647748, label %15
    i32 -2129635469, label %19
    i32 -616548637, label %25
    i32 -1457136251, label %26
    i32 -1672996534, label %55
    i32 -1124798318, label %70
    i32 1406628462, label %72
  ]

; <label>:14:                                     ; preds = %12
  br label %73

; <label>:15:                                     ; preds = %12
  %16 = load volatile i64, i64* %4
  %17 = icmp ne i64 %16, 0
  %18 = select i1 %17, i32 -2129635469, i32 -616548637
  store i32 %18, i32* %10
  br label %73

; <label>:19:                                     ; preds = %12
  %20 = load volatile %"struct.std::_Vector_base.6"*, %"struct.std::_Vector_base.6"** %5
  %21 = getelementptr inbounds %"struct.std::_Vector_base.6", %"struct.std::_Vector_base.6"* %20, i32 0, i32 0
  %22 = bitcast %"struct.std::_Vector_base<long long, std::allocator<long long> >::_Vector_impl"* %21 to %"class.std::allocator.7"*
  %23 = load i64, i64* %7, align 8
  %24 = call i64* @_ZNSt16allocator_traitsISaIxEE8allocateERS0_m(%"class.std::allocator.7"* dereferenceable(1) %22, i64 %23)
  store i32 -1457136251, i32* %10
  store i64* %24, i64** %11
  br label %73

; <label>:25:                                     ; preds = %12
  store i32 -1457136251, i32* %10
  store i64* null, i64** %11
  br label %73

; <label>:26:                                     ; preds = %12
  %27 = load i64*, i64** %11
  store i64* %27, i64** %3
  %28 = load i32, i32* @x.51
  %29 = load i32, i32* @y.52
  %30 = sub i32 %28, -400140796
  %31 = sub i32 %30, 1
  %32 = add i32 %31, -400140796
  %33 = sub i32 %28, 1
  %34 = mul i32 %28, %32
  %35 = urem i32 %34, 2
  %36 = icmp eq i32 %35, 0
  %37 = icmp slt i32 %29, 10
  %38 = xor i1 %36, true
  %39 = xor i1 %37, true
  %40 = xor i1 true, true
  %41 = and i1 %38, true
  %42 = and i1 %36, %40
  %43 = and i1 %39, true
  %44 = and i1 %37, %40
  %45 = or i1 %41, %42
  %46 = or i1 %43, %44
  %47 = xor i1 %45, %46
  %48 = or i1 %38, %39
  %49 = xor i1 %48, true
  %50 = or i1 true, %40
  %51 = and i1 %49, %50
  %52 = or i1 %47, %51
  %53 = or i1 %36, %37
  %54 = select i1 %52, i32 -1672996534, i32 1406628462
  store i32 %54, i32* %10
  br label %73

; <label>:55:                                     ; preds = %12
  %56 = load i32, i32* @x.51
  %57 = load i32, i32* @y.52
  %58 = sub i32 0, 1
  %59 = add i32 %56, %58
  %60 = sub i32 %56, 1
  %61 = mul i32 %56, %59
  %62 = urem i32 %61, 2
  %63 = icmp eq i32 %62, 0
  %64 = icmp slt i32 %57, 10
  %65 = and i1 %63, %64
  %66 = xor i1 %63, %64
  %67 = or i1 %65, %66
  %68 = or i1 %63, %64
  %69 = select i1 %67, i32 -1124798318, i32 1406628462
  store i32 %69, i32* %10
  br label %73

; <label>:70:                                     ; preds = %12
  %71 = load volatile i64*, i64** %3
  ret i64* %71

; <label>:72:                                     ; preds = %12
  store i32 -1672996534, i32* %10
  br label %73

; <label>:73:                                     ; preds = %72, %55, %26, %25, %19, %15, %14
  br label %12
}

; Function Attrs: noinline uwtable
define linkonce_odr i64* @_ZNSt16allocator_traitsISaIxEE8allocateERS0_m(%"class.std::allocator.7"* dereferenceable(1), i64) #0 comdat align 2 {
  %3 = alloca %"class.std::allocator.7"*, align 8
  %4 = alloca i64, align 8
  store %"class.std::allocator.7"* %0, %"class.std::allocator.7"** %3, align 8
  store i64 %1, i64* %4, align 8
  %5 = load %"class.std::allocator.7"*, %"class.std::allocator.7"** %3, align 8
  %6 = bitcast %"class.std::allocator.7"* %5 to %"class.__gnu_cxx::new_allocator.8"*
  %7 = load i64, i64* %4, align 8
  %8 = call i64* @_ZN9__gnu_cxx13new_allocatorIxE8allocateEmPKv(%"class.__gnu_cxx::new_allocator.8"* %6, i64 %7, i8* null)
  ret i64* %8
}

; Function Attrs: noinline uwtable
define linkonce_odr i64* @_ZN9__gnu_cxx13new_allocatorIxE8allocateEmPKv(%"class.__gnu_cxx::new_allocator.8"*, i64, i8*) #0 comdat align 2 {
  %4 = alloca i64
  %5 = alloca i64
  %6 = alloca %"class.__gnu_cxx::new_allocator.8"*, align 8
  %7 = alloca i64, align 8
  %8 = alloca i8*, align 8
  store %"class.__gnu_cxx::new_allocator.8"* %0, %"class.__gnu_cxx::new_allocator.8"** %6, align 8
  store i64 %1, i64* %7, align 8
  store i8* %2, i8** %8, align 8
  %9 = load %"class.__gnu_cxx::new_allocator.8"*, %"class.__gnu_cxx::new_allocator.8"** %6, align 8
  %10 = load i64, i64* %7, align 8
  store i64 %10, i64* %5
  %11 = call i64 @_ZNK9__gnu_cxx13new_allocatorIxE8max_sizeEv(%"class.__gnu_cxx::new_allocator.8"* %9) #3
  store i64 %11, i64* %4
  %12 = alloca i32
  store i32 -214725157, i32* %12
  br label %13

; <label>:13:                                     ; preds = %3, %27
  %14 = load i32, i32* %12
  switch i32 %14, label %15 [
    i32 -214725157, label %16
    i32 1455419876, label %21
    i32 780222959, label %22
  ]

; <label>:15:                                     ; preds = %13
  br label %27

; <label>:16:                                     ; preds = %13
  %17 = load volatile i64, i64* %5
  %18 = load volatile i64, i64* %4
  %19 = icmp ugt i64 %17, %18
  %20 = select i1 %19, i32 1455419876, i32 780222959
  store i32 %20, i32* %12
  br label %27

; <label>:21:                                     ; preds = %13
  call void @_ZSt17__throw_bad_allocv() #12
  unreachable

; <label>:22:                                     ; preds = %13
  %23 = load i64, i64* %7, align 8
  %24 = mul i64 %23, 8
  %25 = call i8* @_Znwm(i64 %24)
  %26 = bitcast i8* %25 to i64*
  ret i64* %26

; <label>:27:                                     ; preds = %16, %15
  br label %13
}

; Function Attrs: noinline nounwind uwtable
define linkonce_odr i64 @_ZNK9__gnu_cxx13new_allocatorIxE8max_sizeEv(%"class.__gnu_cxx::new_allocator.8"*) #5 comdat align 2 {
  %2 = alloca %"class.__gnu_cxx::new_allocator.8"*, align 8
  store %"class.__gnu_cxx::new_allocator.8"* %0, %"class.__gnu_cxx::new_allocator.8"** %2, align 8
  %3 = load %"class.__gnu_cxx::new_allocator.8"*, %"class.__gnu_cxx::new_allocator.8"** %2, align 8
  ret i64 2305843009213693951
}

; Function Attrs: noreturn
declare void @_ZSt17__throw_bad_allocv() #6

; Function Attrs: nobuiltin
declare noalias i8* @_Znwm(i64) #7

; Function Attrs: noinline uwtable
define linkonce_odr i64* @_ZSt27__uninitialized_default_n_aIPxmxET_S1_T0_RSaIT1_E(i64*, i64, %"class.std::allocator.7"* dereferenceable(1)) #0 comdat {
  %4 = alloca i64*
  %5 = alloca i1
  %6 = alloca i1
  %7 = load i32, i32* @x.59
  %8 = load i32, i32* @y.60
  %9 = add i32 %7, -182015252
  %10 = sub i32 %9, 1
  %11 = sub i32 %10, -182015252
  %12 = sub i32 %7, 1
  %13 = mul i32 %7, %11
  %14 = urem i32 %13, 2
  %15 = icmp eq i32 %14, 0
  store i1 %15, i1* %6
  %16 = icmp slt i32 %8, 10
  store i1 %16, i1* %5
  %17 = alloca i32
  store i32 1594455251, i32* %17
  br label %18

; <label>:18:                                     ; preds = %3, %71
  %19 = load i32, i32* %17
  switch i32 %19, label %20 [
    i32 1594455251, label %21
    i32 -483897726, label %29
    i32 -1985333124, label %62
    i32 267630647, label %64
  ]

; <label>:20:                                     ; preds = %18
  br label %71

; <label>:21:                                     ; preds = %18
  %22 = load volatile i1, i1* %6
  %23 = load volatile i1, i1* %5
  %24 = and i1 %22, %23
  %25 = xor i1 %22, %23
  %26 = or i1 %24, %25
  %27 = or i1 %22, %23
  %28 = select i1 %26, i32 -483897726, i32 267630647
  store i32 %28, i32* %17
  br label %71

; <label>:29:                                     ; preds = %18
  %30 = alloca i64*, align 8
  %31 = alloca i64, align 8
  %32 = alloca %"class.std::allocator.7"*, align 8
  store i64* %0, i64** %30, align 8
  store i64 %1, i64* %31, align 8
  store %"class.std::allocator.7"* %2, %"class.std::allocator.7"** %32, align 8
  %33 = load i64*, i64** %30, align 8
  %34 = load i64, i64* %31, align 8
  %35 = call i64* @_ZSt25__uninitialized_default_nIPxmET_S1_T0_(i64* %33, i64 %34)
  store i64* %35, i64** %4
  %36 = load i32, i32* @x.59
  %37 = load i32, i32* @y.60
  %38 = sub i32 0, 1
  %39 = add i32 %36, %38
  %40 = sub i32 %36, 1
  %41 = mul i32 %36, %39
  %42 = urem i32 %41, 2
  %43 = icmp eq i32 %42, 0
  %44 = icmp slt i32 %37, 10
  %45 = xor i1 %43, true
  %46 = xor i1 %44, true
  %47 = xor i1 true, true
  %48 = and i1 %45, true
  %49 = and i1 %43, %47
  %50 = and i1 %46, true
  %51 = and i1 %44, %47
  %52 = or i1 %48, %49
  %53 = or i1 %50, %51
  %54 = xor i1 %52, %53
  %55 = or i1 %45, %46
  %56 = xor i1 %55, true
  %57 = or i1 true, %47
  %58 = and i1 %56, %57
  %59 = or i1 %54, %58
  %60 = or i1 %43, %44
  %61 = select i1 %59, i32 -1985333124, i32 267630647
  store i32 %61, i32* %17
  br label %71

; <label>:62:                                     ; preds = %18
  %63 = load volatile i64*, i64** %4
  ret i64* %63

; <label>:64:                                     ; preds = %18
  %65 = alloca i64*, align 8
  %66 = alloca i64, align 8
  %67 = alloca %"class.std::allocator.7"*, align 8
  store i64* %0, i64** %65, align 8
  store i64 %1, i64* %66, align 8
  store %"class.std::allocator.7"* %2, %"class.std::allocator.7"** %67, align 8
  %68 = load i64*, i64** %65, align 8
  %69 = load i64, i64* %66, align 8
  %70 = call i64* @_ZSt25__uninitialized_default_nIPxmET_S1_T0_(i64* %68, i64 %69)
  store i32 -483897726, i32* %17
  br label %71

; <label>:71:                                     ; preds = %64, %29, %21, %20
  br label %18
}

; Function Attrs: noinline nounwind uwtable
define linkonce_odr dereferenceable(1) %"class.std::allocator.7"* @_ZNSt12_Vector_baseIxSaIxEE19_M_get_Tp_allocatorEv(%"struct.std::_Vector_base.6"*) #5 comdat align 2 {
  %2 = alloca %"struct.std::_Vector_base.6"*, align 8
  store %"struct.std::_Vector_base.6"* %0, %"struct.std::_Vector_base.6"** %2, align 8
  %3 = load %"struct.std::_Vector_base.6"*, %"struct.std::_Vector_base.6"** %2, align 8
  %4 = getelementptr inbounds %"struct.std::_Vector_base.6", %"struct.std::_Vector_base.6"* %3, i32 0, i32 0
  %5 = bitcast %"struct.std::_Vector_base<long long, std::allocator<long long> >::_Vector_impl"* %4 to %"class.std::allocator.7"*
  ret %"class.std::allocator.7"* %5
}

; Function Attrs: noinline uwtable
define linkonce_odr i64* @_ZSt25__uninitialized_default_nIPxmET_S1_T0_(i64*, i64) #0 comdat {
  %3 = alloca i64*, align 8
  %4 = alloca i64, align 8
  %5 = alloca i8, align 1
  store i64* %0, i64** %3, align 8
  store i64 %1, i64* %4, align 8
  store i8 1, i8* %5, align 1
  %6 = load i64*, i64** %3, align 8
  %7 = load i64, i64* %4, align 8
  %8 = call i64* @_ZNSt27__uninitialized_default_n_1ILb1EE18__uninit_default_nIPxmEET_S3_T0_(i64* %6, i64 %7)
  ret i64* %8
}

; Function Attrs: noinline uwtable
define linkonce_odr i64* @_ZNSt27__uninitialized_default_n_1ILb1EE18__uninit_default_nIPxmEET_S3_T0_(i64*, i64) #0 comdat align 2 {
  %3 = alloca i64*, align 8
  %4 = alloca i64, align 8
  %5 = alloca i64, align 8
  store i64* %0, i64** %3, align 8
  store i64 %1, i64* %4, align 8
  %6 = load i64*, i64** %3, align 8
  %7 = load i64, i64* %4, align 8
  store i64 0, i64* %5, align 8
  %8 = call i64* @_ZSt6fill_nIPxmxET_S1_T0_RKT1_(i64* %6, i64 %7, i64* dereferenceable(8) %5)
  ret i64* %8
}

; Function Attrs: noinline uwtable
define linkonce_odr i64* @_ZSt6fill_nIPxmxET_S1_T0_RKT1_(i64*, i64, i64* dereferenceable(8)) #0 comdat {
  %4 = alloca i64*, align 8
  %5 = alloca i64, align 8
  %6 = alloca i64*, align 8
  store i64* %0, i64** %4, align 8
  store i64 %1, i64* %5, align 8
  store i64* %2, i64** %6, align 8
  %7 = load i64*, i64** %4, align 8
  %8 = call i64* @_ZSt12__niter_baseIPxENSt11_Niter_baseIT_E13iterator_typeES2_(i64* %7)
  %9 = load i64, i64* %5, align 8
  %10 = load i64*, i64** %6, align 8
  %11 = call i64* @_ZSt10__fill_n_aIPxmxEN9__gnu_cxx11__enable_ifIXsr11__is_scalarIT1_EE7__valueET_E6__typeES4_T0_RKS3_(i64* %8, i64 %9, i64* dereferenceable(8) %10)
  ret i64* %11
}

; Function Attrs: noinline nounwind uwtable
define linkonce_odr i64* @_ZSt10__fill_n_aIPxmxEN9__gnu_cxx11__enable_ifIXsr11__is_scalarIT1_EE7__valueET_E6__typeES4_T0_RKS3_(i64*, i64, i64* dereferenceable(8)) #5 comdat {
  %4 = alloca i64*
  %5 = alloca i64*
  %6 = alloca i64**
  %7 = alloca i1
  %8 = alloca i1
  %9 = load i32, i32* @x.69
  %10 = load i32, i32* @y.70
  %11 = sub i32 %9, 756609023
  %12 = sub i32 %11, 1
  %13 = add i32 %12, 756609023
  %14 = sub i32 %9, 1
  %15 = mul i32 %9, %13
  %16 = urem i32 %15, 2
  %17 = icmp eq i32 %16, 0
  store i1 %17, i1* %8
  %18 = icmp slt i32 %10, 10
  store i1 %18, i1* %7
  %19 = alloca i32
  store i32 -2082260089, i32* %19
  br label %20

; <label>:20:                                     ; preds = %3, %104
  %21 = load i32, i32* %19
  switch i32 %21, label %22 [
    i32 -2082260089, label %23
    i32 -1090657765, label %31
    i32 1389143522, label %70
    i32 -2014737394, label %71
    i32 1468259828, label %76
    i32 -1312965735, label %81
    i32 -811135647, label %92
    i32 81595857, label %95
  ]

; <label>:22:                                     ; preds = %20
  br label %104

; <label>:23:                                     ; preds = %20
  %24 = load volatile i1, i1* %8
  %25 = load volatile i1, i1* %7
  %26 = and i1 %24, %25
  %27 = xor i1 %24, %25
  %28 = or i1 %26, %27
  %29 = or i1 %24, %25
  %30 = select i1 %28, i32 -1090657765, i32 81595857
  store i32 %30, i32* %19
  br label %104

; <label>:31:                                     ; preds = %20
  %32 = alloca i64*, align 8
  store i64** %32, i64*** %6
  %33 = alloca i64, align 8
  %34 = alloca i64*, align 8
  %35 = alloca i64, align 8
  store i64* %35, i64** %5
  %36 = alloca i64, align 8
  store i64* %36, i64** %4
  %37 = load volatile i64**, i64*** %6
  store i64* %0, i64** %37, align 8
  store i64 %1, i64* %33, align 8
  store i64* %2, i64** %34, align 8
  %38 = load i64*, i64** %34, align 8
  %39 = load i64, i64* %38, align 8
  %40 = load volatile i64*, i64** %5
  store i64 %39, i64* %40, align 8
  %41 = load i64, i64* %33, align 8
  %42 = load volatile i64*, i64** %4
  store i64 %41, i64* %42, align 8
  %43 = load i32, i32* @x.69
  %44 = load i32, i32* @y.70
  %45 = add i32 %43, 144106464
  %46 = sub i32 %45, 1
  %47 = sub i32 %46, 144106464
  %48 = sub i32 %43, 1
  %49 = mul i32 %43, %47
  %50 = urem i32 %49, 2
  %51 = icmp eq i32 %50, 0
  %52 = icmp slt i32 %44, 10
  %53 = xor i1 %51, true
  %54 = xor i1 %52, true
  %55 = xor i1 false, true
  %56 = and i1 %53, false
  %57 = and i1 %51, %55
  %58 = and i1 %54, false
  %59 = and i1 %52, %55
  %60 = or i1 %56, %57
  %61 = or i1 %58, %59
  %62 = xor i1 %60, %61
  %63 = or i1 %53, %54
  %64 = xor i1 %63, true
  %65 = or i1 false, %55
  %66 = and i1 %64, %65
  %67 = or i1 %62, %66
  %68 = or i1 %51, %52
  %69 = select i1 %67, i32 1389143522, i32 81595857
  store i32 %69, i32* %19
  br label %104

; <label>:70:                                     ; preds = %20
  store i32 -2014737394, i32* %19
  br label %104

; <label>:71:                                     ; preds = %20
  %72 = load volatile i64*, i64** %4
  %73 = load i64, i64* %72, align 8
  %74 = icmp ugt i64 %73, 0
  %75 = select i1 %74, i32 1468259828, i32 -811135647
  store i32 %75, i32* %19
  br label %104

; <label>:76:                                     ; preds = %20
  %77 = load volatile i64*, i64** %5
  %78 = load i64, i64* %77, align 8
  %79 = load volatile i64**, i64*** %6
  %80 = load i64*, i64** %79, align 8
  store i64 %78, i64* %80, align 8
  store i32 -1312965735, i32* %19
  br label %104

; <label>:81:                                     ; preds = %20
  %82 = load volatile i64*, i64** %4
  %83 = load i64, i64* %82, align 8
  %84 = sub i64 0, -1
  %85 = sub i64 %83, %84
  %86 = add i64 %83, -1
  %87 = load volatile i64*, i64** %4
  store i64 %85, i64* %87, align 8
  %88 = load volatile i64**, i64*** %6
  %89 = load i64*, i64** %88, align 8
  %90 = getelementptr inbounds i64, i64* %89, i32 1
  %91 = load volatile i64**, i64*** %6
  store i64* %90, i64** %91, align 8
  store i32 -2014737394, i32* %19
  br label %104

; <label>:92:                                     ; preds = %20
  %93 = load volatile i64**, i64*** %6
  %94 = load i64*, i64** %93, align 8
  ret i64* %94

; <label>:95:                                     ; preds = %20
  %96 = alloca i64*, align 8
  %97 = alloca i64, align 8
  %98 = alloca i64*, align 8
  %99 = alloca i64, align 8
  %100 = alloca i64, align 8
  store i64* %0, i64** %96, align 8
  store i64 %1, i64* %97, align 8
  store i64* %2, i64** %98, align 8
  %101 = load i64*, i64** %98, align 8
  %102 = load i64, i64* %101, align 8
  store i64 %102, i64* %99, align 8
  %103 = load i64, i64* %97, align 8
  store i64 %103, i64* %100, align 8
  store i32 -1090657765, i32* %19
  br label %104

; <label>:104:                                    ; preds = %95, %81, %76, %71, %70, %31, %23, %22
  br label %20
}

; Function Attrs: noinline uwtable
define linkonce_odr i64* @_ZSt12__niter_baseIPxENSt11_Niter_baseIT_E13iterator_typeES2_(i64*) #0 comdat {
  %2 = alloca i64*
  %3 = alloca i1
  %4 = alloca i1
  %5 = load i32, i32* @x.71
  %6 = load i32, i32* @y.72
  %7 = sub i32 %5, -1273846270
  %8 = sub i32 %7, 1
  %9 = add i32 %8, -1273846270
  %10 = sub i32 %5, 1
  %11 = mul i32 %5, %9
  %12 = urem i32 %11, 2
  %13 = icmp eq i32 %12, 0
  store i1 %13, i1* %4
  %14 = icmp slt i32 %6, 10
  store i1 %14, i1* %3
  %15 = alloca i32
  store i32 53816970, i32* %15
  br label %16

; <label>:16:                                     ; preds = %1, %52
  %17 = load i32, i32* %15
  switch i32 %17, label %18 [
    i32 53816970, label %19
    i32 -2042313437, label %27
    i32 -1552286289, label %46
    i32 2003487571, label %48
  ]

; <label>:18:                                     ; preds = %16
  br label %52

; <label>:19:                                     ; preds = %16
  %20 = load volatile i1, i1* %4
  %21 = load volatile i1, i1* %3
  %22 = and i1 %20, %21
  %23 = xor i1 %20, %21
  %24 = or i1 %22, %23
  %25 = or i1 %20, %21
  %26 = select i1 %24, i32 -2042313437, i32 2003487571
  store i32 %26, i32* %15
  br label %52

; <label>:27:                                     ; preds = %16
  %28 = alloca i64*, align 8
  store i64* %0, i64** %28, align 8
  %29 = load i64*, i64** %28, align 8
  %30 = call i64* @_ZNSt10_Iter_baseIPxLb0EE7_S_baseES0_(i64* %29)
  store i64* %30, i64** %2
  %31 = load i32, i32* @x.71
  %32 = load i32, i32* @y.72
  %33 = add i32 %31, 1148312490
  %34 = sub i32 %33, 1
  %35 = sub i32 %34, 1148312490
  %36 = sub i32 %31, 1
  %37 = mul i32 %31, %35
  %38 = urem i32 %37, 2
  %39 = icmp eq i32 %38, 0
  %40 = icmp slt i32 %32, 10
  %41 = and i1 %39, %40
  %42 = xor i1 %39, %40
  %43 = or i1 %41, %42
  %44 = or i1 %39, %40
  %45 = select i1 %43, i32 -1552286289, i32 2003487571
  store i32 %45, i32* %15
  br label %52

; <label>:46:                                     ; preds = %16
  %47 = load volatile i64*, i64** %2
  ret i64* %47

; <label>:48:                                     ; preds = %16
  %49 = alloca i64*, align 8
  store i64* %0, i64** %49, align 8
  %50 = load i64*, i64** %49, align 8
  %51 = call i64* @_ZNSt10_Iter_baseIPxLb0EE7_S_baseES0_(i64* %50)
  store i32 -2042313437, i32* %15
  br label %52

; <label>:52:                                     ; preds = %48, %27, %19, %18
  br label %16
}

; Function Attrs: noinline nounwind uwtable
define linkonce_odr i64* @_ZNSt10_Iter_baseIPxLb0EE7_S_baseES0_(i64*) #5 comdat align 2 {
  %2 = alloca i64*
  %3 = alloca i1
  %4 = alloca i1
  %5 = load i32, i32* @x.73
  %6 = load i32, i32* @y.74
  %7 = sub i32 %5, -1762078657
  %8 = sub i32 %7, 1
  %9 = add i32 %8, -1762078657
  %10 = sub i32 %5, 1
  %11 = mul i32 %5, %9
  %12 = urem i32 %11, 2
  %13 = icmp eq i32 %12, 0
  store i1 %13, i1* %4
  %14 = icmp slt i32 %6, 10
  store i1 %14, i1* %3
  %15 = alloca i32
  store i32 -1179515907, i32* %15
  br label %16

; <label>:16:                                     ; preds = %1, %50
  %17 = load i32, i32* %15
  switch i32 %17, label %18 [
    i32 -1179515907, label %19
    i32 1295058009, label %27
    i32 -1035738827, label %45
    i32 -427661841, label %47
  ]

; <label>:18:                                     ; preds = %16
  br label %50

; <label>:19:                                     ; preds = %16
  %20 = load volatile i1, i1* %4
  %21 = load volatile i1, i1* %3
  %22 = and i1 %20, %21
  %23 = xor i1 %20, %21
  %24 = or i1 %22, %23
  %25 = or i1 %20, %21
  %26 = select i1 %24, i32 1295058009, i32 -427661841
  store i32 %26, i32* %15
  br label %50

; <label>:27:                                     ; preds = %16
  %28 = alloca i64*, align 8
  store i64* %0, i64** %28, align 8
  %29 = load i64*, i64** %28, align 8
  store i64* %29, i64** %2
  %30 = load i32, i32* @x.73
  %31 = load i32, i32* @y.74
  %32 = sub i32 %30, -1062312488
  %33 = sub i32 %32, 1
  %34 = add i32 %33, -1062312488
  %35 = sub i32 %30, 1
  %36 = mul i32 %30, %34
  %37 = urem i32 %36, 2
  %38 = icmp eq i32 %37, 0
  %39 = icmp slt i32 %31, 10
  %40 = and i1 %38, %39
  %41 = xor i1 %38, %39
  %42 = or i1 %40, %41
  %43 = or i1 %38, %39
  %44 = select i1 %42, i32 -1035738827, i32 -427661841
  store i32 %44, i32* %15
  br label %50

; <label>:45:                                     ; preds = %16
  %46 = load volatile i64*, i64** %2
  ret i64* %46

; <label>:47:                                     ; preds = %16
  %48 = alloca i64*, align 8
  store i64* %0, i64** %48, align 8
  %49 = load i64*, i64** %48, align 8
  store i32 1295058009, i32* %15
  br label %50

; <label>:50:                                     ; preds = %47, %27, %19, %18
  br label %16
}

; Function Attrs: noinline uwtable
define linkonce_odr void @_ZNSt12_Vector_baseIxSaIxEE13_M_deallocateEPxm(%"struct.std::_Vector_base.6"*, i64*, i64) #0 comdat align 2 {
  %4 = alloca i1
  %5 = alloca %"struct.std::_Vector_base.6"*
  %6 = alloca i64*
  %7 = alloca i64**
  %8 = alloca i1
  %9 = alloca i1
  %10 = load i32, i32* @x.75
  %11 = load i32, i32* @y.76
  %12 = sub i32 0, 1
  %13 = add i32 %10, %12
  %14 = sub i32 %10, 1
  %15 = mul i32 %10, %13
  %16 = urem i32 %15, 2
  %17 = icmp eq i32 %16, 0
  store i1 %17, i1* %9
  %18 = icmp slt i32 %11, 10
  store i1 %18, i1* %8
  %19 = alloca i32
  store i32 -1804042094, i32* %19
  br label %20

; <label>:20:                                     ; preds = %3, %75
  %21 = load i32, i32* %19
  switch i32 %21, label %22 [
    i32 -1804042094, label %23
    i32 89362577, label %31
    i32 1598008377, label %56
    i32 -2133377321, label %59
    i32 -69830941, label %67
    i32 -609460340, label %68
  ]

; <label>:22:                                     ; preds = %20
  br label %75

; <label>:23:                                     ; preds = %20
  %24 = load volatile i1, i1* %9
  %25 = load volatile i1, i1* %8
  %26 = and i1 %24, %25
  %27 = xor i1 %24, %25
  %28 = or i1 %26, %27
  %29 = or i1 %24, %25
  %30 = select i1 %28, i32 89362577, i32 -609460340
  store i32 %30, i32* %19
  br label %75

; <label>:31:                                     ; preds = %20
  %32 = alloca %"struct.std::_Vector_base.6"*, align 8
  %33 = alloca i64*, align 8
  store i64** %33, i64*** %7
  %34 = alloca i64, align 8
  store i64* %34, i64** %6
  store %"struct.std::_Vector_base.6"* %0, %"struct.std::_Vector_base.6"** %32, align 8
  %35 = load volatile i64**, i64*** %7
  store i64* %1, i64** %35, align 8
  %36 = load volatile i64*, i64** %6
  store i64 %2, i64* %36, align 8
  %37 = load %"struct.std::_Vector_base.6"*, %"struct.std::_Vector_base.6"** %32, align 8
  store %"struct.std::_Vector_base.6"* %37, %"struct.std::_Vector_base.6"** %5
  %38 = load volatile i64**, i64*** %7
  %39 = load i64*, i64** %38, align 8
  %40 = icmp ne i64* %39, null
  store i1 %40, i1* %4
  %41 = load i32, i32* @x.75
  %42 = load i32, i32* @y.76
  %43 = add i32 %41, 1161310274
  %44 = sub i32 %43, 1
  %45 = sub i32 %44, 1161310274
  %46 = sub i32 %41, 1
  %47 = mul i32 %41, %45
  %48 = urem i32 %47, 2
  %49 = icmp eq i32 %48, 0
  %50 = icmp slt i32 %42, 10
  %51 = and i1 %49, %50
  %52 = xor i1 %49, %50
  %53 = or i1 %51, %52
  %54 = or i1 %49, %50
  %55 = select i1 %53, i32 1598008377, i32 -609460340
  store i32 %55, i32* %19
  br label %75

; <label>:56:                                     ; preds = %20
  %57 = load volatile i1, i1* %4
  %58 = select i1 %57, i32 -2133377321, i32 -69830941
  store i32 %58, i32* %19
  br label %75

; <label>:59:                                     ; preds = %20
  %60 = load volatile %"struct.std::_Vector_base.6"*, %"struct.std::_Vector_base.6"** %5
  %61 = getelementptr inbounds %"struct.std::_Vector_base.6", %"struct.std::_Vector_base.6"* %60, i32 0, i32 0
  %62 = bitcast %"struct.std::_Vector_base<long long, std::allocator<long long> >::_Vector_impl"* %61 to %"class.std::allocator.7"*
  %63 = load volatile i64**, i64*** %7
  %64 = load i64*, i64** %63, align 8
  %65 = load volatile i64*, i64** %6
  %66 = load i64, i64* %65, align 8
  call void @_ZNSt16allocator_traitsISaIxEE10deallocateERS0_Pxm(%"class.std::allocator.7"* dereferenceable(1) %62, i64* %64, i64 %66)
  store i32 -69830941, i32* %19
  br label %75

; <label>:67:                                     ; preds = %20
  ret void

; <label>:68:                                     ; preds = %20
  %69 = alloca %"struct.std::_Vector_base.6"*, align 8
  %70 = alloca i64*, align 8
  %71 = alloca i64, align 8
  store %"struct.std::_Vector_base.6"* %0, %"struct.std::_Vector_base.6"** %69, align 8
  store i64* %1, i64** %70, align 8
  store i64 %2, i64* %71, align 8
  %72 = load %"struct.std::_Vector_base.6"*, %"struct.std::_Vector_base.6"** %69, align 8
  %73 = load i64*, i64** %70, align 8
  %74 = icmp ne i64* %73, null
  store i32 89362577, i32* %19
  br label %75

; <label>:75:                                     ; preds = %68, %59, %56, %31, %23, %22
  br label %20
}

; Function Attrs: noinline noreturn nounwind
define linkonce_odr hidden void @__clang_call_terminate(i8*) #8 comdat {
  %2 = call i8* @__cxa_begin_catch(i8* %0) #3
  call void @_ZSt9terminatev() #10
  unreachable
}

declare i8* @__cxa_begin_catch(i8*)

declare void @_ZSt9terminatev()

; Function Attrs: noinline uwtable
define linkonce_odr void @_ZNSt16allocator_traitsISaIxEE10deallocateERS0_Pxm(%"class.std::allocator.7"* dereferenceable(1), i64*, i64) #0 comdat align 2 {
  %4 = alloca %"class.std::allocator.7"*, align 8
  %5 = alloca i64*, align 8
  %6 = alloca i64, align 8
  store %"class.std::allocator.7"* %0, %"class.std::allocator.7"** %4, align 8
  store i64* %1, i64** %5, align 8
  store i64 %2, i64* %6, align 8
  %7 = load %"class.std::allocator.7"*, %"class.std::allocator.7"** %4, align 8
  %8 = bitcast %"class.std::allocator.7"* %7 to %"class.__gnu_cxx::new_allocator.8"*
  %9 = load i64*, i64** %5, align 8
  %10 = load i64, i64* %6, align 8
  call void @_ZN9__gnu_cxx13new_allocatorIxE10deallocateEPxm(%"class.__gnu_cxx::new_allocator.8"* %8, i64* %9, i64 %10)
  ret void
}

; Function Attrs: noinline nounwind uwtable
define linkonce_odr void @_ZN9__gnu_cxx13new_allocatorIxE10deallocateEPxm(%"class.__gnu_cxx::new_allocator.8"*, i64*, i64) #5 comdat align 2 {
  %4 = alloca %"class.__gnu_cxx::new_allocator.8"*, align 8
  %5 = alloca i64*, align 8
  %6 = alloca i64, align 8
  store %"class.__gnu_cxx::new_allocator.8"* %0, %"class.__gnu_cxx::new_allocator.8"** %4, align 8
  store i64* %1, i64** %5, align 8
  store i64 %2, i64* %6, align 8
  %7 = load %"class.__gnu_cxx::new_allocator.8"*, %"class.__gnu_cxx::new_allocator.8"** %4, align 8
  %8 = load i64*, i64** %5, align 8
  %9 = bitcast i64* %8 to i8*
  call void @_ZdlPv(i8* %9) #3
  ret void
}

; Function Attrs: nobuiltin nounwind
declare void @_ZdlPv(i8*) #9

; Function Attrs: noinline uwtable
define linkonce_odr void @_ZSt8_DestroyIPxxEvT_S1_RSaIT0_E(i64*, i64*, %"class.std::allocator.7"* dereferenceable(1)) #0 comdat {
  %4 = alloca i1
  %5 = alloca i1
  %6 = load i32, i32* @x.83
  %7 = load i32, i32* @y.84
  %8 = sub i32 %6, -1385929943
  %9 = sub i32 %8, 1
  %10 = add i32 %9, -1385929943
  %11 = sub i32 %6, 1
  %12 = mul i32 %6, %10
  %13 = urem i32 %12, 2
  %14 = icmp eq i32 %13, 0
  store i1 %14, i1* %5
  %15 = icmp slt i32 %7, 10
  store i1 %15, i1* %4
  %16 = alloca i32
  store i32 -912598107, i32* %16
  br label %17

; <label>:17:                                     ; preds = %3, %68
  %18 = load i32, i32* %16
  switch i32 %18, label %19 [
    i32 -912598107, label %20
    i32 -2043684444, label %40
    i32 -964478598, label %61
    i32 -592053955, label %62
  ]

; <label>:19:                                     ; preds = %17
  br label %68

; <label>:20:                                     ; preds = %17
  %21 = load volatile i1, i1* %5
  %22 = load volatile i1, i1* %4
  %23 = xor i1 %21, true
  %24 = xor i1 %22, true
  %25 = xor i1 true, true
  %26 = and i1 %23, true
  %27 = and i1 %21, %25
  %28 = and i1 %24, true
  %29 = and i1 %22, %25
  %30 = or i1 %26, %27
  %31 = or i1 %28, %29
  %32 = xor i1 %30, %31
  %33 = or i1 %23, %24
  %34 = xor i1 %33, true
  %35 = or i1 true, %25
  %36 = and i1 %34, %35
  %37 = or i1 %32, %36
  %38 = or i1 %21, %22
  %39 = select i1 %37, i32 -2043684444, i32 -592053955
  store i32 %39, i32* %16
  br label %68

; <label>:40:                                     ; preds = %17
  %41 = alloca i64*, align 8
  %42 = alloca i64*, align 8
  %43 = alloca %"class.std::allocator.7"*, align 8
  store i64* %0, i64** %41, align 8
  store i64* %1, i64** %42, align 8
  store %"class.std::allocator.7"* %2, %"class.std::allocator.7"** %43, align 8
  %44 = load i64*, i64** %41, align 8
  %45 = load i64*, i64** %42, align 8
  call void @_ZSt8_DestroyIPxEvT_S1_(i64* %44, i64* %45)
  %46 = load i32, i32* @x.83
  %47 = load i32, i32* @y.84
  %48 = add i32 %46, -1773427395
  %49 = sub i32 %48, 1
  %50 = sub i32 %49, -1773427395
  %51 = sub i32 %46, 1
  %52 = mul i32 %46, %50
  %53 = urem i32 %52, 2
  %54 = icmp eq i32 %53, 0
  %55 = icmp slt i32 %47, 10
  %56 = and i1 %54, %55
  %57 = xor i1 %54, %55
  %58 = or i1 %56, %57
  %59 = or i1 %54, %55
  %60 = select i1 %58, i32 -964478598, i32 -592053955
  store i32 %60, i32* %16
  br label %68

; <label>:61:                                     ; preds = %17
  ret void

; <label>:62:                                     ; preds = %17
  %63 = alloca i64*, align 8
  %64 = alloca i64*, align 8
  %65 = alloca %"class.std::allocator.7"*, align 8
  store i64* %0, i64** %63, align 8
  store i64* %1, i64** %64, align 8
  store %"class.std::allocator.7"* %2, %"class.std::allocator.7"** %65, align 8
  %66 = load i64*, i64** %63, align 8
  %67 = load i64*, i64** %64, align 8
  call void @_ZSt8_DestroyIPxEvT_S1_(i64* %66, i64* %67)
  store i32 -2043684444, i32* %16
  br label %68

; <label>:68:                                     ; preds = %62, %40, %20, %19
  br label %17
}

; Function Attrs: noinline uwtable
define linkonce_odr void @_ZSt8_DestroyIPxEvT_S1_(i64*, i64*) #0 comdat {
  %3 = alloca i64*, align 8
  %4 = alloca i64*, align 8
  store i64* %0, i64** %3, align 8
  store i64* %1, i64** %4, align 8
  %5 = load i64*, i64** %3, align 8
  %6 = load i64*, i64** %4, align 8
  call void @_ZNSt12_Destroy_auxILb1EE9__destroyIPxEEvT_S3_(i64* %5, i64* %6)
  ret void
}

; Function Attrs: noinline nounwind uwtable
define linkonce_odr void @_ZNSt12_Destroy_auxILb1EE9__destroyIPxEEvT_S3_(i64*, i64*) #5 comdat align 2 {
  %3 = alloca i64*, align 8
  %4 = alloca i64*, align 8
  store i64* %0, i64** %3, align 8
  store i64* %1, i64** %4, align 8
  ret void
}

; Function Attrs: noinline nounwind uwtable
define linkonce_odr void @_ZN9__gnu_cxx13new_allocatorISt6vectorIxSaIxEEEC2Ev(%"class.__gnu_cxx::new_allocator.3"*) unnamed_addr #5 comdat align 2 {
  %2 = alloca %"class.__gnu_cxx::new_allocator.3"*, align 8
  store %"class.__gnu_cxx::new_allocator.3"* %0, %"class.__gnu_cxx::new_allocator.3"** %2, align 8
  %3 = load %"class.__gnu_cxx::new_allocator.3"*, %"class.__gnu_cxx::new_allocator.3"** %2, align 8
  ret void
}

; Function Attrs: noinline nounwind uwtable
define linkonce_odr void @_ZN9__gnu_cxx13new_allocatorISt6vectorIxSaIxEEED2Ev(%"class.__gnu_cxx::new_allocator.3"*) unnamed_addr #5 comdat align 2 {
  %2 = alloca %"class.__gnu_cxx::new_allocator.3"*, align 8
  store %"class.__gnu_cxx::new_allocator.3"* %0, %"class.__gnu_cxx::new_allocator.3"** %2, align 8
  %3 = load %"class.__gnu_cxx::new_allocator.3"*, %"class.__gnu_cxx::new_allocator.3"** %2, align 8
  ret void
}

; Function Attrs: noinline uwtable
define linkonce_odr void @_ZNSt12_Vector_baseISt6vectorIxSaIxEESaIS2_EEC2EmRKS3_(%"struct.std::_Vector_base.1"*, i64, %"class.std::allocator.2"* dereferenceable(1)) unnamed_addr #0 comdat align 2 personality i8* bitcast (i32 (...)* @__gxx_personality_v0 to i8*) {
  %4 = load i32, i32* @x.93
  %5 = load i32, i32* @y.94
  %6 = add i32 %4, -2032120298
  %7 = sub i32 %6, 1
  %8 = sub i32 %7, -2032120298
  %9 = sub i32 %4, 1
  %10 = mul i32 %4, %8
  %11 = urem i32 %10, 2
  %12 = icmp eq i32 %11, 0
  %13 = icmp slt i32 %5, 10
  %14 = and i1 %12, %13
  %15 = xor i1 %12, %13
  %16 = or i1 %14, %15
  %17 = or i1 %12, %13
  br i1 %16, label %18, label %94

; <label>:18:                                     ; preds = %3, %94
  %19 = alloca %"struct.std::_Vector_base.1"*, align 8
  %20 = alloca i64, align 8
  %21 = alloca %"class.std::allocator.2"*, align 8
  %22 = alloca i8*
  %23 = alloca i32
  store %"struct.std::_Vector_base.1"* %0, %"struct.std::_Vector_base.1"** %19, align 8
  store i64 %1, i64* %20, align 8
  store %"class.std::allocator.2"* %2, %"class.std::allocator.2"** %21, align 8
  %24 = load %"struct.std::_Vector_base.1"*, %"struct.std::_Vector_base.1"** %19, align 8
  %25 = getelementptr inbounds %"struct.std::_Vector_base.1", %"struct.std::_Vector_base.1"* %24, i32 0, i32 0
  %26 = load %"class.std::allocator.2"*, %"class.std::allocator.2"** %21, align 8
  call void @_ZNSt12_Vector_baseISt6vectorIxSaIxEESaIS2_EE12_Vector_implC2ERKS3_(%"struct.std::_Vector_base<std::vector<long long, std::allocator<long long> >, std::allocator<std::vector<long long, std::allocator<long long> > > >::_Vector_impl"* %25, %"class.std::allocator.2"* dereferenceable(1) %26) #3
  %27 = load i64, i64* %20, align 8
  %28 = load i32, i32* @x.93
  %29 = load i32, i32* @y.94
  %30 = add i32 %28, -1416196420
  %31 = sub i32 %30, 1
  %32 = sub i32 %31, -1416196420
  %33 = sub i32 %28, 1
  %34 = mul i32 %28, %32
  %35 = urem i32 %34, 2
  %36 = icmp eq i32 %35, 0
  %37 = icmp slt i32 %29, 10
  %38 = and i1 %36, %37
  %39 = xor i1 %36, %37
  %40 = or i1 %38, %39
  %41 = or i1 %36, %37
  br i1 %40, label %42, label %94

; <label>:42:                                     ; preds = %18
  invoke void @_ZNSt12_Vector_baseISt6vectorIxSaIxEESaIS2_EE17_M_create_storageEm(%"struct.std::_Vector_base.1"* %24, i64 %27)
          to label %43 unwind label %44

; <label>:43:                                     ; preds = %42
  ret void

; <label>:44:                                     ; preds = %42
  %45 = load i32, i32* @x.93
  %46 = load i32, i32* @y.94
  %47 = sub i32 0, 1
  %48 = add i32 %45, %47
  %49 = sub i32 %45, 1
  %50 = mul i32 %45, %48
  %51 = urem i32 %50, 2
  %52 = icmp eq i32 %51, 0
  %53 = icmp slt i32 %46, 10
  %54 = and i1 %52, %53
  %55 = xor i1 %52, %53
  %56 = or i1 %54, %55
  %57 = or i1 %52, %53
  br i1 %56, label %58, label %104

; <label>:58:                                     ; preds = %44, %104
  %59 = landingpad { i8*, i32 }
          cleanup
  %60 = extractvalue { i8*, i32 } %59, 0
  store i8* %60, i8** %22, align 8
  %61 = extractvalue { i8*, i32 } %59, 1
  store i32 %61, i32* %23, align 4
  call void @_ZNSt12_Vector_baseISt6vectorIxSaIxEESaIS2_EE12_Vector_implD2Ev(%"struct.std::_Vector_base<std::vector<long long, std::allocator<long long> >, std::allocator<std::vector<long long, std::allocator<long long> > > >::_Vector_impl"* %25) #3
  %62 = load i32, i32* @x.93
  %63 = load i32, i32* @y.94
  %64 = sub i32 %62, 1720199923
  %65 = sub i32 %64, 1
  %66 = add i32 %65, 1720199923
  %67 = sub i32 %62, 1
  %68 = mul i32 %62, %66
  %69 = urem i32 %68, 2
  %70 = icmp eq i32 %69, 0
  %71 = icmp slt i32 %63, 10
  %72 = xor i1 %70, true
  %73 = xor i1 %71, true
  %74 = xor i1 false, true
  %75 = and i1 %72, false
  %76 = and i1 %70, %74
  %77 = and i1 %73, false
  %78 = and i1 %71, %74
  %79 = or i1 %75, %76
  %80 = or i1 %77, %78
  %81 = xor i1 %79, %80
  %82 = or i1 %72, %73
  %83 = xor i1 %82, true
  %84 = or i1 false, %74
  %85 = and i1 %83, %84
  %86 = or i1 %81, %85
  %87 = or i1 %70, %71
  br i1 %86, label %88, label %104

; <label>:88:                                     ; preds = %58
  br label %89

; <label>:89:                                     ; preds = %88
  %90 = load i8*, i8** %22, align 8
  %91 = load i32, i32* %23, align 4
  %92 = insertvalue { i8*, i32 } undef, i8* %90, 0
  %93 = insertvalue { i8*, i32 } %92, i32 %91, 1
  resume { i8*, i32 } %93

; <label>:94:                                     ; preds = %18, %3
  %95 = alloca %"struct.std::_Vector_base.1"*, align 8
  %96 = alloca i64, align 8
  %97 = alloca %"class.std::allocator.2"*, align 8
  %98 = alloca i8*
  %99 = alloca i32
  store %"struct.std::_Vector_base.1"* %0, %"struct.std::_Vector_base.1"** %95, align 8
  store i64 %1, i64* %96, align 8
  store %"class.std::allocator.2"* %2, %"class.std::allocator.2"** %97, align 8
  %100 = load %"struct.std::_Vector_base.1"*, %"struct.std::_Vector_base.1"** %95, align 8
  %101 = getelementptr inbounds %"struct.std::_Vector_base.1", %"struct.std::_Vector_base.1"* %100, i32 0, i32 0
  %102 = load %"class.std::allocator.2"*, %"class.std::allocator.2"** %97, align 8
  call void @_ZNSt12_Vector_baseISt6vectorIxSaIxEESaIS2_EE12_Vector_implC2ERKS3_(%"struct.std::_Vector_base<std::vector<long long, std::allocator<long long> >, std::allocator<std::vector<long long, std::allocator<long long> > > >::_Vector_impl"* %101, %"class.std::allocator.2"* dereferenceable(1) %102) #3
  %103 = load i64, i64* %96, align 8
  br label %18

; <label>:104:                                    ; preds = %58, %44
  %105 = landingpad { i8*, i32 }
          cleanup
  %106 = extractvalue { i8*, i32 } %105, 0
  store i8* %106, i8** %22, align 8
  %107 = extractvalue { i8*, i32 } %105, 1
  store i32 %107, i32* %23, align 4
  call void @_ZNSt12_Vector_baseISt6vectorIxSaIxEESaIS2_EE12_Vector_implD2Ev(%"struct.std::_Vector_base<std::vector<long long, std::allocator<long long> >, std::allocator<std::vector<long long, std::allocator<long long> > > >::_Vector_impl"* %25) #3
  br label %58
}

; Function Attrs: noinline uwtable
define linkonce_odr void @_ZNSt6vectorIS_IxSaIxEESaIS1_EE18_M_fill_initializeEmRKS1_(%"class.std::vector.0"*, i64, %"class.std::vector.5"* dereferenceable(24)) #0 comdat align 2 {
  %4 = alloca i1
  %5 = alloca i1
  %6 = load i32, i32* @x.95
  %7 = load i32, i32* @y.96
  %8 = sub i32 0, 1
  %9 = add i32 %6, %8
  %10 = sub i32 %6, 1
  %11 = mul i32 %6, %9
  %12 = urem i32 %11, 2
  %13 = icmp eq i32 %12, 0
  store i1 %13, i1* %5
  %14 = icmp slt i32 %7, 10
  store i1 %14, i1* %4
  %15 = alloca i32
  store i32 -1458362624, i32* %15
  br label %16

; <label>:16:                                     ; preds = %3, %77
  %17 = load i32, i32* %15
  switch i32 %17, label %18 [
    i32 -1458362624, label %19
    i32 746024, label %27
    i32 1605593864, label %59
    i32 1136263559, label %60
  ]

; <label>:18:                                     ; preds = %16
  br label %77

; <label>:19:                                     ; preds = %16
  %20 = load volatile i1, i1* %5
  %21 = load volatile i1, i1* %4
  %22 = and i1 %20, %21
  %23 = xor i1 %20, %21
  %24 = or i1 %22, %23
  %25 = or i1 %20, %21
  %26 = select i1 %24, i32 746024, i32 1136263559
  store i32 %26, i32* %15
  br label %77

; <label>:27:                                     ; preds = %16
  %28 = alloca %"class.std::vector.0"*, align 8
  %29 = alloca i64, align 8
  %30 = alloca %"class.std::vector.5"*, align 8
  store %"class.std::vector.0"* %0, %"class.std::vector.0"** %28, align 8
  store i64 %1, i64* %29, align 8
  store %"class.std::vector.5"* %2, %"class.std::vector.5"** %30, align 8
  %31 = load %"class.std::vector.0"*, %"class.std::vector.0"** %28, align 8
  %32 = bitcast %"class.std::vector.0"* %31 to %"struct.std::_Vector_base.1"*
  %33 = getelementptr inbounds %"struct.std::_Vector_base.1", %"struct.std::_Vector_base.1"* %32, i32 0, i32 0
  %34 = getelementptr inbounds %"struct.std::_Vector_base<std::vector<long long, std::allocator<long long> >, std::allocator<std::vector<long long, std::allocator<long long> > > >::_Vector_impl", %"struct.std::_Vector_base<std::vector<long long, std::allocator<long long> >, std::allocator<std::vector<long long, std::allocator<long long> > > >::_Vector_impl"* %33, i32 0, i32 0
  %35 = load %"class.std::vector.5"*, %"class.std::vector.5"** %34, align 8
  %36 = load i64, i64* %29, align 8
  %37 = load %"class.std::vector.5"*, %"class.std::vector.5"** %30, align 8
  %38 = bitcast %"class.std::vector.0"* %31 to %"struct.std::_Vector_base.1"*
  %39 = call dereferenceable(1) %"class.std::allocator.2"* @_ZNSt12_Vector_baseISt6vectorIxSaIxEESaIS2_EE19_M_get_Tp_allocatorEv(%"struct.std::_Vector_base.1"* %38) #3
  %40 = call %"class.std::vector.5"* @_ZSt24__uninitialized_fill_n_aIPSt6vectorIxSaIxEEmS2_S2_ET_S4_T0_RKT1_RSaIT2_E(%"class.std::vector.5"* %35, i64 %36, %"class.std::vector.5"* dereferenceable(24) %37, %"class.std::allocator.2"* dereferenceable(1) %39)
  %41 = bitcast %"class.std::vector.0"* %31 to %"struct.std::_Vector_base.1"*
  %42 = getelementptr inbounds %"struct.std::_Vector_base.1", %"struct.std::_Vector_base.1"* %41, i32 0, i32 0
  %43 = getelementptr inbounds %"struct.std::_Vector_base<std::vector<long long, std::allocator<long long> >, std::allocator<std::vector<long long, std::allocator<long long> > > >::_Vector_impl", %"struct.std::_Vector_base<std::vector<long long, std::allocator<long long> >, std::allocator<std::vector<long long, std::allocator<long long> > > >::_Vector_impl"* %42, i32 0, i32 1
  store %"class.std::vector.5"* %40, %"class.std::vector.5"** %43, align 8
  %44 = load i32, i32* @x.95
  %45 = load i32, i32* @y.96
  %46 = add i32 %44, -1536305138
  %47 = sub i32 %46, 1
  %48 = sub i32 %47, -1536305138
  %49 = sub i32 %44, 1
  %50 = mul i32 %44, %48
  %51 = urem i32 %50, 2
  %52 = icmp eq i32 %51, 0
  %53 = icmp slt i32 %45, 10
  %54 = and i1 %52, %53
  %55 = xor i1 %52, %53
  %56 = or i1 %54, %55
  %57 = or i1 %52, %53
  %58 = select i1 %56, i32 1605593864, i32 1136263559
  store i32 %58, i32* %15
  br label %77

; <label>:59:                                     ; preds = %16
  ret void

; <label>:60:                                     ; preds = %16
  %61 = alloca %"class.std::vector.0"*, align 8
  %62 = alloca i64, align 8
  %63 = alloca %"class.std::vector.5"*, align 8
  store %"class.std::vector.0"* %0, %"class.std::vector.0"** %61, align 8
  store i64 %1, i64* %62, align 8
  store %"class.std::vector.5"* %2, %"class.std::vector.5"** %63, align 8
  %64 = load %"class.std::vector.0"*, %"class.std::vector.0"** %61, align 8
  %65 = bitcast %"class.std::vector.0"* %64 to %"struct.std::_Vector_base.1"*
  %66 = getelementptr inbounds %"struct.std::_Vector_base.1", %"struct.std::_Vector_base.1"* %65, i32 0, i32 0
  %67 = getelementptr inbounds %"struct.std::_Vector_base<std::vector<long long, std::allocator<long long> >, std::allocator<std::vector<long long, std::allocator<long long> > > >::_Vector_impl", %"struct.std::_Vector_base<std::vector<long long, std::allocator<long long> >, std::allocator<std::vector<long long, std::allocator<long long> > > >::_Vector_impl"* %66, i32 0, i32 0
  %68 = load %"class.std::vector.5"*, %"class.std::vector.5"** %67, align 8
  %69 = load i64, i64* %62, align 8
  %70 = load %"class.std::vector.5"*, %"class.std::vector.5"** %63, align 8
  %71 = bitcast %"class.std::vector.0"* %64 to %"struct.std::_Vector_base.1"*
  %72 = call dereferenceable(1) %"class.std::allocator.2"* @_ZNSt12_Vector_baseISt6vectorIxSaIxEESaIS2_EE19_M_get_Tp_allocatorEv(%"struct.std::_Vector_base.1"* %71) #3
  %73 = call %"class.std::vector.5"* @_ZSt24__uninitialized_fill_n_aIPSt6vectorIxSaIxEEmS2_S2_ET_S4_T0_RKT1_RSaIT2_E(%"class.std::vector.5"* %68, i64 %69, %"class.std::vector.5"* dereferenceable(24) %70, %"class.std::allocator.2"* dereferenceable(1) %72)
  %74 = bitcast %"class.std::vector.0"* %64 to %"struct.std::_Vector_base.1"*
  %75 = getelementptr inbounds %"struct.std::_Vector_base.1", %"struct.std::_Vector_base.1"* %74, i32 0, i32 0
  %76 = getelementptr inbounds %"struct.std::_Vector_base<std::vector<long long, std::allocator<long long> >, std::allocator<std::vector<long long, std::allocator<long long> > > >::_Vector_impl", %"struct.std::_Vector_base<std::vector<long long, std::allocator<long long> >, std::allocator<std::vector<long long, std::allocator<long long> > > >::_Vector_impl"* %75, i32 0, i32 1
  store %"class.std::vector.5"* %73, %"class.std::vector.5"** %76, align 8
  store i32 746024, i32* %15
  br label %77

; <label>:77:                                     ; preds = %60, %27, %19, %18
  br label %16
}

; Function Attrs: noinline nounwind uwtable
define linkonce_odr void @_ZNSt12_Vector_baseISt6vectorIxSaIxEESaIS2_EED2Ev(%"struct.std::_Vector_base.1"*) unnamed_addr #5 comdat align 2 personality i8* bitcast (i32 (...)* @__gxx_personality_v0 to i8*) {
  %2 = load i32, i32* @x.97
  %3 = load i32, i32* @y.98
  %4 = add i32 %2, -1781594343
  %5 = sub i32 %4, 1
  %6 = sub i32 %5, -1781594343
  %7 = sub i32 %2, 1
  %8 = mul i32 %2, %6
  %9 = urem i32 %8, 2
  %10 = icmp eq i32 %9, 0
  %11 = icmp slt i32 %3, 10
  %12 = and i1 %10, %11
  %13 = xor i1 %10, %11
  %14 = or i1 %12, %13
  %15 = or i1 %10, %11
  br i1 %14, label %16, label %101

; <label>:16:                                     ; preds = %1, %101
  %17 = alloca %"struct.std::_Vector_base.1"*, align 8
  %18 = alloca i8*
  %19 = alloca i32
  store %"struct.std::_Vector_base.1"* %0, %"struct.std::_Vector_base.1"** %17, align 8
  %20 = load %"struct.std::_Vector_base.1"*, %"struct.std::_Vector_base.1"** %17, align 8
  %21 = getelementptr inbounds %"struct.std::_Vector_base.1", %"struct.std::_Vector_base.1"* %20, i32 0, i32 0
  %22 = getelementptr inbounds %"struct.std::_Vector_base<std::vector<long long, std::allocator<long long> >, std::allocator<std::vector<long long, std::allocator<long long> > > >::_Vector_impl", %"struct.std::_Vector_base<std::vector<long long, std::allocator<long long> >, std::allocator<std::vector<long long, std::allocator<long long> > > >::_Vector_impl"* %21, i32 0, i32 0
  %23 = load %"class.std::vector.5"*, %"class.std::vector.5"** %22, align 8
  %24 = getelementptr inbounds %"struct.std::_Vector_base.1", %"struct.std::_Vector_base.1"* %20, i32 0, i32 0
  %25 = getelementptr inbounds %"struct.std::_Vector_base<std::vector<long long, std::allocator<long long> >, std::allocator<std::vector<long long, std::allocator<long long> > > >::_Vector_impl", %"struct.std::_Vector_base<std::vector<long long, std::allocator<long long> >, std::allocator<std::vector<long long, std::allocator<long long> > > >::_Vector_impl"* %24, i32 0, i32 2
  %26 = load %"class.std::vector.5"*, %"class.std::vector.5"** %25, align 8
  %27 = getelementptr inbounds %"struct.std::_Vector_base.1", %"struct.std::_Vector_base.1"* %20, i32 0, i32 0
  %28 = getelementptr inbounds %"struct.std::_Vector_base<std::vector<long long, std::allocator<long long> >, std::allocator<std::vector<long long, std::allocator<long long> > > >::_Vector_impl", %"struct.std::_Vector_base<std::vector<long long, std::allocator<long long> >, std::allocator<std::vector<long long, std::allocator<long long> > > >::_Vector_impl"* %27, i32 0, i32 0
  %29 = load %"class.std::vector.5"*, %"class.std::vector.5"** %28, align 8
  %30 = ptrtoint %"class.std::vector.5"* %26 to i64
  %31 = ptrtoint %"class.std::vector.5"* %29 to i64
  %32 = sub i64 0, %31
  %33 = add i64 %30, %32
  %34 = sub i64 %30, %31
  %35 = sdiv exact i64 %33, 24
  %36 = load i32, i32* @x.97
  %37 = load i32, i32* @y.98
  %38 = sub i32 %36, 796098325
  %39 = sub i32 %38, 1
  %40 = add i32 %39, 796098325
  %41 = sub i32 %36, 1
  %42 = mul i32 %36, %40
  %43 = urem i32 %42, 2
  %44 = icmp eq i32 %43, 0
  %45 = icmp slt i32 %37, 10
  %46 = and i1 %44, %45
  %47 = xor i1 %44, %45
  %48 = or i1 %46, %47
  %49 = or i1 %44, %45
  br i1 %48, label %50, label %101

; <label>:50:                                     ; preds = %16
  invoke void @_ZNSt12_Vector_baseISt6vectorIxSaIxEESaIS2_EE13_M_deallocateEPS2_m(%"struct.std::_Vector_base.1"* %20, %"class.std::vector.5"* %23, i64 %35)
          to label %51 unwind label %94

; <label>:51:                                     ; preds = %50
  %52 = load i32, i32* @x.97
  %53 = load i32, i32* @y.98
  %54 = sub i32 0, 1
  %55 = add i32 %52, %54
  %56 = sub i32 %52, 1
  %57 = mul i32 %52, %55
  %58 = urem i32 %57, 2
  %59 = icmp eq i32 %58, 0
  %60 = icmp slt i32 %53, 10
  %61 = and i1 %59, %60
  %62 = xor i1 %59, %60
  %63 = or i1 %61, %62
  %64 = or i1 %59, %60
  br i1 %63, label %65, label %145

; <label>:65:                                     ; preds = %51, %145
  %66 = getelementptr inbounds %"struct.std::_Vector_base.1", %"struct.std::_Vector_base.1"* %20, i32 0, i32 0
  call void @_ZNSt12_Vector_baseISt6vectorIxSaIxEESaIS2_EE12_Vector_implD2Ev(%"struct.std::_Vector_base<std::vector<long long, std::allocator<long long> >, std::allocator<std::vector<long long, std::allocator<long long> > > >::_Vector_impl"* %66) #3
  %67 = load i32, i32* @x.97
  %68 = load i32, i32* @y.98
  %69 = add i32 %67, -863030422
  %70 = sub i32 %69, 1
  %71 = sub i32 %70, -863030422
  %72 = sub i32 %67, 1
  %73 = mul i32 %67, %71
  %74 = urem i32 %73, 2
  %75 = icmp eq i32 %74, 0
  %76 = icmp slt i32 %68, 10
  %77 = xor i1 %75, true
  %78 = xor i1 %76, true
  %79 = xor i1 true, true
  %80 = and i1 %77, true
  %81 = and i1 %75, %79
  %82 = and i1 %78, true
  %83 = and i1 %76, %79
  %84 = or i1 %80, %81
  %85 = or i1 %82, %83
  %86 = xor i1 %84, %85
  %87 = or i1 %77, %78
  %88 = xor i1 %87, true
  %89 = or i1 true, %79
  %90 = and i1 %88, %89
  %91 = or i1 %86, %90
  %92 = or i1 %75, %76
  br i1 %91, label %93, label %145

; <label>:93:                                     ; preds = %65
  ret void

; <label>:94:                                     ; preds = %50
  %95 = landingpad { i8*, i32 }
          catch i8* null
  %96 = extractvalue { i8*, i32 } %95, 0
  store i8* %96, i8** %18, align 8
  %97 = extractvalue { i8*, i32 } %95, 1
  store i32 %97, i32* %19, align 4
  %98 = getelementptr inbounds %"struct.std::_Vector_base.1", %"struct.std::_Vector_base.1"* %20, i32 0, i32 0
  call void @_ZNSt12_Vector_baseISt6vectorIxSaIxEESaIS2_EE12_Vector_implD2Ev(%"struct.std::_Vector_base<std::vector<long long, std::allocator<long long> >, std::allocator<std::vector<long long, std::allocator<long long> > > >::_Vector_impl"* %98) #3
  br label %99

; <label>:99:                                     ; preds = %94
  %100 = load i8*, i8** %18, align 8
  call void @__clang_call_terminate(i8* %100) #10
  unreachable

; <label>:101:                                    ; preds = %16, %1
  %102 = alloca %"struct.std::_Vector_base.1"*, align 8
  %103 = alloca i8*
  %104 = alloca i32
  store %"struct.std::_Vector_base.1"* %0, %"struct.std::_Vector_base.1"** %102, align 8
  %105 = load %"struct.std::_Vector_base.1"*, %"struct.std::_Vector_base.1"** %102, align 8
  %106 = getelementptr inbounds %"struct.std::_Vector_base.1", %"struct.std::_Vector_base.1"* %105, i32 0, i32 0
  %107 = getelementptr inbounds %"struct.std::_Vector_base<std::vector<long long, std::allocator<long long> >, std::allocator<std::vector<long long, std::allocator<long long> > > >::_Vector_impl", %"struct.std::_Vector_base<std::vector<long long, std::allocator<long long> >, std::allocator<std::vector<long long, std::allocator<long long> > > >::_Vector_impl"* %106, i32 0, i32 0
  %108 = load %"class.std::vector.5"*, %"class.std::vector.5"** %107, align 8
  %109 = getelementptr inbounds %"struct.std::_Vector_base.1", %"struct.std::_Vector_base.1"* %105, i32 0, i32 0
  %110 = getelementptr inbounds %"struct.std::_Vector_base<std::vector<long long, std::allocator<long long> >, std::allocator<std::vector<long long, std::allocator<long long> > > >::_Vector_impl", %"struct.std::_Vector_base<std::vector<long long, std::allocator<long long> >, std::allocator<std::vector<long long, std::allocator<long long> > > >::_Vector_impl"* %109, i32 0, i32 2
  %111 = load %"class.std::vector.5"*, %"class.std::vector.5"** %110, align 8
  %112 = getelementptr inbounds %"struct.std::_Vector_base.1", %"struct.std::_Vector_base.1"* %105, i32 0, i32 0
  %113 = getelementptr inbounds %"struct.std::_Vector_base<std::vector<long long, std::allocator<long long> >, std::allocator<std::vector<long long, std::allocator<long long> > > >::_Vector_impl", %"struct.std::_Vector_base<std::vector<long long, std::allocator<long long> >, std::allocator<std::vector<long long, std::allocator<long long> > > >::_Vector_impl"* %112, i32 0, i32 0
  %114 = load %"class.std::vector.5"*, %"class.std::vector.5"** %113, align 8
  %115 = ptrtoint %"class.std::vector.5"* %111 to i64
  %116 = ptrtoint %"class.std::vector.5"* %114 to i64
  %117 = shl i64 %115, %116
  %118 = sub i64 0, -8346731061752994649
  %119 = sub i64 %118, %115
  %120 = add i64 %119, -8346731061752994649
  %121 = sub i64 0, %115
  %122 = sub i64 0, %120
  %123 = sub i64 0, %116
  %124 = add i64 %122, %123
  %125 = sub i64 0, %124
  %126 = add i64 %120, %116
  %127 = add i64 %115, -5482030757693231272
  %128 = sub i64 %127, %116
  %129 = sub i64 %128, -5482030757693231272
  %130 = sub i64 %115, %116
  %131 = sub i64 %129, 3358649010250353828
  %132 = sub i64 %131, 24
  %133 = add i64 %132, 3358649010250353828
  %134 = sub i64 %129, 24
  %135 = mul i64 %133, 24
  %136 = sub i64 0, %129
  %137 = add i64 0, %136
  %138 = sub i64 0, %129
  %139 = sub i64 %137, -1051104861588629242
  %140 = add i64 %139, 24
  %141 = add i64 %140, -1051104861588629242
  %142 = add i64 %137, 24
  %143 = shl i64 %129, 24
  %144 = sdiv exact i64 %129, 24
  br label %16

; <label>:145:                                    ; preds = %65, %51
  %146 = getelementptr inbounds %"struct.std::_Vector_base.1", %"struct.std::_Vector_base.1"* %20, i32 0, i32 0
  call void @_ZNSt12_Vector_baseISt6vectorIxSaIxEESaIS2_EE12_Vector_implD2Ev(%"struct.std::_Vector_base<std::vector<long long, std::allocator<long long> >, std::allocator<std::vector<long long, std::allocator<long long> > > >::_Vector_impl"* %146) #3
  br label %65
}

; Function Attrs: noinline nounwind uwtable
define linkonce_odr void @_ZNSt12_Vector_baseISt6vectorIxSaIxEESaIS2_EE12_Vector_implC2ERKS3_(%"struct.std::_Vector_base<std::vector<long long, std::allocator<long long> >, std::allocator<std::vector<long long, std::allocator<long long> > > >::_Vector_impl"*, %"class.std::allocator.2"* dereferenceable(1)) unnamed_addr #5 comdat align 2 {
  %3 = alloca %"struct.std::_Vector_base<std::vector<long long, std::allocator<long long> >, std::allocator<std::vector<long long, std::allocator<long long> > > >::_Vector_impl"*, align 8
  %4 = alloca %"class.std::allocator.2"*, align 8
  store %"struct.std::_Vector_base<std::vector<long long, std::allocator<long long> >, std::allocator<std::vector<long long, std::allocator<long long> > > >::_Vector_impl"* %0, %"struct.std::_Vector_base<std::vector<long long, std::allocator<long long> >, std::allocator<std::vector<long long, std::allocator<long long> > > >::_Vector_impl"** %3, align 8
  store %"class.std::allocator.2"* %1, %"class.std::allocator.2"** %4, align 8
  %5 = load %"struct.std::_Vector_base<std::vector<long long, std::allocator<long long> >, std::allocator<std::vector<long long, std::allocator<long long> > > >::_Vector_impl"*, %"struct.std::_Vector_base<std::vector<long long, std::allocator<long long> >, std::allocator<std::vector<long long, std::allocator<long long> > > >::_Vector_impl"** %3, align 8
  %6 = bitcast %"struct.std::_Vector_base<std::vector<long long, std::allocator<long long> >, std::allocator<std::vector<long long, std::allocator<long long> > > >::_Vector_impl"* %5 to %"class.std::allocator.2"*
  %7 = load %"class.std::allocator.2"*, %"class.std::allocator.2"** %4, align 8
  call void @_ZNSaISt6vectorIxSaIxEEEC2ERKS2_(%"class.std::allocator.2"* %6, %"class.std::allocator.2"* dereferenceable(1) %7) #3
  %8 = getelementptr inbounds %"struct.std::_Vector_base<std::vector<long long, std::allocator<long long> >, std::allocator<std::vector<long long, std::allocator<long long> > > >::_Vector_impl", %"struct.std::_Vector_base<std::vector<long long, std::allocator<long long> >, std::allocator<std::vector<long long, std::allocator<long long> > > >::_Vector_impl"* %5, i32 0, i32 0
  store %"class.std::vector.5"* null, %"class.std::vector.5"** %8, align 8
  %9 = getelementptr inbounds %"struct.std::_Vector_base<std::vector<long long, std::allocator<long long> >, std::allocator<std::vector<long long, std::allocator<long long> > > >::_Vector_impl", %"struct.std::_Vector_base<std::vector<long long, std::allocator<long long> >, std::allocator<std::vector<long long, std::allocator<long long> > > >::_Vector_impl"* %5, i32 0, i32 1
  store %"class.std::vector.5"* null, %"class.std::vector.5"** %9, align 8
  %10 = getelementptr inbounds %"struct.std::_Vector_base<std::vector<long long, std::allocator<long long> >, std::allocator<std::vector<long long, std::allocator<long long> > > >::_Vector_impl", %"struct.std::_Vector_base<std::vector<long long, std::allocator<long long> >, std::allocator<std::vector<long long, std::allocator<long long> > > >::_Vector_impl"* %5, i32 0, i32 2
  store %"class.std::vector.5"* null, %"class.std::vector.5"** %10, align 8
  ret void
}

; Function Attrs: noinline uwtable
define linkonce_odr void @_ZNSt12_Vector_baseISt6vectorIxSaIxEESaIS2_EE17_M_create_storageEm(%"struct.std::_Vector_base.1"*, i64) #0 comdat align 2 {
  %3 = alloca %"struct.std::_Vector_base.1"*, align 8
  %4 = alloca i64, align 8
  store %"struct.std::_Vector_base.1"* %0, %"struct.std::_Vector_base.1"** %3, align 8
  store i64 %1, i64* %4, align 8
  %5 = load %"struct.std::_Vector_base.1"*, %"struct.std::_Vector_base.1"** %3, align 8
  %6 = load i64, i64* %4, align 8
  %7 = call %"class.std::vector.5"* @_ZNSt12_Vector_baseISt6vectorIxSaIxEESaIS2_EE11_M_allocateEm(%"struct.std::_Vector_base.1"* %5, i64 %6)
  %8 = getelementptr inbounds %"struct.std::_Vector_base.1", %"struct.std::_Vector_base.1"* %5, i32 0, i32 0
  %9 = getelementptr inbounds %"struct.std::_Vector_base<std::vector<long long, std::allocator<long long> >, std::allocator<std::vector<long long, std::allocator<long long> > > >::_Vector_impl", %"struct.std::_Vector_base<std::vector<long long, std::allocator<long long> >, std::allocator<std::vector<long long, std::allocator<long long> > > >::_Vector_impl"* %8, i32 0, i32 0
  store %"class.std::vector.5"* %7, %"class.std::vector.5"** %9, align 8
  %10 = getelementptr inbounds %"struct.std::_Vector_base.1", %"struct.std::_Vector_base.1"* %5, i32 0, i32 0
  %11 = getelementptr inbounds %"struct.std::_Vector_base<std::vector<long long, std::allocator<long long> >, std::allocator<std::vector<long long, std::allocator<long long> > > >::_Vector_impl", %"struct.std::_Vector_base<std::vector<long long, std::allocator<long long> >, std::allocator<std::vector<long long, std::allocator<long long> > > >::_Vector_impl"* %10, i32 0, i32 0
  %12 = load %"class.std::vector.5"*, %"class.std::vector.5"** %11, align 8
  %13 = getelementptr inbounds %"struct.std::_Vector_base.1", %"struct.std::_Vector_base.1"* %5, i32 0, i32 0
  %14 = getelementptr inbounds %"struct.std::_Vector_base<std::vector<long long, std::allocator<long long> >, std::allocator<std::vector<long long, std::allocator<long long> > > >::_Vector_impl", %"struct.std::_Vector_base<std::vector<long long, std::allocator<long long> >, std::allocator<std::vector<long long, std::allocator<long long> > > >::_Vector_impl"* %13, i32 0, i32 1
  store %"class.std::vector.5"* %12, %"class.std::vector.5"** %14, align 8
  %15 = getelementptr inbounds %"struct.std::_Vector_base.1", %"struct.std::_Vector_base.1"* %5, i32 0, i32 0
