; ModuleID = 'mapping_q.cc'
source_filename = "mapping_q.cc"
target datalayout = "e-m:e-i64:64-f80:128-n8:16:32:64-S128"
target triple = "x86_64-unknown-linux-gnu"

%class.StraightBoundary = type { %class.Boundary }
%class.Boundary = type { %class.Subscriptor }
%class.Subscriptor = type { i32 (...)**, i32, %"class.std::type_info"* }
%"class.std::type_info" = type { i32 (...)**, i8* }
%class.MappingQ = type { %class.MappingQ1, %class.Table, %class.Table, i32, i32, i32, %class.TensorProductPolynomials*, i32, %"class.std::vector.5" }
%class.MappingQ1 = type { %class.Mapping }
%class.Mapping = type { %class.Subscriptor }
%class.Table = type { %class.TableBase.base, [4 x i8] }
%class.TableBase.base = type <{ %class.Subscriptor, double*, i32, %class.TableIndices }>
%class.TableIndices = type { %class.TableIndicesBase }
%class.TableIndicesBase = type { [2 x i32] }
%class.TensorProductPolynomials = type { %"class.std::vector", i32, %"class.std::vector.5", %"class.std::vector.5" }
%"class.std::vector" = type { %"struct.std::_Vector_base" }
%"struct.std::_Vector_base" = type { %"struct.std::_Vector_base<Polynomials::Polynomial<double>, std::allocator<Polynomials::Polynomial<double> > >::_Vector_impl" }
%"struct.std::_Vector_base<Polynomials::Polynomial<double>, std::allocator<Polynomials::Polynomial<double> > >::_Vector_impl" = type { %"struct.std::_Vector_base<Polynomials::Polynomial<double>, std::allocator<Polynomials::Polynomial<double> > >::_Vector_impl_data" }
%"struct.std::_Vector_base<Polynomials::Polynomial<double>, std::allocator<Polynomials::Polynomial<double> > >::_Vector_impl_data" = type { %"class.Polynomials::Polynomial"*, %"class.Polynomials::Polynomial"*, %"class.Polynomials::Polynomial"* }
%"class.Polynomials::Polynomial" = type { %class.Subscriptor, %"class.std::vector.0" }
%"class.std::vector.0" = type { %"struct.std::_Vector_base.1" }
%"struct.std::_Vector_base.1" = type { %"struct.std::_Vector_base<double, std::allocator<double> >::_Vector_impl" }
%"struct.std::_Vector_base<double, std::allocator<double> >::_Vector_impl" = type { %"struct.std::_Vector_base<double, std::allocator<double> >::_Vector_impl_data" }
%"struct.std::_Vector_base<double, std::allocator<double> >::_Vector_impl_data" = type { double*, double*, double* }
%"class.std::vector.5" = type { %"struct.std::_Vector_base.6" }
%"struct.std::_Vector_base.6" = type { %"struct.std::_Vector_base<unsigned int, std::allocator<unsigned int> >::_Vector_impl" }
%"struct.std::_Vector_base<unsigned int, std::allocator<unsigned int> >::_Vector_impl" = type { %"struct.std::_Vector_base<unsigned int, std::allocator<unsigned int> >::_Vector_impl_data" }
%"struct.std::_Vector_base<unsigned int, std::allocator<unsigned int> >::_Vector_impl_data" = type { i32*, i32*, i32* }
%"class.MappingQ<3>::InternalData" = type { %"class.MappingQ1<3>::InternalData", %"class.std::vector.129", i8, %"class.MappingQ1<3>::InternalData" }
%"class.std::vector.129" = type { %"struct.std::_Vector_base.130" }
%"struct.std::_Vector_base.130" = type { %"struct.std::_Vector_base<std::vector<Point<3>, std::allocator<Point<3> > >, std::allocator<std::vector<Point<3>, std::allocator<Point<3> > > > >::_Vector_impl" }
%"struct.std::_Vector_base<std::vector<Point<3>, std::allocator<Point<3> > >, std::allocator<std::vector<Point<3>, std::allocator<Point<3> > > > >::_Vector_impl" = type { %"struct.std::_Vector_base<std::vector<Point<3>, std::allocator<Point<3> > >, std::allocator<std::vector<Point<3>, std::allocator<Point<3> > > > >::_Vector_impl_data" }
%"struct.std::_Vector_base<std::vector<Point<3>, std::allocator<Point<3> > >, std::allocator<std::vector<Point<3>, std::allocator<Point<3> > > > >::_Vector_impl_data" = type { %"class.std::vector.58"*, %"class.std::vector.58"*, %"class.std::vector.58"* }
%"class.std::vector.58" = type { %"struct.std::_Vector_base.59" }
%"struct.std::_Vector_base.59" = type { %"struct.std::_Vector_base<Point<3>, std::allocator<Point<3> > >::_Vector_impl" }
%"struct.std::_Vector_base<Point<3>, std::allocator<Point<3> > >::_Vector_impl" = type { %"struct.std::_Vector_base<Point<3>, std::allocator<Point<3> > >::_Vector_impl_data" }
%"struct.std::_Vector_base<Point<3>, std::allocator<Point<3> > >::_Vector_impl_data" = type { %class.Point*, %class.Point*, %class.Point* }
%class.Point = type { %class.Tensor }
%class.Tensor = type { [3 x double] }
%"class.MappingQ1<3>::InternalData" = type { %"class.Mapping<3>::InternalDataBase.base", %"class.std::vector.0", %"class.std::vector.103", %"class.std::vector.108", %"class.std::vector.108", %class.Table.114, %class.Table.114, %"class.std::vector.58", %class.TriaIterator.118, i8, i32 }
%"class.Mapping<3>::InternalDataBase.base" = type <{ %class.Subscriptor, i32, i32, i32, i8 }>
%"class.std::vector.103" = type { %"struct.std::_Vector_base.104" }
%"struct.std::_Vector_base.104" = type { %"struct.std::_Vector_base<Tensor<1, 3>, std::allocator<Tensor<1, 3> > >::_Vector_impl" }
%"struct.std::_Vector_base<Tensor<1, 3>, std::allocator<Tensor<1, 3> > >::_Vector_impl" = type { %"struct.std::_Vector_base<Tensor<1, 3>, std::allocator<Tensor<1, 3> > >::_Vector_impl_data" }
%"struct.std::_Vector_base<Tensor<1, 3>, std::allocator<Tensor<1, 3> > >::_Vector_impl_data" = type { %class.Tensor*, %class.Tensor*, %class.Tensor* }
%"class.std::vector.108" = type { %"struct.std::_Vector_base.109" }
%"struct.std::_Vector_base.109" = type { %"struct.std::_Vector_base<Tensor<2, 3>, std::allocator<Tensor<2, 3> > >::_Vector_impl" }
%"struct.std::_Vector_base<Tensor<2, 3>, std::allocator<Tensor<2, 3> > >::_Vector_impl" = type { %"struct.std::_Vector_base<Tensor<2, 3>, std::allocator<Tensor<2, 3> > >::_Vector_impl_data" }
%"struct.std::_Vector_base<Tensor<2, 3>, std::allocator<Tensor<2, 3> > >::_Vector_impl_data" = type { %class.Tensor.113*, %class.Tensor.113*, %class.Tensor.113* }
%class.Tensor.113 = type { [3 x %class.Tensor] }
%class.Table.114 = type { %class.TableBase.base.116, [4 x i8] }
%class.TableBase.base.116 = type <{ %class.Subscriptor, %class.Tensor*, i32, %class.TableIndices }>
%class.TriaIterator.118 = type { %class.TriaRawIterator.119 }
%class.TriaRawIterator.119 = type { %class.DoFCellAccessor }
%class.DoFCellAccessor = type { %class.DoFObjectAccessor }
%class.DoFObjectAccessor = type { %class.DoFAccessor, %class.CellAccessor }
%class.DoFAccessor = type { %class.DoFHandler* }
%class.DoFHandler = type { %class.Subscriptor, %class.SmartPointer, %class.SmartPointer.121, %"class.std::vector.122", i32, %"class.std::vector.5" }
%class.SmartPointer = type { %class.Triangulation* }
%class.Triangulation = type { %class.Subscriptor, %"class.std::vector.10", %"class.std::vector.58", %"class.std::vector.18", [255 x %class.Boundary*], i32, %struct.TriaNumberCache }
%"class.std::vector.10" = type { %"struct.std::_Vector_base.11" }
%"struct.std::_Vector_base.11" = type { %"struct.std::_Vector_base<TriangulationLevel<3> *, std::allocator<TriangulationLevel<3> *> >::_Vector_impl" }
%"struct.std::_Vector_base<TriangulationLevel<3> *, std::allocator<TriangulationLevel<3> *> >::_Vector_impl" = type { %"struct.std::_Vector_base<TriangulationLevel<3> *, std::allocator<TriangulationLevel<3> *> >::_Vector_impl_data" }
%"struct.std::_Vector_base<TriangulationLevel<3> *, std::allocator<TriangulationLevel<3> *> >::_Vector_impl_data" = type { %class.TriangulationLevel**, %class.TriangulationLevel**, %class.TriangulationLevel** }
%class.TriangulationLevel = type { %class.TriangulationLevel.15, %"struct.TriangulationLevel<3>::HexesData" }
%class.TriangulationLevel.15 = type { %class.TriangulationLevel.16, %"struct.TriangulationLevel<2>::QuadsData" }
%class.TriangulationLevel.16 = type { %class.TriangulationLevel.17, %"struct.TriangulationLevel<1>::LinesData" }
%class.TriangulationLevel.17 = type { %"class.std::vector.18", %"class.std::vector.18", %"class.std::vector.23", %"class.std::vector.5" }
%"class.std::vector.23" = type { %"struct.std::_Vector_base.24" }
%"struct.std::_Vector_base.24" = type { %"struct.std::_Vector_base<std::pair<int, int>, std::allocator<std::pair<int, int> > >::_Vector_impl" }
%"struct.std::_Vector_base<std::pair<int, int>, std::allocator<std::pair<int, int> > >::_Vector_impl" = type { %"struct.std::_Vector_base<std::pair<int, int>, std::allocator<std::pair<int, int> > >::_Vector_impl_data" }
%"struct.std::_Vector_base<std::pair<int, int>, std::allocator<std::pair<int, int> > >::_Vector_impl_data" = type { %"struct.std::pair"*, %"struct.std::pair"*, %"struct.std::pair"* }
%"struct.std::pair" = type opaque
%"struct.TriangulationLevel<1>::LinesData" = type { %"class.std::vector.28", %"class.std::vector.33", %"class.std::vector.18", %"class.std::vector.18", %"class.std::vector.38", %"class.std::vector.43" }
%"class.std::vector.28" = type { %"struct.std::_Vector_base.29" }
%"struct.std::_Vector_base.29" = type { %"struct.std::_Vector_base<Line, std::allocator<Line> >::_Vector_impl" }
%"struct.std::_Vector_base<Line, std::allocator<Line> >::_Vector_impl" = type { %"struct.std::_Vector_base<Line, std::allocator<Line> >::_Vector_impl_data" }
%"struct.std::_Vector_base<Line, std::allocator<Line> >::_Vector_impl_data" = type { %class.Line*, %class.Line*, %class.Line* }
%class.Line = type { [2 x i32] }
%"class.std::vector.33" = type { %"struct.std::_Vector_base.34" }
%"struct.std::_Vector_base.34" = type { %"struct.std::_Vector_base<int, std::allocator<int> >::_Vector_impl" }
%"struct.std::_Vector_base<int, std::allocator<int> >::_Vector_impl" = type { %"struct.std::_Vector_base<int, std::allocator<int> >::_Vector_impl_data" }
%"struct.std::_Vector_base<int, std::allocator<int> >::_Vector_impl_data" = type { i32*, i32*, i32* }
%"class.std::vector.38" = type { %"struct.std::_Vector_base.39" }
%"struct.std::_Vector_base.39" = type { %"struct.std::_Vector_base<unsigned char, std::allocator<unsigned char> >::_Vector_impl" }
%"struct.std::_Vector_base<unsigned char, std::allocator<unsigned char> >::_Vector_impl" = type { %"struct.std::_Vector_base<unsigned char, std::allocator<unsigned char> >::_Vector_impl_data" }
%"struct.std::_Vector_base<unsigned char, std::allocator<unsigned char> >::_Vector_impl_data" = type { i8*, i8*, i8* }
%"class.std::vector.43" = type { %"struct.std::_Vector_base.44" }
%"struct.std::_Vector_base.44" = type { %"struct.std::_Vector_base<void *, std::allocator<void *> >::_Vector_impl" }
%"struct.std::_Vector_base<void *, std::allocator<void *> >::_Vector_impl" = type { %"struct.std::_Vector_base<void *, std::allocator<void *> >::_Vector_impl_data" }
%"struct.std::_Vector_base<void *, std::allocator<void *> >::_Vector_impl_data" = type { i8**, i8**, i8** }
%"struct.TriangulationLevel<2>::QuadsData" = type { %"class.std::vector.48", %"class.std::vector.33", %"class.std::vector.18", %"class.std::vector.18", %"class.std::vector.38", %"class.std::vector.43" }
%"class.std::vector.48" = type { %"struct.std::_Vector_base.49" }
%"struct.std::_Vector_base.49" = type { %"struct.std::_Vector_base<Quad, std::allocator<Quad> >::_Vector_impl" }
%"struct.std::_Vector_base<Quad, std::allocator<Quad> >::_Vector_impl" = type { %"struct.std::_Vector_base<Quad, std::allocator<Quad> >::_Vector_impl_data" }
%"struct.std::_Vector_base<Quad, std::allocator<Quad> >::_Vector_impl_data" = type { %class.Quad*, %class.Quad*, %class.Quad* }
%class.Quad = type { [4 x i32] }
%"struct.TriangulationLevel<3>::HexesData" = type { %"class.std::vector.53", %"class.std::vector.33", %"class.std::vector.18", %"class.std::vector.18", %"class.std::vector.38", %"class.std::vector.43", %"class.std::vector.18" }
%"class.std::vector.53" = type { %"struct.std::_Vector_base.54" }
%"struct.std::_Vector_base.54" = type { %"struct.std::_Vector_base<Hexahedron, std::allocator<Hexahedron> >::_Vector_impl" }
%"struct.std::_Vector_base<Hexahedron, std::allocator<Hexahedron> >::_Vector_impl" = type { %"struct.std::_Vector_base<Hexahedron, std::allocator<Hexahedron> >::_Vector_impl_data" }
%"struct.std::_Vector_base<Hexahedron, std::allocator<Hexahedron> >::_Vector_impl_data" = type { %class.Hexahedron*, %class.Hexahedron*, %class.Hexahedron* }
%class.Hexahedron = type { [6 x i32] }
%"class.std::vector.18" = type { %"struct.std::_Bvector_base" }
%"struct.std::_Bvector_base" = type { %"struct.std::_Bvector_base<std::allocator<bool> >::_Bvector_impl" }
%"struct.std::_Bvector_base<std::allocator<bool> >::_Bvector_impl" = type { %"struct.std::_Bvector_base<std::allocator<bool> >::_Bvector_impl_data" }
%"struct.std::_Bvector_base<std::allocator<bool> >::_Bvector_impl_data" = type { %"struct.std::_Bit_iterator", %"struct.std::_Bit_iterator", i64* }
%"struct.std::_Bit_iterator" = type { %"struct.std::_Bit_iterator_base.base", [4 x i8] }
%"struct.std::_Bit_iterator_base.base" = type <{ i64*, i32 }>
%struct.TriaNumberCache = type { %struct.TriaNumberCache.63, i32, %"class.std::vector.5", i32, %"class.std::vector.5" }
%struct.TriaNumberCache.63 = type { %struct.TriaNumberCache.64, i32, %"class.std::vector.5", i32, %"class.std::vector.5" }
%struct.TriaNumberCache.64 = type { i32, %"class.std::vector.5", i32, %"class.std::vector.5" }
%class.SmartPointer.121 = type { %class.FiniteElement* }
%class.FiniteElement = type { %class.FiniteElementBase.base, [7 x i8] }
%class.FiniteElementBase.base = type <{ %class.Subscriptor, %class.FiniteElementData, [4 x i8], [8 x %class.FullMatrix], [8 x %class.FullMatrix], %class.FullMatrix, %"class.std::vector.78", %"class.std::vector.78", %"class.std::vector.84", %"class.std::vector.84", %"class.std::vector.78", %"class.std::vector.18", %"class.std::vector.58", %"class.std::vector.91", %"class.std::vector.98", %"class.std::vector.5", i8 }>
%class.FiniteElementData = type { i32, i32, i32, i32, i32, i32, i32, i32, i32, i32, i32, i32, i32 }
%class.FullMatrix = type { %class.Table.base, [4 x i8] }
%class.Table.base = type { %class.TableBase.base }
%"class.std::vector.84" = type { %"struct.std::_Vector_base.85" }
%"struct.std::_Vector_base.85" = type { %"struct.std::_Vector_base<std::pair<std::pair<unsigned int, unsigned int>, unsigned int>, std::allocator<std::pair<std::pair<unsigned int, unsigned int>, unsigned int> > >::_Vector_impl" }
%"struct.std::_Vector_base<std::pair<std::pair<unsigned int, unsigned int>, unsigned int>, std::allocator<std::pair<std::pair<unsigned int, unsigned int>, unsigned int> > >::_Vector_impl" = type { %"struct.std::_Vector_base<std::pair<std::pair<unsigned int, unsigned int>, unsigned int>, std::allocator<std::pair<std::pair<unsigned int, unsigned int>, unsigned int> > >::_Vector_impl_data" }
%"struct.std::_Vector_base<std::pair<std::pair<unsigned int, unsigned int>, unsigned int>, std::allocator<std::pair<std::pair<unsigned int, unsigned int>, unsigned int> > >::_Vector_impl_data" = type { %"struct.std::pair.89"*, %"struct.std::pair.89"*, %"struct.std::pair.89"* }
%"struct.std::pair.89" = type { %"struct.std::pair.83", i32 }
%"struct.std::pair.83" = type { i32, i32 }
%"class.std::vector.78" = type { %"struct.std::_Vector_base.79" }
%"struct.std::_Vector_base.79" = type { %"struct.std::_Vector_base<std::pair<unsigned int, unsigned int>, std::allocator<std::pair<unsigned int, unsigned int> > >::_Vector_impl" }
%"struct.std::_Vector_base<std::pair<unsigned int, unsigned int>, std::allocator<std::pair<unsigned int, unsigned int> > >::_Vector_impl" = type { %"struct.std::_Vector_base<std::pair<unsigned int, unsigned int>, std::allocator<std::pair<unsigned int, unsigned int> > >::_Vector_impl_data" }
%"struct.std::_Vector_base<std::pair<unsigned int, unsigned int>, std::allocator<std::pair<unsigned int, unsigned int> > >::_Vector_impl_data" = type { %"struct.std::pair.83"*, %"struct.std::pair.83"*, %"struct.std::pair.83"* }
%"class.std::vector.91" = type { %"struct.std::_Vector_base.92" }
%"struct.std::_Vector_base.92" = type { %"struct.std::_Vector_base<Point<2>, std::allocator<Point<2> > >::_Vector_impl" }
%"struct.std::_Vector_base<Point<2>, std::allocator<Point<2> > >::_Vector_impl" = type { %"struct.std::_Vector_base<Point<2>, std::allocator<Point<2> > >::_Vector_impl_data" }
%"struct.std::_Vector_base<Point<2>, std::allocator<Point<2> > >::_Vector_impl_data" = type { %class.Point.96*, %class.Point.96*, %class.Point.96* }
%class.Point.96 = type { %class.Tensor.97 }
%class.Tensor.97 = type { [2 x double] }
%"class.std::vector.98" = type { %"struct.std::_Vector_base.99" }
%"struct.std::_Vector_base.99" = type { %"struct.std::_Vector_base<std::vector<bool, std::allocator<bool> >, std::allocator<std::vector<bool, std::allocator<bool> > > >::_Vector_impl" }
%"struct.std::_Vector_base<std::vector<bool, std::allocator<bool> >, std::allocator<std::vector<bool, std::allocator<bool> > > >::_Vector_impl" = type { %"struct.std::_Vector_base<std::vector<bool, std::allocator<bool> >, std::allocator<std::vector<bool, std::allocator<bool> > > >::_Vector_impl_data" }
%"struct.std::_Vector_base<std::vector<bool, std::allocator<bool> >, std::allocator<std::vector<bool, std::allocator<bool> > > >::_Vector_impl_data" = type { %"class.std::vector.18"*, %"class.std::vector.18"*, %"class.std::vector.18"* }
%"class.std::vector.122" = type { %"struct.std::_Vector_base.123" }
%"struct.std::_Vector_base.123" = type { %"struct.std::_Vector_base<DoFLevel<3> *, std::allocator<DoFLevel<3> *> >::_Vector_impl" }
%"struct.std::_Vector_base<DoFLevel<3> *, std::allocator<DoFLevel<3> *> >::_Vector_impl" = type { %"struct.std::_Vector_base<DoFLevel<3> *, std::allocator<DoFLevel<3> *> >::_Vector_impl_data" }
%"struct.std::_Vector_base<DoFLevel<3> *, std::allocator<DoFLevel<3> *> >::_Vector_impl_data" = type { %class.DoFLevel**, %class.DoFLevel**, %class.DoFLevel** }
%class.DoFLevel = type { %class.DoFLevel.127, %"class.std::vector.5" }
%class.DoFLevel.127 = type { %class.DoFLevel.128, %"class.std::vector.5" }
%class.DoFLevel.128 = type { %"class.std::vector.5" }
%class.CellAccessor = type { %class.TriaObjectAccessor }
%class.TriaObjectAccessor = type { %class.TriaAccessor }
%class.TriaAccessor = type { i32, i32, %class.Triangulation* }
%"class.MappingQ<3>::ExcLaplaceVectorNotSet" = type <{ %class.ExceptionBase, i32, [4 x i8] }>
%class.ExceptionBase = type { %"class.std::exception", i8*, i32, i8*, i8*, i8* }
%"class.std::exception" = type { i32 (...)** }
%"class.internal::TableBaseAccessors::Accessor" = type { %class.TableBase*, double* }
%class.TableBase = type <{ %class.Subscriptor, double*, i32, %class.TableIndices, [4 x i8] }>
%class.QGauss = type { %class.Quadrature }
%class.Quadrature = type { %class.Subscriptor, i32, %"class.std::vector.58", %"class.std::vector.0" }
%class.TriaIterator = type { %class.TriaRawIterator }
%class.TriaRawIterator = type { %class.CellAccessor }
%"class.std::allocator.60" = type { i8 }
%class.TriaIterator.65 = type { %class.TriaRawIterator.66 }
%class.TriaRawIterator.66 = type { %class.TriaObjectAccessor.68 }
%class.TriaObjectAccessor.68 = type { %class.TriaAccessor }
%"class.__gnu_cxx::__normal_iterator" = type { %class.Point* }
%class.TriaIterator.69 = type { %class.TriaRawIterator.70 }
%class.TriaRawIterator.70 = type { %class.TriaObjectAccessor.72 }
%class.TriaObjectAccessor.72 = type { %class.TriaAccessor }
%"class.__gnu_cxx::new_allocator.61" = type { i8 }
%"struct.std::_Bit_reference" = type { i64*, i64 }
%"struct.std::__false_type" = type { i8 }
%"class.internal::TableBaseAccessors::Accessor.136" = type { %class.TableBase*, double* }
%"class.std::allocator.7" = type { i8 }
%"class.std::vector.73" = type { %"struct.std::_Vector_base.74" }
%"struct.std::_Vector_base.74" = type { %"struct.std::_Vector_base<Polynomials::LagrangeEquidistant, std::allocator<Polynomials::LagrangeEquidistant> >::_Vector_impl" }
%"struct.std::_Vector_base<Polynomials::LagrangeEquidistant, std::allocator<Polynomials::LagrangeEquidistant> >::_Vector_impl" = type { %"struct.std::_Vector_base<Polynomials::LagrangeEquidistant, std::allocator<Polynomials::LagrangeEquidistant> >::_Vector_impl_data" }
%"struct.std::_Vector_base<Polynomials::LagrangeEquidistant, std::allocator<Polynomials::LagrangeEquidistant> >::_Vector_impl_data" = type { %"class.Polynomials::LagrangeEquidistant"*, %"class.Polynomials::LagrangeEquidistant"*, %"class.Polynomials::LagrangeEquidistant"* }
%"class.Polynomials::LagrangeEquidistant" = type { %"class.Polynomials::Polynomial" }
%class.FE_Q = type { %class.FE_Poly, %"class.std::vector.5" }
%class.FE_Poly = type { %class.FiniteElement.base, i32, %class.TensorProductPolynomials }
%class.FiniteElement.base = type { %class.FiniteElementBase.base }
%"class.__gnu_cxx::new_allocator.8" = type { i8 }
%"class.__gnu_cxx::__normal_iterator.140" = type { %"class.Polynomials::LagrangeEquidistant"* }
%"class.std::allocator.75" = type { i8 }
%"class.__gnu_cxx::__normal_iterator.142" = type { %"class.Polynomials::LagrangeEquidistant"* }
%"class.std::allocator" = type { i8 }
%"class.__gnu_cxx::__normal_iterator.143" = type { i32* }
%"class.std::auto_ptr" = type { %"class.MappingQ<3>::InternalData"* }
%"class.Mapping<3>::InternalDataBase" = type <{ %class.Subscriptor, i32, i32, i32, i8, [3 x i8] }>
%"class.__gnu_cxx::__normal_iterator.134" = type { %class.Tensor.113* }
%"class.std::allocator.131" = type { i8 }
%class.Quadrature.135 = type { %class.Subscriptor, i32, %"class.std::vector.91", %"class.std::vector.0" }
%"class.QProjector<3>::DataSetDescriptor" = type { i32 }
%"class.__gnu_cxx::__normal_iterator.144" = type { double* }
%"class.__gnu_cxx::__normal_iterator.145" = type { %class.Tensor* }
%"class.std::allocator.110" = type { i8 }
%"class.std::allocator.105" = type { i8 }
%"class.std::allocator.2" = type { i8 }
%"class.std::basic_ostream" = type { i32 (...)**, %"class.std::basic_ios" }
%"class.std::basic_ios" = type { %"class.std::ios_base", %"class.std::basic_ostream"*, i8, i8, %"class.std::basic_streambuf"*, %"class.std::ctype"*, %"class.std::num_put"*, %"class.std::num_get"* }
%"class.std::ios_base" = type { i32 (...)**, i64, i64, i32, i32, i32, %"struct.std::ios_base::_Callback_list"*, %"struct.std::ios_base::_Words", [8 x %"struct.std::ios_base::_Words"], i32, %"struct.std::ios_base::_Words"*, %"class.std::locale" }
%"struct.std::ios_base::_Callback_list" = type { %"struct.std::ios_base::_Callback_list"*, void (i32, %"class.std::ios_base"*, i32)*, i32, i32 }
%"struct.std::ios_base::_Words" = type { i8*, i64 }
%"class.std::locale" = type { %"class.std::locale::_Impl"* }
%"class.std::locale::_Impl" = type { i32, %"class.std::locale::facet"**, i64, %"class.std::locale::facet"**, i8** }
%"class.std::locale::facet" = type <{ i32 (...)**, i32, [4 x i8] }>
%"class.std::basic_streambuf" = type { i32 (...)**, i8*, i8*, i8*, i8*, i8*, i8*, %"class.std::locale" }
%"class.std::ctype" = type <{ %"class.std::locale::facet.base", [4 x i8], %struct.__locale_struct*, i8, [7 x i8], i32*, i32*, i16*, i8, [256 x i8], [256 x i8], i8, [6 x i8] }>
%"class.std::locale::facet.base" = type <{ i32 (...)**, i32 }>
%struct.__locale_struct = type { [13 x %struct.__locale_data*], i16*, i32*, i32*, [13 x i8*] }
%struct.__locale_data = type opaque
%"class.std::num_put" = type { %"class.std::locale::facet.base", [4 x i8] }
%"class.std::num_get" = type { %"class.std::locale::facet.base", [4 x i8] }
%"struct.std::iterator.67" = type { i8 }
%"class.std::__cxx11::basic_string" = type { %"struct.std::__cxx11::basic_string<char, std::char_traits<char>, std::allocator<char> >::_Alloc_hider", i64, %union.anon }
%"struct.std::__cxx11::basic_string<char, std::char_traits<char>, std::allocator<char> >::_Alloc_hider" = type { i8* }
%union.anon = type { i64, [8 x i8] }
%class.FiniteElementBase = type <{ %class.Subscriptor, %class.FiniteElementData, [4 x i8], [8 x %class.FullMatrix], [8 x %class.FullMatrix], %class.FullMatrix, %"class.std::vector.78", %"class.std::vector.78", %"class.std::vector.84", %"class.std::vector.84", %"class.std::vector.78", %"class.std::vector.18", %"class.std::vector.58", %"class.std::vector.91", %"class.std::vector.98", %"class.std::vector.5", i8, [7 x i8] }>
%class.FEValuesData = type opaque
%"class.__gnu_cxx::new_allocator" = type { i8 }
%class.TableBase.115 = type <{ %class.Subscriptor, %class.Tensor*, i32, %class.TableIndices, [4 x i8] }>
%"struct.std::_Bit_iterator_base" = type <{ i64*, i32, [4 x i8] }>
%"struct.std::iterator.22" = type { i8 }
%"struct.std::forward_iterator_tag" = type { i8 }
%"struct.std::random_access_iterator_tag" = type { i8 }
%"struct.std::iterator.71" = type { i8 }
%"class.__gnu_cxx::new_allocator.76" = type { i8 }
%"class.__gnu_cxx::__normal_iterator.141" = type { double* }
%"class.__gnu_cxx::new_allocator.3" = type { i8 }
%"class.__gnu_cxx::new_allocator.132" = type { i8 }
%"class.__gnu_cxx::new_allocator.106" = type { i8 }
%"class.__gnu_cxx::new_allocator.111" = type { i8 }

$_ZN5TableILi2EdE6reinitEjj = comdat any

$_ZN5TableILi2EdEixEj = comdat any

$_ZNK8internal18TableBaseAccessors8AccessorILi2EdLb0ELj1EEixEj = comdat any

$_ZNK8MappingQILi3EE22compute_laplace_vectorER5TableILi2EdE = comdat any

$_ZN16StraightBoundaryILi3EED2Ev = comdat any

$_ZN5PointILi3EEC2Ev = comdat any

$_ZNSaI5PointILi3EEEC2Ev = comdat any

$_ZNSt6vectorI5PointILi3EESaIS1_EEC2EmRKS1_RKS2_ = comdat any

$_ZNSaI5PointILi3EEED2Ev = comdat any

$_ZNK15TriaRawIteratorILi3E12CellAccessorILi3EEEptEv = comdat any

$_ZNK12CellAccessorILi3EE4faceEj = comdat any

$_ZNK18TriaObjectAccessorILi3ELi3EE16face_orientationEj = comdat any

$_ZNK15TriaRawIteratorILi3E18TriaObjectAccessorILi2ELi3EEEptEv = comdat any

$_ZNK12TriaAccessorILi3EE17get_triangulationEv = comdat any

$_ZNSt6vectorI5PointILi3EESaIS1_EE6insertIN9__gnu_cxx17__normal_iteratorIPS1_S3_EEEEvS8_T_S9_ = comdat any

$_ZNSt6vectorI5PointILi3EESaIS1_EE3endEv = comdat any

$_ZNSt6vectorI5PointILi3EESaIS1_EE5beginEv = comdat any

$_ZNK18TriaObjectAccessorILi2ELi3EE4lineEj = comdat any

$_ZN15TriaRawIteratorILi3E18TriaObjectAccessorILi1ELi3EEEptEv = comdat any

$_ZNSt6vectorI5PointILi3EESaIS1_EE6resizeEmS1_ = comdat any

$_ZNSt6vectorI5PointILi3EESaIS1_EEixEm = comdat any

$_ZN5PointILi3EEaSERKS0_ = comdat any

$_ZNK8MappingQILi3EE20apply_laplace_vectorERK5TableILi2EdERSt6vectorI5PointILi3EESaIS7_EE = comdat any

$_ZNSt6vectorI5PointILi3EESaIS1_EE9push_backERKS1_ = comdat any

$_ZNSt6vectorI5PointILi3EESaIS1_EED2Ev = comdat any

$__clang_call_terminate = comdat any

$_ZN8MappingQILi3EEC5Ej = comdat any

$_ZN5TableILi2EdEC2Ev = comdat any

$_Z5powerIjET_S0_j = comdat any

$_ZNSaIjEC2Ev = comdat any

$_ZNSt6vectorIjSaIjEEC2EmRKjRKS0_ = comdat any

$_ZNSaIjED2Ev = comdat any

$_ZNSt6vectorIN11Polynomials19LagrangeEquidistantESaIS1_EEC2Ev = comdat any

$_ZNSt6vectorIN11Polynomials19LagrangeEquidistantESaIS1_EE9push_backERKS1_ = comdat any

$_ZN11Polynomials19LagrangeEquidistantD2Ev = comdat any

$_ZN24TensorProductPolynomialsILi3EEC2IN11Polynomials19LagrangeEquidistantEEERKSt6vectorIT_SaIS5_EE = comdat any

$_ZNSt6vectorIjSaIjEE6resizeEmj = comdat any

$_ZN4FE_QILi3EED2Ev = comdat any

$_ZNK8MappingQILi3EE26set_laplace_on_quad_vectorER5TableILi2EdE = comdat any

$_ZNSt6vectorIN11Polynomials19LagrangeEquidistantESaIS1_EED2Ev = comdat any

$_ZNSt6vectorIjSaIjEED2Ev = comdat any

$_ZN5TableILi2EdED2Ev = comdat any

$_ZN9MappingQ1ILi3EED2Ev = comdat any

$_ZN8MappingQILi3EED5Ev = comdat any

$_ZN24TensorProductPolynomialsILi3EED2Ev = comdat any

$_ZNK8MappingQILi3EE27transform_unit_to_real_cellERK12TriaIteratorILi3E12CellAccessorILi3EEERK5PointILi3EE = comdat any

$_ZNSt8auto_ptrIN8MappingQILi3EE12InternalDataEEC2EPS2_ = comdat any

$_ZNKSt8auto_ptrIN8MappingQILi3EE12InternalDataEEptEv = comdat any

$_ZNKSt8auto_ptrIN8MappingQILi3EE12InternalDataEEdeEv = comdat any

$_ZNSt8auto_ptrIN8MappingQILi3EE12InternalDataEED2Ev = comdat any

$_ZNK8MappingQILi3EE27transform_real_to_unit_cellERK12TriaIteratorILi3E12CellAccessorILi3EEERK5PointILi3EE = comdat any

$_Zor11UpdateFlagsS_ = comdat any

$_ZNK8MappingQILi3EE19transform_covariantEP6TensorILi1ELi3EES3_PKS2_RKN7MappingILi3EE16InternalDataBaseE = comdat any

$_ZN9__gnu_cxx17__normal_iteratorIPK6TensorILi2ELi3EESt6vectorIS2_SaIS2_EEEC2Ev = comdat any

$_ZNKSt6vectorI6TensorILi2ELi3EESaIS1_EE5beginEv = comdat any

$_Z8contractILi3EEvR6TensorILi1EXT_EERKS1_RKS0_ILi2EXT_EE = comdat any

$_ZN9__gnu_cxx17__normal_iteratorIPK6TensorILi2ELi3EESt6vectorIS2_SaIS2_EEEppEi = comdat any

$_ZNK9__gnu_cxx17__normal_iteratorIPK6TensorILi2ELi3EESt6vectorIS2_SaIS2_EEEdeEv = comdat any

$_ZNK8MappingQILi3EE19transform_covariantEP6TensorILi2ELi3EES3_PKS2_RKN7MappingILi3EE16InternalDataBaseE = comdat any

$_Z8contractILi3EEvR6TensorILi2EXT_EERKS1_S4_ = comdat any

$_ZNK8MappingQILi3EE23transform_contravariantEP6TensorILi1ELi3EES3_PKS2_RKN7MappingILi3EE16InternalDataBaseE = comdat any

$_Z8contractILi3EEvR6TensorILi1EXT_EERKS0_ILi2EXT_EERKS1_ = comdat any

$_ZNK8MappingQILi3EE23transform_contravariantEP6TensorILi2ELi3EES3_PKS2_RKN7MappingILi3EE16InternalDataBaseE = comdat any

$_ZNK8MappingQILi3EE10get_degreeEv = comdat any

$_ZN8MappingQILi3EE12InternalDataC5Ej = comdat any

$_ZNSt6vectorIS_I5PointILi3EESaIS1_EESaIS3_EEC2Ev = comdat any

$_ZNSt6vectorIS_I5PointILi3EESaIS1_EESaIS3_EED2Ev = comdat any

$_ZNK8MappingQILi3EE12InternalData18memory_consumptionEv = comdat any

$_ZN17MemoryConsumption18memory_consumptionISt6vectorI5PointILi3EESaIS3_EEEEjRKS1_IT_SaIS6_EE = comdat any

$_ZN17MemoryConsumption18memory_consumptionEb = comdat any

$_ZN17MemoryConsumption18memory_consumptionIN9MappingQ1ILi3EE12InternalDataEEEjRKT_ = comdat any

$_ZNK8MappingQILi3EE14fill_fe_valuesERK12TriaIteratorILi3E15DoFCellAccessorILi3EEERK10QuadratureILi3EERN7MappingILi3EE16InternalDataBaseERSt6vectorI5PointILi3EESaISH_EERSF_IdSaIdEE = comdat any

$_ZNK15TriaRawIteratorILi3E15DoFCellAccessorILi3EEEptEv = comdat any

$_ZNK8MappingQILi3EE19fill_fe_face_valuesERK12TriaIteratorILi3E15DoFCellAccessorILi3EEEjRK10QuadratureILi2EERN7MappingILi3EE16InternalDataBaseERSt6vectorI5PointILi3EESaISH_EERSF_IdSaIdEERSF_I6TensorILi1ELi3EESaISP_EESK_ = comdat any

$_ZNK8MappingQILi3EE22fill_fe_subface_valuesERK12TriaIteratorILi3E15DoFCellAccessorILi3EEEjjRK10QuadratureILi2EERN7MappingILi3EE16InternalDataBaseERSt6vectorI5PointILi3EESaISH_EERSF_IdSaIdEERSF_I6TensorILi1ELi3EESaISP_EESK_ = comdat any

$_ZNK8MappingQILi3EE23add_line_support_pointsERK12TriaIteratorILi3E12CellAccessorILi3EEERSt6vectorI5PointILi3EESaIS9_EE = comdat any

$_ZNK18TriaObjectAccessorILi3ELi3EE4lineEj = comdat any

$_ZNK15TriaRawIteratorILi3E18TriaObjectAccessorILi1ELi3EEEptEv = comdat any

$_ZNK8MappingQILi3EE8get_dataE11UpdateFlagsRK10QuadratureILi3EE = comdat any

$_ZNK8MappingQILi3EE13get_face_dataE11UpdateFlagsRK10QuadratureILi2EE = comdat any

$_ZNK8MappingQILi3EE16get_subface_dataE11UpdateFlagsRK10QuadratureILi2EE = comdat any

$_ZNK8MappingQILi3EE22compute_shapes_virtualERKSt6vectorI5PointILi3EESaIS3_EERN9MappingQ1ILi3EE12InternalDataE = comdat any

$_ZNKSt6vectorI5PointILi3EESaIS1_EE4sizeEv = comdat any

$_ZNSt6vectorIdSaIdEEC2Ev = comdat any

$_ZNSt6vectorI6TensorILi1ELi3EESaIS1_EEC2Ev = comdat any

$_ZNKSt6vectorIdSaIdEE4sizeEv = comdat any

$_ZNSt6vectorIdSaIdEE6resizeEmd = comdat any

$_ZNKSt6vectorI6TensorILi1ELi3EESaIS1_EE4sizeEv = comdat any

$_ZNSt6vectorI6TensorILi1ELi3EESaIS1_EE6resizeEmS1_ = comdat any

$_ZN6TensorILi1ELi3EEC2Eb = comdat any

$_ZNSt6vectorI6TensorILi2ELi3EESaIS1_EEC2Ev = comdat any

$_ZNKSt6vectorI5PointILi3EESaIS1_EEixEm = comdat any

$_ZNSt6vectorIdSaIdEEixEm = comdat any

$_ZN9MappingQ1ILi3EE12InternalData5shapeEjj = comdat any

$_ZNKSt6vectorIjSaIjEEixEm = comdat any

$_ZNSt6vectorI6TensorILi1ELi3EESaIS1_EEixEm = comdat any

$_ZN9MappingQ1ILi3EE12InternalData10derivativeEjj = comdat any

$_ZN6TensorILi1ELi3EEaSERKS0_ = comdat any

$_ZNSt6vectorI6TensorILi2ELi3EESaIS1_EED2Ev = comdat any

$_ZNSt6vectorI6TensorILi1ELi3EESaIS1_EED2Ev = comdat any

$_ZNSt6vectorIdSaIdEED2Ev = comdat any

$_ZNK5TableILi2EdE6n_rowsEv = comdat any

$_Z8contractILi3EEdRK6TensorILi1EXT_EES3_ = comdat any

$_ZN5TableILi2EdEclEjj = comdat any

$_ZN10FullMatrixIdED2Ev = comdat any

$_ZN8MappingQILi3EE12InternalDataD2Ev = comdat any

$_ZN6QGaussILi3EED2Ev = comdat any

$_ZNK5TableILi2EdE6n_colsEv = comdat any

$_ZmlILi3EE5PointIXT_EEdRKS1_ = comdat any

$_ZNK5TableILi2EdEixEj = comdat any

$_ZNK8internal18TableBaseAccessors8AccessorILi2EdLb1ELj1EEixEj = comdat any

$_ZN6TensorILi1ELi3EEpLERKS0_ = comdat any

$_ZNK8MappingQILi3EE30compute_mapping_support_pointsERK12TriaIteratorILi3E12CellAccessorILi3EEERSt6vectorI5PointILi3EESaIS9_EE = comdat any

$_ZNK8MappingQILi3EE30compute_support_points_laplaceERK12TriaIteratorILi3E12CellAccessorILi3EEERSt6vectorI5PointILi3EESaIS9_EE = comdat any

$_ZN8MappingQILi3EE22ExcLaplaceVectorNotSetC5Ei = comdat any

$_ZN8MappingQILi3EE22ExcLaplaceVectorNotSetD5Ev = comdat any

$_ZNK8MappingQILi3EE22ExcLaplaceVectorNotSet9PrintInfoERSo = comdat any

$_ZN8MappingQILi3EE12InternalDataD0Ev = comdat any

$_ZN7MappingILi3EE16InternalDataBase16clear_first_cellEv = comdat any

$_ZNK18TriaObjectAccessorILi3ELi3EE4quadEj = comdat any

$_ZNK18TriaObjectAccessorILi3ELi3EE10quad_indexEj = comdat any

$_ZN12TriaIteratorILi3E18TriaObjectAccessorILi2ELi3EEEC2EPK13TriangulationILi3EEiiPKv = comdat any

$_ZNKSt6vectorIP18TriangulationLevelILi3EESaIS2_EEixEm = comdat any

$_ZNSt6vectorI10HexahedronSaIS0_EEixEm = comdat any

$_ZNK10Hexahedron4quadEi = comdat any

$_ZN15TriaRawIteratorILi3E18TriaObjectAccessorILi2ELi3EEEC2EPK13TriangulationILi3EEiiPKv = comdat any

$_ZN18TriaObjectAccessorILi2ELi3EEC2EPK13TriangulationILi3EEiiPKv = comdat any

$_ZN12TriaAccessorILi3EEC2EPK13TriangulationILi3EEiiPKv = comdat any

$_ZN11Polynomials10PolynomialIdED2Ev = comdat any

$_ZN11Polynomials10PolynomialIdED0Ev = comdat any

$_ZN4FE_QILi3EED0Ev = comdat any

$_ZN7FE_PolyI24TensorProductPolynomialsILi3EELi3EED2Ev = comdat any

$_ZN7FE_PolyI24TensorProductPolynomialsILi3EELi3EED0Ev = comdat any

$_ZN9TableBaseILi2EdED2Ev = comdat any

$_ZN9TableBaseILi2EdED0Ev = comdat any

$_ZNSt6vectorIN11Polynomials10PolynomialIdEESaIS2_EED2Ev = comdat any

$_ZSt8_DestroyIPN11Polynomials10PolynomialIdEES2_EvT_S4_RSaIT0_E = comdat any

$_ZNSt12_Vector_baseIN11Polynomials10PolynomialIdEESaIS2_EE19_M_get_Tp_allocatorEv = comdat any

$_ZNSt12_Vector_baseIN11Polynomials10PolynomialIdEESaIS2_EED2Ev = comdat any

$_ZSt8_DestroyIPN11Polynomials10PolynomialIdEEEvT_S4_ = comdat any

$_ZNSt12_Destroy_auxILb0EE9__destroyIPN11Polynomials10PolynomialIdEEEEvT_S6_ = comdat any

$_ZSt8_DestroyIN11Polynomials10PolynomialIdEEEvPT_ = comdat any

$_ZSt11__addressofIN11Polynomials10PolynomialIdEEEPT_RS3_ = comdat any

$_ZNSt12_Vector_baseIN11Polynomials10PolynomialIdEESaIS2_EE13_M_deallocateEPS2_m = comdat any

$_ZNSt12_Vector_baseIN11Polynomials10PolynomialIdEESaIS2_EE12_Vector_implD2Ev = comdat any

$_ZN9__gnu_cxx14__alloc_traitsISaIN11Polynomials10PolynomialIdEEES3_E10deallocateERS4_PS3_m = comdat any

$_ZN9__gnu_cxx13new_allocatorIN11Polynomials10PolynomialIdEEE10deallocateEPS3_m = comdat any

$_ZN9__gnu_cxx13new_allocatorIN11Polynomials10PolynomialIdEEED2Ev = comdat any

$_ZN5TableILi2E6TensorILi1ELi3EEED2Ev = comdat any

$_ZN9MappingQ1ILi3EE12InternalDataD2Ev = comdat any

$_ZN9MappingQ1ILi3EE12InternalDataD0Ev = comdat any

$_ZN9TableBaseILi2E6TensorILi1ELi3EEED2Ev = comdat any

$_ZN9TableBaseILi2E6TensorILi1ELi3EEED0Ev = comdat any

$_ZN9__gnu_cxx13new_allocatorIjEC2Ev = comdat any

$_ZN9__gnu_cxx13new_allocatorIjED2Ev = comdat any

$_ZN9TableBaseILi2EdE6reinitERK12TableIndicesILi2EE = comdat any

$_ZN12TableIndicesILi2EEC2Ejj = comdat any

$_ZNK9TableBaseILi2EdE10n_elementsEv = comdat any

$_ZN12TableIndicesILi2EEC2Ev = comdat any

$_ZN9TableBaseILi2EdE12reset_valuesEv = comdat any

$_ZNK16TableIndicesBaseILi2EEixEj = comdat any

$_ZSt6fill_nIPdjdET_S1_T0_RKT1_ = comdat any

$_ZSt12__niter_wrapIPdET_RKS1_S1_ = comdat any

$_ZSt10__fill_n_aIPdjdEN9__gnu_cxx11__enable_ifIXsr11__is_scalarIT1_EE7__valueET_E6__typeES4_T0_RKS3_ = comdat any

$_ZSt12__niter_baseIPdET_S1_ = comdat any

$_ZN8internal18TableBaseAccessors8AccessorILi2EdLb0ELj1EEC2ERK9TableBaseILi2EdEPd = comdat any

$_ZN9__gnu_cxx13new_allocatorI5PointILi3EEEC2Ev = comdat any

$_ZN9__gnu_cxx13new_allocatorI5PointILi3EEED2Ev = comdat any

$_ZNSt6vectorI5PointILi3EESaIS1_EE17_S_check_init_lenEmRKS2_ = comdat any

$_ZNSt12_Vector_baseI5PointILi3EESaIS1_EEC2EmRKS2_ = comdat any

$_ZNSt6vectorI5PointILi3EESaIS1_EE18_M_fill_initializeEmRKS1_ = comdat any

$_ZNSt12_Vector_baseI5PointILi3EESaIS1_EED2Ev = comdat any

$_ZNSt6vectorI5PointILi3EESaIS1_EE11_S_max_sizeERKS2_ = comdat any

$_ZNSaI5PointILi3EEEC2ERKS1_ = comdat any

$_ZN9__gnu_cxx14__alloc_traitsISaI5PointILi3EEES2_E8max_sizeERKS3_ = comdat any

$_ZSt3minImERKT_S2_S2_ = comdat any

$_ZNK9__gnu_cxx13new_allocatorI5PointILi3EEE8max_sizeEv = comdat any

$_ZN9__gnu_cxx13new_allocatorI5PointILi3EEEC2ERKS3_ = comdat any

$_ZNSt12_Vector_baseI5PointILi3EESaIS1_EE12_Vector_implC2ERKS2_ = comdat any

$_ZNSt12_Vector_baseI5PointILi3EESaIS1_EE17_M_create_storageEm = comdat any

$_ZNSt12_Vector_baseI5PointILi3EESaIS1_EE12_Vector_implD2Ev = comdat any

$_ZNSt12_Vector_baseI5PointILi3EESaIS1_EE17_Vector_impl_dataC2Ev = comdat any

$_ZNSt12_Vector_baseI5PointILi3EESaIS1_EE11_M_allocateEm = comdat any

$_ZN9__gnu_cxx14__alloc_traitsISaI5PointILi3EEES2_E8allocateERS3_m = comdat any

$_ZN9__gnu_cxx13new_allocatorI5PointILi3EEE8allocateEmPKv = comdat any

$_ZSt24__uninitialized_fill_n_aIP5PointILi3EEmS1_S1_ET_S3_T0_RKT1_RSaIT2_E = comdat any

$_ZNSt12_Vector_baseI5PointILi3EESaIS1_EE19_M_get_Tp_allocatorEv = comdat any

$_ZSt20uninitialized_fill_nIP5PointILi3EEmS1_ET_S3_T0_RKT1_ = comdat any

$_ZNSt22__uninitialized_fill_nILb0EE15__uninit_fill_nIP5PointILi3EEmS3_EET_S5_T0_RKT1_ = comdat any

$_ZSt10_ConstructI5PointILi3EES1_EvPT_RKT0_ = comdat any

$_ZSt11__addressofI5PointILi3EEEPT_RS2_ = comdat any

$_ZSt8_DestroyIP5PointILi3EEEvT_S3_ = comdat any

$_ZN5PointILi3EEC2ERKS0_ = comdat any

$_ZNSt12_Destroy_auxILb1EE9__destroyIP5PointILi3EEEEvT_S5_ = comdat any

$_ZNSt12_Vector_baseI5PointILi3EESaIS1_EE13_M_deallocateEPS1_m = comdat any

$_ZN9__gnu_cxx14__alloc_traitsISaI5PointILi3EEES2_E10deallocateERS3_PS2_m = comdat any

$_ZN9__gnu_cxx13new_allocatorI5PointILi3EEE10deallocateEPS2_m = comdat any

$_ZSt8_DestroyIP5PointILi3EES1_EvT_S3_RSaIT0_E = comdat any

$_ZNK15TriaRawIteratorILi3E12CellAccessorILi3EEEdeEv = comdat any

$_ZNSt6vectorIbSaIbEEixEm = comdat any

$_ZNKSt14_Bit_referencecvbEv = comdat any

$_ZNSt13_Bit_iteratorC2EPmj = comdat any

$_ZNKSt13_Bit_iteratordeEv = comdat any

$_ZNSt18_Bit_iterator_baseC2EPmj = comdat any

$_ZNSt14_Bit_referenceC2EPmm = comdat any

$_ZNK15TriaRawIteratorILi3E18TriaObjectAccessorILi2ELi3EEEdeEv = comdat any

$_ZN9__gnu_cxx17__normal_iteratorIP5PointILi3EESt6vectorIS2_SaIS2_EEEC2ERKS3_ = comdat any

$_ZNSt6vectorI5PointILi3EESaIS1_EE18_M_insert_dispatchIN9__gnu_cxx17__normal_iteratorIPS1_S3_EEEEvS8_T_S9_St12__false_type = comdat any

$_ZNSt6vectorI5PointILi3EESaIS1_EE15_M_range_insertIN9__gnu_cxx17__normal_iteratorIPS1_S3_EEEEvS8_T_S9_St20forward_iterator_tag = comdat any

$_ZSt19__iterator_categoryIN9__gnu_cxx17__normal_iteratorIP5PointILi3EESt6vectorIS3_SaIS3_EEEEENSt15iterator_traitsIT_E17iterator_categoryERKSA_ = comdat any

$_ZN9__gnu_cxxneIP5PointILi3EESt6vectorIS2_SaIS2_EEEEbRKNS_17__normal_iteratorIT_T0_EESC_ = comdat any

$_ZSt8distanceIN9__gnu_cxx17__normal_iteratorIP5PointILi3EESt6vectorIS3_SaIS3_EEEEENSt15iterator_traitsIT_E15difference_typeESA_SA_ = comdat any

$_ZN9__gnu_cxxmiIP5PointILi3EESt6vectorIS2_SaIS2_EEEENS_17__normal_iteratorIT_T0_E15difference_typeERKSA_SD_ = comdat any

$_ZSt22__uninitialized_move_aIP5PointILi3EES2_SaIS1_EET0_T_S5_S4_RT1_ = comdat any

$_ZSt13copy_backwardIP5PointILi3EES2_ET0_T_S4_S3_ = comdat any

$_ZNK9__gnu_cxx17__normal_iteratorIP5PointILi3EESt6vectorIS2_SaIS2_EEE4baseEv = comdat any

$_ZSt4copyIN9__gnu_cxx17__normal_iteratorIP5PointILi3EESt6vectorIS3_SaIS3_EEEES8_ET0_T_SA_S9_ = comdat any

$_ZSt7advanceIN9__gnu_cxx17__normal_iteratorIP5PointILi3EESt6vectorIS3_SaIS3_EEEEmEvRT_T0_ = comdat any

$_ZSt22__uninitialized_copy_aIN9__gnu_cxx17__normal_iteratorIP5PointILi3EESt6vectorIS3_SaIS3_EEEES4_S3_ET0_T_SA_S9_RSaIT1_E = comdat any

$_ZNKSt6vectorI5PointILi3EESaIS1_EE12_M_check_lenEmPKc = comdat any

$_ZSt34__uninitialized_move_if_noexcept_aIP5PointILi3EES2_SaIS1_EET0_T_S5_S4_RT1_ = comdat any

$_ZSt10__distanceIN9__gnu_cxx17__normal_iteratorIP5PointILi3EESt6vectorIS3_SaIS3_EEEEENSt15iterator_traitsIT_E15difference_typeESA_SA_St26random_access_iterator_tag = comdat any

$_ZSt22__uninitialized_copy_aIP5PointILi3EES2_S1_ET0_T_S4_S3_RSaIT1_E = comdat any

$_ZSt18uninitialized_copyIP5PointILi3EES2_ET0_T_S4_S3_ = comdat any

$_ZNSt20__uninitialized_copyILb0EE13__uninit_copyIP5PointILi3EES4_EET0_T_S6_S5_ = comdat any

$_ZSt23__copy_move_backward_a2ILb0EP5PointILi3EES2_ET1_T0_S4_S3_ = comdat any

$_ZSt12__miter_baseIP5PointILi3EEET_S3_ = comdat any

$_ZSt12__niter_wrapIP5PointILi3EEET_RKS3_S3_ = comdat any

$_ZSt22__copy_move_backward_aILb0EP5PointILi3EES2_ET1_T0_S4_S3_ = comdat any

$_ZSt12__niter_baseIP5PointILi3EEET_S3_ = comdat any

$_ZNSt20__copy_move_backwardILb0ELb0ESt26random_access_iterator_tagE13__copy_move_bIP5PointILi3EES5_EET0_T_S7_S6_ = comdat any

$_ZSt14__copy_move_a2ILb0EN9__gnu_cxx17__normal_iteratorIP5PointILi3EESt6vectorIS3_SaIS3_EEEES8_ET1_T0_SA_S9_ = comdat any

$_ZSt12__miter_baseIN9__gnu_cxx17__normal_iteratorIP5PointILi3EESt6vectorIS3_SaIS3_EEEEET_S9_ = comdat any

$_ZSt12__niter_wrapIN9__gnu_cxx17__normal_iteratorIP5PointILi3EESt6vectorIS3_SaIS3_EEEES4_ET_S9_T0_ = comdat any

$_ZSt13__copy_move_aILb0EP5PointILi3EES2_ET1_T0_S4_S3_ = comdat any

$_ZSt12__niter_baseIP5PointILi3EESt6vectorIS1_SaIS1_EEET_N9__gnu_cxx17__normal_iteratorIS6_T0_EE = comdat any

$_ZNK9__gnu_cxx17__normal_iteratorIP5PointILi3EESt6vectorIS2_SaIS2_EEEplEl = comdat any

$_ZNSt11__copy_moveILb0ELb0ESt26random_access_iterator_tagE8__copy_mIP5PointILi3EES5_EET0_T_S7_S6_ = comdat any

$_ZSt9__advanceIN9__gnu_cxx17__normal_iteratorIP5PointILi3EESt6vectorIS3_SaIS3_EEEElEvRT_T0_St26random_access_iterator_tag = comdat any

$_ZN9__gnu_cxx17__normal_iteratorIP5PointILi3EESt6vectorIS2_SaIS2_EEEpLEl = comdat any

$_ZSt18uninitialized_copyIN9__gnu_cxx17__normal_iteratorIP5PointILi3EESt6vectorIS3_SaIS3_EEEES4_ET0_T_SA_S9_ = comdat any

$_ZNSt20__uninitialized_copyILb0EE13__uninit_copyIN9__gnu_cxx17__normal_iteratorIP5PointILi3EESt6vectorIS5_SaIS5_EEEES6_EET0_T_SC_SB_ = comdat any

$_ZNK9__gnu_cxx17__normal_iteratorIP5PointILi3EESt6vectorIS2_SaIS2_EEEdeEv = comdat any

$_ZN9__gnu_cxx17__normal_iteratorIP5PointILi3EESt6vectorIS2_SaIS2_EEEppEv = comdat any

$_ZNKSt6vectorI5PointILi3EESaIS1_EE8max_sizeEv = comdat any

$_ZSt3maxImERKT_S2_S2_ = comdat any

$_ZNKSt12_Vector_baseI5PointILi3EESaIS1_EE19_M_get_Tp_allocatorEv = comdat any

$_ZNK18TriaObjectAccessorILi2ELi3EE10line_indexEj = comdat any

$_ZN12TriaIteratorILi3E18TriaObjectAccessorILi1ELi3EEEC2EPK13TriangulationILi3EEiiPKv = comdat any

$_ZNSt6vectorI4QuadSaIS0_EEixEm = comdat any

$_ZNK4Quad4lineEi = comdat any

$_ZN15TriaRawIteratorILi3E18TriaObjectAccessorILi1ELi3EEEC2EPK13TriangulationILi3EEiiPKv = comdat any

$_ZN18TriaObjectAccessorILi1ELi3EEC2EPK13TriangulationILi3EEiiPKv = comdat any

$_ZN15TriaRawIteratorILi3E18TriaObjectAccessorILi1ELi3EEEdeEv = comdat any

$_ZNSt6vectorI5PointILi3EESaIS1_EE14_M_fill_insertEN9__gnu_cxx17__normal_iteratorIPS1_S3_EEmRKS1_ = comdat any

$_ZNSt6vectorI5PointILi3EESaIS1_EE15_M_erase_at_endEPS1_ = comdat any

$_ZSt4fillIP5PointILi3EES1_EvT_S3_RKT0_ = comdat any

$_ZSt8__fill_aIP5PointILi3EES1_EN9__gnu_cxx11__enable_ifIXntsr11__is_scalarIT0_EE7__valueEvE6__typeET_S8_RKS5_ = comdat any

$_ZN9__gnu_cxx14__alloc_traitsISaI5PointILi3EEES2_E9constructIS2_EEvRS3_PS2_RKT_ = comdat any

$_ZNSt6vectorI5PointILi3EESaIS1_EE17_M_realloc_insertEN9__gnu_cxx17__normal_iteratorIPS1_S3_EERKS1_ = comdat any

$_ZN9__gnu_cxx13new_allocatorI5PointILi3EEE9constructEPS2_RKS2_ = comdat any

$_ZN9__gnu_cxx14__alloc_traitsISaI5PointILi3EEES2_E7destroyERS3_PS2_ = comdat any

$_ZN9__gnu_cxx13new_allocatorI5PointILi3EEE7destroyEPS2_ = comdat any

$_ZNSt6vectorIjSaIjEE17_S_check_init_lenEmRKS0_ = comdat any

$_ZNSt12_Vector_baseIjSaIjEEC2EmRKS0_ = comdat any

$_ZNSt6vectorIjSaIjEE18_M_fill_initializeEmRKj = comdat any

$_ZNSt12_Vector_baseIjSaIjEED2Ev = comdat any

$_ZNSt6vectorIjSaIjEE11_S_max_sizeERKS0_ = comdat any

$_ZNSaIjEC2ERKS_ = comdat any

$_ZN9__gnu_cxx14__alloc_traitsISaIjEjE8max_sizeERKS1_ = comdat any

$_ZNK9__gnu_cxx13new_allocatorIjE8max_sizeEv = comdat any

$_ZN9__gnu_cxx13new_allocatorIjEC2ERKS1_ = comdat any

$_ZNSt12_Vector_baseIjSaIjEE12_Vector_implC2ERKS0_ = comdat any

$_ZNSt12_Vector_baseIjSaIjEE17_M_create_storageEm = comdat any

$_ZNSt12_Vector_baseIjSaIjEE12_Vector_implD2Ev = comdat any

$_ZNSt12_Vector_baseIjSaIjEE17_Vector_impl_dataC2Ev = comdat any

$_ZNSt12_Vector_baseIjSaIjEE11_M_allocateEm = comdat any

$_ZN9__gnu_cxx14__alloc_traitsISaIjEjE8allocateERS1_m = comdat any

$_ZN9__gnu_cxx13new_allocatorIjE8allocateEmPKv = comdat any

$_ZSt24__uninitialized_fill_n_aIPjmjjET_S1_T0_RKT1_RSaIT2_E = comdat any

$_ZNSt12_Vector_baseIjSaIjEE19_M_get_Tp_allocatorEv = comdat any

$_ZSt20uninitialized_fill_nIPjmjET_S1_T0_RKT1_ = comdat any

$_ZNSt22__uninitialized_fill_nILb1EE15__uninit_fill_nIPjmjEET_S3_T0_RKT1_ = comdat any

$_ZSt6fill_nIPjmjET_S1_T0_RKT1_ = comdat any

$_ZSt12__niter_wrapIPjET_RKS1_S1_ = comdat any

$_ZSt10__fill_n_aIPjmjEN9__gnu_cxx11__enable_ifIXsr11__is_scalarIT1_EE7__valueET_E6__typeES4_T0_RKS3_ = comdat any

$_ZSt12__niter_baseIPjET_S1_ = comdat any

$_ZNSt12_Vector_baseIjSaIjEE13_M_deallocateEPjm = comdat any

$_ZN9__gnu_cxx14__alloc_traitsISaIjEjE10deallocateERS1_Pjm = comdat any

$_ZN9__gnu_cxx13new_allocatorIjE10deallocateEPjm = comdat any

$_ZN9TableBaseILi2EdEC2Ev = comdat any

$_ZN5TableILi2EdED0Ev = comdat any

$_ZSt8_DestroyIPjjEvT_S1_RSaIT0_E = comdat any

$_ZSt8_DestroyIPjEvT_S1_ = comdat any

$_ZNSt12_Destroy_auxILb1EE9__destroyIPjEEvT_S3_ = comdat any

$_ZNSt12_Vector_baseIN11Polynomials19LagrangeEquidistantESaIS1_EEC2Ev = comdat any

$_ZNSt12_Vector_baseIN11Polynomials19LagrangeEquidistantESaIS1_EE12_Vector_implC2Ev = comdat any

$_ZNSaIN11Polynomials19LagrangeEquidistantEEC2Ev = comdat any

$_ZNSt12_Vector_baseIN11Polynomials19LagrangeEquidistantESaIS1_EE17_Vector_impl_dataC2Ev = comdat any

$_ZNSaIN11Polynomials19LagrangeEquidistantEED2Ev = comdat any

$_ZN9__gnu_cxx13new_allocatorIN11Polynomials19LagrangeEquidistantEEC2Ev = comdat any

$_ZN9__gnu_cxx13new_allocatorIN11Polynomials19LagrangeEquidistantEED2Ev = comdat any

$_ZSt8_DestroyIPN11Polynomials19LagrangeEquidistantES1_EvT_S3_RSaIT0_E = comdat any

$_ZNSt12_Vector_baseIN11Polynomials19LagrangeEquidistantESaIS1_EE19_M_get_Tp_allocatorEv = comdat any

$_ZNSt12_Vector_baseIN11Polynomials19LagrangeEquidistantESaIS1_EED2Ev = comdat any

$_ZSt8_DestroyIPN11Polynomials19LagrangeEquidistantEEvT_S3_ = comdat any

$_ZNSt12_Destroy_auxILb0EE9__destroyIPN11Polynomials19LagrangeEquidistantEEEvT_S5_ = comdat any

$_ZSt8_DestroyIN11Polynomials19LagrangeEquidistantEEvPT_ = comdat any

$_ZSt11__addressofIN11Polynomials19LagrangeEquidistantEEPT_RS2_ = comdat any

$_ZNSt12_Vector_baseIN11Polynomials19LagrangeEquidistantESaIS1_EE13_M_deallocateEPS1_m = comdat any

$_ZNSt12_Vector_baseIN11Polynomials19LagrangeEquidistantESaIS1_EE12_Vector_implD2Ev = comdat any

$_ZN9__gnu_cxx14__alloc_traitsISaIN11Polynomials19LagrangeEquidistantEES2_E10deallocateERS3_PS2_m = comdat any

$_ZN9__gnu_cxx13new_allocatorIN11Polynomials19LagrangeEquidistantEE10deallocateEPS2_m = comdat any

$_ZN9__gnu_cxx14__alloc_traitsISaIN11Polynomials19LagrangeEquidistantEES2_E9constructIS2_EEvRS3_PS2_RKT_ = comdat any

$_ZNSt6vectorIN11Polynomials19LagrangeEquidistantESaIS1_EE17_M_realloc_insertEN9__gnu_cxx17__normal_iteratorIPS1_S3_EERKS1_ = comdat any

$_ZNSt6vectorIN11Polynomials19LagrangeEquidistantESaIS1_EE3endEv = comdat any

$_ZN9__gnu_cxx13new_allocatorIN11Polynomials19LagrangeEquidistantEE9constructEPS2_RKS2_ = comdat any

$_ZN11Polynomials19LagrangeEquidistantC2ERKS0_ = comdat any

$_ZN11Polynomials19LagrangeEquidistantD0Ev = comdat any

$_ZNSt6vectorIdSaIdEEC2ERKS1_ = comdat any

$_ZN9__gnu_cxx14__alloc_traitsISaIdEdE17_S_select_on_copyERKS1_ = comdat any

$_ZNKSt12_Vector_baseIdSaIdEE19_M_get_Tp_allocatorEv = comdat any

$_ZNSt12_Vector_baseIdSaIdEEC2EmRKS0_ = comdat any

$_ZSt22__uninitialized_copy_aIN9__gnu_cxx17__normal_iteratorIPKdSt6vectorIdSaIdEEEEPddET0_T_SA_S9_RSaIT1_E = comdat any

$_ZNKSt6vectorIdSaIdEE5beginEv = comdat any

$_ZNKSt6vectorIdSaIdEE3endEv = comdat any

$_ZNSt12_Vector_baseIdSaIdEE19_M_get_Tp_allocatorEv = comdat any

$_ZNSt12_Vector_baseIdSaIdEED2Ev = comdat any

$_ZNSt12_Vector_baseIdSaIdEE12_Vector_implC2ERKS0_ = comdat any

$_ZNSt12_Vector_baseIdSaIdEE17_M_create_storageEm = comdat any

$_ZNSt12_Vector_baseIdSaIdEE12_Vector_implD2Ev = comdat any

$_ZNSaIdEC2ERKS_ = comdat any

$_ZNSt12_Vector_baseIdSaIdEE17_Vector_impl_dataC2Ev = comdat any

$_ZNSaIdED2Ev = comdat any

$_ZN9__gnu_cxx13new_allocatorIdEC2ERKS1_ = comdat any

$_ZN9__gnu_cxx13new_allocatorIdED2Ev = comdat any

$_ZNSt12_Vector_baseIdSaIdEE11_M_allocateEm = comdat any

$_ZN9__gnu_cxx14__alloc_traitsISaIdEdE8allocateERS1_m = comdat any

$_ZN9__gnu_cxx13new_allocatorIdE8allocateEmPKv = comdat any

$_ZNK9__gnu_cxx13new_allocatorIdE8max_sizeEv = comdat any

$_ZSt18uninitialized_copyIN9__gnu_cxx17__normal_iteratorIPKdSt6vectorIdSaIdEEEEPdET0_T_SA_S9_ = comdat any

$_ZNSt20__uninitialized_copyILb1EE13__uninit_copyIN9__gnu_cxx17__normal_iteratorIPKdSt6vectorIdSaIdEEEEPdEET0_T_SC_SB_ = comdat any

$_ZSt4copyIN9__gnu_cxx17__normal_iteratorIPKdSt6vectorIdSaIdEEEEPdET0_T_SA_S9_ = comdat any

$_ZSt14__copy_move_a2ILb0EN9__gnu_cxx17__normal_iteratorIPKdSt6vectorIdSaIdEEEEPdET1_T0_SA_S9_ = comdat any

$_ZSt12__miter_baseIN9__gnu_cxx17__normal_iteratorIPKdSt6vectorIdSaIdEEEEET_S8_ = comdat any

$_ZSt13__copy_move_aILb0EPKdPdET1_T0_S4_S3_ = comdat any

$_ZSt12__niter_baseIPKdSt6vectorIdSaIdEEET_N9__gnu_cxx17__normal_iteratorIS5_T0_EE = comdat any

$_ZNSt11__copy_moveILb0ELb1ESt26random_access_iterator_tagE8__copy_mIdEEPT_PKS3_S6_S4_ = comdat any

$_ZNK9__gnu_cxx17__normal_iteratorIPKdSt6vectorIdSaIdEEE4baseEv = comdat any

$_ZN9__gnu_cxx17__normal_iteratorIPKdSt6vectorIdSaIdEEEC2ERKS2_ = comdat any

$_ZNSt12_Vector_baseIdSaIdEE13_M_deallocateEPdm = comdat any

$_ZN9__gnu_cxx14__alloc_traitsISaIdEdE10deallocateERS1_Pdm = comdat any

$_ZN9__gnu_cxx13new_allocatorIdE10deallocateEPdm = comdat any

$_ZNKSt6vectorIN11Polynomials19LagrangeEquidistantESaIS1_EE12_M_check_lenEmPKc = comdat any

$_ZN9__gnu_cxxmiIPN11Polynomials19LagrangeEquidistantESt6vectorIS2_SaIS2_EEEENS_17__normal_iteratorIT_T0_E15difference_typeERKSA_SD_ = comdat any

$_ZNSt6vectorIN11Polynomials19LagrangeEquidistantESaIS1_EE5beginEv = comdat any

$_ZNSt12_Vector_baseIN11Polynomials19LagrangeEquidistantESaIS1_EE11_M_allocateEm = comdat any

$_ZSt34__uninitialized_move_if_noexcept_aIPN11Polynomials19LagrangeEquidistantES2_SaIS1_EET0_T_S5_S4_RT1_ = comdat any

$_ZNK9__gnu_cxx17__normal_iteratorIPN11Polynomials19LagrangeEquidistantESt6vectorIS2_SaIS2_EEE4baseEv = comdat any

$_ZN9__gnu_cxx14__alloc_traitsISaIN11Polynomials19LagrangeEquidistantEES2_E7destroyERS3_PS2_ = comdat any

$_ZNKSt6vectorIN11Polynomials19LagrangeEquidistantESaIS1_EE8max_sizeEv = comdat any

$_ZNKSt6vectorIN11Polynomials19LagrangeEquidistantESaIS1_EE4sizeEv = comdat any

$_ZNSt6vectorIN11Polynomials19LagrangeEquidistantESaIS1_EE11_S_max_sizeERKS2_ = comdat any

$_ZNKSt12_Vector_baseIN11Polynomials19LagrangeEquidistantESaIS1_EE19_M_get_Tp_allocatorEv = comdat any

$_ZN9__gnu_cxx14__alloc_traitsISaIN11Polynomials19LagrangeEquidistantEES2_E8max_sizeERKS3_ = comdat any

$_ZNK9__gnu_cxx13new_allocatorIN11Polynomials19LagrangeEquidistantEE8max_sizeEv = comdat any

$_ZN9__gnu_cxx17__normal_iteratorIPN11Polynomials19LagrangeEquidistantESt6vectorIS2_SaIS2_EEEC2ERKS3_ = comdat any

$_ZN9__gnu_cxx14__alloc_traitsISaIN11Polynomials19LagrangeEquidistantEES2_E8allocateERS3_m = comdat any

$_ZN9__gnu_cxx13new_allocatorIN11Polynomials19LagrangeEquidistantEE8allocateEmPKv = comdat any

$_ZSt22__uninitialized_copy_aIPN11Polynomials19LagrangeEquidistantES2_S1_ET0_T_S4_S3_RSaIT1_E = comdat any

$_ZSt18uninitialized_copyIPN11Polynomials19LagrangeEquidistantES2_ET0_T_S4_S3_ = comdat any

$_ZNSt20__uninitialized_copyILb0EE13__uninit_copyIPN11Polynomials19LagrangeEquidistantES4_EET0_T_S6_S5_ = comdat any

$_ZSt10_ConstructIN11Polynomials19LagrangeEquidistantES1_EvPT_RKT0_ = comdat any

$_ZN9__gnu_cxx13new_allocatorIN11Polynomials19LagrangeEquidistantEE7destroyEPS2_ = comdat any

$_ZSt8_DestroyIPddEvT_S1_RSaIT0_E = comdat any

$_ZSt8_DestroyIPdEvT_S1_ = comdat any

$_ZNSt12_Destroy_auxILb1EE9__destroyIPdEEvT_S3_ = comdat any

$_ZNKSt6vectorIN11Polynomials19LagrangeEquidistantESaIS1_EE5beginEv = comdat any

$_ZNKSt6vectorIN11Polynomials19LagrangeEquidistantESaIS1_EE3endEv = comdat any

$_ZNSaIN11Polynomials10PolynomialIdEEEC2Ev = comdat any

$_ZNSt6vectorIN11Polynomials10PolynomialIdEESaIS2_EEC2IN9__gnu_cxx17__normal_iteratorIPKNS0_19LagrangeEquidistantES_IS8_SaIS8_EEEEEET_SE_RKS3_ = comdat any

$_ZNSaIN11Polynomials10PolynomialIdEEED2Ev = comdat any

$_ZN24TensorProductPolynomialsILi3EE12x_to_the_dimEj = comdat any

$_ZNSt6vectorIjSaIjEEixEm = comdat any

$_ZN9__gnu_cxx17__normal_iteratorIPKN11Polynomials19LagrangeEquidistantESt6vectorIS2_SaIS2_EEEC2ERKS4_ = comdat any

$_ZN9__gnu_cxx13new_allocatorIN11Polynomials10PolynomialIdEEEC2Ev = comdat any

$_ZNSt12_Vector_baseIN11Polynomials10PolynomialIdEESaIS2_EEC2ERKS3_ = comdat any

$_ZNSt6vectorIN11Polynomials10PolynomialIdEESaIS2_EE22_M_initialize_dispatchIN9__gnu_cxx17__normal_iteratorIPKNS0_19LagrangeEquidistantES_IS8_SaIS8_EEEEEEvT_SE_St12__false_type = comdat any

$_ZNSt12_Vector_baseIN11Polynomials10PolynomialIdEESaIS2_EE12_Vector_implC2ERKS3_ = comdat any

$_ZNSt12_Vector_baseIN11Polynomials10PolynomialIdEESaIS2_EE17_Vector_impl_dataC2Ev = comdat any

$_ZN9__gnu_cxx13new_allocatorIN11Polynomials10PolynomialIdEEEC2ERKS4_ = comdat any

$_ZNSt6vectorIN11Polynomials10PolynomialIdEESaIS2_EE19_M_range_initializeIN9__gnu_cxx17__normal_iteratorIPKNS0_19LagrangeEquidistantES_IS8_SaIS8_EEEEEEvT_SE_St20forward_iterator_tag = comdat any

$_ZSt19__iterator_categoryIN9__gnu_cxx17__normal_iteratorIPKN11Polynomials19LagrangeEquidistantESt6vectorIS3_SaIS3_EEEEENSt15iterator_traitsIT_E17iterator_categoryERKSB_ = comdat any

$_ZSt8distanceIN9__gnu_cxx17__normal_iteratorIPKN11Polynomials19LagrangeEquidistantESt6vectorIS3_SaIS3_EEEEENSt15iterator_traitsIT_E15difference_typeESB_SB_ = comdat any

$_ZNSt12_Vector_baseIN11Polynomials10PolynomialIdEESaIS2_EE11_M_allocateEm = comdat any

$_ZNSt6vectorIN11Polynomials10PolynomialIdEESaIS2_EE17_S_check_init_lenEmRKS3_ = comdat any

$_ZSt22__uninitialized_copy_aIN9__gnu_cxx17__normal_iteratorIPKN11Polynomials19LagrangeEquidistantESt6vectorIS3_SaIS3_EEEEPNS2_10PolynomialIdEESB_ET0_T_SE_SD_RSaIT1_E = comdat any

$_ZSt10__distanceIN9__gnu_cxx17__normal_iteratorIPKN11Polynomials19LagrangeEquidistantESt6vectorIS3_SaIS3_EEEEENSt15iterator_traitsIT_E15difference_typeESB_SB_St26random_access_iterator_tag = comdat any

$_ZN9__gnu_cxxmiIPKN11Polynomials19LagrangeEquidistantESt6vectorIS2_SaIS2_EEEENS_17__normal_iteratorIT_T0_E15difference_typeERKSB_SE_ = comdat any

$_ZNK9__gnu_cxx17__normal_iteratorIPKN11Polynomials19LagrangeEquidistantESt6vectorIS2_SaIS2_EEE4baseEv = comdat any

$_ZN9__gnu_cxx14__alloc_traitsISaIN11Polynomials10PolynomialIdEEES3_E8allocateERS4_m = comdat any

$_ZN9__gnu_cxx13new_allocatorIN11Polynomials10PolynomialIdEEE8allocateEmPKv = comdat any

$_ZNK9__gnu_cxx13new_allocatorIN11Polynomials10PolynomialIdEEE8max_sizeEv = comdat any

$_ZNSt6vectorIN11Polynomials10PolynomialIdEESaIS2_EE11_S_max_sizeERKS3_ = comdat any

$_ZNSaIN11Polynomials10PolynomialIdEEEC2ERKS2_ = comdat any

$_ZN9__gnu_cxx14__alloc_traitsISaIN11Polynomials10PolynomialIdEEES3_E8max_sizeERKS4_ = comdat any

$_ZSt18uninitialized_copyIN9__gnu_cxx17__normal_iteratorIPKN11Polynomials19LagrangeEquidistantESt6vectorIS3_SaIS3_EEEEPNS2_10PolynomialIdEEET0_T_SE_SD_ = comdat any

$_ZNSt20__uninitialized_copyILb0EE13__uninit_copyIN9__gnu_cxx17__normal_iteratorIPKN11Polynomials19LagrangeEquidistantESt6vectorIS5_SaIS5_EEEEPNS4_10PolynomialIdEEEET0_T_SG_SF_ = comdat any

$_ZN9__gnu_cxxneIPKN11Polynomials19LagrangeEquidistantESt6vectorIS2_SaIS2_EEEEbRKNS_17__normal_iteratorIT_T0_EESD_ = comdat any

$_ZSt10_ConstructIN11Polynomials10PolynomialIdEENS0_19LagrangeEquidistantEEvPT_RKT0_ = comdat any

$_ZNK9__gnu_cxx17__normal_iteratorIPKN11Polynomials19LagrangeEquidistantESt6vectorIS2_SaIS2_EEEdeEv = comdat any

$_ZN9__gnu_cxx17__normal_iteratorIPKN11Polynomials19LagrangeEquidistantESt6vectorIS2_SaIS2_EEEppEv = comdat any

$_ZN11Polynomials10PolynomialIdEC2ERKS1_ = comdat any

$_ZNKSt6vectorIjSaIjEE4sizeEv = comdat any

$_ZNSt6vectorIjSaIjEE14_M_fill_insertEN9__gnu_cxx17__normal_iteratorIPjS1_EEmRKj = comdat any

$_ZNSt6vectorIjSaIjEE3endEv = comdat any

$_ZNSt6vectorIjSaIjEE15_M_erase_at_endEPj = comdat any

$_ZN9__gnu_cxxmiIPjSt6vectorIjSaIjEEEENS_17__normal_iteratorIT_T0_E15difference_typeERKS8_SB_ = comdat any

$_ZSt22__uninitialized_move_aIPjS0_SaIjEET0_T_S3_S2_RT1_ = comdat any

$_ZSt13copy_backwardIPjS0_ET0_T_S2_S1_ = comdat any

$_ZNK9__gnu_cxx17__normal_iteratorIPjSt6vectorIjSaIjEEE4baseEv = comdat any

$_ZSt4fillIPjjEvT_S1_RKT0_ = comdat any

$_ZNKSt6vectorIjSaIjEE12_M_check_lenEmPKc = comdat any

$_ZNSt6vectorIjSaIjEE5beginEv = comdat any

$_ZSt34__uninitialized_move_if_noexcept_aIPjS0_SaIjEET0_T_S3_S2_RT1_ = comdat any

$_ZSt22__uninitialized_copy_aIPjS0_jET0_T_S2_S1_RSaIT1_E = comdat any

$_ZSt18uninitialized_copyIPjS0_ET0_T_S2_S1_ = comdat any

$_ZNSt20__uninitialized_copyILb1EE13__uninit_copyIPjS2_EET0_T_S4_S3_ = comdat any

$_ZSt4copyIPjS0_ET0_T_S2_S1_ = comdat any

$_ZSt14__copy_move_a2ILb0EPjS0_ET1_T0_S2_S1_ = comdat any

$_ZSt12__miter_baseIPjET_S1_ = comdat any

$_ZSt13__copy_move_aILb0EPjS0_ET1_T0_S2_S1_ = comdat any

$_ZNSt11__copy_moveILb0ELb1ESt26random_access_iterator_tagE8__copy_mIjEEPT_PKS3_S6_S4_ = comdat any

$_ZSt23__copy_move_backward_a2ILb0EPjS0_ET1_T0_S2_S1_ = comdat any

$_ZSt22__copy_move_backward_aILb0EPjS0_ET1_T0_S2_S1_ = comdat any

$_ZNSt20__copy_move_backwardILb0ELb1ESt26random_access_iterator_tagE13__copy_move_bIjEEPT_PKS3_S6_S4_ = comdat any

$_ZSt8__fill_aIPjjEN9__gnu_cxx11__enable_ifIXsr11__is_scalarIT0_EE7__valueEvE6__typeET_S6_RKS3_ = comdat any

$_ZNKSt6vectorIjSaIjEE8max_sizeEv = comdat any

$_ZNKSt12_Vector_baseIjSaIjEE19_M_get_Tp_allocatorEv = comdat any

$_ZN9__gnu_cxx17__normal_iteratorIPjSt6vectorIjSaIjEEEC2ERKS1_ = comdat any

$_ZN9__gnu_cxx17__normal_iteratorIPK6TensorILi2ELi3EESt6vectorIS2_SaIS2_EEEC2ERKS4_ = comdat any

$_ZN6TensorILi1ELi3EE5clearEv = comdat any

$_ZNK6TensorILi1ELi3EEixEj = comdat any

$_ZNK6TensorILi2ELi3EEixEj = comdat any

$_ZN6TensorILi1ELi3EEixEj = comdat any

$_ZN6TensorILi2ELi3EE5clearEv = comdat any

$_ZN6TensorILi2ELi3EEixEj = comdat any

$_ZNSt12_Vector_baseISt6vectorI5PointILi3EESaIS2_EESaIS4_EEC2Ev = comdat any

$_ZNSt12_Vector_baseISt6vectorI5PointILi3EESaIS2_EESaIS4_EE12_Vector_implC2Ev = comdat any

$_ZNSaISt6vectorI5PointILi3EESaIS1_EEEC2Ev = comdat any

$_ZNSt12_Vector_baseISt6vectorI5PointILi3EESaIS2_EESaIS4_EE17_Vector_impl_dataC2Ev = comdat any

$_ZNSaISt6vectorI5PointILi3EESaIS1_EEED2Ev = comdat any

$_ZN9__gnu_cxx13new_allocatorISt6vectorI5PointILi3EESaIS3_EEEC2Ev = comdat any

$_ZN9__gnu_cxx13new_allocatorISt6vectorI5PointILi3EESaIS3_EEED2Ev = comdat any

$_ZSt8_DestroyIPSt6vectorI5PointILi3EESaIS2_EES4_EvT_S6_RSaIT0_E = comdat any

$_ZNSt12_Vector_baseISt6vectorI5PointILi3EESaIS2_EESaIS4_EE19_M_get_Tp_allocatorEv = comdat any

$_ZNSt12_Vector_baseISt6vectorI5PointILi3EESaIS2_EESaIS4_EED2Ev = comdat any

$_ZSt8_DestroyIPSt6vectorI5PointILi3EESaIS2_EEEvT_S6_ = comdat any

$_ZNSt12_Destroy_auxILb0EE9__destroyIPSt6vectorI5PointILi3EESaIS4_EEEEvT_S8_ = comdat any

$_ZSt8_DestroyISt6vectorI5PointILi3EESaIS2_EEEvPT_ = comdat any

$_ZSt11__addressofISt6vectorI5PointILi3EESaIS2_EEEPT_RS5_ = comdat any

$_ZNSt12_Vector_baseISt6vectorI5PointILi3EESaIS2_EESaIS4_EE13_M_deallocateEPS4_m = comdat any

$_ZNSt12_Vector_baseISt6vectorI5PointILi3EESaIS2_EESaIS4_EE12_Vector_implD2Ev = comdat any

$_ZN9__gnu_cxx14__alloc_traitsISaISt6vectorI5PointILi3EESaIS3_EEES5_E10deallocateERS6_PS5_m = comdat any

$_ZN9__gnu_cxx13new_allocatorISt6vectorI5PointILi3EESaIS3_EEE10deallocateEPS5_m = comdat any

$_ZSt8_DestroyIP6TensorILi1ELi3EES1_EvT_S3_RSaIT0_E = comdat any

$_ZNSt12_Vector_baseI6TensorILi1ELi3EESaIS1_EE19_M_get_Tp_allocatorEv = comdat any

$_ZNSt12_Vector_baseI6TensorILi1ELi3EESaIS1_EED2Ev = comdat any

$_ZSt8_DestroyIP6TensorILi1ELi3EEEvT_S3_ = comdat any

$_ZNSt12_Destroy_auxILb1EE9__destroyIP6TensorILi1ELi3EEEEvT_S5_ = comdat any

$_ZNSt12_Vector_baseI6TensorILi1ELi3EESaIS1_EE13_M_deallocateEPS1_m = comdat any

$_ZNSt12_Vector_baseI6TensorILi1ELi3EESaIS1_EE12_Vector_implD2Ev = comdat any

$_ZN9__gnu_cxx14__alloc_traitsISaI6TensorILi1ELi3EEES2_E10deallocateERS3_PS2_m = comdat any

$_ZN9__gnu_cxx13new_allocatorI6TensorILi1ELi3EEE10deallocateEPS2_m = comdat any

$_ZNSaI6TensorILi1ELi3EEED2Ev = comdat any

$_ZN9__gnu_cxx13new_allocatorI6TensorILi1ELi3EEED2Ev = comdat any

$_ZSt8_DestroyIP6TensorILi2ELi3EES1_EvT_S3_RSaIT0_E = comdat any

$_ZNSt12_Vector_baseI6TensorILi2ELi3EESaIS1_EE19_M_get_Tp_allocatorEv = comdat any

$_ZNSt12_Vector_baseI6TensorILi2ELi3EESaIS1_EED2Ev = comdat any

$_ZSt8_DestroyIP6TensorILi2ELi3EEEvT_S3_ = comdat any

$_ZNSt12_Destroy_auxILb1EE9__destroyIP6TensorILi2ELi3EEEEvT_S5_ = comdat any

$_ZNSt12_Vector_baseI6TensorILi2ELi3EESaIS1_EE13_M_deallocateEPS1_m = comdat any

$_ZNSt12_Vector_baseI6TensorILi2ELi3EESaIS1_EE12_Vector_implD2Ev = comdat any

$_ZN9__gnu_cxx14__alloc_traitsISaI6TensorILi2ELi3EEES2_E10deallocateERS3_PS2_m = comdat any

$_ZN9__gnu_cxx13new_allocatorI6TensorILi2ELi3EEE10deallocateEPS2_m = comdat any

$_ZNSaI6TensorILi2ELi3EEED2Ev = comdat any

$_ZN9__gnu_cxx13new_allocatorI6TensorILi2ELi3EEED2Ev = comdat any

$_ZNKSt6vectorIS_I5PointILi3EESaIS1_EESaIS3_EE4sizeEv = comdat any

$_ZN17MemoryConsumption18memory_consumptionI5PointILi3EEEEjRKSt6vectorIT_SaIS4_EE = comdat any

$_ZNKSt6vectorIS_I5PointILi3EESaIS1_EESaIS3_EEixEm = comdat any

$_ZNKSt6vectorIS_I5PointILi3EESaIS1_EESaIS3_EE8capacityEv = comdat any

$_ZN17MemoryConsumption18memory_consumptionI5PointILi3EEEEjRKT_ = comdat any

$_ZNKSt6vectorI5PointILi3EESaIS1_EE8capacityEv = comdat any

$_ZN6TensorILi1ELi3EE18memory_consumptionEv = comdat any

$_ZNK15TriaRawIteratorILi3E15DoFCellAccessorILi3EEEdeEv = comdat any

$_ZN15TriaRawIteratorILi3E18TriaObjectAccessorILi2ELi3EEEptEv = comdat any

$_ZN15TriaRawIteratorILi3E18TriaObjectAccessorILi2ELi3EEEdeEv = comdat any

$_ZNK15TriaRawIteratorILi3E18TriaObjectAccessorILi1ELi3EEEdeEv = comdat any

$_ZNSt12_Vector_baseIdSaIdEEC2Ev = comdat any

$_ZNSt12_Vector_baseIdSaIdEE12_Vector_implC2Ev = comdat any

$_ZNSaIdEC2Ev = comdat any

$_ZN9__gnu_cxx13new_allocatorIdEC2Ev = comdat any

$_ZNSt12_Vector_baseI6TensorILi1ELi3EESaIS1_EEC2Ev = comdat any

$_ZNSt12_Vector_baseI6TensorILi1ELi3EESaIS1_EE12_Vector_implC2Ev = comdat any

$_ZNSaI6TensorILi1ELi3EEEC2Ev = comdat any

$_ZNSt12_Vector_baseI6TensorILi1ELi3EESaIS1_EE17_Vector_impl_dataC2Ev = comdat any

$_ZN9__gnu_cxx13new_allocatorI6TensorILi1ELi3EEEC2Ev = comdat any

$_ZNSt6vectorIdSaIdEE14_M_fill_insertEN9__gnu_cxx17__normal_iteratorIPdS1_EEmRKd = comdat any

$_ZNSt6vectorIdSaIdEE3endEv = comdat any

$_ZNSt6vectorIdSaIdEE15_M_erase_at_endEPd = comdat any

$_ZN9__gnu_cxxmiIPdSt6vectorIdSaIdEEEENS_17__normal_iteratorIT_T0_E15difference_typeERKS8_SB_ = comdat any

$_ZSt22__uninitialized_move_aIPdS0_SaIdEET0_T_S3_S2_RT1_ = comdat any

$_ZSt13copy_backwardIPdS0_ET0_T_S2_S1_ = comdat any

$_ZNK9__gnu_cxx17__normal_iteratorIPdSt6vectorIdSaIdEEE4baseEv = comdat any

$_ZSt4fillIPddEvT_S1_RKT0_ = comdat any

$_ZSt24__uninitialized_fill_n_aIPdmddET_S1_T0_RKT1_RSaIT2_E = comdat any

$_ZNKSt6vectorIdSaIdEE12_M_check_lenEmPKc = comdat any

$_ZNSt6vectorIdSaIdEE5beginEv = comdat any

$_ZSt34__uninitialized_move_if_noexcept_aIPdS0_SaIdEET0_T_S3_S2_RT1_ = comdat any

$_ZSt22__uninitialized_copy_aIPdS0_dET0_T_S2_S1_RSaIT1_E = comdat any

$_ZSt18uninitialized_copyIPdS0_ET0_T_S2_S1_ = comdat any

$_ZNSt20__uninitialized_copyILb1EE13__uninit_copyIPdS2_EET0_T_S4_S3_ = comdat any

$_ZSt4copyIPdS0_ET0_T_S2_S1_ = comdat any

$_ZSt14__copy_move_a2ILb0EPdS0_ET1_T0_S2_S1_ = comdat any

$_ZSt12__miter_baseIPdET_S1_ = comdat any

$_ZSt13__copy_move_aILb0EPdS0_ET1_T0_S2_S1_ = comdat any

$_ZSt23__copy_move_backward_a2ILb0EPdS0_ET1_T0_S2_S1_ = comdat any

$_ZSt22__copy_move_backward_aILb0EPdS0_ET1_T0_S2_S1_ = comdat any

$_ZNSt20__copy_move_backwardILb0ELb1ESt26random_access_iterator_tagE13__copy_move_bIdEEPT_PKS3_S6_S4_ = comdat any

$_ZSt8__fill_aIPddEN9__gnu_cxx11__enable_ifIXsr11__is_scalarIT0_EE7__valueEvE6__typeET_S6_RKS3_ = comdat any

$_ZSt20uninitialized_fill_nIPdmdET_S1_T0_RKT1_ = comdat any

$_ZNSt22__uninitialized_fill_nILb1EE15__uninit_fill_nIPdmdEET_S3_T0_RKT1_ = comdat any

$_ZSt6fill_nIPdmdET_S1_T0_RKT1_ = comdat any

$_ZSt10__fill_n_aIPdmdEN9__gnu_cxx11__enable_ifIXsr11__is_scalarIT1_EE7__valueET_E6__typeES4_T0_RKS3_ = comdat any

$_ZNKSt6vectorIdSaIdEE8max_sizeEv = comdat any

$_ZNSt6vectorIdSaIdEE11_S_max_sizeERKS0_ = comdat any

$_ZN9__gnu_cxx14__alloc_traitsISaIdEdE8max_sizeERKS1_ = comdat any

$_ZN9__gnu_cxx17__normal_iteratorIPdSt6vectorIdSaIdEEEC2ERKS1_ = comdat any

$_ZNSt6vectorI6TensorILi1ELi3EESaIS1_EE14_M_fill_insertEN9__gnu_cxx17__normal_iteratorIPS1_S3_EEmRKS1_ = comdat any

$_ZNSt6vectorI6TensorILi1ELi3EESaIS1_EE3endEv = comdat any

$_ZNSt6vectorI6TensorILi1ELi3EESaIS1_EE15_M_erase_at_endEPS1_ = comdat any

$_ZN6TensorILi1ELi3EEC2ERKS0_ = comdat any

$_ZN9__gnu_cxxmiIP6TensorILi1ELi3EESt6vectorIS2_SaIS2_EEEENS_17__normal_iteratorIT_T0_E15difference_typeERKSA_SD_ = comdat any

$_ZSt22__uninitialized_move_aIP6TensorILi1ELi3EES2_SaIS1_EET0_T_S5_S4_RT1_ = comdat any

$_ZSt13copy_backwardIP6TensorILi1ELi3EES2_ET0_T_S4_S3_ = comdat any

$_ZNK9__gnu_cxx17__normal_iteratorIP6TensorILi1ELi3EESt6vectorIS2_SaIS2_EEE4baseEv = comdat any

$_ZSt4fillIP6TensorILi1ELi3EES1_EvT_S3_RKT0_ = comdat any

$_ZSt24__uninitialized_fill_n_aIP6TensorILi1ELi3EEmS1_S1_ET_S3_T0_RKT1_RSaIT2_E = comdat any

$_ZNKSt6vectorI6TensorILi1ELi3EESaIS1_EE12_M_check_lenEmPKc = comdat any

$_ZNSt6vectorI6TensorILi1ELi3EESaIS1_EE5beginEv = comdat any

$_ZNSt12_Vector_baseI6TensorILi1ELi3EESaIS1_EE11_M_allocateEm = comdat any

$_ZSt34__uninitialized_move_if_noexcept_aIP6TensorILi1ELi3EES2_SaIS1_EET0_T_S5_S4_RT1_ = comdat any

$_ZSt22__uninitialized_copy_aIP6TensorILi1ELi3EES2_S1_ET0_T_S4_S3_RSaIT1_E = comdat any

$_ZSt18uninitialized_copyIP6TensorILi1ELi3EES2_ET0_T_S4_S3_ = comdat any

$_ZNSt20__uninitialized_copyILb0EE13__uninit_copyIP6TensorILi1ELi3EES4_EET0_T_S6_S5_ = comdat any

$_ZSt10_ConstructI6TensorILi1ELi3EES1_EvPT_RKT0_ = comdat any

$_ZSt11__addressofI6TensorILi1ELi3EEEPT_RS2_ = comdat any

$_ZSt23__copy_move_backward_a2ILb0EP6TensorILi1ELi3EES2_ET1_T0_S4_S3_ = comdat any

$_ZSt12__miter_baseIP6TensorILi1ELi3EEET_S3_ = comdat any

$_ZSt12__niter_wrapIP6TensorILi1ELi3EEET_RKS3_S3_ = comdat any

$_ZSt22__copy_move_backward_aILb0EP6TensorILi1ELi3EES2_ET1_T0_S4_S3_ = comdat any

$_ZSt12__niter_baseIP6TensorILi1ELi3EEET_S3_ = comdat any

$_ZNSt20__copy_move_backwardILb0ELb0ESt26random_access_iterator_tagE13__copy_move_bIP6TensorILi1ELi3EES5_EET0_T_S7_S6_ = comdat any

$_ZSt8__fill_aIP6TensorILi1ELi3EES1_EN9__gnu_cxx11__enable_ifIXntsr11__is_scalarIT0_EE7__valueEvE6__typeET_S8_RKS5_ = comdat any

$_ZSt20uninitialized_fill_nIP6TensorILi1ELi3EEmS1_ET_S3_T0_RKT1_ = comdat any

$_ZNSt22__uninitialized_fill_nILb0EE15__uninit_fill_nIP6TensorILi1ELi3EEmS3_EET_S5_T0_RKT1_ = comdat any

$_ZNKSt6vectorI6TensorILi1ELi3EESaIS1_EE8max_sizeEv = comdat any

$_ZNSt6vectorI6TensorILi1ELi3EESaIS1_EE11_S_max_sizeERKS2_ = comdat any

$_ZNKSt12_Vector_baseI6TensorILi1ELi3EESaIS1_EE19_M_get_Tp_allocatorEv = comdat any

$_ZN9__gnu_cxx14__alloc_traitsISaI6TensorILi1ELi3EEES2_E8max_sizeERKS3_ = comdat any

$_ZNK9__gnu_cxx13new_allocatorI6TensorILi1ELi3EEE8max_sizeEv = comdat any

$_ZN9__gnu_cxx17__normal_iteratorIP6TensorILi1ELi3EESt6vectorIS2_SaIS2_EEEC2ERKS3_ = comdat any

$_ZN9__gnu_cxx14__alloc_traitsISaI6TensorILi1ELi3EEES2_E8allocateERS3_m = comdat any

$_ZN9__gnu_cxx13new_allocatorI6TensorILi1ELi3EEE8allocateEmPKv = comdat any

$_ZNSt12_Vector_baseI6TensorILi2ELi3EESaIS1_EEC2Ev = comdat any

$_ZNSt12_Vector_baseI6TensorILi2ELi3EESaIS1_EE12_Vector_implC2Ev = comdat any

$_ZNSaI6TensorILi2ELi3EEEC2Ev = comdat any

$_ZNSt12_Vector_baseI6TensorILi2ELi3EESaIS1_EE17_Vector_impl_dataC2Ev = comdat any

$_ZN9__gnu_cxx13new_allocatorI6TensorILi2ELi3EEEC2Ev = comdat any

$_ZN8internal18TableBaseAccessors8AccessorILi2EdLb1ELj1EEC2ERK9TableBaseILi2EdEPKd = comdat any

$_ZNK5PointILi3EEmlEd = comdat any

$_ZN6TensorILi1ELi3EEmLERKd = comdat any

$_ZN5PointILi3EEC2ERK6TensorILi1ELi3EE = comdat any

$_ZTV8MappingQILi3EE = comdat any

$_ZTSN7MappingILi3EE16InternalDataBaseE = comdat any

$_ZTIN7MappingILi3EE16InternalDataBaseE = comdat any

$_ZTSN8MappingQILi3EE12InternalDataE = comdat any

$_ZTSN9MappingQ1ILi3EE12InternalDataE = comdat any

$_ZTIN9MappingQ1ILi3EE12InternalDataE = comdat any

$_ZTIN8MappingQILi3EE12InternalDataE = comdat any

$_ZTVN8MappingQILi3EE12InternalDataE = comdat any

$_ZZNK8MappingQILi3EE23add_line_support_pointsERK12TriaIteratorILi3E12CellAccessorILi3EEERSt6vectorI5PointILi3EESaIS9_EEE17straight_boundary = comdat any

$_ZGVZNK8MappingQILi3EE23add_line_support_pointsERK12TriaIteratorILi3E12CellAccessorILi3EEERSt6vectorI5PointILi3EESaIS9_EEE17straight_boundary = comdat any

$_ZZNK8MappingQILi3EE26set_laplace_on_quad_vectorER5TableILi2EdEE5loqv2 = comdat any

$_ZZNK8MappingQILi3EE26set_laplace_on_quad_vectorER5TableILi2EdEE5loqv3 = comdat any

$_ZZNK8MappingQILi3EE26set_laplace_on_quad_vectorER5TableILi2EdEE5loqv4 = comdat any

$_ZTVN8MappingQILi3EE22ExcLaplaceVectorNotSetE = comdat any

$_ZN8MappingQILi3EE26use_mapping_q_on_all_cellsE = comdat any

$_ZTS8MappingQILi3EE = comdat any

$_ZTS9MappingQ1ILi3EE = comdat any

$_ZTS7MappingILi3EE = comdat any

$_ZTI7MappingILi3EE = comdat any

$_ZTI9MappingQ1ILi3EE = comdat any

$_ZTI8MappingQILi3EE = comdat any

$_ZTSN8MappingQILi3EE22ExcLaplaceVectorNotSetE = comdat any

$_ZTIN8MappingQILi3EE22ExcLaplaceVectorNotSetE = comdat any

$_ZTVN11Polynomials10PolynomialIdEE = comdat any

$_ZTSN11Polynomials10PolynomialIdEE = comdat any

$_ZTIN11Polynomials10PolynomialIdEE = comdat any

$_ZTV4FE_QILi3EE = comdat any

$_ZTS4FE_QILi3EE = comdat any

$_ZTS7FE_PolyI24TensorProductPolynomialsILi3EELi3EE = comdat any

$_ZTS13FiniteElementILi3EE = comdat any

$_ZTS17FiniteElementBaseILi3EE = comdat any

$_ZTS17FiniteElementDataILi3EE = comdat any

$_ZTI17FiniteElementDataILi3EE = comdat any

$_ZTI17FiniteElementBaseILi3EE = comdat any

$_ZTI13FiniteElementILi3EE = comdat any

$_ZTI7FE_PolyI24TensorProductPolynomialsILi3EELi3EE = comdat any

$_ZTI4FE_QILi3EE = comdat any

$_ZTV7FE_PolyI24TensorProductPolynomialsILi3EELi3EE = comdat any

$_ZTV9TableBaseILi2EdE = comdat any

$_ZTS9TableBaseILi2EdE = comdat any

$_ZTI9TableBaseILi2EdE = comdat any

$_ZTVN9MappingQ1ILi3EE12InternalDataE = comdat any

$_ZTV9TableBaseILi2E6TensorILi1ELi3EEE = comdat any

$_ZTS9TableBaseILi2E6TensorILi1ELi3EEE = comdat any

$_ZTI9TableBaseILi2E6TensorILi1ELi3EEE = comdat any

$_ZTV5TableILi2EdE = comdat any

$_ZTS5TableILi2EdE = comdat any

$_ZTI5TableILi2EdE = comdat any

$_ZTVN11Polynomials19LagrangeEquidistantE = comdat any

$_ZTSN11Polynomials19LagrangeEquidistantE = comdat any

$_ZTIN11Polynomials19LagrangeEquidistantE = comdat any

$_ZZNK18TriaObjectAccessorILi3ELi3EE4lineEjE12lookup_table = comdat any

@_ZZNK8MappingQILi3EE25set_laplace_on_hex_vectorER5TableILi2EdEE5loqv2 = internal constant [26 x double] [double 7.812500e-03, double 7.812500e-03, double 7.812500e-03, double 7.812500e-03, double 7.812500e-03, double 7.812500e-03, double 7.812500e-03, double 7.812500e-03, double 0x3FA2AAAAAAAAAAAB, double 0x3FA2AAAAAAAAAAAB, double 0x3FA2AAAAAAAAAAAB, double 0x3FA2AAAAAAAAAAAB, double 0x3FA2AAAAAAAAAAAB, double 0x3FA2AAAAAAAAAAAB, double 0x3FA2AAAAAAAAAAAB, double 0x3FA2AAAAAAAAAAAB, double 0x3FA2AAAAAAAAAAAB, double 0x3FA2AAAAAAAAAAAB, double 0x3FA2AAAAAAAAAAAB, double 0x3FA2AAAAAAAAAAAB, double 0x3FB5555555555555, double 0x3FB5555555555555, double 0x3FB5555555555555, double 0x3FB5555555555555, double 0x3FB5555555555555, double 0x3FB5555555555555], align 16
@_ZZNK8MappingQILi3EE23add_quad_support_pointsERK12TriaIteratorILi3E12CellAccessorILi3EEERSt6vectorI5PointILi3EESaIS9_EEE27face_vertex_to_cell_vertex1 = internal constant [6 x [4 x i32]] [[4 x i32] [i32 0, i32 1, i32 2, i32 3], [4 x i32] [i32 4, i32 5, i32 6, i32 7], [4 x i32] [i32 0, i32 1, i32 5, i32 4], [4 x i32] [i32 1, i32 5, i32 6, i32 2], [4 x i32] [i32 3, i32 2, i32 6, i32 7], [4 x i32] [i32 0, i32 4, i32 7, i32 3]], align 16
@_ZZNK8MappingQILi3EE23add_quad_support_pointsERK12TriaIteratorILi3E12CellAccessorILi3EEERSt6vectorI5PointILi3EESaIS9_EEE27face_vertex_to_cell_vertex2 = internal constant [6 x [4 x i32]] [[4 x i32] [i32 0, i32 3, i32 2, i32 1], [4 x i32] [i32 4, i32 7, i32 6, i32 5], [4 x i32] [i32 0, i32 4, i32 5, i32 1], [4 x i32] [i32 1, i32 2, i32 6, i32 5], [4 x i32] [i32 3, i32 7, i32 6, i32 2], [4 x i32] [i32 0, i32 3, i32 7, i32 4]], align 16
@_ZZNK8MappingQILi3EE23add_quad_support_pointsERK12TriaIteratorILi3E12CellAccessorILi3EEERSt6vectorI5PointILi3EESaIS9_EEE23face_line_to_cell_line1 = internal constant [6 x [4 x i32]] [[4 x i32] [i32 0, i32 1, i32 2, i32 3], [4 x i32] [i32 4, i32 5, i32 6, i32 7], [4 x i32] [i32 0, i32 9, i32 4, i32 8], [4 x i32] [i32 9, i32 5, i32 10, i32 1], [4 x i32] [i32 2, i32 10, i32 6, i32 11], [4 x i32] [i32 8, i32 7, i32 11, i32 3]], align 16
@_ZZNK8MappingQILi3EE23add_quad_support_pointsERK12TriaIteratorILi3E12CellAccessorILi3EEERSt6vectorI5PointILi3EESaIS9_EEE23face_line_to_cell_line2 = internal constant [6 x [4 x i32]] [[4 x i32] [i32 3, i32 2, i32 1, i32 0], [4 x i32] [i32 7, i32 6, i32 5, i32 4], [4 x i32] [i32 8, i32 4, i32 9, i32 0], [4 x i32] [i32 1, i32 10, i32 5, i32 9], [4 x i32] [i32 11, i32 6, i32 10, i32 2], [4 x i32] [i32 3, i32 11, i32 7, i32 8]], align 16
@_ZZNK8MappingQILi3EE23add_quad_support_pointsERK12TriaIteratorILi3E12CellAccessorILi3EEERSt6vectorI5PointILi3EESaIS9_EEE17straight_boundary = internal global %class.StraightBoundary zeroinitializer, align 8
@_ZGVZNK8MappingQILi3EE23add_quad_support_pointsERK12TriaIteratorILi3E12CellAccessorILi3EEERSt6vectorI5PointILi3EESaIS9_EEE17straight_boundary = internal global i64 0, align 8
@__dso_handle = external global i8
@_ZTV8MappingQILi3EE = weak_odr unnamed_addr constant { [22 x i8*] } { [22 x i8*] [i8* null, i8* bitcast ({ i8*, i8*, i8* }* @_ZTI8MappingQILi3EE to i8*), i8* bitcast (void (%class.MappingQ*)* @_ZN8MappingQILi3EED1Ev to i8*), i8* bitcast (void (%class.MappingQ*)* @_ZN8MappingQILi3EED0Ev to i8*), i8* bitcast (void (%class.Point*, %class.MappingQ*, %class.TriaIterator*, %class.Point*)* @_ZNK8MappingQILi3EE27transform_unit_to_real_cellERK12TriaIteratorILi3E12CellAccessorILi3EEERK5PointILi3EE to i8*), i8* bitcast (void (%class.Point*, %class.MappingQ*, %class.TriaIterator*, %class.Point*)* @_ZNK8MappingQILi3EE27transform_real_to_unit_cellERK12TriaIteratorILi3E12CellAccessorILi3EEERK5PointILi3EE to i8*), i8* bitcast (void (%class.MappingQ*, %class.Tensor*, %class.Tensor*, %class.Tensor*, %"class.Mapping<3>::InternalDataBase"*)* @_ZNK8MappingQILi3EE19transform_covariantEP6TensorILi1ELi3EES3_PKS2_RKN7MappingILi3EE16InternalDataBaseE to i8*), i8* bitcast (void (%class.MappingQ*, %class.Tensor.113*, %class.Tensor.113*, %class.Tensor.113*, %"class.Mapping<3>::InternalDataBase"*)* @_ZNK8MappingQILi3EE19transform_covariantEP6TensorILi2ELi3EES3_PKS2_RKN7MappingILi3EE16InternalDataBaseE to i8*), i8* bitcast (void (%class.MappingQ*, %class.Tensor*, %class.Tensor*, %class.Tensor*, %"class.Mapping<3>::InternalDataBase"*)* @_ZNK8MappingQILi3EE23transform_contravariantEP6TensorILi1ELi3EES3_PKS2_RKN7MappingILi3EE16InternalDataBaseE to i8*), i8* bitcast (void (%class.MappingQ*, %class.Tensor.113*, %class.Tensor.113*, %class.Tensor.113*, %"class.Mapping<3>::InternalDataBase"*)* @_ZNK8MappingQILi3EE23transform_contravariantEP6TensorILi2ELi3EES3_PKS2_RKN7MappingILi3EE16InternalDataBaseE to i8*), i8* bitcast (i32 (%class.MappingQ1*, i32)* @_ZNK9MappingQ1ILi3EE11update_onceE11UpdateFlags to i8*), i8* bitcast (i32 (%class.MappingQ1*, i32)* @_ZNK9MappingQ1ILi3EE11update_eachE11UpdateFlags to i8*), i8* bitcast (%"class.Mapping<3>::InternalDataBase"* (%class.MappingQ*, i32, %class.Quadrature*)* @_ZNK8MappingQILi3EE8get_dataE11UpdateFlagsRK10QuadratureILi3EE to i8*), i8* bitcast (%"class.Mapping<3>::InternalDataBase"* (%class.MappingQ*, i32, %class.Quadrature.135*)* @_ZNK8MappingQILi3EE13get_face_dataE11UpdateFlagsRK10QuadratureILi2EE to i8*), i8* bitcast (%"class.Mapping<3>::InternalDataBase"* (%class.MappingQ*, i32, %class.Quadrature.135*)* @_ZNK8MappingQILi3EE16get_subface_dataE11UpdateFlagsRK10QuadratureILi2EE to i8*), i8* bitcast (void (%class.MappingQ*, %class.TriaIterator.118*, %class.Quadrature*, %"class.Mapping<3>::InternalDataBase"*, %"class.std::vector.58"*, %"class.std::vector.0"*)* @_ZNK8MappingQILi3EE14fill_fe_valuesERK12TriaIteratorILi3E15DoFCellAccessorILi3EEERK10QuadratureILi3EERN7MappingILi3EE16InternalDataBaseERSt6vectorI5PointILi3EESaISH_EERSF_IdSaIdEE to i8*), i8* bitcast (void (%class.MappingQ*, %class.TriaIterator.118*, i32, %class.Quadrature.135*, %"class.Mapping<3>::InternalDataBase"*, %"class.std::vector.58"*, %"class.std::vector.0"*, %"class.std::vector.103"*, %"class.std::vector.58"*)* @_ZNK8MappingQILi3EE19fill_fe_face_valuesERK12TriaIteratorILi3E15DoFCellAccessorILi3EEEjRK10QuadratureILi2EERN7MappingILi3EE16InternalDataBaseERSt6vectorI5PointILi3EESaISH_EERSF_IdSaIdEERSF_I6TensorILi1ELi3EESaISP_EESK_ to i8*), i8* bitcast (void (%class.MappingQ*, %class.TriaIterator.118*, i32, i32, %class.Quadrature.135*, %"class.Mapping<3>::InternalDataBase"*, %"class.std::vector.58"*, %"class.std::vector.0"*, %"class.std::vector.103"*, %"class.std::vector.58"*)* @_ZNK8MappingQILi3EE22fill_fe_subface_valuesERK12TriaIteratorILi3E15DoFCellAccessorILi3EEEjjRK10QuadratureILi2EERN7MappingILi3EE16InternalDataBaseERSt6vectorI5PointILi3EESaISH_EERSF_IdSaIdEERSF_I6TensorILi1ELi3EESaISP_EESK_ to i8*), i8* bitcast (void (%class.MappingQ*, %"class.std::vector.58"*, %"class.MappingQ1<3>::InternalData"*)* @_ZNK8MappingQILi3EE22compute_shapes_virtualERKSt6vectorI5PointILi3EESaIS3_EERN9MappingQ1ILi3EE12InternalDataE to i8*), i8* bitcast (void (%class.MappingQ*, %class.TriaIterator*, %"class.std::vector.58"*)* @_ZNK8MappingQILi3EE30compute_mapping_support_pointsERK12TriaIteratorILi3E12CellAccessorILi3EEERSt6vectorI5PointILi3EESaIS9_EE to i8*), i8* bitcast (void (%class.MappingQ*, %class.TriaIterator*, %"class.std::vector.58"*)* @_ZNK8MappingQILi3EE23add_line_support_pointsERK12TriaIteratorILi3E12CellAccessorILi3EEERSt6vectorI5PointILi3EESaIS9_EE to i8*), i8* bitcast (void (%class.MappingQ*, %class.TriaIterator*, %"class.std::vector.58"*)* @_ZNK8MappingQILi3EE23add_quad_support_pointsERK12TriaIteratorILi3E12CellAccessorILi3EEERSt6vectorI5PointILi3EESaIS9_EE to i8*)] }, comdat, align 8
@_ZTVN10__cxxabiv120__si_class_type_infoE = external global i8*
@_ZTSN7MappingILi3EE16InternalDataBaseE = linkonce_odr constant [35 x i8] c"N7MappingILi3EE16InternalDataBaseE\00", comdat
@_ZTI11Subscriptor = external constant i8*
@_ZTIN7MappingILi3EE16InternalDataBaseE = linkonce_odr constant { i8*, i8*, i8* } { i8* bitcast (i8** getelementptr inbounds (i8*, i8** @_ZTVN10__cxxabiv120__si_class_type_infoE, i64 2) to i8*), i8* getelementptr inbounds ([35 x i8], [35 x i8]* @_ZTSN7MappingILi3EE16InternalDataBaseE, i32 0, i32 0), i8* bitcast (i8** @_ZTI11Subscriptor to i8*) }, comdat
@_ZTSN8MappingQILi3EE12InternalDataE = linkonce_odr constant [32 x i8] c"N8MappingQILi3EE12InternalDataE\00", comdat
@_ZTSN9MappingQ1ILi3EE12InternalDataE = linkonce_odr constant [33 x i8] c"N9MappingQ1ILi3EE12InternalDataE\00", comdat
@_ZTIN9MappingQ1ILi3EE12InternalDataE = linkonce_odr constant { i8*, i8*, i8* } { i8* bitcast (i8** getelementptr inbounds (i8*, i8** @_ZTVN10__cxxabiv120__si_class_type_infoE, i64 2) to i8*), i8* getelementptr inbounds ([33 x i8], [33 x i8]* @_ZTSN9MappingQ1ILi3EE12InternalDataE, i32 0, i32 0), i8* bitcast ({ i8*, i8*, i8* }* @_ZTIN7MappingILi3EE16InternalDataBaseE to i8*) }, comdat
@_ZTIN8MappingQILi3EE12InternalDataE = linkonce_odr constant { i8*, i8*, i8* } { i8* bitcast (i8** getelementptr inbounds (i8*, i8** @_ZTVN10__cxxabiv120__si_class_type_infoE, i64 2) to i8*), i8* getelementptr inbounds ([32 x i8], [32 x i8]* @_ZTSN8MappingQILi3EE12InternalDataE, i32 0, i32 0), i8* bitcast ({ i8*, i8*, i8* }* @_ZTIN9MappingQ1ILi3EE12InternalDataE to i8*) }, comdat
@_ZTVN8MappingQILi3EE12InternalDataE = linkonce_odr unnamed_addr constant { [6 x i8*] } { [6 x i8*] [i8* null, i8* bitcast ({ i8*, i8*, i8* }* @_ZTIN8MappingQILi3EE12InternalDataE to i8*), i8* bitcast (void (%"class.MappingQ<3>::InternalData"*)* @_ZN8MappingQILi3EE12InternalDataD2Ev to i8*), i8* bitcast (void (%"class.MappingQ<3>::InternalData"*)* @_ZN8MappingQILi3EE12InternalDataD0Ev to i8*), i8* bitcast (void (%"class.Mapping<3>::InternalDataBase"*)* @_ZN7MappingILi3EE16InternalDataBase16clear_first_cellEv to i8*), i8* bitcast (i32 (%"class.MappingQ<3>::InternalData"*)* @_ZNK8MappingQILi3EE12InternalData18memory_consumptionEv to i8*)] }, comdat, align 8
@_ZZNK8MappingQILi3EE23add_line_support_pointsERK12TriaIteratorILi3E12CellAccessorILi3EEERSt6vectorI5PointILi3EESaIS9_EEE17straight_boundary = linkonce_odr global %class.StraightBoundary zeroinitializer, comdat, align 8
@_ZGVZNK8MappingQILi3EE23add_line_support_pointsERK12TriaIteratorILi3E12CellAccessorILi3EEERSt6vectorI5PointILi3EESaIS9_EEE17straight_boundary = linkonce_odr global i64 0, comdat, align 8
@_ZZNK8MappingQILi3EE26set_laplace_on_quad_vectorER5TableILi2EdEE5loqv2 = linkonce_odr constant [8 x double] [double 6.250000e-02, double 6.250000e-02, double 6.250000e-02, double 6.250000e-02, double 1.875000e-01, double 1.875000e-01, double 1.875000e-01, double 1.875000e-01], comdat, align 16
@_ZZNK8MappingQILi3EE26set_laplace_on_quad_vectorER5TableILi2EdEE5loqv3 = linkonce_odr constant [48 x double] [double 0x3FB372FE4C568C85, double 0x3F8948B0FCD6E9E0, double 0x3F8564E4872C00F9, double 0x3F8948B0FCD6E9E0, double 0x3FCB59B59B59B59B, double 0x3FC00BAB656100BB, double 0x3FAEA1EA1EA1EA1F, double 0x3FA756CAC201756D, double 0x3FAEA1EA1EA1EA1F, double 0x3FA756CAC201756D, double 0x3FCB59B59B59B59B, double 0x3FC00BAB656100BB, double 0x3F8948B0FCD6E9E0, double 0x3FB372FE4C568C85, double 0x3F8948B0FCD6E9E0, double 0x3F8564E4872C00F9, double 0x3FC00BAB656100BB, double 0x3FCB59B59B59B59B, double 0x3FCB59B59B59B59B, double 0x3FC00BAB656100BB, double 0x3FA756CAC201756D, double 0x3FAEA1EA1EA1EA1F, double 0x3FAEA1EA1EA1EA1F, double 0x3FA756CAC201756D, double 0x3F8948B0FCD6E9E0, double 0x3F8564E4872C00F9, double 0x3F8948B0FCD6E9E0, double 0x3FB372FE4C568C85, double 0x3FAEA1EA1EA1EA1F, double 0x3FA756CAC201756D, double 0x3FA756CAC201756D, double 0x3FAEA1EA1EA1EA1F, double 0x3FCB59B59B59B59B, double 0x3FC00BAB656100BB, double 0x3FC00BAB656100BB, double 0x3FCB59B59B59B59B, double 0x3F8564E4872C00F9, double 0x3F8948B0FCD6E9E0, double 0x3FB372FE4C568C85, double 0x3F8948B0FCD6E9E0, double 0x3FA756CAC201756D, double 0x3FAEA1EA1EA1EA1F, double 0x3FC00BAB656100BB, double 0x3FCB59B59B59B59B, double 0x3FC00BAB656100BB, double 0x3FCB59B59B59B59B, double 0x3FA756CAC201756D, double 0x3FAEA1EA1EA1EA1F], comdat, align 16
@_ZZNK8MappingQILi3EE26set_laplace_on_quad_vectorER5TableILi2EdEE5loqv4 = linkonce_odr constant [144 x double] [double 0x3FB2F58B81702DE1, double 0xBF519FFFFFFFFB5B, double 0x3F5F5D1FA3F481E3, double 0xBF519FFFFFFFFB9F, double 0x3FCC8F702E05C0D9, double 0x3FC13D5CC3987311, double 0x3FA385A9B536A7AD, double 0x3F9DD4AC9592B05D, double 0x3F968919E33C67A1, double 0x3F90647E8FD1FAC0, double 0x3F9DD4AC9592B060, double 0x3F968919E33C6794, double 0x3F90647E8FD1FABA, double 0x3FCC8F702E05C0DB, double 0x3FC13D5CC3987313, double 0x3FA385A9B536A7AE, double 0x3F7B3AF75EEBDA9E, double 0x3F7B3AF75EEBDD95, double 0x3F678A11422847F0, double 0x3F678A114228466E, double 0x3FC38E05C0B81730, double 0x3FCE0E6D4DA9B542, double 0x3FC38E05C0B81739, double 0x3FB43BAF75EEBD9C, double 0x3FAE8FFFFFFFFFF2, double 0x3FA288A1142284CB, double 0x3F998FD1FA3F4831, double 0x3FA4E64AC9592A2A, double 0x3F998FD1FA3F4851, double 0x3FB43BAF75EEBE26, double 0x3FAE90000000002D, double 0x3FA288A1142284D7, double 0xBF51A00000000C1F, double 0x3FB2F58B81702DEE, double 0xBF519FFFFFFFF969, double 0x3F5F5D1FA3F47FAB, double 0x3FA385A9B536A7B6, double 0x3FC13D5CC3987309, double 0x3FCC8F702E05C0F2, double 0x3FCC8F702E05C0A8, double 0x3FC13D5CC3987305, double 0x3FA385A9B536A7A9, double 0x3F90647E8FD1FAAB, double 0x3F968919E33C679C, double 0x3F9DD4AC9592B07A, double 0x3F9DD4AC9592B344, double 0x3F968919E33C679E, double 0x3F90647E8FD1FACE, double 0x3F7B3AF75EEBDAAD, double 0x3F678A114228468F, double 0x3F678A1142284808, double 0x3F7B3AF75EEBDD9D, double 0x3FB43BAF75EEBE24, double 0x3FAE900000000025, double 0x3FA288A1142284D8, double 0x3F998FD1FA3F4835, double 0x3FA4E64AC9592A2D, double 0x3F998FD1FA3F4855, double 0x3FB43BAF75EEBD9C, double 0x3FAE8FFFFFFFFFE3, double 0x3FA288A1142284C3, double 0x3FC38E05C0B81734, double 0x3FCE0E6D4DA9B544, double 0x3FC38E05C0B81739, double 0x3F86AAAAAAAAA9F5, double 0x3F86AAAAAAAAAAB9, double 0x3F86AAAAAAAAAB93, double 0x3F86AAAAAAAAAAC0, double 0x3FB1555555555595, double 0x3FBA800000000041, double 0x3FB155555555559F, double 0x3FB1555555555574, double 0x3FBA7FFFFFFFFFBA, double 0x3FB1555555555585, double 0x3FB1555555555570, double 0x3FBA7FFFFFFFFFAD, double 0x3FB155555555557E, double 0x3FB1555555555597, double 0x3FBA80000000004E, double 0x3FB15555555555A2, double 0x3F678A11422843F7, double 0x3F7B3AF75EEBDBFA, double 0x3F7B3AF75EEBDF05, double 0x3F678A1142284550, double 0x3FA288A1142284D1, double 0x3FAE900000000028, double 0x3FB43BAF75EEBE3B, double 0x3FC38E05C0B81723, double 0x3FCE0E6D4DA9B513, double 0x3FC38E05C0B8172E, double 0x3FA288A1142284BB, double 0x3FAE8FFFFFFFFFEC, double 0x3FB43BAF75EEBDB4, double 0x3F998FD1FA3F4834, double 0x3FA4E64AC9592BB2, double 0x3F998FD1FA3F484E, double 0xBF51A00000000BF3, double 0x3F5F5D1FA3F47FAE, double 0xBF519FFFFFFFF911, double 0x3FB2F58B81702DF0, double 0x3F9DD4AC9592B342, double 0x3F968919E33C6793, double 0x3F90647E8FD1FACA, double 0x3F90647E8FD1FAAC, double 0x3F968919E33C67A0, double 0x3F9DD4AC9592B081, double 0x3FCC8F702E05C0A8, double 0x3FC13D5CC3987302, double 0x3FA385A9B536A7A6, double 0x3FA385A9B536A7B5, double 0x3FC13D5CC398730B, double 0x3FCC8F702E05C0F6, double 0x3F678A11422843E2, double 0x3F678A1142284531, double 0x3F7B3AF75EEBDF04, double 0x3F7B3AF75EEBDC08, double 0x3F998FD1FA3F482B, double 0x3FA4E64AC9592BA5, double 0x3F998FD1FA3F4845, double 0x3FA288A1142284BC, double 0x3FAE8FFFFFFFFFF5, double 0x3FB43BAF75EEBDB5, double 0x3FC38E05C0B81720, double 0x3FCE0E6D4DA9B50B, double 0x3FC38E05C0B8172A, double 0x3FA288A1142284CD, double 0x3FAE90000000002E, double 0x3FB43BAF75EEBE3C, double 0x3F5F5D1FA3F47DD2, double 0xBF51A000000009F5, double 0x3FB2F58B81702E02, double 0xBF51A00000000985, double 0x3F90647E8FD1FACB, double 0x3F968919E33C67A3, double 0x3F9DD4AC9592B36B, double 0x3FA385A9B536A7B1, double 0x3FC13D5CC3987300, double 0x3FCC8F702E05C0C8, double 0x3FA385A9B536A7B2, double 0x3FC13D5CC39872FD, double 0x3FCC8F702E05C0C6, double 0x3F90647E8FD1FAC9, double 0x3F968919E33C67AF, double 0x3F9DD4AC9592B36F], comdat, align 16
@_ZN9MappingQ1ILi3EE14vertex_mappingE = external constant [8 x i32], align 16
@_ZTVN8MappingQILi3EE22ExcLaplaceVectorNotSetE = weak_odr unnamed_addr constant { [6 x i8*] } { [6 x i8*] [i8* null, i8* bitcast ({ i8*, i8*, i8* }* @_ZTIN8MappingQILi3EE22ExcLaplaceVectorNotSetE to i8*), i8* bitcast (void (%"class.MappingQ<3>::ExcLaplaceVectorNotSet"*)* @_ZN8MappingQILi3EE22ExcLaplaceVectorNotSetD1Ev to i8*), i8* bitcast (void (%"class.MappingQ<3>::ExcLaplaceVectorNotSet"*)* @_ZN8MappingQILi3EE22ExcLaplaceVectorNotSetD0Ev to i8*), i8* bitcast (i8* (%class.ExceptionBase*)* @_ZNK13ExceptionBase4whatEv to i8*), i8* bitcast (void (%"class.MappingQ<3>::ExcLaplaceVectorNotSet"*, %"class.std::basic_ostream"*)* @_ZNK8MappingQILi3EE22ExcLaplaceVectorNotSet9PrintInfoERSo to i8*)] }, comdat, align 8
@.str = private unnamed_addr constant [35 x i8] c"laplace_vector not set for degree=\00", align 1
@.str.1 = private unnamed_addr constant [2 x i8] c".\00", align 1
@_ZN8MappingQILi3EE26use_mapping_q_on_all_cellsE = weak_odr constant i8 0, comdat, align 1
@_ZTS8MappingQILi3EE = weak_odr constant [16 x i8] c"8MappingQILi3EE\00", comdat
@_ZTS9MappingQ1ILi3EE = linkonce_odr constant [17 x i8] c"9MappingQ1ILi3EE\00", comdat
@_ZTS7MappingILi3EE = linkonce_odr constant [15 x i8] c"7MappingILi3EE\00", comdat
@_ZTI7MappingILi3EE = linkonce_odr constant { i8*, i8*, i8* } { i8* bitcast (i8** getelementptr inbounds (i8*, i8** @_ZTVN10__cxxabiv120__si_class_type_infoE, i64 2) to i8*), i8* getelementptr inbounds ([15 x i8], [15 x i8]* @_ZTS7MappingILi3EE, i32 0, i32 0), i8* bitcast (i8** @_ZTI11Subscriptor to i8*) }, comdat
@_ZTI9MappingQ1ILi3EE = linkonce_odr constant { i8*, i8*, i8* } { i8* bitcast (i8** getelementptr inbounds (i8*, i8** @_ZTVN10__cxxabiv120__si_class_type_infoE, i64 2) to i8*), i8* getelementptr inbounds ([17 x i8], [17 x i8]* @_ZTS9MappingQ1ILi3EE, i32 0, i32 0), i8* bitcast ({ i8*, i8*, i8* }* @_ZTI7MappingILi3EE to i8*) }, comdat
@_ZTI8MappingQILi3EE = weak_odr constant { i8*, i8*, i8* } { i8* bitcast (i8** getelementptr inbounds (i8*, i8** @_ZTVN10__cxxabiv120__si_class_type_infoE, i64 2) to i8*), i8* getelementptr inbounds ([16 x i8], [16 x i8]* @_ZTS8MappingQILi3EE, i32 0, i32 0), i8* bitcast ({ i8*, i8*, i8* }* @_ZTI9MappingQ1ILi3EE to i8*) }, comdat
@_ZTSN8MappingQILi3EE22ExcLaplaceVectorNotSetE = weak_odr constant [42 x i8] c"N8MappingQILi3EE22ExcLaplaceVectorNotSetE\00", comdat
@_ZTI13ExceptionBase = external constant i8*
@_ZTIN8MappingQILi3EE22ExcLaplaceVectorNotSetE = weak_odr constant { i8*, i8*, i8* } { i8* bitcast (i8** getelementptr inbounds (i8*, i8** @_ZTVN10__cxxabiv120__si_class_type_infoE, i64 2) to i8*), i8* getelementptr inbounds ([42 x i8], [42 x i8]* @_ZTSN8MappingQILi3EE22ExcLaplaceVectorNotSetE, i32 0, i32 0), i8* bitcast (i8** @_ZTI13ExceptionBase to i8*) }, comdat
@_ZTVN11Polynomials10PolynomialIdEE = linkonce_odr unnamed_addr constant { [4 x i8*] } { [4 x i8*] [i8* null, i8* bitcast ({ i8*, i8*, i8* }* @_ZTIN11Polynomials10PolynomialIdEE to i8*), i8* bitcast (void (%"class.Polynomials::Polynomial"*)* @_ZN11Polynomials10PolynomialIdED2Ev to i8*), i8* bitcast (void (%"class.Polynomials::Polynomial"*)* @_ZN11Polynomials10PolynomialIdED0Ev to i8*)] }, comdat, align 8
@_ZTSN11Polynomials10PolynomialIdEE = linkonce_odr constant [31 x i8] c"N11Polynomials10PolynomialIdEE\00", comdat
@_ZTIN11Polynomials10PolynomialIdEE = linkonce_odr constant { i8*, i8*, i8* } { i8* bitcast (i8** getelementptr inbounds (i8*, i8** @_ZTVN10__cxxabiv120__si_class_type_infoE, i64 2) to i8*), i8* getelementptr inbounds ([31 x i8], [31 x i8]* @_ZTSN11Polynomials10PolynomialIdEE, i32 0, i32 0), i8* bitcast (i8** @_ZTI11Subscriptor to i8*) }, comdat
@_ZTV4FE_QILi3EE = linkonce_odr unnamed_addr constant { [28 x i8*] } { [28 x i8*] [i8* null, i8* bitcast ({ i8*, i8*, i8* }* @_ZTI4FE_QILi3EE to i8*), i8* bitcast (void (%class.FE_Q*)* @_ZN4FE_QILi3EED2Ev to i8*), i8* bitcast (void (%class.FE_Q*)* @_ZN4FE_QILi3EED0Ev to i8*), i8* bitcast (void (%"class.std::__cxx11::basic_string"*, %class.FE_Q*)* @_ZNK4FE_QILi3EE8get_nameB5cxx11Ev to i8*), i8* bitcast (double (%class.FE_Poly*, i32, %class.Point*)* @_ZNK7FE_PolyI24TensorProductPolynomialsILi3EELi3EE11shape_valueEjRK5PointILi3EE to i8*), i8* bitcast (double (%class.FE_Poly*, i32, %class.Point*, i32)* @_ZNK7FE_PolyI24TensorProductPolynomialsILi3EELi3EE21shape_value_componentEjRK5PointILi3EEj to i8*), i8* bitcast (void (%class.Tensor*, %class.FE_Poly*, i32, %class.Point*)* @_ZNK7FE_PolyI24TensorProductPolynomialsILi3EELi3EE10shape_gradEjRK5PointILi3EE to i8*), i8* bitcast (void (%class.Tensor*, %class.FE_Poly*, i32, %class.Point*, i32)* @_ZNK7FE_PolyI24TensorProductPolynomialsILi3EELi3EE20shape_grad_componentEjRK5PointILi3EEj to i8*), i8* bitcast (void (%class.Tensor.113*, %class.FE_Poly*, i32, %class.Point*)* @_ZNK7FE_PolyI24TensorProductPolynomialsILi3EELi3EE15shape_grad_gradEjRK5PointILi3EE to i8*), i8* bitcast (void (%class.Tensor.113*, %class.FE_Poly*, i32, %class.Point*, i32)* @_ZNK7FE_PolyI24TensorProductPolynomialsILi3EELi3EE25shape_grad_grad_componentEjRK5PointILi3EEj to i8*), i8* bitcast (void (%class.FE_Q*, %class.FiniteElementBase*, %class.FullMatrix*)* @_ZNK4FE_QILi3EE24get_interpolation_matrixERK17FiniteElementBaseILi3EER10FullMatrixIdE to i8*), i8* bitcast (void (%class.Point*, %class.FiniteElementBase*, i32)* @_ZNK17FiniteElementBaseILi3EE18unit_support_pointEj to i8*), i8* bitcast (void (%class.Point.96*, %class.FiniteElementBase*, i32)* @_ZNK17FiniteElementBaseILi3EE23unit_face_support_pointEj to i8*), i8* bitcast (i32 (%class.FE_Poly*)* @_ZNK7FE_PolyI24TensorProductPolynomialsILi3EELi3EE15n_base_elementsEv to i8*), i8* bitcast (%class.FiniteElement* (%class.FE_Poly*, i32)* @_ZNK7FE_PolyI24TensorProductPolynomialsILi3EELi3EE12base_elementEj to i8*), i8* bitcast (i32 (%class.FE_Poly*, i32)* @_ZNK7FE_PolyI24TensorProductPolynomialsILi3EELi3EE20element_multiplicityEj to i8*), i8* bitcast (i1 (%class.FE_Q*, i32, i32)* @_ZNK4FE_QILi3EE19has_support_on_faceEjj to i8*), i8* bitcast (i32 (%class.FE_Q*)* @_ZNK4FE_QILi3EE18memory_consumptionEv to i8*), i8* bitcast (i32 (%class.FE_Poly*, i32)* @_ZNK7FE_PolyI24TensorProductPolynomialsILi3EELi3EE11update_onceE11UpdateFlags to i8*), i8* bitcast (i32 (%class.FE_Poly*, i32)* @_ZNK7FE_PolyI24TensorProductPolynomialsILi3EELi3EE11update_eachE11UpdateFlags to i8*), i8* bitcast (%class.FiniteElement* (%class.FE_Q*)* @_ZNK4FE_QILi3EE5cloneEv to i8*), i8* bitcast (%"class.Mapping<3>::InternalDataBase"* (%class.FE_Poly*, i32, %class.Mapping*, %class.Quadrature*)* @_ZNK7FE_PolyI24TensorProductPolynomialsILi3EELi3EE8get_dataE11UpdateFlagsRK7MappingILi3EERK10QuadratureILi3EE to i8*), i8* bitcast (%"class.Mapping<3>::InternalDataBase"* (%class.FiniteElement*, i32, %class.Mapping*, %class.Quadrature.135*)* @_ZNK13FiniteElementILi3EE13get_face_dataE11UpdateFlagsRK7MappingILi3EERK10QuadratureILi2EE to i8*), i8* bitcast (%"class.Mapping<3>::InternalDataBase"* (%class.FiniteElement*, i32, %class.Mapping*, %class.Quadrature.135*)* @_ZNK13FiniteElementILi3EE16get_subface_dataE11UpdateFlagsRK7MappingILi3EERK10QuadratureILi2EE to i8*), i8* bitcast (void (%class.FE_Poly*, %class.Mapping*, %class.TriaIterator.118*, %class.Quadrature*, %"class.Mapping<3>::InternalDataBase"*, %"class.Mapping<3>::InternalDataBase"*, %class.FEValuesData*)* @_ZNK7FE_PolyI24TensorProductPolynomialsILi3EELi3EE14fill_fe_valuesERK7MappingILi3EERK12TriaIteratorILi3E15DoFCellAccessorILi3EEERK10QuadratureILi3EERNS4_16InternalDataBaseESI_R12FEValuesDataILi3EE to i8*), i8* bitcast (void (%class.FE_Poly*, %class.Mapping*, %class.TriaIterator.118*, i32, %class.Quadrature.135*, %"class.Mapping<3>::InternalDataBase"*, %"class.Mapping<3>::InternalDataBase"*, %class.FEValuesData*)* @_ZNK7FE_PolyI24TensorProductPolynomialsILi3EELi3EE19fill_fe_face_valuesERK7MappingILi3EERK12TriaIteratorILi3E15DoFCellAccessorILi3EEEjRK10QuadratureILi2EERNS4_16InternalDataBaseESI_R12FEValuesDataILi3EE to i8*), i8* bitcast (void (%class.FE_Poly*, %class.Mapping*, %class.TriaIterator.118*, i32, i32, %class.Quadrature.135*, %"class.Mapping<3>::InternalDataBase"*, %"class.Mapping<3>::InternalDataBase"*, %class.FEValuesData*)* @_ZNK7FE_PolyI24TensorProductPolynomialsILi3EELi3EE22fill_fe_subface_valuesERK7MappingILi3EERK12TriaIteratorILi3E15DoFCellAccessorILi3EEEjjRK10QuadratureILi2EERNS4_16InternalDataBaseESI_R12FEValuesDataILi3EE to i8*)] }, comdat, align 8
@_ZTS4FE_QILi3EE = linkonce_odr constant [12 x i8] c"4FE_QILi3EE\00", comdat
@_ZTS7FE_PolyI24TensorProductPolynomialsILi3EELi3EE = linkonce_odr constant [47 x i8] c"7FE_PolyI24TensorProductPolynomialsILi3EELi3EE\00", comdat
@_ZTS13FiniteElementILi3EE = linkonce_odr constant [22 x i8] c"13FiniteElementILi3EE\00", comdat
@_ZTVN10__cxxabiv121__vmi_class_type_infoE = external global i8*
@_ZTS17FiniteElementBaseILi3EE = linkonce_odr constant [26 x i8] c"17FiniteElementBaseILi3EE\00", comdat
@_ZTVN10__cxxabiv117__class_type_infoE = external global i8*
@_ZTS17FiniteElementDataILi3EE = linkonce_odr constant [26 x i8] c"17FiniteElementDataILi3EE\00", comdat
@_ZTI17FiniteElementDataILi3EE = linkonce_odr constant { i8*, i8* } { i8* bitcast (i8** getelementptr inbounds (i8*, i8** @_ZTVN10__cxxabiv117__class_type_infoE, i64 2) to i8*), i8* getelementptr inbounds ([26 x i8], [26 x i8]* @_ZTS17FiniteElementDataILi3EE, i32 0, i32 0) }, comdat
@_ZTI17FiniteElementBaseILi3EE = linkonce_odr constant { i8*, i8*, i32, i32, i8*, i64, i8*, i64 } { i8* bitcast (i8** getelementptr inbounds (i8*, i8** @_ZTVN10__cxxabiv121__vmi_class_type_infoE, i64 2) to i8*), i8* getelementptr inbounds ([26 x i8], [26 x i8]* @_ZTS17FiniteElementBaseILi3EE, i32 0, i32 0), i32 0, i32 2, i8* bitcast (i8** @_ZTI11Subscriptor to i8*), i64 2, i8* bitcast ({ i8*, i8* }* @_ZTI17FiniteElementDataILi3EE to i8*), i64 6146 }, comdat
@_ZTI13FiniteElementILi3EE = linkonce_odr constant { i8*, i8*, i8* } { i8* bitcast (i8** getelementptr inbounds (i8*, i8** @_ZTVN10__cxxabiv120__si_class_type_infoE, i64 2) to i8*), i8* getelementptr inbounds ([22 x i8], [22 x i8]* @_ZTS13FiniteElementILi3EE, i32 0, i32 0), i8* bitcast ({ i8*, i8*, i32, i32, i8*, i64, i8*, i64 }* @_ZTI17FiniteElementBaseILi3EE to i8*) }, comdat
@_ZTI7FE_PolyI24TensorProductPolynomialsILi3EELi3EE = linkonce_odr constant { i8*, i8*, i8* } { i8* bitcast (i8** getelementptr inbounds (i8*, i8** @_ZTVN10__cxxabiv120__si_class_type_infoE, i64 2) to i8*), i8* getelementptr inbounds ([47 x i8], [47 x i8]* @_ZTS7FE_PolyI24TensorProductPolynomialsILi3EELi3EE, i32 0, i32 0), i8* bitcast ({ i8*, i8*, i8* }* @_ZTI13FiniteElementILi3EE to i8*) }, comdat
@_ZTI4FE_QILi3EE = linkonce_odr constant { i8*, i8*, i8* } { i8* bitcast (i8** getelementptr inbounds (i8*, i8** @_ZTVN10__cxxabiv120__si_class_type_infoE, i64 2) to i8*), i8* getelementptr inbounds ([12 x i8], [12 x i8]* @_ZTS4FE_QILi3EE, i32 0, i32 0), i8* bitcast ({ i8*, i8*, i8* }* @_ZTI7FE_PolyI24TensorProductPolynomialsILi3EELi3EE to i8*) }, comdat
@_ZTV7FE_PolyI24TensorProductPolynomialsILi3EELi3EE = linkonce_odr unnamed_addr constant { [28 x i8*] } { [28 x i8*] [i8* null, i8* bitcast ({ i8*, i8*, i8* }* @_ZTI7FE_PolyI24TensorProductPolynomialsILi3EELi3EE to i8*), i8* bitcast (void (%class.FE_Poly*)* @_ZN7FE_PolyI24TensorProductPolynomialsILi3EELi3EED2Ev to i8*), i8* bitcast (void (%class.FE_Poly*)* @_ZN7FE_PolyI24TensorProductPolynomialsILi3EELi3EED0Ev to i8*), i8* bitcast (void ()* @__cxa_pure_virtual to i8*), i8* bitcast (double (%class.FE_Poly*, i32, %class.Point*)* @_ZNK7FE_PolyI24TensorProductPolynomialsILi3EELi3EE11shape_valueEjRK5PointILi3EE to i8*), i8* bitcast (double (%class.FE_Poly*, i32, %class.Point*, i32)* @_ZNK7FE_PolyI24TensorProductPolynomialsILi3EELi3EE21shape_value_componentEjRK5PointILi3EEj to i8*), i8* bitcast (void (%class.Tensor*, %class.FE_Poly*, i32, %class.Point*)* @_ZNK7FE_PolyI24TensorProductPolynomialsILi3EELi3EE10shape_gradEjRK5PointILi3EE to i8*), i8* bitcast (void (%class.Tensor*, %class.FE_Poly*, i32, %class.Point*, i32)* @_ZNK7FE_PolyI24TensorProductPolynomialsILi3EELi3EE20shape_grad_componentEjRK5PointILi3EEj to i8*), i8* bitcast (void (%class.Tensor.113*, %class.FE_Poly*, i32, %class.Point*)* @_ZNK7FE_PolyI24TensorProductPolynomialsILi3EELi3EE15shape_grad_gradEjRK5PointILi3EE to i8*), i8* bitcast (void (%class.Tensor.113*, %class.FE_Poly*, i32, %class.Point*, i32)* @_ZNK7FE_PolyI24TensorProductPolynomialsILi3EELi3EE25shape_grad_grad_componentEjRK5PointILi3EEj to i8*), i8* bitcast (void (%class.FiniteElementBase*, %class.FiniteElementBase*, %class.FullMatrix*)* @_ZNK17FiniteElementBaseILi3EE24get_interpolation_matrixERKS0_R10FullMatrixIdE to i8*), i8* bitcast (void (%class.Point*, %class.FiniteElementBase*, i32)* @_ZNK17FiniteElementBaseILi3EE18unit_support_pointEj to i8*), i8* bitcast (void (%class.Point.96*, %class.FiniteElementBase*, i32)* @_ZNK17FiniteElementBaseILi3EE23unit_face_support_pointEj to i8*), i8* bitcast (i32 (%class.FE_Poly*)* @_ZNK7FE_PolyI24TensorProductPolynomialsILi3EELi3EE15n_base_elementsEv to i8*), i8* bitcast (%class.FiniteElement* (%class.FE_Poly*, i32)* @_ZNK7FE_PolyI24TensorProductPolynomialsILi3EELi3EE12base_elementEj to i8*), i8* bitcast (i32 (%class.FE_Poly*, i32)* @_ZNK7FE_PolyI24TensorProductPolynomialsILi3EELi3EE20element_multiplicityEj to i8*), i8* bitcast (void ()* @__cxa_pure_virtual to i8*), i8* bitcast (i32 (%class.FiniteElement*)* @_ZNK13FiniteElementILi3EE18memory_consumptionEv to i8*), i8* bitcast (i32 (%class.FE_Poly*, i32)* @_ZNK7FE_PolyI24TensorProductPolynomialsILi3EELi3EE11update_onceE11UpdateFlags to i8*), i8* bitcast (i32 (%class.FE_Poly*, i32)* @_ZNK7FE_PolyI24TensorProductPolynomialsILi3EELi3EE11update_eachE11UpdateFlags to i8*), i8* bitcast (void ()* @__cxa_pure_virtual to i8*), i8* bitcast (%"class.Mapping<3>::InternalDataBase"* (%class.FE_Poly*, i32, %class.Mapping*, %class.Quadrature*)* @_ZNK7FE_PolyI24TensorProductPolynomialsILi3EELi3EE8get_dataE11UpdateFlagsRK7MappingILi3EERK10QuadratureILi3EE to i8*), i8* bitcast (%"class.Mapping<3>::InternalDataBase"* (%class.FiniteElement*, i32, %class.Mapping*, %class.Quadrature.135*)* @_ZNK13FiniteElementILi3EE13get_face_dataE11UpdateFlagsRK7MappingILi3EERK10QuadratureILi2EE to i8*), i8* bitcast (%"class.Mapping<3>::InternalDataBase"* (%class.FiniteElement*, i32, %class.Mapping*, %class.Quadrature.135*)* @_ZNK13FiniteElementILi3EE16get_subface_dataE11UpdateFlagsRK7MappingILi3EERK10QuadratureILi2EE to i8*), i8* bitcast (void (%class.FE_Poly*, %class.Mapping*, %class.TriaIterator.118*, %class.Quadrature*, %"class.Mapping<3>::InternalDataBase"*, %"class.Mapping<3>::InternalDataBase"*, %class.FEValuesData*)* @_ZNK7FE_PolyI24TensorProductPolynomialsILi3EELi3EE14fill_fe_valuesERK7MappingILi3EERK12TriaIteratorILi3E15DoFCellAccessorILi3EEERK10QuadratureILi3EERNS4_16InternalDataBaseESI_R12FEValuesDataILi3EE to i8*), i8* bitcast (void (%class.FE_Poly*, %class.Mapping*, %class.TriaIterator.118*, i32, %class.Quadrature.135*, %"class.Mapping<3>::InternalDataBase"*, %"class.Mapping<3>::InternalDataBase"*, %class.FEValuesData*)* @_ZNK7FE_PolyI24TensorProductPolynomialsILi3EELi3EE19fill_fe_face_valuesERK7MappingILi3EERK12TriaIteratorILi3E15DoFCellAccessorILi3EEEjRK10QuadratureILi2EERNS4_16InternalDataBaseESI_R12FEValuesDataILi3EE to i8*), i8* bitcast (void (%class.FE_Poly*, %class.Mapping*, %class.TriaIterator.118*, i32, i32, %class.Quadrature.135*, %"class.Mapping<3>::InternalDataBase"*, %"class.Mapping<3>::InternalDataBase"*, %class.FEValuesData*)* @_ZNK7FE_PolyI24TensorProductPolynomialsILi3EELi3EE22fill_fe_subface_valuesERK7MappingILi3EERK12TriaIteratorILi3E15DoFCellAccessorILi3EEEjjRK10QuadratureILi2EERNS4_16InternalDataBaseESI_R12FEValuesDataILi3EE to i8*)] }, comdat, align 8
@_ZTV9TableBaseILi2EdE = linkonce_odr unnamed_addr constant { [4 x i8*] } { [4 x i8*] [i8* null, i8* bitcast ({ i8*, i8*, i8* }* @_ZTI9TableBaseILi2EdE to i8*), i8* bitcast (void (%class.TableBase*)* @_ZN9TableBaseILi2EdED2Ev to i8*), i8* bitcast (void (%class.TableBase*)* @_ZN9TableBaseILi2EdED0Ev to i8*)] }, comdat, align 8
@_ZTS9TableBaseILi2EdE = linkonce_odr constant [18 x i8] c"9TableBaseILi2EdE\00", comdat
@_ZTI9TableBaseILi2EdE = linkonce_odr constant { i8*, i8*, i8* } { i8* bitcast (i8** getelementptr inbounds (i8*, i8** @_ZTVN10__cxxabiv120__si_class_type_infoE, i64 2) to i8*), i8* getelementptr inbounds ([18 x i8], [18 x i8]* @_ZTS9TableBaseILi2EdE, i32 0, i32 0), i8* bitcast (i8** @_ZTI11Subscriptor to i8*) }, comdat
@_ZTVN9MappingQ1ILi3EE12InternalDataE = linkonce_odr unnamed_addr constant { [6 x i8*] } { [6 x i8*] [i8* null, i8* bitcast ({ i8*, i8*, i8* }* @_ZTIN9MappingQ1ILi3EE12InternalDataE to i8*), i8* bitcast (void (%"class.MappingQ1<3>::InternalData"*)* @_ZN9MappingQ1ILi3EE12InternalDataD2Ev to i8*), i8* bitcast (void (%"class.MappingQ1<3>::InternalData"*)* @_ZN9MappingQ1ILi3EE12InternalDataD0Ev to i8*), i8* bitcast (void (%"class.Mapping<3>::InternalDataBase"*)* @_ZN7MappingILi3EE16InternalDataBase16clear_first_cellEv to i8*), i8* bitcast (i32 (%"class.MappingQ1<3>::InternalData"*)* @_ZNK9MappingQ1ILi3EE12InternalData18memory_consumptionEv to i8*)] }, comdat, align 8
@_ZTV9TableBaseILi2E6TensorILi1ELi3EEE = linkonce_odr unnamed_addr constant { [4 x i8*] } { [4 x i8*] [i8* null, i8* bitcast ({ i8*, i8*, i8* }* @_ZTI9TableBaseILi2E6TensorILi1ELi3EEE to i8*), i8* bitcast (void (%class.TableBase.115*)* @_ZN9TableBaseILi2E6TensorILi1ELi3EEED2Ev to i8*), i8* bitcast (void (%class.TableBase.115*)* @_ZN9TableBaseILi2E6TensorILi1ELi3EEED0Ev to i8*)] }, comdat, align 8
@_ZTS9TableBaseILi2E6TensorILi1ELi3EEE = linkonce_odr constant [34 x i8] c"9TableBaseILi2E6TensorILi1ELi3EEE\00", comdat
@_ZTI9TableBaseILi2E6TensorILi1ELi3EEE = linkonce_odr constant { i8*, i8*, i8* } { i8* bitcast (i8** getelementptr inbounds (i8*, i8** @_ZTVN10__cxxabiv120__si_class_type_infoE, i64 2) to i8*), i8* getelementptr inbounds ([34 x i8], [34 x i8]* @_ZTS9TableBaseILi2E6TensorILi1ELi3EEE, i32 0, i32 0), i8* bitcast (i8** @_ZTI11Subscriptor to i8*) }, comdat
@.str.2 = private unnamed_addr constant [49 x i8] c"cannot create std::vector larger than max_size()\00", align 1
@.str.3 = private unnamed_addr constant [24 x i8] c"vector::_M_range_insert\00", align 1
@.str.4 = private unnamed_addr constant [23 x i8] c"vector::_M_fill_insert\00", align 1
@.str.5 = private unnamed_addr constant [26 x i8] c"vector::_M_realloc_insert\00", align 1
@_ZTV5TableILi2EdE = linkonce_odr unnamed_addr constant { [4 x i8*] } { [4 x i8*] [i8* null, i8* bitcast ({ i8*, i8*, i8* }* @_ZTI5TableILi2EdE to i8*), i8* bitcast (void (%class.Table*)* @_ZN5TableILi2EdED2Ev to i8*), i8* bitcast (void (%class.Table*)* @_ZN5TableILi2EdED0Ev to i8*)] }, comdat, align 8
@_ZTS5TableILi2EdE = linkonce_odr constant [14 x i8] c"5TableILi2EdE\00", comdat
@_ZTI5TableILi2EdE = linkonce_odr constant { i8*, i8*, i8* } { i8* bitcast (i8** getelementptr inbounds (i8*, i8** @_ZTVN10__cxxabiv120__si_class_type_infoE, i64 2) to i8*), i8* getelementptr inbounds ([14 x i8], [14 x i8]* @_ZTS5TableILi2EdE, i32 0, i32 0), i8* bitcast ({ i8*, i8*, i8* }* @_ZTI9TableBaseILi2EdE to i8*) }, comdat
@_ZTVN11Polynomials19LagrangeEquidistantE = linkonce_odr unnamed_addr constant { [4 x i8*] } { [4 x i8*] [i8* null, i8* bitcast ({ i8*, i8*, i8* }* @_ZTIN11Polynomials19LagrangeEquidistantE to i8*), i8* bitcast (void (%"class.Polynomials::LagrangeEquidistant"*)* @_ZN11Polynomials19LagrangeEquidistantD2Ev to i8*), i8* bitcast (void (%"class.Polynomials::LagrangeEquidistant"*)* @_ZN11Polynomials19LagrangeEquidistantD0Ev to i8*)] }, comdat, align 8
@_ZTSN11Polynomials19LagrangeEquidistantE = linkonce_odr constant [37 x i8] c"N11Polynomials19LagrangeEquidistantE\00", comdat
@_ZTIN11Polynomials19LagrangeEquidistantE = linkonce_odr constant { i8*, i8*, i8* } { i8* bitcast (i8** getelementptr inbounds (i8*, i8** @_ZTVN10__cxxabiv120__si_class_type_infoE, i64 2) to i8*), i8* getelementptr inbounds ([37 x i8], [37 x i8]* @_ZTSN11Polynomials19LagrangeEquidistantE, i32 0, i32 0), i8* bitcast ({ i8*, i8*, i8* }* @_ZTIN11Polynomials10PolynomialIdEE to i8*) }, comdat
@_ZZNK18TriaObjectAccessorILi3ELi3EE4lineEjE12lookup_table = linkonce_odr constant [12 x [3 x i32]] [[3 x i32] [i32 0, i32 0, i32 3], [3 x i32] [i32 0, i32 1, i32 2], [3 x i32] [i32 0, i32 2, i32 1], [3 x i32] [i32 0, i32 3, i32 0], [3 x i32] [i32 1, i32 0, i32 3], [3 x i32] [i32 1, i32 1, i32 2], [3 x i32] [i32 1, i32 2, i32 1], [3 x i32] [i32 1, i32 3, i32 0], [3 x i32] [i32 2, i32 3, i32 0], [3 x i32] [i32 2, i32 1, i32 2], [3 x i32] [i32 4, i32 1, i32 2], [3 x i32] [i32 4, i32 3, i32 0]], comdat, align 16

@_ZN8MappingQILi3EEC1Ej = weak_odr alias void (%class.MappingQ*, i32), void (%class.MappingQ*, i32)* @_ZN8MappingQILi3EEC2Ej
@_ZN8MappingQILi3EED1Ev = weak_odr alias void (%class.MappingQ*), void (%class.MappingQ*)* @_ZN8MappingQILi3EED2Ev
@_ZN8MappingQILi3EE12InternalDataC1Ej = weak_odr alias void (%"class.MappingQ<3>::InternalData"*, i32), void (%"class.MappingQ<3>::InternalData"*, i32)* @_ZN8MappingQILi3EE12InternalDataC2Ej
@_ZN8MappingQILi3EE22ExcLaplaceVectorNotSetC1Ei = weak_odr alias void (%"class.MappingQ<3>::ExcLaplaceVectorNotSet"*, i32), void (%"class.MappingQ<3>::ExcLaplaceVectorNotSet"*, i32)* @_ZN8MappingQILi3EE22ExcLaplaceVectorNotSetC2Ei
@_ZN8MappingQILi3EE22ExcLaplaceVectorNotSetD1Ev = weak_odr alias void (%"class.MappingQ<3>::ExcLaplaceVectorNotSet"*), void (%"class.MappingQ<3>::ExcLaplaceVectorNotSet"*)* @_ZN8MappingQILi3EE22ExcLaplaceVectorNotSetD2Ev

; Function Attrs: noinline uwtable
define void @_ZNK8MappingQILi3EE25set_laplace_on_hex_vectorER5TableILi2EdE(%class.MappingQ*, %class.Table* dereferenceable(48)) #0 align 2 {
  %3 = alloca %class.MappingQ*, align 8
  %4 = alloca %class.Table*, align 8
  %5 = alloca double*, align 8
  %6 = alloca i32, align 4
  %7 = alloca i32, align 4
  %8 = alloca %"class.internal::TableBaseAccessors::Accessor", align 8
  %9 = alloca i32, align 4
  store %class.MappingQ* %0, %class.MappingQ** %3, align 8
  store %class.Table* %1, %class.Table** %4, align 8
  %10 = load %class.MappingQ*, %class.MappingQ** %3, align 8
  store double* null, double** %5, align 8
  %11 = getelementptr inbounds %class.MappingQ, %class.MappingQ* %10, i32 0, i32 3
  %12 = load i32, i32* %11, align 8
  %13 = icmp eq i32 %12, 2
  br i1 %13, label %14, label %15

; <label>:14:                                     ; preds = %2
  store double* getelementptr inbounds ([26 x double], [26 x double]* @_ZZNK8MappingQILi3EE25set_laplace_on_hex_vectorER5TableILi2EdEE5loqv2, i64 0, i64 0), double** %5, align 8
  br label %15

; <label>:15:                                     ; preds = %14, %2
  %16 = load double*, double** %5, align 8
  %17 = icmp ne double* %16, null
  br i1 %17, label %18, label %58

; <label>:18:                                     ; preds = %15
  %19 = load %class.Table*, %class.Table** %4, align 8
  %20 = getelementptr inbounds %class.MappingQ, %class.MappingQ* %10, i32 0, i32 4
  %21 = load i32, i32* %20, align 4
  %22 = getelementptr inbounds %class.MappingQ, %class.MappingQ* %10, i32 0, i32 5
  %23 = load i32, i32* %22, align 8
  call void @_ZN5TableILi2EdE6reinitEjj(%class.Table* %19, i32 %21, i32 %23)
  store i32 0, i32* %6, align 4
  br label %24

; <label>:24:                                     ; preds = %54, %18
  %25 = load i32, i32* %6, align 4
  %26 = getelementptr inbounds %class.MappingQ, %class.MappingQ* %10, i32 0, i32 4
  %27 = load i32, i32* %26, align 4
  %28 = icmp ult i32 %25, %27
  br i1 %28, label %29, label %57

; <label>:29:                                     ; preds = %24
  store i32 0, i32* %7, align 4
  br label %30

; <label>:30:                                     ; preds = %50, %29
  %31 = load i32, i32* %7, align 4
  %32 = getelementptr inbounds %class.MappingQ, %class.MappingQ* %10, i32 0, i32 5
  %33 = load i32, i32* %32, align 8
  %34 = icmp ult i32 %31, %33
  br i1 %34, label %35, label %53

; <label>:35:                                     ; preds = %30
  %36 = load double*, double** %5, align 8
  %37 = load i32, i32* %6, align 4
  %38 = getelementptr inbounds %class.MappingQ, %class.MappingQ* %10, i32 0, i32 5
  %39 = load i32, i32* %38, align 8
  %40 = mul i32 %37, %39
  %41 = load i32, i32* %7, align 4
  %42 = add i32 %40, %41
  %43 = zext i32 %42 to i64
  %44 = getelementptr inbounds double, double* %36, i64 %43
  %45 = load double, double* %44, align 8
  %46 = load %class.Table*, %class.Table** %4, align 8
  %47 = load i32, i32* %6, align 4
  call void @_ZN5TableILi2EdEixEj(%"class.internal::TableBaseAccessors::Accessor"* sret %8, %class.Table* %46, i32 %47)
  %48 = load i32, i32* %7, align 4
  %49 = call dereferenceable(8) double* @_ZNK8internal18TableBaseAccessors8AccessorILi2EdLb0ELj1EEixEj(%"class.internal::TableBaseAccessors::Accessor"* %8, i32 %48)
  store double %45, double* %49, align 8
  br label %50

; <label>:50:                                     ; preds = %35
  %51 = load i32, i32* %7, align 4
  %52 = add i32 %51, 1
  store i32 %52, i32* %7, align 4
  br label %30

; <label>:53:                                     ; preds = %30
  br label %54

; <label>:54:                                     ; preds = %53
  %55 = load i32, i32* %6, align 4
  %56 = add i32 %55, 1
  store i32 %56, i32* %6, align 4
  br label %24

; <label>:57:                                     ; preds = %24
  br label %60

; <label>:58:                                     ; preds = %15
  %59 = load %class.Table*, %class.Table** %4, align 8
  call void @_ZNK8MappingQILi3EE22compute_laplace_vectorER5TableILi2EdE(%class.MappingQ* %10, %class.Table* dereferenceable(48) %59)
  br label %60

; <label>:60:                                     ; preds = %58, %57
  store i32 0, i32* %9, align 4
  br label %61

; <label>:61:                                     ; preds = %67, %60
  %62 = load i32, i32* %9, align 4
  %63 = getelementptr inbounds %class.MappingQ, %class.MappingQ* %10, i32 0, i32 4
  %64 = load i32, i32* %63, align 4
  %65 = icmp ult i32 %62, %64
  br i1 %65, label %66, label %70

; <label>:66:                                     ; preds = %61
  br label %67

; <label>:67:                                     ; preds = %66
  %68 = load i32, i32* %9, align 4
  %69 = add i32 %68, 1
  store i32 %69, i32* %9, align 4
  br label %61

; <label>:70:                                     ; preds = %61
  ret void
}

; Function Attrs: noinline uwtable
define linkonce_odr void @_ZN5TableILi2EdE6reinitEjj(%class.Table*, i32, i32) #0 comdat align 2 {
  %4 = alloca %class.Table*, align 8
  %5 = alloca i32, align 4
  %6 = alloca i32, align 4
  %7 = alloca %class.TableIndices, align 4
  store %class.Table* %0, %class.Table** %4, align 8
  store i32 %1, i32* %5, align 4
  store i32 %2, i32* %6, align 4
  %8 = load %class.Table*, %class.Table** %4, align 8
  %9 = bitcast %class.Table* %8 to %class.TableBase*
  %10 = load i32, i32* %5, align 4
  %11 = load i32, i32* %6, align 4
  call void @_ZN12TableIndicesILi2EEC2Ejj(%class.TableIndices* %7, i32 %10, i32 %11)
  call void @_ZN9TableBaseILi2EdE6reinitERK12TableIndicesILi2EE(%class.TableBase* %9, %class.TableIndices* dereferenceable(8) %7)
  ret void
}

; Function Attrs: noinline uwtable
define linkonce_odr void @_ZN5TableILi2EdEixEj(%"class.internal::TableBaseAccessors::Accessor"* noalias sret, %class.Table*, i32) #0 comdat align 2 {
  %4 = alloca %class.Table*, align 8
  %5 = alloca i32, align 4
  store %class.Table* %1, %class.Table** %4, align 8
  store i32 %2, i32* %5, align 4
  %6 = load %class.Table*, %class.Table** %4, align 8
  %7 = bitcast %class.Table* %6 to %class.TableBase*
  %8 = bitcast %class.Table* %6 to %class.TableBase*
  %9 = getelementptr inbounds %class.TableBase, %class.TableBase* %8, i32 0, i32 1
  %10 = load double*, double** %9, align 8
  %11 = load i32, i32* %5, align 4
  %12 = call i32 @_ZNK5TableILi2EdE6n_colsEv(%class.Table* %6)
  %13 = mul i32 %11, %12
  %14 = zext i32 %13 to i64
  %15 = getelementptr inbounds double, double* %10, i64 %14
  call void @_ZN8internal18TableBaseAccessors8AccessorILi2EdLb0ELj1EEC2ERK9TableBaseILi2EdEPd(%"class.internal::TableBaseAccessors::Accessor"* %0, %class.TableBase* dereferenceable(48) %7, double* %15)
  ret void
}

; Function Attrs: noinline nounwind uwtable
define linkonce_odr dereferenceable(8) double* @_ZNK8internal18TableBaseAccessors8AccessorILi2EdLb0ELj1EEixEj(%"class.internal::TableBaseAccessors::Accessor"*, i32) #1 comdat align 2 {
  %3 = alloca %"class.internal::TableBaseAccessors::Accessor"*, align 8
  %4 = alloca i32, align 4
  store %"class.internal::TableBaseAccessors::Accessor"* %0, %"class.internal::TableBaseAccessors::Accessor"** %3, align 8
  store i32 %1, i32* %4, align 4
  %5 = load %"class.internal::TableBaseAccessors::Accessor"*, %"class.internal::TableBaseAccessors::Accessor"** %3, align 8
  %6 = getelementptr inbounds %"class.internal::TableBaseAccessors::Accessor", %"class.internal::TableBaseAccessors::Accessor"* %5, i32 0, i32 1
  %7 = load double*, double** %6, align 8
  %8 = load i32, i32* %4, align 4
  %9 = zext i32 %8 to i64
  %10 = getelementptr inbounds double, double* %7, i64 %9
  ret double* %10
}

; Function Attrs: noinline uwtable
define weak_odr void @_ZNK8MappingQILi3EE22compute_laplace_vectorER5TableILi2EdE(%class.MappingQ*, %class.Table* dereferenceable(48)) #0 comdat align 2 personality i8* bitcast (i32 (...)* @__gxx_personality_v0 to i8*) {
  %3 = alloca %class.MappingQ*, align 8
  %4 = alloca %class.Table*, align 8
  %5 = alloca %class.QGauss, align 8
  %6 = alloca i32, align 4
  %7 = alloca %"class.MappingQ<3>::InternalData", align 8
  %8 = alloca i8*
  %9 = alloca i32
  %10 = alloca %class.Tensor, align 8
  %11 = alloca %class.FullMatrix, align 8
  %12 = alloca i32, align 4
  %13 = alloca i32, align 4
  %14 = alloca i32, align 4
  %15 = alloca %class.FullMatrix, align 8
  %16 = alloca i32, align 4
  %17 = alloca i32, align 4
  %18 = alloca i32, align 4
  %19 = alloca %class.FullMatrix, align 8
  %20 = alloca %class.FullMatrix, align 8
  %21 = alloca i32, align 4
  %22 = alloca i32, align 4
  store %class.MappingQ* %0, %class.MappingQ** %3, align 8
  store %class.Table* %1, %class.Table** %4, align 8
  %23 = load %class.MappingQ*, %class.MappingQ** %3, align 8
  %24 = getelementptr inbounds %class.MappingQ, %class.MappingQ* %23, i32 0, i32 3
  %25 = load i32, i32* %24, align 8
  %26 = add i32 %25, 1
  call void @_ZN6QGaussILi3EEC1Ej(%class.QGauss* %5, i32 %26)
  %27 = bitcast %class.QGauss* %5 to %class.Quadrature*
  %28 = getelementptr inbounds %class.Quadrature, %class.Quadrature* %27, i32 0, i32 1
  %29 = load i32, i32* %28, align 8
  store i32 %29, i32* %6, align 4
  %30 = getelementptr inbounds %class.MappingQ, %class.MappingQ* %23, i32 0, i32 7
  %31 = load i32, i32* %30, align 8
  invoke void @_ZN8MappingQILi3EE12InternalDataC1Ej(%"class.MappingQ<3>::InternalData"* %7, i32 %31)
          to label %32 unwind label %101

; <label>:32:                                     ; preds = %2
  %33 = bitcast %"class.MappingQ<3>::InternalData"* %7 to %"class.MappingQ1<3>::InternalData"*
  %34 = getelementptr inbounds %"class.MappingQ1<3>::InternalData", %"class.MappingQ1<3>::InternalData"* %33, i32 0, i32 2
  %35 = getelementptr inbounds %class.MappingQ, %class.MappingQ* %23, i32 0, i32 7
  %36 = load i32, i32* %35, align 8
  %37 = load i32, i32* %6, align 4
  %38 = mul i32 %36, %37
  %39 = zext i32 %38 to i64
  invoke void @_ZN6TensorILi1ELi3EEC2Eb(%class.Tensor* %10, i1 zeroext true)
          to label %40 unwind label %105

; <label>:40:                                     ; preds = %32
  invoke void @_ZNSt6vectorI6TensorILi1ELi3EESaIS1_EE6resizeEmS1_(%"class.std::vector.103"* %34, i64 %39, %class.Tensor* %10)
          to label %41 unwind label %105

; <label>:41:                                     ; preds = %40
  %42 = bitcast %class.MappingQ* %23 to %class.MappingQ1*
  %43 = bitcast %class.QGauss* %5 to %class.Quadrature*
  %44 = invoke dereferenceable(24) %"class.std::vector.58"* @_ZNK10QuadratureILi3EE10get_pointsEv(%class.Quadrature* %43)
          to label %45 unwind label %105

; <label>:45:                                     ; preds = %41
  %46 = bitcast %"class.MappingQ<3>::InternalData"* %7 to %"class.MappingQ1<3>::InternalData"*
  invoke void @_ZNK9MappingQ1ILi3EE14compute_shapesERKSt6vectorI5PointILi3EESaIS3_EERNS0_12InternalDataE(%class.MappingQ1* %42, %"class.std::vector.58"* dereferenceable(24) %44, %"class.MappingQ1<3>::InternalData"* dereferenceable(288) %46)
          to label %47 unwind label %105

; <label>:47:                                     ; preds = %45
  %48 = getelementptr inbounds %class.MappingQ, %class.MappingQ* %23, i32 0, i32 4
  %49 = load i32, i32* %48, align 4
  invoke void @_ZN10FullMatrixIdEC1Ej(%class.FullMatrix* %11, i32 %49)
          to label %50 unwind label %105

; <label>:50:                                     ; preds = %47
  store i32 0, i32* %12, align 4
  br label %51

; <label>:51:                                     ; preds = %118, %50
  %52 = load i32, i32* %12, align 4
  %53 = load i32, i32* %6, align 4
  %54 = icmp ult i32 %52, %53
  br i1 %54, label %55, label %121

; <label>:55:                                     ; preds = %51
  store i32 0, i32* %13, align 4
  br label %56

; <label>:56:                                     ; preds = %114, %55
  %57 = load i32, i32* %13, align 4
  %58 = getelementptr inbounds %class.MappingQ, %class.MappingQ* %23, i32 0, i32 4
  %59 = load i32, i32* %58, align 4
  %60 = icmp ult i32 %57, %59
  br i1 %60, label %61, label %117

; <label>:61:                                     ; preds = %56
  store i32 0, i32* %14, align 4
  br label %62

; <label>:62:                                     ; preds = %98, %61
  %63 = load i32, i32* %14, align 4
  %64 = getelementptr inbounds %class.MappingQ, %class.MappingQ* %23, i32 0, i32 4
  %65 = load i32, i32* %64, align 4
  %66 = icmp ult i32 %63, %65
  br i1 %66, label %67, label %113

; <label>:67:                                     ; preds = %62
  %68 = bitcast %"class.MappingQ<3>::InternalData"* %7 to %"class.MappingQ1<3>::InternalData"*
  %69 = load i32, i32* %12, align 4
  %70 = getelementptr inbounds %class.MappingQ, %class.MappingQ* %23, i32 0, i32 5
  %71 = load i32, i32* %70, align 8
  %72 = load i32, i32* %13, align 4
  %73 = add i32 %71, %72
  %74 = invoke dereferenceable(24) %class.Tensor* @_ZN9MappingQ1ILi3EE12InternalData10derivativeEjj(%"class.MappingQ1<3>::InternalData"* %68, i32 %69, i32 %73)
          to label %75 unwind label %109

; <label>:75:                                     ; preds = %67
  %76 = bitcast %"class.MappingQ<3>::InternalData"* %7 to %"class.MappingQ1<3>::InternalData"*
  %77 = load i32, i32* %12, align 4
  %78 = getelementptr inbounds %class.MappingQ, %class.MappingQ* %23, i32 0, i32 5
  %79 = load i32, i32* %78, align 8
  %80 = load i32, i32* %14, align 4
  %81 = add i32 %79, %80
  %82 = invoke dereferenceable(24) %class.Tensor* @_ZN9MappingQ1ILi3EE12InternalData10derivativeEjj(%"class.MappingQ1<3>::InternalData"* %76, i32 %77, i32 %81)
          to label %83 unwind label %109

; <label>:83:                                     ; preds = %75
  %84 = invoke double @_Z8contractILi3EEdRK6TensorILi1EXT_EES3_(%class.Tensor* dereferenceable(24) %74, %class.Tensor* dereferenceable(24) %82)
          to label %85 unwind label %109

; <label>:85:                                     ; preds = %83
  %86 = bitcast %class.QGauss* %5 to %class.Quadrature*
  %87 = load i32, i32* %12, align 4
  %88 = invoke double @_ZNK10QuadratureILi3EE6weightEj(%class.Quadrature* %86, i32 %87)
          to label %89 unwind label %109

; <label>:89:                                     ; preds = %85
  %90 = fmul double %84, %88
  %91 = bitcast %class.FullMatrix* %11 to %class.Table*
  %92 = load i32, i32* %13, align 4
  %93 = load i32, i32* %14, align 4
  %94 = invoke dereferenceable(8) double* @_ZN5TableILi2EdEclEjj(%class.Table* %91, i32 %92, i32 %93)
          to label %95 unwind label %109

; <label>:95:                                     ; preds = %89
  %96 = load double, double* %94, align 8
  %97 = fadd double %96, %90
  store double %97, double* %94, align 8
  br label %98

; <label>:98:                                     ; preds = %95
  %99 = load i32, i32* %14, align 4
  %100 = add i32 %99, 1
  store i32 %100, i32* %14, align 4
  br label %62

; <label>:101:                                    ; preds = %246, %2
  %102 = landingpad { i8*, i32 }
          cleanup
  %103 = extractvalue { i8*, i32 } %102, 0
  store i8* %103, i8** %8, align 8
  %104 = extractvalue { i8*, i32 } %102, 1
  store i32 %104, i32* %9, align 4
  br label %257

; <label>:105:                                    ; preds = %245, %47, %45, %41, %40, %32
  %106 = landingpad { i8*, i32 }
          cleanup
  %107 = extractvalue { i8*, i32 } %106, 0
  store i8* %107, i8** %8, align 8
  %108 = extractvalue { i8*, i32 } %106, 1
  store i32 %108, i32* %9, align 4
  br label %255

; <label>:109:                                    ; preds = %244, %121, %89, %85, %83, %75, %67
  %110 = landingpad { i8*, i32 }
          cleanup
  %111 = extractvalue { i8*, i32 } %110, 0
  store i8* %111, i8** %8, align 8
  %112 = extractvalue { i8*, i32 } %110, 1
  store i32 %112, i32* %9, align 4
  br label %253

; <label>:113:                                    ; preds = %62
  br label %114

; <label>:114:                                    ; preds = %113
  %115 = load i32, i32* %13, align 4
  %116 = add i32 %115, 1
  store i32 %116, i32* %13, align 4
  br label %56

; <label>:117:                                    ; preds = %56
  br label %118

; <label>:118:                                    ; preds = %117
  %119 = load i32, i32* %12, align 4
  %120 = add i32 %119, 1
  store i32 %120, i32* %12, align 4
  br label %51

; <label>:121:                                    ; preds = %51
  %122 = getelementptr inbounds %class.MappingQ, %class.MappingQ* %23, i32 0, i32 4
  %123 = load i32, i32* %122, align 4
  %124 = getelementptr inbounds %class.MappingQ, %class.MappingQ* %23, i32 0, i32 5
  %125 = load i32, i32* %124, align 8
  invoke void @_ZN10FullMatrixIdEC1Ejj(%class.FullMatrix* %15, i32 %123, i32 %125)
          to label %126 unwind label %109

; <label>:126:                                    ; preds = %121
  store i32 0, i32* %16, align 4
  br label %127

; <label>:127:                                    ; preds = %183, %126
  %128 = load i32, i32* %16, align 4
  %129 = load i32, i32* %6, align 4
  %130 = icmp ult i32 %128, %129
  br i1 %130, label %131, label %186

; <label>:131:                                    ; preds = %127
  store i32 0, i32* %17, align 4
  br label %132

; <label>:132:                                    ; preds = %179, %131
  %133 = load i32, i32* %17, align 4
  %134 = getelementptr inbounds %class.MappingQ, %class.MappingQ* %23, i32 0, i32 4
  %135 = load i32, i32* %134, align 4
  %136 = icmp ult i32 %133, %135
  br i1 %136, label %137, label %182

; <label>:137:                                    ; preds = %132
  store i32 0, i32* %18, align 4
  br label %138

; <label>:138:                                    ; preds = %171, %137
  %139 = load i32, i32* %18, align 4
  %140 = getelementptr inbounds %class.MappingQ, %class.MappingQ* %23, i32 0, i32 5
  %141 = load i32, i32* %140, align 8
  %142 = icmp ult i32 %139, %141
  br i1 %142, label %143, label %178

; <label>:143:                                    ; preds = %138
  %144 = bitcast %"class.MappingQ<3>::InternalData"* %7 to %"class.MappingQ1<3>::InternalData"*
  %145 = load i32, i32* %16, align 4
  %146 = getelementptr inbounds %class.MappingQ, %class.MappingQ* %23, i32 0, i32 5
  %147 = load i32, i32* %146, align 8
  %148 = load i32, i32* %17, align 4
  %149 = add i32 %147, %148
  %150 = invoke dereferenceable(24) %class.Tensor* @_ZN9MappingQ1ILi3EE12InternalData10derivativeEjj(%"class.MappingQ1<3>::InternalData"* %144, i32 %145, i32 %149)
          to label %151 unwind label %174

; <label>:151:                                    ; preds = %143
  %152 = bitcast %"class.MappingQ<3>::InternalData"* %7 to %"class.MappingQ1<3>::InternalData"*
  %153 = load i32, i32* %16, align 4
  %154 = load i32, i32* %18, align 4
  %155 = invoke dereferenceable(24) %class.Tensor* @_ZN9MappingQ1ILi3EE12InternalData10derivativeEjj(%"class.MappingQ1<3>::InternalData"* %152, i32 %153, i32 %154)
          to label %156 unwind label %174

; <label>:156:                                    ; preds = %151
  %157 = invoke double @_Z8contractILi3EEdRK6TensorILi1EXT_EES3_(%class.Tensor* dereferenceable(24) %150, %class.Tensor* dereferenceable(24) %155)
          to label %158 unwind label %174

; <label>:158:                                    ; preds = %156
  %159 = bitcast %class.QGauss* %5 to %class.Quadrature*
  %160 = load i32, i32* %16, align 4
  %161 = invoke double @_ZNK10QuadratureILi3EE6weightEj(%class.Quadrature* %159, i32 %160)
          to label %162 unwind label %174

; <label>:162:                                    ; preds = %158
  %163 = fmul double %157, %161
  %164 = bitcast %class.FullMatrix* %15 to %class.Table*
  %165 = load i32, i32* %17, align 4
  %166 = load i32, i32* %18, align 4
  %167 = invoke dereferenceable(8) double* @_ZN5TableILi2EdEclEjj(%class.Table* %164, i32 %165, i32 %166)
          to label %168 unwind label %174

; <label>:168:                                    ; preds = %162
  %169 = load double, double* %167, align 8
  %170 = fadd double %169, %163
  store double %170, double* %167, align 8
  br label %171

; <label>:171:                                    ; preds = %168
  %172 = load i32, i32* %18, align 4
  %173 = add i32 %172, 1
  store i32 %173, i32* %18, align 4
  br label %138

; <label>:174:                                    ; preds = %243, %186, %162, %158, %156, %151, %143
  %175 = landingpad { i8*, i32 }
          cleanup
  %176 = extractvalue { i8*, i32 } %175, 0
  store i8* %176, i8** %8, align 8
  %177 = extractvalue { i8*, i32 } %175, 1
  store i32 %177, i32* %9, align 4
  br label %251

; <label>:178:                                    ; preds = %138
  br label %179

; <label>:179:                                    ; preds = %178
  %180 = load i32, i32* %17, align 4
  %181 = add i32 %180, 1
  store i32 %181, i32* %17, align 4
  br label %132

; <label>:182:                                    ; preds = %132
  br label %183

; <label>:183:                                    ; preds = %182
  %184 = load i32, i32* %16, align 4
  %185 = add i32 %184, 1
  store i32 %185, i32* %16, align 4
  br label %127

; <label>:186:                                    ; preds = %127
  %187 = getelementptr inbounds %class.MappingQ, %class.MappingQ* %23, i32 0, i32 4
  %188 = load i32, i32* %187, align 4
  invoke void @_ZN10FullMatrixIdEC1Ej(%class.FullMatrix* %19, i32 %188)
          to label %189 unwind label %174

; <label>:189:                                    ; preds = %186
  invoke void @_ZN10FullMatrixIdE6invertIdEEvRKS_IT_E(%class.FullMatrix* %19, %class.FullMatrix* dereferenceable(48) %11)
          to label %190 unwind label %230

; <label>:190:                                    ; preds = %189
  %191 = getelementptr inbounds %class.MappingQ, %class.MappingQ* %23, i32 0, i32 4
  %192 = load i32, i32* %191, align 4
  %193 = getelementptr inbounds %class.MappingQ, %class.MappingQ* %23, i32 0, i32 5
  %194 = load i32, i32* %193, align 8
  invoke void @_ZN10FullMatrixIdEC1Ejj(%class.FullMatrix* %20, i32 %192, i32 %194)
          to label %195 unwind label %230

; <label>:195:                                    ; preds = %190
  invoke void @_ZNK10FullMatrixIdE5mmultIdEEvRS_IT_ERKS3_b(%class.FullMatrix* %19, %class.FullMatrix* dereferenceable(48) %20, %class.FullMatrix* dereferenceable(48) %15, i1 zeroext false)
          to label %196 unwind label %234

; <label>:196:                                    ; preds = %195
  %197 = load %class.Table*, %class.Table** %4, align 8
  %198 = getelementptr inbounds %class.MappingQ, %class.MappingQ* %23, i32 0, i32 4
  %199 = load i32, i32* %198, align 4
  %200 = getelementptr inbounds %class.MappingQ, %class.MappingQ* %23, i32 0, i32 5
  %201 = load i32, i32* %200, align 8
  invoke void @_ZN5TableILi2EdE6reinitEjj(%class.Table* %197, i32 %199, i32 %201)
          to label %202 unwind label %234

; <label>:202:                                    ; preds = %196
  store i32 0, i32* %21, align 4
  br label %203

; <label>:203:                                    ; preds = %239, %202
  %204 = load i32, i32* %21, align 4
  %205 = getelementptr inbounds %class.MappingQ, %class.MappingQ* %23, i32 0, i32 4
  %206 = load i32, i32* %205, align 4
  %207 = icmp ult i32 %204, %206
  br i1 %207, label %208, label %242

; <label>:208:                                    ; preds = %203
  store i32 0, i32* %22, align 4
  br label %209

; <label>:209:                                    ; preds = %227, %208
  %210 = load i32, i32* %22, align 4
  %211 = getelementptr inbounds %class.MappingQ, %class.MappingQ* %23, i32 0, i32 5
  %212 = load i32, i32* %211, align 8
  %213 = icmp ult i32 %210, %212
  br i1 %213, label %214, label %238

; <label>:214:                                    ; preds = %209
  %215 = bitcast %class.FullMatrix* %20 to %class.Table*
  %216 = load i32, i32* %21, align 4
  %217 = load i32, i32* %22, align 4
  %218 = invoke dereferenceable(8) double* @_ZN5TableILi2EdEclEjj(%class.Table* %215, i32 %216, i32 %217)
          to label %219 unwind label %234

; <label>:219:                                    ; preds = %214
  %220 = load double, double* %218, align 8
  %221 = fsub double -0.000000e+00, %220
  %222 = load %class.Table*, %class.Table** %4, align 8
  %223 = load i32, i32* %21, align 4
  %224 = load i32, i32* %22, align 4
  %225 = invoke dereferenceable(8) double* @_ZN5TableILi2EdEclEjj(%class.Table* %222, i32 %223, i32 %224)
          to label %226 unwind label %234

; <label>:226:                                    ; preds = %219
  store double %221, double* %225, align 8
  br label %227

; <label>:227:                                    ; preds = %226
  %228 = load i32, i32* %22, align 4
  %229 = add i32 %228, 1
  store i32 %229, i32* %22, align 4
  br label %209

; <label>:230:                                    ; preds = %242, %190, %189
  %231 = landingpad { i8*, i32 }
          cleanup
  %232 = extractvalue { i8*, i32 } %231, 0
  store i8* %232, i8** %8, align 8
  %233 = extractvalue { i8*, i32 } %231, 1
  store i32 %233, i32* %9, align 4
  br label %249

; <label>:234:                                    ; preds = %219, %214, %196, %195
  %235 = landingpad { i8*, i32 }
          cleanup
  %236 = extractvalue { i8*, i32 } %235, 0
  store i8* %236, i8** %8, align 8
  %237 = extractvalue { i8*, i32 } %235, 1
  store i32 %237, i32* %9, align 4
  invoke void @_ZN10FullMatrixIdED2Ev(%class.FullMatrix* %20)
          to label %248 unwind label %264

; <label>:238:                                    ; preds = %209
  br label %239

; <label>:239:                                    ; preds = %238
  %240 = load i32, i32* %21, align 4
  %241 = add i32 %240, 1
  store i32 %241, i32* %21, align 4
  br label %203

; <label>:242:                                    ; preds = %203
  invoke void @_ZN10FullMatrixIdED2Ev(%class.FullMatrix* %20)
          to label %243 unwind label %230

; <label>:243:                                    ; preds = %242
  invoke void @_ZN10FullMatrixIdED2Ev(%class.FullMatrix* %19)
          to label %244 unwind label %174

; <label>:244:                                    ; preds = %243
  invoke void @_ZN10FullMatrixIdED2Ev(%class.FullMatrix* %15)
          to label %245 unwind label %109

; <label>:245:                                    ; preds = %244
  invoke void @_ZN10FullMatrixIdED2Ev(%class.FullMatrix* %11)
          to label %246 unwind label %105

; <label>:246:                                    ; preds = %245
  invoke void @_ZN8MappingQILi3EE12InternalDataD2Ev(%"class.MappingQ<3>::InternalData"* %7)
          to label %247 unwind label %101

; <label>:247:                                    ; preds = %246
  call void @_ZN6QGaussILi3EED2Ev(%class.QGauss* %5)
  ret void

; <label>:248:                                    ; preds = %234
  br label %249

; <label>:249:                                    ; preds = %248, %230
  invoke void @_ZN10FullMatrixIdED2Ev(%class.FullMatrix* %19)
          to label %250 unwind label %264

; <label>:250:                                    ; preds = %249
  br label %251

; <label>:251:                                    ; preds = %250, %174
  invoke void @_ZN10FullMatrixIdED2Ev(%class.FullMatrix* %15)
          to label %252 unwind label %264

; <label>:252:                                    ; preds = %251
  br label %253

; <label>:253:                                    ; preds = %252, %109
  invoke void @_ZN10FullMatrixIdED2Ev(%class.FullMatrix* %11)
          to label %254 unwind label %264

; <label>:254:                                    ; preds = %253
  br label %255

; <label>:255:                                    ; preds = %254, %105
  invoke void @_ZN8MappingQILi3EE12InternalDataD2Ev(%"class.MappingQ<3>::InternalData"* %7)
          to label %256 unwind label %264

; <label>:256:                                    ; preds = %255
  br label %257

; <label>:257:                                    ; preds = %256, %101
  invoke void @_ZN6QGaussILi3EED2Ev(%class.QGauss* %5)
          to label %258 unwind label %264

; <label>:258:                                    ; preds = %257
  br label %259

; <label>:259:                                    ; preds = %258
  %260 = load i8*, i8** %8, align 8
  %261 = load i32, i32* %9, align 4
  %262 = insertvalue { i8*, i32 } undef, i8* %260, 0
  %263 = insertvalue { i8*, i32 } %262, i32 %261, 1
  resume { i8*, i32 } %263

; <label>:264:                                    ; preds = %257, %255, %253, %251, %249, %234
  %265 = landingpad { i8*, i32 }
          catch i8* null
  %266 = extractvalue { i8*, i32 } %265, 0
  call void @__clang_call_terminate(i8* %266) #12
  unreachable
}

; Function Attrs: noinline uwtable
define void @_ZNK8MappingQILi3EE23add_quad_support_pointsERK12TriaIteratorILi3E12CellAccessorILi3EEERSt6vectorI5PointILi3EESaIS9_EE(%class.MappingQ*, %class.TriaIterator* dereferenceable(16), %"class.std::vector.58"* dereferenceable(24)) unnamed_addr #0 align 2 personality i8* bitcast (i32 (...)* @__gxx_personality_v0 to i8*) {
  %4 = alloca %class.MappingQ*, align 8
  %5 = alloca %class.TriaIterator*, align 8
  %6 = alloca %"class.std::vector.58"*, align 8
  %7 = alloca i32, align 4
  %8 = alloca i32, align 4
  %9 = alloca i32, align 4
  %10 = alloca i32, align 4
  %11 = alloca i8*
  %12 = alloca i32
  %13 = alloca %"class.std::vector.58", align 8
  %14 = alloca %class.Point, align 8
  %15 = alloca %"class.std::allocator.60", align 1
  %16 = alloca %"class.std::vector.58", align 8
  %17 = alloca %class.Point, align 8
  %18 = alloca %"class.std::allocator.60", align 1
  %19 = alloca i32, align 4
  %20 = alloca %class.TriaIterator.65, align 8
  %21 = alloca i8, align 1
  %22 = alloca i32*, align 8
  %23 = alloca i32*, align 8
  %24 = alloca i32, align 4
  %25 = alloca i32, align 4
  %26 = alloca %"class.__gnu_cxx::__normal_iterator", align 8
  %27 = alloca %"class.__gnu_cxx::__normal_iterator", align 8
  %28 = alloca %"class.__gnu_cxx::__normal_iterator", align 8
  %29 = alloca i32, align 4
  %30 = alloca i32, align 4
  %31 = alloca %class.TriaIterator.69, align 8
  %32 = alloca %class.Point, align 8
  %33 = alloca i32, align 4
  %34 = alloca i32, align 4
  %35 = alloca i32, align 4
  %36 = alloca i32, align 4
  %37 = alloca %"class.__gnu_cxx::__normal_iterator", align 8
  %38 = alloca %"class.__gnu_cxx::__normal_iterator", align 8
  %39 = alloca %"class.__gnu_cxx::__normal_iterator", align 8
  store %class.MappingQ* %0, %class.MappingQ** %4, align 8
  store %class.TriaIterator* %1, %class.TriaIterator** %5, align 8
  store %"class.std::vector.58"* %2, %"class.std::vector.58"** %6, align 8
  %40 = load %class.MappingQ*, %class.MappingQ** %4, align 8
  store i32 6, i32* %7, align 4
  store i32 4, i32* %8, align 4
  store i32 4, i32* %9, align 4
  store i32 8, i32* %10, align 4
  %41 = load atomic i8, i8* bitcast (i64* @_ZGVZNK8MappingQILi3EE23add_quad_support_pointsERK12TriaIteratorILi3E12CellAccessorILi3EEERSt6vectorI5PointILi3EESaIS9_EEE17straight_boundary to i8*) acquire, align 8
  %42 = icmp eq i8 %41, 0
  br i1 %42, label %43, label %49

; <label>:43:                                     ; preds = %3
  %44 = call i32 @__cxa_guard_acquire(i64* @_ZGVZNK8MappingQILi3EE23add_quad_support_pointsERK12TriaIteratorILi3E12CellAccessorILi3EEERSt6vectorI5PointILi3EESaIS9_EEE17straight_boundary) #2
  %45 = icmp ne i32 %44, 0
  br i1 %45, label %46, label %49

; <label>:46:                                     ; preds = %43
  invoke void @_ZN16StraightBoundaryILi3EEC1Ev(%class.StraightBoundary* @_ZZNK8MappingQILi3EE23add_quad_support_pointsERK12TriaIteratorILi3E12CellAccessorILi3EEERSt6vectorI5PointILi3EESaIS9_EEE17straight_boundary)
          to label %47 unwind label %117

; <label>:47:                                     ; preds = %46
  %48 = call i32 @__cxa_atexit(void (i8*)* bitcast (void (%class.StraightBoundary*)* @_ZN16StraightBoundaryILi3EED2Ev to void (i8*)*), i8* bitcast (%class.StraightBoundary* @_ZZNK8MappingQILi3EE23add_quad_support_pointsERK12TriaIteratorILi3E12CellAccessorILi3EEERSt6vectorI5PointILi3EESaIS9_EEE17straight_boundary to i8*), i8* @__dso_handle) #2
  call void @__cxa_guard_release(i64* @_ZGVZNK8MappingQILi3EE23add_quad_support_pointsERK12TriaIteratorILi3E12CellAccessorILi3EEERSt6vectorI5PointILi3EESaIS9_EEE17straight_boundary) #2
  br label %49

; <label>:49:                                     ; preds = %47, %43, %3
  %50 = getelementptr inbounds %class.MappingQ, %class.MappingQ* %40, i32 0, i32 3
  %51 = load i32, i32* %50, align 8
  %52 = sub i32 %51, 1
  %53 = getelementptr inbounds %class.MappingQ, %class.MappingQ* %40, i32 0, i32 3
  %54 = load i32, i32* %53, align 8
  %55 = sub i32 %54, 1
  %56 = mul i32 %52, %55
  %57 = zext i32 %56 to i64
  call void @_ZN5PointILi3EEC2Ev(%class.Point* %14)
  call void @_ZNSaI5PointILi3EEEC2Ev(%"class.std::allocator.60"* %15) #2
  invoke void @_ZNSt6vectorI5PointILi3EESaIS1_EEC2EmRKS1_RKS2_(%"class.std::vector.58"* %13, i64 %57, %class.Point* dereferenceable(24) %14, %"class.std::allocator.60"* dereferenceable(1) %15)
          to label %58 unwind label %121

; <label>:58:                                     ; preds = %49
  call void @_ZNSaI5PointILi3EEED2Ev(%"class.std::allocator.60"* %15) #2
  %59 = getelementptr inbounds %class.MappingQ, %class.MappingQ* %40, i32 0, i32 3
  %60 = load i32, i32* %59, align 8
  %61 = mul i32 4, %60
  %62 = zext i32 %61 to i64
  invoke void @_ZN5PointILi3EEC2Ev(%class.Point* %17)
          to label %63 unwind label %125

; <label>:63:                                     ; preds = %58
  call void @_ZNSaI5PointILi3EEEC2Ev(%"class.std::allocator.60"* %18) #2
  invoke void @_ZNSt6vectorI5PointILi3EESaIS1_EEC2EmRKS1_RKS2_(%"class.std::vector.58"* %16, i64 %62, %class.Point* dereferenceable(24) %17, %"class.std::allocator.60"* dereferenceable(1) %18)
          to label %64 unwind label %129

; <label>:64:                                     ; preds = %63
  call void @_ZNSaI5PointILi3EEED2Ev(%"class.std::allocator.60"* %18) #2
  store i32 0, i32* %19, align 4
  br label %65

; <label>:65:                                     ; preds = %341, %64
  %66 = load i32, i32* %19, align 4
  %67 = icmp ult i32 %66, 6
  br i1 %67, label %68, label %344

; <label>:68:                                     ; preds = %65
  %69 = load %class.TriaIterator*, %class.TriaIterator** %5, align 8
  %70 = bitcast %class.TriaIterator* %69 to %class.TriaRawIterator*
  %71 = invoke %class.CellAccessor* @_ZNK15TriaRawIteratorILi3E12CellAccessorILi3EEEptEv(%class.TriaRawIterator* %70)
          to label %72 unwind label %133

; <label>:72:                                     ; preds = %68
  %73 = load i32, i32* %19, align 4
  invoke void @_ZNK12CellAccessorILi3EE4faceEj(%class.TriaIterator.65* sret %20, %class.CellAccessor* %71, i32 %73)
          to label %74 unwind label %133

; <label>:74:                                     ; preds = %72
  %75 = load %class.TriaIterator*, %class.TriaIterator** %5, align 8
  %76 = bitcast %class.TriaIterator* %75 to %class.TriaRawIterator*
  %77 = invoke %class.CellAccessor* @_ZNK15TriaRawIteratorILi3E12CellAccessorILi3EEEptEv(%class.TriaRawIterator* %76)
          to label %78 unwind label %133

; <label>:78:                                     ; preds = %74
  %79 = bitcast %class.CellAccessor* %77 to %class.TriaObjectAccessor*
  %80 = load i32, i32* %19, align 4
  %81 = invoke zeroext i1 @_ZNK18TriaObjectAccessorILi3ELi3EE16face_orientationEj(%class.TriaObjectAccessor* %79, i32 %80)
          to label %82 unwind label %133

; <label>:82:                                     ; preds = %78
  %83 = zext i1 %81 to i8
  store i8 %83, i8* %21, align 1
  %84 = load i8, i8* %21, align 1
  %85 = trunc i8 %84 to i1
  br i1 %85, label %86, label %90

; <label>:86:                                     ; preds = %82
  %87 = load i32, i32* %19, align 4
  %88 = zext i32 %87 to i64
  %89 = getelementptr inbounds [6 x [4 x i32]], [6 x [4 x i32]]* @_ZZNK8MappingQILi3EE23add_quad_support_pointsERK12TriaIteratorILi3E12CellAccessorILi3EEERSt6vectorI5PointILi3EESaIS9_EEE27face_vertex_to_cell_vertex1, i64 0, i64 %88
  br label %94

; <label>:90:                                     ; preds = %82
  %91 = load i32, i32* %19, align 4
  %92 = zext i32 %91 to i64
  %93 = getelementptr inbounds [6 x [4 x i32]], [6 x [4 x i32]]* @_ZZNK8MappingQILi3EE23add_quad_support_pointsERK12TriaIteratorILi3E12CellAccessorILi3EEERSt6vectorI5PointILi3EESaIS9_EEE27face_vertex_to_cell_vertex2, i64 0, i64 %92
  br label %94

; <label>:94:                                     ; preds = %90, %86
  %95 = phi [4 x i32]* [ %89, %86 ], [ %93, %90 ]
  %96 = getelementptr inbounds [4 x i32], [4 x i32]* %95, i32 0, i32 0
  store i32* %96, i32** %22, align 8
  %97 = load i8, i8* %21, align 1
  %98 = trunc i8 %97 to i1
  br i1 %98, label %99, label %103

; <label>:99:                                     ; preds = %94
  %100 = load i32, i32* %19, align 4
  %101 = zext i32 %100 to i64
  %102 = getelementptr inbounds [6 x [4 x i32]], [6 x [4 x i32]]* @_ZZNK8MappingQILi3EE23add_quad_support_pointsERK12TriaIteratorILi3E12CellAccessorILi3EEERSt6vectorI5PointILi3EESaIS9_EEE23face_line_to_cell_line1, i64 0, i64 %101
  br label %107

; <label>:103:                                    ; preds = %94
  %104 = load i32, i32* %19, align 4
  %105 = zext i32 %104 to i64
  %106 = getelementptr inbounds [6 x [4 x i32]], [6 x [4 x i32]]* @_ZZNK8MappingQILi3EE23add_quad_support_pointsERK12TriaIteratorILi3E12CellAccessorILi3EEERSt6vectorI5PointILi3EESaIS9_EEE23face_line_to_cell_line2, i64 0, i64 %105
  br label %107

; <label>:107:                                    ; preds = %103, %99
  %108 = phi [4 x i32]* [ %102, %99 ], [ %106, %103 ]
  %109 = getelementptr inbounds [4 x i32], [4 x i32]* %108, i32 0, i32 0
  store i32* %109, i32** %23, align 8
  store i32 0, i32* %24, align 4
  br label %110

; <label>:110:                                    ; preds = %114, %107
  %111 = load i32, i32* %24, align 4
  %112 = icmp ult i32 %111, 4
  br i1 %112, label %113, label %137

; <label>:113:                                    ; preds = %110
  br label %114

; <label>:114:                                    ; preds = %113
  %115 = load i32, i32* %24, align 4
  %116 = add i32 %115, 1
  store i32 %116, i32* %24, align 4
  br label %110

; <label>:117:                                    ; preds = %46
  %118 = landingpad { i8*, i32 }
          cleanup
  %119 = extractvalue { i8*, i32 } %118, 0
  store i8* %119, i8** %11, align 8
  %120 = extractvalue { i8*, i32 } %118, 1
  store i32 %120, i32* %12, align 4
  call void @__cxa_guard_abort(i64* @_ZGVZNK8MappingQILi3EE23add_quad_support_pointsERK12TriaIteratorILi3E12CellAccessorILi3EEERSt6vectorI5PointILi3EESaIS9_EEE17straight_boundary) #2
  br label %349

; <label>:121:                                    ; preds = %49
  %122 = landingpad { i8*, i32 }
          cleanup
  %123 = extractvalue { i8*, i32 } %122, 0
  store i8* %123, i8** %11, align 8
  %124 = extractvalue { i8*, i32 } %122, 1
  store i32 %124, i32* %12, align 4
  call void @_ZNSaI5PointILi3EEED2Ev(%"class.std::allocator.60"* %15) #2
  br label %349

; <label>:125:                                    ; preds = %344, %58
  %126 = landingpad { i8*, i32 }
          cleanup
  %127 = extractvalue { i8*, i32 } %126, 0
  store i8* %127, i8** %11, align 8
  %128 = extractvalue { i8*, i32 } %126, 1
  store i32 %128, i32* %12, align 4
  br label %347

; <label>:129:                                    ; preds = %63
  %130 = landingpad { i8*, i32 }
          cleanup
  %131 = extractvalue { i8*, i32 } %130, 0
  store i8* %131, i8** %11, align 8
  %132 = extractvalue { i8*, i32 } %130, 1
  store i32 %132, i32* %12, align 4
  call void @_ZNSaI5PointILi3EEED2Ev(%"class.std::allocator.60"* %18) #2
  br label %347

; <label>:133:                                    ; preds = %330, %327, %324, %320, %319, %313, %304, %291, %281, %270, %254, %237, %233, %224, %219, %214, %201, %198, %196, %193, %180, %177, %174, %170, %165, %162, %160, %157, %154, %151, %148, %145, %78, %74, %72, %68
  %134 = landingpad { i8*, i32 }
          cleanup
  %135 = extractvalue { i8*, i32 } %134, 0
  store i8* %135, i8** %11, align 8
  %136 = extractvalue { i8*, i32 } %134, 1
  store i32 %136, i32* %12, align 4
  invoke void @_ZNSt6vectorI5PointILi3EESaIS1_EED2Ev(%"class.std::vector.58"* %16)
          to label %346 unwind label %354

; <label>:137:                                    ; preds = %110
  store i32 0, i32* %25, align 4
  br label %138

; <label>:138:                                    ; preds = %142, %137
  %139 = load i32, i32* %25, align 4
  %140 = icmp ult i32 %139, 4
  br i1 %140, label %141, label %145

; <label>:141:                                    ; preds = %138
  br label %142

; <label>:142:                                    ; preds = %141
  %143 = load i32, i32* %25, align 4
  %144 = add i32 %143, 1
  store i32 %144, i32* %25, align 4
  br label %138

; <label>:145:                                    ; preds = %138
  %146 = bitcast %class.TriaIterator.65* %20 to %class.TriaRawIterator.66*
  %147 = invoke %class.TriaObjectAccessor.68* @_ZNK15TriaRawIteratorILi3E18TriaObjectAccessorILi2ELi3EEEptEv(%class.TriaRawIterator.66* %146)
          to label %148 unwind label %133

; <label>:148:                                    ; preds = %145
  %149 = invoke zeroext i1 @_ZNK18TriaObjectAccessorILi2ELi3EE11at_boundaryEv(%class.TriaObjectAccessor.68* %147)
          to label %150 unwind label %133

; <label>:150:                                    ; preds = %148
  br i1 %149, label %151, label %189

; <label>:151:                                    ; preds = %150
  %152 = bitcast %class.TriaIterator.65* %20 to %class.TriaRawIterator.66*
  %153 = invoke %class.TriaObjectAccessor.68* @_ZNK15TriaRawIteratorILi3E18TriaObjectAccessorILi2ELi3EEEptEv(%class.TriaRawIterator.66* %152)
          to label %154 unwind label %133

; <label>:154:                                    ; preds = %151
  %155 = bitcast %class.TriaObjectAccessor.68* %153 to %class.TriaAccessor*
  %156 = invoke dereferenceable(2352) %class.Triangulation* @_ZNK12TriaAccessorILi3EE17get_triangulationEv(%class.TriaAccessor* %155)
          to label %157 unwind label %133

; <label>:157:                                    ; preds = %154
  %158 = bitcast %class.TriaIterator.65* %20 to %class.TriaRawIterator.66*
  %159 = invoke %class.TriaObjectAccessor.68* @_ZNK15TriaRawIteratorILi3E18TriaObjectAccessorILi2ELi3EEEptEv(%class.TriaRawIterator.66* %158)
          to label %160 unwind label %133

; <label>:160:                                    ; preds = %157
  %161 = invoke zeroext i8 @_ZNK18TriaObjectAccessorILi2ELi3EE18boundary_indicatorEv(%class.TriaObjectAccessor.68* %159)
          to label %162 unwind label %133

; <label>:162:                                    ; preds = %160
  %163 = zext i8 %161 to i32
  %164 = invoke dereferenceable(24) %class.Boundary* @_ZNK13TriangulationILi3EE12get_boundaryEj(%class.Triangulation* %156, i32 %163)
          to label %165 unwind label %133

; <label>:165:                                    ; preds = %162
  %166 = bitcast %class.Boundary* %164 to void (%class.Boundary*, %class.TriaIterator.65*, %"class.std::vector.58"*)***
  %167 = load void (%class.Boundary*, %class.TriaIterator.65*, %"class.std::vector.58"*)**, void (%class.Boundary*, %class.TriaIterator.65*, %"class.std::vector.58"*)*** %166, align 8
  %168 = getelementptr inbounds void (%class.Boundary*, %class.TriaIterator.65*, %"class.std::vector.58"*)*, void (%class.Boundary*, %class.TriaIterator.65*, %"class.std::vector.58"*)** %167, i64 5
  %169 = load void (%class.Boundary*, %class.TriaIterator.65*, %"class.std::vector.58"*)*, void (%class.Boundary*, %class.TriaIterator.65*, %"class.std::vector.58"*)** %168, align 8
  invoke void %169(%class.Boundary* %164, %class.TriaIterator.65* dereferenceable(16) %20, %"class.std::vector.58"* dereferenceable(24) %13)
          to label %170 unwind label %133

; <label>:170:                                    ; preds = %165
  %171 = load %"class.std::vector.58"*, %"class.std::vector.58"** %6, align 8
  %172 = load %"class.std::vector.58"*, %"class.std::vector.58"** %6, align 8
  %173 = invoke %class.Point* @_ZNSt6vectorI5PointILi3EESaIS1_EE3endEv(%"class.std::vector.58"* %172)
          to label %174 unwind label %133

; <label>:174:                                    ; preds = %170
  %175 = getelementptr inbounds %"class.__gnu_cxx::__normal_iterator", %"class.__gnu_cxx::__normal_iterator"* %26, i32 0, i32 0
  store %class.Point* %173, %class.Point** %175, align 8
  %176 = invoke %class.Point* @_ZNSt6vectorI5PointILi3EESaIS1_EE5beginEv(%"class.std::vector.58"* %13)
          to label %177 unwind label %133

; <label>:177:                                    ; preds = %174
  %178 = getelementptr inbounds %"class.__gnu_cxx::__normal_iterator", %"class.__gnu_cxx::__normal_iterator"* %27, i32 0, i32 0
  store %class.Point* %176, %class.Point** %178, align 8
  %179 = invoke %class.Point* @_ZNSt6vectorI5PointILi3EESaIS1_EE3endEv(%"class.std::vector.58"* %13)
          to label %180 unwind label %133

; <label>:180:                                    ; preds = %177
  %181 = getelementptr inbounds %"class.__gnu_cxx::__normal_iterator", %"class.__gnu_cxx::__normal_iterator"* %28, i32 0, i32 0
  store %class.Point* %179, %class.Point** %181, align 8
  %182 = getelementptr inbounds %"class.__gnu_cxx::__normal_iterator", %"class.__gnu_cxx::__normal_iterator"* %26, i32 0, i32 0
  %183 = load %class.Point*, %class.Point** %182, align 8
  %184 = getelementptr inbounds %"class.__gnu_cxx::__normal_iterator", %"class.__gnu_cxx::__normal_iterator"* %27, i32 0, i32 0
  %185 = load %class.Point*, %class.Point** %184, align 8
  %186 = getelementptr inbounds %"class.__gnu_cxx::__normal_iterator", %"class.__gnu_cxx::__normal_iterator"* %28, i32 0, i32 0
  %187 = load %class.Point*, %class.Point** %186, align 8
  invoke void @_ZNSt6vectorI5PointILi3EESaIS1_EE6insertIN9__gnu_cxx17__normal_iteratorIPS1_S3_EEEEvS8_T_S9_(%"class.std::vector.58"* %171, %class.Point* %183, %class.Point* %185, %class.Point* %187)
          to label %188 unwind label %133

; <label>:188:                                    ; preds = %180
  br label %340

; <label>:189:                                    ; preds = %150
  store i32 0, i32* %29, align 4
  store i32 0, i32* %30, align 4
  br label %190

; <label>:190:                                    ; preds = %208, %189
  %191 = load i32, i32* %30, align 4
  %192 = icmp ult i32 %191, 4
  br i1 %192, label %193, label %211

; <label>:193:                                    ; preds = %190
  %194 = bitcast %class.TriaIterator.65* %20 to %class.TriaRawIterator.66*
  %195 = invoke %class.TriaObjectAccessor.68* @_ZNK15TriaRawIteratorILi3E18TriaObjectAccessorILi2ELi3EEEptEv(%class.TriaRawIterator.66* %194)
          to label %196 unwind label %133

; <label>:196:                                    ; preds = %193
  %197 = load i32, i32* %30, align 4
  invoke void @_ZNK18TriaObjectAccessorILi2ELi3EE4lineEj(%class.TriaIterator.69* sret %31, %class.TriaObjectAccessor.68* %195, i32 %197)
          to label %198 unwind label %133

; <label>:198:                                    ; preds = %196
  %199 = bitcast %class.TriaIterator.69* %31 to %class.TriaRawIterator.70*
  %200 = invoke %class.TriaObjectAccessor.72* @_ZN15TriaRawIteratorILi3E18TriaObjectAccessorILi1ELi3EEEptEv(%class.TriaRawIterator.70* %199)
          to label %201 unwind label %133

; <label>:201:                                    ; preds = %198
  %202 = invoke zeroext i1 @_ZNK18TriaObjectAccessorILi1ELi3EE11at_boundaryEv(%class.TriaObjectAccessor.72* %200)
          to label %203 unwind label %133

; <label>:203:                                    ; preds = %201
  br i1 %202, label %204, label %207

; <label>:204:                                    ; preds = %203
  %205 = load i32, i32* %29, align 4
  %206 = add i32 %205, 1
  store i32 %206, i32* %29, align 4
  br label %207

; <label>:207:                                    ; preds = %204, %203
  br label %208

; <label>:208:                                    ; preds = %207
  %209 = load i32, i32* %30, align 4
  %210 = add i32 %209, 1
  store i32 %210, i32* %30, align 4
  br label %190

; <label>:211:                                    ; preds = %190
  %212 = load i32, i32* %29, align 4
  %213 = icmp ugt i32 %212, 0
  br i1 %213, label %214, label %319

; <label>:214:                                    ; preds = %211
  %215 = getelementptr inbounds %class.MappingQ, %class.MappingQ* %40, i32 0, i32 3
  %216 = load i32, i32* %215, align 8
  %217 = mul i32 4, %216
  %218 = zext i32 %217 to i64
  invoke void @_ZN5PointILi3EEC2Ev(%class.Point* %32)
          to label %219 unwind label %133

; <label>:219:                                    ; preds = %214
  invoke void @_ZNSt6vectorI5PointILi3EESaIS1_EE6resizeEmS1_(%"class.std::vector.58"* %16, i64 %218, %class.Point* %32)
          to label %220 unwind label %133

; <label>:220:                                    ; preds = %219
  store i32 0, i32* %33, align 4
  br label %221

; <label>:221:                                    ; preds = %240, %220
  %222 = load i32, i32* %33, align 4
  %223 = icmp ult i32 %222, 4
  br i1 %223, label %224, label %243

; <label>:224:                                    ; preds = %221
  %225 = load %"class.std::vector.58"*, %"class.std::vector.58"** %6, align 8
  %226 = load i32*, i32** %22, align 8
  %227 = load i32, i32* %33, align 4
  %228 = zext i32 %227 to i64
  %229 = getelementptr inbounds i32, i32* %226, i64 %228
  %230 = load i32, i32* %229, align 4
  %231 = zext i32 %230 to i64
  %232 = invoke dereferenceable(24) %class.Point* @_ZNSt6vectorI5PointILi3EESaIS1_EEixEm(%"class.std::vector.58"* %225, i64 %231)
          to label %233 unwind label %133

; <label>:233:                                    ; preds = %224
  %234 = load i32, i32* %33, align 4
  %235 = zext i32 %234 to i64
  %236 = invoke dereferenceable(24) %class.Point* @_ZNSt6vectorI5PointILi3EESaIS1_EEixEm(%"class.std::vector.58"* %16, i64 %235)
          to label %237 unwind label %133

; <label>:237:                                    ; preds = %233
  %238 = invoke dereferenceable(24) %class.Point* @_ZN5PointILi3EEaSERKS0_(%class.Point* %236, %class.Point* dereferenceable(24) %232)
          to label %239 unwind label %133

; <label>:239:                                    ; preds = %237
  br label %240

; <label>:240:                                    ; preds = %239
  %241 = load i32, i32* %33, align 4
  %242 = add i32 %241, 1
  store i32 %242, i32* %33, align 4
  br label %221

; <label>:243:                                    ; preds = %221
  store i32 0, i32* %34, align 4
  br label %244

; <label>:244:                                    ; preds = %288, %243
  %245 = load i32, i32* %34, align 4
  %246 = icmp ult i32 %245, 4
  br i1 %246, label %247, label %291

; <label>:247:                                    ; preds = %244
  store i32 0, i32* %35, align 4
  br label %248

; <label>:248:                                    ; preds = %284, %247
  %249 = load i32, i32* %35, align 4
  %250 = getelementptr inbounds %class.MappingQ, %class.MappingQ* %40, i32 0, i32 3
  %251 = load i32, i32* %250, align 8
  %252 = sub i32 %251, 1
  %253 = icmp ult i32 %249, %252
  br i1 %253, label %254, label %287

; <label>:254:                                    ; preds = %248
  %255 = load %"class.std::vector.58"*, %"class.std::vector.58"** %6, align 8
  %256 = load i32*, i32** %23, align 8
  %257 = load i32, i32* %34, align 4
  %258 = zext i32 %257 to i64
  %259 = getelementptr inbounds i32, i32* %256, i64 %258
  %260 = load i32, i32* %259, align 4
  %261 = getelementptr inbounds %class.MappingQ, %class.MappingQ* %40, i32 0, i32 3
  %262 = load i32, i32* %261, align 8
  %263 = sub i32 %262, 1
  %264 = mul i32 %260, %263
  %265 = add i32 8, %264
  %266 = load i32, i32* %35, align 4
  %267 = add i32 %265, %266
  %268 = zext i32 %267 to i64
  %269 = invoke dereferenceable(24) %class.Point* @_ZNSt6vectorI5PointILi3EESaIS1_EEixEm(%"class.std::vector.58"* %255, i64 %268)
          to label %270 unwind label %133

; <label>:270:                                    ; preds = %254
  %271 = load i32, i32* %34, align 4
  %272 = getelementptr inbounds %class.MappingQ, %class.MappingQ* %40, i32 0, i32 3
  %273 = load i32, i32* %272, align 8
  %274 = sub i32 %273, 1
  %275 = mul i32 %271, %274
  %276 = add i32 4, %275
  %277 = load i32, i32* %35, align 4
  %278 = add i32 %276, %277
  %279 = zext i32 %278 to i64
  %280 = invoke dereferenceable(24) %class.Point* @_ZNSt6vectorI5PointILi3EESaIS1_EEixEm(%"class.std::vector.58"* %16, i64 %279)
          to label %281 unwind label %133

; <label>:281:                                    ; preds = %270
  %282 = invoke dereferenceable(24) %class.Point* @_ZN5PointILi3EEaSERKS0_(%class.Point* %280, %class.Point* dereferenceable(24) %269)
          to label %283 unwind label %133

; <label>:283:                                    ; preds = %281
  br label %284

; <label>:284:                                    ; preds = %283
  %285 = load i32, i32* %35, align 4
  %286 = add i32 %285, 1
  store i32 %286, i32* %35, align 4
  br label %248

; <label>:287:                                    ; preds = %248
  br label %288

; <label>:288:                                    ; preds = %287
  %289 = load i32, i32* %34, align 4
  %290 = add i32 %289, 1
  store i32 %290, i32* %34, align 4
  br label %244

; <label>:291:                                    ; preds = %244
  %292 = getelementptr inbounds %class.MappingQ, %class.MappingQ* %40, i32 0, i32 1
  invoke void @_ZNK8MappingQILi3EE20apply_laplace_vectorERK5TableILi2EdERSt6vectorI5PointILi3EESaIS7_EE(%class.MappingQ* %40, %class.Table* dereferenceable(48) %292, %"class.std::vector.58"* dereferenceable(24) %16)
          to label %293 unwind label %133

; <label>:293:                                    ; preds = %291
  store i32 0, i32* %36, align 4
  br label %294

; <label>:294:                                    ; preds = %315, %293
  %295 = load i32, i32* %36, align 4
  %296 = getelementptr inbounds %class.MappingQ, %class.MappingQ* %40, i32 0, i32 3
  %297 = load i32, i32* %296, align 8
  %298 = sub i32 %297, 1
  %299 = getelementptr inbounds %class.MappingQ, %class.MappingQ* %40, i32 0, i32 3
  %300 = load i32, i32* %299, align 8
  %301 = sub i32 %300, 1
  %302 = mul i32 %298, %301
  %303 = icmp ult i32 %295, %302
  br i1 %303, label %304, label %318

; <label>:304:                                    ; preds = %294
  %305 = load %"class.std::vector.58"*, %"class.std::vector.58"** %6, align 8
  %306 = getelementptr inbounds %class.MappingQ, %class.MappingQ* %40, i32 0, i32 3
  %307 = load i32, i32* %306, align 8
  %308 = mul i32 4, %307
  %309 = load i32, i32* %36, align 4
  %310 = add i32 %308, %309
  %311 = zext i32 %310 to i64
  %312 = invoke dereferenceable(24) %class.Point* @_ZNSt6vectorI5PointILi3EESaIS1_EEixEm(%"class.std::vector.58"* %16, i64 %311)
          to label %313 unwind label %133

; <label>:313:                                    ; preds = %304
  invoke void @_ZNSt6vectorI5PointILi3EESaIS1_EE9push_backERKS1_(%"class.std::vector.58"* %305, %class.Point* dereferenceable(24) %312)
          to label %314 unwind label %133

; <label>:314:                                    ; preds = %313
  br label %315

; <label>:315:                                    ; preds = %314
  %316 = load i32, i32* %36, align 4
  %317 = add i32 %316, 1
  store i32 %317, i32* %36, align 4
  br label %294

; <label>:318:                                    ; preds = %294
  br label %339

; <label>:319:                                    ; preds = %211
  invoke void @_ZNK16StraightBoundaryILi3EE31get_intermediate_points_on_quadERK12TriaIteratorILi3E18TriaObjectAccessorILi2ELi3EEERSt6vectorI5PointILi3EESaIS9_EE(%class.StraightBoundary* @_ZZNK8MappingQILi3EE23add_quad_support_pointsERK12TriaIteratorILi3E12CellAccessorILi3EEERSt6vectorI5PointILi3EESaIS9_EEE17straight_boundary, %class.TriaIterator.65* dereferenceable(16) %20, %"class.std::vector.58"* dereferenceable(24) %13)
          to label %320 unwind label %133

; <label>:320:                                    ; preds = %319
  %321 = load %"class.std::vector.58"*, %"class.std::vector.58"** %6, align 8
  %322 = load %"class.std::vector.58"*, %"class.std::vector.58"** %6, align 8
  %323 = invoke %class.Point* @_ZNSt6vectorI5PointILi3EESaIS1_EE3endEv(%"class.std::vector.58"* %322)
          to label %324 unwind label %133

; <label>:324:                                    ; preds = %320
  %325 = getelementptr inbounds %"class.__gnu_cxx::__normal_iterator", %"class.__gnu_cxx::__normal_iterator"* %37, i32 0, i32 0
  store %class.Point* %323, %class.Point** %325, align 8
  %326 = invoke %class.Point* @_ZNSt6vectorI5PointILi3EESaIS1_EE5beginEv(%"class.std::vector.58"* %13)
          to label %327 unwind label %133

; <label>:327:                                    ; preds = %324
  %328 = getelementptr inbounds %"class.__gnu_cxx::__normal_iterator", %"class.__gnu_cxx::__normal_iterator"* %38, i32 0, i32 0
  store %class.Point* %326, %class.Point** %328, align 8
  %329 = invoke %class.Point* @_ZNSt6vectorI5PointILi3EESaIS1_EE3endEv(%"class.std::vector.58"* %13)
          to label %330 unwind label %133

; <label>:330:                                    ; preds = %327
  %331 = getelementptr inbounds %"class.__gnu_cxx::__normal_iterator", %"class.__gnu_cxx::__normal_iterator"* %39, i32 0, i32 0
  store %class.Point* %329, %class.Point** %331, align 8
  %332 = getelementptr inbounds %"class.__gnu_cxx::__normal_iterator", %"class.__gnu_cxx::__normal_iterator"* %37, i32 0, i32 0
  %333 = load %class.Point*, %class.Point** %332, align 8
  %334 = getelementptr inbounds %"class.__gnu_cxx::__normal_iterator", %"class.__gnu_cxx::__normal_iterator"* %38, i32 0, i32 0
  %335 = load %class.Point*, %class.Point** %334, align 8
  %336 = getelementptr inbounds %"class.__gnu_cxx::__normal_iterator", %"class.__gnu_cxx::__normal_iterator"* %39, i32 0, i32 0
  %337 = load %class.Point*, %class.Point** %336, align 8
  invoke void @_ZNSt6vectorI5PointILi3EESaIS1_EE6insertIN9__gnu_cxx17__normal_iteratorIPS1_S3_EEEEvS8_T_S9_(%"class.std::vector.58"* %321, %class.Point* %333, %class.Point* %335, %class.Point* %337)
          to label %338 unwind label %133

; <label>:338:                                    ; preds = %330
  br label %339

; <label>:339:                                    ; preds = %338, %318
  br label %340

; <label>:340:                                    ; preds = %339, %188
  br label %341

; <label>:341:                                    ; preds = %340
  %342 = load i32, i32* %19, align 4
  %343 = add i32 %342, 1
  store i32 %343, i32* %19, align 4
  br label %65

; <label>:344:                                    ; preds = %65
  invoke void @_ZNSt6vectorI5PointILi3EESaIS1_EED2Ev(%"class.std::vector.58"* %16)
          to label %345 unwind label %125

; <label>:345:                                    ; preds = %344
  call void @_ZNSt6vectorI5PointILi3EESaIS1_EED2Ev(%"class.std::vector.58"* %13)
  ret void

; <label>:346:                                    ; preds = %133
  br label %347

; <label>:347:                                    ; preds = %346, %129, %125
  invoke void @_ZNSt6vectorI5PointILi3EESaIS1_EED2Ev(%"class.std::vector.58"* %13)
          to label %348 unwind label %354

; <label>:348:                                    ; preds = %347
  br label %349

; <label>:349:                                    ; preds = %348, %121, %117
  %350 = load i8*, i8** %11, align 8
  %351 = load i32, i32* %12, align 4
  %352 = insertvalue { i8*, i32 } undef, i8* %350, 0
  %353 = insertvalue { i8*, i32 } %352, i32 %351, 1
  resume { i8*, i32 } %353

; <label>:354:                                    ; preds = %347, %133
  %355 = landingpad { i8*, i32 }
          catch i8* null
  %356 = extractvalue { i8*, i32 } %355, 0
  call void @__clang_call_terminate(i8* %356) #12
  unreachable
}

; Function Attrs: nounwind
declare i32 @__cxa_guard_acquire(i64*) #2

declare void @_ZN16StraightBoundaryILi3EEC1Ev(%class.StraightBoundary*) unnamed_addr #3

declare i32 @__gxx_personality_v0(...)

; Function Attrs: noinline uwtable
define linkonce_odr void @_ZN16StraightBoundaryILi3EED2Ev(%class.StraightBoundary*) unnamed_addr #0 comdat align 2 {
  %2 = alloca %class.StraightBoundary*, align 8
  store %class.StraightBoundary* %0, %class.StraightBoundary** %2, align 8
  %3 = load %class.StraightBoundary*, %class.StraightBoundary** %2, align 8
  %4 = bitcast %class.StraightBoundary* %3 to %class.Boundary*
  call void @_ZN8BoundaryILi3EED2Ev(%class.Boundary* %4)
  ret void
}

; Function Attrs: nounwind
declare i32 @__cxa_atexit(void (i8*)*, i8*, i8*) #2

; Function Attrs: nounwind
declare void @__cxa_guard_abort(i64*) #2

; Function Attrs: nounwind
declare void @__cxa_guard_release(i64*) #2

; Function Attrs: noinline uwtable
define linkonce_odr void @_ZN5PointILi3EEC2Ev(%class.Point*) unnamed_addr #0 comdat align 2 {
  %2 = alloca %class.Point*, align 8
  store %class.Point* %0, %class.Point** %2, align 8
  %3 = load %class.Point*, %class.Point** %2, align 8
  %4 = bitcast %class.Point* %3 to %class.Tensor*
  call void @_ZN6TensorILi1ELi3EEC2Eb(%class.Tensor* %4, i1 zeroext true)
  ret void
}

; Function Attrs: noinline nounwind uwtable
define linkonce_odr void @_ZNSaI5PointILi3EEEC2Ev(%"class.std::allocator.60"*) unnamed_addr #1 comdat align 2 {
  %2 = alloca %"class.std::allocator.60"*, align 8
  store %"class.std::allocator.60"* %0, %"class.std::allocator.60"** %2, align 8
  %3 = load %"class.std::allocator.60"*, %"class.std::allocator.60"** %2, align 8
  %4 = bitcast %"class.std::allocator.60"* %3 to %"class.__gnu_cxx::new_allocator.61"*
  call void @_ZN9__gnu_cxx13new_allocatorI5PointILi3EEEC2Ev(%"class.__gnu_cxx::new_allocator.61"* %4) #2
  ret void
}

; Function Attrs: noinline uwtable
define linkonce_odr void @_ZNSt6vectorI5PointILi3EESaIS1_EEC2EmRKS1_RKS2_(%"class.std::vector.58"*, i64, %class.Point* dereferenceable(24), %"class.std::allocator.60"* dereferenceable(1)) unnamed_addr #0 comdat align 2 personality i8* bitcast (i32 (...)* @__gxx_personality_v0 to i8*) {
  %5 = alloca %"class.std::vector.58"*, align 8
  %6 = alloca i64, align 8
  %7 = alloca %class.Point*, align 8
  %8 = alloca %"class.std::allocator.60"*, align 8
  %9 = alloca i8*
  %10 = alloca i32
  store %"class.std::vector.58"* %0, %"class.std::vector.58"** %5, align 8
  store i64 %1, i64* %6, align 8
  store %class.Point* %2, %class.Point** %7, align 8
  store %"class.std::allocator.60"* %3, %"class.std::allocator.60"** %8, align 8
  %11 = load %"class.std::vector.58"*, %"class.std::vector.58"** %5, align 8
  %12 = bitcast %"class.std::vector.58"* %11 to %"struct.std::_Vector_base.59"*
  %13 = load i64, i64* %6, align 8
  %14 = load %"class.std::allocator.60"*, %"class.std::allocator.60"** %8, align 8
  %15 = call i64 @_ZNSt6vectorI5PointILi3EESaIS1_EE17_S_check_init_lenEmRKS2_(i64 %13, %"class.std::allocator.60"* dereferenceable(1) %14)
  %16 = load %"class.std::allocator.60"*, %"class.std::allocator.60"** %8, align 8
  call void @_ZNSt12_Vector_baseI5PointILi3EESaIS1_EEC2EmRKS2_(%"struct.std::_Vector_base.59"* %12, i64 %15, %"class.std::allocator.60"* dereferenceable(1) %16)
  %17 = load i64, i64* %6, align 8
  %18 = load %class.Point*, %class.Point** %7, align 8
  invoke void @_ZNSt6vectorI5PointILi3EESaIS1_EE18_M_fill_initializeEmRKS1_(%"class.std::vector.58"* %11, i64 %17, %class.Point* dereferenceable(24) %18)
          to label %19 unwind label %20

; <label>:19:                                     ; preds = %4
  ret void

; <label>:20:                                     ; preds = %4
  %21 = landingpad { i8*, i32 }
          cleanup
  %22 = extractvalue { i8*, i32 } %21, 0
  store i8* %22, i8** %9, align 8
  %23 = extractvalue { i8*, i32 } %21, 1
  store i32 %23, i32* %10, align 4
  %24 = bitcast %"class.std::vector.58"* %11 to %"struct.std::_Vector_base.59"*
  invoke void @_ZNSt12_Vector_baseI5PointILi3EESaIS1_EED2Ev(%"struct.std::_Vector_base.59"* %24)
          to label %25 unwind label %31

; <label>:25:                                     ; preds = %20
  br label %26

; <label>:26:                                     ; preds = %25
  %27 = load i8*, i8** %9, align 8
  %28 = load i32, i32* %10, align 4
  %29 = insertvalue { i8*, i32 } undef, i8* %27, 0
  %30 = insertvalue { i8*, i32 } %29, i32 %28, 1
  resume { i8*, i32 } %30

; <label>:31:                                     ; preds = %20
  %32 = landingpad { i8*, i32 }
          catch i8* null
  %33 = extractvalue { i8*, i32 } %32, 0
  call void @__clang_call_terminate(i8* %33) #12
  unreachable
}

; Function Attrs: noinline nounwind uwtable
define linkonce_odr void @_ZNSaI5PointILi3EEED2Ev(%"class.std::allocator.60"*) unnamed_addr #1 comdat align 2 {
  %2 = alloca %"class.std::allocator.60"*, align 8
  store %"class.std::allocator.60"* %0, %"class.std::allocator.60"** %2, align 8
  %3 = load %"class.std::allocator.60"*, %"class.std::allocator.60"** %2, align 8
  %4 = bitcast %"class.std::allocator.60"* %3 to %"class.__gnu_cxx::new_allocator.61"*
  call void @_ZN9__gnu_cxx13new_allocatorI5PointILi3EEED2Ev(%"class.__gnu_cxx::new_allocator.61"* %4) #2
  ret void
}

; Function Attrs: noinline uwtable
define linkonce_odr %class.CellAccessor* @_ZNK15TriaRawIteratorILi3E12CellAccessorILi3EEEptEv(%class.TriaRawIterator*) #0 comdat align 2 {
  %2 = alloca %class.TriaRawIterator*, align 8
  store %class.TriaRawIterator* %0, %class.TriaRawIterator** %2, align 8
  %3 = load %class.TriaRawIterator*, %class.TriaRawIterator** %2, align 8
  %4 = call dereferenceable(16) %class.CellAccessor* @_ZNK15TriaRawIteratorILi3E12CellAccessorILi3EEEdeEv(%class.TriaRawIterator* %3)
  ret %class.CellAccessor* %4
}

; Function Attrs: noinline uwtable
define linkonce_odr void @_ZNK12CellAccessorILi3EE4faceEj(%class.TriaIterator.65* noalias sret, %class.CellAccessor*, i32) #0 comdat align 2 {
  %4 = alloca %class.CellAccessor*, align 8
  %5 = alloca i32, align 4
  store %class.CellAccessor* %1, %class.CellAccessor** %4, align 8
  store i32 %2, i32* %5, align 4
  %6 = load %class.CellAccessor*, %class.CellAccessor** %4, align 8
  %7 = bitcast %class.CellAccessor* %6 to %class.TriaObjectAccessor*
  %8 = load i32, i32* %5, align 4
  call void @_ZNK18TriaObjectAccessorILi3ELi3EE4quadEj(%class.TriaIterator.65* sret %0, %class.TriaObjectAccessor* %7, i32 %8)
  ret void
}

; Function Attrs: noinline uwtable
define linkonce_odr zeroext i1 @_ZNK18TriaObjectAccessorILi3ELi3EE16face_orientationEj(%class.TriaObjectAccessor*, i32) #0 comdat align 2 {
  %3 = alloca %class.TriaObjectAccessor*, align 8
  %4 = alloca i32, align 4
  %5 = alloca %"struct.std::_Bit_reference", align 8
  store %class.TriaObjectAccessor* %0, %class.TriaObjectAccessor** %3, align 8
  store i32 %1, i32* %4, align 4
  %6 = load %class.TriaObjectAccessor*, %class.TriaObjectAccessor** %3, align 8
  %7 = bitcast %class.TriaObjectAccessor* %6 to %class.TriaAccessor*
  %8 = getelementptr inbounds %class.TriaAccessor, %class.TriaAccessor* %7, i32 0, i32 2
  %9 = load %class.Triangulation*, %class.Triangulation** %8, align 8
  %10 = getelementptr inbounds %class.Triangulation, %class.Triangulation* %9, i32 0, i32 1
  %11 = bitcast %class.TriaObjectAccessor* %6 to %class.TriaAccessor*
  %12 = getelementptr inbounds %class.TriaAccessor, %class.TriaAccessor* %11, i32 0, i32 0
  %13 = load i32, i32* %12, align 8
  %14 = sext i32 %13 to i64
  %15 = call dereferenceable(8) %class.TriangulationLevel** @_ZNKSt6vectorIP18TriangulationLevelILi3EESaIS2_EEixEm(%"class.std::vector.10"* %10, i64 %14)
  %16 = load %class.TriangulationLevel*, %class.TriangulationLevel** %15, align 8
  %17 = getelementptr inbounds %class.TriangulationLevel, %class.TriangulationLevel* %16, i32 0, i32 1
  %18 = getelementptr inbounds %"struct.TriangulationLevel<3>::HexesData", %"struct.TriangulationLevel<3>::HexesData"* %17, i32 0, i32 6
  %19 = bitcast %class.TriaObjectAccessor* %6 to %class.TriaAccessor*
  %20 = getelementptr inbounds %class.TriaAccessor, %class.TriaAccessor* %19, i32 0, i32 1
  %21 = load i32, i32* %20, align 4
  %22 = mul i32 %21, 6
  %23 = load i32, i32* %4, align 4
  %24 = add i32 %22, %23
  %25 = zext i32 %24 to i64
  %26 = call { i64*, i64 } @_ZNSt6vectorIbSaIbEEixEm(%"class.std::vector.18"* %18, i64 %25)
  %27 = bitcast %"struct.std::_Bit_reference"* %5 to { i64*, i64 }*
  %28 = getelementptr inbounds { i64*, i64 }, { i64*, i64 }* %27, i32 0, i32 0
  %29 = extractvalue { i64*, i64 } %26, 0
  store i64* %29, i64** %28, align 8
  %30 = getelementptr inbounds { i64*, i64 }, { i64*, i64 }* %27, i32 0, i32 1
  %31 = extractvalue { i64*, i64 } %26, 1
  store i64 %31, i64* %30, align 8
  %32 = call zeroext i1 @_ZNKSt14_Bit_referencecvbEv(%"struct.std::_Bit_reference"* %5)
  ret i1 %32
}

; Function Attrs: noinline uwtable
define linkonce_odr %class.TriaObjectAccessor.68* @_ZNK15TriaRawIteratorILi3E18TriaObjectAccessorILi2ELi3EEEptEv(%class.TriaRawIterator.66*) #0 comdat align 2 {
  %2 = alloca %class.TriaRawIterator.66*, align 8
  store %class.TriaRawIterator.66* %0, %class.TriaRawIterator.66** %2, align 8
  %3 = load %class.TriaRawIterator.66*, %class.TriaRawIterator.66** %2, align 8
  %4 = call dereferenceable(16) %class.TriaObjectAccessor.68* @_ZNK15TriaRawIteratorILi3E18TriaObjectAccessorILi2ELi3EEEdeEv(%class.TriaRawIterator.66* %3)
  ret %class.TriaObjectAccessor.68* %4
}

declare zeroext i1 @_ZNK18TriaObjectAccessorILi2ELi3EE11at_boundaryEv(%class.TriaObjectAccessor.68*) #3

; Function Attrs: noinline nounwind uwtable
define linkonce_odr dereferenceable(2352) %class.Triangulation* @_ZNK12TriaAccessorILi3EE17get_triangulationEv(%class.TriaAccessor*) #1 comdat align 2 {
  %2 = alloca %class.TriaAccessor*, align 8
  store %class.TriaAccessor* %0, %class.TriaAccessor** %2, align 8
  %3 = load %class.TriaAccessor*, %class.TriaAccessor** %2, align 8
  %4 = getelementptr inbounds %class.TriaAccessor, %class.TriaAccessor* %3, i32 0, i32 2
  %5 = load %class.Triangulation*, %class.Triangulation** %4, align 8
  ret %class.Triangulation* %5
}

declare dereferenceable(24) %class.Boundary* @_ZNK13TriangulationILi3EE12get_boundaryEj(%class.Triangulation*, i32) #3

declare zeroext i8 @_ZNK18TriaObjectAccessorILi2ELi3EE18boundary_indicatorEv(%class.TriaObjectAccessor.68*) #3

; Function Attrs: noinline uwtable
define linkonce_odr void @_ZNSt6vectorI5PointILi3EESaIS1_EE6insertIN9__gnu_cxx17__normal_iteratorIPS1_S3_EEEEvS8_T_S9_(%"class.std::vector.58"*, %class.Point*, %class.Point*, %class.Point*) #0 comdat align 2 {
  %5 = alloca %"class.__gnu_cxx::__normal_iterator", align 8
  %6 = alloca %"class.__gnu_cxx::__normal_iterator", align 8
  %7 = alloca %"class.__gnu_cxx::__normal_iterator", align 8
  %8 = alloca %"class.std::vector.58"*, align 8
  %9 = alloca %"class.__gnu_cxx::__normal_iterator", align 8
  %10 = alloca %"class.__gnu_cxx::__normal_iterator", align 8
  %11 = alloca %"class.__gnu_cxx::__normal_iterator", align 8
  %12 = alloca %"struct.std::__false_type", align 1
  %13 = getelementptr inbounds %"class.__gnu_cxx::__normal_iterator", %"class.__gnu_cxx::__normal_iterator"* %5, i32 0, i32 0
  store %class.Point* %1, %class.Point** %13, align 8
  %14 = getelementptr inbounds %"class.__gnu_cxx::__normal_iterator", %"class.__gnu_cxx::__normal_iterator"* %6, i32 0, i32 0
  store %class.Point* %2, %class.Point** %14, align 8
  %15 = getelementptr inbounds %"class.__gnu_cxx::__normal_iterator", %"class.__gnu_cxx::__normal_iterator"* %7, i32 0, i32 0
  store %class.Point* %3, %class.Point** %15, align 8
  store %"class.std::vector.58"* %0, %"class.std::vector.58"** %8, align 8
  %16 = load %"class.std::vector.58"*, %"class.std::vector.58"** %8, align 8
  %17 = bitcast %"class.__gnu_cxx::__normal_iterator"* %9 to i8*
  %18 = bitcast %"class.__gnu_cxx::__normal_iterator"* %5 to i8*
  call void @llvm.memcpy.p0i8.p0i8.i64(i8* %17, i8* %18, i64 8, i32 8, i1 false)
  %19 = bitcast %"class.__gnu_cxx::__normal_iterator"* %10 to i8*
  %20 = bitcast %"class.__gnu_cxx::__normal_iterator"* %6 to i8*
  call void @llvm.memcpy.p0i8.p0i8.i64(i8* %19, i8* %20, i64 8, i32 8, i1 false)
  %21 = bitcast %"class.__gnu_cxx::__normal_iterator"* %11 to i8*
  %22 = bitcast %"class.__gnu_cxx::__normal_iterator"* %7 to i8*
  call void @llvm.memcpy.p0i8.p0i8.i64(i8* %21, i8* %22, i64 8, i32 8, i1 false)
  %23 = getelementptr inbounds %"class.__gnu_cxx::__normal_iterator", %"class.__gnu_cxx::__normal_iterator"* %9, i32 0, i32 0
  %24 = load %class.Point*, %class.Point** %23, align 8
  %25 = getelementptr inbounds %"class.__gnu_cxx::__normal_iterator", %"class.__gnu_cxx::__normal_iterator"* %10, i32 0, i32 0
  %26 = load %class.Point*, %class.Point** %25, align 8
  %27 = getelementptr inbounds %"class.__gnu_cxx::__normal_iterator", %"class.__gnu_cxx::__normal_iterator"* %11, i32 0, i32 0
  %28 = load %class.Point*, %class.Point** %27, align 8
  call void @_ZNSt6vectorI5PointILi3EESaIS1_EE18_M_insert_dispatchIN9__gnu_cxx17__normal_iteratorIPS1_S3_EEEEvS8_T_S9_St12__false_type(%"class.std::vector.58"* %16, %class.Point* %24, %class.Point* %26, %class.Point* %28)
  ret void
}

; Function Attrs: noinline uwtable
define linkonce_odr %class.Point* @_ZNSt6vectorI5PointILi3EESaIS1_EE3endEv(%"class.std::vector.58"*) #0 comdat align 2 {
  %2 = alloca %"class.__gnu_cxx::__normal_iterator", align 8
  %3 = alloca %"class.std::vector.58"*, align 8
  store %"class.std::vector.58"* %0, %"class.std::vector.58"** %3, align 8
  %4 = load %"class.std::vector.58"*, %"class.std::vector.58"** %3, align 8
  %5 = bitcast %"class.std::vector.58"* %4 to %"struct.std::_Vector_base.59"*
  %6 = getelementptr inbounds %"struct.std::_Vector_base.59", %"struct.std::_Vector_base.59"* %5, i32 0, i32 0
  %7 = bitcast %"struct.std::_Vector_base<Point<3>, std::allocator<Point<3> > >::_Vector_impl"* %6 to %"struct.std::_Vector_base<Point<3>, std::allocator<Point<3> > >::_Vector_impl_data"*
  %8 = getelementptr inbounds %"struct.std::_Vector_base<Point<3>, std::allocator<Point<3> > >::_Vector_impl_data", %"struct.std::_Vector_base<Point<3>, std::allocator<Point<3> > >::_Vector_impl_data"* %7, i32 0, i32 1
  call void @_ZN9__gnu_cxx17__normal_iteratorIP5PointILi3EESt6vectorIS2_SaIS2_EEEC2ERKS3_(%"class.__gnu_cxx::__normal_iterator"* %2, %class.Point** dereferenceable(8) %8)
  %9 = getelementptr inbounds %"class.__gnu_cxx::__normal_iterator", %"class.__gnu_cxx::__normal_iterator"* %2, i32 0, i32 0
  %10 = load %class.Point*, %class.Point** %9, align 8
  ret %class.Point* %10
}

; Function Attrs: noinline uwtable
define linkonce_odr %class.Point* @_ZNSt6vectorI5PointILi3EESaIS1_EE5beginEv(%"class.std::vector.58"*) #0 comdat align 2 {
  %2 = alloca %"class.__gnu_cxx::__normal_iterator", align 8
  %3 = alloca %"class.std::vector.58"*, align 8
  store %"class.std::vector.58"* %0, %"class.std::vector.58"** %3, align 8
  %4 = load %"class.std::vector.58"*, %"class.std::vector.58"** %3, align 8
  %5 = bitcast %"class.std::vector.58"* %4 to %"struct.std::_Vector_base.59"*
  %6 = getelementptr inbounds %"struct.std::_Vector_base.59", %"struct.std::_Vector_base.59"* %5, i32 0, i32 0
  %7 = bitcast %"struct.std::_Vector_base<Point<3>, std::allocator<Point<3> > >::_Vector_impl"* %6 to %"struct.std::_Vector_base<Point<3>, std::allocator<Point<3> > >::_Vector_impl_data"*
  %8 = getelementptr inbounds %"struct.std::_Vector_base<Point<3>, std::allocator<Point<3> > >::_Vector_impl_data", %"struct.std::_Vector_base<Point<3>, std::allocator<Point<3> > >::_Vector_impl_data"* %7, i32 0, i32 0
  call void @_ZN9__gnu_cxx17__normal_iteratorIP5PointILi3EESt6vectorIS2_SaIS2_EEEC2ERKS3_(%"class.__gnu_cxx::__normal_iterator"* %2, %class.Point** dereferenceable(8) %8)
  %9 = getelementptr inbounds %"class.__gnu_cxx::__normal_iterator", %"class.__gnu_cxx::__normal_iterator"* %2, i32 0, i32 0
  %10 = load %class.Point*, %class.Point** %9, align 8
  ret %class.Point* %10
}

; Function Attrs: noinline uwtable
define linkonce_odr void @_ZNK18TriaObjectAccessorILi2ELi3EE4lineEj(%class.TriaIterator.69* noalias sret, %class.TriaObjectAccessor.68*, i32) #0 comdat align 2 {
  %4 = alloca %class.TriaObjectAccessor.68*, align 8
  %5 = alloca i32, align 4
  store %class.TriaObjectAccessor.68* %1, %class.TriaObjectAccessor.68** %4, align 8
  store i32 %2, i32* %5, align 4
  %6 = load %class.TriaObjectAccessor.68*, %class.TriaObjectAccessor.68** %4, align 8
  %7 = bitcast %class.TriaObjectAccessor.68* %6 to %class.TriaAccessor*
  %8 = getelementptr inbounds %class.TriaAccessor, %class.TriaAccessor* %7, i32 0, i32 2
  %9 = load %class.Triangulation*, %class.Triangulation** %8, align 8
  %10 = bitcast %class.TriaObjectAccessor.68* %6 to %class.TriaAccessor*
  %11 = getelementptr inbounds %class.TriaAccessor, %class.TriaAccessor* %10, i32 0, i32 0
  %12 = load i32, i32* %11, align 8
  %13 = load i32, i32* %5, align 4
  %14 = call i32 @_ZNK18TriaObjectAccessorILi2ELi3EE10line_indexEj(%class.TriaObjectAccessor.68* %6, i32 %13)
  call void @_ZN12TriaIteratorILi3E18TriaObjectAccessorILi1ELi3EEEC2EPK13TriangulationILi3EEiiPKv(%class.TriaIterator.69* %0, %class.Triangulation* %9, i32 %12, i32 %14, i8* null)
  ret void
}

; Function Attrs: noinline uwtable
define linkonce_odr %class.TriaObjectAccessor.72* @_ZN15TriaRawIteratorILi3E18TriaObjectAccessorILi1ELi3EEEptEv(%class.TriaRawIterator.70*) #0 comdat align 2 {
  %2 = alloca %class.TriaRawIterator.70*, align 8
  store %class.TriaRawIterator.70* %0, %class.TriaRawIterator.70** %2, align 8
  %3 = load %class.TriaRawIterator.70*, %class.TriaRawIterator.70** %2, align 8
  %4 = call dereferenceable(16) %class.TriaObjectAccessor.72* @_ZN15TriaRawIteratorILi3E18TriaObjectAccessorILi1ELi3EEEdeEv(%class.TriaRawIterator.70* %3)
  ret %class.TriaObjectAccessor.72* %4
}

declare zeroext i1 @_ZNK18TriaObjectAccessorILi1ELi3EE11at_boundaryEv(%class.TriaObjectAccessor.72*) #3

; Function Attrs: noinline uwtable
define linkonce_odr void @_ZNSt6vectorI5PointILi3EESaIS1_EE6resizeEmS1_(%"class.std::vector.58"*, i64, %class.Point*) #0 comdat align 2 {
  %4 = alloca %"class.std::vector.58"*, align 8
  %5 = alloca i64, align 8
  %6 = alloca %"class.__gnu_cxx::__normal_iterator", align 8
  store %"class.std::vector.58"* %0, %"class.std::vector.58"** %4, align 8
  store i64 %1, i64* %5, align 8
  %7 = load %"class.std::vector.58"*, %"class.std::vector.58"** %4, align 8
  %8 = load i64, i64* %5, align 8
  %9 = call i64 @_ZNKSt6vectorI5PointILi3EESaIS1_EE4sizeEv(%"class.std::vector.58"* %7)
  %10 = icmp ugt i64 %8, %9
  br i1 %10, label %11, label %19

; <label>:11:                                     ; preds = %3
  %12 = call %class.Point* @_ZNSt6vectorI5PointILi3EESaIS1_EE3endEv(%"class.std::vector.58"* %7)
  %13 = getelementptr inbounds %"class.__gnu_cxx::__normal_iterator", %"class.__gnu_cxx::__normal_iterator"* %6, i32 0, i32 0
  store %class.Point* %12, %class.Point** %13, align 8
  %14 = load i64, i64* %5, align 8
  %15 = call i64 @_ZNKSt6vectorI5PointILi3EESaIS1_EE4sizeEv(%"class.std::vector.58"* %7)
  %16 = sub i64 %14, %15
  %17 = getelementptr inbounds %"class.__gnu_cxx::__normal_iterator", %"class.__gnu_cxx::__normal_iterator"* %6, i32 0, i32 0
  %18 = load %class.Point*, %class.Point** %17, align 8
  call void @_ZNSt6vectorI5PointILi3EESaIS1_EE14_M_fill_insertEN9__gnu_cxx17__normal_iteratorIPS1_S3_EEmRKS1_(%"class.std::vector.58"* %7, %class.Point* %18, i64 %16, %class.Point* dereferenceable(24) %2)
  br label %32

; <label>:19:                                     ; preds = %3
  %20 = load i64, i64* %5, align 8
  %21 = call i64 @_ZNKSt6vectorI5PointILi3EESaIS1_EE4sizeEv(%"class.std::vector.58"* %7)
  %22 = icmp ult i64 %20, %21
  br i1 %22, label %23, label %31

; <label>:23:                                     ; preds = %19
  %24 = bitcast %"class.std::vector.58"* %7 to %"struct.std::_Vector_base.59"*
  %25 = getelementptr inbounds %"struct.std::_Vector_base.59", %"struct.std::_Vector_base.59"* %24, i32 0, i32 0
  %26 = bitcast %"struct.std::_Vector_base<Point<3>, std::allocator<Point<3> > >::_Vector_impl"* %25 to %"struct.std::_Vector_base<Point<3>, std::allocator<Point<3> > >::_Vector_impl_data"*
  %27 = getelementptr inbounds %"struct.std::_Vector_base<Point<3>, std::allocator<Point<3> > >::_Vector_impl_data", %"struct.std::_Vector_base<Point<3>, std::allocator<Point<3> > >::_Vector_impl_data"* %26, i32 0, i32 0
  %28 = load %class.Point*, %class.Point** %27, align 8
  %29 = load i64, i64* %5, align 8
  %30 = getelementptr inbounds %class.Point, %class.Point* %28, i64 %29
  call void @_ZNSt6vectorI5PointILi3EESaIS1_EE15_M_erase_at_endEPS1_(%"class.std::vector.58"* %7, %class.Point* %30)
  br label %31

; <label>:31:                                     ; preds = %23, %19
  br label %32

; <label>:32:                                     ; preds = %31, %11
  ret void
}

; Function Attrs: noinline nounwind uwtable
define linkonce_odr dereferenceable(24) %class.Point* @_ZNSt6vectorI5PointILi3EESaIS1_EEixEm(%"class.std::vector.58"*, i64) #1 comdat align 2 {
  %3 = alloca %"class.std::vector.58"*, align 8
  %4 = alloca i64, align 8
  store %"class.std::vector.58"* %0, %"class.std::vector.58"** %3, align 8
  store i64 %1, i64* %4, align 8
  %5 = load %"class.std::vector.58"*, %"class.std::vector.58"** %3, align 8
  %6 = bitcast %"class.std::vector.58"* %5 to %"struct.std::_Vector_base.59"*
  %7 = getelementptr inbounds %"struct.std::_Vector_base.59", %"struct.std::_Vector_base.59"* %6, i32 0, i32 0
  %8 = bitcast %"struct.std::_Vector_base<Point<3>, std::allocator<Point<3> > >::_Vector_impl"* %7 to %"struct.std::_Vector_base<Point<3>, std::allocator<Point<3> > >::_Vector_impl_data"*
  %9 = getelementptr inbounds %"struct.std::_Vector_base<Point<3>, std::allocator<Point<3> > >::_Vector_impl_data", %"struct.std::_Vector_base<Point<3>, std::allocator<Point<3> > >::_Vector_impl_data"* %8, i32 0, i32 0
  %10 = load %class.Point*, %class.Point** %9, align 8
  %11 = load i64, i64* %4, align 8
  %12 = getelementptr inbounds %class.Point, %class.Point* %10, i64 %11
  ret %class.Point* %12
}

; Function Attrs: noinline uwtable
define linkonce_odr dereferenceable(24) %class.Point* @_ZN5PointILi3EEaSERKS0_(%class.Point*, %class.Point* dereferenceable(24)) #0 comdat align 2 {
  %3 = alloca %class.Point*, align 8
  %4 = alloca %class.Point*, align 8
  store %class.Point* %0, %class.Point** %3, align 8
  store %class.Point* %1, %class.Point** %4, align 8
  %5 = load %class.Point*, %class.Point** %3, align 8
  %6 = bitcast %class.Point* %5 to %class.Tensor*
  %7 = load %class.Point*, %class.Point** %4, align 8
  %8 = bitcast %class.Point* %7 to %class.Tensor*
  %9 = call dereferenceable(24) %class.Tensor* @_ZN6TensorILi1ELi3EEaSERKS0_(%class.Tensor* %6, %class.Tensor* dereferenceable(24) %8)
  ret %class.Point* %5
}

; Function Attrs: noinline uwtable
define weak_odr void @_ZNK8MappingQILi3EE20apply_laplace_vectorERK5TableILi2EdERSt6vectorI5PointILi3EESaIS7_EE(%class.MappingQ*, %class.Table* dereferenceable(48), %"class.std::vector.58"* dereferenceable(24)) #0 comdat align 2 {
  %4 = alloca %class.MappingQ*, align 8
  %5 = alloca %class.Table*, align 8
  %6 = alloca %"class.std::vector.58"*, align 8
  %7 = alloca i32, align 4
  %8 = alloca i32, align 4
  %9 = alloca i32, align 4
  %10 = alloca %class.Point, align 8
  %11 = alloca i32, align 4
  %12 = alloca %class.Point, align 8
  %13 = alloca %"class.internal::TableBaseAccessors::Accessor.136", align 8
  store %class.MappingQ* %0, %class.MappingQ** %4, align 8
  store %class.Table* %1, %class.Table** %5, align 8
  store %"class.std::vector.58"* %2, %"class.std::vector.58"** %6, align 8
  %14 = load %class.MappingQ*, %class.MappingQ** %4, align 8
  %15 = load %class.Table*, %class.Table** %5, align 8
  %16 = call i32 @_ZNK5TableILi2EdE6n_rowsEv(%class.Table* %15)
  store i32 %16, i32* %7, align 4
  %17 = load %class.Table*, %class.Table** %5, align 8
  %18 = call i32 @_ZNK5TableILi2EdE6n_colsEv(%class.Table* %17)
  store i32 %18, i32* %8, align 4
  store i32 0, i32* %9, align 4
  br label %19

; <label>:19:                                     ; preds = %46, %3
  %20 = load i32, i32* %9, align 4
  %21 = load i32, i32* %7, align 4
  %22 = icmp ult i32 %20, %21
  br i1 %22, label %23, label %49

; <label>:23:                                     ; preds = %19
  call void @_ZN5PointILi3EEC2Ev(%class.Point* %10)
  store i32 0, i32* %11, align 4
  br label %24

; <label>:24:                                     ; preds = %41, %23
  %25 = load i32, i32* %11, align 4
  %26 = load i32, i32* %8, align 4
  %27 = icmp ult i32 %25, %26
  br i1 %27, label %28, label %44

; <label>:28:                                     ; preds = %24
  %29 = load %class.Table*, %class.Table** %5, align 8
  %30 = load i32, i32* %9, align 4
  call void @_ZNK5TableILi2EdEixEj(%"class.internal::TableBaseAccessors::Accessor.136"* sret %13, %class.Table* %29, i32 %30)
  %31 = load i32, i32* %11, align 4
  %32 = call dereferenceable(8) double* @_ZNK8internal18TableBaseAccessors8AccessorILi2EdLb1ELj1EEixEj(%"class.internal::TableBaseAccessors::Accessor.136"* %13, i32 %31)
  %33 = load double, double* %32, align 8
  %34 = load %"class.std::vector.58"*, %"class.std::vector.58"** %6, align 8
  %35 = load i32, i32* %11, align 4
  %36 = zext i32 %35 to i64
  %37 = call dereferenceable(24) %class.Point* @_ZNSt6vectorI5PointILi3EESaIS1_EEixEm(%"class.std::vector.58"* %34, i64 %36)
  call void @_ZmlILi3EE5PointIXT_EEdRKS1_(%class.Point* sret %12, double %33, %class.Point* dereferenceable(24) %37)
  %38 = bitcast %class.Point* %12 to %class.Tensor*
  %39 = bitcast %class.Point* %10 to %class.Tensor*
  %40 = call dereferenceable(24) %class.Tensor* @_ZN6TensorILi1ELi3EEpLERKS0_(%class.Tensor* %39, %class.Tensor* dereferenceable(24) %38)
  br label %41

; <label>:41:                                     ; preds = %28
  %42 = load i32, i32* %11, align 4
  %43 = add i32 %42, 1
  store i32 %43, i32* %11, align 4
  br label %24

; <label>:44:                                     ; preds = %24
  %45 = load %"class.std::vector.58"*, %"class.std::vector.58"** %6, align 8
  call void @_ZNSt6vectorI5PointILi3EESaIS1_EE9push_backERKS1_(%"class.std::vector.58"* %45, %class.Point* dereferenceable(24) %10)
  br label %46

; <label>:46:                                     ; preds = %44
  %47 = load i32, i32* %9, align 4
  %48 = add i32 %47, 1
  store i32 %48, i32* %9, align 4
  br label %19

; <label>:49:                                     ; preds = %19
  ret void
}

; Function Attrs: noinline uwtable
define linkonce_odr void @_ZNSt6vectorI5PointILi3EESaIS1_EE9push_backERKS1_(%"class.std::vector.58"*, %class.Point* dereferenceable(24)) #0 comdat align 2 {
  %3 = alloca %"class.std::vector.58"*, align 8
  %4 = alloca %class.Point*, align 8
  %5 = alloca %"class.__gnu_cxx::__normal_iterator", align 8
  store %"class.std::vector.58"* %0, %"class.std::vector.58"** %3, align 8
  store %class.Point* %1, %class.Point** %4, align 8
  %6 = load %"class.std::vector.58"*, %"class.std::vector.58"** %3, align 8
  %7 = bitcast %"class.std::vector.58"* %6 to %"struct.std::_Vector_base.59"*
  %8 = getelementptr inbounds %"struct.std::_Vector_base.59", %"struct.std::_Vector_base.59"* %7, i32 0, i32 0
  %9 = bitcast %"struct.std::_Vector_base<Point<3>, std::allocator<Point<3> > >::_Vector_impl"* %8 to %"struct.std::_Vector_base<Point<3>, std::allocator<Point<3> > >::_Vector_impl_data"*
  %10 = getelementptr inbounds %"struct.std::_Vector_base<Point<3>, std::allocator<Point<3> > >::_Vector_impl_data", %"struct.std::_Vector_base<Point<3>, std::allocator<Point<3> > >::_Vector_impl_data"* %9, i32 0, i32 1
  %11 = load %class.Point*, %class.Point** %10, align 8
  %12 = bitcast %"class.std::vector.58"* %6 to %"struct.std::_Vector_base.59"*
  %13 = getelementptr inbounds %"struct.std::_Vector_base.59", %"struct.std::_Vector_base.59"* %12, i32 0, i32 0
  %14 = bitcast %"struct.std::_Vector_base<Point<3>, std::allocator<Point<3> > >::_Vector_impl"* %13 to %"struct.std::_Vector_base<Point<3>, std::allocator<Point<3> > >::_Vector_impl_data"*
  %15 = getelementptr inbounds %"struct.std::_Vector_base<Point<3>, std::allocator<Point<3> > >::_Vector_impl_data", %"struct.std::_Vector_base<Point<3>, std::allocator<Point<3> > >::_Vector_impl_data"* %14, i32 0, i32 2
  %16 = load %class.Point*, %class.Point** %15, align 8
  %17 = icmp ne %class.Point* %11, %16
  br i1 %17, label %18, label %34

; <label>:18:                                     ; preds = %2
  %19 = bitcast %"class.std::vector.58"* %6 to %"struct.std::_Vector_base.59"*
  %20 = getelementptr inbounds %"struct.std::_Vector_base.59", %"struct.std::_Vector_base.59"* %19, i32 0, i32 0
  %21 = bitcast %"struct.std::_Vector_base<Point<3>, std::allocator<Point<3> > >::_Vector_impl"* %20 to %"class.std::allocator.60"*
  %22 = bitcast %"class.std::vector.58"* %6 to %"struct.std::_Vector_base.59"*
  %23 = getelementptr inbounds %"struct.std::_Vector_base.59", %"struct.std::_Vector_base.59"* %22, i32 0, i32 0
  %24 = bitcast %"struct.std::_Vector_base<Point<3>, std::allocator<Point<3> > >::_Vector_impl"* %23 to %"struct.std::_Vector_base<Point<3>, std::allocator<Point<3> > >::_Vector_impl_data"*
  %25 = getelementptr inbounds %"struct.std::_Vector_base<Point<3>, std::allocator<Point<3> > >::_Vector_impl_data", %"struct.std::_Vector_base<Point<3>, std::allocator<Point<3> > >::_Vector_impl_data"* %24, i32 0, i32 1
  %26 = load %class.Point*, %class.Point** %25, align 8
  %27 = load %class.Point*, %class.Point** %4, align 8
  call void @_ZN9__gnu_cxx14__alloc_traitsISaI5PointILi3EEES2_E9constructIS2_EEvRS3_PS2_RKT_(%"class.std::allocator.60"* dereferenceable(1) %21, %class.Point* %26, %class.Point* dereferenceable(24) %27)
  %28 = bitcast %"class.std::vector.58"* %6 to %"struct.std::_Vector_base.59"*
  %29 = getelementptr inbounds %"struct.std::_Vector_base.59", %"struct.std::_Vector_base.59"* %28, i32 0, i32 0
  %30 = bitcast %"struct.std::_Vector_base<Point<3>, std::allocator<Point<3> > >::_Vector_impl"* %29 to %"struct.std::_Vector_base<Point<3>, std::allocator<Point<3> > >::_Vector_impl_data"*
  %31 = getelementptr inbounds %"struct.std::_Vector_base<Point<3>, std::allocator<Point<3> > >::_Vector_impl_data", %"struct.std::_Vector_base<Point<3>, std::allocator<Point<3> > >::_Vector_impl_data"* %30, i32 0, i32 1
  %32 = load %class.Point*, %class.Point** %31, align 8
  %33 = getelementptr inbounds %class.Point, %class.Point* %32, i32 1
  store %class.Point* %33, %class.Point** %31, align 8
  br label %40

; <label>:34:                                     ; preds = %2
  %35 = call %class.Point* @_ZNSt6vectorI5PointILi3EESaIS1_EE3endEv(%"class.std::vector.58"* %6)
  %36 = getelementptr inbounds %"class.__gnu_cxx::__normal_iterator", %"class.__gnu_cxx::__normal_iterator"* %5, i32 0, i32 0
  store %class.Point* %35, %class.Point** %36, align 8
  %37 = load %class.Point*, %class.Point** %4, align 8
  %38 = getelementptr inbounds %"class.__gnu_cxx::__normal_iterator", %"class.__gnu_cxx::__normal_iterator"* %5, i32 0, i32 0
  %39 = load %class.Point*, %class.Point** %38, align 8
  call void @_ZNSt6vectorI5PointILi3EESaIS1_EE17_M_realloc_insertEN9__gnu_cxx17__normal_iteratorIPS1_S3_EERKS1_(%"class.std::vector.58"* %6, %class.Point* %39, %class.Point* dereferenceable(24) %37)
  br label %40

; <label>:40:                                     ; preds = %34, %18
  ret void
}

declare void @_ZNK16StraightBoundaryILi3EE31get_intermediate_points_on_quadERK12TriaIteratorILi3E18TriaObjectAccessorILi2ELi3EEERSt6vectorI5PointILi3EESaIS9_EE(%class.StraightBoundary*, %class.TriaIterator.65* dereferenceable(16), %"class.std::vector.58"* dereferenceable(24)) unnamed_addr #3

; Function Attrs: noinline uwtable
define linkonce_odr void @_ZNSt6vectorI5PointILi3EESaIS1_EED2Ev(%"class.std::vector.58"*) unnamed_addr #0 comdat align 2 personality i8* bitcast (i32 (...)* @__gxx_personality_v0 to i8*) {
  %2 = alloca %"class.std::vector.58"*, align 8
  %3 = alloca i8*
  %4 = alloca i32
  store %"class.std::vector.58"* %0, %"class.std::vector.58"** %2, align 8
  %5 = load %"class.std::vector.58"*, %"class.std::vector.58"** %2, align 8
  %6 = bitcast %"class.std::vector.58"* %5 to %"struct.std::_Vector_base.59"*
  %7 = getelementptr inbounds %"struct.std::_Vector_base.59", %"struct.std::_Vector_base.59"* %6, i32 0, i32 0
  %8 = bitcast %"struct.std::_Vector_base<Point<3>, std::allocator<Point<3> > >::_Vector_impl"* %7 to %"struct.std::_Vector_base<Point<3>, std::allocator<Point<3> > >::_Vector_impl_data"*
  %9 = getelementptr inbounds %"struct.std::_Vector_base<Point<3>, std::allocator<Point<3> > >::_Vector_impl_data", %"struct.std::_Vector_base<Point<3>, std::allocator<Point<3> > >::_Vector_impl_data"* %8, i32 0, i32 0
  %10 = load %class.Point*, %class.Point** %9, align 8
  %11 = bitcast %"class.std::vector.58"* %5 to %"struct.std::_Vector_base.59"*
  %12 = getelementptr inbounds %"struct.std::_Vector_base.59", %"struct.std::_Vector_base.59"* %11, i32 0, i32 0
  %13 = bitcast %"struct.std::_Vector_base<Point<3>, std::allocator<Point<3> > >::_Vector_impl"* %12 to %"struct.std::_Vector_base<Point<3>, std::allocator<Point<3> > >::_Vector_impl_data"*
  %14 = getelementptr inbounds %"struct.std::_Vector_base<Point<3>, std::allocator<Point<3> > >::_Vector_impl_data", %"struct.std::_Vector_base<Point<3>, std::allocator<Point<3> > >::_Vector_impl_data"* %13, i32 0, i32 1
  %15 = load %class.Point*, %class.Point** %14, align 8
  %16 = bitcast %"class.std::vector.58"* %5 to %"struct.std::_Vector_base.59"*
  %17 = invoke dereferenceable(1) %"class.std::allocator.60"* @_ZNSt12_Vector_baseI5PointILi3EESaIS1_EE19_M_get_Tp_allocatorEv(%"struct.std::_Vector_base.59"* %16)
          to label %18 unwind label %21

; <label>:18:                                     ; preds = %1
  invoke void @_ZSt8_DestroyIP5PointILi3EES1_EvT_S3_RSaIT0_E(%class.Point* %10, %class.Point* %15, %"class.std::allocator.60"* dereferenceable(1) %17)
          to label %19 unwind label %21

; <label>:19:                                     ; preds = %18
  %20 = bitcast %"class.std::vector.58"* %5 to %"struct.std::_Vector_base.59"*
  call void @_ZNSt12_Vector_baseI5PointILi3EESaIS1_EED2Ev(%"struct.std::_Vector_base.59"* %20)
  ret void

; <label>:21:                                     ; preds = %18, %1
  %22 = landingpad { i8*, i32 }
          cleanup
  %23 = extractvalue { i8*, i32 } %22, 0
  store i8* %23, i8** %3, align 8
  %24 = extractvalue { i8*, i32 } %22, 1
  store i32 %24, i32* %4, align 4
  %25 = bitcast %"class.std::vector.58"* %5 to %"struct.std::_Vector_base.59"*
  invoke void @_ZNSt12_Vector_baseI5PointILi3EESaIS1_EED2Ev(%"struct.std::_Vector_base.59"* %25)
          to label %26 unwind label %32

; <label>:26:                                     ; preds = %21
  br label %27

; <label>:27:                                     ; preds = %26
  %28 = load i8*, i8** %3, align 8
  %29 = load i32, i32* %4, align 4
  %30 = insertvalue { i8*, i32 } undef, i8* %28, 0
  %31 = insertvalue { i8*, i32 } %30, i32 %29, 1
  resume { i8*, i32 } %31

; <label>:32:                                     ; preds = %21
  %33 = landingpad { i8*, i32 }
          catch i8* null
  %34 = extractvalue { i8*, i32 } %33, 0
  call void @__clang_call_terminate(i8* %34) #12
  unreachable
}

; Function Attrs: noinline noreturn nounwind
define linkonce_odr hidden void @__clang_call_terminate(i8*) #4 comdat {
  %2 = call i8* @__cxa_begin_catch(i8* %0) #2
  call void @_ZSt9terminatev() #12
  unreachable
}

declare i8* @__cxa_begin_catch(i8*)

declare void @_ZSt9terminatev()

; Function Attrs: noinline uwtable
define weak_odr void @_ZN8MappingQILi3EEC2Ej(%class.MappingQ*, i32) unnamed_addr #0 comdat($_ZN8MappingQILi3EEC5Ej) align 2 personality i8* bitcast (i32 (...)* @__gxx_personality_v0 to i8*) {
  %3 = alloca %class.MappingQ*, align 8
  %4 = alloca i32, align 4
  %5 = alloca i8*
  %6 = alloca i32
  %7 = alloca i32, align 4
  %8 = alloca %"class.std::allocator.7", align 1
  %9 = alloca %"class.std::vector.73", align 8
  %10 = alloca i32, align 4
  %11 = alloca %"class.Polynomials::LagrangeEquidistant", align 8
  %12 = alloca %class.FE_Q, align 8
  store %class.MappingQ* %0, %class.MappingQ** %3, align 8
  store i32 %1, i32* %4, align 4
  %13 = load %class.MappingQ*, %class.MappingQ** %3, align 8
  %14 = bitcast %class.MappingQ* %13 to %class.MappingQ1*
  call void @_ZN9MappingQ1ILi3EEC2Ev(%class.MappingQ1* %14)
  %15 = bitcast %class.MappingQ* %13 to i32 (...)***
  store i32 (...)** bitcast (i8** getelementptr inbounds ({ [22 x i8*] }, { [22 x i8*] }* @_ZTV8MappingQILi3EE, i32 0, inrange i32 0, i32 2) to i32 (...)**), i32 (...)*** %15, align 8
  %16 = getelementptr inbounds %class.MappingQ, %class.MappingQ* %13, i32 0, i32 1
  invoke void @_ZN5TableILi2EdEC2Ev(%class.Table* %16)
          to label %17 unwind label %68

; <label>:17:                                     ; preds = %2
  %18 = getelementptr inbounds %class.MappingQ, %class.MappingQ* %13, i32 0, i32 2
  invoke void @_ZN5TableILi2EdEC2Ev(%class.Table* %18)
          to label %19 unwind label %72

; <label>:19:                                     ; preds = %17
  %20 = getelementptr inbounds %class.MappingQ, %class.MappingQ* %13, i32 0, i32 3
  %21 = load i32, i32* %4, align 4
  store i32 %21, i32* %20, align 8
  %22 = getelementptr inbounds %class.MappingQ, %class.MappingQ* %13, i32 0, i32 4
  %23 = getelementptr inbounds %class.MappingQ, %class.MappingQ* %13, i32 0, i32 3
  %24 = load i32, i32* %23, align 8
  %25 = sub i32 %24, 1
  %26 = invoke i32 @_Z5powerIjET_S0_j(i32 %25, i32 3)
          to label %27 unwind label %76

; <label>:27:                                     ; preds = %19
  store i32 %26, i32* %22, align 4
  %28 = getelementptr inbounds %class.MappingQ, %class.MappingQ* %13, i32 0, i32 5
  %29 = getelementptr inbounds %class.MappingQ, %class.MappingQ* %13, i32 0, i32 3
  %30 = load i32, i32* %29, align 8
  %31 = sub i32 %30, 1
  %32 = mul i32 12, %31
  %33 = add i32 8, %32
  %34 = getelementptr inbounds %class.MappingQ, %class.MappingQ* %13, i32 0, i32 3
  %35 = load i32, i32* %34, align 8
  %36 = sub i32 %35, 1
  %37 = mul i32 6, %36
  %38 = getelementptr inbounds %class.MappingQ, %class.MappingQ* %13, i32 0, i32 3
  %39 = load i32, i32* %38, align 8
  %40 = sub i32 %39, 1
  %41 = mul i32 %37, %40
  %42 = add i32 %33, %41
  store i32 %42, i32* %28, align 8
  %43 = getelementptr inbounds %class.MappingQ, %class.MappingQ* %13, i32 0, i32 6
  store %class.TensorProductPolynomials* null, %class.TensorProductPolynomials** %43, align 8
  %44 = getelementptr inbounds %class.MappingQ, %class.MappingQ* %13, i32 0, i32 7
  %45 = getelementptr inbounds %class.MappingQ, %class.MappingQ* %13, i32 0, i32 3
  %46 = load i32, i32* %45, align 8
  %47 = add i32 %46, 1
  %48 = invoke i32 @_Z5powerIjET_S0_j(i32 %47, i32 3)
          to label %49 unwind label %76

; <label>:49:                                     ; preds = %27
  store i32 %48, i32* %44, align 8
  %50 = getelementptr inbounds %class.MappingQ, %class.MappingQ* %13, i32 0, i32 8
  store i32 0, i32* %7, align 4
  call void @_ZNSaIjEC2Ev(%"class.std::allocator.7"* %8) #2
  invoke void @_ZNSt6vectorIjSaIjEEC2EmRKjRKS0_(%"class.std::vector.5"* %50, i64 0, i32* dereferenceable(4) %7, %"class.std::allocator.7"* dereferenceable(1) %8)
          to label %51 unwind label %80

; <label>:51:                                     ; preds = %49
  call void @_ZNSaIjED2Ev(%"class.std::allocator.7"* %8) #2
  invoke void @_ZNSt6vectorIN11Polynomials19LagrangeEquidistantESaIS1_EEC2Ev(%"class.std::vector.73"* %9)
          to label %52 unwind label %84

; <label>:52:                                     ; preds = %51
  store i32 0, i32* %10, align 4
  br label %53

; <label>:53:                                     ; preds = %65, %52
  %54 = load i32, i32* %10, align 4
  %55 = getelementptr inbounds %class.MappingQ, %class.MappingQ* %13, i32 0, i32 3
  %56 = load i32, i32* %55, align 8
  %57 = icmp ule i32 %54, %56
  br i1 %57, label %58, label %97

; <label>:58:                                     ; preds = %53
  %59 = getelementptr inbounds %class.MappingQ, %class.MappingQ* %13, i32 0, i32 3
  %60 = load i32, i32* %59, align 8
  %61 = load i32, i32* %10, align 4
  invoke void @_ZN11Polynomials19LagrangeEquidistantC1Ejj(%"class.Polynomials::LagrangeEquidistant"* %11, i32 %60, i32 %61)
          to label %62 unwind label %88

; <label>:62:                                     ; preds = %58
  invoke void @_ZNSt6vectorIN11Polynomials19LagrangeEquidistantESaIS1_EE9push_backERKS1_(%"class.std::vector.73"* %9, %"class.Polynomials::LagrangeEquidistant"* dereferenceable(48) %11)
          to label %63 unwind label %92

; <label>:63:                                     ; preds = %62
  invoke void @_ZN11Polynomials19LagrangeEquidistantD2Ev(%"class.Polynomials::LagrangeEquidistant"* %11)
          to label %64 unwind label %88

; <label>:64:                                     ; preds = %63
  br label %65

; <label>:65:                                     ; preds = %64
  %66 = load i32, i32* %10, align 4
  %67 = add i32 %66, 1
  store i32 %67, i32* %10, align 4
  br label %53

; <label>:68:                                     ; preds = %2
  %69 = landingpad { i8*, i32 }
          cleanup
  %70 = extractvalue { i8*, i32 } %69, 0
  store i8* %70, i8** %5, align 8
  %71 = extractvalue { i8*, i32 } %69, 1
  store i32 %71, i32* %6, align 4
  br label %141

; <label>:72:                                     ; preds = %17
  %73 = landingpad { i8*, i32 }
          cleanup
  %74 = extractvalue { i8*, i32 } %73, 0
  store i8* %74, i8** %5, align 8
  %75 = extractvalue { i8*, i32 } %73, 1
  store i32 %75, i32* %6, align 4
  br label %139

; <label>:76:                                     ; preds = %27, %19
  %77 = landingpad { i8*, i32 }
          cleanup
  %78 = extractvalue { i8*, i32 } %77, 0
  store i8* %78, i8** %5, align 8
  %79 = extractvalue { i8*, i32 } %77, 1
  store i32 %79, i32* %6, align 4
  br label %137

; <label>:80:                                     ; preds = %49
  %81 = landingpad { i8*, i32 }
          cleanup
  %82 = extractvalue { i8*, i32 } %81, 0
  store i8* %82, i8** %5, align 8
  %83 = extractvalue { i8*, i32 } %81, 1
  store i32 %83, i32* %6, align 4
  call void @_ZNSaIjED2Ev(%"class.std::allocator.7"* %8) #2
  br label %137

; <label>:84:                                     ; preds = %131, %51
  %85 = landingpad { i8*, i32 }
          cleanup
  %86 = extractvalue { i8*, i32 } %85, 0
  store i8* %86, i8** %5, align 8
  %87 = extractvalue { i8*, i32 } %85, 1
  store i32 %87, i32* %6, align 4
  br label %135

; <label>:88:                                     ; preds = %119, %117, %112, %107, %101, %97, %63, %58
  %89 = landingpad { i8*, i32 }
          cleanup
  %90 = extractvalue { i8*, i32 } %89, 0
  store i8* %90, i8** %5, align 8
  %91 = extractvalue { i8*, i32 } %89, 1
  store i32 %91, i32* %6, align 4
  br label %133

; <label>:92:                                     ; preds = %62
  %93 = landingpad { i8*, i32 }
          cleanup
  %94 = extractvalue { i8*, i32 } %93, 0
  store i8* %94, i8** %5, align 8
  %95 = extractvalue { i8*, i32 } %93, 1
  store i32 %95, i32* %6, align 4
  invoke void @_ZN11Polynomials19LagrangeEquidistantD2Ev(%"class.Polynomials::LagrangeEquidistant"* %11)
          to label %96 unwind label %149

; <label>:96:                                     ; preds = %92
  br label %133

; <label>:97:                                     ; preds = %53
  %98 = invoke i8* @_Znwm(i64 80) #13
          to label %99 unwind label %88

; <label>:99:                                     ; preds = %97
  %100 = bitcast i8* %98 to %class.TensorProductPolynomials*
  invoke void @_ZN24TensorProductPolynomialsILi3EEC2IN11Polynomials19LagrangeEquidistantEEERKSt6vectorIT_SaIS5_EE(%class.TensorProductPolynomials* %100, %"class.std::vector.73"* dereferenceable(24) %9)
          to label %101 unwind label %122

; <label>:101:                                    ; preds = %99
  %102 = getelementptr inbounds %class.MappingQ, %class.MappingQ* %13, i32 0, i32 6
  store %class.TensorProductPolynomials* %100, %class.TensorProductPolynomials** %102, align 8
  %103 = getelementptr inbounds %class.MappingQ, %class.MappingQ* %13, i32 0, i32 8
  %104 = getelementptr inbounds %class.MappingQ, %class.MappingQ* %13, i32 0, i32 7
  %105 = load i32, i32* %104, align 8
  %106 = zext i32 %105 to i64
  invoke void @_ZNSt6vectorIjSaIjEE6resizeEmj(%"class.std::vector.5"* %103, i64 %106, i32 0)
          to label %107 unwind label %88

; <label>:107:                                    ; preds = %101
  %108 = getelementptr inbounds %class.MappingQ, %class.MappingQ* %13, i32 0, i32 3
  %109 = load i32, i32* %108, align 8
  invoke void @_ZN4FE_QILi3EEC1Ej(%class.FE_Q* %12, i32 %109)
          to label %110 unwind label %88

; <label>:110:                                    ; preds = %107
  %111 = getelementptr inbounds %class.MappingQ, %class.MappingQ* %13, i32 0, i32 8
  invoke void @_ZN7FETools37lexicographic_to_hierarchic_numberingILi3EEEvRK4FE_QIXT_EERSt6vectorIjSaIjEE(%class.FE_Q* dereferenceable(1264) %12, %"class.std::vector.5"* dereferenceable(24) %111)
          to label %112 unwind label %126

; <label>:112:                                    ; preds = %110
  invoke void @_ZN4FE_QILi3EED2Ev(%class.FE_Q* %12)
          to label %113 unwind label %88

; <label>:113:                                    ; preds = %112
  %114 = getelementptr inbounds %class.MappingQ, %class.MappingQ* %13, i32 0, i32 3
  %115 = load i32, i32* %114, align 8
  %116 = icmp ugt i32 %115, 1
  br i1 %116, label %117, label %131

; <label>:117:                                    ; preds = %113
  %118 = getelementptr inbounds %class.MappingQ, %class.MappingQ* %13, i32 0, i32 1
  invoke void @_ZNK8MappingQILi3EE26set_laplace_on_quad_vectorER5TableILi2EdE(%class.MappingQ* %13, %class.Table* dereferenceable(48) %118)
          to label %119 unwind label %88

; <label>:119:                                    ; preds = %117
  %120 = getelementptr inbounds %class.MappingQ, %class.MappingQ* %13, i32 0, i32 2
  invoke void @_ZNK8MappingQILi3EE25set_laplace_on_hex_vectorER5TableILi2EdE(%class.MappingQ* %13, %class.Table* dereferenceable(48) %120)
          to label %121 unwind label %88

; <label>:121:                                    ; preds = %119
  br label %131

; <label>:122:                                    ; preds = %99
  %123 = landingpad { i8*, i32 }
          cleanup
  %124 = extractvalue { i8*, i32 } %123, 0
  store i8* %124, i8** %5, align 8
  %125 = extractvalue { i8*, i32 } %123, 1
  store i32 %125, i32* %6, align 4
  call void @_ZdlPv(i8* %98) #14
  br label %133

; <label>:126:                                    ; preds = %110
  %127 = landingpad { i8*, i32 }
          cleanup
  %128 = extractvalue { i8*, i32 } %127, 0
  store i8* %128, i8** %5, align 8
  %129 = extractvalue { i8*, i32 } %127, 1
  store i32 %129, i32* %6, align 4
  invoke void @_ZN4FE_QILi3EED2Ev(%class.FE_Q* %12)
          to label %130 unwind label %149

; <label>:130:                                    ; preds = %126
  br label %133

; <label>:131:                                    ; preds = %121, %113
  invoke void @_ZNSt6vectorIN11Polynomials19LagrangeEquidistantESaIS1_EED2Ev(%"class.std::vector.73"* %9)
          to label %132 unwind label %84

; <label>:132:                                    ; preds = %131
  ret void

; <label>:133:                                    ; preds = %130, %122, %96, %88
  invoke void @_ZNSt6vectorIN11Polynomials19LagrangeEquidistantESaIS1_EED2Ev(%"class.std::vector.73"* %9)
          to label %134 unwind label %149

; <label>:134:                                    ; preds = %133
  br label %135

; <label>:135:                                    ; preds = %134, %84
  invoke void @_ZNSt6vectorIjSaIjEED2Ev(%"class.std::vector.5"* %50)
          to label %136 unwind label %149

; <label>:136:                                    ; preds = %135
  br label %137

; <label>:137:                                    ; preds = %136, %80, %76
  invoke void @_ZN5TableILi2EdED2Ev(%class.Table* %18)
          to label %138 unwind label %149

; <label>:138:                                    ; preds = %137
  br label %139

; <label>:139:                                    ; preds = %138, %72
  invoke void @_ZN5TableILi2EdED2Ev(%class.Table* %16)
          to label %140 unwind label %149

; <label>:140:                                    ; preds = %139
  br label %141

; <label>:141:                                    ; preds = %140, %68
  %142 = bitcast %class.MappingQ* %13 to %class.MappingQ1*
  invoke void @_ZN9MappingQ1ILi3EED2Ev(%class.MappingQ1* %142)
          to label %143 unwind label %149

; <label>:143:                                    ; preds = %141
  br label %144

; <label>:144:                                    ; preds = %143
  %145 = load i8*, i8** %5, align 8
  %146 = load i32, i32* %6, align 4
  %147 = insertvalue { i8*, i32 } undef, i8* %145, 0
  %148 = insertvalue { i8*, i32 } %147, i32 %146, 1
  resume { i8*, i32 } %148

; <label>:149:                                    ; preds = %141, %139, %137, %135, %133, %126, %92
  %150 = landingpad { i8*, i32 }
          catch i8* null
  %151 = extractvalue { i8*, i32 } %150, 0
  call void @__clang_call_terminate(i8* %151) #12
  unreachable
}

declare void @_ZN9MappingQ1ILi3EEC2Ev(%class.MappingQ1*) unnamed_addr #3

; Function Attrs: noinline uwtable
define linkonce_odr void @_ZN5TableILi2EdEC2Ev(%class.Table*) unnamed_addr #0 comdat align 2 {
  %2 = alloca %class.Table*, align 8
  store %class.Table* %0, %class.Table** %2, align 8
  %3 = load %class.Table*, %class.Table** %2, align 8
  %4 = bitcast %class.Table* %3 to %class.TableBase*
  call void @_ZN9TableBaseILi2EdEC2Ev(%class.TableBase* %4)
  %5 = bitcast %class.Table* %3 to i32 (...)***
  store i32 (...)** bitcast (i8** getelementptr inbounds ({ [4 x i8*] }, { [4 x i8*] }* @_ZTV5TableILi2EdE, i32 0, inrange i32 0, i32 2) to i32 (...)**), i32 (...)*** %5, align 8
  ret void
}

; Function Attrs: noinline nounwind uwtable
define linkonce_odr i32 @_Z5powerIjET_S0_j(i32, i32) #1 comdat {
  %3 = alloca i32, align 4
  %4 = alloca i32, align 4
  %5 = alloca i32, align 4
  %6 = alloca i32, align 4
  store i32 %0, i32* %3, align 4
  store i32 %1, i32* %4, align 4
  store i32 1, i32* %5, align 4
  store i32 0, i32* %6, align 4
  br label %7

; <label>:7:                                      ; preds = %15, %2
  %8 = load i32, i32* %6, align 4
  %9 = load i32, i32* %4, align 4
  %10 = icmp ult i32 %8, %9
  br i1 %10, label %11, label %18

; <label>:11:                                     ; preds = %7
  %12 = load i32, i32* %3, align 4
  %13 = load i32, i32* %5, align 4
  %14 = mul i32 %13, %12
  store i32 %14, i32* %5, align 4
  br label %15

; <label>:15:                                     ; preds = %11
  %16 = load i32, i32* %6, align 4
  %17 = add i32 %16, 1
  store i32 %17, i32* %6, align 4
  br label %7

; <label>:18:                                     ; preds = %7
  %19 = load i32, i32* %5, align 4
  ret i32 %19
}

; Function Attrs: noinline nounwind uwtable
define linkonce_odr void @_ZNSaIjEC2Ev(%"class.std::allocator.7"*) unnamed_addr #1 comdat align 2 {
  %2 = alloca %"class.std::allocator.7"*, align 8
  store %"class.std::allocator.7"* %0, %"class.std::allocator.7"** %2, align 8
  %3 = load %"class.std::allocator.7"*, %"class.std::allocator.7"** %2, align 8
  %4 = bitcast %"class.std::allocator.7"* %3 to %"class.__gnu_cxx::new_allocator.8"*
  call void @_ZN9__gnu_cxx13new_allocatorIjEC2Ev(%"class.__gnu_cxx::new_allocator.8"* %4) #2
  ret void
}

; Function Attrs: noinline uwtable
define linkonce_odr void @_ZNSt6vectorIjSaIjEEC2EmRKjRKS0_(%"class.std::vector.5"*, i64, i32* dereferenceable(4), %"class.std::allocator.7"* dereferenceable(1)) unnamed_addr #0 comdat align 2 personality i8* bitcast (i32 (...)* @__gxx_personality_v0 to i8*) {
  %5 = alloca %"class.std::vector.5"*, align 8
  %6 = alloca i64, align 8
  %7 = alloca i32*, align 8
  %8 = alloca %"class.std::allocator.7"*, align 8
  %9 = alloca i8*
  %10 = alloca i32
  store %"class.std::vector.5"* %0, %"class.std::vector.5"** %5, align 8
  store i64 %1, i64* %6, align 8
  store i32* %2, i32** %7, align 8
  store %"class.std::allocator.7"* %3, %"class.std::allocator.7"** %8, align 8
  %11 = load %"class.std::vector.5"*, %"class.std::vector.5"** %5, align 8
  %12 = bitcast %"class.std::vector.5"* %11 to %"struct.std::_Vector_base.6"*
  %13 = load i64, i64* %6, align 8
  %14 = load %"class.std::allocator.7"*, %"class.std::allocator.7"** %8, align 8
  %15 = call i64 @_ZNSt6vectorIjSaIjEE17_S_check_init_lenEmRKS0_(i64 %13, %"class.std::allocator.7"* dereferenceable(1) %14)
  %16 = load %"class.std::allocator.7"*, %"class.std::allocator.7"** %8, align 8
  call void @_ZNSt12_Vector_baseIjSaIjEEC2EmRKS0_(%"struct.std::_Vector_base.6"* %12, i64 %15, %"class.std::allocator.7"* dereferenceable(1) %16)
  %17 = load i64, i64* %6, align 8
  %18 = load i32*, i32** %7, align 8
  invoke void @_ZNSt6vectorIjSaIjEE18_M_fill_initializeEmRKj(%"class.std::vector.5"* %11, i64 %17, i32* dereferenceable(4) %18)
          to label %19 unwind label %20

; <label>:19:                                     ; preds = %4
  ret void

; <label>:20:                                     ; preds = %4
  %21 = landingpad { i8*, i32 }
          cleanup
  %22 = extractvalue { i8*, i32 } %21, 0
  store i8* %22, i8** %9, align 8
  %23 = extractvalue { i8*, i32 } %21, 1
  store i32 %23, i32* %10, align 4
  %24 = bitcast %"class.std::vector.5"* %11 to %"struct.std::_Vector_base.6"*
  invoke void @_ZNSt12_Vector_baseIjSaIjEED2Ev(%"struct.std::_Vector_base.6"* %24)
          to label %25 unwind label %31

; <label>:25:                                     ; preds = %20
  br label %26

; <label>:26:                                     ; preds = %25
  %27 = load i8*, i8** %9, align 8
  %28 = load i32, i32* %10, align 4
  %29 = insertvalue { i8*, i32 } undef, i8* %27, 0
  %30 = insertvalue { i8*, i32 } %29, i32 %28, 1
  resume { i8*, i32 } %30

; <label>:31:                                     ; preds = %20
  %32 = landingpad { i8*, i32 }
          catch i8* null
  %33 = extractvalue { i8*, i32 } %32, 0
  call void @__clang_call_terminate(i8* %33) #12
  unreachable
}

; Function Attrs: noinline nounwind uwtable
define linkonce_odr void @_ZNSaIjED2Ev(%"class.std::allocator.7"*) unnamed_addr #1 comdat align 2 {
  %2 = alloca %"class.std::allocator.7"*, align 8
  store %"class.std::allocator.7"* %0, %"class.std::allocator.7"** %2, align 8
  %3 = load %"class.std::allocator.7"*, %"class.std::allocator.7"** %2, align 8
  %4 = bitcast %"class.std::allocator.7"* %3 to %"class.__gnu_cxx::new_allocator.8"*
  call void @_ZN9__gnu_cxx13new_allocatorIjED2Ev(%"class.__gnu_cxx::new_allocator.8"* %4) #2
  ret void
}

; Function Attrs: noinline uwtable
define linkonce_odr void @_ZNSt6vectorIN11Polynomials19LagrangeEquidistantESaIS1_EEC2Ev(%"class.std::vector.73"*) unnamed_addr #0 comdat align 2 {
  %2 = alloca %"class.std::vector.73"*, align 8
  store %"class.std::vector.73"* %0, %"class.std::vector.73"** %2, align 8
  %3 = load %"class.std::vector.73"*, %"class.std::vector.73"** %2, align 8
  %4 = bitcast %"class.std::vector.73"* %3 to %"struct.std::_Vector_base.74"*
  call void @_ZNSt12_Vector_baseIN11Polynomials19LagrangeEquidistantESaIS1_EEC2Ev(%"struct.std::_Vector_base.74"* %4)
  ret void
}

; Function Attrs: noinline uwtable
define linkonce_odr void @_ZNSt6vectorIN11Polynomials19LagrangeEquidistantESaIS1_EE9push_backERKS1_(%"class.std::vector.73"*, %"class.Polynomials::LagrangeEquidistant"* dereferenceable(48)) #0 comdat align 2 {
  %3 = alloca %"class.std::vector.73"*, align 8
  %4 = alloca %"class.Polynomials::LagrangeEquidistant"*, align 8
  %5 = alloca %"class.__gnu_cxx::__normal_iterator.140", align 8
  store %"class.std::vector.73"* %0, %"class.std::vector.73"** %3, align 8
  store %"class.Polynomials::LagrangeEquidistant"* %1, %"class.Polynomials::LagrangeEquidistant"** %4, align 8
  %6 = load %"class.std::vector.73"*, %"class.std::vector.73"** %3, align 8
  %7 = bitcast %"class.std::vector.73"* %6 to %"struct.std::_Vector_base.74"*
  %8 = getelementptr inbounds %"struct.std::_Vector_base.74", %"struct.std::_Vector_base.74"* %7, i32 0, i32 0
  %9 = bitcast %"struct.std::_Vector_base<Polynomials::LagrangeEquidistant, std::allocator<Polynomials::LagrangeEquidistant> >::_Vector_impl"* %8 to %"struct.std::_Vector_base<Polynomials::LagrangeEquidistant, std::allocator<Polynomials::LagrangeEquidistant> >::_Vector_impl_data"*
  %10 = getelementptr inbounds %"struct.std::_Vector_base<Polynomials::LagrangeEquidistant, std::allocator<Polynomials::LagrangeEquidistant> >::_Vector_impl_data", %"struct.std::_Vector_base<Polynomials::LagrangeEquidistant, std::allocator<Polynomials::LagrangeEquidistant> >::_Vector_impl_data"* %9, i32 0, i32 1
  %11 = load %"class.Polynomials::LagrangeEquidistant"*, %"class.Polynomials::LagrangeEquidistant"** %10, align 8
  %12 = bitcast %"class.std::vector.73"* %6 to %"struct.std::_Vector_base.74"*
  %13 = getelementptr inbounds %"struct.std::_Vector_base.74", %"struct.std::_Vector_base.74"* %12, i32 0, i32 0
  %14 = bitcast %"struct.std::_Vector_base<Polynomials::LagrangeEquidistant, std::allocator<Polynomials::LagrangeEquidistant> >::_Vector_impl"* %13 to %"struct.std::_Vector_base<Polynomials::LagrangeEquidistant, std::allocator<Polynomials::LagrangeEquidistant> >::_Vector_impl_data"*
  %15 = getelementptr inbounds %"struct.std::_Vector_base<Polynomials::LagrangeEquidistant, std::allocator<Polynomials::LagrangeEquidistant> >::_Vector_impl_data", %"struct.std::_Vector_base<Polynomials::LagrangeEquidistant, std::allocator<Polynomials::LagrangeEquidistant> >::_Vector_impl_data"* %14, i32 0, i32 2
  %16 = load %"class.Polynomials::LagrangeEquidistant"*, %"class.Polynomials::LagrangeEquidistant"** %15, align 8
  %17 = icmp ne %"class.Polynomials::LagrangeEquidistant"* %11, %16
  br i1 %17, label %18, label %34

; <label>:18:                                     ; preds = %2
  %19 = bitcast %"class.std::vector.73"* %6 to %"struct.std::_Vector_base.74"*
  %20 = getelementptr inbounds %"struct.std::_Vector_base.74", %"struct.std::_Vector_base.74"* %19, i32 0, i32 0
  %21 = bitcast %"struct.std::_Vector_base<Polynomials::LagrangeEquidistant, std::allocator<Polynomials::LagrangeEquidistant> >::_Vector_impl"* %20 to %"class.std::allocator.75"*
  %22 = bitcast %"class.std::vector.73"* %6 to %"struct.std::_Vector_base.74"*
  %23 = getelementptr inbounds %"struct.std::_Vector_base.74", %"struct.std::_Vector_base.74"* %22, i32 0, i32 0
  %24 = bitcast %"struct.std::_Vector_base<Polynomials::LagrangeEquidistant, std::allocator<Polynomials::LagrangeEquidistant> >::_Vector_impl"* %23 to %"struct.std::_Vector_base<Polynomials::LagrangeEquidistant, std::allocator<Polynomials::LagrangeEquidistant> >::_Vector_impl_data"*
  %25 = getelementptr inbounds %"struct.std::_Vector_base<Polynomials::LagrangeEquidistant, std::allocator<Polynomials::LagrangeEquidistant> >::_Vector_impl_data", %"struct.std::_Vector_base<Polynomials::LagrangeEquidistant, std::allocator<Polynomials::LagrangeEquidistant> >::_Vector_impl_data"* %24, i32 0, i32 1
  %26 = load %"class.Polynomials::LagrangeEquidistant"*, %"class.Polynomials::LagrangeEquidistant"** %25, align 8
  %27 = load %"class.Polynomials::LagrangeEquidistant"*, %"class.Polynomials::LagrangeEquidistant"** %4, align 8
  call void @_ZN9__gnu_cxx14__alloc_traitsISaIN11Polynomials19LagrangeEquidistantEES2_E9constructIS2_EEvRS3_PS2_RKT_(%"class.std::allocator.75"* dereferenceable(1) %21, %"class.Polynomials::LagrangeEquidistant"* %26, %"class.Polynomials::LagrangeEquidistant"* dereferenceable(48) %27)
  %28 = bitcast %"class.std::vector.73"* %6 to %"struct.std::_Vector_base.74"*
  %29 = getelementptr inbounds %"struct.std::_Vector_base.74", %"struct.std::_Vector_base.74"* %28, i32 0, i32 0
  %30 = bitcast %"struct.std::_Vector_base<Polynomials::LagrangeEquidistant, std::allocator<Polynomials::LagrangeEquidistant> >::_Vector_impl"* %29 to %"struct.std::_Vector_base<Polynomials::LagrangeEquidistant, std::allocator<Polynomials::LagrangeEquidistant> >::_Vector_impl_data"*
  %31 = getelementptr inbounds %"struct.std::_Vector_base<Polynomials::LagrangeEquidistant, std::allocator<Polynomials::LagrangeEquidistant> >::_Vector_impl_data", %"struct.std::_Vector_base<Polynomials::LagrangeEquidistant, std::allocator<Polynomials::LagrangeEquidistant> >::_Vector_impl_data"* %30, i32 0, i32 1
  %32 = load %"class.Polynomials::LagrangeEquidistant"*, %"class.Polynomials::LagrangeEquidistant"** %31, align 8
  %33 = getelementptr inbounds %"class.Polynomials::LagrangeEquidistant", %"class.Polynomials::LagrangeEquidistant"* %32, i32 1
  store %"class.Polynomials::LagrangeEquidistant"* %33, %"class.Polynomials::LagrangeEquidistant"** %31, align 8
  br label %40

; <label>:34:                                     ; preds = %2
  %35 = call %"class.Polynomials::LagrangeEquidistant"* @_ZNSt6vectorIN11Polynomials19LagrangeEquidistantESaIS1_EE3endEv(%"class.std::vector.73"* %6)
  %36 = getelementptr inbounds %"class.__gnu_cxx::__normal_iterator.140", %"class.__gnu_cxx::__normal_iterator.140"* %5, i32 0, i32 0
  store %"class.Polynomials::LagrangeEquidistant"* %35, %"class.Polynomials::LagrangeEquidistant"** %36, align 8
  %37 = load %"class.Polynomials::LagrangeEquidistant"*, %"class.Polynomials::LagrangeEquidistant"** %4, align 8
  %38 = getelementptr inbounds %"class.__gnu_cxx::__normal_iterator.140", %"class.__gnu_cxx::__normal_iterator.140"* %5, i32 0, i32 0
  %39 = load %"class.Polynomials::LagrangeEquidistant"*, %"class.Polynomials::LagrangeEquidistant"** %38, align 8
  call void @_ZNSt6vectorIN11Polynomials19LagrangeEquidistantESaIS1_EE17_M_realloc_insertEN9__gnu_cxx17__normal_iteratorIPS1_S3_EERKS1_(%"class.std::vector.73"* %6, %"class.Polynomials::LagrangeEquidistant"* %39, %"class.Polynomials::LagrangeEquidistant"* dereferenceable(48) %37)
  br label %40

; <label>:40:                                     ; preds = %34, %18
  ret void
}

declare void @_ZN11Polynomials19LagrangeEquidistantC1Ejj(%"class.Polynomials::LagrangeEquidistant"*, i32, i32) unnamed_addr #3

; Function Attrs: noinline uwtable
define linkonce_odr void @_ZN11Polynomials19LagrangeEquidistantD2Ev(%"class.Polynomials::LagrangeEquidistant"*) unnamed_addr #0 comdat align 2 {
  %2 = alloca %"class.Polynomials::LagrangeEquidistant"*, align 8
  store %"class.Polynomials::LagrangeEquidistant"* %0, %"class.Polynomials::LagrangeEquidistant"** %2, align 8
  %3 = load %"class.Polynomials::LagrangeEquidistant"*, %"class.Polynomials::LagrangeEquidistant"** %2, align 8
  %4 = bitcast %"class.Polynomials::LagrangeEquidistant"* %3 to %"class.Polynomials::Polynomial"*
  call void @_ZN11Polynomials10PolynomialIdED2Ev(%"class.Polynomials::Polynomial"* %4)
  ret void
}

; Function Attrs: nobuiltin
declare noalias i8* @_Znwm(i64) #5

; Function Attrs: noinline uwtable
define linkonce_odr void @_ZN24TensorProductPolynomialsILi3EEC2IN11Polynomials19LagrangeEquidistantEEERKSt6vectorIT_SaIS5_EE(%class.TensorProductPolynomials*, %"class.std::vector.73"* dereferenceable(24)) unnamed_addr #0 comdat align 2 personality i8* bitcast (i32 (...)* @__gxx_personality_v0 to i8*) {
  %3 = alloca %class.TensorProductPolynomials*, align 8
  %4 = alloca %"class.std::vector.73"*, align 8
  %5 = alloca %"class.__gnu_cxx::__normal_iterator.142", align 8
  %6 = alloca %"class.__gnu_cxx::__normal_iterator.142", align 8
  %7 = alloca %"class.std::allocator", align 1
  %8 = alloca i8*
  %9 = alloca i32
  %10 = alloca i32, align 4
  %11 = alloca %"class.std::allocator.7", align 1
  %12 = alloca i32, align 4
  %13 = alloca %"class.std::allocator.7", align 1
  %14 = alloca i32, align 4
  store %class.TensorProductPolynomials* %0, %class.TensorProductPolynomials** %3, align 8
  store %"class.std::vector.73"* %1, %"class.std::vector.73"** %4, align 8
  %15 = load %class.TensorProductPolynomials*, %class.TensorProductPolynomials** %3, align 8
  %16 = getelementptr inbounds %class.TensorProductPolynomials, %class.TensorProductPolynomials* %15, i32 0, i32 0
  %17 = load %"class.std::vector.73"*, %"class.std::vector.73"** %4, align 8
  %18 = call %"class.Polynomials::LagrangeEquidistant"* @_ZNKSt6vectorIN11Polynomials19LagrangeEquidistantESaIS1_EE5beginEv(%"class.std::vector.73"* %17)
  %19 = getelementptr inbounds %"class.__gnu_cxx::__normal_iterator.142", %"class.__gnu_cxx::__normal_iterator.142"* %5, i32 0, i32 0
  store %"class.Polynomials::LagrangeEquidistant"* %18, %"class.Polynomials::LagrangeEquidistant"** %19, align 8
  %20 = load %"class.std::vector.73"*, %"class.std::vector.73"** %4, align 8
  %21 = call %"class.Polynomials::LagrangeEquidistant"* @_ZNKSt6vectorIN11Polynomials19LagrangeEquidistantESaIS1_EE3endEv(%"class.std::vector.73"* %20)
  %22 = getelementptr inbounds %"class.__gnu_cxx::__normal_iterator.142", %"class.__gnu_cxx::__normal_iterator.142"* %6, i32 0, i32 0
  store %"class.Polynomials::LagrangeEquidistant"* %21, %"class.Polynomials::LagrangeEquidistant"** %22, align 8
  call void @_ZNSaIN11Polynomials10PolynomialIdEEEC2Ev(%"class.std::allocator"* %7) #2
  %23 = getelementptr inbounds %"class.__gnu_cxx::__normal_iterator.142", %"class.__gnu_cxx::__normal_iterator.142"* %5, i32 0, i32 0
  %24 = load %"class.Polynomials::LagrangeEquidistant"*, %"class.Polynomials::LagrangeEquidistant"** %23, align 8
  %25 = getelementptr inbounds %"class.__gnu_cxx::__normal_iterator.142", %"class.__gnu_cxx::__normal_iterator.142"* %6, i32 0, i32 0
  %26 = load %"class.Polynomials::LagrangeEquidistant"*, %"class.Polynomials::LagrangeEquidistant"** %25, align 8
  invoke void @_ZNSt6vectorIN11Polynomials10PolynomialIdEESaIS2_EEC2IN9__gnu_cxx17__normal_iteratorIPKNS0_19LagrangeEquidistantES_IS8_SaIS8_EEEEEET_SE_RKS3_(%"class.std::vector"* %16, %"class.Polynomials::LagrangeEquidistant"* %24, %"class.Polynomials::LagrangeEquidistant"* %26, %"class.std::allocator"* dereferenceable(1) %7)
          to label %27 unwind label %66

; <label>:27:                                     ; preds = %2
  call void @_ZNSaIN11Polynomials10PolynomialIdEEED2Ev(%"class.std::allocator"* %7) #2
  %28 = getelementptr inbounds %class.TensorProductPolynomials, %class.TensorProductPolynomials* %15, i32 0, i32 1
  %29 = load %"class.std::vector.73"*, %"class.std::vector.73"** %4, align 8
  %30 = invoke i64 @_ZNKSt6vectorIN11Polynomials19LagrangeEquidistantESaIS1_EE4sizeEv(%"class.std::vector.73"* %29)
          to label %31 unwind label %70

; <label>:31:                                     ; preds = %27
  %32 = trunc i64 %30 to i32
  %33 = invoke i32 @_ZN24TensorProductPolynomialsILi3EE12x_to_the_dimEj(i32 %32)
          to label %34 unwind label %70

; <label>:34:                                     ; preds = %31
  store i32 %33, i32* %28, align 8
  %35 = getelementptr inbounds %class.TensorProductPolynomials, %class.TensorProductPolynomials* %15, i32 0, i32 2
  %36 = getelementptr inbounds %class.TensorProductPolynomials, %class.TensorProductPolynomials* %15, i32 0, i32 1
  %37 = load i32, i32* %36, align 8
  %38 = zext i32 %37 to i64
  store i32 0, i32* %10, align 4
  call void @_ZNSaIjEC2Ev(%"class.std::allocator.7"* %11) #2
  invoke void @_ZNSt6vectorIjSaIjEEC2EmRKjRKS0_(%"class.std::vector.5"* %35, i64 %38, i32* dereferenceable(4) %10, %"class.std::allocator.7"* dereferenceable(1) %11)
          to label %39 unwind label %74

; <label>:39:                                     ; preds = %34
  call void @_ZNSaIjED2Ev(%"class.std::allocator.7"* %11) #2
  %40 = getelementptr inbounds %class.TensorProductPolynomials, %class.TensorProductPolynomials* %15, i32 0, i32 3
  %41 = getelementptr inbounds %class.TensorProductPolynomials, %class.TensorProductPolynomials* %15, i32 0, i32 1
  %42 = load i32, i32* %41, align 8
  %43 = zext i32 %42 to i64
  store i32 0, i32* %12, align 4
  call void @_ZNSaIjEC2Ev(%"class.std::allocator.7"* %13) #2
  invoke void @_ZNSt6vectorIjSaIjEEC2EmRKjRKS0_(%"class.std::vector.5"* %40, i64 %43, i32* dereferenceable(4) %12, %"class.std::allocator.7"* dereferenceable(1) %13)
          to label %44 unwind label %78

; <label>:44:                                     ; preds = %39
  call void @_ZNSaIjED2Ev(%"class.std::allocator.7"* %13) #2
  store i32 0, i32* %14, align 4
  br label %45

; <label>:45:                                     ; preds = %63, %44
  %46 = load i32, i32* %14, align 4
  %47 = getelementptr inbounds %class.TensorProductPolynomials, %class.TensorProductPolynomials* %15, i32 0, i32 1
  %48 = load i32, i32* %47, align 8
  %49 = icmp ult i32 %46, %48
  br i1 %49, label %50, label %86

; <label>:50:                                     ; preds = %45
  %51 = load i32, i32* %14, align 4
  %52 = getelementptr inbounds %class.TensorProductPolynomials, %class.TensorProductPolynomials* %15, i32 0, i32 2
  %53 = load i32, i32* %14, align 4
  %54 = zext i32 %53 to i64
  %55 = invoke dereferenceable(4) i32* @_ZNSt6vectorIjSaIjEEixEm(%"class.std::vector.5"* %52, i64 %54)
          to label %56 unwind label %82

; <label>:56:                                     ; preds = %50
  store i32 %51, i32* %55, align 4
  %57 = load i32, i32* %14, align 4
  %58 = getelementptr inbounds %class.TensorProductPolynomials, %class.TensorProductPolynomials* %15, i32 0, i32 3
  %59 = load i32, i32* %14, align 4
  %60 = zext i32 %59 to i64
  %61 = invoke dereferenceable(4) i32* @_ZNSt6vectorIjSaIjEEixEm(%"class.std::vector.5"* %58, i64 %60)
          to label %62 unwind label %82

; <label>:62:                                     ; preds = %56
  store i32 %57, i32* %61, align 4
  br label %63

; <label>:63:                                     ; preds = %62
  %64 = load i32, i32* %14, align 4
  %65 = add i32 %64, 1
  store i32 %65, i32* %14, align 4
  br label %45

; <label>:66:                                     ; preds = %2
  %67 = landingpad { i8*, i32 }
          cleanup
  %68 = extractvalue { i8*, i32 } %67, 0
  store i8* %68, i8** %8, align 8
  %69 = extractvalue { i8*, i32 } %67, 1
  store i32 %69, i32* %9, align 4
  call void @_ZNSaIN11Polynomials10PolynomialIdEEED2Ev(%"class.std::allocator"* %7) #2
  br label %92

; <label>:70:                                     ; preds = %31, %27
  %71 = landingpad { i8*, i32 }
          cleanup
  %72 = extractvalue { i8*, i32 } %71, 0
  store i8* %72, i8** %8, align 8
  %73 = extractvalue { i8*, i32 } %71, 1
  store i32 %73, i32* %9, align 4
  br label %90

; <label>:74:                                     ; preds = %34
  %75 = landingpad { i8*, i32 }
          cleanup
  %76 = extractvalue { i8*, i32 } %75, 0
  store i8* %76, i8** %8, align 8
  %77 = extractvalue { i8*, i32 } %75, 1
  store i32 %77, i32* %9, align 4
  call void @_ZNSaIjED2Ev(%"class.std::allocator.7"* %11) #2
  br label %90

; <label>:78:                                     ; preds = %39
  %79 = landingpad { i8*, i32 }
          cleanup
  %80 = extractvalue { i8*, i32 } %79, 0
  store i8* %80, i8** %8, align 8
  %81 = extractvalue { i8*, i32 } %79, 1
  store i32 %81, i32* %9, align 4
  call void @_ZNSaIjED2Ev(%"class.std::allocator.7"* %13) #2
  br label %88

; <label>:82:                                     ; preds = %56, %50
  %83 = landingpad { i8*, i32 }
          cleanup
  %84 = extractvalue { i8*, i32 } %83, 0
  store i8* %84, i8** %8, align 8
  %85 = extractvalue { i8*, i32 } %83, 1
  store i32 %85, i32* %9, align 4
  invoke void @_ZNSt6vectorIjSaIjEED2Ev(%"class.std::vector.5"* %40)
          to label %87 unwind label %97

; <label>:86:                                     ; preds = %45
  ret void

; <label>:87:                                     ; preds = %82
  br label %88

; <label>:88:                                     ; preds = %87, %78
  invoke void @_ZNSt6vectorIjSaIjEED2Ev(%"class.std::vector.5"* %35)
          to label %89 unwind label %97

; <label>:89:                                     ; preds = %88
  br label %90

; <label>:90:                                     ; preds = %89, %74, %70
  invoke void @_ZNSt6vectorIN11Polynomials10PolynomialIdEESaIS2_EED2Ev(%"class.std::vector"* %16)
          to label %91 unwind label %97

; <label>:91:                                     ; preds = %90
  br label %92

; <label>:92:                                     ; preds = %91, %66
  %93 = load i8*, i8** %8, align 8
  %94 = load i32, i32* %9, align 4
  %95 = insertvalue { i8*, i32 } undef, i8* %93, 0
  %96 = insertvalue { i8*, i32 } %95, i32 %94, 1
  resume { i8*, i32 } %96

; <label>:97:                                     ; preds = %90, %88, %82
  %98 = landingpad { i8*, i32 }
          catch i8* null
  %99 = extractvalue { i8*, i32 } %98, 0
  call void @__clang_call_terminate(i8* %99) #12
  unreachable
}

; Function Attrs: nobuiltin nounwind
declare void @_ZdlPv(i8*) #6

; Function Attrs: noinline uwtable
define linkonce_odr void @_ZNSt6vectorIjSaIjEE6resizeEmj(%"class.std::vector.5"*, i64, i32) #0 comdat align 2 {
  %4 = alloca %"class.std::vector.5"*, align 8
  %5 = alloca i64, align 8
  %6 = alloca i32, align 4
  %7 = alloca %"class.__gnu_cxx::__normal_iterator.143", align 8
  store %"class.std::vector.5"* %0, %"class.std::vector.5"** %4, align 8
  store i64 %1, i64* %5, align 8
  store i32 %2, i32* %6, align 4
  %8 = load %"class.std::vector.5"*, %"class.std::vector.5"** %4, align 8
  %9 = load i64, i64* %5, align 8
  %10 = call i64 @_ZNKSt6vectorIjSaIjEE4sizeEv(%"class.std::vector.5"* %8)
  %11 = icmp ugt i64 %9, %10
  br i1 %11, label %12, label %20

; <label>:12:                                     ; preds = %3
  %13 = call i32* @_ZNSt6vectorIjSaIjEE3endEv(%"class.std::vector.5"* %8)
  %14 = getelementptr inbounds %"class.__gnu_cxx::__normal_iterator.143", %"class.__gnu_cxx::__normal_iterator.143"* %7, i32 0, i32 0
  store i32* %13, i32** %14, align 8
  %15 = load i64, i64* %5, align 8
  %16 = call i64 @_ZNKSt6vectorIjSaIjEE4sizeEv(%"class.std::vector.5"* %8)
  %17 = sub i64 %15, %16
  %18 = getelementptr inbounds %"class.__gnu_cxx::__normal_iterator.143", %"class.__gnu_cxx::__normal_iterator.143"* %7, i32 0, i32 0
  %19 = load i32*, i32** %18, align 8
  call void @_ZNSt6vectorIjSaIjEE14_M_fill_insertEN9__gnu_cxx17__normal_iteratorIPjS1_EEmRKj(%"class.std::vector.5"* %8, i32* %19, i64 %17, i32* dereferenceable(4) %6)
  br label %33

; <label>:20:                                     ; preds = %3
  %21 = load i64, i64* %5, align 8
  %22 = call i64 @_ZNKSt6vectorIjSaIjEE4sizeEv(%"class.std::vector.5"* %8)
  %23 = icmp ult i64 %21, %22
  br i1 %23, label %24, label %32

; <label>:24:                                     ; preds = %20
  %25 = bitcast %"class.std::vector.5"* %8 to %"struct.std::_Vector_base.6"*
  %26 = getelementptr inbounds %"struct.std::_Vector_base.6", %"struct.std::_Vector_base.6"* %25, i32 0, i32 0
  %27 = bitcast %"struct.std::_Vector_base<unsigned int, std::allocator<unsigned int> >::_Vector_impl"* %26 to %"struct.std::_Vector_base<unsigned int, std::allocator<unsigned int> >::_Vector_impl_data"*
  %28 = getelementptr inbounds %"struct.std::_Vector_base<unsigned int, std::allocator<unsigned int> >::_Vector_impl_data", %"struct.std::_Vector_base<unsigned int, std::allocator<unsigned int> >::_Vector_impl_data"* %27, i32 0, i32 0
  %29 = load i32*, i32** %28, align 8
  %30 = load i64, i64* %5, align 8
  %31 = getelementptr inbounds i32, i32* %29, i64 %30
  call void @_ZNSt6vectorIjSaIjEE15_M_erase_at_endEPj(%"class.std::vector.5"* %8, i32* %31)
  br label %32

; <label>:32:                                     ; preds = %24, %20
  br label %33

; <label>:33:                                     ; preds = %32, %12
  ret void
}

declare void @_ZN7FETools37lexicographic_to_hierarchic_numberingILi3EEEvRK4FE_QIXT_EERSt6vectorIjSaIjEE(%class.FE_Q* dereferenceable(1264), %"class.std::vector.5"* dereferenceable(24)) #3

declare void @_ZN4FE_QILi3EEC1Ej(%class.FE_Q*, i32) unnamed_addr #3

; Function Attrs: noinline uwtable
define linkonce_odr void @_ZN4FE_QILi3EED2Ev(%class.FE_Q*) unnamed_addr #0 comdat align 2 personality i8* bitcast (i32 (...)* @__gxx_personality_v0 to i8*) {
  %2 = alloca %class.FE_Q*, align 8
  %3 = alloca i8*
  %4 = alloca i32
  store %class.FE_Q* %0, %class.FE_Q** %2, align 8
  %5 = load %class.FE_Q*, %class.FE_Q** %2, align 8
  %6 = bitcast %class.FE_Q* %5 to i32 (...)***
  store i32 (...)** bitcast (i8** getelementptr inbounds ({ [28 x i8*] }, { [28 x i8*] }* @_ZTV4FE_QILi3EE, i32 0, inrange i32 0, i32 2) to i32 (...)**), i32 (...)*** %6, align 8
  %7 = getelementptr inbounds %class.FE_Q, %class.FE_Q* %5, i32 0, i32 1
  invoke void @_ZNSt6vectorIjSaIjEED2Ev(%"class.std::vector.5"* %7)
          to label %8 unwind label %10

; <label>:8:                                      ; preds = %1
  %9 = bitcast %class.FE_Q* %5 to %class.FE_Poly*
  call void @_ZN7FE_PolyI24TensorProductPolynomialsILi3EELi3EED2Ev(%class.FE_Poly* %9)
  ret void

; <label>:10:                                     ; preds = %1
  %11 = landingpad { i8*, i32 }
          cleanup
  %12 = extractvalue { i8*, i32 } %11, 0
  store i8* %12, i8** %3, align 8
  %13 = extractvalue { i8*, i32 } %11, 1
  store i32 %13, i32* %4, align 4
  %14 = bitcast %class.FE_Q* %5 to %class.FE_Poly*
  invoke void @_ZN7FE_PolyI24TensorProductPolynomialsILi3EELi3EED2Ev(%class.FE_Poly* %14)
          to label %15 unwind label %21

; <label>:15:                                     ; preds = %10
  br label %16

; <label>:16:                                     ; preds = %15
  %17 = load i8*, i8** %3, align 8
  %18 = load i32, i32* %4, align 4
  %19 = insertvalue { i8*, i32 } undef, i8* %17, 0
  %20 = insertvalue { i8*, i32 } %19, i32 %18, 1
  resume { i8*, i32 } %20

; <label>:21:                                     ; preds = %10
  %22 = landingpad { i8*, i32 }
          catch i8* null
  %23 = extractvalue { i8*, i32 } %22, 0
  call void @__clang_call_terminate(i8* %23) #12
  unreachable
}

; Function Attrs: noinline uwtable
define weak_odr void @_ZNK8MappingQILi3EE26set_laplace_on_quad_vectorER5TableILi2EdE(%class.MappingQ*, %class.Table* dereferenceable(48)) #0 comdat align 2 {
  %3 = alloca %class.MappingQ*, align 8
  %4 = alloca %class.Table*, align 8
  %5 = alloca i32, align 4
  %6 = alloca i32, align 4
  %7 = alloca double*, align 8
  %8 = alloca i32, align 4
  %9 = alloca i32, align 4
  %10 = alloca %"class.internal::TableBaseAccessors::Accessor", align 8
  %11 = alloca i32, align 4
  store %class.MappingQ* %0, %class.MappingQ** %3, align 8
  store %class.Table* %1, %class.Table** %4, align 8
  %12 = load %class.MappingQ*, %class.MappingQ** %3, align 8
  %13 = getelementptr inbounds %class.MappingQ, %class.MappingQ* %12, i32 0, i32 3
  %14 = load i32, i32* %13, align 8
  %15 = sub i32 %14, 1
  %16 = getelementptr inbounds %class.MappingQ, %class.MappingQ* %12, i32 0, i32 3
  %17 = load i32, i32* %16, align 8
  %18 = sub i32 %17, 1
  %19 = mul i32 %15, %18
  store i32 %19, i32* %5, align 4
  %20 = getelementptr inbounds %class.MappingQ, %class.MappingQ* %12, i32 0, i32 3
  %21 = load i32, i32* %20, align 8
  %22 = sub i32 %21, 1
  %23 = mul i32 4, %22
  %24 = add i32 4, %23
  store i32 %24, i32* %6, align 4
  store double* null, double** %7, align 8
  %25 = getelementptr inbounds %class.MappingQ, %class.MappingQ* %12, i32 0, i32 3
  %26 = load i32, i32* %25, align 8
  switch i32 %26, label %30 [
    i32 2, label %27
    i32 3, label %28
    i32 4, label %29
  ]

; <label>:27:                                     ; preds = %2
  store double* getelementptr inbounds ([8 x double], [8 x double]* @_ZZNK8MappingQILi3EE26set_laplace_on_quad_vectorER5TableILi2EdEE5loqv2, i64 0, i64 0), double** %7, align 8
  br label %31

; <label>:28:                                     ; preds = %2
  store double* getelementptr inbounds ([48 x double], [48 x double]* @_ZZNK8MappingQILi3EE26set_laplace_on_quad_vectorER5TableILi2EdEE5loqv3, i64 0, i64 0), double** %7, align 8
  br label %31

; <label>:29:                                     ; preds = %2
  store double* getelementptr inbounds ([144 x double], [144 x double]* @_ZZNK8MappingQILi3EE26set_laplace_on_quad_vectorER5TableILi2EdEE5loqv4, i64 0, i64 0), double** %7, align 8
  br label %31

; <label>:30:                                     ; preds = %2
  br label %31

; <label>:31:                                     ; preds = %30, %29, %28, %27
  %32 = load double*, double** %7, align 8
  %33 = icmp ne double* %32, null
  br i1 %33, label %34, label %69

; <label>:34:                                     ; preds = %31
  %35 = load %class.Table*, %class.Table** %4, align 8
  %36 = load i32, i32* %5, align 4
  %37 = load i32, i32* %6, align 4
  call void @_ZN5TableILi2EdE6reinitEjj(%class.Table* %35, i32 %36, i32 %37)
  store i32 0, i32* %8, align 4
  br label %38

; <label>:38:                                     ; preds = %65, %34
  %39 = load i32, i32* %8, align 4
  %40 = load i32, i32* %5, align 4
  %41 = icmp ult i32 %39, %40
  br i1 %41, label %42, label %68

; <label>:42:                                     ; preds = %38
  store i32 0, i32* %9, align 4
  br label %43

; <label>:43:                                     ; preds = %61, %42
  %44 = load i32, i32* %9, align 4
  %45 = load i32, i32* %6, align 4
  %46 = icmp ult i32 %44, %45
  br i1 %46, label %47, label %64

; <label>:47:                                     ; preds = %43
  %48 = load double*, double** %7, align 8
  %49 = load i32, i32* %8, align 4
  %50 = load i32, i32* %6, align 4
  %51 = mul i32 %49, %50
  %52 = load i32, i32* %9, align 4
  %53 = add i32 %51, %52
  %54 = zext i32 %53 to i64
  %55 = getelementptr inbounds double, double* %48, i64 %54
  %56 = load double, double* %55, align 8
  %57 = load %class.Table*, %class.Table** %4, align 8
  %58 = load i32, i32* %8, align 4
  call void @_ZN5TableILi2EdEixEj(%"class.internal::TableBaseAccessors::Accessor"* sret %10, %class.Table* %57, i32 %58)
  %59 = load i32, i32* %9, align 4
  %60 = call dereferenceable(8) double* @_ZNK8internal18TableBaseAccessors8AccessorILi2EdLb0ELj1EEixEj(%"class.internal::TableBaseAccessors::Accessor"* %10, i32 %59)
  store double %56, double* %60, align 8
  br label %61

; <label>:61:                                     ; preds = %47
  %62 = load i32, i32* %9, align 4
  %63 = add i32 %62, 1
  store i32 %63, i32* %9, align 4
  br label %43

; <label>:64:                                     ; preds = %43
  br label %65

; <label>:65:                                     ; preds = %64
  %66 = load i32, i32* %8, align 4
  %67 = add i32 %66, 1
  store i32 %67, i32* %8, align 4
  br label %38

; <label>:68:                                     ; preds = %38
  br label %70

; <label>:69:                                     ; preds = %31
  br label %70

; <label>:70:                                     ; preds = %69, %68
  store i32 0, i32* %11, align 4
  br label %71

; <label>:71:                                     ; preds = %77, %70
  %72 = load i32, i32* %11, align 4
  %73 = load %class.Table*, %class.Table** %4, align 8
  %74 = call i32 @_ZNK5TableILi2EdE6n_rowsEv(%class.Table* %73)
  %75 = icmp ult i32 %72, %74
  br i1 %75, label %76, label %80

; <label>:76:                                     ; preds = %71
  br label %77

; <label>:77:                                     ; preds = %76
  %78 = load i32, i32* %11, align 4
  %79 = add i32 %78, 1
  store i32 %79, i32* %11, align 4
  br label %71

; <label>:80:                                     ; preds = %71
  ret void
}

; Function Attrs: noinline uwtable
define linkonce_odr void @_ZNSt6vectorIN11Polynomials19LagrangeEquidistantESaIS1_EED2Ev(%"class.std::vector.73"*) unnamed_addr #0 comdat align 2 personality i8* bitcast (i32 (...)* @__gxx_personality_v0 to i8*) {
  %2 = alloca %"class.std::vector.73"*, align 8
  %3 = alloca i8*
  %4 = alloca i32
  store %"class.std::vector.73"* %0, %"class.std::vector.73"** %2, align 8
  %5 = load %"class.std::vector.73"*, %"class.std::vector.73"** %2, align 8
  %6 = bitcast %"class.std::vector.73"* %5 to %"struct.std::_Vector_base.74"*
  %7 = getelementptr inbounds %"struct.std::_Vector_base.74", %"struct.std::_Vector_base.74"* %6, i32 0, i32 0
  %8 = bitcast %"struct.std::_Vector_base<Polynomials::LagrangeEquidistant, std::allocator<Polynomials::LagrangeEquidistant> >::_Vector_impl"* %7 to %"struct.std::_Vector_base<Polynomials::LagrangeEquidistant, std::allocator<Polynomials::LagrangeEquidistant> >::_Vector_impl_data"*
  %9 = getelementptr inbounds %"struct.std::_Vector_base<Polynomials::LagrangeEquidistant, std::allocator<Polynomials::LagrangeEquidistant> >::_Vector_impl_data", %"struct.std::_Vector_base<Polynomials::LagrangeEquidistant, std::allocator<Polynomials::LagrangeEquidistant> >::_Vector_impl_data"* %8, i32 0, i32 0
  %10 = load %"class.Polynomials::LagrangeEquidistant"*, %"class.Polynomials::LagrangeEquidistant"** %9, align 8
  %11 = bitcast %"class.std::vector.73"* %5 to %"struct.std::_Vector_base.74"*
  %12 = getelementptr inbounds %"struct.std::_Vector_base.74", %"struct.std::_Vector_base.74"* %11, i32 0, i32 0
  %13 = bitcast %"struct.std::_Vector_base<Polynomials::LagrangeEquidistant, std::allocator<Polynomials::LagrangeEquidistant> >::_Vector_impl"* %12 to %"struct.std::_Vector_base<Polynomials::LagrangeEquidistant, std::allocator<Polynomials::LagrangeEquidistant> >::_Vector_impl_data"*
  %14 = getelementptr inbounds %"struct.std::_Vector_base<Polynomials::LagrangeEquidistant, std::allocator<Polynomials::LagrangeEquidistant> >::_Vector_impl_data", %"struct.std::_Vector_base<Polynomials::LagrangeEquidistant, std::allocator<Polynomials::LagrangeEquidistant> >::_Vector_impl_data"* %13, i32 0, i32 1
  %15 = load %"class.Polynomials::LagrangeEquidistant"*, %"class.Polynomials::LagrangeEquidistant"** %14, align 8
  %16 = bitcast %"class.std::vector.73"* %5 to %"struct.std::_Vector_base.74"*
  %17 = invoke dereferenceable(1) %"class.std::allocator.75"* @_ZNSt12_Vector_baseIN11Polynomials19LagrangeEquidistantESaIS1_EE19_M_get_Tp_allocatorEv(%"struct.std::_Vector_base.74"* %16)
          to label %18 unwind label %21

; <label>:18:                                     ; preds = %1
  invoke void @_ZSt8_DestroyIPN11Polynomials19LagrangeEquidistantES1_EvT_S3_RSaIT0_E(%"class.Polynomials::LagrangeEquidistant"* %10, %"class.Polynomials::LagrangeEquidistant"* %15, %"class.std::allocator.75"* dereferenceable(1) %17)
          to label %19 unwind label %21

; <label>:19:                                     ; preds = %18
  %20 = bitcast %"class.std::vector.73"* %5 to %"struct.std::_Vector_base.74"*
  call void @_ZNSt12_Vector_baseIN11Polynomials19LagrangeEquidistantESaIS1_EED2Ev(%"struct.std::_Vector_base.74"* %20)
  ret void

; <label>:21:                                     ; preds = %18, %1
  %22 = landingpad { i8*, i32 }
          cleanup
  %23 = extractvalue { i8*, i32 } %22, 0
  store i8* %23, i8** %3, align 8
  %24 = extractvalue { i8*, i32 } %22, 1
  store i32 %24, i32* %4, align 4
  %25 = bitcast %"class.std::vector.73"* %5 to %"struct.std::_Vector_base.74"*
  invoke void @_ZNSt12_Vector_baseIN11Polynomials19LagrangeEquidistantESaIS1_EED2Ev(%"struct.std::_Vector_base.74"* %25)
          to label %26 unwind label %32

; <label>:26:                                     ; preds = %21
  br label %27

; <label>:27:                                     ; preds = %26
  %28 = load i8*, i8** %3, align 8
  %29 = load i32, i32* %4, align 4
  %30 = insertvalue { i8*, i32 } undef, i8* %28, 0
  %31 = insertvalue { i8*, i32 } %30, i32 %29, 1
  resume { i8*, i32 } %31

; <label>:32:                                     ; preds = %21
  %33 = landingpad { i8*, i32 }
          catch i8* null
  %34 = extractvalue { i8*, i32 } %33, 0
  call void @__clang_call_terminate(i8* %34) #12
  unreachable
}

; Function Attrs: noinline uwtable
define linkonce_odr void @_ZNSt6vectorIjSaIjEED2Ev(%"class.std::vector.5"*) unnamed_addr #0 comdat align 2 personality i8* bitcast (i32 (...)* @__gxx_personality_v0 to i8*) {
  %2 = alloca %"class.std::vector.5"*, align 8
  %3 = alloca i8*
  %4 = alloca i32
  store %"class.std::vector.5"* %0, %"class.std::vector.5"** %2, align 8
  %5 = load %"class.std::vector.5"*, %"class.std::vector.5"** %2, align 8
  %6 = bitcast %"class.std::vector.5"* %5 to %"struct.std::_Vector_base.6"*
  %7 = getelementptr inbounds %"struct.std::_Vector_base.6", %"struct.std::_Vector_base.6"* %6, i32 0, i32 0
  %8 = bitcast %"struct.std::_Vector_base<unsigned int, std::allocator<unsigned int> >::_Vector_impl"* %7 to %"struct.std::_Vector_base<unsigned int, std::allocator<unsigned int> >::_Vector_impl_data"*
  %9 = getelementptr inbounds %"struct.std::_Vector_base<unsigned int, std::allocator<unsigned int> >::_Vector_impl_data", %"struct.std::_Vector_base<unsigned int, std::allocator<unsigned int> >::_Vector_impl_data"* %8, i32 0, i32 0
  %10 = load i32*, i32** %9, align 8
  %11 = bitcast %"class.std::vector.5"* %5 to %"struct.std::_Vector_base.6"*
  %12 = getelementptr inbounds %"struct.std::_Vector_base.6", %"struct.std::_Vector_base.6"* %11, i32 0, i32 0
  %13 = bitcast %"struct.std::_Vector_base<unsigned int, std::allocator<unsigned int> >::_Vector_impl"* %12 to %"struct.std::_Vector_base<unsigned int, std::allocator<unsigned int> >::_Vector_impl_data"*
  %14 = getelementptr inbounds %"struct.std::_Vector_base<unsigned int, std::allocator<unsigned int> >::_Vector_impl_data", %"struct.std::_Vector_base<unsigned int, std::allocator<unsigned int> >::_Vector_impl_data"* %13, i32 0, i32 1
  %15 = load i32*, i32** %14, align 8
  %16 = bitcast %"class.std::vector.5"* %5 to %"struct.std::_Vector_base.6"*
  %17 = invoke dereferenceable(1) %"class.std::allocator.7"* @_ZNSt12_Vector_baseIjSaIjEE19_M_get_Tp_allocatorEv(%"struct.std::_Vector_base.6"* %16)
          to label %18 unwind label %21

; <label>:18:                                     ; preds = %1
  invoke void @_ZSt8_DestroyIPjjEvT_S1_RSaIT0_E(i32* %10, i32* %15, %"class.std::allocator.7"* dereferenceable(1) %17)
          to label %19 unwind label %21

; <label>:19:                                     ; preds = %18
  %20 = bitcast %"class.std::vector.5"* %5 to %"struct.std::_Vector_base.6"*
  call void @_ZNSt12_Vector_baseIjSaIjEED2Ev(%"struct.std::_Vector_base.6"* %20)
  ret void

; <label>:21:                                     ; preds = %18, %1
  %22 = landingpad { i8*, i32 }
          cleanup
  %23 = extractvalue { i8*, i32 } %22, 0
  store i8* %23, i8** %3, align 8
  %24 = extractvalue { i8*, i32 } %22, 1
  store i32 %24, i32* %4, align 4
  %25 = bitcast %"class.std::vector.5"* %5 to %"struct.std::_Vector_base.6"*
  invoke void @_ZNSt12_Vector_baseIjSaIjEED2Ev(%"struct.std::_Vector_base.6"* %25)
          to label %26 unwind label %32

; <label>:26:                                     ; preds = %21
  br label %27

; <label>:27:                                     ; preds = %26
  %28 = load i8*, i8** %3, align 8
  %29 = load i32, i32* %4, align 4
  %30 = insertvalue { i8*, i32 } undef, i8* %28, 0
  %31 = insertvalue { i8*, i32 } %30, i32 %29, 1
  resume { i8*, i32 } %31

; <label>:32:                                     ; preds = %21
  %33 = landingpad { i8*, i32 }
          catch i8* null
  %34 = extractvalue { i8*, i32 } %33, 0
  call void @__clang_call_terminate(i8* %34) #12
  unreachable
}

; Function Attrs: noinline uwtable
define linkonce_odr void @_ZN5TableILi2EdED2Ev(%class.Table*) unnamed_addr #0 comdat align 2 {
  %2 = alloca %class.Table*, align 8
  store %class.Table* %0, %class.Table** %2, align 8
  %3 = load %class.Table*, %class.Table** %2, align 8
  %4 = bitcast %class.Table* %3 to %class.TableBase*
  call void @_ZN9TableBaseILi2EdED2Ev(%class.TableBase* %4)
  ret void
}

; Function Attrs: noinline uwtable
define linkonce_odr void @_ZN9MappingQ1ILi3EED2Ev(%class.MappingQ1*) unnamed_addr #0 comdat align 2 {
  %2 = alloca %class.MappingQ1*, align 8
  store %class.MappingQ1* %0, %class.MappingQ1** %2, align 8
  %3 = load %class.MappingQ1*, %class.MappingQ1** %2, align 8
  %4 = bitcast %class.MappingQ1* %3 to %class.Mapping*
  call void @_ZN7MappingILi3EED2Ev(%class.Mapping* %4)
  ret void
}

; Function Attrs: noinline uwtable
define weak_odr void @_ZN8MappingQILi3EED2Ev(%class.MappingQ*) unnamed_addr #0 comdat($_ZN8MappingQILi3EED5Ev) align 2 personality i8* bitcast (i32 (...)* @__gxx_personality_v0 to i8*) {
  %2 = alloca %class.MappingQ*, align 8
  %3 = alloca i8*
  %4 = alloca i32
  store %class.MappingQ* %0, %class.MappingQ** %2, align 8
  %5 = load %class.MappingQ*, %class.MappingQ** %2, align 8
  %6 = bitcast %class.MappingQ* %5 to i32 (...)***
  store i32 (...)** bitcast (i8** getelementptr inbounds ({ [22 x i8*] }, { [22 x i8*] }* @_ZTV8MappingQILi3EE, i32 0, inrange i32 0, i32 2) to i32 (...)**), i32 (...)*** %6, align 8
  %7 = getelementptr inbounds %class.MappingQ, %class.MappingQ* %5, i32 0, i32 6
  %8 = load %class.TensorProductPolynomials*, %class.TensorProductPolynomials** %7, align 8
  %9 = icmp eq %class.TensorProductPolynomials* %8, null
  br i1 %9, label %13, label %10

; <label>:10:                                     ; preds = %1
  invoke void @_ZN24TensorProductPolynomialsILi3EED2Ev(%class.TensorProductPolynomials* %8)
          to label %11 unwind label %21

; <label>:11:                                     ; preds = %10
  %12 = bitcast %class.TensorProductPolynomials* %8 to i8*
  call void @_ZdlPv(i8* %12) #14
  br label %13

; <label>:13:                                     ; preds = %11, %1
  %14 = getelementptr inbounds %class.MappingQ, %class.MappingQ* %5, i32 0, i32 8
  invoke void @_ZNSt6vectorIjSaIjEED2Ev(%"class.std::vector.5"* %14)
          to label %15 unwind label %27

; <label>:15:                                     ; preds = %13
  %16 = getelementptr inbounds %class.MappingQ, %class.MappingQ* %5, i32 0, i32 2
  invoke void @_ZN5TableILi2EdED2Ev(%class.Table* %16)
          to label %17 unwind label %32

; <label>:17:                                     ; preds = %15
  %18 = getelementptr inbounds %class.MappingQ, %class.MappingQ* %5, i32 0, i32 1
  invoke void @_ZN5TableILi2EdED2Ev(%class.Table* %18)
          to label %19 unwind label %39

; <label>:19:                                     ; preds = %17
  %20 = bitcast %class.MappingQ* %5 to %class.MappingQ1*
  call void @_ZN9MappingQ1ILi3EED2Ev(%class.MappingQ1* %20)
  ret void

; <label>:21:                                     ; preds = %10
  %22 = landingpad { i8*, i32 }
          cleanup
  %23 = extractvalue { i8*, i32 } %22, 0
  store i8* %23, i8** %3, align 8
  %24 = extractvalue { i8*, i32 } %22, 1
  store i32 %24, i32* %4, align 4
  %25 = bitcast %class.TensorProductPolynomials* %8 to i8*
  call void @_ZdlPv(i8* %25) #14
  %26 = getelementptr inbounds %class.MappingQ, %class.MappingQ* %5, i32 0, i32 8
  invoke void @_ZNSt6vectorIjSaIjEED2Ev(%"class.std::vector.5"* %26)
          to label %31 unwind label %54

; <label>:27:                                     ; preds = %13
  %28 = landingpad { i8*, i32 }
          cleanup
  %29 = extractvalue { i8*, i32 } %28, 0
  store i8* %29, i8** %3, align 8
  %30 = extractvalue { i8*, i32 } %28, 1
  store i32 %30, i32* %4, align 4
  br label %36

; <label>:31:                                     ; preds = %21
  br label %36

; <label>:32:                                     ; preds = %15
  %33 = landingpad { i8*, i32 }
          cleanup
  %34 = extractvalue { i8*, i32 } %33, 0
  store i8* %34, i8** %3, align 8
  %35 = extractvalue { i8*, i32 } %33, 1
  store i32 %35, i32* %4, align 4
  br label %43

; <label>:36:                                     ; preds = %31, %27
  %37 = getelementptr inbounds %class.MappingQ, %class.MappingQ* %5, i32 0, i32 2
  invoke void @_ZN5TableILi2EdED2Ev(%class.Table* %37)
          to label %38 unwind label %54

; <label>:38:                                     ; preds = %36
  br label %43

; <label>:39:                                     ; preds = %17
  %40 = landingpad { i8*, i32 }
          cleanup
  %41 = extractvalue { i8*, i32 } %40, 0
  store i8* %41, i8** %3, align 8
  %42 = extractvalue { i8*, i32 } %40, 1
  store i32 %42, i32* %4, align 4
  br label %46

; <label>:43:                                     ; preds = %38, %32
  %44 = getelementptr inbounds %class.MappingQ, %class.MappingQ* %5, i32 0, i32 1
  invoke void @_ZN5TableILi2EdED2Ev(%class.Table* %44)
          to label %45 unwind label %54

; <label>:45:                                     ; preds = %43
  br label %46

; <label>:46:                                     ; preds = %45, %39
  %47 = bitcast %class.MappingQ* %5 to %class.MappingQ1*
  invoke void @_ZN9MappingQ1ILi3EED2Ev(%class.MappingQ1* %47)
          to label %48 unwind label %54

; <label>:48:                                     ; preds = %46
  br label %49

; <label>:49:                                     ; preds = %48
  %50 = load i8*, i8** %3, align 8
  %51 = load i32, i32* %4, align 4
  %52 = insertvalue { i8*, i32 } undef, i8* %50, 0
  %53 = insertvalue { i8*, i32 } %52, i32 %51, 1
  resume { i8*, i32 } %53

; <label>:54:                                     ; preds = %46, %43, %36, %21
  %55 = landingpad { i8*, i32 }
          catch i8* null
  %56 = extractvalue { i8*, i32 } %55, 0
  call void @__clang_call_terminate(i8* %56) #12
  unreachable
}

; Function Attrs: noinline uwtable
define linkonce_odr void @_ZN24TensorProductPolynomialsILi3EED2Ev(%class.TensorProductPolynomials*) unnamed_addr #0 comdat align 2 personality i8* bitcast (i32 (...)* @__gxx_personality_v0 to i8*) {
  %2 = alloca %class.TensorProductPolynomials*, align 8
  %3 = alloca i8*
  %4 = alloca i32
  store %class.TensorProductPolynomials* %0, %class.TensorProductPolynomials** %2, align 8
  %5 = load %class.TensorProductPolynomials*, %class.TensorProductPolynomials** %2, align 8
  %6 = getelementptr inbounds %class.TensorProductPolynomials, %class.TensorProductPolynomials* %5, i32 0, i32 3
  invoke void @_ZNSt6vectorIjSaIjEED2Ev(%"class.std::vector.5"* %6)
          to label %7 unwind label %11

; <label>:7:                                      ; preds = %1
  %8 = getelementptr inbounds %class.TensorProductPolynomials, %class.TensorProductPolynomials* %5, i32 0, i32 2
  invoke void @_ZNSt6vectorIjSaIjEED2Ev(%"class.std::vector.5"* %8)
          to label %9 unwind label %16

; <label>:9:                                      ; preds = %7
  %10 = getelementptr inbounds %class.TensorProductPolynomials, %class.TensorProductPolynomials* %5, i32 0, i32 0
  call void @_ZNSt6vectorIN11Polynomials10PolynomialIdEESaIS2_EED2Ev(%"class.std::vector"* %10)
  ret void

; <label>:11:                                     ; preds = %1
  %12 = landingpad { i8*, i32 }
          cleanup
  %13 = extractvalue { i8*, i32 } %12, 0
  store i8* %13, i8** %3, align 8
  %14 = extractvalue { i8*, i32 } %12, 1
  store i32 %14, i32* %4, align 4
  %15 = getelementptr inbounds %class.TensorProductPolynomials, %class.TensorProductPolynomials* %5, i32 0, i32 2
  invoke void @_ZNSt6vectorIjSaIjEED2Ev(%"class.std::vector.5"* %15)
          to label %20 unwind label %29

; <label>:16:                                     ; preds = %7
  %17 = landingpad { i8*, i32 }
          cleanup
  %18 = extractvalue { i8*, i32 } %17, 0
  store i8* %18, i8** %3, align 8
  %19 = extractvalue { i8*, i32 } %17, 1
  store i32 %19, i32* %4, align 4
  br label %21

; <label>:20:                                     ; preds = %11
  br label %21

; <label>:21:                                     ; preds = %20, %16
  %22 = getelementptr inbounds %class.TensorProductPolynomials, %class.TensorProductPolynomials* %5, i32 0, i32 0
  invoke void @_ZNSt6vectorIN11Polynomials10PolynomialIdEESaIS2_EED2Ev(%"class.std::vector"* %22)
          to label %23 unwind label %29

; <label>:23:                                     ; preds = %21
  br label %24

; <label>:24:                                     ; preds = %23
  %25 = load i8*, i8** %3, align 8
  %26 = load i32, i32* %4, align 4
  %27 = insertvalue { i8*, i32 } undef, i8* %25, 0
  %28 = insertvalue { i8*, i32 } %27, i32 %26, 1
  resume { i8*, i32 } %28

; <label>:29:                                     ; preds = %21, %11
  %30 = landingpad { i8*, i32 }
          catch i8* null
  %31 = extractvalue { i8*, i32 } %30, 0
  call void @__clang_call_terminate(i8* %31) #12
  unreachable
}

; Function Attrs: noinline uwtable
define weak_odr void @_ZN8MappingQILi3EED0Ev(%class.MappingQ*) unnamed_addr #0 comdat($_ZN8MappingQILi3EED5Ev) align 2 personality i8* bitcast (i32 (...)* @__gxx_personality_v0 to i8*) {
  %2 = alloca %class.MappingQ*, align 8
  %3 = alloca i8*
  %4 = alloca i32
  store %class.MappingQ* %0, %class.MappingQ** %2, align 8
  %5 = load %class.MappingQ*, %class.MappingQ** %2, align 8
  invoke void @_ZN8MappingQILi3EED1Ev(%class.MappingQ* %5)
          to label %6 unwind label %8

; <label>:6:                                      ; preds = %1
  %7 = bitcast %class.MappingQ* %5 to i8*
  call void @_ZdlPv(i8* %7) #14
  ret void

; <label>:8:                                      ; preds = %1
  %9 = landingpad { i8*, i32 }
          cleanup
  %10 = extractvalue { i8*, i32 } %9, 0
  store i8* %10, i8** %3, align 8
  %11 = extractvalue { i8*, i32 } %9, 1
  store i32 %11, i32* %4, align 4
  %12 = bitcast %class.MappingQ* %5 to i8*
  call void @_ZdlPv(i8* %12) #14
  br label %13

; <label>:13:                                     ; preds = %8
  %14 = load i8*, i8** %3, align 8
  %15 = load i32, i32* %4, align 4
  %16 = insertvalue { i8*, i32 } undef, i8* %14, 0
  %17 = insertvalue { i8*, i32 } %16, i32 %15, 1
  resume { i8*, i32 } %17
}

; Function Attrs: noinline uwtable
define weak_odr void @_ZNK8MappingQILi3EE27transform_unit_to_real_cellERK12TriaIteratorILi3E12CellAccessorILi3EEERK5PointILi3EE(%class.Point* noalias sret, %class.MappingQ*, %class.TriaIterator* dereferenceable(16), %class.Point* dereferenceable(24)) unnamed_addr #0 comdat align 2 personality i8* bitcast (i32 (...)* @__gxx_personality_v0 to i8*) {
  %5 = alloca %class.MappingQ*, align 8
  %6 = alloca %class.TriaIterator*, align 8
  %7 = alloca %class.Point*, align 8
  %8 = alloca %class.Quadrature, align 8
  %9 = alloca %"class.std::auto_ptr", align 8
  %10 = alloca i8*
  %11 = alloca i32
  %12 = alloca %"class.MappingQ1<3>::InternalData"*, align 8
  store %class.MappingQ* %1, %class.MappingQ** %5, align 8
  store %class.TriaIterator* %2, %class.TriaIterator** %6, align 8
  store %class.Point* %3, %class.Point** %7, align 8
  %13 = load %class.MappingQ*, %class.MappingQ** %5, align 8
  %14 = load %class.Point*, %class.Point** %7, align 8
  call void @_ZN10QuadratureILi3EEC1ERK5PointILi3EE(%class.Quadrature* %8, %class.Point* dereferenceable(24) %14)
  %15 = bitcast %class.MappingQ* %13 to %"class.Mapping<3>::InternalDataBase"* (%class.MappingQ*, i32, %class.Quadrature*)***
  %16 = load %"class.Mapping<3>::InternalDataBase"* (%class.MappingQ*, i32, %class.Quadrature*)**, %"class.Mapping<3>::InternalDataBase"* (%class.MappingQ*, i32, %class.Quadrature*)*** %15, align 8
  %17 = getelementptr inbounds %"class.Mapping<3>::InternalDataBase"* (%class.MappingQ*, i32, %class.Quadrature*)*, %"class.Mapping<3>::InternalDataBase"* (%class.MappingQ*, i32, %class.Quadrature*)** %16, i64 10
  %18 = load %"class.Mapping<3>::InternalDataBase"* (%class.MappingQ*, i32, %class.Quadrature*)*, %"class.Mapping<3>::InternalDataBase"* (%class.MappingQ*, i32, %class.Quadrature*)** %17, align 8
  %19 = invoke %"class.Mapping<3>::InternalDataBase"* %18(%class.MappingQ* %13, i32 2048, %class.Quadrature* dereferenceable(80) %8)
          to label %20 unwind label %26

; <label>:20:                                     ; preds = %4
  %21 = icmp eq %"class.Mapping<3>::InternalDataBase"* %19, null
  br i1 %21, label %30, label %22

; <label>:22:                                     ; preds = %20
  %23 = bitcast %"class.Mapping<3>::InternalDataBase"* %19 to i8*
  %24 = call i8* @__dynamic_cast(i8* %23, i8* bitcast ({ i8*, i8*, i8* }* @_ZTIN7MappingILi3EE16InternalDataBaseE to i8*), i8* bitcast ({ i8*, i8*, i8* }* @_ZTIN8MappingQILi3EE12InternalDataE to i8*), i64 0) #2
  %25 = bitcast i8* %24 to %"class.MappingQ<3>::InternalData"*
  br label %31

; <label>:26:                                     ; preds = %65, %4
  %27 = landingpad { i8*, i32 }
          cleanup
  %28 = extractvalue { i8*, i32 } %27, 0
  store i8* %28, i8** %10, align 8
  %29 = extractvalue { i8*, i32 } %27, 1
  store i32 %29, i32* %11, align 4
  br label %72

; <label>:30:                                     ; preds = %20
  br label %31

; <label>:31:                                     ; preds = %30, %22
  %32 = phi %"class.MappingQ<3>::InternalData"* [ %25, %22 ], [ null, %30 ]
  call void @_ZNSt8auto_ptrIN8MappingQILi3EE12InternalDataEEC2EPS2_(%"class.std::auto_ptr"* %9, %"class.MappingQ<3>::InternalData"* %32) #2
  %33 = load %class.TriaIterator*, %class.TriaIterator** %6, align 8
  %34 = bitcast %class.TriaIterator* %33 to %class.TriaRawIterator*
  %35 = invoke %class.CellAccessor* @_ZNK15TriaRawIteratorILi3E12CellAccessorILi3EEEptEv(%class.TriaRawIterator* %34)
          to label %36 unwind label %66

; <label>:36:                                     ; preds = %31
  %37 = invoke zeroext i1 @_ZNK12CellAccessorILi3EE18has_boundary_linesEv(%class.CellAccessor* %35)
          to label %38 unwind label %66

; <label>:38:                                     ; preds = %36
  %39 = xor i1 %37, true
  %40 = call %"class.MappingQ<3>::InternalData"* @_ZNKSt8auto_ptrIN8MappingQILi3EE12InternalDataEEptEv(%"class.std::auto_ptr"* %9) #2
  %41 = getelementptr inbounds %"class.MappingQ<3>::InternalData", %"class.MappingQ<3>::InternalData"* %40, i32 0, i32 2
  %42 = zext i1 %39 to i8
  store i8 %42, i8* %41, align 8
  %43 = call %"class.MappingQ<3>::InternalData"* @_ZNKSt8auto_ptrIN8MappingQILi3EE12InternalDataEEptEv(%"class.std::auto_ptr"* %9) #2
  %44 = getelementptr inbounds %"class.MappingQ<3>::InternalData", %"class.MappingQ<3>::InternalData"* %43, i32 0, i32 2
  %45 = load i8, i8* %44, align 8
  %46 = trunc i8 %45 to i1
  br i1 %46, label %47, label %50

; <label>:47:                                     ; preds = %38
  %48 = call %"class.MappingQ<3>::InternalData"* @_ZNKSt8auto_ptrIN8MappingQILi3EE12InternalDataEEptEv(%"class.std::auto_ptr"* %9) #2
  %49 = getelementptr inbounds %"class.MappingQ<3>::InternalData", %"class.MappingQ<3>::InternalData"* %48, i32 0, i32 3
  br label %53

; <label>:50:                                     ; preds = %38
  %51 = call dereferenceable(608) %"class.MappingQ<3>::InternalData"* @_ZNKSt8auto_ptrIN8MappingQILi3EE12InternalDataEEdeEv(%"class.std::auto_ptr"* %9) #2
  %52 = bitcast %"class.MappingQ<3>::InternalData"* %51 to %"class.MappingQ1<3>::InternalData"*
  br label %53

; <label>:53:                                     ; preds = %50, %47
  %54 = phi %"class.MappingQ1<3>::InternalData"* [ %49, %47 ], [ %52, %50 ]
  store %"class.MappingQ1<3>::InternalData"* %54, %"class.MappingQ1<3>::InternalData"** %12, align 8
  %55 = bitcast %class.MappingQ* %13 to void (%class.MappingQ*, %class.TriaIterator*, %"class.std::vector.58"*)***
  %56 = load void (%class.MappingQ*, %class.TriaIterator*, %"class.std::vector.58"*)**, void (%class.MappingQ*, %class.TriaIterator*, %"class.std::vector.58"*)*** %55, align 8
  %57 = getelementptr inbounds void (%class.MappingQ*, %class.TriaIterator*, %"class.std::vector.58"*)*, void (%class.MappingQ*, %class.TriaIterator*, %"class.std::vector.58"*)** %56, i64 17
  %58 = load void (%class.MappingQ*, %class.TriaIterator*, %"class.std::vector.58"*)*, void (%class.MappingQ*, %class.TriaIterator*, %"class.std::vector.58"*)** %57, align 8
  %59 = load %class.TriaIterator*, %class.TriaIterator** %6, align 8
  %60 = load %"class.MappingQ1<3>::InternalData"*, %"class.MappingQ1<3>::InternalData"** %12, align 8
  %61 = getelementptr inbounds %"class.MappingQ1<3>::InternalData", %"class.MappingQ1<3>::InternalData"* %60, i32 0, i32 7
  invoke void %58(%class.MappingQ* %13, %class.TriaIterator* dereferenceable(16) %59, %"class.std::vector.58"* dereferenceable(24) %61)
          to label %62 unwind label %66

; <label>:62:                                     ; preds = %53
  %63 = bitcast %class.MappingQ* %13 to %class.MappingQ1*
  %64 = load %"class.MappingQ1<3>::InternalData"*, %"class.MappingQ1<3>::InternalData"** %12, align 8
  invoke void @_ZNK9MappingQ1ILi3EE36transform_unit_to_real_cell_internalERKNS0_12InternalDataE(%class.Point* sret %0, %class.MappingQ1* %63, %"class.MappingQ1<3>::InternalData"* dereferenceable(288) %64)
          to label %65 unwind label %66

; <label>:65:                                     ; preds = %62
  invoke void @_ZNSt8auto_ptrIN8MappingQILi3EE12InternalDataEED2Ev(%"class.std::auto_ptr"* %9)
          to label %70 unwind label %26

; <label>:66:                                     ; preds = %62, %53, %36, %31
  %67 = landingpad { i8*, i32 }
          cleanup
  %68 = extractvalue { i8*, i32 } %67, 0
  store i8* %68, i8** %10, align 8
  %69 = extractvalue { i8*, i32 } %67, 1
  store i32 %69, i32* %11, align 4
  invoke void @_ZNSt8auto_ptrIN8MappingQILi3EE12InternalDataEED2Ev(%"class.std::auto_ptr"* %9)
          to label %71 unwind label %79

; <label>:70:                                     ; preds = %65
  call void @_ZN10QuadratureILi3EED1Ev(%class.Quadrature* %8)
  ret void

; <label>:71:                                     ; preds = %66
  br label %72

; <label>:72:                                     ; preds = %71, %26
  invoke void @_ZN10QuadratureILi3EED1Ev(%class.Quadrature* %8)
          to label %73 unwind label %79

; <label>:73:                                     ; preds = %72
  br label %74

; <label>:74:                                     ; preds = %73
  %75 = load i8*, i8** %10, align 8
  %76 = load i32, i32* %11, align 4
  %77 = insertvalue { i8*, i32 } undef, i8* %75, 0
  %78 = insertvalue { i8*, i32 } %77, i32 %76, 1
  resume { i8*, i32 } %78

; <label>:79:                                     ; preds = %72, %66
  %80 = landingpad { i8*, i32 }
          catch i8* null
  %81 = extractvalue { i8*, i32 } %80, 0
  call void @__clang_call_terminate(i8* %81) #12
  unreachable
}

declare void @_ZN10QuadratureILi3EEC1ERK5PointILi3EE(%class.Quadrature*, %class.Point* dereferenceable(24)) unnamed_addr #3

; Function Attrs: nounwind readonly
declare i8* @__dynamic_cast(i8*, i8*, i8*, i64) #7

; Function Attrs: noinline nounwind uwtable
define linkonce_odr void @_ZNSt8auto_ptrIN8MappingQILi3EE12InternalDataEEC2EPS2_(%"class.std::auto_ptr"*, %"class.MappingQ<3>::InternalData"*) unnamed_addr #1 comdat align 2 {
  %3 = alloca %"class.std::auto_ptr"*, align 8
  %4 = alloca %"class.MappingQ<3>::InternalData"*, align 8
  store %"class.std::auto_ptr"* %0, %"class.std::auto_ptr"** %3, align 8
  store %"class.MappingQ<3>::InternalData"* %1, %"class.MappingQ<3>::InternalData"** %4, align 8
  %5 = load %"class.std::auto_ptr"*, %"class.std::auto_ptr"** %3, align 8
  %6 = getelementptr inbounds %"class.std::auto_ptr", %"class.std::auto_ptr"* %5, i32 0, i32 0
  %7 = load %"class.MappingQ<3>::InternalData"*, %"class.MappingQ<3>::InternalData"** %4, align 8
  store %"class.MappingQ<3>::InternalData"* %7, %"class.MappingQ<3>::InternalData"** %6, align 8
  ret void
}

declare zeroext i1 @_ZNK12CellAccessorILi3EE18has_boundary_linesEv(%class.CellAccessor*) #3

; Function Attrs: noinline nounwind uwtable
define linkonce_odr %"class.MappingQ<3>::InternalData"* @_ZNKSt8auto_ptrIN8MappingQILi3EE12InternalDataEEptEv(%"class.std::auto_ptr"*) #1 comdat align 2 {
  %2 = alloca %"class.std::auto_ptr"*, align 8
  store %"class.std::auto_ptr"* %0, %"class.std::auto_ptr"** %2, align 8
  %3 = load %"class.std::auto_ptr"*, %"class.std::auto_ptr"** %2, align 8
  %4 = getelementptr inbounds %"class.std::auto_ptr", %"class.std::auto_ptr"* %3, i32 0, i32 0
  %5 = load %"class.MappingQ<3>::InternalData"*, %"class.MappingQ<3>::InternalData"** %4, align 8
  ret %"class.MappingQ<3>::InternalData"* %5
}

; Function Attrs: noinline nounwind uwtable
define linkonce_odr dereferenceable(608) %"class.MappingQ<3>::InternalData"* @_ZNKSt8auto_ptrIN8MappingQILi3EE12InternalDataEEdeEv(%"class.std::auto_ptr"*) #1 comdat align 2 {
  %2 = alloca %"class.std::auto_ptr"*, align 8
  store %"class.std::auto_ptr"* %0, %"class.std::auto_ptr"** %2, align 8
  %3 = load %"class.std::auto_ptr"*, %"class.std::auto_ptr"** %2, align 8
  %4 = getelementptr inbounds %"class.std::auto_ptr", %"class.std::auto_ptr"* %3, i32 0, i32 0
  %5 = load %"class.MappingQ<3>::InternalData"*, %"class.MappingQ<3>::InternalData"** %4, align 8
  ret %"class.MappingQ<3>::InternalData"* %5
}

declare void @_ZNK9MappingQ1ILi3EE36transform_unit_to_real_cell_internalERKNS0_12InternalDataE(%class.Point* sret, %class.MappingQ1*, %"class.MappingQ1<3>::InternalData"* dereferenceable(288)) #3

; Function Attrs: noinline uwtable
define linkonce_odr void @_ZNSt8auto_ptrIN8MappingQILi3EE12InternalDataEED2Ev(%"class.std::auto_ptr"*) unnamed_addr #0 comdat align 2 {
  %2 = alloca %"class.std::auto_ptr"*, align 8
  store %"class.std::auto_ptr"* %0, %"class.std::auto_ptr"** %2, align 8
  %3 = load %"class.std::auto_ptr"*, %"class.std::auto_ptr"** %2, align 8
  %4 = getelementptr inbounds %"class.std::auto_ptr", %"class.std::auto_ptr"* %3, i32 0, i32 0
  %5 = load %"class.MappingQ<3>::InternalData"*, %"class.MappingQ<3>::InternalData"** %4, align 8
  %6 = icmp eq %"class.MappingQ<3>::InternalData"* %5, null
  br i1 %6, label %12, label %7

; <label>:7:                                      ; preds = %1
  %8 = bitcast %"class.MappingQ<3>::InternalData"* %5 to void (%"class.MappingQ<3>::InternalData"*)***
  %9 = load void (%"class.MappingQ<3>::InternalData"*)**, void (%"class.MappingQ<3>::InternalData"*)*** %8, align 8
  %10 = getelementptr inbounds void (%"class.MappingQ<3>::InternalData"*)*, void (%"class.MappingQ<3>::InternalData"*)** %9, i64 1
  %11 = load void (%"class.MappingQ<3>::InternalData"*)*, void (%"class.MappingQ<3>::InternalData"*)** %10, align 8
  call void %11(%"class.MappingQ<3>::InternalData"* %5)
  br label %12

; <label>:12:                                     ; preds = %7, %1
  ret void
}

declare void @_ZN10QuadratureILi3EED1Ev(%class.Quadrature*) unnamed_addr #3

; Function Attrs: noinline uwtable
define weak_odr void @_ZNK8MappingQILi3EE27transform_real_to_unit_cellERK12TriaIteratorILi3E12CellAccessorILi3EEERK5PointILi3EE(%class.Point* noalias sret, %class.MappingQ*, %class.TriaIterator* dereferenceable(16), %class.Point* dereferenceable(24)) unnamed_addr #0 comdat align 2 personality i8* bitcast (i32 (...)* @__gxx_personality_v0 to i8*) {
  %5 = alloca %class.MappingQ*, align 8
  %6 = alloca %class.TriaIterator*, align 8
  %7 = alloca %class.Point*, align 8
  %8 = alloca %class.Quadrature, align 8
  %9 = alloca %"class.std::auto_ptr", align 8
  %10 = alloca i8*
  %11 = alloca i32
  %12 = alloca %"class.std::vector.58"*, align 8
  store %class.MappingQ* %1, %class.MappingQ** %5, align 8
  store %class.TriaIterator* %2, %class.TriaIterator** %6, align 8
  store %class.Point* %3, %class.Point** %7, align 8
  %13 = load %class.MappingQ*, %class.MappingQ** %5, align 8
  %14 = bitcast %class.MappingQ* %13 to %class.MappingQ1*
  %15 = load %class.TriaIterator*, %class.TriaIterator** %6, align 8
  %16 = load %class.Point*, %class.Point** %7, align 8
  call void @_ZNK9MappingQ1ILi3EE27transform_real_to_unit_cellERK12TriaIteratorILi3E12CellAccessorILi3EEERK5PointILi3EE(%class.Point* sret %0, %class.MappingQ1* %14, %class.TriaIterator* dereferenceable(16) %15, %class.Point* dereferenceable(24) %16)
  %17 = load %class.TriaIterator*, %class.TriaIterator** %6, align 8
  %18 = bitcast %class.TriaIterator* %17 to %class.TriaRawIterator*
  %19 = call %class.CellAccessor* @_ZNK15TriaRawIteratorILi3E12CellAccessorILi3EEEptEv(%class.TriaRawIterator* %18)
  %20 = call zeroext i1 @_ZNK12CellAccessorILi3EE18has_boundary_linesEv(%class.CellAccessor* %19)
  br i1 %20, label %21, label %68

; <label>:21:                                     ; preds = %4
  call void @_ZN10QuadratureILi3EEC1ERK5PointILi3EE(%class.Quadrature* %8, %class.Point* dereferenceable(24) %0)
  %22 = bitcast %class.MappingQ* %13 to %"class.Mapping<3>::InternalDataBase"* (%class.MappingQ*, i32, %class.Quadrature*)***
  %23 = load %"class.Mapping<3>::InternalDataBase"* (%class.MappingQ*, i32, %class.Quadrature*)**, %"class.Mapping<3>::InternalDataBase"* (%class.MappingQ*, i32, %class.Quadrature*)*** %22, align 8
  %24 = getelementptr inbounds %"class.Mapping<3>::InternalDataBase"* (%class.MappingQ*, i32, %class.Quadrature*)*, %"class.Mapping<3>::InternalDataBase"* (%class.MappingQ*, i32, %class.Quadrature*)** %23, i64 10
  %25 = load %"class.Mapping<3>::InternalDataBase"* (%class.MappingQ*, i32, %class.Quadrature*)*, %"class.Mapping<3>::InternalDataBase"* (%class.MappingQ*, i32, %class.Quadrature*)** %24, align 8
  %26 = invoke i32 @_Zor11UpdateFlagsS_(i32 2048, i32 4096)
          to label %27 unwind label %35

; <label>:27:                                     ; preds = %21
  %28 = invoke %"class.Mapping<3>::InternalDataBase"* %25(%class.MappingQ* %13, i32 %26, %class.Quadrature* dereferenceable(80) %8)
          to label %29 unwind label %35

; <label>:29:                                     ; preds = %27
  %30 = icmp eq %"class.Mapping<3>::InternalDataBase"* %28, null
  br i1 %30, label %39, label %31

; <label>:31:                                     ; preds = %29
  %32 = bitcast %"class.Mapping<3>::InternalDataBase"* %28 to i8*
  %33 = call i8* @__dynamic_cast(i8* %32, i8* bitcast ({ i8*, i8*, i8* }* @_ZTIN7MappingILi3EE16InternalDataBaseE to i8*), i8* bitcast ({ i8*, i8*, i8* }* @_ZTIN8MappingQILi3EE12InternalDataE to i8*), i64 0) #2
  %34 = bitcast i8* %33 to %"class.MappingQ<3>::InternalData"*
  br label %40

; <label>:35:                                     ; preds = %59, %27, %21
  %36 = landingpad { i8*, i32 }
          cleanup
  %37 = extractvalue { i8*, i32 } %36, 0
  store i8* %37, i8** %10, align 8
  %38 = extractvalue { i8*, i32 } %36, 1
  store i32 %38, i32* %11, align 4
  br label %66

; <label>:39:                                     ; preds = %29
  br label %40

; <label>:40:                                     ; preds = %39, %31
  %41 = phi %"class.MappingQ<3>::InternalData"* [ %34, %31 ], [ null, %39 ]
  call void @_ZNSt8auto_ptrIN8MappingQILi3EE12InternalDataEEC2EPS2_(%"class.std::auto_ptr"* %9, %"class.MappingQ<3>::InternalData"* %41) #2
  %42 = call %"class.MappingQ<3>::InternalData"* @_ZNKSt8auto_ptrIN8MappingQILi3EE12InternalDataEEptEv(%"class.std::auto_ptr"* %9) #2
  %43 = getelementptr inbounds %"class.MappingQ<3>::InternalData", %"class.MappingQ<3>::InternalData"* %42, i32 0, i32 2
  store i8 0, i8* %43, align 8
  %44 = call %"class.MappingQ<3>::InternalData"* @_ZNKSt8auto_ptrIN8MappingQILi3EE12InternalDataEEptEv(%"class.std::auto_ptr"* %9) #2
  %45 = bitcast %"class.MappingQ<3>::InternalData"* %44 to %"class.MappingQ1<3>::InternalData"*
  %46 = getelementptr inbounds %"class.MappingQ1<3>::InternalData", %"class.MappingQ1<3>::InternalData"* %45, i32 0, i32 7
  store %"class.std::vector.58"* %46, %"class.std::vector.58"** %12, align 8
  %47 = bitcast %class.MappingQ* %13 to void (%class.MappingQ*, %class.TriaIterator*, %"class.std::vector.58"*)***
  %48 = load void (%class.MappingQ*, %class.TriaIterator*, %"class.std::vector.58"*)**, void (%class.MappingQ*, %class.TriaIterator*, %"class.std::vector.58"*)*** %47, align 8
  %49 = getelementptr inbounds void (%class.MappingQ*, %class.TriaIterator*, %"class.std::vector.58"*)*, void (%class.MappingQ*, %class.TriaIterator*, %"class.std::vector.58"*)** %48, i64 17
  %50 = load void (%class.MappingQ*, %class.TriaIterator*, %"class.std::vector.58"*)*, void (%class.MappingQ*, %class.TriaIterator*, %"class.std::vector.58"*)** %49, align 8
  %51 = load %class.TriaIterator*, %class.TriaIterator** %6, align 8
  %52 = load %"class.std::vector.58"*, %"class.std::vector.58"** %12, align 8
  invoke void %50(%class.MappingQ* %13, %class.TriaIterator* dereferenceable(16) %51, %"class.std::vector.58"* dereferenceable(24) %52)
          to label %53 unwind label %61

; <label>:53:                                     ; preds = %40
  %54 = bitcast %class.MappingQ* %13 to %class.MappingQ1*
  %55 = load %class.TriaIterator*, %class.TriaIterator** %6, align 8
  %56 = load %class.Point*, %class.Point** %7, align 8
  %57 = call dereferenceable(608) %"class.MappingQ<3>::InternalData"* @_ZNKSt8auto_ptrIN8MappingQILi3EE12InternalDataEEdeEv(%"class.std::auto_ptr"* %9) #2
  %58 = bitcast %"class.MappingQ<3>::InternalData"* %57 to %"class.MappingQ1<3>::InternalData"*
  invoke void @_ZNK9MappingQ1ILi3EE36transform_real_to_unit_cell_internalERK12TriaIteratorILi3E12CellAccessorILi3EEERK5PointILi3EERNS0_12InternalDataERS8_(%class.MappingQ1* %54, %class.TriaIterator* dereferenceable(16) %55, %class.Point* dereferenceable(24) %56, %"class.MappingQ1<3>::InternalData"* dereferenceable(288) %58, %class.Point* dereferenceable(24) %0)
          to label %59 unwind label %61

; <label>:59:                                     ; preds = %53
  invoke void @_ZNSt8auto_ptrIN8MappingQILi3EE12InternalDataEED2Ev(%"class.std::auto_ptr"* %9)
          to label %60 unwind label %35

; <label>:60:                                     ; preds = %59
  call void @_ZN10QuadratureILi3EED1Ev(%class.Quadrature* %8)
  br label %68

; <label>:61:                                     ; preds = %53, %40
  %62 = landingpad { i8*, i32 }
          cleanup
  %63 = extractvalue { i8*, i32 } %62, 0
  store i8* %63, i8** %10, align 8
  %64 = extractvalue { i8*, i32 } %62, 1
  store i32 %64, i32* %11, align 4
  invoke void @_ZNSt8auto_ptrIN8MappingQILi3EE12InternalDataEED2Ev(%"class.std::auto_ptr"* %9)
          to label %65 unwind label %74

; <label>:65:                                     ; preds = %61
  br label %66

; <label>:66:                                     ; preds = %65, %35
  invoke void @_ZN10QuadratureILi3EED1Ev(%class.Quadrature* %8)
          to label %67 unwind label %74

; <label>:67:                                     ; preds = %66
  br label %69

; <label>:68:                                     ; preds = %60, %4
  ret void

; <label>:69:                                     ; preds = %67
  %70 = load i8*, i8** %10, align 8
  %71 = load i32, i32* %11, align 4
  %72 = insertvalue { i8*, i32 } undef, i8* %70, 0
  %73 = insertvalue { i8*, i32 } %72, i32 %71, 1
  resume { i8*, i32 } %73

; <label>:74:                                     ; preds = %66, %61
  %75 = landingpad { i8*, i32 }
          catch i8* null
  %76 = extractvalue { i8*, i32 } %75, 0
  call void @__clang_call_terminate(i8* %76) #12
  unreachable
}

declare void @_ZNK9MappingQ1ILi3EE27transform_real_to_unit_cellERK12TriaIteratorILi3E12CellAccessorILi3EEERK5PointILi3EE(%class.Point* sret, %class.MappingQ1*, %class.TriaIterator* dereferenceable(16), %class.Point* dereferenceable(24)) unnamed_addr #3

; Function Attrs: noinline nounwind uwtable
define linkonce_odr i32 @_Zor11UpdateFlagsS_(i32, i32) #1 comdat {
  %3 = alloca i32, align 4
  %4 = alloca i32, align 4
  store i32 %0, i32* %3, align 4
  store i32 %1, i32* %4, align 4
  %5 = load i32, i32* %3, align 4
  %6 = load i32, i32* %4, align 4
  %7 = or i32 %5, %6
  ret i32 %7
}

declare void @_ZNK9MappingQ1ILi3EE36transform_real_to_unit_cell_internalERK12TriaIteratorILi3E12CellAccessorILi3EEERK5PointILi3EERNS0_12InternalDataERS8_(%class.MappingQ1*, %class.TriaIterator* dereferenceable(16), %class.Point* dereferenceable(24), %"class.MappingQ1<3>::InternalData"* dereferenceable(288), %class.Point* dereferenceable(24)) #3

; Function Attrs: noinline uwtable
define weak_odr void @_ZNK8MappingQILi3EE19transform_covariantEP6TensorILi1ELi3EES3_PKS2_RKN7MappingILi3EE16InternalDataBaseE(%class.MappingQ*, %class.Tensor*, %class.Tensor*, %class.Tensor*, %"class.Mapping<3>::InternalDataBase"* dereferenceable(40)) unnamed_addr #0 comdat align 2 {
  %6 = alloca %class.MappingQ*, align 8
  %7 = alloca %class.Tensor*, align 8
  %8 = alloca %class.Tensor*, align 8
  %9 = alloca %class.Tensor*, align 8
  %10 = alloca %"class.Mapping<3>::InternalDataBase"*, align 8
  %11 = alloca %"class.MappingQ1<3>::InternalData"*, align 8
  %12 = alloca %"class.__gnu_cxx::__normal_iterator.134", align 8
  %13 = alloca %"class.__gnu_cxx::__normal_iterator.134", align 8
  %14 = alloca %"class.MappingQ<3>::InternalData"*, align 8
  %15 = alloca %"class.__gnu_cxx::__normal_iterator.134", align 8
  %16 = alloca %"class.__gnu_cxx::__normal_iterator.134", align 8
  %17 = alloca %"class.__gnu_cxx::__normal_iterator.134", align 8
  store %class.MappingQ* %0, %class.MappingQ** %6, align 8
  store %class.Tensor* %1, %class.Tensor** %7, align 8
  store %class.Tensor* %2, %class.Tensor** %8, align 8
  store %class.Tensor* %3, %class.Tensor** %9, align 8
  store %"class.Mapping<3>::InternalDataBase"* %4, %"class.Mapping<3>::InternalDataBase"** %10, align 8
  %18 = load %class.MappingQ*, %class.MappingQ** %6, align 8
  %19 = load %"class.Mapping<3>::InternalDataBase"*, %"class.Mapping<3>::InternalDataBase"** %10, align 8
  %20 = icmp eq %"class.Mapping<3>::InternalDataBase"* %19, null
  br i1 %20, label %25, label %21

; <label>:21:                                     ; preds = %5
  %22 = bitcast %"class.Mapping<3>::InternalDataBase"* %19 to i8*
  %23 = call i8* @__dynamic_cast(i8* %22, i8* bitcast ({ i8*, i8*, i8* }* @_ZTIN7MappingILi3EE16InternalDataBaseE to i8*), i8* bitcast ({ i8*, i8*, i8* }* @_ZTIN9MappingQ1ILi3EE12InternalDataE to i8*), i64 0) #2
  %24 = bitcast i8* %23 to %"class.MappingQ1<3>::InternalData"*
  br label %26

; <label>:25:                                     ; preds = %5
  br label %26

; <label>:26:                                     ; preds = %25, %21
  %27 = phi %"class.MappingQ1<3>::InternalData"* [ %24, %21 ], [ null, %25 ]
  store %"class.MappingQ1<3>::InternalData"* %27, %"class.MappingQ1<3>::InternalData"** %11, align 8
  call void @_ZN9__gnu_cxx17__normal_iteratorIPK6TensorILi2ELi3EESt6vectorIS2_SaIS2_EEEC2Ev(%"class.__gnu_cxx::__normal_iterator.134"* %12)
  %28 = load %"class.MappingQ1<3>::InternalData"*, %"class.MappingQ1<3>::InternalData"** %11, align 8
  %29 = getelementptr inbounds %"class.MappingQ1<3>::InternalData", %"class.MappingQ1<3>::InternalData"* %28, i32 0, i32 9
  %30 = load i8, i8* %29, align 8
  %31 = trunc i8 %30 to i1
  br i1 %31, label %32, label %39

; <label>:32:                                     ; preds = %26
  %33 = load %"class.MappingQ1<3>::InternalData"*, %"class.MappingQ1<3>::InternalData"** %11, align 8
  %34 = getelementptr inbounds %"class.MappingQ1<3>::InternalData", %"class.MappingQ1<3>::InternalData"* %33, i32 0, i32 3
  %35 = call %class.Tensor.113* @_ZNKSt6vectorI6TensorILi2ELi3EESaIS1_EE5beginEv(%"class.std::vector.108"* %34)
  %36 = getelementptr inbounds %"class.__gnu_cxx::__normal_iterator.134", %"class.__gnu_cxx::__normal_iterator.134"* %13, i32 0, i32 0
  store %class.Tensor.113* %35, %class.Tensor.113** %36, align 8
  %37 = bitcast %"class.__gnu_cxx::__normal_iterator.134"* %12 to i8*
  %38 = bitcast %"class.__gnu_cxx::__normal_iterator.134"* %13 to i8*
  call void @llvm.memcpy.p0i8.p0i8.i64(i8* %37, i8* %38, i64 8, i32 8, i1 false)
  br label %70

; <label>:39:                                     ; preds = %26
  %40 = load %"class.MappingQ1<3>::InternalData"*, %"class.MappingQ1<3>::InternalData"** %11, align 8
  %41 = icmp eq %"class.MappingQ1<3>::InternalData"* %40, null
  br i1 %41, label %46, label %42

; <label>:42:                                     ; preds = %39
  %43 = bitcast %"class.MappingQ1<3>::InternalData"* %40 to i8*
  %44 = call i8* @__dynamic_cast(i8* %43, i8* bitcast ({ i8*, i8*, i8* }* @_ZTIN9MappingQ1ILi3EE12InternalDataE to i8*), i8* bitcast ({ i8*, i8*, i8* }* @_ZTIN8MappingQILi3EE12InternalDataE to i8*), i64 0) #2
  %45 = bitcast i8* %44 to %"class.MappingQ<3>::InternalData"*
  br label %47

; <label>:46:                                     ; preds = %39
  br label %47

; <label>:47:                                     ; preds = %46, %42
  %48 = phi %"class.MappingQ<3>::InternalData"* [ %45, %42 ], [ null, %46 ]
  store %"class.MappingQ<3>::InternalData"* %48, %"class.MappingQ<3>::InternalData"** %14, align 8
  %49 = load %"class.MappingQ<3>::InternalData"*, %"class.MappingQ<3>::InternalData"** %14, align 8
  %50 = getelementptr inbounds %"class.MappingQ<3>::InternalData", %"class.MappingQ<3>::InternalData"* %49, i32 0, i32 2
  %51 = load i8, i8* %50, align 8
  %52 = trunc i8 %51 to i1
  br i1 %52, label %53, label %61

; <label>:53:                                     ; preds = %47
  %54 = load %"class.MappingQ<3>::InternalData"*, %"class.MappingQ<3>::InternalData"** %14, align 8
  %55 = getelementptr inbounds %"class.MappingQ<3>::InternalData", %"class.MappingQ<3>::InternalData"* %54, i32 0, i32 3
  %56 = getelementptr inbounds %"class.MappingQ1<3>::InternalData", %"class.MappingQ1<3>::InternalData"* %55, i32 0, i32 3
  %57 = call %class.Tensor.113* @_ZNKSt6vectorI6TensorILi2ELi3EESaIS1_EE5beginEv(%"class.std::vector.108"* %56)
  %58 = getelementptr inbounds %"class.__gnu_cxx::__normal_iterator.134", %"class.__gnu_cxx::__normal_iterator.134"* %15, i32 0, i32 0
  store %class.Tensor.113* %57, %class.Tensor.113** %58, align 8
  %59 = bitcast %"class.__gnu_cxx::__normal_iterator.134"* %12 to i8*
  %60 = bitcast %"class.__gnu_cxx::__normal_iterator.134"* %15 to i8*
  call void @llvm.memcpy.p0i8.p0i8.i64(i8* %59, i8* %60, i64 8, i32 8, i1 false)
  br label %69

; <label>:61:                                     ; preds = %47
  %62 = load %"class.MappingQ<3>::InternalData"*, %"class.MappingQ<3>::InternalData"** %14, align 8
  %63 = bitcast %"class.MappingQ<3>::InternalData"* %62 to %"class.MappingQ1<3>::InternalData"*
  %64 = getelementptr inbounds %"class.MappingQ1<3>::InternalData", %"class.MappingQ1<3>::InternalData"* %63, i32 0, i32 3
  %65 = call %class.Tensor.113* @_ZNKSt6vectorI6TensorILi2ELi3EESaIS1_EE5beginEv(%"class.std::vector.108"* %64)
  %66 = getelementptr inbounds %"class.__gnu_cxx::__normal_iterator.134", %"class.__gnu_cxx::__normal_iterator.134"* %16, i32 0, i32 0
  store %class.Tensor.113* %65, %class.Tensor.113** %66, align 8
  %67 = bitcast %"class.__gnu_cxx::__normal_iterator.134"* %12 to i8*
  %68 = bitcast %"class.__gnu_cxx::__normal_iterator.134"* %16 to i8*
  call void @llvm.memcpy.p0i8.p0i8.i64(i8* %67, i8* %68, i64 8, i32 8, i1 false)
  br label %69

; <label>:69:                                     ; preds = %61, %53
  br label %70

; <label>:70:                                     ; preds = %69, %32
  br label %71

; <label>:71:                                     ; preds = %75, %70
  %72 = load %class.Tensor*, %class.Tensor** %7, align 8
  %73 = load %class.Tensor*, %class.Tensor** %8, align 8
  %74 = icmp ne %class.Tensor* %72, %73
  br i1 %74, label %75, label %83

; <label>:75:                                     ; preds = %71
  %76 = load %class.Tensor*, %class.Tensor** %7, align 8
  %77 = getelementptr inbounds %class.Tensor, %class.Tensor* %76, i32 1
  store %class.Tensor* %77, %class.Tensor** %7, align 8
  %78 = load %class.Tensor*, %class.Tensor** %9, align 8
  %79 = getelementptr inbounds %class.Tensor, %class.Tensor* %78, i32 1
  store %class.Tensor* %79, %class.Tensor** %9, align 8
  %80 = call %class.Tensor.113* @_ZN9__gnu_cxx17__normal_iteratorIPK6TensorILi2ELi3EESt6vectorIS2_SaIS2_EEEppEi(%"class.__gnu_cxx::__normal_iterator.134"* %12, i32 0)
  %81 = getelementptr inbounds %"class.__gnu_cxx::__normal_iterator.134", %"class.__gnu_cxx::__normal_iterator.134"* %17, i32 0, i32 0
  store %class.Tensor.113* %80, %class.Tensor.113** %81, align 8
  %82 = call dereferenceable(72) %class.Tensor.113* @_ZNK9__gnu_cxx17__normal_iteratorIPK6TensorILi2ELi3EESt6vectorIS2_SaIS2_EEEdeEv(%"class.__gnu_cxx::__normal_iterator.134"* %17)
  call void @_Z8contractILi3EEvR6TensorILi1EXT_EERKS1_RKS0_ILi2EXT_EE(%class.Tensor* dereferenceable(24) %76, %class.Tensor* dereferenceable(24) %78, %class.Tensor.113* dereferenceable(72) %82)
  br label %71

; <label>:83:                                     ; preds = %71
  ret void
}

; Function Attrs: noinline nounwind uwtable
define linkonce_odr void @_ZN9__gnu_cxx17__normal_iteratorIPK6TensorILi2ELi3EESt6vectorIS2_SaIS2_EEEC2Ev(%"class.__gnu_cxx::__normal_iterator.134"*) unnamed_addr #1 comdat align 2 {
  %2 = alloca %"class.__gnu_cxx::__normal_iterator.134"*, align 8
  store %"class.__gnu_cxx::__normal_iterator.134"* %0, %"class.__gnu_cxx::__normal_iterator.134"** %2, align 8
  %3 = load %"class.__gnu_cxx::__normal_iterator.134"*, %"class.__gnu_cxx::__normal_iterator.134"** %2, align 8
  %4 = getelementptr inbounds %"class.__gnu_cxx::__normal_iterator.134", %"class.__gnu_cxx::__normal_iterator.134"* %3, i32 0, i32 0
  store %class.Tensor.113* null, %class.Tensor.113** %4, align 8
  ret void
}

; Function Attrs: noinline uwtable
define linkonce_odr %class.Tensor.113* @_ZNKSt6vectorI6TensorILi2ELi3EESaIS1_EE5beginEv(%"class.std::vector.108"*) #0 comdat align 2 {
  %2 = alloca %"class.__gnu_cxx::__normal_iterator.134", align 8
  %3 = alloca %"class.std::vector.108"*, align 8
  %4 = alloca %class.Tensor.113*, align 8
  store %"class.std::vector.108"* %0, %"class.std::vector.108"** %3, align 8
  %5 = load %"class.std::vector.108"*, %"class.std::vector.108"** %3, align 8
  %6 = bitcast %"class.std::vector.108"* %5 to %"struct.std::_Vector_base.109"*
  %7 = getelementptr inbounds %"struct.std::_Vector_base.109", %"struct.std::_Vector_base.109"* %6, i32 0, i32 0
  %8 = bitcast %"struct.std::_Vector_base<Tensor<2, 3>, std::allocator<Tensor<2, 3> > >::_Vector_impl"* %7 to %"struct.std::_Vector_base<Tensor<2, 3>, std::allocator<Tensor<2, 3> > >::_Vector_impl_data"*
  %9 = getelementptr inbounds %"struct.std::_Vector_base<Tensor<2, 3>, std::allocator<Tensor<2, 3> > >::_Vector_impl_data", %"struct.std::_Vector_base<Tensor<2, 3>, std::allocator<Tensor<2, 3> > >::_Vector_impl_data"* %8, i32 0, i32 0
  %10 = load %class.Tensor.113*, %class.Tensor.113** %9, align 8
  store %class.Tensor.113* %10, %class.Tensor.113** %4, align 8
  call void @_ZN9__gnu_cxx17__normal_iteratorIPK6TensorILi2ELi3EESt6vectorIS2_SaIS2_EEEC2ERKS4_(%"class.__gnu_cxx::__normal_iterator.134"* %2, %class.Tensor.113** dereferenceable(8) %4)
  %11 = getelementptr inbounds %"class.__gnu_cxx::__normal_iterator.134", %"class.__gnu_cxx::__normal_iterator.134"* %2, i32 0, i32 0
  %12 = load %class.Tensor.113*, %class.Tensor.113** %11, align 8
  ret %class.Tensor.113* %12
}

; Function Attrs: argmemonly nounwind
declare void @llvm.memcpy.p0i8.p0i8.i64(i8* nocapture writeonly, i8* nocapture readonly, i64, i32, i1) #8

; Function Attrs: noinline uwtable
define linkonce_odr void @_Z8contractILi3EEvR6TensorILi1EXT_EERKS1_RKS0_ILi2EXT_EE(%class.Tensor* dereferenceable(24), %class.Tensor* dereferenceable(24), %class.Tensor.113* dereferenceable(72)) #0 comdat {
  %4 = alloca %class.Tensor*, align 8
  %5 = alloca %class.Tensor*, align 8
  %6 = alloca %class.Tensor.113*, align 8
  %7 = alloca i32, align 4
  %8 = alloca i32, align 4
  store %class.Tensor* %0, %class.Tensor** %4, align 8
  store %class.Tensor* %1, %class.Tensor** %5, align 8
  store %class.Tensor.113* %2, %class.Tensor.113** %6, align 8
  %9 = load %class.Tensor*, %class.Tensor** %4, align 8
  call void @_ZN6TensorILi1ELi3EE5clearEv(%class.Tensor* %9)
  store i32 0, i32* %7, align 4
  br label %10

; <label>:10:                                     ; preds = %36, %3
  %11 = load i32, i32* %7, align 4
  %12 = icmp ult i32 %11, 3
  br i1 %12, label %13, label %39

; <label>:13:                                     ; preds = %10
  store i32 0, i32* %8, align 4
  br label %14

; <label>:14:                                     ; preds = %32, %13
  %15 = load i32, i32* %8, align 4
  %16 = icmp ult i32 %15, 3
  br i1 %16, label %17, label %35

; <label>:17:                                     ; preds = %14
  %18 = load %class.Tensor*, %class.Tensor** %5, align 8
  %19 = load i32, i32* %8, align 4
  %20 = call double @_ZNK6TensorILi1ELi3EEixEj(%class.Tensor* %18, i32 %19)
  %21 = load %class.Tensor.113*, %class.Tensor.113** %6, align 8
  %22 = load i32, i32* %8, align 4
  %23 = call dereferenceable(24) %class.Tensor* @_ZNK6TensorILi2ELi3EEixEj(%class.Tensor.113* %21, i32 %22)
  %24 = load i32, i32* %7, align 4
  %25 = call double @_ZNK6TensorILi1ELi3EEixEj(%class.Tensor* %23, i32 %24)
  %26 = fmul double %20, %25
  %27 = load %class.Tensor*, %class.Tensor** %4, align 8
  %28 = load i32, i32* %7, align 4
  %29 = call dereferenceable(8) double* @_ZN6TensorILi1ELi3EEixEj(%class.Tensor* %27, i32 %28)
  %30 = load double, double* %29, align 8
  %31 = fadd double %30, %26
  store double %31, double* %29, align 8
  br label %32

; <label>:32:                                     ; preds = %17
  %33 = load i32, i32* %8, align 4
  %34 = add i32 %33, 1
  store i32 %34, i32* %8, align 4
  br label %14

; <label>:35:                                     ; preds = %14
  br label %36

; <label>:36:                                     ; preds = %35
  %37 = load i32, i32* %7, align 4
  %38 = add i32 %37, 1
  store i32 %38, i32* %7, align 4
  br label %10

; <label>:39:                                     ; preds = %10
  ret void
}

; Function Attrs: noinline uwtable
define linkonce_odr %class.Tensor.113* @_ZN9__gnu_cxx17__normal_iteratorIPK6TensorILi2ELi3EESt6vectorIS2_SaIS2_EEEppEi(%"class.__gnu_cxx::__normal_iterator.134"*, i32) #0 comdat align 2 {
  %3 = alloca %"class.__gnu_cxx::__normal_iterator.134", align 8
  %4 = alloca %"class.__gnu_cxx::__normal_iterator.134"*, align 8
  %5 = alloca i32, align 4
  %6 = alloca %class.Tensor.113*, align 8
  store %"class.__gnu_cxx::__normal_iterator.134"* %0, %"class.__gnu_cxx::__normal_iterator.134"** %4, align 8
  store i32 %1, i32* %5, align 4
  %7 = load %"class.__gnu_cxx::__normal_iterator.134"*, %"class.__gnu_cxx::__normal_iterator.134"** %4, align 8
  %8 = getelementptr inbounds %"class.__gnu_cxx::__normal_iterator.134", %"class.__gnu_cxx::__normal_iterator.134"* %7, i32 0, i32 0
  %9 = load %class.Tensor.113*, %class.Tensor.113** %8, align 8
  %10 = getelementptr inbounds %class.Tensor.113, %class.Tensor.113* %9, i32 1
  store %class.Tensor.113* %10, %class.Tensor.113** %8, align 8
  store %class.Tensor.113* %9, %class.Tensor.113** %6, align 8
  call void @_ZN9__gnu_cxx17__normal_iteratorIPK6TensorILi2ELi3EESt6vectorIS2_SaIS2_EEEC2ERKS4_(%"class.__gnu_cxx::__normal_iterator.134"* %3, %class.Tensor.113** dereferenceable(8) %6)
  %11 = getelementptr inbounds %"class.__gnu_cxx::__normal_iterator.134", %"class.__gnu_cxx::__normal_iterator.134"* %3, i32 0, i32 0
  %12 = load %class.Tensor.113*, %class.Tensor.113** %11, align 8
  ret %class.Tensor.113* %12
}

; Function Attrs: noinline nounwind uwtable
define linkonce_odr dereferenceable(72) %class.Tensor.113* @_ZNK9__gnu_cxx17__normal_iteratorIPK6TensorILi2ELi3EESt6vectorIS2_SaIS2_EEEdeEv(%"class.__gnu_cxx::__normal_iterator.134"*) #1 comdat align 2 {
  %2 = alloca %"class.__gnu_cxx::__normal_iterator.134"*, align 8
  store %"class.__gnu_cxx::__normal_iterator.134"* %0, %"class.__gnu_cxx::__normal_iterator.134"** %2, align 8
  %3 = load %"class.__gnu_cxx::__normal_iterator.134"*, %"class.__gnu_cxx::__normal_iterator.134"** %2, align 8
  %4 = getelementptr inbounds %"class.__gnu_cxx::__normal_iterator.134", %"class.__gnu_cxx::__normal_iterator.134"* %3, i32 0, i32 0
  %5 = load %class.Tensor.113*, %class.Tensor.113** %4, align 8
  ret %class.Tensor.113* %5
}

; Function Attrs: noinline uwtable
define weak_odr void @_ZNK8MappingQILi3EE19transform_covariantEP6TensorILi2ELi3EES3_PKS2_RKN7MappingILi3EE16InternalDataBaseE(%class.MappingQ*, %class.Tensor.113*, %class.Tensor.113*, %class.Tensor.113*, %"class.Mapping<3>::InternalDataBase"* dereferenceable(40)) unnamed_addr #0 comdat align 2 {
  %6 = alloca %class.MappingQ*, align 8
  %7 = alloca %class.Tensor.113*, align 8
  %8 = alloca %class.Tensor.113*, align 8
  %9 = alloca %class.Tensor.113*, align 8
  %10 = alloca %"class.Mapping<3>::InternalDataBase"*, align 8
  %11 = alloca %"class.MappingQ1<3>::InternalData"*, align 8
  %12 = alloca %"class.__gnu_cxx::__normal_iterator.134", align 8
  %13 = alloca %"class.__gnu_cxx::__normal_iterator.134", align 8
  %14 = alloca %"class.MappingQ<3>::InternalData"*, align 8
  %15 = alloca %"class.__gnu_cxx::__normal_iterator.134", align 8
  %16 = alloca %"class.__gnu_cxx::__normal_iterator.134", align 8
  %17 = alloca %"class.__gnu_cxx::__normal_iterator.134", align 8
  store %class.MappingQ* %0, %class.MappingQ** %6, align 8
  store %class.Tensor.113* %1, %class.Tensor.113** %7, align 8
  store %class.Tensor.113* %2, %class.Tensor.113** %8, align 8
  store %class.Tensor.113* %3, %class.Tensor.113** %9, align 8
  store %"class.Mapping<3>::InternalDataBase"* %4, %"class.Mapping<3>::InternalDataBase"** %10, align 8
  %18 = load %class.MappingQ*, %class.MappingQ** %6, align 8
  %19 = load %"class.Mapping<3>::InternalDataBase"*, %"class.Mapping<3>::InternalDataBase"** %10, align 8
  %20 = icmp eq %"class.Mapping<3>::InternalDataBase"* %19, null
  br i1 %20, label %25, label %21

; <label>:21:                                     ; preds = %5
  %22 = bitcast %"class.Mapping<3>::InternalDataBase"* %19 to i8*
  %23 = call i8* @__dynamic_cast(i8* %22, i8* bitcast ({ i8*, i8*, i8* }* @_ZTIN7MappingILi3EE16InternalDataBaseE to i8*), i8* bitcast ({ i8*, i8*, i8* }* @_ZTIN9MappingQ1ILi3EE12InternalDataE to i8*), i64 0) #2
  %24 = bitcast i8* %23 to %"class.MappingQ1<3>::InternalData"*
  br label %26

; <label>:25:                                     ; preds = %5
  br label %26

; <label>:26:                                     ; preds = %25, %21
  %27 = phi %"class.MappingQ1<3>::InternalData"* [ %24, %21 ], [ null, %25 ]
  store %"class.MappingQ1<3>::InternalData"* %27, %"class.MappingQ1<3>::InternalData"** %11, align 8
  call void @_ZN9__gnu_cxx17__normal_iteratorIPK6TensorILi2ELi3EESt6vectorIS2_SaIS2_EEEC2Ev(%"class.__gnu_cxx::__normal_iterator.134"* %12)
  %28 = load %"class.MappingQ1<3>::InternalData"*, %"class.MappingQ1<3>::InternalData"** %11, align 8
  %29 = getelementptr inbounds %"class.MappingQ1<3>::InternalData", %"class.MappingQ1<3>::InternalData"* %28, i32 0, i32 9
  %30 = load i8, i8* %29, align 8
  %31 = trunc i8 %30 to i1
  br i1 %31, label %32, label %39

; <label>:32:                                     ; preds = %26
  %33 = load %"class.MappingQ1<3>::InternalData"*, %"class.MappingQ1<3>::InternalData"** %11, align 8
  %34 = getelementptr inbounds %"class.MappingQ1<3>::InternalData", %"class.MappingQ1<3>::InternalData"* %33, i32 0, i32 3
  %35 = call %class.Tensor.113* @_ZNKSt6vectorI6TensorILi2ELi3EESaIS1_EE5beginEv(%"class.std::vector.108"* %34)
  %36 = getelementptr inbounds %"class.__gnu_cxx::__normal_iterator.134", %"class.__gnu_cxx::__normal_iterator.134"* %13, i32 0, i32 0
  store %class.Tensor.113* %35, %class.Tensor.113** %36, align 8
  %37 = bitcast %"class.__gnu_cxx::__normal_iterator.134"* %12 to i8*
  %38 = bitcast %"class.__gnu_cxx::__normal_iterator.134"* %13 to i8*
  call void @llvm.memcpy.p0i8.p0i8.i64(i8* %37, i8* %38, i64 8, i32 8, i1 false)
  br label %70

; <label>:39:                                     ; preds = %26
  %40 = load %"class.MappingQ1<3>::InternalData"*, %"class.MappingQ1<3>::InternalData"** %11, align 8
  %41 = icmp eq %"class.MappingQ1<3>::InternalData"* %40, null
  br i1 %41, label %46, label %42

; <label>:42:                                     ; preds = %39
  %43 = bitcast %"class.MappingQ1<3>::InternalData"* %40 to i8*
  %44 = call i8* @__dynamic_cast(i8* %43, i8* bitcast ({ i8*, i8*, i8* }* @_ZTIN9MappingQ1ILi3EE12InternalDataE to i8*), i8* bitcast ({ i8*, i8*, i8* }* @_ZTIN8MappingQILi3EE12InternalDataE to i8*), i64 0) #2
  %45 = bitcast i8* %44 to %"class.MappingQ<3>::InternalData"*
  br label %47

; <label>:46:                                     ; preds = %39
  br label %47

; <label>:47:                                     ; preds = %46, %42
  %48 = phi %"class.MappingQ<3>::InternalData"* [ %45, %42 ], [ null, %46 ]
  store %"class.MappingQ<3>::InternalData"* %48, %"class.MappingQ<3>::InternalData"** %14, align 8
  %49 = load %"class.MappingQ<3>::InternalData"*, %"class.MappingQ<3>::InternalData"** %14, align 8
  %50 = getelementptr inbounds %"class.MappingQ<3>::InternalData", %"class.MappingQ<3>::InternalData"* %49, i32 0, i32 2
  %51 = load i8, i8* %50, align 8
  %52 = trunc i8 %51 to i1
  br i1 %52, label %53, label %61

; <label>:53:                                     ; preds = %47
  %54 = load %"class.MappingQ<3>::InternalData"*, %"class.MappingQ<3>::InternalData"** %14, align 8
  %55 = getelementptr inbounds %"class.MappingQ<3>::InternalData", %"class.MappingQ<3>::InternalData"* %54, i32 0, i32 3
  %56 = getelementptr inbounds %"class.MappingQ1<3>::InternalData", %"class.MappingQ1<3>::InternalData"* %55, i32 0, i32 3
  %57 = call %class.Tensor.113* @_ZNKSt6vectorI6TensorILi2ELi3EESaIS1_EE5beginEv(%"class.std::vector.108"* %56)
  %58 = getelementptr inbounds %"class.__gnu_cxx::__normal_iterator.134", %"class.__gnu_cxx::__normal_iterator.134"* %15, i32 0, i32 0
  store %class.Tensor.113* %57, %class.Tensor.113** %58, align 8
  %59 = bitcast %"class.__gnu_cxx::__normal_iterator.134"* %12 to i8*
  %60 = bitcast %"class.__gnu_cxx::__normal_iterator.134"* %15 to i8*
  call void @llvm.memcpy.p0i8.p0i8.i64(i8* %59, i8* %60, i64 8, i32 8, i1 false)
  br label %69

; <label>:61:                                     ; preds = %47
  %62 = load %"class.MappingQ<3>::InternalData"*, %"class.MappingQ<3>::InternalData"** %14, align 8
  %63 = bitcast %"class.MappingQ<3>::InternalData"* %62 to %"class.MappingQ1<3>::InternalData"*
  %64 = getelementptr inbounds %"class.MappingQ1<3>::InternalData", %"class.MappingQ1<3>::InternalData"* %63, i32 0, i32 3
  %65 = call %class.Tensor.113* @_ZNKSt6vectorI6TensorILi2ELi3EESaIS1_EE5beginEv(%"class.std::vector.108"* %64)
  %66 = getelementptr inbounds %"class.__gnu_cxx::__normal_iterator.134", %"class.__gnu_cxx::__normal_iterator.134"* %16, i32 0, i32 0
  store %class.Tensor.113* %65, %class.Tensor.113** %66, align 8
  %67 = bitcast %"class.__gnu_cxx::__normal_iterator.134"* %12 to i8*
  %68 = bitcast %"class.__gnu_cxx::__normal_iterator.134"* %16 to i8*
  call void @llvm.memcpy.p0i8.p0i8.i64(i8* %67, i8* %68, i64 8, i32 8, i1 false)
  br label %69

; <label>:69:                                     ; preds = %61, %53
  br label %70

; <label>:70:                                     ; preds = %69, %32
  br label %71

; <label>:71:                                     ; preds = %75, %70
  %72 = load %class.Tensor.113*, %class.Tensor.113** %7, align 8
  %73 = load %class.Tensor.113*, %class.Tensor.113** %8, align 8
  %74 = icmp ne %class.Tensor.113* %72, %73
  br i1 %74, label %75, label %83

; <label>:75:                                     ; preds = %71
  %76 = load %class.Tensor.113*, %class.Tensor.113** %7, align 8
  %77 = getelementptr inbounds %class.Tensor.113, %class.Tensor.113* %76, i32 1
  store %class.Tensor.113* %77, %class.Tensor.113** %7, align 8
  %78 = load %class.Tensor.113*, %class.Tensor.113** %9, align 8
  %79 = getelementptr inbounds %class.Tensor.113, %class.Tensor.113* %78, i32 1
  store %class.Tensor.113* %79, %class.Tensor.113** %9, align 8
  %80 = call %class.Tensor.113* @_ZN9__gnu_cxx17__normal_iteratorIPK6TensorILi2ELi3EESt6vectorIS2_SaIS2_EEEppEi(%"class.__gnu_cxx::__normal_iterator.134"* %12, i32 0)
  %81 = getelementptr inbounds %"class.__gnu_cxx::__normal_iterator.134", %"class.__gnu_cxx::__normal_iterator.134"* %17, i32 0, i32 0
  store %class.Tensor.113* %80, %class.Tensor.113** %81, align 8
  %82 = call dereferenceable(72) %class.Tensor.113* @_ZNK9__gnu_cxx17__normal_iteratorIPK6TensorILi2ELi3EESt6vectorIS2_SaIS2_EEEdeEv(%"class.__gnu_cxx::__normal_iterator.134"* %17)
  call void @_Z8contractILi3EEvR6TensorILi2EXT_EERKS1_S4_(%class.Tensor.113* dereferenceable(72) %76, %class.Tensor.113* dereferenceable(72) %78, %class.Tensor.113* dereferenceable(72) %82)
  br label %71

; <label>:83:                                     ; preds = %71
  ret void
}

; Function Attrs: noinline uwtable
define linkonce_odr void @_Z8contractILi3EEvR6TensorILi2EXT_EERKS1_S4_(%class.Tensor.113* dereferenceable(72), %class.Tensor.113* dereferenceable(72), %class.Tensor.113* dereferenceable(72)) #0 comdat {
  %4 = alloca %class.Tensor.113*, align 8
  %5 = alloca %class.Tensor.113*, align 8
  %6 = alloca %class.Tensor.113*, align 8
  %7 = alloca i32, align 4
  %8 = alloca i32, align 4
  %9 = alloca i32, align 4
  store %class.Tensor.113* %0, %class.Tensor.113** %4, align 8
  store %class.Tensor.113* %1, %class.Tensor.113** %5, align 8
  store %class.Tensor.113* %2, %class.Tensor.113** %6, align 8
  %10 = load %class.Tensor.113*, %class.Tensor.113** %4, align 8
  call void @_ZN6TensorILi2ELi3EE5clearEv(%class.Tensor.113* %10)
  store i32 0, i32* %7, align 4
  br label %11

; <label>:11:                                     ; preds = %49, %3
  %12 = load i32, i32* %7, align 4
  %13 = icmp ult i32 %12, 3
  br i1 %13, label %14, label %52

; <label>:14:                                     ; preds = %11
  store i32 0, i32* %8, align 4
  br label %15

; <label>:15:                                     ; preds = %45, %14
  %16 = load i32, i32* %8, align 4
  %17 = icmp ult i32 %16, 3
  br i1 %17, label %18, label %48

; <label>:18:                                     ; preds = %15
  store i32 0, i32* %9, align 4
  br label %19

; <label>:19:                                     ; preds = %41, %18
  %20 = load i32, i32* %9, align 4
  %21 = icmp ult i32 %20, 3
  br i1 %21, label %22, label %44

; <label>:22:                                     ; preds = %19
  %23 = load %class.Tensor.113*, %class.Tensor.113** %5, align 8
  %24 = load i32, i32* %7, align 4
  %25 = call dereferenceable(24) %class.Tensor* @_ZNK6TensorILi2ELi3EEixEj(%class.Tensor.113* %23, i32 %24)
  %26 = load i32, i32* %9, align 4
  %27 = call double @_ZNK6TensorILi1ELi3EEixEj(%class.Tensor* %25, i32 %26)
  %28 = load %class.Tensor.113*, %class.Tensor.113** %6, align 8
  %29 = load i32, i32* %9, align 4
  %30 = call dereferenceable(24) %class.Tensor* @_ZNK6TensorILi2ELi3EEixEj(%class.Tensor.113* %28, i32 %29)
  %31 = load i32, i32* %8, align 4
  %32 = call double @_ZNK6TensorILi1ELi3EEixEj(%class.Tensor* %30, i32 %31)
  %33 = fmul double %27, %32
  %34 = load %class.Tensor.113*, %class.Tensor.113** %4, align 8
  %35 = load i32, i32* %7, align 4
  %36 = call dereferenceable(24) %class.Tensor* @_ZN6TensorILi2ELi3EEixEj(%class.Tensor.113* %34, i32 %35)
  %37 = load i32, i32* %8, align 4
  %38 = call dereferenceable(8) double* @_ZN6TensorILi1ELi3EEixEj(%class.Tensor* %36, i32 %37)
  %39 = load double, double* %38, align 8
  %40 = fadd double %39, %33
  store double %40, double* %38, align 8
  br label %41

; <label>:41:                                     ; preds = %22
  %42 = load i32, i32* %9, align 4
  %43 = add i32 %42, 1
  store i32 %43, i32* %9, align 4
  br label %19

; <label>:44:                                     ; preds = %19
  br label %45

; <label>:45:                                     ; preds = %44
  %46 = load i32, i32* %8, align 4
  %47 = add i32 %46, 1
  store i32 %47, i32* %8, align 4
  br label %15

; <label>:48:                                     ; preds = %15
  br label %49

; <label>:49:                                     ; preds = %48
  %50 = load i32, i32* %7, align 4
  %51 = add i32 %50, 1
  store i32 %51, i32* %7, align 4
  br label %11

; <label>:52:                                     ; preds = %11
  ret void
}

; Function Attrs: noinline uwtable
define weak_odr void @_ZNK8MappingQILi3EE23transform_contravariantEP6TensorILi1ELi3EES3_PKS2_RKN7MappingILi3EE16InternalDataBaseE(%class.MappingQ*, %class.Tensor*, %class.Tensor*, %class.Tensor*, %"class.Mapping<3>::InternalDataBase"* dereferenceable(40)) unnamed_addr #0 comdat align 2 {
  %6 = alloca %class.MappingQ*, align 8
  %7 = alloca %class.Tensor*, align 8
  %8 = alloca %class.Tensor*, align 8
  %9 = alloca %class.Tensor*, align 8
  %10 = alloca %"class.Mapping<3>::InternalDataBase"*, align 8
  %11 = alloca %"class.MappingQ1<3>::InternalData"*, align 8
  %12 = alloca %"class.__gnu_cxx::__normal_iterator.134", align 8
  %13 = alloca %"class.__gnu_cxx::__normal_iterator.134", align 8
  %14 = alloca %"class.MappingQ<3>::InternalData"*, align 8
  %15 = alloca %"class.__gnu_cxx::__normal_iterator.134", align 8
  %16 = alloca %"class.__gnu_cxx::__normal_iterator.134", align 8
  %17 = alloca %"class.__gnu_cxx::__normal_iterator.134", align 8
  store %class.MappingQ* %0, %class.MappingQ** %6, align 8
  store %class.Tensor* %1, %class.Tensor** %7, align 8
  store %class.Tensor* %2, %class.Tensor** %8, align 8
  store %class.Tensor* %3, %class.Tensor** %9, align 8
  store %"class.Mapping<3>::InternalDataBase"* %4, %"class.Mapping<3>::InternalDataBase"** %10, align 8
  %18 = load %class.MappingQ*, %class.MappingQ** %6, align 8
  %19 = load %"class.Mapping<3>::InternalDataBase"*, %"class.Mapping<3>::InternalDataBase"** %10, align 8
  %20 = icmp eq %"class.Mapping<3>::InternalDataBase"* %19, null
  br i1 %20, label %25, label %21

; <label>:21:                                     ; preds = %5
  %22 = bitcast %"class.Mapping<3>::InternalDataBase"* %19 to i8*
  %23 = call i8* @__dynamic_cast(i8* %22, i8* bitcast ({ i8*, i8*, i8* }* @_ZTIN7MappingILi3EE16InternalDataBaseE to i8*), i8* bitcast ({ i8*, i8*, i8* }* @_ZTIN9MappingQ1ILi3EE12InternalDataE to i8*), i64 0) #2
  %24 = bitcast i8* %23 to %"class.MappingQ1<3>::InternalData"*
  br label %26

; <label>:25:                                     ; preds = %5
  br label %26

; <label>:26:                                     ; preds = %25, %21
  %27 = phi %"class.MappingQ1<3>::InternalData"* [ %24, %21 ], [ null, %25 ]
  store %"class.MappingQ1<3>::InternalData"* %27, %"class.MappingQ1<3>::InternalData"** %11, align 8
  call void @_ZN9__gnu_cxx17__normal_iteratorIPK6TensorILi2ELi3EESt6vectorIS2_SaIS2_EEEC2Ev(%"class.__gnu_cxx::__normal_iterator.134"* %12)
  %28 = load %"class.MappingQ1<3>::InternalData"*, %"class.MappingQ1<3>::InternalData"** %11, align 8
  %29 = getelementptr inbounds %"class.MappingQ1<3>::InternalData", %"class.MappingQ1<3>::InternalData"* %28, i32 0, i32 9
  %30 = load i8, i8* %29, align 8
  %31 = trunc i8 %30 to i1
  br i1 %31, label %32, label %39

; <label>:32:                                     ; preds = %26
  %33 = load %"class.MappingQ1<3>::InternalData"*, %"class.MappingQ1<3>::InternalData"** %11, align 8
  %34 = getelementptr inbounds %"class.MappingQ1<3>::InternalData", %"class.MappingQ1<3>::InternalData"* %33, i32 0, i32 4
  %35 = call %class.Tensor.113* @_ZNKSt6vectorI6TensorILi2ELi3EESaIS1_EE5beginEv(%"class.std::vector.108"* %34)
  %36 = getelementptr inbounds %"class.__gnu_cxx::__normal_iterator.134", %"class.__gnu_cxx::__normal_iterator.134"* %13, i32 0, i32 0
  store %class.Tensor.113* %35, %class.Tensor.113** %36, align 8
  %37 = bitcast %"class.__gnu_cxx::__normal_iterator.134"* %12 to i8*
  %38 = bitcast %"class.__gnu_cxx::__normal_iterator.134"* %13 to i8*
  call void @llvm.memcpy.p0i8.p0i8.i64(i8* %37, i8* %38, i64 8, i32 8, i1 false)
  br label %70

; <label>:39:                                     ; preds = %26
  %40 = load %"class.MappingQ1<3>::InternalData"*, %"class.MappingQ1<3>::InternalData"** %11, align 8
  %41 = icmp eq %"class.MappingQ1<3>::InternalData"* %40, null
  br i1 %41, label %46, label %42

; <label>:42:                                     ; preds = %39
  %43 = bitcast %"class.MappingQ1<3>::InternalData"* %40 to i8*
  %44 = call i8* @__dynamic_cast(i8* %43, i8* bitcast ({ i8*, i8*, i8* }* @_ZTIN9MappingQ1ILi3EE12InternalDataE to i8*), i8* bitcast ({ i8*, i8*, i8* }* @_ZTIN8MappingQILi3EE12InternalDataE to i8*), i64 0) #2
  %45 = bitcast i8* %44 to %"class.MappingQ<3>::InternalData"*
  br label %47

; <label>:46:                                     ; preds = %39
  br label %47

; <label>:47:                                     ; preds = %46, %42
  %48 = phi %"class.MappingQ<3>::InternalData"* [ %45, %42 ], [ null, %46 ]
  store %"class.MappingQ<3>::InternalData"* %48, %"class.MappingQ<3>::InternalData"** %14, align 8
  %49 = load %"class.MappingQ<3>::InternalData"*, %"class.MappingQ<3>::InternalData"** %14, align 8
  %50 = getelementptr inbounds %"class.MappingQ<3>::InternalData", %"class.MappingQ<3>::InternalData"* %49, i32 0, i32 2
  %51 = load i8, i8* %50, align 8
  %52 = trunc i8 %51 to i1
  br i1 %52, label %53, label %61

; <label>:53:                                     ; preds = %47
  %54 = load %"class.MappingQ<3>::InternalData"*, %"class.MappingQ<3>::InternalData"** %14, align 8
  %55 = getelementptr inbounds %"class.MappingQ<3>::InternalData", %"class.MappingQ<3>::InternalData"* %54, i32 0, i32 3
  %56 = getelementptr inbounds %"class.MappingQ1<3>::InternalData", %"class.MappingQ1<3>::InternalData"* %55, i32 0, i32 4
  %57 = call %class.Tensor.113* @_ZNKSt6vectorI6TensorILi2ELi3EESaIS1_EE5beginEv(%"class.std::vector.108"* %56)
  %58 = getelementptr inbounds %"class.__gnu_cxx::__normal_iterator.134", %"class.__gnu_cxx::__normal_iterator.134"* %15, i32 0, i32 0
  store %class.Tensor.113* %57, %class.Tensor.113** %58, align 8
  %59 = bitcast %"class.__gnu_cxx::__normal_iterator.134"* %12 to i8*
  %60 = bitcast %"class.__gnu_cxx::__normal_iterator.134"* %15 to i8*
  call void @llvm.memcpy.p0i8.p0i8.i64(i8* %59, i8* %60, i64 8, i32 8, i1 false)
  br label %69

; <label>:61:                                     ; preds = %47
  %62 = load %"class.MappingQ<3>::InternalData"*, %"class.MappingQ<3>::InternalData"** %14, align 8
  %63 = bitcast %"class.MappingQ<3>::InternalData"* %62 to %"class.MappingQ1<3>::InternalData"*
  %64 = getelementptr inbounds %"class.MappingQ1<3>::InternalData", %"class.MappingQ1<3>::InternalData"* %63, i32 0, i32 4
  %65 = call %class.Tensor.113* @_ZNKSt6vectorI6TensorILi2ELi3EESaIS1_EE5beginEv(%"class.std::vector.108"* %64)
  %66 = getelementptr inbounds %"class.__gnu_cxx::__normal_iterator.134", %"class.__gnu_cxx::__normal_iterator.134"* %16, i32 0, i32 0
  store %class.Tensor.113* %65, %class.Tensor.113** %66, align 8
  %67 = bitcast %"class.__gnu_cxx::__normal_iterator.134"* %12 to i8*
  %68 = bitcast %"class.__gnu_cxx::__normal_iterator.134"* %16 to i8*
  call void @llvm.memcpy.p0i8.p0i8.i64(i8* %67, i8* %68, i64 8, i32 8, i1 false)
  br label %69

; <label>:69:                                     ; preds = %61, %53
  br label %70

; <label>:70:                                     ; preds = %69, %32
  br label %71

; <label>:71:                                     ; preds = %75, %70
  %72 = load %class.Tensor*, %class.Tensor** %7, align 8
  %73 = load %class.Tensor*, %class.Tensor** %8, align 8
  %74 = icmp ne %class.Tensor* %72, %73
  br i1 %74, label %75, label %83

; <label>:75:                                     ; preds = %71
  %76 = load %class.Tensor*, %class.Tensor** %7, align 8
  %77 = getelementptr inbounds %class.Tensor, %class.Tensor* %76, i32 1
  store %class.Tensor* %77, %class.Tensor** %7, align 8
  %78 = call %class.Tensor.113* @_ZN9__gnu_cxx17__normal_iteratorIPK6TensorILi2ELi3EESt6vectorIS2_SaIS2_EEEppEi(%"class.__gnu_cxx::__normal_iterator.134"* %12, i32 0)
  %79 = getelementptr inbounds %"class.__gnu_cxx::__normal_iterator.134", %"class.__gnu_cxx::__normal_iterator.134"* %17, i32 0, i32 0
  store %class.Tensor.113* %78, %class.Tensor.113** %79, align 8
  %80 = call dereferenceable(72) %class.Tensor.113* @_ZNK9__gnu_cxx17__normal_iteratorIPK6TensorILi2ELi3EESt6vectorIS2_SaIS2_EEEdeEv(%"class.__gnu_cxx::__normal_iterator.134"* %17)
  %81 = load %class.Tensor*, %class.Tensor** %9, align 8
  %82 = getelementptr inbounds %class.Tensor, %class.Tensor* %81, i32 1
  store %class.Tensor* %82, %class.Tensor** %9, align 8
  call void @_Z8contractILi3EEvR6TensorILi1EXT_EERKS0_ILi2EXT_EERKS1_(%class.Tensor* dereferenceable(24) %76, %class.Tensor.113* dereferenceable(72) %80, %class.Tensor* dereferenceable(24) %81)
  br label %71

; <label>:83:                                     ; preds = %71
  ret void
}

; Function Attrs: noinline nounwind uwtable
define linkonce_odr void @_Z8contractILi3EEvR6TensorILi1EXT_EERKS0_ILi2EXT_EERKS1_(%class.Tensor* dereferenceable(24), %class.Tensor.113* dereferenceable(72), %class.Tensor* dereferenceable(24)) #1 comdat {
  %4 = alloca %class.Tensor*, align 8
  %5 = alloca %class.Tensor.113*, align 8
  %6 = alloca %class.Tensor*, align 8
  %7 = alloca i32, align 4
  %8 = alloca i32, align 4
  store %class.Tensor* %0, %class.Tensor** %4, align 8
  store %class.Tensor.113* %1, %class.Tensor.113** %5, align 8
  store %class.Tensor* %2, %class.Tensor** %6, align 8
  %9 = load %class.Tensor*, %class.Tensor** %4, align 8
  call void @_ZN6TensorILi1ELi3EE5clearEv(%class.Tensor* %9)
  store i32 0, i32* %7, align 4
  br label %10

; <label>:10:                                     ; preds = %36, %3
  %11 = load i32, i32* %7, align 4
  %12 = icmp ult i32 %11, 3
  br i1 %12, label %13, label %39

; <label>:13:                                     ; preds = %10
  store i32 0, i32* %8, align 4
  br label %14

; <label>:14:                                     ; preds = %32, %13
  %15 = load i32, i32* %8, align 4
  %16 = icmp ult i32 %15, 3
  br i1 %16, label %17, label %35

; <label>:17:                                     ; preds = %14
  %18 = load %class.Tensor.113*, %class.Tensor.113** %5, align 8
  %19 = load i32, i32* %7, align 4
  %20 = call dereferenceable(24) %class.Tensor* @_ZNK6TensorILi2ELi3EEixEj(%class.Tensor.113* %18, i32 %19)
  %21 = load i32, i32* %8, align 4
  %22 = call double @_ZNK6TensorILi1ELi3EEixEj(%class.Tensor* %20, i32 %21)
  %23 = load %class.Tensor*, %class.Tensor** %6, align 8
  %24 = load i32, i32* %8, align 4
  %25 = call double @_ZNK6TensorILi1ELi3EEixEj(%class.Tensor* %23, i32 %24)
  %26 = fmul double %22, %25
  %27 = load %class.Tensor*, %class.Tensor** %4, align 8
  %28 = load i32, i32* %7, align 4
  %29 = call dereferenceable(8) double* @_ZN6TensorILi1ELi3EEixEj(%class.Tensor* %27, i32 %28)
  %30 = load double, double* %29, align 8
  %31 = fadd double %30, %26
  store double %31, double* %29, align 8
  br label %32

; <label>:32:                                     ; preds = %17
  %33 = load i32, i32* %8, align 4
  %34 = add i32 %33, 1
  store i32 %34, i32* %8, align 4
  br label %14

; <label>:35:                                     ; preds = %14
  br label %36

; <label>:36:                                     ; preds = %35
  %37 = load i32, i32* %7, align 4
  %38 = add i32 %37, 1
  store i32 %38, i32* %7, align 4
  br label %10

; <label>:39:                                     ; preds = %10
  ret void
}

; Function Attrs: noinline uwtable
define weak_odr void @_ZNK8MappingQILi3EE23transform_contravariantEP6TensorILi2ELi3EES3_PKS2_RKN7MappingILi3EE16InternalDataBaseE(%class.MappingQ*, %class.Tensor.113*, %class.Tensor.113*, %class.Tensor.113*, %"class.Mapping<3>::InternalDataBase"* dereferenceable(40)) unnamed_addr #0 comdat align 2 {
  %6 = alloca %class.MappingQ*, align 8
  %7 = alloca %class.Tensor.113*, align 8
  %8 = alloca %class.Tensor.113*, align 8
  %9 = alloca %class.Tensor.113*, align 8
  %10 = alloca %"class.Mapping<3>::InternalDataBase"*, align 8
  %11 = alloca %"class.MappingQ1<3>::InternalData"*, align 8
  %12 = alloca %"class.__gnu_cxx::__normal_iterator.134", align 8
  %13 = alloca %"class.__gnu_cxx::__normal_iterator.134", align 8
  %14 = alloca %"class.MappingQ<3>::InternalData"*, align 8
  %15 = alloca %"class.__gnu_cxx::__normal_iterator.134", align 8
  %16 = alloca %"class.__gnu_cxx::__normal_iterator.134", align 8
  %17 = alloca %"class.__gnu_cxx::__normal_iterator.134", align 8
  store %class.MappingQ* %0, %class.MappingQ** %6, align 8
  store %class.Tensor.113* %1, %class.Tensor.113** %7, align 8
  store %class.Tensor.113* %2, %class.Tensor.113** %8, align 8
  store %class.Tensor.113* %3, %class.Tensor.113** %9, align 8
  store %"class.Mapping<3>::InternalDataBase"* %4, %"class.Mapping<3>::InternalDataBase"** %10, align 8
  %18 = load %class.MappingQ*, %class.MappingQ** %6, align 8
  %19 = load %"class.Mapping<3>::InternalDataBase"*, %"class.Mapping<3>::InternalDataBase"** %10, align 8
  %20 = icmp eq %"class.Mapping<3>::InternalDataBase"* %19, null
  br i1 %20, label %25, label %21

; <label>:21:                                     ; preds = %5
  %22 = bitcast %"class.Mapping<3>::InternalDataBase"* %19 to i8*
  %23 = call i8* @__dynamic_cast(i8* %22, i8* bitcast ({ i8*, i8*, i8* }* @_ZTIN7MappingILi3EE16InternalDataBaseE to i8*), i8* bitcast ({ i8*, i8*, i8* }* @_ZTIN9MappingQ1ILi3EE12InternalDataE to i8*), i64 0) #2
  %24 = bitcast i8* %23 to %"class.MappingQ1<3>::InternalData"*
  br label %26

; <label>:25:                                     ; preds = %5
  br label %26

; <label>:26:                                     ; preds = %25, %21
  %27 = phi %"class.MappingQ1<3>::InternalData"* [ %24, %21 ], [ null, %25 ]
  store %"class.MappingQ1<3>::InternalData"* %27, %"class.MappingQ1<3>::InternalData"** %11, align 8
  call void @_ZN9__gnu_cxx17__normal_iteratorIPK6TensorILi2ELi3EESt6vectorIS2_SaIS2_EEEC2Ev(%"class.__gnu_cxx::__normal_iterator.134"* %12)
  %28 = load %"class.MappingQ1<3>::InternalData"*, %"class.MappingQ1<3>::InternalData"** %11, align 8
  %29 = getelementptr inbounds %"class.MappingQ1<3>::InternalData", %"class.MappingQ1<3>::InternalData"* %28, i32 0, i32 9
  %30 = load i8, i8* %29, align 8
  %31 = trunc i8 %30 to i1
  br i1 %31, label %32, label %39

; <label>:32:                                     ; preds = %26
  %33 = load %"class.MappingQ1<3>::InternalData"*, %"class.MappingQ1<3>::InternalData"** %11, align 8
  %34 = getelementptr inbounds %"class.MappingQ1<3>::InternalData", %"class.MappingQ1<3>::InternalData"* %33, i32 0, i32 4
  %35 = call %class.Tensor.113* @_ZNKSt6vectorI6TensorILi2ELi3EESaIS1_EE5beginEv(%"class.std::vector.108"* %34)
  %36 = getelementptr inbounds %"class.__gnu_cxx::__normal_iterator.134", %"class.__gnu_cxx::__normal_iterator.134"* %13, i32 0, i32 0
  store %class.Tensor.113* %35, %class.Tensor.113** %36, align 8
  %37 = bitcast %"class.__gnu_cxx::__normal_iterator.134"* %12 to i8*
  %38 = bitcast %"class.__gnu_cxx::__normal_iterator.134"* %13 to i8*
  call void @llvm.memcpy.p0i8.p0i8.i64(i8* %37, i8* %38, i64 8, i32 8, i1 false)
  br label %70

; <label>:39:                                     ; preds = %26
  %40 = load %"class.MappingQ1<3>::InternalData"*, %"class.MappingQ1<3>::InternalData"** %11, align 8
  %41 = icmp eq %"class.MappingQ1<3>::InternalData"* %40, null
  br i1 %41, label %46, label %42

; <label>:42:                                     ; preds = %39
  %43 = bitcast %"class.MappingQ1<3>::InternalData"* %40 to i8*
  %44 = call i8* @__dynamic_cast(i8* %43, i8* bitcast ({ i8*, i8*, i8* }* @_ZTIN9MappingQ1ILi3EE12InternalDataE to i8*), i8* bitcast ({ i8*, i8*, i8* }* @_ZTIN8MappingQILi3EE12InternalDataE to i8*), i64 0) #2
  %45 = bitcast i8* %44 to %"class.MappingQ<3>::InternalData"*
  br label %47

; <label>:46:                                     ; preds = %39
  br label %47

; <label>:47:                                     ; preds = %46, %42
  %48 = phi %"class.MappingQ<3>::InternalData"* [ %45, %42 ], [ null, %46 ]
  store %"class.MappingQ<3>::InternalData"* %48, %"class.MappingQ<3>::InternalData"** %14, align 8
  %49 = load %"class.MappingQ<3>::InternalData"*, %"class.MappingQ<3>::InternalData"** %14, align 8
  %50 = getelementptr inbounds %"class.MappingQ<3>::InternalData", %"class.MappingQ<3>::InternalData"* %49, i32 0, i32 2
  %51 = load i8, i8* %50, align 8
  %52 = trunc i8 %51 to i1
  br i1 %52, label %53, label %61

; <label>:53:                                     ; preds = %47
  %54 = load %"class.MappingQ<3>::InternalData"*, %"class.MappingQ<3>::InternalData"** %14, align 8
  %55 = getelementptr inbounds %"class.MappingQ<3>::InternalData", %"class.MappingQ<3>::InternalData"* %54, i32 0, i32 3
  %56 = getelementptr inbounds %"class.MappingQ1<3>::InternalData", %"class.MappingQ1<3>::InternalData"* %55, i32 0, i32 4
  %57 = call %class.Tensor.113* @_ZNKSt6vectorI6TensorILi2ELi3EESaIS1_EE5beginEv(%"class.std::vector.108"* %56)
  %58 = getelementptr inbounds %"class.__gnu_cxx::__normal_iterator.134", %"class.__gnu_cxx::__normal_iterator.134"* %15, i32 0, i32 0
  store %class.Tensor.113* %57, %class.Tensor.113** %58, align 8
  %59 = bitcast %"class.__gnu_cxx::__normal_iterator.134"* %12 to i8*
  %60 = bitcast %"class.__gnu_cxx::__normal_iterator.134"* %15 to i8*
  call void @llvm.memcpy.p0i8.p0i8.i64(i8* %59, i8* %60, i64 8, i32 8, i1 false)
  br label %69

; <label>:61:                                     ; preds = %47
  %62 = load %"class.MappingQ<3>::InternalData"*, %"class.MappingQ<3>::InternalData"** %14, align 8
  %63 = bitcast %"class.MappingQ<3>::InternalData"* %62 to %"class.MappingQ1<3>::InternalData"*
  %64 = getelementptr inbounds %"class.MappingQ1<3>::InternalData", %"class.MappingQ1<3>::InternalData"* %63, i32 0, i32 4
  %65 = call %class.Tensor.113* @_ZNKSt6vectorI6TensorILi2ELi3EESaIS1_EE5beginEv(%"class.std::vector.108"* %64)
  %66 = getelementptr inbounds %"class.__gnu_cxx::__normal_iterator.134", %"class.__gnu_cxx::__normal_iterator.134"* %16, i32 0, i32 0
  store %class.Tensor.113* %65, %class.Tensor.113** %66, align 8
  %67 = bitcast %"class.__gnu_cxx::__normal_iterator.134"* %12 to i8*
  %68 = bitcast %"class.__gnu_cxx::__normal_iterator.134"* %16 to i8*
  call void @llvm.memcpy.p0i8.p0i8.i64(i8* %67, i8* %68, i64 8, i32 8, i1 false)
  br label %69

; <label>:69:                                     ; preds = %61, %53
  br label %70

; <label>:70:                                     ; preds = %69, %32
  br label %71

; <label>:71:                                     ; preds = %75, %70
  %72 = load %class.Tensor.113*, %class.Tensor.113** %7, align 8
  %73 = load %class.Tensor.113*, %class.Tensor.113** %8, align 8
  %74 = icmp ne %class.Tensor.113* %72, %73
  br i1 %74, label %75, label %83

; <label>:75:                                     ; preds = %71
  %76 = load %class.Tensor.113*, %class.Tensor.113** %7, align 8
  %77 = getelementptr inbounds %class.Tensor.113, %class.Tensor.113* %76, i32 1
  store %class.Tensor.113* %77, %class.Tensor.113** %7, align 8
  %78 = call %class.Tensor.113* @_ZN9__gnu_cxx17__normal_iteratorIPK6TensorILi2ELi3EESt6vectorIS2_SaIS2_EEEppEi(%"class.__gnu_cxx::__normal_iterator.134"* %12, i32 0)
  %79 = getelementptr inbounds %"class.__gnu_cxx::__normal_iterator.134", %"class.__gnu_cxx::__normal_iterator.134"* %17, i32 0, i32 0
  store %class.Tensor.113* %78, %class.Tensor.113** %79, align 8
  %80 = call dereferenceable(72) %class.Tensor.113* @_ZNK9__gnu_cxx17__normal_iteratorIPK6TensorILi2ELi3EESt6vectorIS2_SaIS2_EEEdeEv(%"class.__gnu_cxx::__normal_iterator.134"* %17)
  %81 = load %class.Tensor.113*, %class.Tensor.113** %9, align 8
  %82 = getelementptr inbounds %class.Tensor.113, %class.Tensor.113* %81, i32 1
  store %class.Tensor.113* %82, %class.Tensor.113** %9, align 8
  call void @_Z8contractILi3EEvR6TensorILi2EXT_EERKS1_S4_(%class.Tensor.113* dereferenceable(72) %76, %class.Tensor.113* dereferenceable(72) %80, %class.Tensor.113* dereferenceable(72) %81)
  br label %71

; <label>:83:                                     ; preds = %71
  ret void
}

; Function Attrs: noinline nounwind uwtable
define weak_odr i32 @_ZNK8MappingQILi3EE10get_degreeEv(%class.MappingQ*) #1 comdat align 2 {
  %2 = alloca %class.MappingQ*, align 8
  store %class.MappingQ* %0, %class.MappingQ** %2, align 8
  %3 = load %class.MappingQ*, %class.MappingQ** %2, align 8
  %4 = getelementptr inbounds %class.MappingQ, %class.MappingQ* %3, i32 0, i32 3
  %5 = load i32, i32* %4, align 8
  ret i32 %5
}

; Function Attrs: noinline uwtable
define weak_odr void @_ZN8MappingQILi3EE12InternalDataC2Ej(%"class.MappingQ<3>::InternalData"*, i32) unnamed_addr #0 comdat($_ZN8MappingQILi3EE12InternalDataC5Ej) align 2 personality i8* bitcast (i32 (...)* @__gxx_personality_v0 to i8*) {
  %3 = alloca %"class.MappingQ<3>::InternalData"*, align 8
  %4 = alloca i32, align 4
  %5 = alloca i8*
  %6 = alloca i32
  store %"class.MappingQ<3>::InternalData"* %0, %"class.MappingQ<3>::InternalData"** %3, align 8
  store i32 %1, i32* %4, align 4
  %7 = load %"class.MappingQ<3>::InternalData"*, %"class.MappingQ<3>::InternalData"** %3, align 8
  %8 = bitcast %"class.MappingQ<3>::InternalData"* %7 to %"class.MappingQ1<3>::InternalData"*
  %9 = load i32, i32* %4, align 4
  call void @_ZN9MappingQ1ILi3EE12InternalDataC2Ej(%"class.MappingQ1<3>::InternalData"* %8, i32 %9)
  %10 = bitcast %"class.MappingQ<3>::InternalData"* %7 to i32 (...)***
  store i32 (...)** bitcast (i8** getelementptr inbounds ({ [6 x i8*] }, { [6 x i8*] }* @_ZTVN8MappingQILi3EE12InternalDataE, i32 0, inrange i32 0, i32 2) to i32 (...)**), i32 (...)*** %10, align 8
  %11 = getelementptr inbounds %"class.MappingQ<3>::InternalData", %"class.MappingQ<3>::InternalData"* %7, i32 0, i32 1
  invoke void @_ZNSt6vectorIS_I5PointILi3EESaIS1_EESaIS3_EEC2Ev(%"class.std::vector.129"* %11)
          to label %12 unwind label %18

; <label>:12:                                     ; preds = %2
  %13 = getelementptr inbounds %"class.MappingQ<3>::InternalData", %"class.MappingQ<3>::InternalData"* %7, i32 0, i32 2
  store i8 0, i8* %13, align 8
  %14 = getelementptr inbounds %"class.MappingQ<3>::InternalData", %"class.MappingQ<3>::InternalData"* %7, i32 0, i32 3
  invoke void @_ZN9MappingQ1ILi3EE12InternalDataC1Ej(%"class.MappingQ1<3>::InternalData"* %14, i32 8)
          to label %15 unwind label %22

; <label>:15:                                     ; preds = %12
  %16 = bitcast %"class.MappingQ<3>::InternalData"* %7 to %"class.MappingQ1<3>::InternalData"*
  %17 = getelementptr inbounds %"class.MappingQ1<3>::InternalData", %"class.MappingQ1<3>::InternalData"* %16, i32 0, i32 9
  store i8 0, i8* %17, align 8
  ret void

; <label>:18:                                     ; preds = %2
  %19 = landingpad { i8*, i32 }
          cleanup
  %20 = extractvalue { i8*, i32 } %19, 0
  store i8* %20, i8** %5, align 8
  %21 = extractvalue { i8*, i32 } %19, 1
  store i32 %21, i32* %6, align 4
  br label %27

; <label>:22:                                     ; preds = %12
  %23 = landingpad { i8*, i32 }
          cleanup
  %24 = extractvalue { i8*, i32 } %23, 0
  store i8* %24, i8** %5, align 8
  %25 = extractvalue { i8*, i32 } %23, 1
  store i32 %25, i32* %6, align 4
  invoke void @_ZNSt6vectorIS_I5PointILi3EESaIS1_EESaIS3_EED2Ev(%"class.std::vector.129"* %11)
          to label %26 unwind label %35

; <label>:26:                                     ; preds = %22
  br label %27

; <label>:27:                                     ; preds = %26, %18
  %28 = bitcast %"class.MappingQ<3>::InternalData"* %7 to %"class.MappingQ1<3>::InternalData"*
  invoke void @_ZN9MappingQ1ILi3EE12InternalDataD2Ev(%"class.MappingQ1<3>::InternalData"* %28)
          to label %29 unwind label %35

; <label>:29:                                     ; preds = %27
  br label %30

; <label>:30:                                     ; preds = %29
  %31 = load i8*, i8** %5, align 8
  %32 = load i32, i32* %6, align 4
  %33 = insertvalue { i8*, i32 } undef, i8* %31, 0
  %34 = insertvalue { i8*, i32 } %33, i32 %32, 1
  resume { i8*, i32 } %34

; <label>:35:                                     ; preds = %27, %22
  %36 = landingpad { i8*, i32 }
          catch i8* null
  %37 = extractvalue { i8*, i32 } %36, 0
  call void @__clang_call_terminate(i8* %37) #12
  unreachable
}

declare void @_ZN9MappingQ1ILi3EE12InternalDataC2Ej(%"class.MappingQ1<3>::InternalData"*, i32) unnamed_addr #3

; Function Attrs: noinline uwtable
define linkonce_odr void @_ZNSt6vectorIS_I5PointILi3EESaIS1_EESaIS3_EEC2Ev(%"class.std::vector.129"*) unnamed_addr #0 comdat align 2 {
  %2 = alloca %"class.std::vector.129"*, align 8
  store %"class.std::vector.129"* %0, %"class.std::vector.129"** %2, align 8
  %3 = load %"class.std::vector.129"*, %"class.std::vector.129"** %2, align 8
  %4 = bitcast %"class.std::vector.129"* %3 to %"struct.std::_Vector_base.130"*
  call void @_ZNSt12_Vector_baseISt6vectorI5PointILi3EESaIS2_EESaIS4_EEC2Ev(%"struct.std::_Vector_base.130"* %4)
  ret void
}

declare void @_ZN9MappingQ1ILi3EE12InternalDataC1Ej(%"class.MappingQ1<3>::InternalData"*, i32) unnamed_addr #3

; Function Attrs: noinline uwtable
define linkonce_odr void @_ZNSt6vectorIS_I5PointILi3EESaIS1_EESaIS3_EED2Ev(%"class.std::vector.129"*) unnamed_addr #0 comdat align 2 personality i8* bitcast (i32 (...)* @__gxx_personality_v0 to i8*) {
  %2 = alloca %"class.std::vector.129"*, align 8
  %3 = alloca i8*
  %4 = alloca i32
  store %"class.std::vector.129"* %0, %"class.std::vector.129"** %2, align 8
  %5 = load %"class.std::vector.129"*, %"class.std::vector.129"** %2, align 8
  %6 = bitcast %"class.std::vector.129"* %5 to %"struct.std::_Vector_base.130"*
  %7 = getelementptr inbounds %"struct.std::_Vector_base.130", %"struct.std::_Vector_base.130"* %6, i32 0, i32 0
  %8 = bitcast %"struct.std::_Vector_base<std::vector<Point<3>, std::allocator<Point<3> > >, std::allocator<std::vector<Point<3>, std::allocator<Point<3> > > > >::_Vector_impl"* %7 to %"struct.std::_Vector_base<std::vector<Point<3>, std::allocator<Point<3> > >, std::allocator<std::vector<Point<3>, std::allocator<Point<3> > > > >::_Vector_impl_data"*
  %9 = getelementptr inbounds %"struct.std::_Vector_base<std::vector<Point<3>, std::allocator<Point<3> > >, std::allocator<std::vector<Point<3>, std::allocator<Point<3> > > > >::_Vector_impl_data", %"struct.std::_Vector_base<std::vector<Point<3>, std::allocator<Point<3> > >, std::allocator<std::vector<Point<3>, std::allocator<Point<3> > > > >::_Vector_impl_data"* %8, i32 0, i32 0
  %10 = load %"class.std::vector.58"*, %"class.std::vector.58"** %9, align 8
  %11 = bitcast %"class.std::vector.129"* %5 to %"struct.std::_Vector_base.130"*
  %12 = getelementptr inbounds %"struct.std::_Vector_base.130", %"struct.std::_Vector_base.130"* %11, i32 0, i32 0
  %13 = bitcast %"struct.std::_Vector_base<std::vector<Point<3>, std::allocator<Point<3> > >, std::allocator<std::vector<Point<3>, std::allocator<Point<3> > > > >::_Vector_impl"* %12 to %"struct.std::_Vector_base<std::vector<Point<3>, std::allocator<Point<3> > >, std::allocator<std::vector<Point<3>, std::allocator<Point<3> > > > >::_Vector_impl_data"*
  %14 = getelementptr inbounds %"struct.std::_Vector_base<std::vector<Point<3>, std::allocator<Point<3> > >, std::allocator<std::vector<Point<3>, std::allocator<Point<3> > > > >::_Vector_impl_data", %"struct.std::_Vector_base<std::vector<Point<3>, std::allocator<Point<3> > >, std::allocator<std::vector<Point<3>, std::allocator<Point<3> > > > >::_Vector_impl_data"* %13, i32 0, i32 1
  %15 = load %"class.std::vector.58"*, %"class.std::vector.58"** %14, align 8
  %16 = bitcast %"class.std::vector.129"* %5 to %"struct.std::_Vector_base.130"*
  %17 = invoke dereferenceable(1) %"class.std::allocator.131"* @_ZNSt12_Vector_baseISt6vectorI5PointILi3EESaIS2_EESaIS4_EE19_M_get_Tp_allocatorEv(%"struct.std::_Vector_base.130"* %16)
          to label %18 unwind label %21

; <label>:18:                                     ; preds = %1
  invoke void @_ZSt8_DestroyIPSt6vectorI5PointILi3EESaIS2_EES4_EvT_S6_RSaIT0_E(%"class.std::vector.58"* %10, %"class.std::vector.58"* %15, %"class.std::allocator.131"* dereferenceable(1) %17)
          to label %19 unwind label %21

; <label>:19:                                     ; preds = %18
  %20 = bitcast %"class.std::vector.129"* %5 to %"struct.std::_Vector_base.130"*
  call void @_ZNSt12_Vector_baseISt6vectorI5PointILi3EESaIS2_EESaIS4_EED2Ev(%"struct.std::_Vector_base.130"* %20)
  ret void

; <label>:21:                                     ; preds = %18, %1
  %22 = landingpad { i8*, i32 }
          cleanup
  %23 = extractvalue { i8*, i32 } %22, 0
  store i8* %23, i8** %3, align 8
  %24 = extractvalue { i8*, i32 } %22, 1
  store i32 %24, i32* %4, align 4
  %25 = bitcast %"class.std::vector.129"* %5 to %"struct.std::_Vector_base.130"*
  invoke void @_ZNSt12_Vector_baseISt6vectorI5PointILi3EESaIS2_EESaIS4_EED2Ev(%"struct.std::_Vector_base.130"* %25)
          to label %26 unwind label %32

; <label>:26:                                     ; preds = %21
  br label %27

; <label>:27:                                     ; preds = %26
  %28 = load i8*, i8** %3, align 8
  %29 = load i32, i32* %4, align 4
  %30 = insertvalue { i8*, i32 } undef, i8* %28, 0
  %31 = insertvalue { i8*, i32 } %30, i32 %29, 1
  resume { i8*, i32 } %31

; <label>:32:                                     ; preds = %21
  %33 = landingpad { i8*, i32 }
          catch i8* null
  %34 = extractvalue { i8*, i32 } %33, 0
  call void @__clang_call_terminate(i8* %34) #12
  unreachable
}

; Function Attrs: noinline uwtable
define weak_odr i32 @_ZNK8MappingQILi3EE12InternalData18memory_consumptionEv(%"class.MappingQ<3>::InternalData"*) unnamed_addr #0 comdat align 2 {
  %2 = alloca %"class.MappingQ<3>::InternalData"*, align 8
  store %"class.MappingQ<3>::InternalData"* %0, %"class.MappingQ<3>::InternalData"** %2, align 8
  %3 = load %"class.MappingQ<3>::InternalData"*, %"class.MappingQ<3>::InternalData"** %2, align 8
  %4 = bitcast %"class.MappingQ<3>::InternalData"* %3 to %"class.MappingQ1<3>::InternalData"*
  %5 = call i32 @_ZNK9MappingQ1ILi3EE12InternalData18memory_consumptionEv(%"class.MappingQ1<3>::InternalData"* %4)
  %6 = getelementptr inbounds %"class.MappingQ<3>::InternalData", %"class.MappingQ<3>::InternalData"* %3, i32 0, i32 1
  %7 = call i32 @_ZN17MemoryConsumption18memory_consumptionISt6vectorI5PointILi3EESaIS3_EEEEjRKS1_IT_SaIS6_EE(%"class.std::vector.129"* dereferenceable(24) %6)
  %8 = add i32 %5, %7
  %9 = getelementptr inbounds %"class.MappingQ<3>::InternalData", %"class.MappingQ<3>::InternalData"* %3, i32 0, i32 2
  %10 = load i8, i8* %9, align 8
  %11 = trunc i8 %10 to i1
  %12 = call i32 @_ZN17MemoryConsumption18memory_consumptionEb(i1 zeroext %11)
  %13 = add i32 %8, %12
  %14 = getelementptr inbounds %"class.MappingQ<3>::InternalData", %"class.MappingQ<3>::InternalData"* %3, i32 0, i32 3
  %15 = call i32 @_ZN17MemoryConsumption18memory_consumptionIN9MappingQ1ILi3EE12InternalDataEEEjRKT_(%"class.MappingQ1<3>::InternalData"* dereferenceable(288) %14)
  %16 = add i32 %13, %15
  ret i32 %16
}

declare i32 @_ZNK9MappingQ1ILi3EE12InternalData18memory_consumptionEv(%"class.MappingQ1<3>::InternalData"*) unnamed_addr #3

; Function Attrs: noinline uwtable
define linkonce_odr i32 @_ZN17MemoryConsumption18memory_consumptionISt6vectorI5PointILi3EESaIS3_EEEEjRKS1_IT_SaIS6_EE(%"class.std::vector.129"* dereferenceable(24)) #0 comdat {
  %2 = alloca %"class.std::vector.129"*, align 8
  %3 = alloca i32, align 4
  %4 = alloca i32, align 4
  %5 = alloca i32, align 4
  store %"class.std::vector.129"* %0, %"class.std::vector.129"** %2, align 8
  store i32 24, i32* %3, align 4
  %6 = load %"class.std::vector.129"*, %"class.std::vector.129"** %2, align 8
  %7 = call i64 @_ZNKSt6vectorIS_I5PointILi3EESaIS1_EESaIS3_EE4sizeEv(%"class.std::vector.129"* %6)
  %8 = trunc i64 %7 to i32
  store i32 %8, i32* %4, align 4
  store i32 0, i32* %5, align 4
  br label %9

; <label>:9:                                      ; preds = %21, %1
  %10 = load i32, i32* %5, align 4
  %11 = load i32, i32* %4, align 4
  %12 = icmp ult i32 %10, %11
  br i1 %12, label %13, label %24

; <label>:13:                                     ; preds = %9
  %14 = load %"class.std::vector.129"*, %"class.std::vector.129"** %2, align 8
  %15 = load i32, i32* %5, align 4
  %16 = zext i32 %15 to i64
  %17 = call dereferenceable(24) %"class.std::vector.58"* @_ZNKSt6vectorIS_I5PointILi3EESaIS1_EESaIS3_EEixEm(%"class.std::vector.129"* %14, i64 %16)
  %18 = call i32 @_ZN17MemoryConsumption18memory_consumptionI5PointILi3EEEEjRKSt6vectorIT_SaIS4_EE(%"class.std::vector.58"* dereferenceable(24) %17)
  %19 = load i32, i32* %3, align 4
  %20 = add i32 %19, %18
  store i32 %20, i32* %3, align 4
  br label %21

; <label>:21:                                     ; preds = %13
  %22 = load i32, i32* %5, align 4
  %23 = add i32 %22, 1
  store i32 %23, i32* %5, align 4
  br label %9

; <label>:24:                                     ; preds = %9
  %25 = load %"class.std::vector.129"*, %"class.std::vector.129"** %2, align 8
  %26 = call i64 @_ZNKSt6vectorIS_I5PointILi3EESaIS1_EESaIS3_EE8capacityEv(%"class.std::vector.129"* %25)
  %27 = load i32, i32* %4, align 4
  %28 = zext i32 %27 to i64
  %29 = sub i64 %26, %28
  %30 = mul i64 %29, 24
  %31 = load i32, i32* %3, align 4
  %32 = zext i32 %31 to i64
  %33 = add i64 %32, %30
  %34 = trunc i64 %33 to i32
  store i32 %34, i32* %3, align 4
  %35 = load i32, i32* %3, align 4
  ret i32 %35
}

; Function Attrs: noinline nounwind uwtable
define linkonce_odr i32 @_ZN17MemoryConsumption18memory_consumptionEb(i1 zeroext) #1 comdat {
  %2 = alloca i8, align 1
  %3 = zext i1 %0 to i8
  store i8 %3, i8* %2, align 1
  ret i32 1
}

; Function Attrs: noinline uwtable
define linkonce_odr i32 @_ZN17MemoryConsumption18memory_consumptionIN9MappingQ1ILi3EE12InternalDataEEEjRKT_(%"class.MappingQ1<3>::InternalData"* dereferenceable(288)) #0 comdat {
  %2 = alloca %"class.MappingQ1<3>::InternalData"*, align 8
  store %"class.MappingQ1<3>::InternalData"* %0, %"class.MappingQ1<3>::InternalData"** %2, align 8
  %3 = load %"class.MappingQ1<3>::InternalData"*, %"class.MappingQ1<3>::InternalData"** %2, align 8
  %4 = bitcast %"class.MappingQ1<3>::InternalData"* %3 to i32 (%"class.MappingQ1<3>::InternalData"*)***
  %5 = load i32 (%"class.MappingQ1<3>::InternalData"*)**, i32 (%"class.MappingQ1<3>::InternalData"*)*** %4, align 8
  %6 = getelementptr inbounds i32 (%"class.MappingQ1<3>::InternalData"*)*, i32 (%"class.MappingQ1<3>::InternalData"*)** %5, i64 3
  %7 = load i32 (%"class.MappingQ1<3>::InternalData"*)*, i32 (%"class.MappingQ1<3>::InternalData"*)** %6, align 8
  %8 = call i32 %7(%"class.MappingQ1<3>::InternalData"* %3)
  ret i32 %8
}

; Function Attrs: noinline uwtable
define weak_odr void @_ZNK8MappingQILi3EE14fill_fe_valuesERK12TriaIteratorILi3E15DoFCellAccessorILi3EEERK10QuadratureILi3EERN7MappingILi3EE16InternalDataBaseERSt6vectorI5PointILi3EESaISH_EERSF_IdSaIdEE(%class.MappingQ*, %class.TriaIterator.118* dereferenceable(24), %class.Quadrature* dereferenceable(80), %"class.Mapping<3>::InternalDataBase"* dereferenceable(40), %"class.std::vector.58"* dereferenceable(24), %"class.std::vector.0"* dereferenceable(24)) unnamed_addr #0 comdat align 2 {
  %7 = alloca %class.MappingQ*, align 8
  %8 = alloca %class.TriaIterator.118*, align 8
  %9 = alloca %class.Quadrature*, align 8
  %10 = alloca %"class.Mapping<3>::InternalDataBase"*, align 8
  %11 = alloca %"class.std::vector.58"*, align 8
  %12 = alloca %"class.std::vector.0"*, align 8
  %13 = alloca %"class.MappingQ<3>::InternalData"*, align 8
  %14 = alloca %"class.MappingQ1<3>::InternalData"*, align 8
  store %class.MappingQ* %0, %class.MappingQ** %7, align 8
  store %class.TriaIterator.118* %1, %class.TriaIterator.118** %8, align 8
  store %class.Quadrature* %2, %class.Quadrature** %9, align 8
  store %"class.Mapping<3>::InternalDataBase"* %3, %"class.Mapping<3>::InternalDataBase"** %10, align 8
  store %"class.std::vector.58"* %4, %"class.std::vector.58"** %11, align 8
  store %"class.std::vector.0"* %5, %"class.std::vector.0"** %12, align 8
  %15 = load %class.MappingQ*, %class.MappingQ** %7, align 8
  %16 = load %"class.Mapping<3>::InternalDataBase"*, %"class.Mapping<3>::InternalDataBase"** %10, align 8
  %17 = bitcast %"class.Mapping<3>::InternalDataBase"* %16 to i8*
  %18 = call i8* @__dynamic_cast(i8* %17, i8* bitcast ({ i8*, i8*, i8* }* @_ZTIN7MappingILi3EE16InternalDataBaseE to i8*), i8* bitcast ({ i8*, i8*, i8* }* @_ZTIN8MappingQILi3EE12InternalDataE to i8*), i64 0) #2
  %19 = bitcast i8* %18 to %"class.MappingQ<3>::InternalData"*
  %20 = icmp eq %"class.MappingQ<3>::InternalData"* %19, null
  br i1 %20, label %21, label %22

; <label>:21:                                     ; preds = %6
  call void @__cxa_bad_cast() #15
  unreachable

; <label>:22:                                     ; preds = %6
  store %"class.MappingQ<3>::InternalData"* %19, %"class.MappingQ<3>::InternalData"** %13, align 8
  %23 = load %class.TriaIterator.118*, %class.TriaIterator.118** %8, align 8
  %24 = bitcast %class.TriaIterator.118* %23 to %class.TriaRawIterator.119*
  %25 = call %class.DoFCellAccessor* @_ZNK15TriaRawIteratorILi3E15DoFCellAccessorILi3EEEptEv(%class.TriaRawIterator.119* %24)
  %26 = bitcast %class.DoFCellAccessor* %25 to i8*
  %27 = getelementptr inbounds i8, i8* %26, i64 8
  %28 = bitcast i8* %27 to %class.CellAccessor*
  %29 = call zeroext i1 @_ZNK12CellAccessorILi3EE18has_boundary_linesEv(%class.CellAccessor* %28)
  %30 = xor i1 %29, true
  %31 = load %"class.MappingQ<3>::InternalData"*, %"class.MappingQ<3>::InternalData"** %13, align 8
  %32 = getelementptr inbounds %"class.MappingQ<3>::InternalData", %"class.MappingQ<3>::InternalData"* %31, i32 0, i32 2
  %33 = zext i1 %30 to i8
  store i8 %33, i8* %32, align 8
  store %"class.MappingQ1<3>::InternalData"* null, %"class.MappingQ1<3>::InternalData"** %14, align 8
  %34 = load %"class.MappingQ<3>::InternalData"*, %"class.MappingQ<3>::InternalData"** %13, align 8
  %35 = getelementptr inbounds %"class.MappingQ<3>::InternalData", %"class.MappingQ<3>::InternalData"* %34, i32 0, i32 2
  %36 = load i8, i8* %35, align 8
  %37 = trunc i8 %36 to i1
  br i1 %37, label %38, label %41

; <label>:38:                                     ; preds = %22
  %39 = load %"class.MappingQ<3>::InternalData"*, %"class.MappingQ<3>::InternalData"** %13, align 8
  %40 = getelementptr inbounds %"class.MappingQ<3>::InternalData", %"class.MappingQ<3>::InternalData"* %39, i32 0, i32 3
  store %"class.MappingQ1<3>::InternalData"* %40, %"class.MappingQ1<3>::InternalData"** %14, align 8
  br label %44

; <label>:41:                                     ; preds = %22
  %42 = load %"class.MappingQ<3>::InternalData"*, %"class.MappingQ<3>::InternalData"** %13, align 8
  %43 = bitcast %"class.MappingQ<3>::InternalData"* %42 to %"class.MappingQ1<3>::InternalData"*
  store %"class.MappingQ1<3>::InternalData"* %43, %"class.MappingQ1<3>::InternalData"** %14, align 8
  br label %44

; <label>:44:                                     ; preds = %41, %38
  %45 = bitcast %class.MappingQ* %15 to %class.MappingQ1*
  %46 = load %class.TriaIterator.118*, %class.TriaIterator.118** %8, align 8
  %47 = load %class.Quadrature*, %class.Quadrature** %9, align 8
  %48 = load %"class.MappingQ1<3>::InternalData"*, %"class.MappingQ1<3>::InternalData"** %14, align 8
  %49 = bitcast %"class.MappingQ1<3>::InternalData"* %48 to %"class.Mapping<3>::InternalDataBase"*
  %50 = load %"class.std::vector.58"*, %"class.std::vector.58"** %11, align 8
  %51 = load %"class.std::vector.0"*, %"class.std::vector.0"** %12, align 8
  call void @_ZNK9MappingQ1ILi3EE14fill_fe_valuesERK12TriaIteratorILi3E15DoFCellAccessorILi3EEERK10QuadratureILi3EERN7MappingILi3EE16InternalDataBaseERSt6vectorI5PointILi3EESaISH_EERSF_IdSaIdEE(%class.MappingQ1* %45, %class.TriaIterator.118* dereferenceable(24) %46, %class.Quadrature* dereferenceable(80) %47, %"class.Mapping<3>::InternalDataBase"* dereferenceable(40) %49, %"class.std::vector.58"* dereferenceable(24) %50, %"class.std::vector.0"* dereferenceable(24) %51)
  ret void
}

declare void @__cxa_bad_cast()

; Function Attrs: noinline uwtable
define linkonce_odr %class.DoFCellAccessor* @_ZNK15TriaRawIteratorILi3E15DoFCellAccessorILi3EEEptEv(%class.TriaRawIterator.119*) #0 comdat align 2 {
  %2 = alloca %class.TriaRawIterator.119*, align 8
  store %class.TriaRawIterator.119* %0, %class.TriaRawIterator.119** %2, align 8
  %3 = load %class.TriaRawIterator.119*, %class.TriaRawIterator.119** %2, align 8
  %4 = call dereferenceable(24) %class.DoFCellAccessor* @_ZNK15TriaRawIteratorILi3E15DoFCellAccessorILi3EEEdeEv(%class.TriaRawIterator.119* %3)
  ret %class.DoFCellAccessor* %4
}

declare void @_ZNK9MappingQ1ILi3EE14fill_fe_valuesERK12TriaIteratorILi3E15DoFCellAccessorILi3EEERK10QuadratureILi3EERN7MappingILi3EE16InternalDataBaseERSt6vectorI5PointILi3EESaISH_EERSF_IdSaIdEE(%class.MappingQ1*, %class.TriaIterator.118* dereferenceable(24), %class.Quadrature* dereferenceable(80), %"class.Mapping<3>::InternalDataBase"* dereferenceable(40), %"class.std::vector.58"* dereferenceable(24), %"class.std::vector.0"* dereferenceable(24)) unnamed_addr #3

; Function Attrs: noinline uwtable
define weak_odr void @_ZNK8MappingQILi3EE19fill_fe_face_valuesERK12TriaIteratorILi3E15DoFCellAccessorILi3EEEjRK10QuadratureILi2EERN7MappingILi3EE16InternalDataBaseERSt6vectorI5PointILi3EESaISH_EERSF_IdSaIdEERSF_I6TensorILi1ELi3EESaISP_EESK_(%class.MappingQ*, %class.TriaIterator.118* dereferenceable(24), i32, %class.Quadrature.135* dereferenceable(80), %"class.Mapping<3>::InternalDataBase"* dereferenceable(40), %"class.std::vector.58"* dereferenceable(24), %"class.std::vector.0"* dereferenceable(24), %"class.std::vector.103"* dereferenceable(24), %"class.std::vector.58"* dereferenceable(24)) unnamed_addr #0 comdat align 2 {
  %10 = alloca %class.MappingQ*, align 8
  %11 = alloca %class.TriaIterator.118*, align 8
  %12 = alloca i32, align 4
  %13 = alloca %class.Quadrature.135*, align 8
  %14 = alloca %"class.Mapping<3>::InternalDataBase"*, align 8
  %15 = alloca %"class.std::vector.58"*, align 8
  %16 = alloca %"class.std::vector.0"*, align 8
  %17 = alloca %"class.std::vector.103"*, align 8
  %18 = alloca %"class.std::vector.58"*, align 8
  %19 = alloca %"class.MappingQ<3>::InternalData"*, align 8
  %20 = alloca %"class.MappingQ1<3>::InternalData"*, align 8
  %21 = alloca i32, align 4
  %22 = alloca %"class.QProjector<3>::DataSetDescriptor", align 4
  store %class.MappingQ* %0, %class.MappingQ** %10, align 8
  store %class.TriaIterator.118* %1, %class.TriaIterator.118** %11, align 8
  store i32 %2, i32* %12, align 4
  store %class.Quadrature.135* %3, %class.Quadrature.135** %13, align 8
  store %"class.Mapping<3>::InternalDataBase"* %4, %"class.Mapping<3>::InternalDataBase"** %14, align 8
  store %"class.std::vector.58"* %5, %"class.std::vector.58"** %15, align 8
  store %"class.std::vector.0"* %6, %"class.std::vector.0"** %16, align 8
  store %"class.std::vector.103"* %7, %"class.std::vector.103"** %17, align 8
  store %"class.std::vector.58"* %8, %"class.std::vector.58"** %18, align 8
  %23 = load %class.MappingQ*, %class.MappingQ** %10, align 8
  %24 = load %"class.Mapping<3>::InternalDataBase"*, %"class.Mapping<3>::InternalDataBase"** %14, align 8
  %25 = bitcast %"class.Mapping<3>::InternalDataBase"* %24 to i8*
  %26 = call i8* @__dynamic_cast(i8* %25, i8* bitcast ({ i8*, i8*, i8* }* @_ZTIN7MappingILi3EE16InternalDataBaseE to i8*), i8* bitcast ({ i8*, i8*, i8* }* @_ZTIN8MappingQILi3EE12InternalDataE to i8*), i64 0) #2
  %27 = bitcast i8* %26 to %"class.MappingQ<3>::InternalData"*
  %28 = icmp eq %"class.MappingQ<3>::InternalData"* %27, null
  br i1 %28, label %29, label %30

; <label>:29:                                     ; preds = %9
  call void @__cxa_bad_cast() #15
  unreachable

; <label>:30:                                     ; preds = %9
  store %"class.MappingQ<3>::InternalData"* %27, %"class.MappingQ<3>::InternalData"** %19, align 8
  %31 = load %class.TriaIterator.118*, %class.TriaIterator.118** %11, align 8
  %32 = bitcast %class.TriaIterator.118* %31 to %class.TriaRawIterator.119*
  %33 = call %class.DoFCellAccessor* @_ZNK15TriaRawIteratorILi3E15DoFCellAccessorILi3EEEptEv(%class.TriaRawIterator.119* %32)
  %34 = bitcast %class.DoFCellAccessor* %33 to i8*
  %35 = getelementptr inbounds i8, i8* %34, i64 8
  %36 = bitcast i8* %35 to %class.CellAccessor*
  %37 = call zeroext i1 @_ZNK12CellAccessorILi3EE18has_boundary_linesEv(%class.CellAccessor* %36)
  %38 = xor i1 %37, true
  %39 = load %"class.MappingQ<3>::InternalData"*, %"class.MappingQ<3>::InternalData"** %19, align 8
  %40 = getelementptr inbounds %"class.MappingQ<3>::InternalData", %"class.MappingQ<3>::InternalData"* %39, i32 0, i32 2
  %41 = zext i1 %38 to i8
  store i8 %41, i8* %40, align 8
  store %"class.MappingQ1<3>::InternalData"* null, %"class.MappingQ1<3>::InternalData"** %20, align 8
  %42 = load %"class.MappingQ<3>::InternalData"*, %"class.MappingQ<3>::InternalData"** %19, align 8
  %43 = getelementptr inbounds %"class.MappingQ<3>::InternalData", %"class.MappingQ<3>::InternalData"* %42, i32 0, i32 2
  %44 = load i8, i8* %43, align 8
  %45 = trunc i8 %44 to i1
  br i1 %45, label %46, label %49

; <label>:46:                                     ; preds = %30
  %47 = load %"class.MappingQ<3>::InternalData"*, %"class.MappingQ<3>::InternalData"** %19, align 8
  %48 = getelementptr inbounds %"class.MappingQ<3>::InternalData", %"class.MappingQ<3>::InternalData"* %47, i32 0, i32 3
  store %"class.MappingQ1<3>::InternalData"* %48, %"class.MappingQ1<3>::InternalData"** %20, align 8
  br label %52

; <label>:49:                                     ; preds = %30
  %50 = load %"class.MappingQ<3>::InternalData"*, %"class.MappingQ<3>::InternalData"** %19, align 8
  %51 = bitcast %"class.MappingQ<3>::InternalData"* %50 to %"class.MappingQ1<3>::InternalData"*
  store %"class.MappingQ1<3>::InternalData"* %51, %"class.MappingQ1<3>::InternalData"** %20, align 8
  br label %52

; <label>:52:                                     ; preds = %49, %46
  %53 = load %class.Quadrature.135*, %class.Quadrature.135** %13, align 8
  %54 = getelementptr inbounds %class.Quadrature.135, %class.Quadrature.135* %53, i32 0, i32 1
  %55 = load i32, i32* %54, align 8
  store i32 %55, i32* %21, align 4
  %56 = bitcast %class.MappingQ* %23 to %class.MappingQ1*
  %57 = load %class.TriaIterator.118*, %class.TriaIterator.118** %11, align 8
  %58 = load i32, i32* %12, align 4
  %59 = load i32, i32* %21, align 4
  %60 = load i32, i32* %12, align 4
  %61 = load %class.TriaIterator.118*, %class.TriaIterator.118** %11, align 8
  %62 = bitcast %class.TriaIterator.118* %61 to %class.TriaRawIterator.119*
  %63 = call %class.DoFCellAccessor* @_ZNK15TriaRawIteratorILi3E15DoFCellAccessorILi3EEEptEv(%class.TriaRawIterator.119* %62)
  %64 = bitcast %class.DoFCellAccessor* %63 to i8*
  %65 = getelementptr inbounds i8, i8* %64, i64 8
  %66 = bitcast i8* %65 to %class.TriaObjectAccessor*
  %67 = load i32, i32* %12, align 4
  %68 = call zeroext i1 @_ZNK18TriaObjectAccessorILi3ELi3EE16face_orientationEj(%class.TriaObjectAccessor* %66, i32 %67)
  %69 = load i32, i32* %21, align 4
  %70 = call i32 @_ZN10QProjectorILi3EE17DataSetDescriptor4faceEjbj(i32 %60, i1 zeroext %68, i32 %69)
  %71 = getelementptr inbounds %"class.QProjector<3>::DataSetDescriptor", %"class.QProjector<3>::DataSetDescriptor"* %22, i32 0, i32 0
  store i32 %70, i32* %71, align 4
  %72 = load %class.Quadrature.135*, %class.Quadrature.135** %13, align 8
  %73 = call dereferenceable(24) %"class.std::vector.0"* @_ZNK10QuadratureILi2EE11get_weightsEv(%class.Quadrature.135* %72)
  %74 = load %"class.MappingQ1<3>::InternalData"*, %"class.MappingQ1<3>::InternalData"** %20, align 8
  %75 = load %"class.std::vector.58"*, %"class.std::vector.58"** %15, align 8
  %76 = load %"class.std::vector.0"*, %"class.std::vector.0"** %16, align 8
  %77 = load %"class.std::vector.103"*, %"class.std::vector.103"** %17, align 8
  %78 = load %"class.std::vector.58"*, %"class.std::vector.58"** %18, align 8
  %79 = getelementptr inbounds %"class.QProjector<3>::DataSetDescriptor", %"class.QProjector<3>::DataSetDescriptor"* %22, i32 0, i32 0
  %80 = load i32, i32* %79, align 4
  call void @_ZNK9MappingQ1ILi3EE17compute_fill_faceERK12TriaIteratorILi3E15DoFCellAccessorILi3EEEjbjN10QProjectorILi3EE17DataSetDescriptorERKSt6vectorIdSaIdEERNS0_12InternalDataERSA_I5PointILi3EESaISI_EERSC_RSA_I6TensorILi1ELi3EESaISO_EESL_(%class.MappingQ1* %56, %class.TriaIterator.118* dereferenceable(24) %57, i32 %58, i1 zeroext false, i32 %59, i32 %80, %"class.std::vector.0"* dereferenceable(24) %73, %"class.MappingQ1<3>::InternalData"* dereferenceable(288) %74, %"class.std::vector.58"* dereferenceable(24) %75, %"class.std::vector.0"* dereferenceable(24) %76, %"class.std::vector.103"* dereferenceable(24) %77, %"class.std::vector.58"* dereferenceable(24) %78)
  ret void
}

declare void @_ZNK9MappingQ1ILi3EE17compute_fill_faceERK12TriaIteratorILi3E15DoFCellAccessorILi3EEEjbjN10QProjectorILi3EE17DataSetDescriptorERKSt6vectorIdSaIdEERNS0_12InternalDataERSA_I5PointILi3EESaISI_EERSC_RSA_I6TensorILi1ELi3EESaISO_EESL_(%class.MappingQ1*, %class.TriaIterator.118* dereferenceable(24), i32, i1 zeroext, i32, i32, %"class.std::vector.0"* dereferenceable(24), %"class.MappingQ1<3>::InternalData"* dereferenceable(288), %"class.std::vector.58"* dereferenceable(24), %"class.std::vector.0"* dereferenceable(24), %"class.std::vector.103"* dereferenceable(24), %"class.std::vector.58"* dereferenceable(24)) #3

declare i32 @_ZN10QProjectorILi3EE17DataSetDescriptor4faceEjbj(i32, i1 zeroext, i32) #3

declare dereferenceable(24) %"class.std::vector.0"* @_ZNK10QuadratureILi2EE11get_weightsEv(%class.Quadrature.135*) #3

; Function Attrs: noinline uwtable
define weak_odr void @_ZNK8MappingQILi3EE22fill_fe_subface_valuesERK12TriaIteratorILi3E15DoFCellAccessorILi3EEEjjRK10QuadratureILi2EERN7MappingILi3EE16InternalDataBaseERSt6vectorI5PointILi3EESaISH_EERSF_IdSaIdEERSF_I6TensorILi1ELi3EESaISP_EESK_(%class.MappingQ*, %class.TriaIterator.118* dereferenceable(24), i32, i32, %class.Quadrature.135* dereferenceable(80), %"class.Mapping<3>::InternalDataBase"* dereferenceable(40), %"class.std::vector.58"* dereferenceable(24), %"class.std::vector.0"* dereferenceable(24), %"class.std::vector.103"* dereferenceable(24), %"class.std::vector.58"* dereferenceable(24)) unnamed_addr #0 comdat align 2 {
  %11 = alloca %class.MappingQ*, align 8
  %12 = alloca %class.TriaIterator.118*, align 8
  %13 = alloca i32, align 4
  %14 = alloca i32, align 4
  %15 = alloca %class.Quadrature.135*, align 8
  %16 = alloca %"class.Mapping<3>::InternalDataBase"*, align 8
  %17 = alloca %"class.std::vector.58"*, align 8
  %18 = alloca %"class.std::vector.0"*, align 8
  %19 = alloca %"class.std::vector.103"*, align 8
  %20 = alloca %"class.std::vector.58"*, align 8
  %21 = alloca %"class.MappingQ<3>::InternalData"*, align 8
  %22 = alloca %"class.MappingQ1<3>::InternalData"*, align 8
  %23 = alloca i32, align 4
  %24 = alloca %"class.QProjector<3>::DataSetDescriptor", align 4
  store %class.MappingQ* %0, %class.MappingQ** %11, align 8
  store %class.TriaIterator.118* %1, %class.TriaIterator.118** %12, align 8
  store i32 %2, i32* %13, align 4
  store i32 %3, i32* %14, align 4
  store %class.Quadrature.135* %4, %class.Quadrature.135** %15, align 8
  store %"class.Mapping<3>::InternalDataBase"* %5, %"class.Mapping<3>::InternalDataBase"** %16, align 8
  store %"class.std::vector.58"* %6, %"class.std::vector.58"** %17, align 8
  store %"class.std::vector.0"* %7, %"class.std::vector.0"** %18, align 8
  store %"class.std::vector.103"* %8, %"class.std::vector.103"** %19, align 8
  store %"class.std::vector.58"* %9, %"class.std::vector.58"** %20, align 8
  %25 = load %class.MappingQ*, %class.MappingQ** %11, align 8
  %26 = load %"class.Mapping<3>::InternalDataBase"*, %"class.Mapping<3>::InternalDataBase"** %16, align 8
  %27 = bitcast %"class.Mapping<3>::InternalDataBase"* %26 to i8*
  %28 = call i8* @__dynamic_cast(i8* %27, i8* bitcast ({ i8*, i8*, i8* }* @_ZTIN7MappingILi3EE16InternalDataBaseE to i8*), i8* bitcast ({ i8*, i8*, i8* }* @_ZTIN8MappingQILi3EE12InternalDataE to i8*), i64 0) #2
  %29 = bitcast i8* %28 to %"class.MappingQ<3>::InternalData"*
  %30 = icmp eq %"class.MappingQ<3>::InternalData"* %29, null
  br i1 %30, label %31, label %32

; <label>:31:                                     ; preds = %10
  call void @__cxa_bad_cast() #15
  unreachable

; <label>:32:                                     ; preds = %10
  store %"class.MappingQ<3>::InternalData"* %29, %"class.MappingQ<3>::InternalData"** %21, align 8
  %33 = load %class.TriaIterator.118*, %class.TriaIterator.118** %12, align 8
  %34 = bitcast %class.TriaIterator.118* %33 to %class.TriaRawIterator.119*
  %35 = call %class.DoFCellAccessor* @_ZNK15TriaRawIteratorILi3E15DoFCellAccessorILi3EEEptEv(%class.TriaRawIterator.119* %34)
  %36 = bitcast %class.DoFCellAccessor* %35 to i8*
  %37 = getelementptr inbounds i8, i8* %36, i64 8
  %38 = bitcast i8* %37 to %class.CellAccessor*
  %39 = call zeroext i1 @_ZNK12CellAccessorILi3EE18has_boundary_linesEv(%class.CellAccessor* %38)
  %40 = xor i1 %39, true
  %41 = load %"class.MappingQ<3>::InternalData"*, %"class.MappingQ<3>::InternalData"** %21, align 8
  %42 = getelementptr inbounds %"class.MappingQ<3>::InternalData", %"class.MappingQ<3>::InternalData"* %41, i32 0, i32 2
  %43 = zext i1 %40 to i8
  store i8 %43, i8* %42, align 8
  store %"class.MappingQ1<3>::InternalData"* null, %"class.MappingQ1<3>::InternalData"** %22, align 8
  %44 = load %"class.MappingQ<3>::InternalData"*, %"class.MappingQ<3>::InternalData"** %21, align 8
  %45 = getelementptr inbounds %"class.MappingQ<3>::InternalData", %"class.MappingQ<3>::InternalData"* %44, i32 0, i32 2
  %46 = load i8, i8* %45, align 8
  %47 = trunc i8 %46 to i1
  br i1 %47, label %48, label %51

; <label>:48:                                     ; preds = %32
  %49 = load %"class.MappingQ<3>::InternalData"*, %"class.MappingQ<3>::InternalData"** %21, align 8
  %50 = getelementptr inbounds %"class.MappingQ<3>::InternalData", %"class.MappingQ<3>::InternalData"* %49, i32 0, i32 3
  store %"class.MappingQ1<3>::InternalData"* %50, %"class.MappingQ1<3>::InternalData"** %22, align 8
  br label %54

; <label>:51:                                     ; preds = %32
  %52 = load %"class.MappingQ<3>::InternalData"*, %"class.MappingQ<3>::InternalData"** %21, align 8
  %53 = bitcast %"class.MappingQ<3>::InternalData"* %52 to %"class.MappingQ1<3>::InternalData"*
  store %"class.MappingQ1<3>::InternalData"* %53, %"class.MappingQ1<3>::InternalData"** %22, align 8
  br label %54

; <label>:54:                                     ; preds = %51, %48
  %55 = load %class.Quadrature.135*, %class.Quadrature.135** %15, align 8
  %56 = getelementptr inbounds %class.Quadrature.135, %class.Quadrature.135* %55, i32 0, i32 1
  %57 = load i32, i32* %56, align 8
  store i32 %57, i32* %23, align 4
  %58 = bitcast %class.MappingQ* %25 to %class.MappingQ1*
  %59 = load %class.TriaIterator.118*, %class.TriaIterator.118** %12, align 8
  %60 = load i32, i32* %13, align 4
  %61 = load i32, i32* %23, align 4
  %62 = load i32, i32* %13, align 4
  %63 = load i32, i32* %14, align 4
  %64 = load %class.TriaIterator.118*, %class.TriaIterator.118** %12, align 8
  %65 = bitcast %class.TriaIterator.118* %64 to %class.TriaRawIterator.119*
  %66 = call %class.DoFCellAccessor* @_ZNK15TriaRawIteratorILi3E15DoFCellAccessorILi3EEEptEv(%class.TriaRawIterator.119* %65)
  %67 = bitcast %class.DoFCellAccessor* %66 to i8*
  %68 = getelementptr inbounds i8, i8* %67, i64 8
  %69 = bitcast i8* %68 to %class.TriaObjectAccessor*
  %70 = load i32, i32* %13, align 4
  %71 = call zeroext i1 @_ZNK18TriaObjectAccessorILi3ELi3EE16face_orientationEj(%class.TriaObjectAccessor* %69, i32 %70)
  %72 = load i32, i32* %23, align 4
  %73 = call i32 @_ZN10QProjectorILi3EE17DataSetDescriptor8sub_faceEjjbj(i32 %62, i32 %63, i1 zeroext %71, i32 %72)
  %74 = getelementptr inbounds %"class.QProjector<3>::DataSetDescriptor", %"class.QProjector<3>::DataSetDescriptor"* %24, i32 0, i32 0
  store i32 %73, i32* %74, align 4
  %75 = load %class.Quadrature.135*, %class.Quadrature.135** %15, align 8
  %76 = call dereferenceable(24) %"class.std::vector.0"* @_ZNK10QuadratureILi2EE11get_weightsEv(%class.Quadrature.135* %75)
  %77 = load %"class.MappingQ1<3>::InternalData"*, %"class.MappingQ1<3>::InternalData"** %22, align 8
  %78 = load %"class.std::vector.58"*, %"class.std::vector.58"** %17, align 8
  %79 = load %"class.std::vector.0"*, %"class.std::vector.0"** %18, align 8
  %80 = load %"class.std::vector.103"*, %"class.std::vector.103"** %19, align 8
  %81 = load %"class.std::vector.58"*, %"class.std::vector.58"** %20, align 8
  %82 = getelementptr inbounds %"class.QProjector<3>::DataSetDescriptor", %"class.QProjector<3>::DataSetDescriptor"* %24, i32 0, i32 0
  %83 = load i32, i32* %82, align 4
  call void @_ZNK9MappingQ1ILi3EE17compute_fill_faceERK12TriaIteratorILi3E15DoFCellAccessorILi3EEEjbjN10QProjectorILi3EE17DataSetDescriptorERKSt6vectorIdSaIdEERNS0_12InternalDataERSA_I5PointILi3EESaISI_EERSC_RSA_I6TensorILi1ELi3EESaISO_EESL_(%class.MappingQ1* %58, %class.TriaIterator.118* dereferenceable(24) %59, i32 %60, i1 zeroext true, i32 %61, i32 %83, %"class.std::vector.0"* dereferenceable(24) %76, %"class.MappingQ1<3>::InternalData"* dereferenceable(288) %77, %"class.std::vector.58"* dereferenceable(24) %78, %"class.std::vector.0"* dereferenceable(24) %79, %"class.std::vector.103"* dereferenceable(24) %80, %"class.std::vector.58"* dereferenceable(24) %81)
  ret void
}

declare i32 @_ZN10QProjectorILi3EE17DataSetDescriptor8sub_faceEjjbj(i32, i32, i1 zeroext, i32) #3

; Function Attrs: noinline uwtable
define weak_odr void @_ZNK8MappingQILi3EE23add_line_support_pointsERK12TriaIteratorILi3E12CellAccessorILi3EEERSt6vectorI5PointILi3EESaIS9_EE(%class.MappingQ*, %class.TriaIterator* dereferenceable(16), %"class.std::vector.58"* dereferenceable(24)) unnamed_addr #0 comdat align 2 personality i8* bitcast (i32 (...)* @__gxx_personality_v0 to i8*) {
  %4 = alloca %class.MappingQ*, align 8
  %5 = alloca %class.TriaIterator*, align 8
  %6 = alloca %"class.std::vector.58"*, align 8
  %7 = alloca i8*
  %8 = alloca i32
  %9 = alloca i32, align 4
  %10 = alloca %class.TriaIterator.69, align 8
  %11 = alloca %class.Boundary*, align 8
  %12 = alloca %class.Point, align 8
  %13 = alloca %"class.std::vector.58", align 8
  %14 = alloca %class.Point, align 8
  %15 = alloca %"class.std::allocator.60", align 1
  %16 = alloca i32, align 4
  %17 = alloca %class.TriaIterator.69, align 8
  %18 = alloca %class.Boundary*, align 8
  %19 = alloca %"class.__gnu_cxx::__normal_iterator", align 8
  %20 = alloca %"class.__gnu_cxx::__normal_iterator", align 8
  %21 = alloca %"class.__gnu_cxx::__normal_iterator", align 8
  store %class.MappingQ* %0, %class.MappingQ** %4, align 8
  store %class.TriaIterator* %1, %class.TriaIterator** %5, align 8
  store %"class.std::vector.58"* %2, %"class.std::vector.58"** %6, align 8
  %22 = load %class.MappingQ*, %class.MappingQ** %4, align 8
  %23 = load atomic i8, i8* bitcast (i64* @_ZGVZNK8MappingQILi3EE23add_line_support_pointsERK12TriaIteratorILi3E12CellAccessorILi3EEERSt6vectorI5PointILi3EESaIS9_EEE17straight_boundary to i8*) acquire, align 8
  %24 = icmp eq i8 %23, 0
  br i1 %24, label %25, label %31

; <label>:25:                                     ; preds = %3
  %26 = call i32 @__cxa_guard_acquire(i64* @_ZGVZNK8MappingQILi3EE23add_line_support_pointsERK12TriaIteratorILi3E12CellAccessorILi3EEERSt6vectorI5PointILi3EESaIS9_EEE17straight_boundary) #2
  %27 = icmp ne i32 %26, 0
  br i1 %27, label %28, label %31

; <label>:28:                                     ; preds = %25
  invoke void @_ZN16StraightBoundaryILi3EEC1Ev(%class.StraightBoundary* @_ZZNK8MappingQILi3EE23add_line_support_pointsERK12TriaIteratorILi3E12CellAccessorILi3EEERSt6vectorI5PointILi3EESaIS9_EEE17straight_boundary)
          to label %29 unwind label %70

; <label>:29:                                     ; preds = %28
  %30 = call i32 @__cxa_atexit(void (i8*)* bitcast (void (%class.StraightBoundary*)* @_ZN16StraightBoundaryILi3EED2Ev to void (i8*)*), i8* bitcast (%class.StraightBoundary* @_ZZNK8MappingQILi3EE23add_line_support_pointsERK12TriaIteratorILi3E12CellAccessorILi3EEERSt6vectorI5PointILi3EESaIS9_EEE17straight_boundary to i8*), i8* @__dso_handle) #2
  call void @__cxa_guard_release(i64* @_ZGVZNK8MappingQILi3EE23add_line_support_pointsERK12TriaIteratorILi3E12CellAccessorILi3EEERSt6vectorI5PointILi3EESaIS9_EEE17straight_boundary) #2
  br label %31

; <label>:31:                                     ; preds = %29, %25, %3
  %32 = getelementptr inbounds %class.MappingQ, %class.MappingQ* %22, i32 0, i32 3
  %33 = load i32, i32* %32, align 8
  %34 = icmp eq i32 %33, 2
  br i1 %34, label %35, label %75

; <label>:35:                                     ; preds = %31
  store i32 0, i32* %9, align 4
  br label %36

; <label>:36:                                     ; preds = %67, %35
  %37 = load i32, i32* %9, align 4
  %38 = icmp ult i32 %37, 12
  br i1 %38, label %39, label %74

; <label>:39:                                     ; preds = %36
  %40 = load %class.TriaIterator*, %class.TriaIterator** %5, align 8
  %41 = bitcast %class.TriaIterator* %40 to %class.TriaRawIterator*
  %42 = call %class.CellAccessor* @_ZNK15TriaRawIteratorILi3E12CellAccessorILi3EEEptEv(%class.TriaRawIterator* %41)
  %43 = bitcast %class.CellAccessor* %42 to %class.TriaObjectAccessor*
  %44 = load i32, i32* %9, align 4
  call void @_ZNK18TriaObjectAccessorILi3ELi3EE4lineEj(%class.TriaIterator.69* sret %10, %class.TriaObjectAccessor* %43, i32 %44)
  %45 = bitcast %class.TriaIterator.69* %10 to %class.TriaRawIterator.70*
  %46 = call %class.TriaObjectAccessor.72* @_ZNK15TriaRawIteratorILi3E18TriaObjectAccessorILi1ELi3EEEptEv(%class.TriaRawIterator.70* %45)
  %47 = call zeroext i1 @_ZNK18TriaObjectAccessorILi1ELi3EE11at_boundaryEv(%class.TriaObjectAccessor.72* %46)
  br i1 %47, label %48, label %58

; <label>:48:                                     ; preds = %39
  %49 = bitcast %class.TriaIterator.69* %10 to %class.TriaRawIterator.70*
  %50 = call %class.TriaObjectAccessor.72* @_ZNK15TriaRawIteratorILi3E18TriaObjectAccessorILi1ELi3EEEptEv(%class.TriaRawIterator.70* %49)
  %51 = bitcast %class.TriaObjectAccessor.72* %50 to %class.TriaAccessor*
  %52 = call dereferenceable(2352) %class.Triangulation* @_ZNK12TriaAccessorILi3EE17get_triangulationEv(%class.TriaAccessor* %51)
  %53 = bitcast %class.TriaIterator.69* %10 to %class.TriaRawIterator.70*
  %54 = call %class.TriaObjectAccessor.72* @_ZNK15TriaRawIteratorILi3E18TriaObjectAccessorILi1ELi3EEEptEv(%class.TriaRawIterator.70* %53)
  %55 = call zeroext i8 @_ZNK18TriaObjectAccessorILi1ELi3EE18boundary_indicatorEv(%class.TriaObjectAccessor.72* %54)
  %56 = zext i8 %55 to i32
  %57 = call dereferenceable(24) %class.Boundary* @_ZNK13TriangulationILi3EE12get_boundaryEj(%class.Triangulation* %52, i32 %56)
  br label %59

; <label>:58:                                     ; preds = %39
  br label %59

; <label>:59:                                     ; preds = %58, %48
  %60 = phi %class.Boundary* [ %57, %48 ], [ getelementptr inbounds (%class.StraightBoundary, %class.StraightBoundary* @_ZZNK8MappingQILi3EE23add_line_support_pointsERK12TriaIteratorILi3E12CellAccessorILi3EEERSt6vectorI5PointILi3EESaIS9_EEE17straight_boundary, i32 0, i32 0), %58 ]
  store %class.Boundary* %60, %class.Boundary** %11, align 8
  %61 = load %"class.std::vector.58"*, %"class.std::vector.58"** %6, align 8
  %62 = load %class.Boundary*, %class.Boundary** %11, align 8
  %63 = bitcast %class.Boundary* %62 to void (%class.Point*, %class.Boundary*, %class.TriaIterator.69*)***
  %64 = load void (%class.Point*, %class.Boundary*, %class.TriaIterator.69*)**, void (%class.Point*, %class.Boundary*, %class.TriaIterator.69*)*** %63, align 8
  %65 = getelementptr inbounds void (%class.Point*, %class.Boundary*, %class.TriaIterator.69*)*, void (%class.Point*, %class.Boundary*, %class.TriaIterator.69*)** %64, i64 2
  %66 = load void (%class.Point*, %class.Boundary*, %class.TriaIterator.69*)*, void (%class.Point*, %class.Boundary*, %class.TriaIterator.69*)** %65, align 8
  call void %66(%class.Point* sret %12, %class.Boundary* %62, %class.TriaIterator.69* dereferenceable(16) %10)
  call void @_ZNSt6vectorI5PointILi3EESaIS1_EE9push_backERKS1_(%"class.std::vector.58"* %61, %class.Point* dereferenceable(24) %12)
  br label %67

; <label>:67:                                     ; preds = %59
  %68 = load i32, i32* %9, align 4
  %69 = add i32 %68, 1
  store i32 %69, i32* %9, align 4
  br label %36

; <label>:70:                                     ; preds = %28
  %71 = landingpad { i8*, i32 }
          cleanup
  %72 = extractvalue { i8*, i32 } %71, 0
  store i8* %72, i8** %7, align 8
  %73 = extractvalue { i8*, i32 } %71, 1
  store i32 %73, i32* %8, align 4
  call void @__cxa_guard_abort(i64* @_ZGVZNK8MappingQILi3EE23add_line_support_pointsERK12TriaIteratorILi3E12CellAccessorILi3EEERSt6vectorI5PointILi3EESaIS9_EEE17straight_boundary) #2
  br label %153

; <label>:74:                                     ; preds = %36
  br label %152

; <label>:75:                                     ; preds = %31
  %76 = getelementptr inbounds %class.MappingQ, %class.MappingQ* %22, i32 0, i32 3
  %77 = load i32, i32* %76, align 8
  %78 = sub i32 %77, 1
  %79 = zext i32 %78 to i64
  call void @_ZN5PointILi3EEC2Ev(%class.Point* %14)
  call void @_ZNSaI5PointILi3EEEC2Ev(%"class.std::allocator.60"* %15) #2
  invoke void @_ZNSt6vectorI5PointILi3EESaIS1_EEC2EmRKS1_RKS2_(%"class.std::vector.58"* %13, i64 %79, %class.Point* dereferenceable(24) %14, %"class.std::allocator.60"* dereferenceable(1) %15)
          to label %80 unwind label %142

; <label>:80:                                     ; preds = %75
  call void @_ZNSaI5PointILi3EEED2Ev(%"class.std::allocator.60"* %15) #2
  store i32 0, i32* %16, align 4
  br label %81

; <label>:81:                                     ; preds = %139, %80
  %82 = load i32, i32* %16, align 4
  %83 = icmp ult i32 %82, 12
  br i1 %83, label %84, label %150

; <label>:84:                                     ; preds = %81
  %85 = load %class.TriaIterator*, %class.TriaIterator** %5, align 8
  %86 = bitcast %class.TriaIterator* %85 to %class.TriaRawIterator*
  %87 = invoke %class.CellAccessor* @_ZNK15TriaRawIteratorILi3E12CellAccessorILi3EEEptEv(%class.TriaRawIterator* %86)
          to label %88 unwind label %146

; <label>:88:                                     ; preds = %84
  %89 = bitcast %class.CellAccessor* %87 to %class.TriaObjectAccessor*
  %90 = load i32, i32* %16, align 4
  invoke void @_ZNK18TriaObjectAccessorILi3ELi3EE4lineEj(%class.TriaIterator.69* sret %17, %class.TriaObjectAccessor* %89, i32 %90)
          to label %91 unwind label %146

; <label>:91:                                     ; preds = %88
  %92 = bitcast %class.TriaIterator.69* %17 to %class.TriaRawIterator.70*
  %93 = invoke %class.TriaObjectAccessor.72* @_ZNK15TriaRawIteratorILi3E18TriaObjectAccessorILi1ELi3EEEptEv(%class.TriaRawIterator.70* %92)
          to label %94 unwind label %146

; <label>:94:                                     ; preds = %91
  %95 = invoke zeroext i1 @_ZNK18TriaObjectAccessorILi1ELi3EE11at_boundaryEv(%class.TriaObjectAccessor.72* %93)
          to label %96 unwind label %146

; <label>:96:                                     ; preds = %94
  br i1 %95, label %97, label %112

; <label>:97:                                     ; preds = %96
  %98 = bitcast %class.TriaIterator.69* %17 to %class.TriaRawIterator.70*
  %99 = invoke %class.TriaObjectAccessor.72* @_ZNK15TriaRawIteratorILi3E18TriaObjectAccessorILi1ELi3EEEptEv(%class.TriaRawIterator.70* %98)
          to label %100 unwind label %146

; <label>:100:                                    ; preds = %97
  %101 = bitcast %class.TriaObjectAccessor.72* %99 to %class.TriaAccessor*
  %102 = invoke dereferenceable(2352) %class.Triangulation* @_ZNK12TriaAccessorILi3EE17get_triangulationEv(%class.TriaAccessor* %101)
          to label %103 unwind label %146

; <label>:103:                                    ; preds = %100
  %104 = bitcast %class.TriaIterator.69* %17 to %class.TriaRawIterator.70*
  %105 = invoke %class.TriaObjectAccessor.72* @_ZNK15TriaRawIteratorILi3E18TriaObjectAccessorILi1ELi3EEEptEv(%class.TriaRawIterator.70* %104)
          to label %106 unwind label %146

; <label>:106:                                    ; preds = %103
  %107 = invoke zeroext i8 @_ZNK18TriaObjectAccessorILi1ELi3EE18boundary_indicatorEv(%class.TriaObjectAccessor.72* %105)
          to label %108 unwind label %146

; <label>:108:                                    ; preds = %106
  %109 = zext i8 %107 to i32
  %110 = invoke dereferenceable(24) %class.Boundary* @_ZNK13TriangulationILi3EE12get_boundaryEj(%class.Triangulation* %102, i32 %109)
          to label %111 unwind label %146

; <label>:111:                                    ; preds = %108
  br label %113

; <label>:112:                                    ; preds = %96
  br label %113

; <label>:113:                                    ; preds = %112, %111
  %114 = phi %class.Boundary* [ %110, %111 ], [ getelementptr inbounds (%class.StraightBoundary, %class.StraightBoundary* @_ZZNK8MappingQILi3EE23add_line_support_pointsERK12TriaIteratorILi3E12CellAccessorILi3EEERSt6vectorI5PointILi3EESaIS9_EEE17straight_boundary, i32 0, i32 0), %112 ]
  store %class.Boundary* %114, %class.Boundary** %18, align 8
  %115 = load %class.Boundary*, %class.Boundary** %18, align 8
  %116 = bitcast %class.Boundary* %115 to void (%class.Boundary*, %class.TriaIterator.69*, %"class.std::vector.58"*)***
  %117 = load void (%class.Boundary*, %class.TriaIterator.69*, %"class.std::vector.58"*)**, void (%class.Boundary*, %class.TriaIterator.69*, %"class.std::vector.58"*)*** %116, align 8
  %118 = getelementptr inbounds void (%class.Boundary*, %class.TriaIterator.69*, %"class.std::vector.58"*)*, void (%class.Boundary*, %class.TriaIterator.69*, %"class.std::vector.58"*)** %117, i64 4
  %119 = load void (%class.Boundary*, %class.TriaIterator.69*, %"class.std::vector.58"*)*, void (%class.Boundary*, %class.TriaIterator.69*, %"class.std::vector.58"*)** %118, align 8
  invoke void %119(%class.Boundary* %115, %class.TriaIterator.69* dereferenceable(16) %17, %"class.std::vector.58"* dereferenceable(24) %13)
          to label %120 unwind label %146

; <label>:120:                                    ; preds = %113
  %121 = load %"class.std::vector.58"*, %"class.std::vector.58"** %6, align 8
  %122 = load %"class.std::vector.58"*, %"class.std::vector.58"** %6, align 8
  %123 = invoke %class.Point* @_ZNSt6vectorI5PointILi3EESaIS1_EE3endEv(%"class.std::vector.58"* %122)
          to label %124 unwind label %146

; <label>:124:                                    ; preds = %120
  %125 = getelementptr inbounds %"class.__gnu_cxx::__normal_iterator", %"class.__gnu_cxx::__normal_iterator"* %19, i32 0, i32 0
  store %class.Point* %123, %class.Point** %125, align 8
  %126 = invoke %class.Point* @_ZNSt6vectorI5PointILi3EESaIS1_EE5beginEv(%"class.std::vector.58"* %13)
          to label %127 unwind label %146

; <label>:127:                                    ; preds = %124
  %128 = getelementptr inbounds %"class.__gnu_cxx::__normal_iterator", %"class.__gnu_cxx::__normal_iterator"* %20, i32 0, i32 0
  store %class.Point* %126, %class.Point** %128, align 8
  %129 = invoke %class.Point* @_ZNSt6vectorI5PointILi3EESaIS1_EE3endEv(%"class.std::vector.58"* %13)
          to label %130 unwind label %146

; <label>:130:                                    ; preds = %127
  %131 = getelementptr inbounds %"class.__gnu_cxx::__normal_iterator", %"class.__gnu_cxx::__normal_iterator"* %21, i32 0, i32 0
  store %class.Point* %129, %class.Point** %131, align 8
  %132 = getelementptr inbounds %"class.__gnu_cxx::__normal_iterator", %"class.__gnu_cxx::__normal_iterator"* %19, i32 0, i32 0
  %133 = load %class.Point*, %class.Point** %132, align 8
  %134 = getelementptr inbounds %"class.__gnu_cxx::__normal_iterator", %"class.__gnu_cxx::__normal_iterator"* %20, i32 0, i32 0
  %135 = load %class.Point*, %class.Point** %134, align 8
  %136 = getelementptr inbounds %"class.__gnu_cxx::__normal_iterator", %"class.__gnu_cxx::__normal_iterator"* %21, i32 0, i32 0
  %137 = load %class.Point*, %class.Point** %136, align 8
  invoke void @_ZNSt6vectorI5PointILi3EESaIS1_EE6insertIN9__gnu_cxx17__normal_iteratorIPS1_S3_EEEEvS8_T_S9_(%"class.std::vector.58"* %121, %class.Point* %133, %class.Point* %135, %class.Point* %137)
          to label %138 unwind label %146

; <label>:138:                                    ; preds = %130
  br label %139

; <label>:139:                                    ; preds = %138
  %140 = load i32, i32* %16, align 4
  %141 = add i32 %140, 1
  store i32 %141, i32* %16, align 4
  br label %81

; <label>:142:                                    ; preds = %75
  %143 = landingpad { i8*, i32 }
          cleanup
  %144 = extractvalue { i8*, i32 } %143, 0
  store i8* %144, i8** %7, align 8
  %145 = extractvalue { i8*, i32 } %143, 1
  store i32 %145, i32* %8, align 4
  call void @_ZNSaI5PointILi3EEED2Ev(%"class.std::allocator.60"* %15) #2
  br label %153

; <label>:146:                                    ; preds = %130, %127, %124, %120, %113, %108, %106, %103, %100, %97, %94, %91, %88, %84
  %147 = landingpad { i8*, i32 }
          cleanup
  %148 = extractvalue { i8*, i32 } %147, 0
  store i8* %148, i8** %7, align 8
  %149 = extractvalue { i8*, i32 } %147, 1
  store i32 %149, i32* %8, align 4
  invoke void @_ZNSt6vectorI5PointILi3EESaIS1_EED2Ev(%"class.std::vector.58"* %13)
          to label %151 unwind label %158

; <label>:150:                                    ; preds = %81
  call void @_ZNSt6vectorI5PointILi3EESaIS1_EED2Ev(%"class.std::vector.58"* %13)
  br label %152

; <label>:151:                                    ; preds = %146
  br label %153

; <label>:152:                                    ; preds = %150, %74
  ret void

; <label>:153:                                    ; preds = %151, %142, %70
  %154 = load i8*, i8** %7, align 8
  %155 = load i32, i32* %8, align 4
  %156 = insertvalue { i8*, i32 } undef, i8* %154, 0
  %157 = insertvalue { i8*, i32 } %156, i32 %155, 1
  resume { i8*, i32 } %157

; <label>:158:                                    ; preds = %146
  %159 = landingpad { i8*, i32 }
          catch i8* null
  %160 = extractvalue { i8*, i32 } %159, 0
  call void @__clang_call_terminate(i8* %160) #12
  unreachable
}

; Function Attrs: noinline uwtable
define linkonce_odr void @_ZNK18TriaObjectAccessorILi3ELi3EE4lineEj(%class.TriaIterator.69* noalias sret, %class.TriaObjectAccessor*, i32) #0 comdat align 2 {
  %4 = alloca %class.TriaObjectAccessor*, align 8
  %5 = alloca i32, align 4
  %6 = alloca %class.TriaIterator.65, align 8
  store %class.TriaObjectAccessor* %1, %class.TriaObjectAccessor** %4, align 8
  store i32 %2, i32* %5, align 4
  %7 = load %class.TriaObjectAccessor*, %class.TriaObjectAccessor** %4, align 8
  %8 = load i32, i32* %5, align 4
  %9 = zext i32 %8 to i64
  %10 = getelementptr inbounds [12 x [3 x i32]], [12 x [3 x i32]]* @_ZZNK18TriaObjectAccessorILi3ELi3EE4lineEjE12lookup_table, i64 0, i64 %9
  %11 = getelementptr inbounds [3 x i32], [3 x i32]* %10, i64 0, i64 0
  %12 = load i32, i32* %11, align 4
  call void @_ZNK18TriaObjectAccessorILi3ELi3EE4quadEj(%class.TriaIterator.65* sret %6, %class.TriaObjectAccessor* %7, i32 %12)
  %13 = bitcast %class.TriaIterator.65* %6 to %class.TriaRawIterator.66*
  %14 = call %class.TriaObjectAccessor.68* @_ZN15TriaRawIteratorILi3E18TriaObjectAccessorILi2ELi3EEEptEv(%class.TriaRawIterator.66* %13)
  %15 = load i32, i32* %5, align 4
  %16 = zext i32 %15 to i64
  %17 = getelementptr inbounds [12 x [3 x i32]], [12 x [3 x i32]]* @_ZZNK18TriaObjectAccessorILi3ELi3EE4lineEjE12lookup_table, i64 0, i64 %16
  %18 = getelementptr inbounds [3 x i32], [3 x i32]* %17, i64 0, i64 0
  %19 = load i32, i32* %18, align 4
  %20 = call zeroext i1 @_ZNK18TriaObjectAccessorILi3ELi3EE16face_orientationEj(%class.TriaObjectAccessor* %7, i32 %19)
  br i1 %20, label %21, label %27

; <label>:21:                                     ; preds = %3
  %22 = load i32, i32* %5, align 4
  %23 = zext i32 %22 to i64
  %24 = getelementptr inbounds [12 x [3 x i32]], [12 x [3 x i32]]* @_ZZNK18TriaObjectAccessorILi3ELi3EE4lineEjE12lookup_table, i64 0, i64 %23
  %25 = getelementptr inbounds [3 x i32], [3 x i32]* %24, i64 0, i64 1
  %26 = load i32, i32* %25, align 4
  br label %33

; <label>:27:                                     ; preds = %3
  %28 = load i32, i32* %5, align 4
  %29 = zext i32 %28 to i64
  %30 = getelementptr inbounds [12 x [3 x i32]], [12 x [3 x i32]]* @_ZZNK18TriaObjectAccessorILi3ELi3EE4lineEjE12lookup_table, i64 0, i64 %29
  %31 = getelementptr inbounds [3 x i32], [3 x i32]* %30, i64 0, i64 2
  %32 = load i32, i32* %31, align 4
  br label %33

; <label>:33:                                     ; preds = %27, %21
  %34 = phi i32 [ %26, %21 ], [ %32, %27 ]
  call void @_ZNK18TriaObjectAccessorILi2ELi3EE4lineEj(%class.TriaIterator.69* sret %0, %class.TriaObjectAccessor.68* %14, i32 %34)
  ret void
}

; Function Attrs: noinline uwtable
define linkonce_odr %class.TriaObjectAccessor.72* @_ZNK15TriaRawIteratorILi3E18TriaObjectAccessorILi1ELi3EEEptEv(%class.TriaRawIterator.70*) #0 comdat align 2 {
  %2 = alloca %class.TriaRawIterator.70*, align 8
  store %class.TriaRawIterator.70* %0, %class.TriaRawIterator.70** %2, align 8
  %3 = load %class.TriaRawIterator.70*, %class.TriaRawIterator.70** %2, align 8
  %4 = call dereferenceable(16) %class.TriaObjectAccessor.72* @_ZNK15TriaRawIteratorILi3E18TriaObjectAccessorILi1ELi3EEEdeEv(%class.TriaRawIterator.70* %3)
  ret %class.TriaObjectAccessor.72* %4
}

declare zeroext i8 @_ZNK18TriaObjectAccessorILi1ELi3EE18boundary_indicatorEv(%class.TriaObjectAccessor.72*) #3

; Function Attrs: noinline uwtable
define weak_odr %"class.Mapping<3>::InternalDataBase"* @_ZNK8MappingQILi3EE8get_dataE11UpdateFlagsRK10QuadratureILi3EE(%class.MappingQ*, i32, %class.Quadrature* dereferenceable(80)) unnamed_addr #0 comdat align 2 personality i8* bitcast (i32 (...)* @__gxx_personality_v0 to i8*) {
  %4 = alloca %class.MappingQ*, align 8
  %5 = alloca i32, align 4
  %6 = alloca %class.Quadrature*, align 8
  %7 = alloca %"class.MappingQ<3>::InternalData"*, align 8
  %8 = alloca i8*
  %9 = alloca i32
  store %class.MappingQ* %0, %class.MappingQ** %4, align 8
  store i32 %1, i32* %5, align 4
  store %class.Quadrature* %2, %class.Quadrature** %6, align 8
  %10 = load %class.MappingQ*, %class.MappingQ** %4, align 8
  %11 = call i8* @_Znwm(i64 608) #13
  %12 = bitcast i8* %11 to %"class.MappingQ<3>::InternalData"*
  %13 = getelementptr inbounds %class.MappingQ, %class.MappingQ* %10, i32 0, i32 7
  %14 = load i32, i32* %13, align 8
  invoke void @_ZN8MappingQILi3EE12InternalDataC1Ej(%"class.MappingQ<3>::InternalData"* %12, i32 %14)
          to label %15 unwind label %34

; <label>:15:                                     ; preds = %3
  store %"class.MappingQ<3>::InternalData"* %12, %"class.MappingQ<3>::InternalData"** %7, align 8
  %16 = bitcast %class.MappingQ* %10 to %class.MappingQ1*
  %17 = load i32, i32* %5, align 4
  %18 = load %class.Quadrature*, %class.Quadrature** %6, align 8
  %19 = load %class.Quadrature*, %class.Quadrature** %6, align 8
  %20 = getelementptr inbounds %class.Quadrature, %class.Quadrature* %19, i32 0, i32 1
  %21 = load i32, i32* %20, align 8
  %22 = load %"class.MappingQ<3>::InternalData"*, %"class.MappingQ<3>::InternalData"** %7, align 8
  %23 = bitcast %"class.MappingQ<3>::InternalData"* %22 to %"class.MappingQ1<3>::InternalData"*
  call void @_ZNK9MappingQ1ILi3EE12compute_dataE11UpdateFlagsRK10QuadratureILi3EEjRNS0_12InternalDataE(%class.MappingQ1* %16, i32 %17, %class.Quadrature* dereferenceable(80) %18, i32 %21, %"class.MappingQ1<3>::InternalData"* dereferenceable(288) %23)
  %24 = bitcast %class.MappingQ* %10 to %class.MappingQ1*
  %25 = load i32, i32* %5, align 4
  %26 = load %class.Quadrature*, %class.Quadrature** %6, align 8
  %27 = load %class.Quadrature*, %class.Quadrature** %6, align 8
  %28 = getelementptr inbounds %class.Quadrature, %class.Quadrature* %27, i32 0, i32 1
  %29 = load i32, i32* %28, align 8
  %30 = load %"class.MappingQ<3>::InternalData"*, %"class.MappingQ<3>::InternalData"** %7, align 8
  %31 = getelementptr inbounds %"class.MappingQ<3>::InternalData", %"class.MappingQ<3>::InternalData"* %30, i32 0, i32 3
  call void @_ZNK9MappingQ1ILi3EE12compute_dataE11UpdateFlagsRK10QuadratureILi3EEjRNS0_12InternalDataE(%class.MappingQ1* %24, i32 %25, %class.Quadrature* dereferenceable(80) %26, i32 %29, %"class.MappingQ1<3>::InternalData"* dereferenceable(288) %31)
  %32 = load %"class.MappingQ<3>::InternalData"*, %"class.MappingQ<3>::InternalData"** %7, align 8
  %33 = bitcast %"class.MappingQ<3>::InternalData"* %32 to %"class.Mapping<3>::InternalDataBase"*
  ret %"class.Mapping<3>::InternalDataBase"* %33

; <label>:34:                                     ; preds = %3
  %35 = landingpad { i8*, i32 }
          cleanup
  %36 = extractvalue { i8*, i32 } %35, 0
  store i8* %36, i8** %8, align 8
  %37 = extractvalue { i8*, i32 } %35, 1
  store i32 %37, i32* %9, align 4
  call void @_ZdlPv(i8* %11) #14
  br label %38

; <label>:38:                                     ; preds = %34
  %39 = load i8*, i8** %8, align 8
  %40 = load i32, i32* %9, align 4
  %41 = insertvalue { i8*, i32 } undef, i8* %39, 0
  %42 = insertvalue { i8*, i32 } %41, i32 %40, 1
  resume { i8*, i32 } %42
}

declare void @_ZNK9MappingQ1ILi3EE12compute_dataE11UpdateFlagsRK10QuadratureILi3EEjRNS0_12InternalDataE(%class.MappingQ1*, i32, %class.Quadrature* dereferenceable(80), i32, %"class.MappingQ1<3>::InternalData"* dereferenceable(288)) #3

; Function Attrs: noinline uwtable
define weak_odr %"class.Mapping<3>::InternalDataBase"* @_ZNK8MappingQILi3EE13get_face_dataE11UpdateFlagsRK10QuadratureILi2EE(%class.MappingQ*, i32, %class.Quadrature.135* dereferenceable(80)) unnamed_addr #0 comdat align 2 personality i8* bitcast (i32 (...)* @__gxx_personality_v0 to i8*) {
  %4 = alloca %class.MappingQ*, align 8
  %5 = alloca i32, align 4
  %6 = alloca %class.Quadrature.135*, align 8
  %7 = alloca %"class.MappingQ<3>::InternalData"*, align 8
  %8 = alloca i8*
  %9 = alloca i32
  %10 = alloca %class.Quadrature, align 8
  store %class.MappingQ* %0, %class.MappingQ** %4, align 8
  store i32 %1, i32* %5, align 4
  store %class.Quadrature.135* %2, %class.Quadrature.135** %6, align 8
  %11 = load %class.MappingQ*, %class.MappingQ** %4, align 8
  %12 = call i8* @_Znwm(i64 608) #13
  %13 = bitcast i8* %12 to %"class.MappingQ<3>::InternalData"*
  %14 = getelementptr inbounds %class.MappingQ, %class.MappingQ* %11, i32 0, i32 7
  %15 = load i32, i32* %14, align 8
  invoke void @_ZN8MappingQILi3EE12InternalDataC1Ej(%"class.MappingQ<3>::InternalData"* %13, i32 %15)
          to label %16 unwind label %36

; <label>:16:                                     ; preds = %3
  store %"class.MappingQ<3>::InternalData"* %13, %"class.MappingQ<3>::InternalData"** %7, align 8
  %17 = load %class.Quadrature.135*, %class.Quadrature.135** %6, align 8
  call void @_ZN10QProjectorILi3EE20project_to_all_facesERK10QuadratureILi2EE(%class.Quadrature* sret %10, %class.Quadrature.135* dereferenceable(80) %17)
  %18 = bitcast %class.MappingQ* %11 to %class.MappingQ1*
  %19 = load i32, i32* %5, align 4
  %20 = load %class.Quadrature.135*, %class.Quadrature.135** %6, align 8
  %21 = getelementptr inbounds %class.Quadrature.135, %class.Quadrature.135* %20, i32 0, i32 1
  %22 = load i32, i32* %21, align 8
  %23 = load %"class.MappingQ<3>::InternalData"*, %"class.MappingQ<3>::InternalData"** %7, align 8
  %24 = bitcast %"class.MappingQ<3>::InternalData"* %23 to %"class.MappingQ1<3>::InternalData"*
  invoke void @_ZNK9MappingQ1ILi3EE17compute_face_dataE11UpdateFlagsRK10QuadratureILi3EEjRNS0_12InternalDataE(%class.MappingQ1* %18, i32 %19, %class.Quadrature* dereferenceable(80) %10, i32 %22, %"class.MappingQ1<3>::InternalData"* dereferenceable(288) %24)
          to label %25 unwind label %40

; <label>:25:                                     ; preds = %16
  %26 = bitcast %class.MappingQ* %11 to %class.MappingQ1*
  %27 = load i32, i32* %5, align 4
  %28 = load %class.Quadrature.135*, %class.Quadrature.135** %6, align 8
  %29 = getelementptr inbounds %class.Quadrature.135, %class.Quadrature.135* %28, i32 0, i32 1
  %30 = load i32, i32* %29, align 8
  %31 = load %"class.MappingQ<3>::InternalData"*, %"class.MappingQ<3>::InternalData"** %7, align 8
  %32 = getelementptr inbounds %"class.MappingQ<3>::InternalData", %"class.MappingQ<3>::InternalData"* %31, i32 0, i32 3
  invoke void @_ZNK9MappingQ1ILi3EE17compute_face_dataE11UpdateFlagsRK10QuadratureILi3EEjRNS0_12InternalDataE(%class.MappingQ1* %26, i32 %27, %class.Quadrature* dereferenceable(80) %10, i32 %30, %"class.MappingQ1<3>::InternalData"* dereferenceable(288) %32)
          to label %33 unwind label %40

; <label>:33:                                     ; preds = %25
  %34 = load %"class.MappingQ<3>::InternalData"*, %"class.MappingQ<3>::InternalData"** %7, align 8
  %35 = bitcast %"class.MappingQ<3>::InternalData"* %34 to %"class.Mapping<3>::InternalDataBase"*
  call void @_ZN10QuadratureILi3EED1Ev(%class.Quadrature* %10)
  ret %"class.Mapping<3>::InternalDataBase"* %35

; <label>:36:                                     ; preds = %3
  %37 = landingpad { i8*, i32 }
          cleanup
  %38 = extractvalue { i8*, i32 } %37, 0
  store i8* %38, i8** %8, align 8
  %39 = extractvalue { i8*, i32 } %37, 1
  store i32 %39, i32* %9, align 4
  call void @_ZdlPv(i8* %12) #14
  br label %45

; <label>:40:                                     ; preds = %25, %16
  %41 = landingpad { i8*, i32 }
          cleanup
  %42 = extractvalue { i8*, i32 } %41, 0
  store i8* %42, i8** %8, align 8
  %43 = extractvalue { i8*, i32 } %41, 1
  store i32 %43, i32* %9, align 4
  invoke void @_ZN10QuadratureILi3EED1Ev(%class.Quadrature* %10)
          to label %44 unwind label %50

; <label>:44:                                     ; preds = %40
  br label %45

; <label>:45:                                     ; preds = %44, %36
  %46 = load i8*, i8** %8, align 8
  %47 = load i32, i32* %9, align 4
  %48 = insertvalue { i8*, i32 } undef, i8* %46, 0
  %49 = insertvalue { i8*, i32 } %48, i32 %47, 1
  resume { i8*, i32 } %49

; <label>:50:                                     ; preds = %40
  %51 = landingpad { i8*, i32 }
          catch i8* null
  %52 = extractvalue { i8*, i32 } %51, 0
  call void @__clang_call_terminate(i8* %52) #12
  unreachable
}

declare void @_ZN10QProjectorILi3EE20project_to_all_facesERK10QuadratureILi2EE(%class.Quadrature* sret, %class.Quadrature.135* dereferenceable(80)) #3

declare void @_ZNK9MappingQ1ILi3EE17compute_face_dataE11UpdateFlagsRK10QuadratureILi3EEjRNS0_12InternalDataE(%class.MappingQ1*, i32, %class.Quadrature* dereferenceable(80), i32, %"class.MappingQ1<3>::InternalData"* dereferenceable(288)) #3

; Function Attrs: noinline uwtable
define weak_odr %"class.Mapping<3>::InternalDataBase"* @_ZNK8MappingQILi3EE16get_subface_dataE11UpdateFlagsRK10QuadratureILi2EE(%class.MappingQ*, i32, %class.Quadrature.135* dereferenceable(80)) unnamed_addr #0 comdat align 2 personality i8* bitcast (i32 (...)* @__gxx_personality_v0 to i8*) {
  %4 = alloca %class.MappingQ*, align 8
  %5 = alloca i32, align 4
  %6 = alloca %class.Quadrature.135*, align 8
  %7 = alloca %"class.MappingQ<3>::InternalData"*, align 8
  %8 = alloca i8*
  %9 = alloca i32
  %10 = alloca %class.Quadrature, align 8
  store %class.MappingQ* %0, %class.MappingQ** %4, align 8
  store i32 %1, i32* %5, align 4
  store %class.Quadrature.135* %2, %class.Quadrature.135** %6, align 8
  %11 = load %class.MappingQ*, %class.MappingQ** %4, align 8
  %12 = call i8* @_Znwm(i64 608) #13
  %13 = bitcast i8* %12 to %"class.MappingQ<3>::InternalData"*
  %14 = getelementptr inbounds %class.MappingQ, %class.MappingQ* %11, i32 0, i32 7
  %15 = load i32, i32* %14, align 8
  invoke void @_ZN8MappingQILi3EE12InternalDataC1Ej(%"class.MappingQ<3>::InternalData"* %13, i32 %15)
          to label %16 unwind label %36

; <label>:16:                                     ; preds = %3
  store %"class.MappingQ<3>::InternalData"* %13, %"class.MappingQ<3>::InternalData"** %7, align 8
  %17 = load %class.Quadrature.135*, %class.Quadrature.135** %6, align 8
  call void @_ZN10QProjectorILi3EE23project_to_all_subfacesERK10QuadratureILi2EE(%class.Quadrature* sret %10, %class.Quadrature.135* dereferenceable(80) %17)
  %18 = bitcast %class.MappingQ* %11 to %class.MappingQ1*
  %19 = load i32, i32* %5, align 4
  %20 = load %class.Quadrature.135*, %class.Quadrature.135** %6, align 8
  %21 = getelementptr inbounds %class.Quadrature.135, %class.Quadrature.135* %20, i32 0, i32 1
  %22 = load i32, i32* %21, align 8
  %23 = load %"class.MappingQ<3>::InternalData"*, %"class.MappingQ<3>::InternalData"** %7, align 8
  %24 = bitcast %"class.MappingQ<3>::InternalData"* %23 to %"class.MappingQ1<3>::InternalData"*
  invoke void @_ZNK9MappingQ1ILi3EE17compute_face_dataE11UpdateFlagsRK10QuadratureILi3EEjRNS0_12InternalDataE(%class.MappingQ1* %18, i32 %19, %class.Quadrature* dereferenceable(80) %10, i32 %22, %"class.MappingQ1<3>::InternalData"* dereferenceable(288) %24)
          to label %25 unwind label %40

; <label>:25:                                     ; preds = %16
  %26 = bitcast %class.MappingQ* %11 to %class.MappingQ1*
  %27 = load i32, i32* %5, align 4
  %28 = load %class.Quadrature.135*, %class.Quadrature.135** %6, align 8
  %29 = getelementptr inbounds %class.Quadrature.135, %class.Quadrature.135* %28, i32 0, i32 1
  %30 = load i32, i32* %29, align 8
  %31 = load %"class.MappingQ<3>::InternalData"*, %"class.MappingQ<3>::InternalData"** %7, align 8
  %32 = getelementptr inbounds %"class.MappingQ<3>::InternalData", %"class.MappingQ<3>::InternalData"* %31, i32 0, i32 3
  invoke void @_ZNK9MappingQ1ILi3EE17compute_face_dataE11UpdateFlagsRK10QuadratureILi3EEjRNS0_12InternalDataE(%class.MappingQ1* %26, i32 %27, %class.Quadrature* dereferenceable(80) %10, i32 %30, %"class.MappingQ1<3>::InternalData"* dereferenceable(288) %32)
          to label %33 unwind label %40

; <label>:33:                                     ; preds = %25
  %34 = load %"class.MappingQ<3>::InternalData"*, %"class.MappingQ<3>::InternalData"** %7, align 8
  %35 = bitcast %"class.MappingQ<3>::InternalData"* %34 to %"class.Mapping<3>::InternalDataBase"*
  call void @_ZN10QuadratureILi3EED1Ev(%class.Quadrature* %10)
  ret %"class.Mapping<3>::InternalDataBase"* %35

; <label>:36:                                     ; preds = %3
  %37 = landingpad { i8*, i32 }
          cleanup
  %38 = extractvalue { i8*, i32 } %37, 0
  store i8* %38, i8** %8, align 8
  %39 = extractvalue { i8*, i32 } %37, 1
  store i32 %39, i32* %9, align 4
  call void @_ZdlPv(i8* %12) #14
  br label %45

; <label>:40:                                     ; preds = %25, %16
  %41 = landingpad { i8*, i32 }
          cleanup
  %42 = extractvalue { i8*, i32 } %41, 0
  store i8* %42, i8** %8, align 8
  %43 = extractvalue { i8*, i32 } %41, 1
  store i32 %43, i32* %9, align 4
  invoke void @_ZN10QuadratureILi3EED1Ev(%class.Quadrature* %10)
          to label %44 unwind label %50

; <label>:44:                                     ; preds = %40
  br label %45

; <label>:45:                                     ; preds = %44, %36
  %46 = load i8*, i8** %8, align 8
  %47 = load i32, i32* %9, align 4
  %48 = insertvalue { i8*, i32 } undef, i8* %46, 0
  %49 = insertvalue { i8*, i32 } %48, i32 %47, 1
  resume { i8*, i32 } %49

; <label>:50:                                     ; preds = %40
  %51 = landingpad { i8*, i32 }
          catch i8* null
  %52 = extractvalue { i8*, i32 } %51, 0
  call void @__clang_call_terminate(i8* %52) #12
  unreachable
}

declare void @_ZN10QProjectorILi3EE23project_to_all_subfacesERK10QuadratureILi2EE(%class.Quadrature* sret, %class.Quadrature.135* dereferenceable(80)) #3

; Function Attrs: noinline uwtable
define weak_odr void @_ZNK8MappingQILi3EE22compute_shapes_virtualERKSt6vectorI5PointILi3EESaIS3_EERN9MappingQ1ILi3EE12InternalDataE(%class.MappingQ*, %"class.std::vector.58"* dereferenceable(24), %"class.MappingQ1<3>::InternalData"* dereferenceable(288)) unnamed_addr #0 comdat align 2 personality i8* bitcast (i32 (...)* @__gxx_personality_v0 to i8*) {
  %4 = alloca %class.MappingQ*, align 8
  %5 = alloca %"class.std::vector.58"*, align 8
  %6 = alloca %"class.MappingQ1<3>::InternalData"*, align 8
  %7 = alloca i32, align 4
  %8 = alloca %"class.std::vector.0", align 8
  %9 = alloca %"class.std::vector.103", align 8
  %10 = alloca i8*
  %11 = alloca i32
  %12 = alloca %class.Tensor, align 8
  %13 = alloca %"class.std::vector.108", align 8
  %14 = alloca i32, align 4
  %15 = alloca i32, align 4
  %16 = alloca i32, align 4
  store %class.MappingQ* %0, %class.MappingQ** %4, align 8
  store %"class.std::vector.58"* %1, %"class.std::vector.58"** %5, align 8
  store %"class.MappingQ1<3>::InternalData"* %2, %"class.MappingQ1<3>::InternalData"** %6, align 8
  %17 = load %class.MappingQ*, %class.MappingQ** %4, align 8
  %18 = load %"class.std::vector.58"*, %"class.std::vector.58"** %5, align 8
  %19 = call i64 @_ZNKSt6vectorI5PointILi3EESaIS1_EE4sizeEv(%"class.std::vector.58"* %18)
  %20 = trunc i64 %19 to i32
  store i32 %20, i32* %7, align 4
  call void @_ZNSt6vectorIdSaIdEEC2Ev(%"class.std::vector.0"* %8)
  invoke void @_ZNSt6vectorI6TensorILi1ELi3EESaIS1_EEC2Ev(%"class.std::vector.103"* %9)
          to label %21 unwind label %32

; <label>:21:                                     ; preds = %3
  %22 = load %"class.MappingQ1<3>::InternalData"*, %"class.MappingQ1<3>::InternalData"** %6, align 8
  %23 = getelementptr inbounds %"class.MappingQ1<3>::InternalData", %"class.MappingQ1<3>::InternalData"* %22, i32 0, i32 1
  %24 = invoke i64 @_ZNKSt6vectorIdSaIdEE4sizeEv(%"class.std::vector.0"* %23)
          to label %25 unwind label %36

; <label>:25:                                     ; preds = %21
  %26 = icmp ne i64 %24, 0
  br i1 %26, label %27, label %40

; <label>:27:                                     ; preds = %25
  %28 = getelementptr inbounds %class.MappingQ, %class.MappingQ* %17, i32 0, i32 7
  %29 = load i32, i32* %28, align 8
  %30 = zext i32 %29 to i64
  invoke void @_ZNSt6vectorIdSaIdEE6resizeEmd(%"class.std::vector.0"* %8, i64 %30, double 0.000000e+00)
          to label %31 unwind label %36

; <label>:31:                                     ; preds = %27
  br label %40

; <label>:32:                                     ; preds = %153, %3
  %33 = landingpad { i8*, i32 }
          cleanup
  %34 = extractvalue { i8*, i32 } %33, 0
  store i8* %34, i8** %10, align 8
  %35 = extractvalue { i8*, i32 } %33, 1
  store i32 %35, i32* %11, align 4
  br label %158

; <label>:36:                                     ; preds = %152, %52, %50, %46, %40, %27, %21
  %37 = landingpad { i8*, i32 }
          cleanup
  %38 = extractvalue { i8*, i32 } %37, 0
  store i8* %38, i8** %10, align 8
  %39 = extractvalue { i8*, i32 } %37, 1
  store i32 %39, i32* %11, align 4
  br label %156

; <label>:40:                                     ; preds = %31, %25
  %41 = load %"class.MappingQ1<3>::InternalData"*, %"class.MappingQ1<3>::InternalData"** %6, align 8
  %42 = getelementptr inbounds %"class.MappingQ1<3>::InternalData", %"class.MappingQ1<3>::InternalData"* %41, i32 0, i32 2
  %43 = invoke i64 @_ZNKSt6vectorI6TensorILi1ELi3EESaIS1_EE4sizeEv(%"class.std::vector.103"* %42)
          to label %44 unwind label %36

; <label>:44:                                     ; preds = %40
  %45 = icmp ne i64 %43, 0
  br i1 %45, label %46, label %52

; <label>:46:                                     ; preds = %44
  %47 = getelementptr inbounds %class.MappingQ, %class.MappingQ* %17, i32 0, i32 7
  %48 = load i32, i32* %47, align 8
  %49 = zext i32 %48 to i64
  invoke void @_ZN6TensorILi1ELi3EEC2Eb(%class.Tensor* %12, i1 zeroext true)
          to label %50 unwind label %36

; <label>:50:                                     ; preds = %46
  invoke void @_ZNSt6vectorI6TensorILi1ELi3EESaIS1_EE6resizeEmS1_(%"class.std::vector.103"* %9, i64 %49, %class.Tensor* %12)
          to label %51 unwind label %36

; <label>:51:                                     ; preds = %50
  br label %52

; <label>:52:                                     ; preds = %51, %44
  invoke void @_ZNSt6vectorI6TensorILi2ELi3EESaIS1_EEC2Ev(%"class.std::vector.108"* %13)
          to label %53 unwind label %36

; <label>:53:                                     ; preds = %52
  %54 = load %"class.MappingQ1<3>::InternalData"*, %"class.MappingQ1<3>::InternalData"** %6, align 8
  %55 = getelementptr inbounds %"class.MappingQ1<3>::InternalData", %"class.MappingQ1<3>::InternalData"* %54, i32 0, i32 1
  %56 = invoke i64 @_ZNKSt6vectorIdSaIdEE4sizeEv(%"class.std::vector.0"* %55)
          to label %57 unwind label %109

; <label>:57:                                     ; preds = %53
  %58 = icmp ne i64 %56, 0
  br i1 %58, label %65, label %59

; <label>:59:                                     ; preds = %57
  %60 = load %"class.MappingQ1<3>::InternalData"*, %"class.MappingQ1<3>::InternalData"** %6, align 8
  %61 = getelementptr inbounds %"class.MappingQ1<3>::InternalData", %"class.MappingQ1<3>::InternalData"* %60, i32 0, i32 2
  %62 = invoke i64 @_ZNKSt6vectorI6TensorILi1ELi3EESaIS1_EE4sizeEv(%"class.std::vector.103"* %61)
          to label %63 unwind label %109

; <label>:63:                                     ; preds = %59
  %64 = icmp ne i64 %62, 0
  br i1 %64, label %65, label %152

; <label>:65:                                     ; preds = %63, %57
  store i32 0, i32* %14, align 4
  br label %66

; <label>:66:                                     ; preds = %148, %65
  %67 = load i32, i32* %14, align 4
  %68 = load i32, i32* %7, align 4
  %69 = icmp ult i32 %67, %68
  br i1 %69, label %70, label %151

; <label>:70:                                     ; preds = %66
  %71 = getelementptr inbounds %class.MappingQ, %class.MappingQ* %17, i32 0, i32 6
  %72 = load %class.TensorProductPolynomials*, %class.TensorProductPolynomials** %71, align 8
  %73 = load %"class.std::vector.58"*, %"class.std::vector.58"** %5, align 8
  %74 = load i32, i32* %14, align 4
  %75 = zext i32 %74 to i64
  %76 = invoke dereferenceable(24) %class.Point* @_ZNKSt6vectorI5PointILi3EESaIS1_EEixEm(%"class.std::vector.58"* %73, i64 %75)
          to label %77 unwind label %109

; <label>:77:                                     ; preds = %70
  invoke void @_ZNK24TensorProductPolynomialsILi3EE7computeERK5PointILi3EERSt6vectorIdSaIdEERS5_I6TensorILi1ELi3EESaISA_EERS5_IS9_ILi2ELi3EESaISE_EE(%class.TensorProductPolynomials* %72, %class.Point* dereferenceable(24) %76, %"class.std::vector.0"* dereferenceable(24) %8, %"class.std::vector.103"* dereferenceable(24) %9, %"class.std::vector.108"* dereferenceable(24) %13)
          to label %78 unwind label %109

; <label>:78:                                     ; preds = %77
  %79 = load %"class.MappingQ1<3>::InternalData"*, %"class.MappingQ1<3>::InternalData"** %6, align 8
  %80 = getelementptr inbounds %"class.MappingQ1<3>::InternalData", %"class.MappingQ1<3>::InternalData"* %79, i32 0, i32 1
  %81 = invoke i64 @_ZNKSt6vectorIdSaIdEE4sizeEv(%"class.std::vector.0"* %80)
          to label %82 unwind label %109

; <label>:82:                                     ; preds = %78
  %83 = icmp ne i64 %81, 0
  br i1 %83, label %84, label %114

; <label>:84:                                     ; preds = %82
  store i32 0, i32* %15, align 4
  br label %85

; <label>:85:                                     ; preds = %106, %84
  %86 = load i32, i32* %15, align 4
  %87 = getelementptr inbounds %class.MappingQ, %class.MappingQ* %17, i32 0, i32 7
  %88 = load i32, i32* %87, align 8
  %89 = icmp ult i32 %86, %88
  br i1 %89, label %90, label %113

; <label>:90:                                     ; preds = %85
  %91 = load i32, i32* %15, align 4
  %92 = zext i32 %91 to i64
  %93 = invoke dereferenceable(8) double* @_ZNSt6vectorIdSaIdEEixEm(%"class.std::vector.0"* %8, i64 %92)
          to label %94 unwind label %109

; <label>:94:                                     ; preds = %90
  %95 = load double, double* %93, align 8
  %96 = load %"class.MappingQ1<3>::InternalData"*, %"class.MappingQ1<3>::InternalData"** %6, align 8
  %97 = load i32, i32* %14, align 4
  %98 = getelementptr inbounds %class.MappingQ, %class.MappingQ* %17, i32 0, i32 8
  %99 = load i32, i32* %15, align 4
  %100 = zext i32 %99 to i64
  %101 = invoke dereferenceable(4) i32* @_ZNKSt6vectorIjSaIjEEixEm(%"class.std::vector.5"* %98, i64 %100)
          to label %102 unwind label %109

; <label>:102:                                    ; preds = %94
  %103 = load i32, i32* %101, align 4
  %104 = invoke dereferenceable(8) double* @_ZN9MappingQ1ILi3EE12InternalData5shapeEjj(%"class.MappingQ1<3>::InternalData"* %96, i32 %97, i32 %103)
          to label %105 unwind label %109

; <label>:105:                                    ; preds = %102
  store double %95, double* %104, align 8
  br label %106

; <label>:106:                                    ; preds = %105
  %107 = load i32, i32* %15, align 4
  %108 = add i32 %107, 1
  store i32 %108, i32* %15, align 4
  br label %85

; <label>:109:                                    ; preds = %140, %137, %130, %126, %114, %102, %94, %90, %78, %77, %70, %59, %53
  %110 = landingpad { i8*, i32 }
          cleanup
  %111 = extractvalue { i8*, i32 } %110, 0
  store i8* %111, i8** %10, align 8
  %112 = extractvalue { i8*, i32 } %110, 1
  store i32 %112, i32* %11, align 4
  invoke void @_ZNSt6vectorI6TensorILi2ELi3EESaIS1_EED2Ev(%"class.std::vector.108"* %13)
          to label %155 unwind label %165

; <label>:113:                                    ; preds = %85
  br label %114

; <label>:114:                                    ; preds = %113, %82
  %115 = load %"class.MappingQ1<3>::InternalData"*, %"class.MappingQ1<3>::InternalData"** %6, align 8
  %116 = getelementptr inbounds %"class.MappingQ1<3>::InternalData", %"class.MappingQ1<3>::InternalData"* %115, i32 0, i32 2
  %117 = invoke i64 @_ZNKSt6vectorI6TensorILi1ELi3EESaIS1_EE4sizeEv(%"class.std::vector.103"* %116)
          to label %118 unwind label %109

; <label>:118:                                    ; preds = %114
  %119 = icmp ne i64 %117, 0
  br i1 %119, label %120, label %147

; <label>:120:                                    ; preds = %118
  store i32 0, i32* %16, align 4
  br label %121

; <label>:121:                                    ; preds = %143, %120
  %122 = load i32, i32* %16, align 4
  %123 = getelementptr inbounds %class.MappingQ, %class.MappingQ* %17, i32 0, i32 7
  %124 = load i32, i32* %123, align 8
  %125 = icmp ult i32 %122, %124
  br i1 %125, label %126, label %146

; <label>:126:                                    ; preds = %121
  %127 = load i32, i32* %16, align 4
  %128 = zext i32 %127 to i64
  %129 = invoke dereferenceable(24) %class.Tensor* @_ZNSt6vectorI6TensorILi1ELi3EESaIS1_EEixEm(%"class.std::vector.103"* %9, i64 %128)
          to label %130 unwind label %109

; <label>:130:                                    ; preds = %126
  %131 = load %"class.MappingQ1<3>::InternalData"*, %"class.MappingQ1<3>::InternalData"** %6, align 8
  %132 = load i32, i32* %14, align 4
  %133 = getelementptr inbounds %class.MappingQ, %class.MappingQ* %17, i32 0, i32 8
  %134 = load i32, i32* %16, align 4
  %135 = zext i32 %134 to i64
  %136 = invoke dereferenceable(4) i32* @_ZNKSt6vectorIjSaIjEEixEm(%"class.std::vector.5"* %133, i64 %135)
          to label %137 unwind label %109

; <label>:137:                                    ; preds = %130
  %138 = load i32, i32* %136, align 4
  %139 = invoke dereferenceable(24) %class.Tensor* @_ZN9MappingQ1ILi3EE12InternalData10derivativeEjj(%"class.MappingQ1<3>::InternalData"* %131, i32 %132, i32 %138)
          to label %140 unwind label %109

; <label>:140:                                    ; preds = %137
  %141 = invoke dereferenceable(24) %class.Tensor* @_ZN6TensorILi1ELi3EEaSERKS0_(%class.Tensor* %139, %class.Tensor* dereferenceable(24) %129)
          to label %142 unwind label %109

; <label>:142:                                    ; preds = %140
  br label %143

; <label>:143:                                    ; preds = %142
  %144 = load i32, i32* %16, align 4
  %145 = add i32 %144, 1
  store i32 %145, i32* %16, align 4
  br label %121

; <label>:146:                                    ; preds = %121
  br label %147

; <label>:147:                                    ; preds = %146, %118
  br label %148

; <label>:148:                                    ; preds = %147
  %149 = load i32, i32* %14, align 4
  %150 = add i32 %149, 1
  store i32 %150, i32* %14, align 4
  br label %66

; <label>:151:                                    ; preds = %66
  br label %152

; <label>:152:                                    ; preds = %151, %63
  invoke void @_ZNSt6vectorI6TensorILi2ELi3EESaIS1_EED2Ev(%"class.std::vector.108"* %13)
          to label %153 unwind label %36

; <label>:153:                                    ; preds = %152
  invoke void @_ZNSt6vectorI6TensorILi1ELi3EESaIS1_EED2Ev(%"class.std::vector.103"* %9)
          to label %154 unwind label %32

; <label>:154:                                    ; preds = %153
  call void @_ZNSt6vectorIdSaIdEED2Ev(%"class.std::vector.0"* %8)
  ret void

; <label>:155:                                    ; preds = %109
  br label %156

; <label>:156:                                    ; preds = %155, %36
  invoke void @_ZNSt6vectorI6TensorILi1ELi3EESaIS1_EED2Ev(%"class.std::vector.103"* %9)
          to label %157 unwind label %165

; <label>:157:                                    ; preds = %156
  br label %158

; <label>:158:                                    ; preds = %157, %32
  invoke void @_ZNSt6vectorIdSaIdEED2Ev(%"class.std::vector.0"* %8)
          to label %159 unwind label %165

; <label>:159:                                    ; preds = %158
  br label %160

; <label>:160:                                    ; preds = %159
  %161 = load i8*, i8** %10, align 8
  %162 = load i32, i32* %11, align 4
  %163 = insertvalue { i8*, i32 } undef, i8* %161, 0
  %164 = insertvalue { i8*, i32 } %163, i32 %162, 1
  resume { i8*, i32 } %164

; <label>:165:                                    ; preds = %158, %156, %109
  %166 = landingpad { i8*, i32 }
          catch i8* null
  %167 = extractvalue { i8*, i32 } %166, 0
  call void @__clang_call_terminate(i8* %167) #12
  unreachable
}

; Function Attrs: noinline nounwind uwtable
define linkonce_odr i64 @_ZNKSt6vectorI5PointILi3EESaIS1_EE4sizeEv(%"class.std::vector.58"*) #1 comdat align 2 {
  %2 = alloca %"class.std::vector.58"*, align 8
  store %"class.std::vector.58"* %0, %"class.std::vector.58"** %2, align 8
  %3 = load %"class.std::vector.58"*, %"class.std::vector.58"** %2, align 8
  %4 = bitcast %"class.std::vector.58"* %3 to %"struct.std::_Vector_base.59"*
  %5 = getelementptr inbounds %"struct.std::_Vector_base.59", %"struct.std::_Vector_base.59"* %4, i32 0, i32 0
  %6 = bitcast %"struct.std::_Vector_base<Point<3>, std::allocator<Point<3> > >::_Vector_impl"* %5 to %"struct.std::_Vector_base<Point<3>, std::allocator<Point<3> > >::_Vector_impl_data"*
  %7 = getelementptr inbounds %"struct.std::_Vector_base<Point<3>, std::allocator<Point<3> > >::_Vector_impl_data", %"struct.std::_Vector_base<Point<3>, std::allocator<Point<3> > >::_Vector_impl_data"* %6, i32 0, i32 1
  %8 = load %class.Point*, %class.Point** %7, align 8
  %9 = bitcast %"class.std::vector.58"* %3 to %"struct.std::_Vector_base.59"*
  %10 = getelementptr inbounds %"struct.std::_Vector_base.59", %"struct.std::_Vector_base.59"* %9, i32 0, i32 0
  %11 = bitcast %"struct.std::_Vector_base<Point<3>, std::allocator<Point<3> > >::_Vector_impl"* %10 to %"struct.std::_Vector_base<Point<3>, std::allocator<Point<3> > >::_Vector_impl_data"*
  %12 = getelementptr inbounds %"struct.std::_Vector_base<Point<3>, std::allocator<Point<3> > >::_Vector_impl_data", %"struct.std::_Vector_base<Point<3>, std::allocator<Point<3> > >::_Vector_impl_data"* %11, i32 0, i32 0
  %13 = load %class.Point*, %class.Point** %12, align 8
  %14 = ptrtoint %class.Point* %8 to i64
  %15 = ptrtoint %class.Point* %13 to i64
  %16 = sub i64 %14, %15
  %17 = sdiv exact i64 %16, 24
  ret i64 %17
}

; Function Attrs: noinline uwtable
define linkonce_odr void @_ZNSt6vectorIdSaIdEEC2Ev(%"class.std::vector.0"*) unnamed_addr #0 comdat align 2 {
  %2 = alloca %"class.std::vector.0"*, align 8
  store %"class.std::vector.0"* %0, %"class.std::vector.0"** %2, align 8
  %3 = load %"class.std::vector.0"*, %"class.std::vector.0"** %2, align 8
  %4 = bitcast %"class.std::vector.0"* %3 to %"struct.std::_Vector_base.1"*
  call void @_ZNSt12_Vector_baseIdSaIdEEC2Ev(%"struct.std::_Vector_base.1"* %4)
  ret void
}

; Function Attrs: noinline uwtable
define linkonce_odr void @_ZNSt6vectorI6TensorILi1ELi3EESaIS1_EEC2Ev(%"class.std::vector.103"*) unnamed_addr #0 comdat align 2 {
  %2 = alloca %"class.std::vector.103"*, align 8
  store %"class.std::vector.103"* %0, %"class.std::vector.103"** %2, align 8
  %3 = load %"class.std::vector.103"*, %"class.std::vector.103"** %2, align 8
  %4 = bitcast %"class.std::vector.103"* %3 to %"struct.std::_Vector_base.104"*
  call void @_ZNSt12_Vector_baseI6TensorILi1ELi3EESaIS1_EEC2Ev(%"struct.std::_Vector_base.104"* %4)
  ret void
}

; Function Attrs: noinline nounwind uwtable
define linkonce_odr i64 @_ZNKSt6vectorIdSaIdEE4sizeEv(%"class.std::vector.0"*) #1 comdat align 2 {
  %2 = alloca %"class.std::vector.0"*, align 8
  store %"class.std::vector.0"* %0, %"class.std::vector.0"** %2, align 8
  %3 = load %"class.std::vector.0"*, %"class.std::vector.0"** %2, align 8
  %4 = bitcast %"class.std::vector.0"* %3 to %"struct.std::_Vector_base.1"*
  %5 = getelementptr inbounds %"struct.std::_Vector_base.1", %"struct.std::_Vector_base.1"* %4, i32 0, i32 0
  %6 = bitcast %"struct.std::_Vector_base<double, std::allocator<double> >::_Vector_impl"* %5 to %"struct.std::_Vector_base<double, std::allocator<double> >::_Vector_impl_data"*
  %7 = getelementptr inbounds %"struct.std::_Vector_base<double, std::allocator<double> >::_Vector_impl_data", %"struct.std::_Vector_base<double, std::allocator<double> >::_Vector_impl_data"* %6, i32 0, i32 1
  %8 = load double*, double** %7, align 8
  %9 = bitcast %"class.std::vector.0"* %3 to %"struct.std::_Vector_base.1"*
  %10 = getelementptr inbounds %"struct.std::_Vector_base.1", %"struct.std::_Vector_base.1"* %9, i32 0, i32 0
  %11 = bitcast %"struct.std::_Vector_base<double, std::allocator<double> >::_Vector_impl"* %10 to %"struct.std::_Vector_base<double, std::allocator<double> >::_Vector_impl_data"*
  %12 = getelementptr inbounds %"struct.std::_Vector_base<double, std::allocator<double> >::_Vector_impl_data", %"struct.std::_Vector_base<double, std::allocator<double> >::_Vector_impl_data"* %11, i32 0, i32 0
  %13 = load double*, double** %12, align 8
  %14 = ptrtoint double* %8 to i64
  %15 = ptrtoint double* %13 to i64
  %16 = sub i64 %14, %15
  %17 = sdiv exact i64 %16, 8
  ret i64 %17
}

; Function Attrs: noinline uwtable
define linkonce_odr void @_ZNSt6vectorIdSaIdEE6resizeEmd(%"class.std::vector.0"*, i64, double) #0 comdat align 2 {
  %4 = alloca %"class.std::vector.0"*, align 8
  %5 = alloca i64, align 8
  %6 = alloca double, align 8
  %7 = alloca %"class.__gnu_cxx::__normal_iterator.144", align 8
  store %"class.std::vector.0"* %0, %"class.std::vector.0"** %4, align 8
  store i64 %1, i64* %5, align 8
  store double %2, double* %6, align 8
  %8 = load %"class.std::vector.0"*, %"class.std::vector.0"** %4, align 8
  %9 = load i64, i64* %5, align 8
  %10 = call i64 @_ZNKSt6vectorIdSaIdEE4sizeEv(%"class.std::vector.0"* %8)
  %11 = icmp ugt i64 %9, %10
  br i1 %11, label %12, label %20

; <label>:12:                                     ; preds = %3
  %13 = call double* @_ZNSt6vectorIdSaIdEE3endEv(%"class.std::vector.0"* %8)
  %14 = getelementptr inbounds %"class.__gnu_cxx::__normal_iterator.144", %"class.__gnu_cxx::__normal_iterator.144"* %7, i32 0, i32 0
  store double* %13, double** %14, align 8
  %15 = load i64, i64* %5, align 8
  %16 = call i64 @_ZNKSt6vectorIdSaIdEE4sizeEv(%"class.std::vector.0"* %8)
  %17 = sub i64 %15, %16
  %18 = getelementptr inbounds %"class.__gnu_cxx::__normal_iterator.144", %"class.__gnu_cxx::__normal_iterator.144"* %7, i32 0, i32 0
  %19 = load double*, double** %18, align 8
  call void @_ZNSt6vectorIdSaIdEE14_M_fill_insertEN9__gnu_cxx17__normal_iteratorIPdS1_EEmRKd(%"class.std::vector.0"* %8, double* %19, i64 %17, double* dereferenceable(8) %6)
  br label %33

; <label>:20:                                     ; preds = %3
  %21 = load i64, i64* %5, align 8
  %22 = call i64 @_ZNKSt6vectorIdSaIdEE4sizeEv(%"class.std::vector.0"* %8)
  %23 = icmp ult i64 %21, %22
  br i1 %23, label %24, label %32

; <label>:24:                                     ; preds = %20
  %25 = bitcast %"class.std::vector.0"* %8 to %"struct.std::_Vector_base.1"*
  %26 = getelementptr inbounds %"struct.std::_Vector_base.1", %"struct.std::_Vector_base.1"* %25, i32 0, i32 0
  %27 = bitcast %"struct.std::_Vector_base<double, std::allocator<double> >::_Vector_impl"* %26 to %"struct.std::_Vector_base<double, std::allocator<double> >::_Vector_impl_data"*
  %28 = getelementptr inbounds %"struct.std::_Vector_base<double, std::allocator<double> >::_Vector_impl_data", %"struct.std::_Vector_base<double, std::allocator<double> >::_Vector_impl_data"* %27, i32 0, i32 0
  %29 = load double*, double** %28, align 8
  %30 = load i64, i64* %5, align 8
  %31 = getelementptr inbounds double, double* %29, i64 %30
  call void @_ZNSt6vectorIdSaIdEE15_M_erase_at_endEPd(%"class.std::vector.0"* %8, double* %31)
  br label %32

; <label>:32:                                     ; preds = %24, %20
  br label %33

; <label>:33:                                     ; preds = %32, %12
  ret void
}

; Function Attrs: noinline nounwind uwtable
define linkonce_odr i64 @_ZNKSt6vectorI6TensorILi1ELi3EESaIS1_EE4sizeEv(%"class.std::vector.103"*) #1 comdat align 2 {
  %2 = alloca %"class.std::vector.103"*, align 8
  store %"class.std::vector.103"* %0, %"class.std::vector.103"** %2, align 8
  %3 = load %"class.std::vector.103"*, %"class.std::vector.103"** %2, align 8
  %4 = bitcast %"class.std::vector.103"* %3 to %"struct.std::_Vector_base.104"*
  %5 = getelementptr inbounds %"struct.std::_Vector_base.104", %"struct.std::_Vector_base.104"* %4, i32 0, i32 0
  %6 = bitcast %"struct.std::_Vector_base<Tensor<1, 3>, std::allocator<Tensor<1, 3> > >::_Vector_impl"* %5 to %"struct.std::_Vector_base<Tensor<1, 3>, std::allocator<Tensor<1, 3> > >::_Vector_impl_data"*
  %7 = getelementptr inbounds %"struct.std::_Vector_base<Tensor<1, 3>, std::allocator<Tensor<1, 3> > >::_Vector_impl_data", %"struct.std::_Vector_base<Tensor<1, 3>, std::allocator<Tensor<1, 3> > >::_Vector_impl_data"* %6, i32 0, i32 1
  %8 = load %class.Tensor*, %class.Tensor** %7, align 8
  %9 = bitcast %"class.std::vector.103"* %3 to %"struct.std::_Vector_base.104"*
  %10 = getelementptr inbounds %"struct.std::_Vector_base.104", %"struct.std::_Vector_base.104"* %9, i32 0, i32 0
  %11 = bitcast %"struct.std::_Vector_base<Tensor<1, 3>, std::allocator<Tensor<1, 3> > >::_Vector_impl"* %10 to %"struct.std::_Vector_base<Tensor<1, 3>, std::allocator<Tensor<1, 3> > >::_Vector_impl_data"*
  %12 = getelementptr inbounds %"struct.std::_Vector_base<Tensor<1, 3>, std::allocator<Tensor<1, 3> > >::_Vector_impl_data", %"struct.std::_Vector_base<Tensor<1, 3>, std::allocator<Tensor<1, 3> > >::_Vector_impl_data"* %11, i32 0, i32 0
  %13 = load %class.Tensor*, %class.Tensor** %12, align 8
  %14 = ptrtoint %class.Tensor* %8 to i64
  %15 = ptrtoint %class.Tensor* %13 to i64
  %16 = sub i64 %14, %15
  %17 = sdiv exact i64 %16, 24
  ret i64 %17
}

; Function Attrs: noinline uwtable
define linkonce_odr void @_ZNSt6vectorI6TensorILi1ELi3EESaIS1_EE6resizeEmS1_(%"class.std::vector.103"*, i64, %class.Tensor*) #0 comdat align 2 {
  %4 = alloca %"class.std::vector.103"*, align 8
  %5 = alloca i64, align 8
  %6 = alloca %"class.__gnu_cxx::__normal_iterator.145", align 8
  store %"class.std::vector.103"* %0, %"class.std::vector.103"** %4, align 8
  store i64 %1, i64* %5, align 8
  %7 = load %"class.std::vector.103"*, %"class.std::vector.103"** %4, align 8
  %8 = load i64, i64* %5, align 8
  %9 = call i64 @_ZNKSt6vectorI6TensorILi1ELi3EESaIS1_EE4sizeEv(%"class.std::vector.103"* %7)
  %10 = icmp ugt i64 %8, %9
  br i1 %10, label %11, label %19

; <label>:11:                                     ; preds = %3
  %12 = call %class.Tensor* @_ZNSt6vectorI6TensorILi1ELi3EESaIS1_EE3endEv(%"class.std::vector.103"* %7)
  %13 = getelementptr inbounds %"class.__gnu_cxx::__normal_iterator.145", %"class.__gnu_cxx::__normal_iterator.145"* %6, i32 0, i32 0
  store %class.Tensor* %12, %class.Tensor** %13, align 8
  %14 = load i64, i64* %5, align 8
  %15 = call i64 @_ZNKSt6vectorI6TensorILi1ELi3EESaIS1_EE4sizeEv(%"class.std::vector.103"* %7)
  %16 = sub i64 %14, %15
  %17 = getelementptr inbounds %"class.__gnu_cxx::__normal_iterator.145", %"class.__gnu_cxx::__normal_iterator.145"* %6, i32 0, i32 0
  %18 = load %class.Tensor*, %class.Tensor** %17, align 8
  call void @_ZNSt6vectorI6TensorILi1ELi3EESaIS1_EE14_M_fill_insertEN9__gnu_cxx17__normal_iteratorIPS1_S3_EEmRKS1_(%"class.std::vector.103"* %7, %class.Tensor* %18, i64 %16, %class.Tensor* dereferenceable(24) %2)
  br label %32

; <label>:19:                                     ; preds = %3
  %20 = load i64, i64* %5, align 8
  %21 = call i64 @_ZNKSt6vectorI6TensorILi1ELi3EESaIS1_EE4sizeEv(%"class.std::vector.103"* %7)
  %22 = icmp ult i64 %20, %21
  br i1 %22, label %23, label %31

; <label>:23:                                     ; preds = %19
  %24 = bitcast %"class.std::vector.103"* %7 to %"struct.std::_Vector_base.104"*
  %25 = getelementptr inbounds %"struct.std::_Vector_base.104", %"struct.std::_Vector_base.104"* %24, i32 0, i32 0
  %26 = bitcast %"struct.std::_Vector_base<Tensor<1, 3>, std::allocator<Tensor<1, 3> > >::_Vector_impl"* %25 to %"struct.std::_Vector_base<Tensor<1, 3>, std::allocator<Tensor<1, 3> > >::_Vector_impl_data"*
  %27 = getelementptr inbounds %"struct.std::_Vector_base<Tensor<1, 3>, std::allocator<Tensor<1, 3> > >::_Vector_impl_data", %"struct.std::_Vector_base<Tensor<1, 3>, std::allocator<Tensor<1, 3> > >::_Vector_impl_data"* %26, i32 0, i32 0
  %28 = load %class.Tensor*, %class.Tensor** %27, align 8
  %29 = load i64, i64* %5, align 8
  %30 = getelementptr inbounds %class.Tensor, %class.Tensor* %28, i64 %29
  call void @_ZNSt6vectorI6TensorILi1ELi3EESaIS1_EE15_M_erase_at_endEPS1_(%"class.std::vector.103"* %7, %class.Tensor* %30)
  br label %31

; <label>:31:                                     ; preds = %23, %19
  br label %32

; <label>:32:                                     ; preds = %31, %11
  ret void
}

; Function Attrs: noinline nounwind uwtable
define linkonce_odr void @_ZN6TensorILi1ELi3EEC2Eb(%class.Tensor*, i1 zeroext) unnamed_addr #1 comdat align 2 {
  %3 = alloca %class.Tensor*, align 8
  %4 = alloca i8, align 1
  %5 = alloca i32, align 4
  store %class.Tensor* %0, %class.Tensor** %3, align 8
  %6 = zext i1 %1 to i8
  store i8 %6, i8* %4, align 1
  %7 = load %class.Tensor*, %class.Tensor** %3, align 8
  %8 = load i8, i8* %4, align 1
  %9 = trunc i8 %8 to i1
  br i1 %9, label %10, label %23

; <label>:10:                                     ; preds = %2
  store i32 0, i32* %5, align 4
  br label %11

; <label>:11:                                     ; preds = %19, %10
  %12 = load i32, i32* %5, align 4
  %13 = icmp ne i32 %12, 3
  br i1 %13, label %14, label %22

; <label>:14:                                     ; preds = %11
  %15 = getelementptr inbounds %class.Tensor, %class.Tensor* %7, i32 0, i32 0
  %16 = load i32, i32* %5, align 4
  %17 = zext i32 %16 to i64
  %18 = getelementptr inbounds [3 x double], [3 x double]* %15, i64 0, i64 %17
  store double 0.000000e+00, double* %18, align 8
  br label %19

; <label>:19:                                     ; preds = %14
  %20 = load i32, i32* %5, align 4
  %21 = add i32 %20, 1
  store i32 %21, i32* %5, align 4
  br label %11

; <label>:22:                                     ; preds = %11
  br label %23

; <label>:23:                                     ; preds = %22, %2
  ret void
}

; Function Attrs: noinline uwtable
define linkonce_odr void @_ZNSt6vectorI6TensorILi2ELi3EESaIS1_EEC2Ev(%"class.std::vector.108"*) unnamed_addr #0 comdat align 2 {
  %2 = alloca %"class.std::vector.108"*, align 8
  store %"class.std::vector.108"* %0, %"class.std::vector.108"** %2, align 8
  %3 = load %"class.std::vector.108"*, %"class.std::vector.108"** %2, align 8
  %4 = bitcast %"class.std::vector.108"* %3 to %"struct.std::_Vector_base.109"*
  call void @_ZNSt12_Vector_baseI6TensorILi2ELi3EESaIS1_EEC2Ev(%"struct.std::_Vector_base.109"* %4)
  ret void
}

declare void @_ZNK24TensorProductPolynomialsILi3EE7computeERK5PointILi3EERSt6vectorIdSaIdEERS5_I6TensorILi1ELi3EESaISA_EERS5_IS9_ILi2ELi3EESaISE_EE(%class.TensorProductPolynomials*, %class.Point* dereferenceable(24), %"class.std::vector.0"* dereferenceable(24), %"class.std::vector.103"* dereferenceable(24), %"class.std::vector.108"* dereferenceable(24)) #3

; Function Attrs: noinline nounwind uwtable
define linkonce_odr dereferenceable(24) %class.Point* @_ZNKSt6vectorI5PointILi3EESaIS1_EEixEm(%"class.std::vector.58"*, i64) #1 comdat align 2 {
  %3 = alloca %"class.std::vector.58"*, align 8
  %4 = alloca i64, align 8
  store %"class.std::vector.58"* %0, %"class.std::vector.58"** %3, align 8
  store i64 %1, i64* %4, align 8
  %5 = load %"class.std::vector.58"*, %"class.std::vector.58"** %3, align 8
  %6 = bitcast %"class.std::vector.58"* %5 to %"struct.std::_Vector_base.59"*
  %7 = getelementptr inbounds %"struct.std::_Vector_base.59", %"struct.std::_Vector_base.59"* %6, i32 0, i32 0
  %8 = bitcast %"struct.std::_Vector_base<Point<3>, std::allocator<Point<3> > >::_Vector_impl"* %7 to %"struct.std::_Vector_base<Point<3>, std::allocator<Point<3> > >::_Vector_impl_data"*
  %9 = getelementptr inbounds %"struct.std::_Vector_base<Point<3>, std::allocator<Point<3> > >::_Vector_impl_data", %"struct.std::_Vector_base<Point<3>, std::allocator<Point<3> > >::_Vector_impl_data"* %8, i32 0, i32 0
  %10 = load %class.Point*, %class.Point** %9, align 8
  %11 = load i64, i64* %4, align 8
  %12 = getelementptr inbounds %class.Point, %class.Point* %10, i64 %11
  ret %class.Point* %12
}

; Function Attrs: noinline nounwind uwtable
define linkonce_odr dereferenceable(8) double* @_ZNSt6vectorIdSaIdEEixEm(%"class.std::vector.0"*, i64) #1 comdat align 2 {
  %3 = alloca %"class.std::vector.0"*, align 8
  %4 = alloca i64, align 8
  store %"class.std::vector.0"* %0, %"class.std::vector.0"** %3, align 8
  store i64 %1, i64* %4, align 8
  %5 = load %"class.std::vector.0"*, %"class.std::vector.0"** %3, align 8
  %6 = bitcast %"class.std::vector.0"* %5 to %"struct.std::_Vector_base.1"*
  %7 = getelementptr inbounds %"struct.std::_Vector_base.1", %"struct.std::_Vector_base.1"* %6, i32 0, i32 0
  %8 = bitcast %"struct.std::_Vector_base<double, std::allocator<double> >::_Vector_impl"* %7 to %"struct.std::_Vector_base<double, std::allocator<double> >::_Vector_impl_data"*
  %9 = getelementptr inbounds %"struct.std::_Vector_base<double, std::allocator<double> >::_Vector_impl_data", %"struct.std::_Vector_base<double, std::allocator<double> >::_Vector_impl_data"* %8, i32 0, i32 0
  %10 = load double*, double** %9, align 8
  %11 = load i64, i64* %4, align 8
  %12 = getelementptr inbounds double, double* %10, i64 %11
  ret double* %12
}

; Function Attrs: noinline uwtable
define linkonce_odr dereferenceable(8) double* @_ZN9MappingQ1ILi3EE12InternalData5shapeEjj(%"class.MappingQ1<3>::InternalData"*, i32, i32) #0 comdat align 2 {
  %4 = alloca %"class.MappingQ1<3>::InternalData"*, align 8
  %5 = alloca i32, align 4
  %6 = alloca i32, align 4
  store %"class.MappingQ1<3>::InternalData"* %0, %"class.MappingQ1<3>::InternalData"** %4, align 8
  store i32 %1, i32* %5, align 4
  store i32 %2, i32* %6, align 4
  %7 = load %"class.MappingQ1<3>::InternalData"*, %"class.MappingQ1<3>::InternalData"** %4, align 8
  %8 = getelementptr inbounds %"class.MappingQ1<3>::InternalData", %"class.MappingQ1<3>::InternalData"* %7, i32 0, i32 1
  %9 = load i32, i32* %5, align 4
  %10 = getelementptr inbounds %"class.MappingQ1<3>::InternalData", %"class.MappingQ1<3>::InternalData"* %7, i32 0, i32 10
  %11 = load i32, i32* %10, align 4
  %12 = mul i32 %9, %11
  %13 = load i32, i32* %6, align 4
  %14 = add i32 %12, %13
  %15 = zext i32 %14 to i64
  %16 = call dereferenceable(8) double* @_ZNSt6vectorIdSaIdEEixEm(%"class.std::vector.0"* %8, i64 %15)
  ret double* %16
}

; Function Attrs: noinline nounwind uwtable
define linkonce_odr dereferenceable(4) i32* @_ZNKSt6vectorIjSaIjEEixEm(%"class.std::vector.5"*, i64) #1 comdat align 2 {
  %3 = alloca %"class.std::vector.5"*, align 8
  %4 = alloca i64, align 8
  store %"class.std::vector.5"* %0, %"class.std::vector.5"** %3, align 8
  store i64 %1, i64* %4, align 8
  %5 = load %"class.std::vector.5"*, %"class.std::vector.5"** %3, align 8
  %6 = bitcast %"class.std::vector.5"* %5 to %"struct.std::_Vector_base.6"*
  %7 = getelementptr inbounds %"struct.std::_Vector_base.6", %"struct.std::_Vector_base.6"* %6, i32 0, i32 0
  %8 = bitcast %"struct.std::_Vector_base<unsigned int, std::allocator<unsigned int> >::_Vector_impl"* %7 to %"struct.std::_Vector_base<unsigned int, std::allocator<unsigned int> >::_Vector_impl_data"*
  %9 = getelementptr inbounds %"struct.std::_Vector_base<unsigned int, std::allocator<unsigned int> >::_Vector_impl_data", %"struct.std::_Vector_base<unsigned int, std::allocator<unsigned int> >::_Vector_impl_data"* %8, i32 0, i32 0
  %10 = load i32*, i32** %9, align 8
  %11 = load i64, i64* %4, align 8
  %12 = getelementptr inbounds i32, i32* %10, i64 %11
  ret i32* %12
}

; Function Attrs: noinline nounwind uwtable
define linkonce_odr dereferenceable(24) %class.Tensor* @_ZNSt6vectorI6TensorILi1ELi3EESaIS1_EEixEm(%"class.std::vector.103"*, i64) #1 comdat align 2 {
  %3 = alloca %"class.std::vector.103"*, align 8
  %4 = alloca i64, align 8
  store %"class.std::vector.103"* %0, %"class.std::vector.103"** %3, align 8
  store i64 %1, i64* %4, align 8
  %5 = load %"class.std::vector.103"*, %"class.std::vector.103"** %3, align 8
  %6 = bitcast %"class.std::vector.103"* %5 to %"struct.std::_Vector_base.104"*
  %7 = getelementptr inbounds %"struct.std::_Vector_base.104", %"struct.std::_Vector_base.104"* %6, i32 0, i32 0
  %8 = bitcast %"struct.std::_Vector_base<Tensor<1, 3>, std::allocator<Tensor<1, 3> > >::_Vector_impl"* %7 to %"struct.std::_Vector_base<Tensor<1, 3>, std::allocator<Tensor<1, 3> > >::_Vector_impl_data"*
  %9 = getelementptr inbounds %"struct.std::_Vector_base<Tensor<1, 3>, std::allocator<Tensor<1, 3> > >::_Vector_impl_data", %"struct.std::_Vector_base<Tensor<1, 3>, std::allocator<Tensor<1, 3> > >::_Vector_impl_data"* %8, i32 0, i32 0
  %10 = load %class.Tensor*, %class.Tensor** %9, align 8
  %11 = load i64, i64* %4, align 8
  %12 = getelementptr inbounds %class.Tensor, %class.Tensor* %10, i64 %11
  ret %class.Tensor* %12
}

; Function Attrs: noinline uwtable
define linkonce_odr dereferenceable(24) %class.Tensor* @_ZN9MappingQ1ILi3EE12InternalData10derivativeEjj(%"class.MappingQ1<3>::InternalData"*, i32, i32) #0 comdat align 2 {
  %4 = alloca %"class.MappingQ1<3>::InternalData"*, align 8
  %5 = alloca i32, align 4
  %6 = alloca i32, align 4
  store %"class.MappingQ1<3>::InternalData"* %0, %"class.MappingQ1<3>::InternalData"** %4, align 8
  store i32 %1, i32* %5, align 4
  store i32 %2, i32* %6, align 4
  %7 = load %"class.MappingQ1<3>::InternalData"*, %"class.MappingQ1<3>::InternalData"** %4, align 8
  %8 = getelementptr inbounds %"class.MappingQ1<3>::InternalData", %"class.MappingQ1<3>::InternalData"* %7, i32 0, i32 2
  %9 = load i32, i32* %5, align 4
  %10 = getelementptr inbounds %"class.MappingQ1<3>::InternalData", %"class.MappingQ1<3>::InternalData"* %7, i32 0, i32 10
  %11 = load i32, i32* %10, align 4
  %12 = mul i32 %9, %11
  %13 = load i32, i32* %6, align 4
  %14 = add i32 %12, %13
  %15 = zext i32 %14 to i64
  %16 = call dereferenceable(24) %class.Tensor* @_ZNSt6vectorI6TensorILi1ELi3EESaIS1_EEixEm(%"class.std::vector.103"* %8, i64 %15)
  ret %class.Tensor* %16
}

; Function Attrs: noinline nounwind uwtable
define linkonce_odr dereferenceable(24) %class.Tensor* @_ZN6TensorILi1ELi3EEaSERKS0_(%class.Tensor*, %class.Tensor* dereferenceable(24)) #1 comdat align 2 {
  %3 = alloca %class.Tensor*, align 8
  %4 = alloca %class.Tensor*, align 8
  %5 = alloca i32, align 4
  store %class.Tensor* %0, %class.Tensor** %3, align 8
  store %class.Tensor* %1, %class.Tensor** %4, align 8
  %6 = load %class.Tensor*, %class.Tensor** %3, align 8
  store i32 0, i32* %5, align 4
  br label %7

; <label>:7:                                      ; preds = %21, %2
  %8 = load i32, i32* %5, align 4
  %9 = icmp ult i32 %8, 3
  br i1 %9, label %10, label %24

; <label>:10:                                     ; preds = %7
  %11 = load %class.Tensor*, %class.Tensor** %4, align 8
  %12 = getelementptr inbounds %class.Tensor, %class.Tensor* %11, i32 0, i32 0
  %13 = load i32, i32* %5, align 4
  %14 = zext i32 %13 to i64
  %15 = getelementptr inbounds [3 x double], [3 x double]* %12, i64 0, i64 %14
  %16 = load double, double* %15, align 8
  %17 = getelementptr inbounds %class.Tensor, %class.Tensor* %6, i32 0, i32 0
  %18 = load i32, i32* %5, align 4
  %19 = zext i32 %18 to i64
  %20 = getelementptr inbounds [3 x double], [3 x double]* %17, i64 0, i64 %19
  store double %16, double* %20, align 8
  br label %21

; <label>:21:                                     ; preds = %10
  %22 = load i32, i32* %5, align 4
  %23 = add i32 %22, 1
  store i32 %23, i32* %5, align 4
  br label %7

; <label>:24:                                     ; preds = %7
  ret %class.Tensor* %6
}

; Function Attrs: noinline uwtable
define linkonce_odr void @_ZNSt6vectorI6TensorILi2ELi3EESaIS1_EED2Ev(%"class.std::vector.108"*) unnamed_addr #0 comdat align 2 personality i8* bitcast (i32 (...)* @__gxx_personality_v0 to i8*) {
  %2 = alloca %"class.std::vector.108"*, align 8
  %3 = alloca i8*
  %4 = alloca i32
  store %"class.std::vector.108"* %0, %"class.std::vector.108"** %2, align 8
  %5 = load %"class.std::vector.108"*, %"class.std::vector.108"** %2, align 8
  %6 = bitcast %"class.std::vector.108"* %5 to %"struct.std::_Vector_base.109"*
  %7 = getelementptr inbounds %"struct.std::_Vector_base.109", %"struct.std::_Vector_base.109"* %6, i32 0, i32 0
  %8 = bitcast %"struct.std::_Vector_base<Tensor<2, 3>, std::allocator<Tensor<2, 3> > >::_Vector_impl"* %7 to %"struct.std::_Vector_base<Tensor<2, 3>, std::allocator<Tensor<2, 3> > >::_Vector_impl_data"*
  %9 = getelementptr inbounds %"struct.std::_Vector_base<Tensor<2, 3>, std::allocator<Tensor<2, 3> > >::_Vector_impl_data", %"struct.std::_Vector_base<Tensor<2, 3>, std::allocator<Tensor<2, 3> > >::_Vector_impl_data"* %8, i32 0, i32 0
  %10 = load %class.Tensor.113*, %class.Tensor.113** %9, align 8
  %11 = bitcast %"class.std::vector.108"* %5 to %"struct.std::_Vector_base.109"*
  %12 = getelementptr inbounds %"struct.std::_Vector_base.109", %"struct.std::_Vector_base.109"* %11, i32 0, i32 0
  %13 = bitcast %"struct.std::_Vector_base<Tensor<2, 3>, std::allocator<Tensor<2, 3> > >::_Vector_impl"* %12 to %"struct.std::_Vector_base<Tensor<2, 3>, std::allocator<Tensor<2, 3> > >::_Vector_impl_data"*
  %14 = getelementptr inbounds %"struct.std::_Vector_base<Tensor<2, 3>, std::allocator<Tensor<2, 3> > >::_Vector_impl_data", %"struct.std::_Vector_base<Tensor<2, 3>, std::allocator<Tensor<2, 3> > >::_Vector_impl_data"* %13, i32 0, i32 1
  %15 = load %class.Tensor.113*, %class.Tensor.113** %14, align 8
  %16 = bitcast %"class.std::vector.108"* %5 to %"struct.std::_Vector_base.109"*
  %17 = invoke dereferenceable(1) %"class.std::allocator.110"* @_ZNSt12_Vector_baseI6TensorILi2ELi3EESaIS1_EE19_M_get_Tp_allocatorEv(%"struct.std::_Vector_base.109"* %16)
          to label %18 unwind label %21

; <label>:18:                                     ; preds = %1
  invoke void @_ZSt8_DestroyIP6TensorILi2ELi3EES1_EvT_S3_RSaIT0_E(%class.Tensor.113* %10, %class.Tensor.113* %15, %"class.std::allocator.110"* dereferenceable(1) %17)
          to label %19 unwind label %21

; <label>:19:                                     ; preds = %18
  %20 = bitcast %"class.std::vector.108"* %5 to %"struct.std::_Vector_base.109"*
  call void @_ZNSt12_Vector_baseI6TensorILi2ELi3EESaIS1_EED2Ev(%"struct.std::_Vector_base.109"* %20)
  ret void

; <label>:21:                                     ; preds = %18, %1
  %22 = landingpad { i8*, i32 }
          cleanup
  %23 = extractvalue { i8*, i32 } %22, 0
  store i8* %23, i8** %3, align 8
  %24 = extractvalue { i8*, i32 } %22, 1
  store i32 %24, i32* %4, align 4
  %25 = bitcast %"class.std::vector.108"* %5 to %"struct.std::_Vector_base.109"*
  invoke void @_ZNSt12_Vector_baseI6TensorILi2ELi3EESaIS1_EED2Ev(%"struct.std::_Vector_base.109"* %25)
          to label %26 unwind label %32

; <label>:26:                                     ; preds = %21
  br label %27

; <label>:27:                                     ; preds = %26
  %28 = load i8*, i8** %3, align 8
  %29 = load i32, i32* %4, align 4
  %30 = insertvalue { i8*, i32 } undef, i8* %28, 0
  %31 = insertvalue { i8*, i32 } %30, i32 %29, 1
  resume { i8*, i32 } %31

; <label>:32:                                     ; preds = %21
  %33 = landingpad { i8*, i32 }
          catch i8* null
  %34 = extractvalue { i8*, i32 } %33, 0
  call void @__clang_call_terminate(i8* %34) #12
  unreachable
}

; Function Attrs: noinline uwtable
define linkonce_odr void @_ZNSt6vectorI6TensorILi1ELi3EESaIS1_EED2Ev(%"class.std::vector.103"*) unnamed_addr #0 comdat align 2 personality i8* bitcast (i32 (...)* @__gxx_personality_v0 to i8*) {
  %2 = alloca %"class.std::vector.103"*, align 8
  %3 = alloca i8*
  %4 = alloca i32
  store %"class.std::vector.103"* %0, %"class.std::vector.103"** %2, align 8
  %5 = load %"class.std::vector.103"*, %"class.std::vector.103"** %2, align 8
  %6 = bitcast %"class.std::vector.103"* %5 to %"struct.std::_Vector_base.104"*
  %7 = getelementptr inbounds %"struct.std::_Vector_base.104", %"struct.std::_Vector_base.104"* %6, i32 0, i32 0
  %8 = bitcast %"struct.std::_Vector_base<Tensor<1, 3>, std::allocator<Tensor<1, 3> > >::_Vector_impl"* %7 to %"struct.std::_Vector_base<Tensor<1, 3>, std::allocator<Tensor<1, 3> > >::_Vector_impl_data"*
  %9 = getelementptr inbounds %"struct.std::_Vector_base<Tensor<1, 3>, std::allocator<Tensor<1, 3> > >::_Vector_impl_data", %"struct.std::_Vector_base<Tensor<1, 3>, std::allocator<Tensor<1, 3> > >::_Vector_impl_data"* %8, i32 0, i32 0
  %10 = load %class.Tensor*, %class.Tensor** %9, align 8
  %11 = bitcast %"class.std::vector.103"* %5 to %"struct.std::_Vector_base.104"*
  %12 = getelementptr inbounds %"struct.std::_Vector_base.104", %"struct.std::_Vector_base.104"* %11, i32 0, i32 0
  %13 = bitcast %"struct.std::_Vector_base<Tensor<1, 3>, std::allocator<Tensor<1, 3> > >::_Vector_impl"* %12 to %"struct.std::_Vector_base<Tensor<1, 3>, std::allocator<Tensor<1, 3> > >::_Vector_impl_data"*
  %14 = getelementptr inbounds %"struct.std::_Vector_base<Tensor<1, 3>, std::allocator<Tensor<1, 3> > >::_Vector_impl_data", %"struct.std::_Vector_base<Tensor<1, 3>, std::allocator<Tensor<1, 3> > >::_Vector_impl_data"* %13, i32 0, i32 1
  %15 = load %class.Tensor*, %class.Tensor** %14, align 8
  %16 = bitcast %"class.std::vector.103"* %5 to %"struct.std::_Vector_base.104"*
  %17 = invoke dereferenceable(1) %"class.std::allocator.105"* @_ZNSt12_Vector_baseI6TensorILi1ELi3EESaIS1_EE19_M_get_Tp_allocatorEv(%"struct.std::_Vector_base.104"* %16)
          to label %18 unwind label %21

; <label>:18:                                     ; preds = %1
  invoke void @_ZSt8_DestroyIP6TensorILi1ELi3EES1_EvT_S3_RSaIT0_E(%class.Tensor* %10, %class.Tensor* %15, %"class.std::allocator.105"* dereferenceable(1) %17)
          to label %19 unwind label %21

; <label>:19:                                     ; preds = %18
  %20 = bitcast %"class.std::vector.103"* %5 to %"struct.std::_Vector_base.104"*
  call void @_ZNSt12_Vector_baseI6TensorILi1ELi3EESaIS1_EED2Ev(%"struct.std::_Vector_base.104"* %20)
  ret void

; <label>:21:                                     ; preds = %18, %1
  %22 = landingpad { i8*, i32 }
          cleanup
  %23 = extractvalue { i8*, i32 } %22, 0
  store i8* %23, i8** %3, align 8
  %24 = extractvalue { i8*, i32 } %22, 1
  store i32 %24, i32* %4, align 4
  %25 = bitcast %"class.std::vector.103"* %5 to %"struct.std::_Vector_base.104"*
  invoke void @_ZNSt12_Vector_baseI6TensorILi1ELi3EESaIS1_EED2Ev(%"struct.std::_Vector_base.104"* %25)
          to label %26 unwind label %32

; <label>:26:                                     ; preds = %21
  br label %27

; <label>:27:                                     ; preds = %26
  %28 = load i8*, i8** %3, align 8
  %29 = load i32, i32* %4, align 4
  %30 = insertvalue { i8*, i32 } undef, i8* %28, 0
  %31 = insertvalue { i8*, i32 } %30, i32 %29, 1
  resume { i8*, i32 } %31

; <label>:32:                                     ; preds = %21
  %33 = landingpad { i8*, i32 }
          catch i8* null
  %34 = extractvalue { i8*, i32 } %33, 0
  call void @__clang_call_terminate(i8* %34) #12
  unreachable
}

; Function Attrs: noinline uwtable
define linkonce_odr void @_ZNSt6vectorIdSaIdEED2Ev(%"class.std::vector.0"*) unnamed_addr #0 comdat align 2 personality i8* bitcast (i32 (...)* @__gxx_personality_v0 to i8*) {
  %2 = alloca %"class.std::vector.0"*, align 8
  %3 = alloca i8*
  %4 = alloca i32
  store %"class.std::vector.0"* %0, %"class.std::vector.0"** %2, align 8
  %5 = load %"class.std::vector.0"*, %"class.std::vector.0"** %2, align 8
  %6 = bitcast %"class.std::vector.0"* %5 to %"struct.std::_Vector_base.1"*
  %7 = getelementptr inbounds %"struct.std::_Vector_base.1", %"struct.std::_Vector_base.1"* %6, i32 0, i32 0
  %8 = bitcast %"struct.std::_Vector_base<double, std::allocator<double> >::_Vector_impl"* %7 to %"struct.std::_Vector_base<double, std::allocator<double> >::_Vector_impl_data"*
  %9 = getelementptr inbounds %"struct.std::_Vector_base<double, std::allocator<double> >::_Vector_impl_data", %"struct.std::_Vector_base<double, std::allocator<double> >::_Vector_impl_data"* %8, i32 0, i32 0
  %10 = load double*, double** %9, align 8
  %11 = bitcast %"class.std::vector.0"* %5 to %"struct.std::_Vector_base.1"*
  %12 = getelementptr inbounds %"struct.std::_Vector_base.1", %"struct.std::_Vector_base.1"* %11, i32 0, i32 0
  %13 = bitcast %"struct.std::_Vector_base<double, std::allocator<double> >::_Vector_impl"* %12 to %"struct.std::_Vector_base<double, std::allocator<double> >::_Vector_impl_data"*
  %14 = getelementptr inbounds %"struct.std::_Vector_base<double, std::allocator<double> >::_Vector_impl_data", %"struct.std::_Vector_base<double, std::allocator<double> >::_Vector_impl_data"* %13, i32 0, i32 1
  %15 = load double*, double** %14, align 8
  %16 = bitcast %"class.std::vector.0"* %5 to %"struct.std::_Vector_base.1"*
  %17 = invoke dereferenceable(1) %"class.std::allocator.2"* @_ZNSt12_Vector_baseIdSaIdEE19_M_get_Tp_allocatorEv(%"struct.std::_Vector_base.1"* %16)
          to label %18 unwind label %21

; <label>:18:                                     ; preds = %1
  invoke void @_ZSt8_DestroyIPddEvT_S1_RSaIT0_E(double* %10, double* %15, %"class.std::allocator.2"* dereferenceable(1) %17)
          to label %19 unwind label %21

; <label>:19:                                     ; preds = %18
  %20 = bitcast %"class.std::vector.0"* %5 to %"struct.std::_Vector_base.1"*
  call void @_ZNSt12_Vector_baseIdSaIdEED2Ev(%"struct.std::_Vector_base.1"* %20)
  ret void

; <label>:21:                                     ; preds = %18, %1
  %22 = landingpad { i8*, i32 }
          cleanup
  %23 = extractvalue { i8*, i32 } %22, 0
  store i8* %23, i8** %3, align 8
  %24 = extractvalue { i8*, i32 } %22, 1
  store i32 %24, i32* %4, align 4
  %25 = bitcast %"class.std::vector.0"* %5 to %"struct.std::_Vector_base.1"*
  invoke void @_ZNSt12_Vector_baseIdSaIdEED2Ev(%"struct.std::_Vector_base.1"* %25)
          to label %26 unwind label %32

; <label>:26:                                     ; preds = %21
  br label %27

; <label>:27:                                     ; preds = %26
  %28 = load i8*, i8** %3, align 8
  %29 = load i32, i32* %4, align 4
  %30 = insertvalue { i8*, i32 } undef, i8* %28, 0
  %31 = insertvalue { i8*, i32 } %30, i32 %29, 1
  resume { i8*, i32 } %31

; <label>:32:                                     ; preds = %21
  %33 = landingpad { i8*, i32 }
          catch i8* null
  %34 = extractvalue { i8*, i32 } %33, 0
  call void @__clang_call_terminate(i8* %34) #12
  unreachable
}

; Function Attrs: noinline nounwind uwtable
define linkonce_odr i32 @_ZNK5TableILi2EdE6n_rowsEv(%class.Table*) #1 comdat align 2 {
  %2 = alloca %class.Table*, align 8
  store %class.Table* %0, %class.Table** %2, align 8
  %3 = load %class.Table*, %class.Table** %2, align 8
  %4 = bitcast %class.Table* %3 to %class.TableBase*
  %5 = getelementptr inbounds %class.TableBase, %class.TableBase* %4, i32 0, i32 3
  %6 = bitcast %class.TableIndices* %5 to %class.TableIndicesBase*
  %7 = call i32 @_ZNK16TableIndicesBaseILi2EEixEj(%class.TableIndicesBase* %6, i32 0)
  ret i32 %7
}

declare void @_ZN6QGaussILi3EEC1Ej(%class.QGauss*, i32) unnamed_addr #3

declare void @_ZNK9MappingQ1ILi3EE14compute_shapesERKSt6vectorI5PointILi3EESaIS3_EERNS0_12InternalDataE(%class.MappingQ1*, %"class.std::vector.58"* dereferenceable(24), %"class.MappingQ1<3>::InternalData"* dereferenceable(288)) #3

declare dereferenceable(24) %"class.std::vector.58"* @_ZNK10QuadratureILi3EE10get_pointsEv(%class.Quadrature*) #3

declare void @_ZN10FullMatrixIdEC1Ej(%class.FullMatrix*, i32) unnamed_addr #3

; Function Attrs: noinline nounwind uwtable
define linkonce_odr double @_Z8contractILi3EEdRK6TensorILi1EXT_EES3_(%class.Tensor* dereferenceable(24), %class.Tensor* dereferenceable(24)) #1 comdat {
  %3 = alloca %class.Tensor*, align 8
  %4 = alloca %class.Tensor*, align 8
  %5 = alloca double, align 8
  %6 = alloca i32, align 4
  store %class.Tensor* %0, %class.Tensor** %3, align 8
  store %class.Tensor* %1, %class.Tensor** %4, align 8
  store double 0.000000e+00, double* %5, align 8
  store i32 0, i32* %6, align 4
  br label %7

; <label>:7:                                      ; preds = %20, %2
  %8 = load i32, i32* %6, align 4
  %9 = icmp ult i32 %8, 3
  br i1 %9, label %10, label %23

; <label>:10:                                     ; preds = %7
  %11 = load %class.Tensor*, %class.Tensor** %3, align 8
  %12 = load i32, i32* %6, align 4
  %13 = call double @_ZNK6TensorILi1ELi3EEixEj(%class.Tensor* %11, i32 %12)
  %14 = load %class.Tensor*, %class.Tensor** %4, align 8
  %15 = load i32, i32* %6, align 4
  %16 = call double @_ZNK6TensorILi1ELi3EEixEj(%class.Tensor* %14, i32 %15)
  %17 = fmul double %13, %16
  %18 = load double, double* %5, align 8
  %19 = fadd double %18, %17
  store double %19, double* %5, align 8
  br label %20

; <label>:20:                                     ; preds = %10
  %21 = load i32, i32* %6, align 4
  %22 = add i32 %21, 1
  store i32 %22, i32* %6, align 4
  br label %7

; <label>:23:                                     ; preds = %7
  %24 = load double, double* %5, align 8
  ret double %24
}

declare double @_ZNK10QuadratureILi3EE6weightEj(%class.Quadrature*, i32) #3

; Function Attrs: noinline nounwind uwtable
define linkonce_odr dereferenceable(8) double* @_ZN5TableILi2EdEclEjj(%class.Table*, i32, i32) #1 comdat align 2 {
  %4 = alloca %class.Table*, align 8
  %5 = alloca i32, align 4
  %6 = alloca i32, align 4
  store %class.Table* %0, %class.Table** %4, align 8
  store i32 %1, i32* %5, align 4
  store i32 %2, i32* %6, align 4
  %7 = load %class.Table*, %class.Table** %4, align 8
  %8 = bitcast %class.Table* %7 to %class.TableBase*
  %9 = getelementptr inbounds %class.TableBase, %class.TableBase* %8, i32 0, i32 1
  %10 = load double*, double** %9, align 8
  %11 = load i32, i32* %5, align 4
  %12 = bitcast %class.Table* %7 to %class.TableBase*
  %13 = getelementptr inbounds %class.TableBase, %class.TableBase* %12, i32 0, i32 3
  %14 = bitcast %class.TableIndices* %13 to %class.TableIndicesBase*
  %15 = call i32 @_ZNK16TableIndicesBaseILi2EEixEj(%class.TableIndicesBase* %14, i32 1)
  %16 = mul i32 %11, %15
  %17 = load i32, i32* %6, align 4
  %18 = add i32 %16, %17
  %19 = zext i32 %18 to i64
  %20 = getelementptr inbounds double, double* %10, i64 %19
  ret double* %20
}

declare void @_ZN10FullMatrixIdEC1Ejj(%class.FullMatrix*, i32, i32) unnamed_addr #3

declare void @_ZN10FullMatrixIdE6invertIdEEvRKS_IT_E(%class.FullMatrix*, %class.FullMatrix* dereferenceable(48)) #3

declare void @_ZNK10FullMatrixIdE5mmultIdEEvRS_IT_ERKS3_b(%class.FullMatrix*, %class.FullMatrix* dereferenceable(48), %class.FullMatrix* dereferenceable(48), i1 zeroext) #3

; Function Attrs: noinline uwtable
define linkonce_odr void @_ZN10FullMatrixIdED2Ev(%class.FullMatrix*) unnamed_addr #0 comdat align 2 {
  %2 = alloca %class.FullMatrix*, align 8
  store %class.FullMatrix* %0, %class.FullMatrix** %2, align 8
  %3 = load %class.FullMatrix*, %class.FullMatrix** %2, align 8
  %4 = bitcast %class.FullMatrix* %3 to %class.Table*
  call void @_ZN5TableILi2EdED2Ev(%class.Table* %4)
  ret void
}

; Function Attrs: noinline uwtable
define linkonce_odr void @_ZN8MappingQILi3EE12InternalDataD2Ev(%"class.MappingQ<3>::InternalData"*) unnamed_addr #0 comdat align 2 personality i8* bitcast (i32 (...)* @__gxx_personality_v0 to i8*) {
  %2 = alloca %"class.MappingQ<3>::InternalData"*, align 8
  %3 = alloca i8*
  %4 = alloca i32
  store %"class.MappingQ<3>::InternalData"* %0, %"class.MappingQ<3>::InternalData"** %2, align 8
  %5 = load %"class.MappingQ<3>::InternalData"*, %"class.MappingQ<3>::InternalData"** %2, align 8
  %6 = bitcast %"class.MappingQ<3>::InternalData"* %5 to i32 (...)***
  store i32 (...)** bitcast (i8** getelementptr inbounds ({ [6 x i8*] }, { [6 x i8*] }* @_ZTVN8MappingQILi3EE12InternalDataE, i32 0, inrange i32 0, i32 2) to i32 (...)**), i32 (...)*** %6, align 8
  %7 = getelementptr inbounds %"class.MappingQ<3>::InternalData", %"class.MappingQ<3>::InternalData"* %5, i32 0, i32 3
  invoke void @_ZN9MappingQ1ILi3EE12InternalDataD2Ev(%"class.MappingQ1<3>::InternalData"* %7)
          to label %8 unwind label %12

; <label>:8:                                      ; preds = %1
  %9 = getelementptr inbounds %"class.MappingQ<3>::InternalData", %"class.MappingQ<3>::InternalData"* %5, i32 0, i32 1
  invoke void @_ZNSt6vectorIS_I5PointILi3EESaIS1_EESaIS3_EED2Ev(%"class.std::vector.129"* %9)
          to label %10 unwind label %17

; <label>:10:                                     ; preds = %8
  %11 = bitcast %"class.MappingQ<3>::InternalData"* %5 to %"class.MappingQ1<3>::InternalData"*
  call void @_ZN9MappingQ1ILi3EE12InternalDataD2Ev(%"class.MappingQ1<3>::InternalData"* %11)
  ret void

; <label>:12:                                     ; preds = %1
  %13 = landingpad { i8*, i32 }
          cleanup
  %14 = extractvalue { i8*, i32 } %13, 0
  store i8* %14, i8** %3, align 8
  %15 = extractvalue { i8*, i32 } %13, 1
  store i32 %15, i32* %4, align 4
  %16 = getelementptr inbounds %"class.MappingQ<3>::InternalData", %"class.MappingQ<3>::InternalData"* %5, i32 0, i32 1
  invoke void @_ZNSt6vectorIS_I5PointILi3EESaIS1_EESaIS3_EED2Ev(%"class.std::vector.129"* %16)
          to label %21 unwind label %30

; <label>:17:                                     ; preds = %8
  %18 = landingpad { i8*, i32 }
          cleanup
  %19 = extractvalue { i8*, i32 } %18, 0
  store i8* %19, i8** %3, align 8
  %20 = extractvalue { i8*, i32 } %18, 1
  store i32 %20, i32* %4, align 4
  br label %22

; <label>:21:                                     ; preds = %12
  br label %22

; <label>:22:                                     ; preds = %21, %17
  %23 = bitcast %"class.MappingQ<3>::InternalData"* %5 to %"class.MappingQ1<3>::InternalData"*
  invoke void @_ZN9MappingQ1ILi3EE12InternalDataD2Ev(%"class.MappingQ1<3>::InternalData"* %23)
          to label %24 unwind label %30

; <label>:24:                                     ; preds = %22
  br label %25

; <label>:25:                                     ; preds = %24
  %26 = load i8*, i8** %3, align 8
  %27 = load i32, i32* %4, align 4
  %28 = insertvalue { i8*, i32 } undef, i8* %26, 0
  %29 = insertvalue { i8*, i32 } %28, i32 %27, 1
  resume { i8*, i32 } %29

; <label>:30:                                     ; preds = %22, %12
  %31 = landingpad { i8*, i32 }
          catch i8* null
  %32 = extractvalue { i8*, i32 } %31, 0
  call void @__clang_call_terminate(i8* %32) #12
  unreachable
}

; Function Attrs: noinline uwtable
define linkonce_odr void @_ZN6QGaussILi3EED2Ev(%class.QGauss*) unnamed_addr #0 comdat align 2 {
  %2 = alloca %class.QGauss*, align 8
  store %class.QGauss* %0, %class.QGauss** %2, align 8
  %3 = load %class.QGauss*, %class.QGauss** %2, align 8
  %4 = bitcast %class.QGauss* %3 to %class.Quadrature*
  call void @_ZN10QuadratureILi3EED2Ev(%class.Quadrature* %4)
  ret void
}

; Function Attrs: noinline nounwind uwtable
define linkonce_odr i32 @_ZNK5TableILi2EdE6n_colsEv(%class.Table*) #1 comdat align 2 {
  %2 = alloca %class.Table*, align 8
  store %class.Table* %0, %class.Table** %2, align 8
  %3 = load %class.Table*, %class.Table** %2, align 8
  %4 = bitcast %class.Table* %3 to %class.TableBase*
  %5 = getelementptr inbounds %class.TableBase, %class.TableBase* %4, i32 0, i32 3
  %6 = bitcast %class.TableIndices* %5 to %class.TableIndicesBase*
  %7 = call i32 @_ZNK16TableIndicesBaseILi2EEixEj(%class.TableIndicesBase* %6, i32 1)
  ret i32 %7
}

; Function Attrs: noinline uwtable
define linkonce_odr void @_ZmlILi3EE5PointIXT_EEdRKS1_(%class.Point* noalias sret, double, %class.Point* dereferenceable(24)) #0 comdat {
  %4 = alloca double, align 8
  %5 = alloca %class.Point*, align 8
  store double %1, double* %4, align 8
  store %class.Point* %2, %class.Point** %5, align 8
  %6 = load %class.Point*, %class.Point** %5, align 8
  %7 = load double, double* %4, align 8
  call void @_ZNK5PointILi3EEmlEd(%class.Point* sret %0, %class.Point* %6, double %7)
  ret void
}

; Function Attrs: noinline uwtable
define linkonce_odr void @_ZNK5TableILi2EdEixEj(%"class.internal::TableBaseAccessors::Accessor.136"* noalias sret, %class.Table*, i32) #0 comdat align 2 {
  %4 = alloca %class.Table*, align 8
  %5 = alloca i32, align 4
  store %class.Table* %1, %class.Table** %4, align 8
  store i32 %2, i32* %5, align 4
  %6 = load %class.Table*, %class.Table** %4, align 8
  %7 = bitcast %class.Table* %6 to %class.TableBase*
  %8 = bitcast %class.Table* %6 to %class.TableBase*
  %9 = getelementptr inbounds %class.TableBase, %class.TableBase* %8, i32 0, i32 1
  %10 = load double*, double** %9, align 8
  %11 = load i32, i32* %5, align 4
  %12 = call i32 @_ZNK5TableILi2EdE6n_colsEv(%class.Table* %6)
  %13 = mul i32 %11, %12
  %14 = zext i32 %13 to i64
  %15 = getelementptr inbounds double, double* %10, i64 %14
  call void @_ZN8internal18TableBaseAccessors8AccessorILi2EdLb1ELj1EEC2ERK9TableBaseILi2EdEPKd(%"class.internal::TableBaseAccessors::Accessor.136"* %0, %class.TableBase* dereferenceable(48) %7, double* %15)
  ret void
}

; Function Attrs: noinline nounwind uwtable
define linkonce_odr dereferenceable(8) double* @_ZNK8internal18TableBaseAccessors8AccessorILi2EdLb1ELj1EEixEj(%"class.internal::TableBaseAccessors::Accessor.136"*, i32) #1 comdat align 2 {
  %3 = alloca %"class.internal::TableBaseAccessors::Accessor.136"*, align 8
  %4 = alloca i32, align 4
  store %"class.internal::TableBaseAccessors::Accessor.136"* %0, %"class.internal::TableBaseAccessors::Accessor.136"** %3, align 8
  store i32 %1, i32* %4, align 4
  %5 = load %"class.internal::TableBaseAccessors::Accessor.136"*, %"class.internal::TableBaseAccessors::Accessor.136"** %3, align 8
  %6 = getelementptr inbounds %"class.internal::TableBaseAccessors::Accessor.136", %"class.internal::TableBaseAccessors::Accessor.136"* %5, i32 0, i32 1
  %7 = load double*, double** %6, align 8
  %8 = load i32, i32* %4, align 4
  %9 = zext i32 %8 to i64
  %10 = getelementptr inbounds double, double* %7, i64 %9
  ret double* %10
}

; Function Attrs: noinline nounwind uwtable
define linkonce_odr dereferenceable(24) %class.Tensor* @_ZN6TensorILi1ELi3EEpLERKS0_(%class.Tensor*, %class.Tensor* dereferenceable(24)) #1 comdat align 2 {
  %3 = alloca %class.Tensor*, align 8
  %4 = alloca %class.Tensor*, align 8
  %5 = alloca i32, align 4
  store %class.Tensor* %0, %class.Tensor** %3, align 8
  store %class.Tensor* %1, %class.Tensor** %4, align 8
  %6 = load %class.Tensor*, %class.Tensor** %3, align 8
  store i32 0, i32* %5, align 4
  br label %7

; <label>:7:                                      ; preds = %23, %2
  %8 = load i32, i32* %5, align 4
  %9 = icmp ult i32 %8, 3
  br i1 %9, label %10, label %26

; <label>:10:                                     ; preds = %7
  %11 = load %class.Tensor*, %class.Tensor** %4, align 8
  %12 = getelementptr inbounds %class.Tensor, %class.Tensor* %11, i32 0, i32 0
  %13 = load i32, i32* %5, align 4
  %14 = zext i32 %13 to i64
  %15 = getelementptr inbounds [3 x double], [3 x double]* %12, i64 0, i64 %14
  %16 = load double, double* %15, align 8
  %17 = getelementptr inbounds %class.Tensor, %class.Tensor* %6, i32 0, i32 0
  %18 = load i32, i32* %5, align 4
  %19 = zext i32 %18 to i64
  %20 = getelementptr inbounds [3 x double], [3 x double]* %17, i64 0, i64 %19
  %21 = load double, double* %20, align 8
  %22 = fadd double %21, %16
  store double %22, double* %20, align 8
  br label %23

; <label>:23:                                     ; preds = %10
  %24 = load i32, i32* %5, align 4
  %25 = add i32 %24, 1
  store i32 %25, i32* %5, align 4
  br label %7

; <label>:26:                                     ; preds = %7
  ret %class.Tensor* %6
}

; Function Attrs: noinline uwtable
define weak_odr void @_ZNK8MappingQILi3EE30compute_mapping_support_pointsERK12TriaIteratorILi3E12CellAccessorILi3EEERSt6vectorI5PointILi3EESaIS9_EE(%class.MappingQ*, %class.TriaIterator* dereferenceable(16), %"class.std::vector.58"* dereferenceable(24)) unnamed_addr #0 comdat align 2 {
  %4 = alloca %class.MappingQ*, align 8
  %5 = alloca %class.TriaIterator*, align 8
  %6 = alloca %"class.std::vector.58"*, align 8
  %7 = alloca %class.Point, align 8
  %8 = alloca i32, align 4
  store %class.MappingQ* %0, %class.MappingQ** %4, align 8
  store %class.TriaIterator* %1, %class.TriaIterator** %5, align 8
  store %"class.std::vector.58"* %2, %"class.std::vector.58"** %6, align 8
  %9 = load %class.MappingQ*, %class.MappingQ** %4, align 8
  %10 = load %class.TriaIterator*, %class.TriaIterator** %5, align 8
  %11 = bitcast %class.TriaIterator* %10 to %class.TriaRawIterator*
  %12 = call %class.CellAccessor* @_ZNK15TriaRawIteratorILi3E12CellAccessorILi3EEEptEv(%class.TriaRawIterator* %11)
  %13 = call zeroext i1 @_ZNK12CellAccessorILi3EE18has_boundary_linesEv(%class.CellAccessor* %12)
  br i1 %13, label %14, label %17

; <label>:14:                                     ; preds = %3
  %15 = load %class.TriaIterator*, %class.TriaIterator** %5, align 8
  %16 = load %"class.std::vector.58"*, %"class.std::vector.58"** %6, align 8
  call void @_ZNK8MappingQILi3EE30compute_support_points_laplaceERK12TriaIteratorILi3E12CellAccessorILi3EEERSt6vectorI5PointILi3EESaIS9_EE(%class.MappingQ* %9, %class.TriaIterator* dereferenceable(16) %15, %"class.std::vector.58"* dereferenceable(24) %16)
  br label %41

; <label>:17:                                     ; preds = %3
  %18 = load %"class.std::vector.58"*, %"class.std::vector.58"** %6, align 8
  call void @_ZN5PointILi3EEC2Ev(%class.Point* %7)
  call void @_ZNSt6vectorI5PointILi3EESaIS1_EE6resizeEmS1_(%"class.std::vector.58"* %18, i64 8, %class.Point* %7)
  store i32 0, i32* %8, align 4
  br label %19

; <label>:19:                                     ; preds = %37, %17
  %20 = load i32, i32* %8, align 4
  %21 = icmp ult i32 %20, 8
  br i1 %21, label %22, label %40

; <label>:22:                                     ; preds = %19
  %23 = load %class.TriaIterator*, %class.TriaIterator** %5, align 8
  %24 = bitcast %class.TriaIterator* %23 to %class.TriaRawIterator*
  %25 = call %class.CellAccessor* @_ZNK15TriaRawIteratorILi3E12CellAccessorILi3EEEptEv(%class.TriaRawIterator* %24)
  %26 = bitcast %class.CellAccessor* %25 to %class.TriaObjectAccessor*
  %27 = load i32, i32* %8, align 4
  %28 = zext i32 %27 to i64
  %29 = getelementptr inbounds [8 x i32], [8 x i32]* @_ZN9MappingQ1ILi3EE14vertex_mappingE, i64 0, i64 %28
  %30 = load i32, i32* %29, align 4
  %31 = call dereferenceable(24) %class.Point* @_ZNK18TriaObjectAccessorILi3ELi3EE6vertexEj(%class.TriaObjectAccessor* %26, i32 %30)
  %32 = load %"class.std::vector.58"*, %"class.std::vector.58"** %6, align 8
  %33 = load i32, i32* %8, align 4
  %34 = zext i32 %33 to i64
  %35 = call dereferenceable(24) %class.Point* @_ZNSt6vectorI5PointILi3EESaIS1_EEixEm(%"class.std::vector.58"* %32, i64 %34)
  %36 = call dereferenceable(24) %class.Point* @_ZN5PointILi3EEaSERKS0_(%class.Point* %35, %class.Point* dereferenceable(24) %31)
  br label %37

; <label>:37:                                     ; preds = %22
  %38 = load i32, i32* %8, align 4
  %39 = add i32 %38, 1
  store i32 %39, i32* %8, align 4
  br label %19

; <label>:40:                                     ; preds = %19
  br label %41

; <label>:41:                                     ; preds = %40, %14
  ret void
}

; Function Attrs: noinline uwtable
define weak_odr void @_ZNK8MappingQILi3EE30compute_support_points_laplaceERK12TriaIteratorILi3E12CellAccessorILi3EEERSt6vectorI5PointILi3EESaIS9_EE(%class.MappingQ*, %class.TriaIterator* dereferenceable(16), %"class.std::vector.58"* dereferenceable(24)) #0 comdat align 2 {
  %4 = alloca %class.MappingQ*, align 8
  %5 = alloca %class.TriaIterator*, align 8
  %6 = alloca %"class.std::vector.58"*, align 8
  %7 = alloca %class.Point, align 8
  %8 = alloca i32, align 4
  store %class.MappingQ* %0, %class.MappingQ** %4, align 8
  store %class.TriaIterator* %1, %class.TriaIterator** %5, align 8
  store %"class.std::vector.58"* %2, %"class.std::vector.58"** %6, align 8
  %9 = load %class.MappingQ*, %class.MappingQ** %4, align 8
  %10 = load %"class.std::vector.58"*, %"class.std::vector.58"** %6, align 8
  call void @_ZN5PointILi3EEC2Ev(%class.Point* %7)
  call void @_ZNSt6vectorI5PointILi3EESaIS1_EE6resizeEmS1_(%"class.std::vector.58"* %10, i64 8, %class.Point* %7)
  store i32 0, i32* %8, align 4
  br label %11

; <label>:11:                                     ; preds = %26, %3
  %12 = load i32, i32* %8, align 4
  %13 = icmp ult i32 %12, 8
  br i1 %13, label %14, label %29

; <label>:14:                                     ; preds = %11
  %15 = load %class.TriaIterator*, %class.TriaIterator** %5, align 8
  %16 = bitcast %class.TriaIterator* %15 to %class.TriaRawIterator*
  %17 = call %class.CellAccessor* @_ZNK15TriaRawIteratorILi3E12CellAccessorILi3EEEptEv(%class.TriaRawIterator* %16)
  %18 = bitcast %class.CellAccessor* %17 to %class.TriaObjectAccessor*
  %19 = load i32, i32* %8, align 4
  %20 = call dereferenceable(24) %class.Point* @_ZNK18TriaObjectAccessorILi3ELi3EE6vertexEj(%class.TriaObjectAccessor* %18, i32 %19)
  %21 = load %"class.std::vector.58"*, %"class.std::vector.58"** %6, align 8
  %22 = load i32, i32* %8, align 4
  %23 = zext i32 %22 to i64
  %24 = call dereferenceable(24) %class.Point* @_ZNSt6vectorI5PointILi3EESaIS1_EEixEm(%"class.std::vector.58"* %21, i64 %23)
  %25 = call dereferenceable(24) %class.Point* @_ZN5PointILi3EEaSERKS0_(%class.Point* %24, %class.Point* dereferenceable(24) %20)
  br label %26

; <label>:26:                                     ; preds = %14
  %27 = load i32, i32* %8, align 4
  %28 = add i32 %27, 1
  store i32 %28, i32* %8, align 4
  br label %11

; <label>:29:                                     ; preds = %11
  %30 = getelementptr inbounds %class.MappingQ, %class.MappingQ* %9, i32 0, i32 3
  %31 = load i32, i32* %30, align 8
  %32 = icmp ugt i32 %31, 1
  br i1 %32, label %33, label %48

; <label>:33:                                     ; preds = %29
  %34 = bitcast %class.MappingQ* %9 to void (%class.MappingQ*, %class.TriaIterator*, %"class.std::vector.58"*)***
  %35 = load void (%class.MappingQ*, %class.TriaIterator*, %"class.std::vector.58"*)**, void (%class.MappingQ*, %class.TriaIterator*, %"class.std::vector.58"*)*** %34, align 8
  %36 = getelementptr inbounds void (%class.MappingQ*, %class.TriaIterator*, %"class.std::vector.58"*)*, void (%class.MappingQ*, %class.TriaIterator*, %"class.std::vector.58"*)** %35, i64 18
  %37 = load void (%class.MappingQ*, %class.TriaIterator*, %"class.std::vector.58"*)*, void (%class.MappingQ*, %class.TriaIterator*, %"class.std::vector.58"*)** %36, align 8
  %38 = load %class.TriaIterator*, %class.TriaIterator** %5, align 8
  %39 = load %"class.std::vector.58"*, %"class.std::vector.58"** %6, align 8
  call void %37(%class.MappingQ* %9, %class.TriaIterator* dereferenceable(16) %38, %"class.std::vector.58"* dereferenceable(24) %39)
  %40 = bitcast %class.MappingQ* %9 to void (%class.MappingQ*, %class.TriaIterator*, %"class.std::vector.58"*)***
  %41 = load void (%class.MappingQ*, %class.TriaIterator*, %"class.std::vector.58"*)**, void (%class.MappingQ*, %class.TriaIterator*, %"class.std::vector.58"*)*** %40, align 8
  %42 = getelementptr inbounds void (%class.MappingQ*, %class.TriaIterator*, %"class.std::vector.58"*)*, void (%class.MappingQ*, %class.TriaIterator*, %"class.std::vector.58"*)** %41, i64 19
  %43 = load void (%class.MappingQ*, %class.TriaIterator*, %"class.std::vector.58"*)*, void (%class.MappingQ*, %class.TriaIterator*, %"class.std::vector.58"*)** %42, align 8
  %44 = load %class.TriaIterator*, %class.TriaIterator** %5, align 8
  %45 = load %"class.std::vector.58"*, %"class.std::vector.58"** %6, align 8
  call void %43(%class.MappingQ* %9, %class.TriaIterator* dereferenceable(16) %44, %"class.std::vector.58"* dereferenceable(24) %45)
  %46 = getelementptr inbounds %class.MappingQ, %class.MappingQ* %9, i32 0, i32 2
  %47 = load %"class.std::vector.58"*, %"class.std::vector.58"** %6, align 8
  call void @_ZNK8MappingQILi3EE20apply_laplace_vectorERK5TableILi2EdERSt6vectorI5PointILi3EESaIS7_EE(%class.MappingQ* %9, %class.Table* dereferenceable(48) %46, %"class.std::vector.58"* dereferenceable(24) %47)
  br label %48

; <label>:48:                                     ; preds = %33, %29
  ret void
}

declare dereferenceable(24) %class.Point* @_ZNK18TriaObjectAccessorILi3ELi3EE6vertexEj(%class.TriaObjectAccessor*, i32) #3

; Function Attrs: noinline uwtable
define weak_odr void @_ZN8MappingQILi3EE22ExcLaplaceVectorNotSetC2Ei(%"class.MappingQ<3>::ExcLaplaceVectorNotSet"*, i32) unnamed_addr #0 comdat($_ZN8MappingQILi3EE22ExcLaplaceVectorNotSetC5Ei) align 2 {
  %3 = alloca %"class.MappingQ<3>::ExcLaplaceVectorNotSet"*, align 8
  %4 = alloca i32, align 4
  store %"class.MappingQ<3>::ExcLaplaceVectorNotSet"* %0, %"class.MappingQ<3>::ExcLaplaceVectorNotSet"** %3, align 8
  store i32 %1, i32* %4, align 4
  %5 = load %"class.MappingQ<3>::ExcLaplaceVectorNotSet"*, %"class.MappingQ<3>::ExcLaplaceVectorNotSet"** %3, align 8
  %6 = bitcast %"class.MappingQ<3>::ExcLaplaceVectorNotSet"* %5 to %class.ExceptionBase*
  call void @_ZN13ExceptionBaseC2Ev(%class.ExceptionBase* %6)
  %7 = bitcast %"class.MappingQ<3>::ExcLaplaceVectorNotSet"* %5 to i32 (...)***
  store i32 (...)** bitcast (i8** getelementptr inbounds ({ [6 x i8*] }, { [6 x i8*] }* @_ZTVN8MappingQILi3EE22ExcLaplaceVectorNotSetE, i32 0, inrange i32 0, i32 2) to i32 (...)**), i32 (...)*** %7, align 8
  %8 = getelementptr inbounds %"class.MappingQ<3>::ExcLaplaceVectorNotSet", %"class.MappingQ<3>::ExcLaplaceVectorNotSet"* %5, i32 0, i32 1
  %9 = load i32, i32* %4, align 4
  store i32 %9, i32* %8, align 8
  ret void
}

declare void @_ZN13ExceptionBaseC2Ev(%class.ExceptionBase*) unnamed_addr #3

; Function Attrs: noinline nounwind uwtable
define weak_odr void @_ZN8MappingQILi3EE22ExcLaplaceVectorNotSetD2Ev(%"class.MappingQ<3>::ExcLaplaceVectorNotSet"*) unnamed_addr #1 comdat($_ZN8MappingQILi3EE22ExcLaplaceVectorNotSetD5Ev) align 2 {
  %2 = alloca %"class.MappingQ<3>::ExcLaplaceVectorNotSet"*, align 8
  store %"class.MappingQ<3>::ExcLaplaceVectorNotSet"* %0, %"class.MappingQ<3>::ExcLaplaceVectorNotSet"** %2, align 8
  %3 = load %"class.MappingQ<3>::ExcLaplaceVectorNotSet"*, %"class.MappingQ<3>::ExcLaplaceVectorNotSet"** %2, align 8
  %4 = bitcast %"class.MappingQ<3>::ExcLaplaceVectorNotSet"* %3 to %class.ExceptionBase*
  call void @_ZN13ExceptionBaseD2Ev(%class.ExceptionBase* %4) #2
  ret void
}

; Function Attrs: nounwind
declare void @_ZN13ExceptionBaseD2Ev(%class.ExceptionBase*) unnamed_addr #9

; Function Attrs: noinline nounwind uwtable
define weak_odr void @_ZN8MappingQILi3EE22ExcLaplaceVectorNotSetD0Ev(%"class.MappingQ<3>::ExcLaplaceVectorNotSet"*) unnamed_addr #1 comdat($_ZN8MappingQILi3EE22ExcLaplaceVectorNotSetD5Ev) align 2 {
  %2 = alloca %"class.MappingQ<3>::ExcLaplaceVectorNotSet"*, align 8
  store %"class.MappingQ<3>::ExcLaplaceVectorNotSet"* %0, %"class.MappingQ<3>::ExcLaplaceVectorNotSet"** %2, align 8
  %3 = load %"class.MappingQ<3>::ExcLaplaceVectorNotSet"*, %"class.MappingQ<3>::ExcLaplaceVectorNotSet"** %2, align 8
  call void @_ZN8MappingQILi3EE22ExcLaplaceVectorNotSetD1Ev(%"class.MappingQ<3>::ExcLaplaceVectorNotSet"* %3) #2
  %4 = bitcast %"class.MappingQ<3>::ExcLaplaceVectorNotSet"* %3 to i8*
  call void @_ZdlPv(i8* %4) #14
  ret void
}

; Function Attrs: noinline uwtable
define weak_odr void @_ZNK8MappingQILi3EE22ExcLaplaceVectorNotSet9PrintInfoERSo(%"class.MappingQ<3>::ExcLaplaceVectorNotSet"*, %"class.std::basic_ostream"* dereferenceable(272)) unnamed_addr #0 comdat align 2 {
  %3 = alloca %"class.MappingQ<3>::ExcLaplaceVectorNotSet"*, align 8
  %4 = alloca %"class.std::basic_ostream"*, align 8
  store %"class.MappingQ<3>::ExcLaplaceVectorNotSet"* %0, %"class.MappingQ<3>::ExcLaplaceVectorNotSet"** %3, align 8
  store %"class.std::basic_ostream"* %1, %"class.std::basic_ostream"** %4, align 8
  %5 = load %"class.MappingQ<3>::ExcLaplaceVectorNotSet"*, %"class.MappingQ<3>::ExcLaplaceVectorNotSet"** %3, align 8
  %6 = load %"class.std::basic_ostream"*, %"class.std::basic_ostream"** %4, align 8
  %7 = call dereferenceable(272) %"class.std::basic_ostream"* @_ZStlsISt11char_traitsIcEERSt13basic_ostreamIcT_ES5_PKc(%"class.std::basic_ostream"* dereferenceable(272) %6, i8* getelementptr inbounds ([35 x i8], [35 x i8]* @.str, i32 0, i32 0))
  %8 = getelementptr inbounds %"class.MappingQ<3>::ExcLaplaceVectorNotSet", %"class.MappingQ<3>::ExcLaplaceVectorNotSet"* %5, i32 0, i32 1
  %9 = load i32, i32* %8, align 8
  %10 = call dereferenceable(272) %"class.std::basic_ostream"* @_ZNSolsEi(%"class.std::basic_ostream"* %7, i32 %9)
  %11 = call dereferenceable(272) %"class.std::basic_ostream"* @_ZStlsISt11char_traitsIcEERSt13basic_ostreamIcT_ES5_PKc(%"class.std::basic_ostream"* dereferenceable(272) %10, i8* getelementptr inbounds ([2 x i8], [2 x i8]* @.str.1, i32 0, i32 0))
  %12 = call dereferenceable(272) %"class.std::basic_ostream"* @_ZNSolsEPFRSoS_E(%"class.std::basic_ostream"* %11, %"class.std::basic_ostream"* (%"class.std::basic_ostream"*)* @_ZSt4endlIcSt11char_traitsIcEERSt13basic_ostreamIT_T0_ES6_)
  ret void
}

declare dereferenceable(272) %"class.std::basic_ostream"* @_ZStlsISt11char_traitsIcEERSt13basic_ostreamIcT_ES5_PKc(%"class.std::basic_ostream"* dereferenceable(272), i8*) #3

declare dereferenceable(272) %"class.std::basic_ostream"* @_ZNSolsEi(%"class.std::basic_ostream"*, i32) #3

declare dereferenceable(272) %"class.std::basic_ostream"* @_ZNSolsEPFRSoS_E(%"class.std::basic_ostream"*, %"class.std::basic_ostream"* (%"class.std::basic_ostream"*)*) #3

declare dereferenceable(272) %"class.std::basic_ostream"* @_ZSt4endlIcSt11char_traitsIcEERSt13basic_ostreamIT_T0_ES6_(%"class.std::basic_ostream"* dereferenceable(272)) #3

declare i32 @_ZNK9MappingQ1ILi3EE11update_onceE11UpdateFlags(%class.MappingQ1*, i32) unnamed_addr #3

declare i32 @_ZNK9MappingQ1ILi3EE11update_eachE11UpdateFlags(%class.MappingQ1*, i32) unnamed_addr #3

; Function Attrs: nounwind
declare i8* @_ZNK13ExceptionBase4whatEv(%class.ExceptionBase*) unnamed_addr #9

; Function Attrs: noinline uwtable
define linkonce_odr void @_ZN8MappingQILi3EE12InternalDataD0Ev(%"class.MappingQ<3>::InternalData"*) unnamed_addr #0 comdat align 2 personality i8* bitcast (i32 (...)* @__gxx_personality_v0 to i8*) {
  %2 = alloca %"class.MappingQ<3>::InternalData"*, align 8
  %3 = alloca i8*
  %4 = alloca i32
  store %"class.MappingQ<3>::InternalData"* %0, %"class.MappingQ<3>::InternalData"** %2, align 8
  %5 = load %"class.MappingQ<3>::InternalData"*, %"class.MappingQ<3>::InternalData"** %2, align 8
  invoke void @_ZN8MappingQILi3EE12InternalDataD2Ev(%"class.MappingQ<3>::InternalData"* %5)
          to label %6 unwind label %8

; <label>:6:                                      ; preds = %1
  %7 = bitcast %"class.MappingQ<3>::InternalData"* %5 to i8*
  call void @_ZdlPv(i8* %7) #14
  ret void

; <label>:8:                                      ; preds = %1
  %9 = landingpad { i8*, i32 }
          cleanup
  %10 = extractvalue { i8*, i32 } %9, 0
  store i8* %10, i8** %3, align 8
  %11 = extractvalue { i8*, i32 } %9, 1
  store i32 %11, i32* %4, align 4
  %12 = bitcast %"class.MappingQ<3>::InternalData"* %5 to i8*
  call void @_ZdlPv(i8* %12) #14
  br label %13

; <label>:13:                                     ; preds = %8
  %14 = load i8*, i8** %3, align 8
  %15 = load i32, i32* %4, align 4
  %16 = insertvalue { i8*, i32 } undef, i8* %14, 0
  %17 = insertvalue { i8*, i32 } %16, i32 %15, 1
  resume { i8*, i32 } %17
}

; Function Attrs: noinline nounwind uwtable
define linkonce_odr void @_ZN7MappingILi3EE16InternalDataBase16clear_first_cellEv(%"class.Mapping<3>::InternalDataBase"*) unnamed_addr #1 comdat align 2 {
  %2 = alloca %"class.Mapping<3>::InternalDataBase"*, align 8
  store %"class.Mapping<3>::InternalDataBase"* %0, %"class.Mapping<3>::InternalDataBase"** %2, align 8
  %3 = load %"class.Mapping<3>::InternalDataBase"*, %"class.Mapping<3>::InternalDataBase"** %2, align 8
  %4 = getelementptr inbounds %"class.Mapping<3>::InternalDataBase", %"class.Mapping<3>::InternalDataBase"* %3, i32 0, i32 4
  store i8 0, i8* %4, align 4
  ret void
}

declare void @_ZN8BoundaryILi3EED2Ev(%class.Boundary*) unnamed_addr #3

; Function Attrs: noinline uwtable
define linkonce_odr void @_ZNK18TriaObjectAccessorILi3ELi3EE4quadEj(%class.TriaIterator.65* noalias sret, %class.TriaObjectAccessor*, i32) #0 comdat align 2 {
  %4 = alloca %class.TriaObjectAccessor*, align 8
  %5 = alloca i32, align 4
  store %class.TriaObjectAccessor* %1, %class.TriaObjectAccessor** %4, align 8
  store i32 %2, i32* %5, align 4
  %6 = load %class.TriaObjectAccessor*, %class.TriaObjectAccessor** %4, align 8
  %7 = bitcast %class.TriaObjectAccessor* %6 to %class.TriaAccessor*
  %8 = getelementptr inbounds %class.TriaAccessor, %class.TriaAccessor* %7, i32 0, i32 2
  %9 = load %class.Triangulation*, %class.Triangulation** %8, align 8
  %10 = bitcast %class.TriaObjectAccessor* %6 to %class.TriaAccessor*
  %11 = getelementptr inbounds %class.TriaAccessor, %class.TriaAccessor* %10, i32 0, i32 0
  %12 = load i32, i32* %11, align 8
  %13 = load i32, i32* %5, align 4
  %14 = call i32 @_ZNK18TriaObjectAccessorILi3ELi3EE10quad_indexEj(%class.TriaObjectAccessor* %6, i32 %13)
  call void @_ZN12TriaIteratorILi3E18TriaObjectAccessorILi2ELi3EEEC2EPK13TriangulationILi3EEiiPKv(%class.TriaIterator.65* %0, %class.Triangulation* %9, i32 %12, i32 %14, i8* null)
  ret void
}

; Function Attrs: noinline uwtable
define linkonce_odr i32 @_ZNK18TriaObjectAccessorILi3ELi3EE10quad_indexEj(%class.TriaObjectAccessor*, i32) #0 comdat align 2 {
  %3 = alloca %class.TriaObjectAccessor*, align 8
  %4 = alloca i32, align 4
  store %class.TriaObjectAccessor* %0, %class.TriaObjectAccessor** %3, align 8
  store i32 %1, i32* %4, align 4
  %5 = load %class.TriaObjectAccessor*, %class.TriaObjectAccessor** %3, align 8
  %6 = bitcast %class.TriaObjectAccessor* %5 to %class.TriaAccessor*
  %7 = getelementptr inbounds %class.TriaAccessor, %class.TriaAccessor* %6, i32 0, i32 2
  %8 = load %class.Triangulation*, %class.Triangulation** %7, align 8
  %9 = getelementptr inbounds %class.Triangulation, %class.Triangulation* %8, i32 0, i32 1
  %10 = bitcast %class.TriaObjectAccessor* %5 to %class.TriaAccessor*
  %11 = getelementptr inbounds %class.TriaAccessor, %class.TriaAccessor* %10, i32 0, i32 0
  %12 = load i32, i32* %11, align 8
  %13 = sext i32 %12 to i64
  %14 = call dereferenceable(8) %class.TriangulationLevel** @_ZNKSt6vectorIP18TriangulationLevelILi3EESaIS2_EEixEm(%"class.std::vector.10"* %9, i64 %13)
  %15 = load %class.TriangulationLevel*, %class.TriangulationLevel** %14, align 8
  %16 = getelementptr inbounds %class.TriangulationLevel, %class.TriangulationLevel* %15, i32 0, i32 1
  %17 = getelementptr inbounds %"struct.TriangulationLevel<3>::HexesData", %"struct.TriangulationLevel<3>::HexesData"* %16, i32 0, i32 0
  %18 = bitcast %class.TriaObjectAccessor* %5 to %class.TriaAccessor*
  %19 = getelementptr inbounds %class.TriaAccessor, %class.TriaAccessor* %18, i32 0, i32 1
  %20 = load i32, i32* %19, align 4
  %21 = sext i32 %20 to i64
  %22 = call dereferenceable(24) %class.Hexahedron* @_ZNSt6vectorI10HexahedronSaIS0_EEixEm(%"class.std::vector.53"* %17, i64 %21)
  %23 = load i32, i32* %4, align 4
  %24 = call i32 @_ZNK10Hexahedron4quadEi(%class.Hexahedron* %22, i32 %23)
  ret i32 %24
}

; Function Attrs: noinline uwtable
define linkonce_odr void @_ZN12TriaIteratorILi3E18TriaObjectAccessorILi2ELi3EEEC2EPK13TriangulationILi3EEiiPKv(%class.TriaIterator.65*, %class.Triangulation*, i32, i32, i8*) unnamed_addr #0 comdat align 2 {
  %6 = alloca %class.TriaIterator.65*, align 8
  %7 = alloca %class.Triangulation*, align 8
  %8 = alloca i32, align 4
  %9 = alloca i32, align 4
  %10 = alloca i8*, align 8
  store %class.TriaIterator.65* %0, %class.TriaIterator.65** %6, align 8
  store %class.Triangulation* %1, %class.Triangulation** %7, align 8
  store i32 %2, i32* %8, align 4
  store i32 %3, i32* %9, align 4
  store i8* %4, i8** %10, align 8
  %11 = load %class.TriaIterator.65*, %class.TriaIterator.65** %6, align 8
  %12 = bitcast %class.TriaIterator.65* %11 to %class.TriaRawIterator.66*
  %13 = load %class.Triangulation*, %class.Triangulation** %7, align 8
  %14 = load i32, i32* %8, align 4
  %15 = load i32, i32* %9, align 4
  %16 = load i8*, i8** %10, align 8
  call void @_ZN15TriaRawIteratorILi3E18TriaObjectAccessorILi2ELi3EEEC2EPK13TriangulationILi3EEiiPKv(%class.TriaRawIterator.66* %12, %class.Triangulation* %13, i32 %14, i32 %15, i8* %16)
  ret void
}

; Function Attrs: noinline nounwind uwtable
define linkonce_odr dereferenceable(8) %class.TriangulationLevel** @_ZNKSt6vectorIP18TriangulationLevelILi3EESaIS2_EEixEm(%"class.std::vector.10"*, i64) #1 comdat align 2 {
  %3 = alloca %"class.std::vector.10"*, align 8
  %4 = alloca i64, align 8
  store %"class.std::vector.10"* %0, %"class.std::vector.10"** %3, align 8
  store i64 %1, i64* %4, align 8
  %5 = load %"class.std::vector.10"*, %"class.std::vector.10"** %3, align 8
  %6 = bitcast %"class.std::vector.10"* %5 to %"struct.std::_Vector_base.11"*
  %7 = getelementptr inbounds %"struct.std::_Vector_base.11", %"struct.std::_Vector_base.11"* %6, i32 0, i32 0
  %8 = bitcast %"struct.std::_Vector_base<TriangulationLevel<3> *, std::allocator<TriangulationLevel<3> *> >::_Vector_impl"* %7 to %"struct.std::_Vector_base<TriangulationLevel<3> *, std::allocator<TriangulationLevel<3> *> >::_Vector_impl_data"*
  %9 = getelementptr inbounds %"struct.std::_Vector_base<TriangulationLevel<3> *, std::allocator<TriangulationLevel<3> *> >::_Vector_impl_data", %"struct.std::_Vector_base<TriangulationLevel<3> *, std::allocator<TriangulationLevel<3> *> >::_Vector_impl_data"* %8, i32 0, i32 0
  %10 = load %class.TriangulationLevel**, %class.TriangulationLevel*** %9, align 8
  %11 = load i64, i64* %4, align 8
  %12 = getelementptr inbounds %class.TriangulationLevel*, %class.TriangulationLevel** %10, i64 %11
  ret %class.TriangulationLevel** %12
}

; Function Attrs: noinline nounwind uwtable
define linkonce_odr dereferenceable(24) %class.Hexahedron* @_ZNSt6vectorI10HexahedronSaIS0_EEixEm(%"class.std::vector.53"*, i64) #1 comdat align 2 {
  %3 = alloca %"class.std::vector.53"*, align 8
  %4 = alloca i64, align 8
  store %"class.std::vector.53"* %0, %"class.std::vector.53"** %3, align 8
  store i64 %1, i64* %4, align 8
  %5 = load %"class.std::vector.53"*, %"class.std::vector.53"** %3, align 8
  %6 = bitcast %"class.std::vector.53"* %5 to %"struct.std::_Vector_base.54"*
  %7 = getelementptr inbounds %"struct.std::_Vector_base.54", %"struct.std::_Vector_base.54"* %6, i32 0, i32 0
  %8 = bitcast %"struct.std::_Vector_base<Hexahedron, std::allocator<Hexahedron> >::_Vector_impl"* %7 to %"struct.std::_Vector_base<Hexahedron, std::allocator<Hexahedron> >::_Vector_impl_data"*
  %9 = getelementptr inbounds %"struct.std::_Vector_base<Hexahedron, std::allocator<Hexahedron> >::_Vector_impl_data", %"struct.std::_Vector_base<Hexahedron, std::allocator<Hexahedron> >::_Vector_impl_data"* %8, i32 0, i32 0
  %10 = load %class.Hexahedron*, %class.Hexahedron** %9, align 8
  %11 = load i64, i64* %4, align 8
  %12 = getelementptr inbounds %class.Hexahedron, %class.Hexahedron* %10, i64 %11
  ret %class.Hexahedron* %12
}

; Function Attrs: noinline nounwind uwtable
define linkonce_odr i32 @_ZNK10Hexahedron4quadEi(%class.Hexahedron*, i32) #1 comdat align 2 {
  %3 = alloca %class.Hexahedron*, align 8
  %4 = alloca i32, align 4
  store %class.Hexahedron* %0, %class.Hexahedron** %3, align 8
  store i32 %1, i32* %4, align 4
