; ModuleID = 'host/ir_sub/povray_lighting.ll'
source_filename = "lighting.cpp"
target datalayout = "e-m:e-i64:64-f80:128-n8:16:32:64-S128"
target triple = "x86_64-unknown-linux-gnu"

%"struct.pov::Texture_Struct" = type { i16, i16, i16, i32, float, float, float, %"struct.pov::Warps_Struct"*, %"struct.pov::Pattern_Struct"*, %"struct.pov::Blend_Map_Struct"*, %union.anon.25, %"struct.pov::Texture_Struct"*, %"struct.pov::Pigment_Struct"*, %"struct.pov::Tnormal_Struct"*, %"struct.pov::Finish_Struct"*, %"struct.pov::Texture_Struct"*, i32 }
%"struct.pov::Warps_Struct" = type { i16, %"struct.pov::Warps_Struct"*, %"struct.pov::Warps_Struct"* }
%"struct.pov::Pattern_Struct" = type { i16, i16, i16, i32, float, float, float, %"struct.pov::Warps_Struct"*, %"struct.pov::Pattern_Struct"*, %"struct.pov::Blend_Map_Struct"*, %union.anon.17 }
%union.anon.17 = type { %struct.anon.21 }
%struct.anon.21 = type { [3 x double], [3 x double], double, double, i16, [3 x double]*, i32, [3 x double] }
%"struct.pov::Blend_Map_Struct" = type { i32, i16, i8, i8, %"struct.pov::Blend_Map_Entry"* }
%"struct.pov::Blend_Map_Entry" = type { float, i8, %union.anon }
%union.anon = type { [2 x double], [8 x i8] }
%union.anon.25 = type { %struct.anon.29 }
%struct.anon.29 = type { [3 x double], [3 x double], double, double, i16, [3 x double]*, i32, [3 x double] }
%"struct.pov::Pigment_Struct" = type { i16, i16, i16, i32, float, float, float, %"struct.pov::Warps_Struct"*, %"struct.pov::Pattern_Struct"*, %"struct.pov::Blend_Map_Struct"*, %union.anon.0, [5 x float] }
%union.anon.0 = type { %struct.anon.5 }
%struct.anon.5 = type { [3 x double], [3 x double], double, double, i16, [3 x double]*, i32, [3 x double] }
%"struct.pov::Tnormal_Struct" = type { i16, i16, i16, i32, float, float, float, %"struct.pov::Warps_Struct"*, %"struct.pov::Pattern_Struct"*, %"struct.pov::Blend_Map_Struct"*, %union.anon.9, float, float }
%union.anon.9 = type { %struct.anon.13 }
%struct.anon.13 = type { [3 x double], [3 x double], double, double, i16, [3 x double]*, i32, [3 x double] }
%"struct.pov::Finish_Struct" = type { float, float, float, float, float, float, float, float, float, float, float, float, float, float, float, float, [3 x float], [3 x float], [3 x float], float, i32, float, i32 }
%"struct.pov::Light_Tested_Struct" = type { i32, [5 x float] }
%"struct.pov::Media_Struct" = type { i32, i32, i32, i32, i32, double, i32, double, double, i32, i32, i32, i32, [5 x float], [5 x float], [5 x float], [5 x float], double, double, double, double*, double, i32, i32, %"struct.pov::Pigment_Struct"*, %"struct.pov::Media_Struct"* }
%"struct.pov::ComTexData_Struct" = type { %"struct.pov::ComTexData_Struct"*, %"struct.pov::ComTexData_Struct"*, [100 x double], [100 x [3 x double]], [100 x [5 x float]], [100 x float] }
%"struct.pov::Light_List_Struct" = type { i8, double, double, %"struct.pov::Light_Source_Struct"* }
%"struct.pov::Light_Source_Struct" = type { %"struct.pov::Method_Struct"*, i32, %"struct.pov::Object_Struct"*, %"struct.pov::Texture_Struct"*, %"struct.pov::Texture_Struct"*, %"struct.pov::Interior_Struct"*, %"struct.pov::Object_Struct"*, %"struct.pov::Object_Struct"*, %"struct.pov::Light_Source_Struct"*, %"struct.pov::Bounding_Box_Struct", %"struct.pov::Transform_Struct"*, %"struct.pov::Transform_Struct"*, float, i32, %"struct.pov::Object_Struct"*, [5 x float], [3 x double], [3 x double], [3 x double], [3 x double], [3 x double], double, double, double, double, double, %"struct.pov::Light_Source_Struct"*, i8, i8, i8, i8, i8, i8, i8, i8, i32, i32, i32, i32, i32, [5 x float]**, %"struct.pov::Object_Struct"*, %"struct.pov::Object_Struct"*, %"struct.pov::Blend_Map_Struct"*, [6 x %"struct.pov::Project_Tree_Node_Struct"*] }
%"struct.pov::Method_Struct" = type { i32 (%"struct.pov::Object_Struct"*, %"struct.pov::Ray_Struct"*, %"struct.pov::istack_struct"*)*, i32 (double*, %"struct.pov::Object_Struct"*)*, void (double*, %"struct.pov::Object_Struct"*, %"struct.pov::istk_entry"*)*, void (double*, %"struct.pov::Object_Struct"*, %"struct.pov::istk_entry"*)*, i8* (%"struct.pov::Object_Struct"*)*, void (%"struct.pov::Object_Struct"*, double*, %"struct.pov::Transform_Struct"*)*, void (%"struct.pov::Object_Struct"*, double*, %"struct.pov::Transform_Struct"*)*, void (%"struct.pov::Object_Struct"*, double*, %"struct.pov::Transform_Struct"*)*, void (%"struct.pov::Object_Struct"*, %"struct.pov::Transform_Struct"*)*, void (%"struct.pov::Object_Struct"*)*, void (%"struct.pov::Object_Struct"*)* }
%"struct.pov::Ray_Struct" = type { [3 x double], [3 x double], i32, i32, [100 x %"struct.pov::Interior_Struct"*] }
%"struct.pov::istack_struct" = type { %"struct.pov::istack_struct"*, %"struct.pov::istk_entry"*, i32, i32 }
%"struct.pov::istk_entry" = type { double, [3 x double], [3 x double], [3 x double], [2 x double], %"struct.pov::Object_Struct"*, i32, i32, double, double, double, double, double, double, double, double, double, i8*, i8* }
%"struct.pov::Interior_Struct" = type { i32, i32, i32, float, float, float, float, float, float, [5 x float], %"struct.pov::Media_Struct"* }
%"struct.pov::Bounding_Box_Struct" = type { [3 x float], [3 x float] }
%"struct.pov::Transform_Struct" = type { [4 x [4 x double]], [4 x [4 x double]] }
%"struct.pov::Object_Struct" = type { %"struct.pov::Method_Struct"*, i32, %"struct.pov::Object_Struct"*, %"struct.pov::Texture_Struct"*, %"struct.pov::Texture_Struct"*, %"struct.pov::Interior_Struct"*, %"struct.pov::Object_Struct"*, %"struct.pov::Object_Struct"*, %"struct.pov::Light_Source_Struct"*, %"struct.pov::Bounding_Box_Struct", %"struct.pov::Transform_Struct"*, %"struct.pov::Transform_Struct"*, float, i32 }
%"struct.pov::Project_Tree_Node_Struct" = type { i16, %"struct.pov::BBox_Tree_Struct"*, %"struct.pov::Project_Struct", i16, %"struct.pov::Project_Tree_Node_Struct"** }
%"struct.pov::BBox_Tree_Struct" = type { i16, i16, %"struct.pov::Bounding_Box_Struct", %"struct.pov::BBox_Tree_Struct"** }
%"struct.pov::Project_Struct" = type { i32, i32, i32, i32 }
%"struct.pov::Lit_Interval_Struct" = type { i32, double, double, double }
%"struct.pov::Media_Interval_Struct" = type { i32, i32, double, double, double, [5 x float], [5 x float], [5 x float] }
%"struct.pov::Frame_Struct" = type { %"struct.pov::Camera_Struct"*, i32, i32, i32, %"struct.pov::Light_Source_Struct"*, %"struct.pov::Object_Struct"*, double, double, double, [5 x float], [5 x float], [5 x float], %"struct.pov::Media_Struct"*, %"struct.pov::Fog_Struct"*, %"struct.pov::Rainbow_Struct"*, %"struct.pov::Skysphere_Struct"*, %"struct.pov::light_group_light_struct"* }
%"struct.pov::Camera_Struct" = type { [3 x double], [3 x double], [3 x double], [3 x double], [3 x double], [3 x double], [3 x double], double, double, i32, double, double, i32, double, double, double, %"struct.pov::Tnormal_Struct"*, %"struct.pov::Transform_Struct"* }
%"struct.pov::Fog_Struct" = type { i32, double, double, double, [5 x float], [3 x double], %"struct.pov::Turb_Struct"*, float, %"struct.pov::Fog_Struct"* }
%"struct.pov::Turb_Struct" = type { i16, %"struct.pov::Warps_Struct"*, %"struct.pov::Warps_Struct"*, [3 x double], i32, float, float }
%"struct.pov::Rainbow_Struct" = type { double, double, double, double, double, double, double, [3 x double], [3 x double], [3 x double], %"struct.pov::Pigment_Struct"*, %"struct.pov::Rainbow_Struct"* }
%"struct.pov::Skysphere_Struct" = type { i32, %"struct.pov::Pigment_Struct"**, %"struct.pov::Transform_Struct"* }
%"struct.pov::light_group_light_struct" = type { %"struct.pov::Light_Source_Struct"*, %"struct.pov::light_group_light_struct"* }
%"struct.pov::OPTIONS_STRUCT" = type { i32, i8, i8, i8, i32, i32, [1024 x i8], [1024 x i8], [1024 x i8], [1024 x i8], [1024 x i8], float, float, i32, i32, double, double, i32, [25 x i8*], i32, i32, i32, double, double, i32, i32, double, double, i32, i8, i64, i32, i32, i32, %"struct.pov::FRAMESEQ", double, i64, double, double, double, double, double, i64, i32, i64, i32, i32, i32, i32, i32, i32, double, double, double, i32, i32, i8*, i8*, i32, i8, double, double, i32, i32, i8, i32, i32, [1024 x i8], [6 x %"struct.pov::shelldata"], [1024 x i8], [1024 x i8], i32, i32, i64, i32, i32, i32, %struct.POVMSData }
%"struct.pov::FRAMESEQ" = type { i32, double, i32, i32, double, i32, i32, double, i32, double, i32, double, i8, i8 }
%"struct.pov::shelldata" = type { i32, i32, [250 x i8] }
%struct.POVMSData = type { i32, i32, %union.anon.33 }
%union.anon.33 = type { i8* }
%"struct.pov::photon_options_struct" = type { i32, double, double, double, i32, i32, double, double, double, i32, i32, i8*, i32, i32, %"struct.pov::photon_map_struct", i32, double, double, %"struct.pov::Object_Struct"*, double*, double*, %"struct.pov::photon_struct"**, double*, i32, i32, i32, i32, %"struct.pov::Light_Source_Struct"*, i8, %"struct.pov::photon_map_struct", double, i32, i32, i32, i32 }
%"struct.pov::photon_struct" = type { [3 x float], [4 x i8], i8, i8, i8 }
%"struct.pov::photon_map_struct" = type { %"struct.pov::photon_struct"**, i32, i32, double, double, double, i32 }
%"struct.pov::Blob_Struct" = type { %"struct.pov::Method_Struct"*, i32, %"struct.pov::Object_Struct"*, %"struct.pov::Texture_Struct"*, %"struct.pov::Texture_Struct"*, %"struct.pov::Interior_Struct"*, %"struct.pov::Object_Struct"*, %"struct.pov::Object_Struct"*, %"struct.pov::Light_Source_Struct"*, %"struct.pov::Bounding_Box_Struct", %"struct.pov::Transform_Struct"*, %"struct.pov::Transform_Struct"*, float, i32, %"struct.pov::Blob_Data_Struct"*, %"struct.pov::Texture_Struct"**, %"struct.pov::BSphere_Tree_Struct"**, i32 }
%"struct.pov::Blob_Data_Struct" = type { i32, i32, double, %"struct.pov::Blob_Element_Struct"*, %"struct.pov::Blob_Interval_Struct"*, %"struct.pov::BSphere_Tree_Struct"* }
%"struct.pov::Blob_Element_Struct" = type { i16, i32, [3 x double], double, double, [3 x double], [5 x double], %"struct.pov::Texture_Struct"*, %"struct.pov::Transform_Struct"* }
%"struct.pov::Blob_Interval_Struct" = type { i32, double, %"struct.pov::Blob_Element_Struct"* }
%"struct.pov::BSphere_Tree_Struct" = type { i16, [3 x double], double, %"struct.pov::BSphere_Tree_Struct"** }
%"struct.pov::Mesh_Triangle_Struct" = type { i8, i64, i64, i64, i64, i64, i64, i64, i64, i64, i64, i64, i64, i64, float, [3 x float] }
%"struct.pov::CSG_Struct" = type { %"struct.pov::Method_Struct"*, i32, %"struct.pov::Object_Struct"*, %"struct.pov::Texture_Struct"*, %"struct.pov::Texture_Struct"*, %"struct.pov::Interior_Struct"*, %"struct.pov::Object_Struct"*, %"struct.pov::Object_Struct"*, %"struct.pov::Light_Source_Struct"*, %"struct.pov::Bounding_Box_Struct", %"struct.pov::Transform_Struct"*, %"struct.pov::Transform_Struct"*, float, i32, %"struct.pov::Object_Struct"*, i32 }
%"struct.pov::Mesh_Struct" = type { %"struct.pov::Method_Struct"*, i32, %"struct.pov::Object_Struct"*, %"struct.pov::Texture_Struct"*, %"struct.pov::Texture_Struct"*, %"struct.pov::Interior_Struct"*, %"struct.pov::Object_Struct"*, %"struct.pov::Object_Struct"*, %"struct.pov::Light_Source_Struct"*, %"struct.pov::Bounding_Box_Struct", %"struct.pov::Transform_Struct"*, %"struct.pov::Transform_Struct"*, float, i32, %"struct.pov::Mesh_Data_Struct"*, i64, %"struct.pov::Texture_Struct"**, i16 }
%"struct.pov::Mesh_Data_Struct" = type { i32, i64, i64, i64, i64, [3 x float]*, [3 x float]*, [2 x double]*, %"struct.pov::Mesh_Triangle_Struct"*, %"struct.pov::BBox_Tree_Struct"*, [3 x double] }

$_ZN3pov13Assign_VectorEPdS0_ = comdat any

$_ZN3pov4VDotERdPKdS2_ = comdat any

$_ZN3pov8VScaleEqEPdd = comdat any

$_ZN3pov14Assign_UV_VectEPdS0_ = comdat any

$_ZSt4fabsf = comdat any

$_ZN3pov9VLinComb2EPddPKddS2_ = comdat any

$_ZN3pov3SqrEd = comdat any

$_ZSt3minIdERKT_S2_S2_ = comdat any

$_ZSt3maxIdERKT_S2_S2_ = comdat any

$_ZN3pov15CRGBAddScaledEqEPffPKf = comdat any

$_ZN3pov5VHalfEPdPKdS2_ = comdat any

$_ZN3pov7VLengthERdPKd = comdat any

$_ZSt3maxIiERKT_S2_S2_ = comdat any

$_ZN3pov13Assign_ColourEPfS0_ = comdat any

$_ZN3pov4VSubEPdPKdS2_ = comdat any

$_ZN3pov12VNormalizeEqEPd = comdat any

$_ZN3pov15VInverseScaleEqEPdd = comdat any

$_ZN3pov8VScaleEqEPff = comdat any

$_ZN3pov12Make_ColourAEPffffff = comdat any

$_ZN3pov6VScaleEPfPKff = comdat any

$_ZN3pov9CLinComb2EPffPKffS2_ = comdat any

$_ZN3pov11Make_ColourEPffff = comdat any

$_ZSt3maxIfERKT_S2_S2_ = comdat any

$_ZSt3powff = comdat any

$_ZN3pov10Assign_RGBEPfS0_ = comdat any

$_ZN3pov12CRGBLinComb2EPffPKffS2_ = comdat any

$_ZN3pov16Increase_CounterERx = comdat any

$_ZN3pov10VAddScaledEPdPKddS2_ = comdat any

$_ZN3pov12VAddScaledEqEPddPKd = comdat any

$_ZN3pov6VAddEqEPfPKf = comdat any

$_ZN3pov4VSubEPdPKfPKd = comdat any

$_ZN3pov6VCrossEPdPKdS2_ = comdat any

$_ZN3pov6VScaleEPdPKdd = comdat any

$_ZN3pov11Make_VectorEPdddd = comdat any

$_ZN3pov6VAddEqEPdPKd = comdat any

$_ZN3pov9pop_entryEPNS_13istack_structE = comdat any

@_ZN3pov21warpNormalTextureListE = global %"struct.pov::Texture_Struct"** null, align 8
@_ZN3pov28warpNormalTextureListMaxSizeE = global i32 0, align 4
@_ZN3pov7GFilColE = global [5 x float] zeroinitializer, align 16
@_ZN3pov10Light_ListE = global %"struct.pov::Light_Tested_Struct"* null, align 8
@_ZN3pov12Texture_ListE = global %"struct.pov::Texture_Struct"** null, align 8
@_ZN3pov11Weight_ListE = global double* null, align 8
@_ZN3pov30Number_Of_Textures_And_WeightsE = global i32 0, align 4
@_ZN3pov22photonsAlreadyGatheredE = global i32 0, align 4
@_ZN3pov11previousRadE = global double 0.000000e+00, align 8
@_ZN3pov19MediaMallocPoolSizeE = global i64 0, align 8
@_ZN3pov17MaxLightPoolDepthE = global i64 0, align 8
@_ZN3pov17LightingPoolIndexE = global i64 -1, align 8
@_ZN3pov14WeightListPoolE = global double** null, align 8
@_ZN3pov15TextureListPoolE = global %"struct.pov::Texture_Struct"*** null, align 8
@_ZN3pov13LightListPoolE = global %"struct.pov::Light_Tested_Struct"** null, align 8
@_ZN3pov20ShadowMediaListIndexE = global i64 -1, align 8
@_ZN3pov19ShadowMediaListPoolE = global %"struct.pov::Media_Struct"*** null, align 8
@_ZN3pov23ShadowMediaListPoolSizeE = global i64* null, align 8
@_ZN3pov22LightingMediaListIndexE = global i64 -1, align 8
@_ZN3pov21LightingMediaListPoolE = global %"struct.pov::Media_Struct"*** null, align 8
@_ZN3pov25LightingMediaListPoolSizeE = global i64* null, align 8
@_ZN3pov22ComputeTextureUsedPoolE = global %"struct.pov::ComTexData_Struct"* null, align 8
@_ZN3pov22ComputeTextureFreePoolE = global %"struct.pov::ComTexData_Struct"* null, align 8
@_ZN3pov22ComputeTexturePoolSizeE = global i32 0, align 4
@_ZN3pov18warpNormalTexturesE = global i32 0, align 4
@_ZN3pov9disp_elemE = global i32 0, align 4
@_ZN3pov11disp_nelemsE = global i32 0, align 4
@_ZN3pov19TotalMallocPoolSizeE = global i64 0, align 8
@_ZN3pov17MaxMediaPoolDepthE = global i64 0, align 8
@_ZN3pov14MediaPoolIndexE = global i64 -1, align 8
@_ZN3pov18MediaLightListPoolE = global %"struct.pov::Light_List_Struct"** null, align 8
@_ZN3pov20MediaLitIntervalPoolE = global %"struct.pov::Lit_Interval_Struct"** null, align 8
@_ZN3pov17MediaIntervalPoolE = global %"struct.pov::Media_Interval_Struct"** null, align 8
@_ZN3pov21MediaIntervalPoolSizeE = global i64* null, align 8
@_ZN3pov2s0E = global double* null, align 8
@_ZN3pov2s1E = global double* null, align 8
@.str = private unnamed_addr constant [13 x i8] c"lighting.cpp\00", align 1
@.str.1 = private unnamed_addr constant [25 x i8] c"Warp normal texture list\00", align 1
@.str.2 = private unnamed_addr constant [46 x i8] c"Too many entries in texture and weight lists.\00", align 1
@_ZN3pov11Total_DepthE = external global double, align 8
@_ZN3pov5FrameE = external global %"struct.pov::Frame_Struct", align 8
@_ZN3pov11ADC_BailoutE = external global double, align 8
@_ZN3pov13backtraceFlagE = external global i32, align 4
@_ZN3pov4optsE = external global %"struct.pov::OPTIONS_STRUCT", align 8
@.str.3 = private unnamed_addr constant [16 x i8] c"temp media list\00", align 1
@.str.4 = private unnamed_addr constant [11 x i8] c"light list\00", align 1
@.str.5 = private unnamed_addr constant [13 x i8] c"lit interval\00", align 1
@.str.6 = private unnamed_addr constant [16 x i8] c"media intervals\00", align 1
@.str.7 = private unnamed_addr constant [18 x i8] c"Weight list stack\00", align 1
@.str.8 = private unnamed_addr constant [21 x i8] c"compute texture data\00", align 1
@_ZN3pov24CSG_Intersection_MethodsE = external global %"struct.pov::Method_Struct", align 8
@_ZN3pov17CSG_Merge_MethodsE = external global %"struct.pov::Method_Struct", align 8
@_ZN3pov17CSG_Union_MethodsE = external global %"struct.pov::Method_Struct", align 8
@_ZN3pov12Blob_MethodsE = external global %"struct.pov::Method_Struct", align 8
@_ZN3pov12Mesh_MethodsE = external global %"struct.pov::Method_Struct", align 8
@.str.9 = private unnamed_addr constant [37 x i8] c"Bad texture type in do_texture_map()\00", align 1
@_ZN3pov11Trace_LevelE = external global i32, align 4
@_ZN3pov13photonOptionsE = external global %"struct.pov::photon_options_struct", align 8
@.str.10 = private unnamed_addr constant [25 x i8] c"Too many texture layers.\00", align 1
@.str.11 = private unnamed_addr constant [41 x i8] c"Reflection_Type 1 used with no interior.\00", align 1
@.str.12 = private unnamed_addr constant [25 x i8] c"Illegal reflection_type.\00", align 1
@_ZN3pov5statsE = external global [126 x i64], align 16
@_ZN3pov18firstRadiosityPassE = external global i32, align 4
@_ZN3pov17In_Reflection_RayE = external global i8, align 1
@_ZN3pov21Radiosity_Trace_LevelE = external global i32, align 4
@.str.13 = private unnamed_addr constant [35 x i8] c"ERROR - Containing Index too high.\00", align 1
@_ZN3pov13In_Shadow_RayE = external global i8, align 1
@_ZN3pov11Root_ObjectE = external global %"struct.pov::BBox_Tree_Struct"*, align 8
@.str.14 = private unnamed_addr constant [10 x i8] c"temp data\00", align 1

; Function Attrs: noinline uwtable
define void @_ZN3pov24Initialize_Lighting_CodeEv() #0 {
  store %"struct.pov::Light_Tested_Struct"* null, %"struct.pov::Light_Tested_Struct"** @_ZN3pov10Light_ListE, align 8
  store %"struct.pov::Texture_Struct"** null, %"struct.pov::Texture_Struct"*** @_ZN3pov12Texture_ListE, align 8
  store double* null, double** @_ZN3pov11Weight_ListE, align 8
  store i32 16, i32* @_ZN3pov30Number_Of_Textures_And_WeightsE, align 4
  call void @_ZN3povL15InitMallocPoolsEv()
  call void @_ZN3pov18InitComTexDataPoolEv()
  %1 = load i64, i64* @_ZN3pov17LightingPoolIndexE, align 8
  %2 = sub i64 0, %1
  %3 = sub i64 0, 1
  %4 = add i64 %2, %3
  %5 = sub i64 0, %4
  %6 = add nsw i64 %1, 1
  store i64 %5, i64* @_ZN3pov17LightingPoolIndexE, align 8
  %7 = load %"struct.pov::Light_Tested_Struct"**, %"struct.pov::Light_Tested_Struct"*** @_ZN3pov13LightListPoolE, align 8
  %8 = load i64, i64* @_ZN3pov17LightingPoolIndexE, align 8
  %9 = getelementptr inbounds %"struct.pov::Light_Tested_Struct"*, %"struct.pov::Light_Tested_Struct"** %7, i64 %8
  %10 = load %"struct.pov::Light_Tested_Struct"*, %"struct.pov::Light_Tested_Struct"** %9, align 8
  store %"struct.pov::Light_Tested_Struct"* %10, %"struct.pov::Light_Tested_Struct"** @_ZN3pov10Light_ListE, align 8
  %11 = load %"struct.pov::Texture_Struct"***, %"struct.pov::Texture_Struct"**** @_ZN3pov15TextureListPoolE, align 8
  %12 = load i64, i64* @_ZN3pov17LightingPoolIndexE, align 8
  %13 = getelementptr inbounds %"struct.pov::Texture_Struct"**, %"struct.pov::Texture_Struct"*** %11, i64 %12
  %14 = load %"struct.pov::Texture_Struct"**, %"struct.pov::Texture_Struct"*** %13, align 8
  store %"struct.pov::Texture_Struct"** %14, %"struct.pov::Texture_Struct"*** @_ZN3pov12Texture_ListE, align 8
  %15 = load double**, double*** @_ZN3pov14WeightListPoolE, align 8
  %16 = load i64, i64* @_ZN3pov17LightingPoolIndexE, align 8
  %17 = getelementptr inbounds double*, double** %15, i64 %16
  %18 = load double*, double** %17, align 8
  store double* %18, double** @_ZN3pov11Weight_ListE, align 8
  store i32 100, i32* @_ZN3pov28warpNormalTextureListMaxSizeE, align 4
  %19 = load i32, i32* @_ZN3pov28warpNormalTextureListMaxSizeE, align 4
  %20 = sext i32 %19 to i64
  %21 = mul i64 %20, 8
  %22 = call i8* @_ZN3pov10pov_mallocEmPKciS1_(i64 %21, i8* getelementptr inbounds ([13 x i8], [13 x i8]* @.str, i32 0, i32 0), i32 327, i8* getelementptr inbounds ([25 x i8], [25 x i8]* @.str.1, i32 0, i32 0))
  %23 = bitcast i8* %22 to %"struct.pov::Texture_Struct"**
  store %"struct.pov::Texture_Struct"** %23, %"struct.pov::Texture_Struct"*** @_ZN3pov21warpNormalTextureListE, align 8
  store i32 0, i32* @_ZN3pov9disp_elemE, align 4
  ret void
}

; Function Attrs: noinline uwtable
define internal void @_ZN3povL15InitMallocPoolsEv() #0 {
  %1 = alloca i32, align 4
  %2 = alloca i64, align 8
  %3 = alloca i64, align 8
  %4 = alloca i32, align 4
  %5 = alloca i32, align 4
  %6 = alloca i32, align 4
  %7 = load i32, i32* @_ZN3pov30Number_Of_Textures_And_WeightsE, align 4
  %8 = sext i32 %7 to i64
  %9 = mul i64 %8, 8
  store i64 %9, i64* %2, align 8
  %10 = load i32, i32* @_ZN3pov30Number_Of_Textures_And_WeightsE, align 4
  %11 = sext i32 %10 to i64
  %12 = mul i64 %11, 8
  store i64 %12, i64* %3, align 8
  %13 = load i32, i32* getelementptr inbounds (%"struct.pov::Frame_Struct", %"struct.pov::Frame_Struct"* @_ZN3pov5FrameE, i32 0, i32 3), align 8
  store i32 %13, i32* %4, align 4
  store i64 5, i64* @_ZN3pov17MaxMediaPoolDepthE, align 8
  store i64 20, i64* @_ZN3pov17MaxLightPoolDepthE, align 8
  store i64 0, i64* @_ZN3pov19MediaMallocPoolSizeE, align 8
  store i64 0, i64* @_ZN3pov19TotalMallocPoolSizeE, align 8
  store i64 -1, i64* @_ZN3pov20ShadowMediaListIndexE, align 8
  store i64 -1, i64* @_ZN3pov22LightingMediaListIndexE, align 8
  store i64 -1, i64* @_ZN3pov14MediaPoolIndexE, align 8
  store i64 -1, i64* @_ZN3pov17LightingPoolIndexE, align 8
  %14 = load i32, i32* %4, align 4
  %15 = icmp eq i32 %14, 0
  br i1 %15, label %16, label %17

; <label>:16:                                     ; preds = %0
  store i32 2, i32* %4, align 4
  br label %17

; <label>:17:                                     ; preds = %16, %0
  %18 = load i32, i32* %4, align 4
  %19 = sext i32 %18 to i64
  %20 = mul i64 %19, 8
  %21 = call i8* @_ZN3pov10pov_mallocEmPKciS1_(i64 %20, i8* getelementptr inbounds ([13 x i8], [13 x i8]* @.str, i32 0, i32 0), i32 5999, i8* getelementptr inbounds ([10 x i8], [10 x i8]* @.str.14, i32 0, i32 0))
  %22 = bitcast i8* %21 to double*
  store double* %22, double** @_ZN3pov2s0E, align 8
  %23 = load i32, i32* %4, align 4
  %24 = sext i32 %23 to i64
  %25 = mul i64 %24, 8
  %26 = call i8* @_ZN3pov10pov_mallocEmPKciS1_(i64 %25, i8* getelementptr inbounds ([13 x i8], [13 x i8]* @.str, i32 0, i32 0), i32 6000, i8* getelementptr inbounds ([10 x i8], [10 x i8]* @.str.14, i32 0, i32 0))
  %27 = bitcast i8* %26 to double*
  store double* %27, double** @_ZN3pov2s1E, align 8
  %28 = load i64, i64* @_ZN3pov17MaxMediaPoolDepthE, align 8
  %29 = mul i64 %28, 8
  %30 = call i8* @_ZN3pov10pov_mallocEmPKciS1_(i64 %29, i8* getelementptr inbounds ([13 x i8], [13 x i8]* @.str, i32 0, i32 0), i32 6002, i8* getelementptr inbounds ([16 x i8], [16 x i8]* @.str.3, i32 0, i32 0))
  %31 = bitcast i8* %30 to i64*
  store i64* %31, i64** @_ZN3pov23ShadowMediaListPoolSizeE, align 8
  %32 = load i64, i64* @_ZN3pov17MaxMediaPoolDepthE, align 8
  %33 = mul i64 %32, 8
  %34 = call i8* @_ZN3pov10pov_mallocEmPKciS1_(i64 %33, i8* getelementptr inbounds ([13 x i8], [13 x i8]* @.str, i32 0, i32 0), i32 6003, i8* getelementptr inbounds ([16 x i8], [16 x i8]* @.str.3, i32 0, i32 0))
  %35 = bitcast i8* %34 to i64*
  store i64* %35, i64** @_ZN3pov25LightingMediaListPoolSizeE, align 8
  %36 = load i64, i64* @_ZN3pov17MaxMediaPoolDepthE, align 8
  %37 = mul i64 %36, 8
  %38 = call i8* @_ZN3pov10pov_mallocEmPKciS1_(i64 %37, i8* getelementptr inbounds ([13 x i8], [13 x i8]* @.str, i32 0, i32 0), i32 6004, i8* getelementptr inbounds ([16 x i8], [16 x i8]* @.str.3, i32 0, i32 0))
  %39 = bitcast i8* %38 to i64*
  store i64* %39, i64** @_ZN3pov21MediaIntervalPoolSizeE, align 8
  %40 = load i64, i64* @_ZN3pov17MaxMediaPoolDepthE, align 8
  %41 = mul i64 %40, 8
  %42 = call i8* @_ZN3pov10pov_mallocEmPKciS1_(i64 %41, i8* getelementptr inbounds ([13 x i8], [13 x i8]* @.str, i32 0, i32 0), i32 6005, i8* getelementptr inbounds ([16 x i8], [16 x i8]* @.str.3, i32 0, i32 0))
  %43 = bitcast i8* %42 to %"struct.pov::Media_Struct"***
  store %"struct.pov::Media_Struct"*** %43, %"struct.pov::Media_Struct"**** @_ZN3pov19ShadowMediaListPoolE, align 8
  %44 = load i64, i64* @_ZN3pov17MaxMediaPoolDepthE, align 8
  %45 = mul i64 %44, 8
  %46 = call i8* @_ZN3pov10pov_mallocEmPKciS1_(i64 %45, i8* getelementptr inbounds ([13 x i8], [13 x i8]* @.str, i32 0, i32 0), i32 6006, i8* getelementptr inbounds ([16 x i8], [16 x i8]* @.str.3, i32 0, i32 0))
  %47 = bitcast i8* %46 to %"struct.pov::Media_Struct"***
  store %"struct.pov::Media_Struct"*** %47, %"struct.pov::Media_Struct"**** @_ZN3pov21LightingMediaListPoolE, align 8
  %48 = load i64, i64* @_ZN3pov17MaxMediaPoolDepthE, align 8
  %49 = mul i64 %48, 8
  %50 = call i8* @_ZN3pov10pov_mallocEmPKciS1_(i64 %49, i8* getelementptr inbounds ([13 x i8], [13 x i8]* @.str, i32 0, i32 0), i32 6007, i8* getelementptr inbounds ([11 x i8], [11 x i8]* @.str.4, i32 0, i32 0))
  %51 = bitcast i8* %50 to %"struct.pov::Light_List_Struct"**
  store %"struct.pov::Light_List_Struct"** %51, %"struct.pov::Light_List_Struct"*** @_ZN3pov18MediaLightListPoolE, align 8
  %52 = load i64, i64* @_ZN3pov17MaxMediaPoolDepthE, align 8
  %53 = mul i64 %52, 8
  %54 = call i8* @_ZN3pov10pov_mallocEmPKciS1_(i64 %53, i8* getelementptr inbounds ([13 x i8], [13 x i8]* @.str, i32 0, i32 0), i32 6008, i8* getelementptr inbounds ([13 x i8], [13 x i8]* @.str.5, i32 0, i32 0))
  %55 = bitcast i8* %54 to %"struct.pov::Lit_Interval_Struct"**
  store %"struct.pov::Lit_Interval_Struct"** %55, %"struct.pov::Lit_Interval_Struct"*** @_ZN3pov20MediaLitIntervalPoolE, align 8
  %56 = load i64, i64* @_ZN3pov17MaxMediaPoolDepthE, align 8
  %57 = mul i64 %56, 8
  %58 = call i8* @_ZN3pov10pov_mallocEmPKciS1_(i64 %57, i8* getelementptr inbounds ([13 x i8], [13 x i8]* @.str, i32 0, i32 0), i32 6009, i8* getelementptr inbounds ([16 x i8], [16 x i8]* @.str.6, i32 0, i32 0))
  %59 = bitcast i8* %58 to %"struct.pov::Media_Interval_Struct"**
  store %"struct.pov::Media_Interval_Struct"** %59, %"struct.pov::Media_Interval_Struct"*** @_ZN3pov17MediaIntervalPoolE, align 8
  store i32 0, i32* %1, align 4
  br label %60

; <label>:60:                                     ; preds = %145, %17
  %61 = load i32, i32* %1, align 4
  %62 = sext i32 %61 to i64
  %63 = load i64, i64* @_ZN3pov17MaxMediaPoolDepthE, align 8
  %64 = icmp slt i64 %62, %63
  br i1 %64, label %65, label %151

; <label>:65:                                     ; preds = %60
  %66 = call i8* @_ZN3pov10pov_mallocEmPKciS1_(i64 80, i8* getelementptr inbounds ([13 x i8], [13 x i8]* @.str, i32 0, i32 0), i32 6013, i8* getelementptr inbounds ([16 x i8], [16 x i8]* @.str.3, i32 0, i32 0))
  %67 = bitcast i8* %66 to %"struct.pov::Media_Struct"**
  %68 = load %"struct.pov::Media_Struct"***, %"struct.pov::Media_Struct"**** @_ZN3pov19ShadowMediaListPoolE, align 8
  %69 = load i32, i32* %1, align 4
  %70 = sext i32 %69 to i64
  %71 = getelementptr inbounds %"struct.pov::Media_Struct"**, %"struct.pov::Media_Struct"*** %68, i64 %70
  store %"struct.pov::Media_Struct"** %67, %"struct.pov::Media_Struct"*** %71, align 8
  %72 = load i64*, i64** @_ZN3pov23ShadowMediaListPoolSizeE, align 8
  %73 = load i32, i32* %1, align 4
  %74 = sext i32 %73 to i64
  %75 = getelementptr inbounds i64, i64* %72, i64 %74
  store i64 10, i64* %75, align 8
  %76 = call i8* @_ZN3pov10pov_mallocEmPKciS1_(i64 80, i8* getelementptr inbounds ([13 x i8], [13 x i8]* @.str, i32 0, i32 0), i32 6015, i8* getelementptr inbounds ([16 x i8], [16 x i8]* @.str.3, i32 0, i32 0))
  %77 = bitcast i8* %76 to %"struct.pov::Media_Struct"**
  %78 = load %"struct.pov::Media_Struct"***, %"struct.pov::Media_Struct"**** @_ZN3pov21LightingMediaListPoolE, align 8
  %79 = load i32, i32* %1, align 4
  %80 = sext i32 %79 to i64
  %81 = getelementptr inbounds %"struct.pov::Media_Struct"**, %"struct.pov::Media_Struct"*** %78, i64 %80
  store %"struct.pov::Media_Struct"** %77, %"struct.pov::Media_Struct"*** %81, align 8
  %82 = load i64*, i64** @_ZN3pov25LightingMediaListPoolSizeE, align 8
  %83 = load i32, i32* %1, align 4
  %84 = sext i32 %83 to i64
  %85 = getelementptr inbounds i64, i64* %82, i64 %84
  store i64 10, i64* %85, align 8
  %86 = load i32, i32* %4, align 4
  %87 = sext i32 %86 to i64
  %88 = mul i64 %87, 32
  %89 = call i8* @_ZN3pov10pov_mallocEmPKciS1_(i64 %88, i8* getelementptr inbounds ([13 x i8], [13 x i8]* @.str, i32 0, i32 0), i32 6017, i8* getelementptr inbounds ([11 x i8], [11 x i8]* @.str.4, i32 0, i32 0))
  %90 = bitcast i8* %89 to %"struct.pov::Light_List_Struct"*
  %91 = load %"struct.pov::Light_List_Struct"**, %"struct.pov::Light_List_Struct"*** @_ZN3pov18MediaLightListPoolE, align 8
  %92 = load i32, i32* %1, align 4
  %93 = sext i32 %92 to i64
  %94 = getelementptr inbounds %"struct.pov::Light_List_Struct"*, %"struct.pov::Light_List_Struct"** %91, i64 %93
  store %"struct.pov::Light_List_Struct"* %90, %"struct.pov::Light_List_Struct"** %94, align 8
  %95 = load i32, i32* %4, align 4
  %96 = mul nsw i32 2, %95
  %97 = add i32 %96, 270179204
  %98 = add i32 %97, 1
  %99 = sub i32 %98, 270179204
  %100 = add nsw i32 %96, 1
  %101 = sext i32 %99 to i64
  %102 = mul i64 %101, 32
  %103 = call i8* @_ZN3pov10pov_mallocEmPKciS1_(i64 %102, i8* getelementptr inbounds ([13 x i8], [13 x i8]* @.str, i32 0, i32 0), i32 6018, i8* getelementptr inbounds ([13 x i8], [13 x i8]* @.str.5, i32 0, i32 0))
  %104 = bitcast i8* %103 to %"struct.pov::Lit_Interval_Struct"*
  %105 = load %"struct.pov::Lit_Interval_Struct"**, %"struct.pov::Lit_Interval_Struct"*** @_ZN3pov20MediaLitIntervalPoolE, align 8
  %106 = load i32, i32* %1, align 4
  %107 = sext i32 %106 to i64
  %108 = getelementptr inbounds %"struct.pov::Lit_Interval_Struct"*, %"struct.pov::Lit_Interval_Struct"** %105, i64 %107
  store %"struct.pov::Lit_Interval_Struct"* %104, %"struct.pov::Lit_Interval_Struct"** %108, align 8
  %109 = call i8* @_ZN3pov10pov_mallocEmPKciS1_(i64 960, i8* getelementptr inbounds ([13 x i8], [13 x i8]* @.str, i32 0, i32 0), i32 6019, i8* getelementptr inbounds ([16 x i8], [16 x i8]* @.str.6, i32 0, i32 0))
  %110 = bitcast i8* %109 to %"struct.pov::Media_Interval_Struct"*
  %111 = load %"struct.pov::Media_Interval_Struct"**, %"struct.pov::Media_Interval_Struct"*** @_ZN3pov17MediaIntervalPoolE, align 8
  %112 = load i32, i32* %1, align 4
  %113 = sext i32 %112 to i64
  %114 = getelementptr inbounds %"struct.pov::Media_Interval_Struct"*, %"struct.pov::Media_Interval_Struct"** %111, i64 %113
  store %"struct.pov::Media_Interval_Struct"* %110, %"struct.pov::Media_Interval_Struct"** %114, align 8
  %115 = load i64*, i64** @_ZN3pov21MediaIntervalPoolSizeE, align 8
  %116 = load i32, i32* %1, align 4
  %117 = sext i32 %116 to i64
  %118 = getelementptr inbounds i64, i64* %115, i64 %117
  store i64 10, i64* %118, align 8
  %119 = load i32, i32* %4, align 4
  %120 = sext i32 %119 to i64
  %121 = mul i64 %120, 32
  %122 = sub i64 0, %121
  %123 = sub i64 160, %122
  %124 = add i64 160, %121
  %125 = load i32, i32* %4, align 4
  %126 = mul nsw i32 2, %125
  %127 = sub i32 0, 1
  %128 = sub i32 %126, %127
  %129 = add nsw i32 %126, 1
  %130 = sext i32 %128 to i64
  %131 = mul i64 %130, 32
  %132 = add i64 %123, 3943762428663582523
  %133 = add i64 %132, %131
  %134 = sub i64 %133, 3943762428663582523
  %135 = add i64 %123, %131
  %136 = add i64 %134, 6045182449037713482
  %137 = add i64 %136, 960
  %138 = sub i64 %137, 6045182449037713482
  %139 = add i64 %134, 960
  %140 = load i64, i64* @_ZN3pov19MediaMallocPoolSizeE, align 8
  %141 = add i64 %140, -2799484549128954489
  %142 = add i64 %141, %138
  %143 = sub i64 %142, -2799484549128954489
  %144 = add i64 %140, %138
  store i64 %143, i64* @_ZN3pov19MediaMallocPoolSizeE, align 8
  br label %145

; <label>:145:                                    ; preds = %65
  %146 = load i32, i32* %1, align 4
  %147 = sub i32 %146, 1050883810
  %148 = add i32 %147, 1
  %149 = add i32 %148, 1050883810
  %150 = add nsw i32 %146, 1
  store i32 %149, i32* %1, align 4
  br label %60

; <label>:151:                                    ; preds = %60
  %152 = load i64, i64* @_ZN3pov19MediaMallocPoolSizeE, align 8
  %153 = load i64, i64* @_ZN3pov19TotalMallocPoolSizeE, align 8
  %154 = sub i64 %153, -664586241679060183
  %155 = add i64 %154, %152
  %156 = add i64 %155, -664586241679060183
  %157 = add nsw i64 %153, %152
  store i64 %156, i64* @_ZN3pov19TotalMallocPoolSizeE, align 8
  %158 = load i64, i64* @_ZN3pov17MaxLightPoolDepthE, align 8
  %159 = mul i64 %158, 8
  %160 = call i8* @_ZN3pov10pov_mallocEmPKciS1_(i64 %159, i8* getelementptr inbounds ([13 x i8], [13 x i8]* @.str, i32 0, i32 0), i32 6028, i8* getelementptr inbounds ([18 x i8], [18 x i8]* @.str.7, i32 0, i32 0))
  %161 = bitcast i8* %160 to double**
  store double** %161, double*** @_ZN3pov14WeightListPoolE, align 8
  %162 = load i64, i64* @_ZN3pov17MaxLightPoolDepthE, align 8
  %163 = mul i64 %162, 8
  %164 = call i8* @_ZN3pov10pov_mallocEmPKciS1_(i64 %163, i8* getelementptr inbounds ([13 x i8], [13 x i8]* @.str, i32 0, i32 0), i32 6029, i8* getelementptr inbounds ([18 x i8], [18 x i8]* @.str.7, i32 0, i32 0))
  %165 = bitcast i8* %164 to %"struct.pov::Texture_Struct"***
  store %"struct.pov::Texture_Struct"*** %165, %"struct.pov::Texture_Struct"**** @_ZN3pov15TextureListPoolE, align 8
  %166 = load i64, i64* @_ZN3pov17MaxLightPoolDepthE, align 8
  %167 = mul i64 %166, 8
  %168 = call i8* @_ZN3pov10pov_mallocEmPKciS1_(i64 %167, i8* getelementptr inbounds ([13 x i8], [13 x i8]* @.str, i32 0, i32 0), i32 6030, i8* getelementptr inbounds ([18 x i8], [18 x i8]* @.str.7, i32 0, i32 0))
  %169 = bitcast i8* %168 to %"struct.pov::Light_Tested_Struct"**
  store %"struct.pov::Light_Tested_Struct"** %169, %"struct.pov::Light_Tested_Struct"*** @_ZN3pov13LightListPoolE, align 8
  store i32 0, i32* %1, align 4
  br label %170

; <label>:170:                                    ; preds = %227, %151
  %171 = load i32, i32* %1, align 4
  %172 = sext i32 %171 to i64
  %173 = load i64, i64* @_ZN3pov17MaxLightPoolDepthE, align 8
  %174 = icmp slt i64 %172, %173
  br i1 %174, label %175, label %232

; <label>:175:                                    ; preds = %170
  %176 = load i64, i64* %2, align 8
  %177 = call i8* @_ZN3pov10pov_mallocEmPKciS1_(i64 %176, i8* getelementptr inbounds ([13 x i8], [13 x i8]* @.str, i32 0, i32 0), i32 6034, i8* getelementptr inbounds ([18 x i8], [18 x i8]* @.str.7, i32 0, i32 0))
  %178 = bitcast i8* %177 to double*
  %179 = load double**, double*** @_ZN3pov14WeightListPoolE, align 8
  %180 = load i32, i32* %1, align 4
  %181 = sext i32 %180 to i64
  %182 = getelementptr inbounds double*, double** %179, i64 %181
  store double* %178, double** %182, align 8
  %183 = load i64, i64* %3, align 8
  %184 = call i8* @_ZN3pov10pov_mallocEmPKciS1_(i64 %183, i8* getelementptr inbounds ([13 x i8], [13 x i8]* @.str, i32 0, i32 0), i32 6035, i8* getelementptr inbounds ([18 x i8], [18 x i8]* @.str.7, i32 0, i32 0))
  %185 = bitcast i8* %184 to %"struct.pov::Texture_Struct"**
  %186 = load %"struct.pov::Texture_Struct"***, %"struct.pov::Texture_Struct"**** @_ZN3pov15TextureListPoolE, align 8
  %187 = load i32, i32* %1, align 4
  %188 = sext i32 %187 to i64
  %189 = getelementptr inbounds %"struct.pov::Texture_Struct"**, %"struct.pov::Texture_Struct"*** %186, i64 %188
  store %"struct.pov::Texture_Struct"** %185, %"struct.pov::Texture_Struct"*** %189, align 8
  store i32 1, i32* %5, align 4
  %190 = call dereferenceable(4) i32* @_ZSt3maxIiERKT_S2_S2_(i32* dereferenceable(4) %5, i32* dereferenceable(4) getelementptr inbounds (%"struct.pov::Frame_Struct", %"struct.pov::Frame_Struct"* @_ZN3pov5FrameE, i32 0, i32 3))
  %191 = load i32, i32* %190, align 4
  %192 = sext i32 %191 to i64
  %193 = mul i64 %192, 24
  %194 = call i8* @_ZN3pov10pov_mallocEmPKciS1_(i64 %193, i8* getelementptr inbounds ([13 x i8], [13 x i8]* @.str, i32 0, i32 0), i32 6036, i8* getelementptr inbounds ([18 x i8], [18 x i8]* @.str.7, i32 0, i32 0))
  %195 = bitcast i8* %194 to %"struct.pov::Light_Tested_Struct"*
  %196 = load %"struct.pov::Light_Tested_Struct"**, %"struct.pov::Light_Tested_Struct"*** @_ZN3pov13LightListPoolE, align 8
  %197 = load i32, i32* %1, align 4
  %198 = sext i32 %197 to i64
  %199 = getelementptr inbounds %"struct.pov::Light_Tested_Struct"*, %"struct.pov::Light_Tested_Struct"** %196, i64 %198
  store %"struct.pov::Light_Tested_Struct"* %195, %"struct.pov::Light_Tested_Struct"** %199, align 8
  %200 = load i64, i64* %2, align 8
  %201 = load i64, i64* %3, align 8
  %202 = add i64 %200, 55901729290661679
  %203 = add i64 %202, %201
  %204 = sub i64 %203, 55901729290661679
  %205 = add nsw i64 %200, %201
  %206 = load i64, i64* %2, align 8
  %207 = sub i64 0, %206
  %208 = sub i64 %204, %207
  %209 = add nsw i64 %204, %206
  %210 = load i64, i64* %3, align 8
  %211 = sub i64 0, %208
  %212 = sub i64 0, %210
  %213 = add i64 %211, %212
  %214 = sub i64 0, %213
  %215 = add nsw i64 %208, %210
  store i32 1, i32* %6, align 4
  %216 = call dereferenceable(4) i32* @_ZSt3maxIiERKT_S2_S2_(i32* dereferenceable(4) %6, i32* dereferenceable(4) getelementptr inbounds (%"struct.pov::Frame_Struct", %"struct.pov::Frame_Struct"* @_ZN3pov5FrameE, i32 0, i32 3))
  %217 = load i32, i32* %216, align 4
  %218 = sext i32 %217 to i64
  %219 = mul i64 %218, 24
  %220 = sub i64 0, %219
  %221 = sub i64 %214, %220
  %222 = add i64 %214, %219
  %223 = load i64, i64* @_ZN3pov19TotalMallocPoolSizeE, align 8
  %224 = sub i64 0, %221
  %225 = sub i64 %223, %224
  %226 = add i64 %223, %221
  store i64 %225, i64* @_ZN3pov19TotalMallocPoolSizeE, align 8
  br label %227

; <label>:227:                                    ; preds = %175
  %228 = load i32, i32* %1, align 4
  %229 = sub i32 0, 1
  %230 = sub i32 %228, %229
  %231 = add nsw i32 %228, 1
  store i32 %230, i32* %1, align 4
  br label %170

; <label>:232:                                    ; preds = %170
  ret void
}

; Function Attrs: noinline nounwind uwtable
define void @_ZN3pov18InitComTexDataPoolEv() #1 {
  store %"struct.pov::ComTexData_Struct"* null, %"struct.pov::ComTexData_Struct"** @_ZN3pov22ComputeTextureUsedPoolE, align 8
  store %"struct.pov::ComTexData_Struct"* null, %"struct.pov::ComTexData_Struct"** @_ZN3pov22ComputeTextureFreePoolE, align 8
  store i32 0, i32* @_ZN3pov22ComputeTexturePoolSizeE, align 4
  ret void
}

declare i8* @_ZN3pov10pov_mallocEmPKciS1_(i64, i8*, i32, i8*) #2

; Function Attrs: noinline uwtable
define void @_ZN3pov26Reinitialize_Lighting_CodeEiPPPNS_14Texture_StructEPPd(i32, %"struct.pov::Texture_Struct"***, double**) #0 {
  %4 = alloca i32, align 4
  %5 = alloca %"struct.pov::Texture_Struct"***, align 8
  %6 = alloca double**, align 8
  store i32 %0, i32* %4, align 4
  store %"struct.pov::Texture_Struct"*** %1, %"struct.pov::Texture_Struct"**** %5, align 8
  store double** %2, double*** %6, align 8
  %7 = load i32, i32* %4, align 4
  %8 = load i32, i32* @_ZN3pov30Number_Of_Textures_And_WeightsE, align 4
  %9 = icmp sgt i32 %7, %8
  br i1 %9, label %10, label %27

; <label>:10:                                     ; preds = %3
  %11 = load i32, i32* %4, align 4
  %12 = icmp sge i32 %11, 1073741823
  br i1 %12, label %13, label %15

; <label>:13:                                     ; preds = %10
  %14 = call i32 (i8*, ...) @_ZN3pov5ErrorEPKcz(i8* getelementptr inbounds ([46 x i8], [46 x i8]* @.str.2, i32 0, i32 0))
  br label %15

; <label>:15:                                     ; preds = %13, %10
  %16 = load i32, i32* %4, align 4
  store i32 %16, i32* @_ZN3pov30Number_Of_Textures_And_WeightsE, align 4
  call void @_ZN3povL17ReInitMallocPoolsEv()
  %17 = load %"struct.pov::Texture_Struct"***, %"struct.pov::Texture_Struct"**** @_ZN3pov15TextureListPoolE, align 8
  %18 = load i64, i64* @_ZN3pov17LightingPoolIndexE, align 8
  %19 = getelementptr inbounds %"struct.pov::Texture_Struct"**, %"struct.pov::Texture_Struct"*** %17, i64 %18
  %20 = load %"struct.pov::Texture_Struct"**, %"struct.pov::Texture_Struct"*** %19, align 8
  store %"struct.pov::Texture_Struct"** %20, %"struct.pov::Texture_Struct"*** @_ZN3pov12Texture_ListE, align 8
  %21 = load %"struct.pov::Texture_Struct"***, %"struct.pov::Texture_Struct"**** %5, align 8
  store %"struct.pov::Texture_Struct"** %20, %"struct.pov::Texture_Struct"*** %21, align 8
  %22 = load double**, double*** @_ZN3pov14WeightListPoolE, align 8
  %23 = load i64, i64* @_ZN3pov17LightingPoolIndexE, align 8
  %24 = getelementptr inbounds double*, double** %22, i64 %23
  %25 = load double*, double** %24, align 8
  store double* %25, double** @_ZN3pov11Weight_ListE, align 8
  %26 = load double**, double*** %6, align 8
  store double* %25, double** %26, align 8
  br label %27

; <label>:27:                                     ; preds = %15, %3
  ret void
}

declare i32 @_ZN3pov5ErrorEPKcz(i8*, ...) #2

; Function Attrs: noinline uwtable
define internal void @_ZN3povL17ReInitMallocPoolsEv() #0 {
  %1 = alloca i32, align 4
  %2 = alloca i64, align 8
  %3 = alloca i64, align 8
  %4 = alloca i32, align 4
  %5 = alloca i32, align 4
  %6 = load i32, i32* @_ZN3pov30Number_Of_Textures_And_WeightsE, align 4
  %7 = sext i32 %6 to i64
  %8 = mul i64 %7, 8
  store i64 %8, i64* %2, align 8
  %9 = load i32, i32* @_ZN3pov30Number_Of_Textures_And_WeightsE, align 4
  %10 = sext i32 %9 to i64
  %11 = mul i64 %10, 8
  store i64 %11, i64* %3, align 8
  %12 = load i64, i64* @_ZN3pov19MediaMallocPoolSizeE, align 8
  store i64 %12, i64* @_ZN3pov19TotalMallocPoolSizeE, align 8
  store i32 0, i32* %1, align 4
  br label %13

; <label>:13:                                     ; preds = %90, %0
  %14 = load i32, i32* %1, align 4
  %15 = sext i32 %14 to i64
  %16 = load i64, i64* @_ZN3pov17MaxLightPoolDepthE, align 8
  %17 = icmp slt i64 %15, %16
  br i1 %17, label %18, label %95

; <label>:18:                                     ; preds = %13
  %19 = load double**, double*** @_ZN3pov14WeightListPoolE, align 8
  %20 = load i32, i32* %1, align 4
  %21 = sext i32 %20 to i64
  %22 = getelementptr inbounds double*, double** %19, i64 %21
  %23 = load double*, double** %22, align 8
  %24 = bitcast double* %23 to i8*
  %25 = load i64, i64* %2, align 8
  %26 = call i8* @_ZN3pov11pov_reallocEPvmPKciS2_(i8* %24, i64 %25, i8* getelementptr inbounds ([13 x i8], [13 x i8]* @.str, i32 0, i32 0), i32 6128, i8* getelementptr inbounds ([18 x i8], [18 x i8]* @.str.7, i32 0, i32 0))
  %27 = bitcast i8* %26 to double*
  %28 = load double**, double*** @_ZN3pov14WeightListPoolE, align 8
  %29 = load i32, i32* %1, align 4
  %30 = sext i32 %29 to i64
  %31 = getelementptr inbounds double*, double** %28, i64 %30
  store double* %27, double** %31, align 8
  %32 = load %"struct.pov::Texture_Struct"***, %"struct.pov::Texture_Struct"**** @_ZN3pov15TextureListPoolE, align 8
  %33 = load i32, i32* %1, align 4
  %34 = sext i32 %33 to i64
  %35 = getelementptr inbounds %"struct.pov::Texture_Struct"**, %"struct.pov::Texture_Struct"*** %32, i64 %34
  %36 = load %"struct.pov::Texture_Struct"**, %"struct.pov::Texture_Struct"*** %35, align 8
  %37 = bitcast %"struct.pov::Texture_Struct"** %36 to i8*
  %38 = load i64, i64* %3, align 8
  %39 = call i8* @_ZN3pov11pov_reallocEPvmPKciS2_(i8* %37, i64 %38, i8* getelementptr inbounds ([13 x i8], [13 x i8]* @.str, i32 0, i32 0), i32 6129, i8* getelementptr inbounds ([18 x i8], [18 x i8]* @.str.7, i32 0, i32 0))
  %40 = bitcast i8* %39 to %"struct.pov::Texture_Struct"**
  %41 = load %"struct.pov::Texture_Struct"***, %"struct.pov::Texture_Struct"**** @_ZN3pov15TextureListPoolE, align 8
  %42 = load i32, i32* %1, align 4
  %43 = sext i32 %42 to i64
  %44 = getelementptr inbounds %"struct.pov::Texture_Struct"**, %"struct.pov::Texture_Struct"*** %41, i64 %43
  store %"struct.pov::Texture_Struct"** %40, %"struct.pov::Texture_Struct"*** %44, align 8
  %45 = load %"struct.pov::Light_Tested_Struct"**, %"struct.pov::Light_Tested_Struct"*** @_ZN3pov13LightListPoolE, align 8
  %46 = load i32, i32* %1, align 4
  %47 = sext i32 %46 to i64
  %48 = getelementptr inbounds %"struct.pov::Light_Tested_Struct"*, %"struct.pov::Light_Tested_Struct"** %45, i64 %47
  %49 = load %"struct.pov::Light_Tested_Struct"*, %"struct.pov::Light_Tested_Struct"** %48, align 8
  %50 = bitcast %"struct.pov::Light_Tested_Struct"* %49 to i8*
  store i32 1, i32* %4, align 4
  %51 = call dereferenceable(4) i32* @_ZSt3maxIiERKT_S2_S2_(i32* dereferenceable(4) %4, i32* dereferenceable(4) getelementptr inbounds (%"struct.pov::Frame_Struct", %"struct.pov::Frame_Struct"* @_ZN3pov5FrameE, i32 0, i32 3))
  %52 = load i32, i32* %51, align 4
  %53 = sext i32 %52 to i64
  %54 = mul i64 %53, 24
  %55 = call i8* @_ZN3pov11pov_reallocEPvmPKciS2_(i8* %50, i64 %54, i8* getelementptr inbounds ([13 x i8], [13 x i8]* @.str, i32 0, i32 0), i32 6130, i8* getelementptr inbounds ([18 x i8], [18 x i8]* @.str.7, i32 0, i32 0))
  %56 = bitcast i8* %55 to %"struct.pov::Light_Tested_Struct"*
  %57 = load %"struct.pov::Light_Tested_Struct"**, %"struct.pov::Light_Tested_Struct"*** @_ZN3pov13LightListPoolE, align 8
  %58 = load i32, i32* %1, align 4
  %59 = sext i32 %58 to i64
  %60 = getelementptr inbounds %"struct.pov::Light_Tested_Struct"*, %"struct.pov::Light_Tested_Struct"** %57, i64 %59
  store %"struct.pov::Light_Tested_Struct"* %56, %"struct.pov::Light_Tested_Struct"** %60, align 8
  %61 = load i64, i64* %2, align 8
  %62 = load i64, i64* %3, align 8
  %63 = sub i64 %61, 1085769472741686565
  %64 = add i64 %63, %62
  %65 = add i64 %64, 1085769472741686565
  %66 = add nsw i64 %61, %62
  %67 = load i64, i64* %2, align 8
  %68 = add i64 %65, 5143147691382594488
  %69 = add i64 %68, %67
  %70 = sub i64 %69, 5143147691382594488
  %71 = add nsw i64 %65, %67
  %72 = load i64, i64* %3, align 8
  %73 = sub i64 0, %70
  %74 = sub i64 0, %72
  %75 = add i64 %73, %74
  %76 = sub i64 0, %75
  %77 = add nsw i64 %70, %72
  store i32 1, i32* %5, align 4
  %78 = call dereferenceable(4) i32* @_ZSt3maxIiERKT_S2_S2_(i32* dereferenceable(4) %5, i32* dereferenceable(4) getelementptr inbounds (%"struct.pov::Frame_Struct", %"struct.pov::Frame_Struct"* @_ZN3pov5FrameE, i32 0, i32 3))
  %79 = load i32, i32* %78, align 4
  %80 = sext i32 %79 to i64
  %81 = mul i64 %80, 24
  %82 = sub i64 0, %81
  %83 = sub i64 %76, %82
  %84 = add i64 %76, %81
  %85 = load i64, i64* @_ZN3pov19TotalMallocPoolSizeE, align 8
  %86 = sub i64 %85, -5902392269901796516
  %87 = add i64 %86, %83
  %88 = add i64 %87, -5902392269901796516
  %89 = add i64 %85, %83
  store i64 %88, i64* @_ZN3pov19TotalMallocPoolSizeE, align 8
  br label %90

; <label>:90:                                     ; preds = %18
  %91 = load i32, i32* %1, align 4
  %92 = sub i32 0, 1
  %93 = sub i32 %91, %92
  %94 = add nsw i32 %91, 1
  store i32 %93, i32* %1, align 4
  br label %13

; <label>:95:                                     ; preds = %13
  ret void
}

; Function Attrs: noinline uwtable
define void @_ZN3pov26Deinitialize_Lighting_CodeEv() #0 {
  call void @_ZN3povL17DeInitMallocPoolsEv()
  call void @_ZN3pov18FreeComTexDataPoolEv()
  %1 = load %"struct.pov::Texture_Struct"**, %"struct.pov::Texture_Struct"*** @_ZN3pov21warpNormalTextureListE, align 8
  %2 = icmp ne %"struct.pov::Texture_Struct"** %1, null
  br i1 %2, label %3, label %6

; <label>:3:                                      ; preds = %0
  %4 = load %"struct.pov::Texture_Struct"**, %"struct.pov::Texture_Struct"*** @_ZN3pov21warpNormalTextureListE, align 8
  %5 = bitcast %"struct.pov::Texture_Struct"** %4 to i8*
  call void @_ZN3pov8pov_freeEPvPKci(i8* %5, i8* getelementptr inbounds ([13 x i8], [13 x i8]* @.str, i32 0, i32 0), i32 423)
  store %"struct.pov::Texture_Struct"** null, %"struct.pov::Texture_Struct"*** @_ZN3pov21warpNormalTextureListE, align 8
  br label %6

; <label>:6:                                      ; preds = %3, %0
  store %"struct.pov::Texture_Struct"** null, %"struct.pov::Texture_Struct"*** @_ZN3pov21warpNormalTextureListE, align 8
  store i32 0, i32* @_ZN3pov28warpNormalTextureListMaxSizeE, align 4
  %7 = load i32, i32* @_ZN3pov9disp_elemE, align 4
  %8 = icmp ne i32 %7, 0
  br i1 %8, label %9, label %10

; <label>:9:                                      ; preds = %6
  store i32 0, i32* @_ZN3pov9disp_elemE, align 4
  br label %10

; <label>:10:                                     ; preds = %9, %6
  store %"struct.pov::Light_Tested_Struct"* null, %"struct.pov::Light_Tested_Struct"** @_ZN3pov10Light_ListE, align 8
  store %"struct.pov::Texture_Struct"** null, %"struct.pov::Texture_Struct"*** @_ZN3pov12Texture_ListE, align 8
  store double* null, double** @_ZN3pov11Weight_ListE, align 8
  ret void
}

; Function Attrs: noinline uwtable
define internal void @_ZN3povL17DeInitMallocPoolsEv() #0 {
  %1 = alloca i32, align 4
  %2 = load double*, double** @_ZN3pov2s0E, align 8
  %3 = icmp ne double* %2, null
  br i1 %3, label %4, label %7

; <label>:4:                                      ; preds = %0
  %5 = load double*, double** @_ZN3pov2s0E, align 8
  %6 = bitcast double* %5 to i8*
  call void @_ZN3pov8pov_freeEPvPKci(i8* %6, i8* getelementptr inbounds ([13 x i8], [13 x i8]* @.str, i32 0, i32 0), i32 6047)
  store double* null, double** @_ZN3pov2s0E, align 8
  br label %7

; <label>:7:                                      ; preds = %4, %0
  store double* null, double** @_ZN3pov2s0E, align 8
  %8 = load double*, double** @_ZN3pov2s1E, align 8
  %9 = icmp ne double* %8, null
  br i1 %9, label %10, label %13

; <label>:10:                                     ; preds = %7
  %11 = load double*, double** @_ZN3pov2s1E, align 8
  %12 = bitcast double* %11 to i8*
  call void @_ZN3pov8pov_freeEPvPKci(i8* %12, i8* getelementptr inbounds ([13 x i8], [13 x i8]* @.str, i32 0, i32 0), i32 6048)
  store double* null, double** @_ZN3pov2s1E, align 8
  br label %13

; <label>:13:                                     ; preds = %10, %7
  store double* null, double** @_ZN3pov2s1E, align 8
  %14 = load %"struct.pov::Media_Struct"***, %"struct.pov::Media_Struct"**** @_ZN3pov19ShadowMediaListPoolE, align 8
  %15 = icmp ne %"struct.pov::Media_Struct"*** %14, null
  br i1 %15, label %16, label %140

; <label>:16:                                     ; preds = %13
  store i32 0, i32* %1, align 4
  br label %17

; <label>:17:                                     ; preds = %133, %16
  %18 = load i32, i32* %1, align 4
  %19 = sext i32 %18 to i64
  %20 = load i64, i64* @_ZN3pov17MaxMediaPoolDepthE, align 8
  %21 = icmp slt i64 %19, %20
  br i1 %21, label %22, label %139

; <label>:22:                                     ; preds = %17
  %23 = load %"struct.pov::Media_Struct"***, %"struct.pov::Media_Struct"**** @_ZN3pov19ShadowMediaListPoolE, align 8
  %24 = load i32, i32* %1, align 4
  %25 = sext i32 %24 to i64
  %26 = getelementptr inbounds %"struct.pov::Media_Struct"**, %"struct.pov::Media_Struct"*** %23, i64 %25
  %27 = load %"struct.pov::Media_Struct"**, %"struct.pov::Media_Struct"*** %26, align 8
  %28 = icmp ne %"struct.pov::Media_Struct"** %27, null
  br i1 %28, label %29, label %40

; <label>:29:                                     ; preds = %22
  %30 = load %"struct.pov::Media_Struct"***, %"struct.pov::Media_Struct"**** @_ZN3pov19ShadowMediaListPoolE, align 8
  %31 = load i32, i32* %1, align 4
  %32 = sext i32 %31 to i64
  %33 = getelementptr inbounds %"struct.pov::Media_Struct"**, %"struct.pov::Media_Struct"*** %30, i64 %32
  %34 = load %"struct.pov::Media_Struct"**, %"struct.pov::Media_Struct"*** %33, align 8
  %35 = bitcast %"struct.pov::Media_Struct"** %34 to i8*
  call void @_ZN3pov8pov_freeEPvPKci(i8* %35, i8* getelementptr inbounds ([13 x i8], [13 x i8]* @.str, i32 0, i32 0), i32 6054)
  %36 = load %"struct.pov::Media_Struct"***, %"struct.pov::Media_Struct"**** @_ZN3pov19ShadowMediaListPoolE, align 8
  %37 = load i32, i32* %1, align 4
  %38 = sext i32 %37 to i64
  %39 = getelementptr inbounds %"struct.pov::Media_Struct"**, %"struct.pov::Media_Struct"*** %36, i64 %38
  store %"struct.pov::Media_Struct"** null, %"struct.pov::Media_Struct"*** %39, align 8
  br label %40

; <label>:40:                                     ; preds = %29, %22
  %41 = load %"struct.pov::Media_Struct"***, %"struct.pov::Media_Struct"**** @_ZN3pov19ShadowMediaListPoolE, align 8
  %42 = load i32, i32* %1, align 4
  %43 = sext i32 %42 to i64
  %44 = getelementptr inbounds %"struct.pov::Media_Struct"**, %"struct.pov::Media_Struct"*** %41, i64 %43
  store %"struct.pov::Media_Struct"** null, %"struct.pov::Media_Struct"*** %44, align 8
  %45 = load %"struct.pov::Media_Struct"***, %"struct.pov::Media_Struct"**** @_ZN3pov21LightingMediaListPoolE, align 8
  %46 = load i32, i32* %1, align 4
  %47 = sext i32 %46 to i64
  %48 = getelementptr inbounds %"struct.pov::Media_Struct"**, %"struct.pov::Media_Struct"*** %45, i64 %47
  %49 = load %"struct.pov::Media_Struct"**, %"struct.pov::Media_Struct"*** %48, align 8
  %50 = icmp ne %"struct.pov::Media_Struct"** %49, null
  br i1 %50, label %51, label %62

; <label>:51:                                     ; preds = %40
  %52 = load %"struct.pov::Media_Struct"***, %"struct.pov::Media_Struct"**** @_ZN3pov21LightingMediaListPoolE, align 8
  %53 = load i32, i32* %1, align 4
  %54 = sext i32 %53 to i64
  %55 = getelementptr inbounds %"struct.pov::Media_Struct"**, %"struct.pov::Media_Struct"*** %52, i64 %54
  %56 = load %"struct.pov::Media_Struct"**, %"struct.pov::Media_Struct"*** %55, align 8
  %57 = bitcast %"struct.pov::Media_Struct"** %56 to i8*
  call void @_ZN3pov8pov_freeEPvPKci(i8* %57, i8* getelementptr inbounds ([13 x i8], [13 x i8]* @.str, i32 0, i32 0), i32 6057)
  %58 = load %"struct.pov::Media_Struct"***, %"struct.pov::Media_Struct"**** @_ZN3pov21LightingMediaListPoolE, align 8
  %59 = load i32, i32* %1, align 4
  %60 = sext i32 %59 to i64
  %61 = getelementptr inbounds %"struct.pov::Media_Struct"**, %"struct.pov::Media_Struct"*** %58, i64 %60
  store %"struct.pov::Media_Struct"** null, %"struct.pov::Media_Struct"*** %61, align 8
  br label %62

; <label>:62:                                     ; preds = %51, %40
  %63 = load %"struct.pov::Media_Struct"***, %"struct.pov::Media_Struct"**** @_ZN3pov21LightingMediaListPoolE, align 8
  %64 = load i32, i32* %1, align 4
  %65 = sext i32 %64 to i64
  %66 = getelementptr inbounds %"struct.pov::Media_Struct"**, %"struct.pov::Media_Struct"*** %63, i64 %65
  store %"struct.pov::Media_Struct"** null, %"struct.pov::Media_Struct"*** %66, align 8
  %67 = load %"struct.pov::Light_List_Struct"**, %"struct.pov::Light_List_Struct"*** @_ZN3pov18MediaLightListPoolE, align 8
  %68 = load i32, i32* %1, align 4
  %69 = sext i32 %68 to i64
  %70 = getelementptr inbounds %"struct.pov::Light_List_Struct"*, %"struct.pov::Light_List_Struct"** %67, i64 %69
  %71 = load %"struct.pov::Light_List_Struct"*, %"struct.pov::Light_List_Struct"** %70, align 8
  %72 = icmp ne %"struct.pov::Light_List_Struct"* %71, null
  br i1 %72, label %73, label %84

; <label>:73:                                     ; preds = %62
  %74 = load %"struct.pov::Light_List_Struct"**, %"struct.pov::Light_List_Struct"*** @_ZN3pov18MediaLightListPoolE, align 8
  %75 = load i32, i32* %1, align 4
  %76 = sext i32 %75 to i64
  %77 = getelementptr inbounds %"struct.pov::Light_List_Struct"*, %"struct.pov::Light_List_Struct"** %74, i64 %76
  %78 = load %"struct.pov::Light_List_Struct"*, %"struct.pov::Light_List_Struct"** %77, align 8
  %79 = bitcast %"struct.pov::Light_List_Struct"* %78 to i8*
  call void @_ZN3pov8pov_freeEPvPKci(i8* %79, i8* getelementptr inbounds ([13 x i8], [13 x i8]* @.str, i32 0, i32 0), i32 6060)
  %80 = load %"struct.pov::Light_List_Struct"**, %"struct.pov::Light_List_Struct"*** @_ZN3pov18MediaLightListPoolE, align 8
  %81 = load i32, i32* %1, align 4
  %82 = sext i32 %81 to i64
  %83 = getelementptr inbounds %"struct.pov::Light_List_Struct"*, %"struct.pov::Light_List_Struct"** %80, i64 %82
  store %"struct.pov::Light_List_Struct"* null, %"struct.pov::Light_List_Struct"** %83, align 8
  br label %84

; <label>:84:                                     ; preds = %73, %62
  %85 = load %"struct.pov::Light_List_Struct"**, %"struct.pov::Light_List_Struct"*** @_ZN3pov18MediaLightListPoolE, align 8
  %86 = load i32, i32* %1, align 4
  %87 = sext i32 %86 to i64
  %88 = getelementptr inbounds %"struct.pov::Light_List_Struct"*, %"struct.pov::Light_List_Struct"** %85, i64 %87
  store %"struct.pov::Light_List_Struct"* null, %"struct.pov::Light_List_Struct"** %88, align 8
  %89 = load %"struct.pov::Lit_Interval_Struct"**, %"struct.pov::Lit_Interval_Struct"*** @_ZN3pov20MediaLitIntervalPoolE, align 8
  %90 = load i32, i32* %1, align 4
  %91 = sext i32 %90 to i64
  %92 = getelementptr inbounds %"struct.pov::Lit_Interval_Struct"*, %"struct.pov::Lit_Interval_Struct"** %89, i64 %91
  %93 = load %"struct.pov::Lit_Interval_Struct"*, %"struct.pov::Lit_Interval_Struct"** %92, align 8
  %94 = icmp ne %"struct.pov::Lit_Interval_Struct"* %93, null
  br i1 %94, label %95, label %106

; <label>:95:                                     ; preds = %84
  %96 = load %"struct.pov::Lit_Interval_Struct"**, %"struct.pov::Lit_Interval_Struct"*** @_ZN3pov20MediaLitIntervalPoolE, align 8
  %97 = load i32, i32* %1, align 4
  %98 = sext i32 %97 to i64
  %99 = getelementptr inbounds %"struct.pov::Lit_Interval_Struct"*, %"struct.pov::Lit_Interval_Struct"** %96, i64 %98
  %100 = load %"struct.pov::Lit_Interval_Struct"*, %"struct.pov::Lit_Interval_Struct"** %99, align 8
  %101 = bitcast %"struct.pov::Lit_Interval_Struct"* %100 to i8*
  call void @_ZN3pov8pov_freeEPvPKci(i8* %101, i8* getelementptr inbounds ([13 x i8], [13 x i8]* @.str, i32 0, i32 0), i32 6063)
  %102 = load %"struct.pov::Lit_Interval_Struct"**, %"struct.pov::Lit_Interval_Struct"*** @_ZN3pov20MediaLitIntervalPoolE, align 8
  %103 = load i32, i32* %1, align 4
  %104 = sext i32 %103 to i64
  %105 = getelementptr inbounds %"struct.pov::Lit_Interval_Struct"*, %"struct.pov::Lit_Interval_Struct"** %102, i64 %104
  store %"struct.pov::Lit_Interval_Struct"* null, %"struct.pov::Lit_Interval_Struct"** %105, align 8
  br label %106

; <label>:106:                                    ; preds = %95, %84
  %107 = load %"struct.pov::Lit_Interval_Struct"**, %"struct.pov::Lit_Interval_Struct"*** @_ZN3pov20MediaLitIntervalPoolE, align 8
  %108 = load i32, i32* %1, align 4
  %109 = sext i32 %108 to i64
  %110 = getelementptr inbounds %"struct.pov::Lit_Interval_Struct"*, %"struct.pov::Lit_Interval_Struct"** %107, i64 %109
  store %"struct.pov::Lit_Interval_Struct"* null, %"struct.pov::Lit_Interval_Struct"** %110, align 8
  %111 = load %"struct.pov::Media_Interval_Struct"**, %"struct.pov::Media_Interval_Struct"*** @_ZN3pov17MediaIntervalPoolE, align 8
  %112 = load i32, i32* %1, align 4
  %113 = sext i32 %112 to i64
  %114 = getelementptr inbounds %"struct.pov::Media_Interval_Struct"*, %"struct.pov::Media_Interval_Struct"** %111, i64 %113
  %115 = load %"struct.pov::Media_Interval_Struct"*, %"struct.pov::Media_Interval_Struct"** %114, align 8
  %116 = icmp ne %"struct.pov::Media_Interval_Struct"* %115, null
  br i1 %116, label %117, label %128

; <label>:117:                                    ; preds = %106
  %118 = load %"struct.pov::Media_Interval_Struct"**, %"struct.pov::Media_Interval_Struct"*** @_ZN3pov17MediaIntervalPoolE, align 8
  %119 = load i32, i32* %1, align 4
  %120 = sext i32 %119 to i64
  %121 = getelementptr inbounds %"struct.pov::Media_Interval_Struct"*, %"struct.pov::Media_Interval_Struct"** %118, i64 %120
  %122 = load %"struct.pov::Media_Interval_Struct"*, %"struct.pov::Media_Interval_Struct"** %121, align 8
  %123 = bitcast %"struct.pov::Media_Interval_Struct"* %122 to i8*
  call void @_ZN3pov8pov_freeEPvPKci(i8* %123, i8* getelementptr inbounds ([13 x i8], [13 x i8]* @.str, i32 0, i32 0), i32 6066)
  %124 = load %"struct.pov::Media_Interval_Struct"**, %"struct.pov::Media_Interval_Struct"*** @_ZN3pov17MediaIntervalPoolE, align 8
  %125 = load i32, i32* %1, align 4
  %126 = sext i32 %125 to i64
  %127 = getelementptr inbounds %"struct.pov::Media_Interval_Struct"*, %"struct.pov::Media_Interval_Struct"** %124, i64 %126
  store %"struct.pov::Media_Interval_Struct"* null, %"struct.pov::Media_Interval_Struct"** %127, align 8
  br label %128

; <label>:128:                                    ; preds = %117, %106
  %129 = load %"struct.pov::Media_Interval_Struct"**, %"struct.pov::Media_Interval_Struct"*** @_ZN3pov17MediaIntervalPoolE, align 8
  %130 = load i32, i32* %1, align 4
  %131 = sext i32 %130 to i64
  %132 = getelementptr inbounds %"struct.pov::Media_Interval_Struct"*, %"struct.pov::Media_Interval_Struct"** %129, i64 %131
  store %"struct.pov::Media_Interval_Struct"* null, %"struct.pov::Media_Interval_Struct"** %132, align 8
  br label %133

; <label>:133:                                    ; preds = %128
  %134 = load i32, i32* %1, align 4
  %135 = sub i32 %134, 1687841749
  %136 = add i32 %135, 1
  %137 = add i32 %136, 1687841749
  %138 = add nsw i32 %134, 1
  store i32 %137, i32* %1, align 4
  br label %17

; <label>:139:                                    ; preds = %17
  br label %140

; <label>:140:                                    ; preds = %139, %13
  %141 = load %"struct.pov::Media_Struct"***, %"struct.pov::Media_Struct"**** @_ZN3pov19ShadowMediaListPoolE, align 8
  %142 = icmp ne %"struct.pov::Media_Struct"*** %141, null
  br i1 %142, label %143, label %146

; <label>:143:                                    ; preds = %140
  %144 = load %"struct.pov::Media_Struct"***, %"struct.pov::Media_Struct"**** @_ZN3pov19ShadowMediaListPoolE, align 8
  %145 = bitcast %"struct.pov::Media_Struct"*** %144 to i8*
  call void @_ZN3pov8pov_freeEPvPKci(i8* %145, i8* getelementptr inbounds ([13 x i8], [13 x i8]* @.str, i32 0, i32 0), i32 6071)
  store %"struct.pov::Media_Struct"*** null, %"struct.pov::Media_Struct"**** @_ZN3pov19ShadowMediaListPoolE, align 8
  br label %146

; <label>:146:                                    ; preds = %143, %140
  store %"struct.pov::Media_Struct"*** null, %"struct.pov::Media_Struct"**** @_ZN3pov19ShadowMediaListPoolE, align 8
  %147 = load i64*, i64** @_ZN3pov23ShadowMediaListPoolSizeE, align 8
  %148 = icmp ne i64* %147, null
  br i1 %148, label %149, label %152

; <label>:149:                                    ; preds = %146
  %150 = load i64*, i64** @_ZN3pov23ShadowMediaListPoolSizeE, align 8
  %151 = bitcast i64* %150 to i8*
  call void @_ZN3pov8pov_freeEPvPKci(i8* %151, i8* getelementptr inbounds ([13 x i8], [13 x i8]* @.str, i32 0, i32 0), i32 6073)
  store i64* null, i64** @_ZN3pov23ShadowMediaListPoolSizeE, align 8
  br label %152

; <label>:152:                                    ; preds = %149, %146
  store i64* null, i64** @_ZN3pov23ShadowMediaListPoolSizeE, align 8
  %153 = load %"struct.pov::Media_Struct"***, %"struct.pov::Media_Struct"**** @_ZN3pov21LightingMediaListPoolE, align 8
  %154 = icmp ne %"struct.pov::Media_Struct"*** %153, null
  br i1 %154, label %155, label %158

; <label>:155:                                    ; preds = %152
  %156 = load %"struct.pov::Media_Struct"***, %"struct.pov::Media_Struct"**** @_ZN3pov21LightingMediaListPoolE, align 8
  %157 = bitcast %"struct.pov::Media_Struct"*** %156 to i8*
  call void @_ZN3pov8pov_freeEPvPKci(i8* %157, i8* getelementptr inbounds ([13 x i8], [13 x i8]* @.str, i32 0, i32 0), i32 6076)
  store %"struct.pov::Media_Struct"*** null, %"struct.pov::Media_Struct"**** @_ZN3pov21LightingMediaListPoolE, align 8
  br label %158

; <label>:158:                                    ; preds = %155, %152
  store %"struct.pov::Media_Struct"*** null, %"struct.pov::Media_Struct"**** @_ZN3pov21LightingMediaListPoolE, align 8
  %159 = load i64*, i64** @_ZN3pov25LightingMediaListPoolSizeE, align 8
  %160 = icmp ne i64* %159, null
  br i1 %160, label %161, label %164

; <label>:161:                                    ; preds = %158
  %162 = load i64*, i64** @_ZN3pov25LightingMediaListPoolSizeE, align 8
  %163 = bitcast i64* %162 to i8*
  call void @_ZN3pov8pov_freeEPvPKci(i8* %163, i8* getelementptr inbounds ([13 x i8], [13 x i8]* @.str, i32 0, i32 0), i32 6078)
  store i64* null, i64** @_ZN3pov25LightingMediaListPoolSizeE, align 8
  br label %164

; <label>:164:                                    ; preds = %161, %158
  store i64* null, i64** @_ZN3pov25LightingMediaListPoolSizeE, align 8
  %165 = load %"struct.pov::Light_List_Struct"**, %"struct.pov::Light_List_Struct"*** @_ZN3pov18MediaLightListPoolE, align 8
  %166 = icmp ne %"struct.pov::Light_List_Struct"** %165, null
  br i1 %166, label %167, label %170

; <label>:167:                                    ; preds = %164
  %168 = load %"struct.pov::Light_List_Struct"**, %"struct.pov::Light_List_Struct"*** @_ZN3pov18MediaLightListPoolE, align 8
  %169 = bitcast %"struct.pov::Light_List_Struct"** %168 to i8*
  call void @_ZN3pov8pov_freeEPvPKci(i8* %169, i8* getelementptr inbounds ([13 x i8], [13 x i8]* @.str, i32 0, i32 0), i32 6081)
  store %"struct.pov::Light_List_Struct"** null, %"struct.pov::Light_List_Struct"*** @_ZN3pov18MediaLightListPoolE, align 8
  br label %170

; <label>:170:                                    ; preds = %167, %164
  store %"struct.pov::Light_List_Struct"** null, %"struct.pov::Light_List_Struct"*** @_ZN3pov18MediaLightListPoolE, align 8
  %171 = load %"struct.pov::Lit_Interval_Struct"**, %"struct.pov::Lit_Interval_Struct"*** @_ZN3pov20MediaLitIntervalPoolE, align 8
  %172 = icmp ne %"struct.pov::Lit_Interval_Struct"** %171, null
  br i1 %172, label %173, label %176

; <label>:173:                                    ; preds = %170
  %174 = load %"struct.pov::Lit_Interval_Struct"**, %"struct.pov::Lit_Interval_Struct"*** @_ZN3pov20MediaLitIntervalPoolE, align 8
  %175 = bitcast %"struct.pov::Lit_Interval_Struct"** %174 to i8*
  call void @_ZN3pov8pov_freeEPvPKci(i8* %175, i8* getelementptr inbounds ([13 x i8], [13 x i8]* @.str, i32 0, i32 0), i32 6084)
  store %"struct.pov::Lit_Interval_Struct"** null, %"struct.pov::Lit_Interval_Struct"*** @_ZN3pov20MediaLitIntervalPoolE, align 8
  br label %176

; <label>:176:                                    ; preds = %173, %170
  store %"struct.pov::Lit_Interval_Struct"** null, %"struct.pov::Lit_Interval_Struct"*** @_ZN3pov20MediaLitIntervalPoolE, align 8
  %177 = load %"struct.pov::Media_Interval_Struct"**, %"struct.pov::Media_Interval_Struct"*** @_ZN3pov17MediaIntervalPoolE, align 8
  %178 = icmp ne %"struct.pov::Media_Interval_Struct"** %177, null
  br i1 %178, label %179, label %182

; <label>:179:                                    ; preds = %176
  %180 = load %"struct.pov::Media_Interval_Struct"**, %"struct.pov::Media_Interval_Struct"*** @_ZN3pov17MediaIntervalPoolE, align 8
  %181 = bitcast %"struct.pov::Media_Interval_Struct"** %180 to i8*
  call void @_ZN3pov8pov_freeEPvPKci(i8* %181, i8* getelementptr inbounds ([13 x i8], [13 x i8]* @.str, i32 0, i32 0), i32 6087)
  store %"struct.pov::Media_Interval_Struct"** null, %"struct.pov::Media_Interval_Struct"*** @_ZN3pov17MediaIntervalPoolE, align 8
  br label %182

; <label>:182:                                    ; preds = %179, %176
  store %"struct.pov::Media_Interval_Struct"** null, %"struct.pov::Media_Interval_Struct"*** @_ZN3pov17MediaIntervalPoolE, align 8
  %183 = load i64*, i64** @_ZN3pov21MediaIntervalPoolSizeE, align 8
  %184 = icmp ne i64* %183, null
  br i1 %184, label %185, label %188

; <label>:185:                                    ; preds = %182
  %186 = load i64*, i64** @_ZN3pov21MediaIntervalPoolSizeE, align 8
  %187 = bitcast i64* %186 to i8*
  call void @_ZN3pov8pov_freeEPvPKci(i8* %187, i8* getelementptr inbounds ([13 x i8], [13 x i8]* @.str, i32 0, i32 0), i32 6089)
  store i64* null, i64** @_ZN3pov21MediaIntervalPoolSizeE, align 8
  br label %188

; <label>:188:                                    ; preds = %185, %182
  store i64* null, i64** @_ZN3pov21MediaIntervalPoolSizeE, align 8
  %189 = load %"struct.pov::Light_Tested_Struct"**, %"struct.pov::Light_Tested_Struct"*** @_ZN3pov13LightListPoolE, align 8
  %190 = icmp ne %"struct.pov::Light_Tested_Struct"** %189, null
  br i1 %190, label %191, label %272

; <label>:191:                                    ; preds = %188
  store i32 0, i32* %1, align 4
  br label %192

; <label>:192:                                    ; preds = %264, %191
  %193 = load i32, i32* %1, align 4
  %194 = sext i32 %193 to i64
  %195 = load i64, i64* @_ZN3pov17MaxLightPoolDepthE, align 8
  %196 = icmp slt i64 %194, %195
  br i1 %196, label %197, label %271

; <label>:197:                                    ; preds = %192
  %198 = load %"struct.pov::Light_Tested_Struct"**, %"struct.pov::Light_Tested_Struct"*** @_ZN3pov13LightListPoolE, align 8
  %199 = load i32, i32* %1, align 4
  %200 = sext i32 %199 to i64
  %201 = getelementptr inbounds %"struct.pov::Light_Tested_Struct"*, %"struct.pov::Light_Tested_Struct"** %198, i64 %200
  %202 = load %"struct.pov::Light_Tested_Struct"*, %"struct.pov::Light_Tested_Struct"** %201, align 8
  %203 = icmp ne %"struct.pov::Light_Tested_Struct"* %202, null
  br i1 %203, label %204, label %215

; <label>:204:                                    ; preds = %197
  %205 = load %"struct.pov::Light_Tested_Struct"**, %"struct.pov::Light_Tested_Struct"*** @_ZN3pov13LightListPoolE, align 8
  %206 = load i32, i32* %1, align 4
  %207 = sext i32 %206 to i64
  %208 = getelementptr inbounds %"struct.pov::Light_Tested_Struct"*, %"struct.pov::Light_Tested_Struct"** %205, i64 %207
  %209 = load %"struct.pov::Light_Tested_Struct"*, %"struct.pov::Light_Tested_Struct"** %208, align 8
  %210 = bitcast %"struct.pov::Light_Tested_Struct"* %209 to i8*
  call void @_ZN3pov8pov_freeEPvPKci(i8* %210, i8* getelementptr inbounds ([13 x i8], [13 x i8]* @.str, i32 0, i32 0), i32 6097)
  %211 = load %"struct.pov::Light_Tested_Struct"**, %"struct.pov::Light_Tested_Struct"*** @_ZN3pov13LightListPoolE, align 8
  %212 = load i32, i32* %1, align 4
  %213 = sext i32 %212 to i64
  %214 = getelementptr inbounds %"struct.pov::Light_Tested_Struct"*, %"struct.pov::Light_Tested_Struct"** %211, i64 %213
  store %"struct.pov::Light_Tested_Struct"* null, %"struct.pov::Light_Tested_Struct"** %214, align 8
  br label %215

; <label>:215:                                    ; preds = %204, %197
  %216 = load %"struct.pov::Light_Tested_Struct"**, %"struct.pov::Light_Tested_Struct"*** @_ZN3pov13LightListPoolE, align 8
  %217 = load i32, i32* %1, align 4
  %218 = sext i32 %217 to i64
  %219 = getelementptr inbounds %"struct.pov::Light_Tested_Struct"*, %"struct.pov::Light_Tested_Struct"** %216, i64 %218
  store %"struct.pov::Light_Tested_Struct"* null, %"struct.pov::Light_Tested_Struct"** %219, align 8
  %220 = load double**, double*** @_ZN3pov14WeightListPoolE, align 8
  %221 = load i32, i32* %1, align 4
  %222 = sext i32 %221 to i64
  %223 = getelementptr inbounds double*, double** %220, i64 %222
  %224 = load double*, double** %223, align 8
  %225 = icmp ne double* %224, null
  br i1 %225, label %226, label %237

; <label>:226:                                    ; preds = %215
  %227 = load double**, double*** @_ZN3pov14WeightListPoolE, align 8
  %228 = load i32, i32* %1, align 4
  %229 = sext i32 %228 to i64
  %230 = getelementptr inbounds double*, double** %227, i64 %229
  %231 = load double*, double** %230, align 8
  %232 = bitcast double* %231 to i8*
  call void @_ZN3pov8pov_freeEPvPKci(i8* %232, i8* getelementptr inbounds ([13 x i8], [13 x i8]* @.str, i32 0, i32 0), i32 6100)
  %233 = load double**, double*** @_ZN3pov14WeightListPoolE, align 8
  %234 = load i32, i32* %1, align 4
  %235 = sext i32 %234 to i64
  %236 = getelementptr inbounds double*, double** %233, i64 %235
  store double* null, double** %236, align 8
  br label %237

; <label>:237:                                    ; preds = %226, %215
  %238 = load double**, double*** @_ZN3pov14WeightListPoolE, align 8
  %239 = load i32, i32* %1, align 4
  %240 = sext i32 %239 to i64
  %241 = getelementptr inbounds double*, double** %238, i64 %240
  store double* null, double** %241, align 8
  %242 = load %"struct.pov::Texture_Struct"***, %"struct.pov::Texture_Struct"**** @_ZN3pov15TextureListPoolE, align 8
  %243 = load i32, i32* %1, align 4
  %244 = sext i32 %243 to i64
  %245 = getelementptr inbounds %"struct.pov::Texture_Struct"**, %"struct.pov::Texture_Struct"*** %242, i64 %244
  %246 = load %"struct.pov::Texture_Struct"**, %"struct.pov::Texture_Struct"*** %245, align 8
  %247 = icmp ne %"struct.pov::Texture_Struct"** %246, null
  br i1 %247, label %248, label %259

; <label>:248:                                    ; preds = %237
  %249 = load %"struct.pov::Texture_Struct"***, %"struct.pov::Texture_Struct"**** @_ZN3pov15TextureListPoolE, align 8
  %250 = load i32, i32* %1, align 4
  %251 = sext i32 %250 to i64
  %252 = getelementptr inbounds %"struct.pov::Texture_Struct"**, %"struct.pov::Texture_Struct"*** %249, i64 %251
  %253 = load %"struct.pov::Texture_Struct"**, %"struct.pov::Texture_Struct"*** %252, align 8
  %254 = bitcast %"struct.pov::Texture_Struct"** %253 to i8*
  call void @_ZN3pov8pov_freeEPvPKci(i8* %254, i8* getelementptr inbounds ([13 x i8], [13 x i8]* @.str, i32 0, i32 0), i32 6103)
  %255 = load %"struct.pov::Texture_Struct"***, %"struct.pov::Texture_Struct"**** @_ZN3pov15TextureListPoolE, align 8
  %256 = load i32, i32* %1, align 4
  %257 = sext i32 %256 to i64
  %258 = getelementptr inbounds %"struct.pov::Texture_Struct"**, %"struct.pov::Texture_Struct"*** %255, i64 %257
  store %"struct.pov::Texture_Struct"** null, %"struct.pov::Texture_Struct"*** %258, align 8
  br label %259

; <label>:259:                                    ; preds = %248, %237
  %260 = load %"struct.pov::Texture_Struct"***, %"struct.pov::Texture_Struct"**** @_ZN3pov15TextureListPoolE, align 8
  %261 = load i32, i32* %1, align 4
  %262 = sext i32 %261 to i64
  %263 = getelementptr inbounds %"struct.pov::Texture_Struct"**, %"struct.pov::Texture_Struct"*** %260, i64 %262
  store %"struct.pov::Texture_Struct"** null, %"struct.pov::Texture_Struct"*** %263, align 8
  br label %264

; <label>:264:                                    ; preds = %259
  %265 = load i32, i32* %1, align 4
  %266 = sub i32 0, %265
  %267 = sub i32 0, 1
  %268 = add i32 %266, %267
  %269 = sub i32 0, %268
  %270 = add nsw i32 %265, 1
  store i32 %269, i32* %1, align 4
  br label %192

; <label>:271:                                    ; preds = %192
  br label %272

; <label>:272:                                    ; preds = %271, %188
  %273 = load %"struct.pov::Light_Tested_Struct"**, %"struct.pov::Light_Tested_Struct"*** @_ZN3pov13LightListPoolE, align 8
  %274 = icmp ne %"struct.pov::Light_Tested_Struct"** %273, null
  br i1 %274, label %275, label %278

; <label>:275:                                    ; preds = %272
  %276 = load %"struct.pov::Light_Tested_Struct"**, %"struct.pov::Light_Tested_Struct"*** @_ZN3pov13LightListPoolE, align 8
  %277 = bitcast %"struct.pov::Light_Tested_Struct"** %276 to i8*
  call void @_ZN3pov8pov_freeEPvPKci(i8* %277, i8* getelementptr inbounds ([13 x i8], [13 x i8]* @.str, i32 0, i32 0), i32 6108)
  store %"struct.pov::Light_Tested_Struct"** null, %"struct.pov::Light_Tested_Struct"*** @_ZN3pov13LightListPoolE, align 8
  br label %278

; <label>:278:                                    ; preds = %275, %272
  store %"struct.pov::Light_Tested_Struct"** null, %"struct.pov::Light_Tested_Struct"*** @_ZN3pov13LightListPoolE, align 8
  %279 = load double**, double*** @_ZN3pov14WeightListPoolE, align 8
  %280 = icmp ne double** %279, null
  br i1 %280, label %281, label %284

; <label>:281:                                    ; preds = %278
  %282 = load double**, double*** @_ZN3pov14WeightListPoolE, align 8
  %283 = bitcast double** %282 to i8*
  call void @_ZN3pov8pov_freeEPvPKci(i8* %283, i8* getelementptr inbounds ([13 x i8], [13 x i8]* @.str, i32 0, i32 0), i32 6111)
  store double** null, double*** @_ZN3pov14WeightListPoolE, align 8
  br label %284

; <label>:284:                                    ; preds = %281, %278
  store double** null, double*** @_ZN3pov14WeightListPoolE, align 8
  %285 = load %"struct.pov::Texture_Struct"***, %"struct.pov::Texture_Struct"**** @_ZN3pov15TextureListPoolE, align 8
  %286 = icmp ne %"struct.pov::Texture_Struct"*** %285, null
  br i1 %286, label %287, label %290

; <label>:287:                                    ; preds = %284
  %288 = load %"struct.pov::Texture_Struct"***, %"struct.pov::Texture_Struct"**** @_ZN3pov15TextureListPoolE, align 8
  %289 = bitcast %"struct.pov::Texture_Struct"*** %288 to i8*
  call void @_ZN3pov8pov_freeEPvPKci(i8* %289, i8* getelementptr inbounds ([13 x i8], [13 x i8]* @.str, i32 0, i32 0), i32 6114)
  store %"struct.pov::Texture_Struct"*** null, %"struct.pov::Texture_Struct"**** @_ZN3pov15TextureListPoolE, align 8
  br label %290

; <label>:290:                                    ; preds = %287, %284
  store %"struct.pov::Texture_Struct"*** null, %"struct.pov::Texture_Struct"**** @_ZN3pov15TextureListPoolE, align 8
  ret void
}

; Function Attrs: noinline uwtable
define void @_ZN3pov18FreeComTexDataPoolEv() #0 {
  %1 = alloca %"struct.pov::ComTexData_Struct"*, align 8
  store %"struct.pov::ComTexData_Struct"* null, %"struct.pov::ComTexData_Struct"** %1, align 8
  br label %2

; <label>:2:                                      ; preds = %5, %0
  %3 = load %"struct.pov::ComTexData_Struct"*, %"struct.pov::ComTexData_Struct"** @_ZN3pov22ComputeTextureUsedPoolE, align 8
  %4 = icmp ne %"struct.pov::ComTexData_Struct"* %3, null
  br i1 %4, label %5, label %12

; <label>:5:                                      ; preds = %2
  %6 = load %"struct.pov::ComTexData_Struct"*, %"struct.pov::ComTexData_Struct"** @_ZN3pov22ComputeTextureUsedPoolE, align 8
  store %"struct.pov::ComTexData_Struct"* %6, %"struct.pov::ComTexData_Struct"** %1, align 8
  %7 = load %"struct.pov::ComTexData_Struct"*, %"struct.pov::ComTexData_Struct"** @_ZN3pov22ComputeTextureUsedPoolE, align 8
  %8 = getelementptr inbounds %"struct.pov::ComTexData_Struct", %"struct.pov::ComTexData_Struct"* %7, i32 0, i32 1
  %9 = load %"struct.pov::ComTexData_Struct"*, %"struct.pov::ComTexData_Struct"** %8, align 8
  store %"struct.pov::ComTexData_Struct"* %9, %"struct.pov::ComTexData_Struct"** @_ZN3pov22ComputeTextureUsedPoolE, align 8
  %10 = load %"struct.pov::ComTexData_Struct"*, %"struct.pov::ComTexData_Struct"** %1, align 8
  %11 = bitcast %"struct.pov::ComTexData_Struct"* %10 to i8*
  call void @_ZN3pov8pov_freeEPvPKci(i8* %11, i8* getelementptr inbounds ([13 x i8], [13 x i8]* @.str, i32 0, i32 0), i32 6215)
  store %"struct.pov::ComTexData_Struct"* null, %"struct.pov::ComTexData_Struct"** %1, align 8
  br label %2

; <label>:12:                                     ; preds = %2
  br label %13

; <label>:13:                                     ; preds = %16, %12
  %14 = load %"struct.pov::ComTexData_Struct"*, %"struct.pov::ComTexData_Struct"** @_ZN3pov22ComputeTextureFreePoolE, align 8
  %15 = icmp ne %"struct.pov::ComTexData_Struct"* %14, null
  br i1 %15, label %16, label %23

; <label>:16:                                     ; preds = %13
  %17 = load %"struct.pov::ComTexData_Struct"*, %"struct.pov::ComTexData_Struct"** @_ZN3pov22ComputeTextureFreePoolE, align 8
  store %"struct.pov::ComTexData_Struct"* %17, %"struct.pov::ComTexData_Struct"** %1, align 8
  %18 = load %"struct.pov::ComTexData_Struct"*, %"struct.pov::ComTexData_Struct"** @_ZN3pov22ComputeTextureFreePoolE, align 8
  %19 = getelementptr inbounds %"struct.pov::ComTexData_Struct", %"struct.pov::ComTexData_Struct"* %18, i32 0, i32 1
  %20 = load %"struct.pov::ComTexData_Struct"*, %"struct.pov::ComTexData_Struct"** %19, align 8
  store %"struct.pov::ComTexData_Struct"* %20, %"struct.pov::ComTexData_Struct"** @_ZN3pov22ComputeTextureFreePoolE, align 8
  %21 = load %"struct.pov::ComTexData_Struct"*, %"struct.pov::ComTexData_Struct"** %1, align 8
  %22 = bitcast %"struct.pov::ComTexData_Struct"* %21 to i8*
  call void @_ZN3pov8pov_freeEPvPKci(i8* %22, i8* getelementptr inbounds ([13 x i8], [13 x i8]* @.str, i32 0, i32 0), i32 6222)
  store %"struct.pov::ComTexData_Struct"* null, %"struct.pov::ComTexData_Struct"** %1, align 8
  br label %13

; <label>:23:                                     ; preds = %13
  ret void
}

declare void @_ZN3pov8pov_freeEPvPKci(i8*, i8*, i32) #2

; Function Attrs: noinline uwtable
define void @_ZN3pov25Determine_Apparent_ColourEPNS_10istk_entryEPfPNS_10Ray_StructEd(%"struct.pov::istk_entry"*, float*, %"struct.pov::Ray_Struct"*, double) #0 {
  %5 = alloca %"struct.pov::istk_entry"*, align 8
  %6 = alloca float*, align 8
  %7 = alloca %"struct.pov::Ray_Struct"*, align 8
  %8 = alloca double, align 8
  %9 = alloca i32, align 4
  %10 = alloca i32, align 4
  %11 = alloca double*, align 8
  %12 = alloca double, align 8
  %13 = alloca [5 x float], align 16
  %14 = alloca [3 x double], align 16
  %15 = alloca [3 x double], align 16
  %16 = alloca [2 x double], align 16
  %17 = alloca %"struct.pov::Texture_Struct"**, align 8
  %18 = alloca %"struct.pov::Texture_Struct"*, align 8
  %19 = alloca %"struct.pov::Light_Tested_Struct"*, align 8
  store %"struct.pov::istk_entry"* %0, %"struct.pov::istk_entry"** %5, align 8
  store float* %1, float** %6, align 8
  store %"struct.pov::Ray_Struct"* %2, %"struct.pov::Ray_Struct"** %7, align 8
  store double %3, double* %8, align 8
  store double* null, double** %11, align 8
  store %"struct.pov::Texture_Struct"** null, %"struct.pov::Texture_Struct"*** %17, align 8
  store %"struct.pov::Light_Tested_Struct"* null, %"struct.pov::Light_Tested_Struct"** %19, align 8
  %20 = load %"struct.pov::istk_entry"*, %"struct.pov::istk_entry"** %5, align 8
  %21 = getelementptr inbounds %"struct.pov::istk_entry", %"struct.pov::istk_entry"* %20, i32 0, i32 0
  %22 = load double, double* %21, align 8
  %23 = load double, double* @_ZN3pov11Total_DepthE, align 8
  %24 = fadd double %23, %22
  store double %24, double* @_ZN3pov11Total_DepthE, align 8
  %25 = getelementptr inbounds [3 x double], [3 x double]* %15, i32 0, i32 0
  %26 = load %"struct.pov::istk_entry"*, %"struct.pov::istk_entry"** %5, align 8
  %27 = getelementptr inbounds %"struct.pov::istk_entry", %"struct.pov::istk_entry"* %26, i32 0, i32 1
  %28 = getelementptr inbounds [3 x double], [3 x double]* %27, i32 0, i32 0
  call void @_ZN3pov13Assign_VectorEPdS0_(double* %25, double* %28)
  %29 = load i64, i64* @_ZN3pov17LightingPoolIndexE, align 8
  %30 = sub i64 0, 1
  %31 = sub i64 %29, %30
  %32 = add nsw i64 %29, 1
  store i64 %31, i64* @_ZN3pov17LightingPoolIndexE, align 8
  %33 = load i64, i64* @_ZN3pov17LightingPoolIndexE, align 8
  %34 = load i64, i64* @_ZN3pov17MaxLightPoolDepthE, align 8
  %35 = icmp sge i64 %33, %34
  br i1 %35, label %36, label %39

; <label>:36:                                     ; preds = %4
  %37 = load i64, i64* @_ZN3pov17MaxLightPoolDepthE, align 8
  %38 = mul nsw i64 %37, 2
  call void @_ZN3pov22ResizeLightMallocPoolsEl(i64 %38)
  br label %39

; <label>:39:                                     ; preds = %36, %4
  %40 = load %"struct.pov::Light_Tested_Struct"**, %"struct.pov::Light_Tested_Struct"*** @_ZN3pov13LightListPoolE, align 8
  %41 = load i64, i64* @_ZN3pov17LightingPoolIndexE, align 8
  %42 = getelementptr inbounds %"struct.pov::Light_Tested_Struct"*, %"struct.pov::Light_Tested_Struct"** %40, i64 %41
  %43 = load %"struct.pov::Light_Tested_Struct"*, %"struct.pov::Light_Tested_Struct"** %42, align 8
  store %"struct.pov::Light_Tested_Struct"* %43, %"struct.pov::Light_Tested_Struct"** @_ZN3pov10Light_ListE, align 8
  store i32 0, i32* %9, align 4
  br label %44

; <label>:44:                                     ; preds = %54, %39
  %45 = load i32, i32* %9, align 4
  %46 = load i32, i32* getelementptr inbounds (%"struct.pov::Frame_Struct", %"struct.pov::Frame_Struct"* @_ZN3pov5FrameE, i32 0, i32 3), align 8
  %47 = icmp slt i32 %45, %46
  br i1 %47, label %48, label %60

; <label>:48:                                     ; preds = %44
  %49 = load %"struct.pov::Light_Tested_Struct"*, %"struct.pov::Light_Tested_Struct"** @_ZN3pov10Light_ListE, align 8
  %50 = load i32, i32* %9, align 4
  %51 = sext i32 %50 to i64
  %52 = getelementptr inbounds %"struct.pov::Light_Tested_Struct", %"struct.pov::Light_Tested_Struct"* %49, i64 %51
  %53 = getelementptr inbounds %"struct.pov::Light_Tested_Struct", %"struct.pov::Light_Tested_Struct"* %52, i32 0, i32 0
  store i32 0, i32* %53, align 4
  br label %54

; <label>:54:                                     ; preds = %48
  %55 = load i32, i32* %9, align 4
  %56 = sub i32 %55, 1667705091
  %57 = add i32 %56, 1
  %58 = add i32 %57, 1667705091
  %59 = add nsw i32 %55, 1
  store i32 %58, i32* %9, align 4
  br label %44

; <label>:60:                                     ; preds = %44
  %61 = load %"struct.pov::istk_entry"*, %"struct.pov::istk_entry"** %5, align 8
  %62 = getelementptr inbounds %"struct.pov::istk_entry", %"struct.pov::istk_entry"* %61, i32 0, i32 5
  %63 = load %"struct.pov::Object_Struct"*, %"struct.pov::Object_Struct"** %62, align 8
  %64 = getelementptr inbounds %"struct.pov::Object_Struct", %"struct.pov::Object_Struct"* %63, i32 0, i32 0
  %65 = load %"struct.pov::Method_Struct"*, %"struct.pov::Method_Struct"** %64, align 8
  %66 = getelementptr inbounds %"struct.pov::Method_Struct", %"struct.pov::Method_Struct"* %65, i32 0, i32 2
  %67 = load void (double*, %"struct.pov::Object_Struct"*, %"struct.pov::istk_entry"*)*, void (double*, %"struct.pov::Object_Struct"*, %"struct.pov::istk_entry"*)** %66, align 8
  %68 = getelementptr inbounds [3 x double], [3 x double]* %14, i32 0, i32 0
  %69 = load %"struct.pov::istk_entry"*, %"struct.pov::istk_entry"** %5, align 8
  %70 = getelementptr inbounds %"struct.pov::istk_entry", %"struct.pov::istk_entry"* %69, i32 0, i32 5
  %71 = load %"struct.pov::Object_Struct"*, %"struct.pov::Object_Struct"** %70, align 8
  %72 = load %"struct.pov::istk_entry"*, %"struct.pov::istk_entry"** %5, align 8
  call void %67(double* %68, %"struct.pov::Object_Struct"* %71, %"struct.pov::istk_entry"* %72)
  %73 = load %"struct.pov::istk_entry"*, %"struct.pov::istk_entry"** %5, align 8
  %74 = getelementptr inbounds %"struct.pov::istk_entry", %"struct.pov::istk_entry"* %73, i32 0, i32 5
  %75 = load %"struct.pov::Object_Struct"*, %"struct.pov::Object_Struct"** %74, align 8
  %76 = getelementptr inbounds %"struct.pov::Object_Struct", %"struct.pov::Object_Struct"* %75, i32 0, i32 13
  %77 = load i32, i32* %76, align 4
  %78 = zext i32 %77 to i64
  %79 = xor i64 4, -1
  %80 = xor i64 %78, %79
  %81 = and i64 %80, %78
  %82 = and i64 %78, 4
  %83 = icmp ne i64 %81, 0
  br i1 %83, label %84, label %97

; <label>:84:                                     ; preds = %60
  %85 = getelementptr inbounds [3 x double], [3 x double]* %14, i64 0, i64 0
  %86 = load double, double* %85, align 16
  %87 = fsub double -0.000000e+00, %86
  %88 = getelementptr inbounds [3 x double], [3 x double]* %14, i64 0, i64 0
  store double %87, double* %88, align 16
  %89 = getelementptr inbounds [3 x double], [3 x double]* %14, i64 0, i64 1
  %90 = load double, double* %89, align 8
  %91 = fsub double -0.000000e+00, %90
  %92 = getelementptr inbounds [3 x double], [3 x double]* %14, i64 0, i64 1
  store double %91, double* %92, align 8
  %93 = getelementptr inbounds [3 x double], [3 x double]* %14, i64 0, i64 2
  %94 = load double, double* %93, align 16
  %95 = fsub double -0.000000e+00, %94
  %96 = getelementptr inbounds [3 x double], [3 x double]* %14, i64 0, i64 2
  store double %95, double* %96, align 16
  br label %97

; <label>:97:                                     ; preds = %84, %60
  %98 = getelementptr inbounds [3 x double], [3 x double]* %14, i32 0, i32 0
  %99 = load %"struct.pov::Ray_Struct"*, %"struct.pov::Ray_Struct"** %7, align 8
  %100 = getelementptr inbounds %"struct.pov::Ray_Struct", %"struct.pov::Ray_Struct"* %99, i32 0, i32 1
  %101 = getelementptr inbounds [3 x double], [3 x double]* %100, i32 0, i32 0
  call void @_ZN3pov4VDotERdPKdS2_(double* dereferenceable(8) %12, double* %98, double* %101)
  %102 = load double, double* %12, align 8
  %103 = fcmp ogt double %102, 0.000000e+00
  br i1 %103, label %104, label %106

; <label>:104:                                    ; preds = %97
  %105 = getelementptr inbounds [3 x double], [3 x double]* %14, i32 0, i32 0
  call void @_ZN3pov8VScaleEqEPdd(double* %105, double -1.000000e+00)
  br label %106

; <label>:106:                                    ; preds = %104, %97
  %107 = load %"struct.pov::istk_entry"*, %"struct.pov::istk_entry"** %5, align 8
  %108 = getelementptr inbounds %"struct.pov::istk_entry", %"struct.pov::istk_entry"* %107, i32 0, i32 2
  %109 = getelementptr inbounds [3 x double], [3 x double]* %108, i32 0, i32 0
  %110 = getelementptr inbounds [3 x double], [3 x double]* %14, i32 0, i32 0
  call void @_ZN3pov13Assign_VectorEPdS0_(double* %109, double* %110)
  %111 = load %"struct.pov::istk_entry"*, %"struct.pov::istk_entry"** %5, align 8
  %112 = getelementptr inbounds %"struct.pov::istk_entry", %"struct.pov::istk_entry"* %111, i32 0, i32 3
  %113 = getelementptr inbounds [3 x double], [3 x double]* %112, i32 0, i32 0
  %114 = getelementptr inbounds [3 x double], [3 x double]* %14, i32 0, i32 0
  call void @_ZN3pov13Assign_VectorEPdS0_(double* %113, double* %114)
  %115 = load %"struct.pov::istk_entry"*, %"struct.pov::istk_entry"** %5, align 8
  %116 = getelementptr inbounds %"struct.pov::istk_entry", %"struct.pov::istk_entry"* %115, i32 0, i32 5
  %117 = load %"struct.pov::Object_Struct"*, %"struct.pov::Object_Struct"** %116, align 8
  %118 = getelementptr inbounds %"struct.pov::Object_Struct", %"struct.pov::Object_Struct"* %117, i32 0, i32 13
  %119 = load i32, i32* %118, align 4
  %120 = zext i32 %119 to i64
  %121 = xor i64 %120, -1
  %122 = xor i64 8192, -1
  %123 = xor i64 2074360878911765795, -1
  %124 = or i64 %121, %122
  %125 = or i64 2074360878911765795, %123
  %126 = xor i64 %124, -1
  %127 = and i64 %126, %125
  %128 = and i64 %120, 8192
  %129 = icmp ne i64 %127, 0
  br i1 %129, label %130, label %147

; <label>:130:                                    ; preds = %106
  %131 = load %"struct.pov::istk_entry"*, %"struct.pov::istk_entry"** %5, align 8
  %132 = getelementptr inbounds %"struct.pov::istk_entry", %"struct.pov::istk_entry"* %131, i32 0, i32 5
  %133 = load %"struct.pov::Object_Struct"*, %"struct.pov::Object_Struct"** %132, align 8
  %134 = getelementptr inbounds %"struct.pov::Object_Struct", %"struct.pov::Object_Struct"* %133, i32 0, i32 0
  %135 = load %"struct.pov::Method_Struct"*, %"struct.pov::Method_Struct"** %134, align 8
  %136 = getelementptr inbounds %"struct.pov::Method_Struct", %"struct.pov::Method_Struct"* %135, i32 0, i32 3
  %137 = load void (double*, %"struct.pov::Object_Struct"*, %"struct.pov::istk_entry"*)*, void (double*, %"struct.pov::Object_Struct"*, %"struct.pov::istk_entry"*)** %136, align 8
  %138 = getelementptr inbounds [2 x double], [2 x double]* %16, i32 0, i32 0
  %139 = load %"struct.pov::istk_entry"*, %"struct.pov::istk_entry"** %5, align 8
  %140 = getelementptr inbounds %"struct.pov::istk_entry", %"struct.pov::istk_entry"* %139, i32 0, i32 5
  %141 = load %"struct.pov::Object_Struct"*, %"struct.pov::Object_Struct"** %140, align 8
  %142 = load %"struct.pov::istk_entry"*, %"struct.pov::istk_entry"** %5, align 8
  call void %137(double* %138, %"struct.pov::Object_Struct"* %141, %"struct.pov::istk_entry"* %142)
  %143 = load %"struct.pov::istk_entry"*, %"struct.pov::istk_entry"** %5, align 8
  %144 = getelementptr inbounds %"struct.pov::istk_entry", %"struct.pov::istk_entry"* %143, i32 0, i32 4
  %145 = getelementptr inbounds [2 x double], [2 x double]* %144, i32 0, i32 0
  %146 = getelementptr inbounds [2 x double], [2 x double]* %16, i32 0, i32 0
  call void @_ZN3pov14Assign_UV_VectEPdS0_(double* %145, double* %146)
  br label %147

; <label>:147:                                    ; preds = %130, %106
  %148 = load %"struct.pov::istk_entry"*, %"struct.pov::istk_entry"** %5, align 8
  %149 = getelementptr inbounds %"struct.pov::istk_entry", %"struct.pov::istk_entry"* %148, i32 0, i32 5
  %150 = load %"struct.pov::Object_Struct"*, %"struct.pov::Object_Struct"** %149, align 8
  %151 = getelementptr inbounds %"struct.pov::Object_Struct", %"struct.pov::Object_Struct"* %150, i32 0, i32 13
  %152 = load i32, i32* %151, align 4
  %153 = zext i32 %152 to i64
  %154 = xor i64 %153, -1
  %155 = xor i64 8192, -1
  %156 = xor i64 -7675648500431133471, -1
  %157 = or i64 %154, %155
  %158 = or i64 -7675648500431133471, %156
  %159 = xor i64 %157, -1
  %160 = and i64 %159, %158
  %161 = and i64 %153, 8192
  %162 = icmp ne i64 %160, 0
  br i1 %162, label %163, label %171

; <label>:163:                                    ; preds = %147
  %164 = getelementptr inbounds [2 x double], [2 x double]* %16, i64 0, i64 0
  %165 = load double, double* %164, align 16
  %166 = getelementptr inbounds [3 x double], [3 x double]* %15, i64 0, i64 0
  store double %165, double* %166, align 16
  %167 = getelementptr inbounds [2 x double], [2 x double]* %16, i64 0, i64 1
  %168 = load double, double* %167, align 8
  %169 = getelementptr inbounds [3 x double], [3 x double]* %15, i64 0, i64 1
  store double %168, double* %169, align 8
  %170 = getelementptr inbounds [3 x double], [3 x double]* %15, i64 0, i64 2
  store double 0.000000e+00, double* %170, align 16
  br label %171

; <label>:171:                                    ; preds = %163, %147
  %172 = load double**, double*** @_ZN3pov14WeightListPoolE, align 8
  %173 = load i64, i64* @_ZN3pov17LightingPoolIndexE, align 8
  %174 = getelementptr inbounds double*, double** %172, i64 %173
  %175 = load double*, double** %174, align 8
  store double* %175, double** @_ZN3pov11Weight_ListE, align 8
  %176 = load %"struct.pov::Texture_Struct"***, %"struct.pov::Texture_Struct"**** @_ZN3pov15TextureListPoolE, align 8
  %177 = load i64, i64* @_ZN3pov17LightingPoolIndexE, align 8
  %178 = getelementptr inbounds %"struct.pov::Texture_Struct"**, %"struct.pov::Texture_Struct"*** %176, i64 %177
  %179 = load %"struct.pov::Texture_Struct"**, %"struct.pov::Texture_Struct"*** %178, align 8
  store %"struct.pov::Texture_Struct"** %179, %"struct.pov::Texture_Struct"*** @_ZN3pov12Texture_ListE, align 8
  %180 = load %"struct.pov::istk_entry"*, %"struct.pov::istk_entry"** %5, align 8
  %181 = load double, double* %12, align 8
  %182 = call i32 @_ZN3povL19create_texture_listEPNS_10istk_entryEd(%"struct.pov::istk_entry"* %180, double %181)
  store i32 %182, i32* %10, align 4
  store i32 -1, i32* @_ZN3pov22photonsAlreadyGatheredE, align 4
  store i32 0, i32* %9, align 4
  br label %183

; <label>:183:                                    ; preds = %317, %171
  %184 = load i32, i32* %9, align 4
  %185 = load i32, i32* %10, align 4
  %186 = icmp slt i32 %184, %185
  br i1 %186, label %187, label %324

; <label>:187:                                    ; preds = %183
  %188 = load double*, double** @_ZN3pov11Weight_ListE, align 8
  %189 = load i32, i32* %9, align 4
  %190 = sext i32 %189 to i64
  %191 = getelementptr inbounds double, double* %188, i64 %190
  %192 = load double, double* %191, align 8
  %193 = load double, double* @_ZN3pov11ADC_BailoutE, align 8
  %194 = fcmp olt double %192, %193
  br i1 %194, label %195, label %196

; <label>:195:                                    ; preds = %187
  br label %317

; <label>:196:                                    ; preds = %187
  %197 = load %"struct.pov::Texture_Struct"**, %"struct.pov::Texture_Struct"*** @_ZN3pov12Texture_ListE, align 8
  %198 = load i32, i32* %9, align 4
  %199 = sext i32 %198 to i64
  %200 = getelementptr inbounds %"struct.pov::Texture_Struct"*, %"struct.pov::Texture_Struct"** %197, i64 %199
  %201 = load %"struct.pov::Texture_Struct"*, %"struct.pov::Texture_Struct"** %200, align 8
  store %"struct.pov::Texture_Struct"* %201, %"struct.pov::Texture_Struct"** %18, align 8
  %202 = load i32, i32* @_ZN3pov13backtraceFlagE, align 4
  %203 = icmp ne i32 %202, 0
  br i1 %203, label %204, label %248

; <label>:204:                                    ; preds = %196
  %205 = load float*, float** %6, align 8
  %206 = getelementptr inbounds float, float* %205, i64 0
  %207 = load float, float* %206, align 4
  %208 = fpext float %207 to double
  %209 = load double*, double** @_ZN3pov11Weight_ListE, align 8
  %210 = load i32, i32* %9, align 4
  %211 = sext i32 %210 to i64
  %212 = getelementptr inbounds double, double* %209, i64 %211
  %213 = load double, double* %212, align 8
  %214 = fmul double %208, %213
  %215 = fptrunc double %214 to float
  %216 = getelementptr inbounds [5 x float], [5 x float]* %13, i64 0, i64 0
  store float %215, float* %216, align 16
  %217 = load float*, float** %6, align 8
  %218 = getelementptr inbounds float, float* %217, i64 1
  %219 = load float, float* %218, align 4
  %220 = fpext float %219 to double
  %221 = load double*, double** @_ZN3pov11Weight_ListE, align 8
  %222 = load i32, i32* %9, align 4
  %223 = sext i32 %222 to i64
  %224 = getelementptr inbounds double, double* %221, i64 %223
  %225 = load double, double* %224, align 8
  %226 = fmul double %220, %225
  %227 = fptrunc double %226 to float
  %228 = getelementptr inbounds [5 x float], [5 x float]* %13, i64 0, i64 1
  store float %227, float* %228, align 4
  %229 = load float*, float** %6, align 8
  %230 = getelementptr inbounds float, float* %229, i64 2
  %231 = load float, float* %230, align 4
  %232 = fpext float %231 to double
  %233 = load double*, double** @_ZN3pov11Weight_ListE, align 8
  %234 = load i32, i32* %9, align 4
  %235 = sext i32 %234 to i64
  %236 = getelementptr inbounds double, double* %233, i64 %235
  %237 = load double, double* %236, align 8
  %238 = fmul double %232, %237
  %239 = fptrunc double %238 to float
  %240 = getelementptr inbounds [5 x float], [5 x float]* %13, i64 0, i64 2
  store float %239, float* %240, align 8
  %241 = getelementptr inbounds [5 x float], [5 x float]* %13, i32 0, i32 0
  %242 = load %"struct.pov::Texture_Struct"*, %"struct.pov::Texture_Struct"** %18, align 8
  %243 = getelementptr inbounds [3 x double], [3 x double]* %15, i32 0, i32 0
  %244 = getelementptr inbounds [3 x double], [3 x double]* %14, i32 0, i32 0
  %245 = load %"struct.pov::Ray_Struct"*, %"struct.pov::Ray_Struct"** %7, align 8
  %246 = load double, double* %8, align 8
  %247 = load %"struct.pov::istk_entry"*, %"struct.pov::istk_entry"** %5, align 8
  call void @_ZN3povL14do_texture_mapEPfPNS_14Texture_StructEPdS3_PNS_10Ray_StructEdPNS_10istk_entryEi(float* %241, %"struct.pov::Texture_Struct"* %242, double* %243, double* %244, %"struct.pov::Ray_Struct"* %245, double %246, %"struct.pov::istk_entry"* %247, i32 0)
  br label %316

; <label>:248:                                    ; preds = %196
  %249 = getelementptr inbounds [5 x float], [5 x float]* %13, i32 0, i32 0
  %250 = load %"struct.pov::Texture_Struct"*, %"struct.pov::Texture_Struct"** %18, align 8
  %251 = getelementptr inbounds [3 x double], [3 x double]* %15, i32 0, i32 0
  %252 = getelementptr inbounds [3 x double], [3 x double]* %14, i32 0, i32 0
  %253 = load %"struct.pov::Ray_Struct"*, %"struct.pov::Ray_Struct"** %7, align 8
  %254 = load double, double* %8, align 8
  %255 = load %"struct.pov::istk_entry"*, %"struct.pov::istk_entry"** %5, align 8
  call void @_ZN3povL14do_texture_mapEPfPNS_14Texture_StructEPdS3_PNS_10Ray_StructEdPNS_10istk_entryEi(float* %249, %"struct.pov::Texture_Struct"* %250, double* %251, double* %252, %"struct.pov::Ray_Struct"* %253, double %254, %"struct.pov::istk_entry"* %255, i32 0)
  %256 = load double*, double** @_ZN3pov11Weight_ListE, align 8
  %257 = load i32, i32* %9, align 4
  %258 = sext i32 %257 to i64
  %259 = getelementptr inbounds double, double* %256, i64 %258
  %260 = load double, double* %259, align 8
  %261 = getelementptr inbounds [5 x float], [5 x float]* %13, i64 0, i64 0
  %262 = load float, float* %261, align 16
  %263 = fpext float %262 to double
  %264 = fmul double %260, %263
  %265 = load float*, float** %6, align 8
  %266 = getelementptr inbounds float, float* %265, i64 0
  %267 = load float, float* %266, align 4
  %268 = fpext float %267 to double
  %269 = fadd double %268, %264
  %270 = fptrunc double %269 to float
  store float %270, float* %266, align 4
  %271 = load double*, double** @_ZN3pov11Weight_ListE, align 8
  %272 = load i32, i32* %9, align 4
  %273 = sext i32 %272 to i64
  %274 = getelementptr inbounds double, double* %271, i64 %273
  %275 = load double, double* %274, align 8
  %276 = getelementptr inbounds [5 x float], [5 x float]* %13, i64 0, i64 1
  %277 = load float, float* %276, align 4
  %278 = fpext float %277 to double
  %279 = fmul double %275, %278
  %280 = load float*, float** %6, align 8
  %281 = getelementptr inbounds float, float* %280, i64 1
  %282 = load float, float* %281, align 4
  %283 = fpext float %282 to double
  %284 = fadd double %283, %279
  %285 = fptrunc double %284 to float
  store float %285, float* %281, align 4
  %286 = load double*, double** @_ZN3pov11Weight_ListE, align 8
  %287 = load i32, i32* %9, align 4
  %288 = sext i32 %287 to i64
  %289 = getelementptr inbounds double, double* %286, i64 %288
  %290 = load double, double* %289, align 8
  %291 = getelementptr inbounds [5 x float], [5 x float]* %13, i64 0, i64 2
  %292 = load float, float* %291, align 8
  %293 = fpext float %292 to double
  %294 = fmul double %290, %293
  %295 = load float*, float** %6, align 8
  %296 = getelementptr inbounds float, float* %295, i64 2
  %297 = load float, float* %296, align 4
  %298 = fpext float %297 to double
  %299 = fadd double %298, %294
  %300 = fptrunc double %299 to float
  store float %300, float* %296, align 4
  %301 = load double*, double** @_ZN3pov11Weight_ListE, align 8
  %302 = load i32, i32* %9, align 4
  %303 = sext i32 %302 to i64
  %304 = getelementptr inbounds double, double* %301, i64 %303
  %305 = load double, double* %304, align 8
  %306 = getelementptr inbounds [5 x float], [5 x float]* %13, i64 0, i64 4
  %307 = load float, float* %306, align 16
  %308 = fpext float %307 to double
  %309 = fmul double %305, %308
  %310 = load float*, float** %6, align 8
  %311 = getelementptr inbounds float, float* %310, i64 4
  %312 = load float, float* %311, align 4
  %313 = fpext float %312 to double
  %314 = fadd double %313, %309
  %315 = fptrunc double %314 to float
  store float %315, float* %311, align 4
  br label %316

; <label>:316:                                    ; preds = %248, %204
  br label %317

; <label>:317:                                    ; preds = %316, %195
  %318 = load i32, i32* %9, align 4
  %319 = sub i32 0, %318
  %320 = sub i32 0, 1
  %321 = add i32 %319, %320
  %322 = sub i32 0, %321
  %323 = add nsw i32 %318, 1
  store i32 %322, i32* %9, align 4
  br label %183

; <label>:324:                                    ; preds = %183
  %325 = load i64, i64* @_ZN3pov17LightingPoolIndexE, align 8
  %326 = sub i64 %325, -3889030812274714918
  %327 = add i64 %326, -1
  %328 = add i64 %327, -3889030812274714918
  %329 = add nsw i64 %325, -1
  store i64 %328, i64* @_ZN3pov17LightingPoolIndexE, align 8
  %330 = load %"struct.pov::Light_Tested_Struct"**, %"struct.pov::Light_Tested_Struct"*** @_ZN3pov13LightListPoolE, align 8
  %331 = load i64, i64* @_ZN3pov17LightingPoolIndexE, align 8
  %332 = getelementptr inbounds %"struct.pov::Light_Tested_Struct"*, %"struct.pov::Light_Tested_Struct"** %330, i64 %331
  %333 = load %"struct.pov::Light_Tested_Struct"*, %"struct.pov::Light_Tested_Struct"** %332, align 8
  store %"struct.pov::Light_Tested_Struct"* %333, %"struct.pov::Light_Tested_Struct"** @_ZN3pov10Light_ListE, align 8
  %334 = load double**, double*** @_ZN3pov14WeightListPoolE, align 8
  %335 = load i64, i64* @_ZN3pov17LightingPoolIndexE, align 8
  %336 = getelementptr inbounds double*, double** %334, i64 %335
  %337 = load double*, double** %336, align 8
  store double* %337, double** @_ZN3pov11Weight_ListE, align 8
  %338 = load %"struct.pov::Texture_Struct"***, %"struct.pov::Texture_Struct"**** @_ZN3pov15TextureListPoolE, align 8
  %339 = load i64, i64* @_ZN3pov17LightingPoolIndexE, align 8
  %340 = getelementptr inbounds %"struct.pov::Texture_Struct"**, %"struct.pov::Texture_Struct"*** %338, i64 %339
  %341 = load %"struct.pov::Texture_Struct"**, %"struct.pov::Texture_Struct"*** %340, align 8
  store %"struct.pov::Texture_Struct"** %341, %"struct.pov::Texture_Struct"*** @_ZN3pov12Texture_ListE, align 8
  %342 = load %"struct.pov::istk_entry"*, %"struct.pov::istk_entry"** %5, align 8
  %343 = getelementptr inbounds %"struct.pov::istk_entry", %"struct.pov::istk_entry"* %342, i32 0, i32 0
  %344 = load double, double* %343, align 8
  %345 = load double, double* @_ZN3pov11Total_DepthE, align 8
  %346 = fsub double %345, %344
  store double %346, double* @_ZN3pov11Total_DepthE, align 8
  ret void
}

; Function Attrs: noinline nounwind uwtable
define linkonce_odr void @_ZN3pov13Assign_VectorEPdS0_(double*, double*) #1 comdat {
  %3 = alloca double*, align 8
  %4 = alloca double*, align 8
  store double* %0, double** %3, align 8
  store double* %1, double** %4, align 8
  %5 = load double*, double** %4, align 8
  %6 = getelementptr inbounds double, double* %5, i64 0
  %7 = load double, double* %6, align 8
  %8 = load double*, double** %3, align 8
  %9 = getelementptr inbounds double, double* %8, i64 0
  store double %7, double* %9, align 8
  %10 = load double*, double** %4, align 8
  %11 = getelementptr inbounds double, double* %10, i64 1
  %12 = load double, double* %11, align 8
  %13 = load double*, double** %3, align 8
  %14 = getelementptr inbounds double, double* %13, i64 1
  store double %12, double* %14, align 8
  %15 = load double*, double** %4, align 8
  %16 = getelementptr inbounds double, double* %15, i64 2
  %17 = load double, double* %16, align 8
  %18 = load double*, double** %3, align 8
  %19 = getelementptr inbounds double, double* %18, i64 2
  store double %17, double* %19, align 8
  ret void
}

; Function Attrs: noinline uwtable
define void @_ZN3pov22ResizeLightMallocPoolsEl(i64) #0 {
  %2 = alloca i64, align 8
  %3 = alloca i32, align 4
  %4 = alloca i64, align 8
  %5 = alloca i64, align 8
  %6 = alloca i32, align 4
  %7 = alloca i32, align 4
  %8 = alloca i32, align 4
  store i64 %0, i64* %2, align 8
  %9 = load i32, i32* @_ZN3pov30Number_Of_Textures_And_WeightsE, align 4
  %10 = sext i32 %9 to i64
  %11 = mul i64 %10, 8
  store i64 %11, i64* %4, align 8
  %12 = load i32, i32* @_ZN3pov30Number_Of_Textures_And_WeightsE, align 4
  %13 = sext i32 %12 to i64
  %14 = mul i64 %13, 8
  store i64 %14, i64* %5, align 8
  %15 = load i32, i32* getelementptr inbounds (%"struct.pov::Frame_Struct", %"struct.pov::Frame_Struct"* @_ZN3pov5FrameE, i32 0, i32 3), align 8
  store i32 %15, i32* %6, align 4
  %16 = load i32, i32* %6, align 4
  %17 = icmp eq i32 %16, 0
  br i1 %17, label %18, label %19

; <label>:18:                                     ; preds = %1
  store i32 2, i32* %6, align 4
  br label %19

; <label>:19:                                     ; preds = %18, %1
  %20 = load double**, double*** @_ZN3pov14WeightListPoolE, align 8
  %21 = bitcast double** %20 to i8*
  %22 = load i64, i64* %2, align 8
  %23 = mul i64 %22, 8
  %24 = call i8* @_ZN3pov11pov_reallocEPvmPKciS2_(i8* %21, i64 %23, i8* getelementptr inbounds ([13 x i8], [13 x i8]* @.str, i32 0, i32 0), i32 6182, i8* getelementptr inbounds ([18 x i8], [18 x i8]* @.str.7, i32 0, i32 0))
  %25 = bitcast i8* %24 to double**
  store double** %25, double*** @_ZN3pov14WeightListPoolE, align 8
  %26 = load %"struct.pov::Texture_Struct"***, %"struct.pov::Texture_Struct"**** @_ZN3pov15TextureListPoolE, align 8
  %27 = bitcast %"struct.pov::Texture_Struct"*** %26 to i8*
  %28 = load i64, i64* %2, align 8
  %29 = mul i64 %28, 8
  %30 = call i8* @_ZN3pov11pov_reallocEPvmPKciS2_(i8* %27, i64 %29, i8* getelementptr inbounds ([13 x i8], [13 x i8]* @.str, i32 0, i32 0), i32 6183, i8* getelementptr inbounds ([18 x i8], [18 x i8]* @.str.7, i32 0, i32 0))
  %31 = bitcast i8* %30 to %"struct.pov::Texture_Struct"***
  store %"struct.pov::Texture_Struct"*** %31, %"struct.pov::Texture_Struct"**** @_ZN3pov15TextureListPoolE, align 8
  %32 = load %"struct.pov::Light_Tested_Struct"**, %"struct.pov::Light_Tested_Struct"*** @_ZN3pov13LightListPoolE, align 8
  %33 = bitcast %"struct.pov::Light_Tested_Struct"** %32 to i8*
  %34 = load i64, i64* %2, align 8
  %35 = mul i64 %34, 8
  %36 = call i8* @_ZN3pov11pov_reallocEPvmPKciS2_(i8* %33, i64 %35, i8* getelementptr inbounds ([13 x i8], [13 x i8]* @.str, i32 0, i32 0), i32 6184, i8* getelementptr inbounds ([18 x i8], [18 x i8]* @.str.7, i32 0, i32 0))
  %37 = bitcast i8* %36 to %"struct.pov::Light_Tested_Struct"**
  store %"struct.pov::Light_Tested_Struct"** %37, %"struct.pov::Light_Tested_Struct"*** @_ZN3pov13LightListPoolE, align 8
  %38 = load i64, i64* @_ZN3pov17MaxLightPoolDepthE, align 8
  %39 = trunc i64 %38 to i32
  store i32 %39, i32* %3, align 4
  br label %40

; <label>:40:                                     ; preds = %98, %19
  %41 = load i32, i32* %3, align 4
  %42 = sext i32 %41 to i64
  %43 = load i64, i64* %2, align 8
  %44 = icmp slt i64 %42, %43
  br i1 %44, label %45, label %104

; <label>:45:                                     ; preds = %40
  %46 = load i64, i64* %4, align 8
  %47 = call i8* @_ZN3pov10pov_mallocEmPKciS1_(i64 %46, i8* getelementptr inbounds ([13 x i8], [13 x i8]* @.str, i32 0, i32 0), i32 6188, i8* getelementptr inbounds ([18 x i8], [18 x i8]* @.str.7, i32 0, i32 0))
  %48 = bitcast i8* %47 to double*
  %49 = load double**, double*** @_ZN3pov14WeightListPoolE, align 8
  %50 = load i32, i32* %3, align 4
  %51 = sext i32 %50 to i64
  %52 = getelementptr inbounds double*, double** %49, i64 %51
  store double* %48, double** %52, align 8
  %53 = load i64, i64* %5, align 8
  %54 = call i8* @_ZN3pov10pov_mallocEmPKciS1_(i64 %53, i8* getelementptr inbounds ([13 x i8], [13 x i8]* @.str, i32 0, i32 0), i32 6189, i8* getelementptr inbounds ([18 x i8], [18 x i8]* @.str.7, i32 0, i32 0))
  %55 = bitcast i8* %54 to %"struct.pov::Texture_Struct"**
  %56 = load %"struct.pov::Texture_Struct"***, %"struct.pov::Texture_Struct"**** @_ZN3pov15TextureListPoolE, align 8
  %57 = load i32, i32* %3, align 4
  %58 = sext i32 %57 to i64
  %59 = getelementptr inbounds %"struct.pov::Texture_Struct"**, %"struct.pov::Texture_Struct"*** %56, i64 %58
  store %"struct.pov::Texture_Struct"** %55, %"struct.pov::Texture_Struct"*** %59, align 8
  store i32 1, i32* %7, align 4
  %60 = call dereferenceable(4) i32* @_ZSt3maxIiERKT_S2_S2_(i32* dereferenceable(4) %7, i32* dereferenceable(4) getelementptr inbounds (%"struct.pov::Frame_Struct", %"struct.pov::Frame_Struct"* @_ZN3pov5FrameE, i32 0, i32 3))
  %61 = load i32, i32* %60, align 4
  %62 = sext i32 %61 to i64
  %63 = mul i64 %62, 24
  %64 = call i8* @_ZN3pov10pov_mallocEmPKciS1_(i64 %63, i8* getelementptr inbounds ([13 x i8], [13 x i8]* @.str, i32 0, i32 0), i32 6190, i8* getelementptr inbounds ([18 x i8], [18 x i8]* @.str.7, i32 0, i32 0))
  %65 = bitcast i8* %64 to %"struct.pov::Light_Tested_Struct"*
  %66 = load %"struct.pov::Light_Tested_Struct"**, %"struct.pov::Light_Tested_Struct"*** @_ZN3pov13LightListPoolE, align 8
  %67 = load i32, i32* %3, align 4
  %68 = sext i32 %67 to i64
  %69 = getelementptr inbounds %"struct.pov::Light_Tested_Struct"*, %"struct.pov::Light_Tested_Struct"** %66, i64 %68
  store %"struct.pov::Light_Tested_Struct"* %65, %"struct.pov::Light_Tested_Struct"** %69, align 8
  %70 = load i64, i64* %4, align 8
  %71 = load i64, i64* %5, align 8
  %72 = sub i64 %70, 7493805315585193401
  %73 = add i64 %72, %71
  %74 = add i64 %73, 7493805315585193401
  %75 = add nsw i64 %70, %71
  %76 = load i64, i64* %4, align 8
  %77 = sub i64 %74, -783803409481537412
  %78 = add i64 %77, %76
  %79 = add i64 %78, -783803409481537412
  %80 = add nsw i64 %74, %76
  %81 = load i64, i64* %5, align 8
  %82 = sub i64 %79, 3022986509670758187
  %83 = add i64 %82, %81
  %84 = add i64 %83, 3022986509670758187
  %85 = add nsw i64 %79, %81
  store i32 1, i32* %8, align 4
  %86 = call dereferenceable(4) i32* @_ZSt3maxIiERKT_S2_S2_(i32* dereferenceable(4) %8, i32* dereferenceable(4) getelementptr inbounds (%"struct.pov::Frame_Struct", %"struct.pov::Frame_Struct"* @_ZN3pov5FrameE, i32 0, i32 3))
  %87 = load i32, i32* %86, align 4
  %88 = sext i32 %87 to i64
  %89 = mul i64 %88, 24
  %90 = sub i64 0, %89
  %91 = sub i64 %84, %90
  %92 = add i64 %84, %89
  %93 = load i64, i64* @_ZN3pov19TotalMallocPoolSizeE, align 8
  %94 = sub i64 %93, -3048077407447663195
  %95 = add i64 %94, %91
  %96 = add i64 %95, -3048077407447663195
  %97 = add i64 %93, %91
  store i64 %96, i64* @_ZN3pov19TotalMallocPoolSizeE, align 8
  br label %98

; <label>:98:                                     ; preds = %45
  %99 = load i32, i32* %3, align 4
  %100 = add i32 %99, 1134776605
  %101 = add i32 %100, 1
  %102 = sub i32 %101, 1134776605
  %103 = add nsw i32 %99, 1
  store i32 %102, i32* %3, align 4
  br label %40

; <label>:104:                                    ; preds = %40
  %105 = load i64, i64* %2, align 8
  store i64 %105, i64* @_ZN3pov17MaxLightPoolDepthE, align 8
  ret void
}

; Function Attrs: noinline nounwind uwtable
define linkonce_odr void @_ZN3pov4VDotERdPKdS2_(double* dereferenceable(8), double*, double*) #1 comdat {
  %4 = alloca double*, align 8
  %5 = alloca double*, align 8
  %6 = alloca double*, align 8
  store double* %0, double** %4, align 8
  store double* %1, double** %5, align 8
  store double* %2, double** %6, align 8
  %7 = load double*, double** %5, align 8
  %8 = getelementptr inbounds double, double* %7, i64 0
  %9 = load double, double* %8, align 8
  %10 = load double*, double** %6, align 8
  %11 = getelementptr inbounds double, double* %10, i64 0
  %12 = load double, double* %11, align 8
  %13 = fmul double %9, %12
  %14 = load double*, double** %5, align 8
  %15 = getelementptr inbounds double, double* %14, i64 1
  %16 = load double, double* %15, align 8
  %17 = load double*, double** %6, align 8
  %18 = getelementptr inbounds double, double* %17, i64 1
  %19 = load double, double* %18, align 8
  %20 = fmul double %16, %19
  %21 = fadd double %13, %20
  %22 = load double*, double** %5, align 8
  %23 = getelementptr inbounds double, double* %22, i64 2
  %24 = load double, double* %23, align 8
  %25 = load double*, double** %6, align 8
  %26 = getelementptr inbounds double, double* %25, i64 2
  %27 = load double, double* %26, align 8
  %28 = fmul double %24, %27
  %29 = fadd double %21, %28
  %30 = load double*, double** %4, align 8
  store double %29, double* %30, align 8
  ret void
}

; Function Attrs: noinline nounwind uwtable
define linkonce_odr void @_ZN3pov8VScaleEqEPdd(double*, double) #1 comdat {
  %3 = alloca double*, align 8
  %4 = alloca double, align 8
  store double* %0, double** %3, align 8
  store double %1, double* %4, align 8
  %5 = load double, double* %4, align 8
  %6 = load double*, double** %3, align 8
  %7 = getelementptr inbounds double, double* %6, i64 0
  %8 = load double, double* %7, align 8
  %9 = fmul double %8, %5
  store double %9, double* %7, align 8
  %10 = load double, double* %4, align 8
  %11 = load double*, double** %3, align 8
  %12 = getelementptr inbounds double, double* %11, i64 1
  %13 = load double, double* %12, align 8
  %14 = fmul double %13, %10
  store double %14, double* %12, align 8
  %15 = load double, double* %4, align 8
  %16 = load double*, double** %3, align 8
  %17 = getelementptr inbounds double, double* %16, i64 2
  %18 = load double, double* %17, align 8
  %19 = fmul double %18, %15
  store double %19, double* %17, align 8
  ret void
}

; Function Attrs: noinline nounwind uwtable
define linkonce_odr void @_ZN3pov14Assign_UV_VectEPdS0_(double*, double*) #1 comdat {
  %3 = alloca double*, align 8
  %4 = alloca double*, align 8
  store double* %0, double** %3, align 8
  store double* %1, double** %4, align 8
  %5 = load double*, double** %4, align 8
  %6 = getelementptr inbounds double, double* %5, i64 0
  %7 = load double, double* %6, align 8
  %8 = load double*, double** %3, align 8
  %9 = getelementptr inbounds double, double* %8, i64 0
  store double %7, double* %9, align 8
  %10 = load double*, double** %4, align 8
  %11 = getelementptr inbounds double, double* %10, i64 1
  %12 = load double, double* %11, align 8
  %13 = load double*, double** %3, align 8
  %14 = getelementptr inbounds double, double* %13, i64 1
  store double %12, double* %14, align 8
  ret void
}

; Function Attrs: noinline uwtable
define internal i32 @_ZN3povL19create_texture_listEPNS_10istk_entryEd(%"struct.pov::istk_entry"*, double) #0 {
  %3 = alloca i32, align 4
  %4 = alloca %"struct.pov::istk_entry"*, align 8
  %5 = alloca double, align 8
  %6 = alloca i32, align 4
  %7 = alloca %"struct.pov::Blob_Struct"*, align 8
  %8 = alloca %"struct.pov::Mesh_Triangle_Struct"*, align 8
  %9 = alloca i8, align 1
  %10 = alloca i8, align 1
  %11 = alloca %"struct.pov::CSG_Struct"*, align 8
  %12 = alloca [3 x double], align 16
  store %"struct.pov::istk_entry"* %0, %"struct.pov::istk_entry"** %4, align 8
  store double %1, double* %5, align 8
  store i8 0, i8* %9, align 1
  store i8 0, i8* %10, align 1
  %13 = load double, double* %5, align 8
  %14 = fcmp ogt double %13, 0.000000e+00
  br i1 %14, label %15, label %23

; <label>:15:                                     ; preds = %2
  %16 = load %"struct.pov::istk_entry"*, %"struct.pov::istk_entry"** %4, align 8
  %17 = getelementptr inbounds %"struct.pov::istk_entry", %"struct.pov::istk_entry"* %16, i32 0, i32 5
  %18 = load %"struct.pov::Object_Struct"*, %"struct.pov::Object_Struct"** %17, align 8
  %19 = getelementptr inbounds %"struct.pov::Object_Struct", %"struct.pov::Object_Struct"* %18, i32 0, i32 4
  %20 = load %"struct.pov::Texture_Struct"*, %"struct.pov::Texture_Struct"** %19, align 8
  %21 = icmp ne %"struct.pov::Texture_Struct"* %20, null
  br i1 %21, label %22, label %23

; <label>:22:                                     ; preds = %15
  store i8 1, i8* %9, align 1
  br label %23

; <label>:23:                                     ; preds = %22, %15, %2
  %24 = load %"struct.pov::istk_entry"*, %"struct.pov::istk_entry"** %4, align 8
  %25 = getelementptr inbounds %"struct.pov::istk_entry", %"struct.pov::istk_entry"* %24, i32 0, i32 18
  %26 = load i8*, i8** %25, align 8
  %27 = bitcast i8* %26 to %"struct.pov::CSG_Struct"*
  store %"struct.pov::CSG_Struct"* %27, %"struct.pov::CSG_Struct"** %11, align 8
  %28 = load %"struct.pov::CSG_Struct"*, %"struct.pov::CSG_Struct"** %11, align 8
  %29 = icmp ne %"struct.pov::CSG_Struct"* %28, null
  br i1 %29, label %30, label %74

; <label>:30:                                     ; preds = %23
  %31 = load %"struct.pov::istk_entry"*, %"struct.pov::istk_entry"** %4, align 8
  %32 = getelementptr inbounds %"struct.pov::istk_entry", %"struct.pov::istk_entry"* %31, i32 0, i32 5
  %33 = load %"struct.pov::Object_Struct"*, %"struct.pov::Object_Struct"** %32, align 8
  %34 = getelementptr inbounds %"struct.pov::Object_Struct", %"struct.pov::Object_Struct"* %33, i32 0, i32 13
  %35 = load i32, i32* %34, align 4
  %36 = zext i32 %35 to i64
  %37 = xor i64 256, -1
  %38 = xor i64 %36, %37
  %39 = and i64 %38, %36
  %40 = and i64 %36, 256
  %41 = icmp ne i64 %39, 0
  br i1 %41, label %42, label %74

; <label>:42:                                     ; preds = %30
  %43 = load %"struct.pov::CSG_Struct"*, %"struct.pov::CSG_Struct"** %11, align 8
  %44 = getelementptr inbounds %"struct.pov::CSG_Struct", %"struct.pov::CSG_Struct"* %43, i32 0, i32 0
  %45 = load %"struct.pov::Method_Struct"*, %"struct.pov::Method_Struct"** %44, align 8
  %46 = icmp eq %"struct.pov::Method_Struct"* %45, @_ZN3pov24CSG_Intersection_MethodsE
  br i1 %46, label %57, label %47

; <label>:47:                                     ; preds = %42
  %48 = load %"struct.pov::CSG_Struct"*, %"struct.pov::CSG_Struct"** %11, align 8
  %49 = getelementptr inbounds %"struct.pov::CSG_Struct", %"struct.pov::CSG_Struct"* %48, i32 0, i32 0
  %50 = load %"struct.pov::Method_Struct"*, %"struct.pov::Method_Struct"** %49, align 8
  %51 = icmp eq %"struct.pov::Method_Struct"* %50, @_ZN3pov17CSG_Merge_MethodsE
  br i1 %51, label %57, label %52

; <label>:52:                                     ; preds = %47
  %53 = load %"struct.pov::CSG_Struct"*, %"struct.pov::CSG_Struct"** %11, align 8
  %54 = getelementptr inbounds %"struct.pov::CSG_Struct", %"struct.pov::CSG_Struct"* %53, i32 0, i32 0
  %55 = load %"struct.pov::Method_Struct"*, %"struct.pov::Method_Struct"** %54, align 8
  %56 = icmp eq %"struct.pov::Method_Struct"* %55, @_ZN3pov17CSG_Union_MethodsE
  br i1 %56, label %57, label %74

; <label>:57:                                     ; preds = %52, %47, %42
  %58 = load %"struct.pov::istk_entry"*, %"struct.pov::istk_entry"** %4, align 8
  %59 = getelementptr inbounds %"struct.pov::istk_entry", %"struct.pov::istk_entry"* %58, i32 0, i32 5
  %60 = load %"struct.pov::Object_Struct"*, %"struct.pov::Object_Struct"** %59, align 8
  %61 = getelementptr inbounds %"struct.pov::Object_Struct", %"struct.pov::Object_Struct"* %60, i32 0, i32 3
  %62 = load %"struct.pov::Texture_Struct"*, %"struct.pov::Texture_Struct"** %61, align 8
  %63 = icmp eq %"struct.pov::Texture_Struct"* %62, null
  br i1 %63, label %64, label %72

; <label>:64:                                     ; preds = %57
  %65 = load %"struct.pov::CSG_Struct"*, %"struct.pov::CSG_Struct"** %11, align 8
  %66 = load %"struct.pov::istk_entry"*, %"struct.pov::istk_entry"** %4, align 8
  %67 = getelementptr inbounds %"struct.pov::istk_entry", %"struct.pov::istk_entry"* %66, i32 0, i32 1
  %68 = getelementptr inbounds [3 x double], [3 x double]* %67, i32 0, i32 0
  %69 = load %"struct.pov::Texture_Struct"**, %"struct.pov::Texture_Struct"*** @_ZN3pov12Texture_ListE, align 8
  %70 = load double*, double** @_ZN3pov11Weight_ListE, align 8
  call void @_ZN3pov22Determine_CSG_TexturesEPNS_10CSG_StructEPdPiPPNS_14Texture_StructES2_(%"struct.pov::CSG_Struct"* %65, double* %68, i32* %6, %"struct.pov::Texture_Struct"** %69, double* %70)
  %71 = load i32, i32* %6, align 4
  store i32 %71, i32* %3, align 4
  br label %300

; <label>:72:                                     ; preds = %57
  store i8 1, i8* %10, align 1
  br label %73

; <label>:73:                                     ; preds = %72
  br label %74

; <label>:74:                                     ; preds = %73, %52, %30, %23
  %75 = load %"struct.pov::istk_entry"*, %"struct.pov::istk_entry"** %4, align 8
  %76 = getelementptr inbounds %"struct.pov::istk_entry", %"struct.pov::istk_entry"* %75, i32 0, i32 5
  %77 = load %"struct.pov::Object_Struct"*, %"struct.pov::Object_Struct"** %76, align 8
  %78 = getelementptr inbounds %"struct.pov::Object_Struct", %"struct.pov::Object_Struct"* %77, i32 0, i32 13
  %79 = load i32, i32* %78, align 4
  %80 = zext i32 %79 to i64
  %81 = xor i64 256, -1
  %82 = xor i64 %80, %81
  %83 = and i64 %82, %80
  %84 = and i64 %80, 256
  %85 = icmp ne i64 %83, 0
  br i1 %85, label %86, label %265

; <label>:86:                                     ; preds = %74
  %87 = load i8, i8* %10, align 1
  %88 = trunc i8 %87 to i1
  br i1 %88, label %265, label %89

; <label>:89:                                     ; preds = %86
  %90 = load %"struct.pov::istk_entry"*, %"struct.pov::istk_entry"** %4, align 8
  %91 = getelementptr inbounds %"struct.pov::istk_entry", %"struct.pov::istk_entry"* %90, i32 0, i32 5
  %92 = load %"struct.pov::Object_Struct"*, %"struct.pov::Object_Struct"** %91, align 8
  %93 = getelementptr inbounds %"struct.pov::Object_Struct", %"struct.pov::Object_Struct"* %92, i32 0, i32 0
  %94 = load %"struct.pov::Method_Struct"*, %"struct.pov::Method_Struct"** %93, align 8
  %95 = icmp eq %"struct.pov::Method_Struct"* %94, @_ZN3pov12Blob_MethodsE
  br i1 %95, label %96, label %107

; <label>:96:                                     ; preds = %89
  %97 = load %"struct.pov::istk_entry"*, %"struct.pov::istk_entry"** %4, align 8
  %98 = getelementptr inbounds %"struct.pov::istk_entry", %"struct.pov::istk_entry"* %97, i32 0, i32 5
  %99 = load %"struct.pov::Object_Struct"*, %"struct.pov::Object_Struct"** %98, align 8
  %100 = bitcast %"struct.pov::Object_Struct"* %99 to %"struct.pov::Blob_Struct"*
  store %"struct.pov::Blob_Struct"* %100, %"struct.pov::Blob_Struct"** %7, align 8
  %101 = load %"struct.pov::Blob_Struct"*, %"struct.pov::Blob_Struct"** %7, align 8
  %102 = load %"struct.pov::istk_entry"*, %"struct.pov::istk_entry"** %4, align 8
  %103 = getelementptr inbounds %"struct.pov::istk_entry", %"struct.pov::istk_entry"* %102, i32 0, i32 1
  %104 = getelementptr inbounds [3 x double], [3 x double]* %103, i32 0, i32 0
  %105 = load %"struct.pov::Texture_Struct"**, %"struct.pov::Texture_Struct"*** @_ZN3pov12Texture_ListE, align 8
  %106 = load double*, double** @_ZN3pov11Weight_ListE, align 8
  call void @_ZN3pov23Determine_Blob_TexturesEPNS_11Blob_StructEPdPiPPNS_14Texture_StructES2_(%"struct.pov::Blob_Struct"* %101, double* %104, i32* %6, %"struct.pov::Texture_Struct"** %105, double* %106)
  br label %107

; <label>:107:                                    ; preds = %96, %89
  %108 = load %"struct.pov::istk_entry"*, %"struct.pov::istk_entry"** %4, align 8
  %109 = getelementptr inbounds %"struct.pov::istk_entry", %"struct.pov::istk_entry"* %108, i32 0, i32 5
  %110 = load %"struct.pov::Object_Struct"*, %"struct.pov::Object_Struct"** %109, align 8
  %111 = getelementptr inbounds %"struct.pov::Object_Struct", %"struct.pov::Object_Struct"* %110, i32 0, i32 0
  %112 = load %"struct.pov::Method_Struct"*, %"struct.pov::Method_Struct"** %111, align 8
  %113 = icmp eq %"struct.pov::Method_Struct"* %112, @_ZN3pov12Mesh_MethodsE
  br i1 %113, label %114, label %264

; <label>:114:                                    ; preds = %107
  %115 = load %"struct.pov::istk_entry"*, %"struct.pov::istk_entry"** %4, align 8
  %116 = getelementptr inbounds %"struct.pov::istk_entry", %"struct.pov::istk_entry"* %115, i32 0, i32 17
  %117 = load i8*, i8** %116, align 8
  %118 = bitcast i8* %117 to %"struct.pov::Mesh_Triangle_Struct"*
  store %"struct.pov::Mesh_Triangle_Struct"* %118, %"struct.pov::Mesh_Triangle_Struct"** %8, align 8
  %119 = load %"struct.pov::Mesh_Triangle_Struct"*, %"struct.pov::Mesh_Triangle_Struct"** %8, align 8
  %120 = bitcast %"struct.pov::Mesh_Triangle_Struct"* %119 to i8*
  %121 = load i8, i8* %120, align 8
  %122 = lshr i8 %121, 5
  %123 = xor i8 1, -1
  %124 = xor i8 %122, %123
  %125 = and i8 %124, %122
  %126 = and i8 %122, 1
  %127 = zext i8 %125 to i32
  %128 = icmp ne i32 %127, 0
  br i1 %128, label %129, label %233

; <label>:129:                                    ; preds = %114
  %130 = getelementptr inbounds [3 x double], [3 x double]* %12, i32 0, i32 0
  %131 = load %"struct.pov::istk_entry"*, %"struct.pov::istk_entry"** %4, align 8
  %132 = getelementptr inbounds %"struct.pov::istk_entry", %"struct.pov::istk_entry"* %131, i32 0, i32 1
  %133 = getelementptr inbounds [3 x double], [3 x double]* %132, i32 0, i32 0
  %134 = load %"struct.pov::istk_entry"*, %"struct.pov::istk_entry"** %4, align 8
  %135 = getelementptr inbounds %"struct.pov::istk_entry", %"struct.pov::istk_entry"* %134, i32 0, i32 5
  %136 = load %"struct.pov::Object_Struct"*, %"struct.pov::Object_Struct"** %135, align 8
  %137 = bitcast %"struct.pov::Object_Struct"* %136 to %"struct.pov::Mesh_Struct"*
  %138 = load %"struct.pov::Mesh_Triangle_Struct"*, %"struct.pov::Mesh_Triangle_Struct"** %8, align 8
  %139 = call i32 @_ZN3pov16Mesh_InterpolateEPdS0_PNS_11Mesh_StructEPNS_20Mesh_Triangle_StructE(double* %130, double* %133, %"struct.pov::Mesh_Struct"* %137, %"struct.pov::Mesh_Triangle_Struct"* %138)
  %140 = load %"struct.pov::Mesh_Triangle_Struct"*, %"struct.pov::Mesh_Triangle_Struct"** %8, align 8
  %141 = getelementptr inbounds %"struct.pov::Mesh_Triangle_Struct", %"struct.pov::Mesh_Triangle_Struct"* %140, i32 0, i32 5
  %142 = load i64, i64* %141, align 8
  %143 = icmp sge i64 %142, 0
  br i1 %143, label %144, label %158

; <label>:144:                                    ; preds = %129
  %145 = load %"struct.pov::istk_entry"*, %"struct.pov::istk_entry"** %4, align 8
  %146 = getelementptr inbounds %"struct.pov::istk_entry", %"struct.pov::istk_entry"* %145, i32 0, i32 5
  %147 = load %"struct.pov::Object_Struct"*, %"struct.pov::Object_Struct"** %146, align 8
  %148 = bitcast %"struct.pov::Object_Struct"* %147 to %"struct.pov::Mesh_Struct"*
  %149 = getelementptr inbounds %"struct.pov::Mesh_Struct", %"struct.pov::Mesh_Struct"* %148, i32 0, i32 16
  %150 = load %"struct.pov::Texture_Struct"**, %"struct.pov::Texture_Struct"*** %149, align 8
  %151 = load %"struct.pov::Mesh_Triangle_Struct"*, %"struct.pov::Mesh_Triangle_Struct"** %8, align 8
  %152 = getelementptr inbounds %"struct.pov::Mesh_Triangle_Struct", %"struct.pov::Mesh_Triangle_Struct"* %151, i32 0, i32 5
  %153 = load i64, i64* %152, align 8
  %154 = getelementptr inbounds %"struct.pov::Texture_Struct"*, %"struct.pov::Texture_Struct"** %150, i64 %153
  %155 = load %"struct.pov::Texture_Struct"*, %"struct.pov::Texture_Struct"** %154, align 8
  %156 = load %"struct.pov::Texture_Struct"**, %"struct.pov::Texture_Struct"*** @_ZN3pov12Texture_ListE, align 8
  %157 = getelementptr inbounds %"struct.pov::Texture_Struct"*, %"struct.pov::Texture_Struct"** %156, i64 0
  store %"struct.pov::Texture_Struct"* %155, %"struct.pov::Texture_Struct"** %157, align 8
  br label %166

; <label>:158:                                    ; preds = %129
  %159 = load %"struct.pov::istk_entry"*, %"struct.pov::istk_entry"** %4, align 8
  %160 = getelementptr inbounds %"struct.pov::istk_entry", %"struct.pov::istk_entry"* %159, i32 0, i32 5
  %161 = load %"struct.pov::Object_Struct"*, %"struct.pov::Object_Struct"** %160, align 8
  %162 = getelementptr inbounds %"struct.pov::Object_Struct", %"struct.pov::Object_Struct"* %161, i32 0, i32 3
  %163 = load %"struct.pov::Texture_Struct"*, %"struct.pov::Texture_Struct"** %162, align 8
  %164 = load %"struct.pov::Texture_Struct"**, %"struct.pov::Texture_Struct"*** @_ZN3pov12Texture_ListE, align 8
  %165 = getelementptr inbounds %"struct.pov::Texture_Struct"*, %"struct.pov::Texture_Struct"** %164, i64 0
  store %"struct.pov::Texture_Struct"* %163, %"struct.pov::Texture_Struct"** %165, align 8
  br label %166

; <label>:166:                                    ; preds = %158, %144
  %167 = load %"struct.pov::Mesh_Triangle_Struct"*, %"struct.pov::Mesh_Triangle_Struct"** %8, align 8
  %168 = getelementptr inbounds %"struct.pov::Mesh_Triangle_Struct", %"struct.pov::Mesh_Triangle_Struct"* %167, i32 0, i32 6
  %169 = load i64, i64* %168, align 8
  %170 = icmp sge i64 %169, 0
  br i1 %170, label %171, label %185

; <label>:171:                                    ; preds = %166
  %172 = load %"struct.pov::istk_entry"*, %"struct.pov::istk_entry"** %4, align 8
  %173 = getelementptr inbounds %"struct.pov::istk_entry", %"struct.pov::istk_entry"* %172, i32 0, i32 5
  %174 = load %"struct.pov::Object_Struct"*, %"struct.pov::Object_Struct"** %173, align 8
  %175 = bitcast %"struct.pov::Object_Struct"* %174 to %"struct.pov::Mesh_Struct"*
  %176 = getelementptr inbounds %"struct.pov::Mesh_Struct", %"struct.pov::Mesh_Struct"* %175, i32 0, i32 16
  %177 = load %"struct.pov::Texture_Struct"**, %"struct.pov::Texture_Struct"*** %176, align 8
  %178 = load %"struct.pov::Mesh_Triangle_Struct"*, %"struct.pov::Mesh_Triangle_Struct"** %8, align 8
  %179 = getelementptr inbounds %"struct.pov::Mesh_Triangle_Struct", %"struct.pov::Mesh_Triangle_Struct"* %178, i32 0, i32 6
  %180 = load i64, i64* %179, align 8
  %181 = getelementptr inbounds %"struct.pov::Texture_Struct"*, %"struct.pov::Texture_Struct"** %177, i64 %180
  %182 = load %"struct.pov::Texture_Struct"*, %"struct.pov::Texture_Struct"** %181, align 8
  %183 = load %"struct.pov::Texture_Struct"**, %"struct.pov::Texture_Struct"*** @_ZN3pov12Texture_ListE, align 8
  %184 = getelementptr inbounds %"struct.pov::Texture_Struct"*, %"struct.pov::Texture_Struct"** %183, i64 1
  store %"struct.pov::Texture_Struct"* %182, %"struct.pov::Texture_Struct"** %184, align 8
  br label %193

; <label>:185:                                    ; preds = %166
  %186 = load %"struct.pov::istk_entry"*, %"struct.pov::istk_entry"** %4, align 8
  %187 = getelementptr inbounds %"struct.pov::istk_entry", %"struct.pov::istk_entry"* %186, i32 0, i32 5
  %188 = load %"struct.pov::Object_Struct"*, %"struct.pov::Object_Struct"** %187, align 8
  %189 = getelementptr inbounds %"struct.pov::Object_Struct", %"struct.pov::Object_Struct"* %188, i32 0, i32 3
  %190 = load %"struct.pov::Texture_Struct"*, %"struct.pov::Texture_Struct"** %189, align 8
  %191 = load %"struct.pov::Texture_Struct"**, %"struct.pov::Texture_Struct"*** @_ZN3pov12Texture_ListE, align 8
  %192 = getelementptr inbounds %"struct.pov::Texture_Struct"*, %"struct.pov::Texture_Struct"** %191, i64 1
  store %"struct.pov::Texture_Struct"* %190, %"struct.pov::Texture_Struct"** %192, align 8
  br label %193

; <label>:193:                                    ; preds = %185, %171
  %194 = load %"struct.pov::Mesh_Triangle_Struct"*, %"struct.pov::Mesh_Triangle_Struct"** %8, align 8
  %195 = getelementptr inbounds %"struct.pov::Mesh_Triangle_Struct", %"struct.pov::Mesh_Triangle_Struct"* %194, i32 0, i32 7
  %196 = load i64, i64* %195, align 8
  %197 = icmp sge i64 %196, 0
  br i1 %197, label %198, label %212

; <label>:198:                                    ; preds = %193
  %199 = load %"struct.pov::istk_entry"*, %"struct.pov::istk_entry"** %4, align 8
  %200 = getelementptr inbounds %"struct.pov::istk_entry", %"struct.pov::istk_entry"* %199, i32 0, i32 5
  %201 = load %"struct.pov::Object_Struct"*, %"struct.pov::Object_Struct"** %200, align 8
  %202 = bitcast %"struct.pov::Object_Struct"* %201 to %"struct.pov::Mesh_Struct"*
  %203 = getelementptr inbounds %"struct.pov::Mesh_Struct", %"struct.pov::Mesh_Struct"* %202, i32 0, i32 16
  %204 = load %"struct.pov::Texture_Struct"**, %"struct.pov::Texture_Struct"*** %203, align 8
  %205 = load %"struct.pov::Mesh_Triangle_Struct"*, %"struct.pov::Mesh_Triangle_Struct"** %8, align 8
  %206 = getelementptr inbounds %"struct.pov::Mesh_Triangle_Struct", %"struct.pov::Mesh_Triangle_Struct"* %205, i32 0, i32 7
  %207 = load i64, i64* %206, align 8
  %208 = getelementptr inbounds %"struct.pov::Texture_Struct"*, %"struct.pov::Texture_Struct"** %204, i64 %207
  %209 = load %"struct.pov::Texture_Struct"*, %"struct.pov::Texture_Struct"** %208, align 8
  %210 = load %"struct.pov::Texture_Struct"**, %"struct.pov::Texture_Struct"*** @_ZN3pov12Texture_ListE, align 8
  %211 = getelementptr inbounds %"struct.pov::Texture_Struct"*, %"struct.pov::Texture_Struct"** %210, i64 2
  store %"struct.pov::Texture_Struct"* %209, %"struct.pov::Texture_Struct"** %211, align 8
  br label %220

; <label>:212:                                    ; preds = %193
  %213 = load %"struct.pov::istk_entry"*, %"struct.pov::istk_entry"** %4, align 8
  %214 = getelementptr inbounds %"struct.pov::istk_entry", %"struct.pov::istk_entry"* %213, i32 0, i32 5
  %215 = load %"struct.pov::Object_Struct"*, %"struct.pov::Object_Struct"** %214, align 8
  %216 = getelementptr inbounds %"struct.pov::Object_Struct", %"struct.pov::Object_Struct"* %215, i32 0, i32 3
  %217 = load %"struct.pov::Texture_Struct"*, %"struct.pov::Texture_Struct"** %216, align 8
  %218 = load %"struct.pov::Texture_Struct"**, %"struct.pov::Texture_Struct"*** @_ZN3pov12Texture_ListE, align 8
  %219 = getelementptr inbounds %"struct.pov::Texture_Struct"*, %"struct.pov::Texture_Struct"** %218, i64 2
  store %"struct.pov::Texture_Struct"* %217, %"struct.pov::Texture_Struct"** %219, align 8
  br label %220

; <label>:220:                                    ; preds = %212, %198
  %221 = getelementptr inbounds [3 x double], [3 x double]* %12, i64 0, i64 0
  %222 = load double, double* %221, align 16
  %223 = load double*, double** @_ZN3pov11Weight_ListE, align 8
  %224 = getelementptr inbounds double, double* %223, i64 0
  store double %222, double* %224, align 8
  %225 = getelementptr inbounds [3 x double], [3 x double]* %12, i64 0, i64 1
  %226 = load double, double* %225, align 8
  %227 = load double*, double** @_ZN3pov11Weight_ListE, align 8
  %228 = getelementptr inbounds double, double* %227, i64 1
  store double %226, double* %228, align 8
  %229 = getelementptr inbounds [3 x double], [3 x double]* %12, i64 0, i64 2
  %230 = load double, double* %229, align 16
  %231 = load double*, double** @_ZN3pov11Weight_ListE, align 8
  %232 = getelementptr inbounds double, double* %231, i64 2
  store double %230, double* %232, align 8
  store i32 3, i32* %6, align 4
  br label %263

; <label>:233:                                    ; preds = %114
  %234 = load %"struct.pov::Mesh_Triangle_Struct"*, %"struct.pov::Mesh_Triangle_Struct"** %8, align 8
  %235 = getelementptr inbounds %"struct.pov::Mesh_Triangle_Struct", %"struct.pov::Mesh_Triangle_Struct"* %234, i32 0, i32 5
  %236 = load i64, i64* %235, align 8
  %237 = icmp sge i64 %236, 0
  br i1 %237, label %238, label %252

; <label>:238:                                    ; preds = %233
  %239 = load %"struct.pov::istk_entry"*, %"struct.pov::istk_entry"** %4, align 8
  %240 = getelementptr inbounds %"struct.pov::istk_entry", %"struct.pov::istk_entry"* %239, i32 0, i32 5
  %241 = load %"struct.pov::Object_Struct"*, %"struct.pov::Object_Struct"** %240, align 8
  %242 = bitcast %"struct.pov::Object_Struct"* %241 to %"struct.pov::Mesh_Struct"*
  %243 = getelementptr inbounds %"struct.pov::Mesh_Struct", %"struct.pov::Mesh_Struct"* %242, i32 0, i32 16
  %244 = load %"struct.pov::Texture_Struct"**, %"struct.pov::Texture_Struct"*** %243, align 8
  %245 = load %"struct.pov::Mesh_Triangle_Struct"*, %"struct.pov::Mesh_Triangle_Struct"** %8, align 8
  %246 = getelementptr inbounds %"struct.pov::Mesh_Triangle_Struct", %"struct.pov::Mesh_Triangle_Struct"* %245, i32 0, i32 5
  %247 = load i64, i64* %246, align 8
  %248 = getelementptr inbounds %"struct.pov::Texture_Struct"*, %"struct.pov::Texture_Struct"** %244, i64 %247
  %249 = load %"struct.pov::Texture_Struct"*, %"struct.pov::Texture_Struct"** %248, align 8
  %250 = load %"struct.pov::Texture_Struct"**, %"struct.pov::Texture_Struct"*** @_ZN3pov12Texture_ListE, align 8
  %251 = getelementptr inbounds %"struct.pov::Texture_Struct"*, %"struct.pov::Texture_Struct"** %250, i64 0
  store %"struct.pov::Texture_Struct"* %249, %"struct.pov::Texture_Struct"** %251, align 8
  br label %260

; <label>:252:                                    ; preds = %233
  %253 = load %"struct.pov::istk_entry"*, %"struct.pov::istk_entry"** %4, align 8
  %254 = getelementptr inbounds %"struct.pov::istk_entry", %"struct.pov::istk_entry"* %253, i32 0, i32 5
  %255 = load %"struct.pov::Object_Struct"*, %"struct.pov::Object_Struct"** %254, align 8
  %256 = getelementptr inbounds %"struct.pov::Object_Struct", %"struct.pov::Object_Struct"* %255, i32 0, i32 3
  %257 = load %"struct.pov::Texture_Struct"*, %"struct.pov::Texture_Struct"** %256, align 8
  %258 = load %"struct.pov::Texture_Struct"**, %"struct.pov::Texture_Struct"*** @_ZN3pov12Texture_ListE, align 8
  %259 = getelementptr inbounds %"struct.pov::Texture_Struct"*, %"struct.pov::Texture_Struct"** %258, i64 0
  store %"struct.pov::Texture_Struct"* %257, %"struct.pov::Texture_Struct"** %259, align 8
  br label %260

; <label>:260:                                    ; preds = %252, %238
  %261 = load double*, double** @_ZN3pov11Weight_ListE, align 8
  %262 = getelementptr inbounds double, double* %261, i64 0
  store double 1.000000e+00, double* %262, align 8
  store i32 1, i32* %6, align 4
  br label %263

; <label>:263:                                    ; preds = %260, %220
  br label %264

; <label>:264:                                    ; preds = %263, %107
  br label %298

; <label>:265:                                    ; preds = %86, %74
  %266 = load %"struct.pov::istk_entry"*, %"struct.pov::istk_entry"** %4, align 8
  %267 = getelementptr inbounds %"struct.pov::istk_entry", %"struct.pov::istk_entry"* %266, i32 0, i32 5
  %268 = load %"struct.pov::Object_Struct"*, %"struct.pov::Object_Struct"** %267, align 8
  %269 = getelementptr inbounds %"struct.pov::Object_Struct", %"struct.pov::Object_Struct"* %268, i32 0, i32 3
  %270 = load %"struct.pov::Texture_Struct"*, %"struct.pov::Texture_Struct"** %269, align 8
  %271 = icmp eq %"struct.pov::Texture_Struct"* %270, null
  br i1 %271, label %272, label %273

; <label>:272:                                    ; preds = %265
  store i32 0, i32* %6, align 4
  br label %297

; <label>:273:                                    ; preds = %265
  %274 = load i8, i8* %9, align 1
  %275 = trunc i8 %274 to i1
  %276 = zext i1 %275 to i32
  %277 = icmp eq i32 %276, 1
  br i1 %277, label %278, label %286

; <label>:278:                                    ; preds = %273
  %279 = load %"struct.pov::istk_entry"*, %"struct.pov::istk_entry"** %4, align 8
  %280 = getelementptr inbounds %"struct.pov::istk_entry", %"struct.pov::istk_entry"* %279, i32 0, i32 5
  %281 = load %"struct.pov::Object_Struct"*, %"struct.pov::Object_Struct"** %280, align 8
  %282 = getelementptr inbounds %"struct.pov::Object_Struct", %"struct.pov::Object_Struct"* %281, i32 0, i32 4
  %283 = load %"struct.pov::Texture_Struct"*, %"struct.pov::Texture_Struct"** %282, align 8
  %284 = load %"struct.pov::Texture_Struct"**, %"struct.pov::Texture_Struct"*** @_ZN3pov12Texture_ListE, align 8
  %285 = getelementptr inbounds %"struct.pov::Texture_Struct"*, %"struct.pov::Texture_Struct"** %284, i64 0
  store %"struct.pov::Texture_Struct"* %283, %"struct.pov::Texture_Struct"** %285, align 8
  br label %294

; <label>:286:                                    ; preds = %273
  %287 = load %"struct.pov::istk_entry"*, %"struct.pov::istk_entry"** %4, align 8
  %288 = getelementptr inbounds %"struct.pov::istk_entry", %"struct.pov::istk_entry"* %287, i32 0, i32 5
  %289 = load %"struct.pov::Object_Struct"*, %"struct.pov::Object_Struct"** %288, align 8
  %290 = getelementptr inbounds %"struct.pov::Object_Struct", %"struct.pov::Object_Struct"* %289, i32 0, i32 3
  %291 = load %"struct.pov::Texture_Struct"*, %"struct.pov::Texture_Struct"** %290, align 8
  %292 = load %"struct.pov::Texture_Struct"**, %"struct.pov::Texture_Struct"*** @_ZN3pov12Texture_ListE, align 8
  %293 = getelementptr inbounds %"struct.pov::Texture_Struct"*, %"struct.pov::Texture_Struct"** %292, i64 0
  store %"struct.pov::Texture_Struct"* %291, %"struct.pov::Texture_Struct"** %293, align 8
  br label %294

; <label>:294:                                    ; preds = %286, %278
  %295 = load double*, double** @_ZN3pov11Weight_ListE, align 8
  %296 = getelementptr inbounds double, double* %295, i64 0
  store double 1.000000e+00, double* %296, align 8
  store i32 1, i32* %6, align 4
  br label %297

; <label>:297:                                    ; preds = %294, %272
  br label %298

; <label>:298:                                    ; preds = %297, %264
  %299 = load i32, i32* %6, align 4
  store i32 %299, i32* %3, align 4
  br label %300

; <label>:300:                                    ; preds = %298, %64
  %301 = load i32, i32* %3, align 4
  ret i32 %301
}

; Function Attrs: noinline uwtable
define internal void @_ZN3povL14do_texture_mapEPfPNS_14Texture_StructEPdS3_PNS_10Ray_StructEdPNS_10istk_entryEi(float*, %"struct.pov::Texture_Struct"*, double*, double*, %"struct.pov::Ray_Struct"*, double, %"struct.pov::istk_entry"*, i32) #0 {
  %9 = alloca float*, align 8
  %10 = alloca %"struct.pov::Texture_Struct"*, align 8
  %11 = alloca double*, align 8
  %12 = alloca double*, align 8
  %13 = alloca %"struct.pov::Ray_Struct"*, align 8
  %14 = alloca double, align 8
  %15 = alloca %"struct.pov::istk_entry"*, align 8
  %16 = alloca i32, align 4
  %17 = alloca %"struct.pov::Blend_Map_Struct"*, align 8
  %18 = alloca %"struct.pov::Blend_Map_Entry"*, align 8
  %19 = alloca %"struct.pov::Blend_Map_Entry"*, align 8
  %20 = alloca double, align 8
  %21 = alloca double, align 8
  %22 = alloca [5 x float], align 16
  %23 = alloca [3 x double], align 16
  %24 = alloca [2 x double], align 16
  %25 = alloca i8, align 1
  store float* %0, float** %9, align 8
  store %"struct.pov::Texture_Struct"* %1, %"struct.pov::Texture_Struct"** %10, align 8
  store double* %2, double** %11, align 8
  store double* %3, double** %12, align 8
  store %"struct.pov::Ray_Struct"* %4, %"struct.pov::Ray_Struct"** %13, align 8
  store double %5, double* %14, align 8
  store %"struct.pov::istk_entry"* %6, %"struct.pov::istk_entry"** %15, align 8
  store i32 %7, i32* %16, align 4
  %26 = load %"struct.pov::Texture_Struct"*, %"struct.pov::Texture_Struct"** %10, align 8
  %27 = getelementptr inbounds %"struct.pov::Texture_Struct", %"struct.pov::Texture_Struct"* %26, i32 0, i32 9
  %28 = load %"struct.pov::Blend_Map_Struct"*, %"struct.pov::Blend_Map_Struct"** %27, align 8
  store %"struct.pov::Blend_Map_Struct"* %28, %"struct.pov::Blend_Map_Struct"** %17, align 8
  store i8 0, i8* %25, align 1
  %29 = load i32, i32* getelementptr inbounds (%"struct.pov::OPTIONS_STRUCT", %"struct.pov::OPTIONS_STRUCT"* @_ZN3pov4optsE, i32 0, i32 28), align 8
  %30 = icmp sgt i32 %29, 310
  br i1 %30, label %31, label %63

; <label>:31:                                     ; preds = %8
  %32 = load %"struct.pov::Texture_Struct"*, %"struct.pov::Texture_Struct"** %10, align 8
  %33 = getelementptr inbounds %"struct.pov::Texture_Struct", %"struct.pov::Texture_Struct"* %32, i32 0, i32 0
  %34 = load i16, i16* %33, align 8
  %35 = zext i16 %34 to i32
  switch i32 %35, label %38 [
    i32 0, label %36
    i32 1, label %36
    i32 2, label %37
    i32 3, label %37
    i32 4, label %37
  ]

; <label>:36:                                     ; preds = %31, %31
  br label %62

; <label>:37:                                     ; preds = %31, %31, %31
  br label %38

; <label>:38:                                     ; preds = %37, %31
  %39 = load i32, i32* @_ZN3pov18warpNormalTexturesE, align 4
  %40 = load i32, i32* @_ZN3pov28warpNormalTextureListMaxSizeE, align 4
  %41 = icmp sge i32 %39, %40
  br i1 %41, label %42, label %52

; <label>:42:                                     ; preds = %38
  %43 = load i32, i32* @_ZN3pov28warpNormalTextureListMaxSizeE, align 4
  %44 = mul nsw i32 %43, 2
  store i32 %44, i32* @_ZN3pov28warpNormalTextureListMaxSizeE, align 4
  %45 = load %"struct.pov::Texture_Struct"**, %"struct.pov::Texture_Struct"*** @_ZN3pov21warpNormalTextureListE, align 8
  %46 = bitcast %"struct.pov::Texture_Struct"** %45 to i8*
  %47 = load i32, i32* @_ZN3pov28warpNormalTextureListMaxSizeE, align 4
  %48 = sext i32 %47 to i64
  %49 = mul i64 %48, 8
  %50 = call i8* @_ZN3pov11pov_reallocEPvmPKciS2_(i8* %46, i64 %49, i8* getelementptr inbounds ([13 x i8], [13 x i8]* @.str, i32 0, i32 0), i32 3564, i8* getelementptr inbounds ([25 x i8], [25 x i8]* @.str.1, i32 0, i32 0))
  %51 = bitcast i8* %50 to %"struct.pov::Texture_Struct"**
  store %"struct.pov::Texture_Struct"** %51, %"struct.pov::Texture_Struct"*** @_ZN3pov21warpNormalTextureListE, align 8
  br label %52

; <label>:52:                                     ; preds = %42, %38
  %53 = load %"struct.pov::Texture_Struct"*, %"struct.pov::Texture_Struct"** %10, align 8
  %54 = load %"struct.pov::Texture_Struct"**, %"struct.pov::Texture_Struct"*** @_ZN3pov21warpNormalTextureListE, align 8
  %55 = load i32, i32* @_ZN3pov18warpNormalTexturesE, align 4
  %56 = sub i32 %55, -1023601214
  %57 = add i32 %56, 1
  %58 = add i32 %57, -1023601214
  %59 = add nsw i32 %55, 1
  store i32 %58, i32* @_ZN3pov18warpNormalTexturesE, align 4
  %60 = sext i32 %55 to i64
  %61 = getelementptr inbounds %"struct.pov::Texture_Struct"*, %"struct.pov::Texture_Struct"** %54, i64 %60
  store %"struct.pov::Texture_Struct"* %53, %"struct.pov::Texture_Struct"** %61, align 8
  store i8 1, i8* %25, align 1
  br label %62

; <label>:62:                                     ; preds = %52, %36
  br label %63

; <label>:63:                                     ; preds = %62, %8
  %64 = load %"struct.pov::Texture_Struct"*, %"struct.pov::Texture_Struct"** %10, align 8
  %65 = getelementptr inbounds %"struct.pov::Texture_Struct", %"struct.pov::Texture_Struct"* %64, i32 0, i32 0
  %66 = load i16, i16* %65, align 8
  %67 = zext i16 %66 to i32
  %68 = icmp sle i32 %67, 4
  br i1 %68, label %69, label %189

; <label>:69:                                     ; preds = %63
  %70 = load %"struct.pov::Texture_Struct"*, %"struct.pov::Texture_Struct"** %10, align 8
  %71 = getelementptr inbounds %"struct.pov::Texture_Struct", %"struct.pov::Texture_Struct"* %70, i32 0, i32 0
  %72 = load i16, i16* %71, align 8
  %73 = zext i16 %72 to i32
  switch i32 %73, label %186 [
    i32 0, label %74
    i32 2, label %76
    i32 3, label %102
    i32 4, label %139
    i32 1, label %155
  ]

; <label>:74:                                     ; preds = %69
  %75 = load float*, float** %9, align 8
  call void @_ZN3pov12Make_ColourAEPffffff(float* %75, float 1.000000e+00, float 1.000000e+00, float 1.000000e+00, float 1.000000e+00, float 1.000000e+00)
  br label %188

; <label>:76:                                     ; preds = %69
  %77 = getelementptr inbounds [3 x double], [3 x double]* %23, i32 0, i32 0
  %78 = load double*, double** %11, align 8
  %79 = load %"struct.pov::Texture_Struct"*, %"struct.pov::Texture_Struct"** %10, align 8
  %80 = bitcast %"struct.pov::Texture_Struct"* %79 to %"struct.pov::Pattern_Struct"*
  call void @_ZN3pov11Warp_EPointEPdS0_PNS_14Pattern_StructE(double* %77, double* %78, %"struct.pov::Pattern_Struct"* %80)
  %81 = load i32, i32* @_ZN3pov13backtraceFlagE, align 4
  %82 = icmp ne i32 %81, 0
  br i1 %82, label %83, label %92

; <label>:83:                                     ; preds = %76
  %84 = load float*, float** %9, align 8
  %85 = load %"struct.pov::Texture_Struct"*, %"struct.pov::Texture_Struct"** %10, align 8
  %86 = getelementptr inbounds [3 x double], [3 x double]* %23, i32 0, i32 0
  %87 = load double*, double** %12, align 8
  %88 = load %"struct.pov::Ray_Struct"*, %"struct.pov::Ray_Struct"** %13, align 8
  %89 = load double, double* %14, align 8
  %90 = load %"struct.pov::istk_entry"*, %"struct.pov::istk_entry"** %15, align 8
  %91 = load i32, i32* %16, align 4
  call void @_ZN3povL26backtrace_average_texturesEPfPNS_14Texture_StructEPdS3_PNS_10Ray_StructEdPNS_10istk_entryEi(float* %84, %"struct.pov::Texture_Struct"* %85, double* %86, double* %87, %"struct.pov::Ray_Struct"* %88, double %89, %"struct.pov::istk_entry"* %90, i32 %91)
  br label %101

; <label>:92:                                     ; preds = %76
  %93 = load float*, float** %9, align 8
  %94 = load %"struct.pov::Texture_Struct"*, %"struct.pov::Texture_Struct"** %10, align 8
  %95 = getelementptr inbounds [3 x double], [3 x double]* %23, i32 0, i32 0
  %96 = load double*, double** %12, align 8
  %97 = load %"struct.pov::Ray_Struct"*, %"struct.pov::Ray_Struct"** %13, align 8
  %98 = load double, double* %14, align 8
  %99 = load %"struct.pov::istk_entry"*, %"struct.pov::istk_entry"** %15, align 8
  %100 = load i32, i32* %16, align 4
  call void @_ZN3povL16average_texturesEPfPNS_14Texture_StructEPdS3_PNS_10Ray_StructEdPNS_10istk_entryEi(float* %93, %"struct.pov::Texture_Struct"* %94, double* %95, double* %96, %"struct.pov::Ray_Struct"* %97, double %98, %"struct.pov::istk_entry"* %99, i32 %100)
  br label %101

; <label>:101:                                    ; preds = %92, %83
  br label %188

; <label>:102:                                    ; preds = %69
  %103 = load %"struct.pov::istk_entry"*, %"struct.pov::istk_entry"** %15, align 8
  %104 = getelementptr inbounds %"struct.pov::istk_entry", %"struct.pov::istk_entry"* %103, i32 0, i32 5
  %105 = load %"struct.pov::Object_Struct"*, %"struct.pov::Object_Struct"** %104, align 8
  %106 = getelementptr inbounds %"struct.pov::Object_Struct", %"struct.pov::Object_Struct"* %105, i32 0, i32 0
  %107 = load %"struct.pov::Method_Struct"*, %"struct.pov::Method_Struct"** %106, align 8
  %108 = getelementptr inbounds %"struct.pov::Method_Struct", %"struct.pov::Method_Struct"* %107, i32 0, i32 3
  %109 = load void (double*, %"struct.pov::Object_Struct"*, %"struct.pov::istk_entry"*)*, void (double*, %"struct.pov::Object_Struct"*, %"struct.pov::istk_entry"*)** %108, align 8
  %110 = getelementptr inbounds [2 x double], [2 x double]* %24, i32 0, i32 0
  %111 = load %"struct.pov::istk_entry"*, %"struct.pov::istk_entry"** %15, align 8
  %112 = getelementptr inbounds %"struct.pov::istk_entry", %"struct.pov::istk_entry"* %111, i32 0, i32 5
  %113 = load %"struct.pov::Object_Struct"*, %"struct.pov::Object_Struct"** %112, align 8
  %114 = load %"struct.pov::istk_entry"*, %"struct.pov::istk_entry"** %15, align 8
  call void %109(double* %110, %"struct.pov::Object_Struct"* %113, %"struct.pov::istk_entry"* %114)
  %115 = getelementptr inbounds [2 x double], [2 x double]* %24, i64 0, i64 0
  %116 = load double, double* %115, align 16
  %117 = getelementptr inbounds [3 x double], [3 x double]* %23, i64 0, i64 0
  store double %116, double* %117, align 16
  %118 = getelementptr inbounds [2 x double], [2 x double]* %24, i64 0, i64 1
  %119 = load double, double* %118, align 8
  %120 = getelementptr inbounds [3 x double], [3 x double]* %23, i64 0, i64 1
  store double %119, double* %120, align 8
  %121 = getelementptr inbounds [3 x double], [3 x double]* %23, i64 0, i64 2
  store double 0.000000e+00, double* %121, align 16
  %122 = load %"struct.pov::Texture_Struct"*, %"struct.pov::Texture_Struct"** %10, align 8
  %123 = getelementptr inbounds %"struct.pov::Texture_Struct", %"struct.pov::Texture_Struct"* %122, i32 0, i32 9
  %124 = load %"struct.pov::Blend_Map_Struct"*, %"struct.pov::Blend_Map_Struct"** %123, align 8
  %125 = getelementptr inbounds %"struct.pov::Blend_Map_Struct", %"struct.pov::Blend_Map_Struct"* %124, i32 0, i32 4
  %126 = load %"struct.pov::Blend_Map_Entry"*, %"struct.pov::Blend_Map_Entry"** %125, align 8
  %127 = getelementptr inbounds %"struct.pov::Blend_Map_Entry", %"struct.pov::Blend_Map_Entry"* %126, i64 0
  store %"struct.pov::Blend_Map_Entry"* %127, %"struct.pov::Blend_Map_Entry"** %19, align 8
  %128 = load float*, float** %9, align 8
  %129 = load %"struct.pov::Blend_Map_Entry"*, %"struct.pov::Blend_Map_Entry"** %19, align 8
  %130 = getelementptr inbounds %"struct.pov::Blend_Map_Entry", %"struct.pov::Blend_Map_Entry"* %129, i32 0, i32 2
  %131 = bitcast %union.anon* %130 to %"struct.pov::Texture_Struct"**
  %132 = load %"struct.pov::Texture_Struct"*, %"struct.pov::Texture_Struct"** %131, align 8
  %133 = getelementptr inbounds [3 x double], [3 x double]* %23, i32 0, i32 0
  %134 = load double*, double** %12, align 8
  %135 = load %"struct.pov::Ray_Struct"*, %"struct.pov::Ray_Struct"** %13, align 8
  %136 = load double, double* %14, align 8
  %137 = load %"struct.pov::istk_entry"*, %"struct.pov::istk_entry"** %15, align 8
  %138 = load i32, i32* %16, align 4
  call void @_ZN3povL14do_texture_mapEPfPNS_14Texture_StructEPdS3_PNS_10Ray_StructEdPNS_10istk_entryEi(float* %128, %"struct.pov::Texture_Struct"* %132, double* %133, double* %134, %"struct.pov::Ray_Struct"* %135, double %136, %"struct.pov::istk_entry"* %137, i32 %138)
  br label %188

; <label>:139:                                    ; preds = %69
  %140 = getelementptr inbounds [3 x double], [3 x double]* %23, i32 0, i32 0
  %141 = load double*, double** %11, align 8
  %142 = load %"struct.pov::Texture_Struct"*, %"struct.pov::Texture_Struct"** %10, align 8
  %143 = bitcast %"struct.pov::Texture_Struct"* %142 to %"struct.pov::Pattern_Struct"*
  call void @_ZN3pov11Warp_EPointEPdS0_PNS_14Pattern_StructE(double* %140, double* %141, %"struct.pov::Pattern_Struct"* %143)
  %144 = getelementptr inbounds [3 x double], [3 x double]* %23, i32 0, i32 0
  %145 = load %"struct.pov::Texture_Struct"*, %"struct.pov::Texture_Struct"** %10, align 8
  %146 = call %"struct.pov::Texture_Struct"* @_ZN3pov12material_mapEPdPNS_14Texture_StructE(double* %144, %"struct.pov::Texture_Struct"* %145)
  store %"struct.pov::Texture_Struct"* %146, %"struct.pov::Texture_Struct"** %10, align 8
  %147 = load float*, float** %9, align 8
  %148 = load %"struct.pov::Texture_Struct"*, %"struct.pov::Texture_Struct"** %10, align 8
  %149 = getelementptr inbounds [3 x double], [3 x double]* %23, i32 0, i32 0
  %150 = load double*, double** %12, align 8
  %151 = load %"struct.pov::Ray_Struct"*, %"struct.pov::Ray_Struct"** %13, align 8
  %152 = load double, double* %14, align 8
  %153 = load %"struct.pov::istk_entry"*, %"struct.pov::istk_entry"** %15, align 8
  %154 = load i32, i32* %16, align 4
  call void @_ZN3povL14do_texture_mapEPfPNS_14Texture_StructEPdS3_PNS_10Ray_StructEdPNS_10istk_entryEi(float* %147, %"struct.pov::Texture_Struct"* %148, double* %149, double* %150, %"struct.pov::Ray_Struct"* %151, double %152, %"struct.pov::istk_entry"* %153, i32 %154)
  br label %188

; <label>:155:                                    ; preds = %69
  %156 = load i32, i32* @_ZN3pov13backtraceFlagE, align 4
  %157 = icmp ne i32 %156, 0
  br i1 %157, label %158, label %166

; <label>:158:                                    ; preds = %155
  %159 = load float*, float** %9, align 8
  %160 = load %"struct.pov::Texture_Struct"*, %"struct.pov::Texture_Struct"** %10, align 8
  %161 = load double*, double** %11, align 8
  %162 = load double*, double** %12, align 8
  %163 = load %"struct.pov::Ray_Struct"*, %"struct.pov::Ray_Struct"** %13, align 8
  %164 = load double, double* %14, align 8
  %165 = load %"struct.pov::istk_entry"*, %"struct.pov::istk_entry"** %15, align 8
  call void @_ZN3povL25compute_backtrace_textureEPfPNS_14Texture_StructEPdS3_PNS_10Ray_StructEdPNS_10istk_entryE(float* %159, %"struct.pov::Texture_Struct"* %160, double* %161, double* %162, %"struct.pov::Ray_Struct"* %163, double %164, %"struct.pov::istk_entry"* %165)
  br label %185

; <label>:166:                                    ; preds = %155
  %167 = load i32, i32* %16, align 4
  %168 = icmp ne i32 %167, 0
  br i1 %168, label %169, label %176

; <label>:169:                                    ; preds = %166
  %170 = load float*, float** %9, align 8
  %171 = load %"struct.pov::Texture_Struct"*, %"struct.pov::Texture_Struct"** %10, align 8
  %172 = load double*, double** %11, align 8
  %173 = load double*, double** %12, align 8
  %174 = load %"struct.pov::Ray_Struct"*, %"struct.pov::Ray_Struct"** %13, align 8
  %175 = load %"struct.pov::istk_entry"*, %"struct.pov::istk_entry"** %15, align 8
  call void @_ZN3povL22compute_shadow_textureEPfPNS_14Texture_StructEPdS3_PNS_10Ray_StructEPNS_10istk_entryE(float* %170, %"struct.pov::Texture_Struct"* %171, double* %172, double* %173, %"struct.pov::Ray_Struct"* %174, %"struct.pov::istk_entry"* %175)
  br label %184

; <label>:176:                                    ; preds = %166
  %177 = load float*, float** %9, align 8
  %178 = load %"struct.pov::Texture_Struct"*, %"struct.pov::Texture_Struct"** %10, align 8
  %179 = load double*, double** %11, align 8
  %180 = load double*, double** %12, align 8
  %181 = load %"struct.pov::Ray_Struct"*, %"struct.pov::Ray_Struct"** %13, align 8
  %182 = load double, double* %14, align 8
  %183 = load %"struct.pov::istk_entry"*, %"struct.pov::istk_entry"** %15, align 8
  call void @_ZN3povL23compute_lighted_textureEPfPNS_14Texture_StructEPdS3_PNS_10Ray_StructEdPNS_10istk_entryE(float* %177, %"struct.pov::Texture_Struct"* %178, double* %179, double* %180, %"struct.pov::Ray_Struct"* %181, double %182, %"struct.pov::istk_entry"* %183)
  br label %184

; <label>:184:                                    ; preds = %176, %169
  br label %185

; <label>:185:                                    ; preds = %184, %158
  br label %188

; <label>:186:                                    ; preds = %69
  %187 = call i32 (i8*, ...) @_ZN3pov5ErrorEPKcz(i8* getelementptr inbounds ([37 x i8], [37 x i8]* @.str.9, i32 0, i32 0))
  br label %188

; <label>:188:                                    ; preds = %186, %185, %139, %102, %101, %74
  br label %325

; <label>:189:                                    ; preds = %63
  %190 = getelementptr inbounds [3 x double], [3 x double]* %23, i32 0, i32 0
  %191 = load double*, double** %11, align 8
  %192 = load %"struct.pov::Texture_Struct"*, %"struct.pov::Texture_Struct"** %10, align 8
  %193 = bitcast %"struct.pov::Texture_Struct"* %192 to %"struct.pov::Pattern_Struct"*
  call void @_ZN3pov11Warp_EPointEPdS0_PNS_14Pattern_StructE(double* %190, double* %191, %"struct.pov::Pattern_Struct"* %193)
  %194 = load %"struct.pov::Texture_Struct"*, %"struct.pov::Texture_Struct"** %10, align 8
  %195 = bitcast %"struct.pov::Texture_Struct"* %194 to %"struct.pov::Pattern_Struct"*
  %196 = getelementptr inbounds [3 x double], [3 x double]* %23, i32 0, i32 0
  %197 = load %"struct.pov::istk_entry"*, %"struct.pov::istk_entry"** %15, align 8
  %198 = call double @_ZN3pov13Evaluate_TPatEPNS_14Pattern_StructEPdPNS_10istk_entryE(%"struct.pov::Pattern_Struct"* %195, double* %196, %"struct.pov::istk_entry"* %197)
  store double %198, double* %20, align 8
  %199 = load double, double* %20, align 8
  %200 = load %"struct.pov::Blend_Map_Struct"*, %"struct.pov::Blend_Map_Struct"** %17, align 8
  call void @_ZN3pov16Search_Blend_MapEdPNS_16Blend_Map_StructEPPNS_15Blend_Map_EntryES4_(double %199, %"struct.pov::Blend_Map_Struct"* %200, %"struct.pov::Blend_Map_Entry"** %18, %"struct.pov::Blend_Map_Entry"** %19)
  %201 = getelementptr inbounds [3 x double], [3 x double]* %23, i32 0, i32 0
  %202 = load double*, double** %11, align 8
  %203 = load %"struct.pov::Texture_Struct"*, %"struct.pov::Texture_Struct"** %10, align 8
  %204 = bitcast %"struct.pov::Texture_Struct"* %203 to %"struct.pov::Pattern_Struct"*
  call void @_ZN3pov11Warp_EPointEPdS0_PNS_14Pattern_StructE(double* %201, double* %202, %"struct.pov::Pattern_Struct"* %204)
  %205 = load i32, i32* @_ZN3pov13backtraceFlagE, align 4
  %206 = icmp ne i32 %205, 0
  br i1 %206, label %207, label %272

; <label>:207:                                    ; preds = %189
  %208 = load %"struct.pov::Blend_Map_Entry"*, %"struct.pov::Blend_Map_Entry"** %18, align 8
  %209 = load %"struct.pov::Blend_Map_Entry"*, %"struct.pov::Blend_Map_Entry"** %19, align 8
  %210 = icmp eq %"struct.pov::Blend_Map_Entry"* %208, %209
  br i1 %210, label %211, label %223

; <label>:211:                                    ; preds = %207
  %212 = load float*, float** %9, align 8
  %213 = load %"struct.pov::Blend_Map_Entry"*, %"struct.pov::Blend_Map_Entry"** %19, align 8
  %214 = getelementptr inbounds %"struct.pov::Blend_Map_Entry", %"struct.pov::Blend_Map_Entry"* %213, i32 0, i32 2
  %215 = bitcast %union.anon* %214 to %"struct.pov::Texture_Struct"**
  %216 = load %"struct.pov::Texture_Struct"*, %"struct.pov::Texture_Struct"** %215, align 8
  %217 = getelementptr inbounds [3 x double], [3 x double]* %23, i32 0, i32 0
  %218 = load double*, double** %12, align 8
  %219 = load %"struct.pov::Ray_Struct"*, %"struct.pov::Ray_Struct"** %13, align 8
  %220 = load double, double* %14, align 8
  %221 = load %"struct.pov::istk_entry"*, %"struct.pov::istk_entry"** %15, align 8
  %222 = load i32, i32* %16, align 4
  call void @_ZN3povL14do_texture_mapEPfPNS_14Texture_StructEPdS3_PNS_10Ray_StructEdPNS_10istk_entryEi(float* %212, %"struct.pov::Texture_Struct"* %216, double* %217, double* %218, %"struct.pov::Ray_Struct"* %219, double %220, %"struct.pov::istk_entry"* %221, i32 %222)
  br label %271

; <label>:223:                                    ; preds = %207
  %224 = load double, double* %20, align 8
  %225 = load %"struct.pov::Blend_Map_Entry"*, %"struct.pov::Blend_Map_Entry"** %18, align 8
  %226 = getelementptr inbounds %"struct.pov::Blend_Map_Entry", %"struct.pov::Blend_Map_Entry"* %225, i32 0, i32 0
  %227 = load float, float* %226, align 8
  %228 = fpext float %227 to double
  %229 = fsub double %224, %228
  %230 = load %"struct.pov::Blend_Map_Entry"*, %"struct.pov::Blend_Map_Entry"** %19, align 8
  %231 = getelementptr inbounds %"struct.pov::Blend_Map_Entry", %"struct.pov::Blend_Map_Entry"* %230, i32 0, i32 0
  %232 = load float, float* %231, align 8
  %233 = load %"struct.pov::Blend_Map_Entry"*, %"struct.pov::Blend_Map_Entry"** %18, align 8
  %234 = getelementptr inbounds %"struct.pov::Blend_Map_Entry", %"struct.pov::Blend_Map_Entry"* %233, i32 0, i32 0
  %235 = load float, float* %234, align 8
  %236 = fsub float %232, %235
  %237 = fpext float %236 to double
  %238 = fdiv double %229, %237
  store double %238, double* %20, align 8
  %239 = load double, double* %20, align 8
  %240 = fsub double 1.000000e+00, %239
  store double %240, double* %21, align 8
  %241 = getelementptr inbounds [5 x float], [5 x float]* %22, i32 0, i32 0
  %242 = load float*, float** %9, align 8
  %243 = load double, double* %20, align 8
  %244 = fptrunc double %243 to float
  call void @_ZN3pov6VScaleEPfPKff(float* %241, float* %242, float %244)
  %245 = getelementptr inbounds [5 x float], [5 x float]* %22, i32 0, i32 0
  %246 = load %"struct.pov::Blend_Map_Entry"*, %"struct.pov::Blend_Map_Entry"** %19, align 8
  %247 = getelementptr inbounds %"struct.pov::Blend_Map_Entry", %"struct.pov::Blend_Map_Entry"* %246, i32 0, i32 2
  %248 = bitcast %union.anon* %247 to %"struct.pov::Texture_Struct"**
  %249 = load %"struct.pov::Texture_Struct"*, %"struct.pov::Texture_Struct"** %248, align 8
  %250 = getelementptr inbounds [3 x double], [3 x double]* %23, i32 0, i32 0
  %251 = load double*, double** %12, align 8
  %252 = load %"struct.pov::Ray_Struct"*, %"struct.pov::Ray_Struct"** %13, align 8
  %253 = load double, double* %14, align 8
  %254 = load %"struct.pov::istk_entry"*, %"struct.pov::istk_entry"** %15, align 8
  %255 = load i32, i32* %16, align 4
  call void @_ZN3povL14do_texture_mapEPfPNS_14Texture_StructEPdS3_PNS_10Ray_StructEdPNS_10istk_entryEi(float* %245, %"struct.pov::Texture_Struct"* %249, double* %250, double* %251, %"struct.pov::Ray_Struct"* %252, double %253, %"struct.pov::istk_entry"* %254, i32 %255)
  %256 = getelementptr inbounds [5 x float], [5 x float]* %22, i32 0, i32 0
  %257 = load float*, float** %9, align 8
  %258 = load double, double* %21, align 8
  %259 = fptrunc double %258 to float
  call void @_ZN3pov6VScaleEPfPKff(float* %256, float* %257, float %259)
  %260 = getelementptr inbounds [5 x float], [5 x float]* %22, i32 0, i32 0
  %261 = load %"struct.pov::Blend_Map_Entry"*, %"struct.pov::Blend_Map_Entry"** %18, align 8
  %262 = getelementptr inbounds %"struct.pov::Blend_Map_Entry", %"struct.pov::Blend_Map_Entry"* %261, i32 0, i32 2
  %263 = bitcast %union.anon* %262 to %"struct.pov::Texture_Struct"**
  %264 = load %"struct.pov::Texture_Struct"*, %"struct.pov::Texture_Struct"** %263, align 8
  %265 = getelementptr inbounds [3 x double], [3 x double]* %23, i32 0, i32 0
  %266 = load double*, double** %12, align 8
  %267 = load %"struct.pov::Ray_Struct"*, %"struct.pov::Ray_Struct"** %13, align 8
  %268 = load double, double* %14, align 8
  %269 = load %"struct.pov::istk_entry"*, %"struct.pov::istk_entry"** %15, align 8
  %270 = load i32, i32* %16, align 4
  call void @_ZN3povL14do_texture_mapEPfPNS_14Texture_StructEPdS3_PNS_10Ray_StructEdPNS_10istk_entryEi(float* %260, %"struct.pov::Texture_Struct"* %264, double* %265, double* %266, %"struct.pov::Ray_Struct"* %267, double %268, %"struct.pov::istk_entry"* %269, i32 %270)
  br label %271

; <label>:271:                                    ; preds = %223, %211
  br label %324

; <label>:272:                                    ; preds = %189
  %273 = load float*, float** %9, align 8
  %274 = load %"struct.pov::Blend_Map_Entry"*, %"struct.pov::Blend_Map_Entry"** %19, align 8
  %275 = getelementptr inbounds %"struct.pov::Blend_Map_Entry", %"struct.pov::Blend_Map_Entry"* %274, i32 0, i32 2
  %276 = bitcast %union.anon* %275 to %"struct.pov::Texture_Struct"**
  %277 = load %"struct.pov::Texture_Struct"*, %"struct.pov::Texture_Struct"** %276, align 8
  %278 = getelementptr inbounds [3 x double], [3 x double]* %23, i32 0, i32 0
  %279 = load double*, double** %12, align 8
  %280 = load %"struct.pov::Ray_Struct"*, %"struct.pov::Ray_Struct"** %13, align 8
  %281 = load double, double* %14, align 8
  %282 = load %"struct.pov::istk_entry"*, %"struct.pov::istk_entry"** %15, align 8
  %283 = load i32, i32* %16, align 4
  call void @_ZN3povL14do_texture_mapEPfPNS_14Texture_StructEPdS3_PNS_10Ray_StructEdPNS_10istk_entryEi(float* %273, %"struct.pov::Texture_Struct"* %277, double* %278, double* %279, %"struct.pov::Ray_Struct"* %280, double %281, %"struct.pov::istk_entry"* %282, i32 %283)
  %284 = load %"struct.pov::Blend_Map_Entry"*, %"struct.pov::Blend_Map_Entry"** %18, align 8
  %285 = load %"struct.pov::Blend_Map_Entry"*, %"struct.pov::Blend_Map_Entry"** %19, align 8
  %286 = icmp ne %"struct.pov::Blend_Map_Entry"* %284, %285
  br i1 %286, label %287, label %323

; <label>:287:                                    ; preds = %272
  %288 = getelementptr inbounds [5 x float], [5 x float]* %22, i32 0, i32 0
  %289 = load %"struct.pov::Blend_Map_Entry"*, %"struct.pov::Blend_Map_Entry"** %18, align 8
  %290 = getelementptr inbounds %"struct.pov::Blend_Map_Entry", %"struct.pov::Blend_Map_Entry"* %289, i32 0, i32 2
  %291 = bitcast %union.anon* %290 to %"struct.pov::Texture_Struct"**
  %292 = load %"struct.pov::Texture_Struct"*, %"struct.pov::Texture_Struct"** %291, align 8
  %293 = getelementptr inbounds [3 x double], [3 x double]* %23, i32 0, i32 0
  %294 = load double*, double** %12, align 8
  %295 = load %"struct.pov::Ray_Struct"*, %"struct.pov::Ray_Struct"** %13, align 8
  %296 = load double, double* %14, align 8
  %297 = load %"struct.pov::istk_entry"*, %"struct.pov::istk_entry"** %15, align 8
  %298 = load i32, i32* %16, align 4
  call void @_ZN3povL14do_texture_mapEPfPNS_14Texture_StructEPdS3_PNS_10Ray_StructEdPNS_10istk_entryEi(float* %288, %"struct.pov::Texture_Struct"* %292, double* %293, double* %294, %"struct.pov::Ray_Struct"* %295, double %296, %"struct.pov::istk_entry"* %297, i32 %298)
  %299 = load double, double* %20, align 8
  %300 = load %"struct.pov::Blend_Map_Entry"*, %"struct.pov::Blend_Map_Entry"** %18, align 8
  %301 = getelementptr inbounds %"struct.pov::Blend_Map_Entry", %"struct.pov::Blend_Map_Entry"* %300, i32 0, i32 0
  %302 = load float, float* %301, align 8
  %303 = fpext float %302 to double
  %304 = fsub double %299, %303
  %305 = load %"struct.pov::Blend_Map_Entry"*, %"struct.pov::Blend_Map_Entry"** %19, align 8
  %306 = getelementptr inbounds %"struct.pov::Blend_Map_Entry", %"struct.pov::Blend_Map_Entry"* %305, i32 0, i32 0
  %307 = load float, float* %306, align 8
  %308 = load %"struct.pov::Blend_Map_Entry"*, %"struct.pov::Blend_Map_Entry"** %18, align 8
  %309 = getelementptr inbounds %"struct.pov::Blend_Map_Entry", %"struct.pov::Blend_Map_Entry"* %308, i32 0, i32 0
  %310 = load float, float* %309, align 8
  %311 = fsub float %307, %310
  %312 = fpext float %311 to double
  %313 = fdiv double %304, %312
  store double %313, double* %20, align 8
  %314 = load double, double* %20, align 8
  %315 = fsub double 1.000000e+00, %314
  store double %315, double* %21, align 8
  %316 = load float*, float** %9, align 8
  %317 = load double, double* %20, align 8
  %318 = fptrunc double %317 to float
  %319 = load float*, float** %9, align 8
  %320 = load double, double* %21, align 8
  %321 = fptrunc double %320 to float
  %322 = getelementptr inbounds [5 x float], [5 x float]* %22, i32 0, i32 0
  call void @_ZN3pov9CLinComb2EPffPKffS2_(float* %316, float %318, float* %319, float %321, float* %322)
  br label %323

; <label>:323:                                    ; preds = %287, %272
  br label %324

; <label>:324:                                    ; preds = %323, %271
  br label %325

; <label>:325:                                    ; preds = %324, %188
  %326 = load i8, i8* %25, align 1
  %327 = trunc i8 %326 to i1
  %328 = zext i1 %327 to i32
  %329 = icmp eq i32 %328, 1
  br i1 %329, label %330, label %335

; <label>:330:                                    ; preds = %325
  %331 = load i32, i32* @_ZN3pov18warpNormalTexturesE, align 4
  %332 = sub i32 0, -1
  %333 = sub i32 %331, %332
  %334 = add nsw i32 %331, -1
  store i32 %333, i32* @_ZN3pov18warpNormalTexturesE, align 4
  br label %335

; <label>:335:                                    ; preds = %330, %325
  ret void
}

; Function Attrs: noinline uwtable
define i32 @_ZN3pov11Test_ShadowEPNS_19Light_Source_StructEPdPNS_10Ray_StructES4_S2_Pf(%"struct.pov::Light_Source_Struct"*, double*, %"struct.pov::Ray_Struct"*, %"struct.pov::Ray_Struct"*, double*, float*) #0 {
  %7 = alloca i32, align 4
  %8 = alloca %"struct.pov::Light_Source_Struct"*, align 8
  %9 = alloca double*, align 8
  %10 = alloca %"struct.pov::Ray_Struct"*, align 8
  %11 = alloca %"struct.pov::Ray_Struct"*, align 8
  %12 = alloca double*, align 8
  %13 = alloca float*, align 8
  store %"struct.pov::Light_Source_Struct"* %0, %"struct.pov::Light_Source_Struct"** %8, align 8
  store double* %1, double** %9, align 8
  store %"struct.pov::Ray_Struct"* %2, %"struct.pov::Ray_Struct"** %10, align 8
  store %"struct.pov::Ray_Struct"* %3, %"struct.pov::Ray_Struct"** %11, align 8
  store double* %4, double** %12, align 8
  store float* %5, float** %13, align 8
  %14 = load %"struct.pov::Light_Source_Struct"*, %"struct.pov::Light_Source_Struct"** %8, align 8
  %15 = load double*, double** %9, align 8
  %16 = load %"struct.pov::Ray_Struct"*, %"struct.pov::Ray_Struct"** %10, align 8
  %17 = load %"struct.pov::Ray_Struct"*, %"struct.pov::Ray_Struct"** %11, align 8
  %18 = load double*, double** %12, align 8
  %19 = load float*, float** %13, align 8
  call void @_ZN3povL8do_lightEPNS_19Light_Source_StructEPdPNS_10Ray_StructES4_S2_Pf(%"struct.pov::Light_Source_Struct"* %14, double* %15, %"struct.pov::Ray_Struct"* %16, %"struct.pov::Ray_Struct"* %17, double* %18, float* %19)
  %20 = load float*, float** %13, align 8
  %21 = getelementptr inbounds float, float* %20, i64 0
  %22 = load float, float* %21, align 4
  %23 = call float @_ZSt4fabsf(float %22)
  %24 = fpext float %23 to double
  %25 = fcmp olt double %24, 1.000000e-07
  br i1 %25, label %26, label %41

; <label>:26:                                     ; preds = %6
  %27 = load float*, float** %13, align 8
  %28 = getelementptr inbounds float, float* %27, i64 1
  %29 = load float, float* %28, align 4
  %30 = call float @_ZSt4fabsf(float %29)
  %31 = fpext float %30 to double
  %32 = fcmp olt double %31, 1.000000e-07
  br i1 %32, label %33, label %41

; <label>:33:                                     ; preds = %26
  %34 = load float*, float** %13, align 8
  %35 = getelementptr inbounds float, float* %34, i64 2
  %36 = load float, float* %35, align 4
  %37 = call float @_ZSt4fabsf(float %36)
  %38 = fpext float %37 to double
  %39 = fcmp olt double %38, 1.000000e-07
  br i1 %39, label %40, label %41

; <label>:40:                                     ; preds = %33
  store i32 1, i32* %7, align 4
  br label %96

; <label>:41:                                     ; preds = %33, %26, %6
  %42 = load i32, i32* getelementptr inbounds (%"struct.pov::OPTIONS_STRUCT", %"struct.pov::OPTIONS_STRUCT"* @_ZN3pov4optsE, i32 0, i32 13), align 8
  %43 = zext i32 %42 to i64
  %44 = xor i64 %43, -1
  %45 = xor i64 4, -1
  %46 = xor i64 -6664465373439565209, -1
  %47 = or i64 %44, %45
  %48 = or i64 -6664465373439565209, %46
  %49 = xor i64 %47, -1
  %50 = and i64 %49, %48
  %51 = and i64 %43, 4
  %52 = icmp ne i64 %50, 0
  br i1 %52, label %53, label %94

; <label>:53:                                     ; preds = %41
  %54 = load %"struct.pov::Light_Source_Struct"*, %"struct.pov::Light_Source_Struct"** %8, align 8
  %55 = getelementptr inbounds %"struct.pov::Light_Source_Struct", %"struct.pov::Light_Source_Struct"* %54, i32 0, i32 42
  %56 = load %"struct.pov::Object_Struct"*, %"struct.pov::Object_Struct"** %55, align 8
  %57 = icmp ne %"struct.pov::Object_Struct"* %56, null
  br i1 %57, label %64, label %58

; <label>:58:                                     ; preds = %53
  %59 = load %"struct.pov::Light_Source_Struct"*, %"struct.pov::Light_Source_Struct"** %8, align 8
  %60 = getelementptr inbounds %"struct.pov::Light_Source_Struct", %"struct.pov::Light_Source_Struct"* %59, i32 0, i32 27
  %61 = load i8, i8* %60, align 8
  %62 = zext i8 %61 to i32
  %63 = icmp ne i32 %62, 3
  br i1 %63, label %64, label %94

; <label>:64:                                     ; preds = %58, %53
  %65 = load %"struct.pov::Light_Source_Struct"*, %"struct.pov::Light_Source_Struct"** %8, align 8
  %66 = load double*, double** %9, align 8
  %67 = load double, double* %66, align 8
  %68 = load %"struct.pov::Ray_Struct"*, %"struct.pov::Ray_Struct"** %10, align 8
  %69 = load %"struct.pov::Ray_Struct"*, %"struct.pov::Ray_Struct"** %11, align 8
  %70 = load double*, double** %12, align 8
  %71 = load float*, float** %13, align 8
  call void @_ZN3povL18block_light_sourceEPNS_19Light_Source_StructEdPNS_10Ray_StructES3_PdPf(%"struct.pov::Light_Source_Struct"* %65, double %67, %"struct.pov::Ray_Struct"* %68, %"struct.pov::Ray_Struct"* %69, double* %70, float* %71)
  %72 = load float*, float** %13, align 8
  %73 = getelementptr inbounds float, float* %72, i64 0
  %74 = load float, float* %73, align 4
  %75 = call float @_ZSt4fabsf(float %74)
  %76 = fpext float %75 to double
  %77 = fcmp olt double %76, 1.000000e-07
  br i1 %77, label %78, label %93

; <label>:78:                                     ; preds = %64
  %79 = load float*, float** %13, align 8
  %80 = getelementptr inbounds float, float* %79, i64 1
  %81 = load float, float* %80, align 4
  %82 = call float @_ZSt4fabsf(float %81)
  %83 = fpext float %82 to double
  %84 = fcmp olt double %83, 1.000000e-07
  br i1 %84, label %85, label %93

; <label>:85:                                     ; preds = %78
  %86 = load float*, float** %13, align 8
  %87 = getelementptr inbounds float, float* %86, i64 2
  %88 = load float, float* %87, align 4
  %89 = call float @_ZSt4fabsf(float %88)
  %90 = fpext float %89 to double
  %91 = fcmp olt double %90, 1.000000e-07
  br i1 %91, label %92, label %93

; <label>:92:                                     ; preds = %85
  store i32 1, i32* %7, align 4
  br label %96

; <label>:93:                                     ; preds = %85, %78, %64
  br label %94

; <label>:94:                                     ; preds = %93, %58, %41
  br label %95

; <label>:95:                                     ; preds = %94
  store i32 0, i32* %7, align 4
  br label %96

; <label>:96:                                     ; preds = %95, %92, %40
  %97 = load i32, i32* %7, align 4
  ret i32 %97
}

; Function Attrs: noinline uwtable
define internal void @_ZN3povL8do_lightEPNS_19Light_Source_StructEPdPNS_10Ray_StructES4_S2_Pf(%"struct.pov::Light_Source_Struct"*, double*, %"struct.pov::Ray_Struct"*, %"struct.pov::Ray_Struct"*, double*, float*) #0 {
  %7 = alloca %"struct.pov::Light_Source_Struct"*, align 8
  %8 = alloca double*, align 8
  %9 = alloca %"struct.pov::Ray_Struct"*, align 8
  %10 = alloca %"struct.pov::Ray_Struct"*, align 8
  %11 = alloca double*, align 8
  %12 = alloca float*, align 8
  %13 = alloca double, align 8
  %14 = alloca double, align 8
  %15 = alloca [3 x double], align 16
  %16 = alloca double, align 8
  %17 = alloca [3 x double], align 16
  store %"struct.pov::Light_Source_Struct"* %0, %"struct.pov::Light_Source_Struct"** %7, align 8
  store double* %1, double** %8, align 8
  store %"struct.pov::Ray_Struct"* %2, %"struct.pov::Ray_Struct"** %9, align 8
  store %"struct.pov::Ray_Struct"* %3, %"struct.pov::Ray_Struct"** %10, align 8
  store double* %4, double** %11, align 8
  store float* %5, float** %12, align 8
  %18 = load float*, float** %12, align 8
  %19 = load %"struct.pov::Light_Source_Struct"*, %"struct.pov::Light_Source_Struct"** %7, align 8
  %20 = getelementptr inbounds %"struct.pov::Light_Source_Struct", %"struct.pov::Light_Source_Struct"* %19, i32 0, i32 15
  %21 = getelementptr inbounds [5 x float], [5 x float]* %20, i32 0, i32 0
  call void @_ZN3pov13Assign_ColourEPfS0_(float* %18, float* %21)
  %22 = load %"struct.pov::Ray_Struct"*, %"struct.pov::Ray_Struct"** %9, align 8
  %23 = getelementptr inbounds %"struct.pov::Ray_Struct", %"struct.pov::Ray_Struct"* %22, i32 0, i32 0
  %24 = getelementptr inbounds [3 x double], [3 x double]* %23, i32 0, i32 0
  %25 = load double*, double** %11, align 8
  call void @_ZN3pov13Assign_VectorEPdS0_(double* %24, double* %25)
  %26 = load %"struct.pov::Light_Source_Struct"*, %"struct.pov::Light_Source_Struct"** %7, align 8
  %27 = getelementptr inbounds %"struct.pov::Light_Source_Struct", %"struct.pov::Light_Source_Struct"* %26, i32 0, i32 27
  %28 = load i8, i8* %27, align 8
  %29 = zext i8 %28 to i32
  %30 = icmp eq i32 %29, 4
  br i1 %30, label %31, label %72

; <label>:31:                                     ; preds = %6
  %32 = load %"struct.pov::Ray_Struct"*, %"struct.pov::Ray_Struct"** %9, align 8
  %33 = getelementptr inbounds %"struct.pov::Ray_Struct", %"struct.pov::Ray_Struct"* %32, i32 0, i32 1
  %34 = getelementptr inbounds [3 x double], [3 x double]* %33, i32 0, i32 0
  %35 = load %"struct.pov::Light_Source_Struct"*, %"struct.pov::Light_Source_Struct"** %7, align 8
  %36 = getelementptr inbounds %"struct.pov::Light_Source_Struct", %"struct.pov::Light_Source_Struct"* %35, i32 0, i32 17
  %37 = getelementptr inbounds [3 x double], [3 x double]* %36, i32 0, i32 0
  %38 = load double*, double** %11, align 8
  call void @_ZN3pov4VSubEPdPKdS2_(double* %34, double* %37, double* %38)
  %39 = load double*, double** %8, align 8
  %40 = load %"struct.pov::Ray_Struct"*, %"struct.pov::Ray_Struct"** %9, align 8
  %41 = getelementptr inbounds %"struct.pov::Ray_Struct", %"struct.pov::Ray_Struct"* %40, i32 0, i32 1
  %42 = getelementptr inbounds [3 x double], [3 x double]* %41, i32 0, i32 0
  call void @_ZN3pov7VLengthERdPKd(double* dereferenceable(8) %39, double* %42)
  %43 = load %"struct.pov::Ray_Struct"*, %"struct.pov::Ray_Struct"** %9, align 8
  %44 = getelementptr inbounds %"struct.pov::Ray_Struct", %"struct.pov::Ray_Struct"* %43, i32 0, i32 1
  %45 = getelementptr inbounds [3 x double], [3 x double]* %44, i32 0, i32 0
  %46 = load %"struct.pov::Light_Source_Struct"*, %"struct.pov::Light_Source_Struct"** %7, align 8
  %47 = getelementptr inbounds %"struct.pov::Light_Source_Struct", %"struct.pov::Light_Source_Struct"* %46, i32 0, i32 17
  %48 = getelementptr inbounds [3 x double], [3 x double]* %47, i32 0, i32 0
  %49 = load %"struct.pov::Light_Source_Struct"*, %"struct.pov::Light_Source_Struct"** %7, align 8
  %50 = getelementptr inbounds %"struct.pov::Light_Source_Struct", %"struct.pov::Light_Source_Struct"* %49, i32 0, i32 18
  %51 = getelementptr inbounds [3 x double], [3 x double]* %50, i32 0, i32 0
  call void @_ZN3pov4VSubEPdPKdS2_(double* %45, double* %48, double* %51)
  %52 = getelementptr inbounds [3 x double], [3 x double]* %17, i32 0, i32 0
  %53 = load %"struct.pov::Light_Source_Struct"*, %"struct.pov::Light_Source_Struct"** %7, align 8
  %54 = getelementptr inbounds %"struct.pov::Light_Source_Struct", %"struct.pov::Light_Source_Struct"* %53, i32 0, i32 17
  %55 = getelementptr inbounds [3 x double], [3 x double]* %54, i32 0, i32 0
  %56 = load double*, double** %11, align 8
  call void @_ZN3pov4VSubEPdPKdS2_(double* %52, double* %55, double* %56)
  %57 = load %"struct.pov::Ray_Struct"*, %"struct.pov::Ray_Struct"** %9, align 8
  %58 = getelementptr inbounds %"struct.pov::Ray_Struct", %"struct.pov::Ray_Struct"* %57, i32 0, i32 1
  %59 = getelementptr inbounds [3 x double], [3 x double]* %58, i32 0, i32 0
  call void @_ZN3pov7VLengthERdPKd(double* dereferenceable(8) %16, double* %59)
  %60 = load double*, double** %8, align 8
  %61 = getelementptr inbounds [3 x double], [3 x double]* %17, i32 0, i32 0
  %62 = load %"struct.pov::Ray_Struct"*, %"struct.pov::Ray_Struct"** %9, align 8
  %63 = getelementptr inbounds %"struct.pov::Ray_Struct", %"struct.pov::Ray_Struct"* %62, i32 0, i32 1
  %64 = getelementptr inbounds [3 x double], [3 x double]* %63, i32 0, i32 0
  call void @_ZN3pov4VDotERdPKdS2_(double* dereferenceable(8) %60, double* %61, double* %64)
  %65 = load double, double* %16, align 8
  %66 = load double*, double** %8, align 8
  %67 = load double, double* %66, align 8
  %68 = fdiv double %67, %65
  store double %68, double* %66, align 8
  %69 = load %"struct.pov::Ray_Struct"*, %"struct.pov::Ray_Struct"** %9, align 8
  %70 = getelementptr inbounds %"struct.pov::Ray_Struct", %"struct.pov::Ray_Struct"* %69, i32 0, i32 1
  %71 = getelementptr inbounds [3 x double], [3 x double]* %70, i32 0, i32 0
  call void @_ZN3pov12VNormalizeEqEPd(double* %71)
  br label %89

; <label>:72:                                     ; preds = %6
  %73 = load %"struct.pov::Ray_Struct"*, %"struct.pov::Ray_Struct"** %9, align 8
  %74 = getelementptr inbounds %"struct.pov::Ray_Struct", %"struct.pov::Ray_Struct"* %73, i32 0, i32 1
  %75 = getelementptr inbounds [3 x double], [3 x double]* %74, i32 0, i32 0
  %76 = load %"struct.pov::Light_Source_Struct"*, %"struct.pov::Light_Source_Struct"** %7, align 8
  %77 = getelementptr inbounds %"struct.pov::Light_Source_Struct", %"struct.pov::Light_Source_Struct"* %76, i32 0, i32 17
  %78 = getelementptr inbounds [3 x double], [3 x double]* %77, i32 0, i32 0
  %79 = load double*, double** %11, align 8
  call void @_ZN3pov4VSubEPdPKdS2_(double* %75, double* %78, double* %79)
  %80 = load double*, double** %8, align 8
  %81 = load %"struct.pov::Ray_Struct"*, %"struct.pov::Ray_Struct"** %9, align 8
  %82 = getelementptr inbounds %"struct.pov::Ray_Struct", %"struct.pov::Ray_Struct"* %81, i32 0, i32 1
  %83 = getelementptr inbounds [3 x double], [3 x double]* %82, i32 0, i32 0
  call void @_ZN3pov7VLengthERdPKd(double* dereferenceable(8) %80, double* %83)
  %84 = load %"struct.pov::Ray_Struct"*, %"struct.pov::Ray_Struct"** %9, align 8
  %85 = getelementptr inbounds %"struct.pov::Ray_Struct", %"struct.pov::Ray_Struct"* %84, i32 0, i32 1
  %86 = getelementptr inbounds [3 x double], [3 x double]* %85, i32 0, i32 0
  %87 = load double*, double** %8, align 8
  %88 = load double, double* %87, align 8
  call void @_ZN3pov15VInverseScaleEqEPdd(double* %86, double %88)
  br label %89

; <label>:89:                                     ; preds = %72, %31
  %90 = load %"struct.pov::Light_Source_Struct"*, %"struct.pov::Light_Source_Struct"** %7, align 8
  %91 = load %"struct.pov::Ray_Struct"*, %"struct.pov::Ray_Struct"** %9, align 8
  %92 = load double*, double** %8, align 8
  %93 = load double, double* %92, align 8
  %94 = call double @_ZN3pov15Attenuate_LightEPNS_19Light_Source_StructEPNS_10Ray_StructEd(%"struct.pov::Light_Source_Struct"* %90, %"struct.pov::Ray_Struct"* %91, double %93)
  store double %94, double* %13, align 8
  %95 = load %"struct.pov::Light_Source_Struct"*, %"struct.pov::Light_Source_Struct"** %7, align 8
  %96 = getelementptr inbounds %"struct.pov::Light_Source_Struct", %"struct.pov::Light_Source_Struct"* %95, i32 0, i32 33
  %97 = load i8, i8* %96, align 2
  %98 = icmp ne i8 %97, 0
  br i1 %98, label %99, label %147

; <label>:99:                                     ; preds = %89
  %100 = load %"struct.pov::Light_Source_Struct"*, %"struct.pov::Light_Source_Struct"** %7, align 8
  %101 = getelementptr inbounds %"struct.pov::Light_Source_Struct", %"struct.pov::Light_Source_Struct"* %100, i32 0, i32 28
  %102 = load i8, i8* %101, align 1
  %103 = icmp ne i8 %102, 0
  br i1 %103, label %104, label %125

; <label>:104:                                    ; preds = %99
  %105 = getelementptr inbounds [3 x double], [3 x double]* %15, i32 0, i32 0
  %106 = load %"struct.pov::Light_Source_Struct"*, %"struct.pov::Light_Source_Struct"** %7, align 8
  %107 = getelementptr inbounds %"struct.pov::Light_Source_Struct", %"struct.pov::Light_Source_Struct"* %106, i32 0, i32 17
  %108 = getelementptr inbounds [3 x double], [3 x double]* %107, i32 0, i32 0
  %109 = load %"struct.pov::Light_Source_Struct"*, %"struct.pov::Light_Source_Struct"** %7, align 8
  %110 = getelementptr inbounds %"struct.pov::Light_Source_Struct", %"struct.pov::Light_Source_Struct"* %109, i32 0, i32 18
  %111 = getelementptr inbounds [3 x double], [3 x double]* %110, i32 0, i32 0
  call void @_ZN3pov4VSubEPdPKdS2_(double* %105, double* %108, double* %111)
  %112 = getelementptr inbounds [3 x double], [3 x double]* %15, i32 0, i32 0
  call void @_ZN3pov12VNormalizeEqEPd(double* %112)
  %113 = getelementptr inbounds [3 x double], [3 x double]* %15, i32 0, i32 0
  %114 = load %"struct.pov::Ray_Struct"*, %"struct.pov::Ray_Struct"** %9, align 8
  %115 = getelementptr inbounds %"struct.pov::Ray_Struct", %"struct.pov::Ray_Struct"* %114, i32 0, i32 1
  %116 = getelementptr inbounds [3 x double], [3 x double]* %115, i32 0, i32 0
  call void @_ZN3pov4VDotERdPKdS2_(double* dereferenceable(8) %14, double* %113, double* %116)
  %117 = load double, double* %14, align 8
  %118 = load double*, double** %8, align 8
  %119 = load double, double* %118, align 8
  %120 = fmul double %119, %117
  store double %120, double* %118, align 8
  %121 = load %"struct.pov::Ray_Struct"*, %"struct.pov::Ray_Struct"** %9, align 8
  %122 = getelementptr inbounds %"struct.pov::Ray_Struct", %"struct.pov::Ray_Struct"* %121, i32 0, i32 1
  %123 = getelementptr inbounds [3 x double], [3 x double]* %122, i32 0, i32 0
  %124 = getelementptr inbounds [3 x double], [3 x double]* %15, i32 0, i32 0
  call void @_ZN3pov13Assign_VectorEPdS0_(double* %123, double* %124)
  br label %146

; <label>:125:                                    ; preds = %99
  %126 = load %"struct.pov::Light_Source_Struct"*, %"struct.pov::Light_Source_Struct"** %7, align 8
  %127 = getelementptr inbounds %"struct.pov::Light_Source_Struct", %"struct.pov::Light_Source_Struct"* %126, i32 0, i32 16
  %128 = getelementptr inbounds [3 x double], [3 x double]* %127, i32 0, i32 0
  %129 = load %"struct.pov::Ray_Struct"*, %"struct.pov::Ray_Struct"** %9, align 8
  %130 = getelementptr inbounds %"struct.pov::Ray_Struct", %"struct.pov::Ray_Struct"* %129, i32 0, i32 1
  %131 = getelementptr inbounds [3 x double], [3 x double]* %130, i32 0, i32 0
  call void @_ZN3pov4VDotERdPKdS2_(double* dereferenceable(8) %14, double* %128, double* %131)
  %132 = load double, double* %14, align 8
  %133 = fsub double -0.000000e+00, %132
  %134 = load double*, double** %8, align 8
  %135 = load double, double* %134, align 8
  %136 = fmul double %135, %133
  store double %136, double* %134, align 8
  %137 = load %"struct.pov::Ray_Struct"*, %"struct.pov::Ray_Struct"** %9, align 8
  %138 = getelementptr inbounds %"struct.pov::Ray_Struct", %"struct.pov::Ray_Struct"* %137, i32 0, i32 1
  %139 = getelementptr inbounds [3 x double], [3 x double]* %138, i32 0, i32 0
  %140 = load %"struct.pov::Light_Source_Struct"*, %"struct.pov::Light_Source_Struct"** %7, align 8
  %141 = getelementptr inbounds %"struct.pov::Light_Source_Struct", %"struct.pov::Light_Source_Struct"* %140, i32 0, i32 16
  %142 = getelementptr inbounds [3 x double], [3 x double]* %141, i32 0, i32 0
  call void @_ZN3pov13Assign_VectorEPdS0_(double* %139, double* %142)
  %143 = load %"struct.pov::Ray_Struct"*, %"struct.pov::Ray_Struct"** %9, align 8
  %144 = getelementptr inbounds %"struct.pov::Ray_Struct", %"struct.pov::Ray_Struct"* %143, i32 0, i32 1
  %145 = getelementptr inbounds [3 x double], [3 x double]* %144, i32 0, i32 0
  call void @_ZN3pov8VScaleEqEPdd(double* %145, double -1.000000e+00)
  br label %146

; <label>:146:                                    ; preds = %125, %104
  br label %147

; <label>:147:                                    ; preds = %146, %89
  %148 = load float*, float** %12, align 8
  %149 = load double, double* %13, align 8
  %150 = fptrunc double %149 to float
  call void @_ZN3pov8VScaleEqEPff(float* %148, float %150)
  %151 = load %"struct.pov::Ray_Struct"*, %"struct.pov::Ray_Struct"** %9, align 8
  call void @_ZN3pov25Initialize_Ray_ContainersEPNS_10Ray_StructEj(%"struct.pov::Ray_Struct"* %151, i32 0)
  %152 = load %"struct.pov::Ray_Struct"*, %"struct.pov::Ray_Struct"** %9, align 8
  %153 = load %"struct.pov::Ray_Struct"*, %"struct.pov::Ray_Struct"** %10, align 8
  call void @_ZN3pov19Copy_Ray_ContainersEPNS_10Ray_StructES1_(%"struct.pov::Ray_Struct"* %152, %"struct.pov::Ray_Struct"* %153)
  ret void
}

; Function Attrs: noinline nounwind uwtable
define linkonce_odr float @_ZSt4fabsf(float) #1 comdat {
  %2 = alloca float, align 4
  store float %0, float* %2, align 4
  %3 = load float, float* %2, align 4
  %4 = call float @llvm.fabs.f32(float %3)
  ret float %4
}

; Function Attrs: noinline uwtable
define internal void @_ZN3povL18block_light_sourceEPNS_19Light_Source_StructEdPNS_10Ray_StructES3_PdPf(%"struct.pov::Light_Source_Struct"*, double, %"struct.pov::Ray_Struct"*, %"struct.pov::Ray_Struct"*, double*, float*) #0 {
  %7 = alloca %"struct.pov::Light_Source_Struct"*, align 8
  %8 = alloca double, align 8
  %9 = alloca %"struct.pov::Ray_Struct"*, align 8
  %10 = alloca %"struct.pov::Ray_Struct"*, align 8
  %11 = alloca double*, align 8
  %12 = alloca float*, align 8
  %13 = alloca double, align 8
  %14 = alloca %"struct.pov::istk_entry", align 8
  %15 = alloca %"struct.pov::Ray_Struct", align 8
  store %"struct.pov::Light_Source_Struct"* %0, %"struct.pov::Light_Source_Struct"** %7, align 8
  store double %1, double* %8, align 8
  store %"struct.pov::Ray_Struct"* %2, %"struct.pov::Ray_Struct"** %9, align 8
  store %"struct.pov::Ray_Struct"* %3, %"struct.pov::Ray_Struct"** %10, align 8
  store double* %4, double** %11, align 8
  store float* %5, float** %12, align 8
  %16 = load %"struct.pov::Light_Source_Struct"*, %"struct.pov::Light_Source_Struct"** %7, align 8
  %17 = getelementptr inbounds %"struct.pov::Light_Source_Struct", %"struct.pov::Light_Source_Struct"* %16, i32 0, i32 13
  %18 = load i32, i32* %17, align 4
  store i32 %18, i32* getelementptr inbounds (%"struct.pov::photon_options_struct", %"struct.pov::photon_options_struct"* @_ZN3pov13photonOptionsE, i32 0, i32 25), align 8
  %19 = load double, double* %8, align 8
  store double %19, double* %13, align 8
  %20 = load %"struct.pov::Ray_Struct"*, %"struct.pov::Ray_Struct"** %9, align 8
  %21 = bitcast %"struct.pov::Ray_Struct"* %15 to i8*
  %22 = bitcast %"struct.pov::Ray_Struct"* %20 to i8*
  call void @llvm.memcpy.p0i8.p0i8.i64(i8* %21, i8* %22, i64 856, i32 8, i1 false)
  %23 = getelementptr inbounds %"struct.pov::Ray_Struct", %"struct.pov::Ray_Struct"* %15, i32 0, i32 3
  store i32 1, i32* %23, align 4
  %24 = load %"struct.pov::Light_Source_Struct"*, %"struct.pov::Light_Source_Struct"** %7, align 8
  %25 = getelementptr inbounds %"struct.pov::Light_Source_Struct", %"struct.pov::Light_Source_Struct"* %24, i32 0, i32 28
  %26 = load i8, i8* %25, align 1
  %27 = icmp ne i8 %26, 0
  br i1 %27, label %28, label %45

; <label>:28:                                     ; preds = %6
  %29 = load i32, i32* getelementptr inbounds (%"struct.pov::OPTIONS_STRUCT", %"struct.pov::OPTIONS_STRUCT"* @_ZN3pov4optsE, i32 0, i32 13), align 8
  %30 = zext i32 %29 to i64
  %31 = xor i64 %30, -1
  %32 = xor i64 8, -1
  %33 = xor i64 8210269287716427612, -1
  %34 = or i64 %31, %32
  %35 = or i64 8210269287716427612, %33
  %36 = xor i64 %34, -1
  %37 = and i64 %36, %35
  %38 = and i64 %30, 8
  %39 = icmp ne i64 %37, 0
  br i1 %39, label %40, label %45

; <label>:40:                                     ; preds = %28
  %41 = load %"struct.pov::Light_Source_Struct"*, %"struct.pov::Light_Source_Struct"** %7, align 8
  %42 = load %"struct.pov::Ray_Struct"*, %"struct.pov::Ray_Struct"** %10, align 8
  %43 = load double*, double** %11, align 8
  %44 = load float*, float** %12, align 8
  call void @_ZN3povL16block_area_lightEPNS_19Light_Source_StructEPdPNS_10Ray_StructES4_S2_Pfiiiii(%"struct.pov::Light_Source_Struct"* %41, double* %13, %"struct.pov::Ray_Struct"* %15, %"struct.pov::Ray_Struct"* %42, double* %43, float* %44, i32 0, i32 0, i32 0, i32 0, i32 0)
  br label %80

; <label>:45:                                     ; preds = %28, %6
  %46 = load i32, i32* getelementptr inbounds (%"struct.pov::OPTIONS_STRUCT", %"struct.pov::OPTIONS_STRUCT"* @_ZN3pov4optsE, i32 0, i32 0), align 8
  %47 = zext i32 %46 to i64
  %48 = xor i64 4096, -1
  %49 = xor i64 %47, %48
  %50 = and i64 %49, %47
  %51 = and i64 %47, 4096
  %52 = icmp ne i64 %50, 0
  br i1 %52, label %53, label %76

; <label>:53:                                     ; preds = %45
  %54 = load %"struct.pov::Light_Source_Struct"*, %"struct.pov::Light_Source_Struct"** %7, align 8
  %55 = getelementptr inbounds %"struct.pov::Light_Source_Struct", %"struct.pov::Light_Source_Struct"* %54, i32 0, i32 27
  %56 = load i8, i8* %55, align 8
  %57 = zext i8 %56 to i32
  %58 = icmp ne i32 %57, 4
  br i1 %58, label %59, label %76

; <label>:59:                                     ; preds = %53
  %60 = load %"struct.pov::Light_Source_Struct"*, %"struct.pov::Light_Source_Struct"** %7, align 8
  %61 = getelementptr inbounds %"struct.pov::Light_Source_Struct", %"struct.pov::Light_Source_Struct"* %60, i32 0, i32 33
  %62 = load i8, i8* %61, align 2
  %63 = icmp ne i8 %62, 0
  br i1 %63, label %76, label %64

; <label>:64:                                     ; preds = %59
  %65 = load %"struct.pov::Light_Source_Struct"*, %"struct.pov::Light_Source_Struct"** %7, align 8
  %66 = getelementptr inbounds %"struct.pov::Light_Source_Struct", %"struct.pov::Light_Source_Struct"* %65, i32 0, i32 1
  %67 = load i32, i32* %66, align 8
  %68 = xor i32 4096, -1
  %69 = xor i32 %67, %68
  %70 = and i32 %69, %67
  %71 = and i32 %67, 4096
  %72 = icmp ne i32 %70, 4096
  br i1 %72, label %73, label %76

; <label>:73:                                     ; preds = %64
  %74 = load %"struct.pov::Light_Source_Struct"*, %"struct.pov::Light_Source_Struct"** %7, align 8
  %75 = load float*, float** %12, align 8
  call void @_ZN3povL25block_point_light_LBufferEPNS_19Light_Source_StructEPdPNS_10Ray_StructEPf(%"struct.pov::Light_Source_Struct"* %74, double* %13, %"struct.pov::Ray_Struct"* %15, float* %75)
  br label %79

; <label>:76:                                     ; preds = %64, %59, %53, %45
  %77 = load %"struct.pov::Light_Source_Struct"*, %"struct.pov::Light_Source_Struct"** %7, align 8
  %78 = load float*, float** %12, align 8
  call void @_ZN3povL17block_point_lightEPNS_19Light_Source_StructEPdPNS_10Ray_StructEPf(%"struct.pov::Light_Source_Struct"* %77, double* %13, %"struct.pov::Ray_Struct"* %15, float* %78)
  br label %79

; <label>:79:                                     ; preds = %76, %73
  br label %80

; <label>:80:                                     ; preds = %79, %40
  %81 = load double, double* %13, align 8
  %82 = fcmp ogt double %81, 1.000000e-03
  br i1 %82, label %83, label %98

; <label>:83:                                     ; preds = %80
  %84 = load %"struct.pov::Light_Source_Struct"*, %"struct.pov::Light_Source_Struct"** %7, align 8
  %85 = getelementptr inbounds %"struct.pov::Light_Source_Struct", %"struct.pov::Light_Source_Struct"* %84, i32 0, i32 39
  %86 = load i32, i32* %85, align 8
  %87 = icmp ne i32 %86, 0
  br i1 %87, label %88, label %98

; <label>:88:                                     ; preds = %83
  %89 = load %"struct.pov::Light_Source_Struct"*, %"struct.pov::Light_Source_Struct"** %7, align 8
  %90 = getelementptr inbounds %"struct.pov::Light_Source_Struct", %"struct.pov::Light_Source_Struct"* %89, i32 0, i32 38
  %91 = load i32, i32* %90, align 4
  %92 = icmp ne i32 %91, 0
  br i1 %92, label %93, label %98

; <label>:93:                                     ; preds = %88
  %94 = load double, double* %13, align 8
  %95 = getelementptr inbounds %"struct.pov::istk_entry", %"struct.pov::istk_entry"* %14, i32 0, i32 0
  store double %94, double* %95, align 8
  %96 = getelementptr inbounds %"struct.pov::istk_entry", %"struct.pov::istk_entry"* %14, i32 0, i32 5
  store %"struct.pov::Object_Struct"* null, %"struct.pov::Object_Struct"** %96, align 8
  %97 = load float*, float** %12, align 8
  call void @_ZN3povL23do_light_ray_atmosphereEPNS_10Ray_StructEPNS_10istk_entryEPfi(%"struct.pov::Ray_Struct"* %15, %"struct.pov::istk_entry"* %14, float* %97, i32 0)
  br label %98

; <label>:98:                                     ; preds = %93, %88, %83, %80
  ret void
}

; Function Attrs: noinline uwtable
define void @_ZN3pov10do_diffuseEPNS_13Finish_StructEPNS_10Ray_StructEPdPfS5_S5_d(%"struct.pov::Finish_Struct"*, %"struct.pov::Ray_Struct"*, double*, float*, float*, float*, double) #0 {
  %8 = alloca %"struct.pov::Finish_Struct"*, align 8
  %9 = alloca %"struct.pov::Ray_Struct"*, align 8
  %10 = alloca double*, align 8
  %11 = alloca float*, align 8
  %12 = alloca float*, align 8
  %13 = alloca float*, align 8
  %14 = alloca double, align 8
  %15 = alloca double, align 8
  %16 = alloca double, align 8
  store %"struct.pov::Finish_Struct"* %0, %"struct.pov::Finish_Struct"** %8, align 8
  store %"struct.pov::Ray_Struct"* %1, %"struct.pov::Ray_Struct"** %9, align 8
  store double* %2, double** %10, align 8
  store float* %3, float** %11, align 8
  store float* %4, float** %12, align 8
  store float* %5, float** %13, align 8
  store double %6, double* %14, align 8
  %17 = load double*, double** %10, align 8
  %18 = load %"struct.pov::Ray_Struct"*, %"struct.pov::Ray_Struct"** %9, align 8
  %19 = getelementptr inbounds %"struct.pov::Ray_Struct", %"struct.pov::Ray_Struct"* %18, i32 0, i32 1
  %20 = getelementptr inbounds [3 x double], [3 x double]* %19, i32 0, i32 0
  call void @_ZN3pov4VDotERdPKdS2_(double* dereferenceable(8) %15, double* %17, double* %20)
  %21 = load %"struct.pov::Finish_Struct"*, %"struct.pov::Finish_Struct"** %8, align 8
  %22 = getelementptr inbounds %"struct.pov::Finish_Struct", %"struct.pov::Finish_Struct"* %21, i32 0, i32 1
  %23 = load float, float* %22, align 4
  %24 = fpext float %23 to double
  %25 = fcmp une double %24, 1.000000e+00
  br i1 %25, label %26, label %34

; <label>:26:                                     ; preds = %7
  %27 = load double, double* %15, align 8
  %28 = call double @fabs(double %27) #5
  %29 = load %"struct.pov::Finish_Struct"*, %"struct.pov::Finish_Struct"** %8, align 8
  %30 = getelementptr inbounds %"struct.pov::Finish_Struct", %"struct.pov::Finish_Struct"* %29, i32 0, i32 1
  %31 = load float, float* %30, align 4
  %32 = fpext float %31 to double
  %33 = call double @pow(double %28, double %32) #7
  store double %33, double* %16, align 8
  br label %37

; <label>:34:                                     ; preds = %7
  %35 = load double, double* %15, align 8
  %36 = call double @fabs(double %35) #5
  store double %36, double* %16, align 8
  br label %37

; <label>:37:                                     ; preds = %34, %26
  %38 = load %"struct.pov::Finish_Struct"*, %"struct.pov::Finish_Struct"** %8, align 8
  %39 = getelementptr inbounds %"struct.pov::Finish_Struct", %"struct.pov::Finish_Struct"* %38, i32 0, i32 0
  %40 = load float, float* %39, align 4
  %41 = fpext float %40 to double
  %42 = load double, double* %14, align 8
  %43 = fmul double %41, %42
  %44 = load double, double* %16, align 8
  %45 = fmul double %44, %43
  store double %45, double* %16, align 8
  %46 = load %"struct.pov::Finish_Struct"*, %"struct.pov::Finish_Struct"** %8, align 8
  %47 = getelementptr inbounds %"struct.pov::Finish_Struct", %"struct.pov::Finish_Struct"* %46, i32 0, i32 14
  %48 = load float, float* %47, align 4
  %49 = fpext float %48 to double
  %50 = fcmp ogt double %49, 0.000000e+00
  br i1 %50, label %51, label %62

; <label>:51:                                     ; preds = %37
  %52 = call i32 @_ZN3pov8POV_RANDEv()
  %53 = sitofp i32 %52 to double
  %54 = fmul double %53, 0x3F0000200040021E
  %55 = load %"struct.pov::Finish_Struct"*, %"struct.pov::Finish_Struct"** %8, align 8
  %56 = getelementptr inbounds %"struct.pov::Finish_Struct", %"struct.pov::Finish_Struct"* %55, i32 0, i32 14
  %57 = load float, float* %56, align 4
  %58 = fpext float %57 to double
  %59 = fmul double %54, %58
  %60 = load double, double* %16, align 8
  %61 = fsub double %60, %59
  store double %61, double* %16, align 8
  br label %62

; <label>:62:                                     ; preds = %51, %37
  %63 = load double, double* %16, align 8
  %64 = load float*, float** %13, align 8
  %65 = getelementptr inbounds float, float* %64, i64 0
  %66 = load float, float* %65, align 4
  %67 = fpext float %66 to double
  %68 = fmul double %63, %67
  %69 = load float*, float** %12, align 8
  %70 = getelementptr inbounds float, float* %69, i64 0
  %71 = load float, float* %70, align 4
  %72 = fpext float %71 to double
  %73 = fmul double %68, %72
  %74 = load float*, float** %11, align 8
  %75 = getelementptr inbounds float, float* %74, i64 0
  %76 = load float, float* %75, align 4
  %77 = fpext float %76 to double
  %78 = fadd double %77, %73
  %79 = fptrunc double %78 to float
  store float %79, float* %75, align 4
  %80 = load double, double* %16, align 8
  %81 = load float*, float** %13, align 8
  %82 = getelementptr inbounds float, float* %81, i64 1
  %83 = load float, float* %82, align 4
  %84 = fpext float %83 to double
  %85 = fmul double %80, %84
  %86 = load float*, float** %12, align 8
  %87 = getelementptr inbounds float, float* %86, i64 1
  %88 = load float, float* %87, align 4
  %89 = fpext float %88 to double
  %90 = fmul double %85, %89
  %91 = load float*, float** %11, align 8
  %92 = getelementptr inbounds float, float* %91, i64 1
  %93 = load float, float* %92, align 4
  %94 = fpext float %93 to double
  %95 = fadd double %94, %90
  %96 = fptrunc double %95 to float
  store float %96, float* %92, align 4
  %97 = load double, double* %16, align 8
  %98 = load float*, float** %13, align 8
  %99 = getelementptr inbounds float, float* %98, i64 2
  %100 = load float, float* %99, align 4
  %101 = fpext float %100 to double
  %102 = fmul double %97, %101
  %103 = load float*, float** %12, align 8
  %104 = getelementptr inbounds float, float* %103, i64 2
  %105 = load float, float* %104, align 4
  %106 = fpext float %105 to double
  %107 = fmul double %102, %106
  %108 = load float*, float** %11, align 8
  %109 = getelementptr inbounds float, float* %108, i64 2
  %110 = load float, float* %109, align 4
  %111 = fpext float %110 to double
  %112 = fadd double %111, %107
  %113 = fptrunc double %112 to float
  store float %113, float* %109, align 4
  ret void
}

; Function Attrs: nounwind
declare double @pow(double, double) #3

; Function Attrs: nounwind readnone
declare double @fabs(double) #4

declare i32 @_ZN3pov8POV_RANDEv() #2

; Function Attrs: noinline uwtable
define void @_ZN3pov8do_phongEPNS_13Finish_StructEPNS_10Ray_StructEPdS4_PfS5_S5_(%"struct.pov::Finish_Struct"*, %"struct.pov::Ray_Struct"*, double*, double*, float*, float*, float*) #0 {
  %8 = alloca %"struct.pov::Finish_Struct"*, align 8
  %9 = alloca %"struct.pov::Ray_Struct"*, align 8
  %10 = alloca double*, align 8
  %11 = alloca double*, align 8
  %12 = alloca float*, align 8
  %13 = alloca float*, align 8
  %14 = alloca float*, align 8
  %15 = alloca double, align 8
  %16 = alloca double, align 8
  %17 = alloca [3 x double], align 16
  %18 = alloca double, align 8
  %19 = alloca double, align 8
  %20 = alloca double, align 8
  %21 = alloca [5 x float], align 16
  %22 = alloca double, align 8
  %23 = alloca double, align 8
  store %"struct.pov::Finish_Struct"* %0, %"struct.pov::Finish_Struct"** %8, align 8
  store %"struct.pov::Ray_Struct"* %1, %"struct.pov::Ray_Struct"** %9, align 8
  store double* %2, double** %10, align 8
  store double* %3, double** %11, align 8
  store float* %4, float** %12, align 8
  store float* %5, float** %13, align 8
  store float* %6, float** %14, align 8
  %24 = load double*, double** %10, align 8
  %25 = load double*, double** %11, align 8
  call void @_ZN3pov4VDotERdPKdS2_(double* dereferenceable(8) %15, double* %24, double* %25)
  %26 = load double, double* %15, align 8
  %27 = fmul double %26, -2.000000e+00
  store double %27, double* %15, align 8
  %28 = getelementptr inbounds [3 x double], [3 x double]* %17, i32 0, i32 0
  %29 = load double*, double** %10, align 8
  %30 = load double, double* %15, align 8
  %31 = load double*, double** %11, align 8
  call void @_ZN3pov9VLinComb2EPddPKddS2_(double* %28, double 1.000000e+00, double* %29, double %30, double* %31)
  %32 = getelementptr inbounds [3 x double], [3 x double]* %17, i32 0, i32 0
  %33 = load %"struct.pov::Ray_Struct"*, %"struct.pov::Ray_Struct"** %9, align 8
  %34 = getelementptr inbounds %"struct.pov::Ray_Struct", %"struct.pov::Ray_Struct"* %33, i32 0, i32 1
  %35 = getelementptr inbounds [3 x double], [3 x double]* %34, i32 0, i32 0
  call void @_ZN3pov4VDotERdPKdS2_(double* dereferenceable(8) %15, double* %32, double* %35)
  %36 = load double, double* %15, align 8
  %37 = fcmp ogt double %36, 0.000000e+00
  br i1 %37, label %38, label %187

; <label>:38:                                     ; preds = %7
  %39 = load %"struct.pov::Finish_Struct"*, %"struct.pov::Finish_Struct"** %8, align 8
  %40 = getelementptr inbounds %"struct.pov::Finish_Struct", %"struct.pov::Finish_Struct"* %39, i32 0, i32 5
  %41 = load float, float* %40, align 4
  %42 = fcmp olt float %41, 6.000000e+01
  br i1 %42, label %46, label %43

; <label>:43:                                     ; preds = %38
  %44 = load double, double* %15, align 8
  %45 = fcmp ogt double %44, 8.000000e-04
  br i1 %45, label %46, label %58

; <label>:46:                                     ; preds = %43, %38
  %47 = load %"struct.pov::Finish_Struct"*, %"struct.pov::Finish_Struct"** %8, align 8
  %48 = getelementptr inbounds %"struct.pov::Finish_Struct", %"struct.pov::Finish_Struct"* %47, i32 0, i32 4
  %49 = load float, float* %48, align 4
  %50 = fpext float %49 to double
  %51 = load double, double* %15, align 8
  %52 = load %"struct.pov::Finish_Struct"*, %"struct.pov::Finish_Struct"** %8, align 8
  %53 = getelementptr inbounds %"struct.pov::Finish_Struct", %"struct.pov::Finish_Struct"* %52, i32 0, i32 5
  %54 = load float, float* %53, align 4
  %55 = fpext float %54 to double
  %56 = call double @pow(double %51, double %55) #7
  %57 = fmul double %50, %56
  store double %57, double* %16, align 8
  br label %59

; <label>:58:                                     ; preds = %43
  store double 0.000000e+00, double* %16, align 8
  br label %59

; <label>:59:                                     ; preds = %58, %46
  %60 = load %"struct.pov::Finish_Struct"*, %"struct.pov::Finish_Struct"** %8, align 8
  %61 = getelementptr inbounds %"struct.pov::Finish_Struct", %"struct.pov::Finish_Struct"* %60, i32 0, i32 15
  %62 = load float, float* %61, align 4
  %63 = fpext float %62 to double
  %64 = fcmp ogt double %63, 0.000000e+00
  br i1 %64, label %65, label %149

; <label>:65:                                     ; preds = %59
  %66 = load double*, double** %11, align 8
  %67 = load %"struct.pov::Ray_Struct"*, %"struct.pov::Ray_Struct"** %9, align 8
  %68 = getelementptr inbounds %"struct.pov::Ray_Struct", %"struct.pov::Ray_Struct"* %67, i32 0, i32 1
  %69 = getelementptr inbounds [3 x double], [3 x double]* %68, i32 0, i32 0
  call void @_ZN3pov4VDotERdPKdS2_(double* dereferenceable(8) %18, double* %66, double* %69)
  %70 = load double, double* %18, align 8
  %71 = call double @acos(double %70) #7
  %72 = call double @fabs(double %71) #5
  %73 = fdiv double %72, 0x3FF921FB54442D18
  store double %73, double* %19, align 8
  %74 = load double, double* %19, align 8
  %75 = fsub double %74, 1.120000e+00
  %76 = call double @_ZN3pov3SqrEd(double %75)
  %77 = fdiv double 0x3F8DD56BD7BF6F16, %76
  %78 = fsub double %77, 0x3F87C88174C5E0DC
  store double %78, double* %20, align 8
  store double 1.000000e+00, double* %22, align 8
  store double 0.000000e+00, double* %23, align 8
  %79 = call dereferenceable(8) double* @_ZSt3maxIdERKT_S2_S2_(double* dereferenceable(8) %23, double* dereferenceable(8) %20)
  %80 = call dereferenceable(8) double* @_ZSt3minIdERKT_S2_S2_(double* dereferenceable(8) %22, double* dereferenceable(8) %79)
  %81 = load double, double* %80, align 8
  store double %81, double* %20, align 8
  %82 = load float*, float** %13, align 8
  %83 = getelementptr inbounds float, float* %82, i64 0
  %84 = load float, float* %83, align 4
  %85 = fpext float %84 to double
  %86 = load %"struct.pov::Finish_Struct"*, %"struct.pov::Finish_Struct"** %8, align 8
  %87 = getelementptr inbounds %"struct.pov::Finish_Struct", %"struct.pov::Finish_Struct"* %86, i32 0, i32 15
  %88 = load float, float* %87, align 4
  %89 = fpext float %88 to double
  %90 = load double, double* %20, align 8
  %91 = fsub double 1.000000e+00, %90
  %92 = fmul double %89, %91
  %93 = load float*, float** %14, align 8
  %94 = getelementptr inbounds float, float* %93, i64 0
  %95 = load float, float* %94, align 4
  %96 = fpext float %95 to double
  %97 = fsub double %96, 1.000000e+00
  %98 = fmul double %92, %97
  %99 = fadd double 1.000000e+00, %98
  %100 = fmul double %85, %99
  %101 = fptrunc double %100 to float
  %102 = getelementptr inbounds [5 x float], [5 x float]* %21, i64 0, i64 0
  store float %101, float* %102, align 16
  %103 = load float*, float** %13, align 8
  %104 = getelementptr inbounds float, float* %103, i64 1
  %105 = load float, float* %104, align 4
  %106 = fpext float %105 to double
  %107 = load %"struct.pov::Finish_Struct"*, %"struct.pov::Finish_Struct"** %8, align 8
  %108 = getelementptr inbounds %"struct.pov::Finish_Struct", %"struct.pov::Finish_Struct"* %107, i32 0, i32 15
  %109 = load float, float* %108, align 4
  %110 = fpext float %109 to double
  %111 = load double, double* %20, align 8
  %112 = fsub double 1.000000e+00, %111
  %113 = fmul double %110, %112
  %114 = load float*, float** %14, align 8
  %115 = getelementptr inbounds float, float* %114, i64 1
  %116 = load float, float* %115, align 4
  %117 = fpext float %116 to double
  %118 = fsub double %117, 1.000000e+00
  %119 = fmul double %113, %118
  %120 = fadd double 1.000000e+00, %119
  %121 = fmul double %106, %120
  %122 = fptrunc double %121 to float
  %123 = getelementptr inbounds [5 x float], [5 x float]* %21, i64 0, i64 1
  store float %122, float* %123, align 4
  %124 = load float*, float** %13, align 8
  %125 = getelementptr inbounds float, float* %124, i64 2
  %126 = load float, float* %125, align 4
  %127 = fpext float %126 to double
  %128 = load %"struct.pov::Finish_Struct"*, %"struct.pov::Finish_Struct"** %8, align 8
  %129 = getelementptr inbounds %"struct.pov::Finish_Struct", %"struct.pov::Finish_Struct"* %128, i32 0, i32 15
  %130 = load float, float* %129, align 4
  %131 = fpext float %130 to double
  %132 = load double, double* %20, align 8
  %133 = fsub double 1.000000e+00, %132
  %134 = fmul double %131, %133
  %135 = load float*, float** %14, align 8
  %136 = getelementptr inbounds float, float* %135, i64 2
  %137 = load float, float* %136, align 4
  %138 = fpext float %137 to double
  %139 = fsub double %138, 1.000000e+00
  %140 = fmul double %134, %139
  %141 = fadd double 1.000000e+00, %140
  %142 = fmul double %127, %141
  %143 = fptrunc double %142 to float
  %144 = getelementptr inbounds [5 x float], [5 x float]* %21, i64 0, i64 2
  store float %143, float* %144, align 8
  %145 = load float*, float** %12, align 8
  %146 = load double, double* %16, align 8
  %147 = fptrunc double %146 to float
  %148 = getelementptr inbounds [5 x float], [5 x float]* %21, i32 0, i32 0
  call void @_ZN3pov15CRGBAddScaledEqEPffPKf(float* %145, float %147, float* %148)
  br label %186

; <label>:149:                                    ; preds = %59
  %150 = load double, double* %16, align 8
  %151 = load float*, float** %13, align 8
  %152 = getelementptr inbounds float, float* %151, i64 0
  %153 = load float, float* %152, align 4
  %154 = fpext float %153 to double
  %155 = fmul double %150, %154
  %156 = load float*, float** %12, align 8
  %157 = getelementptr inbounds float, float* %156, i64 0
  %158 = load float, float* %157, align 4
  %159 = fpext float %158 to double
  %160 = fadd double %159, %155
  %161 = fptrunc double %160 to float
  store float %161, float* %157, align 4
  %162 = load double, double* %16, align 8
  %163 = load float*, float** %13, align 8
  %164 = getelementptr inbounds float, float* %163, i64 1
  %165 = load float, float* %164, align 4
  %166 = fpext float %165 to double
  %167 = fmul double %162, %166
  %168 = load float*, float** %12, align 8
  %169 = getelementptr inbounds float, float* %168, i64 1
  %170 = load float, float* %169, align 4
  %171 = fpext float %170 to double
  %172 = fadd double %171, %167
  %173 = fptrunc double %172 to float
  store float %173, float* %169, align 4
  %174 = load double, double* %16, align 8
  %175 = load float*, float** %13, align 8
  %176 = getelementptr inbounds float, float* %175, i64 2
  %177 = load float, float* %176, align 4
  %178 = fpext float %177 to double
  %179 = fmul double %174, %178
  %180 = load float*, float** %12, align 8
  %181 = getelementptr inbounds float, float* %180, i64 2
  %182 = load float, float* %181, align 4
  %183 = fpext float %182 to double
  %184 = fadd double %183, %179
  %185 = fptrunc double %184 to float
  store float %185, float* %181, align 4
  br label %186

; <label>:186:                                    ; preds = %149, %65
  br label %187

; <label>:187:                                    ; preds = %186, %7
  ret void
}

; Function Attrs: noinline nounwind uwtable
define linkonce_odr void @_ZN3pov9VLinComb2EPddPKddS2_(double*, double, double*, double, double*) #1 comdat {
  %6 = alloca double*, align 8
  %7 = alloca double, align 8
  %8 = alloca double*, align 8
  %9 = alloca double, align 8
  %10 = alloca double*, align 8
  store double* %0, double** %6, align 8
  store double %1, double* %7, align 8
  store double* %2, double** %8, align 8
  store double %3, double* %9, align 8
  store double* %4, double** %10, align 8
  %11 = load double, double* %7, align 8
  %12 = load double*, double** %8, align 8
  %13 = getelementptr inbounds double, double* %12, i64 0
  %14 = load double, double* %13, align 8
  %15 = fmul double %11, %14
  %16 = load double, double* %9, align 8
  %17 = load double*, double** %10, align 8
  %18 = getelementptr inbounds double, double* %17, i64 0
  %19 = load double, double* %18, align 8
  %20 = fmul double %16, %19
  %21 = fadd double %15, %20
  %22 = load double*, double** %6, align 8
  %23 = getelementptr inbounds double, double* %22, i64 0
  store double %21, double* %23, align 8
  %24 = load double, double* %7, align 8
  %25 = load double*, double** %8, align 8
  %26 = getelementptr inbounds double, double* %25, i64 1
  %27 = load double, double* %26, align 8
  %28 = fmul double %24, %27
  %29 = load double, double* %9, align 8
  %30 = load double*, double** %10, align 8
  %31 = getelementptr inbounds double, double* %30, i64 1
  %32 = load double, double* %31, align 8
  %33 = fmul double %29, %32
  %34 = fadd double %28, %33
  %35 = load double*, double** %6, align 8
  %36 = getelementptr inbounds double, double* %35, i64 1
  store double %34, double* %36, align 8
  %37 = load double, double* %7, align 8
  %38 = load double*, double** %8, align 8
  %39 = getelementptr inbounds double, double* %38, i64 2
  %40 = load double, double* %39, align 8
  %41 = fmul double %37, %40
  %42 = load double, double* %9, align 8
  %43 = load double*, double** %10, align 8
  %44 = getelementptr inbounds double, double* %43, i64 2
  %45 = load double, double* %44, align 8
  %46 = fmul double %42, %45
  %47 = fadd double %41, %46
  %48 = load double*, double** %6, align 8
  %49 = getelementptr inbounds double, double* %48, i64 2
  store double %47, double* %49, align 8
  ret void
}

; Function Attrs: nounwind
declare double @acos(double) #3

; Function Attrs: noinline nounwind uwtable
define linkonce_odr double @_ZN3pov3SqrEd(double) #1 comdat {
  %2 = alloca double, align 8
  store double %0, double* %2, align 8
  %3 = load double, double* %2, align 8
  %4 = load double, double* %2, align 8
  %5 = fmul double %3, %4
  ret double %5
}

; Function Attrs: noinline nounwind uwtable
define linkonce_odr dereferenceable(8) double* @_ZSt3minIdERKT_S2_S2_(double* dereferenceable(8), double* dereferenceable(8)) #1 comdat {
  %3 = alloca double*, align 8
  %4 = alloca double*, align 8
  %5 = alloca double*, align 8
  store double* %0, double** %4, align 8
  store double* %1, double** %5, align 8
  %6 = load double*, double** %5, align 8
  %7 = load double, double* %6, align 8
  %8 = load double*, double** %4, align 8
  %9 = load double, double* %8, align 8
  %10 = fcmp olt double %7, %9
  br i1 %10, label %11, label %13

; <label>:11:                                     ; preds = %2
  %12 = load double*, double** %5, align 8
  store double* %12, double** %3, align 8
  br label %15

; <label>:13:                                     ; preds = %2
  %14 = load double*, double** %4, align 8
  store double* %14, double** %3, align 8
  br label %15

; <label>:15:                                     ; preds = %13, %11
  %16 = load double*, double** %3, align 8
  ret double* %16
}

; Function Attrs: noinline nounwind uwtable
define linkonce_odr dereferenceable(8) double* @_ZSt3maxIdERKT_S2_S2_(double* dereferenceable(8), double* dereferenceable(8)) #1 comdat {
  %3 = alloca double*, align 8
  %4 = alloca double*, align 8
  %5 = alloca double*, align 8
  store double* %0, double** %4, align 8
  store double* %1, double** %5, align 8
  %6 = load double*, double** %4, align 8
  %7 = load double, double* %6, align 8
  %8 = load double*, double** %5, align 8
  %9 = load double, double* %8, align 8
  %10 = fcmp olt double %7, %9
  br i1 %10, label %11, label %13

; <label>:11:                                     ; preds = %2
  %12 = load double*, double** %5, align 8
  store double* %12, double** %3, align 8
  br label %15

; <label>:13:                                     ; preds = %2
  %14 = load double*, double** %4, align 8
  store double* %14, double** %3, align 8
  br label %15

; <label>:15:                                     ; preds = %13, %11
  %16 = load double*, double** %3, align 8
  ret double* %16
}

; Function Attrs: noinline nounwind uwtable
define linkonce_odr void @_ZN3pov15CRGBAddScaledEqEPffPKf(float*, float, float*) #1 comdat {
  %4 = alloca float*, align 8
  %5 = alloca float, align 4
  %6 = alloca float*, align 8
  store float* %0, float** %4, align 8
  store float %1, float* %5, align 4
  store float* %2, float** %6, align 8
  %7 = load float, float* %5, align 4
  %8 = load float*, float** %6, align 8
  %9 = getelementptr inbounds float, float* %8, i64 0
  %10 = load float, float* %9, align 4
  %11 = fmul float %7, %10
  %12 = load float*, float** %4, align 8
  %13 = getelementptr inbounds float, float* %12, i64 0
  %14 = load float, float* %13, align 4
  %15 = fadd float %14, %11
  store float %15, float* %13, align 4
  %16 = load float, float* %5, align 4
  %17 = load float*, float** %6, align 8
  %18 = getelementptr inbounds float, float* %17, i64 1
  %19 = load float, float* %18, align 4
  %20 = fmul float %16, %19
  %21 = load float*, float** %4, align 8
  %22 = getelementptr inbounds float, float* %21, i64 1
  %23 = load float, float* %22, align 4
  %24 = fadd float %23, %20
  store float %24, float* %22, align 4
  %25 = load float, float* %5, align 4
  %26 = load float*, float** %6, align 8
  %27 = getelementptr inbounds float, float* %26, i64 2
  %28 = load float, float* %27, align 4
  %29 = fmul float %25, %28
  %30 = load float*, float** %4, align 8
  %31 = getelementptr inbounds float, float* %30, i64 2
  %32 = load float, float* %31, align 4
  %33 = fadd float %32, %29
  store float %33, float* %31, align 4
  ret void
}

; Function Attrs: noinline uwtable
define void @_ZN3pov11do_specularEPNS_13Finish_StructEPNS_10Ray_StructEPdS4_PfS5_S5_(%"struct.pov::Finish_Struct"*, %"struct.pov::Ray_Struct"*, double*, double*, float*, float*, float*) #0 {
  %8 = alloca %"struct.pov::Finish_Struct"*, align 8
  %9 = alloca %"struct.pov::Ray_Struct"*, align 8
  %10 = alloca double*, align 8
  %11 = alloca double*, align 8
  %12 = alloca float*, align 8
  %13 = alloca float*, align 8
  %14 = alloca float*, align 8
  %15 = alloca double, align 8
  %16 = alloca double, align 8
  %17 = alloca double, align 8
  %18 = alloca [3 x double], align 16
  %19 = alloca double, align 8
  %20 = alloca double, align 8
  %21 = alloca double, align 8
  %22 = alloca [5 x float], align 16
  %23 = alloca double, align 8
  %24 = alloca double, align 8
  store %"struct.pov::Finish_Struct"* %0, %"struct.pov::Finish_Struct"** %8, align 8
  store %"struct.pov::Ray_Struct"* %1, %"struct.pov::Ray_Struct"** %9, align 8
  store double* %2, double** %10, align 8
  store double* %3, double** %11, align 8
  store float* %4, float** %12, align 8
  store float* %5, float** %13, align 8
  store float* %6, float** %14, align 8
  %25 = getelementptr inbounds [3 x double], [3 x double]* %18, i32 0, i32 0
  %26 = load double*, double** %10, align 8
  %27 = load %"struct.pov::Ray_Struct"*, %"struct.pov::Ray_Struct"** %9, align 8
  %28 = getelementptr inbounds %"struct.pov::Ray_Struct", %"struct.pov::Ray_Struct"* %27, i32 0, i32 1
  %29 = getelementptr inbounds [3 x double], [3 x double]* %28, i32 0, i32 0
  call void @_ZN3pov5VHalfEPdPKdS2_(double* %25, double* %26, double* %29)
  %30 = getelementptr inbounds [3 x double], [3 x double]* %18, i32 0, i32 0
  call void @_ZN3pov7VLengthERdPKd(double* dereferenceable(8) %17, double* %30)
  %31 = load double, double* %17, align 8
  %32 = fcmp ogt double %31, 0.000000e+00
  br i1 %32, label %33, label %181

; <label>:33:                                     ; preds = %7
  %34 = getelementptr inbounds [3 x double], [3 x double]* %18, i32 0, i32 0
  %35 = load double*, double** %11, align 8
  call void @_ZN3pov4VDotERdPKdS2_(double* dereferenceable(8) %15, double* %34, double* %35)
  %36 = load double, double* %17, align 8
  %37 = load double, double* %15, align 8
  %38 = fdiv double %37, %36
  store double %38, double* %15, align 8
  %39 = load double, double* %15, align 8
  %40 = fcmp ogt double %39, 0.000000e+00
  br i1 %40, label %41, label %180

; <label>:41:                                     ; preds = %33
  %42 = load %"struct.pov::Finish_Struct"*, %"struct.pov::Finish_Struct"** %8, align 8
  %43 = getelementptr inbounds %"struct.pov::Finish_Struct", %"struct.pov::Finish_Struct"* %42, i32 0, i32 2
  %44 = load float, float* %43, align 4
  %45 = fpext float %44 to double
  %46 = load double, double* %15, align 8
  %47 = load %"struct.pov::Finish_Struct"*, %"struct.pov::Finish_Struct"** %8, align 8
  %48 = getelementptr inbounds %"struct.pov::Finish_Struct", %"struct.pov::Finish_Struct"* %47, i32 0, i32 3
  %49 = load float, float* %48, align 4
  %50 = fpext float %49 to double
  %51 = call double @pow(double %46, double %50) #7
  %52 = fmul double %45, %51
  store double %52, double* %16, align 8
  %53 = load %"struct.pov::Finish_Struct"*, %"struct.pov::Finish_Struct"** %8, align 8
  %54 = getelementptr inbounds %"struct.pov::Finish_Struct", %"struct.pov::Finish_Struct"* %53, i32 0, i32 15
  %55 = load float, float* %54, align 4
  %56 = fpext float %55 to double
  %57 = fcmp ogt double %56, 0.000000e+00
  br i1 %57, label %58, label %142

; <label>:58:                                     ; preds = %41
  %59 = load double*, double** %11, align 8
  %60 = load %"struct.pov::Ray_Struct"*, %"struct.pov::Ray_Struct"** %9, align 8
  %61 = getelementptr inbounds %"struct.pov::Ray_Struct", %"struct.pov::Ray_Struct"* %60, i32 0, i32 1
  %62 = getelementptr inbounds [3 x double], [3 x double]* %61, i32 0, i32 0
  call void @_ZN3pov4VDotERdPKdS2_(double* dereferenceable(8) %19, double* %59, double* %62)
  %63 = load double, double* %19, align 8
  %64 = call double @acos(double %63) #7
  %65 = call double @fabs(double %64) #5
  %66 = fdiv double %65, 0x3FF921FB54442D18
  store double %66, double* %20, align 8
  %67 = load double, double* %20, align 8
  %68 = fsub double %67, 1.120000e+00
  %69 = call double @_ZN3pov3SqrEd(double %68)
  %70 = fdiv double 0x3F8DD56BD7BF6F16, %69
  %71 = fsub double %70, 0x3F87C88174C5E0DC
  store double %71, double* %21, align 8
  store double 1.000000e+00, double* %23, align 8
  store double 0.000000e+00, double* %24, align 8
  %72 = call dereferenceable(8) double* @_ZSt3maxIdERKT_S2_S2_(double* dereferenceable(8) %24, double* dereferenceable(8) %21)
  %73 = call dereferenceable(8) double* @_ZSt3minIdERKT_S2_S2_(double* dereferenceable(8) %23, double* dereferenceable(8) %72)
  %74 = load double, double* %73, align 8
  store double %74, double* %21, align 8
  %75 = load float*, float** %13, align 8
  %76 = getelementptr inbounds float, float* %75, i64 0
  %77 = load float, float* %76, align 4
  %78 = fpext float %77 to double
  %79 = load %"struct.pov::Finish_Struct"*, %"struct.pov::Finish_Struct"** %8, align 8
  %80 = getelementptr inbounds %"struct.pov::Finish_Struct", %"struct.pov::Finish_Struct"* %79, i32 0, i32 15
  %81 = load float, float* %80, align 4
  %82 = fpext float %81 to double
  %83 = load double, double* %21, align 8
  %84 = fsub double 1.000000e+00, %83
  %85 = fmul double %82, %84
  %86 = load float*, float** %14, align 8
  %87 = getelementptr inbounds float, float* %86, i64 0
  %88 = load float, float* %87, align 4
  %89 = fpext float %88 to double
  %90 = fsub double %89, 1.000000e+00
  %91 = fmul double %85, %90
  %92 = fadd double 1.000000e+00, %91
  %93 = fmul double %78, %92
  %94 = fptrunc double %93 to float
  %95 = getelementptr inbounds [5 x float], [5 x float]* %22, i64 0, i64 0
  store float %94, float* %95, align 16
  %96 = load float*, float** %13, align 8
  %97 = getelementptr inbounds float, float* %96, i64 1
  %98 = load float, float* %97, align 4
  %99 = fpext float %98 to double
  %100 = load %"struct.pov::Finish_Struct"*, %"struct.pov::Finish_Struct"** %8, align 8
  %101 = getelementptr inbounds %"struct.pov::Finish_Struct", %"struct.pov::Finish_Struct"* %100, i32 0, i32 15
  %102 = load float, float* %101, align 4
  %103 = fpext float %102 to double
  %104 = load double, double* %21, align 8
  %105 = fsub double 1.000000e+00, %104
  %106 = fmul double %103, %105
  %107 = load float*, float** %14, align 8
  %108 = getelementptr inbounds float, float* %107, i64 1
  %109 = load float, float* %108, align 4
  %110 = fpext float %109 to double
  %111 = fsub double %110, 1.000000e+00
  %112 = fmul double %106, %111
  %113 = fadd double 1.000000e+00, %112
  %114 = fmul double %99, %113
  %115 = fptrunc double %114 to float
  %116 = getelementptr inbounds [5 x float], [5 x float]* %22, i64 0, i64 1
  store float %115, float* %116, align 4
  %117 = load float*, float** %13, align 8
  %118 = getelementptr inbounds float, float* %117, i64 2
  %119 = load float, float* %118, align 4
  %120 = fpext float %119 to double
  %121 = load %"struct.pov::Finish_Struct"*, %"struct.pov::Finish_Struct"** %8, align 8
  %122 = getelementptr inbounds %"struct.pov::Finish_Struct", %"struct.pov::Finish_Struct"* %121, i32 0, i32 15
  %123 = load float, float* %122, align 4
  %124 = fpext float %123 to double
  %125 = load double, double* %21, align 8
  %126 = fsub double 1.000000e+00, %125
  %127 = fmul double %124, %126
  %128 = load float*, float** %14, align 8
  %129 = getelementptr inbounds float, float* %128, i64 2
  %130 = load float, float* %129, align 4
  %131 = fpext float %130 to double
  %132 = fsub double %131, 1.000000e+00
  %133 = fmul double %127, %132
  %134 = fadd double 1.000000e+00, %133
  %135 = fmul double %120, %134
  %136 = fptrunc double %135 to float
  %137 = getelementptr inbounds [5 x float], [5 x float]* %22, i64 0, i64 2
  store float %136, float* %137, align 8
  %138 = load float*, float** %12, align 8
  %139 = load double, double* %16, align 8
  %140 = fptrunc double %139 to float
  %141 = getelementptr inbounds [5 x float], [5 x float]* %22, i32 0, i32 0
  call void @_ZN3pov15CRGBAddScaledEqEPffPKf(float* %138, float %140, float* %141)
  br label %179

; <label>:142:                                    ; preds = %41
  %143 = load double, double* %16, align 8
  %144 = load float*, float** %13, align 8
  %145 = getelementptr inbounds float, float* %144, i64 0
  %146 = load float, float* %145, align 4
  %147 = fpext float %146 to double
  %148 = fmul double %143, %147
  %149 = load float*, float** %12, align 8
  %150 = getelementptr inbounds float, float* %149, i64 0
  %151 = load float, float* %150, align 4
  %152 = fpext float %151 to double
  %153 = fadd double %152, %148
  %154 = fptrunc double %153 to float
  store float %154, float* %150, align 4
  %155 = load double, double* %16, align 8
  %156 = load float*, float** %13, align 8
  %157 = getelementptr inbounds float, float* %156, i64 1
  %158 = load float, float* %157, align 4
  %159 = fpext float %158 to double
  %160 = fmul double %155, %159
  %161 = load float*, float** %12, align 8
  %162 = getelementptr inbounds float, float* %161, i64 1
  %163 = load float, float* %162, align 4
  %164 = fpext float %163 to double
  %165 = fadd double %164, %160
  %166 = fptrunc double %165 to float
  store float %166, float* %162, align 4
  %167 = load double, double* %16, align 8
  %168 = load float*, float** %13, align 8
  %169 = getelementptr inbounds float, float* %168, i64 2
  %170 = load float, float* %169, align 4
  %171 = fpext float %170 to double
  %172 = fmul double %167, %171
  %173 = load float*, float** %12, align 8
  %174 = getelementptr inbounds float, float* %173, i64 2
  %175 = load float, float* %174, align 4
  %176 = fpext float %175 to double
  %177 = fadd double %176, %172
  %178 = fptrunc double %177 to float
  store float %178, float* %174, align 4
  br label %179

; <label>:179:                                    ; preds = %142, %58
  br label %180

; <label>:180:                                    ; preds = %179, %33
  br label %181

; <label>:181:                                    ; preds = %180, %7
  ret void
}

; Function Attrs: noinline nounwind uwtable
define linkonce_odr void @_ZN3pov5VHalfEPdPKdS2_(double*, double*, double*) #1 comdat {
  %4 = alloca double*, align 8
  %5 = alloca double*, align 8
  %6 = alloca double*, align 8
  store double* %0, double** %4, align 8
  store double* %1, double** %5, align 8
  store double* %2, double** %6, align 8
  %7 = load double*, double** %5, align 8
  %8 = getelementptr inbounds double, double* %7, i64 0
  %9 = load double, double* %8, align 8
  %10 = load double*, double** %6, align 8
  %11 = getelementptr inbounds double, double* %10, i64 0
  %12 = load double, double* %11, align 8
  %13 = fadd double %9, %12
  %14 = fmul double 5.000000e-01, %13
  %15 = load double*, double** %4, align 8
  %16 = getelementptr inbounds double, double* %15, i64 0
  store double %14, double* %16, align 8
  %17 = load double*, double** %5, align 8
  %18 = getelementptr inbounds double, double* %17, i64 1
  %19 = load double, double* %18, align 8
  %20 = load double*, double** %6, align 8
  %21 = getelementptr inbounds double, double* %20, i64 1
  %22 = load double, double* %21, align 8
  %23 = fadd double %19, %22
  %24 = fmul double 5.000000e-01, %23
  %25 = load double*, double** %4, align 8
  %26 = getelementptr inbounds double, double* %25, i64 1
  store double %24, double* %26, align 8
  %27 = load double*, double** %5, align 8
  %28 = getelementptr inbounds double, double* %27, i64 2
  %29 = load double, double* %28, align 8
  %30 = load double*, double** %6, align 8
  %31 = getelementptr inbounds double, double* %30, i64 2
  %32 = load double, double* %31, align 8
  %33 = fadd double %29, %32
  %34 = fmul double 5.000000e-01, %33
  %35 = load double*, double** %4, align 8
  %36 = getelementptr inbounds double, double* %35, i64 2
  store double %34, double* %36, align 8
  ret void
}

; Function Attrs: noinline nounwind uwtable
define linkonce_odr void @_ZN3pov7VLengthERdPKd(double* dereferenceable(8), double*) #1 comdat {
  %3 = alloca double*, align 8
  %4 = alloca double*, align 8
  store double* %0, double** %3, align 8
  store double* %1, double** %4, align 8
  %5 = load double*, double** %4, align 8
  %6 = getelementptr inbounds double, double* %5, i64 0
  %7 = load double, double* %6, align 8
  %8 = load double*, double** %4, align 8
  %9 = getelementptr inbounds double, double* %8, i64 0
  %10 = load double, double* %9, align 8
  %11 = fmul double %7, %10
  %12 = load double*, double** %4, align 8
  %13 = getelementptr inbounds double, double* %12, i64 1
  %14 = load double, double* %13, align 8
  %15 = load double*, double** %4, align 8
  %16 = getelementptr inbounds double, double* %15, i64 1
  %17 = load double, double* %16, align 8
  %18 = fmul double %14, %17
  %19 = fadd double %11, %18
  %20 = load double*, double** %4, align 8
  %21 = getelementptr inbounds double, double* %20, i64 2
  %22 = load double, double* %21, align 8
  %23 = load double*, double** %4, align 8
  %24 = getelementptr inbounds double, double* %23, i64 2
  %25 = load double, double* %24, align 8
  %26 = fmul double %22, %25
  %27 = fadd double %19, %26
  %28 = call double @sqrt(double %27) #7
  %29 = load double*, double** %3, align 8
  store double %28, double* %29, align 8
  ret void
}

; Function Attrs: noinline uwtable
define void @_ZN3pov22ResizeMediaMallocPoolsEl(i64) #0 {
  %2 = alloca i64, align 8
  %3 = alloca i32, align 4
  %4 = alloca i32, align 4
  store i64 %0, i64* %2, align 8
  %5 = load i32, i32* getelementptr inbounds (%"struct.pov::Frame_Struct", %"struct.pov::Frame_Struct"* @_ZN3pov5FrameE, i32 0, i32 3), align 8
  store i32 %5, i32* %4, align 4
  %6 = load i32, i32* %4, align 4
  %7 = icmp eq i32 %6, 0
  br i1 %7, label %8, label %9

; <label>:8:                                      ; preds = %1
  store i32 2, i32* %4, align 4
  br label %9

; <label>:9:                                      ; preds = %8, %1
  %10 = load i64, i64* @_ZN3pov19MediaMallocPoolSizeE, align 8
  %11 = load i64, i64* @_ZN3pov19TotalMallocPoolSizeE, align 8
  %12 = sub i64 %11, 7049017465320894032
  %13 = sub i64 %12, %10
  %14 = add i64 %13, 7049017465320894032
  %15 = sub nsw i64 %11, %10
  store i64 %14, i64* @_ZN3pov19TotalMallocPoolSizeE, align 8
  %16 = load i64*, i64** @_ZN3pov23ShadowMediaListPoolSizeE, align 8
  %17 = bitcast i64* %16 to i8*
  %18 = load i64, i64* %2, align 8
  %19 = mul i64 %18, 8
  %20 = call i8* @_ZN3pov11pov_reallocEPvmPKciS2_(i8* %17, i64 %19, i8* getelementptr inbounds ([13 x i8], [13 x i8]* @.str, i32 0, i32 0), i32 6144, i8* getelementptr inbounds ([16 x i8], [16 x i8]* @.str.3, i32 0, i32 0))
  %21 = bitcast i8* %20 to i64*
  store i64* %21, i64** @_ZN3pov23ShadowMediaListPoolSizeE, align 8
  %22 = load i64*, i64** @_ZN3pov25LightingMediaListPoolSizeE, align 8
  %23 = bitcast i64* %22 to i8*
  %24 = load i64, i64* %2, align 8
  %25 = mul i64 %24, 8
  %26 = call i8* @_ZN3pov11pov_reallocEPvmPKciS2_(i8* %23, i64 %25, i8* getelementptr inbounds ([13 x i8], [13 x i8]* @.str, i32 0, i32 0), i32 6145, i8* getelementptr inbounds ([16 x i8], [16 x i8]* @.str.3, i32 0, i32 0))
  %27 = bitcast i8* %26 to i64*
  store i64* %27, i64** @_ZN3pov25LightingMediaListPoolSizeE, align 8
  %28 = load i64*, i64** @_ZN3pov21MediaIntervalPoolSizeE, align 8
  %29 = bitcast i64* %28 to i8*
  %30 = load i64, i64* %2, align 8
  %31 = mul i64 %30, 8
  %32 = call i8* @_ZN3pov11pov_reallocEPvmPKciS2_(i8* %29, i64 %31, i8* getelementptr inbounds ([13 x i8], [13 x i8]* @.str, i32 0, i32 0), i32 6146, i8* getelementptr inbounds ([16 x i8], [16 x i8]* @.str.3, i32 0, i32 0))
  %33 = bitcast i8* %32 to i64*
  store i64* %33, i64** @_ZN3pov21MediaIntervalPoolSizeE, align 8
  %34 = load %"struct.pov::Media_Struct"***, %"struct.pov::Media_Struct"**** @_ZN3pov19ShadowMediaListPoolE, align 8
  %35 = bitcast %"struct.pov::Media_Struct"*** %34 to i8*
  %36 = load i64, i64* %2, align 8
  %37 = mul i64 %36, 8
  %38 = call i8* @_ZN3pov11pov_reallocEPvmPKciS2_(i8* %35, i64 %37, i8* getelementptr inbounds ([13 x i8], [13 x i8]* @.str, i32 0, i32 0), i32 6147, i8* getelementptr inbounds ([16 x i8], [16 x i8]* @.str.3, i32 0, i32 0))
  %39 = bitcast i8* %38 to %"struct.pov::Media_Struct"***
  store %"struct.pov::Media_Struct"*** %39, %"struct.pov::Media_Struct"**** @_ZN3pov19ShadowMediaListPoolE, align 8
  %40 = load %"struct.pov::Media_Struct"***, %"struct.pov::Media_Struct"**** @_ZN3pov21LightingMediaListPoolE, align 8
  %41 = bitcast %"struct.pov::Media_Struct"*** %40 to i8*
  %42 = load i64, i64* %2, align 8
  %43 = mul i64 %42, 8
  %44 = call i8* @_ZN3pov11pov_reallocEPvmPKciS2_(i8* %41, i64 %43, i8* getelementptr inbounds ([13 x i8], [13 x i8]* @.str, i32 0, i32 0), i32 6148, i8* getelementptr inbounds ([16 x i8], [16 x i8]* @.str.3, i32 0, i32 0))
  %45 = bitcast i8* %44 to %"struct.pov::Media_Struct"***
  store %"struct.pov::Media_Struct"*** %45, %"struct.pov::Media_Struct"**** @_ZN3pov21LightingMediaListPoolE, align 8
  %46 = load %"struct.pov::Light_List_Struct"**, %"struct.pov::Light_List_Struct"*** @_ZN3pov18MediaLightListPoolE, align 8
  %47 = bitcast %"struct.pov::Light_List_Struct"** %46 to i8*
  %48 = load i64, i64* %2, align 8
  %49 = mul i64 %48, 8
  %50 = call i8* @_ZN3pov11pov_reallocEPvmPKciS2_(i8* %47, i64 %49, i8* getelementptr inbounds ([13 x i8], [13 x i8]* @.str, i32 0, i32 0), i32 6149, i8* getelementptr inbounds ([11 x i8], [11 x i8]* @.str.4, i32 0, i32 0))
  %51 = bitcast i8* %50 to %"struct.pov::Light_List_Struct"**
  store %"struct.pov::Light_List_Struct"** %51, %"struct.pov::Light_List_Struct"*** @_ZN3pov18MediaLightListPoolE, align 8
  %52 = load %"struct.pov::Lit_Interval_Struct"**, %"struct.pov::Lit_Interval_Struct"*** @_ZN3pov20MediaLitIntervalPoolE, align 8
  %53 = bitcast %"struct.pov::Lit_Interval_Struct"** %52 to i8*
  %54 = load i64, i64* %2, align 8
  %55 = mul i64 %54, 8
  %56 = call i8* @_ZN3pov11pov_reallocEPvmPKciS2_(i8* %53, i64 %55, i8* getelementptr inbounds ([13 x i8], [13 x i8]* @.str, i32 0, i32 0), i32 6150, i8* getelementptr inbounds ([13 x i8], [13 x i8]* @.str.5, i32 0, i32 0))
  %57 = bitcast i8* %56 to %"struct.pov::Lit_Interval_Struct"**
  store %"struct.pov::Lit_Interval_Struct"** %57, %"struct.pov::Lit_Interval_Struct"*** @_ZN3pov20MediaLitIntervalPoolE, align 8
  %58 = load %"struct.pov::Media_Interval_Struct"**, %"struct.pov::Media_Interval_Struct"*** @_ZN3pov17MediaIntervalPoolE, align 8
  %59 = bitcast %"struct.pov::Media_Interval_Struct"** %58 to i8*
  %60 = load i64, i64* %2, align 8
  %61 = mul i64 %60, 8
  %62 = call i8* @_ZN3pov11pov_reallocEPvmPKciS2_(i8* %59, i64 %61, i8* getelementptr inbounds ([13 x i8], [13 x i8]* @.str, i32 0, i32 0), i32 6151, i8* getelementptr inbounds ([16 x i8], [16 x i8]* @.str.6, i32 0, i32 0))
  %63 = bitcast i8* %62 to %"struct.pov::Media_Interval_Struct"**
  store %"struct.pov::Media_Interval_Struct"** %63, %"struct.pov::Media_Interval_Struct"*** @_ZN3pov17MediaIntervalPoolE, align 8
  %64 = load i64, i64* @_ZN3pov17MaxMediaPoolDepthE, align 8
  %65 = trunc i64 %64 to i32
  store i32 %65, i32* %3, align 4
  br label %66

; <label>:66:                                     ; preds = %152, %9
  %67 = load i32, i32* %3, align 4
  %68 = sext i32 %67 to i64
  %69 = load i64, i64* %2, align 8
  %70 = icmp slt i64 %68, %69
  br i1 %70, label %71, label %158

; <label>:71:                                     ; preds = %66
  %72 = call i8* @_ZN3pov10pov_mallocEmPKciS1_(i64 80, i8* getelementptr inbounds ([13 x i8], [13 x i8]* @.str, i32 0, i32 0), i32 6156, i8* getelementptr inbounds ([16 x i8], [16 x i8]* @.str.3, i32 0, i32 0))
  %73 = bitcast i8* %72 to %"struct.pov::Media_Struct"**
  %74 = load %"struct.pov::Media_Struct"***, %"struct.pov::Media_Struct"**** @_ZN3pov19ShadowMediaListPoolE, align 8
  %75 = load i32, i32* %3, align 4
  %76 = sext i32 %75 to i64
  %77 = getelementptr inbounds %"struct.pov::Media_Struct"**, %"struct.pov::Media_Struct"*** %74, i64 %76
  store %"struct.pov::Media_Struct"** %73, %"struct.pov::Media_Struct"*** %77, align 8
  %78 = load i64*, i64** @_ZN3pov23ShadowMediaListPoolSizeE, align 8
  %79 = load i32, i32* %3, align 4
  %80 = sext i32 %79 to i64
  %81 = getelementptr inbounds i64, i64* %78, i64 %80
  store i64 10, i64* %81, align 8
  %82 = call i8* @_ZN3pov10pov_mallocEmPKciS1_(i64 80, i8* getelementptr inbounds ([13 x i8], [13 x i8]* @.str, i32 0, i32 0), i32 6158, i8* getelementptr inbounds ([16 x i8], [16 x i8]* @.str.3, i32 0, i32 0))
  %83 = bitcast i8* %82 to %"struct.pov::Media_Struct"**
  %84 = load %"struct.pov::Media_Struct"***, %"struct.pov::Media_Struct"**** @_ZN3pov21LightingMediaListPoolE, align 8
  %85 = load i32, i32* %3, align 4
  %86 = sext i32 %85 to i64
  %87 = getelementptr inbounds %"struct.pov::Media_Struct"**, %"struct.pov::Media_Struct"*** %84, i64 %86
  store %"struct.pov::Media_Struct"** %83, %"struct.pov::Media_Struct"*** %87, align 8
  %88 = load i64*, i64** @_ZN3pov25LightingMediaListPoolSizeE, align 8
  %89 = load i32, i32* %3, align 4
  %90 = sext i32 %89 to i64
  %91 = getelementptr inbounds i64, i64* %88, i64 %90
  store i64 10, i64* %91, align 8
  %92 = load i32, i32* %4, align 4
  %93 = sext i32 %92 to i64
  %94 = mul i64 %93, 32
  %95 = call i8* @_ZN3pov10pov_mallocEmPKciS1_(i64 %94, i8* getelementptr inbounds ([13 x i8], [13 x i8]* @.str, i32 0, i32 0), i32 6160, i8* getelementptr inbounds ([11 x i8], [11 x i8]* @.str.4, i32 0, i32 0))
  %96 = bitcast i8* %95 to %"struct.pov::Light_List_Struct"*
  %97 = load %"struct.pov::Light_List_Struct"**, %"struct.pov::Light_List_Struct"*** @_ZN3pov18MediaLightListPoolE, align 8
  %98 = load i32, i32* %3, align 4
  %99 = sext i32 %98 to i64
  %100 = getelementptr inbounds %"struct.pov::Light_List_Struct"*, %"struct.pov::Light_List_Struct"** %97, i64 %99
  store %"struct.pov::Light_List_Struct"* %96, %"struct.pov::Light_List_Struct"** %100, align 8
  %101 = load i32, i32* %4, align 4
  %102 = mul nsw i32 2, %101
  %103 = add i32 %102, -378092678
  %104 = add i32 %103, 1
  %105 = sub i32 %104, -378092678
  %106 = add nsw i32 %102, 1
  %107 = sext i32 %105 to i64
  %108 = mul i64 %107, 32
  %109 = call i8* @_ZN3pov10pov_mallocEmPKciS1_(i64 %108, i8* getelementptr inbounds ([13 x i8], [13 x i8]* @.str, i32 0, i32 0), i32 6161, i8* getelementptr inbounds ([13 x i8], [13 x i8]* @.str.5, i32 0, i32 0))
  %110 = bitcast i8* %109 to %"struct.pov::Lit_Interval_Struct"*
  %111 = load %"struct.pov::Lit_Interval_Struct"**, %"struct.pov::Lit_Interval_Struct"*** @_ZN3pov20MediaLitIntervalPoolE, align 8
  %112 = load i32, i32* %3, align 4
  %113 = sext i32 %112 to i64
  %114 = getelementptr inbounds %"struct.pov::Lit_Interval_Struct"*, %"struct.pov::Lit_Interval_Struct"** %111, i64 %113
  store %"struct.pov::Lit_Interval_Struct"* %110, %"struct.pov::Lit_Interval_Struct"** %114, align 8
  %115 = call i8* @_ZN3pov10pov_mallocEmPKciS1_(i64 960, i8* getelementptr inbounds ([13 x i8], [13 x i8]* @.str, i32 0, i32 0), i32 6162, i8* getelementptr inbounds ([16 x i8], [16 x i8]* @.str.6, i32 0, i32 0))
  %116 = bitcast i8* %115 to %"struct.pov::Media_Interval_Struct"*
  %117 = load %"struct.pov::Media_Interval_Struct"**, %"struct.pov::Media_Interval_Struct"*** @_ZN3pov17MediaIntervalPoolE, align 8
  %118 = load i32, i32* %3, align 4
  %119 = sext i32 %118 to i64
  %120 = getelementptr inbounds %"struct.pov::Media_Interval_Struct"*, %"struct.pov::Media_Interval_Struct"** %117, i64 %119
  store %"struct.pov::Media_Interval_Struct"* %116, %"struct.pov::Media_Interval_Struct"** %120, align 8
  %121 = load i64*, i64** @_ZN3pov21MediaIntervalPoolSizeE, align 8
  %122 = load i32, i32* %3, align 4
  %123 = sext i32 %122 to i64
  %124 = getelementptr inbounds i64, i64* %121, i64 %123
  store i64 10, i64* %124, align 8
  %125 = load i32, i32* %4, align 4
  %126 = sext i32 %125 to i64
  %127 = mul i64 %126, 32
  %128 = sub i64 0, %127
  %129 = sub i64 160, %128
  %130 = add i64 160, %127
  %131 = load i32, i32* %4, align 4
  %132 = mul nsw i32 2, %131
  %133 = sub i32 %132, -110278951
  %134 = add i32 %133, 1
  %135 = add i32 %134, -110278951
  %136 = add nsw i32 %132, 1
  %137 = sext i32 %135 to i64
  %138 = mul i64 %137, 32
  %139 = sub i64 0, %129
  %140 = sub i64 0, %138
  %141 = add i64 %139, %140
  %142 = sub i64 0, %141
  %143 = add i64 %129, %138
  %144 = add i64 %142, 2784589935077533910
  %145 = add i64 %144, 960
  %146 = sub i64 %145, 2784589935077533910
  %147 = add i64 %142, 960
  %148 = load i64, i64* @_ZN3pov19MediaMallocPoolSizeE, align 8
  %149 = sub i64 0, %146
  %150 = sub i64 %148, %149
  %151 = add i64 %148, %146
  store i64 %150, i64* @_ZN3pov19MediaMallocPoolSizeE, align 8
  br label %152

; <label>:152:                                    ; preds = %71
  %153 = load i32, i32* %3, align 4
  %154 = add i32 %153, 1589917329
  %155 = add i32 %154, 1
  %156 = sub i32 %155, 1589917329
  %157 = add nsw i32 %153, 1
  store i32 %156, i32* %3, align 4
  br label %66

; <label>:158:                                    ; preds = %66
  %159 = load i64, i64* %2, align 8
  store i64 %159, i64* @_ZN3pov17MaxMediaPoolDepthE, align 8
