; ModuleID = 'Project_CodeNet_C++1400/p03486/s250874976.cpp'
source_filename = "Project_CodeNet_C++1400/p03486/s250874976.cpp"
target datalayout = "e-m:e-i64:64-f80:128-n8:16:32:64-S128"
target triple = "x86_64-unknown-linux-gnu"

%"class.std::ios_base::Init" = type { i8 }
%"class.std::vector" = type { %"struct.std::_Vector_base" }
%"struct.std::_Vector_base" = type { %"struct.std::_Vector_base<std::__cxx11::basic_string<char>, std::allocator<std::__cxx11::basic_string<char> > >::_Vector_impl" }
%"struct.std::_Vector_base<std::__cxx11::basic_string<char>, std::allocator<std::__cxx11::basic_string<char> > >::_Vector_impl" = type { %"class.std::__cxx11::basic_string"*, %"class.std::__cxx11::basic_string"*, %"class.std::__cxx11::basic_string"* }
%"class.std::__cxx11::basic_string" = type { %"struct.std::__cxx11::basic_string<char, std::char_traits<char>, std::allocator<char> >::_Alloc_hider", i64, %union.anon }
%"struct.std::__cxx11::basic_string<char, std::char_traits<char>, std::allocator<char> >::_Alloc_hider" = type { i8* }
%union.anon = type { i64, [8 x i8] }
%"class.std::vector.3" = type { %"struct.std::_Vector_base.4" }
%"struct.std::_Vector_base.4" = type { %"struct.std::_Vector_base<std::vector<bool, std::allocator<bool> >, std::allocator<std::vector<bool, std::allocator<bool> > > >::_Vector_impl" }
%"struct.std::_Vector_base<std::vector<bool, std::allocator<bool> >, std::allocator<std::vector<bool, std::allocator<bool> > > >::_Vector_impl" = type { %"class.std::vector.8"*, %"class.std::vector.8"*, %"class.std::vector.8"* }
%"class.std::vector.8" = type { %"struct.std::_Bvector_base" }
%"struct.std::_Bvector_base" = type { %"struct.std::_Bvector_base<std::allocator<bool> >::_Bvector_impl" }
%"struct.std::_Bvector_base<std::allocator<bool> >::_Bvector_impl" = type { %"struct.std::_Bit_iterator", %"struct.std::_Bit_iterator", i64* }
%"struct.std::_Bit_iterator" = type { %"struct.std::_Bit_iterator_base.base", [4 x i8] }
%"struct.std::_Bit_iterator_base.base" = type <{ i64*, i32 }>
%"class.std::vector.15" = type { %"struct.std::_Vector_base.16" }
%"struct.std::_Vector_base.16" = type { %"struct.std::_Vector_base<int, std::allocator<int> >::_Vector_impl" }
%"struct.std::_Vector_base<int, std::allocator<int> >::_Vector_impl" = type { i32*, i32*, i32* }
%"class.std::basic_istream" = type { i32 (...)**, i64, %"class.std::basic_ios" }
%"class.std::basic_ios" = type { %"class.std::ios_base", %"class.std::basic_ostream"*, i8, i8, %"class.std::basic_streambuf"*, %"class.std::ctype"*, %"class.std::num_put"*, %"class.std::num_get"* }
%"class.std::ios_base" = type { i32 (...)**, i64, i64, i32, i32, i32, %"struct.std::ios_base::_Callback_list"*, %"struct.std::ios_base::_Words", [8 x %"struct.std::ios_base::_Words"], i32, %"struct.std::ios_base::_Words"*, %"class.std::locale" }
%"struct.std::ios_base::_Callback_list" = type { %"struct.std::ios_base::_Callback_list"*, void (i32, %"class.std::ios_base"*, i32)*, i32, i32 }
%"struct.std::ios_base::_Words" = type { i8*, i64 }
%"class.std::locale" = type { %"class.std::locale::_Impl"* }
%"class.std::locale::_Impl" = type { i32, %"class.std::locale::facet"**, i64, %"class.std::locale::facet"**, i8** }
%"class.std::locale::facet" = type <{ i32 (...)**, i32, [4 x i8] }>
%"class.std::basic_ostream" = type { i32 (...)**, %"class.std::basic_ios" }
%"class.std::basic_streambuf" = type { i32 (...)**, i8*, i8*, i8*, i8*, i8*, i8*, %"class.std::locale" }
%"class.std::ctype" = type <{ %"class.std::locale::facet.base", [4 x i8], %struct.__locale_struct*, i8, [7 x i8], i32*, i32*, i16*, i8, [256 x i8], [256 x i8], i8, [6 x i8] }>
%"class.std::locale::facet.base" = type <{ i32 (...)**, i32 }>
%struct.__locale_struct = type { [13 x %struct.__locale_data*], i16*, i32*, i32*, [13 x i8*] }
%struct.__locale_data = type opaque
%"class.std::num_put" = type { %"class.std::locale::facet.base", [4 x i8] }
%"class.std::num_get" = type { %"class.std::locale::facet.base", [4 x i8] }
%"class.std::allocator" = type { i8 }
%"class.std::allocator.12" = type { i8 }
%"class.std::allocator.5" = type { i8 }
%"class.__gnu_cxx::new_allocator.13" = type { i8 }
%"class.__gnu_cxx::new_allocator.6" = type { i8 }
%"class.std::initializer_list" = type { i32*, i64 }
%"class.std::allocator.17" = type { i8 }
%"class.__gnu_cxx::new_allocator.18" = type { i8 }
%"struct.std::forward_iterator_tag" = type { i8 }
%"struct.std::random_access_iterator_tag" = type { i8 }
%"class.__gnu_cxx::__normal_iterator" = type { i8* }
%"struct.__gnu_cxx::__ops::_Iter_less_iter" = type { i8 }
%"class.__gnu_cxx::new_allocator" = type { i8 }
%"struct.std::_Bit_iterator_base" = type <{ i64*, i32, [4 x i8] }>
%"class.std::allocator.9" = type { i8 }
%"class.__gnu_cxx::new_allocator.10" = type { i8 }
%"struct.std::iterator" = type { i8 }
%"struct.std::_Bit_const_iterator" = type { %"struct.std::_Bit_iterator_base.base", [4 x i8] }
%"struct.std::_Bit_reference" = type { i64*, i64 }
%"struct.__gnu_cxx::__ops::_Iter_less_val" = type { i8 }
%"struct.__gnu_cxx::__ops::_Val_less_iter" = type { i8 }

$_ZNSt6vectorINSt7__cxx1112basic_stringIcSt11char_traitsIcESaIcEEESaIS5_EEC2Ev = comdat any

$_ZNSt6vectorINSt7__cxx1112basic_stringIcSt11char_traitsIcESaIcEEESaIS5_EED2Ev = comdat any

$_ZNSaIbEC2Ev = comdat any

$_ZNSt6vectorIbSaIbEEC2EmRKS0_ = comdat any

$_ZNSaISt6vectorIbSaIbEEEC2Ev = comdat any

$_ZNSt6vectorIS_IbSaIbEESaIS1_EEC2EmRKS1_RKS2_ = comdat any

$_ZNSaISt6vectorIbSaIbEEED2Ev = comdat any

$_ZNSt6vectorIbSaIbEED2Ev = comdat any

$_ZNSaIbED2Ev = comdat any

$_ZNSt6vectorIS_IbSaIbEESaIS1_EED2Ev = comdat any

$_ZNSaIiEC2Ev = comdat any

$_ZNSt6vectorIiSaIiEEC2ESt16initializer_listIiERKS0_ = comdat any

$_ZNSaIiED2Ev = comdat any

$_ZNSt6vectorIiSaIiEED2Ev = comdat any

$_ZSt4sortIN9__gnu_cxx17__normal_iteratorIPcNSt7__cxx1112basic_stringIcSt11char_traitsIcESaIcEEEEEEvT_SA_ = comdat any

$_ZSt7reverseIN9__gnu_cxx17__normal_iteratorIPcNSt7__cxx1112basic_stringIcSt11char_traitsIcESaIcEEEEEEvT_SA_ = comdat any

$_ZSt3minImERKT_S2_S2_ = comdat any

$_ZNSt12_Vector_baseINSt7__cxx1112basic_stringIcSt11char_traitsIcESaIcEEESaIS5_EEC2Ev = comdat any

$__clang_call_terminate = comdat any

$_ZNSt12_Vector_baseINSt7__cxx1112basic_stringIcSt11char_traitsIcESaIcEEESaIS5_EE12_Vector_implC2Ev = comdat any

$_ZNSaINSt7__cxx1112basic_stringIcSt11char_traitsIcESaIcEEEEC2Ev = comdat any

$_ZN9__gnu_cxx13new_allocatorINSt7__cxx1112basic_stringIcSt11char_traitsIcESaIcEEEEC2Ev = comdat any

$_ZSt8_DestroyIPNSt7__cxx1112basic_stringIcSt11char_traitsIcESaIcEEES5_EvT_S7_RSaIT0_E = comdat any

$_ZNSt12_Vector_baseINSt7__cxx1112basic_stringIcSt11char_traitsIcESaIcEEESaIS5_EE19_M_get_Tp_allocatorEv = comdat any

$_ZNSt12_Vector_baseINSt7__cxx1112basic_stringIcSt11char_traitsIcESaIcEEESaIS5_EED2Ev = comdat any

$_ZSt8_DestroyIPNSt7__cxx1112basic_stringIcSt11char_traitsIcESaIcEEEEvT_S7_ = comdat any

$_ZNSt12_Destroy_auxILb0EE9__destroyIPNSt7__cxx1112basic_stringIcSt11char_traitsIcESaIcEEEEEvT_S9_ = comdat any

$_ZSt8_DestroyINSt7__cxx1112basic_stringIcSt11char_traitsIcESaIcEEEEvPT_ = comdat any

$_ZSt11__addressofINSt7__cxx1112basic_stringIcSt11char_traitsIcESaIcEEEEPT_RS6_ = comdat any

$_ZNSt12_Vector_baseINSt7__cxx1112basic_stringIcSt11char_traitsIcESaIcEEESaIS5_EE13_M_deallocateEPS5_m = comdat any

$_ZNSt12_Vector_baseINSt7__cxx1112basic_stringIcSt11char_traitsIcESaIcEEESaIS5_EE12_Vector_implD2Ev = comdat any

$_ZNSt16allocator_traitsISaINSt7__cxx1112basic_stringIcSt11char_traitsIcESaIcEEEEE10deallocateERS6_PS5_m = comdat any

$_ZN9__gnu_cxx13new_allocatorINSt7__cxx1112basic_stringIcSt11char_traitsIcESaIcEEEE10deallocateEPS6_m = comdat any

$_ZNSaINSt7__cxx1112basic_stringIcSt11char_traitsIcESaIcEEEED2Ev = comdat any

$_ZN9__gnu_cxx13new_allocatorINSt7__cxx1112basic_stringIcSt11char_traitsIcESaIcEEEED2Ev = comdat any

$_ZN9__gnu_cxx13new_allocatorIbEC2Ev = comdat any

$_ZN9__gnu_cxx13new_allocatorIbED2Ev = comdat any

$_ZNSt6vectorIbSaIbEEC2EmRKbRKS0_ = comdat any

$_ZNSt13_Bvector_baseISaIbEEC2ERKS0_ = comdat any

$_ZNSt6vectorIbSaIbEE13_M_initializeEm = comdat any

$_ZSt4fillIPmiEvT_S1_RKT0_ = comdat any

$_ZNKSt13_Bvector_baseISaIbEE13_Bvector_impl11_M_end_addrEv = comdat any

$_ZNSt13_Bvector_baseISaIbEED2Ev = comdat any

$_ZNSaImEC2IbEERKSaIT_E = comdat any

$_ZNSt13_Bvector_baseISaIbEE13_Bvector_implC2EOSaImE = comdat any

$_ZNSaImED2Ev = comdat any

$_ZN9__gnu_cxx13new_allocatorImEC2Ev = comdat any

$_ZSt4moveIRSaImEEONSt16remove_referenceIT_E4typeEOS3_ = comdat any

$_ZNSt13_Bit_iteratorC2Ev = comdat any

$_ZN9__gnu_cxx13new_allocatorImEC2ERKS1_ = comdat any

$_ZNSt18_Bit_iterator_baseC2EPmj = comdat any

$_ZN9__gnu_cxx13new_allocatorImED2Ev = comdat any

$_ZNSt13_Bvector_baseISaIbEE11_M_allocateEm = comdat any

$_ZNSt13_Bvector_baseISaIbEE8_S_nwordEm = comdat any

$_ZSt11__addressofImEPT_RS0_ = comdat any

$_ZNSt13_Bit_iteratorC2EPmj = comdat any

$_ZNKSt13_Bit_iteratorplEl = comdat any

$_ZNSt16allocator_traitsISaImEE8allocateERS0_m = comdat any

$_ZN9__gnu_cxx13new_allocatorImE8allocateEmPKv = comdat any

$_ZNK9__gnu_cxx13new_allocatorImE8max_sizeEv = comdat any

$_ZNSt13_Bit_iteratorpLEl = comdat any

$_ZNSt18_Bit_iterator_base7_M_incrEl = comdat any

$_ZSt8__fill_aIPmiEN9__gnu_cxx11__enable_ifIXsr11__is_scalarIT0_EE7__valueEvE6__typeET_S6_RKS3_ = comdat any

$_ZSt12__niter_baseIPmENSt11_Niter_baseIT_E13iterator_typeES2_ = comdat any

$_ZNSt10_Iter_baseIPmLb0EE7_S_baseES0_ = comdat any

$_ZNSt13_Bvector_baseISaIbEE13_M_deallocateEv = comdat any

$_ZNSt13_Bvector_baseISaIbEE13_Bvector_implD2Ev = comdat any

$_ZNSt16allocator_traitsISaImEE10deallocateERS0_Pmm = comdat any

$_ZN9__gnu_cxx13new_allocatorImE10deallocateEPmm = comdat any

$_ZN9__gnu_cxx13new_allocatorISt6vectorIbSaIbEEEC2Ev = comdat any

$_ZN9__gnu_cxx13new_allocatorISt6vectorIbSaIbEEED2Ev = comdat any

$_ZNSt12_Vector_baseISt6vectorIbSaIbEESaIS2_EEC2EmRKS3_ = comdat any

$_ZNSt6vectorIS_IbSaIbEESaIS1_EE18_M_fill_initializeEmRKS1_ = comdat any

$_ZNSt12_Vector_baseISt6vectorIbSaIbEESaIS2_EED2Ev = comdat any

$_ZNSt12_Vector_baseISt6vectorIbSaIbEESaIS2_EE12_Vector_implC2ERKS3_ = comdat any

$_ZNSt12_Vector_baseISt6vectorIbSaIbEESaIS2_EE17_M_create_storageEm = comdat any

$_ZNSt12_Vector_baseISt6vectorIbSaIbEESaIS2_EE12_Vector_implD2Ev = comdat any

$_ZNSaISt6vectorIbSaIbEEEC2ERKS2_ = comdat any

$_ZN9__gnu_cxx13new_allocatorISt6vectorIbSaIbEEEC2ERKS4_ = comdat any

$_ZNSt12_Vector_baseISt6vectorIbSaIbEESaIS2_EE11_M_allocateEm = comdat any

$_ZNSt16allocator_traitsISaISt6vectorIbSaIbEEEE8allocateERS3_m = comdat any

$_ZN9__gnu_cxx13new_allocatorISt6vectorIbSaIbEEE8allocateEmPKv = comdat any

$_ZNK9__gnu_cxx13new_allocatorISt6vectorIbSaIbEEE8max_sizeEv = comdat any

$_ZSt24__uninitialized_fill_n_aIPSt6vectorIbSaIbEEmS2_S2_ET_S4_T0_RKT1_RSaIT2_E = comdat any

$_ZNSt12_Vector_baseISt6vectorIbSaIbEESaIS2_EE19_M_get_Tp_allocatorEv = comdat any

$_ZSt20uninitialized_fill_nIPSt6vectorIbSaIbEEmS2_ET_S4_T0_RKT1_ = comdat any

$_ZNSt22__uninitialized_fill_nILb0EE15__uninit_fill_nIPSt6vectorIbSaIbEEmS4_EET_S6_T0_RKT1_ = comdat any

$_ZSt10_ConstructISt6vectorIbSaIbEEJRKS2_EEvPT_DpOT0_ = comdat any

$_ZSt11__addressofISt6vectorIbSaIbEEEPT_RS3_ = comdat any

$_ZSt8_DestroyIPSt6vectorIbSaIbEEEvT_S4_ = comdat any

$_ZSt7forwardIRKSt6vectorIbSaIbEEEOT_RNSt16remove_referenceIS5_E4typeE = comdat any

$_ZNSt6vectorIbSaIbEEC2ERKS1_ = comdat any

$_ZN9__gnu_cxx14__alloc_traitsISaImEE17_S_select_on_copyERKS1_ = comdat any

$_ZNKSt13_Bvector_baseISaIbEE20_M_get_Bit_allocatorEv = comdat any

$_ZNSaIbEC2ImEERKSaIT_E = comdat any

$_ZNKSt6vectorIbSaIbEE4sizeEv = comdat any

$_ZNSt6vectorIbSaIbEE15_M_copy_alignedESt19_Bit_const_iteratorS2_St13_Bit_iterator = comdat any

$_ZNKSt6vectorIbSaIbEE5beginEv = comdat any

$_ZNKSt6vectorIbSaIbEE3endEv = comdat any

$_ZNSt16allocator_traitsISaImEE37select_on_container_copy_constructionERKS0_ = comdat any

$_ZNSaImEC2ERKS_ = comdat any

$_ZStmiRKSt18_Bit_iterator_baseS1_ = comdat any

$_ZSt4copyIPmS0_ET0_T_S2_S1_ = comdat any

$_ZSt4copyISt19_Bit_const_iteratorSt13_Bit_iteratorET0_T_S3_S2_ = comdat any

$_ZNSt19_Bit_const_iteratorC2EPmj = comdat any

$_ZSt14__copy_move_a2ILb0EPmS0_ET1_T0_S2_S1_ = comdat any

$_ZSt12__miter_baseIPmENSt11_Miter_baseIT_E13iterator_typeES2_ = comdat any

$_ZSt13__copy_move_aILb0EPmS0_ET1_T0_S2_S1_ = comdat any

$_ZNSt11__copy_moveILb0ELb1ESt26random_access_iterator_tagE8__copy_mImEEPT_PKS3_S6_S4_ = comdat any

$_ZSt14__copy_move_a2ILb0ESt19_Bit_const_iteratorSt13_Bit_iteratorET1_T0_S3_S2_ = comdat any

$_ZSt12__miter_baseISt19_Bit_const_iteratorENSt11_Miter_baseIT_E13iterator_typeES2_ = comdat any

$_ZSt13__copy_move_aILb0ESt19_Bit_const_iteratorSt13_Bit_iteratorET1_T0_S3_S2_ = comdat any

$_ZSt12__niter_baseISt19_Bit_const_iteratorENSt11_Niter_baseIT_E13iterator_typeES2_ = comdat any

$_ZSt12__niter_baseISt13_Bit_iteratorENSt11_Niter_baseIT_E13iterator_typeES2_ = comdat any

$_ZNSt11__copy_moveILb0ELb0ESt26random_access_iterator_tagE8__copy_mISt19_Bit_const_iteratorSt13_Bit_iteratorEET0_T_S6_S5_ = comdat any

$_ZNKSt19_Bit_const_iteratordeEv = comdat any

$_ZNKSt13_Bit_iteratordeEv = comdat any

$_ZNSt14_Bit_referenceaSEb = comdat any

$_ZNSt19_Bit_const_iteratorppEv = comdat any

$_ZNSt13_Bit_iteratorppEv = comdat any

$_ZNSt14_Bit_referenceC2EPmm = comdat any

$_ZNKSt14_Bit_referencecvbEv = comdat any

$_ZNSt18_Bit_iterator_base10_M_bump_upEv = comdat any

$_ZNSt10_Iter_baseISt19_Bit_const_iteratorLb0EE7_S_baseES0_ = comdat any

$_ZNSt10_Iter_baseISt13_Bit_iteratorLb0EE7_S_baseES0_ = comdat any

$_ZNSt19_Bit_const_iteratorC2ERKSt13_Bit_iterator = comdat any

$_ZNSt12_Destroy_auxILb0EE9__destroyIPSt6vectorIbSaIbEEEEvT_S6_ = comdat any

$_ZSt8_DestroyISt6vectorIbSaIbEEEvPT_ = comdat any

$_ZNSt12_Vector_baseISt6vectorIbSaIbEESaIS2_EE13_M_deallocateEPS2_m = comdat any

$_ZNSt16allocator_traitsISaISt6vectorIbSaIbEEEE10deallocateERS3_PS2_m = comdat any

$_ZN9__gnu_cxx13new_allocatorISt6vectorIbSaIbEEE10deallocateEPS3_m = comdat any

$_ZSt8_DestroyIPSt6vectorIbSaIbEES2_EvT_S4_RSaIT0_E = comdat any

$_ZN9__gnu_cxx13new_allocatorIiEC2Ev = comdat any

$_ZN9__gnu_cxx13new_allocatorIiED2Ev = comdat any

$_ZNSt12_Vector_baseIiSaIiEEC2ERKS0_ = comdat any

$_ZNSt6vectorIiSaIiEE19_M_range_initializeIPKiEEvT_S5_St20forward_iterator_tag = comdat any

$_ZNKSt16initializer_listIiE5beginEv = comdat any

$_ZNKSt16initializer_listIiE3endEv = comdat any

$_ZNSt12_Vector_baseIiSaIiEED2Ev = comdat any

$_ZNSt12_Vector_baseIiSaIiEE12_Vector_implC2ERKS0_ = comdat any

$_ZNSaIiEC2ERKS_ = comdat any

$_ZN9__gnu_cxx13new_allocatorIiEC2ERKS1_ = comdat any

$_ZSt8distanceIPKiENSt15iterator_traitsIT_E15difference_typeES3_S3_ = comdat any

$_ZNSt12_Vector_baseIiSaIiEE11_M_allocateEm = comdat any

$_ZSt22__uninitialized_copy_aIPKiPiiET0_T_S4_S3_RSaIT1_E = comdat any

$_ZNSt12_Vector_baseIiSaIiEE19_M_get_Tp_allocatorEv = comdat any

$_ZSt10__distanceIPKiENSt15iterator_traitsIT_E15difference_typeES3_S3_St26random_access_iterator_tag = comdat any

$_ZSt19__iterator_categoryIPKiENSt15iterator_traitsIT_E17iterator_categoryERKS3_ = comdat any

$_ZNSt16allocator_traitsISaIiEE8allocateERS0_m = comdat any

$_ZN9__gnu_cxx13new_allocatorIiE8allocateEmPKv = comdat any

$_ZNK9__gnu_cxx13new_allocatorIiE8max_sizeEv = comdat any

$_ZSt18uninitialized_copyIPKiPiET0_T_S4_S3_ = comdat any

$_ZNSt20__uninitialized_copyILb1EE13__uninit_copyIPKiPiEET0_T_S6_S5_ = comdat any

$_ZSt4copyIPKiPiET0_T_S4_S3_ = comdat any

$_ZSt14__copy_move_a2ILb0EPKiPiET1_T0_S4_S3_ = comdat any

$_ZSt12__miter_baseIPKiENSt11_Miter_baseIT_E13iterator_typeES3_ = comdat any

$_ZSt13__copy_move_aILb0EPKiPiET1_T0_S4_S3_ = comdat any

$_ZSt12__niter_baseIPKiENSt11_Niter_baseIT_E13iterator_typeES3_ = comdat any

$_ZSt12__niter_baseIPiENSt11_Niter_baseIT_E13iterator_typeES2_ = comdat any

$_ZNSt11__copy_moveILb0ELb1ESt26random_access_iterator_tagE8__copy_mIiEEPT_PKS3_S6_S4_ = comdat any

$_ZNSt10_Iter_baseIPKiLb0EE7_S_baseES1_ = comdat any

$_ZNSt10_Iter_baseIPiLb0EE7_S_baseES0_ = comdat any

$_ZNKSt16initializer_listIiE4sizeEv = comdat any

$_ZNSt12_Vector_baseIiSaIiEE13_M_deallocateEPim = comdat any

$_ZNSt12_Vector_baseIiSaIiEE12_Vector_implD2Ev = comdat any

$_ZNSt16allocator_traitsISaIiEE10deallocateERS0_Pim = comdat any

$_ZN9__gnu_cxx13new_allocatorIiE10deallocateEPim = comdat any

$_ZSt8_DestroyIPiiEvT_S1_RSaIT0_E = comdat any

$_ZSt8_DestroyIPiEvT_S1_ = comdat any

$_ZNSt12_Destroy_auxILb1EE9__destroyIPiEEvT_S3_ = comdat any

$_ZSt6__sortIN9__gnu_cxx17__normal_iteratorIPcNSt7__cxx1112basic_stringIcSt11char_traitsIcESaIcEEEEENS0_5__ops15_Iter_less_iterEEvT_SC_T0_ = comdat any

$_ZN9__gnu_cxx5__ops16__iter_less_iterEv = comdat any

$_ZN9__gnu_cxxneIPcNSt7__cxx1112basic_stringIcSt11char_traitsIcESaIcEEEEEbRKNS_17__normal_iteratorIT_T0_EESD_ = comdat any

$_ZSt16__introsort_loopIN9__gnu_cxx17__normal_iteratorIPcNSt7__cxx1112basic_stringIcSt11char_traitsIcESaIcEEEEElNS0_5__ops15_Iter_less_iterEEvT_SC_T0_T1_ = comdat any

$_ZSt4__lgl = comdat any

$_ZN9__gnu_cxxmiIPcNSt7__cxx1112basic_stringIcSt11char_traitsIcESaIcEEEEENS_17__normal_iteratorIT_T0_E15difference_typeERKSB_SE_ = comdat any

$_ZSt22__final_insertion_sortIN9__gnu_cxx17__normal_iteratorIPcNSt7__cxx1112basic_stringIcSt11char_traitsIcESaIcEEEEENS0_5__ops15_Iter_less_iterEEvT_SC_T0_ = comdat any

$_ZNK9__gnu_cxx17__normal_iteratorIPcNSt7__cxx1112basic_stringIcSt11char_traitsIcESaIcEEEE4baseEv = comdat any

$_ZSt14__partial_sortIN9__gnu_cxx17__normal_iteratorIPcNSt7__cxx1112basic_stringIcSt11char_traitsIcESaIcEEEEENS0_5__ops15_Iter_less_iterEEvT_SC_SC_T0_ = comdat any

$_ZSt27__unguarded_partition_pivotIN9__gnu_cxx17__normal_iteratorIPcNSt7__cxx1112basic_stringIcSt11char_traitsIcESaIcEEEEENS0_5__ops15_Iter_less_iterEET_SC_SC_T0_ = comdat any

$_ZSt13__heap_selectIN9__gnu_cxx17__normal_iteratorIPcNSt7__cxx1112basic_stringIcSt11char_traitsIcESaIcEEEEENS0_5__ops15_Iter_less_iterEEvT_SC_SC_T0_ = comdat any

$_ZSt11__sort_heapIN9__gnu_cxx17__normal_iteratorIPcNSt7__cxx1112basic_stringIcSt11char_traitsIcESaIcEEEEENS0_5__ops15_Iter_less_iterEEvT_SC_T0_ = comdat any

$_ZSt11__make_heapIN9__gnu_cxx17__normal_iteratorIPcNSt7__cxx1112basic_stringIcSt11char_traitsIcESaIcEEEEENS0_5__ops15_Iter_less_iterEEvT_SC_T0_ = comdat any

$_ZN9__gnu_cxxltIPcNSt7__cxx1112basic_stringIcSt11char_traitsIcESaIcEEEEEbRKNS_17__normal_iteratorIT_T0_EESD_ = comdat any

$_ZNK9__gnu_cxx5__ops15_Iter_less_iterclINS_17__normal_iteratorIPcNSt7__cxx1112basic_stringIcSt11char_traitsIcESaIcEEEEESB_EEbT_T0_ = comdat any

$_ZSt10__pop_heapIN9__gnu_cxx17__normal_iteratorIPcNSt7__cxx1112basic_stringIcSt11char_traitsIcESaIcEEEEENS0_5__ops15_Iter_less_iterEEvT_SC_SC_T0_ = comdat any

$_ZN9__gnu_cxx17__normal_iteratorIPcNSt7__cxx1112basic_stringIcSt11char_traitsIcESaIcEEEEppEv = comdat any

$_ZSt4moveIRcEONSt16remove_referenceIT_E4typeEOS2_ = comdat any

$_ZNK9__gnu_cxx17__normal_iteratorIPcNSt7__cxx1112basic_stringIcSt11char_traitsIcESaIcEEEEplEl = comdat any

$_ZNK9__gnu_cxx17__normal_iteratorIPcNSt7__cxx1112basic_stringIcSt11char_traitsIcESaIcEEEEdeEv = comdat any

$_ZSt13__adjust_heapIN9__gnu_cxx17__normal_iteratorIPcNSt7__cxx1112basic_stringIcSt11char_traitsIcESaIcEEEEElcNS0_5__ops15_Iter_less_iterEEvT_T0_SD_T1_T2_ = comdat any

$_ZN9__gnu_cxx17__normal_iteratorIPcNSt7__cxx1112basic_stringIcSt11char_traitsIcESaIcEEEEC2ERKS1_ = comdat any

$_ZSt11__push_heapIN9__gnu_cxx17__normal_iteratorIPcNSt7__cxx1112basic_stringIcSt11char_traitsIcESaIcEEEEElcNS0_5__ops14_Iter_less_valEEvT_T0_SD_T1_T2_ = comdat any

$_ZN9__gnu_cxx5__ops15__iter_comp_valENS0_15_Iter_less_iterE = comdat any

$_ZNK9__gnu_cxx5__ops14_Iter_less_valclINS_17__normal_iteratorIPcNSt7__cxx1112basic_stringIcSt11char_traitsIcESaIcEEEEEcEEbT_RT0_ = comdat any

$_ZN9__gnu_cxx17__normal_iteratorIPcNSt7__cxx1112basic_stringIcSt11char_traitsIcESaIcEEEEmmEv = comdat any

$_ZSt22__move_median_to_firstIN9__gnu_cxx17__normal_iteratorIPcNSt7__cxx1112basic_stringIcSt11char_traitsIcESaIcEEEEENS0_5__ops15_Iter_less_iterEEvT_SC_SC_SC_T0_ = comdat any

$_ZNK9__gnu_cxx17__normal_iteratorIPcNSt7__cxx1112basic_stringIcSt11char_traitsIcESaIcEEEEmiEl = comdat any

$_ZSt21__unguarded_partitionIN9__gnu_cxx17__normal_iteratorIPcNSt7__cxx1112basic_stringIcSt11char_traitsIcESaIcEEEEENS0_5__ops15_Iter_less_iterEET_SC_SC_SC_T0_ = comdat any

$_ZSt9iter_swapIN9__gnu_cxx17__normal_iteratorIPcNSt7__cxx1112basic_stringIcSt11char_traitsIcESaIcEEEEES9_EvT_T0_ = comdat any

$_ZSt4swapIcEvRT_S1_ = comdat any

$_ZSt16__insertion_sortIN9__gnu_cxx17__normal_iteratorIPcNSt7__cxx1112basic_stringIcSt11char_traitsIcESaIcEEEEENS0_5__ops15_Iter_less_iterEEvT_SC_T0_ = comdat any

$_ZSt26__unguarded_insertion_sortIN9__gnu_cxx17__normal_iteratorIPcNSt7__cxx1112basic_stringIcSt11char_traitsIcESaIcEEEEENS0_5__ops15_Iter_less_iterEEvT_SC_T0_ = comdat any

$_ZN9__gnu_cxxeqIPcNSt7__cxx1112basic_stringIcSt11char_traitsIcESaIcEEEEEbRKNS_17__normal_iteratorIT_T0_EESD_ = comdat any

$_ZSt13move_backwardIN9__gnu_cxx17__normal_iteratorIPcNSt7__cxx1112basic_stringIcSt11char_traitsIcESaIcEEEEES9_ET0_T_SB_SA_ = comdat any

$_ZSt25__unguarded_linear_insertIN9__gnu_cxx17__normal_iteratorIPcNSt7__cxx1112basic_stringIcSt11char_traitsIcESaIcEEEEENS0_5__ops14_Val_less_iterEEvT_T0_ = comdat any

$_ZN9__gnu_cxx5__ops15__val_comp_iterENS0_15_Iter_less_iterE = comdat any

$_ZSt23__copy_move_backward_a2ILb1EN9__gnu_cxx17__normal_iteratorIPcNSt7__cxx1112basic_stringIcSt11char_traitsIcESaIcEEEEES9_ET1_T0_SB_SA_ = comdat any

$_ZSt12__miter_baseIN9__gnu_cxx17__normal_iteratorIPcNSt7__cxx1112basic_stringIcSt11char_traitsIcESaIcEEEEEENSt11_Miter_baseIT_E13iterator_typeESB_ = comdat any

$_ZSt22__copy_move_backward_aILb1EPcS0_ET1_T0_S2_S1_ = comdat any

$_ZSt12__niter_baseIN9__gnu_cxx17__normal_iteratorIPcNSt7__cxx1112basic_stringIcSt11char_traitsIcESaIcEEEEEENSt11_Niter_baseIT_E13iterator_typeESB_ = comdat any

$_ZNSt20__copy_move_backwardILb1ELb1ESt26random_access_iterator_tagE13__copy_move_bIcEEPT_PKS3_S6_S4_ = comdat any

$_ZNSt10_Iter_baseIN9__gnu_cxx17__normal_iteratorIPcNSt7__cxx1112basic_stringIcSt11char_traitsIcESaIcEEEEELb1EE7_S_baseES9_ = comdat any

$_ZNSt10_Iter_baseIN9__gnu_cxx17__normal_iteratorIPcNSt7__cxx1112basic_stringIcSt11char_traitsIcESaIcEEEEELb0EE7_S_baseES9_ = comdat any

$_ZNK9__gnu_cxx5__ops14_Val_less_iterclIcNS_17__normal_iteratorIPcNSt7__cxx1112basic_stringIcSt11char_traitsIcESaIcEEEEEEEbRT_T0_ = comdat any

$_ZSt9__reverseIN9__gnu_cxx17__normal_iteratorIPcNSt7__cxx1112basic_stringIcSt11char_traitsIcESaIcEEEEEEvT_SA_St26random_access_iterator_tag = comdat any

$_ZSt19__iterator_categoryIN9__gnu_cxx17__normal_iteratorIPcNSt7__cxx1112basic_stringIcSt11char_traitsIcESaIcEEEEEENSt15iterator_traitsIT_E17iterator_categoryERKSB_ = comdat any

@_ZStL8__ioinit = internal global %"class.std::ios_base::Init" zeroinitializer, align 1
@__dso_handle = external global i8
@N = global i64 0, align 8
@M = global i64 0, align 8
@H = global i64 0, align 8
@W = global i64 0, align 8
@_Z5fieldB5cxx11 = global %"class.std::vector" zeroinitializer, align 8
@seen = global %"class.std::vector.3" zeroinitializer, align 8
@_ZL2dx = internal global %"class.std::vector.15" zeroinitializer, align 8
@.ref.tmp = private constant [4 x i32] [i32 1, i32 0, i32 -1, i32 0], align 4
@_ZL2dy = internal global %"class.std::vector.15" zeroinitializer, align 8
@.ref.tmp.5 = private constant [4 x i32] [i32 0, i32 1, i32 0, i32 -1], align 4
@_ZSt3cin = external global %"class.std::basic_istream", align 8
@_ZSt4cout = external global %"class.std::basic_ostream", align 8
@.str = private unnamed_addr constant [3 x i8] c"No\00", align 1
@.str.6 = private unnamed_addr constant [4 x i8] c"Yes\00", align 1
@llvm.global_ctors = appending global [1 x { i32, void ()*, i8* }] [{ i32, void ()*, i8* } { i32 65535, void ()* @_GLOBAL__sub_I_s250874976.cpp, i8* null }]

; Function Attrs: noinline uwtable
define internal void @__cxx_global_var_init() #0 section ".text.startup" {
  call void @_ZNSt8ios_base4InitC1Ev(%"class.std::ios_base::Init"* @_ZStL8__ioinit)
  %1 = call i32 @__cxa_atexit(void (i8*)* bitcast (void (%"class.std::ios_base::Init"*)* @_ZNSt8ios_base4InitD1Ev to void (i8*)*), i8* getelementptr inbounds (%"class.std::ios_base::Init", %"class.std::ios_base::Init"* @_ZStL8__ioinit, i32 0, i32 0), i8* @__dso_handle) #3
  ret void
}

declare void @_ZNSt8ios_base4InitC1Ev(%"class.std::ios_base::Init"*) unnamed_addr #1

; Function Attrs: nounwind
declare void @_ZNSt8ios_base4InitD1Ev(%"class.std::ios_base::Init"*) unnamed_addr #2

; Function Attrs: nounwind
declare i32 @__cxa_atexit(void (i8*)*, i8*, i8*) #3

; Function Attrs: noinline uwtable
define internal void @__cxx_global_var_init.1() #0 section ".text.startup" {
  call void @_ZNSt6vectorINSt7__cxx1112basic_stringIcSt11char_traitsIcESaIcEEESaIS5_EEC2Ev(%"class.std::vector"* @_Z5fieldB5cxx11) #3
  %1 = call i32 @__cxa_atexit(void (i8*)* bitcast (void (%"class.std::vector"*)* @_ZNSt6vectorINSt7__cxx1112basic_stringIcSt11char_traitsIcESaIcEEESaIS5_EED2Ev to void (i8*)*), i8* bitcast (%"class.std::vector"* @_Z5fieldB5cxx11 to i8*), i8* @__dso_handle) #3
  ret void
}

; Function Attrs: noinline nounwind uwtable
define linkonce_odr void @_ZNSt6vectorINSt7__cxx1112basic_stringIcSt11char_traitsIcESaIcEEESaIS5_EEC2Ev(%"class.std::vector"*) unnamed_addr #4 comdat align 2 personality i8* bitcast (i32 (...)* @__gxx_personality_v0 to i8*) {
  %2 = alloca %"class.std::vector"*, align 8
  store %"class.std::vector"* %0, %"class.std::vector"** %2, align 8
  %3 = load %"class.std::vector"*, %"class.std::vector"** %2, align 8
  %4 = bitcast %"class.std::vector"* %3 to %"struct.std::_Vector_base"*
  invoke void @_ZNSt12_Vector_baseINSt7__cxx1112basic_stringIcSt11char_traitsIcESaIcEEESaIS5_EEC2Ev(%"struct.std::_Vector_base"* %4)
          to label %5 unwind label %6

; <label>:5:                                      ; preds = %1
  ret void

; <label>:6:                                      ; preds = %1
  %7 = landingpad { i8*, i32 }
          catch i8* null
  %8 = extractvalue { i8*, i32 } %7, 0
  call void @__clang_call_terminate(i8* %8) #11
  unreachable
}

; Function Attrs: noinline nounwind uwtable
define linkonce_odr void @_ZNSt6vectorINSt7__cxx1112basic_stringIcSt11char_traitsIcESaIcEEESaIS5_EED2Ev(%"class.std::vector"*) unnamed_addr #4 comdat align 2 personality i8* bitcast (i32 (...)* @__gxx_personality_v0 to i8*) {
  %2 = alloca %"class.std::vector"*, align 8
  %3 = alloca i8*
  %4 = alloca i32
  store %"class.std::vector"* %0, %"class.std::vector"** %2, align 8
  %5 = load %"class.std::vector"*, %"class.std::vector"** %2, align 8
  %6 = bitcast %"class.std::vector"* %5 to %"struct.std::_Vector_base"*
  %7 = getelementptr inbounds %"struct.std::_Vector_base", %"struct.std::_Vector_base"* %6, i32 0, i32 0
  %8 = getelementptr inbounds %"struct.std::_Vector_base<std::__cxx11::basic_string<char>, std::allocator<std::__cxx11::basic_string<char> > >::_Vector_impl", %"struct.std::_Vector_base<std::__cxx11::basic_string<char>, std::allocator<std::__cxx11::basic_string<char> > >::_Vector_impl"* %7, i32 0, i32 0
  %9 = load %"class.std::__cxx11::basic_string"*, %"class.std::__cxx11::basic_string"** %8, align 8
  %10 = bitcast %"class.std::vector"* %5 to %"struct.std::_Vector_base"*
  %11 = getelementptr inbounds %"struct.std::_Vector_base", %"struct.std::_Vector_base"* %10, i32 0, i32 0
  %12 = getelementptr inbounds %"struct.std::_Vector_base<std::__cxx11::basic_string<char>, std::allocator<std::__cxx11::basic_string<char> > >::_Vector_impl", %"struct.std::_Vector_base<std::__cxx11::basic_string<char>, std::allocator<std::__cxx11::basic_string<char> > >::_Vector_impl"* %11, i32 0, i32 1
  %13 = load %"class.std::__cxx11::basic_string"*, %"class.std::__cxx11::basic_string"** %12, align 8
  %14 = bitcast %"class.std::vector"* %5 to %"struct.std::_Vector_base"*
  %15 = call dereferenceable(1) %"class.std::allocator"* @_ZNSt12_Vector_baseINSt7__cxx1112basic_stringIcSt11char_traitsIcESaIcEEESaIS5_EE19_M_get_Tp_allocatorEv(%"struct.std::_Vector_base"* %14) #3
  invoke void @_ZSt8_DestroyIPNSt7__cxx1112basic_stringIcSt11char_traitsIcESaIcEEES5_EvT_S7_RSaIT0_E(%"class.std::__cxx11::basic_string"* %9, %"class.std::__cxx11::basic_string"* %13, %"class.std::allocator"* dereferenceable(1) %15)
          to label %16 unwind label %18

; <label>:16:                                     ; preds = %1
  %17 = bitcast %"class.std::vector"* %5 to %"struct.std::_Vector_base"*
  call void @_ZNSt12_Vector_baseINSt7__cxx1112basic_stringIcSt11char_traitsIcESaIcEEESaIS5_EED2Ev(%"struct.std::_Vector_base"* %17) #3
  ret void

; <label>:18:                                     ; preds = %1
  %19 = landingpad { i8*, i32 }
          catch i8* null
  %20 = extractvalue { i8*, i32 } %19, 0
  store i8* %20, i8** %3, align 8
  %21 = extractvalue { i8*, i32 } %19, 1
  store i32 %21, i32* %4, align 4
  %22 = bitcast %"class.std::vector"* %5 to %"struct.std::_Vector_base"*
  call void @_ZNSt12_Vector_baseINSt7__cxx1112basic_stringIcSt11char_traitsIcESaIcEEESaIS5_EED2Ev(%"struct.std::_Vector_base"* %22) #3
  br label %23

; <label>:23:                                     ; preds = %18
  %24 = load i8*, i8** %3, align 8
  call void @__clang_call_terminate(i8* %24) #11
  unreachable
}

; Function Attrs: noinline uwtable
define internal void @__cxx_global_var_init.2() #0 section ".text.startup" personality i8* bitcast (i32 (...)* @__gxx_personality_v0 to i8*) {
  %1 = alloca %"class.std::vector.8", align 8
  %2 = alloca %"class.std::allocator.12", align 1
  %3 = alloca i8*
  %4 = alloca i32
  %5 = alloca %"class.std::allocator.5", align 1
  %6 = load i64, i64* @H, align 8
  %7 = load i64, i64* @W, align 8
  call void @_ZNSaIbEC2Ev(%"class.std::allocator.12"* %2) #3
  invoke void @_ZNSt6vectorIbSaIbEEC2EmRKS0_(%"class.std::vector.8"* %1, i64 %7, %"class.std::allocator.12"* dereferenceable(1) %2)
          to label %8 unwind label %11

; <label>:8:                                      ; preds = %0
  call void @_ZNSaISt6vectorIbSaIbEEEC2Ev(%"class.std::allocator.5"* %5) #3
  invoke void @_ZNSt6vectorIS_IbSaIbEESaIS1_EEC2EmRKS1_RKS2_(%"class.std::vector.3"* @seen, i64 %6, %"class.std::vector.8"* dereferenceable(40) %1, %"class.std::allocator.5"* dereferenceable(1) %5)
          to label %9 unwind label %15

; <label>:9:                                      ; preds = %8
  call void @_ZNSaISt6vectorIbSaIbEEED2Ev(%"class.std::allocator.5"* %5) #3
  call void @_ZNSt6vectorIbSaIbEED2Ev(%"class.std::vector.8"* %1) #3
  call void @_ZNSaIbED2Ev(%"class.std::allocator.12"* %2) #3
  %10 = call i32 @__cxa_atexit(void (i8*)* bitcast (void (%"class.std::vector.3"*)* @_ZNSt6vectorIS_IbSaIbEESaIS1_EED2Ev to void (i8*)*), i8* bitcast (%"class.std::vector.3"* @seen to i8*), i8* @__dso_handle) #3
  ret void

; <label>:11:                                     ; preds = %0
  %12 = landingpad { i8*, i32 }
          cleanup
  %13 = extractvalue { i8*, i32 } %12, 0
  store i8* %13, i8** %3, align 8
  %14 = extractvalue { i8*, i32 } %12, 1
  store i32 %14, i32* %4, align 4
  br label %19

; <label>:15:                                     ; preds = %8
  %16 = landingpad { i8*, i32 }
          cleanup
  %17 = extractvalue { i8*, i32 } %16, 0
  store i8* %17, i8** %3, align 8
  %18 = extractvalue { i8*, i32 } %16, 1
  store i32 %18, i32* %4, align 4
  call void @_ZNSaISt6vectorIbSaIbEEED2Ev(%"class.std::allocator.5"* %5) #3
  call void @_ZNSt6vectorIbSaIbEED2Ev(%"class.std::vector.8"* %1) #3
  br label %19

; <label>:19:                                     ; preds = %15, %11
  call void @_ZNSaIbED2Ev(%"class.std::allocator.12"* %2) #3
  br label %20

; <label>:20:                                     ; preds = %19
  %21 = load i8*, i8** %3, align 8
  %22 = load i32, i32* %4, align 4
  %23 = insertvalue { i8*, i32 } undef, i8* %21, 0
  %24 = insertvalue { i8*, i32 } %23, i32 %22, 1
  resume { i8*, i32 } %24
}

; Function Attrs: noinline nounwind uwtable
define linkonce_odr void @_ZNSaIbEC2Ev(%"class.std::allocator.12"*) unnamed_addr #4 comdat align 2 {
  %2 = alloca %"class.std::allocator.12"*, align 8
  store %"class.std::allocator.12"* %0, %"class.std::allocator.12"** %2, align 8
  %3 = load %"class.std::allocator.12"*, %"class.std::allocator.12"** %2, align 8
  %4 = bitcast %"class.std::allocator.12"* %3 to %"class.__gnu_cxx::new_allocator.13"*
  call void @_ZN9__gnu_cxx13new_allocatorIbEC2Ev(%"class.__gnu_cxx::new_allocator.13"* %4) #3
  ret void
}

; Function Attrs: noinline uwtable
define linkonce_odr void @_ZNSt6vectorIbSaIbEEC2EmRKS0_(%"class.std::vector.8"*, i64, %"class.std::allocator.12"* dereferenceable(1)) unnamed_addr #0 comdat align 2 {
  %4 = alloca %"class.std::vector.8"*, align 8
  %5 = alloca i64, align 8
  %6 = alloca %"class.std::allocator.12"*, align 8
  %7 = alloca i8, align 1
  store %"class.std::vector.8"* %0, %"class.std::vector.8"** %4, align 8
  store i64 %1, i64* %5, align 8
  store %"class.std::allocator.12"* %2, %"class.std::allocator.12"** %6, align 8
  %8 = load %"class.std::vector.8"*, %"class.std::vector.8"** %4, align 8
  %9 = load i64, i64* %5, align 8
  store i8 0, i8* %7, align 1
  %10 = load %"class.std::allocator.12"*, %"class.std::allocator.12"** %6, align 8
  call void @_ZNSt6vectorIbSaIbEEC2EmRKbRKS0_(%"class.std::vector.8"* %8, i64 %9, i8* dereferenceable(1) %7, %"class.std::allocator.12"* dereferenceable(1) %10)
  ret void
}

declare i32 @__gxx_personality_v0(...)

; Function Attrs: noinline nounwind uwtable
define linkonce_odr void @_ZNSaISt6vectorIbSaIbEEEC2Ev(%"class.std::allocator.5"*) unnamed_addr #4 comdat align 2 {
  %2 = alloca %"class.std::allocator.5"*, align 8
  store %"class.std::allocator.5"* %0, %"class.std::allocator.5"** %2, align 8
  %3 = load %"class.std::allocator.5"*, %"class.std::allocator.5"** %2, align 8
  %4 = bitcast %"class.std::allocator.5"* %3 to %"class.__gnu_cxx::new_allocator.6"*
  call void @_ZN9__gnu_cxx13new_allocatorISt6vectorIbSaIbEEEC2Ev(%"class.__gnu_cxx::new_allocator.6"* %4) #3
  ret void
}

; Function Attrs: noinline uwtable
define linkonce_odr void @_ZNSt6vectorIS_IbSaIbEESaIS1_EEC2EmRKS1_RKS2_(%"class.std::vector.3"*, i64, %"class.std::vector.8"* dereferenceable(40), %"class.std::allocator.5"* dereferenceable(1)) unnamed_addr #0 comdat align 2 personality i8* bitcast (i32 (...)* @__gxx_personality_v0 to i8*) {
  %5 = alloca %"class.std::vector.3"*, align 8
  %6 = alloca i64, align 8
  %7 = alloca %"class.std::vector.8"*, align 8
  %8 = alloca %"class.std::allocator.5"*, align 8
  %9 = alloca i8*
  %10 = alloca i32
  store %"class.std::vector.3"* %0, %"class.std::vector.3"** %5, align 8
  store i64 %1, i64* %6, align 8
  store %"class.std::vector.8"* %2, %"class.std::vector.8"** %7, align 8
  store %"class.std::allocator.5"* %3, %"class.std::allocator.5"** %8, align 8
  %11 = load %"class.std::vector.3"*, %"class.std::vector.3"** %5, align 8
  %12 = bitcast %"class.std::vector.3"* %11 to %"struct.std::_Vector_base.4"*
  %13 = load i64, i64* %6, align 8
  %14 = load %"class.std::allocator.5"*, %"class.std::allocator.5"** %8, align 8
  call void @_ZNSt12_Vector_baseISt6vectorIbSaIbEESaIS2_EEC2EmRKS3_(%"struct.std::_Vector_base.4"* %12, i64 %13, %"class.std::allocator.5"* dereferenceable(1) %14)
  %15 = load i64, i64* %6, align 8
  %16 = load %"class.std::vector.8"*, %"class.std::vector.8"** %7, align 8
  invoke void @_ZNSt6vectorIS_IbSaIbEESaIS1_EE18_M_fill_initializeEmRKS1_(%"class.std::vector.3"* %11, i64 %15, %"class.std::vector.8"* dereferenceable(40) %16)
          to label %17 unwind label %18

; <label>:17:                                     ; preds = %4
  ret void

; <label>:18:                                     ; preds = %4
  %19 = landingpad { i8*, i32 }
          cleanup
  %20 = extractvalue { i8*, i32 } %19, 0
  store i8* %20, i8** %9, align 8
  %21 = extractvalue { i8*, i32 } %19, 1
  store i32 %21, i32* %10, align 4
  %22 = bitcast %"class.std::vector.3"* %11 to %"struct.std::_Vector_base.4"*
  call void @_ZNSt12_Vector_baseISt6vectorIbSaIbEESaIS2_EED2Ev(%"struct.std::_Vector_base.4"* %22) #3
  br label %23

; <label>:23:                                     ; preds = %18
  %24 = load i8*, i8** %9, align 8
  %25 = load i32, i32* %10, align 4
  %26 = insertvalue { i8*, i32 } undef, i8* %24, 0
  %27 = insertvalue { i8*, i32 } %26, i32 %25, 1
  resume { i8*, i32 } %27
}

; Function Attrs: noinline nounwind uwtable
define linkonce_odr void @_ZNSaISt6vectorIbSaIbEEED2Ev(%"class.std::allocator.5"*) unnamed_addr #4 comdat align 2 {
  %2 = alloca %"class.std::allocator.5"*, align 8
  store %"class.std::allocator.5"* %0, %"class.std::allocator.5"** %2, align 8
  %3 = load %"class.std::allocator.5"*, %"class.std::allocator.5"** %2, align 8
  %4 = bitcast %"class.std::allocator.5"* %3 to %"class.__gnu_cxx::new_allocator.6"*
  call void @_ZN9__gnu_cxx13new_allocatorISt6vectorIbSaIbEEED2Ev(%"class.__gnu_cxx::new_allocator.6"* %4) #3
  ret void
}

; Function Attrs: noinline nounwind uwtable
define linkonce_odr void @_ZNSt6vectorIbSaIbEED2Ev(%"class.std::vector.8"*) unnamed_addr #4 comdat align 2 {
  %2 = alloca %"class.std::vector.8"*, align 8
  store %"class.std::vector.8"* %0, %"class.std::vector.8"** %2, align 8
  %3 = load %"class.std::vector.8"*, %"class.std::vector.8"** %2, align 8
  %4 = bitcast %"class.std::vector.8"* %3 to %"struct.std::_Bvector_base"*
  call void @_ZNSt13_Bvector_baseISaIbEED2Ev(%"struct.std::_Bvector_base"* %4) #3
  ret void
}

; Function Attrs: noinline nounwind uwtable
define linkonce_odr void @_ZNSaIbED2Ev(%"class.std::allocator.12"*) unnamed_addr #4 comdat align 2 {
  %2 = alloca %"class.std::allocator.12"*, align 8
  store %"class.std::allocator.12"* %0, %"class.std::allocator.12"** %2, align 8
  %3 = load %"class.std::allocator.12"*, %"class.std::allocator.12"** %2, align 8
  %4 = bitcast %"class.std::allocator.12"* %3 to %"class.__gnu_cxx::new_allocator.13"*
  call void @_ZN9__gnu_cxx13new_allocatorIbED2Ev(%"class.__gnu_cxx::new_allocator.13"* %4) #3
  ret void
}

; Function Attrs: noinline nounwind uwtable
define linkonce_odr void @_ZNSt6vectorIS_IbSaIbEESaIS1_EED2Ev(%"class.std::vector.3"*) unnamed_addr #4 comdat align 2 personality i8* bitcast (i32 (...)* @__gxx_personality_v0 to i8*) {
  %2 = alloca %"class.std::vector.3"*, align 8
  %3 = alloca i8*
  %4 = alloca i32
  store %"class.std::vector.3"* %0, %"class.std::vector.3"** %2, align 8
  %5 = load %"class.std::vector.3"*, %"class.std::vector.3"** %2, align 8
  %6 = bitcast %"class.std::vector.3"* %5 to %"struct.std::_Vector_base.4"*
  %7 = getelementptr inbounds %"struct.std::_Vector_base.4", %"struct.std::_Vector_base.4"* %6, i32 0, i32 0
  %8 = getelementptr inbounds %"struct.std::_Vector_base<std::vector<bool, std::allocator<bool> >, std::allocator<std::vector<bool, std::allocator<bool> > > >::_Vector_impl", %"struct.std::_Vector_base<std::vector<bool, std::allocator<bool> >, std::allocator<std::vector<bool, std::allocator<bool> > > >::_Vector_impl"* %7, i32 0, i32 0
  %9 = load %"class.std::vector.8"*, %"class.std::vector.8"** %8, align 8
  %10 = bitcast %"class.std::vector.3"* %5 to %"struct.std::_Vector_base.4"*
  %11 = getelementptr inbounds %"struct.std::_Vector_base.4", %"struct.std::_Vector_base.4"* %10, i32 0, i32 0
  %12 = getelementptr inbounds %"struct.std::_Vector_base<std::vector<bool, std::allocator<bool> >, std::allocator<std::vector<bool, std::allocator<bool> > > >::_Vector_impl", %"struct.std::_Vector_base<std::vector<bool, std::allocator<bool> >, std::allocator<std::vector<bool, std::allocator<bool> > > >::_Vector_impl"* %11, i32 0, i32 1
  %13 = load %"class.std::vector.8"*, %"class.std::vector.8"** %12, align 8
  %14 = bitcast %"class.std::vector.3"* %5 to %"struct.std::_Vector_base.4"*
  %15 = call dereferenceable(1) %"class.std::allocator.5"* @_ZNSt12_Vector_baseISt6vectorIbSaIbEESaIS2_EE19_M_get_Tp_allocatorEv(%"struct.std::_Vector_base.4"* %14) #3
  invoke void @_ZSt8_DestroyIPSt6vectorIbSaIbEES2_EvT_S4_RSaIT0_E(%"class.std::vector.8"* %9, %"class.std::vector.8"* %13, %"class.std::allocator.5"* dereferenceable(1) %15)
          to label %16 unwind label %18

; <label>:16:                                     ; preds = %1
  %17 = bitcast %"class.std::vector.3"* %5 to %"struct.std::_Vector_base.4"*
  call void @_ZNSt12_Vector_baseISt6vectorIbSaIbEESaIS2_EED2Ev(%"struct.std::_Vector_base.4"* %17) #3
  ret void

; <label>:18:                                     ; preds = %1
  %19 = landingpad { i8*, i32 }
          catch i8* null
  %20 = extractvalue { i8*, i32 } %19, 0
  store i8* %20, i8** %3, align 8
  %21 = extractvalue { i8*, i32 } %19, 1
  store i32 %21, i32* %4, align 4
  %22 = bitcast %"class.std::vector.3"* %5 to %"struct.std::_Vector_base.4"*
  call void @_ZNSt12_Vector_baseISt6vectorIbSaIbEESaIS2_EED2Ev(%"struct.std::_Vector_base.4"* %22) #3
  br label %23

; <label>:23:                                     ; preds = %18
  %24 = load i8*, i8** %3, align 8
  call void @__clang_call_terminate(i8* %24) #11
  unreachable
}

; Function Attrs: noinline uwtable
define internal void @__cxx_global_var_init.3() #0 section ".text.startup" personality i8* bitcast (i32 (...)* @__gxx_personality_v0 to i8*) {
  %1 = alloca %"class.std::initializer_list", align 8
  %2 = alloca %"class.std::allocator.17", align 1
  %3 = alloca i8*
  %4 = alloca i32
  %5 = getelementptr inbounds %"class.std::initializer_list", %"class.std::initializer_list"* %1, i32 0, i32 0
  store i32* getelementptr inbounds ([4 x i32], [4 x i32]* @.ref.tmp, i64 0, i64 0), i32** %5, align 8
  %6 = getelementptr inbounds %"class.std::initializer_list", %"class.std::initializer_list"* %1, i32 0, i32 1
  store i64 4, i64* %6, align 8
  call void @_ZNSaIiEC2Ev(%"class.std::allocator.17"* %2) #3
  %7 = bitcast %"class.std::initializer_list"* %1 to { i32*, i64 }*
  %8 = getelementptr inbounds { i32*, i64 }, { i32*, i64 }* %7, i32 0, i32 0
  %9 = load i32*, i32** %8, align 8
  %10 = getelementptr inbounds { i32*, i64 }, { i32*, i64 }* %7, i32 0, i32 1
  %11 = load i64, i64* %10, align 8
  invoke void @_ZNSt6vectorIiSaIiEEC2ESt16initializer_listIiERKS0_(%"class.std::vector.15"* @_ZL2dx, i32* %9, i64 %11, %"class.std::allocator.17"* dereferenceable(1) %2)
          to label %12 unwind label %14

; <label>:12:                                     ; preds = %0
  call void @_ZNSaIiED2Ev(%"class.std::allocator.17"* %2) #3
  %13 = call i32 @__cxa_atexit(void (i8*)* bitcast (void (%"class.std::vector.15"*)* @_ZNSt6vectorIiSaIiEED2Ev to void (i8*)*), i8* bitcast (%"class.std::vector.15"* @_ZL2dx to i8*), i8* @__dso_handle) #3
  ret void

; <label>:14:                                     ; preds = %0
  %15 = landingpad { i8*, i32 }
          cleanup
  %16 = extractvalue { i8*, i32 } %15, 0
  store i8* %16, i8** %3, align 8
  %17 = extractvalue { i8*, i32 } %15, 1
  store i32 %17, i32* %4, align 4
  call void @_ZNSaIiED2Ev(%"class.std::allocator.17"* %2) #3
  br label %18

; <label>:18:                                     ; preds = %14
  %19 = load i8*, i8** %3, align 8
  %20 = load i32, i32* %4, align 4
  %21 = insertvalue { i8*, i32 } undef, i8* %19, 0
  %22 = insertvalue { i8*, i32 } %21, i32 %20, 1
  resume { i8*, i32 } %22
}

; Function Attrs: noinline nounwind uwtable
define linkonce_odr void @_ZNSaIiEC2Ev(%"class.std::allocator.17"*) unnamed_addr #4 comdat align 2 {
  %2 = alloca %"class.std::allocator.17"*, align 8
  store %"class.std::allocator.17"* %0, %"class.std::allocator.17"** %2, align 8
  %3 = load %"class.std::allocator.17"*, %"class.std::allocator.17"** %2, align 8
  %4 = bitcast %"class.std::allocator.17"* %3 to %"class.__gnu_cxx::new_allocator.18"*
  call void @_ZN9__gnu_cxx13new_allocatorIiEC2Ev(%"class.__gnu_cxx::new_allocator.18"* %4) #3
  ret void
}

; Function Attrs: noinline uwtable
define linkonce_odr void @_ZNSt6vectorIiSaIiEEC2ESt16initializer_listIiERKS0_(%"class.std::vector.15"*, i32*, i64, %"class.std::allocator.17"* dereferenceable(1)) unnamed_addr #0 comdat align 2 personality i8* bitcast (i32 (...)* @__gxx_personality_v0 to i8*) {
  %5 = alloca %"class.std::initializer_list", align 8
  %6 = alloca %"class.std::vector.15"*, align 8
  %7 = alloca %"class.std::allocator.17"*, align 8
  %8 = alloca %"struct.std::forward_iterator_tag", align 1
  %9 = alloca %"struct.std::random_access_iterator_tag", align 1
  %10 = alloca i8*
  %11 = alloca i32
  %12 = bitcast %"class.std::initializer_list"* %5 to { i32*, i64 }*
  %13 = getelementptr inbounds { i32*, i64 }, { i32*, i64 }* %12, i32 0, i32 0
  store i32* %1, i32** %13, align 8
  %14 = getelementptr inbounds { i32*, i64 }, { i32*, i64 }* %12, i32 0, i32 1
  store i64 %2, i64* %14, align 8
  store %"class.std::vector.15"* %0, %"class.std::vector.15"** %6, align 8
  store %"class.std::allocator.17"* %3, %"class.std::allocator.17"** %7, align 8
  %15 = load %"class.std::vector.15"*, %"class.std::vector.15"** %6, align 8
  %16 = bitcast %"class.std::vector.15"* %15 to %"struct.std::_Vector_base.16"*
  %17 = load %"class.std::allocator.17"*, %"class.std::allocator.17"** %7, align 8
  call void @_ZNSt12_Vector_baseIiSaIiEEC2ERKS0_(%"struct.std::_Vector_base.16"* %16, %"class.std::allocator.17"* dereferenceable(1) %17) #3
  %18 = call i32* @_ZNKSt16initializer_listIiE5beginEv(%"class.std::initializer_list"* %5) #3
  %19 = call i32* @_ZNKSt16initializer_listIiE3endEv(%"class.std::initializer_list"* %5) #3
  %20 = bitcast %"struct.std::random_access_iterator_tag"* %9 to %"struct.std::forward_iterator_tag"*
  invoke void @_ZNSt6vectorIiSaIiEE19_M_range_initializeIPKiEEvT_S5_St20forward_iterator_tag(%"class.std::vector.15"* %15, i32* %18, i32* %19)
          to label %21 unwind label %22

; <label>:21:                                     ; preds = %4
  ret void

; <label>:22:                                     ; preds = %4
  %23 = landingpad { i8*, i32 }
          cleanup
  %24 = extractvalue { i8*, i32 } %23, 0
  store i8* %24, i8** %10, align 8
  %25 = extractvalue { i8*, i32 } %23, 1
  store i32 %25, i32* %11, align 4
  %26 = bitcast %"class.std::vector.15"* %15 to %"struct.std::_Vector_base.16"*
  call void @_ZNSt12_Vector_baseIiSaIiEED2Ev(%"struct.std::_Vector_base.16"* %26) #3
  br label %27

; <label>:27:                                     ; preds = %22
  %28 = load i8*, i8** %10, align 8
  %29 = load i32, i32* %11, align 4
  %30 = insertvalue { i8*, i32 } undef, i8* %28, 0
  %31 = insertvalue { i8*, i32 } %30, i32 %29, 1
  resume { i8*, i32 } %31
}

; Function Attrs: noinline nounwind uwtable
define linkonce_odr void @_ZNSaIiED2Ev(%"class.std::allocator.17"*) unnamed_addr #4 comdat align 2 {
  %2 = alloca %"class.std::allocator.17"*, align 8
  store %"class.std::allocator.17"* %0, %"class.std::allocator.17"** %2, align 8
  %3 = load %"class.std::allocator.17"*, %"class.std::allocator.17"** %2, align 8
  %4 = bitcast %"class.std::allocator.17"* %3 to %"class.__gnu_cxx::new_allocator.18"*
  call void @_ZN9__gnu_cxx13new_allocatorIiED2Ev(%"class.__gnu_cxx::new_allocator.18"* %4) #3
  ret void
}

; Function Attrs: noinline nounwind uwtable
define linkonce_odr void @_ZNSt6vectorIiSaIiEED2Ev(%"class.std::vector.15"*) unnamed_addr #4 comdat align 2 personality i8* bitcast (i32 (...)* @__gxx_personality_v0 to i8*) {
  %2 = alloca %"class.std::vector.15"*, align 8
  %3 = alloca i8*
  %4 = alloca i32
  store %"class.std::vector.15"* %0, %"class.std::vector.15"** %2, align 8
  %5 = load %"class.std::vector.15"*, %"class.std::vector.15"** %2, align 8
  %6 = bitcast %"class.std::vector.15"* %5 to %"struct.std::_Vector_base.16"*
  %7 = getelementptr inbounds %"struct.std::_Vector_base.16", %"struct.std::_Vector_base.16"* %6, i32 0, i32 0
  %8 = getelementptr inbounds %"struct.std::_Vector_base<int, std::allocator<int> >::_Vector_impl", %"struct.std::_Vector_base<int, std::allocator<int> >::_Vector_impl"* %7, i32 0, i32 0
  %9 = load i32*, i32** %8, align 8
  %10 = bitcast %"class.std::vector.15"* %5 to %"struct.std::_Vector_base.16"*
  %11 = getelementptr inbounds %"struct.std::_Vector_base.16", %"struct.std::_Vector_base.16"* %10, i32 0, i32 0
  %12 = getelementptr inbounds %"struct.std::_Vector_base<int, std::allocator<int> >::_Vector_impl", %"struct.std::_Vector_base<int, std::allocator<int> >::_Vector_impl"* %11, i32 0, i32 1
  %13 = load i32*, i32** %12, align 8
  %14 = bitcast %"class.std::vector.15"* %5 to %"struct.std::_Vector_base.16"*
  %15 = call dereferenceable(1) %"class.std::allocator.17"* @_ZNSt12_Vector_baseIiSaIiEE19_M_get_Tp_allocatorEv(%"struct.std::_Vector_base.16"* %14) #3
  invoke void @_ZSt8_DestroyIPiiEvT_S1_RSaIT0_E(i32* %9, i32* %13, %"class.std::allocator.17"* dereferenceable(1) %15)
          to label %16 unwind label %18

; <label>:16:                                     ; preds = %1
  %17 = bitcast %"class.std::vector.15"* %5 to %"struct.std::_Vector_base.16"*
  call void @_ZNSt12_Vector_baseIiSaIiEED2Ev(%"struct.std::_Vector_base.16"* %17) #3
  ret void

; <label>:18:                                     ; preds = %1
  %19 = landingpad { i8*, i32 }
          catch i8* null
  %20 = extractvalue { i8*, i32 } %19, 0
  store i8* %20, i8** %3, align 8
  %21 = extractvalue { i8*, i32 } %19, 1
  store i32 %21, i32* %4, align 4
  %22 = bitcast %"class.std::vector.15"* %5 to %"struct.std::_Vector_base.16"*
  call void @_ZNSt12_Vector_baseIiSaIiEED2Ev(%"struct.std::_Vector_base.16"* %22) #3
  br label %23

; <label>:23:                                     ; preds = %18
  %24 = load i8*, i8** %3, align 8
  call void @__clang_call_terminate(i8* %24) #11
  unreachable
}

; Function Attrs: noinline uwtable
define internal void @__cxx_global_var_init.4() #0 section ".text.startup" personality i8* bitcast (i32 (...)* @__gxx_personality_v0 to i8*) {
  %1 = alloca %"class.std::initializer_list", align 8
  %2 = alloca %"class.std::allocator.17", align 1
  %3 = alloca i8*
  %4 = alloca i32
  %5 = getelementptr inbounds %"class.std::initializer_list", %"class.std::initializer_list"* %1, i32 0, i32 0
  store i32* getelementptr inbounds ([4 x i32], [4 x i32]* @.ref.tmp.5, i64 0, i64 0), i32** %5, align 8
  %6 = getelementptr inbounds %"class.std::initializer_list", %"class.std::initializer_list"* %1, i32 0, i32 1
  store i64 4, i64* %6, align 8
  call void @_ZNSaIiEC2Ev(%"class.std::allocator.17"* %2) #3
  %7 = bitcast %"class.std::initializer_list"* %1 to { i32*, i64 }*
  %8 = getelementptr inbounds { i32*, i64 }, { i32*, i64 }* %7, i32 0, i32 0
  %9 = load i32*, i32** %8, align 8
  %10 = getelementptr inbounds { i32*, i64 }, { i32*, i64 }* %7, i32 0, i32 1
  %11 = load i64, i64* %10, align 8
  invoke void @_ZNSt6vectorIiSaIiEEC2ESt16initializer_listIiERKS0_(%"class.std::vector.15"* @_ZL2dy, i32* %9, i64 %11, %"class.std::allocator.17"* dereferenceable(1) %2)
          to label %12 unwind label %14

; <label>:12:                                     ; preds = %0
  call void @_ZNSaIiED2Ev(%"class.std::allocator.17"* %2) #3
  %13 = call i32 @__cxa_atexit(void (i8*)* bitcast (void (%"class.std::vector.15"*)* @_ZNSt6vectorIiSaIiEED2Ev to void (i8*)*), i8* bitcast (%"class.std::vector.15"* @_ZL2dy to i8*), i8* @__dso_handle) #3
  ret void

; <label>:14:                                     ; preds = %0
  %15 = landingpad { i8*, i32 }
          cleanup
  %16 = extractvalue { i8*, i32 } %15, 0
  store i8* %16, i8** %3, align 8
  %17 = extractvalue { i8*, i32 } %15, 1
  store i32 %17, i32* %4, align 4
  call void @_ZNSaIiED2Ev(%"class.std::allocator.17"* %2) #3
  br label %18

; <label>:18:                                     ; preds = %14
  %19 = load i8*, i8** %3, align 8
  %20 = load i32, i32* %4, align 4
  %21 = insertvalue { i8*, i32 } undef, i8* %19, 0
  %22 = insertvalue { i8*, i32 } %21, i32 %20, 1
  resume { i8*, i32 } %22
}

; Function Attrs: noinline norecurse uwtable
define i32 @main() #5 personality i8* bitcast (i32 (...)* @__gxx_personality_v0 to i8*) {
  %1 = alloca i32, align 4
  %2 = alloca %"class.std::__cxx11::basic_string", align 8
  %3 = alloca %"class.std::__cxx11::basic_string", align 8
  %4 = alloca i8*
  %5 = alloca i32
  %6 = alloca %"class.__gnu_cxx::__normal_iterator", align 8
  %7 = alloca %"class.__gnu_cxx::__normal_iterator", align 8
  %8 = alloca %"class.__gnu_cxx::__normal_iterator", align 8
  %9 = alloca %"class.__gnu_cxx::__normal_iterator", align 8
  %10 = alloca %"class.__gnu_cxx::__normal_iterator", align 8
  %11 = alloca %"class.__gnu_cxx::__normal_iterator", align 8
  %12 = alloca i8, align 1
  %13 = alloca i32, align 4
  %14 = alloca i64, align 8
  %15 = alloca i64, align 8
  %16 = alloca i32
  store i32 0, i32* %1, align 4
  call void @_ZNSt7__cxx1112basic_stringIcSt11char_traitsIcESaIcEEC1Ev(%"class.std::__cxx11::basic_string"* %2) #3
  call void @_ZNSt7__cxx1112basic_stringIcSt11char_traitsIcESaIcEEC1Ev(%"class.std::__cxx11::basic_string"* %3) #3
  %17 = invoke dereferenceable(280) %"class.std::basic_istream"* @_ZStrsIcSt11char_traitsIcESaIcEERSt13basic_istreamIT_T0_ES7_RNSt7__cxx1112basic_stringIS4_S5_T1_EE(%"class.std::basic_istream"* dereferenceable(280) @_ZSt3cin, %"class.std::__cxx11::basic_string"* dereferenceable(32) %2)
          to label %18 unwind label %76

; <label>:18:                                     ; preds = %0
  %19 = invoke dereferenceable(280) %"class.std::basic_istream"* @_ZStrsIcSt11char_traitsIcESaIcEERSt13basic_istreamIT_T0_ES7_RNSt7__cxx1112basic_stringIS4_S5_T1_EE(%"class.std::basic_istream"* dereferenceable(280) %17, %"class.std::__cxx11::basic_string"* dereferenceable(32) %3)
          to label %20 unwind label %76

; <label>:20:                                     ; preds = %18
  %21 = call i8* @_ZNSt7__cxx1112basic_stringIcSt11char_traitsIcESaIcEE5beginEv(%"class.std::__cxx11::basic_string"* %2) #3
  %22 = getelementptr inbounds %"class.__gnu_cxx::__normal_iterator", %"class.__gnu_cxx::__normal_iterator"* %6, i32 0, i32 0
  store i8* %21, i8** %22, align 8
  %23 = call i8* @_ZNSt7__cxx1112basic_stringIcSt11char_traitsIcESaIcEE3endEv(%"class.std::__cxx11::basic_string"* %2) #3
  %24 = getelementptr inbounds %"class.__gnu_cxx::__normal_iterator", %"class.__gnu_cxx::__normal_iterator"* %7, i32 0, i32 0
  store i8* %23, i8** %24, align 8
  %25 = getelementptr inbounds %"class.__gnu_cxx::__normal_iterator", %"class.__gnu_cxx::__normal_iterator"* %6, i32 0, i32 0
  %26 = load i8*, i8** %25, align 8
  %27 = getelementptr inbounds %"class.__gnu_cxx::__normal_iterator", %"class.__gnu_cxx::__normal_iterator"* %7, i32 0, i32 0
  %28 = load i8*, i8** %27, align 8
  invoke void @_ZSt4sortIN9__gnu_cxx17__normal_iteratorIPcNSt7__cxx1112basic_stringIcSt11char_traitsIcESaIcEEEEEEvT_SA_(i8* %26, i8* %28)
          to label %29 unwind label %76

; <label>:29:                                     ; preds = %20
  %30 = call i8* @_ZNSt7__cxx1112basic_stringIcSt11char_traitsIcESaIcEE5beginEv(%"class.std::__cxx11::basic_string"* %3) #3
  %31 = getelementptr inbounds %"class.__gnu_cxx::__normal_iterator", %"class.__gnu_cxx::__normal_iterator"* %8, i32 0, i32 0
  store i8* %30, i8** %31, align 8
  %32 = call i8* @_ZNSt7__cxx1112basic_stringIcSt11char_traitsIcESaIcEE3endEv(%"class.std::__cxx11::basic_string"* %3) #3
  %33 = getelementptr inbounds %"class.__gnu_cxx::__normal_iterator", %"class.__gnu_cxx::__normal_iterator"* %9, i32 0, i32 0
  store i8* %32, i8** %33, align 8
  %34 = getelementptr inbounds %"class.__gnu_cxx::__normal_iterator", %"class.__gnu_cxx::__normal_iterator"* %8, i32 0, i32 0
  %35 = load i8*, i8** %34, align 8
  %36 = getelementptr inbounds %"class.__gnu_cxx::__normal_iterator", %"class.__gnu_cxx::__normal_iterator"* %9, i32 0, i32 0
  %37 = load i8*, i8** %36, align 8
  invoke void @_ZSt4sortIN9__gnu_cxx17__normal_iteratorIPcNSt7__cxx1112basic_stringIcSt11char_traitsIcESaIcEEEEEEvT_SA_(i8* %35, i8* %37)
          to label %38 unwind label %76

; <label>:38:                                     ; preds = %29
  %39 = call i8* @_ZNSt7__cxx1112basic_stringIcSt11char_traitsIcESaIcEE5beginEv(%"class.std::__cxx11::basic_string"* %3) #3
  %40 = getelementptr inbounds %"class.__gnu_cxx::__normal_iterator", %"class.__gnu_cxx::__normal_iterator"* %10, i32 0, i32 0
  store i8* %39, i8** %40, align 8
  %41 = call i8* @_ZNSt7__cxx1112basic_stringIcSt11char_traitsIcESaIcEE3endEv(%"class.std::__cxx11::basic_string"* %3) #3
  %42 = getelementptr inbounds %"class.__gnu_cxx::__normal_iterator", %"class.__gnu_cxx::__normal_iterator"* %11, i32 0, i32 0
  store i8* %41, i8** %42, align 8
  %43 = getelementptr inbounds %"class.__gnu_cxx::__normal_iterator", %"class.__gnu_cxx::__normal_iterator"* %10, i32 0, i32 0
  %44 = load i8*, i8** %43, align 8
  %45 = getelementptr inbounds %"class.__gnu_cxx::__normal_iterator", %"class.__gnu_cxx::__normal_iterator"* %11, i32 0, i32 0
  %46 = load i8*, i8** %45, align 8
  invoke void @_ZSt7reverseIN9__gnu_cxx17__normal_iteratorIPcNSt7__cxx1112basic_stringIcSt11char_traitsIcESaIcEEEEEEvT_SA_(i8* %44, i8* %46)
          to label %47 unwind label %76

; <label>:47:                                     ; preds = %38
  store i8 0, i8* %12, align 1
  store i32 0, i32* %13, align 4
  br label %48

; <label>:48:                                     ; preds = %96, %47
  %49 = load i32, i32* %13, align 4
  %50 = sext i32 %49 to i64
  %51 = call i64 @_ZNKSt7__cxx1112basic_stringIcSt11char_traitsIcESaIcEE4sizeEv(%"class.std::__cxx11::basic_string"* %2) #3
  store i64 %51, i64* %14, align 8
  %52 = call i64 @_ZNKSt7__cxx1112basic_stringIcSt11char_traitsIcESaIcEE4sizeEv(%"class.std::__cxx11::basic_string"* %3) #3
  store i64 %52, i64* %15, align 8
  %53 = invoke dereferenceable(8) i64* @_ZSt3minImERKT_S2_S2_(i64* dereferenceable(8) %14, i64* dereferenceable(8) %15)
          to label %54 unwind label %76

; <label>:54:                                     ; preds = %48
  %55 = load i64, i64* %53, align 8
  %56 = icmp ult i64 %50, %55
  br i1 %56, label %57, label %103

; <label>:57:                                     ; preds = %54
  %58 = load i32, i32* %13, align 4
  %59 = sext i32 %58 to i64
  %60 = invoke dereferenceable(1) i8* @_ZNSt7__cxx1112basic_stringIcSt11char_traitsIcESaIcEEixEm(%"class.std::__cxx11::basic_string"* %2, i64 %59)
          to label %61 unwind label %76

; <label>:61:                                     ; preds = %57
  %62 = load i8, i8* %60, align 1
  %63 = sext i8 %62 to i32
  %64 = load i32, i32* %13, align 4
  %65 = sext i32 %64 to i64
  %66 = invoke dereferenceable(1) i8* @_ZNSt7__cxx1112basic_stringIcSt11char_traitsIcESaIcEEixEm(%"class.std::__cxx11::basic_string"* %3, i64 %65)
          to label %67 unwind label %76

; <label>:67:                                     ; preds = %61
  %68 = load i8, i8* %66, align 1
  %69 = sext i8 %68 to i32
  %70 = icmp sgt i32 %63, %69
  br i1 %70, label %71, label %80

; <label>:71:                                     ; preds = %67
  %72 = invoke dereferenceable(272) %"class.std::basic_ostream"* @_ZStlsISt11char_traitsIcEERSt13basic_ostreamIcT_ES5_PKc(%"class.std::basic_ostream"* dereferenceable(272) @_ZSt4cout, i8* getelementptr inbounds ([3 x i8], [3 x i8]* @.str, i32 0, i32 0))
          to label %73 unwind label %76

; <label>:73:                                     ; preds = %71
  %74 = invoke dereferenceable(272) %"class.std::basic_ostream"* @_ZNSolsEPFRSoS_E(%"class.std::basic_ostream"* %72, %"class.std::basic_ostream"* (%"class.std::basic_ostream"*)* @_ZSt4endlIcSt11char_traitsIcEERSt13basic_ostreamIT_T0_ES6_)
          to label %75 unwind label %76

; <label>:75:                                     ; preds = %73
  store i32 0, i32* %1, align 4
  store i32 1, i32* %16, align 4
  br label %122

; <label>:76:                                     ; preds = %119, %117, %114, %112, %84, %80, %73, %71, %61, %57, %48, %38, %29, %20, %18, %0
  %77 = landingpad { i8*, i32 }
          cleanup
  %78 = extractvalue { i8*, i32 } %77, 0
  store i8* %78, i8** %4, align 8
  %79 = extractvalue { i8*, i32 } %77, 1
  store i32 %79, i32* %5, align 4
  call void @_ZNSt7__cxx1112basic_stringIcSt11char_traitsIcESaIcEED1Ev(%"class.std::__cxx11::basic_string"* %3) #3
  call void @_ZNSt7__cxx1112basic_stringIcSt11char_traitsIcESaIcEED1Ev(%"class.std::__cxx11::basic_string"* %2) #3
  br label %124

; <label>:80:                                     ; preds = %67
  %81 = load i32, i32* %13, align 4
  %82 = sext i32 %81 to i64
  %83 = invoke dereferenceable(1) i8* @_ZNSt7__cxx1112basic_stringIcSt11char_traitsIcESaIcEEixEm(%"class.std::__cxx11::basic_string"* %2, i64 %82)
          to label %84 unwind label %76

; <label>:84:                                     ; preds = %80
  %85 = load i8, i8* %83, align 1
  %86 = sext i8 %85 to i32
  %87 = load i32, i32* %13, align 4
  %88 = sext i32 %87 to i64
  %89 = invoke dereferenceable(1) i8* @_ZNSt7__cxx1112basic_stringIcSt11char_traitsIcESaIcEEixEm(%"class.std::__cxx11::basic_string"* %3, i64 %88)
          to label %90 unwind label %76

; <label>:90:                                     ; preds = %84
  %91 = load i8, i8* %89, align 1
  %92 = sext i8 %91 to i32
  %93 = icmp slt i32 %86, %92
  br i1 %93, label %94, label %95

; <label>:94:                                     ; preds = %90
  store i8 1, i8* %12, align 1
  br label %103

; <label>:95:                                     ; preds = %90
  br label %96

; <label>:96:                                     ; preds = %95
  %97 = load i32, i32* %13, align 4
  %98 = sub i32 0, %97
  %99 = sub i32 0, 1
  %100 = add i32 %98, %99
  %101 = sub i32 0, %100
  %102 = add nsw i32 %97, 1
  store i32 %101, i32* %13, align 4
  br label %48

; <label>:103:                                    ; preds = %94, %54
  %104 = call i64 @_ZNKSt7__cxx1112basic_stringIcSt11char_traitsIcESaIcEE4sizeEv(%"class.std::__cxx11::basic_string"* %2) #3
  %105 = call i64 @_ZNKSt7__cxx1112basic_stringIcSt11char_traitsIcESaIcEE4sizeEv(%"class.std::__cxx11::basic_string"* %3) #3
  %106 = icmp uge i64 %104, %105
  br i1 %106, label %107, label %117

; <label>:107:                                    ; preds = %103
  %108 = load i8, i8* %12, align 1
  %109 = trunc i8 %108 to i1
  %110 = zext i1 %109 to i32
  %111 = icmp eq i32 %110, 0
  br i1 %111, label %112, label %117

; <label>:112:                                    ; preds = %107
  %113 = invoke dereferenceable(272) %"class.std::basic_ostream"* @_ZStlsISt11char_traitsIcEERSt13basic_ostreamIcT_ES5_PKc(%"class.std::basic_ostream"* dereferenceable(272) @_ZSt4cout, i8* getelementptr inbounds ([3 x i8], [3 x i8]* @.str, i32 0, i32 0))
          to label %114 unwind label %76

; <label>:114:                                    ; preds = %112
  %115 = invoke dereferenceable(272) %"class.std::basic_ostream"* @_ZNSolsEPFRSoS_E(%"class.std::basic_ostream"* %113, %"class.std::basic_ostream"* (%"class.std::basic_ostream"*)* @_ZSt4endlIcSt11char_traitsIcEERSt13basic_ostreamIT_T0_ES6_)
          to label %116 unwind label %76

; <label>:116:                                    ; preds = %114
  store i32 0, i32* %1, align 4
  store i32 1, i32* %16, align 4
  br label %122

; <label>:117:                                    ; preds = %107, %103
  %118 = invoke dereferenceable(272) %"class.std::basic_ostream"* @_ZStlsISt11char_traitsIcEERSt13basic_ostreamIcT_ES5_PKc(%"class.std::basic_ostream"* dereferenceable(272) @_ZSt4cout, i8* getelementptr inbounds ([4 x i8], [4 x i8]* @.str.6, i32 0, i32 0))
          to label %119 unwind label %76

; <label>:119:                                    ; preds = %117
  %120 = invoke dereferenceable(272) %"class.std::basic_ostream"* @_ZNSolsEPFRSoS_E(%"class.std::basic_ostream"* %118, %"class.std::basic_ostream"* (%"class.std::basic_ostream"*)* @_ZSt4endlIcSt11char_traitsIcEERSt13basic_ostreamIT_T0_ES6_)
          to label %121 unwind label %76

; <label>:121:                                    ; preds = %119
  store i32 0, i32* %1, align 4
  store i32 1, i32* %16, align 4
  br label %122

; <label>:122:                                    ; preds = %121, %116, %75
  call void @_ZNSt7__cxx1112basic_stringIcSt11char_traitsIcESaIcEED1Ev(%"class.std::__cxx11::basic_string"* %3) #3
  call void @_ZNSt7__cxx1112basic_stringIcSt11char_traitsIcESaIcEED1Ev(%"class.std::__cxx11::basic_string"* %2) #3
  %123 = load i32, i32* %1, align 4
  ret i32 %123

; <label>:124:                                    ; preds = %76
  %125 = load i8*, i8** %4, align 8
  %126 = load i32, i32* %5, align 4
  %127 = insertvalue { i8*, i32 } undef, i8* %125, 0
  %128 = insertvalue { i8*, i32 } %127, i32 %126, 1
  resume { i8*, i32 } %128
}

; Function Attrs: nounwind
declare void @_ZNSt7__cxx1112basic_stringIcSt11char_traitsIcESaIcEEC1Ev(%"class.std::__cxx11::basic_string"*) unnamed_addr #2

declare dereferenceable(280) %"class.std::basic_istream"* @_ZStrsIcSt11char_traitsIcESaIcEERSt13basic_istreamIT_T0_ES7_RNSt7__cxx1112basic_stringIS4_S5_T1_EE(%"class.std::basic_istream"* dereferenceable(280), %"class.std::__cxx11::basic_string"* dereferenceable(32)) #1

; Function Attrs: noinline uwtable
define linkonce_odr void @_ZSt4sortIN9__gnu_cxx17__normal_iteratorIPcNSt7__cxx1112basic_stringIcSt11char_traitsIcESaIcEEEEEEvT_SA_(i8*, i8*) #0 comdat {
  %3 = alloca %"class.__gnu_cxx::__normal_iterator", align 8
  %4 = alloca %"class.__gnu_cxx::__normal_iterator", align 8
  %5 = alloca %"class.__gnu_cxx::__normal_iterator", align 8
  %6 = alloca %"class.__gnu_cxx::__normal_iterator", align 8
  %7 = alloca %"struct.__gnu_cxx::__ops::_Iter_less_iter", align 1
  %8 = alloca %"struct.__gnu_cxx::__ops::_Iter_less_iter", align 1
  %9 = getelementptr inbounds %"class.__gnu_cxx::__normal_iterator", %"class.__gnu_cxx::__normal_iterator"* %3, i32 0, i32 0
  store i8* %0, i8** %9, align 8
  %10 = getelementptr inbounds %"class.__gnu_cxx::__normal_iterator", %"class.__gnu_cxx::__normal_iterator"* %4, i32 0, i32 0
  store i8* %1, i8** %10, align 8
  %11 = bitcast %"class.__gnu_cxx::__normal_iterator"* %5 to i8*
  %12 = bitcast %"class.__gnu_cxx::__normal_iterator"* %3 to i8*
  call void @llvm.memcpy.p0i8.p0i8.i64(i8* %11, i8* %12, i64 8, i32 8, i1 false)
  %13 = bitcast %"class.__gnu_cxx::__normal_iterator"* %6 to i8*
  %14 = bitcast %"class.__gnu_cxx::__normal_iterator"* %4 to i8*
  call void @llvm.memcpy.p0i8.p0i8.i64(i8* %13, i8* %14, i64 8, i32 8, i1 false)
  call void @_ZN9__gnu_cxx5__ops16__iter_less_iterEv()
  %15 = getelementptr inbounds %"class.__gnu_cxx::__normal_iterator", %"class.__gnu_cxx::__normal_iterator"* %5, i32 0, i32 0
  %16 = load i8*, i8** %15, align 8
  %17 = getelementptr inbounds %"class.__gnu_cxx::__normal_iterator", %"class.__gnu_cxx::__normal_iterator"* %6, i32 0, i32 0
  %18 = load i8*, i8** %17, align 8
  call void @_ZSt6__sortIN9__gnu_cxx17__normal_iteratorIPcNSt7__cxx1112basic_stringIcSt11char_traitsIcESaIcEEEEENS0_5__ops15_Iter_less_iterEEvT_SC_T0_(i8* %16, i8* %18)
  ret void
}

; Function Attrs: nounwind
declare i8* @_ZNSt7__cxx1112basic_stringIcSt11char_traitsIcESaIcEE5beginEv(%"class.std::__cxx11::basic_string"*) #2

; Function Attrs: nounwind
declare i8* @_ZNSt7__cxx1112basic_stringIcSt11char_traitsIcESaIcEE3endEv(%"class.std::__cxx11::basic_string"*) #2

; Function Attrs: noinline uwtable
define linkonce_odr void @_ZSt7reverseIN9__gnu_cxx17__normal_iteratorIPcNSt7__cxx1112basic_stringIcSt11char_traitsIcESaIcEEEEEEvT_SA_(i8*, i8*) #0 comdat {
  %3 = alloca %"class.__gnu_cxx::__normal_iterator", align 8
  %4 = alloca %"class.__gnu_cxx::__normal_iterator", align 8
  %5 = alloca %"class.__gnu_cxx::__normal_iterator", align 8
  %6 = alloca %"class.__gnu_cxx::__normal_iterator", align 8
  %7 = alloca %"struct.std::random_access_iterator_tag", align 1
  %8 = alloca %"struct.std::random_access_iterator_tag", align 1
  %9 = getelementptr inbounds %"class.__gnu_cxx::__normal_iterator", %"class.__gnu_cxx::__normal_iterator"* %3, i32 0, i32 0
  store i8* %0, i8** %9, align 8
  %10 = getelementptr inbounds %"class.__gnu_cxx::__normal_iterator", %"class.__gnu_cxx::__normal_iterator"* %4, i32 0, i32 0
  store i8* %1, i8** %10, align 8
  %11 = bitcast %"class.__gnu_cxx::__normal_iterator"* %5 to i8*
  %12 = bitcast %"class.__gnu_cxx::__normal_iterator"* %3 to i8*
  call void @llvm.memcpy.p0i8.p0i8.i64(i8* %11, i8* %12, i64 8, i32 8, i1 false)
  %13 = bitcast %"class.__gnu_cxx::__normal_iterator"* %6 to i8*
  %14 = bitcast %"class.__gnu_cxx::__normal_iterator"* %4 to i8*
  call void @llvm.memcpy.p0i8.p0i8.i64(i8* %13, i8* %14, i64 8, i32 8, i1 false)
  call void @_ZSt19__iterator_categoryIN9__gnu_cxx17__normal_iteratorIPcNSt7__cxx1112basic_stringIcSt11char_traitsIcESaIcEEEEEENSt15iterator_traitsIT_E17iterator_categoryERKSB_(%"class.__gnu_cxx::__normal_iterator"* dereferenceable(8) %3)
  %15 = getelementptr inbounds %"class.__gnu_cxx::__normal_iterator", %"class.__gnu_cxx::__normal_iterator"* %5, i32 0, i32 0
  %16 = load i8*, i8** %15, align 8
  %17 = getelementptr inbounds %"class.__gnu_cxx::__normal_iterator", %"class.__gnu_cxx::__normal_iterator"* %6, i32 0, i32 0
  %18 = load i8*, i8** %17, align 8
  call void @_ZSt9__reverseIN9__gnu_cxx17__normal_iteratorIPcNSt7__cxx1112basic_stringIcSt11char_traitsIcESaIcEEEEEEvT_SA_St26random_access_iterator_tag(i8* %16, i8* %18)
  ret void
}

; Function Attrs: noinline nounwind uwtable
define linkonce_odr dereferenceable(8) i64* @_ZSt3minImERKT_S2_S2_(i64* dereferenceable(8), i64* dereferenceable(8)) #4 comdat {
  %3 = alloca i64*, align 8
  %4 = alloca i64*, align 8
  %5 = alloca i64*, align 8
  store i64* %0, i64** %4, align 8
  store i64* %1, i64** %5, align 8
  %6 = load i64*, i64** %5, align 8
  %7 = load i64, i64* %6, align 8
  %8 = load i64*, i64** %4, align 8
  %9 = load i64, i64* %8, align 8
  %10 = icmp ult i64 %7, %9
  br i1 %10, label %11, label %13

; <label>:11:                                     ; preds = %2
  %12 = load i64*, i64** %5, align 8
  store i64* %12, i64** %3, align 8
  br label %15

; <label>:13:                                     ; preds = %2
  %14 = load i64*, i64** %4, align 8
  store i64* %14, i64** %3, align 8
  br label %15

; <label>:15:                                     ; preds = %13, %11
  %16 = load i64*, i64** %3, align 8
  ret i64* %16
}

; Function Attrs: nounwind
declare i64 @_ZNKSt7__cxx1112basic_stringIcSt11char_traitsIcESaIcEE4sizeEv(%"class.std::__cxx11::basic_string"*) #2

declare dereferenceable(1) i8* @_ZNSt7__cxx1112basic_stringIcSt11char_traitsIcESaIcEEixEm(%"class.std::__cxx11::basic_string"*, i64) #1

declare dereferenceable(272) %"class.std::basic_ostream"* @_ZStlsISt11char_traitsIcEERSt13basic_ostreamIcT_ES5_PKc(%"class.std::basic_ostream"* dereferenceable(272), i8*) #1

declare dereferenceable(272) %"class.std::basic_ostream"* @_ZNSolsEPFRSoS_E(%"class.std::basic_ostream"*, %"class.std::basic_ostream"* (%"class.std::basic_ostream"*)*) #1

declare dereferenceable(272) %"class.std::basic_ostream"* @_ZSt4endlIcSt11char_traitsIcEERSt13basic_ostreamIT_T0_ES6_(%"class.std::basic_ostream"* dereferenceable(272)) #1

; Function Attrs: nounwind
declare void @_ZNSt7__cxx1112basic_stringIcSt11char_traitsIcESaIcEED1Ev(%"class.std::__cxx11::basic_string"*) unnamed_addr #2

; Function Attrs: noinline uwtable
define linkonce_odr void @_ZNSt12_Vector_baseINSt7__cxx1112basic_stringIcSt11char_traitsIcESaIcEEESaIS5_EEC2Ev(%"struct.std::_Vector_base"*) unnamed_addr #0 comdat align 2 {
  %2 = alloca %"struct.std::_Vector_base"*, align 8
  store %"struct.std::_Vector_base"* %0, %"struct.std::_Vector_base"** %2, align 8
  %3 = load %"struct.std::_Vector_base"*, %"struct.std::_Vector_base"** %2, align 8
  %4 = getelementptr inbounds %"struct.std::_Vector_base", %"struct.std::_Vector_base"* %3, i32 0, i32 0
  call void @_ZNSt12_Vector_baseINSt7__cxx1112basic_stringIcSt11char_traitsIcESaIcEEESaIS5_EE12_Vector_implC2Ev(%"struct.std::_Vector_base<std::__cxx11::basic_string<char>, std::allocator<std::__cxx11::basic_string<char> > >::_Vector_impl"* %4)
  ret void
}

; Function Attrs: noinline noreturn nounwind
define linkonce_odr hidden void @__clang_call_terminate(i8*) #6 comdat {
  %2 = call i8* @__cxa_begin_catch(i8* %0) #3
  call void @_ZSt9terminatev() #11
  unreachable
}

declare i8* @__cxa_begin_catch(i8*)

declare void @_ZSt9terminatev()

; Function Attrs: noinline nounwind uwtable
define linkonce_odr void @_ZNSt12_Vector_baseINSt7__cxx1112basic_stringIcSt11char_traitsIcESaIcEEESaIS5_EE12_Vector_implC2Ev(%"struct.std::_Vector_base<std::__cxx11::basic_string<char>, std::allocator<std::__cxx11::basic_string<char> > >::_Vector_impl"*) unnamed_addr #4 comdat align 2 {
  %2 = alloca %"struct.std::_Vector_base<std::__cxx11::basic_string<char>, std::allocator<std::__cxx11::basic_string<char> > >::_Vector_impl"*, align 8
  store %"struct.std::_Vector_base<std::__cxx11::basic_string<char>, std::allocator<std::__cxx11::basic_string<char> > >::_Vector_impl"* %0, %"struct.std::_Vector_base<std::__cxx11::basic_string<char>, std::allocator<std::__cxx11::basic_string<char> > >::_Vector_impl"** %2, align 8
  %3 = load %"struct.std::_Vector_base<std::__cxx11::basic_string<char>, std::allocator<std::__cxx11::basic_string<char> > >::_Vector_impl"*, %"struct.std::_Vector_base<std::__cxx11::basic_string<char>, std::allocator<std::__cxx11::basic_string<char> > >::_Vector_impl"** %2, align 8
  %4 = bitcast %"struct.std::_Vector_base<std::__cxx11::basic_string<char>, std::allocator<std::__cxx11::basic_string<char> > >::_Vector_impl"* %3 to %"class.std::allocator"*
  call void @_ZNSaINSt7__cxx1112basic_stringIcSt11char_traitsIcESaIcEEEEC2Ev(%"class.std::allocator"* %4) #3
  %5 = getelementptr inbounds %"struct.std::_Vector_base<std::__cxx11::basic_string<char>, std::allocator<std::__cxx11::basic_string<char> > >::_Vector_impl", %"struct.std::_Vector_base<std::__cxx11::basic_string<char>, std::allocator<std::__cxx11::basic_string<char> > >::_Vector_impl"* %3, i32 0, i32 0
  store %"class.std::__cxx11::basic_string"* null, %"class.std::__cxx11::basic_string"** %5, align 8
  %6 = getelementptr inbounds %"struct.std::_Vector_base<std::__cxx11::basic_string<char>, std::allocator<std::__cxx11::basic_string<char> > >::_Vector_impl", %"struct.std::_Vector_base<std::__cxx11::basic_string<char>, std::allocator<std::__cxx11::basic_string<char> > >::_Vector_impl"* %3, i32 0, i32 1
  store %"class.std::__cxx11::basic_string"* null, %"class.std::__cxx11::basic_string"** %6, align 8
  %7 = getelementptr inbounds %"struct.std::_Vector_base<std::__cxx11::basic_string<char>, std::allocator<std::__cxx11::basic_string<char> > >::_Vector_impl", %"struct.std::_Vector_base<std::__cxx11::basic_string<char>, std::allocator<std::__cxx11::basic_string<char> > >::_Vector_impl"* %3, i32 0, i32 2
  store %"class.std::__cxx11::basic_string"* null, %"class.std::__cxx11::basic_string"** %7, align 8
  ret void
}

; Function Attrs: noinline nounwind uwtable
define linkonce_odr void @_ZNSaINSt7__cxx1112basic_stringIcSt11char_traitsIcESaIcEEEEC2Ev(%"class.std::allocator"*) unnamed_addr #4 comdat align 2 {
  %2 = alloca %"class.std::allocator"*, align 8
  store %"class.std::allocator"* %0, %"class.std::allocator"** %2, align 8
  %3 = load %"class.std::allocator"*, %"class.std::allocator"** %2, align 8
  %4 = bitcast %"class.std::allocator"* %3 to %"class.__gnu_cxx::new_allocator"*
  call void @_ZN9__gnu_cxx13new_allocatorINSt7__cxx1112basic_stringIcSt11char_traitsIcESaIcEEEEC2Ev(%"class.__gnu_cxx::new_allocator"* %4) #3
  ret void
}

; Function Attrs: noinline nounwind uwtable
define linkonce_odr void @_ZN9__gnu_cxx13new_allocatorINSt7__cxx1112basic_stringIcSt11char_traitsIcESaIcEEEEC2Ev(%"class.__gnu_cxx::new_allocator"*) unnamed_addr #4 comdat align 2 {
  %2 = alloca %"class.__gnu_cxx::new_allocator"*, align 8
  store %"class.__gnu_cxx::new_allocator"* %0, %"class.__gnu_cxx::new_allocator"** %2, align 8
  %3 = load %"class.__gnu_cxx::new_allocator"*, %"class.__gnu_cxx::new_allocator"** %2, align 8
  ret void
}

; Function Attrs: noinline uwtable
define linkonce_odr void @_ZSt8_DestroyIPNSt7__cxx1112basic_stringIcSt11char_traitsIcESaIcEEES5_EvT_S7_RSaIT0_E(%"class.std::__cxx11::basic_string"*, %"class.std::__cxx11::basic_string"*, %"class.std::allocator"* dereferenceable(1)) #0 comdat {
  %4 = alloca %"class.std::__cxx11::basic_string"*, align 8
  %5 = alloca %"class.std::__cxx11::basic_string"*, align 8
  %6 = alloca %"class.std::allocator"*, align 8
  store %"class.std::__cxx11::basic_string"* %0, %"class.std::__cxx11::basic_string"** %4, align 8
  store %"class.std::__cxx11::basic_string"* %1, %"class.std::__cxx11::basic_string"** %5, align 8
  store %"class.std::allocator"* %2, %"class.std::allocator"** %6, align 8
  %7 = load %"class.std::__cxx11::basic_string"*, %"class.std::__cxx11::basic_string"** %4, align 8
  %8 = load %"class.std::__cxx11::basic_string"*, %"class.std::__cxx11::basic_string"** %5, align 8
  call void @_ZSt8_DestroyIPNSt7__cxx1112basic_stringIcSt11char_traitsIcESaIcEEEEvT_S7_(%"class.std::__cxx11::basic_string"* %7, %"class.std::__cxx11::basic_string"* %8)
  ret void
}

; Function Attrs: noinline nounwind uwtable
define linkonce_odr dereferenceable(1) %"class.std::allocator"* @_ZNSt12_Vector_baseINSt7__cxx1112basic_stringIcSt11char_traitsIcESaIcEEESaIS5_EE19_M_get_Tp_allocatorEv(%"struct.std::_Vector_base"*) #4 comdat align 2 {
  %2 = alloca %"struct.std::_Vector_base"*, align 8
  store %"struct.std::_Vector_base"* %0, %"struct.std::_Vector_base"** %2, align 8
  %3 = load %"struct.std::_Vector_base"*, %"struct.std::_Vector_base"** %2, align 8
  %4 = getelementptr inbounds %"struct.std::_Vector_base", %"struct.std::_Vector_base"* %3, i32 0, i32 0
  %5 = bitcast %"struct.std::_Vector_base<std::__cxx11::basic_string<char>, std::allocator<std::__cxx11::basic_string<char> > >::_Vector_impl"* %4 to %"class.std::allocator"*
  ret %"class.std::allocator"* %5
}

; Function Attrs: noinline nounwind uwtable
define linkonce_odr void @_ZNSt12_Vector_baseINSt7__cxx1112basic_stringIcSt11char_traitsIcESaIcEEESaIS5_EED2Ev(%"struct.std::_Vector_base"*) unnamed_addr #4 comdat align 2 personality i8* bitcast (i32 (...)* @__gxx_personality_v0 to i8*) {
  %2 = alloca %"struct.std::_Vector_base"*, align 8
  %3 = alloca i8*
  %4 = alloca i32
  store %"struct.std::_Vector_base"* %0, %"struct.std::_Vector_base"** %2, align 8
  %5 = load %"struct.std::_Vector_base"*, %"struct.std::_Vector_base"** %2, align 8
  %6 = getelementptr inbounds %"struct.std::_Vector_base", %"struct.std::_Vector_base"* %5, i32 0, i32 0
  %7 = getelementptr inbounds %"struct.std::_Vector_base<std::__cxx11::basic_string<char>, std::allocator<std::__cxx11::basic_string<char> > >::_Vector_impl", %"struct.std::_Vector_base<std::__cxx11::basic_string<char>, std::allocator<std::__cxx11::basic_string<char> > >::_Vector_impl"* %6, i32 0, i32 0
  %8 = load %"class.std::__cxx11::basic_string"*, %"class.std::__cxx11::basic_string"** %7, align 8
  %9 = getelementptr inbounds %"struct.std::_Vector_base", %"struct.std::_Vector_base"* %5, i32 0, i32 0
  %10 = getelementptr inbounds %"struct.std::_Vector_base<std::__cxx11::basic_string<char>, std::allocator<std::__cxx11::basic_string<char> > >::_Vector_impl", %"struct.std::_Vector_base<std::__cxx11::basic_string<char>, std::allocator<std::__cxx11::basic_string<char> > >::_Vector_impl"* %9, i32 0, i32 2
  %11 = load %"class.std::__cxx11::basic_string"*, %"class.std::__cxx11::basic_string"** %10, align 8
  %12 = getelementptr inbounds %"struct.std::_Vector_base", %"struct.std::_Vector_base"* %5, i32 0, i32 0
  %13 = getelementptr inbounds %"struct.std::_Vector_base<std::__cxx11::basic_string<char>, std::allocator<std::__cxx11::basic_string<char> > >::_Vector_impl", %"struct.std::_Vector_base<std::__cxx11::basic_string<char>, std::allocator<std::__cxx11::basic_string<char> > >::_Vector_impl"* %12, i32 0, i32 0
  %14 = load %"class.std::__cxx11::basic_string"*, %"class.std::__cxx11::basic_string"** %13, align 8
  %15 = ptrtoint %"class.std::__cxx11::basic_string"* %11 to i64
  %16 = ptrtoint %"class.std::__cxx11::basic_string"* %14 to i64
  %17 = sub i64 0, %16
  %18 = add i64 %15, %17
  %19 = sub i64 %15, %16
  %20 = sdiv exact i64 %18, 32
  invoke void @_ZNSt12_Vector_baseINSt7__cxx1112basic_stringIcSt11char_traitsIcESaIcEEESaIS5_EE13_M_deallocateEPS5_m(%"struct.std::_Vector_base"* %5, %"class.std::__cxx11::basic_string"* %8, i64 %20)
          to label %21 unwind label %23

; <label>:21:                                     ; preds = %1
  %22 = getelementptr inbounds %"struct.std::_Vector_base", %"struct.std::_Vector_base"* %5, i32 0, i32 0
  call void @_ZNSt12_Vector_baseINSt7__cxx1112basic_stringIcSt11char_traitsIcESaIcEEESaIS5_EE12_Vector_implD2Ev(%"struct.std::_Vector_base<std::__cxx11::basic_string<char>, std::allocator<std::__cxx11::basic_string<char> > >::_Vector_impl"* %22) #3
  ret void

; <label>:23:                                     ; preds = %1
  %24 = landingpad { i8*, i32 }
          catch i8* null
  %25 = extractvalue { i8*, i32 } %24, 0
  store i8* %25, i8** %3, align 8
  %26 = extractvalue { i8*, i32 } %24, 1
  store i32 %26, i32* %4, align 4
  %27 = getelementptr inbounds %"struct.std::_Vector_base", %"struct.std::_Vector_base"* %5, i32 0, i32 0
  call void @_ZNSt12_Vector_baseINSt7__cxx1112basic_stringIcSt11char_traitsIcESaIcEEESaIS5_EE12_Vector_implD2Ev(%"struct.std::_Vector_base<std::__cxx11::basic_string<char>, std::allocator<std::__cxx11::basic_string<char> > >::_Vector_impl"* %27) #3
  br label %28

; <label>:28:                                     ; preds = %23
  %29 = load i8*, i8** %3, align 8
  call void @__clang_call_terminate(i8* %29) #11
  unreachable
}

; Function Attrs: noinline uwtable
define linkonce_odr void @_ZSt8_DestroyIPNSt7__cxx1112basic_stringIcSt11char_traitsIcESaIcEEEEvT_S7_(%"class.std::__cxx11::basic_string"*, %"class.std::__cxx11::basic_string"*) #0 comdat {
  %3 = alloca %"class.std::__cxx11::basic_string"*, align 8
  %4 = alloca %"class.std::__cxx11::basic_string"*, align 8
  store %"class.std::__cxx11::basic_string"* %0, %"class.std::__cxx11::basic_string"** %3, align 8
  store %"class.std::__cxx11::basic_string"* %1, %"class.std::__cxx11::basic_string"** %4, align 8
  %5 = load %"class.std::__cxx11::basic_string"*, %"class.std::__cxx11::basic_string"** %3, align 8
  %6 = load %"class.std::__cxx11::basic_string"*, %"class.std::__cxx11::basic_string"** %4, align 8
  call void @_ZNSt12_Destroy_auxILb0EE9__destroyIPNSt7__cxx1112basic_stringIcSt11char_traitsIcESaIcEEEEEvT_S9_(%"class.std::__cxx11::basic_string"* %5, %"class.std::__cxx11::basic_string"* %6)
  ret void
}

; Function Attrs: noinline uwtable
define linkonce_odr void @_ZNSt12_Destroy_auxILb0EE9__destroyIPNSt7__cxx1112basic_stringIcSt11char_traitsIcESaIcEEEEEvT_S9_(%"class.std::__cxx11::basic_string"*, %"class.std::__cxx11::basic_string"*) #0 comdat align 2 {
  %3 = alloca %"class.std::__cxx11::basic_string"*, align 8
  %4 = alloca %"class.std::__cxx11::basic_string"*, align 8
  store %"class.std::__cxx11::basic_string"* %0, %"class.std::__cxx11::basic_string"** %3, align 8
  store %"class.std::__cxx11::basic_string"* %1, %"class.std::__cxx11::basic_string"** %4, align 8
  br label %5

; <label>:5:                                      ; preds = %12, %2
  %6 = load %"class.std::__cxx11::basic_string"*, %"class.std::__cxx11::basic_string"** %3, align 8
  %7 = load %"class.std::__cxx11::basic_string"*, %"class.std::__cxx11::basic_string"** %4, align 8
  %8 = icmp ne %"class.std::__cxx11::basic_string"* %6, %7
  br i1 %8, label %9, label %15

; <label>:9:                                      ; preds = %5
  %10 = load %"class.std::__cxx11::basic_string"*, %"class.std::__cxx11::basic_string"** %3, align 8
  %11 = call %"class.std::__cxx11::basic_string"* @_ZSt11__addressofINSt7__cxx1112basic_stringIcSt11char_traitsIcESaIcEEEEPT_RS6_(%"class.std::__cxx11::basic_string"* dereferenceable(32) %10) #3
  call void @_ZSt8_DestroyINSt7__cxx1112basic_stringIcSt11char_traitsIcESaIcEEEEvPT_(%"class.std::__cxx11::basic_string"* %11)
  br label %12

; <label>:12:                                     ; preds = %9
  %13 = load %"class.std::__cxx11::basic_string"*, %"class.std::__cxx11::basic_string"** %3, align 8
  %14 = getelementptr inbounds %"class.std::__cxx11::basic_string", %"class.std::__cxx11::basic_string"* %13, i32 1
  store %"class.std::__cxx11::basic_string"* %14, %"class.std::__cxx11::basic_string"** %3, align 8
  br label %5

; <label>:15:                                     ; preds = %5
  ret void
}

; Function Attrs: noinline nounwind uwtable
define linkonce_odr void @_ZSt8_DestroyINSt7__cxx1112basic_stringIcSt11char_traitsIcESaIcEEEEvPT_(%"class.std::__cxx11::basic_string"*) #4 comdat {
  %2 = alloca %"class.std::__cxx11::basic_string"*, align 8
  store %"class.std::__cxx11::basic_string"* %0, %"class.std::__cxx11::basic_string"** %2, align 8
  %3 = load %"class.std::__cxx11::basic_string"*, %"class.std::__cxx11::basic_string"** %2, align 8
  call void @_ZNSt7__cxx1112basic_stringIcSt11char_traitsIcESaIcEED1Ev(%"class.std::__cxx11::basic_string"* %3) #3
  ret void
}

; Function Attrs: noinline nounwind uwtable
define linkonce_odr %"class.std::__cxx11::basic_string"* @_ZSt11__addressofINSt7__cxx1112basic_stringIcSt11char_traitsIcESaIcEEEEPT_RS6_(%"class.std::__cxx11::basic_string"* dereferenceable(32)) #4 comdat {
  %2 = alloca %"class.std::__cxx11::basic_string"*, align 8
  store %"class.std::__cxx11::basic_string"* %0, %"class.std::__cxx11::basic_string"** %2, align 8
  %3 = load %"class.std::__cxx11::basic_string"*, %"class.std::__cxx11::basic_string"** %2, align 8
  %4 = bitcast %"class.std::__cxx11::basic_string"* %3 to i8*
  %5 = bitcast i8* %4 to %"class.std::__cxx11::basic_string"*
  ret %"class.std::__cxx11::basic_string"* %5
}

; Function Attrs: noinline uwtable
define linkonce_odr void @_ZNSt12_Vector_baseINSt7__cxx1112basic_stringIcSt11char_traitsIcESaIcEEESaIS5_EE13_M_deallocateEPS5_m(%"struct.std::_Vector_base"*, %"class.std::__cxx11::basic_string"*, i64) #0 comdat align 2 {
  %4 = alloca %"struct.std::_Vector_base"*, align 8
  %5 = alloca %"class.std::__cxx11::basic_string"*, align 8
  %6 = alloca i64, align 8
  store %"struct.std::_Vector_base"* %0, %"struct.std::_Vector_base"** %4, align 8
  store %"class.std::__cxx11::basic_string"* %1, %"class.std::__cxx11::basic_string"** %5, align 8
  store i64 %2, i64* %6, align 8
  %7 = load %"struct.std::_Vector_base"*, %"struct.std::_Vector_base"** %4, align 8
  %8 = load %"class.std::__cxx11::basic_string"*, %"class.std::__cxx11::basic_string"** %5, align 8
  %9 = icmp ne %"class.std::__cxx11::basic_string"* %8, null
  br i1 %9, label %10, label %15

; <label>:10:                                     ; preds = %3
  %11 = getelementptr inbounds %"struct.std::_Vector_base", %"struct.std::_Vector_base"* %7, i32 0, i32 0
  %12 = bitcast %"struct.std::_Vector_base<std::__cxx11::basic_string<char>, std::allocator<std::__cxx11::basic_string<char> > >::_Vector_impl"* %11 to %"class.std::allocator"*
  %13 = load %"class.std::__cxx11::basic_string"*, %"class.std::__cxx11::basic_string"** %5, align 8
  %14 = load i64, i64* %6, align 8
  call void @_ZNSt16allocator_traitsISaINSt7__cxx1112basic_stringIcSt11char_traitsIcESaIcEEEEE10deallocateERS6_PS5_m(%"class.std::allocator"* dereferenceable(1) %12, %"class.std::__cxx11::basic_string"* %13, i64 %14)
  br label %15

; <label>:15:                                     ; preds = %10, %3
  ret void
}

; Function Attrs: noinline nounwind uwtable
define linkonce_odr void @_ZNSt12_Vector_baseINSt7__cxx1112basic_stringIcSt11char_traitsIcESaIcEEESaIS5_EE12_Vector_implD2Ev(%"struct.std::_Vector_base<std::__cxx11::basic_string<char>, std::allocator<std::__cxx11::basic_string<char> > >::_Vector_impl"*) unnamed_addr #4 comdat align 2 {
  %2 = alloca %"struct.std::_Vector_base<std::__cxx11::basic_string<char>, std::allocator<std::__cxx11::basic_string<char> > >::_Vector_impl"*, align 8
  store %"struct.std::_Vector_base<std::__cxx11::basic_string<char>, std::allocator<std::__cxx11::basic_string<char> > >::_Vector_impl"* %0, %"struct.std::_Vector_base<std::__cxx11::basic_string<char>, std::allocator<std::__cxx11::basic_string<char> > >::_Vector_impl"** %2, align 8
  %3 = load %"struct.std::_Vector_base<std::__cxx11::basic_string<char>, std::allocator<std::__cxx11::basic_string<char> > >::_Vector_impl"*, %"struct.std::_Vector_base<std::__cxx11::basic_string<char>, std::allocator<std::__cxx11::basic_string<char> > >::_Vector_impl"** %2, align 8
  %4 = bitcast %"struct.std::_Vector_base<std::__cxx11::basic_string<char>, std::allocator<std::__cxx11::basic_string<char> > >::_Vector_impl"* %3 to %"class.std::allocator"*
  call void @_ZNSaINSt7__cxx1112basic_stringIcSt11char_traitsIcESaIcEEEED2Ev(%"class.std::allocator"* %4) #3
  ret void
}

; Function Attrs: noinline uwtable
define linkonce_odr void @_ZNSt16allocator_traitsISaINSt7__cxx1112basic_stringIcSt11char_traitsIcESaIcEEEEE10deallocateERS6_PS5_m(%"class.std::allocator"* dereferenceable(1), %"class.std::__cxx11::basic_string"*, i64) #0 comdat align 2 {
  %4 = alloca %"class.std::allocator"*, align 8
  %5 = alloca %"class.std::__cxx11::basic_string"*, align 8
  %6 = alloca i64, align 8
  store %"class.std::allocator"* %0, %"class.std::allocator"** %4, align 8
  store %"class.std::__cxx11::basic_string"* %1, %"class.std::__cxx11::basic_string"** %5, align 8
  store i64 %2, i64* %6, align 8
  %7 = load %"class.std::allocator"*, %"class.std::allocator"** %4, align 8
  %8 = bitcast %"class.std::allocator"* %7 to %"class.__gnu_cxx::new_allocator"*
  %9 = load %"class.std::__cxx11::basic_string"*, %"class.std::__cxx11::basic_string"** %5, align 8
  %10 = load i64, i64* %6, align 8
  call void @_ZN9__gnu_cxx13new_allocatorINSt7__cxx1112basic_stringIcSt11char_traitsIcESaIcEEEE10deallocateEPS6_m(%"class.__gnu_cxx::new_allocator"* %8, %"class.std::__cxx11::basic_string"* %9, i64 %10)
  ret void
}

; Function Attrs: noinline nounwind uwtable
define linkonce_odr void @_ZN9__gnu_cxx13new_allocatorINSt7__cxx1112basic_stringIcSt11char_traitsIcESaIcEEEE10deallocateEPS6_m(%"class.__gnu_cxx::new_allocator"*, %"class.std::__cxx11::basic_string"*, i64) #4 comdat align 2 {
  %4 = alloca %"class.__gnu_cxx::new_allocator"*, align 8
  %5 = alloca %"class.std::__cxx11::basic_string"*, align 8
  %6 = alloca i64, align 8
  store %"class.__gnu_cxx::new_allocator"* %0, %"class.__gnu_cxx::new_allocator"** %4, align 8
  store %"class.std::__cxx11::basic_string"* %1, %"class.std::__cxx11::basic_string"** %5, align 8
  store i64 %2, i64* %6, align 8
  %7 = load %"class.__gnu_cxx::new_allocator"*, %"class.__gnu_cxx::new_allocator"** %4, align 8
  %8 = load %"class.std::__cxx11::basic_string"*, %"class.std::__cxx11::basic_string"** %5, align 8
  %9 = bitcast %"class.std::__cxx11::basic_string"* %8 to i8*
  call void @_ZdlPv(i8* %9) #3
  ret void
}

; Function Attrs: nobuiltin nounwind
declare void @_ZdlPv(i8*) #7

; Function Attrs: noinline nounwind uwtable
define linkonce_odr void @_ZNSaINSt7__cxx1112basic_stringIcSt11char_traitsIcESaIcEEEED2Ev(%"class.std::allocator"*) unnamed_addr #4 comdat align 2 {
  %2 = alloca %"class.std::allocator"*, align 8
  store %"class.std::allocator"* %0, %"class.std::allocator"** %2, align 8
  %3 = load %"class.std::allocator"*, %"class.std::allocator"** %2, align 8
  %4 = bitcast %"class.std::allocator"* %3 to %"class.__gnu_cxx::new_allocator"*
  call void @_ZN9__gnu_cxx13new_allocatorINSt7__cxx1112basic_stringIcSt11char_traitsIcESaIcEEEED2Ev(%"class.__gnu_cxx::new_allocator"* %4) #3
  ret void
}

; Function Attrs: noinline nounwind uwtable
define linkonce_odr void @_ZN9__gnu_cxx13new_allocatorINSt7__cxx1112basic_stringIcSt11char_traitsIcESaIcEEEED2Ev(%"class.__gnu_cxx::new_allocator"*) unnamed_addr #4 comdat align 2 {
  %2 = alloca %"class.__gnu_cxx::new_allocator"*, align 8
  store %"class.__gnu_cxx::new_allocator"* %0, %"class.__gnu_cxx::new_allocator"** %2, align 8
  %3 = load %"class.__gnu_cxx::new_allocator"*, %"class.__gnu_cxx::new_allocator"** %2, align 8
  ret void
}

; Function Attrs: noinline nounwind uwtable
define linkonce_odr void @_ZN9__gnu_cxx13new_allocatorIbEC2Ev(%"class.__gnu_cxx::new_allocator.13"*) unnamed_addr #4 comdat align 2 {
  %2 = alloca %"class.__gnu_cxx::new_allocator.13"*, align 8
  store %"class.__gnu_cxx::new_allocator.13"* %0, %"class.__gnu_cxx::new_allocator.13"** %2, align 8
  %3 = load %"class.__gnu_cxx::new_allocator.13"*, %"class.__gnu_cxx::new_allocator.13"** %2, align 8
  ret void
}

; Function Attrs: noinline nounwind uwtable
define linkonce_odr void @_ZN9__gnu_cxx13new_allocatorIbED2Ev(%"class.__gnu_cxx::new_allocator.13"*) unnamed_addr #4 comdat align 2 {
  %2 = alloca %"class.__gnu_cxx::new_allocator.13"*, align 8
  store %"class.__gnu_cxx::new_allocator.13"* %0, %"class.__gnu_cxx::new_allocator.13"** %2, align 8
  %3 = load %"class.__gnu_cxx::new_allocator.13"*, %"class.__gnu_cxx::new_allocator.13"** %2, align 8
  ret void
}

; Function Attrs: noinline uwtable
define linkonce_odr void @_ZNSt6vectorIbSaIbEEC2EmRKbRKS0_(%"class.std::vector.8"*, i64, i8* dereferenceable(1), %"class.std::allocator.12"* dereferenceable(1)) unnamed_addr #0 comdat align 2 personality i8* bitcast (i32 (...)* @__gxx_personality_v0 to i8*) {
  %5 = alloca %"class.std::vector.8"*, align 8
  %6 = alloca i64, align 8
  %7 = alloca i8*, align 8
  %8 = alloca %"class.std::allocator.12"*, align 8
  %9 = alloca i8*
  %10 = alloca i32
  %11 = alloca i32, align 4
  store %"class.std::vector.8"* %0, %"class.std::vector.8"** %5, align 8
  store i64 %1, i64* %6, align 8
  store i8* %2, i8** %7, align 8
  store %"class.std::allocator.12"* %3, %"class.std::allocator.12"** %8, align 8
  %12 = load %"class.std::vector.8"*, %"class.std::vector.8"** %5, align 8
  %13 = bitcast %"class.std::vector.8"* %12 to %"struct.std::_Bvector_base"*
  %14 = load %"class.std::allocator.12"*, %"class.std::allocator.12"** %8, align 8
  call void @_ZNSt13_Bvector_baseISaIbEEC2ERKS0_(%"struct.std::_Bvector_base"* %13, %"class.std::allocator.12"* dereferenceable(1) %14)
  %15 = load i64, i64* %6, align 8
  invoke void @_ZNSt6vectorIbSaIbEE13_M_initializeEm(%"class.std::vector.8"* %12, i64 %15)
          to label %16 unwind label %31

; <label>:16:                                     ; preds = %4
  %17 = bitcast %"class.std::vector.8"* %12 to %"struct.std::_Bvector_base"*
  %18 = getelementptr inbounds %"struct.std::_Bvector_base", %"struct.std::_Bvector_base"* %17, i32 0, i32 0
  %19 = getelementptr inbounds %"struct.std::_Bvector_base<std::allocator<bool> >::_Bvector_impl", %"struct.std::_Bvector_base<std::allocator<bool> >::_Bvector_impl"* %18, i32 0, i32 0
  %20 = bitcast %"struct.std::_Bit_iterator"* %19 to %"struct.std::_Bit_iterator_base"*
  %21 = getelementptr inbounds %"struct.std::_Bit_iterator_base", %"struct.std::_Bit_iterator_base"* %20, i32 0, i32 0
  %22 = load i64*, i64** %21, align 8
  %23 = bitcast %"class.std::vector.8"* %12 to %"struct.std::_Bvector_base"*
  %24 = getelementptr inbounds %"struct.std::_Bvector_base", %"struct.std::_Bvector_base"* %23, i32 0, i32 0
  %25 = call i64* @_ZNKSt13_Bvector_baseISaIbEE13_Bvector_impl11_M_end_addrEv(%"struct.std::_Bvector_base<std::allocator<bool> >::_Bvector_impl"* %24) #3
  %26 = load i8*, i8** %7, align 8
  %27 = load i8, i8* %26, align 1
  %28 = trunc i8 %27 to i1
  %29 = select i1 %28, i32 -1, i32 0
  store i32 %29, i32* %11, align 4
  invoke void @_ZSt4fillIPmiEvT_S1_RKT0_(i64* %22, i64* %25, i32* dereferenceable(4) %11)
          to label %30 unwind label %31

; <label>:30:                                     ; preds = %16
  ret void

; <label>:31:                                     ; preds = %16, %4
  %32 = landingpad { i8*, i32 }
          cleanup
  %33 = extractvalue { i8*, i32 } %32, 0
  store i8* %33, i8** %9, align 8
  %34 = extractvalue { i8*, i32 } %32, 1
  store i32 %34, i32* %10, align 4
  %35 = bitcast %"class.std::vector.8"* %12 to %"struct.std::_Bvector_base"*
  call void @_ZNSt13_Bvector_baseISaIbEED2Ev(%"struct.std::_Bvector_base"* %35) #3
  br label %36

; <label>:36:                                     ; preds = %31
  %37 = load i8*, i8** %9, align 8
  %38 = load i32, i32* %10, align 4
  %39 = insertvalue { i8*, i32 } undef, i8* %37, 0
  %40 = insertvalue { i8*, i32 } %39, i32 %38, 1
  resume { i8*, i32 } %40
}

; Function Attrs: noinline uwtable
define linkonce_odr void @_ZNSt13_Bvector_baseISaIbEEC2ERKS0_(%"struct.std::_Bvector_base"*, %"class.std::allocator.12"* dereferenceable(1)) unnamed_addr #0 comdat align 2 personality i8* bitcast (i32 (...)* @__gxx_personality_v0 to i8*) {
  %3 = alloca %"struct.std::_Bvector_base"*, align 8
  %4 = alloca %"class.std::allocator.12"*, align 8
  %5 = alloca %"class.std::allocator.9", align 1
  %6 = alloca i8*
  %7 = alloca i32
  store %"struct.std::_Bvector_base"* %0, %"struct.std::_Bvector_base"** %3, align 8
  store %"class.std::allocator.12"* %1, %"class.std::allocator.12"** %4, align 8
  %8 = load %"struct.std::_Bvector_base"*, %"struct.std::_Bvector_base"** %3, align 8
  %9 = getelementptr inbounds %"struct.std::_Bvector_base", %"struct.std::_Bvector_base"* %8, i32 0, i32 0
  %10 = load %"class.std::allocator.12"*, %"class.std::allocator.12"** %4, align 8
  call void @_ZNSaImEC2IbEERKSaIT_E(%"class.std::allocator.9"* %5, %"class.std::allocator.12"* dereferenceable(1) %10) #3
  invoke void @_ZNSt13_Bvector_baseISaIbEE13_Bvector_implC2EOSaImE(%"struct.std::_Bvector_base<std::allocator<bool> >::_Bvector_impl"* %9, %"class.std::allocator.9"* dereferenceable(1) %5)
          to label %11 unwind label %12

; <label>:11:                                     ; preds = %2
  call void @_ZNSaImED2Ev(%"class.std::allocator.9"* %5) #3
  ret void

; <label>:12:                                     ; preds = %2
  %13 = landingpad { i8*, i32 }
          cleanup
  %14 = extractvalue { i8*, i32 } %13, 0
  store i8* %14, i8** %6, align 8
  %15 = extractvalue { i8*, i32 } %13, 1
  store i32 %15, i32* %7, align 4
  call void @_ZNSaImED2Ev(%"class.std::allocator.9"* %5) #3
  br label %16

; <label>:16:                                     ; preds = %12
  %17 = load i8*, i8** %6, align 8
  %18 = load i32, i32* %7, align 4
  %19 = insertvalue { i8*, i32 } undef, i8* %17, 0
  %20 = insertvalue { i8*, i32 } %19, i32 %18, 1
  resume { i8*, i32 } %20
}

; Function Attrs: noinline uwtable
define linkonce_odr void @_ZNSt6vectorIbSaIbEE13_M_initializeEm(%"class.std::vector.8"*, i64) #0 comdat align 2 {
  %3 = alloca %"class.std::vector.8"*, align 8
  %4 = alloca i64, align 8
  %5 = alloca i64*, align 8
  %6 = alloca %"struct.std::_Bit_iterator", align 8
  %7 = alloca %"struct.std::_Bit_iterator", align 8
  store %"class.std::vector.8"* %0, %"class.std::vector.8"** %3, align 8
  store i64 %1, i64* %4, align 8
  %8 = load %"class.std::vector.8"*, %"class.std::vector.8"** %3, align 8
  %9 = bitcast %"class.std::vector.8"* %8 to %"struct.std::_Bvector_base"*
  %10 = load i64, i64* %4, align 8
  %11 = call i64* @_ZNSt13_Bvector_baseISaIbEE11_M_allocateEm(%"struct.std::_Bvector_base"* %9, i64 %10)
  store i64* %11, i64** %5, align 8
  %12 = load i64*, i64** %5, align 8
  %13 = load i64, i64* %4, align 8
  %14 = call i64 @_ZNSt13_Bvector_baseISaIbEE8_S_nwordEm(i64 %13)
  %15 = getelementptr inbounds i64, i64* %12, i64 %14
  %16 = bitcast %"class.std::vector.8"* %8 to %"struct.std::_Bvector_base"*
  %17 = getelementptr inbounds %"struct.std::_Bvector_base", %"struct.std::_Bvector_base"* %16, i32 0, i32 0
  %18 = getelementptr inbounds %"struct.std::_Bvector_base<std::allocator<bool> >::_Bvector_impl", %"struct.std::_Bvector_base<std::allocator<bool> >::_Bvector_impl"* %17, i32 0, i32 2
  store i64* %15, i64** %18, align 8
  %19 = load i64*, i64** %5, align 8
  %20 = call i64* @_ZSt11__addressofImEPT_RS0_(i64* dereferenceable(8) %19) #3
  call void @_ZNSt13_Bit_iteratorC2EPmj(%"struct.std::_Bit_iterator"* %6, i64* %20, i32 0)
  %21 = bitcast %"class.std::vector.8"* %8 to %"struct.std::_Bvector_base"*
  %22 = getelementptr inbounds %"struct.std::_Bvector_base", %"struct.std::_Bvector_base"* %21, i32 0, i32 0
  %23 = getelementptr inbounds %"struct.std::_Bvector_base<std::allocator<bool> >::_Bvector_impl", %"struct.std::_Bvector_base<std::allocator<bool> >::_Bvector_impl"* %22, i32 0, i32 0
  %24 = bitcast %"struct.std::_Bit_iterator"* %23 to i8*
  %25 = bitcast %"struct.std::_Bit_iterator"* %6 to i8*
  call void @llvm.memcpy.p0i8.p0i8.i64(i8* %24, i8* %25, i64 12, i32 8, i1 false)
  %26 = bitcast %"class.std::vector.8"* %8 to %"struct.std::_Bvector_base"*
  %27 = getelementptr inbounds %"struct.std::_Bvector_base", %"struct.std::_Bvector_base"* %26, i32 0, i32 0
  %28 = getelementptr inbounds %"struct.std::_Bvector_base<std::allocator<bool> >::_Bvector_impl", %"struct.std::_Bvector_base<std::allocator<bool> >::_Bvector_impl"* %27, i32 0, i32 0
  %29 = load i64, i64* %4, align 8
  %30 = call { i64*, i32 } @_ZNKSt13_Bit_iteratorplEl(%"struct.std::_Bit_iterator"* %28, i64 %29)
  %31 = bitcast %"struct.std::_Bit_iterator"* %7 to { i64*, i32 }*
  %32 = getelementptr inbounds { i64*, i32 }, { i64*, i32 }* %31, i32 0, i32 0
  %33 = extractvalue { i64*, i32 } %30, 0
  store i64* %33, i64** %32, align 8
  %34 = getelementptr inbounds { i64*, i32 }, { i64*, i32 }* %31, i32 0, i32 1
  %35 = extractvalue { i64*, i32 } %30, 1
  store i32 %35, i32* %34, align 8
  %36 = bitcast %"class.std::vector.8"* %8 to %"struct.std::_Bvector_base"*
  %37 = getelementptr inbounds %"struct.std::_Bvector_base", %"struct.std::_Bvector_base"* %36, i32 0, i32 0
  %38 = getelementptr inbounds %"struct.std::_Bvector_base<std::allocator<bool> >::_Bvector_impl", %"struct.std::_Bvector_base<std::allocator<bool> >::_Bvector_impl"* %37, i32 0, i32 1
  %39 = bitcast %"struct.std::_Bit_iterator"* %38 to i8*
  %40 = bitcast %"struct.std::_Bit_iterator"* %7 to i8*
  call void @llvm.memcpy.p0i8.p0i8.i64(i8* %39, i8* %40, i64 12, i32 8, i1 false)
  ret void
}

; Function Attrs: noinline uwtable
define linkonce_odr void @_ZSt4fillIPmiEvT_S1_RKT0_(i64*, i64*, i32* dereferenceable(4)) #0 comdat {
  %4 = alloca i64*, align 8
  %5 = alloca i64*, align 8
  %6 = alloca i32*, align 8
  store i64* %0, i64** %4, align 8
  store i64* %1, i64** %5, align 8
  store i32* %2, i32** %6, align 8
  %7 = load i64*, i64** %4, align 8
  %8 = call i64* @_ZSt12__niter_baseIPmENSt11_Niter_baseIT_E13iterator_typeES2_(i64* %7)
  %9 = load i64*, i64** %5, align 8
  %10 = call i64* @_ZSt12__niter_baseIPmENSt11_Niter_baseIT_E13iterator_typeES2_(i64* %9)
  %11 = load i32*, i32** %6, align 8
  call void @_ZSt8__fill_aIPmiEN9__gnu_cxx11__enable_ifIXsr11__is_scalarIT0_EE7__valueEvE6__typeET_S6_RKS3_(i64* %8, i64* %10, i32* dereferenceable(4) %11)
  ret void
}

; Function Attrs: noinline nounwind uwtable
define linkonce_odr i64* @_ZNKSt13_Bvector_baseISaIbEE13_Bvector_impl11_M_end_addrEv(%"struct.std::_Bvector_base<std::allocator<bool> >::_Bvector_impl"*) #4 comdat align 2 {
  %2 = alloca i64*, align 8
  %3 = alloca %"struct.std::_Bvector_base<std::allocator<bool> >::_Bvector_impl"*, align 8
  store %"struct.std::_Bvector_base<std::allocator<bool> >::_Bvector_impl"* %0, %"struct.std::_Bvector_base<std::allocator<bool> >::_Bvector_impl"** %3, align 8
  %4 = load %"struct.std::_Bvector_base<std::allocator<bool> >::_Bvector_impl"*, %"struct.std::_Bvector_base<std::allocator<bool> >::_Bvector_impl"** %3, align 8
  %5 = getelementptr inbounds %"struct.std::_Bvector_base<std::allocator<bool> >::_Bvector_impl", %"struct.std::_Bvector_base<std::allocator<bool> >::_Bvector_impl"* %4, i32 0, i32 2
  %6 = load i64*, i64** %5, align 8
  %7 = icmp ne i64* %6, null
  br i1 %7, label %8, label %14

; <label>:8:                                      ; preds = %1
  %9 = getelementptr inbounds %"struct.std::_Bvector_base<std::allocator<bool> >::_Bvector_impl", %"struct.std::_Bvector_base<std::allocator<bool> >::_Bvector_impl"* %4, i32 0, i32 2
  %10 = load i64*, i64** %9, align 8
  %11 = getelementptr inbounds i64, i64* %10, i64 -1
  %12 = call i64* @_ZSt11__addressofImEPT_RS0_(i64* dereferenceable(8) %11) #3
  %13 = getelementptr inbounds i64, i64* %12, i64 1
  store i64* %13, i64** %2, align 8
  br label %15

; <label>:14:                                     ; preds = %1
  store i64* null, i64** %2, align 8
  br label %15

; <label>:15:                                     ; preds = %14, %8
  %16 = load i64*, i64** %2, align 8
  ret i64* %16
}

; Function Attrs: noinline nounwind uwtable
define linkonce_odr void @_ZNSt13_Bvector_baseISaIbEED2Ev(%"struct.std::_Bvector_base"*) unnamed_addr #4 comdat align 2 personality i8* bitcast (i32 (...)* @__gxx_personality_v0 to i8*) {
  %2 = alloca %"struct.std::_Bvector_base"*, align 8
  %3 = alloca i8*
  %4 = alloca i32
  store %"struct.std::_Bvector_base"* %0, %"struct.std::_Bvector_base"** %2, align 8
  %5 = load %"struct.std::_Bvector_base"*, %"struct.std::_Bvector_base"** %2, align 8
  invoke void @_ZNSt13_Bvector_baseISaIbEE13_M_deallocateEv(%"struct.std::_Bvector_base"* %5)
          to label %6 unwind label %8

; <label>:6:                                      ; preds = %1
  %7 = getelementptr inbounds %"struct.std::_Bvector_base", %"struct.std::_Bvector_base"* %5, i32 0, i32 0
  call void @_ZNSt13_Bvector_baseISaIbEE13_Bvector_implD2Ev(%"struct.std::_Bvector_base<std::allocator<bool> >::_Bvector_impl"* %7) #3
  ret void

; <label>:8:                                      ; preds = %1
  %9 = landingpad { i8*, i32 }
          cleanup
          filter [0 x i8*] zeroinitializer
  %10 = extractvalue { i8*, i32 } %9, 0
  store i8* %10, i8** %3, align 8
  %11 = extractvalue { i8*, i32 } %9, 1
  store i32 %11, i32* %4, align 4
  %12 = getelementptr inbounds %"struct.std::_Bvector_base", %"struct.std::_Bvector_base"* %5, i32 0, i32 0
  call void @_ZNSt13_Bvector_baseISaIbEE13_Bvector_implD2Ev(%"struct.std::_Bvector_base<std::allocator<bool> >::_Bvector_impl"* %12) #3
  br label %13

; <label>:13:                                     ; preds = %8
  %14 = load i8*, i8** %3, align 8
  call void @__cxa_call_unexpected(i8* %14) #13
  unreachable
}

; Function Attrs: noinline nounwind uwtable
define linkonce_odr void @_ZNSaImEC2IbEERKSaIT_E(%"class.std::allocator.9"*, %"class.std::allocator.12"* dereferenceable(1)) unnamed_addr #4 comdat align 2 {
  %3 = alloca %"class.std::allocator.9"*, align 8
  %4 = alloca %"class.std::allocator.12"*, align 8
  store %"class.std::allocator.9"* %0, %"class.std::allocator.9"** %3, align 8
  store %"class.std::allocator.12"* %1, %"class.std::allocator.12"** %4, align 8
  %5 = load %"class.std::allocator.9"*, %"class.std::allocator.9"** %3, align 8
  %6 = bitcast %"class.std::allocator.9"* %5 to %"class.__gnu_cxx::new_allocator.10"*
  call void @_ZN9__gnu_cxx13new_allocatorImEC2Ev(%"class.__gnu_cxx::new_allocator.10"* %6) #3
  ret void
}

; Function Attrs: noinline uwtable
define linkonce_odr void @_ZNSt13_Bvector_baseISaIbEE13_Bvector_implC2EOSaImE(%"struct.std::_Bvector_base<std::allocator<bool> >::_Bvector_impl"*, %"class.std::allocator.9"* dereferenceable(1)) unnamed_addr #0 comdat align 2 personality i8* bitcast (i32 (...)* @__gxx_personality_v0 to i8*) {
  %3 = alloca %"struct.std::_Bvector_base<std::allocator<bool> >::_Bvector_impl"*, align 8
  %4 = alloca %"class.std::allocator.9"*, align 8
  %5 = alloca i8*
  %6 = alloca i32
  store %"struct.std::_Bvector_base<std::allocator<bool> >::_Bvector_impl"* %0, %"struct.std::_Bvector_base<std::allocator<bool> >::_Bvector_impl"** %3, align 8
  store %"class.std::allocator.9"* %1, %"class.std::allocator.9"** %4, align 8
  %7 = load %"struct.std::_Bvector_base<std::allocator<bool> >::_Bvector_impl"*, %"struct.std::_Bvector_base<std::allocator<bool> >::_Bvector_impl"** %3, align 8
  %8 = bitcast %"struct.std::_Bvector_base<std::allocator<bool> >::_Bvector_impl"* %7 to %"class.std::allocator.9"*
  %9 = load %"class.std::allocator.9"*, %"class.std::allocator.9"** %4, align 8
  %10 = call dereferenceable(1) %"class.std::allocator.9"* @_ZSt4moveIRSaImEEONSt16remove_referenceIT_E4typeEOS3_(%"class.std::allocator.9"* dereferenceable(1) %9) #3
  call void @_ZNSaImEC2ERKS_(%"class.std::allocator.9"* %8, %"class.std::allocator.9"* dereferenceable(1) %10) #3
  %11 = getelementptr inbounds %"struct.std::_Bvector_base<std::allocator<bool> >::_Bvector_impl", %"struct.std::_Bvector_base<std::allocator<bool> >::_Bvector_impl"* %7, i32 0, i32 0
  invoke void @_ZNSt13_Bit_iteratorC2Ev(%"struct.std::_Bit_iterator"* %11)
          to label %12 unwind label %16

; <label>:12:                                     ; preds = %2
  %13 = getelementptr inbounds %"struct.std::_Bvector_base<std::allocator<bool> >::_Bvector_impl", %"struct.std::_Bvector_base<std::allocator<bool> >::_Bvector_impl"* %7, i32 0, i32 1
  invoke void @_ZNSt13_Bit_iteratorC2Ev(%"struct.std::_Bit_iterator"* %13)
          to label %14 unwind label %16

; <label>:14:                                     ; preds = %12
  %15 = getelementptr inbounds %"struct.std::_Bvector_base<std::allocator<bool> >::_Bvector_impl", %"struct.std::_Bvector_base<std::allocator<bool> >::_Bvector_impl"* %7, i32 0, i32 2
  store i64* null, i64** %15, align 8
  ret void

; <label>:16:                                     ; preds = %12, %2
  %17 = landingpad { i8*, i32 }
          cleanup
  %18 = extractvalue { i8*, i32 } %17, 0
  store i8* %18, i8** %5, align 8
  %19 = extractvalue { i8*, i32 } %17, 1
  store i32 %19, i32* %6, align 4
  %20 = bitcast %"struct.std::_Bvector_base<std::allocator<bool> >::_Bvector_impl"* %7 to %"class.std::allocator.9"*
  call void @_ZNSaImED2Ev(%"class.std::allocator.9"* %20) #3
  br label %21

; <label>:21:                                     ; preds = %16
  %22 = load i8*, i8** %5, align 8
  %23 = load i32, i32* %6, align 4
  %24 = insertvalue { i8*, i32 } undef, i8* %22, 0
  %25 = insertvalue { i8*, i32 } %24, i32 %23, 1
  resume { i8*, i32 } %25
}

; Function Attrs: noinline nounwind uwtable
define linkonce_odr void @_ZNSaImED2Ev(%"class.std::allocator.9"*) unnamed_addr #4 comdat align 2 {
  %2 = alloca %"class.std::allocator.9"*, align 8
  store %"class.std::allocator.9"* %0, %"class.std::allocator.9"** %2, align 8
  %3 = load %"class.std::allocator.9"*, %"class.std::allocator.9"** %2, align 8
  %4 = bitcast %"class.std::allocator.9"* %3 to %"class.__gnu_cxx::new_allocator.10"*
  call void @_ZN9__gnu_cxx13new_allocatorImED2Ev(%"class.__gnu_cxx::new_allocator.10"* %4) #3
  ret void
}

; Function Attrs: noinline nounwind uwtable
define linkonce_odr void @_ZN9__gnu_cxx13new_allocatorImEC2Ev(%"class.__gnu_cxx::new_allocator.10"*) unnamed_addr #4 comdat align 2 {
  %2 = alloca %"class.__gnu_cxx::new_allocator.10"*, align 8
  store %"class.__gnu_cxx::new_allocator.10"* %0, %"class.__gnu_cxx::new_allocator.10"** %2, align 8
  %3 = load %"class.__gnu_cxx::new_allocator.10"*, %"class.__gnu_cxx::new_allocator.10"** %2, align 8
  ret void
}

; Function Attrs: noinline nounwind uwtable
define linkonce_odr dereferenceable(1) %"class.std::allocator.9"* @_ZSt4moveIRSaImEEONSt16remove_referenceIT_E4typeEOS3_(%"class.std::allocator.9"* dereferenceable(1)) #4 comdat {
  %2 = alloca %"class.std::allocator.9"*, align 8
  store %"class.std::allocator.9"* %0, %"class.std::allocator.9"** %2, align 8
  %3 = load %"class.std::allocator.9"*, %"class.std::allocator.9"** %2, align 8
  ret %"class.std::allocator.9"* %3
}

; Function Attrs: noinline uwtable
define linkonce_odr void @_ZNSt13_Bit_iteratorC2Ev(%"struct.std::_Bit_iterator"*) unnamed_addr #0 comdat align 2 {
  %2 = alloca %"struct.std::_Bit_iterator"*, align 8
  store %"struct.std::_Bit_iterator"* %0, %"struct.std::_Bit_iterator"** %2, align 8
  %3 = load %"struct.std::_Bit_iterator"*, %"struct.std::_Bit_iterator"** %2, align 8
  %4 = bitcast %"struct.std::_Bit_iterator"* %3 to %"struct.std::_Bit_iterator_base"*
  call void @_ZNSt18_Bit_iterator_baseC2EPmj(%"struct.std::_Bit_iterator_base"* %4, i64* null, i32 0)
  ret void
}

; Function Attrs: noinline nounwind uwtable
define linkonce_odr void @_ZN9__gnu_cxx13new_allocatorImEC2ERKS1_(%"class.__gnu_cxx::new_allocator.10"*, %"class.__gnu_cxx::new_allocator.10"* dereferenceable(1)) unnamed_addr #4 comdat align 2 {
  %3 = alloca %"class.__gnu_cxx::new_allocator.10"*, align 8
  %4 = alloca %"class.__gnu_cxx::new_allocator.10"*, align 8
  store %"class.__gnu_cxx::new_allocator.10"* %0, %"class.__gnu_cxx::new_allocator.10"** %3, align 8
  store %"class.__gnu_cxx::new_allocator.10"* %1, %"class.__gnu_cxx::new_allocator.10"** %4, align 8
  %5 = load %"class.__gnu_cxx::new_allocator.10"*, %"class.__gnu_cxx::new_allocator.10"** %3, align 8
  ret void
}

; Function Attrs: noinline nounwind uwtable
define linkonce_odr void @_ZNSt18_Bit_iterator_baseC2EPmj(%"struct.std::_Bit_iterator_base"*, i64*, i32) unnamed_addr #4 comdat align 2 {
  %4 = alloca %"struct.std::_Bit_iterator_base"*, align 8
  %5 = alloca i64*, align 8
  %6 = alloca i32, align 4
  store %"struct.std::_Bit_iterator_base"* %0, %"struct.std::_Bit_iterator_base"** %4, align 8
  store i64* %1, i64** %5, align 8
  store i32 %2, i32* %6, align 4
  %7 = load %"struct.std::_Bit_iterator_base"*, %"struct.std::_Bit_iterator_base"** %4, align 8
  %8 = bitcast %"struct.std::_Bit_iterator_base"* %7 to %"struct.std::iterator"*
  %9 = getelementptr inbounds %"struct.std::_Bit_iterator_base", %"struct.std::_Bit_iterator_base"* %7, i32 0, i32 0
  %10 = load i64*, i64** %5, align 8
  store i64* %10, i64** %9, align 8
  %11 = getelementptr inbounds %"struct.std::_Bit_iterator_base", %"struct.std::_Bit_iterator_base"* %7, i32 0, i32 1
  %12 = load i32, i32* %6, align 4
  store i32 %12, i32* %11, align 8
  ret void
}

; Function Attrs: noinline nounwind uwtable
define linkonce_odr void @_ZN9__gnu_cxx13new_allocatorImED2Ev(%"class.__gnu_cxx::new_allocator.10"*) unnamed_addr #4 comdat align 2 {
  %2 = alloca %"class.__gnu_cxx::new_allocator.10"*, align 8
  store %"class.__gnu_cxx::new_allocator.10"* %0, %"class.__gnu_cxx::new_allocator.10"** %2, align 8
  %3 = load %"class.__gnu_cxx::new_allocator.10"*, %"class.__gnu_cxx::new_allocator.10"** %2, align 8
  ret void
}

; Function Attrs: noinline uwtable
define linkonce_odr i64* @_ZNSt13_Bvector_baseISaIbEE11_M_allocateEm(%"struct.std::_Bvector_base"*, i64) #0 comdat align 2 {
  %3 = alloca %"struct.std::_Bvector_base"*, align 8
  %4 = alloca i64, align 8
  store %"struct.std::_Bvector_base"* %0, %"struct.std::_Bvector_base"** %3, align 8
  store i64 %1, i64* %4, align 8
  %5 = load %"struct.std::_Bvector_base"*, %"struct.std::_Bvector_base"** %3, align 8
  %6 = getelementptr inbounds %"struct.std::_Bvector_base", %"struct.std::_Bvector_base"* %5, i32 0, i32 0
  %7 = bitcast %"struct.std::_Bvector_base<std::allocator<bool> >::_Bvector_impl"* %6 to %"class.std::allocator.9"*
  %8 = load i64, i64* %4, align 8
  %9 = call i64 @_ZNSt13_Bvector_baseISaIbEE8_S_nwordEm(i64 %8)
  %10 = call i64* @_ZNSt16allocator_traitsISaImEE8allocateERS0_m(%"class.std::allocator.9"* dereferenceable(1) %7, i64 %9)
  ret i64* %10
}

; Function Attrs: noinline nounwind uwtable
define linkonce_odr i64 @_ZNSt13_Bvector_baseISaIbEE8_S_nwordEm(i64) #4 comdat align 2 {
  %2 = alloca i64, align 8
  store i64 %0, i64* %2, align 8
  %3 = load i64, i64* %2, align 8
  %4 = add i64 %3, 829428918908582401
  %5 = add i64 %4, 64
  %6 = sub i64 %5, 829428918908582401
  %7 = add i64 %3, 64
  %8 = sub i64 %6, 6770757959526249820
  %9 = sub i64 %8, 1
  %10 = add i64 %9, 6770757959526249820
  %11 = sub i64 %6, 1
  %12 = udiv i64 %10, 64
  ret i64 %12
}

; Function Attrs: noinline nounwind uwtable
define linkonce_odr i64* @_ZSt11__addressofImEPT_RS0_(i64* dereferenceable(8)) #4 comdat {
  %2 = alloca i64*, align 8
  store i64* %0, i64** %2, align 8
  %3 = load i64*, i64** %2, align 8
  %4 = bitcast i64* %3 to i8*
  %5 = bitcast i8* %4 to i64*
  ret i64* %5
}

; Function Attrs: noinline nounwind uwtable
define linkonce_odr void @_ZNSt13_Bit_iteratorC2EPmj(%"struct.std::_Bit_iterator"*, i64*, i32) unnamed_addr #4 comdat align 2 {
  %4 = alloca %"struct.std::_Bit_iterator"*, align 8
  %5 = alloca i64*, align 8
  %6 = alloca i32, align 4
  store %"struct.std::_Bit_iterator"* %0, %"struct.std::_Bit_iterator"** %4, align 8
  store i64* %1, i64** %5, align 8
  store i32 %2, i32* %6, align 4
  %7 = load %"struct.std::_Bit_iterator"*, %"struct.std::_Bit_iterator"** %4, align 8
  %8 = bitcast %"struct.std::_Bit_iterator"* %7 to %"struct.std::_Bit_iterator_base"*
  %9 = load i64*, i64** %5, align 8
  %10 = load i32, i32* %6, align 4
  call void @_ZNSt18_Bit_iterator_baseC2EPmj(%"struct.std::_Bit_iterator_base"* %8, i64* %9, i32 %10)
  ret void
}

; Function Attrs: argmemonly nounwind
declare void @llvm.memcpy.p0i8.p0i8.i64(i8* nocapture writeonly, i8* nocapture readonly, i64, i32, i1) #8

; Function Attrs: noinline uwtable
define linkonce_odr { i64*, i32 } @_ZNKSt13_Bit_iteratorplEl(%"struct.std::_Bit_iterator"*, i64) #0 comdat align 2 {
  %3 = alloca %"struct.std::_Bit_iterator", align 8
  %4 = alloca %"struct.std::_Bit_iterator"*, align 8
  %5 = alloca i64, align 8
  %6 = alloca %"struct.std::_Bit_iterator", align 8
  store %"struct.std::_Bit_iterator"* %0, %"struct.std::_Bit_iterator"** %4, align 8
  store i64 %1, i64* %5, align 8
  %7 = load %"struct.std::_Bit_iterator"*, %"struct.std::_Bit_iterator"** %4, align 8
  %8 = bitcast %"struct.std::_Bit_iterator"* %6 to i8*
  %9 = bitcast %"struct.std::_Bit_iterator"* %7 to i8*
  call void @llvm.memcpy.p0i8.p0i8.i64(i8* %8, i8* %9, i64 16, i32 8, i1 false)
  %10 = load i64, i64* %5, align 8
  %11 = call dereferenceable(16) %"struct.std::_Bit_iterator"* @_ZNSt13_Bit_iteratorpLEl(%"struct.std::_Bit_iterator"* %6, i64 %10)
  %12 = bitcast %"struct.std::_Bit_iterator"* %3 to i8*
  %13 = bitcast %"struct.std::_Bit_iterator"* %11 to i8*
  call void @llvm.memcpy.p0i8.p0i8.i64(i8* %12, i8* %13, i64 16, i32 8, i1 false)
  %14 = bitcast %"struct.std::_Bit_iterator"* %3 to { i64*, i32 }*
  %15 = load { i64*, i32 }, { i64*, i32 }* %14, align 8
  ret { i64*, i32 } %15
}

; Function Attrs: noinline uwtable
define linkonce_odr i64* @_ZNSt16allocator_traitsISaImEE8allocateERS0_m(%"class.std::allocator.9"* dereferenceable(1), i64) #0 comdat align 2 {
  %3 = alloca %"class.std::allocator.9"*, align 8
  %4 = alloca i64, align 8
  store %"class.std::allocator.9"* %0, %"class.std::allocator.9"** %3, align 8
  store i64 %1, i64* %4, align 8
  %5 = load %"class.std::allocator.9"*, %"class.std::allocator.9"** %3, align 8
  %6 = bitcast %"class.std::allocator.9"* %5 to %"class.__gnu_cxx::new_allocator.10"*
  %7 = load i64, i64* %4, align 8
  %8 = call i64* @_ZN9__gnu_cxx13new_allocatorImE8allocateEmPKv(%"class.__gnu_cxx::new_allocator.10"* %6, i64 %7, i8* null)
  ret i64* %8
}

; Function Attrs: noinline uwtable
define linkonce_odr i64* @_ZN9__gnu_cxx13new_allocatorImE8allocateEmPKv(%"class.__gnu_cxx::new_allocator.10"*, i64, i8*) #0 comdat align 2 {
  %4 = alloca %"class.__gnu_cxx::new_allocator.10"*, align 8
  %5 = alloca i64, align 8
  %6 = alloca i8*, align 8
  store %"class.__gnu_cxx::new_allocator.10"* %0, %"class.__gnu_cxx::new_allocator.10"** %4, align 8
  store i64 %1, i64* %5, align 8
  store i8* %2, i8** %6, align 8
  %7 = load %"class.__gnu_cxx::new_allocator.10"*, %"class.__gnu_cxx::new_allocator.10"** %4, align 8
  %8 = load i64, i64* %5, align 8
  %9 = call i64 @_ZNK9__gnu_cxx13new_allocatorImE8max_sizeEv(%"class.__gnu_cxx::new_allocator.10"* %7) #3
  %10 = icmp ugt i64 %8, %9
  br i1 %10, label %11, label %12

; <label>:11:                                     ; preds = %3
  call void @_ZSt17__throw_bad_allocv() #13
  unreachable

; <label>:12:                                     ; preds = %3
  %13 = load i64, i64* %5, align 8
  %14 = mul i64 %13, 8
  %15 = call i8* @_Znwm(i64 %14)
  %16 = bitcast i8* %15 to i64*
  ret i64* %16
}

; Function Attrs: noinline nounwind uwtable
define linkonce_odr i64 @_ZNK9__gnu_cxx13new_allocatorImE8max_sizeEv(%"class.__gnu_cxx::new_allocator.10"*) #4 comdat align 2 {
  %2 = alloca %"class.__gnu_cxx::new_allocator.10"*, align 8
  store %"class.__gnu_cxx::new_allocator.10"* %0, %"class.__gnu_cxx::new_allocator.10"** %2, align 8
  %3 = load %"class.__gnu_cxx::new_allocator.10"*, %"class.__gnu_cxx::new_allocator.10"** %2, align 8
  ret i64 2305843009213693951
}

; Function Attrs: noreturn
declare void @_ZSt17__throw_bad_allocv() #9

; Function Attrs: nobuiltin
declare noalias i8* @_Znwm(i64) #10

; Function Attrs: noinline uwtable
define linkonce_odr dereferenceable(16) %"struct.std::_Bit_iterator"* @_ZNSt13_Bit_iteratorpLEl(%"struct.std::_Bit_iterator"*, i64) #0 comdat align 2 {
  %3 = alloca %"struct.std::_Bit_iterator"*, align 8
  %4 = alloca i64, align 8
  store %"struct.std::_Bit_iterator"* %0, %"struct.std::_Bit_iterator"** %3, align 8
  store i64 %1, i64* %4, align 8
  %5 = load %"struct.std::_Bit_iterator"*, %"struct.std::_Bit_iterator"** %3, align 8
  %6 = bitcast %"struct.std::_Bit_iterator"* %5 to %"struct.std::_Bit_iterator_base"*
  %7 = load i64, i64* %4, align 8
  call void @_ZNSt18_Bit_iterator_base7_M_incrEl(%"struct.std::_Bit_iterator_base"* %6, i64 %7)
  ret %"struct.std::_Bit_iterator"* %5
}

; Function Attrs: noinline nounwind uwtable
define linkonce_odr void @_ZNSt18_Bit_iterator_base7_M_incrEl(%"struct.std::_Bit_iterator_base"*, i64) #4 comdat align 2 {
  %3 = alloca %"struct.std::_Bit_iterator_base"*, align 8
  %4 = alloca i64, align 8
  %5 = alloca i64, align 8
  store %"struct.std::_Bit_iterator_base"* %0, %"struct.std::_Bit_iterator_base"** %3, align 8
  store i64 %1, i64* %4, align 8
  %6 = load %"struct.std::_Bit_iterator_base"*, %"struct.std::_Bit_iterator_base"** %3, align 8
  %7 = load i64, i64* %4, align 8
  %8 = getelementptr inbounds %"struct.std::_Bit_iterator_base", %"struct.std::_Bit_iterator_base"* %6, i32 0, i32 1
  %9 = load i32, i32* %8, align 8
  %10 = zext i32 %9 to i64
  %11 = sub i64 0, %10
  %12 = sub i64 %7, %11
  %13 = add nsw i64 %7, %10
  store i64 %12, i64* %5, align 8
  %14 = load i64, i64* %5, align 8
  %15 = sdiv i64 %14, 64
  %16 = getelementptr inbounds %"struct.std::_Bit_iterator_base", %"struct.std::_Bit_iterator_base"* %6, i32 0, i32 0
  %17 = load i64*, i64** %16, align 8
  %18 = getelementptr inbounds i64, i64* %17, i64 %15
  store i64* %18, i64** %16, align 8
  %19 = load i64, i64* %5, align 8
  %20 = srem i64 %19, 64
  store i64 %20, i64* %5, align 8
  %21 = load i64, i64* %5, align 8
  %22 = icmp slt i64 %21, 0
  br i1 %22, label %23, label %32

; <label>:23:                                     ; preds = %2
  %24 = load i64, i64* %5, align 8
  %25 = add i64 %24, 2788287757462692535
  %26 = add i64 %25, 64
  %27 = sub i64 %26, 2788287757462692535
  %28 = add nsw i64 %24, 64
  store i64 %27, i64* %5, align 8
  %29 = getelementptr inbounds %"struct.std::_Bit_iterator_base", %"struct.std::_Bit_iterator_base"* %6, i32 0, i32 0
  %30 = load i64*, i64** %29, align 8
  %31 = getelementptr inbounds i64, i64* %30, i32 -1
  store i64* %31, i64** %29, align 8
  br label %32

; <label>:32:                                     ; preds = %23, %2
  %33 = load i64, i64* %5, align 8
  %34 = trunc i64 %33 to i32
  %35 = getelementptr inbounds %"struct.std::_Bit_iterator_base", %"struct.std::_Bit_iterator_base"* %6, i32 0, i32 1
  store i32 %34, i32* %35, align 8
  ret void
}

; Function Attrs: noinline nounwind uwtable
define linkonce_odr void @_ZSt8__fill_aIPmiEN9__gnu_cxx11__enable_ifIXsr11__is_scalarIT0_EE7__valueEvE6__typeET_S6_RKS3_(i64*, i64*, i32* dereferenceable(4)) #4 comdat {
  %4 = alloca i64*, align 8
  %5 = alloca i64*, align 8
  %6 = alloca i32*, align 8
  %7 = alloca i32, align 4
  store i64* %0, i64** %4, align 8
  store i64* %1, i64** %5, align 8
  store i32* %2, i32** %6, align 8
  %8 = load i32*, i32** %6, align 8
  %9 = load i32, i32* %8, align 4
  store i32 %9, i32* %7, align 4
  br label %10

; <label>:10:                                     ; preds = %18, %3
  %11 = load i64*, i64** %4, align 8
  %12 = load i64*, i64** %5, align 8
  %13 = icmp ne i64* %11, %12
  br i1 %13, label %14, label %21

; <label>:14:                                     ; preds = %10
  %15 = load i32, i32* %7, align 4
  %16 = sext i32 %15 to i64
  %17 = load i64*, i64** %4, align 8
  store i64 %16, i64* %17, align 8
  br label %18

; <label>:18:                                     ; preds = %14
  %19 = load i64*, i64** %4, align 8
  %20 = getelementptr inbounds i64, i64* %19, i32 1
  store i64* %20, i64** %4, align 8
  br label %10

; <label>:21:                                     ; preds = %10
  ret void
}

; Function Attrs: noinline uwtable
define linkonce_odr i64* @_ZSt12__niter_baseIPmENSt11_Niter_baseIT_E13iterator_typeES2_(i64*) #0 comdat {
  %2 = alloca i64*, align 8
  store i64* %0, i64** %2, align 8
  %3 = load i64*, i64** %2, align 8
  %4 = call i64* @_ZNSt10_Iter_baseIPmLb0EE7_S_baseES0_(i64* %3)
  ret i64* %4
}

; Function Attrs: noinline nounwind uwtable
define linkonce_odr i64* @_ZNSt10_Iter_baseIPmLb0EE7_S_baseES0_(i64*) #4 comdat align 2 {
  %2 = alloca i64*, align 8
  store i64* %0, i64** %2, align 8
  %3 = load i64*, i64** %2, align 8
  ret i64* %3
}

; Function Attrs: noinline uwtable
define linkonce_odr void @_ZNSt13_Bvector_baseISaIbEE13_M_deallocateEv(%"struct.std::_Bvector_base"*) #0 comdat align 2 {
  %2 = alloca %"struct.std::_Bvector_base"*, align 8
  %3 = alloca i64, align 8
  store %"struct.std::_Bvector_base"* %0, %"struct.std::_Bvector_base"** %2, align 8
  %4 = load %"struct.std::_Bvector_base"*, %"struct.std::_Bvector_base"** %2, align 8
  %5 = getelementptr inbounds %"struct.std::_Bvector_base", %"struct.std::_Bvector_base"* %4, i32 0, i32 0
  %6 = getelementptr inbounds %"struct.std::_Bvector_base<std::allocator<bool> >::_Bvector_impl", %"struct.std::_Bvector_base<std::allocator<bool> >::_Bvector_impl"* %5, i32 0, i32 0
  %7 = bitcast %"struct.std::_Bit_iterator"* %6 to %"struct.std::_Bit_iterator_base"*
  %8 = getelementptr inbounds %"struct.std::_Bit_iterator_base", %"struct.std::_Bit_iterator_base"* %7, i32 0, i32 0
  %9 = load i64*, i64** %8, align 8
  %10 = icmp ne i64* %9, null
  br i1 %10, label %11, label %38

; <label>:11:                                     ; preds = %1
  %12 = getelementptr inbounds %"struct.std::_Bvector_base", %"struct.std::_Bvector_base"* %4, i32 0, i32 0
  %13 = call i64* @_ZNKSt13_Bvector_baseISaIbEE13_Bvector_impl11_M_end_addrEv(%"struct.std::_Bvector_base<std::allocator<bool> >::_Bvector_impl"* %12) #3
  %14 = getelementptr inbounds %"struct.std::_Bvector_base", %"struct.std::_Bvector_base"* %4, i32 0, i32 0
  %15 = getelementptr inbounds %"struct.std::_Bvector_base<std::allocator<bool> >::_Bvector_impl", %"struct.std::_Bvector_base<std::allocator<bool> >::_Bvector_impl"* %14, i32 0, i32 0
  %16 = bitcast %"struct.std::_Bit_iterator"* %15 to %"struct.std::_Bit_iterator_base"*
  %17 = getelementptr inbounds %"struct.std::_Bit_iterator_base", %"struct.std::_Bit_iterator_base"* %16, i32 0, i32 0
  %18 = load i64*, i64** %17, align 8
  %19 = ptrtoint i64* %13 to i64
  %20 = ptrtoint i64* %18 to i64
  %21 = sub i64 %19, 3231946314488073896
  %22 = sub i64 %21, %20
  %23 = add i64 %22, 3231946314488073896
  %24 = sub i64 %19, %20
  %25 = sdiv exact i64 %23, 8
  store i64 %25, i64* %3, align 8
  %26 = getelementptr inbounds %"struct.std::_Bvector_base", %"struct.std::_Bvector_base"* %4, i32 0, i32 0
  %27 = bitcast %"struct.std::_Bvector_base<std::allocator<bool> >::_Bvector_impl"* %26 to %"class.std::allocator.9"*
  %28 = getelementptr inbounds %"struct.std::_Bvector_base", %"struct.std::_Bvector_base"* %4, i32 0, i32 0
  %29 = getelementptr inbounds %"struct.std::_Bvector_base<std::allocator<bool> >::_Bvector_impl", %"struct.std::_Bvector_base<std::allocator<bool> >::_Bvector_impl"* %28, i32 0, i32 2
  %30 = load i64*, i64** %29, align 8
  %31 = load i64, i64* %3, align 8
  %32 = add i64 0, 4891127774045226116
  %33 = sub i64 %32, %31
  %34 = sub i64 %33, 4891127774045226116
  %35 = sub i64 0, %31
  %36 = getelementptr inbounds i64, i64* %30, i64 %34
  %37 = load i64, i64* %3, align 8
  call void @_ZNSt16allocator_traitsISaImEE10deallocateERS0_Pmm(%"class.std::allocator.9"* dereferenceable(1) %27, i64* %36, i64 %37)
  br label %38

; <label>:38:                                     ; preds = %11, %1
  ret void
}

; Function Attrs: noinline nounwind uwtable
define linkonce_odr void @_ZNSt13_Bvector_baseISaIbEE13_Bvector_implD2Ev(%"struct.std::_Bvector_base<std::allocator<bool> >::_Bvector_impl"*) unnamed_addr #4 comdat align 2 {
  %2 = alloca %"struct.std::_Bvector_base<std::allocator<bool> >::_Bvector_impl"*, align 8
  store %"struct.std::_Bvector_base<std::allocator<bool> >::_Bvector_impl"* %0, %"struct.std::_Bvector_base<std::allocator<bool> >::_Bvector_impl"** %2, align 8
  %3 = load %"struct.std::_Bvector_base<std::allocator<bool> >::_Bvector_impl"*, %"struct.std::_Bvector_base<std::allocator<bool> >::_Bvector_impl"** %2, align 8
  %4 = bitcast %"struct.std::_Bvector_base<std::allocator<bool> >::_Bvector_impl"* %3 to %"class.std::allocator.9"*
  call void @_ZNSaImED2Ev(%"class.std::allocator.9"* %4) #3
  ret void
}

declare void @__cxa_call_unexpected(i8*)

; Function Attrs: noinline uwtable
define linkonce_odr void @_ZNSt16allocator_traitsISaImEE10deallocateERS0_Pmm(%"class.std::allocator.9"* dereferenceable(1), i64*, i64) #0 comdat align 2 {
  %4 = alloca %"class.std::allocator.9"*, align 8
  %5 = alloca i64*, align 8
  %6 = alloca i64, align 8
  store %"class.std::allocator.9"* %0, %"class.std::allocator.9"** %4, align 8
  store i64* %1, i64** %5, align 8
  store i64 %2, i64* %6, align 8
  %7 = load %"class.std::allocator.9"*, %"class.std::allocator.9"** %4, align 8
  %8 = bitcast %"class.std::allocator.9"* %7 to %"class.__gnu_cxx::new_allocator.10"*
  %9 = load i64*, i64** %5, align 8
  %10 = load i64, i64* %6, align 8
  call void @_ZN9__gnu_cxx13new_allocatorImE10deallocateEPmm(%"class.__gnu_cxx::new_allocator.10"* %8, i64* %9, i64 %10)
  ret void
}

; Function Attrs: noinline nounwind uwtable
define linkonce_odr void @_ZN9__gnu_cxx13new_allocatorImE10deallocateEPmm(%"class.__gnu_cxx::new_allocator.10"*, i64*, i64) #4 comdat align 2 {
  %4 = alloca %"class.__gnu_cxx::new_allocator.10"*, align 8
  %5 = alloca i64*, align 8
  %6 = alloca i64, align 8
  store %"class.__gnu_cxx::new_allocator.10"* %0, %"class.__gnu_cxx::new_allocator.10"** %4, align 8
  store i64* %1, i64** %5, align 8
  store i64 %2, i64* %6, align 8
  %7 = load %"class.__gnu_cxx::new_allocator.10"*, %"class.__gnu_cxx::new_allocator.10"** %4, align 8
  %8 = load i64*, i64** %5, align 8
  %9 = bitcast i64* %8 to i8*
  call void @_ZdlPv(i8* %9) #3
  ret void
}

; Function Attrs: noinline nounwind uwtable
define linkonce_odr void @_ZN9__gnu_cxx13new_allocatorISt6vectorIbSaIbEEEC2Ev(%"class.__gnu_cxx::new_allocator.6"*) unnamed_addr #4 comdat align 2 {
  %2 = alloca %"class.__gnu_cxx::new_allocator.6"*, align 8
  store %"class.__gnu_cxx::new_allocator.6"* %0, %"class.__gnu_cxx::new_allocator.6"** %2, align 8
  %3 = load %"class.__gnu_cxx::new_allocator.6"*, %"class.__gnu_cxx::new_allocator.6"** %2, align 8
  ret void
}

; Function Attrs: noinline nounwind uwtable
define linkonce_odr void @_ZN9__gnu_cxx13new_allocatorISt6vectorIbSaIbEEED2Ev(%"class.__gnu_cxx::new_allocator.6"*) unnamed_addr #4 comdat align 2 {
  %2 = alloca %"class.__gnu_cxx::new_allocator.6"*, align 8
  store %"class.__gnu_cxx::new_allocator.6"* %0, %"class.__gnu_cxx::new_allocator.6"** %2, align 8
  %3 = load %"class.__gnu_cxx::new_allocator.6"*, %"class.__gnu_cxx::new_allocator.6"** %2, align 8
  ret void
}

; Function Attrs: noinline uwtable
define linkonce_odr void @_ZNSt12_Vector_baseISt6vectorIbSaIbEESaIS2_EEC2EmRKS3_(%"struct.std::_Vector_base.4"*, i64, %"class.std::allocator.5"* dereferenceable(1)) unnamed_addr #0 comdat align 2 personality i8* bitcast (i32 (...)* @__gxx_personality_v0 to i8*) {
  %4 = alloca %"struct.std::_Vector_base.4"*, align 8
  %5 = alloca i64, align 8
  %6 = alloca %"class.std::allocator.5"*, align 8
  %7 = alloca i8*
  %8 = alloca i32
  store %"struct.std::_Vector_base.4"* %0, %"struct.std::_Vector_base.4"** %4, align 8
  store i64 %1, i64* %5, align 8
  store %"class.std::allocator.5"* %2, %"class.std::allocator.5"** %6, align 8
  %9 = load %"struct.std::_Vector_base.4"*, %"struct.std::_Vector_base.4"** %4, align 8
  %10 = getelementptr inbounds %"struct.std::_Vector_base.4", %"struct.std::_Vector_base.4"* %9, i32 0, i32 0
  %11 = load %"class.std::allocator.5"*, %"class.std::allocator.5"** %6, align 8
  call void @_ZNSt12_Vector_baseISt6vectorIbSaIbEESaIS2_EE12_Vector_implC2ERKS3_(%"struct.std::_Vector_base<std::vector<bool, std::allocator<bool> >, std::allocator<std::vector<bool, std::allocator<bool> > > >::_Vector_impl"* %10, %"class.std::allocator.5"* dereferenceable(1) %11) #3
  %12 = load i64, i64* %5, align 8
  invoke void @_ZNSt12_Vector_baseISt6vectorIbSaIbEESaIS2_EE17_M_create_storageEm(%"struct.std::_Vector_base.4"* %9, i64 %12)
          to label %13 unwind label %14

; <label>:13:                                     ; preds = %3
  ret void

; <label>:14:                                     ; preds = %3
  %15 = landingpad { i8*, i32 }
          cleanup
  %16 = extractvalue { i8*, i32 } %15, 0
  store i8* %16, i8** %7, align 8
  %17 = extractvalue { i8*, i32 } %15, 1
  store i32 %17, i32* %8, align 4
  call void @_ZNSt12_Vector_baseISt6vectorIbSaIbEESaIS2_EE12_Vector_implD2Ev(%"struct.std::_Vector_base<std::vector<bool, std::allocator<bool> >, std::allocator<std::vector<bool, std::allocator<bool> > > >::_Vector_impl"* %10) #3
  br label %18

; <label>:18:                                     ; preds = %14
  %19 = load i8*, i8** %7, align 8
  %20 = load i32, i32* %8, align 4
  %21 = insertvalue { i8*, i32 } undef, i8* %19, 0
  %22 = insertvalue { i8*, i32 } %21, i32 %20, 1
  resume { i8*, i32 } %22
}

; Function Attrs: noinline uwtable
define linkonce_odr void @_ZNSt6vectorIS_IbSaIbEESaIS1_EE18_M_fill_initializeEmRKS1_(%"class.std::vector.3"*, i64, %"class.std::vector.8"* dereferenceable(40)) #0 comdat align 2 {
  %4 = alloca %"class.std::vector.3"*, align 8
  %5 = alloca i64, align 8
  %6 = alloca %"class.std::vector.8"*, align 8
  store %"class.std::vector.3"* %0, %"class.std::vector.3"** %4, align 8
  store i64 %1, i64* %5, align 8
  store %"class.std::vector.8"* %2, %"class.std::vector.8"** %6, align 8
  %7 = load %"class.std::vector.3"*, %"class.std::vector.3"** %4, align 8
  %8 = bitcast %"class.std::vector.3"* %7 to %"struct.std::_Vector_base.4"*
  %9 = getelementptr inbounds %"struct.std::_Vector_base.4", %"struct.std::_Vector_base.4"* %8, i32 0, i32 0
  %10 = getelementptr inbounds %"struct.std::_Vector_base<std::vector<bool, std::allocator<bool> >, std::allocator<std::vector<bool, std::allocator<bool> > > >::_Vector_impl", %"struct.std::_Vector_base<std::vector<bool, std::allocator<bool> >, std::allocator<std::vector<bool, std::allocator<bool> > > >::_Vector_impl"* %9, i32 0, i32 0
  %11 = load %"class.std::vector.8"*, %"class.std::vector.8"** %10, align 8
  %12 = load i64, i64* %5, align 8
  %13 = load %"class.std::vector.8"*, %"class.std::vector.8"** %6, align 8
  %14 = bitcast %"class.std::vector.3"* %7 to %"struct.std::_Vector_base.4"*
  %15 = call dereferenceable(1) %"class.std::allocator.5"* @_ZNSt12_Vector_baseISt6vectorIbSaIbEESaIS2_EE19_M_get_Tp_allocatorEv(%"struct.std::_Vector_base.4"* %14) #3
  %16 = call %"class.std::vector.8"* @_ZSt24__uninitialized_fill_n_aIPSt6vectorIbSaIbEEmS2_S2_ET_S4_T0_RKT1_RSaIT2_E(%"class.std::vector.8"* %11, i64 %12, %"class.std::vector.8"* dereferenceable(40) %13, %"class.std::allocator.5"* dereferenceable(1) %15)
  %17 = bitcast %"class.std::vector.3"* %7 to %"struct.std::_Vector_base.4"*
  %18 = getelementptr inbounds %"struct.std::_Vector_base.4", %"struct.std::_Vector_base.4"* %17, i32 0, i32 0
  %19 = getelementptr inbounds %"struct.std::_Vector_base<std::vector<bool, std::allocator<bool> >, std::allocator<std::vector<bool, std::allocator<bool> > > >::_Vector_impl", %"struct.std::_Vector_base<std::vector<bool, std::allocator<bool> >, std::allocator<std::vector<bool, std::allocator<bool> > > >::_Vector_impl"* %18, i32 0, i32 1
  store %"class.std::vector.8"* %16, %"class.std::vector.8"** %19, align 8
  ret void
}

; Function Attrs: noinline nounwind uwtable
define linkonce_odr void @_ZNSt12_Vector_baseISt6vectorIbSaIbEESaIS2_EED2Ev(%"struct.std::_Vector_base.4"*) unnamed_addr #4 comdat align 2 personality i8* bitcast (i32 (...)* @__gxx_personality_v0 to i8*) {
  %2 = alloca %"struct.std::_Vector_base.4"*, align 8
  %3 = alloca i8*
  %4 = alloca i32
  store %"struct.std::_Vector_base.4"* %0, %"struct.std::_Vector_base.4"** %2, align 8
  %5 = load %"struct.std::_Vector_base.4"*, %"struct.std::_Vector_base.4"** %2, align 8
  %6 = getelementptr inbounds %"struct.std::_Vector_base.4", %"struct.std::_Vector_base.4"* %5, i32 0, i32 0
  %7 = getelementptr inbounds %"struct.std::_Vector_base<std::vector<bool, std::allocator<bool> >, std::allocator<std::vector<bool, std::allocator<bool> > > >::_Vector_impl", %"struct.std::_Vector_base<std::vector<bool, std::allocator<bool> >, std::allocator<std::vector<bool, std::allocator<bool> > > >::_Vector_impl"* %6, i32 0, i32 0
  %8 = load %"class.std::vector.8"*, %"class.std::vector.8"** %7, align 8
  %9 = getelementptr inbounds %"struct.std::_Vector_base.4", %"struct.std::_Vector_base.4"* %5, i32 0, i32 0
  %10 = getelementptr inbounds %"struct.std::_Vector_base<std::vector<bool, std::allocator<bool> >, std::allocator<std::vector<bool, std::allocator<bool> > > >::_Vector_impl", %"struct.std::_Vector_base<std::vector<bool, std::allocator<bool> >, std::allocator<std::vector<bool, std::allocator<bool> > > >::_Vector_impl"* %9, i32 0, i32 2
  %11 = load %"class.std::vector.8"*, %"class.std::vector.8"** %10, align 8
  %12 = getelementptr inbounds %"struct.std::_Vector_base.4", %"struct.std::_Vector_base.4"* %5, i32 0, i32 0
  %13 = getelementptr inbounds %"struct.std::_Vector_base<std::vector<bool, std::allocator<bool> >, std::allocator<std::vector<bool, std::allocator<bool> > > >::_Vector_impl", %"struct.std::_Vector_base<std::vector<bool, std::allocator<bool> >, std::allocator<std::vector<bool, std::allocator<bool> > > >::_Vector_impl"* %12, i32 0, i32 0
  %14 = load %"class.std::vector.8"*, %"class.std::vector.8"** %13, align 8
  %15 = ptrtoint %"class.std::vector.8"* %11 to i64
  %16 = ptrtoint %"class.std::vector.8"* %14 to i64
  %17 = add i64 %15, -7486794788267273122
  %18 = sub i64 %17, %16
  %19 = sub i64 %18, -7486794788267273122
  %20 = sub i64 %15, %16
  %21 = sdiv exact i64 %19, 40
  invoke void @_ZNSt12_Vector_baseISt6vectorIbSaIbEESaIS2_EE13_M_deallocateEPS2_m(%"struct.std::_Vector_base.4"* %5, %"class.std::vector.8"* %8, i64 %21)
          to label %22 unwind label %24

; <label>:22:                                     ; preds = %1
  %23 = getelementptr inbounds %"struct.std::_Vector_base.4", %"struct.std::_Vector_base.4"* %5, i32 0, i32 0
  call void @_ZNSt12_Vector_baseISt6vectorIbSaIbEESaIS2_EE12_Vector_implD2Ev(%"struct.std::_Vector_base<std::vector<bool, std::allocator<bool> >, std::allocator<std::vector<bool, std::allocator<bool> > > >::_Vector_impl"* %23) #3
  ret void

; <label>:24:                                     ; preds = %1
  %25 = landingpad { i8*, i32 }
          catch i8* null
  %26 = extractvalue { i8*, i32 } %25, 0
  store i8* %26, i8** %3, align 8
  %27 = extractvalue { i8*, i32 } %25, 1
  store i32 %27, i32* %4, align 4
  %28 = getelementptr inbounds %"struct.std::_Vector_base.4", %"struct.std::_Vector_base.4"* %5, i32 0, i32 0
  call void @_ZNSt12_Vector_baseISt6vectorIbSaIbEESaIS2_EE12_Vector_implD2Ev(%"struct.std::_Vector_base<std::vector<bool, std::allocator<bool> >, std::allocator<std::vector<bool, std::allocator<bool> > > >::_Vector_impl"* %28) #3
  br label %29

; <label>:29:                                     ; preds = %24
  %30 = load i8*, i8** %3, align 8
  call void @__clang_call_terminate(i8* %30) #11
  unreachable
}

; Function Attrs: noinline nounwind uwtable
define linkonce_odr void @_ZNSt12_Vector_baseISt6vectorIbSaIbEESaIS2_EE12_Vector_implC2ERKS3_(%"struct.std::_Vector_base<std::vector<bool, std::allocator<bool> >, std::allocator<std::vector<bool, std::allocator<bool> > > >::_Vector_impl"*, %"class.std::allocator.5"* dereferenceable(1)) unnamed_addr #4 comdat align 2 {
  %3 = alloca %"struct.std::_Vector_base<std::vector<bool, std::allocator<bool> >, std::allocator<std::vector<bool, std::allocator<bool> > > >::_Vector_impl"*, align 8
  %4 = alloca %"class.std::allocator.5"*, align 8
  store %"struct.std::_Vector_base<std::vector<bool, std::allocator<bool> >, std::allocator<std::vector<bool, std::allocator<bool> > > >::_Vector_impl"* %0, %"struct.std::_Vector_base<std::vector<bool, std::allocator<bool> >, std::allocator<std::vector<bool, std::allocator<bool> > > >::_Vector_impl"** %3, align 8
  store %"class.std::allocator.5"* %1, %"class.std::allocator.5"** %4, align 8
  %5 = load %"struct.std::_Vector_base<std::vector<bool, std::allocator<bool> >, std::allocator<std::vector<bool, std::allocator<bool> > > >::_Vector_impl"*, %"struct.std::_Vector_base<std::vector<bool, std::allocator<bool> >, std::allocator<std::vector<bool, std::allocator<bool> > > >::_Vector_impl"** %3, align 8
  %6 = bitcast %"struct.std::_Vector_base<std::vector<bool, std::allocator<bool> >, std::allocator<std::vector<bool, std::allocator<bool> > > >::_Vector_impl"* %5 to %"class.std::allocator.5"*
  %7 = load %"class.std::allocator.5"*, %"class.std::allocator.5"** %4, align 8
  call void @_ZNSaISt6vectorIbSaIbEEEC2ERKS2_(%"class.std::allocator.5"* %6, %"class.std::allocator.5"* dereferenceable(1) %7) #3
  %8 = getelementptr inbounds %"struct.std::_Vector_base<std::vector<bool, std::allocator<bool> >, std::allocator<std::vector<bool, std::allocator<bool> > > >::_Vector_impl", %"struct.std::_Vector_base<std::vector<bool, std::allocator<bool> >, std::allocator<std::vector<bool, std::allocator<bool> > > >::_Vector_impl"* %5, i32 0, i32 0
  store %"class.std::vector.8"* null, %"class.std::vector.8"** %8, align 8
  %9 = getelementptr inbounds %"struct.std::_Vector_base<std::vector<bool, std::allocator<bool> >, std::allocator<std::vector<bool, std::allocator<bool> > > >::_Vector_impl", %"struct.std::_Vector_base<std::vector<bool, std::allocator<bool> >, std::allocator<std::vector<bool, std::allocator<bool> > > >::_Vector_impl"* %5, i32 0, i32 1
  store %"class.std::vector.8"* null, %"class.std::vector.8"** %9, align 8
  %10 = getelementptr inbounds %"struct.std::_Vector_base<std::vector<bool, std::allocator<bool> >, std::allocator<std::vector<bool, std::allocator<bool> > > >::_Vector_impl", %"struct.std::_Vector_base<std::vector<bool, std::allocator<bool> >, std::allocator<std::vector<bool, std::allocator<bool> > > >::_Vector_impl"* %5, i32 0, i32 2
  store %"class.std::vector.8"* null, %"class.std::vector.8"** %10, align 8
  ret void
}

; Function Attrs: noinline uwtable
define linkonce_odr void @_ZNSt12_Vector_baseISt6vectorIbSaIbEESaIS2_EE17_M_create_storageEm(%"struct.std::_Vector_base.4"*, i64) #0 comdat align 2 {
  %3 = alloca %"struct.std::_Vector_base.4"*, align 8
  %4 = alloca i64, align 8
  store %"struct.std::_Vector_base.4"* %0, %"struct.std::_Vector_base.4"** %3, align 8
  store i64 %1, i64* %4, align 8
  %5 = load %"struct.std::_Vector_base.4"*, %"struct.std::_Vector_base.4"** %3, align 8
  %6 = load i64, i64* %4, align 8
  %7 = call %"class.std::vector.8"* @_ZNSt12_Vector_baseISt6vectorIbSaIbEESaIS2_EE11_M_allocateEm(%"struct.std::_Vector_base.4"* %5, i64 %6)
  %8 = getelementptr inbounds %"struct.std::_Vector_base.4", %"struct.std::_Vector_base.4"* %5, i32 0, i32 0
  %9 = getelementptr inbounds %"struct.std::_Vector_base<std::vector<bool, std::allocator<bool> >, std::allocator<std::vector<bool, std::allocator<bool> > > >::_Vector_impl", %"struct.std::_Vector_base<std::vector<bool, std::allocator<bool> >, std::allocator<std::vector<bool, std::allocator<bool> > > >::_Vector_impl"* %8, i32 0, i32 0
  store %"class.std::vector.8"* %7, %"class.std::vector.8"** %9, align 8
  %10 = getelementptr inbounds %"struct.std::_Vector_base.4", %"struct.std::_Vector_base.4"* %5, i32 0, i32 0
  %11 = getelementptr inbounds %"struct.std::_Vector_base<std::vector<bool, std::allocator<bool> >, std::allocator<std::vector<bool, std::allocator<bool> > > >::_Vector_impl", %"struct.std::_Vector_base<std::vector<bool, std::allocator<bool> >, std::allocator<std::vector<bool, std::allocator<bool> > > >::_Vector_impl"* %10, i32 0, i32 0
  %12 = load %"class.std::vector.8"*, %"class.std::vector.8"** %11, align 8
  %13 = getelementptr inbounds %"struct.std::_Vector_base.4", %"struct.std::_Vector_base.4"* %5, i32 0, i32 0
  %14 = getelementptr inbounds %"struct.std::_Vector_base<std::vector<bool, std::allocator<bool> >, std::allocator<std::vector<bool, std::allocator<bool> > > >::_Vector_impl", %"struct.std::_Vector_base<std::vector<bool, std::allocator<bool> >, std::allocator<std::vector<bool, std::allocator<bool> > > >::_Vector_impl"* %13, i32 0, i32 1
  store %"class.std::vector.8"* %12, %"class.std::vector.8"** %14, align 8
  %15 = getelementptr inbounds %"struct.std::_Vector_base.4", %"struct.std::_Vector_base.4"* %5, i32 0, i32 0
  %16 = getelementptr inbounds %"struct.std::_Vector_base<std::vector<bool, std::allocator<bool> >, std::allocator<std::vector<bool, std::allocator<bool> > > >::_Vector_impl", %"struct.std::_Vector_base<std::vector<bool, std::allocator<bool> >, std::allocator<std::vector<bool, std::allocator<bool> > > >::_Vector_impl"* %15, i32 0, i32 0
  %17 = load %"class.std::vector.8"*, %"class.std::vector.8"** %16, align 8
  %18 = load i64, i64* %4, align 8
  %19 = getelementptr inbounds %"class.std::vector.8", %"class.std::vector.8"* %17, i64 %18
  %20 = getelementptr inbounds %"struct.std::_Vector_base.4", %"struct.std::_Vector_base.4"* %5, i32 0, i32 0
  %21 = getelementptr inbounds %"struct.std::_Vector_base<std::vector<bool, std::allocator<bool> >, std::allocator<std::vector<bool, std::allocator<bool> > > >::_Vector_impl", %"struct.std::_Vector_base<std::vector<bool, std::allocator<bool> >, std::allocator<std::vector<bool, std::allocator<bool> > > >::_Vector_impl"* %20, i32 0, i32 2
  store %"class.std::vector.8"* %19, %"class.std::vector.8"** %21, align 8
  ret void
}

; Function Attrs: noinline nounwind uwtable
define linkonce_odr void @_ZNSt12_Vector_baseISt6vectorIbSaIbEESaIS2_EE12_Vector_implD2Ev(%"struct.std::_Vector_base<std::vector<bool, std::allocator<bool> >, std::allocator<std::vector<bool, std::allocator<bool> > > >::_Vector_impl"*) unnamed_addr #4 comdat align 2 {
  %2 = alloca %"struct.std::_Vector_base<std::vector<bool, std::allocator<bool> >, std::allocator<std::vector<bool, std::allocator<bool> > > >::_Vector_impl"*, align 8
  store %"struct.std::_Vector_base<std::vector<bool, std::allocator<bool> >, std::allocator<std::vector<bool, std::allocator<bool> > > >::_Vector_impl"* %0, %"struct.std::_Vector_base<std::vector<bool, std::allocator<bool> >, std::allocator<std::vector<bool, std::allocator<bool> > > >::_Vector_impl"** %2, align 8
  %3 = load %"struct.std::_Vector_base<std::vector<bool, std::allocator<bool> >, std::allocator<std::vector<bool, std::allocator<bool> > > >::_Vector_impl"*, %"struct.std::_Vector_base<std::vector<bool, std::allocator<bool> >, std::allocator<std::vector<bool, std::allocator<bool> > > >::_Vector_impl"** %2, align 8
  %4 = bitcast %"struct.std::_Vector_base<std::vector<bool, std::allocator<bool> >, std::allocator<std::vector<bool, std::allocator<bool> > > >::_Vector_impl"* %3 to %"class.std::allocator.5"*
  call void @_ZNSaISt6vectorIbSaIbEEED2Ev(%"class.std::allocator.5"* %4) #3
  ret void
}

; Function Attrs: noinline nounwind uwtable
define linkonce_odr void @_ZNSaISt6vectorIbSaIbEEEC2ERKS2_(%"class.std::allocator.5"*, %"class.std::allocator.5"* dereferenceable(1)) unnamed_addr #4 comdat align 2 {
  %3 = alloca %"class.std::allocator.5"*, align 8
  %4 = alloca %"class.std::allocator.5"*, align 8
  store %"class.std::allocator.5"* %0, %"class.std::allocator.5"** %3, align 8
  store %"class.std::allocator.5"* %1, %"class.std::allocator.5"** %4, align 8
  %5 = load %"class.std::allocator.5"*, %"class.std::allocator.5"** %3, align 8
  %6 = bitcast %"class.std::allocator.5"* %5 to %"class.__gnu_cxx::new_allocator.6"*
  %7 = load %"class.std::allocator.5"*, %"class.std::allocator.5"** %4, align 8
  %8 = bitcast %"class.std::allocator.5"* %7 to %"class.__gnu_cxx::new_allocator.6"*
  call void @_ZN9__gnu_cxx13new_allocatorISt6vectorIbSaIbEEEC2ERKS4_(%"class.__gnu_cxx::new_allocator.6"* %6, %"class.__gnu_cxx::new_allocator.6"* dereferenceable(1) %8) #3
  ret void
}

; Function Attrs: noinline nounwind uwtable
define linkonce_odr void @_ZN9__gnu_cxx13new_allocatorISt6vectorIbSaIbEEEC2ERKS4_(%"class.__gnu_cxx::new_allocator.6"*, %"class.__gnu_cxx::new_allocator.6"* dereferenceable(1)) unnamed_addr #4 comdat align 2 {
  %3 = alloca %"class.__gnu_cxx::new_allocator.6"*, align 8
  %4 = alloca %"class.__gnu_cxx::new_allocator.6"*, align 8
  store %"class.__gnu_cxx::new_allocator.6"* %0, %"class.__gnu_cxx::new_allocator.6"** %3, align 8
  store %"class.__gnu_cxx::new_allocator.6"* %1, %"class.__gnu_cxx::new_allocator.6"** %4, align 8
  %5 = load %"class.__gnu_cxx::new_allocator.6"*, %"class.__gnu_cxx::new_allocator.6"** %3, align 8
  ret void
}

; Function Attrs: noinline uwtable
define linkonce_odr %"class.std::vector.8"* @_ZNSt12_Vector_baseISt6vectorIbSaIbEESaIS2_EE11_M_allocateEm(%"struct.std::_Vector_base.4"*, i64) #0 comdat align 2 {
  %3 = alloca %"struct.std::_Vector_base.4"*, align 8
  %4 = alloca i64, align 8
  store %"struct.std::_Vector_base.4"* %0, %"struct.std::_Vector_base.4"** %3, align 8
  store i64 %1, i64* %4, align 8
  %5 = load %"struct.std::_Vector_base.4"*, %"struct.std::_Vector_base.4"** %3, align 8
  %6 = load i64, i64* %4, align 8
  %7 = icmp ne i64 %6, 0
  br i1 %7, label %8, label %13

; <label>:8:                                      ; preds = %2
  %9 = getelementptr inbounds %"struct.std::_Vector_base.4", %"struct.std::_Vector_base.4"* %5, i32 0, i32 0
  %10 = bitcast %"struct.std::_Vector_base<std::vector<bool, std::allocator<bool> >, std::allocator<std::vector<bool, std::allocator<bool> > > >::_Vector_impl"* %9 to %"class.std::allocator.5"*
  %11 = load i64, i64* %4, align 8
  %12 = call %"class.std::vector.8"* @_ZNSt16allocator_traitsISaISt6vectorIbSaIbEEEE8allocateERS3_m(%"class.std::allocator.5"* dereferenceable(1) %10, i64 %11)
  br label %14

; <label>:13:                                     ; preds = %2
  br label %14

; <label>:14:                                     ; preds = %13, %8
  %15 = phi %"class.std::vector.8"* [ %12, %8 ], [ null, %13 ]
  ret %"class.std::vector.8"* %15
}

; Function Attrs: noinline uwtable
define linkonce_odr %"class.std::vector.8"* @_ZNSt16allocator_traitsISaISt6vectorIbSaIbEEEE8allocateERS3_m(%"class.std::allocator.5"* dereferenceable(1), i64) #0 comdat align 2 {
  %3 = alloca %"class.std::allocator.5"*, align 8
  %4 = alloca i64, align 8
  store %"class.std::allocator.5"* %0, %"class.std::allocator.5"** %3, align 8
  store i64 %1, i64* %4, align 8
  %5 = load %"class.std::allocator.5"*, %"class.std::allocator.5"** %3, align 8
  %6 = bitcast %"class.std::allocator.5"* %5 to %"class.__gnu_cxx::new_allocator.6"*
  %7 = load i64, i64* %4, align 8
  %8 = call %"class.std::vector.8"* @_ZN9__gnu_cxx13new_allocatorISt6vectorIbSaIbEEE8allocateEmPKv(%"class.__gnu_cxx::new_allocator.6"* %6, i64 %7, i8* null)
  ret %"class.std::vector.8"* %8
}

; Function Attrs: noinline uwtable
define linkonce_odr %"class.std::vector.8"* @_ZN9__gnu_cxx13new_allocatorISt6vectorIbSaIbEEE8allocateEmPKv(%"class.__gnu_cxx::new_allocator.6"*, i64, i8*) #0 comdat align 2 {
  %4 = alloca %"class.__gnu_cxx::new_allocator.6"*, align 8
  %5 = alloca i64, align 8
  %6 = alloca i8*, align 8
  store %"class.__gnu_cxx::new_allocator.6"* %0, %"class.__gnu_cxx::new_allocator.6"** %4, align 8
  store i64 %1, i64* %5, align 8
  store i8* %2, i8** %6, align 8
  %7 = load %"class.__gnu_cxx::new_allocator.6"*, %"class.__gnu_cxx::new_allocator.6"** %4, align 8
  %8 = load i64, i64* %5, align 8
  %9 = call i64 @_ZNK9__gnu_cxx13new_allocatorISt6vectorIbSaIbEEE8max_sizeEv(%"class.__gnu_cxx::new_allocator.6"* %7) #3
  %10 = icmp ugt i64 %8, %9
  br i1 %10, label %11, label %12

; <label>:11:                                     ; preds = %3
  call void @_ZSt17__throw_bad_allocv() #13
  unreachable

; <label>:12:                                     ; preds = %3
  %13 = load i64, i64* %5, align 8
  %14 = mul i64 %13, 40
  %15 = call i8* @_Znwm(i64 %14)
  %16 = bitcast i8* %15 to %"class.std::vector.8"*
  ret %"class.std::vector.8"* %16
}

; Function Attrs: noinline nounwind uwtable
define linkonce_odr i64 @_ZNK9__gnu_cxx13new_allocatorISt6vectorIbSaIbEEE8max_sizeEv(%"class.__gnu_cxx::new_allocator.6"*) #4 comdat align 2 {
  %2 = alloca %"class.__gnu_cxx::new_allocator.6"*, align 8
  store %"class.__gnu_cxx::new_allocator.6"* %0, %"class.__gnu_cxx::new_allocator.6"** %2, align 8
  %3 = load %"class.__gnu_cxx::new_allocator.6"*, %"class.__gnu_cxx::new_allocator.6"** %2, align 8
  ret i64 461168601842738790
}

; Function Attrs: noinline uwtable
define linkonce_odr %"class.std::vector.8"* @_ZSt24__uninitialized_fill_n_aIPSt6vectorIbSaIbEEmS2_S2_ET_S4_T0_RKT1_RSaIT2_E(%"class.std::vector.8"*, i64, %"class.std::vector.8"* dereferenceable(40), %"class.std::allocator.5"* dereferenceable(1)) #0 comdat {
  %5 = alloca %"class.std::vector.8"*, align 8
  %6 = alloca i64, align 8
  %7 = alloca %"class.std::vector.8"*, align 8
  %8 = alloca %"class.std::allocator.5"*, align 8
  store %"class.std::vector.8"* %0, %"class.std::vector.8"** %5, align 8
  store i64 %1, i64* %6, align 8
  store %"class.std::vector.8"* %2, %"class.std::vector.8"** %7, align 8
  store %"class.std::allocator.5"* %3, %"class.std::allocator.5"** %8, align 8
  %9 = load %"class.std::vector.8"*, %"class.std::vector.8"** %5, align 8
  %10 = load i64, i64* %6, align 8
  %11 = load %"class.std::vector.8"*, %"class.std::vector.8"** %7, align 8
  %12 = call %"class.std::vector.8"* @_ZSt20uninitialized_fill_nIPSt6vectorIbSaIbEEmS2_ET_S4_T0_RKT1_(%"class.std::vector.8"* %9, i64 %10, %"class.std::vector.8"* dereferenceable(40) %11)
  ret %"class.std::vector.8"* %12
}

; Function Attrs: noinline nounwind uwtable
define linkonce_odr dereferenceable(1) %"class.std::allocator.5"* @_ZNSt12_Vector_baseISt6vectorIbSaIbEESaIS2_EE19_M_get_Tp_allocatorEv(%"struct.std::_Vector_base.4"*) #4 comdat align 2 {
  %2 = alloca %"struct.std::_Vector_base.4"*, align 8
  store %"struct.std::_Vector_base.4"* %0, %"struct.std::_Vector_base.4"** %2, align 8
  %3 = load %"struct.std::_Vector_base.4"*, %"struct.std::_Vector_base.4"** %2, align 8
  %4 = getelementptr inbounds %"struct.std::_Vector_base.4", %"struct.std::_Vector_base.4"* %3, i32 0, i32 0
  %5 = bitcast %"struct.std::_Vector_base<std::vector<bool, std::allocator<bool> >, std::allocator<std::vector<bool, std::allocator<bool> > > >::_Vector_impl"* %4 to %"class.std::allocator.5"*
  ret %"class.std::allocator.5"* %5
}

; Function Attrs: noinline uwtable
define linkonce_odr %"class.std::vector.8"* @_ZSt20uninitialized_fill_nIPSt6vectorIbSaIbEEmS2_ET_S4_T0_RKT1_(%"class.std::vector.8"*, i64, %"class.std::vector.8"* dereferenceable(40)) #0 comdat {
  %4 = alloca %"class.std::vector.8"*, align 8
  %5 = alloca i64, align 8
  %6 = alloca %"class.std::vector.8"*, align 8
  %7 = alloca i8, align 1
  store %"class.std::vector.8"* %0, %"class.std::vector.8"** %4, align 8
  store i64 %1, i64* %5, align 8
  store %"class.std::vector.8"* %2, %"class.std::vector.8"** %6, align 8
  store i8 1, i8* %7, align 1
  %8 = load %"class.std::vector.8"*, %"class.std::vector.8"** %4, align 8
  %9 = load i64, i64* %5, align 8
  %10 = load %"class.std::vector.8"*, %"class.std::vector.8"** %6, align 8
  %11 = call %"class.std::vector.8"* @_ZNSt22__uninitialized_fill_nILb0EE15__uninit_fill_nIPSt6vectorIbSaIbEEmS4_EET_S6_T0_RKT1_(%"class.std::vector.8"* %8, i64 %9, %"class.std::vector.8"* dereferenceable(40) %10)
  ret %"class.std::vector.8"* %11
}

; Function Attrs: noinline uwtable
define linkonce_odr %"class.std::vector.8"* @_ZNSt22__uninitialized_fill_nILb0EE15__uninit_fill_nIPSt6vectorIbSaIbEEmS4_EET_S6_T0_RKT1_(%"class.std::vector.8"*, i64, %"class.std::vector.8"* dereferenceable(40)) #0 comdat align 2 personality i8* bitcast (i32 (...)* @__gxx_personality_v0 to i8*) {
  %4 = alloca %"class.std::vector.8"*, align 8
  %5 = alloca i64, align 8
  %6 = alloca %"class.std::vector.8"*, align 8
  %7 = alloca %"class.std::vector.8"*, align 8
  %8 = alloca i8*
  %9 = alloca i32
  store %"class.std::vector.8"* %0, %"class.std::vector.8"** %4, align 8
  store i64 %1, i64* %5, align 8
  store %"class.std::vector.8"* %2, %"class.std::vector.8"** %6, align 8
  %10 = load %"class.std::vector.8"*, %"class.std::vector.8"** %4, align 8
  store %"class.std::vector.8"* %10, %"class.std::vector.8"** %7, align 8
  br label %11

; <label>:11:                                     ; preds = %19, %3
  %12 = load i64, i64* %5, align 8
  %13 = icmp ugt i64 %12, 0
  br i1 %13, label %14, label %36

; <label>:14:                                     ; preds = %11
  %15 = load %"class.std::vector.8"*, %"class.std::vector.8"** %7, align 8
  %16 = call %"class.std::vector.8"* @_ZSt11__addressofISt6vectorIbSaIbEEEPT_RS3_(%"class.std::vector.8"* dereferenceable(40) %15) #3
  %17 = load %"class.std::vector.8"*, %"class.std::vector.8"** %6, align 8
  invoke void @_ZSt10_ConstructISt6vectorIbSaIbEEJRKS2_EEvPT_DpOT0_(%"class.std::vector.8"* %16, %"class.std::vector.8"* dereferenceable(40) %17)
          to label %18 unwind label %26

; <label>:18:                                     ; preds = %14
  br label %19

; <label>:19:                                     ; preds = %18
  %20 = load i64, i64* %5, align 8
  %21 = sub i64 0, -1
  %22 = sub i64 %20, %21
  %23 = add i64 %20, -1
  store i64 %22, i64* %5, align 8
  %24 = load %"class.std::vector.8"*, %"class.std::vector.8"** %7, align 8
  %25 = getelementptr inbounds %"class.std::vector.8", %"class.std::vector.8"* %24, i32 1
  store %"class.std::vector.8"* %25, %"class.std::vector.8"** %7, align 8
  br label %11

; <label>:26:                                     ; preds = %14
  %27 = landingpad { i8*, i32 }
          catch i8* null
  %28 = extractvalue { i8*, i32 } %27, 0
  store i8* %28, i8** %8, align 8
  %29 = extractvalue { i8*, i32 } %27, 1
  store i32 %29, i32* %9, align 4
  br label %30

; <label>:30:                                     ; preds = %26
  %31 = load i8*, i8** %8, align 8
  %32 = call i8* @__cxa_begin_catch(i8* %31) #3
  %33 = load %"class.std::vector.8"*, %"class.std::vector.8"** %4, align 8
  %34 = load %"class.std::vector.8"*, %"class.std::vector.8"** %7, align 8
  invoke void @_ZSt8_DestroyIPSt6vectorIbSaIbEEEvT_S4_(%"class.std::vector.8"* %33, %"class.std::vector.8"* %34)
          to label %35 unwind label %38

; <label>:35:                                     ; preds = %30
  invoke void @__cxa_rethrow() #13
          to label %52 unwind label %38

; <label>:36:                                     ; preds = %11
  %37 = load %"class.std::vector.8"*, %"class.std::vector.8"** %7, align 8
  ret %"class.std::vector.8"* %37

; <label>:38:                                     ; preds = %35, %30
  %39 = landingpad { i8*, i32 }
          cleanup
  %40 = extractvalue { i8*, i32 } %39, 0
  store i8* %40, i8** %8, align 8
  %41 = extractvalue { i8*, i32 } %39, 1
  store i32 %41, i32* %9, align 4
  invoke void @__cxa_end_catch()
          to label %42 unwind label %49

; <label>:42:                                     ; preds = %38
  br label %44
                                                  ; No predecessors!
  call void @llvm.trap()
  unreachable

; <label>:44:                                     ; preds = %42
  %45 = load i8*, i8** %8, align 8
  %46 = load i32, i32* %9, align 4
  %47 = insertvalue { i8*, i32 } undef, i8* %45, 0
  %48 = insertvalue { i8*, i32 } %47, i32 %46, 1
  resume { i8*, i32 } %48

; <label>:49:                                     ; preds = %38
  %50 = landingpad { i8*, i32 }
          catch i8* null
  %51 = extractvalue { i8*, i32 } %50, 0
  call void @__clang_call_terminate(i8* %51) #11
  unreachable

; <label>:52:                                     ; preds = %35
  unreachable
}

; Function Attrs: noinline uwtable
define linkonce_odr void @_ZSt10_ConstructISt6vectorIbSaIbEEJRKS2_EEvPT_DpOT0_(%"class.std::vector.8"*, %"class.std::vector.8"* dereferenceable(40)) #0 comdat {
  %3 = alloca %"class.std::vector.8"*, align 8
  %4 = alloca %"class.std::vector.8"*, align 8
  store %"class.std::vector.8"* %0, %"class.std::vector.8"** %3, align 8
  store %"class.std::vector.8"* %1, %"class.std::vector.8"** %4, align 8
  %5 = load %"class.std::vector.8"*, %"class.std::vector.8"** %3, align 8
  %6 = bitcast %"class.std::vector.8"* %5 to i8*
  %7 = bitcast i8* %6 to %"class.std::vector.8"*
  %8 = load %"class.std::vector.8"*, %"class.std::vector.8"** %4, align 8
  %9 = call dereferenceable(40) %"class.std::vector.8"* @_ZSt7forwardIRKSt6vectorIbSaIbEEEOT_RNSt16remove_referenceIS5_E4typeE(%"class.std::vector.8"* dereferenceable(40) %8) #3
  call void @_ZNSt6vectorIbSaIbEEC2ERKS1_(%"class.std::vector.8"* %7, %"class.std::vector.8"* dereferenceable(40) %9)
  ret void
}

; Function Attrs: noinline nounwind uwtable
define linkonce_odr %"class.std::vector.8"* @_ZSt11__addressofISt6vectorIbSaIbEEEPT_RS3_(%"class.std::vector.8"* dereferenceable(40)) #4 comdat {
  %2 = alloca %"class.std::vector.8"*, align 8
  store %"class.std::vector.8"* %0, %"class.std::vector.8"** %2, align 8
  %3 = load %"class.std::vector.8"*, %"class.std::vector.8"** %2, align 8
  %4 = bitcast %"class.std::vector.8"* %3 to i8*
  %5 = bitcast i8* %4 to %"class.std::vector.8"*
  ret %"class.std::vector.8"* %5
}

; Function Attrs: noinline uwtable
define linkonce_odr void @_ZSt8_DestroyIPSt6vectorIbSaIbEEEvT_S4_(%"class.std::vector.8"*, %"class.std::vector.8"*) #0 comdat {
  %3 = alloca %"class.std::vector.8"*, align 8
  %4 = alloca %"class.std::vector.8"*, align 8
  store %"class.std::vector.8"* %0, %"class.std::vector.8"** %3, align 8
  store %"class.std::vector.8"* %1, %"class.std::vector.8"** %4, align 8
  %5 = load %"class.std::vector.8"*, %"class.std::vector.8"** %3, align 8
  %6 = load %"class.std::vector.8"*, %"class.std::vector.8"** %4, align 8
  call void @_ZNSt12_Destroy_auxILb0EE9__destroyIPSt6vectorIbSaIbEEEEvT_S6_(%"class.std::vector.8"* %5, %"class.std::vector.8"* %6)
  ret void
}

declare void @__cxa_rethrow()

declare void @__cxa_end_catch()

; Function Attrs: noreturn nounwind
declare void @llvm.trap() #11

; Function Attrs: noinline nounwind uwtable
define linkonce_odr dereferenceable(40) %"class.std::vector.8"* @_ZSt7forwardIRKSt6vectorIbSaIbEEEOT_RNSt16remove_referenceIS5_E4typeE(%"class.std::vector.8"* dereferenceable(40)) #4 comdat {
  %2 = alloca %"class.std::vector.8"*, align 8
  store %"class.std::vector.8"* %0, %"class.std::vector.8"** %2, align 8
  %3 = load %"class.std::vector.8"*, %"class.std::vector.8"** %2, align 8
  ret %"class.std::vector.8"* %3
}

; Function Attrs: noinline uwtable
define linkonce_odr void @_ZNSt6vectorIbSaIbEEC2ERKS1_(%"class.std::vector.8"*, %"class.std::vector.8"* dereferenceable(40)) unnamed_addr #0 comdat align 2 personality i8* bitcast (i32 (...)* @__gxx_personality_v0 to i8*) {
  %3 = alloca %"class.std::vector.8"*, align 8
  %4 = alloca %"class.std::vector.8"*, align 8
  %5 = alloca %"class.std::allocator.12", align 1
  %6 = alloca %"class.std::allocator.9", align 1
  %7 = alloca i8*
  %8 = alloca i32
  %9 = alloca %"struct.std::_Bit_const_iterator", align 8
  %10 = alloca %"struct.std::_Bit_const_iterator", align 8
  %11 = alloca %"struct.std::_Bit_iterator", align 8
  %12 = alloca %"struct.std::_Bit_iterator", align 8
  store %"class.std::vector.8"* %0, %"class.std::vector.8"** %3, align 8
  store %"class.std::vector.8"* %1, %"class.std::vector.8"** %4, align 8
  %13 = load %"class.std::vector.8"*, %"class.std::vector.8"** %3, align 8
  %14 = bitcast %"class.std::vector.8"* %13 to %"struct.std::_Bvector_base"*
  %15 = load %"class.std::vector.8"*, %"class.std::vector.8"** %4, align 8
  %16 = bitcast %"class.std::vector.8"* %15 to %"struct.std::_Bvector_base"*
  %17 = call dereferenceable(1) %"class.std::allocator.9"* @_ZNKSt13_Bvector_baseISaIbEE20_M_get_Bit_allocatorEv(%"struct.std::_Bvector_base"* %16) #3
  call void @_ZN9__gnu_cxx14__alloc_traitsISaImEE17_S_select_on_copyERKS1_(%"class.std::allocator.9"* sret %6, %"class.std::allocator.9"* dereferenceable(1) %17)
  call void @_ZNSaIbEC2ImEERKSaIT_E(%"class.std::allocator.12"* %5, %"class.std::allocator.9"* dereferenceable(1) %6) #3
  invoke void @_ZNSt13_Bvector_baseISaIbEEC2ERKS0_(%"struct.std::_Bvector_base"* %14, %"class.std::allocator.12"* dereferenceable(1) %5)
          to label %18 unwind label %58

; <label>:18:                                     ; preds = %2
  call void @_ZNSaIbED2Ev(%"class.std::allocator.12"* %5) #3
  call void @_ZNSaImED2Ev(%"class.std::allocator.9"* %6) #3
  %19 = load %"class.std::vector.8"*, %"class.std::vector.8"** %4, align 8
  %20 = call i64 @_ZNKSt6vectorIbSaIbEE4sizeEv(%"class.std::vector.8"* %19) #3
  invoke void @_ZNSt6vectorIbSaIbEE13_M_initializeEm(%"class.std::vector.8"* %13, i64 %20)
          to label %21 unwind label %62

; <label>:21:                                     ; preds = %18
  %22 = load %"class.std::vector.8"*, %"class.std::vector.8"** %4, align 8
  %23 = call { i64*, i32 } @_ZNKSt6vectorIbSaIbEE5beginEv(%"class.std::vector.8"* %22) #3
  %24 = bitcast %"struct.std::_Bit_const_iterator"* %9 to { i64*, i32 }*
  %25 = getelementptr inbounds { i64*, i32 }, { i64*, i32 }* %24, i32 0, i32 0
  %26 = extractvalue { i64*, i32 } %23, 0
  store i64* %26, i64** %25, align 8
  %27 = getelementptr inbounds { i64*, i32 }, { i64*, i32 }* %24, i32 0, i32 1
  %28 = extractvalue { i64*, i32 } %23, 1
  store i32 %28, i32* %27, align 8
  %29 = load %"class.std::vector.8"*, %"class.std::vector.8"** %4, align 8
  %30 = call { i64*, i32 } @_ZNKSt6vectorIbSaIbEE3endEv(%"class.std::vector.8"* %29) #3
  %31 = bitcast %"struct.std::_Bit_const_iterator"* %10 to { i64*, i32 }*
  %32 = getelementptr inbounds { i64*, i32 }, { i64*, i32 }* %31, i32 0, i32 0
  %33 = extractvalue { i64*, i32 } %30, 0
  store i64* %33, i64** %32, align 8
  %34 = getelementptr inbounds { i64*, i32 }, { i64*, i32 }* %31, i32 0, i32 1
  %35 = extractvalue { i64*, i32 } %30, 1
  store i32 %35, i32* %34, align 8
  %36 = bitcast %"class.std::vector.8"* %13 to %"struct.std::_Bvector_base"*
  %37 = getelementptr inbounds %"struct.std::_Bvector_base", %"struct.std::_Bvector_base"* %36, i32 0, i32 0
  %38 = getelementptr inbounds %"struct.std::_Bvector_base<std::allocator<bool> >::_Bvector_impl", %"struct.std::_Bvector_base<std::allocator<bool> >::_Bvector_impl"* %37, i32 0, i32 0
  %39 = bitcast %"struct.std::_Bit_iterator"* %11 to i8*
  %40 = bitcast %"struct.std::_Bit_iterator"* %38 to i8*
  call void @llvm.memcpy.p0i8.p0i8.i64(i8* %39, i8* %40, i64 16, i32 8, i1 false)
  %41 = bitcast %"struct.std::_Bit_const_iterator"* %9 to { i64*, i32 }*
  %42 = getelementptr inbounds { i64*, i32 }, { i64*, i32 }* %41, i32 0, i32 0
  %43 = load i64*, i64** %42, align 8
  %44 = getelementptr inbounds { i64*, i32 }, { i64*, i32 }* %41, i32 0, i32 1
  %45 = load i32, i32* %44, align 8
  %46 = bitcast %"struct.std::_Bit_const_iterator"* %10 to { i64*, i32 }*
  %47 = getelementptr inbounds { i64*, i32 }, { i64*, i32 }* %46, i32 0, i32 0
  %48 = load i64*, i64** %47, align 8
  %49 = getelementptr inbounds { i64*, i32 }, { i64*, i32 }* %46, i32 0, i32 1
  %50 = load i32, i32* %49, align 8
  %51 = invoke { i64*, i32 } @_ZNSt6vectorIbSaIbEE15_M_copy_alignedESt19_Bit_const_iteratorS2_St13_Bit_iterator(%"class.std::vector.8"* %13, i64* %43, i32 %45, i64* %48, i32 %50, %"struct.std::_Bit_iterator"* byval align 8 %11)
          to label %52 unwind label %62

; <label>:52:                                     ; preds = %21
  %53 = bitcast %"struct.std::_Bit_iterator"* %12 to { i64*, i32 }*
  %54 = getelementptr inbounds { i64*, i32 }, { i64*, i32 }* %53, i32 0, i32 0
  %55 = extractvalue { i64*, i32 } %51, 0
  store i64* %55, i64** %54, align 8
  %56 = getelementptr inbounds { i64*, i32 }, { i64*, i32 }* %53, i32 0, i32 1
  %57 = extractvalue { i64*, i32 } %51, 1
  store i32 %57, i32* %56, align 8
  ret void

; <label>:58:                                     ; preds = %2
  %59 = landingpad { i8*, i32 }
          cleanup
  %60 = extractvalue { i8*, i32 } %59, 0
  store i8* %60, i8** %7, align 8
  %61 = extractvalue { i8*, i32 } %59, 1
  store i32 %61, i32* %8, align 4
  call void @_ZNSaIbED2Ev(%"class.std::allocator.12"* %5) #3
  call void @_ZNSaImED2Ev(%"class.std::allocator.9"* %6) #3
  br label %67

; <label>:62:                                     ; preds = %21, %18
  %63 = landingpad { i8*, i32 }
          cleanup
  %64 = extractvalue { i8*, i32 } %63, 0
  store i8* %64, i8** %7, align 8
  %65 = extractvalue { i8*, i32 } %63, 1
  store i32 %65, i32* %8, align 4
  %66 = bitcast %"class.std::vector.8"* %13 to %"struct.std::_Bvector_base"*
  call void @_ZNSt13_Bvector_baseISaIbEED2Ev(%"struct.std::_Bvector_base"* %66) #3
  br label %67

; <label>:67:                                     ; preds = %62, %58
  %68 = load i8*, i8** %7, align 8
  %69 = load i32, i32* %8, align 4
  %70 = insertvalue { i8*, i32 } undef, i8* %68, 0
  %71 = insertvalue { i8*, i32 } %70, i32 %69, 1
  resume { i8*, i32 } %71
}

; Function Attrs: noinline uwtable
define linkonce_odr void @_ZN9__gnu_cxx14__alloc_traitsISaImEE17_S_select_on_copyERKS1_(%"class.std::allocator.9"* noalias sret, %"class.std::allocator.9"* dereferenceable(1)) #0 comdat align 2 {
  %3 = alloca %"class.std::allocator.9"*, align 8
  store %"class.std::allocator.9"* %1, %"class.std::allocator.9"** %3, align 8
  %4 = load %"class.std::allocator.9"*, %"class.std::allocator.9"** %3, align 8
  call void @_ZNSt16allocator_traitsISaImEE37select_on_container_copy_constructionERKS0_(%"class.std::allocator.9"* sret %0, %"class.std::allocator.9"* dereferenceable(1) %4)
  ret void
}

; Function Attrs: noinline nounwind uwtable
define linkonce_odr dereferenceable(1) %"class.std::allocator.9"* @_ZNKSt13_Bvector_baseISaIbEE20_M_get_Bit_allocatorEv(%"struct.std::_Bvector_base"*) #4 comdat align 2 {
  %2 = alloca %"struct.std::_Bvector_base"*, align 8
  store %"struct.std::_Bvector_base"* %0, %"struct.std::_Bvector_base"** %2, align 8
  %3 = load %"struct.std::_Bvector_base"*, %"struct.std::_Bvector_base"** %2, align 8
  %4 = getelementptr inbounds %"struct.std::_Bvector_base", %"struct.std::_Bvector_base"* %3, i32 0, i32 0
  %5 = bitcast %"struct.std::_Bvector_base<std::allocator<bool> >::_Bvector_impl"* %4 to %"class.std::allocator.9"*
  ret %"class.std::allocator.9"* %5
}

; Function Attrs: noinline nounwind uwtable
define linkonce_odr void @_ZNSaIbEC2ImEERKSaIT_E(%"class.std::allocator.12"*, %"class.std::allocator.9"* dereferenceable(1)) unnamed_addr #4 comdat align 2 {
  %3 = alloca %"class.std::allocator.12"*, align 8
  %4 = alloca %"class.std::allocator.9"*, align 8
  store %"class.std::allocator.12"* %0, %"class.std::allocator.12"** %3, align 8
  store %"class.std::allocator.9"* %1, %"class.std::allocator.9"** %4, align 8
  %5 = load %"class.std::allocator.12"*, %"class.std::allocator.12"** %3, align 8
  %6 = bitcast %"class.std::allocator.12"* %5 to %"class.__gnu_cxx::new_allocator.13"*
  call void @_ZN9__gnu_cxx13new_allocatorIbEC2Ev(%"class.__gnu_cxx::new_allocator.13"* %6) #3
  ret void
}

; Function Attrs: noinline nounwind uwtable
define linkonce_odr i64 @_ZNKSt6vectorIbSaIbEE4sizeEv(%"class.std::vector.8"*) #4 comdat align 2 personality i8* bitcast (i32 (...)* @__gxx_personality_v0 to i8*) {
  %2 = alloca %"class.std::vector.8"*, align 8
  %3 = alloca %"struct.std::_Bit_const_iterator", align 8
  %4 = alloca %"struct.std::_Bit_const_iterator", align 8
  store %"class.std::vector.8"* %0, %"class.std::vector.8"** %2, align 8
  %5 = load %"class.std::vector.8"*, %"class.std::vector.8"** %2, align 8
  %6 = call { i64*, i32 } @_ZNKSt6vectorIbSaIbEE3endEv(%"class.std::vector.8"* %5) #3
  %7 = bitcast %"struct.std::_Bit_const_iterator"* %3 to { i64*, i32 }*
  %8 = getelementptr inbounds { i64*, i32 }, { i64*, i32 }* %7, i32 0, i32 0
  %9 = extractvalue { i64*, i32 } %6, 0
  store i64* %9, i64** %8, align 8
  %10 = getelementptr inbounds { i64*, i32 }, { i64*, i32 }* %7, i32 0, i32 1
  %11 = extractvalue { i64*, i32 } %6, 1
  store i32 %11, i32* %10, align 8
  %12 = bitcast %"struct.std::_Bit_const_iterator"* %3 to %"struct.std::_Bit_iterator_base"*
  %13 = call { i64*, i32 } @_ZNKSt6vectorIbSaIbEE5beginEv(%"class.std::vector.8"* %5) #3
  %14 = bitcast %"struct.std::_Bit_const_iterator"* %4 to { i64*, i32 }*
  %15 = getelementptr inbounds { i64*, i32 }, { i64*, i32 }* %14, i32 0, i32 0
  %16 = extractvalue { i64*, i32 } %13, 0
  store i64* %16, i64** %15, align 8
  %17 = getelementptr inbounds { i64*, i32 }, { i64*, i32 }* %14, i32 0, i32 1
  %18 = extractvalue { i64*, i32 } %13, 1
  store i32 %18, i32* %17, align 8
  %19 = bitcast %"struct.std::_Bit_const_iterator"* %4 to %"struct.std::_Bit_iterator_base"*
  %20 = invoke i64 @_ZStmiRKSt18_Bit_iterator_baseS1_(%"struct.std::_Bit_iterator_base"* dereferenceable(16) %12, %"struct.std::_Bit_iterator_base"* dereferenceable(16) %19)
          to label %21 unwind label %22

; <label>:21:                                     ; preds = %1
  ret i64 %20

; <label>:22:                                     ; preds = %1
  %23 = landingpad { i8*, i32 }
          catch i8* null
  %24 = extractvalue { i8*, i32 } %23, 0
  call void @__clang_call_terminate(i8* %24) #11
  unreachable
}

; Function Attrs: noinline uwtable
define linkonce_odr { i64*, i32 } @_ZNSt6vectorIbSaIbEE15_M_copy_alignedESt19_Bit_const_iteratorS2_St13_Bit_iterator(%"class.std::vector.8"*, i64*, i32, i64*, i32, %"struct.std::_Bit_iterator"* byval align 8) #0 comdat align 2 {
  %7 = alloca %"struct.std::_Bit_iterator", align 8
  %8 = alloca %"struct.std::_Bit_const_iterator", align 8
  %9 = alloca %"struct.std::_Bit_const_iterator", align 8
  %10 = alloca %"class.std::vector.8"*, align 8
  %11 = alloca i64*, align 8
  %12 = alloca %"struct.std::_Bit_const_iterator", align 8
  %13 = alloca %"struct.std::_Bit_const_iterator", align 8
  %14 = alloca %"struct.std::_Bit_iterator", align 8
  %15 = bitcast %"struct.std::_Bit_const_iterator"* %8 to { i64*, i32 }*
  %16 = getelementptr inbounds { i64*, i32 }, { i64*, i32 }* %15, i32 0, i32 0
  store i64* %1, i64** %16, align 8
  %17 = getelementptr inbounds { i64*, i32 }, { i64*, i32 }* %15, i32 0, i32 1
  store i32 %2, i32* %17, align 8
  %18 = bitcast %"struct.std::_Bit_const_iterator"* %9 to { i64*, i32 }*
  %19 = getelementptr inbounds { i64*, i32 }, { i64*, i32 }* %18, i32 0, i32 0
  store i64* %3, i64** %19, align 8
  %20 = getelementptr inbounds { i64*, i32 }, { i64*, i32 }* %18, i32 0, i32 1
  store i32 %4, i32* %20, align 8
  store %"class.std::vector.8"* %0, %"class.std::vector.8"** %10, align 8
  %21 = load %"class.std::vector.8"*, %"class.std::vector.8"** %10, align 8
  %22 = bitcast %"struct.std::_Bit_const_iterator"* %8 to %"struct.std::_Bit_iterator_base"*
  %23 = getelementptr inbounds %"struct.std::_Bit_iterator_base", %"struct.std::_Bit_iterator_base"* %22, i32 0, i32 0
  %24 = load i64*, i64** %23, align 8
  %25 = bitcast %"struct.std::_Bit_const_iterator"* %9 to %"struct.std::_Bit_iterator_base"*
  %26 = getelementptr inbounds %"struct.std::_Bit_iterator_base", %"struct.std::_Bit_iterator_base"* %25, i32 0, i32 0
  %27 = load i64*, i64** %26, align 8
  %28 = bitcast %"struct.std::_Bit_iterator"* %5 to %"struct.std::_Bit_iterator_base"*
  %29 = getelementptr inbounds %"struct.std::_Bit_iterator_base", %"struct.std::_Bit_iterator_base"* %28, i32 0, i32 0
  %30 = load i64*, i64** %29, align 8
  %31 = call i64* @_ZSt4copyIPmS0_ET0_T_S2_S1_(i64* %24, i64* %27, i64* %30)
  store i64* %31, i64** %11, align 8
  %32 = bitcast %"struct.std::_Bit_const_iterator"* %9 to %"struct.std::_Bit_iterator_base"*
  %33 = getelementptr inbounds %"struct.std::_Bit_iterator_base", %"struct.std::_Bit_iterator_base"* %32, i32 0, i32 0
  %34 = load i64*, i64** %33, align 8
  call void @_ZNSt19_Bit_const_iteratorC2EPmj(%"struct.std::_Bit_const_iterator"* %12, i64* %34, i32 0)
  %35 = bitcast %"struct.std::_Bit_const_iterator"* %13 to i8*
  %36 = bitcast %"struct.std::_Bit_const_iterator"* %9 to i8*
  call void @llvm.memcpy.p0i8.p0i8.i64(i8* %35, i8* %36, i64 16, i32 8, i1 false)
  %37 = load i64*, i64** %11, align 8
  call void @_ZNSt13_Bit_iteratorC2EPmj(%"struct.std::_Bit_iterator"* %14, i64* %37, i32 0)
  %38 = bitcast %"struct.std::_Bit_const_iterator"* %12 to { i64*, i32 }*
  %39 = getelementptr inbounds { i64*, i32 }, { i64*, i32 }* %38, i32 0, i32 0
  %40 = load i64*, i64** %39, align 8
  %41 = getelementptr inbounds { i64*, i32 }, { i64*, i32 }* %38, i32 0, i32 1
  %42 = load i32, i32* %41, align 8
  %43 = bitcast %"struct.std::_Bit_const_iterator"* %13 to { i64*, i32 }*
  %44 = getelementptr inbounds { i64*, i32 }, { i64*, i32 }* %43, i32 0, i32 0
  %45 = load i64*, i64** %44, align 8
  %46 = getelementptr inbounds { i64*, i32 }, { i64*, i32 }* %43, i32 0, i32 1
  %47 = load i32, i32* %46, align 8
  %48 = bitcast %"struct.std::_Bit_iterator"* %14 to { i64*, i32 }*
  %49 = getelementptr inbounds { i64*, i32 }, { i64*, i32 }* %48, i32 0, i32 0
  %50 = load i64*, i64** %49, align 8
  %51 = getelementptr inbounds { i64*, i32 }, { i64*, i32 }* %48, i32 0, i32 1
  %52 = load i32, i32* %51, align 8
  %53 = call { i64*, i32 } @_ZSt4copyISt19_Bit_const_iteratorSt13_Bit_iteratorET0_T_S3_S2_(i64* %40, i32 %42, i64* %45, i32 %47, i64* %50, i32 %52)
  %54 = bitcast %"struct.std::_Bit_iterator"* %7 to { i64*, i32 }*
  %55 = getelementptr inbounds { i64*, i32 }, { i64*, i32 }* %54, i32 0, i32 0
  %56 = extractvalue { i64*, i32 } %53, 0
  store i64* %56, i64** %55, align 8
  %57 = getelementptr inbounds { i64*, i32 }, { i64*, i32 }* %54, i32 0, i32 1
  %58 = extractvalue { i64*, i32 } %53, 1
  store i32 %58, i32* %57, align 8
  %59 = bitcast %"struct.std::_Bit_iterator"* %7 to { i64*, i32 }*
  %60 = load { i64*, i32 }, { i64*, i32 }* %59, align 8
  ret { i64*, i32 } %60
}

; Function Attrs: noinline nounwind uwtable
define linkonce_odr { i64*, i32 } @_ZNKSt6vectorIbSaIbEE5beginEv(%"class.std::vector.8"*) #4 comdat align 2 personality i8* bitcast (i32 (...)* @__gxx_personality_v0 to i8*) {
  %2 = alloca %"struct.std::_Bit_const_iterator", align 8
  %3 = alloca %"class.std::vector.8"*, align 8
  store %"class.std::vector.8"* %0, %"class.std::vector.8"** %3, align 8
  %4 = load %"class.std::vector.8"*, %"class.std::vector.8"** %3, align 8
  %5 = bitcast %"class.std::vector.8"* %4 to %"struct.std::_Bvector_base"*
  %6 = getelementptr inbounds %"struct.std::_Bvector_base", %"struct.std::_Bvector_base"* %5, i32 0, i32 0
  %7 = getelementptr inbounds %"struct.std::_Bvector_base<std::allocator<bool> >::_Bvector_impl", %"struct.std::_Bvector_base<std::allocator<bool> >::_Bvector_impl"* %6, i32 0, i32 0
  invoke void @_ZNSt19_Bit_const_iteratorC2ERKSt13_Bit_iterator(%"struct.std::_Bit_const_iterator"* %2, %"struct.std::_Bit_iterator"* dereferenceable(16) %7)
          to label %8 unwind label %11

; <label>:8:                                      ; preds = %1
  %9 = bitcast %"struct.std::_Bit_const_iterator"* %2 to { i64*, i32 }*
  %10 = load { i64*, i32 }, { i64*, i32 }* %9, align 8
  ret { i64*, i32 } %10

; <label>:11:                                     ; preds = %1
  %12 = landingpad { i8*, i32 }
          catch i8* null
  %13 = extractvalue { i8*, i32 } %12, 0
  call void @__clang_call_terminate(i8* %13) #11
  unreachable
}

; Function Attrs: noinline nounwind uwtable
define linkonce_odr { i64*, i32 } @_ZNKSt6vectorIbSaIbEE3endEv(%"class.std::vector.8"*) #4 comdat align 2 personality i8* bitcast (i32 (...)* @__gxx_personality_v0 to i8*) {
  %2 = alloca %"struct.std::_Bit_const_iterator", align 8
  %3 = alloca %"class.std::vector.8"*, align 8
  store %"class.std::vector.8"* %0, %"class.std::vector.8"** %3, align 8
  %4 = load %"class.std::vector.8"*, %"class.std::vector.8"** %3, align 8
  %5 = bitcast %"class.std::vector.8"* %4 to %"struct.std::_Bvector_base"*
  %6 = getelementptr inbounds %"struct.std::_Bvector_base", %"struct.std::_Bvector_base"* %5, i32 0, i32 0
  %7 = getelementptr inbounds %"struct.std::_Bvector_base<std::allocator<bool> >::_Bvector_impl", %"struct.std::_Bvector_base<std::allocator<bool> >::_Bvector_impl"* %6, i32 0, i32 1
  invoke void @_ZNSt19_Bit_const_iteratorC2ERKSt13_Bit_iterator(%"struct.std::_Bit_const_iterator"* %2, %"struct.std::_Bit_iterator"* dereferenceable(16) %7)
          to label %8 unwind label %11

; <label>:8:                                      ; preds = %1
  %9 = bitcast %"struct.std::_Bit_const_iterator"* %2 to { i64*, i32 }*
  %10 = load { i64*, i32 }, { i64*, i32 }* %9, align 8
  ret { i64*, i32 } %10

; <label>:11:                                     ; preds = %1
  %12 = landingpad { i8*, i32 }
          catch i8* null
  %13 = extractvalue { i8*, i32 } %12, 0
  call void @__clang_call_terminate(i8* %13) #11
  unreachable
}

; Function Attrs: noinline nounwind uwtable
define linkonce_odr void @_ZNSt16allocator_traitsISaImEE37select_on_container_copy_constructionERKS0_(%"class.std::allocator.9"* noalias sret, %"class.std::allocator.9"* dereferenceable(1)) #4 comdat align 2 {
  %3 = alloca %"class.std::allocator.9"*, align 8
  store %"class.std::allocator.9"* %1, %"class.std::allocator.9"** %3, align 8
  %4 = load %"class.std::allocator.9"*, %"class.std::allocator.9"** %3, align 8
  call void @_ZNSaImEC2ERKS_(%"class.std::allocator.9"* %0, %"class.std::allocator.9"* dereferenceable(1) %4) #3
  ret void
}

; Function Attrs: noinline nounwind uwtable
define linkonce_odr void @_ZNSaImEC2ERKS_(%"class.std::allocator.9"*, %"class.std::allocator.9"* dereferenceable(1)) unnamed_addr #4 comdat align 2 {
  %3 = alloca %"class.std::allocator.9"*, align 8
  %4 = alloca %"class.std::allocator.9"*, align 8
  store %"class.std::allocator.9"* %0, %"class.std::allocator.9"** %3, align 8
  store %"class.std::allocator.9"* %1, %"class.std::allocator.9"** %4, align 8
  %5 = load %"class.std::allocator.9"*, %"class.std::allocator.9"** %3, align 8
  %6 = bitcast %"class.std::allocator.9"* %5 to %"class.__gnu_cxx::new_allocator.10"*
  %7 = load %"class.std::allocator.9"*, %"class.std::allocator.9"** %4, align 8
  %8 = bitcast %"class.std::allocator.9"* %7 to %"class.__gnu_cxx::new_allocator.10"*
  call void @_ZN9__gnu_cxx13new_allocatorImEC2ERKS1_(%"class.__gnu_cxx::new_allocator.10"* %6, %"class.__gnu_cxx::new_allocator.10"* dereferenceable(1) %8) #3
  ret void
}

; Function Attrs: noinline nounwind uwtable
define linkonce_odr i64 @_ZStmiRKSt18_Bit_iterator_baseS1_(%"struct.std::_Bit_iterator_base"* dereferenceable(16), %"struct.std::_Bit_iterator_base"* dereferenceable(16)) #4 comdat {
  %3 = alloca %"struct.std::_Bit_iterator_base"*, align 8
  %4 = alloca %"struct.std::_Bit_iterator_base"*, align 8
  store %"struct.std::_Bit_iterator_base"* %0, %"struct.std::_Bit_iterator_base"** %3, align 8
  store %"struct.std::_Bit_iterator_base"* %1, %"struct.std::_Bit_iterator_base"** %4, align 8
  %5 = load %"struct.std::_Bit_iterator_base"*, %"struct.std::_Bit_iterator_base"** %3, align 8
  %6 = getelementptr inbounds %"struct.std::_Bit_iterator_base", %"struct.std::_Bit_iterator_base"* %5, i32 0, i32 0
  %7 = load i64*, i64** %6, align 8
  %8 = load %"struct.std::_Bit_iterator_base"*, %"struct.std::_Bit_iterator_base"** %4, align 8
  %9 = getelementptr inbounds %"struct.std::_Bit_iterator_base", %"struct.std::_Bit_iterator_base"* %8, i32 0, i32 0
  %10 = load i64*, i64** %9, align 8
  %11 = ptrtoint i64* %7 to i64
  %12 = ptrtoint i64* %10 to i64
  %13 = add i64 %11, 4461437077129157007
  %14 = sub i64 %13, %12
  %15 = sub i64 %14, 4461437077129157007
  %16 = sub i64 %11, %12
  %17 = sdiv exact i64 %15, 8
  %18 = mul nsw i64 64, %17
  %19 = load %"struct.std::_Bit_iterator_base"*, %"struct.std::_Bit_iterator_base"** %3, align 8
  %20 = getelementptr inbounds %"struct.std::_Bit_iterator_base", %"struct.std::_Bit_iterator_base"* %19, i32 0, i32 1
  %21 = load i32, i32* %20, align 8
  %22 = zext i32 %21 to i64
  %23 = sub i64 0, %22
  %24 = sub i64 %18, %23
  %25 = add nsw i64 %18, %22
  %26 = load %"struct.std::_Bit_iterator_base"*, %"struct.std::_Bit_iterator_base"** %4, align 8
  %27 = getelementptr inbounds %"struct.std::_Bit_iterator_base", %"struct.std::_Bit_iterator_base"* %26, i32 0, i32 1
  %28 = load i32, i32* %27, align 8
  %29 = zext i32 %28 to i64
  %30 = sub i64 0, %29
  %31 = add i64 %24, %30
  %32 = sub nsw i64 %24, %29
  ret i64 %31
}

; Function Attrs: noinline uwtable
define linkonce_odr i64* @_ZSt4copyIPmS0_ET0_T_S2_S1_(i64*, i64*, i64*) #0 comdat {
  %4 = alloca i64*, align 8
  %5 = alloca i64*, align 8
  %6 = alloca i64*, align 8
  store i64* %0, i64** %4, align 8
  store i64* %1, i64** %5, align 8
  store i64* %2, i64** %6, align 8
  %7 = load i64*, i64** %4, align 8
  %8 = call i64* @_ZSt12__miter_baseIPmENSt11_Miter_baseIT_E13iterator_typeES2_(i64* %7)
  %9 = load i64*, i64** %5, align 8
  %10 = call i64* @_ZSt12__miter_baseIPmENSt11_Miter_baseIT_E13iterator_typeES2_(i64* %9)
  %11 = load i64*, i64** %6, align 8
  %12 = call i64* @_ZSt14__copy_move_a2ILb0EPmS0_ET1_T0_S2_S1_(i64* %8, i64* %10, i64* %11)
  ret i64* %12
}

; Function Attrs: noinline uwtable
define linkonce_odr { i64*, i32 } @_ZSt4copyISt19_Bit_const_iteratorSt13_Bit_iteratorET0_T_S3_S2_(i64*, i32, i64*, i32, i64*, i32) #0 comdat {
  %7 = alloca %"struct.std::_Bit_iterator", align 8
  %8 = alloca %"struct.std::_Bit_const_iterator", align 8
  %9 = alloca %"struct.std::_Bit_const_iterator", align 8
  %10 = alloca %"struct.std::_Bit_iterator", align 8
  %11 = alloca %"struct.std::_Bit_const_iterator", align 8
  %12 = alloca %"struct.std::_Bit_const_iterator", align 8
  %13 = alloca %"struct.std::_Bit_const_iterator", align 8
  %14 = alloca %"struct.std::_Bit_const_iterator", align 8
  %15 = alloca %"struct.std::_Bit_iterator", align 8
  %16 = bitcast %"struct.std::_Bit_const_iterator"* %8 to { i64*, i32 }*
  %17 = getelementptr inbounds { i64*, i32 }, { i64*, i32 }* %16, i32 0, i32 0
  store i64* %0, i64** %17, align 8
  %18 = getelementptr inbounds { i64*, i32 }, { i64*, i32 }* %16, i32 0, i32 1
  store i32 %1, i32* %18, align 8
  %19 = bitcast %"struct.std::_Bit_const_iterator"* %9 to { i64*, i32 }*
  %20 = getelementptr inbounds { i64*, i32 }, { i64*, i32 }* %19, i32 0, i32 0
  store i64* %2, i64** %20, align 8
  %21 = getelementptr inbounds { i64*, i32 }, { i64*, i32 }* %19, i32 0, i32 1
  store i32 %3, i32* %21, align 8
  %22 = bitcast %"struct.std::_Bit_iterator"* %10 to { i64*, i32 }*
  %23 = getelementptr inbounds { i64*, i32 }, { i64*, i32 }* %22, i32 0, i32 0
  store i64* %4, i64** %23, align 8
  %24 = getelementptr inbounds { i64*, i32 }, { i64*, i32 }* %22, i32 0, i32 1
  store i32 %5, i32* %24, align 8
  %25 = bitcast %"struct.std::_Bit_const_iterator"* %12 to i8*
  %26 = bitcast %"struct.std::_Bit_const_iterator"* %8 to i8*
  call void @llvm.memcpy.p0i8.p0i8.i64(i8* %25, i8* %26, i64 16, i32 8, i1 false)
  %27 = bitcast %"struct.std::_Bit_const_iterator"* %12 to { i64*, i32 }*
  %28 = getelementptr inbounds { i64*, i32 }, { i64*, i32 }* %27, i32 0, i32 0
  %29 = load i64*, i64** %28, align 8
  %30 = getelementptr inbounds { i64*, i32 }, { i64*, i32 }* %27, i32 0, i32 1
  %31 = load i32, i32* %30, align 8
  %32 = call { i64*, i32 } @_ZSt12__miter_baseISt19_Bit_const_iteratorENSt11_Miter_baseIT_E13iterator_typeES2_(i64* %29, i32 %31)
  %33 = bitcast %"struct.std::_Bit_const_iterator"* %11 to { i64*, i32 }*
  %34 = getelementptr inbounds { i64*, i32 }, { i64*, i32 }* %33, i32 0, i32 0
  %35 = extractvalue { i64*, i32 } %32, 0
  store i64* %35, i64** %34, align 8
  %36 = getelementptr inbounds { i64*, i32 }, { i64*, i32 }* %33, i32 0, i32 1
  %37 = extractvalue { i64*, i32 } %32, 1
  store i32 %37, i32* %36, align 8
  %38 = bitcast %"struct.std::_Bit_const_iterator"* %14 to i8*
  %39 = bitcast %"struct.std::_Bit_const_iterator"* %9 to i8*
  call void @llvm.memcpy.p0i8.p0i8.i64(i8* %38, i8* %39, i64 16, i32 8, i1 false)
  %40 = bitcast %"struct.std::_Bit_const_iterator"* %14 to { i64*, i32 }*
  %41 = getelementptr inbounds { i64*, i32 }, { i64*, i32 }* %40, i32 0, i32 0
  %42 = load i64*, i64** %41, align 8
  %43 = getelementptr inbounds { i64*, i32 }, { i64*, i32 }* %40, i32 0, i32 1
  %44 = load i32, i32* %43, align 8
  %45 = call { i64*, i32 } @_ZSt12__miter_baseISt19_Bit_const_iteratorENSt11_Miter_baseIT_E13iterator_typeES2_(i64* %42, i32 %44)
  %46 = bitcast %"struct.std::_Bit_const_iterator"* %13 to { i64*, i32 }*
  %47 = getelementptr inbounds { i64*, i32 }, { i64*, i32 }* %46, i32 0, i32 0
  %48 = extractvalue { i64*, i32 } %45, 0
  store i64* %48, i64** %47, align 8
  %49 = getelementptr inbounds { i64*, i32 }, { i64*, i32 }* %46, i32 0, i32 1
  %50 = extractvalue { i64*, i32 } %45, 1
  store i32 %50, i32* %49, align 8
  %51 = bitcast %"struct.std::_Bit_iterator"* %15 to i8*
  %52 = bitcast %"struct.std::_Bit_iterator"* %10 to i8*
  call void @llvm.memcpy.p0i8.p0i8.i64(i8* %51, i8* %52, i64 16, i32 8, i1 false)
  %53 = bitcast %"struct.std::_Bit_const_iterator"* %11 to { i64*, i32 }*
  %54 = getelementptr inbounds { i64*, i32 }, { i64*, i32 }* %53, i32 0, i32 0
  %55 = load i64*, i64** %54, align 8
  %56 = getelementptr inbounds { i64*, i32 }, { i64*, i32 }* %53, i32 0, i32 1
  %57 = load i32, i32* %56, align 8
  %58 = bitcast %"struct.std::_Bit_const_iterator"* %13 to { i64*, i32 }*
  %59 = getelementptr inbounds { i64*, i32 }, { i64*, i32 }* %58, i32 0, i32 0
  %60 = load i64*, i64** %59, align 8
  %61 = getelementptr inbounds { i64*, i32 }, { i64*, i32 }* %58, i32 0, i32 1
  %62 = load i32, i32* %61, align 8
  %63 = bitcast %"struct.std::_Bit_iterator"* %15 to { i64*, i32 }*
  %64 = getelementptr inbounds { i64*, i32 }, { i64*, i32 }* %63, i32 0, i32 0
  %65 = load i64*, i64** %64, align 8
  %66 = getelementptr inbounds { i64*, i32 }, { i64*, i32 }* %63, i32 0, i32 1
  %67 = load i32, i32* %66, align 8
  %68 = call { i64*, i32 } @_ZSt14__copy_move_a2ILb0ESt19_Bit_const_iteratorSt13_Bit_iteratorET1_T0_S3_S2_(i64* %55, i32 %57, i64* %60, i32 %62, i64* %65, i32 %67)
  %69 = bitcast %"struct.std::_Bit_iterator"* %7 to { i64*, i32 }*
  %70 = getelementptr inbounds { i64*, i32 }, { i64*, i32 }* %69, i32 0, i32 0
  %71 = extractvalue { i64*, i32 } %68, 0
  store i64* %71, i64** %70, align 8
  %72 = getelementptr inbounds { i64*, i32 }, { i64*, i32 }* %69, i32 0, i32 1
  %73 = extractvalue { i64*, i32 } %68, 1
  store i32 %73, i32* %72, align 8
  %74 = bitcast %"struct.std::_Bit_iterator"* %7 to { i64*, i32 }*
  %75 = load { i64*, i32 }, { i64*, i32 }* %74, align 8
  ret { i64*, i32 } %75
}

; Function Attrs: noinline nounwind uwtable
define linkonce_odr void @_ZNSt19_Bit_const_iteratorC2EPmj(%"struct.std::_Bit_const_iterator"*, i64*, i32) unnamed_addr #4 comdat align 2 {
  %4 = alloca %"struct.std::_Bit_const_iterator"*, align 8
  %5 = alloca i64*, align 8
  %6 = alloca i32, align 4
  store %"struct.std::_Bit_const_iterator"* %0, %"struct.std::_Bit_const_iterator"** %4, align 8
  store i64* %1, i64** %5, align 8
  store i32 %2, i32* %6, align 4
  %7 = load %"struct.std::_Bit_const_iterator"*, %"struct.std::_Bit_const_iterator"** %4, align 8
  %8 = bitcast %"struct.std::_Bit_const_iterator"* %7 to %"struct.std::_Bit_iterator_base"*
  %9 = load i64*, i64** %5, align 8
  %10 = load i32, i32* %6, align 4
  call void @_ZNSt18_Bit_iterator_baseC2EPmj(%"struct.std::_Bit_iterator_base"* %8, i64* %9, i32 %10)
  ret void
}

; Function Attrs: noinline uwtable
define linkonce_odr i64* @_ZSt14__copy_move_a2ILb0EPmS0_ET1_T0_S2_S1_(i64*, i64*, i64*) #0 comdat {
  %4 = alloca i64*, align 8
  %5 = alloca i64*, align 8
  %6 = alloca i64*, align 8
  store i64* %0, i64** %4, align 8
  store i64* %1, i64** %5, align 8
  store i64* %2, i64** %6, align 8
  %7 = load i64*, i64** %4, align 8
  %8 = call i64* @_ZSt12__niter_baseIPmENSt11_Niter_baseIT_E13iterator_typeES2_(i64* %7)
  %9 = load i64*, i64** %5, align 8
  %10 = call i64* @_ZSt12__niter_baseIPmENSt11_Niter_baseIT_E13iterator_typeES2_(i64* %9)
  %11 = load i64*, i64** %6, align 8
  %12 = call i64* @_ZSt12__niter_baseIPmENSt11_Niter_baseIT_E13iterator_typeES2_(i64* %11)
  %13 = call i64* @_ZSt13__copy_move_aILb0EPmS0_ET1_T0_S2_S1_(i64* %8, i64* %10, i64* %12)
  ret i64* %13
}

; Function Attrs: noinline nounwind uwtable
define linkonce_odr i64* @_ZSt12__miter_baseIPmENSt11_Miter_baseIT_E13iterator_typeES2_(i64*) #4 comdat {
  %2 = alloca i64*, align 8
  store i64* %0, i64** %2, align 8
  %3 = load i64*, i64** %2, align 8
  %4 = call i64* @_ZNSt10_Iter_baseIPmLb0EE7_S_baseES0_(i64* %3)
  ret i64* %4
}

; Function Attrs: noinline uwtable
define linkonce_odr i64* @_ZSt13__copy_move_aILb0EPmS0_ET1_T0_S2_S1_(i64*, i64*, i64*) #0 comdat {
  %4 = alloca i64*, align 8
  %5 = alloca i64*, align 8
  %6 = alloca i64*, align 8
  %7 = alloca i8, align 1
  store i64* %0, i64** %4, align 8
  store i64* %1, i64** %5, align 8
  store i64* %2, i64** %6, align 8
  store i8 1, i8* %7, align 1
  %8 = load i64*, i64** %4, align 8
  %9 = load i64*, i64** %5, align 8
  %10 = load i64*, i64** %6, align 8
  %11 = call i64* @_ZNSt11__copy_moveILb0ELb1ESt26random_access_iterator_tagE8__copy_mImEEPT_PKS3_S6_S4_(i64* %8, i64* %9, i64* %10)
  ret i64* %11
}

; Function Attrs: noinline nounwind uwtable
define linkonce_odr i64* @_ZNSt11__copy_moveILb0ELb1ESt26random_access_iterator_tagE8__copy_mImEEPT_PKS3_S6_S4_(i64*, i64*, i64*) #4 comdat align 2 {
  %4 = alloca i64*, align 8
  %5 = alloca i64*, align 8
  %6 = alloca i64*, align 8
  %7 = alloca i64, align 8
  store i64* %0, i64** %4, align 8
  store i64* %1, i64** %5, align 8
  store i64* %2, i64** %6, align 8
  %8 = load i64*, i64** %5, align 8
  %9 = load i64*, i64** %4, align 8
  %10 = ptrtoint i64* %8 to i64
  %11 = ptrtoint i64* %9 to i64
  %12 = sub i64 %10, 2487127422895220736
  %13 = sub i64 %12, %11
  %14 = add i64 %13, 2487127422895220736
  %15 = sub i64 %10, %11
  %16 = sdiv exact i64 %14, 8
  store i64 %16, i64* %7, align 8
  %17 = load i64, i64* %7, align 8
  %18 = icmp ne i64 %17, 0
  br i1 %18, label %19, label %26

; <label>:19:                                     ; preds = %3
  %20 = load i64*, i64** %6, align 8
  %21 = bitcast i64* %20 to i8*
  %22 = load i64*, i64** %4, align 8
  %23 = bitcast i64* %22 to i8*
  %24 = load i64, i64* %7, align 8
  %25 = mul i64 8, %24
  call void @llvm.memmove.p0i8.p0i8.i64(i8* %21, i8* %23, i64 %25, i32 8, i1 false)
  br label %26

; <label>:26:                                     ; preds = %19, %3
  %27 = load i64*, i64** %6, align 8
  %28 = load i64, i64* %7, align 8
  %29 = getelementptr inbounds i64, i64* %27, i64 %28
  ret i64* %29
}

; Function Attrs: argmemonly nounwind
declare void @llvm.memmove.p0i8.p0i8.i64(i8* nocapture, i8* nocapture readonly, i64, i32, i1) #8

; Function Attrs: noinline uwtable
define linkonce_odr { i64*, i32 } @_ZSt14__copy_move_a2ILb0ESt19_Bit_const_iteratorSt13_Bit_iteratorET1_T0_S3_S2_(i64*, i32, i64*, i32, i64*, i32) #0 comdat {
  %7 = alloca %"struct.std::_Bit_iterator", align 8
  %8 = alloca %"struct.std::_Bit_const_iterator", align 8
  %9 = alloca %"struct.std::_Bit_const_iterator", align 8
  %10 = alloca %"struct.std::_Bit_iterator", align 8
  %11 = alloca %"struct.std::_Bit_const_iterator", align 8
  %12 = alloca %"struct.std::_Bit_const_iterator", align 8
  %13 = alloca %"struct.std::_Bit_const_iterator", align 8
  %14 = alloca %"struct.std::_Bit_const_iterator", align 8
  %15 = alloca %"struct.std::_Bit_iterator", align 8
  %16 = alloca %"struct.std::_Bit_iterator", align 8
  %17 = bitcast %"struct.std::_Bit_const_iterator"* %8 to { i64*, i32 }*
  %18 = getelementptr inbounds { i64*, i32 }, { i64*, i32 }* %17, i32 0, i32 0
  store i64* %0, i64** %18, align 8
  %19 = getelementptr inbounds { i64*, i32 }, { i64*, i32 }* %17, i32 0, i32 1
  store i32 %1, i32* %19, align 8
  %20 = bitcast %"struct.std::_Bit_const_iterator"* %9 to { i64*, i32 }*
  %21 = getelementptr inbounds { i64*, i32 }, { i64*, i32 }* %20, i32 0, i32 0
  store i64* %2, i64** %21, align 8
  %22 = getelementptr inbounds { i64*, i32 }, { i64*, i32 }* %20, i32 0, i32 1
  store i32 %3, i32* %22, align 8
  %23 = bitcast %"struct.std::_Bit_iterator"* %10 to { i64*, i32 }*
  %24 = getelementptr inbounds { i64*, i32 }, { i64*, i32 }* %23, i32 0, i32 0
  store i64* %4, i64** %24, align 8
  %25 = getelementptr inbounds { i64*, i32 }, { i64*, i32 }* %23, i32 0, i32 1
  store i32 %5, i32* %25, align 8
  %26 = bitcast %"struct.std::_Bit_const_iterator"* %12 to i8*
  %27 = bitcast %"struct.std::_Bit_const_iterator"* %8 to i8*
  call void @llvm.memcpy.p0i8.p0i8.i64(i8* %26, i8* %27, i64 16, i32 8, i1 false)
  %28 = bitcast %"struct.std::_Bit_const_iterator"* %12 to { i64*, i32 }*
  %29 = getelementptr inbounds { i64*, i32 }, { i64*, i32 }* %28, i32 0, i32 0
  %30 = load i64*, i64** %29, align 8
  %31 = getelementptr inbounds { i64*, i32 }, { i64*, i32 }* %28, i32 0, i32 1
  %32 = load i32, i32* %31, align 8
  %33 = call { i64*, i32 } @_ZSt12__niter_baseISt19_Bit_const_iteratorENSt11_Niter_baseIT_E13iterator_typeES2_(i64* %30, i32 %32)
  %34 = bitcast %"struct.std::_Bit_const_iterator"* %11 to { i64*, i32 }*
  %35 = getelementptr inbounds { i64*, i32 }, { i64*, i32 }* %34, i32 0, i32 0
  %36 = extractvalue { i64*, i32 } %33, 0
  store i64* %36, i64** %35, align 8
  %37 = getelementptr inbounds { i64*, i32 }, { i64*, i32 }* %34, i32 0, i32 1
  %38 = extractvalue { i64*, i32 } %33, 1
  store i32 %38, i32* %37, align 8
  %39 = bitcast %"struct.std::_Bit_const_iterator"* %14 to i8*
  %40 = bitcast %"struct.std::_Bit_const_iterator"* %9 to i8*
  call void @llvm.memcpy.p0i8.p0i8.i64(i8* %39, i8* %40, i64 16, i32 8, i1 false)
  %41 = bitcast %"struct.std::_Bit_const_iterator"* %14 to { i64*, i32 }*
  %42 = getelementptr inbounds { i64*, i32 }, { i64*, i32 }* %41, i32 0, i32 0
  %43 = load i64*, i64** %42, align 8
  %44 = getelementptr inbounds { i64*, i32 }, { i64*, i32 }* %41, i32 0, i32 1
  %45 = load i32, i32* %44, align 8
  %46 = call { i64*, i32 } @_ZSt12__niter_baseISt19_Bit_const_iteratorENSt11_Niter_baseIT_E13iterator_typeES2_(i64* %43, i32 %45)
  %47 = bitcast %"struct.std::_Bit_const_iterator"* %13 to { i64*, i32 }*
  %48 = getelementptr inbounds { i64*, i32 }, { i64*, i32 }* %47, i32 0, i32 0
  %49 = extractvalue { i64*, i32 } %46, 0
  store i64* %49, i64** %48, align 8
  %50 = getelementptr inbounds { i64*, i32 }, { i64*, i32 }* %47, i32 0, i32 1
  %51 = extractvalue { i64*, i32 } %46, 1
  store i32 %51, i32* %50, align 8
  %52 = bitcast %"struct.std::_Bit_iterator"* %16 to i8*
  %53 = bitcast %"struct.std::_Bit_iterator"* %10 to i8*
  call void @llvm.memcpy.p0i8.p0i8.i64(i8* %52, i8* %53, i64 16, i32 8, i1 false)
  %54 = bitcast %"struct.std::_Bit_iterator"* %16 to { i64*, i32 }*
  %55 = getelementptr inbounds { i64*, i32 }, { i64*, i32 }* %54, i32 0, i32 0
  %56 = load i64*, i64** %55, align 8
  %57 = getelementptr inbounds { i64*, i32 }, { i64*, i32 }* %54, i32 0, i32 1
  %58 = load i32, i32* %57, align 8
  %59 = call { i64*, i32 } @_ZSt12__niter_baseISt13_Bit_iteratorENSt11_Niter_baseIT_E13iterator_typeES2_(i64* %56, i32 %58)
  %60 = bitcast %"struct.std::_Bit_iterator"* %15 to { i64*, i32 }*
  %61 = getelementptr inbounds { i64*, i32 }, { i64*, i32 }* %60, i32 0, i32 0
  %62 = extractvalue { i64*, i32 } %59, 0
  store i64* %62, i64** %61, align 8
  %63 = getelementptr inbounds { i64*, i32 }, { i64*, i32 }* %60, i32 0, i32 1
  %64 = extractvalue { i64*, i32 } %59, 1
  store i32 %64, i32* %63, align 8
  %65 = bitcast %"struct.std::_Bit_const_iterator"* %11 to { i64*, i32 }*
  %66 = getelementptr inbounds { i64*, i32 }, { i64*, i32 }* %65, i32 0, i32 0
  %67 = load i64*, i64** %66, align 8
  %68 = getelementptr inbounds { i64*, i32 }, { i64*, i32 }* %65, i32 0, i32 1
  %69 = load i32, i32* %68, align 8
  %70 = bitcast %"struct.std::_Bit_const_iterator"* %13 to { i64*, i32 }*
  %71 = getelementptr inbounds { i64*, i32 }, { i64*, i32 }* %70, i32 0, i32 0
  %72 = load i64*, i64** %71, align 8
  %73 = getelementptr inbounds { i64*, i32 }, { i64*, i32 }* %70, i32 0, i32 1
  %74 = load i32, i32* %73, align 8
  %75 = bitcast %"struct.std::_Bit_iterator"* %15 to { i64*, i32 }*
  %76 = getelementptr inbounds { i64*, i32 }, { i64*, i32 }* %75, i32 0, i32 0
  %77 = load i64*, i64** %76, align 8
  %78 = getelementptr inbounds { i64*, i32 }, { i64*, i32 }* %75, i32 0, i32 1
  %79 = load i32, i32* %78, align 8
  %80 = call { i64*, i32 } @_ZSt13__copy_move_aILb0ESt19_Bit_const_iteratorSt13_Bit_iteratorET1_T0_S3_S2_(i64* %67, i32 %69, i64* %72, i32 %74, i64* %77, i32 %79)
  %81 = bitcast %"struct.std::_Bit_iterator"* %7 to { i64*, i32 }*
  %82 = getelementptr inbounds { i64*, i32 }, { i64*, i32 }* %81, i32 0, i32 0
  %83 = extractvalue { i64*, i32 } %80, 0
  store i64* %83, i64** %82, align 8
  %84 = getelementptr inbounds { i64*, i32 }, { i64*, i32 }* %81, i32 0, i32 1
  %85 = extractvalue { i64*, i32 } %80, 1
  store i32 %85, i32* %84, align 8
  %86 = bitcast %"struct.std::_Bit_iterator"* %7 to { i64*, i32 }*
  %87 = load { i64*, i32 }, { i64*, i32 }* %86, align 8
  ret { i64*, i32 } %87
}

; Function Attrs: noinline nounwind uwtable
define linkonce_odr { i64*, i32 } @_ZSt12__miter_baseISt19_Bit_const_iteratorENSt11_Miter_baseIT_E13iterator_typeES2_(i64*, i32) #4 comdat {
  %3 = alloca %"struct.std::_Bit_const_iterator", align 8
  %4 = alloca %"struct.std::_Bit_const_iterator", align 8
  %5 = alloca %"struct.std::_Bit_const_iterator", align 8
  %6 = bitcast %"struct.std::_Bit_const_iterator"* %4 to { i64*, i32 }*
  %7 = getelementptr inbounds { i64*, i32 }, { i64*, i32 }* %6, i32 0, i32 0
  store i64* %0, i64** %7, align 8
  %8 = getelementptr inbounds { i64*, i32 }, { i64*, i32 }* %6, i32 0, i32 1
  store i32 %1, i32* %8, align 8
  %9 = bitcast %"struct.std::_Bit_const_iterator"* %5 to i8*
  %10 = bitcast %"struct.std::_Bit_const_iterator"* %4 to i8*
  call void @llvm.memcpy.p0i8.p0i8.i64(i8* %9, i8* %10, i64 16, i32 8, i1 false)
  %11 = bitcast %"struct.std::_Bit_const_iterator"* %5 to { i64*, i32 }*
  %12 = getelementptr inbounds { i64*, i32 }, { i64*, i32 }* %11, i32 0, i32 0
  %13 = load i64*, i64** %12, align 8
  %14 = getelementptr inbounds { i64*, i32 }, { i64*, i32 }* %11, i32 0, i32 1
  %15 = load i32, i32* %14, align 8
  %16 = call { i64*, i32 } @_ZNSt10_Iter_baseISt19_Bit_const_iteratorLb0EE7_S_baseES0_(i64* %13, i32 %15)
  %17 = bitcast %"struct.std::_Bit_const_iterator"* %3 to { i64*, i32 }*
  %18 = getelementptr inbounds { i64*, i32 }, { i64*, i32 }* %17, i32 0, i32 0
  %19 = extractvalue { i64*, i32 } %16, 0
  store i64* %19, i64** %18, align 8
  %20 = getelementptr inbounds { i64*, i32 }, { i64*, i32 }* %17, i32 0, i32 1
  %21 = extractvalue { i64*, i32 } %16, 1
  store i32 %21, i32* %20, align 8
  %22 = bitcast %"struct.std::_Bit_const_iterator"* %3 to { i64*, i32 }*
  %23 = load { i64*, i32 }, { i64*, i32 }* %22, align 8
  ret { i64*, i32 } %23
}

; Function Attrs: noinline uwtable
define linkonce_odr { i64*, i32 } @_ZSt13__copy_move_aILb0ESt19_Bit_const_iteratorSt13_Bit_iteratorET1_T0_S3_S2_(i64*, i32, i64*, i32, i64*, i32) #0 comdat {
  %7 = alloca %"struct.std::_Bit_iterator", align 8
  %8 = alloca %"struct.std::_Bit_const_iterator", align 8
  %9 = alloca %"struct.std::_Bit_const_iterator", align 8
  %10 = alloca %"struct.std::_Bit_iterator", align 8
  %11 = alloca i8, align 1
  %12 = alloca %"struct.std::_Bit_const_iterator", align 8
  %13 = alloca %"struct.std::_Bit_const_iterator", align 8
  %14 = alloca %"struct.std::_Bit_iterator", align 8
  %15 = bitcast %"struct.std::_Bit_const_iterator"* %8 to { i64*, i32 }*
  %16 = getelementptr inbounds { i64*, i32 }, { i64*, i32 }* %15, i32 0, i32 0
  store i64* %0, i64** %16, align 8
  %17 = getelementptr inbounds { i64*, i32 }, { i64*, i32 }* %15, i32 0, i32 1
  store i32 %1, i32* %17, align 8
  %18 = bitcast %"struct.std::_Bit_const_iterator"* %9 to { i64*, i32 }*
  %19 = getelementptr inbounds { i64*, i32 }, { i64*, i32 }* %18, i32 0, i32 0
  store i64* %2, i64** %19, align 8
  %20 = getelementptr inbounds { i64*, i32 }, { i64*, i32 }* %18, i32 0, i32 1
  store i32 %3, i32* %20, align 8
  %21 = bitcast %"struct.std::_Bit_iterator"* %10 to { i64*, i32 }*
  %22 = getelementptr inbounds { i64*, i32 }, { i64*, i32 }* %21, i32 0, i32 0
  store i64* %4, i64** %22, align 8
  %23 = getelementptr inbounds { i64*, i32 }, { i64*, i32 }* %21, i32 0, i32 1
  store i32 %5, i32* %23, align 8
  store i8 0, i8* %11, align 1
  %24 = bitcast %"struct.std::_Bit_const_iterator"* %12 to i8*
  %25 = bitcast %"struct.std::_Bit_const_iterator"* %8 to i8*
  call void @llvm.memcpy.p0i8.p0i8.i64(i8* %24, i8* %25, i64 16, i32 8, i1 false)
  %26 = bitcast %"struct.std::_Bit_const_iterator"* %13 to i8*
  %27 = bitcast %"struct.std::_Bit_const_iterator"* %9 to i8*
  call void @llvm.memcpy.p0i8.p0i8.i64(i8* %26, i8* %27, i64 16, i32 8, i1 false)
  %28 = bitcast %"struct.std::_Bit_iterator"* %14 to i8*
  %29 = bitcast %"struct.std::_Bit_iterator"* %10 to i8*
  call void @llvm.memcpy.p0i8.p0i8.i64(i8* %28, i8* %29, i64 16, i32 8, i1 false)
  %30 = bitcast %"struct.std::_Bit_const_iterator"* %12 to { i64*, i32 }*
  %31 = getelementptr inbounds { i64*, i32 }, { i64*, i32 }* %30, i32 0, i32 0
  %32 = load i64*, i64** %31, align 8
  %33 = getelementptr inbounds { i64*, i32 }, { i64*, i32 }* %30, i32 0, i32 1
  %34 = load i32, i32* %33, align 8
  %35 = bitcast %"struct.std::_Bit_const_iterator"* %13 to { i64*, i32 }*
  %36 = getelementptr inbounds { i64*, i32 }, { i64*, i32 }* %35, i32 0, i32 0
  %37 = load i64*, i64** %36, align 8
  %38 = getelementptr inbounds { i64*, i32 }, { i64*, i32 }* %35, i32 0, i32 1
  %39 = load i32, i32* %38, align 8
  %40 = bitcast %"struct.std::_Bit_iterator"* %14 to { i64*, i32 }*
  %41 = getelementptr inbounds { i64*, i32 }, { i64*, i32 }* %40, i32 0, i32 0
  %42 = load i64*, i64** %41, align 8
  %43 = getelementptr inbounds { i64*, i32 }, { i64*, i32 }* %40, i32 0, i32 1
  %44 = load i32, i32* %43, align 8
  %45 = call { i64*, i32 } @_ZNSt11__copy_moveILb0ELb0ESt26random_access_iterator_tagE8__copy_mISt19_Bit_const_iteratorSt13_Bit_iteratorEET0_T_S6_S5_(i64* %32, i32 %34, i64* %37, i32 %39, i64* %42, i32 %44)
  %46 = bitcast %"struct.std::_Bit_iterator"* %7 to { i64*, i32 }*
  %47 = getelementptr inbounds { i64*, i32 }, { i64*, i32 }* %46, i32 0, i32 0
  %48 = extractvalue { i64*, i32 } %45, 0
  store i64* %48, i64** %47, align 8
  %49 = getelementptr inbounds { i64*, i32 }, { i64*, i32 }* %46, i32 0, i32 1
  %50 = extractvalue { i64*, i32 } %45, 1
  store i32 %50, i32* %49, align 8
  %51 = bitcast %"struct.std::_Bit_iterator"* %7 to { i64*, i32 }*
  %52 = load { i64*, i32 }, { i64*, i32 }* %51, align 8
  ret { i64*, i32 } %52
}

; Function Attrs: noinline uwtable
define linkonce_odr { i64*, i32 } @_ZSt12__niter_baseISt19_Bit_const_iteratorENSt11_Niter_baseIT_E13iterator_typeES2_(i64*, i32) #0 comdat {
  %3 = alloca %"struct.std::_Bit_const_iterator", align 8
  %4 = alloca %"struct.std::_Bit_const_iterator", align 8
  %5 = alloca %"struct.std::_Bit_const_iterator", align 8
  %6 = bitcast %"struct.std::_Bit_const_iterator"* %4 to { i64*, i32 }*
  %7 = getelementptr inbounds { i64*, i32 }, { i64*, i32 }* %6, i32 0, i32 0
  store i64* %0, i64** %7, align 8
  %8 = getelementptr inbounds { i64*, i32 }, { i64*, i32 }* %6, i32 0, i32 1
  store i32 %1, i32* %8, align 8
  %9 = bitcast %"struct.std::_Bit_const_iterator"* %5 to i8*
  %10 = bitcast %"struct.std::_Bit_const_iterator"* %4 to i8*
  call void @llvm.memcpy.p0i8.p0i8.i64(i8* %9, i8* %10, i64 16, i32 8, i1 false)
  %11 = bitcast %"struct.std::_Bit_const_iterator"* %5 to { i64*, i32 }*
  %12 = getelementptr inbounds { i64*, i32 }, { i64*, i32 }* %11, i32 0, i32 0
  %13 = load i64*, i64** %12, align 8
  %14 = getelementptr inbounds { i64*, i32 }, { i64*, i32 }* %11, i32 0, i32 1
  %15 = load i32, i32* %14, align 8
  %16 = call { i64*, i32 } @_ZNSt10_Iter_baseISt19_Bit_const_iteratorLb0EE7_S_baseES0_(i64* %13, i32 %15)
  %17 = bitcast %"struct.std::_Bit_const_iterator"* %3 to { i64*, i32 }*
  %18 = getelementptr inbounds { i64*, i32 }, { i64*, i32 }* %17, i32 0, i32 0
  %19 = extractvalue { i64*, i32 } %16, 0
  store i64* %19, i64** %18, align 8
  %20 = getelementptr inbounds { i64*, i32 }, { i64*, i32 }* %17, i32 0, i32 1
  %21 = extractvalue { i64*, i32 } %16, 1
  store i32 %21, i32* %20, align 8
  %22 = bitcast %"struct.std::_Bit_const_iterator"* %3 to { i64*, i32 }*
  %23 = load { i64*, i32 }, { i64*, i32 }* %22, align 8
  ret { i64*, i32 } %23
}

; Function Attrs: noinline uwtable
define linkonce_odr { i64*, i32 } @_ZSt12__niter_baseISt13_Bit_iteratorENSt11_Niter_baseIT_E13iterator_typeES2_(i64*, i32) #0 comdat {
  %3 = alloca %"struct.std::_Bit_iterator", align 8
  %4 = alloca %"struct.std::_Bit_iterator", align 8
  %5 = alloca %"struct.std::_Bit_iterator", align 8
  %6 = bitcast %"struct.std::_Bit_iterator"* %4 to { i64*, i32 }*
  %7 = getelementptr inbounds { i64*, i32 }, { i64*, i32 }* %6, i32 0, i32 0
  store i64* %0, i64** %7, align 8
  %8 = getelementptr inbounds { i64*, i32 }, { i64*, i32 }* %6, i32 0, i32 1
  store i32 %1, i32* %8, align 8
  %9 = bitcast %"struct.std::_Bit_iterator"* %5 to i8*
  %10 = bitcast %"struct.std::_Bit_iterator"* %4 to i8*
  call void @llvm.memcpy.p0i8.p0i8.i64(i8* %9, i8* %10, i64 16, i32 8, i1 false)
  %11 = bitcast %"struct.std::_Bit_iterator"* %5 to { i64*, i32 }*
  %12 = getelementptr inbounds { i64*, i32 }, { i64*, i32 }* %11, i32 0, i32 0
  %13 = load i64*, i64** %12, align 8
  %14 = getelementptr inbounds { i64*, i32 }, { i64*, i32 }* %11, i32 0, i32 1
  %15 = load i32, i32* %14, align 8
  %16 = call { i64*, i32 } @_ZNSt10_Iter_baseISt13_Bit_iteratorLb0EE7_S_baseES0_(i64* %13, i32 %15)
  %17 = bitcast %"struct.std::_Bit_iterator"* %3 to { i64*, i32 }*
  %18 = getelementptr inbounds { i64*, i32 }, { i64*, i32 }* %17, i32 0, i32 0
  %19 = extractvalue { i64*, i32 } %16, 0
  store i64* %19, i64** %18, align 8
  %20 = getelementptr inbounds { i64*, i32 }, { i64*, i32 }* %17, i32 0, i32 1
  %21 = extractvalue { i64*, i32 } %16, 1
  store i32 %21, i32* %20, align 8
  %22 = bitcast %"struct.std::_Bit_iterator"* %3 to { i64*, i32 }*
  %23 = load { i64*, i32 }, { i64*, i32 }* %22, align 8
  ret { i64*, i32 } %23
}

; Function Attrs: noinline uwtable
define linkonce_odr { i64*, i32 } @_ZNSt11__copy_moveILb0ELb0ESt26random_access_iterator_tagE8__copy_mISt19_Bit_const_iteratorSt13_Bit_iteratorEET0_T_S6_S5_(i64*, i32, i64*, i32, i64*, i32) #0 comdat align 2 {
  %7 = alloca %"struct.std::_Bit_iterator", align 8
  %8 = alloca %"struct.std::_Bit_const_iterator", align 8
  %9 = alloca %"struct.std::_Bit_const_iterator", align 8
  %10 = alloca %"struct.std::_Bit_iterator", align 8
  %11 = alloca i64, align 8
  %12 = alloca %"struct.std::_Bit_reference", align 8
  %13 = bitcast %"struct.std::_Bit_const_iterator"* %8 to { i64*, i32 }*
  %14 = getelementptr inbounds { i64*, i32 }, { i64*, i32 }* %13, i32 0, i32 0
  store i64* %0, i64** %14, align 8
  %15 = getelementptr inbounds { i64*, i32 }, { i64*, i32 }* %13, i32 0, i32 1
  store i32 %1, i32* %15, align 8
  %16 = bitcast %"struct.std::_Bit_const_iterator"* %9 to { i64*, i32 }*
  %17 = getelementptr inbounds { i64*, i32 }, { i64*, i32 }* %16, i32 0, i32 0
  store i64* %2, i64** %17, align 8
  %18 = getelementptr inbounds { i64*, i32 }, { i64*, i32 }* %16, i32 0, i32 1
  store i32 %3, i32* %18, align 8
  %19 = bitcast %"struct.std::_Bit_iterator"* %10 to { i64*, i32 }*
  %20 = getelementptr inbounds { i64*, i32 }, { i64*, i32 }* %19, i32 0, i32 0
  store i64* %4, i64** %20, align 8
  %21 = getelementptr inbounds { i64*, i32 }, { i64*, i32 }* %19, i32 0, i32 1
  store i32 %5, i32* %21, align 8
  %22 = bitcast %"struct.std::_Bit_const_iterator"* %9 to %"struct.std::_Bit_iterator_base"*
  %23 = bitcast %"struct.std::_Bit_const_iterator"* %8 to %"struct.std::_Bit_iterator_base"*
  %24 = call i64 @_ZStmiRKSt18_Bit_iterator_baseS1_(%"struct.std::_Bit_iterator_base"* dereferenceable(16) %22, %"struct.std::_Bit_iterator_base"* dereferenceable(16) %23)
  store i64 %24, i64* %11, align 8
  br label %25

; <label>:25:                                     ; preds = %39, %6
  %26 = load i64, i64* %11, align 8
  %27 = icmp sgt i64 %26, 0
  br i1 %27, label %28, label %45

; <label>:28:                                     ; preds = %25
  %29 = call zeroext i1 @_ZNKSt19_Bit_const_iteratordeEv(%"struct.std::_Bit_const_iterator"* %8)
  %30 = call { i64*, i64 } @_ZNKSt13_Bit_iteratordeEv(%"struct.std::_Bit_iterator"* %10)
  %31 = bitcast %"struct.std::_Bit_reference"* %12 to { i64*, i64 }*
  %32 = getelementptr inbounds { i64*, i64 }, { i64*, i64 }* %31, i32 0, i32 0
  %33 = extractvalue { i64*, i64 } %30, 0
  store i64* %33, i64** %32, align 8
  %34 = getelementptr inbounds { i64*, i64 }, { i64*, i64 }* %31, i32 0, i32 1
  %35 = extractvalue { i64*, i64 } %30, 1
  store i64 %35, i64* %34, align 8
  %36 = call dereferenceable(16) %"struct.std::_Bit_reference"* @_ZNSt14_Bit_referenceaSEb(%"struct.std::_Bit_reference"* %12, i1 zeroext %29) #3
  %37 = call dereferenceable(16) %"struct.std::_Bit_const_iterator"* @_ZNSt19_Bit_const_iteratorppEv(%"struct.std::_Bit_const_iterator"* %8)
  %38 = call dereferenceable(16) %"struct.std::_Bit_iterator"* @_ZNSt13_Bit_iteratorppEv(%"struct.std::_Bit_iterator"* %10)
  br label %39

; <label>:39:                                     ; preds = %28
  %40 = load i64, i64* %11, align 8
  %41 = sub i64 %40, -196965886002283155
  %42 = add i64 %41, -1
  %43 = add i64 %42, -196965886002283155
  %44 = add nsw i64 %40, -1
  store i64 %43, i64* %11, align 8
  br label %25

; <label>:45:                                     ; preds = %25
  %46 = bitcast %"struct.std::_Bit_iterator"* %7 to i8*
  %47 = bitcast %"struct.std::_Bit_iterator"* %10 to i8*
  call void @llvm.memcpy.p0i8.p0i8.i64(i8* %46, i8* %47, i64 16, i32 8, i1 false)
  %48 = bitcast %"struct.std::_Bit_iterator"* %7 to { i64*, i32 }*
  %49 = load { i64*, i32 }, { i64*, i32 }* %48, align 8
  ret { i64*, i32 } %49
}

; Function Attrs: noinline uwtable
define linkonce_odr zeroext i1 @_ZNKSt19_Bit_const_iteratordeEv(%"struct.std::_Bit_const_iterator"*) #0 comdat align 2 {
  %2 = alloca %"struct.std::_Bit_const_iterator"*, align 8
  %3 = alloca %"struct.std::_Bit_reference", align 8
  store %"struct.std::_Bit_const_iterator"* %0, %"struct.std::_Bit_const_iterator"** %2, align 8
  %4 = load %"struct.std::_Bit_const_iterator"*, %"struct.std::_Bit_const_iterator"** %2, align 8
  %5 = bitcast %"struct.std::_Bit_const_iterator"* %4 to %"struct.std::_Bit_iterator_base"*
  %6 = getelementptr inbounds %"struct.std::_Bit_iterator_base", %"struct.std::_Bit_iterator_base"* %5, i32 0, i32 0
  %7 = load i64*, i64** %6, align 8
  %8 = bitcast %"struct.std::_Bit_const_iterator"* %4 to %"struct.std::_Bit_iterator_base"*
  %9 = getelementptr inbounds %"struct.std::_Bit_iterator_base", %"struct.std::_Bit_iterator_base"* %8, i32 0, i32 1
  %10 = load i32, i32* %9, align 8
  %11 = zext i32 %10 to i64
  %12 = shl i64 1, %11
  call void @_ZNSt14_Bit_referenceC2EPmm(%"struct.std::_Bit_reference"* %3, i64* %7, i64 %12)
  %13 = call zeroext i1 @_ZNKSt14_Bit_referencecvbEv(%"struct.std::_Bit_reference"* %3) #3
  ret i1 %13
}

; Function Attrs: noinline uwtable
define linkonce_odr { i64*, i64 } @_ZNKSt13_Bit_iteratordeEv(%"struct.std::_Bit_iterator"*) #0 comdat align 2 {
  %2 = alloca %"struct.std::_Bit_reference", align 8
  %3 = alloca %"struct.std::_Bit_iterator"*, align 8
  store %"struct.std::_Bit_iterator"* %0, %"struct.std::_Bit_iterator"** %3, align 8
  %4 = load %"struct.std::_Bit_iterator"*, %"struct.std::_Bit_iterator"** %3, align 8
  %5 = bitcast %"struct.std::_Bit_iterator"* %4 to %"struct.std::_Bit_iterator_base"*
  %6 = getelementptr inbounds %"struct.std::_Bit_iterator_base", %"struct.std::_Bit_iterator_base"* %5, i32 0, i32 0
  %7 = load i64*, i64** %6, align 8
  %8 = bitcast %"struct.std::_Bit_iterator"* %4 to %"struct.std::_Bit_iterator_base"*
  %9 = getelementptr inbounds %"struct.std::_Bit_iterator_base", %"struct.std::_Bit_iterator_base"* %8, i32 0, i32 1
  %10 = load i32, i32* %9, align 8
  %11 = zext i32 %10 to i64
  %12 = shl i64 1, %11
  call void @_ZNSt14_Bit_referenceC2EPmm(%"struct.std::_Bit_reference"* %2, i64* %7, i64 %12)
  %13 = bitcast %"struct.std::_Bit_reference"* %2 to { i64*, i64 }*
  %14 = load { i64*, i64 }, { i64*, i64 }* %13, align 8
  ret { i64*, i64 } %14
}

; Function Attrs: noinline nounwind uwtable
define linkonce_odr dereferenceable(16) %"struct.std::_Bit_reference"* @_ZNSt14_Bit_referenceaSEb(%"struct.std::_Bit_reference"*, i1 zeroext) #4 comdat align 2 {
  %3 = alloca %"struct.std::_Bit_reference"*, align 8
  %4 = alloca i8, align 1
  store %"struct.std::_Bit_reference"* %0, %"struct.std::_Bit_reference"** %3, align 8
  %5 = zext i1 %1 to i8
  store i8 %5, i8* %4, align 1
  %6 = load %"struct.std::_Bit_reference"*, %"struct.std::_Bit_reference"** %3, align 8
  %7 = load i8, i8* %4, align 1
  %8 = trunc i8 %7 to i1
  br i1 %8, label %9, label %31

; <label>:9:                                      ; preds = %2
  %10 = getelementptr inbounds %"struct.std::_Bit_reference", %"struct.std::_Bit_reference"* %6, i32 0, i32 1
  %11 = load i64, i64* %10, align 8
  %12 = getelementptr inbounds %"struct.std::_Bit_reference", %"struct.std::_Bit_reference"* %6, i32 0, i32 0
  %13 = load i64*, i64** %12, align 8
  %14 = load i64, i64* %13, align 8
  %15 = xor i64 %14, -1
  %16 = xor i64 %11, -1
  %17 = xor i64 9018241685402220205, -1
  %18 = and i64 %15, 9018241685402220205
  %19 = and i64 %14, %17
  %20 = and i64 %16, 9018241685402220205
  %21 = and i64 %11, %17
  %22 = or i64 %18, %19
  %23 = or i64 %20, %21
  %24 = xor i64 %22, %23
  %25 = or i64 %15, %16
  %26 = xor i64 %25, -1
  %27 = or i64 9018241685402220205, %17
  %28 = and i64 %26, %27
  %29 = or i64 %24, %28
  %30 = or i64 %14, %11
  store i64 %29, i64* %13, align 8
  br label %56

; <label>:31:                                     ; preds = %2
  %32 = getelementptr inbounds %"struct.std::_Bit_reference", %"struct.std::_Bit_reference"* %6, i32 0, i32 1
  %33 = load i64, i64* %32, align 8
  %34 = xor i64 %33, -1
  %35 = and i64 -6556402026050242357, %34
  %36 = xor i64 -6556402026050242357, -1
  %37 = and i64 %33, %36
  %38 = xor i64 -1, -1
  %39 = and i64 %38, -6556402026050242357
  %40 = and i64 -1, %36
  %41 = or i64 %35, %37
  %42 = or i64 %39, %40
  %43 = xor i64 %41, %42
  %44 = xor i64 %33, -1
  %45 = getelementptr inbounds %"struct.std::_Bit_reference", %"struct.std::_Bit_reference"* %6, i32 0, i32 0
  %46 = load i64*, i64** %45, align 8
  %47 = load i64, i64* %46, align 8
  %48 = xor i64 %47, -1
  %49 = xor i64 %43, -1
  %50 = xor i64 -8249301225001195492, -1
  %51 = or i64 %48, %49
  %52 = or i64 -8249301225001195492, %50
  %53 = xor i64 %51, -1
  %54 = and i64 %53, %52
  %55 = and i64 %47, %43
  store i64 %54, i64* %46, align 8
  br label %56

; <label>:56:                                     ; preds = %31, %9
  ret %"struct.std::_Bit_reference"* %6
}

; Function Attrs: noinline uwtable
define linkonce_odr dereferenceable(16) %"struct.std::_Bit_const_iterator"* @_ZNSt19_Bit_const_iteratorppEv(%"struct.std::_Bit_const_iterator"*) #0 comdat align 2 {
  %2 = alloca %"struct.std::_Bit_const_iterator"*, align 8
  store %"struct.std::_Bit_const_iterator"* %0, %"struct.std::_Bit_const_iterator"** %2, align 8
  %3 = load %"struct.std::_Bit_const_iterator"*, %"struct.std::_Bit_const_iterator"** %2, align 8
  %4 = bitcast %"struct.std::_Bit_const_iterator"* %3 to %"struct.std::_Bit_iterator_base"*
  call void @_ZNSt18_Bit_iterator_base10_M_bump_upEv(%"struct.std::_Bit_iterator_base"* %4)
  ret %"struct.std::_Bit_const_iterator"* %3
}

; Function Attrs: noinline nounwind uwtable
define linkonce_odr dereferenceable(16) %"struct.std::_Bit_iterator"* @_ZNSt13_Bit_iteratorppEv(%"struct.std::_Bit_iterator"*) #4 comdat align 2 {
  %2 = alloca %"struct.std::_Bit_iterator"*, align 8
  store %"struct.std::_Bit_iterator"* %0, %"struct.std::_Bit_iterator"** %2, align 8
  %3 = load %"struct.std::_Bit_iterator"*, %"struct.std::_Bit_iterator"** %2, align 8
  %4 = bitcast %"struct.std::_Bit_iterator"* %3 to %"struct.std::_Bit_iterator_base"*
  call void @_ZNSt18_Bit_iterator_base10_M_bump_upEv(%"struct.std::_Bit_iterator_base"* %4)
  ret %"struct.std::_Bit_iterator"* %3
}

; Function Attrs: noinline nounwind uwtable
define linkonce_odr void @_ZNSt14_Bit_referenceC2EPmm(%"struct.std::_Bit_reference"*, i64*, i64) unnamed_addr #4 comdat align 2 {
  %4 = alloca %"struct.std::_Bit_reference"*, align 8
  %5 = alloca i64*, align 8
  %6 = alloca i64, align 8
  store %"struct.std::_Bit_reference"* %0, %"struct.std::_Bit_reference"** %4, align 8
  store i64* %1, i64** %5, align 8
  store i64 %2, i64* %6, align 8
  %7 = load %"struct.std::_Bit_reference"*, %"struct.std::_Bit_reference"** %4, align 8
  %8 = getelementptr inbounds %"struct.std::_Bit_reference", %"struct.std::_Bit_reference"* %7, i32 0, i32 0
  %9 = load i64*, i64** %5, align 8
  store i64* %9, i64** %8, align 8
  %10 = getelementptr inbounds %"struct.std::_Bit_reference", %"struct.std::_Bit_reference"* %7, i32 0, i32 1
  %11 = load i64, i64* %6, align 8
  store i64 %11, i64* %10, align 8
  ret void
}

; Function Attrs: noinline nounwind uwtable
define linkonce_odr zeroext i1 @_ZNKSt14_Bit_referencecvbEv(%"struct.std::_Bit_reference"*) #4 comdat align 2 {
  %2 = alloca %"struct.std::_Bit_reference"*, align 8
  store %"struct.std::_Bit_reference"* %0, %"struct.std::_Bit_reference"** %2, align 8
  %3 = load %"struct.std::_Bit_reference"*, %"struct.std::_Bit_reference"** %2, align 8
  %4 = getelementptr inbounds %"struct.std::_Bit_reference", %"struct.std::_Bit_reference"* %3, i32 0, i32 0
  %5 = load i64*, i64** %4, align 8
  %6 = load i64, i64* %5, align 8
  %7 = getelementptr inbounds %"struct.std::_Bit_reference", %"struct.std::_Bit_reference"* %3, i32 0, i32 1
  %8 = load i64, i64* %7, align 8
  %9 = xor i64 %6, -1
  %10 = xor i64 %8, -1
  %11 = xor i64 -3758431256043492562, -1
  %12 = or i64 %9, %10
  %13 = or i64 -3758431256043492562, %11
  %14 = xor i64 %12, -1
  %15 = and i64 %14, %13
  %16 = and i64 %6, %8
  %17 = icmp ne i64 %15, 0
  %18 = xor i1 %17, true
  %19 = and i1 true, %18
  %20 = xor i1 true, true
  %21 = and i1 %17, %20
  %22 = xor i1 true, true
  %23 = and i1 %22, true
  %24 = and i1 true, %20
  %25 = or i1 %19, %21
  %26 = or i1 %23, %24
  %27 = xor i1 %25, %26
  %28 = xor i1 %17, true
  %29 = xor i1 %27, true
  %30 = and i1 true, %29
  %31 = xor i1 true, true
  %32 = and i1 %27, %31
  %33 = xor i1 true, true
  %34 = and i1 %33, true
  %35 = and i1 true, %31
  %36 = or i1 %30, %32
  %37 = or i1 %34, %35
  %38 = xor i1 %36, %37
  %39 = xor i1 %27, true
  ret i1 %38
}

; Function Attrs: noinline nounwind uwtable
define linkonce_odr void @_ZNSt18_Bit_iterator_base10_M_bump_upEv(%"struct.std::_Bit_iterator_base"*) #4 comdat align 2 {
  %2 = alloca %"struct.std::_Bit_iterator_base"*, align 8
  store %"struct.std::_Bit_iterator_base"* %0, %"struct.std::_Bit_iterator_base"** %2, align 8
  %3 = load %"struct.std::_Bit_iterator_base"*, %"struct.std::_Bit_iterator_base"** %2, align 8
  %4 = getelementptr inbounds %"struct.std::_Bit_iterator_base", %"struct.std::_Bit_iterator_base"* %3, i32 0, i32 1
  %5 = load i32, i32* %4, align 8
  %6 = add i32 %5, -877102215
  %7 = add i32 %6, 1
  %8 = sub i32 %7, -877102215
  %9 = add i32 %5, 1
  store i32 %8, i32* %4, align 8
  %10 = icmp eq i32 %5, 63
  br i1 %10, label %11, label %16

; <label>:11:                                     ; preds = %1
  %12 = getelementptr inbounds %"struct.std::_Bit_iterator_base", %"struct.std::_Bit_iterator_base"* %3, i32 0, i32 1
  store i32 0, i32* %12, align 8
  %13 = getelementptr inbounds %"struct.std::_Bit_iterator_base", %"struct.std::_Bit_iterator_base"* %3, i32 0, i32 0
  %14 = load i64*, i64** %13, align 8
  %15 = getelementptr inbounds i64, i64* %14, i32 1
  store i64* %15, i64** %13, align 8
  br label %16

; <label>:16:                                     ; preds = %11, %1
  ret void
}

; Function Attrs: noinline nounwind uwtable
define linkonce_odr { i64*, i32 } @_ZNSt10_Iter_baseISt19_Bit_const_iteratorLb0EE7_S_baseES0_(i64*, i32) #4 comdat align 2 {
  %3 = alloca %"struct.std::_Bit_const_iterator", align 8
  %4 = alloca %"struct.std::_Bit_const_iterator", align 8
  %5 = bitcast %"struct.std::_Bit_const_iterator"* %4 to { i64*, i32 }*
  %6 = getelementptr inbounds { i64*, i32 }, { i64*, i32 }* %5, i32 0, i32 0
  store i64* %0, i64** %6, align 8
  %7 = getelementptr inbounds { i64*, i32 }, { i64*, i32 }* %5, i32 0, i32 1
  store i32 %1, i32* %7, align 8
  %8 = bitcast %"struct.std::_Bit_const_iterator"* %3 to i8*
  %9 = bitcast %"struct.std::_Bit_const_iterator"* %4 to i8*
  call void @llvm.memcpy.p0i8.p0i8.i64(i8* %8, i8* %9, i64 16, i32 8, i1 false)
  %10 = bitcast %"struct.std::_Bit_const_iterator"* %3 to { i64*, i32 }*
  %11 = load { i64*, i32 }, { i64*, i32 }* %10, align 8
  ret { i64*, i32 } %11
}

; Function Attrs: noinline nounwind uwtable
define linkonce_odr { i64*, i32 } @_ZNSt10_Iter_baseISt13_Bit_iteratorLb0EE7_S_baseES0_(i64*, i32) #4 comdat align 2 {
  %3 = alloca %"struct.std::_Bit_iterator", align 8
  %4 = alloca %"struct.std::_Bit_iterator", align 8
  %5 = bitcast %"struct.std::_Bit_iterator"* %4 to { i64*, i32 }*
  %6 = getelementptr inbounds { i64*, i32 }, { i64*, i32 }* %5, i32 0, i32 0
  store i64* %0, i64** %6, align 8
  %7 = getelementptr inbounds { i64*, i32 }, { i64*, i32 }* %5, i32 0, i32 1
  store i32 %1, i32* %7, align 8
  %8 = bitcast %"struct.std::_Bit_iterator"* %3 to i8*
  %9 = bitcast %"struct.std::_Bit_iterator"* %4 to i8*
  call void @llvm.memcpy.p0i8.p0i8.i64(i8* %8, i8* %9, i64 16, i32 8, i1 false)
  %10 = bitcast %"struct.std::_Bit_iterator"* %3 to { i64*, i32 }*
  %11 = load { i64*, i32 }, { i64*, i32 }* %10, align 8
  ret { i64*, i32 } %11
}

; Function Attrs: noinline nounwind uwtable
define linkonce_odr void @_ZNSt19_Bit_const_iteratorC2ERKSt13_Bit_iterator(%"struct.std::_Bit_const_iterator"*, %"struct.std::_Bit_iterator"* dereferenceable(16)) unnamed_addr #4 comdat align 2 {
  %3 = alloca %"struct.std::_Bit_const_iterator"*, align 8
  %4 = alloca %"struct.std::_Bit_iterator"*, align 8
  store %"struct.std::_Bit_const_iterator"* %0, %"struct.std::_Bit_const_iterator"** %3, align 8
  store %"struct.std::_Bit_iterator"* %1, %"struct.std::_Bit_iterator"** %4, align 8
  %5 = load %"struct.std::_Bit_const_iterator"*, %"struct.std::_Bit_const_iterator"** %3, align 8
  %6 = bitcast %"struct.std::_Bit_const_iterator"* %5 to %"struct.std::_Bit_iterator_base"*
  %7 = load %"struct.std::_Bit_iterator"*, %"struct.std::_Bit_iterator"** %4, align 8
  %8 = bitcast %"struct.std::_Bit_iterator"* %7 to %"struct.std::_Bit_iterator_base"*
  %9 = getelementptr inbounds %"struct.std::_Bit_iterator_base", %"struct.std::_Bit_iterator_base"* %8, i32 0, i32 0
  %10 = load i64*, i64** %9, align 8
  %11 = load %"struct.std::_Bit_iterator"*, %"struct.std::_Bit_iterator"** %4, align 8
  %12 = bitcast %"struct.std::_Bit_iterator"* %11 to %"struct.std::_Bit_iterator_base"*
  %13 = getelementptr inbounds %"struct.std::_Bit_iterator_base", %"struct.std::_Bit_iterator_base"* %12, i32 0, i32 1
  %14 = load i32, i32* %13, align 8
  call void @_ZNSt18_Bit_iterator_baseC2EPmj(%"struct.std::_Bit_iterator_base"* %6, i64* %10, i32 %14)
  ret void
}

; Function Attrs: noinline uwtable
define linkonce_odr void @_ZNSt12_Destroy_auxILb0EE9__destroyIPSt6vectorIbSaIbEEEEvT_S6_(%"class.std::vector.8"*, %"class.std::vector.8"*) #0 comdat align 2 {
  %3 = alloca %"class.std::vector.8"*, align 8
  %4 = alloca %"class.std::vector.8"*, align 8
  store %"class.std::vector.8"* %0, %"class.std::vector.8"** %3, align 8
  store %"class.std::vector.8"* %1, %"class.std::vector.8"** %4, align 8
  br label %5

; <label>:5:                                      ; preds = %12, %2
  %6 = load %"class.std::vector.8"*, %"class.std::vector.8"** %3, align 8
  %7 = load %"class.std::vector.8"*, %"class.std::vector.8"** %4, align 8
  %8 = icmp ne %"class.std::vector.8"* %6, %7
  br i1 %8, label %9, label %15

; <label>:9:                                      ; preds = %5
  %10 = load %"class.std::vector.8"*, %"class.std::vector.8"** %3, align 8
  %11 = call %"class.std::vector.8"* @_ZSt11__addressofISt6vectorIbSaIbEEEPT_RS3_(%"class.std::vector.8"* dereferenceable(40) %10) #3
  call void @_ZSt8_DestroyISt6vectorIbSaIbEEEvPT_(%"class.std::vector.8"* %11)
  br label %12

; <label>:12:                                     ; preds = %9
  %13 = load %"class.std::vector.8"*, %"class.std::vector.8"** %3, align 8
  %14 = getelementptr inbounds %"class.std::vector.8", %"class.std::vector.8"* %13, i32 1
  store %"class.std::vector.8"* %14, %"class.std::vector.8"** %3, align 8
  br label %5

; <label>:15:                                     ; preds = %5
  ret void
}

; Function Attrs: noinline nounwind uwtable
define linkonce_odr void @_ZSt8_DestroyISt6vectorIbSaIbEEEvPT_(%"class.std::vector.8"*) #4 comdat {
  %2 = alloca %"class.std::vector.8"*, align 8
  store %"class.std::vector.8"* %0, %"class.std::vector.8"** %2, align 8
  %3 = load %"class.std::vector.8"*, %"class.std::vector.8"** %2, align 8
  call void @_ZNSt6vectorIbSaIbEED2Ev(%"class.std::vector.8"* %3) #3
  ret void
}

; Function Attrs: noinline uwtable
define linkonce_odr void @_ZNSt12_Vector_baseISt6vectorIbSaIbEESaIS2_EE13_M_deallocateEPS2_m(%"struct.std::_Vector_base.4"*, %"class.std::vector.8"*, i64) #0 comdat align 2 {
  %4 = alloca %"struct.std::_Vector_base.4"*, align 8
  %5 = alloca %"class.std::vector.8"*, align 8
  %6 = alloca i64, align 8
  store %"struct.std::_Vector_base.4"* %0, %"struct.std::_Vector_base.4"** %4, align 8
  store %"class.std::vector.8"* %1, %"class.std::vector.8"** %5, align 8
  store i64 %2, i64* %6, align 8
  %7 = load %"struct.std::_Vector_base.4"*, %"struct.std::_Vector_base.4"** %4, align 8
  %8 = load %"class.std::vector.8"*, %"class.std::vector.8"** %5, align 8
  %9 = icmp ne %"class.std::vector.8"* %8, null
  br i1 %9, label %10, label %15

; <label>:10:                                     ; preds = %3
  %11 = getelementptr inbounds %"struct.std::_Vector_base.4", %"struct.std::_Vector_base.4"* %7, i32 0, i32 0
  %12 = bitcast %"struct.std::_Vector_base<std::vector<bool, std::allocator<bool> >, std::allocator<std::vector<bool, std::allocator<bool> > > >::_Vector_impl"* %11 to %"class.std::allocator.5"*
  %13 = load %"class.std::vector.8"*, %"class.std::vector.8"** %5, align 8
  %14 = load i64, i64* %6, align 8
  call void @_ZNSt16allocator_traitsISaISt6vectorIbSaIbEEEE10deallocateERS3_PS2_m(%"class.std::allocator.5"* dereferenceable(1) %12, %"class.std::vector.8"* %13, i64 %14)
  br label %15

; <label>:15:                                     ; preds = %10, %3
  ret void
}

; Function Attrs: noinline uwtable
define linkonce_odr void @_ZNSt16allocator_traitsISaISt6vectorIbSaIbEEEE10deallocateERS3_PS2_m(%"class.std::allocator.5"* dereferenceable(1), %"class.std::vector.8"*, i64) #0 comdat align 2 {
  %4 = alloca %"class.std::allocator.5"*, align 8
  %5 = alloca %"class.std::vector.8"*, align 8
  %6 = alloca i64, align 8
  store %"class.std::allocator.5"* %0, %"class.std::allocator.5"** %4, align 8
  store %"class.std::vector.8"* %1, %"class.std::vector.8"** %5, align 8
  store i64 %2, i64* %6, align 8
  %7 = load %"class.std::allocator.5"*, %"class.std::allocator.5"** %4, align 8
  %8 = bitcast %"class.std::allocator.5"* %7 to %"class.__gnu_cxx::new_allocator.6"*
  %9 = load %"class.std::vector.8"*, %"class.std::vector.8"** %5, align 8
  %10 = load i64, i64* %6, align 8
  call void @_ZN9__gnu_cxx13new_allocatorISt6vectorIbSaIbEEE10deallocateEPS3_m(%"class.__gnu_cxx::new_allocator.6"* %8, %"class.std::vector.8"* %9, i64 %10)
  ret void
}

; Function Attrs: noinline nounwind uwtable
define linkonce_odr void @_ZN9__gnu_cxx13new_allocatorISt6vectorIbSaIbEEE10deallocateEPS3_m(%"class.__gnu_cxx::new_allocator.6"*, %"class.std::vector.8"*, i64) #4 comdat align 2 {
  %4 = alloca %"class.__gnu_cxx::new_allocator.6"*, align 8
  %5 = alloca %"class.std::vector.8"*, align 8
  %6 = alloca i64, align 8
  store %"class.__gnu_cxx::new_allocator.6"* %0, %"class.__gnu_cxx::new_allocator.6"** %4, align 8
  store %"class.std::vector.8"* %1, %"class.std::vector.8"** %5, align 8
  store i64 %2, i64* %6, align 8
  %7 = load %"class.__gnu_cxx::new_allocator.6"*, %"class.__gnu_cxx::new_allocator.6"** %4, align 8
  %8 = load %"class.std::vector.8"*, %"class.std::vector.8"** %5, align 8
  %9 = bitcast %"class.std::vector.8"* %8 to i8*
  call void @_ZdlPv(i8* %9) #3
  ret void
}

; Function Attrs: noinline uwtable
define linkonce_odr void @_ZSt8_DestroyIPSt6vectorIbSaIbEES2_EvT_S4_RSaIT0_E(%"class.std::vector.8"*, %"class.std::vector.8"*, %"class.std::allocator.5"* dereferenceable(1)) #0 comdat {
  %4 = alloca %"class.std::vector.8"*, align 8
  %5 = alloca %"class.std::vector.8"*, align 8
  %6 = alloca %"class.std::allocator.5"*, align 8
  store %"class.std::vector.8"* %0, %"class.std::vector.8"** %4, align 8
  store %"class.std::vector.8"* %1, %"class.std::vector.8"** %5, align 8
  store %"class.std::allocator.5"* %2, %"class.std::allocator.5"** %6, align 8
  %7 = load %"class.std::vector.8"*, %"class.std::vector.8"** %4, align 8
  %8 = load %"class.std::vector.8"*, %"class.std::vector.8"** %5, align 8
  call void @_ZSt8_DestroyIPSt6vectorIbSaIbEEEvT_S4_(%"class.std::vector.8"* %7, %"class.std::vector.8"* %8)
  ret void
}

; Function Attrs: noinline nounwind uwtable
define linkonce_odr void @_ZN9__gnu_cxx13new_allocatorIiEC2Ev(%"class.__gnu_cxx::new_allocator.18"*) unnamed_addr #4 comdat align 2 {
  %2 = alloca %"class.__gnu_cxx::new_allocator.18"*, align 8
  store %"class.__gnu_cxx::new_allocator.18"* %0, %"class.__gnu_cxx::new_allocator.18"** %2, align 8
  %3 = load %"class.__gnu_cxx::new_allocator.18"*, %"class.__gnu_cxx::new_allocator.18"** %2, align 8
  ret void
}

; Function Attrs: noinline nounwind uwtable
define linkonce_odr void @_ZN9__gnu_cxx13new_allocatorIiED2Ev(%"class.__gnu_cxx::new_allocator.18"*) unnamed_addr #4 comdat align 2 {
  %2 = alloca %"class.__gnu_cxx::new_allocator.18"*, align 8
  store %"class.__gnu_cxx::new_allocator.18"* %0, %"class.__gnu_cxx::new_allocator.18"** %2, align 8
  %3 = load %"class.__gnu_cxx::new_allocator.18"*, %"class.__gnu_cxx::new_allocator.18"** %2, align 8
  ret void
}

; Function Attrs: noinline nounwind uwtable
define linkonce_odr void @_ZNSt12_Vector_baseIiSaIiEEC2ERKS0_(%"struct.std::_Vector_base.16"*, %"class.std::allocator.17"* dereferenceable(1)) unnamed_addr #4 comdat align 2 {
  %3 = alloca %"struct.std::_Vector_base.16"*, align 8
  %4 = alloca %"class.std::allocator.17"*, align 8
  store %"struct.std::_Vector_base.16"* %0, %"struct.std::_Vector_base.16"** %3, align 8
  store %"class.std::allocator.17"* %1, %"class.std::allocator.17"** %4, align 8
  %5 = load %"struct.std::_Vector_base.16"*, %"struct.std::_Vector_base.16"** %3, align 8
  %6 = getelementptr inbounds %"struct.std::_Vector_base.16", %"struct.std::_Vector_base.16"* %5, i32 0, i32 0
  %7 = load %"class.std::allocator.17"*, %"class.std::allocator.17"** %4, align 8
  call void @_ZNSt12_Vector_baseIiSaIiEE12_Vector_implC2ERKS0_(%"struct.std::_Vector_base<int, std::allocator<int> >::_Vector_impl"* %6, %"class.std::allocator.17"* dereferenceable(1) %7) #3
  ret void
}

; Function Attrs: noinline uwtable
define linkonce_odr void @_ZNSt6vectorIiSaIiEE19_M_range_initializeIPKiEEvT_S5_St20forward_iterator_tag(%"class.std::vector.15"*, i32*, i32*) #0 comdat align 2 {
  %4 = alloca %"struct.std::forward_iterator_tag", align 1
  %5 = alloca %"class.std::vector.15"*, align 8
  %6 = alloca i32*, align 8
  %7 = alloca i32*, align 8
  %8 = alloca i64, align 8
  store %"class.std::vector.15"* %0, %"class.std::vector.15"** %5, align 8
  store i32* %1, i32** %6, align 8
  store i32* %2, i32** %7, align 8
  %9 = load %"class.std::vector.15"*, %"class.std::vector.15"** %5, align 8
  %10 = load i32*, i32** %6, align 8
  %11 = load i32*, i32** %7, align 8
  %12 = call i64 @_ZSt8distanceIPKiENSt15iterator_traitsIT_E15difference_typeES3_S3_(i32* %10, i32* %11)
  store i64 %12, i64* %8, align 8
  %13 = bitcast %"class.std::vector.15"* %9 to %"struct.std::_Vector_base.16"*
  %14 = load i64, i64* %8, align 8
  %15 = call i32* @_ZNSt12_Vector_baseIiSaIiEE11_M_allocateEm(%"struct.std::_Vector_base.16"* %13, i64 %14)
  %16 = bitcast %"class.std::vector.15"* %9 to %"struct.std::_Vector_base.16"*
  %17 = getelementptr inbounds %"struct.std::_Vector_base.16", %"struct.std::_Vector_base.16"* %16, i32 0, i32 0
  %18 = getelementptr inbounds %"struct.std::_Vector_base<int, std::allocator<int> >::_Vector_impl", %"struct.std::_Vector_base<int, std::allocator<int> >::_Vector_impl"* %17, i32 0, i32 0
  store i32* %15, i32** %18, align 8
  %19 = bitcast %"class.std::vector.15"* %9 to %"struct.std::_Vector_base.16"*
  %20 = getelementptr inbounds %"struct.std::_Vector_base.16", %"struct.std::_Vector_base.16"* %19, i32 0, i32 0
  %21 = getelementptr inbounds %"struct.std::_Vector_base<int, std::allocator<int> >::_Vector_impl", %"struct.std::_Vector_base<int, std::allocator<int> >::_Vector_impl"* %20, i32 0, i32 0
  %22 = load i32*, i32** %21, align 8
  %23 = load i64, i64* %8, align 8
  %24 = getelementptr inbounds i32, i32* %22, i64 %23
  %25 = bitcast %"class.std::vector.15"* %9 to %"struct.std::_Vector_base.16"*
  %26 = getelementptr inbounds %"struct.std::_Vector_base.16", %"struct.std::_Vector_base.16"* %25, i32 0, i32 0
  %27 = getelementptr inbounds %"struct.std::_Vector_base<int, std::allocator<int> >::_Vector_impl", %"struct.std::_Vector_base<int, std::allocator<int> >::_Vector_impl"* %26, i32 0, i32 2
  store i32* %24, i32** %27, align 8
  %28 = load i32*, i32** %6, align 8
  %29 = load i32*, i32** %7, align 8
  %30 = bitcast %"class.std::vector.15"* %9 to %"struct.std::_Vector_base.16"*
  %31 = getelementptr inbounds %"struct.std::_Vector_base.16", %"struct.std::_Vector_base.16"* %30, i32 0, i32 0
  %32 = getelementptr inbounds %"struct.std::_Vector_base<int, std::allocator<int> >::_Vector_impl", %"struct.std::_Vector_base<int, std::allocator<int> >::_Vector_impl"* %31, i32 0, i32 0
  %33 = load i32*, i32** %32, align 8
  %34 = bitcast %"class.std::vector.15"* %9 to %"struct.std::_Vector_base.16"*
  %35 = call dereferenceable(1) %"class.std::allocator.17"* @_ZNSt12_Vector_baseIiSaIiEE19_M_get_Tp_allocatorEv(%"struct.std::_Vector_base.16"* %34) #3
  %36 = call i32* @_ZSt22__uninitialized_copy_aIPKiPiiET0_T_S4_S3_RSaIT1_E(i32* %28, i32* %29, i32* %33, %"class.std::allocator.17"* dereferenceable(1) %35)
  %37 = bitcast %"class.std::vector.15"* %9 to %"struct.std::_Vector_base.16"*
  %38 = getelementptr inbounds %"struct.std::_Vector_base.16", %"struct.std::_Vector_base.16"* %37, i32 0, i32 0
  %39 = getelementptr inbounds %"struct.std::_Vector_base<int, std::allocator<int> >::_Vector_impl", %"struct.std::_Vector_base<int, std::allocator<int> >::_Vector_impl"* %38, i32 0, i32 1
  store i32* %36, i32** %39, align 8
  ret void
}

; Function Attrs: noinline nounwind uwtable
define linkonce_odr i32* @_ZNKSt16initializer_listIiE5beginEv(%"class.std::initializer_list"*) #4 comdat align 2 {
  %2 = alloca %"class.std::initializer_list"*, align 8
  store %"class.std::initializer_list"* %0, %"class.std::initializer_list"** %2, align 8
  %3 = load %"class.std::initializer_list"*, %"class.std::initializer_list"** %2, align 8
  %4 = getelementptr inbounds %"class.std::initializer_list", %"class.std::initializer_list"* %3, i32 0, i32 0
  %5 = load i32*, i32** %4, align 8
  ret i32* %5
}

; Function Attrs: noinline nounwind uwtable
define linkonce_odr i32* @_ZNKSt16initializer_listIiE3endEv(%"class.std::initializer_list"*) #4 comdat align 2 {
  %2 = alloca %"class.std::initializer_list"*, align 8
  store %"class.std::initializer_list"* %0, %"class.std::initializer_list"** %2, align 8
  %3 = load %"class.std::initializer_list"*, %"class.std::initializer_list"** %2, align 8
  %4 = call i32* @_ZNKSt16initializer_listIiE5beginEv(%"class.std::initializer_list"* %3) #3
  %5 = call i64 @_ZNKSt16initializer_listIiE4sizeEv(%"class.std::initializer_list"* %3) #3
  %6 = getelementptr inbounds i32, i32* %4, i64 %5
  ret i32* %6
}

; Function Attrs: noinline nounwind uwtable
define linkonce_odr void @_ZNSt12_Vector_baseIiSaIiEED2Ev(%"struct.std::_Vector_base.16"*) unnamed_addr #4 comdat align 2 personality i8* bitcast (i32 (...)* @__gxx_personality_v0 to i8*) {
  %2 = alloca %"struct.std::_Vector_base.16"*, align 8
  %3 = alloca i8*
  %4 = alloca i32
  store %"struct.std::_Vector_base.16"* %0, %"struct.std::_Vector_base.16"** %2, align 8
  %5 = load %"struct.std::_Vector_base.16"*, %"struct.std::_Vector_base.16"** %2, align 8
  %6 = getelementptr inbounds %"struct.std::_Vector_base.16", %"struct.std::_Vector_base.16"* %5, i32 0, i32 0
  %7 = getelementptr inbounds %"struct.std::_Vector_base<int, std::allocator<int> >::_Vector_impl", %"struct.std::_Vector_base<int, std::allocator<int> >::_Vector_impl"* %6, i32 0, i32 0
  %8 = load i32*, i32** %7, align 8
  %9 = getelementptr inbounds %"struct.std::_Vector_base.16", %"struct.std::_Vector_base.16"* %5, i32 0, i32 0
  %10 = getelementptr inbounds %"struct.std::_Vector_base<int, std::allocator<int> >::_Vector_impl", %"struct.std::_Vector_base<int, std::allocator<int> >::_Vector_impl"* %9, i32 0, i32 2
  %11 = load i32*, i32** %10, align 8
  %12 = getelementptr inbounds %"struct.std::_Vector_base.16", %"struct.std::_Vector_base.16"* %5, i32 0, i32 0
  %13 = getelementptr inbounds %"struct.std::_Vector_base<int, std::allocator<int> >::_Vector_impl", %"struct.std::_Vector_base<int, std::allocator<int> >::_Vector_impl"* %12, i32 0, i32 0
  %14 = load i32*, i32** %13, align 8
  %15 = ptrtoint i32* %11 to i64
  %16 = ptrtoint i32* %14 to i64
  %17 = sub i64 %15, -8167815869948524265
  %18 = sub i64 %17, %16
  %19 = add i64 %18, -8167815869948524265
  %20 = sub i64 %15, %16
  %21 = sdiv exact i64 %19, 4
  invoke void @_ZNSt12_Vector_baseIiSaIiEE13_M_deallocateEPim(%"struct.std::_Vector_base.16"* %5, i32* %8, i64 %21)
          to label %22 unwind label %24

; <label>:22:                                     ; preds = %1
  %23 = getelementptr inbounds %"struct.std::_Vector_base.16", %"struct.std::_Vector_base.16"* %5, i32 0, i32 0
  call void @_ZNSt12_Vector_baseIiSaIiEE12_Vector_implD2Ev(%"struct.std::_Vector_base<int, std::allocator<int> >::_Vector_impl"* %23) #3
  ret void

; <label>:24:                                     ; preds = %1
  %25 = landingpad { i8*, i32 }
          catch i8* null
  %26 = extractvalue { i8*, i32 } %25, 0
  store i8* %26, i8** %3, align 8
  %27 = extractvalue { i8*, i32 } %25, 1
  store i32 %27, i32* %4, align 4
  %28 = getelementptr inbounds %"struct.std::_Vector_base.16", %"struct.std::_Vector_base.16"* %5, i32 0, i32 0
  call void @_ZNSt12_Vector_baseIiSaIiEE12_Vector_implD2Ev(%"struct.std::_Vector_base<int, std::allocator<int> >::_Vector_impl"* %28) #3
  br label %29

; <label>:29:                                     ; preds = %24
  %30 = load i8*, i8** %3, align 8
  call void @__clang_call_terminate(i8* %30) #11
  unreachable
}

; Function Attrs: noinline nounwind uwtable
define linkonce_odr void @_ZNSt12_Vector_baseIiSaIiEE12_Vector_implC2ERKS0_(%"struct.std::_Vector_base<int, std::allocator<int> >::_Vector_impl"*, %"class.std::allocator.17"* dereferenceable(1)) unnamed_addr #4 comdat align 2 {
  %3 = alloca %"struct.std::_Vector_base<int, std::allocator<int> >::_Vector_impl"*, align 8
  %4 = alloca %"class.std::allocator.17"*, align 8
  store %"struct.std::_Vector_base<int, std::allocator<int> >::_Vector_impl"* %0, %"struct.std::_Vector_base<int, std::allocator<int> >::_Vector_impl"** %3, align 8
  store %"class.std::allocator.17"* %1, %"class.std::allocator.17"** %4, align 8
  %5 = load %"struct.std::_Vector_base<int, std::allocator<int> >::_Vector_impl"*, %"struct.std::_Vector_base<int, std::allocator<int> >::_Vector_impl"** %3, align 8
  %6 = bitcast %"struct.std::_Vector_base<int, std::allocator<int> >::_Vector_impl"* %5 to %"class.std::allocator.17"*
  %7 = load %"class.std::allocator.17"*, %"class.std::allocator.17"** %4, align 8
  call void @_ZNSaIiEC2ERKS_(%"class.std::allocator.17"* %6, %"class.std::allocator.17"* dereferenceable(1) %7) #3
  %8 = getelementptr inbounds %"struct.std::_Vector_base<int, std::allocator<int> >::_Vector_impl", %"struct.std::_Vector_base<int, std::allocator<int> >::_Vector_impl"* %5, i32 0, i32 0
  store i32* null, i32** %8, align 8
  %9 = getelementptr inbounds %"struct.std::_Vector_base<int, std::allocator<int> >::_Vector_impl", %"struct.std::_Vector_base<int, std::allocator<int> >::_Vector_impl"* %5, i32 0, i32 1
  store i32* null, i32** %9, align 8
  %10 = getelementptr inbounds %"struct.std::_Vector_base<int, std::allocator<int> >::_Vector_impl", %"struct.std::_Vector_base<int, std::allocator<int> >::_Vector_impl"* %5, i32 0, i32 2
  store i32* null, i32** %10, align 8
  ret void
}

; Function Attrs: noinline nounwind uwtable
define linkonce_odr void @_ZNSaIiEC2ERKS_(%"class.std::allocator.17"*, %"class.std::allocator.17"* dereferenceable(1)) unnamed_addr #4 comdat align 2 {
  %3 = alloca %"class.std::allocator.17"*, align 8
  %4 = alloca %"class.std::allocator.17"*, align 8
  store %"class.std::allocator.17"* %0, %"class.std::allocator.17"** %3, align 8
  store %"class.std::allocator.17"* %1, %"class.std::allocator.17"** %4, align 8
  %5 = load %"class.std::allocator.17"*, %"class.std::allocator.17"** %3, align 8
  %6 = bitcast %"class.std::allocator.17"* %5 to %"class.__gnu_cxx::new_allocator.18"*
  %7 = load %"class.std::allocator.17"*, %"class.std::allocator.17"** %4, align 8
  %8 = bitcast %"class.std::allocator.17"* %7 to %"class.__gnu_cxx::new_allocator.18"*
  call void @_ZN9__gnu_cxx13new_allocatorIiEC2ERKS1_(%"class.__gnu_cxx::new_allocator.18"* %6, %"class.__gnu_cxx::new_allocator.18"* dereferenceable(1) %8) #3
  ret void
}

; Function Attrs: noinline nounwind uwtable
define linkonce_odr void @_ZN9__gnu_cxx13new_allocatorIiEC2ERKS1_(%"class.__gnu_cxx::new_allocator.18"*, %"class.__gnu_cxx::new_allocator.18"* dereferenceable(1)) unnamed_addr #4 comdat align 2 {
  %3 = alloca %"class.__gnu_cxx::new_allocator.18"*, align 8
  %4 = alloca %"class.__gnu_cxx::new_allocator.18"*, align 8
  store %"class.__gnu_cxx::new_allocator.18"* %0, %"class.__gnu_cxx::new_allocator.18"** %3, align 8
  store %"class.__gnu_cxx::new_allocator.18"* %1, %"class.__gnu_cxx::new_allocator.18"** %4, align 8
  %5 = load %"class.__gnu_cxx::new_allocator.18"*, %"class.__gnu_cxx::new_allocator.18"** %3, align 8
  ret void
}

; Function Attrs: noinline uwtable
define linkonce_odr i64 @_ZSt8distanceIPKiENSt15iterator_traitsIT_E15difference_typeES3_S3_(i32*, i32*) #0 comdat {
  %3 = alloca i32*, align 8
  %4 = alloca i32*, align 8
  %5 = alloca %"struct.std::random_access_iterator_tag", align 1
  %6 = alloca %"struct.std::random_access_iterator_tag", align 1
  store i32* %0, i32** %3, align 8
  store i32* %1, i32** %4, align 8
  %7 = load i32*, i32** %3, align 8
  %8 = load i32*, i32** %4, align 8
  call void @_ZSt19__iterator_categoryIPKiENSt15iterator_traitsIT_E17iterator_categoryERKS3_(i32** dereferenceable(8) %3)
  %9 = call i64 @_ZSt10__distanceIPKiENSt15iterator_traitsIT_E15difference_typeES3_S3_St26random_access_iterator_tag(i32* %7, i32* %8)
  ret i64 %9
}

; Function Attrs: noinline uwtable
define linkonce_odr i32* @_ZNSt12_Vector_baseIiSaIiEE11_M_allocateEm(%"struct.std::_Vector_base.16"*, i64) #0 comdat align 2 {
  %3 = alloca %"struct.std::_Vector_base.16"*, align 8
  %4 = alloca i64, align 8
  store %"struct.std::_Vector_base.16"* %0, %"struct.std::_Vector_base.16"** %3, align 8
  store i64 %1, i64* %4, align 8
  %5 = load %"struct.std::_Vector_base.16"*, %"struct.std::_Vector_base.16"** %3, align 8
  %6 = load i64, i64* %4, align 8
  %7 = icmp ne i64 %6, 0
  br i1 %7, label %8, label %13

; <label>:8:                                      ; preds = %2
  %9 = getelementptr inbounds %"struct.std::_Vector_base.16", %"struct.std::_Vector_base.16"* %5, i32 0, i32 0
  %10 = bitcast %"struct.std::_Vector_base<int, std::allocator<int> >::_Vector_impl"* %9 to %"class.std::allocator.17"*
  %11 = load i64, i64* %4, align 8
  %12 = call i32* @_ZNSt16allocator_traitsISaIiEE8allocateERS0_m(%"class.std::allocator.17"* dereferenceable(1) %10, i64 %11)
  br label %14

; <label>:13:                                     ; preds = %2
  br label %14

; <label>:14:                                     ; preds = %13, %8
  %15 = phi i32* [ %12, %8 ], [ null, %13 ]
  ret i32* %15
}

; Function Attrs: noinline uwtable
define linkonce_odr i32* @_ZSt22__uninitialized_copy_aIPKiPiiET0_T_S4_S3_RSaIT1_E(i32*, i32*, i32*, %"class.std::allocator.17"* dereferenceable(1)) #0 comdat {
  %5 = alloca i32*, align 8
  %6 = alloca i32*, align 8
  %7 = alloca i32*, align 8
  %8 = alloca %"class.std::allocator.17"*, align 8
  store i32* %0, i32** %5, align 8
  store i32* %1, i32** %6, align 8
  store i32* %2, i32** %7, align 8
  store %"class.std::allocator.17"* %3, %"class.std::allocator.17"** %8, align 8
  %9 = load i32*, i32** %5, align 8
  %10 = load i32*, i32** %6, align 8
  %11 = load i32*, i32** %7, align 8
  %12 = call i32* @_ZSt18uninitialized_copyIPKiPiET0_T_S4_S3_(i32* %9, i32* %10, i32* %11)
  ret i32* %12
}

; Function Attrs: noinline nounwind uwtable
